ARM GAS  C:\Users\EBANO_~1\AppData\Local\Temp\ccazSBuk.s 			page 1


   1              		.cpu cortex-m0plus
   2              		.eabi_attribute 20, 1
   3              		.eabi_attribute 21, 1
   4              		.eabi_attribute 23, 3
   5              		.eabi_attribute 24, 1
   6              		.eabi_attribute 25, 1
   7              		.eabi_attribute 26, 1
   8              		.eabi_attribute 30, 2
   9              		.eabi_attribute 34, 0
  10              		.eabi_attribute 18, 4
  11              		.file	"RegionRU864.c"
  12              		.text
  13              	.Ltext0:
  14              		.cfi_sections	.debug_frame
  15              		.section	.text.RegionRU864GetPhyParam,"ax",%progbits
  16              		.align	1
  17              		.p2align 2,,3
  18              		.global	RegionRU864GetPhyParam
  19              		.syntax unified
  20              		.code	16
  21              		.thumb_func
  22              		.fpu softvfp
  23              		.type	RegionRU864GetPhyParam, %function
  24              	RegionRU864GetPhyParam:
  25              	.LFB44:
  26              		.file 1 "../../../../../../Middlewares/Third_Party/LoRaWAN/Mac/region/RegionRU864.c"
   1:../../../../../../Middlewares/Third_Party/LoRaWAN/Mac/region/RegionRU864.c **** /*!
   2:../../../../../../Middlewares/Third_Party/LoRaWAN/Mac/region/RegionRU864.c ****  * \file      RegionRU864.c
   3:../../../../../../Middlewares/Third_Party/LoRaWAN/Mac/region/RegionRU864.c ****  *
   4:../../../../../../Middlewares/Third_Party/LoRaWAN/Mac/region/RegionRU864.c ****  * \brief     Region implementation for RU864
   5:../../../../../../Middlewares/Third_Party/LoRaWAN/Mac/region/RegionRU864.c ****  *
   6:../../../../../../Middlewares/Third_Party/LoRaWAN/Mac/region/RegionRU864.c ****  * \copyright Revised BSD License, see section \ref LICENSE.
   7:../../../../../../Middlewares/Third_Party/LoRaWAN/Mac/region/RegionRU864.c ****  *
   8:../../../../../../Middlewares/Third_Party/LoRaWAN/Mac/region/RegionRU864.c ****  * \code
   9:../../../../../../Middlewares/Third_Party/LoRaWAN/Mac/region/RegionRU864.c ****  *                ______                              _
  10:../../../../../../Middlewares/Third_Party/LoRaWAN/Mac/region/RegionRU864.c ****  *               / _____)             _              | |
  11:../../../../../../Middlewares/Third_Party/LoRaWAN/Mac/region/RegionRU864.c ****  *              ( (____  _____ ____ _| |_ _____  ____| |__
  12:../../../../../../Middlewares/Third_Party/LoRaWAN/Mac/region/RegionRU864.c ****  *               \____ \| ___ |    (_   _) ___ |/ ___)  _ \
  13:../../../../../../Middlewares/Third_Party/LoRaWAN/Mac/region/RegionRU864.c ****  *               _____) ) ____| | | || |_| ____( (___| | | |
  14:../../../../../../Middlewares/Third_Party/LoRaWAN/Mac/region/RegionRU864.c ****  *              (______/|_____)_|_|_| \__)_____)\____)_| |_|
  15:../../../../../../Middlewares/Third_Party/LoRaWAN/Mac/region/RegionRU864.c ****  *              (C)2013-2017 Semtech
  16:../../../../../../Middlewares/Third_Party/LoRaWAN/Mac/region/RegionRU864.c ****  *
  17:../../../../../../Middlewares/Third_Party/LoRaWAN/Mac/region/RegionRU864.c ****  *               ___ _____ _   ___ _  _____ ___  ___  ___ ___
  18:../../../../../../Middlewares/Third_Party/LoRaWAN/Mac/region/RegionRU864.c ****  *              / __|_   _/_\ / __| |/ / __/ _ \| _ \/ __| __|
  19:../../../../../../Middlewares/Third_Party/LoRaWAN/Mac/region/RegionRU864.c ****  *              \__ \ | |/ _ \ (__| ' <| _| (_) |   / (__| _|
  20:../../../../../../Middlewares/Third_Party/LoRaWAN/Mac/region/RegionRU864.c ****  *              |___/ |_/_/ \_\___|_|\_\_| \___/|_|_\\___|___|
  21:../../../../../../Middlewares/Third_Party/LoRaWAN/Mac/region/RegionRU864.c ****  *              embedded.connectivity.solutions===============
  22:../../../../../../Middlewares/Third_Party/LoRaWAN/Mac/region/RegionRU864.c ****  *
  23:../../../../../../Middlewares/Third_Party/LoRaWAN/Mac/region/RegionRU864.c ****  * \endcode
  24:../../../../../../Middlewares/Third_Party/LoRaWAN/Mac/region/RegionRU864.c ****  *
  25:../../../../../../Middlewares/Third_Party/LoRaWAN/Mac/region/RegionRU864.c ****  * \author    Miguel Luis ( Semtech )
  26:../../../../../../Middlewares/Third_Party/LoRaWAN/Mac/region/RegionRU864.c ****  *
  27:../../../../../../Middlewares/Third_Party/LoRaWAN/Mac/region/RegionRU864.c ****  * \author    Gregory Cristian ( Semtech )
  28:../../../../../../Middlewares/Third_Party/LoRaWAN/Mac/region/RegionRU864.c ****  *
  29:../../../../../../Middlewares/Third_Party/LoRaWAN/Mac/region/RegionRU864.c ****  * \author    Daniel Jaeckle ( STACKFORCE )
  30:../../../../../../Middlewares/Third_Party/LoRaWAN/Mac/region/RegionRU864.c **** */
  31:../../../../../../Middlewares/Third_Party/LoRaWAN/Mac/region/RegionRU864.c **** #include "utilities.h"
ARM GAS  C:\Users\EBANO_~1\AppData\Local\Temp\ccazSBuk.s 			page 2


  32:../../../../../../Middlewares/Third_Party/LoRaWAN/Mac/region/RegionRU864.c **** 
  33:../../../../../../Middlewares/Third_Party/LoRaWAN/Mac/region/RegionRU864.c **** #include "RegionCommon.h"
  34:../../../../../../Middlewares/Third_Party/LoRaWAN/Mac/region/RegionRU864.c **** #include "RegionRU864.h"
  35:../../../../../../Middlewares/Third_Party/LoRaWAN/Mac/region/RegionRU864.c **** #include "util_console.h"
  36:../../../../../../Middlewares/Third_Party/LoRaWAN/Mac/region/RegionRU864.c **** 
  37:../../../../../../Middlewares/Third_Party/LoRaWAN/Mac/region/RegionRU864.c **** // Definitions
  38:../../../../../../Middlewares/Third_Party/LoRaWAN/Mac/region/RegionRU864.c **** #define CHANNELS_MASK_SIZE              1
  39:../../../../../../Middlewares/Third_Party/LoRaWAN/Mac/region/RegionRU864.c **** 
  40:../../../../../../Middlewares/Third_Party/LoRaWAN/Mac/region/RegionRU864.c **** /*!
  41:../../../../../../Middlewares/Third_Party/LoRaWAN/Mac/region/RegionRU864.c ****  * Region specific context
  42:../../../../../../Middlewares/Third_Party/LoRaWAN/Mac/region/RegionRU864.c ****  */
  43:../../../../../../Middlewares/Third_Party/LoRaWAN/Mac/region/RegionRU864.c **** typedef struct sRegionRU864NvmCtx
  44:../../../../../../Middlewares/Third_Party/LoRaWAN/Mac/region/RegionRU864.c **** {
  45:../../../../../../Middlewares/Third_Party/LoRaWAN/Mac/region/RegionRU864.c ****     /*!
  46:../../../../../../Middlewares/Third_Party/LoRaWAN/Mac/region/RegionRU864.c ****      * LoRaMAC channels
  47:../../../../../../Middlewares/Third_Party/LoRaWAN/Mac/region/RegionRU864.c ****      */
  48:../../../../../../Middlewares/Third_Party/LoRaWAN/Mac/region/RegionRU864.c ****     ChannelParams_t Channels[ RU864_MAX_NB_CHANNELS ];
  49:../../../../../../Middlewares/Third_Party/LoRaWAN/Mac/region/RegionRU864.c ****     /*!
  50:../../../../../../Middlewares/Third_Party/LoRaWAN/Mac/region/RegionRU864.c ****      * LoRaMac bands
  51:../../../../../../Middlewares/Third_Party/LoRaWAN/Mac/region/RegionRU864.c ****      */
  52:../../../../../../Middlewares/Third_Party/LoRaWAN/Mac/region/RegionRU864.c ****     Band_t Bands[ RU864_MAX_NB_BANDS ];
  53:../../../../../../Middlewares/Third_Party/LoRaWAN/Mac/region/RegionRU864.c ****     /*!
  54:../../../../../../Middlewares/Third_Party/LoRaWAN/Mac/region/RegionRU864.c ****      * LoRaMac channels mask
  55:../../../../../../Middlewares/Third_Party/LoRaWAN/Mac/region/RegionRU864.c ****      */
  56:../../../../../../Middlewares/Third_Party/LoRaWAN/Mac/region/RegionRU864.c ****     uint16_t ChannelsMask[ CHANNELS_MASK_SIZE ];
  57:../../../../../../Middlewares/Third_Party/LoRaWAN/Mac/region/RegionRU864.c ****     /*!
  58:../../../../../../Middlewares/Third_Party/LoRaWAN/Mac/region/RegionRU864.c ****      * LoRaMac channels default mask
  59:../../../../../../Middlewares/Third_Party/LoRaWAN/Mac/region/RegionRU864.c ****      */
  60:../../../../../../Middlewares/Third_Party/LoRaWAN/Mac/region/RegionRU864.c ****     uint16_t ChannelsDefaultMask[ CHANNELS_MASK_SIZE ];
  61:../../../../../../Middlewares/Third_Party/LoRaWAN/Mac/region/RegionRU864.c **** }RegionRU864NvmCtx_t;
  62:../../../../../../Middlewares/Third_Party/LoRaWAN/Mac/region/RegionRU864.c **** 
  63:../../../../../../Middlewares/Third_Party/LoRaWAN/Mac/region/RegionRU864.c **** /*
  64:../../../../../../Middlewares/Third_Party/LoRaWAN/Mac/region/RegionRU864.c ****  * Non-volatile module context.
  65:../../../../../../Middlewares/Third_Party/LoRaWAN/Mac/region/RegionRU864.c ****  */
  66:../../../../../../Middlewares/Third_Party/LoRaWAN/Mac/region/RegionRU864.c **** static RegionRU864NvmCtx_t NvmCtx;
  67:../../../../../../Middlewares/Third_Party/LoRaWAN/Mac/region/RegionRU864.c **** 
  68:../../../../../../Middlewares/Third_Party/LoRaWAN/Mac/region/RegionRU864.c **** // Static functions
  69:../../../../../../Middlewares/Third_Party/LoRaWAN/Mac/region/RegionRU864.c **** static int8_t GetNextLowerTxDr( int8_t dr, int8_t minDr )
  70:../../../../../../Middlewares/Third_Party/LoRaWAN/Mac/region/RegionRU864.c **** {
  71:../../../../../../Middlewares/Third_Party/LoRaWAN/Mac/region/RegionRU864.c ****     uint8_t nextLowerDr = 0;
  72:../../../../../../Middlewares/Third_Party/LoRaWAN/Mac/region/RegionRU864.c **** 
  73:../../../../../../Middlewares/Third_Party/LoRaWAN/Mac/region/RegionRU864.c ****     if( dr == minDr )
  74:../../../../../../Middlewares/Third_Party/LoRaWAN/Mac/region/RegionRU864.c ****     {
  75:../../../../../../Middlewares/Third_Party/LoRaWAN/Mac/region/RegionRU864.c ****         nextLowerDr = minDr;
  76:../../../../../../Middlewares/Third_Party/LoRaWAN/Mac/region/RegionRU864.c ****     }
  77:../../../../../../Middlewares/Third_Party/LoRaWAN/Mac/region/RegionRU864.c ****     else
  78:../../../../../../Middlewares/Third_Party/LoRaWAN/Mac/region/RegionRU864.c ****     {
  79:../../../../../../Middlewares/Third_Party/LoRaWAN/Mac/region/RegionRU864.c ****         nextLowerDr = dr - 1;
  80:../../../../../../Middlewares/Third_Party/LoRaWAN/Mac/region/RegionRU864.c ****     }
  81:../../../../../../Middlewares/Third_Party/LoRaWAN/Mac/region/RegionRU864.c ****     return nextLowerDr;
  82:../../../../../../Middlewares/Third_Party/LoRaWAN/Mac/region/RegionRU864.c **** }
  83:../../../../../../Middlewares/Third_Party/LoRaWAN/Mac/region/RegionRU864.c **** 
  84:../../../../../../Middlewares/Third_Party/LoRaWAN/Mac/region/RegionRU864.c **** static uint32_t GetBandwidth( uint32_t drIndex )
  85:../../../../../../Middlewares/Third_Party/LoRaWAN/Mac/region/RegionRU864.c **** {
  86:../../../../../../Middlewares/Third_Party/LoRaWAN/Mac/region/RegionRU864.c ****     switch( BandwidthsRU864[drIndex] )
  87:../../../../../../Middlewares/Third_Party/LoRaWAN/Mac/region/RegionRU864.c ****     {
  88:../../../../../../Middlewares/Third_Party/LoRaWAN/Mac/region/RegionRU864.c ****         default:
ARM GAS  C:\Users\EBANO_~1\AppData\Local\Temp\ccazSBuk.s 			page 3


  89:../../../../../../Middlewares/Third_Party/LoRaWAN/Mac/region/RegionRU864.c ****         case 125000:
  90:../../../../../../Middlewares/Third_Party/LoRaWAN/Mac/region/RegionRU864.c ****             return 0;
  91:../../../../../../Middlewares/Third_Party/LoRaWAN/Mac/region/RegionRU864.c ****         case 250000:
  92:../../../../../../Middlewares/Third_Party/LoRaWAN/Mac/region/RegionRU864.c ****             return 1;
  93:../../../../../../Middlewares/Third_Party/LoRaWAN/Mac/region/RegionRU864.c ****         case 500000:
  94:../../../../../../Middlewares/Third_Party/LoRaWAN/Mac/region/RegionRU864.c ****             return 2;
  95:../../../../../../Middlewares/Third_Party/LoRaWAN/Mac/region/RegionRU864.c ****     }
  96:../../../../../../Middlewares/Third_Party/LoRaWAN/Mac/region/RegionRU864.c **** }
  97:../../../../../../Middlewares/Third_Party/LoRaWAN/Mac/region/RegionRU864.c **** 
  98:../../../../../../Middlewares/Third_Party/LoRaWAN/Mac/region/RegionRU864.c **** static int8_t LimitTxPower( int8_t txPower, int8_t maxBandTxPower, int8_t datarate, uint16_t* chann
  99:../../../../../../Middlewares/Third_Party/LoRaWAN/Mac/region/RegionRU864.c **** {
 100:../../../../../../Middlewares/Third_Party/LoRaWAN/Mac/region/RegionRU864.c ****     int8_t txPowerResult = txPower;
 101:../../../../../../Middlewares/Third_Party/LoRaWAN/Mac/region/RegionRU864.c **** 
 102:../../../../../../Middlewares/Third_Party/LoRaWAN/Mac/region/RegionRU864.c ****     // Limit tx power to the band max
 103:../../../../../../Middlewares/Third_Party/LoRaWAN/Mac/region/RegionRU864.c ****     txPowerResult =  MAX( txPower, maxBandTxPower );
 104:../../../../../../Middlewares/Third_Party/LoRaWAN/Mac/region/RegionRU864.c **** 
 105:../../../../../../Middlewares/Third_Party/LoRaWAN/Mac/region/RegionRU864.c ****     return txPowerResult;
 106:../../../../../../Middlewares/Third_Party/LoRaWAN/Mac/region/RegionRU864.c **** }
 107:../../../../../../Middlewares/Third_Party/LoRaWAN/Mac/region/RegionRU864.c **** 
 108:../../../../../../Middlewares/Third_Party/LoRaWAN/Mac/region/RegionRU864.c **** static bool VerifyRfFreq( uint32_t freq )
 109:../../../../../../Middlewares/Third_Party/LoRaWAN/Mac/region/RegionRU864.c **** {
 110:../../../../../../Middlewares/Third_Party/LoRaWAN/Mac/region/RegionRU864.c ****     // Check radio driver support
 111:../../../../../../Middlewares/Third_Party/LoRaWAN/Mac/region/RegionRU864.c ****     if( Radio.CheckRfFrequency( freq ) == false )
 112:../../../../../../Middlewares/Third_Party/LoRaWAN/Mac/region/RegionRU864.c ****     {
 113:../../../../../../Middlewares/Third_Party/LoRaWAN/Mac/region/RegionRU864.c ****         return false;
 114:../../../../../../Middlewares/Third_Party/LoRaWAN/Mac/region/RegionRU864.c ****     }
 115:../../../../../../Middlewares/Third_Party/LoRaWAN/Mac/region/RegionRU864.c **** 
 116:../../../../../../Middlewares/Third_Party/LoRaWAN/Mac/region/RegionRU864.c ****     // Check frequency bands
 117:../../../../../../Middlewares/Third_Party/LoRaWAN/Mac/region/RegionRU864.c ****     if( ( freq < 864000000 ) ||  ( freq > 870000000 ) )
 118:../../../../../../Middlewares/Third_Party/LoRaWAN/Mac/region/RegionRU864.c ****     {
 119:../../../../../../Middlewares/Third_Party/LoRaWAN/Mac/region/RegionRU864.c ****         return false;
 120:../../../../../../Middlewares/Third_Party/LoRaWAN/Mac/region/RegionRU864.c ****     }
 121:../../../../../../Middlewares/Third_Party/LoRaWAN/Mac/region/RegionRU864.c ****     return true;
 122:../../../../../../Middlewares/Third_Party/LoRaWAN/Mac/region/RegionRU864.c **** }
 123:../../../../../../Middlewares/Third_Party/LoRaWAN/Mac/region/RegionRU864.c **** 
 124:../../../../../../Middlewares/Third_Party/LoRaWAN/Mac/region/RegionRU864.c **** static uint8_t CountNbOfEnabledChannels( bool joined, uint8_t datarate, uint16_t* channelsMask, Cha
 125:../../../../../../Middlewares/Third_Party/LoRaWAN/Mac/region/RegionRU864.c **** {
 126:../../../../../../Middlewares/Third_Party/LoRaWAN/Mac/region/RegionRU864.c ****     uint8_t nbEnabledChannels = 0;
 127:../../../../../../Middlewares/Third_Party/LoRaWAN/Mac/region/RegionRU864.c ****     uint8_t delayTransmission = 0;
 128:../../../../../../Middlewares/Third_Party/LoRaWAN/Mac/region/RegionRU864.c **** 
 129:../../../../../../Middlewares/Third_Party/LoRaWAN/Mac/region/RegionRU864.c ****     for( uint8_t i = 0, k = 0; i < RU864_MAX_NB_CHANNELS; i += 16, k++ )
 130:../../../../../../Middlewares/Third_Party/LoRaWAN/Mac/region/RegionRU864.c ****     {
 131:../../../../../../Middlewares/Third_Party/LoRaWAN/Mac/region/RegionRU864.c ****         for( uint8_t j = 0; j < 16; j++ )
 132:../../../../../../Middlewares/Third_Party/LoRaWAN/Mac/region/RegionRU864.c ****         {
 133:../../../../../../Middlewares/Third_Party/LoRaWAN/Mac/region/RegionRU864.c ****             if( ( channelsMask[k] & ( 1 << j ) ) != 0 )
 134:../../../../../../Middlewares/Third_Party/LoRaWAN/Mac/region/RegionRU864.c ****             {
 135:../../../../../../Middlewares/Third_Party/LoRaWAN/Mac/region/RegionRU864.c ****                 if( channels[i + j].Frequency == 0 )
 136:../../../../../../Middlewares/Third_Party/LoRaWAN/Mac/region/RegionRU864.c ****                 { // Check if the channel is enabled
 137:../../../../../../Middlewares/Third_Party/LoRaWAN/Mac/region/RegionRU864.c ****                     continue;
 138:../../../../../../Middlewares/Third_Party/LoRaWAN/Mac/region/RegionRU864.c ****                 }
 139:../../../../../../Middlewares/Third_Party/LoRaWAN/Mac/region/RegionRU864.c ****                 if( joined == false )
 140:../../../../../../Middlewares/Third_Party/LoRaWAN/Mac/region/RegionRU864.c ****                 {
 141:../../../../../../Middlewares/Third_Party/LoRaWAN/Mac/region/RegionRU864.c ****                     if( ( RU864_JOIN_CHANNELS & ( 1 << j ) ) == 0 )
 142:../../../../../../Middlewares/Third_Party/LoRaWAN/Mac/region/RegionRU864.c ****                     {
 143:../../../../../../Middlewares/Third_Party/LoRaWAN/Mac/region/RegionRU864.c ****                         continue;
 144:../../../../../../Middlewares/Third_Party/LoRaWAN/Mac/region/RegionRU864.c ****                     }
 145:../../../../../../Middlewares/Third_Party/LoRaWAN/Mac/region/RegionRU864.c ****                 }
ARM GAS  C:\Users\EBANO_~1\AppData\Local\Temp\ccazSBuk.s 			page 4


 146:../../../../../../Middlewares/Third_Party/LoRaWAN/Mac/region/RegionRU864.c ****                 if( RegionCommonValueInRange( datarate, channels[i + j].DrRange.Fields.Min,
 147:../../../../../../Middlewares/Third_Party/LoRaWAN/Mac/region/RegionRU864.c ****                                               channels[i + j].DrRange.Fields.Max ) == false )
 148:../../../../../../Middlewares/Third_Party/LoRaWAN/Mac/region/RegionRU864.c ****                 { // Check if the current channel selection supports the given datarate
 149:../../../../../../Middlewares/Third_Party/LoRaWAN/Mac/region/RegionRU864.c ****                     continue;
 150:../../../../../../Middlewares/Third_Party/LoRaWAN/Mac/region/RegionRU864.c ****                 }
 151:../../../../../../Middlewares/Third_Party/LoRaWAN/Mac/region/RegionRU864.c ****                 if( bands[channels[i + j].Band].TimeOff > 0 )
 152:../../../../../../Middlewares/Third_Party/LoRaWAN/Mac/region/RegionRU864.c ****                 { // Check if the band is available for transmission
 153:../../../../../../Middlewares/Third_Party/LoRaWAN/Mac/region/RegionRU864.c ****                     delayTransmission++;
 154:../../../../../../Middlewares/Third_Party/LoRaWAN/Mac/region/RegionRU864.c ****                     continue;
 155:../../../../../../Middlewares/Third_Party/LoRaWAN/Mac/region/RegionRU864.c ****                 }
 156:../../../../../../Middlewares/Third_Party/LoRaWAN/Mac/region/RegionRU864.c ****                 enabledChannels[nbEnabledChannels++] = i + j;
 157:../../../../../../Middlewares/Third_Party/LoRaWAN/Mac/region/RegionRU864.c ****             }
 158:../../../../../../Middlewares/Third_Party/LoRaWAN/Mac/region/RegionRU864.c ****         }
 159:../../../../../../Middlewares/Third_Party/LoRaWAN/Mac/region/RegionRU864.c ****     }
 160:../../../../../../Middlewares/Third_Party/LoRaWAN/Mac/region/RegionRU864.c **** 
 161:../../../../../../Middlewares/Third_Party/LoRaWAN/Mac/region/RegionRU864.c ****     *delayTx = delayTransmission;
 162:../../../../../../Middlewares/Third_Party/LoRaWAN/Mac/region/RegionRU864.c ****     return nbEnabledChannels;
 163:../../../../../../Middlewares/Third_Party/LoRaWAN/Mac/region/RegionRU864.c **** }
 164:../../../../../../Middlewares/Third_Party/LoRaWAN/Mac/region/RegionRU864.c **** 
 165:../../../../../../Middlewares/Third_Party/LoRaWAN/Mac/region/RegionRU864.c **** PhyParam_t RegionRU864GetPhyParam( GetPhyParams_t* getPhy )
 166:../../../../../../Middlewares/Third_Party/LoRaWAN/Mac/region/RegionRU864.c **** {
  27              		.loc 1 166 0
  28              		.cfi_startproc
  29              		@ args = 0, pretend = 0, frame = 8
  30              		@ frame_needed = 0, uses_anonymous_args = 0
  31              	.LVL0:
 167:../../../../../../Middlewares/Third_Party/LoRaWAN/Mac/region/RegionRU864.c ****     PhyParam_t phyParam = { 0 };
  32              		.loc 1 167 0
  33 0000 0023     		movs	r3, #0
 166:../../../../../../Middlewares/Third_Party/LoRaWAN/Mac/region/RegionRU864.c ****     PhyParam_t phyParam = { 0 };
  34              		.loc 1 166 0
  35 0002 00B5     		push	{lr}
  36              	.LCFI0:
  37              		.cfi_def_cfa_offset 4
  38              		.cfi_offset 14, -4
  39 0004 83B0     		sub	sp, sp, #12
  40              	.LCFI1:
  41              		.cfi_def_cfa_offset 16
  42              		.loc 1 167 0
  43 0006 0093     		str	r3, [sp]
 168:../../../../../../Middlewares/Third_Party/LoRaWAN/Mac/region/RegionRU864.c **** 
 169:../../../../../../Middlewares/Third_Party/LoRaWAN/Mac/region/RegionRU864.c ****     switch( getPhy->Attribute )
  44              		.loc 1 169 0
  45 0008 0378     		ldrb	r3, [r0]
  46 000a 0A3B     		subs	r3, r3, #10
  47 000c DBB2     		uxtb	r3, r3
  48 000e 272B     		cmp	r3, #39
  49 0010 05D8     		bhi	.L2
  50 0012 324A     		ldr	r2, .L30
  51 0014 9B00     		lsls	r3, r3, #2
  52 0016 D358     		ldr	r3, [r2, r3]
  53 0018 9F46     		mov	pc, r3
  54              		.section	.rodata
  55              		.align	2
  56              	.L4:
  57 0000 9E000000 		.word	.L3
  58 0004 98000000 		.word	.L5
ARM GAS  C:\Users\EBANO_~1\AppData\Local\Temp\ccazSBuk.s 			page 5


  59 0008 8C000000 		.word	.L6
  60 000c 7E000000 		.word	.L7
  61 0010 78000000 		.word	.L8
  62 0014 72000000 		.word	.L9
  63 0018 6A000000 		.word	.L10
  64 001c 62000000 		.word	.L11
  65 0020 5C000000 		.word	.L12
  66 0024 56000000 		.word	.L13
  67 0028 4E000000 		.word	.L14
  68 002c 38000000 		.word	.L15
  69 0030 1E000000 		.word	.L2
  70 0034 24000000 		.word	.L16
  71 0038 1E000000 		.word	.L2
  72 003c D2000000 		.word	.L17
  73 0040 CA000000 		.word	.L18
  74 0044 C4000000 		.word	.L19
  75 0048 B6000000 		.word	.L20
  76 004c 1E000000 		.word	.L2
  77 0050 1E000000 		.word	.L2
  78 0054 2A000000 		.word	.L21
  79 0058 32000000 		.word	.L22
  80 005c A4000000 		.word	.L23
  81 0060 1E000000 		.word	.L2
  82 0064 1E000000 		.word	.L2
  83 0068 1E000000 		.word	.L2
  84 006c 1E000000 		.word	.L2
  85 0070 1E000000 		.word	.L2
  86 0074 1E000000 		.word	.L2
  87 0078 1E000000 		.word	.L2
  88 007c 1E000000 		.word	.L2
  89 0080 1E000000 		.word	.L2
  90 0084 1E000000 		.word	.L2
  91 0088 1E000000 		.word	.L2
  92 008c 1E000000 		.word	.L2
  93 0090 1E000000 		.word	.L2
  94 0094 24000000 		.word	.L16
  95 0098 BC000000 		.word	.L24
  96 009c 1A000000 		.word	.L25
  97              		.section	.text.RegionRU864GetPhyParam
  98              	.L25:
 170:../../../../../../Middlewares/Third_Party/LoRaWAN/Mac/region/RegionRU864.c ****     {
 171:../../../../../../Middlewares/Third_Party/LoRaWAN/Mac/region/RegionRU864.c ****         case PHY_MIN_RX_DR:
 172:../../../../../../Middlewares/Third_Party/LoRaWAN/Mac/region/RegionRU864.c ****         {
 173:../../../../../../Middlewares/Third_Party/LoRaWAN/Mac/region/RegionRU864.c ****             phyParam.Value = RU864_RX_MIN_DATARATE;
 174:../../../../../../Middlewares/Third_Party/LoRaWAN/Mac/region/RegionRU864.c ****             break;
 175:../../../../../../Middlewares/Third_Party/LoRaWAN/Mac/region/RegionRU864.c ****         }
 176:../../../../../../Middlewares/Third_Party/LoRaWAN/Mac/region/RegionRU864.c ****         case PHY_MIN_TX_DR:
 177:../../../../../../Middlewares/Third_Party/LoRaWAN/Mac/region/RegionRU864.c ****         {
 178:../../../../../../Middlewares/Third_Party/LoRaWAN/Mac/region/RegionRU864.c ****             phyParam.Value = RU864_TX_MIN_DATARATE;
 179:../../../../../../Middlewares/Third_Party/LoRaWAN/Mac/region/RegionRU864.c ****             break;
 180:../../../../../../Middlewares/Third_Party/LoRaWAN/Mac/region/RegionRU864.c ****         }
 181:../../../../../../Middlewares/Third_Party/LoRaWAN/Mac/region/RegionRU864.c ****         case PHY_DEF_TX_DR:
 182:../../../../../../Middlewares/Third_Party/LoRaWAN/Mac/region/RegionRU864.c ****         {
 183:../../../../../../Middlewares/Third_Party/LoRaWAN/Mac/region/RegionRU864.c ****             phyParam.Value = RU864_DEFAULT_DATARATE;
 184:../../../../../../Middlewares/Third_Party/LoRaWAN/Mac/region/RegionRU864.c ****             break;
 185:../../../../../../Middlewares/Third_Party/LoRaWAN/Mac/region/RegionRU864.c ****         }
 186:../../../../../../Middlewares/Third_Party/LoRaWAN/Mac/region/RegionRU864.c ****         case PHY_NEXT_LOWER_TX_DR:
ARM GAS  C:\Users\EBANO_~1\AppData\Local\Temp\ccazSBuk.s 			page 6


 187:../../../../../../Middlewares/Third_Party/LoRaWAN/Mac/region/RegionRU864.c ****         {
 188:../../../../../../Middlewares/Third_Party/LoRaWAN/Mac/region/RegionRU864.c ****             phyParam.Value = GetNextLowerTxDr( getPhy->Datarate, RU864_TX_MIN_DATARATE );
 189:../../../../../../Middlewares/Third_Party/LoRaWAN/Mac/region/RegionRU864.c ****             break;
 190:../../../../../../Middlewares/Third_Party/LoRaWAN/Mac/region/RegionRU864.c ****         }
 191:../../../../../../Middlewares/Third_Party/LoRaWAN/Mac/region/RegionRU864.c ****         case PHY_DEF_TX_POWER:
 192:../../../../../../Middlewares/Third_Party/LoRaWAN/Mac/region/RegionRU864.c ****         {
 193:../../../../../../Middlewares/Third_Party/LoRaWAN/Mac/region/RegionRU864.c ****             phyParam.Value = RU864_DEFAULT_TX_POWER;
 194:../../../../../../Middlewares/Third_Party/LoRaWAN/Mac/region/RegionRU864.c ****             break;
 195:../../../../../../Middlewares/Third_Party/LoRaWAN/Mac/region/RegionRU864.c ****         }
 196:../../../../../../Middlewares/Third_Party/LoRaWAN/Mac/region/RegionRU864.c ****         case PHY_DEF_ADR_ACK_LIMIT:
 197:../../../../../../Middlewares/Third_Party/LoRaWAN/Mac/region/RegionRU864.c ****         {
 198:../../../../../../Middlewares/Third_Party/LoRaWAN/Mac/region/RegionRU864.c ****             phyParam.Value = RU864_ADR_ACK_LIMIT;
 199:../../../../../../Middlewares/Third_Party/LoRaWAN/Mac/region/RegionRU864.c ****             break;
 200:../../../../../../Middlewares/Third_Party/LoRaWAN/Mac/region/RegionRU864.c ****         }
 201:../../../../../../Middlewares/Third_Party/LoRaWAN/Mac/region/RegionRU864.c ****         case PHY_DEF_ADR_ACK_DELAY:
 202:../../../../../../Middlewares/Third_Party/LoRaWAN/Mac/region/RegionRU864.c ****         {
 203:../../../../../../Middlewares/Third_Party/LoRaWAN/Mac/region/RegionRU864.c ****             phyParam.Value = RU864_ADR_ACK_DELAY;
 204:../../../../../../Middlewares/Third_Party/LoRaWAN/Mac/region/RegionRU864.c ****             break;
 205:../../../../../../Middlewares/Third_Party/LoRaWAN/Mac/region/RegionRU864.c ****         }
 206:../../../../../../Middlewares/Third_Party/LoRaWAN/Mac/region/RegionRU864.c ****         case PHY_MAX_PAYLOAD:
 207:../../../../../../Middlewares/Third_Party/LoRaWAN/Mac/region/RegionRU864.c ****         {
 208:../../../../../../Middlewares/Third_Party/LoRaWAN/Mac/region/RegionRU864.c ****             phyParam.Value = MaxPayloadOfDatarateRU864[getPhy->Datarate];
 209:../../../../../../Middlewares/Third_Party/LoRaWAN/Mac/region/RegionRU864.c ****             break;
 210:../../../../../../Middlewares/Third_Party/LoRaWAN/Mac/region/RegionRU864.c ****         }
 211:../../../../../../Middlewares/Third_Party/LoRaWAN/Mac/region/RegionRU864.c ****         case PHY_MAX_PAYLOAD_REPEATER:
 212:../../../../../../Middlewares/Third_Party/LoRaWAN/Mac/region/RegionRU864.c ****         {
 213:../../../../../../Middlewares/Third_Party/LoRaWAN/Mac/region/RegionRU864.c ****             phyParam.Value = MaxPayloadOfDatarateRepeaterRU864[getPhy->Datarate];
 214:../../../../../../Middlewares/Third_Party/LoRaWAN/Mac/region/RegionRU864.c ****             break;
 215:../../../../../../Middlewares/Third_Party/LoRaWAN/Mac/region/RegionRU864.c ****         }
 216:../../../../../../Middlewares/Third_Party/LoRaWAN/Mac/region/RegionRU864.c ****         case PHY_DUTY_CYCLE:
 217:../../../../../../Middlewares/Third_Party/LoRaWAN/Mac/region/RegionRU864.c ****         {
 218:../../../../../../Middlewares/Third_Party/LoRaWAN/Mac/region/RegionRU864.c ****             phyParam.Value = RU864_DUTY_CYCLE_ENABLED;
 219:../../../../../../Middlewares/Third_Party/LoRaWAN/Mac/region/RegionRU864.c ****             break;
 220:../../../../../../Middlewares/Third_Party/LoRaWAN/Mac/region/RegionRU864.c ****         }
 221:../../../../../../Middlewares/Third_Party/LoRaWAN/Mac/region/RegionRU864.c ****         case PHY_MAX_RX_WINDOW:
 222:../../../../../../Middlewares/Third_Party/LoRaWAN/Mac/region/RegionRU864.c ****         {
 223:../../../../../../Middlewares/Third_Party/LoRaWAN/Mac/region/RegionRU864.c ****             phyParam.Value = RU864_MAX_RX_WINDOW;
 224:../../../../../../Middlewares/Third_Party/LoRaWAN/Mac/region/RegionRU864.c ****             break;
 225:../../../../../../Middlewares/Third_Party/LoRaWAN/Mac/region/RegionRU864.c ****         }
 226:../../../../../../Middlewares/Third_Party/LoRaWAN/Mac/region/RegionRU864.c ****         case PHY_RECEIVE_DELAY1:
 227:../../../../../../Middlewares/Third_Party/LoRaWAN/Mac/region/RegionRU864.c ****         {
 228:../../../../../../Middlewares/Third_Party/LoRaWAN/Mac/region/RegionRU864.c ****             phyParam.Value = RU864_RECEIVE_DELAY1;
 229:../../../../../../Middlewares/Third_Party/LoRaWAN/Mac/region/RegionRU864.c ****             break;
 230:../../../../../../Middlewares/Third_Party/LoRaWAN/Mac/region/RegionRU864.c ****         }
 231:../../../../../../Middlewares/Third_Party/LoRaWAN/Mac/region/RegionRU864.c ****         case PHY_RECEIVE_DELAY2:
 232:../../../../../../Middlewares/Third_Party/LoRaWAN/Mac/region/RegionRU864.c ****         {
 233:../../../../../../Middlewares/Third_Party/LoRaWAN/Mac/region/RegionRU864.c ****             phyParam.Value = RU864_RECEIVE_DELAY2;
 234:../../../../../../Middlewares/Third_Party/LoRaWAN/Mac/region/RegionRU864.c ****             break;
 235:../../../../../../Middlewares/Third_Party/LoRaWAN/Mac/region/RegionRU864.c ****         }
 236:../../../../../../Middlewares/Third_Party/LoRaWAN/Mac/region/RegionRU864.c ****         case PHY_JOIN_ACCEPT_DELAY1:
 237:../../../../../../Middlewares/Third_Party/LoRaWAN/Mac/region/RegionRU864.c ****         {
 238:../../../../../../Middlewares/Third_Party/LoRaWAN/Mac/region/RegionRU864.c ****             phyParam.Value = RU864_JOIN_ACCEPT_DELAY1;
 239:../../../../../../Middlewares/Third_Party/LoRaWAN/Mac/region/RegionRU864.c ****             break;
 240:../../../../../../Middlewares/Third_Party/LoRaWAN/Mac/region/RegionRU864.c ****         }
 241:../../../../../../Middlewares/Third_Party/LoRaWAN/Mac/region/RegionRU864.c ****         case PHY_JOIN_ACCEPT_DELAY2:
 242:../../../../../../Middlewares/Third_Party/LoRaWAN/Mac/region/RegionRU864.c ****         {
 243:../../../../../../Middlewares/Third_Party/LoRaWAN/Mac/region/RegionRU864.c ****             phyParam.Value = RU864_JOIN_ACCEPT_DELAY2;
ARM GAS  C:\Users\EBANO_~1\AppData\Local\Temp\ccazSBuk.s 			page 7


 244:../../../../../../Middlewares/Third_Party/LoRaWAN/Mac/region/RegionRU864.c ****             break;
 245:../../../../../../Middlewares/Third_Party/LoRaWAN/Mac/region/RegionRU864.c ****         }
 246:../../../../../../Middlewares/Third_Party/LoRaWAN/Mac/region/RegionRU864.c ****         case PHY_MAX_FCNT_GAP:
 247:../../../../../../Middlewares/Third_Party/LoRaWAN/Mac/region/RegionRU864.c ****         {
 248:../../../../../../Middlewares/Third_Party/LoRaWAN/Mac/region/RegionRU864.c ****             phyParam.Value = RU864_MAX_FCNT_GAP;
 249:../../../../../../Middlewares/Third_Party/LoRaWAN/Mac/region/RegionRU864.c ****             break;
 250:../../../../../../Middlewares/Third_Party/LoRaWAN/Mac/region/RegionRU864.c ****         }
 251:../../../../../../Middlewares/Third_Party/LoRaWAN/Mac/region/RegionRU864.c ****         case PHY_ACK_TIMEOUT:
 252:../../../../../../Middlewares/Third_Party/LoRaWAN/Mac/region/RegionRU864.c ****         {
 253:../../../../../../Middlewares/Third_Party/LoRaWAN/Mac/region/RegionRU864.c ****             phyParam.Value = ( RU864_ACKTIMEOUT + randr( -RU864_ACK_TIMEOUT_RND, RU864_ACK_TIMEOUT_
 254:../../../../../../Middlewares/Third_Party/LoRaWAN/Mac/region/RegionRU864.c ****             break;
 255:../../../../../../Middlewares/Third_Party/LoRaWAN/Mac/region/RegionRU864.c ****         }
 256:../../../../../../Middlewares/Third_Party/LoRaWAN/Mac/region/RegionRU864.c ****         case PHY_DEF_DR1_OFFSET:
 257:../../../../../../Middlewares/Third_Party/LoRaWAN/Mac/region/RegionRU864.c ****         {
 258:../../../../../../Middlewares/Third_Party/LoRaWAN/Mac/region/RegionRU864.c ****             phyParam.Value = RU864_DEFAULT_RX1_DR_OFFSET;
 259:../../../../../../Middlewares/Third_Party/LoRaWAN/Mac/region/RegionRU864.c ****             break;
 260:../../../../../../Middlewares/Third_Party/LoRaWAN/Mac/region/RegionRU864.c ****         }
 261:../../../../../../Middlewares/Third_Party/LoRaWAN/Mac/region/RegionRU864.c ****         case PHY_DEF_RX2_FREQUENCY:
 262:../../../../../../Middlewares/Third_Party/LoRaWAN/Mac/region/RegionRU864.c ****         {
 263:../../../../../../Middlewares/Third_Party/LoRaWAN/Mac/region/RegionRU864.c ****             phyParam.Value = RU864_RX_WND_2_FREQ;
 264:../../../../../../Middlewares/Third_Party/LoRaWAN/Mac/region/RegionRU864.c ****             break;
 265:../../../../../../Middlewares/Third_Party/LoRaWAN/Mac/region/RegionRU864.c ****         }
 266:../../../../../../Middlewares/Third_Party/LoRaWAN/Mac/region/RegionRU864.c ****         case PHY_DEF_RX2_DR:
 267:../../../../../../Middlewares/Third_Party/LoRaWAN/Mac/region/RegionRU864.c ****         {
 268:../../../../../../Middlewares/Third_Party/LoRaWAN/Mac/region/RegionRU864.c ****             phyParam.Value = RU864_RX_WND_2_DR;
 269:../../../../../../Middlewares/Third_Party/LoRaWAN/Mac/region/RegionRU864.c ****             break;
 270:../../../../../../Middlewares/Third_Party/LoRaWAN/Mac/region/RegionRU864.c ****         }
 271:../../../../../../Middlewares/Third_Party/LoRaWAN/Mac/region/RegionRU864.c ****         case PHY_CHANNELS_MASK:
 272:../../../../../../Middlewares/Third_Party/LoRaWAN/Mac/region/RegionRU864.c ****         {
 273:../../../../../../Middlewares/Third_Party/LoRaWAN/Mac/region/RegionRU864.c ****             phyParam.ChannelsMask = NvmCtx.ChannelsMask;
 274:../../../../../../Middlewares/Third_Party/LoRaWAN/Mac/region/RegionRU864.c ****             break;
 275:../../../../../../Middlewares/Third_Party/LoRaWAN/Mac/region/RegionRU864.c ****         }
 276:../../../../../../Middlewares/Third_Party/LoRaWAN/Mac/region/RegionRU864.c ****         case PHY_CHANNELS_DEFAULT_MASK:
 277:../../../../../../Middlewares/Third_Party/LoRaWAN/Mac/region/RegionRU864.c ****         {
 278:../../../../../../Middlewares/Third_Party/LoRaWAN/Mac/region/RegionRU864.c ****             phyParam.ChannelsMask = NvmCtx.ChannelsDefaultMask;
 279:../../../../../../Middlewares/Third_Party/LoRaWAN/Mac/region/RegionRU864.c ****             break;
 280:../../../../../../Middlewares/Third_Party/LoRaWAN/Mac/region/RegionRU864.c ****         }
 281:../../../../../../Middlewares/Third_Party/LoRaWAN/Mac/region/RegionRU864.c ****         case PHY_MAX_NB_CHANNELS:
 282:../../../../../../Middlewares/Third_Party/LoRaWAN/Mac/region/RegionRU864.c ****         {
 283:../../../../../../Middlewares/Third_Party/LoRaWAN/Mac/region/RegionRU864.c ****             phyParam.Value = RU864_MAX_NB_CHANNELS;
 284:../../../../../../Middlewares/Third_Party/LoRaWAN/Mac/region/RegionRU864.c ****             break;
 285:../../../../../../Middlewares/Third_Party/LoRaWAN/Mac/region/RegionRU864.c ****         }
 286:../../../../../../Middlewares/Third_Party/LoRaWAN/Mac/region/RegionRU864.c ****         case PHY_CHANNELS:
 287:../../../../../../Middlewares/Third_Party/LoRaWAN/Mac/region/RegionRU864.c ****         {
 288:../../../../../../Middlewares/Third_Party/LoRaWAN/Mac/region/RegionRU864.c ****             phyParam.Channels = NvmCtx.Channels;
 289:../../../../../../Middlewares/Third_Party/LoRaWAN/Mac/region/RegionRU864.c ****             break;
 290:../../../../../../Middlewares/Third_Party/LoRaWAN/Mac/region/RegionRU864.c ****         }
 291:../../../../../../Middlewares/Third_Party/LoRaWAN/Mac/region/RegionRU864.c ****         case PHY_DEF_UPLINK_DWELL_TIME:
 292:../../../../../../Middlewares/Third_Party/LoRaWAN/Mac/region/RegionRU864.c ****         case PHY_DEF_DOWNLINK_DWELL_TIME:
 293:../../../../../../Middlewares/Third_Party/LoRaWAN/Mac/region/RegionRU864.c ****         {
 294:../../../../../../Middlewares/Third_Party/LoRaWAN/Mac/region/RegionRU864.c ****             phyParam.Value = 0;
 295:../../../../../../Middlewares/Third_Party/LoRaWAN/Mac/region/RegionRU864.c ****             break;
 296:../../../../../../Middlewares/Third_Party/LoRaWAN/Mac/region/RegionRU864.c ****         }
 297:../../../../../../Middlewares/Third_Party/LoRaWAN/Mac/region/RegionRU864.c ****         case PHY_DEF_MAX_EIRP:
 298:../../../../../../Middlewares/Third_Party/LoRaWAN/Mac/region/RegionRU864.c ****         {
 299:../../../../../../Middlewares/Third_Party/LoRaWAN/Mac/region/RegionRU864.c ****             phyParam.fValue = RU864_DEFAULT_MAX_EIRP;
 300:../../../../../../Middlewares/Third_Party/LoRaWAN/Mac/region/RegionRU864.c ****             break;
ARM GAS  C:\Users\EBANO_~1\AppData\Local\Temp\ccazSBuk.s 			page 8


 301:../../../../../../Middlewares/Third_Party/LoRaWAN/Mac/region/RegionRU864.c ****         }
 302:../../../../../../Middlewares/Third_Party/LoRaWAN/Mac/region/RegionRU864.c ****         case PHY_DEF_ANTENNA_GAIN:
 303:../../../../../../Middlewares/Third_Party/LoRaWAN/Mac/region/RegionRU864.c ****         {
 304:../../../../../../Middlewares/Third_Party/LoRaWAN/Mac/region/RegionRU864.c ****             phyParam.fValue = RU864_DEFAULT_ANTENNA_GAIN;
 305:../../../../../../Middlewares/Third_Party/LoRaWAN/Mac/region/RegionRU864.c ****             break;
 306:../../../../../../Middlewares/Third_Party/LoRaWAN/Mac/region/RegionRU864.c ****         }
 307:../../../../../../Middlewares/Third_Party/LoRaWAN/Mac/region/RegionRU864.c ****         case PHY_BEACON_CHANNEL_FREQ:
 308:../../../../../../Middlewares/Third_Party/LoRaWAN/Mac/region/RegionRU864.c ****         {
 309:../../../../../../Middlewares/Third_Party/LoRaWAN/Mac/region/RegionRU864.c ****             phyParam.Value = RU864_BEACON_CHANNEL_FREQ;
 310:../../../../../../Middlewares/Third_Party/LoRaWAN/Mac/region/RegionRU864.c ****             break;
 311:../../../../../../Middlewares/Third_Party/LoRaWAN/Mac/region/RegionRU864.c ****         }
 312:../../../../../../Middlewares/Third_Party/LoRaWAN/Mac/region/RegionRU864.c ****         case PHY_BEACON_FORMAT:
 313:../../../../../../Middlewares/Third_Party/LoRaWAN/Mac/region/RegionRU864.c ****         {
 314:../../../../../../Middlewares/Third_Party/LoRaWAN/Mac/region/RegionRU864.c ****             phyParam.BeaconFormat.BeaconSize = RU864_BEACON_SIZE;
 315:../../../../../../Middlewares/Third_Party/LoRaWAN/Mac/region/RegionRU864.c ****             phyParam.BeaconFormat.Rfu1Size = RU864_RFU1_SIZE;
 316:../../../../../../Middlewares/Third_Party/LoRaWAN/Mac/region/RegionRU864.c ****             phyParam.BeaconFormat.Rfu2Size = RU864_RFU2_SIZE;
 317:../../../../../../Middlewares/Third_Party/LoRaWAN/Mac/region/RegionRU864.c ****             break;
 318:../../../../../../Middlewares/Third_Party/LoRaWAN/Mac/region/RegionRU864.c ****         }
 319:../../../../../../Middlewares/Third_Party/LoRaWAN/Mac/region/RegionRU864.c ****         case PHY_BEACON_CHANNEL_DR:
 320:../../../../../../Middlewares/Third_Party/LoRaWAN/Mac/region/RegionRU864.c ****         {
 321:../../../../../../Middlewares/Third_Party/LoRaWAN/Mac/region/RegionRU864.c ****             phyParam.Value = RU864_BEACON_CHANNEL_DR;
  99              		.loc 1 321 0
 100 001a 0323     		movs	r3, #3
 101 001c 0093     		str	r3, [sp]
 102              	.LVL1:
 103              	.L2:
 322:../../../../../../Middlewares/Third_Party/LoRaWAN/Mac/region/RegionRU864.c ****             break;
 323:../../../../../../Middlewares/Third_Party/LoRaWAN/Mac/region/RegionRU864.c ****         }
 324:../../../../../../Middlewares/Third_Party/LoRaWAN/Mac/region/RegionRU864.c ****         default:
 325:../../../../../../Middlewares/Third_Party/LoRaWAN/Mac/region/RegionRU864.c ****         {
 326:../../../../../../Middlewares/Third_Party/LoRaWAN/Mac/region/RegionRU864.c ****             break;
 327:../../../../../../Middlewares/Third_Party/LoRaWAN/Mac/region/RegionRU864.c ****         }
 328:../../../../../../Middlewares/Third_Party/LoRaWAN/Mac/region/RegionRU864.c ****     }
 329:../../../../../../Middlewares/Third_Party/LoRaWAN/Mac/region/RegionRU864.c **** 
 330:../../../../../../Middlewares/Third_Party/LoRaWAN/Mac/region/RegionRU864.c ****     return phyParam;
 331:../../../../../../Middlewares/Third_Party/LoRaWAN/Mac/region/RegionRU864.c **** }
 104              		.loc 1 331 0
 105 001e 0098     		ldr	r0, [sp]
 106 0020 03B0     		add	sp, sp, #12
 107              		@ sp needed
 108 0022 00BD     		pop	{pc}
 109              	.LVL2:
 110              	.L16:
 263:../../../../../../Middlewares/Third_Party/LoRaWAN/Mac/region/RegionRU864.c ****             break;
 111              		.loc 1 263 0
 112 0024 2E4B     		ldr	r3, .L30+4
 113 0026 0093     		str	r3, [sp]
 264:../../../../../../Middlewares/Third_Party/LoRaWAN/Mac/region/RegionRU864.c ****         }
 114              		.loc 1 264 0
 115 0028 F9E7     		b	.L2
 116              	.L21:
 299:../../../../../../Middlewares/Third_Party/LoRaWAN/Mac/region/RegionRU864.c ****             break;
 117              		.loc 1 299 0
 118 002a 8323     		movs	r3, #131
 119 002c DB05     		lsls	r3, r3, #23
 120 002e 0093     		str	r3, [sp]
 300:../../../../../../Middlewares/Third_Party/LoRaWAN/Mac/region/RegionRU864.c ****         }
ARM GAS  C:\Users\EBANO_~1\AppData\Local\Temp\ccazSBuk.s 			page 9


 121              		.loc 1 300 0
 122 0030 F5E7     		b	.L2
 123              	.L22:
 304:../../../../../../Middlewares/Third_Party/LoRaWAN/Mac/region/RegionRU864.c ****             break;
 124              		.loc 1 304 0
 125 0032 2C4B     		ldr	r3, .L30+8
 126 0034 0093     		str	r3, [sp]
 305:../../../../../../Middlewares/Third_Party/LoRaWAN/Mac/region/RegionRU864.c ****         }
 127              		.loc 1 305 0
 128 0036 F2E7     		b	.L2
 129              	.L15:
 253:../../../../../../Middlewares/Third_Party/LoRaWAN/Mac/region/RegionRU864.c ****             break;
 130              		.loc 1 253 0
 131 0038 FA21     		movs	r1, #250
 132 003a 2B48     		ldr	r0, .L30+12
 133              	.LVL3:
 134 003c 8900     		lsls	r1, r1, #2
 135 003e FFF7FEFF 		bl	randr
 136              	.LVL4:
 137 0042 FA23     		movs	r3, #250
 138 0044 DB00     		lsls	r3, r3, #3
 139 0046 9C46     		mov	ip, r3
 140 0048 6044     		add	r0, r0, ip
 141 004a 0090     		str	r0, [sp]
 254:../../../../../../Middlewares/Third_Party/LoRaWAN/Mac/region/RegionRU864.c ****         }
 142              		.loc 1 254 0
 143 004c E7E7     		b	.L2
 144              	.LVL5:
 145              	.L14:
 248:../../../../../../Middlewares/Third_Party/LoRaWAN/Mac/region/RegionRU864.c ****             break;
 146              		.loc 1 248 0
 147 004e 8023     		movs	r3, #128
 148 0050 DB01     		lsls	r3, r3, #7
 149 0052 0093     		str	r3, [sp]
 249:../../../../../../Middlewares/Third_Party/LoRaWAN/Mac/region/RegionRU864.c ****         }
 150              		.loc 1 249 0
 151 0054 E3E7     		b	.L2
 152              	.L13:
 243:../../../../../../Middlewares/Third_Party/LoRaWAN/Mac/region/RegionRU864.c ****             break;
 153              		.loc 1 243 0
 154 0056 254B     		ldr	r3, .L30+16
 155 0058 0093     		str	r3, [sp]
 244:../../../../../../Middlewares/Third_Party/LoRaWAN/Mac/region/RegionRU864.c ****         }
 156              		.loc 1 244 0
 157 005a E0E7     		b	.L2
 158              	.L12:
 238:../../../../../../Middlewares/Third_Party/LoRaWAN/Mac/region/RegionRU864.c ****             break;
 159              		.loc 1 238 0
 160 005c 244B     		ldr	r3, .L30+20
 161 005e 0093     		str	r3, [sp]
 239:../../../../../../Middlewares/Third_Party/LoRaWAN/Mac/region/RegionRU864.c ****         }
 162              		.loc 1 239 0
 163 0060 DDE7     		b	.L2
 164              	.L11:
 233:../../../../../../Middlewares/Third_Party/LoRaWAN/Mac/region/RegionRU864.c ****             break;
 165              		.loc 1 233 0
 166 0062 FA23     		movs	r3, #250
ARM GAS  C:\Users\EBANO_~1\AppData\Local\Temp\ccazSBuk.s 			page 10


 167 0064 DB00     		lsls	r3, r3, #3
 168 0066 0093     		str	r3, [sp]
 234:../../../../../../Middlewares/Third_Party/LoRaWAN/Mac/region/RegionRU864.c ****         }
 169              		.loc 1 234 0
 170 0068 D9E7     		b	.L2
 171              	.L10:
 228:../../../../../../Middlewares/Third_Party/LoRaWAN/Mac/region/RegionRU864.c ****             break;
 172              		.loc 1 228 0
 173 006a FA23     		movs	r3, #250
 174 006c 9B00     		lsls	r3, r3, #2
 175 006e 0093     		str	r3, [sp]
 229:../../../../../../Middlewares/Third_Party/LoRaWAN/Mac/region/RegionRU864.c ****         }
 176              		.loc 1 229 0
 177 0070 D5E7     		b	.L2
 178              	.L9:
 223:../../../../../../Middlewares/Third_Party/LoRaWAN/Mac/region/RegionRU864.c ****             break;
 179              		.loc 1 223 0
 180 0072 204B     		ldr	r3, .L30+24
 181 0074 0093     		str	r3, [sp]
 224:../../../../../../Middlewares/Third_Party/LoRaWAN/Mac/region/RegionRU864.c ****         }
 182              		.loc 1 224 0
 183 0076 D2E7     		b	.L2
 184              	.L8:
 218:../../../../../../Middlewares/Third_Party/LoRaWAN/Mac/region/RegionRU864.c ****             break;
 185              		.loc 1 218 0
 186 0078 0123     		movs	r3, #1
 187 007a 0093     		str	r3, [sp]
 219:../../../../../../Middlewares/Third_Party/LoRaWAN/Mac/region/RegionRU864.c ****         }
 188              		.loc 1 219 0
 189 007c CFE7     		b	.L2
 190              	.L7:
 213:../../../../../../Middlewares/Third_Party/LoRaWAN/Mac/region/RegionRU864.c ****             break;
 191              		.loc 1 213 0
 192 007e 0122     		movs	r2, #1
 193 0080 1D4B     		ldr	r3, .L30+28
 194 0082 8256     		ldrsb	r2, [r0, r2]
 195 0084 9B18     		adds	r3, r3, r2
 196 0086 1B7A     		ldrb	r3, [r3, #8]
 197 0088 0093     		str	r3, [sp]
 214:../../../../../../Middlewares/Third_Party/LoRaWAN/Mac/region/RegionRU864.c ****         }
 198              		.loc 1 214 0
 199 008a C8E7     		b	.L2
 200              	.L6:
 208:../../../../../../Middlewares/Third_Party/LoRaWAN/Mac/region/RegionRU864.c ****             break;
 201              		.loc 1 208 0
 202 008c 0123     		movs	r3, #1
 203 008e 1A4A     		ldr	r2, .L30+28
 204 0090 C356     		ldrsb	r3, [r0, r3]
 205 0092 D35C     		ldrb	r3, [r2, r3]
 206 0094 0093     		str	r3, [sp]
 209:../../../../../../Middlewares/Third_Party/LoRaWAN/Mac/region/RegionRU864.c ****         }
 207              		.loc 1 209 0
 208 0096 C2E7     		b	.L2
 209              	.L5:
 203:../../../../../../Middlewares/Third_Party/LoRaWAN/Mac/region/RegionRU864.c ****             break;
 210              		.loc 1 203 0
 211 0098 2023     		movs	r3, #32
ARM GAS  C:\Users\EBANO_~1\AppData\Local\Temp\ccazSBuk.s 			page 11


 212 009a 0093     		str	r3, [sp]
 204:../../../../../../Middlewares/Third_Party/LoRaWAN/Mac/region/RegionRU864.c ****         }
 213              		.loc 1 204 0
 214 009c BFE7     		b	.L2
 215              	.L3:
 198:../../../../../../Middlewares/Third_Party/LoRaWAN/Mac/region/RegionRU864.c ****             break;
 216              		.loc 1 198 0
 217 009e 4023     		movs	r3, #64
 218 00a0 0093     		str	r3, [sp]
 199:../../../../../../Middlewares/Third_Party/LoRaWAN/Mac/region/RegionRU864.c ****         }
 219              		.loc 1 199 0
 220 00a2 BCE7     		b	.L2
 221              	.L23:
 188:../../../../../../Middlewares/Third_Party/LoRaWAN/Mac/region/RegionRU864.c ****             break;
 222              		.loc 1 188 0
 223 00a4 0123     		movs	r3, #1
 224 00a6 C356     		ldrsb	r3, [r0, r3]
 225              	.LVL6:
 226              	.LBB22:
 227              	.LBB23:
  73:../../../../../../Middlewares/Third_Party/LoRaWAN/Mac/region/RegionRU864.c ****     {
 228              		.loc 1 73 0
 229 00a8 0022     		movs	r2, #0
 230 00aa 002B     		cmp	r3, #0
 231 00ac 01D0     		beq	.L26
 232              	.LVL7:
  79:../../../../../../Middlewares/Third_Party/LoRaWAN/Mac/region/RegionRU864.c ****     }
 233              		.loc 1 79 0
 234 00ae 013B     		subs	r3, r3, #1
 235              	.LVL8:
 236 00b0 5AB2     		sxtb	r2, r3
 237              	.LVL9:
 238              	.L26:
 239              	.LBE23:
 240              	.LBE22:
 188:../../../../../../Middlewares/Third_Party/LoRaWAN/Mac/region/RegionRU864.c ****             break;
 241              		.loc 1 188 0
 242 00b2 0092     		str	r2, [sp]
 189:../../../../../../Middlewares/Third_Party/LoRaWAN/Mac/region/RegionRU864.c ****         }
 243              		.loc 1 189 0
 244 00b4 B3E7     		b	.L2
 245              	.L20:
 288:../../../../../../Middlewares/Third_Party/LoRaWAN/Mac/region/RegionRU864.c ****             break;
 246              		.loc 1 288 0
 247 00b6 114B     		ldr	r3, .L30+32
 248 00b8 0093     		str	r3, [sp]
 289:../../../../../../Middlewares/Third_Party/LoRaWAN/Mac/region/RegionRU864.c ****         }
 249              		.loc 1 289 0
 250 00ba B0E7     		b	.L2
 251              	.L24:
 314:../../../../../../Middlewares/Third_Party/LoRaWAN/Mac/region/RegionRU864.c ****             phyParam.BeaconFormat.Rfu1Size = RU864_RFU1_SIZE;
 252              		.loc 1 314 0
 253 00bc 6A46     		mov	r2, sp
 254 00be 104B     		ldr	r3, .L30+36
 255 00c0 1380     		strh	r3, [r2]
 317:../../../../../../Middlewares/Third_Party/LoRaWAN/Mac/region/RegionRU864.c ****         }
 256              		.loc 1 317 0
ARM GAS  C:\Users\EBANO_~1\AppData\Local\Temp\ccazSBuk.s 			page 12


 257 00c2 ACE7     		b	.L2
 258              	.L19:
 283:../../../../../../Middlewares/Third_Party/LoRaWAN/Mac/region/RegionRU864.c ****             break;
 259              		.loc 1 283 0
 260 00c4 0823     		movs	r3, #8
 261 00c6 0093     		str	r3, [sp]
 284:../../../../../../Middlewares/Third_Party/LoRaWAN/Mac/region/RegionRU864.c ****         }
 262              		.loc 1 284 0
 263 00c8 A9E7     		b	.L2
 264              	.L18:
 278:../../../../../../Middlewares/Third_Party/LoRaWAN/Mac/region/RegionRU864.c ****             break;
 265              		.loc 1 278 0
 266 00ca 0C4B     		ldr	r3, .L30+32
 267 00cc 7233     		adds	r3, r3, #114
 268 00ce 0093     		str	r3, [sp]
 279:../../../../../../Middlewares/Third_Party/LoRaWAN/Mac/region/RegionRU864.c ****         }
 269              		.loc 1 279 0
 270 00d0 A5E7     		b	.L2
 271              	.L17:
 273:../../../../../../Middlewares/Third_Party/LoRaWAN/Mac/region/RegionRU864.c ****             break;
 272              		.loc 1 273 0
 273 00d2 0A4B     		ldr	r3, .L30+32
 274 00d4 7033     		adds	r3, r3, #112
 275 00d6 0093     		str	r3, [sp]
 274:../../../../../../Middlewares/Third_Party/LoRaWAN/Mac/region/RegionRU864.c ****         }
 276              		.loc 1 274 0
 277 00d8 A1E7     		b	.L2
 278              	.L31:
 279 00da C046     		.align	2
 280              	.L30:
 281 00dc 00000000 		.word	.L4
 282 00e0 E069CD33 		.word	869100000
 283 00e4 9A990940 		.word	1074370970
 284 00e8 18FCFFFF 		.word	-1000
 285 00ec 70170000 		.word	6000
 286 00f0 88130000 		.word	5000
 287 00f4 B80B0000 		.word	3000
 288 00f8 F4000000 		.word	.LANCHOR0
 289 00fc 00000000 		.word	.LANCHOR1
 290 0100 11020000 		.word	529
 291              		.cfi_endproc
 292              	.LFE44:
 293              		.size	RegionRU864GetPhyParam, .-RegionRU864GetPhyParam
 294              		.section	.text.RegionRU864SetBandTxDone,"ax",%progbits
 295              		.align	1
 296              		.p2align 2,,3
 297              		.global	RegionRU864SetBandTxDone
 298              		.syntax unified
 299              		.code	16
 300              		.thumb_func
 301              		.fpu softvfp
 302              		.type	RegionRU864SetBandTxDone, %function
 303              	RegionRU864SetBandTxDone:
 304              	.LFB45:
 332:../../../../../../Middlewares/Third_Party/LoRaWAN/Mac/region/RegionRU864.c **** 
 333:../../../../../../Middlewares/Third_Party/LoRaWAN/Mac/region/RegionRU864.c **** void RegionRU864SetBandTxDone( SetBandTxDoneParams_t* txDone )
 334:../../../../../../Middlewares/Third_Party/LoRaWAN/Mac/region/RegionRU864.c **** {
ARM GAS  C:\Users\EBANO_~1\AppData\Local\Temp\ccazSBuk.s 			page 13


 305              		.loc 1 334 0
 306              		.cfi_startproc
 307              		@ args = 0, pretend = 0, frame = 0
 308              		@ frame_needed = 0, uses_anonymous_args = 0
 309              	.LVL10:
 335:../../../../../../Middlewares/Third_Party/LoRaWAN/Mac/region/RegionRU864.c ****     RegionCommonSetBandTxDone( txDone->Joined, &NvmCtx.Bands[NvmCtx.Channels[txDone->Channel].Band]
 310              		.loc 1 335 0
 311 0000 0178     		ldrb	r1, [r0]
 334:../../../../../../Middlewares/Third_Party/LoRaWAN/Mac/region/RegionRU864.c ****     RegionCommonSetBandTxDone( txDone->Joined, &NvmCtx.Bands[NvmCtx.Channels[txDone->Channel].Band]
 312              		.loc 1 334 0
 313 0002 10B5     		push	{r4, lr}
 314              	.LCFI2:
 315              		.cfi_def_cfa_offset 8
 316              		.cfi_offset 4, -8
 317              		.cfi_offset 14, -4
 318              		.loc 1 335 0
 319 0004 4B00     		lsls	r3, r1, #1
 320 0006 064C     		ldr	r4, .L33
 321 0008 5B18     		adds	r3, r3, r1
 322 000a 9B00     		lsls	r3, r3, #2
 323 000c E318     		adds	r3, r4, r3
 324 000e 597A     		ldrb	r1, [r3, #9]
 325 0010 4268     		ldr	r2, [r0, #4]
 326 0012 0631     		adds	r1, r1, #6
 327 0014 0901     		lsls	r1, r1, #4
 328 0016 6118     		adds	r1, r4, r1
 329 0018 4078     		ldrb	r0, [r0, #1]
 330              	.LVL11:
 331 001a FFF7FEFF 		bl	RegionCommonSetBandTxDone
 332              	.LVL12:
 336:../../../../../../Middlewares/Third_Party/LoRaWAN/Mac/region/RegionRU864.c **** }
 333              		.loc 1 336 0
 334              		@ sp needed
 335 001e 10BD     		pop	{r4, pc}
 336              	.L34:
 337              		.align	2
 338              	.L33:
 339 0020 00000000 		.word	.LANCHOR1
 340              		.cfi_endproc
 341              	.LFE45:
 342              		.size	RegionRU864SetBandTxDone, .-RegionRU864SetBandTxDone
 343              		.section	.text.RegionRU864InitDefaults,"ax",%progbits
 344              		.align	1
 345              		.p2align 2,,3
 346              		.global	RegionRU864InitDefaults
 347              		.syntax unified
 348              		.code	16
 349              		.thumb_func
 350              		.fpu softvfp
 351              		.type	RegionRU864InitDefaults, %function
 352              	RegionRU864InitDefaults:
 353              	.LFB46:
 337:../../../../../../Middlewares/Third_Party/LoRaWAN/Mac/region/RegionRU864.c **** 
 338:../../../../../../Middlewares/Third_Party/LoRaWAN/Mac/region/RegionRU864.c **** void RegionRU864InitDefaults( InitDefaultsParams_t* params )
 339:../../../../../../Middlewares/Third_Party/LoRaWAN/Mac/region/RegionRU864.c **** {
 354              		.loc 1 339 0
 355              		.cfi_startproc
ARM GAS  C:\Users\EBANO_~1\AppData\Local\Temp\ccazSBuk.s 			page 14


 356              		@ args = 0, pretend = 0, frame = 16
 357              		@ frame_needed = 0, uses_anonymous_args = 0
 358              	.LVL13:
 359 0000 70B5     		push	{r4, r5, r6, lr}
 360              	.LCFI3:
 361              		.cfi_def_cfa_offset 16
 362              		.cfi_offset 4, -16
 363              		.cfi_offset 5, -12
 364              		.cfi_offset 6, -8
 365              		.cfi_offset 14, -4
 366 0002 84B0     		sub	sp, sp, #16
 367              	.LCFI4:
 368              		.cfi_def_cfa_offset 32
 340:../../../../../../Middlewares/Third_Party/LoRaWAN/Mac/region/RegionRU864.c ****     Band_t bands[RU864_MAX_NB_BANDS] =
 369              		.loc 1 340 0
 370 0004 6423     		movs	r3, #100
 371 0006 6A46     		mov	r2, sp
 372 0008 1380     		strh	r3, [r2]
 373 000a 0023     		movs	r3, #0
 374 000c 9370     		strb	r3, [r2, #2]
 375 000e 0193     		str	r3, [sp, #4]
 376 0010 0293     		str	r3, [sp, #8]
 377 0012 0393     		str	r3, [sp, #12]
 341:../../../../../../Middlewares/Third_Party/LoRaWAN/Mac/region/RegionRU864.c ****     {
 342:../../../../../../Middlewares/Third_Party/LoRaWAN/Mac/region/RegionRU864.c ****         RU864_BAND0
 343:../../../../../../Middlewares/Third_Party/LoRaWAN/Mac/region/RegionRU864.c ****     };
 344:../../../../../../Middlewares/Third_Party/LoRaWAN/Mac/region/RegionRU864.c **** 
 345:../../../../../../Middlewares/Third_Party/LoRaWAN/Mac/region/RegionRU864.c ****     switch( params->Type )
 378              		.loc 1 345 0
 379 0014 0379     		ldrb	r3, [r0, #4]
 380 0016 012B     		cmp	r3, #1
 381 0018 26D0     		beq	.L37
 382 001a 002B     		cmp	r3, #0
 383 001c 0AD0     		beq	.L38
 384 001e 022B     		cmp	r3, #2
 385 0020 06D1     		bne	.L35
 346:../../../../../../Middlewares/Third_Party/LoRaWAN/Mac/region/RegionRU864.c ****     {
 347:../../../../../../Middlewares/Third_Party/LoRaWAN/Mac/region/RegionRU864.c ****         case INIT_TYPE_INIT:
 348:../../../../../../Middlewares/Third_Party/LoRaWAN/Mac/region/RegionRU864.c ****         {
 349:../../../../../../Middlewares/Third_Party/LoRaWAN/Mac/region/RegionRU864.c ****             // Initialize bands
 350:../../../../../../Middlewares/Third_Party/LoRaWAN/Mac/region/RegionRU864.c ****             memcpy1( ( uint8_t* )NvmCtx.Bands, ( uint8_t* )bands, sizeof( Band_t ) * RU864_MAX_NB_B
 351:../../../../../../Middlewares/Third_Party/LoRaWAN/Mac/region/RegionRU864.c **** 
 352:../../../../../../Middlewares/Third_Party/LoRaWAN/Mac/region/RegionRU864.c ****             // Channels
 353:../../../../../../Middlewares/Third_Party/LoRaWAN/Mac/region/RegionRU864.c ****             NvmCtx.Channels[0] = ( ChannelParams_t ) RU864_LC1;
 354:../../../../../../Middlewares/Third_Party/LoRaWAN/Mac/region/RegionRU864.c ****             NvmCtx.Channels[1] = ( ChannelParams_t ) RU864_LC2;
 355:../../../../../../Middlewares/Third_Party/LoRaWAN/Mac/region/RegionRU864.c **** 
 356:../../../../../../Middlewares/Third_Party/LoRaWAN/Mac/region/RegionRU864.c ****             // Initialize the channels default mask
 357:../../../../../../Middlewares/Third_Party/LoRaWAN/Mac/region/RegionRU864.c ****             NvmCtx.ChannelsDefaultMask[0] = LC( 1 ) + LC( 2 );
 358:../../../../../../Middlewares/Third_Party/LoRaWAN/Mac/region/RegionRU864.c ****             // Update the channels mask
 359:../../../../../../Middlewares/Third_Party/LoRaWAN/Mac/region/RegionRU864.c ****             RegionCommonChanMaskCopy( NvmCtx.ChannelsMask, NvmCtx.ChannelsDefaultMask, 1 );
 360:../../../../../../Middlewares/Third_Party/LoRaWAN/Mac/region/RegionRU864.c ****             break;
 361:../../../../../../Middlewares/Third_Party/LoRaWAN/Mac/region/RegionRU864.c ****         }
 362:../../../../../../Middlewares/Third_Party/LoRaWAN/Mac/region/RegionRU864.c ****         case INIT_TYPE_RESTORE_CTX:
 363:../../../../../../Middlewares/Third_Party/LoRaWAN/Mac/region/RegionRU864.c ****         {
 364:../../../../../../Middlewares/Third_Party/LoRaWAN/Mac/region/RegionRU864.c ****             if( params->NvmCtx != 0 )
 386              		.loc 1 364 0
 387 0022 0168     		ldr	r1, [r0]
ARM GAS  C:\Users\EBANO_~1\AppData\Local\Temp\ccazSBuk.s 			page 15


 388 0024 0029     		cmp	r1, #0
 389 0026 03D0     		beq	.L35
 365:../../../../../../Middlewares/Third_Party/LoRaWAN/Mac/region/RegionRU864.c ****             {
 366:../../../../../../Middlewares/Third_Party/LoRaWAN/Mac/region/RegionRU864.c ****                 memcpy1( (uint8_t*) &NvmCtx, (uint8_t*) params->NvmCtx, sizeof( NvmCtx ) );
 390              		.loc 1 366 0
 391 0028 7422     		movs	r2, #116
 392 002a 1348     		ldr	r0, .L43
 393              	.LVL14:
 394 002c FFF7FEFF 		bl	memcpy1
 395              	.LVL15:
 396              	.L35:
 367:../../../../../../Middlewares/Third_Party/LoRaWAN/Mac/region/RegionRU864.c ****             }
 368:../../../../../../Middlewares/Third_Party/LoRaWAN/Mac/region/RegionRU864.c ****             break;
 369:../../../../../../Middlewares/Third_Party/LoRaWAN/Mac/region/RegionRU864.c ****         }
 370:../../../../../../Middlewares/Third_Party/LoRaWAN/Mac/region/RegionRU864.c ****         case INIT_TYPE_RESTORE_DEFAULT_CHANNELS:
 371:../../../../../../Middlewares/Third_Party/LoRaWAN/Mac/region/RegionRU864.c ****         {
 372:../../../../../../Middlewares/Third_Party/LoRaWAN/Mac/region/RegionRU864.c ****             // Restore channels default mask
 373:../../../../../../Middlewares/Third_Party/LoRaWAN/Mac/region/RegionRU864.c ****             NvmCtx.ChannelsMask[0] |= NvmCtx.ChannelsDefaultMask[0];
 374:../../../../../../Middlewares/Third_Party/LoRaWAN/Mac/region/RegionRU864.c ****             break;
 375:../../../../../../Middlewares/Third_Party/LoRaWAN/Mac/region/RegionRU864.c ****         }
 376:../../../../../../Middlewares/Third_Party/LoRaWAN/Mac/region/RegionRU864.c ****         default:
 377:../../../../../../Middlewares/Third_Party/LoRaWAN/Mac/region/RegionRU864.c ****         {
 378:../../../../../../Middlewares/Third_Party/LoRaWAN/Mac/region/RegionRU864.c ****             break;
 379:../../../../../../Middlewares/Third_Party/LoRaWAN/Mac/region/RegionRU864.c ****         }
 380:../../../../../../Middlewares/Third_Party/LoRaWAN/Mac/region/RegionRU864.c ****     }
 381:../../../../../../Middlewares/Third_Party/LoRaWAN/Mac/region/RegionRU864.c **** }
 397              		.loc 1 381 0
 398 0030 04B0     		add	sp, sp, #16
 399              		@ sp needed
 400 0032 70BD     		pop	{r4, r5, r6, pc}
 401              	.LVL16:
 402              	.L38:
 350:../../../../../../Middlewares/Third_Party/LoRaWAN/Mac/region/RegionRU864.c **** 
 403              		.loc 1 350 0
 404 0034 104C     		ldr	r4, .L43
 405 0036 6946     		mov	r1, sp
 406 0038 2000     		movs	r0, r4
 407              	.LVL17:
 408 003a 1022     		movs	r2, #16
 409 003c 6030     		adds	r0, r0, #96
 410 003e FFF7FEFF 		bl	memcpy1
 411              	.LVL18:
 353:../../../../../../Middlewares/Third_Party/LoRaWAN/Mac/region/RegionRU864.c ****             NvmCtx.Channels[1] = ( ChannelParams_t ) RU864_LC2;
 412              		.loc 1 353 0
 413 0042 0E4B     		ldr	r3, .L43+4
 414 0044 2100     		movs	r1, r4
 415 0046 1A00     		movs	r2, r3
 416 0048 1032     		adds	r2, r2, #16
 417 004a 61CA     		ldmia	r2!, {r0, r5, r6}
 418 004c 61C1     		stmia	r1!, {r0, r5, r6}
 354:../../../../../../Middlewares/Third_Party/LoRaWAN/Mac/region/RegionRU864.c **** 
 419              		.loc 1 354 0
 420 004e 1C33     		adds	r3, r3, #28
 421 0050 25CB     		ldmia	r3!, {r0, r2, r5}
 422 0052 25C1     		stmia	r1!, {r0, r2, r5}
 357:../../../../../../Middlewares/Third_Party/LoRaWAN/Mac/region/RegionRU864.c ****             // Update the channels mask
 423              		.loc 1 357 0
ARM GAS  C:\Users\EBANO_~1\AppData\Local\Temp\ccazSBuk.s 			page 16


 424 0054 7223     		movs	r3, #114
 425 0056 0322     		movs	r2, #3
 359:../../../../../../Middlewares/Third_Party/LoRaWAN/Mac/region/RegionRU864.c ****             break;
 426              		.loc 1 359 0
 427 0058 2000     		movs	r0, r4
 357:../../../../../../Middlewares/Third_Party/LoRaWAN/Mac/region/RegionRU864.c ****             // Update the channels mask
 428              		.loc 1 357 0
 429 005a E252     		strh	r2, [r4, r3]
 359:../../../../../../Middlewares/Third_Party/LoRaWAN/Mac/region/RegionRU864.c ****             break;
 430              		.loc 1 359 0
 431 005c 5A31     		adds	r1, r1, #90
 432 005e 7030     		adds	r0, r0, #112
 433 0060 023A     		subs	r2, r2, #2
 434 0062 FFF7FEFF 		bl	RegionCommonChanMaskCopy
 435              	.LVL19:
 360:../../../../../../Middlewares/Third_Party/LoRaWAN/Mac/region/RegionRU864.c ****         }
 436              		.loc 1 360 0
 437 0066 E3E7     		b	.L35
 438              	.LVL20:
 439              	.L37:
 373:../../../../../../Middlewares/Third_Party/LoRaWAN/Mac/region/RegionRU864.c ****             break;
 440              		.loc 1 373 0
 441 0068 7021     		movs	r1, #112
 442 006a 7220     		movs	r0, #114
 443              	.LVL21:
 444 006c 024B     		ldr	r3, .L43
 445 006e 5A5A     		ldrh	r2, [r3, r1]
 446 0070 185A     		ldrh	r0, [r3, r0]
 447 0072 0243     		orrs	r2, r0
 448 0074 5A52     		strh	r2, [r3, r1]
 449              		.loc 1 381 0
 450 0076 DBE7     		b	.L35
 451              	.L44:
 452              		.align	2
 453              	.L43:
 454 0078 00000000 		.word	.LANCHOR1
 455 007c F4000000 		.word	.LANCHOR0
 456              		.cfi_endproc
 457              	.LFE46:
 458              		.size	RegionRU864InitDefaults, .-RegionRU864InitDefaults
 459              		.section	.text.RegionRU864GetNvmCtx,"ax",%progbits
 460              		.align	1
 461              		.p2align 2,,3
 462              		.global	RegionRU864GetNvmCtx
 463              		.syntax unified
 464              		.code	16
 465              		.thumb_func
 466              		.fpu softvfp
 467              		.type	RegionRU864GetNvmCtx, %function
 468              	RegionRU864GetNvmCtx:
 469              	.LFB47:
 382:../../../../../../Middlewares/Third_Party/LoRaWAN/Mac/region/RegionRU864.c **** 
 383:../../../../../../Middlewares/Third_Party/LoRaWAN/Mac/region/RegionRU864.c **** void* RegionRU864GetNvmCtx( GetNvmCtxParams_t* params )
 384:../../../../../../Middlewares/Third_Party/LoRaWAN/Mac/region/RegionRU864.c **** {
 470              		.loc 1 384 0
 471              		.cfi_startproc
 472              		@ args = 0, pretend = 0, frame = 0
ARM GAS  C:\Users\EBANO_~1\AppData\Local\Temp\ccazSBuk.s 			page 17


 473              		@ frame_needed = 0, uses_anonymous_args = 0
 474              		@ link register save eliminated.
 475              	.LVL22:
 385:../../../../../../Middlewares/Third_Party/LoRaWAN/Mac/region/RegionRU864.c ****     params->nvmCtxSize = sizeof( RegionRU864NvmCtx_t );
 476              		.loc 1 385 0
 477 0000 7423     		movs	r3, #116
 386:../../../../../../Middlewares/Third_Party/LoRaWAN/Mac/region/RegionRU864.c ****     return &NvmCtx;
 387:../../../../../../Middlewares/Third_Party/LoRaWAN/Mac/region/RegionRU864.c **** }
 478              		.loc 1 387 0
 479              		@ sp needed
 385:../../../../../../Middlewares/Third_Party/LoRaWAN/Mac/region/RegionRU864.c ****     params->nvmCtxSize = sizeof( RegionRU864NvmCtx_t );
 480              		.loc 1 385 0
 481 0002 0360     		str	r3, [r0]
 482              		.loc 1 387 0
 483 0004 0048     		ldr	r0, .L46
 484              	.LVL23:
 485 0006 7047     		bx	lr
 486              	.L47:
 487              		.align	2
 488              	.L46:
 489 0008 00000000 		.word	.LANCHOR1
 490              		.cfi_endproc
 491              	.LFE47:
 492              		.size	RegionRU864GetNvmCtx, .-RegionRU864GetNvmCtx
 493              		.section	.text.RegionRU864Verify,"ax",%progbits
 494              		.align	1
 495              		.p2align 2,,3
 496              		.global	RegionRU864Verify
 497              		.syntax unified
 498              		.code	16
 499              		.thumb_func
 500              		.fpu softvfp
 501              		.type	RegionRU864Verify, %function
 502              	RegionRU864Verify:
 503              	.LFB48:
 388:../../../../../../Middlewares/Third_Party/LoRaWAN/Mac/region/RegionRU864.c **** 
 389:../../../../../../Middlewares/Third_Party/LoRaWAN/Mac/region/RegionRU864.c **** bool RegionRU864Verify( VerifyParams_t* verify, PhyAttribute_t phyAttribute )
 390:../../../../../../Middlewares/Third_Party/LoRaWAN/Mac/region/RegionRU864.c **** {
 504              		.loc 1 390 0
 505              		.cfi_startproc
 506              		@ args = 0, pretend = 0, frame = 0
 507              		@ frame_needed = 0, uses_anonymous_args = 0
 508              	.LVL24:
 391:../../../../../../Middlewares/Third_Party/LoRaWAN/Mac/region/RegionRU864.c ****     switch( phyAttribute )
 509              		.loc 1 391 0
 510 0000 0439     		subs	r1, r1, #4
 511              	.LVL25:
 512 0002 C9B2     		uxtb	r1, r1
 390:../../../../../../Middlewares/Third_Party/LoRaWAN/Mac/region/RegionRU864.c ****     switch( phyAttribute )
 513              		.loc 1 390 0
 514 0004 10B5     		push	{r4, lr}
 515              	.LCFI5:
 516              		.cfi_def_cfa_offset 8
 517              		.cfi_offset 4, -8
 518              		.cfi_offset 14, -4
 519              		.loc 1 391 0
 520 0006 0A29     		cmp	r1, #10
ARM GAS  C:\Users\EBANO_~1\AppData\Local\Temp\ccazSBuk.s 			page 18


 521 0008 19D8     		bhi	.L49
 522 000a 0E4B     		ldr	r3, .L56
 523 000c 8900     		lsls	r1, r1, #2
 524 000e 5B58     		ldr	r3, [r3, r1]
 525 0010 9F46     		mov	pc, r3
 526              		.section	.rodata
 527              		.align	2
 528              	.L51:
 529 00a0 12000000 		.word	.L53
 530 00a4 2A000000 		.word	.L52
 531 00a8 12000000 		.word	.L53
 532 00ac 3E000000 		.word	.L49
 533 00b0 12000000 		.word	.L53
 534 00b4 12000000 		.word	.L53
 535 00b8 3E000000 		.word	.L49
 536 00bc 3E000000 		.word	.L49
 537 00c0 3E000000 		.word	.L49
 538 00c4 3E000000 		.word	.L49
 539 00c8 26000000 		.word	.L55
 540              		.section	.text.RegionRU864Verify
 541              	.L53:
 392:../../../../../../Middlewares/Third_Party/LoRaWAN/Mac/region/RegionRU864.c ****     {
 393:../../../../../../Middlewares/Third_Party/LoRaWAN/Mac/region/RegionRU864.c ****         case PHY_TX_DR:
 394:../../../../../../Middlewares/Third_Party/LoRaWAN/Mac/region/RegionRU864.c ****         {
 395:../../../../../../Middlewares/Third_Party/LoRaWAN/Mac/region/RegionRU864.c ****             return RegionCommonValueInRange( verify->DatarateParams.Datarate, RU864_TX_MIN_DATARATE
 396:../../../../../../Middlewares/Third_Party/LoRaWAN/Mac/region/RegionRU864.c ****         }
 397:../../../../../../Middlewares/Third_Party/LoRaWAN/Mac/region/RegionRU864.c ****         case PHY_DEF_TX_DR:
 398:../../../../../../Middlewares/Third_Party/LoRaWAN/Mac/region/RegionRU864.c ****         {
 399:../../../../../../Middlewares/Third_Party/LoRaWAN/Mac/region/RegionRU864.c ****             return RegionCommonValueInRange( verify->DatarateParams.Datarate, DR_0, DR_5 );
 400:../../../../../../Middlewares/Third_Party/LoRaWAN/Mac/region/RegionRU864.c ****         }
 401:../../../../../../Middlewares/Third_Party/LoRaWAN/Mac/region/RegionRU864.c ****         case PHY_RX_DR:
 402:../../../../../../Middlewares/Third_Party/LoRaWAN/Mac/region/RegionRU864.c ****         {
 403:../../../../../../Middlewares/Third_Party/LoRaWAN/Mac/region/RegionRU864.c ****             return RegionCommonValueInRange( verify->DatarateParams.Datarate, RU864_RX_MIN_DATARATE
 404:../../../../../../Middlewares/Third_Party/LoRaWAN/Mac/region/RegionRU864.c ****         }
 405:../../../../../../Middlewares/Third_Party/LoRaWAN/Mac/region/RegionRU864.c ****         case PHY_DEF_TX_POWER:
 406:../../../../../../Middlewares/Third_Party/LoRaWAN/Mac/region/RegionRU864.c ****         case PHY_TX_POWER:
 407:../../../../../../Middlewares/Third_Party/LoRaWAN/Mac/region/RegionRU864.c ****         {
 408:../../../../../../Middlewares/Third_Party/LoRaWAN/Mac/region/RegionRU864.c ****             // Remark: switched min and max!
 409:../../../../../../Middlewares/Third_Party/LoRaWAN/Mac/region/RegionRU864.c ****             return RegionCommonValueInRange( verify->TxPower, RU864_MAX_TX_POWER, RU864_MIN_TX_POWE
 542              		.loc 1 409 0
 543 0012 0078     		ldrb	r0, [r0]
 544              	.LVL26:
 545 0014 0722     		movs	r2, #7
 546 0016 40B2     		sxtb	r0, r0
 547 0018 0021     		movs	r1, #0
 548 001a FFF7FEFF 		bl	RegionCommonValueInRange
 549              	.LVL27:
 550 001e 431E     		subs	r3, r0, #1
 551 0020 9841     		sbcs	r0, r0, r3
 552 0022 C0B2     		uxtb	r0, r0
 553              	.L54:
 410:../../../../../../Middlewares/Third_Party/LoRaWAN/Mac/region/RegionRU864.c ****         }
 411:../../../../../../Middlewares/Third_Party/LoRaWAN/Mac/region/RegionRU864.c ****         case PHY_DUTY_CYCLE:
 412:../../../../../../Middlewares/Third_Party/LoRaWAN/Mac/region/RegionRU864.c ****         {
 413:../../../../../../Middlewares/Third_Party/LoRaWAN/Mac/region/RegionRU864.c ****             return RU864_DUTY_CYCLE_ENABLED;
 414:../../../../../../Middlewares/Third_Party/LoRaWAN/Mac/region/RegionRU864.c ****         }
 415:../../../../../../Middlewares/Third_Party/LoRaWAN/Mac/region/RegionRU864.c ****         default:
ARM GAS  C:\Users\EBANO_~1\AppData\Local\Temp\ccazSBuk.s 			page 19


 416:../../../../../../Middlewares/Third_Party/LoRaWAN/Mac/region/RegionRU864.c ****             return false;
 417:../../../../../../Middlewares/Third_Party/LoRaWAN/Mac/region/RegionRU864.c ****     }
 418:../../../../../../Middlewares/Third_Party/LoRaWAN/Mac/region/RegionRU864.c **** }
 554              		.loc 1 418 0
 555              		@ sp needed
 556 0024 10BD     		pop	{r4, pc}
 557              	.LVL28:
 558              	.L55:
 413:../../../../../../Middlewares/Third_Party/LoRaWAN/Mac/region/RegionRU864.c ****         }
 559              		.loc 1 413 0
 560 0026 0120     		movs	r0, #1
 561              	.LVL29:
 562 0028 FCE7     		b	.L54
 563              	.LVL30:
 564              	.L52:
 399:../../../../../../Middlewares/Third_Party/LoRaWAN/Mac/region/RegionRU864.c ****         }
 565              		.loc 1 399 0
 566 002a 0078     		ldrb	r0, [r0]
 567              	.LVL31:
 568 002c 0522     		movs	r2, #5
 569 002e 40B2     		sxtb	r0, r0
 570 0030 0021     		movs	r1, #0
 571 0032 FFF7FEFF 		bl	RegionCommonValueInRange
 572              	.LVL32:
 573 0036 431E     		subs	r3, r0, #1
 574 0038 9841     		sbcs	r0, r0, r3
 575 003a C0B2     		uxtb	r0, r0
 576 003c F2E7     		b	.L54
 577              	.LVL33:
 578              	.L49:
 416:../../../../../../Middlewares/Third_Party/LoRaWAN/Mac/region/RegionRU864.c ****     }
 579              		.loc 1 416 0
 580 003e 0020     		movs	r0, #0
 581              	.LVL34:
 582 0040 F0E7     		b	.L54
 583              	.L57:
 584 0042 C046     		.align	2
 585              	.L56:
 586 0044 A0000000 		.word	.L51
 587              		.cfi_endproc
 588              	.LFE48:
 589              		.size	RegionRU864Verify, .-RegionRU864Verify
 590              		.section	.text.RegionRU864ApplyCFList,"ax",%progbits
 591              		.align	1
 592              		.p2align 2,,3
 593              		.global	RegionRU864ApplyCFList
 594              		.syntax unified
 595              		.code	16
 596              		.thumb_func
 597              		.fpu softvfp
 598              		.type	RegionRU864ApplyCFList, %function
 599              	RegionRU864ApplyCFList:
 600              	.LFB49:
 419:../../../../../../Middlewares/Third_Party/LoRaWAN/Mac/region/RegionRU864.c **** 
 420:../../../../../../Middlewares/Third_Party/LoRaWAN/Mac/region/RegionRU864.c **** void RegionRU864ApplyCFList( ApplyCFListParams_t* applyCFList )
 421:../../../../../../Middlewares/Third_Party/LoRaWAN/Mac/region/RegionRU864.c **** {
 601              		.loc 1 421 0
ARM GAS  C:\Users\EBANO_~1\AppData\Local\Temp\ccazSBuk.s 			page 20


 602              		.cfi_startproc
 603              		@ args = 0, pretend = 0, frame = 24
 604              		@ frame_needed = 0, uses_anonymous_args = 0
 605              	.LVL35:
 606 0000 F0B5     		push	{r4, r5, r6, r7, lr}
 607              	.LCFI6:
 608              		.cfi_def_cfa_offset 20
 609              		.cfi_offset 4, -20
 610              		.cfi_offset 5, -16
 611              		.cfi_offset 6, -12
 612              		.cfi_offset 7, -8
 613              		.cfi_offset 14, -4
 614 0002 5746     		mov	r7, r10
 615 0004 DE46     		mov	lr, fp
 616 0006 4E46     		mov	r6, r9
 617 0008 4546     		mov	r5, r8
 422:../../../../../../Middlewares/Third_Party/LoRaWAN/Mac/region/RegionRU864.c ****     ChannelParams_t newChannel;
 423:../../../../../../Middlewares/Third_Party/LoRaWAN/Mac/region/RegionRU864.c ****     ChannelAddParams_t channelAdd;
 424:../../../../../../Middlewares/Third_Party/LoRaWAN/Mac/region/RegionRU864.c ****     ChannelRemoveParams_t channelRemove;
 425:../../../../../../Middlewares/Third_Party/LoRaWAN/Mac/region/RegionRU864.c **** 
 426:../../../../../../Middlewares/Third_Party/LoRaWAN/Mac/region/RegionRU864.c ****     // Setup default datarate range
 427:../../../../../../Middlewares/Third_Party/LoRaWAN/Mac/region/RegionRU864.c ****     newChannel.DrRange.Value = ( DR_5 << 4 ) | DR_0;
 618              		.loc 1 427 0
 619 000a 5023     		movs	r3, #80
 421:../../../../../../Middlewares/Third_Party/LoRaWAN/Mac/region/RegionRU864.c ****     ChannelParams_t newChannel;
 620              		.loc 1 421 0
 621 000c E0B5     		push	{r5, r6, r7, lr}
 622              	.LCFI7:
 623              		.cfi_def_cfa_offset 36
 624              		.cfi_offset 8, -36
 625              		.cfi_offset 9, -32
 626              		.cfi_offset 10, -28
 627              		.cfi_offset 11, -24
 628 000e 87B0     		sub	sp, sp, #28
 629              	.LCFI8:
 630              		.cfi_def_cfa_offset 64
 631              		.loc 1 427 0
 632 0010 03AC     		add	r4, sp, #12
 633 0012 2372     		strb	r3, [r4, #8]
 428:../../../../../../Middlewares/Third_Party/LoRaWAN/Mac/region/RegionRU864.c **** 
 429:../../../../../../Middlewares/Third_Party/LoRaWAN/Mac/region/RegionRU864.c ****     // Size of the optional CF list
 430:../../../../../../Middlewares/Third_Party/LoRaWAN/Mac/region/RegionRU864.c ****     if( applyCFList->Size != 16 )
 634              		.loc 1 430 0
 635 0014 0379     		ldrb	r3, [r0, #4]
 421:../../../../../../Middlewares/Third_Party/LoRaWAN/Mac/region/RegionRU864.c ****     ChannelParams_t newChannel;
 636              		.loc 1 421 0
 637 0016 0700     		movs	r7, r0
 638              		.loc 1 430 0
 639 0018 102B     		cmp	r3, #16
 640 001a 06D0     		beq	.L76
 641              	.LVL36:
 642              	.L58:
 431:../../../../../../Middlewares/Third_Party/LoRaWAN/Mac/region/RegionRU864.c ****     {
 432:../../../../../../Middlewares/Third_Party/LoRaWAN/Mac/region/RegionRU864.c ****         return;
 433:../../../../../../Middlewares/Third_Party/LoRaWAN/Mac/region/RegionRU864.c ****     }
 434:../../../../../../Middlewares/Third_Party/LoRaWAN/Mac/region/RegionRU864.c **** 
 435:../../../../../../Middlewares/Third_Party/LoRaWAN/Mac/region/RegionRU864.c ****     // Last byte CFListType must be 0 to indicate the CFList contains a list of frequencies
ARM GAS  C:\Users\EBANO_~1\AppData\Local\Temp\ccazSBuk.s 			page 21


 436:../../../../../../Middlewares/Third_Party/LoRaWAN/Mac/region/RegionRU864.c ****     if( applyCFList->Payload[15] != 0 )
 437:../../../../../../Middlewares/Third_Party/LoRaWAN/Mac/region/RegionRU864.c ****     {
 438:../../../../../../Middlewares/Third_Party/LoRaWAN/Mac/region/RegionRU864.c ****         return;
 439:../../../../../../Middlewares/Third_Party/LoRaWAN/Mac/region/RegionRU864.c ****     }
 440:../../../../../../Middlewares/Third_Party/LoRaWAN/Mac/region/RegionRU864.c **** 
 441:../../../../../../Middlewares/Third_Party/LoRaWAN/Mac/region/RegionRU864.c ****     // Last byte is RFU, don't take it into account
 442:../../../../../../Middlewares/Third_Party/LoRaWAN/Mac/region/RegionRU864.c ****     for( uint8_t i = 0, chanIdx = RU864_NUMB_DEFAULT_CHANNELS; chanIdx < RU864_MAX_NB_CHANNELS; i+=
 443:../../../../../../Middlewares/Third_Party/LoRaWAN/Mac/region/RegionRU864.c ****     {
 444:../../../../../../Middlewares/Third_Party/LoRaWAN/Mac/region/RegionRU864.c ****         if( chanIdx < ( RU864_NUMB_CHANNELS_CF_LIST + RU864_NUMB_DEFAULT_CHANNELS ) )
 445:../../../../../../Middlewares/Third_Party/LoRaWAN/Mac/region/RegionRU864.c ****         {
 446:../../../../../../Middlewares/Third_Party/LoRaWAN/Mac/region/RegionRU864.c ****             // Channel frequency
 447:../../../../../../Middlewares/Third_Party/LoRaWAN/Mac/region/RegionRU864.c ****             newChannel.Frequency = (uint32_t) applyCFList->Payload[i];
 448:../../../../../../Middlewares/Third_Party/LoRaWAN/Mac/region/RegionRU864.c ****             newChannel.Frequency |= ( (uint32_t) applyCFList->Payload[i + 1] << 8 );
 449:../../../../../../Middlewares/Third_Party/LoRaWAN/Mac/region/RegionRU864.c ****             newChannel.Frequency |= ( (uint32_t) applyCFList->Payload[i + 2] << 16 );
 450:../../../../../../Middlewares/Third_Party/LoRaWAN/Mac/region/RegionRU864.c ****             newChannel.Frequency *= 100;
 451:../../../../../../Middlewares/Third_Party/LoRaWAN/Mac/region/RegionRU864.c **** 
 452:../../../../../../Middlewares/Third_Party/LoRaWAN/Mac/region/RegionRU864.c ****             // Initialize alternative frequency to 0
 453:../../../../../../Middlewares/Third_Party/LoRaWAN/Mac/region/RegionRU864.c ****             newChannel.Rx1Frequency = 0;
 454:../../../../../../Middlewares/Third_Party/LoRaWAN/Mac/region/RegionRU864.c ****         }
 455:../../../../../../Middlewares/Third_Party/LoRaWAN/Mac/region/RegionRU864.c ****         else
 456:../../../../../../Middlewares/Third_Party/LoRaWAN/Mac/region/RegionRU864.c ****         {
 457:../../../../../../Middlewares/Third_Party/LoRaWAN/Mac/region/RegionRU864.c ****             newChannel.Frequency = 0;
 458:../../../../../../Middlewares/Third_Party/LoRaWAN/Mac/region/RegionRU864.c ****             newChannel.DrRange.Value = 0;
 459:../../../../../../Middlewares/Third_Party/LoRaWAN/Mac/region/RegionRU864.c ****             newChannel.Rx1Frequency = 0;
 460:../../../../../../Middlewares/Third_Party/LoRaWAN/Mac/region/RegionRU864.c ****         }
 461:../../../../../../Middlewares/Third_Party/LoRaWAN/Mac/region/RegionRU864.c **** 
 462:../../../../../../Middlewares/Third_Party/LoRaWAN/Mac/region/RegionRU864.c ****         if( newChannel.Frequency != 0 )
 463:../../../../../../Middlewares/Third_Party/LoRaWAN/Mac/region/RegionRU864.c ****         {
 464:../../../../../../Middlewares/Third_Party/LoRaWAN/Mac/region/RegionRU864.c ****             channelAdd.NewChannel = &newChannel;
 465:../../../../../../Middlewares/Third_Party/LoRaWAN/Mac/region/RegionRU864.c ****             channelAdd.ChannelId = chanIdx;
 466:../../../../../../Middlewares/Third_Party/LoRaWAN/Mac/region/RegionRU864.c **** 
 467:../../../../../../Middlewares/Third_Party/LoRaWAN/Mac/region/RegionRU864.c ****             // Try to add all channels
 468:../../../../../../Middlewares/Third_Party/LoRaWAN/Mac/region/RegionRU864.c ****             RegionRU864ChannelAdd( &channelAdd );
 469:../../../../../../Middlewares/Third_Party/LoRaWAN/Mac/region/RegionRU864.c ****         }
 470:../../../../../../Middlewares/Third_Party/LoRaWAN/Mac/region/RegionRU864.c ****         else
 471:../../../../../../Middlewares/Third_Party/LoRaWAN/Mac/region/RegionRU864.c ****         {
 472:../../../../../../Middlewares/Third_Party/LoRaWAN/Mac/region/RegionRU864.c ****             channelRemove.ChannelId = chanIdx;
 473:../../../../../../Middlewares/Third_Party/LoRaWAN/Mac/region/RegionRU864.c **** 
 474:../../../../../../Middlewares/Third_Party/LoRaWAN/Mac/region/RegionRU864.c ****             RegionRU864ChannelsRemove( &channelRemove );
 475:../../../../../../Middlewares/Third_Party/LoRaWAN/Mac/region/RegionRU864.c ****         }
 476:../../../../../../Middlewares/Third_Party/LoRaWAN/Mac/region/RegionRU864.c ****     }
 477:../../../../../../Middlewares/Third_Party/LoRaWAN/Mac/region/RegionRU864.c **** }
 643              		.loc 1 477 0
 644 001c 07B0     		add	sp, sp, #28
 645              		@ sp needed
 646              	.LVL37:
 647 001e 3CBC     		pop	{r2, r3, r4, r5}
 648 0020 9046     		mov	r8, r2
 649 0022 9946     		mov	r9, r3
 650 0024 A246     		mov	r10, r4
 651 0026 AB46     		mov	fp, r5
 652 0028 F0BD     		pop	{r4, r5, r6, r7, pc}
 653              	.LVL38:
 654              	.L76:
 436:../../../../../../Middlewares/Third_Party/LoRaWAN/Mac/region/RegionRU864.c ****     {
 655              		.loc 1 436 0
 656 002a 0368     		ldr	r3, [r0]
ARM GAS  C:\Users\EBANO_~1\AppData\Local\Temp\ccazSBuk.s 			page 22


 657 002c DB7B     		ldrb	r3, [r3, #15]
 658 002e 002B     		cmp	r3, #0
 659 0030 F4D1     		bne	.L58
 660 0032 0225     		movs	r5, #2
 661              	.LBB31:
 662              	.LBB32:
 663              	.LBB33:
 478:../../../../../../Middlewares/Third_Party/LoRaWAN/Mac/region/RegionRU864.c **** 
 479:../../../../../../Middlewares/Third_Party/LoRaWAN/Mac/region/RegionRU864.c **** bool RegionRU864ChanMaskSet( ChanMaskSetParams_t* chanMaskSet )
 480:../../../../../../Middlewares/Third_Party/LoRaWAN/Mac/region/RegionRU864.c **** {
 481:../../../../../../Middlewares/Third_Party/LoRaWAN/Mac/region/RegionRU864.c ****     switch( chanMaskSet->ChannelsMaskType )
 482:../../../../../../Middlewares/Third_Party/LoRaWAN/Mac/region/RegionRU864.c ****     {
 483:../../../../../../Middlewares/Third_Party/LoRaWAN/Mac/region/RegionRU864.c ****         case CHANNELS_MASK:
 484:../../../../../../Middlewares/Third_Party/LoRaWAN/Mac/region/RegionRU864.c ****         {
 485:../../../../../../Middlewares/Third_Party/LoRaWAN/Mac/region/RegionRU864.c ****             RegionCommonChanMaskCopy( NvmCtx.ChannelsMask, chanMaskSet->ChannelsMaskIn, 1 );
 486:../../../../../../Middlewares/Third_Party/LoRaWAN/Mac/region/RegionRU864.c ****             break;
 487:../../../../../../Middlewares/Third_Party/LoRaWAN/Mac/region/RegionRU864.c ****         }
 488:../../../../../../Middlewares/Third_Party/LoRaWAN/Mac/region/RegionRU864.c ****         case CHANNELS_DEFAULT_MASK:
 489:../../../../../../Middlewares/Third_Party/LoRaWAN/Mac/region/RegionRU864.c ****         {
 490:../../../../../../Middlewares/Third_Party/LoRaWAN/Mac/region/RegionRU864.c ****             RegionCommonChanMaskCopy( NvmCtx.ChannelsDefaultMask, chanMaskSet->ChannelsMaskIn, 1 );
 491:../../../../../../Middlewares/Third_Party/LoRaWAN/Mac/region/RegionRU864.c ****             break;
 492:../../../../../../Middlewares/Third_Party/LoRaWAN/Mac/region/RegionRU864.c ****         }
 493:../../../../../../Middlewares/Third_Party/LoRaWAN/Mac/region/RegionRU864.c ****         default:
 494:../../../../../../Middlewares/Third_Party/LoRaWAN/Mac/region/RegionRU864.c ****             return false;
 495:../../../../../../Middlewares/Third_Party/LoRaWAN/Mac/region/RegionRU864.c ****     }
 496:../../../../../../Middlewares/Third_Party/LoRaWAN/Mac/region/RegionRU864.c ****     return true;
 497:../../../../../../Middlewares/Third_Party/LoRaWAN/Mac/region/RegionRU864.c **** }
 498:../../../../../../Middlewares/Third_Party/LoRaWAN/Mac/region/RegionRU864.c **** 
 499:../../../../../../Middlewares/Third_Party/LoRaWAN/Mac/region/RegionRU864.c **** void RegionRU864ComputeRxWindowParameters( int8_t datarate, uint8_t minRxSymbols, uint32_t rxError,
 500:../../../../../../Middlewares/Third_Party/LoRaWAN/Mac/region/RegionRU864.c **** {
 501:../../../../../../Middlewares/Third_Party/LoRaWAN/Mac/region/RegionRU864.c ****     double tSymbol = 0.0;
 502:../../../../../../Middlewares/Third_Party/LoRaWAN/Mac/region/RegionRU864.c **** 
 503:../../../../../../Middlewares/Third_Party/LoRaWAN/Mac/region/RegionRU864.c ****     // Get the datarate, perform a boundary check
 504:../../../../../../Middlewares/Third_Party/LoRaWAN/Mac/region/RegionRU864.c ****     rxConfigParams->Datarate = MIN( datarate, RU864_RX_MAX_DATARATE );
 505:../../../../../../Middlewares/Third_Party/LoRaWAN/Mac/region/RegionRU864.c ****     rxConfigParams->Bandwidth = GetBandwidth( rxConfigParams->Datarate );
 506:../../../../../../Middlewares/Third_Party/LoRaWAN/Mac/region/RegionRU864.c **** 
 507:../../../../../../Middlewares/Third_Party/LoRaWAN/Mac/region/RegionRU864.c ****     if( rxConfigParams->Datarate == DR_7 )
 508:../../../../../../Middlewares/Third_Party/LoRaWAN/Mac/region/RegionRU864.c ****     { // FSK
 509:../../../../../../Middlewares/Third_Party/LoRaWAN/Mac/region/RegionRU864.c ****         tSymbol = RegionCommonComputeSymbolTimeFsk( DataratesRU864[rxConfigParams->Datarate] );
 510:../../../../../../Middlewares/Third_Party/LoRaWAN/Mac/region/RegionRU864.c ****     }
 511:../../../../../../Middlewares/Third_Party/LoRaWAN/Mac/region/RegionRU864.c ****     else
 512:../../../../../../Middlewares/Third_Party/LoRaWAN/Mac/region/RegionRU864.c ****     { // LoRa
 513:../../../../../../Middlewares/Third_Party/LoRaWAN/Mac/region/RegionRU864.c ****         tSymbol = RegionCommonComputeSymbolTimeLoRa( DataratesRU864[rxConfigParams->Datarate], Band
 514:../../../../../../Middlewares/Third_Party/LoRaWAN/Mac/region/RegionRU864.c ****     }
 515:../../../../../../Middlewares/Third_Party/LoRaWAN/Mac/region/RegionRU864.c **** 
 516:../../../../../../Middlewares/Third_Party/LoRaWAN/Mac/region/RegionRU864.c ****     RegionCommonComputeRxWindowParameters( tSymbol, minRxSymbols, rxError, Radio.GetWakeupTime( ), 
 517:../../../../../../Middlewares/Third_Party/LoRaWAN/Mac/region/RegionRU864.c **** }
 518:../../../../../../Middlewares/Third_Party/LoRaWAN/Mac/region/RegionRU864.c **** 
 519:../../../../../../Middlewares/Third_Party/LoRaWAN/Mac/region/RegionRU864.c **** bool RegionRU864RxConfig( RxConfigParams_t* rxConfig, int8_t* datarate )
 520:../../../../../../Middlewares/Third_Party/LoRaWAN/Mac/region/RegionRU864.c **** {
 521:../../../../../../Middlewares/Third_Party/LoRaWAN/Mac/region/RegionRU864.c ****     RadioModems_t modem;
 522:../../../../../../Middlewares/Third_Party/LoRaWAN/Mac/region/RegionRU864.c ****     int8_t dr = rxConfig->Datarate;
 523:../../../../../../Middlewares/Third_Party/LoRaWAN/Mac/region/RegionRU864.c ****     uint8_t maxPayload = 0;
 524:../../../../../../Middlewares/Third_Party/LoRaWAN/Mac/region/RegionRU864.c ****     int8_t phyDr = 0;
 525:../../../../../../Middlewares/Third_Party/LoRaWAN/Mac/region/RegionRU864.c ****     uint32_t frequency = rxConfig->Frequency;
 526:../../../../../../Middlewares/Third_Party/LoRaWAN/Mac/region/RegionRU864.c **** 
 527:../../../../../../Middlewares/Third_Party/LoRaWAN/Mac/region/RegionRU864.c ****     if( Radio.GetStatus( ) != RF_IDLE )
ARM GAS  C:\Users\EBANO_~1\AppData\Local\Temp\ccazSBuk.s 			page 23


 528:../../../../../../Middlewares/Third_Party/LoRaWAN/Mac/region/RegionRU864.c ****     {
 529:../../../../../../Middlewares/Third_Party/LoRaWAN/Mac/region/RegionRU864.c ****         return false;
 530:../../../../../../Middlewares/Third_Party/LoRaWAN/Mac/region/RegionRU864.c ****     }
 531:../../../../../../Middlewares/Third_Party/LoRaWAN/Mac/region/RegionRU864.c **** 
 532:../../../../../../Middlewares/Third_Party/LoRaWAN/Mac/region/RegionRU864.c ****     if( rxConfig->RxSlot == RX_SLOT_WIN_1 )
 533:../../../../../../Middlewares/Third_Party/LoRaWAN/Mac/region/RegionRU864.c ****     {
 534:../../../../../../Middlewares/Third_Party/LoRaWAN/Mac/region/RegionRU864.c ****         // Apply window 1 frequency
 535:../../../../../../Middlewares/Third_Party/LoRaWAN/Mac/region/RegionRU864.c ****         frequency = NvmCtx.Channels[rxConfig->Channel].Frequency;
 536:../../../../../../Middlewares/Third_Party/LoRaWAN/Mac/region/RegionRU864.c ****         // Apply the alternative RX 1 window frequency, if it is available
 537:../../../../../../Middlewares/Third_Party/LoRaWAN/Mac/region/RegionRU864.c ****         if( NvmCtx.Channels[rxConfig->Channel].Rx1Frequency != 0 )
 538:../../../../../../Middlewares/Third_Party/LoRaWAN/Mac/region/RegionRU864.c ****         {
 539:../../../../../../Middlewares/Third_Party/LoRaWAN/Mac/region/RegionRU864.c ****             frequency = NvmCtx.Channels[rxConfig->Channel].Rx1Frequency;
 540:../../../../../../Middlewares/Third_Party/LoRaWAN/Mac/region/RegionRU864.c ****         }
 541:../../../../../../Middlewares/Third_Party/LoRaWAN/Mac/region/RegionRU864.c ****     }
 542:../../../../../../Middlewares/Third_Party/LoRaWAN/Mac/region/RegionRU864.c **** 
 543:../../../../../../Middlewares/Third_Party/LoRaWAN/Mac/region/RegionRU864.c ****     // Read the physical datarate from the datarates table
 544:../../../../../../Middlewares/Third_Party/LoRaWAN/Mac/region/RegionRU864.c ****     phyDr = DataratesRU864[dr];
 545:../../../../../../Middlewares/Third_Party/LoRaWAN/Mac/region/RegionRU864.c **** 
 546:../../../../../../Middlewares/Third_Party/LoRaWAN/Mac/region/RegionRU864.c ****     Radio.SetChannel( frequency );
 547:../../../../../../Middlewares/Third_Party/LoRaWAN/Mac/region/RegionRU864.c **** 
 548:../../../../../../Middlewares/Third_Party/LoRaWAN/Mac/region/RegionRU864.c ****     // Radio configuration
 549:../../../../../../Middlewares/Third_Party/LoRaWAN/Mac/region/RegionRU864.c ****     if( dr == DR_7 )
 550:../../../../../../Middlewares/Third_Party/LoRaWAN/Mac/region/RegionRU864.c ****     {
 551:../../../../../../Middlewares/Third_Party/LoRaWAN/Mac/region/RegionRU864.c ****         modem = MODEM_FSK;
 552:../../../../../../Middlewares/Third_Party/LoRaWAN/Mac/region/RegionRU864.c ****         Radio.SetRxConfig( modem, 50000, phyDr * 1000, 0, 83333, 5, rxConfig->WindowTimeout, false,
 553:../../../../../../Middlewares/Third_Party/LoRaWAN/Mac/region/RegionRU864.c ****     }
 554:../../../../../../Middlewares/Third_Party/LoRaWAN/Mac/region/RegionRU864.c ****     else
 555:../../../../../../Middlewares/Third_Party/LoRaWAN/Mac/region/RegionRU864.c ****     {
 556:../../../../../../Middlewares/Third_Party/LoRaWAN/Mac/region/RegionRU864.c ****         modem = MODEM_LORA;
 557:../../../../../../Middlewares/Third_Party/LoRaWAN/Mac/region/RegionRU864.c ****         Radio.SetRxConfig( modem, rxConfig->Bandwidth, phyDr, 1, 0, 8, rxConfig->WindowTimeout, fal
 558:../../../../../../Middlewares/Third_Party/LoRaWAN/Mac/region/RegionRU864.c ****     }
 559:../../../../../../Middlewares/Third_Party/LoRaWAN/Mac/region/RegionRU864.c **** 
 560:../../../../../../Middlewares/Third_Party/LoRaWAN/Mac/region/RegionRU864.c ****     if( rxConfig->RepeaterSupport == true )
 561:../../../../../../Middlewares/Third_Party/LoRaWAN/Mac/region/RegionRU864.c ****     {
 562:../../../../../../Middlewares/Third_Party/LoRaWAN/Mac/region/RegionRU864.c ****         maxPayload = MaxPayloadOfDatarateRepeaterRU864[dr];
 563:../../../../../../Middlewares/Third_Party/LoRaWAN/Mac/region/RegionRU864.c ****     }
 564:../../../../../../Middlewares/Third_Party/LoRaWAN/Mac/region/RegionRU864.c ****     else
 565:../../../../../../Middlewares/Third_Party/LoRaWAN/Mac/region/RegionRU864.c ****     {
 566:../../../../../../Middlewares/Third_Party/LoRaWAN/Mac/region/RegionRU864.c ****         maxPayload = MaxPayloadOfDatarateRU864[dr];
 567:../../../../../../Middlewares/Third_Party/LoRaWAN/Mac/region/RegionRU864.c ****     }
 568:../../../../../../Middlewares/Third_Party/LoRaWAN/Mac/region/RegionRU864.c **** 
 569:../../../../../../Middlewares/Third_Party/LoRaWAN/Mac/region/RegionRU864.c ****     Radio.SetMaxPayloadLength( modem, maxPayload + LORA_MAC_FRMPAYLOAD_OVERHEAD );
 570:../../../../../../Middlewares/Third_Party/LoRaWAN/Mac/region/RegionRU864.c ****     TVL1( PRINTF( "RX on freq %d Hz at DR %d\n\r", frequency, dr );)
 571:../../../../../../Middlewares/Third_Party/LoRaWAN/Mac/region/RegionRU864.c **** 
 572:../../../../../../Middlewares/Third_Party/LoRaWAN/Mac/region/RegionRU864.c ****     *datarate = (uint8_t) dr;
 573:../../../../../../Middlewares/Third_Party/LoRaWAN/Mac/region/RegionRU864.c ****     return true;
 574:../../../../../../Middlewares/Third_Party/LoRaWAN/Mac/region/RegionRU864.c **** }
 575:../../../../../../Middlewares/Third_Party/LoRaWAN/Mac/region/RegionRU864.c **** 
 576:../../../../../../Middlewares/Third_Party/LoRaWAN/Mac/region/RegionRU864.c **** bool RegionRU864TxConfig( TxConfigParams_t* txConfig, int8_t* txPower, TimerTime_t* txTimeOnAir )
 577:../../../../../../Middlewares/Third_Party/LoRaWAN/Mac/region/RegionRU864.c **** {
 578:../../../../../../Middlewares/Third_Party/LoRaWAN/Mac/region/RegionRU864.c ****     RadioModems_t modem;
 579:../../../../../../Middlewares/Third_Party/LoRaWAN/Mac/region/RegionRU864.c ****     int8_t phyDr = DataratesRU864[txConfig->Datarate];
 580:../../../../../../Middlewares/Third_Party/LoRaWAN/Mac/region/RegionRU864.c ****     int8_t txPowerLimited = LimitTxPower( txConfig->TxPower, NvmCtx.Bands[NvmCtx.Channels[txConfig-
 581:../../../../../../Middlewares/Third_Party/LoRaWAN/Mac/region/RegionRU864.c ****     uint32_t bandwidth = GetBandwidth( txConfig->Datarate );
 582:../../../../../../Middlewares/Third_Party/LoRaWAN/Mac/region/RegionRU864.c ****     int8_t phyTxPower = 0;
 583:../../../../../../Middlewares/Third_Party/LoRaWAN/Mac/region/RegionRU864.c **** 
 584:../../../../../../Middlewares/Third_Party/LoRaWAN/Mac/region/RegionRU864.c ****     // Calculate physical TX power
ARM GAS  C:\Users\EBANO_~1\AppData\Local\Temp\ccazSBuk.s 			page 24


 585:../../../../../../Middlewares/Third_Party/LoRaWAN/Mac/region/RegionRU864.c ****     phyTxPower = RegionCommonComputeTxPower( txPowerLimited, txConfig->MaxEirp, txConfig->AntennaGa
 586:../../../../../../Middlewares/Third_Party/LoRaWAN/Mac/region/RegionRU864.c **** 
 587:../../../../../../Middlewares/Third_Party/LoRaWAN/Mac/region/RegionRU864.c ****     // Setup the radio frequency
 588:../../../../../../Middlewares/Third_Party/LoRaWAN/Mac/region/RegionRU864.c ****     Radio.SetChannel( NvmCtx.Channels[txConfig->Channel].Frequency );
 589:../../../../../../Middlewares/Third_Party/LoRaWAN/Mac/region/RegionRU864.c **** 
 590:../../../../../../Middlewares/Third_Party/LoRaWAN/Mac/region/RegionRU864.c ****     if( txConfig->Datarate == DR_7 )
 591:../../../../../../Middlewares/Third_Party/LoRaWAN/Mac/region/RegionRU864.c ****     { // High Speed FSK channel
 592:../../../../../../Middlewares/Third_Party/LoRaWAN/Mac/region/RegionRU864.c ****         modem = MODEM_FSK;
 593:../../../../../../Middlewares/Third_Party/LoRaWAN/Mac/region/RegionRU864.c ****         Radio.SetTxConfig( modem, phyTxPower, 25000, bandwidth, phyDr * 1000, 0, 5, false, true, 0,
 594:../../../../../../Middlewares/Third_Party/LoRaWAN/Mac/region/RegionRU864.c ****     }
 595:../../../../../../Middlewares/Third_Party/LoRaWAN/Mac/region/RegionRU864.c ****     else
 596:../../../../../../Middlewares/Third_Party/LoRaWAN/Mac/region/RegionRU864.c ****     {
 597:../../../../../../Middlewares/Third_Party/LoRaWAN/Mac/region/RegionRU864.c ****         modem = MODEM_LORA;
 598:../../../../../../Middlewares/Third_Party/LoRaWAN/Mac/region/RegionRU864.c ****         Radio.SetTxConfig( modem, phyTxPower, 0, bandwidth, phyDr, 1, 8, false, true, 0, 0, false, 
 599:../../../../../../Middlewares/Third_Party/LoRaWAN/Mac/region/RegionRU864.c ****     }
 600:../../../../../../Middlewares/Third_Party/LoRaWAN/Mac/region/RegionRU864.c ****     TVL1( PRINTF( "TX on freq %d Hz at DR %d\n\r", NvmCtx.Channels[txConfig->Channel].Frequency, tx
 601:../../../../../../Middlewares/Third_Party/LoRaWAN/Mac/region/RegionRU864.c ****     // Setup maximum payload lenght of the radio driver
 602:../../../../../../Middlewares/Third_Party/LoRaWAN/Mac/region/RegionRU864.c ****     Radio.SetMaxPayloadLength( modem, txConfig->PktLen );
 603:../../../../../../Middlewares/Third_Party/LoRaWAN/Mac/region/RegionRU864.c ****     // Get the time-on-air of the next tx frame
 604:../../../../../../Middlewares/Third_Party/LoRaWAN/Mac/region/RegionRU864.c ****     *txTimeOnAir = Radio.TimeOnAir( modem, txConfig->PktLen );
 605:../../../../../../Middlewares/Third_Party/LoRaWAN/Mac/region/RegionRU864.c **** 
 606:../../../../../../Middlewares/Third_Party/LoRaWAN/Mac/region/RegionRU864.c ****     *txPower = txPowerLimited;
 607:../../../../../../Middlewares/Third_Party/LoRaWAN/Mac/region/RegionRU864.c ****     return true;
 608:../../../../../../Middlewares/Third_Party/LoRaWAN/Mac/region/RegionRU864.c **** }
 609:../../../../../../Middlewares/Third_Party/LoRaWAN/Mac/region/RegionRU864.c **** 
 610:../../../../../../Middlewares/Third_Party/LoRaWAN/Mac/region/RegionRU864.c **** uint8_t RegionRU864LinkAdrReq( LinkAdrReqParams_t* linkAdrReq, int8_t* drOut, int8_t* txPowOut, uin
 611:../../../../../../Middlewares/Third_Party/LoRaWAN/Mac/region/RegionRU864.c **** {
 612:../../../../../../Middlewares/Third_Party/LoRaWAN/Mac/region/RegionRU864.c ****     uint8_t status = 0x07;
 613:../../../../../../Middlewares/Third_Party/LoRaWAN/Mac/region/RegionRU864.c ****     RegionCommonLinkAdrParams_t linkAdrParams;
 614:../../../../../../Middlewares/Third_Party/LoRaWAN/Mac/region/RegionRU864.c ****     uint8_t nextIndex = 0;
 615:../../../../../../Middlewares/Third_Party/LoRaWAN/Mac/region/RegionRU864.c ****     uint8_t bytesProcessed = 0;
 616:../../../../../../Middlewares/Third_Party/LoRaWAN/Mac/region/RegionRU864.c ****     uint16_t chMask = 0;
 617:../../../../../../Middlewares/Third_Party/LoRaWAN/Mac/region/RegionRU864.c ****     GetPhyParams_t getPhy;
 618:../../../../../../Middlewares/Third_Party/LoRaWAN/Mac/region/RegionRU864.c ****     PhyParam_t phyParam;
 619:../../../../../../Middlewares/Third_Party/LoRaWAN/Mac/region/RegionRU864.c ****     RegionCommonLinkAdrReqVerifyParams_t linkAdrVerifyParams;
 620:../../../../../../Middlewares/Third_Party/LoRaWAN/Mac/region/RegionRU864.c **** 
 621:../../../../../../Middlewares/Third_Party/LoRaWAN/Mac/region/RegionRU864.c ****     while( bytesProcessed < linkAdrReq->PayloadSize )
 622:../../../../../../Middlewares/Third_Party/LoRaWAN/Mac/region/RegionRU864.c ****     {
 623:../../../../../../Middlewares/Third_Party/LoRaWAN/Mac/region/RegionRU864.c ****         // Get ADR request parameters
 624:../../../../../../Middlewares/Third_Party/LoRaWAN/Mac/region/RegionRU864.c ****         nextIndex = RegionCommonParseLinkAdrReq( &( linkAdrReq->Payload[bytesProcessed] ), &linkAdr
 625:../../../../../../Middlewares/Third_Party/LoRaWAN/Mac/region/RegionRU864.c **** 
 626:../../../../../../Middlewares/Third_Party/LoRaWAN/Mac/region/RegionRU864.c ****         if( nextIndex == 0 )
 627:../../../../../../Middlewares/Third_Party/LoRaWAN/Mac/region/RegionRU864.c ****             break; // break loop, since no more request has been found
 628:../../../../../../Middlewares/Third_Party/LoRaWAN/Mac/region/RegionRU864.c **** 
 629:../../../../../../Middlewares/Third_Party/LoRaWAN/Mac/region/RegionRU864.c ****         // Update bytes processed
 630:../../../../../../Middlewares/Third_Party/LoRaWAN/Mac/region/RegionRU864.c ****         bytesProcessed += nextIndex;
 631:../../../../../../Middlewares/Third_Party/LoRaWAN/Mac/region/RegionRU864.c **** 
 632:../../../../../../Middlewares/Third_Party/LoRaWAN/Mac/region/RegionRU864.c ****         // Revert status, as we only check the last ADR request for the channel mask KO
 633:../../../../../../Middlewares/Third_Party/LoRaWAN/Mac/region/RegionRU864.c ****         status = 0x07;
 634:../../../../../../Middlewares/Third_Party/LoRaWAN/Mac/region/RegionRU864.c **** 
 635:../../../../../../Middlewares/Third_Party/LoRaWAN/Mac/region/RegionRU864.c ****         // Setup temporary channels mask
 636:../../../../../../Middlewares/Third_Party/LoRaWAN/Mac/region/RegionRU864.c ****         chMask = linkAdrParams.ChMask;
 637:../../../../../../Middlewares/Third_Party/LoRaWAN/Mac/region/RegionRU864.c **** 
 638:../../../../../../Middlewares/Third_Party/LoRaWAN/Mac/region/RegionRU864.c ****         // Verify channels mask
 639:../../../../../../Middlewares/Third_Party/LoRaWAN/Mac/region/RegionRU864.c ****         if( ( linkAdrParams.ChMaskCtrl == 0 ) && ( chMask == 0 ) )
 640:../../../../../../Middlewares/Third_Party/LoRaWAN/Mac/region/RegionRU864.c ****         {
 641:../../../../../../Middlewares/Third_Party/LoRaWAN/Mac/region/RegionRU864.c ****             status &= 0xFE; // Channel mask KO
ARM GAS  C:\Users\EBANO_~1\AppData\Local\Temp\ccazSBuk.s 			page 25


 642:../../../../../../Middlewares/Third_Party/LoRaWAN/Mac/region/RegionRU864.c ****         }
 643:../../../../../../Middlewares/Third_Party/LoRaWAN/Mac/region/RegionRU864.c ****         else if( ( ( linkAdrParams.ChMaskCtrl >= 1 ) && ( linkAdrParams.ChMaskCtrl <= 5 )) ||
 644:../../../../../../Middlewares/Third_Party/LoRaWAN/Mac/region/RegionRU864.c ****                 ( linkAdrParams.ChMaskCtrl >= 7 ) )
 645:../../../../../../Middlewares/Third_Party/LoRaWAN/Mac/region/RegionRU864.c ****         {
 646:../../../../../../Middlewares/Third_Party/LoRaWAN/Mac/region/RegionRU864.c ****             // RFU
 647:../../../../../../Middlewares/Third_Party/LoRaWAN/Mac/region/RegionRU864.c ****             status &= 0xFE; // Channel mask KO
 648:../../../../../../Middlewares/Third_Party/LoRaWAN/Mac/region/RegionRU864.c ****         }
 649:../../../../../../Middlewares/Third_Party/LoRaWAN/Mac/region/RegionRU864.c ****         else
 650:../../../../../../Middlewares/Third_Party/LoRaWAN/Mac/region/RegionRU864.c ****         {
 651:../../../../../../Middlewares/Third_Party/LoRaWAN/Mac/region/RegionRU864.c ****             for( uint8_t i = 0; i < RU864_MAX_NB_CHANNELS; i++ )
 652:../../../../../../Middlewares/Third_Party/LoRaWAN/Mac/region/RegionRU864.c ****             {
 653:../../../../../../Middlewares/Third_Party/LoRaWAN/Mac/region/RegionRU864.c ****                 if( linkAdrParams.ChMaskCtrl == 6 )
 654:../../../../../../Middlewares/Third_Party/LoRaWAN/Mac/region/RegionRU864.c ****                 {
 655:../../../../../../Middlewares/Third_Party/LoRaWAN/Mac/region/RegionRU864.c ****                     if( NvmCtx.Channels[i].Frequency != 0 )
 656:../../../../../../Middlewares/Third_Party/LoRaWAN/Mac/region/RegionRU864.c ****                     {
 657:../../../../../../Middlewares/Third_Party/LoRaWAN/Mac/region/RegionRU864.c ****                         chMask |= 1 << i;
 658:../../../../../../Middlewares/Third_Party/LoRaWAN/Mac/region/RegionRU864.c ****                     }
 659:../../../../../../Middlewares/Third_Party/LoRaWAN/Mac/region/RegionRU864.c ****                 }
 660:../../../../../../Middlewares/Third_Party/LoRaWAN/Mac/region/RegionRU864.c ****                 else
 661:../../../../../../Middlewares/Third_Party/LoRaWAN/Mac/region/RegionRU864.c ****                 {
 662:../../../../../../Middlewares/Third_Party/LoRaWAN/Mac/region/RegionRU864.c ****                     if( ( ( chMask & ( 1 << i ) ) != 0 ) &&
 663:../../../../../../Middlewares/Third_Party/LoRaWAN/Mac/region/RegionRU864.c ****                         ( NvmCtx.Channels[i].Frequency == 0 ) )
 664:../../../../../../Middlewares/Third_Party/LoRaWAN/Mac/region/RegionRU864.c ****                     {// Trying to enable an undefined channel
 665:../../../../../../Middlewares/Third_Party/LoRaWAN/Mac/region/RegionRU864.c ****                         status &= 0xFE; // Channel mask KO
 666:../../../../../../Middlewares/Third_Party/LoRaWAN/Mac/region/RegionRU864.c ****                     }
 667:../../../../../../Middlewares/Third_Party/LoRaWAN/Mac/region/RegionRU864.c ****                 }
 668:../../../../../../Middlewares/Third_Party/LoRaWAN/Mac/region/RegionRU864.c ****             }
 669:../../../../../../Middlewares/Third_Party/LoRaWAN/Mac/region/RegionRU864.c ****         }
 670:../../../../../../Middlewares/Third_Party/LoRaWAN/Mac/region/RegionRU864.c ****     }
 671:../../../../../../Middlewares/Third_Party/LoRaWAN/Mac/region/RegionRU864.c **** 
 672:../../../../../../Middlewares/Third_Party/LoRaWAN/Mac/region/RegionRU864.c ****     // Get the minimum possible datarate
 673:../../../../../../Middlewares/Third_Party/LoRaWAN/Mac/region/RegionRU864.c ****     getPhy.Attribute = PHY_MIN_TX_DR;
 674:../../../../../../Middlewares/Third_Party/LoRaWAN/Mac/region/RegionRU864.c ****     getPhy.UplinkDwellTime = linkAdrReq->UplinkDwellTime;
 675:../../../../../../Middlewares/Third_Party/LoRaWAN/Mac/region/RegionRU864.c ****     phyParam = RegionRU864GetPhyParam( &getPhy );
 676:../../../../../../Middlewares/Third_Party/LoRaWAN/Mac/region/RegionRU864.c **** 
 677:../../../../../../Middlewares/Third_Party/LoRaWAN/Mac/region/RegionRU864.c ****     linkAdrVerifyParams.Status = status;
 678:../../../../../../Middlewares/Third_Party/LoRaWAN/Mac/region/RegionRU864.c ****     linkAdrVerifyParams.AdrEnabled = linkAdrReq->AdrEnabled;
 679:../../../../../../Middlewares/Third_Party/LoRaWAN/Mac/region/RegionRU864.c ****     linkAdrVerifyParams.Datarate = linkAdrParams.Datarate;
 680:../../../../../../Middlewares/Third_Party/LoRaWAN/Mac/region/RegionRU864.c ****     linkAdrVerifyParams.TxPower = linkAdrParams.TxPower;
 681:../../../../../../Middlewares/Third_Party/LoRaWAN/Mac/region/RegionRU864.c ****     linkAdrVerifyParams.NbRep = linkAdrParams.NbRep;
 682:../../../../../../Middlewares/Third_Party/LoRaWAN/Mac/region/RegionRU864.c ****     linkAdrVerifyParams.CurrentDatarate = linkAdrReq->CurrentDatarate;
 683:../../../../../../Middlewares/Third_Party/LoRaWAN/Mac/region/RegionRU864.c ****     linkAdrVerifyParams.CurrentTxPower = linkAdrReq->CurrentTxPower;
 684:../../../../../../Middlewares/Third_Party/LoRaWAN/Mac/region/RegionRU864.c ****     linkAdrVerifyParams.CurrentNbRep = linkAdrReq->CurrentNbRep;
 685:../../../../../../Middlewares/Third_Party/LoRaWAN/Mac/region/RegionRU864.c ****     linkAdrVerifyParams.NbChannels = RU864_MAX_NB_CHANNELS;
 686:../../../../../../Middlewares/Third_Party/LoRaWAN/Mac/region/RegionRU864.c ****     linkAdrVerifyParams.ChannelsMask = &chMask;
 687:../../../../../../Middlewares/Third_Party/LoRaWAN/Mac/region/RegionRU864.c ****     linkAdrVerifyParams.MinDatarate = ( int8_t )phyParam.Value;
 688:../../../../../../Middlewares/Third_Party/LoRaWAN/Mac/region/RegionRU864.c ****     linkAdrVerifyParams.MaxDatarate = RU864_TX_MAX_DATARATE;
 689:../../../../../../Middlewares/Third_Party/LoRaWAN/Mac/region/RegionRU864.c ****     linkAdrVerifyParams.Channels = NvmCtx.Channels;
 690:../../../../../../Middlewares/Third_Party/LoRaWAN/Mac/region/RegionRU864.c ****     linkAdrVerifyParams.MinTxPower = RU864_MIN_TX_POWER;
 691:../../../../../../Middlewares/Third_Party/LoRaWAN/Mac/region/RegionRU864.c ****     linkAdrVerifyParams.MaxTxPower = RU864_MAX_TX_POWER;
 692:../../../../../../Middlewares/Third_Party/LoRaWAN/Mac/region/RegionRU864.c ****     linkAdrVerifyParams.Version = linkAdrReq->Version;
 693:../../../../../../Middlewares/Third_Party/LoRaWAN/Mac/region/RegionRU864.c **** 
 694:../../../../../../Middlewares/Third_Party/LoRaWAN/Mac/region/RegionRU864.c ****     // Verify the parameters and update, if necessary
 695:../../../../../../Middlewares/Third_Party/LoRaWAN/Mac/region/RegionRU864.c ****     status = RegionCommonLinkAdrReqVerifyParams( &linkAdrVerifyParams, &linkAdrParams.Datarate, &li
 696:../../../../../../Middlewares/Third_Party/LoRaWAN/Mac/region/RegionRU864.c **** 
 697:../../../../../../Middlewares/Third_Party/LoRaWAN/Mac/region/RegionRU864.c ****     // Update channelsMask if everything is correct
 698:../../../../../../Middlewares/Third_Party/LoRaWAN/Mac/region/RegionRU864.c ****     if( status == 0x07 )
ARM GAS  C:\Users\EBANO_~1\AppData\Local\Temp\ccazSBuk.s 			page 26


 699:../../../../../../Middlewares/Third_Party/LoRaWAN/Mac/region/RegionRU864.c ****     {
 700:../../../../../../Middlewares/Third_Party/LoRaWAN/Mac/region/RegionRU864.c ****         // Set the channels mask to a default value
 701:../../../../../../Middlewares/Third_Party/LoRaWAN/Mac/region/RegionRU864.c ****         memset1( ( uint8_t* ) NvmCtx.ChannelsMask, 0, sizeof( NvmCtx.ChannelsMask ) );
 702:../../../../../../Middlewares/Third_Party/LoRaWAN/Mac/region/RegionRU864.c ****         // Update the channels mask
 703:../../../../../../Middlewares/Third_Party/LoRaWAN/Mac/region/RegionRU864.c ****         NvmCtx.ChannelsMask[0] = chMask;
 704:../../../../../../Middlewares/Third_Party/LoRaWAN/Mac/region/RegionRU864.c ****     }
 705:../../../../../../Middlewares/Third_Party/LoRaWAN/Mac/region/RegionRU864.c **** 
 706:../../../../../../Middlewares/Third_Party/LoRaWAN/Mac/region/RegionRU864.c ****     // Update status variables
 707:../../../../../../Middlewares/Third_Party/LoRaWAN/Mac/region/RegionRU864.c ****     *drOut = linkAdrParams.Datarate;
 708:../../../../../../Middlewares/Third_Party/LoRaWAN/Mac/region/RegionRU864.c ****     *txPowOut = linkAdrParams.TxPower;
 709:../../../../../../Middlewares/Third_Party/LoRaWAN/Mac/region/RegionRU864.c ****     *nbRepOut = linkAdrParams.NbRep;
 710:../../../../../../Middlewares/Third_Party/LoRaWAN/Mac/region/RegionRU864.c ****     *nbBytesParsed = bytesProcessed;
 711:../../../../../../Middlewares/Third_Party/LoRaWAN/Mac/region/RegionRU864.c **** 
 712:../../../../../../Middlewares/Third_Party/LoRaWAN/Mac/region/RegionRU864.c ****     return status;
 713:../../../../../../Middlewares/Third_Party/LoRaWAN/Mac/region/RegionRU864.c **** }
 714:../../../../../../Middlewares/Third_Party/LoRaWAN/Mac/region/RegionRU864.c **** 
 715:../../../../../../Middlewares/Third_Party/LoRaWAN/Mac/region/RegionRU864.c **** uint8_t RegionRU864RxParamSetupReq( RxParamSetupReqParams_t* rxParamSetupReq )
 716:../../../../../../Middlewares/Third_Party/LoRaWAN/Mac/region/RegionRU864.c **** {
 717:../../../../../../Middlewares/Third_Party/LoRaWAN/Mac/region/RegionRU864.c ****     uint8_t status = 0x07;
 718:../../../../../../Middlewares/Third_Party/LoRaWAN/Mac/region/RegionRU864.c **** 
 719:../../../../../../Middlewares/Third_Party/LoRaWAN/Mac/region/RegionRU864.c ****     // Verify radio frequency
 720:../../../../../../Middlewares/Third_Party/LoRaWAN/Mac/region/RegionRU864.c ****     if( VerifyRfFreq( rxParamSetupReq->Frequency ) == false )
 721:../../../../../../Middlewares/Third_Party/LoRaWAN/Mac/region/RegionRU864.c ****     {
 722:../../../../../../Middlewares/Third_Party/LoRaWAN/Mac/region/RegionRU864.c ****         status &= 0xFE; // Channel frequency KO
 723:../../../../../../Middlewares/Third_Party/LoRaWAN/Mac/region/RegionRU864.c ****     }
 724:../../../../../../Middlewares/Third_Party/LoRaWAN/Mac/region/RegionRU864.c **** 
 725:../../../../../../Middlewares/Third_Party/LoRaWAN/Mac/region/RegionRU864.c ****     // Verify datarate
 726:../../../../../../Middlewares/Third_Party/LoRaWAN/Mac/region/RegionRU864.c ****     if( RegionCommonValueInRange( rxParamSetupReq->Datarate, RU864_RX_MIN_DATARATE, RU864_RX_MAX_DA
 727:../../../../../../Middlewares/Third_Party/LoRaWAN/Mac/region/RegionRU864.c ****     {
 728:../../../../../../Middlewares/Third_Party/LoRaWAN/Mac/region/RegionRU864.c ****         status &= 0xFD; // Datarate KO
 729:../../../../../../Middlewares/Third_Party/LoRaWAN/Mac/region/RegionRU864.c ****     }
 730:../../../../../../Middlewares/Third_Party/LoRaWAN/Mac/region/RegionRU864.c **** 
 731:../../../../../../Middlewares/Third_Party/LoRaWAN/Mac/region/RegionRU864.c ****     // Verify datarate offset
 732:../../../../../../Middlewares/Third_Party/LoRaWAN/Mac/region/RegionRU864.c ****     if( RegionCommonValueInRange( rxParamSetupReq->DrOffset, RU864_MIN_RX1_DR_OFFSET, RU864_MAX_RX1
 733:../../../../../../Middlewares/Third_Party/LoRaWAN/Mac/region/RegionRU864.c ****     {
 734:../../../../../../Middlewares/Third_Party/LoRaWAN/Mac/region/RegionRU864.c ****         status &= 0xFB; // Rx1DrOffset range KO
 735:../../../../../../Middlewares/Third_Party/LoRaWAN/Mac/region/RegionRU864.c ****     }
 736:../../../../../../Middlewares/Third_Party/LoRaWAN/Mac/region/RegionRU864.c **** 
 737:../../../../../../Middlewares/Third_Party/LoRaWAN/Mac/region/RegionRU864.c ****     return status;
 738:../../../../../../Middlewares/Third_Party/LoRaWAN/Mac/region/RegionRU864.c **** }
 739:../../../../../../Middlewares/Third_Party/LoRaWAN/Mac/region/RegionRU864.c **** 
 740:../../../../../../Middlewares/Third_Party/LoRaWAN/Mac/region/RegionRU864.c **** uint8_t RegionRU864NewChannelReq( NewChannelReqParams_t* newChannelReq )
 741:../../../../../../Middlewares/Third_Party/LoRaWAN/Mac/region/RegionRU864.c **** {
 742:../../../../../../Middlewares/Third_Party/LoRaWAN/Mac/region/RegionRU864.c ****     uint8_t status = 0x03;
 743:../../../../../../Middlewares/Third_Party/LoRaWAN/Mac/region/RegionRU864.c ****     ChannelAddParams_t channelAdd;
 744:../../../../../../Middlewares/Third_Party/LoRaWAN/Mac/region/RegionRU864.c ****     ChannelRemoveParams_t channelRemove;
 745:../../../../../../Middlewares/Third_Party/LoRaWAN/Mac/region/RegionRU864.c **** 
 746:../../../../../../Middlewares/Third_Party/LoRaWAN/Mac/region/RegionRU864.c ****     if( newChannelReq->NewChannel->Frequency == 0 )
 747:../../../../../../Middlewares/Third_Party/LoRaWAN/Mac/region/RegionRU864.c ****     {
 748:../../../../../../Middlewares/Third_Party/LoRaWAN/Mac/region/RegionRU864.c ****         channelRemove.ChannelId = newChannelReq->ChannelId;
 749:../../../../../../Middlewares/Third_Party/LoRaWAN/Mac/region/RegionRU864.c **** 
 750:../../../../../../Middlewares/Third_Party/LoRaWAN/Mac/region/RegionRU864.c ****         // Remove
 751:../../../../../../Middlewares/Third_Party/LoRaWAN/Mac/region/RegionRU864.c ****         if( RegionRU864ChannelsRemove( &channelRemove ) == false )
 752:../../../../../../Middlewares/Third_Party/LoRaWAN/Mac/region/RegionRU864.c ****         {
 753:../../../../../../Middlewares/Third_Party/LoRaWAN/Mac/region/RegionRU864.c ****             status &= 0xFC;
 754:../../../../../../Middlewares/Third_Party/LoRaWAN/Mac/region/RegionRU864.c ****         }
 755:../../../../../../Middlewares/Third_Party/LoRaWAN/Mac/region/RegionRU864.c ****     }
ARM GAS  C:\Users\EBANO_~1\AppData\Local\Temp\ccazSBuk.s 			page 27


 756:../../../../../../Middlewares/Third_Party/LoRaWAN/Mac/region/RegionRU864.c ****     else
 757:../../../../../../Middlewares/Third_Party/LoRaWAN/Mac/region/RegionRU864.c ****     {
 758:../../../../../../Middlewares/Third_Party/LoRaWAN/Mac/region/RegionRU864.c ****         channelAdd.NewChannel = newChannelReq->NewChannel;
 759:../../../../../../Middlewares/Third_Party/LoRaWAN/Mac/region/RegionRU864.c ****         channelAdd.ChannelId = newChannelReq->ChannelId;
 760:../../../../../../Middlewares/Third_Party/LoRaWAN/Mac/region/RegionRU864.c **** 
 761:../../../../../../Middlewares/Third_Party/LoRaWAN/Mac/region/RegionRU864.c ****         switch( RegionRU864ChannelAdd( &channelAdd ) )
 762:../../../../../../Middlewares/Third_Party/LoRaWAN/Mac/region/RegionRU864.c ****         {
 763:../../../../../../Middlewares/Third_Party/LoRaWAN/Mac/region/RegionRU864.c ****             case LORAMAC_STATUS_OK:
 764:../../../../../../Middlewares/Third_Party/LoRaWAN/Mac/region/RegionRU864.c ****             {
 765:../../../../../../Middlewares/Third_Party/LoRaWAN/Mac/region/RegionRU864.c ****                 break;
 766:../../../../../../Middlewares/Third_Party/LoRaWAN/Mac/region/RegionRU864.c ****             }
 767:../../../../../../Middlewares/Third_Party/LoRaWAN/Mac/region/RegionRU864.c ****             case LORAMAC_STATUS_FREQUENCY_INVALID:
 768:../../../../../../Middlewares/Third_Party/LoRaWAN/Mac/region/RegionRU864.c ****             {
 769:../../../../../../Middlewares/Third_Party/LoRaWAN/Mac/region/RegionRU864.c ****                 status &= 0xFE;
 770:../../../../../../Middlewares/Third_Party/LoRaWAN/Mac/region/RegionRU864.c ****                 break;
 771:../../../../../../Middlewares/Third_Party/LoRaWAN/Mac/region/RegionRU864.c ****             }
 772:../../../../../../Middlewares/Third_Party/LoRaWAN/Mac/region/RegionRU864.c ****             case LORAMAC_STATUS_DATARATE_INVALID:
 773:../../../../../../Middlewares/Third_Party/LoRaWAN/Mac/region/RegionRU864.c ****             {
 774:../../../../../../Middlewares/Third_Party/LoRaWAN/Mac/region/RegionRU864.c ****                 status &= 0xFD;
 775:../../../../../../Middlewares/Third_Party/LoRaWAN/Mac/region/RegionRU864.c ****                 break;
 776:../../../../../../Middlewares/Third_Party/LoRaWAN/Mac/region/RegionRU864.c ****             }
 777:../../../../../../Middlewares/Third_Party/LoRaWAN/Mac/region/RegionRU864.c ****             case LORAMAC_STATUS_FREQ_AND_DR_INVALID:
 778:../../../../../../Middlewares/Third_Party/LoRaWAN/Mac/region/RegionRU864.c ****             {
 779:../../../../../../Middlewares/Third_Party/LoRaWAN/Mac/region/RegionRU864.c ****                 status &= 0xFC;
 780:../../../../../../Middlewares/Third_Party/LoRaWAN/Mac/region/RegionRU864.c ****                 break;
 781:../../../../../../Middlewares/Third_Party/LoRaWAN/Mac/region/RegionRU864.c ****             }
 782:../../../../../../Middlewares/Third_Party/LoRaWAN/Mac/region/RegionRU864.c ****             default:
 783:../../../../../../Middlewares/Third_Party/LoRaWAN/Mac/region/RegionRU864.c ****             {
 784:../../../../../../Middlewares/Third_Party/LoRaWAN/Mac/region/RegionRU864.c ****                 status &= 0xFC;
 785:../../../../../../Middlewares/Third_Party/LoRaWAN/Mac/region/RegionRU864.c ****                 break;
 786:../../../../../../Middlewares/Third_Party/LoRaWAN/Mac/region/RegionRU864.c ****             }
 787:../../../../../../Middlewares/Third_Party/LoRaWAN/Mac/region/RegionRU864.c ****         }
 788:../../../../../../Middlewares/Third_Party/LoRaWAN/Mac/region/RegionRU864.c ****     }
 789:../../../../../../Middlewares/Third_Party/LoRaWAN/Mac/region/RegionRU864.c **** 
 790:../../../../../../Middlewares/Third_Party/LoRaWAN/Mac/region/RegionRU864.c ****     return status;
 791:../../../../../../Middlewares/Third_Party/LoRaWAN/Mac/region/RegionRU864.c **** }
 792:../../../../../../Middlewares/Third_Party/LoRaWAN/Mac/region/RegionRU864.c **** 
 793:../../../../../../Middlewares/Third_Party/LoRaWAN/Mac/region/RegionRU864.c **** int8_t RegionRU864TxParamSetupReq( TxParamSetupReqParams_t* txParamSetupReq )
 794:../../../../../../Middlewares/Third_Party/LoRaWAN/Mac/region/RegionRU864.c **** {
 795:../../../../../../Middlewares/Third_Party/LoRaWAN/Mac/region/RegionRU864.c ****     return -1;
 796:../../../../../../Middlewares/Third_Party/LoRaWAN/Mac/region/RegionRU864.c **** }
 797:../../../../../../Middlewares/Third_Party/LoRaWAN/Mac/region/RegionRU864.c **** 
 798:../../../../../../Middlewares/Third_Party/LoRaWAN/Mac/region/RegionRU864.c **** uint8_t RegionRU864DlChannelReq( DlChannelReqParams_t* dlChannelReq )
 799:../../../../../../Middlewares/Third_Party/LoRaWAN/Mac/region/RegionRU864.c **** {
 800:../../../../../../Middlewares/Third_Party/LoRaWAN/Mac/region/RegionRU864.c ****     uint8_t status = 0x03;
 801:../../../../../../Middlewares/Third_Party/LoRaWAN/Mac/region/RegionRU864.c **** 
 802:../../../../../../Middlewares/Third_Party/LoRaWAN/Mac/region/RegionRU864.c ****     // Verify if the frequency is supported
 803:../../../../../../Middlewares/Third_Party/LoRaWAN/Mac/region/RegionRU864.c ****     if( VerifyRfFreq( dlChannelReq->Rx1Frequency ) == false )
 804:../../../../../../Middlewares/Third_Party/LoRaWAN/Mac/region/RegionRU864.c ****     {
 805:../../../../../../Middlewares/Third_Party/LoRaWAN/Mac/region/RegionRU864.c ****         status &= 0xFE;
 806:../../../../../../Middlewares/Third_Party/LoRaWAN/Mac/region/RegionRU864.c ****     }
 807:../../../../../../Middlewares/Third_Party/LoRaWAN/Mac/region/RegionRU864.c **** 
 808:../../../../../../Middlewares/Third_Party/LoRaWAN/Mac/region/RegionRU864.c ****     // Verify if an uplink frequency exists
 809:../../../../../../Middlewares/Third_Party/LoRaWAN/Mac/region/RegionRU864.c ****     if( NvmCtx.Channels[dlChannelReq->ChannelId].Frequency == 0 )
 810:../../../../../../Middlewares/Third_Party/LoRaWAN/Mac/region/RegionRU864.c ****     {
 811:../../../../../../Middlewares/Third_Party/LoRaWAN/Mac/region/RegionRU864.c ****         status &= 0xFD;
 812:../../../../../../Middlewares/Third_Party/LoRaWAN/Mac/region/RegionRU864.c ****     }
ARM GAS  C:\Users\EBANO_~1\AppData\Local\Temp\ccazSBuk.s 			page 28


 813:../../../../../../Middlewares/Third_Party/LoRaWAN/Mac/region/RegionRU864.c **** 
 814:../../../../../../Middlewares/Third_Party/LoRaWAN/Mac/region/RegionRU864.c ****     // Apply Rx1 frequency, if the status is OK
 815:../../../../../../Middlewares/Third_Party/LoRaWAN/Mac/region/RegionRU864.c ****     if( status == 0x03 )
 816:../../../../../../Middlewares/Third_Party/LoRaWAN/Mac/region/RegionRU864.c ****     {
 817:../../../../../../Middlewares/Third_Party/LoRaWAN/Mac/region/RegionRU864.c ****         NvmCtx.Channels[dlChannelReq->ChannelId].Rx1Frequency = dlChannelReq->Rx1Frequency;
 818:../../../../../../Middlewares/Third_Party/LoRaWAN/Mac/region/RegionRU864.c ****     }
 819:../../../../../../Middlewares/Third_Party/LoRaWAN/Mac/region/RegionRU864.c **** 
 820:../../../../../../Middlewares/Third_Party/LoRaWAN/Mac/region/RegionRU864.c ****     return status;
 821:../../../../../../Middlewares/Third_Party/LoRaWAN/Mac/region/RegionRU864.c **** }
 822:../../../../../../Middlewares/Third_Party/LoRaWAN/Mac/region/RegionRU864.c **** 
 823:../../../../../../Middlewares/Third_Party/LoRaWAN/Mac/region/RegionRU864.c **** int8_t RegionRU864AlternateDr( int8_t currentDr, AlternateDrType_t type )
 824:../../../../../../Middlewares/Third_Party/LoRaWAN/Mac/region/RegionRU864.c **** {
 825:../../../../../../Middlewares/Third_Party/LoRaWAN/Mac/region/RegionRU864.c ****     return currentDr;
 826:../../../../../../Middlewares/Third_Party/LoRaWAN/Mac/region/RegionRU864.c **** }
 827:../../../../../../Middlewares/Third_Party/LoRaWAN/Mac/region/RegionRU864.c **** 
 828:../../../../../../Middlewares/Third_Party/LoRaWAN/Mac/region/RegionRU864.c **** void RegionRU864CalcBackOff( CalcBackOffParams_t* calcBackOff )
 829:../../../../../../Middlewares/Third_Party/LoRaWAN/Mac/region/RegionRU864.c **** {
 830:../../../../../../Middlewares/Third_Party/LoRaWAN/Mac/region/RegionRU864.c ****     RegionCommonCalcBackOffParams_t calcBackOffParams;
 831:../../../../../../Middlewares/Third_Party/LoRaWAN/Mac/region/RegionRU864.c **** 
 832:../../../../../../Middlewares/Third_Party/LoRaWAN/Mac/region/RegionRU864.c ****     calcBackOffParams.Channels = NvmCtx.Channels;
 833:../../../../../../Middlewares/Third_Party/LoRaWAN/Mac/region/RegionRU864.c ****     calcBackOffParams.Bands = NvmCtx.Bands;
 834:../../../../../../Middlewares/Third_Party/LoRaWAN/Mac/region/RegionRU864.c ****     calcBackOffParams.LastTxIsJoinRequest = calcBackOff->LastTxIsJoinRequest;
 835:../../../../../../Middlewares/Third_Party/LoRaWAN/Mac/region/RegionRU864.c ****     calcBackOffParams.Joined = calcBackOff->Joined;
 836:../../../../../../Middlewares/Third_Party/LoRaWAN/Mac/region/RegionRU864.c ****     calcBackOffParams.DutyCycleEnabled = calcBackOff->DutyCycleEnabled;
 837:../../../../../../Middlewares/Third_Party/LoRaWAN/Mac/region/RegionRU864.c ****     calcBackOffParams.Channel = calcBackOff->Channel;
 838:../../../../../../Middlewares/Third_Party/LoRaWAN/Mac/region/RegionRU864.c ****     calcBackOffParams.ElapsedTime = calcBackOff->ElapsedTime;
 839:../../../../../../Middlewares/Third_Party/LoRaWAN/Mac/region/RegionRU864.c ****     calcBackOffParams.TxTimeOnAir = calcBackOff->TxTimeOnAir;
 840:../../../../../../Middlewares/Third_Party/LoRaWAN/Mac/region/RegionRU864.c **** 
 841:../../../../../../Middlewares/Third_Party/LoRaWAN/Mac/region/RegionRU864.c ****     RegionCommonCalcBackOff( &calcBackOffParams );
 842:../../../../../../Middlewares/Third_Party/LoRaWAN/Mac/region/RegionRU864.c **** }
 843:../../../../../../Middlewares/Third_Party/LoRaWAN/Mac/region/RegionRU864.c **** 
 844:../../../../../../Middlewares/Third_Party/LoRaWAN/Mac/region/RegionRU864.c **** LoRaMacStatus_t RegionRU864NextChannel( NextChanParams_t* nextChanParams, uint8_t* channel, TimerTi
 845:../../../../../../Middlewares/Third_Party/LoRaWAN/Mac/region/RegionRU864.c **** {
 846:../../../../../../Middlewares/Third_Party/LoRaWAN/Mac/region/RegionRU864.c ****     uint8_t nbEnabledChannels = 0;
 847:../../../../../../Middlewares/Third_Party/LoRaWAN/Mac/region/RegionRU864.c ****     uint8_t delayTx = 0;
 848:../../../../../../Middlewares/Third_Party/LoRaWAN/Mac/region/RegionRU864.c ****     uint8_t enabledChannels[RU864_MAX_NB_CHANNELS] = { 0 };
 849:../../../../../../Middlewares/Third_Party/LoRaWAN/Mac/region/RegionRU864.c ****     TimerTime_t nextTxDelay = 0;
 850:../../../../../../Middlewares/Third_Party/LoRaWAN/Mac/region/RegionRU864.c **** 
 851:../../../../../../Middlewares/Third_Party/LoRaWAN/Mac/region/RegionRU864.c ****     if( RegionCommonCountChannels( NvmCtx.ChannelsMask, 0, 1 ) == 0 )
 852:../../../../../../Middlewares/Third_Party/LoRaWAN/Mac/region/RegionRU864.c ****     { // Reactivate default channels
 853:../../../../../../Middlewares/Third_Party/LoRaWAN/Mac/region/RegionRU864.c ****         NvmCtx.ChannelsMask[0] |= LC( 1 ) + LC( 2 );
 854:../../../../../../Middlewares/Third_Party/LoRaWAN/Mac/region/RegionRU864.c ****     }
 855:../../../../../../Middlewares/Third_Party/LoRaWAN/Mac/region/RegionRU864.c **** 
 856:../../../../../../Middlewares/Third_Party/LoRaWAN/Mac/region/RegionRU864.c ****     if( nextChanParams->AggrTimeOff <= TimerGetElapsedTime( nextChanParams->LastAggrTx ) )
 857:../../../../../../Middlewares/Third_Party/LoRaWAN/Mac/region/RegionRU864.c ****     {
 858:../../../../../../Middlewares/Third_Party/LoRaWAN/Mac/region/RegionRU864.c ****         // Reset Aggregated time off
 859:../../../../../../Middlewares/Third_Party/LoRaWAN/Mac/region/RegionRU864.c ****         *aggregatedTimeOff = 0;
 860:../../../../../../Middlewares/Third_Party/LoRaWAN/Mac/region/RegionRU864.c **** 
 861:../../../../../../Middlewares/Third_Party/LoRaWAN/Mac/region/RegionRU864.c ****         // Update bands Time OFF
 862:../../../../../../Middlewares/Third_Party/LoRaWAN/Mac/region/RegionRU864.c ****         nextTxDelay = RegionCommonUpdateBandTimeOff( nextChanParams->Joined, nextChanParams->DutyCy
 863:../../../../../../Middlewares/Third_Party/LoRaWAN/Mac/region/RegionRU864.c **** 
 864:../../../../../../Middlewares/Third_Party/LoRaWAN/Mac/region/RegionRU864.c ****         // Search how many channels are enabled
 865:../../../../../../Middlewares/Third_Party/LoRaWAN/Mac/region/RegionRU864.c ****         nbEnabledChannels = CountNbOfEnabledChannels( nextChanParams->Joined, nextChanParams->Datar
 866:../../../../../../Middlewares/Third_Party/LoRaWAN/Mac/region/RegionRU864.c ****                                                       NvmCtx.ChannelsMask, NvmCtx.Channels,
 867:../../../../../../Middlewares/Third_Party/LoRaWAN/Mac/region/RegionRU864.c ****                                                       NvmCtx.Bands, enabledChannels, &delayTx );
 868:../../../../../../Middlewares/Third_Party/LoRaWAN/Mac/region/RegionRU864.c ****     }
 869:../../../../../../Middlewares/Third_Party/LoRaWAN/Mac/region/RegionRU864.c ****     else
ARM GAS  C:\Users\EBANO_~1\AppData\Local\Temp\ccazSBuk.s 			page 29


 870:../../../../../../Middlewares/Third_Party/LoRaWAN/Mac/region/RegionRU864.c ****     {
 871:../../../../../../Middlewares/Third_Party/LoRaWAN/Mac/region/RegionRU864.c ****         delayTx++;
 872:../../../../../../Middlewares/Third_Party/LoRaWAN/Mac/region/RegionRU864.c ****         nextTxDelay = nextChanParams->AggrTimeOff - TimerGetElapsedTime( nextChanParams->LastAggrTx
 873:../../../../../../Middlewares/Third_Party/LoRaWAN/Mac/region/RegionRU864.c ****     }
 874:../../../../../../Middlewares/Third_Party/LoRaWAN/Mac/region/RegionRU864.c **** 
 875:../../../../../../Middlewares/Third_Party/LoRaWAN/Mac/region/RegionRU864.c ****     if( nbEnabledChannels > 0 )
 876:../../../../../../Middlewares/Third_Party/LoRaWAN/Mac/region/RegionRU864.c ****     {
 877:../../../../../../Middlewares/Third_Party/LoRaWAN/Mac/region/RegionRU864.c ****         // We found a valid channel
 878:../../../../../../Middlewares/Third_Party/LoRaWAN/Mac/region/RegionRU864.c ****         *channel = enabledChannels[randr( 0, nbEnabledChannels - 1 )];
 879:../../../../../../Middlewares/Third_Party/LoRaWAN/Mac/region/RegionRU864.c **** 
 880:../../../../../../Middlewares/Third_Party/LoRaWAN/Mac/region/RegionRU864.c ****         *time = 0;
 881:../../../../../../Middlewares/Third_Party/LoRaWAN/Mac/region/RegionRU864.c ****         return LORAMAC_STATUS_OK;
 882:../../../../../../Middlewares/Third_Party/LoRaWAN/Mac/region/RegionRU864.c ****     }
 883:../../../../../../Middlewares/Third_Party/LoRaWAN/Mac/region/RegionRU864.c ****     else
 884:../../../../../../Middlewares/Third_Party/LoRaWAN/Mac/region/RegionRU864.c ****     {
 885:../../../../../../Middlewares/Third_Party/LoRaWAN/Mac/region/RegionRU864.c ****         if( delayTx > 0 )
 886:../../../../../../Middlewares/Third_Party/LoRaWAN/Mac/region/RegionRU864.c ****         {
 887:../../../../../../Middlewares/Third_Party/LoRaWAN/Mac/region/RegionRU864.c ****             // Delay transmission due to AggregatedTimeOff or to a band time off
 888:../../../../../../Middlewares/Third_Party/LoRaWAN/Mac/region/RegionRU864.c ****             *time = nextTxDelay;
 889:../../../../../../Middlewares/Third_Party/LoRaWAN/Mac/region/RegionRU864.c ****             return LORAMAC_STATUS_DUTYCYCLE_RESTRICTED;
 890:../../../../../../Middlewares/Third_Party/LoRaWAN/Mac/region/RegionRU864.c ****         }
 891:../../../../../../Middlewares/Third_Party/LoRaWAN/Mac/region/RegionRU864.c ****         // Datarate not supported by any channel, restore defaults
 892:../../../../../../Middlewares/Third_Party/LoRaWAN/Mac/region/RegionRU864.c ****         NvmCtx.ChannelsMask[0] |= LC( 1 ) + LC( 2 );
 893:../../../../../../Middlewares/Third_Party/LoRaWAN/Mac/region/RegionRU864.c ****         *time = 0;
 894:../../../../../../Middlewares/Third_Party/LoRaWAN/Mac/region/RegionRU864.c ****         return LORAMAC_STATUS_NO_CHANNEL_FOUND;
 895:../../../../../../Middlewares/Third_Party/LoRaWAN/Mac/region/RegionRU864.c ****     }
 896:../../../../../../Middlewares/Third_Party/LoRaWAN/Mac/region/RegionRU864.c **** }
 897:../../../../../../Middlewares/Third_Party/LoRaWAN/Mac/region/RegionRU864.c **** 
 898:../../../../../../Middlewares/Third_Party/LoRaWAN/Mac/region/RegionRU864.c **** LoRaMacStatus_t RegionRU864ChannelAdd( ChannelAddParams_t* channelAdd )
 899:../../../../../../Middlewares/Third_Party/LoRaWAN/Mac/region/RegionRU864.c **** {
 900:../../../../../../Middlewares/Third_Party/LoRaWAN/Mac/region/RegionRU864.c ****     bool drInvalid = false;
 901:../../../../../../Middlewares/Third_Party/LoRaWAN/Mac/region/RegionRU864.c ****     bool freqInvalid = false;
 902:../../../../../../Middlewares/Third_Party/LoRaWAN/Mac/region/RegionRU864.c ****     uint8_t id = channelAdd->ChannelId;
 903:../../../../../../Middlewares/Third_Party/LoRaWAN/Mac/region/RegionRU864.c **** 
 904:../../../../../../Middlewares/Third_Party/LoRaWAN/Mac/region/RegionRU864.c ****     if( id < RU864_NUMB_DEFAULT_CHANNELS )
 905:../../../../../../Middlewares/Third_Party/LoRaWAN/Mac/region/RegionRU864.c ****     {
 906:../../../../../../Middlewares/Third_Party/LoRaWAN/Mac/region/RegionRU864.c ****         return LORAMAC_STATUS_FREQ_AND_DR_INVALID;
 907:../../../../../../Middlewares/Third_Party/LoRaWAN/Mac/region/RegionRU864.c ****     }
 908:../../../../../../Middlewares/Third_Party/LoRaWAN/Mac/region/RegionRU864.c **** 
 909:../../../../../../Middlewares/Third_Party/LoRaWAN/Mac/region/RegionRU864.c ****     if( id >= RU864_MAX_NB_CHANNELS )
 910:../../../../../../Middlewares/Third_Party/LoRaWAN/Mac/region/RegionRU864.c ****     {
 911:../../../../../../Middlewares/Third_Party/LoRaWAN/Mac/region/RegionRU864.c ****         return LORAMAC_STATUS_PARAMETER_INVALID;
 912:../../../../../../Middlewares/Third_Party/LoRaWAN/Mac/region/RegionRU864.c ****     }
 913:../../../../../../Middlewares/Third_Party/LoRaWAN/Mac/region/RegionRU864.c **** 
 914:../../../../../../Middlewares/Third_Party/LoRaWAN/Mac/region/RegionRU864.c ****     // Validate the datarate range
 915:../../../../../../Middlewares/Third_Party/LoRaWAN/Mac/region/RegionRU864.c ****     if( RegionCommonValueInRange( channelAdd->NewChannel->DrRange.Fields.Min, RU864_TX_MIN_DATARATE
 916:../../../../../../Middlewares/Third_Party/LoRaWAN/Mac/region/RegionRU864.c ****     {
 917:../../../../../../Middlewares/Third_Party/LoRaWAN/Mac/region/RegionRU864.c ****         drInvalid = true;
 918:../../../../../../Middlewares/Third_Party/LoRaWAN/Mac/region/RegionRU864.c ****     }
 919:../../../../../../Middlewares/Third_Party/LoRaWAN/Mac/region/RegionRU864.c ****     if( RegionCommonValueInRange( channelAdd->NewChannel->DrRange.Fields.Max, RU864_TX_MIN_DATARATE
 920:../../../../../../Middlewares/Third_Party/LoRaWAN/Mac/region/RegionRU864.c ****     {
 921:../../../../../../Middlewares/Third_Party/LoRaWAN/Mac/region/RegionRU864.c ****         drInvalid = true;
 922:../../../../../../Middlewares/Third_Party/LoRaWAN/Mac/region/RegionRU864.c ****     }
 923:../../../../../../Middlewares/Third_Party/LoRaWAN/Mac/region/RegionRU864.c ****     if( channelAdd->NewChannel->DrRange.Fields.Min > channelAdd->NewChannel->DrRange.Fields.Max )
 924:../../../../../../Middlewares/Third_Party/LoRaWAN/Mac/region/RegionRU864.c ****     {
 925:../../../../../../Middlewares/Third_Party/LoRaWAN/Mac/region/RegionRU864.c ****         drInvalid = true;
 926:../../../../../../Middlewares/Third_Party/LoRaWAN/Mac/region/RegionRU864.c ****     }
ARM GAS  C:\Users\EBANO_~1\AppData\Local\Temp\ccazSBuk.s 			page 30


 927:../../../../../../Middlewares/Third_Party/LoRaWAN/Mac/region/RegionRU864.c **** 
 928:../../../../../../Middlewares/Third_Party/LoRaWAN/Mac/region/RegionRU864.c ****     // Check frequency
 929:../../../../../../Middlewares/Third_Party/LoRaWAN/Mac/region/RegionRU864.c ****     if( freqInvalid == false )
 930:../../../../../../Middlewares/Third_Party/LoRaWAN/Mac/region/RegionRU864.c ****     {
 931:../../../../../../Middlewares/Third_Party/LoRaWAN/Mac/region/RegionRU864.c ****         if( VerifyRfFreq( channelAdd->NewChannel->Frequency ) == false )
 932:../../../../../../Middlewares/Third_Party/LoRaWAN/Mac/region/RegionRU864.c ****         {
 933:../../../../../../Middlewares/Third_Party/LoRaWAN/Mac/region/RegionRU864.c ****             freqInvalid = true;
 934:../../../../../../Middlewares/Third_Party/LoRaWAN/Mac/region/RegionRU864.c ****         }
 935:../../../../../../Middlewares/Third_Party/LoRaWAN/Mac/region/RegionRU864.c ****     }
 936:../../../../../../Middlewares/Third_Party/LoRaWAN/Mac/region/RegionRU864.c **** 
 937:../../../../../../Middlewares/Third_Party/LoRaWAN/Mac/region/RegionRU864.c ****     // Check status
 938:../../../../../../Middlewares/Third_Party/LoRaWAN/Mac/region/RegionRU864.c ****     if( ( drInvalid == true ) && ( freqInvalid == true ) )
 939:../../../../../../Middlewares/Third_Party/LoRaWAN/Mac/region/RegionRU864.c ****     {
 940:../../../../../../Middlewares/Third_Party/LoRaWAN/Mac/region/RegionRU864.c ****         return LORAMAC_STATUS_FREQ_AND_DR_INVALID;
 941:../../../../../../Middlewares/Third_Party/LoRaWAN/Mac/region/RegionRU864.c ****     }
 942:../../../../../../Middlewares/Third_Party/LoRaWAN/Mac/region/RegionRU864.c ****     if( drInvalid == true )
 943:../../../../../../Middlewares/Third_Party/LoRaWAN/Mac/region/RegionRU864.c ****     {
 944:../../../../../../Middlewares/Third_Party/LoRaWAN/Mac/region/RegionRU864.c ****         return LORAMAC_STATUS_DATARATE_INVALID;
 945:../../../../../../Middlewares/Third_Party/LoRaWAN/Mac/region/RegionRU864.c ****     }
 946:../../../../../../Middlewares/Third_Party/LoRaWAN/Mac/region/RegionRU864.c ****     if( freqInvalid == true )
 947:../../../../../../Middlewares/Third_Party/LoRaWAN/Mac/region/RegionRU864.c ****     {
 948:../../../../../../Middlewares/Third_Party/LoRaWAN/Mac/region/RegionRU864.c ****         return LORAMAC_STATUS_FREQUENCY_INVALID;
 949:../../../../../../Middlewares/Third_Party/LoRaWAN/Mac/region/RegionRU864.c ****     }
 950:../../../../../../Middlewares/Third_Party/LoRaWAN/Mac/region/RegionRU864.c **** 
 951:../../../../../../Middlewares/Third_Party/LoRaWAN/Mac/region/RegionRU864.c ****     memcpy1( ( uint8_t* ) &(NvmCtx.Channels[id]), ( uint8_t* ) channelAdd->NewChannel, sizeof( NvmC
 952:../../../../../../Middlewares/Third_Party/LoRaWAN/Mac/region/RegionRU864.c ****     NvmCtx.Channels[id].Band = 0;
 953:../../../../../../Middlewares/Third_Party/LoRaWAN/Mac/region/RegionRU864.c ****     NvmCtx.ChannelsMask[0] |= ( 1 << id );
 954:../../../../../../Middlewares/Third_Party/LoRaWAN/Mac/region/RegionRU864.c ****     return LORAMAC_STATUS_OK;
 955:../../../../../../Middlewares/Third_Party/LoRaWAN/Mac/region/RegionRU864.c **** }
 956:../../../../../../Middlewares/Third_Party/LoRaWAN/Mac/region/RegionRU864.c **** 
 957:../../../../../../Middlewares/Third_Party/LoRaWAN/Mac/region/RegionRU864.c **** bool RegionRU864ChannelsRemove( ChannelRemoveParams_t* channelRemove  )
 958:../../../../../../Middlewares/Third_Party/LoRaWAN/Mac/region/RegionRU864.c **** {
 959:../../../../../../Middlewares/Third_Party/LoRaWAN/Mac/region/RegionRU864.c ****     uint8_t id = channelRemove->ChannelId;
 960:../../../../../../Middlewares/Third_Party/LoRaWAN/Mac/region/RegionRU864.c **** 
 961:../../../../../../Middlewares/Third_Party/LoRaWAN/Mac/region/RegionRU864.c ****     if( id < RU864_NUMB_DEFAULT_CHANNELS )
 962:../../../../../../Middlewares/Third_Party/LoRaWAN/Mac/region/RegionRU864.c ****     {
 963:../../../../../../Middlewares/Third_Party/LoRaWAN/Mac/region/RegionRU864.c ****         return false;
 964:../../../../../../Middlewares/Third_Party/LoRaWAN/Mac/region/RegionRU864.c ****     }
 965:../../../../../../Middlewares/Third_Party/LoRaWAN/Mac/region/RegionRU864.c **** 
 966:../../../../../../Middlewares/Third_Party/LoRaWAN/Mac/region/RegionRU864.c ****     // Remove the channel from the list of channels
 967:../../../../../../Middlewares/Third_Party/LoRaWAN/Mac/region/RegionRU864.c ****     NvmCtx.Channels[id] = ( ChannelParams_t ){ 0, 0, { 0 }, 0 };
 664              		.loc 1 967 0
 665 0034 444B     		ldr	r3, .L78
 666              	.LBE33:
 667              	.LBE32:
 668              	.LBE31:
 669 0036 0026     		movs	r6, #0
 670              	.LBB48:
 671              	.LBB36:
 672              	.LBB34:
 673 0038 9946     		mov	r9, r3
 674 003a 444B     		ldr	r3, .L78+4
 675 003c 9B46     		mov	fp, r3
 676 003e EBB2     		uxtb	r3, r5
 677 0040 9846     		mov	r8, r3
 678              	.LVL39:
 679              	.LBE34:
ARM GAS  C:\Users\EBANO_~1\AppData\Local\Temp\ccazSBuk.s 			page 31


 680              	.LBE36:
 444:../../../../../../Middlewares/Third_Party/LoRaWAN/Mac/region/RegionRU864.c ****         {
 681              		.loc 1 444 0
 682 0042 072D     		cmp	r5, #7
 683 0044 62D0     		beq	.L60
 684              	.LVL40:
 685              	.L77:
 447:../../../../../../Middlewares/Third_Party/LoRaWAN/Mac/region/RegionRU864.c ****             newChannel.Frequency |= ( (uint32_t) applyCFList->Payload[i + 1] << 8 );
 686              		.loc 1 447 0
 687 0046 3A68     		ldr	r2, [r7]
 688 0048 915D     		ldrb	r1, [r2, r6]
 448:../../../../../../Middlewares/Third_Party/LoRaWAN/Mac/region/RegionRU864.c ****             newChannel.Frequency |= ( (uint32_t) applyCFList->Payload[i + 2] << 16 );
 689              		.loc 1 448 0
 690 004a 9219     		adds	r2, r2, r6
 447:../../../../../../Middlewares/Third_Party/LoRaWAN/Mac/region/RegionRU864.c ****             newChannel.Frequency |= ( (uint32_t) applyCFList->Payload[i + 1] << 8 );
 691              		.loc 1 447 0
 692 004c 2160     		str	r1, [r4]
 448:../../../../../../Middlewares/Third_Party/LoRaWAN/Mac/region/RegionRU864.c ****             newChannel.Frequency |= ( (uint32_t) applyCFList->Payload[i + 2] << 16 );
 693              		.loc 1 448 0
 694 004e 5378     		ldrb	r3, [r2, #1]
 695              	.LVL41:
 696 0050 1B02     		lsls	r3, r3, #8
 697 0052 0B43     		orrs	r3, r1
 698 0054 2360     		str	r3, [r4]
 449:../../../../../../Middlewares/Third_Party/LoRaWAN/Mac/region/RegionRU864.c ****             newChannel.Frequency *= 100;
 699              		.loc 1 449 0
 700 0056 9278     		ldrb	r2, [r2, #2]
 701 0058 1204     		lsls	r2, r2, #16
 702 005a 1343     		orrs	r3, r2
 450:../../../../../../Middlewares/Third_Party/LoRaWAN/Mac/region/RegionRU864.c **** 
 703              		.loc 1 450 0
 704 005c 6422     		movs	r2, #100
 705 005e 5343     		muls	r3, r2
 453:../../../../../../Middlewares/Third_Party/LoRaWAN/Mac/region/RegionRU864.c ****         }
 706              		.loc 1 453 0
 707 0060 0022     		movs	r2, #0
 450:../../../../../../Middlewares/Third_Party/LoRaWAN/Mac/region/RegionRU864.c **** 
 708              		.loc 1 450 0
 709 0062 2360     		str	r3, [r4]
 453:../../../../../../Middlewares/Third_Party/LoRaWAN/Mac/region/RegionRU864.c ****         }
 710              		.loc 1 453 0
 711 0064 6260     		str	r2, [r4, #4]
 462:../../../../../../Middlewares/Third_Party/LoRaWAN/Mac/region/RegionRU864.c ****         {
 712              		.loc 1 462 0
 713 0066 002B     		cmp	r3, #0
 714 0068 54D0     		beq	.L62
 715              	.LVL42:
 716              	.LBB37:
 717              	.LBB38:
 915:../../../../../../Middlewares/Third_Party/LoRaWAN/Mac/region/RegionRU864.c ****     {
 718              		.loc 1 915 0
 719 006a 207A     		ldrb	r0, [r4, #8]
 720 006c 0722     		movs	r2, #7
 721 006e 0007     		lsls	r0, r0, #28
 722 0070 0021     		movs	r1, #0
 723 0072 0017     		asrs	r0, r0, #28
 724 0074 FFF7FEFF 		bl	RegionCommonValueInRange
ARM GAS  C:\Users\EBANO_~1\AppData\Local\Temp\ccazSBuk.s 			page 32


 725              	.LVL43:
 726 0078 8046     		mov	r8, r0
 727              	.LVL44:
 919:../../../../../../Middlewares/Third_Party/LoRaWAN/Mac/region/RegionRU864.c ****     {
 728              		.loc 1 919 0
 729 007a 0820     		movs	r0, #8
 730 007c 2056     		ldrsb	r0, [r4, r0]
 731 007e 0722     		movs	r2, #7
 732 0080 0011     		asrs	r0, r0, #4
 733 0082 0021     		movs	r1, #0
 734 0084 FFF7FEFF 		bl	RegionCommonValueInRange
 735              	.LVL45:
 921:../../../../../../Middlewares/Third_Party/LoRaWAN/Mac/region/RegionRU864.c ****     }
 736              		.loc 1 921 0
 737 0088 0123     		movs	r3, #1
 738 008a 9A46     		mov	r10, r3
 919:../../../../../../Middlewares/Third_Party/LoRaWAN/Mac/region/RegionRU864.c ****     {
 739              		.loc 1 919 0
 740 008c 0028     		cmp	r0, #0
 741 008e 04D0     		beq	.L67
 915:../../../../../../Middlewares/Third_Party/LoRaWAN/Mac/region/RegionRU864.c ****     {
 742              		.loc 1 915 0
 743 0090 4346     		mov	r3, r8
 744 0092 5A42     		rsbs	r2, r3, #0
 745 0094 5341     		adcs	r3, r3, r2
 746 0096 DBB2     		uxtb	r3, r3
 747 0098 9A46     		mov	r10, r3
 748              	.L67:
 749              	.LVL46:
 750 009a 2368     		ldr	r3, [r4]
 751 009c 9846     		mov	r8, r3
 752 009e 5B46     		mov	r3, fp
 753 00a0 9B6A     		ldr	r3, [r3, #40]
 754              	.LBB39:
 755              	.LBB40:
 111:../../../../../../Middlewares/Third_Party/LoRaWAN/Mac/region/RegionRU864.c ****     {
 756              		.loc 1 111 0
 757 00a2 4046     		mov	r0, r8
 758 00a4 0193     		str	r3, [sp, #4]
 759              	.LBE40:
 760              	.LBE39:
 923:../../../../../../Middlewares/Third_Party/LoRaWAN/Mac/region/RegionRU864.c ****     {
 761              		.loc 1 923 0
 762 00a6 237A     		ldrb	r3, [r4, #8]
 763 00a8 1A07     		lsls	r2, r3, #28
 764 00aa 5BB2     		sxtb	r3, r3
 765 00ac 1217     		asrs	r2, r2, #28
 766 00ae 1B11     		asrs	r3, r3, #4
 767 00b0 9A42     		cmp	r2, r3
 768 00b2 41DC     		bgt	.L63
 769              	.LVL47:
 770              	.LBB43:
 771              	.LBB41:
 111:../../../../../../Middlewares/Third_Party/LoRaWAN/Mac/region/RegionRU864.c ****     {
 772              		.loc 1 111 0
 773 00b4 019B     		ldr	r3, [sp, #4]
 774 00b6 9847     		blx	r3
ARM GAS  C:\Users\EBANO_~1\AppData\Local\Temp\ccazSBuk.s 			page 33


 775              	.LVL48:
 776 00b8 0028     		cmp	r0, #0
 777 00ba 1ED0     		beq	.L64
 117:../../../../../../Middlewares/Third_Party/LoRaWAN/Mac/region/RegionRU864.c ****     {
 778              		.loc 1 117 0
 779 00bc 244A     		ldr	r2, .L78+8
 780 00be 254B     		ldr	r3, .L78+12
 781 00c0 4244     		add	r2, r2, r8
 782 00c2 9A42     		cmp	r2, r3
 783 00c4 19D8     		bhi	.L64
 784              	.LBE41:
 785              	.LBE43:
 938:../../../../../../Middlewares/Third_Party/LoRaWAN/Mac/region/RegionRU864.c ****     {
 786              		.loc 1 938 0
 787 00c6 5346     		mov	r3, r10
 788 00c8 002B     		cmp	r3, #0
 789 00ca 16D1     		bne	.L64
 951:../../../../../../Middlewares/Third_Party/LoRaWAN/Mac/region/RegionRU864.c ****     NvmCtx.Channels[id].Band = 0;
 790              		.loc 1 951 0
 791 00cc 1E4B     		ldr	r3, .L78
 792 00ce 6800     		lsls	r0, r5, #1
 793 00d0 9846     		mov	r8, r3
 794 00d2 4019     		adds	r0, r0, r5
 795 00d4 8000     		lsls	r0, r0, #2
 796 00d6 0C22     		movs	r2, #12
 797 00d8 2100     		movs	r1, r4
 798 00da 4044     		add	r0, r0, r8
 799 00dc FFF7FEFF 		bl	memcpy1
 800              	.LVL49:
 952:../../../../../../Middlewares/Third_Party/LoRaWAN/Mac/region/RegionRU864.c ****     NvmCtx.ChannelsMask[0] |= ( 1 << id );
 801              		.loc 1 952 0
 802 00e0 4246     		mov	r2, r8
 803 00e2 5146     		mov	r1, r10
 804 00e4 B300     		lsls	r3, r6, #2
 805 00e6 2133     		adds	r3, r3, #33
 806 00e8 D154     		strb	r1, [r2, r3]
 953:../../../../../../Middlewares/Third_Party/LoRaWAN/Mac/region/RegionRU864.c ****     return LORAMAC_STATUS_OK;
 807              		.loc 1 953 0
 808 00ea 0122     		movs	r2, #1
 809 00ec 7021     		movs	r1, #112
 810 00ee 4346     		mov	r3, r8
 811 00f0 AA40     		lsls	r2, r2, r5
 812 00f2 5B5A     		ldrh	r3, [r3, r1]
 813 00f4 1343     		orrs	r3, r2
 814 00f6 4246     		mov	r2, r8
 815 00f8 5352     		strh	r3, [r2, r1]
 816              	.L64:
 817              	.LVL50:
 818 00fa 0135     		adds	r5, r5, #1
 819              	.LVL51:
 820 00fc 0336     		adds	r6, r6, #3
 821              	.LVL52:
 822              	.LBE38:
 823              	.LBE37:
 442:../../../../../../Middlewares/Third_Party/LoRaWAN/Mac/region/RegionRU864.c ****     {
 824              		.loc 1 442 0 discriminator 2
 825 00fe 082D     		cmp	r5, #8
ARM GAS  C:\Users\EBANO_~1\AppData\Local\Temp\ccazSBuk.s 			page 34


 826 0100 00D1     		bne	.LCB700
 827 0102 8BE7     		b	.L58	@long jump
 828              	.LCB700:
 829              	.LVL53:
 830              	.L75:
 831 0104 EBB2     		uxtb	r3, r5
 832 0106 9846     		mov	r8, r3
 833              	.LVL54:
 444:../../../../../../Middlewares/Third_Party/LoRaWAN/Mac/region/RegionRU864.c ****         {
 834              		.loc 1 444 0
 835 0108 072D     		cmp	r5, #7
 836 010a 9CD1     		bne	.L77
 837              	.LVL55:
 838              	.L60:
 457:../../../../../../Middlewares/Third_Party/LoRaWAN/Mac/region/RegionRU864.c ****             newChannel.DrRange.Value = 0;
 839              		.loc 1 457 0
 840 010c 0023     		movs	r3, #0
 841 010e 2360     		str	r3, [r4]
 458:../../../../../../Middlewares/Third_Party/LoRaWAN/Mac/region/RegionRU864.c ****             newChannel.Rx1Frequency = 0;
 842              		.loc 1 458 0
 843 0110 2372     		strb	r3, [r4, #8]
 459:../../../../../../Middlewares/Third_Party/LoRaWAN/Mac/region/RegionRU864.c ****         }
 844              		.loc 1 459 0
 845 0112 6360     		str	r3, [r4, #4]
 846              	.L62:
 847              	.LVL56:
 848              	.LBB46:
 849              	.LBB35:
 850              		.loc 1 967 0
 851 0114 6800     		lsls	r0, r5, #1
 852 0116 4019     		adds	r0, r0, r5
 853 0118 8000     		lsls	r0, r0, #2
 854 011a 0C22     		movs	r2, #12
 855 011c 0021     		movs	r1, #0
 856 011e 4844     		add	r0, r0, r9
 857 0120 FFF7FEFF 		bl	memset
 858              	.LVL57:
 859 0124 0135     		adds	r5, r5, #1
 968:../../../../../../Middlewares/Third_Party/LoRaWAN/Mac/region/RegionRU864.c **** 
 969:../../../../../../Middlewares/Third_Party/LoRaWAN/Mac/region/RegionRU864.c ****     return RegionCommonChanDisable( NvmCtx.ChannelsMask, id, RU864_MAX_NB_CHANNELS );
 860              		.loc 1 969 0
 861 0126 0822     		movs	r2, #8
 862 0128 4146     		mov	r1, r8
 863 012a 0B48     		ldr	r0, .L78+16
 864 012c FFF7FEFF 		bl	RegionCommonChanDisable
 865              	.LVL58:
 866 0130 0336     		adds	r6, r6, #3
 867              	.LVL59:
 868              	.LBE35:
 869              	.LBE46:
 442:../../../../../../Middlewares/Third_Party/LoRaWAN/Mac/region/RegionRU864.c ****     {
 870              		.loc 1 442 0
 871 0132 082D     		cmp	r5, #8
 872 0134 E6D1     		bne	.L75
 873 0136 71E7     		b	.L58
 874              	.LVL60:
 875              	.L63:
ARM GAS  C:\Users\EBANO_~1\AppData\Local\Temp\ccazSBuk.s 			page 35


 876              	.LBB47:
 877              	.LBB45:
 878              	.LBB44:
 879              	.LBB42:
 111:../../../../../../Middlewares/Third_Party/LoRaWAN/Mac/region/RegionRU864.c ****     {
 880              		.loc 1 111 0
 881 0138 019B     		ldr	r3, [sp, #4]
 882 013a 0135     		adds	r5, r5, #1
 883 013c 9847     		blx	r3
 884              	.LVL61:
 885 013e 0336     		adds	r6, r6, #3
 886              	.LVL62:
 887              	.LBE42:
 888              	.LBE44:
 889              	.LBE45:
 890              	.LBE47:
 442:../../../../../../Middlewares/Third_Party/LoRaWAN/Mac/region/RegionRU864.c ****     {
 891              		.loc 1 442 0
 892 0140 082D     		cmp	r5, #8
 893 0142 DFD1     		bne	.L75
 894 0144 6AE7     		b	.L58
 895              	.L79:
 896 0146 C046     		.align	2
 897              	.L78:
 898 0148 00000000 		.word	.LANCHOR1
 899 014c 00000000 		.word	Radio
 900 0150 006880CC 		.word	-864000000
 901 0154 808D5B00 		.word	6000000
 902 0158 70000000 		.word	.LANCHOR1+112
 903              	.LBE48:
 904              		.cfi_endproc
 905              	.LFE49:
 906              		.size	RegionRU864ApplyCFList, .-RegionRU864ApplyCFList
 907              		.section	.text.RegionRU864ChanMaskSet,"ax",%progbits
 908              		.align	1
 909              		.p2align 2,,3
 910              		.global	RegionRU864ChanMaskSet
 911              		.syntax unified
 912              		.code	16
 913              		.thumb_func
 914              		.fpu softvfp
 915              		.type	RegionRU864ChanMaskSet, %function
 916              	RegionRU864ChanMaskSet:
 917              	.LFB50:
 480:../../../../../../Middlewares/Third_Party/LoRaWAN/Mac/region/RegionRU864.c ****     switch( chanMaskSet->ChannelsMaskType )
 918              		.loc 1 480 0
 919              		.cfi_startproc
 920              		@ args = 0, pretend = 0, frame = 0
 921              		@ frame_needed = 0, uses_anonymous_args = 0
 922              	.LVL63:
 923 0000 10B5     		push	{r4, lr}
 924              	.LCFI9:
 925              		.cfi_def_cfa_offset 8
 926              		.cfi_offset 4, -8
 927              		.cfi_offset 14, -4
 481:../../../../../../Middlewares/Third_Party/LoRaWAN/Mac/region/RegionRU864.c ****     {
 928              		.loc 1 481 0
ARM GAS  C:\Users\EBANO_~1\AppData\Local\Temp\ccazSBuk.s 			page 36


 929 0002 0379     		ldrb	r3, [r0, #4]
 930 0004 002B     		cmp	r3, #0
 931 0006 0BD0     		beq	.L82
 932 0008 012B     		cmp	r3, #1
 933 000a 01D0     		beq	.L83
 494:../../../../../../Middlewares/Third_Party/LoRaWAN/Mac/region/RegionRU864.c ****     }
 934              		.loc 1 494 0
 935 000c 0020     		movs	r0, #0
 936              	.LVL64:
 937              	.L81:
 497:../../../../../../Middlewares/Third_Party/LoRaWAN/Mac/region/RegionRU864.c **** 
 938              		.loc 1 497 0
 939              		@ sp needed
 940 000e 10BD     		pop	{r4, pc}
 941              	.LVL65:
 942              	.L83:
 490:../../../../../../Middlewares/Third_Party/LoRaWAN/Mac/region/RegionRU864.c ****             break;
 943              		.loc 1 490 0
 944 0010 0168     		ldr	r1, [r0]
 945 0012 0748     		ldr	r0, .L86
 946              	.LVL66:
 947 0014 0122     		movs	r2, #1
 948 0016 7230     		adds	r0, r0, #114
 949 0018 FFF7FEFF 		bl	RegionCommonChanMaskCopy
 950              	.LVL67:
 496:../../../../../../Middlewares/Third_Party/LoRaWAN/Mac/region/RegionRU864.c **** }
 951              		.loc 1 496 0
 952 001c 0120     		movs	r0, #1
 491:../../../../../../Middlewares/Third_Party/LoRaWAN/Mac/region/RegionRU864.c ****         }
 953              		.loc 1 491 0
 954 001e F6E7     		b	.L81
 955              	.LVL68:
 956              	.L82:
 485:../../../../../../Middlewares/Third_Party/LoRaWAN/Mac/region/RegionRU864.c ****             break;
 957              		.loc 1 485 0
 958 0020 0168     		ldr	r1, [r0]
 959 0022 0348     		ldr	r0, .L86
 960              	.LVL69:
 961 0024 0122     		movs	r2, #1
 962 0026 7030     		adds	r0, r0, #112
 963 0028 FFF7FEFF 		bl	RegionCommonChanMaskCopy
 964              	.LVL70:
 496:../../../../../../Middlewares/Third_Party/LoRaWAN/Mac/region/RegionRU864.c **** }
 965              		.loc 1 496 0
 966 002c 0120     		movs	r0, #1
 486:../../../../../../Middlewares/Third_Party/LoRaWAN/Mac/region/RegionRU864.c ****         }
 967              		.loc 1 486 0
 968 002e EEE7     		b	.L81
 969              	.L87:
 970              		.align	2
 971              	.L86:
 972 0030 00000000 		.word	.LANCHOR1
 973              		.cfi_endproc
 974              	.LFE50:
 975              		.size	RegionRU864ChanMaskSet, .-RegionRU864ChanMaskSet
 976              		.section	.text.RegionRU864ComputeRxWindowParameters,"ax",%progbits
 977              		.align	1
ARM GAS  C:\Users\EBANO_~1\AppData\Local\Temp\ccazSBuk.s 			page 37


 978              		.p2align 2,,3
 979              		.global	RegionRU864ComputeRxWindowParameters
 980              		.syntax unified
 981              		.code	16
 982              		.thumb_func
 983              		.fpu softvfp
 984              		.type	RegionRU864ComputeRxWindowParameters, %function
 985              	RegionRU864ComputeRxWindowParameters:
 986              	.LFB51:
 500:../../../../../../Middlewares/Third_Party/LoRaWAN/Mac/region/RegionRU864.c ****     double tSymbol = 0.0;
 987              		.loc 1 500 0
 988              		.cfi_startproc
 989              		@ args = 0, pretend = 0, frame = 8
 990              		@ frame_needed = 0, uses_anonymous_args = 0
 991              	.LVL71:
 992 0000 F0B5     		push	{r4, r5, r6, r7, lr}
 993              	.LCFI10:
 994              		.cfi_def_cfa_offset 20
 995              		.cfi_offset 4, -20
 996              		.cfi_offset 5, -16
 997              		.cfi_offset 6, -12
 998              		.cfi_offset 7, -8
 999              		.cfi_offset 14, -4
 1000 0002 C646     		mov	lr, r8
 1001 0004 00B5     		push	{lr}
 1002              	.LCFI11:
 1003              		.cfi_def_cfa_offset 24
 1004              		.cfi_offset 8, -24
 1005 0006 1C00     		movs	r4, r3
 1006 0008 86B0     		sub	sp, sp, #24
 1007              	.LCFI12:
 1008              		.cfi_def_cfa_offset 48
 500:../../../../../../Middlewares/Third_Party/LoRaWAN/Mac/region/RegionRU864.c ****     double tSymbol = 0.0;
 1009              		.loc 1 500 0
 1010 000a 0D00     		movs	r5, r1
 1011 000c 9046     		mov	r8, r2
 504:../../../../../../Middlewares/Third_Party/LoRaWAN/Mac/region/RegionRU864.c ****     rxConfigParams->Bandwidth = GetBandwidth( rxConfigParams->Datarate );
 1012              		.loc 1 504 0
 1013 000e 031C     		adds	r3, r0, #0
 1014              	.LVL72:
 1015 0010 0728     		cmp	r0, #7
 1016 0012 00DD     		ble	.L89
 1017 0014 0723     		movs	r3, #7
 1018              	.L89:
 1019 0016 5EB2     		sxtb	r6, r3
 1020              	.LBB49:
 1021              	.LBB50:
  86:../../../../../../Middlewares/Third_Party/LoRaWAN/Mac/region/RegionRU864.c ****     {
 1022              		.loc 1 86 0
 1023 0018 1A4A     		ldr	r2, .L97
 1024              	.LVL73:
 1025 001a B100     		lsls	r1, r6, #2
 1026              	.LVL74:
 1027              	.LBE50:
 1028              	.LBE49:
 504:../../../../../../Middlewares/Third_Party/LoRaWAN/Mac/region/RegionRU864.c ****     rxConfigParams->Bandwidth = GetBandwidth( rxConfigParams->Datarate );
 1029              		.loc 1 504 0
ARM GAS  C:\Users\EBANO_~1\AppData\Local\Temp\ccazSBuk.s 			page 38


 1030 001c 6370     		strb	r3, [r4, #1]
 1031              	.LVL75:
 1032              	.LBB53:
 1033              	.LBB51:
  86:../../../../../../Middlewares/Third_Party/LoRaWAN/Mac/region/RegionRU864.c ****     {
 1034              		.loc 1 86 0
 1035 001e 1A4F     		ldr	r7, .L97+4
 1036 0020 5358     		ldr	r3, [r2, r1]
 1037 0022 BB42     		cmp	r3, r7
 1038 0024 24D0     		beq	.L95
 1039 0026 194F     		ldr	r7, .L97+8
 1040 0028 BC46     		mov	ip, r7
 1041 002a 6344     		add	r3, r3, ip
 1042 002c 5F42     		rsbs	r7, r3, #0
 1043 002e 7B41     		adcs	r3, r3, r7
 1044 0030 5B00     		lsls	r3, r3, #1
 1045              	.LBE51:
 1046              	.LBE53:
 505:../../../../../../Middlewares/Third_Party/LoRaWAN/Mac/region/RegionRU864.c **** 
 1047              		.loc 1 505 0
 1048 0032 A370     		strb	r3, [r4, #2]
 507:../../../../../../Middlewares/Third_Party/LoRaWAN/Mac/region/RegionRU864.c ****     { // FSK
 1049              		.loc 1 507 0
 1050 0034 0628     		cmp	r0, #6
 1051 0036 1FDC     		bgt	.L96
 1052              	.L93:
 513:../../../../../../Middlewares/Third_Party/LoRaWAN/Mac/region/RegionRU864.c ****     }
 1053              		.loc 1 513 0
 1054 0038 2023     		movs	r3, #32
 1055 003a 5158     		ldr	r1, [r2, r1]
 1056 003c 9219     		adds	r2, r2, r6
 1057 003e D05C     		ldrb	r0, [r2, r3]
 1058              	.LVL76:
 1059 0040 FFF7FEFF 		bl	RegionCommonComputeSymbolTimeLoRa
 1060              	.LVL77:
 1061 0044 0600     		movs	r6, r0
 1062 0046 0F00     		movs	r7, r1
 1063              	.LVL78:
 1064              	.L94:
 516:../../../../../../Middlewares/Third_Party/LoRaWAN/Mac/region/RegionRU864.c **** }
 1065              		.loc 1 516 0
 1066 0048 114B     		ldr	r3, .L97+12
 1067 004a 5B6E     		ldr	r3, [r3, #100]
 1068 004c 0593     		str	r3, [sp, #20]
 1069 004e 9847     		blx	r3
 1070              	.LVL79:
 1071 0050 2300     		movs	r3, r4
 1072 0052 0834     		adds	r4, r4, #8
 1073              	.LVL80:
 1074 0054 0C33     		adds	r3, r3, #12
 1075              	.LVL81:
 1076 0056 0293     		str	r3, [sp, #8]
 1077 0058 0090     		str	r0, [sp]
 1078 005a 0194     		str	r4, [sp, #4]
 1079 005c 4346     		mov	r3, r8
 1080              	.LVL82:
 1081 005e 2A00     		movs	r2, r5
ARM GAS  C:\Users\EBANO_~1\AppData\Local\Temp\ccazSBuk.s 			page 39


 1082 0060 3000     		movs	r0, r6
 1083 0062 3900     		movs	r1, r7
 1084 0064 FFF7FEFF 		bl	RegionCommonComputeRxWindowParameters
 1085              	.LVL83:
 517:../../../../../../Middlewares/Third_Party/LoRaWAN/Mac/region/RegionRU864.c **** 
 1086              		.loc 1 517 0
 1087 0068 06B0     		add	sp, sp, #24
 1088              		@ sp needed
 1089              	.LVL84:
 1090              	.LVL85:
 1091              	.LVL86:
 1092 006a 04BC     		pop	{r2}
 1093 006c 9046     		mov	r8, r2
 1094 006e F0BD     		pop	{r4, r5, r6, r7, pc}
 1095              	.LVL87:
 1096              	.L95:
 1097              	.LBB54:
 1098              	.LBB52:
  86:../../../../../../Middlewares/Third_Party/LoRaWAN/Mac/region/RegionRU864.c ****     {
 1099              		.loc 1 86 0
 1100 0070 0123     		movs	r3, #1
 1101              	.LBE52:
 1102              	.LBE54:
 505:../../../../../../Middlewares/Third_Party/LoRaWAN/Mac/region/RegionRU864.c **** 
 1103              		.loc 1 505 0
 1104 0072 A370     		strb	r3, [r4, #2]
 507:../../../../../../Middlewares/Third_Party/LoRaWAN/Mac/region/RegionRU864.c ****     { // FSK
 1105              		.loc 1 507 0
 1106 0074 0628     		cmp	r0, #6
 1107 0076 DFDD     		ble	.L93
 1108              	.L96:
 509:../../../../../../Middlewares/Third_Party/LoRaWAN/Mac/region/RegionRU864.c ****     }
 1109              		.loc 1 509 0
 1110 0078 3220     		movs	r0, #50
 1111              	.LVL88:
 1112 007a FFF7FEFF 		bl	RegionCommonComputeSymbolTimeFsk
 1113              	.LVL89:
 1114 007e 0600     		movs	r6, r0
 1115 0080 0F00     		movs	r7, r1
 1116              	.LVL90:
 1117 0082 E1E7     		b	.L94
 1118              	.L98:
 1119              		.align	2
 1120              	.L97:
 1121 0084 CC000000 		.word	.LANCHOR2
 1122 0088 90D00300 		.word	250000
 1123 008c E05EF8FF 		.word	-500000
 1124 0090 00000000 		.word	Radio
 1125              		.cfi_endproc
 1126              	.LFE51:
 1127              		.size	RegionRU864ComputeRxWindowParameters, .-RegionRU864ComputeRxWindowParameters
 1128              		.section	.text.RegionRU864RxConfig,"ax",%progbits
 1129              		.align	1
 1130              		.p2align 2,,3
 1131              		.global	RegionRU864RxConfig
 1132              		.syntax unified
 1133              		.code	16
ARM GAS  C:\Users\EBANO_~1\AppData\Local\Temp\ccazSBuk.s 			page 40


 1134              		.thumb_func
 1135              		.fpu softvfp
 1136              		.type	RegionRU864RxConfig, %function
 1137              	RegionRU864RxConfig:
 1138              	.LFB52:
 520:../../../../../../Middlewares/Third_Party/LoRaWAN/Mac/region/RegionRU864.c ****     RadioModems_t modem;
 1139              		.loc 1 520 0
 1140              		.cfi_startproc
 1141              		@ args = 0, pretend = 0, frame = 8
 1142              		@ frame_needed = 0, uses_anonymous_args = 0
 1143              	.LVL91:
 1144 0000 F0B5     		push	{r4, r5, r6, r7, lr}
 1145              	.LCFI13:
 1146              		.cfi_def_cfa_offset 20
 1147              		.cfi_offset 4, -20
 1148              		.cfi_offset 5, -16
 1149              		.cfi_offset 6, -12
 1150              		.cfi_offset 7, -8
 1151              		.cfi_offset 14, -4
 1152 0002 D646     		mov	lr, r10
 1153 0004 4646     		mov	r6, r8
 1154 0006 4F46     		mov	r7, r9
 1155 0008 C0B5     		push	{r6, r7, lr}
 1156              	.LCFI14:
 1157              		.cfi_def_cfa_offset 32
 1158              		.cfi_offset 8, -32
 1159              		.cfi_offset 9, -28
 1160              		.cfi_offset 10, -24
 522:../../../../../../Middlewares/Third_Party/LoRaWAN/Mac/region/RegionRU864.c ****     uint8_t maxPayload = 0;
 1161              		.loc 1 522 0
 1162 000a 0126     		movs	r6, #1
 525:../../../../../../Middlewares/Third_Party/LoRaWAN/Mac/region/RegionRU864.c **** 
 1163              		.loc 1 525 0
 1164 000c 4368     		ldr	r3, [r0, #4]
 527:../../../../../../Middlewares/Third_Party/LoRaWAN/Mac/region/RegionRU864.c ****     {
 1165              		.loc 1 527 0
 1166 000e 394D     		ldr	r5, .L109
 525:../../../../../../Middlewares/Third_Party/LoRaWAN/Mac/region/RegionRU864.c **** 
 1167              		.loc 1 525 0
 1168 0010 9846     		mov	r8, r3
 527:../../../../../../Middlewares/Third_Party/LoRaWAN/Mac/region/RegionRU864.c ****     {
 1169              		.loc 1 527 0
 1170 0012 EB68     		ldr	r3, [r5, #12]
 520:../../../../../../Middlewares/Third_Party/LoRaWAN/Mac/region/RegionRU864.c ****     RadioModems_t modem;
 1171              		.loc 1 520 0
 1172 0014 8CB0     		sub	sp, sp, #48
 1173              	.LCFI15:
 1174              		.cfi_def_cfa_offset 80
 522:../../../../../../Middlewares/Third_Party/LoRaWAN/Mac/region/RegionRU864.c ****     uint8_t maxPayload = 0;
 1175              		.loc 1 522 0
 1176 0016 8657     		ldrsb	r6, [r0, r6]
 1177              	.LVL92:
 520:../../../../../../Middlewares/Third_Party/LoRaWAN/Mac/region/RegionRU864.c ****     RadioModems_t modem;
 1178              		.loc 1 520 0
 1179 0018 0400     		movs	r4, r0
 527:../../../../../../Middlewares/Third_Party/LoRaWAN/Mac/region/RegionRU864.c ****     {
 1180              		.loc 1 527 0
ARM GAS  C:\Users\EBANO_~1\AppData\Local\Temp\ccazSBuk.s 			page 41


 1181 001a 0B93     		str	r3, [sp, #44]
 520:../../../../../../Middlewares/Third_Party/LoRaWAN/Mac/region/RegionRU864.c ****     RadioModems_t modem;
 1182              		.loc 1 520 0
 1183 001c 8A46     		mov	r10, r1
 527:../../../../../../Middlewares/Third_Party/LoRaWAN/Mac/region/RegionRU864.c ****     {
 1184              		.loc 1 527 0
 1185 001e 9847     		blx	r3
 1186              	.LVL93:
 529:../../../../../../Middlewares/Third_Party/LoRaWAN/Mac/region/RegionRU864.c ****     }
 1187              		.loc 1 529 0
 1188 0020 0023     		movs	r3, #0
 527:../../../../../../Middlewares/Third_Party/LoRaWAN/Mac/region/RegionRU864.c ****     {
 1189              		.loc 1 527 0
 1190 0022 0028     		cmp	r0, #0
 1191 0024 3ED1     		bne	.L100
 532:../../../../../../Middlewares/Third_Party/LoRaWAN/Mac/region/RegionRU864.c ****     {
 1192              		.loc 1 532 0
 1193 0026 E37C     		ldrb	r3, [r4, #19]
 1194 0028 002B     		cmp	r3, #0
 1195 002a 0AD1     		bne	.L101
 535:../../../../../../Middlewares/Third_Party/LoRaWAN/Mac/region/RegionRU864.c ****         // Apply the alternative RX 1 window frequency, if it is available
 1196              		.loc 1 535 0
 1197 002c 2178     		ldrb	r1, [r4]
 1198 002e 324A     		ldr	r2, .L109+4
 1199 0030 4B00     		lsls	r3, r1, #1
 1200 0032 5B18     		adds	r3, r3, r1
 1201 0034 9B00     		lsls	r3, r3, #2
 1202 0036 9958     		ldr	r1, [r3, r2]
 1203              	.LVL94:
 537:../../../../../../Middlewares/Third_Party/LoRaWAN/Mac/region/RegionRU864.c ****         {
 1204              		.loc 1 537 0
 1205 0038 D318     		adds	r3, r2, r3
 1206 003a 5B68     		ldr	r3, [r3, #4]
 1207 003c 9846     		mov	r8, r3
 1208 003e 002B     		cmp	r3, #0
 1209 0040 56D0     		beq	.L107
 1210              	.LVL95:
 1211              	.L101:
 544:../../../../../../Middlewares/Third_Party/LoRaWAN/Mac/region/RegionRU864.c **** 
 1212              		.loc 1 544 0
 1213 0042 2022     		movs	r2, #32
 1214 0044 2D4B     		ldr	r3, .L109+8
 546:../../../../../../Middlewares/Third_Party/LoRaWAN/Mac/region/RegionRU864.c **** 
 1215              		.loc 1 546 0
 1216 0046 4046     		mov	r0, r8
 544:../../../../../../Middlewares/Third_Party/LoRaWAN/Mac/region/RegionRU864.c **** 
 1217              		.loc 1 544 0
 1218 0048 9B19     		adds	r3, r3, r6
 1219 004a 9B56     		ldrsb	r3, [r3, r2]
 1220 004c 9946     		mov	r9, r3
 1221              	.LVL96:
 546:../../../../../../Middlewares/Third_Party/LoRaWAN/Mac/region/RegionRU864.c **** 
 1222              		.loc 1 546 0
 1223 004e 6B69     		ldr	r3, [r5, #20]
 1224 0050 0B93     		str	r3, [sp, #44]
 1225 0052 9847     		blx	r3
 1226              	.LVL97:
ARM GAS  C:\Users\EBANO_~1\AppData\Local\Temp\ccazSBuk.s 			page 42


 1227 0054 2B6A     		ldr	r3, [r5, #32]
 1228 0056 0B93     		str	r3, [sp, #44]
 1229 0058 1F00     		movs	r7, r3
 549:../../../../../../Middlewares/Third_Party/LoRaWAN/Mac/region/RegionRU864.c ****     {
 1230              		.loc 1 549 0
 1231 005a 072E     		cmp	r6, #7
 1232 005c 2CD0     		beq	.L108
 1233              	.LVL98:
 557:../../../../../../Middlewares/Third_Party/LoRaWAN/Mac/region/RegionRU864.c ****     }
 1234              		.loc 1 557 0
 1235 005e A37C     		ldrb	r3, [r4, #18]
 1236 0060 2289     		ldrh	r2, [r4, #8]
 1237 0062 0993     		str	r3, [sp, #36]
 1238 0064 0123     		movs	r3, #1
 1239 0066 0292     		str	r2, [sp, #8]
 1240 0068 0893     		str	r3, [sp, #32]
 1241 006a 0822     		movs	r2, #8
 1242 006c 0023     		movs	r3, #0
 1243 006e 0192     		str	r2, [sp, #4]
 1244 0070 0793     		str	r3, [sp, #28]
 1245 0072 0693     		str	r3, [sp, #24]
 1246 0074 0593     		str	r3, [sp, #20]
 1247 0076 0493     		str	r3, [sp, #16]
 1248 0078 0393     		str	r3, [sp, #12]
 1249 007a 0093     		str	r3, [sp]
 1250 007c 0120     		movs	r0, #1
 1251 007e A178     		ldrb	r1, [r4, #2]
 1252 0080 0133     		adds	r3, r3, #1
 1253 0082 4A46     		mov	r2, r9
 1254 0084 B847     		blx	r7
 1255              	.LVL99:
 556:../../../../../../Middlewares/Third_Party/LoRaWAN/Mac/region/RegionRU864.c ****         Radio.SetRxConfig( modem, rxConfig->Bandwidth, phyDr, 1, 0, 8, rxConfig->WindowTimeout, fal
 1256              		.loc 1 556 0
 1257 0086 0120     		movs	r0, #1
 1258              	.LVL100:
 1259              	.L103:
 560:../../../../../../Middlewares/Third_Party/LoRaWAN/Mac/region/RegionRU864.c ****     {
 1260              		.loc 1 560 0
 1261 0088 637C     		ldrb	r3, [r4, #17]
 1262 008a 002B     		cmp	r3, #0
 1263 008c 11D0     		beq	.L104
 562:../../../../../../Middlewares/Third_Party/LoRaWAN/Mac/region/RegionRU864.c ****     }
 1264              		.loc 1 562 0
 1265 008e 1C4B     		ldr	r3, .L109+12
 1266 0090 9B19     		adds	r3, r3, r6
 1267 0092 197A     		ldrb	r1, [r3, #8]
 1268              	.LVL101:
 1269              	.L105:
 569:../../../../../../Middlewares/Third_Party/LoRaWAN/Mac/region/RegionRU864.c ****     TVL1( PRINTF( "RX on freq %d Hz at DR %d\n\r", frequency, dr );)
 1270              		.loc 1 569 0
 1271 0094 EB6D     		ldr	r3, [r5, #92]
 1272 0096 0D31     		adds	r1, r1, #13
 1273              	.LVL102:
 1274 0098 C9B2     		uxtb	r1, r1
 1275 009a 0B93     		str	r3, [sp, #44]
 1276 009c 9847     		blx	r3
 1277              	.LVL103:
ARM GAS  C:\Users\EBANO_~1\AppData\Local\Temp\ccazSBuk.s 			page 43


 572:../../../../../../Middlewares/Third_Party/LoRaWAN/Mac/region/RegionRU864.c ****     return true;
 1278              		.loc 1 572 0
 1279 009e 5346     		mov	r3, r10
 1280 00a0 1E70     		strb	r6, [r3]
 573:../../../../../../Middlewares/Third_Party/LoRaWAN/Mac/region/RegionRU864.c **** }
 1281              		.loc 1 573 0
 1282 00a2 0123     		movs	r3, #1
 1283              	.LVL104:
 1284              	.L100:
 574:../../../../../../Middlewares/Third_Party/LoRaWAN/Mac/region/RegionRU864.c **** 
 1285              		.loc 1 574 0
 1286 00a4 1800     		movs	r0, r3
 1287 00a6 0CB0     		add	sp, sp, #48
 1288              		@ sp needed
 1289              	.LVL105:
 1290              	.LVL106:
 1291              	.LVL107:
 1292              	.LVL108:
 1293 00a8 1CBC     		pop	{r2, r3, r4}
 1294 00aa 9046     		mov	r8, r2
 1295 00ac 9946     		mov	r9, r3
 1296 00ae A246     		mov	r10, r4
 1297 00b0 F0BD     		pop	{r4, r5, r6, r7, pc}
 1298              	.LVL109:
 1299              	.L104:
 566:../../../../../../Middlewares/Third_Party/LoRaWAN/Mac/region/RegionRU864.c ****     }
 1300              		.loc 1 566 0
 1301 00b2 134B     		ldr	r3, .L109+12
 1302 00b4 995D     		ldrb	r1, [r3, r6]
 1303              	.LVL110:
 1304 00b6 EDE7     		b	.L105
 1305              	.LVL111:
 1306              	.L108:
 552:../../../../../../Middlewares/Third_Party/LoRaWAN/Mac/region/RegionRU864.c ****     }
 1307              		.loc 1 552 0
 1308 00b8 4B46     		mov	r3, r9
 1309 00ba 5A01     		lsls	r2, r3, #5
 1310 00bc D21A     		subs	r2, r2, r3
 1311 00be A37C     		ldrb	r3, [r4, #18]
 1312 00c0 0121     		movs	r1, #1
 1313 00c2 0993     		str	r3, [sp, #36]
 1314 00c4 0023     		movs	r3, #0
 1315 00c6 0893     		str	r3, [sp, #32]
 1316 00c8 0793     		str	r3, [sp, #28]
 1317 00ca 0693     		str	r3, [sp, #24]
 1318 00cc 0493     		str	r3, [sp, #16]
 1319 00ce 0393     		str	r3, [sp, #12]
 1320 00d0 2389     		ldrh	r3, [r4, #8]
 1321 00d2 9200     		lsls	r2, r2, #2
 1322 00d4 0293     		str	r3, [sp, #8]
 1323 00d6 0523     		movs	r3, #5
 1324 00d8 0193     		str	r3, [sp, #4]
 1325 00da 0A4B     		ldr	r3, .L109+16
 1326 00dc 4A44     		add	r2, r2, r9
 1327 00de 0591     		str	r1, [sp, #20]
 1328 00e0 0093     		str	r3, [sp]
 1329 00e2 0020     		movs	r0, #0
ARM GAS  C:\Users\EBANO_~1\AppData\Local\Temp\ccazSBuk.s 			page 44


 1330 00e4 D200     		lsls	r2, r2, #3
 1331 00e6 0023     		movs	r3, #0
 1332 00e8 0749     		ldr	r1, .L109+20
 1333 00ea B847     		blx	r7
 1334              	.LVL112:
 551:../../../../../../Middlewares/Third_Party/LoRaWAN/Mac/region/RegionRU864.c ****         Radio.SetRxConfig( modem, 50000, phyDr * 1000, 0, 83333, 5, rxConfig->WindowTimeout, false,
 1335              		.loc 1 551 0
 1336 00ec 0020     		movs	r0, #0
 1337 00ee CBE7     		b	.L103
 1338              	.LVL113:
 1339              	.L107:
 535:../../../../../../Middlewares/Third_Party/LoRaWAN/Mac/region/RegionRU864.c ****         // Apply the alternative RX 1 window frequency, if it is available
 1340              		.loc 1 535 0
 1341 00f0 8846     		mov	r8, r1
 1342 00f2 A6E7     		b	.L101
 1343              	.L110:
 1344              		.align	2
 1345              	.L109:
 1346 00f4 00000000 		.word	Radio
 1347 00f8 00000000 		.word	.LANCHOR1
 1348 00fc CC000000 		.word	.LANCHOR2
 1349 0100 F4000000 		.word	.LANCHOR0
 1350 0104 85450100 		.word	83333
 1351 0108 50C30000 		.word	50000
 1352              		.cfi_endproc
 1353              	.LFE52:
 1354              		.size	RegionRU864RxConfig, .-RegionRU864RxConfig
 1355              		.section	.text.RegionRU864TxConfig,"ax",%progbits
 1356              		.align	1
 1357              		.p2align 2,,3
 1358              		.global	RegionRU864TxConfig
 1359              		.syntax unified
 1360              		.code	16
 1361              		.thumb_func
 1362              		.fpu softvfp
 1363              		.type	RegionRU864TxConfig, %function
 1364              	RegionRU864TxConfig:
 1365              	.LFB53:
 577:../../../../../../Middlewares/Third_Party/LoRaWAN/Mac/region/RegionRU864.c ****     RadioModems_t modem;
 1366              		.loc 1 577 0
 1367              		.cfi_startproc
 1368              		@ args = 0, pretend = 0, frame = 8
 1369              		@ frame_needed = 0, uses_anonymous_args = 0
 1370              	.LVL114:
 1371 0000 F0B5     		push	{r4, r5, r6, r7, lr}
 1372              	.LCFI16:
 1373              		.cfi_def_cfa_offset 20
 1374              		.cfi_offset 4, -20
 1375              		.cfi_offset 5, -16
 1376              		.cfi_offset 6, -12
 1377              		.cfi_offset 7, -8
 1378              		.cfi_offset 14, -4
 1379 0002 4546     		mov	r5, r8
 1380 0004 5746     		mov	r7, r10
 1381 0006 4E46     		mov	r6, r9
 1382 0008 DE46     		mov	lr, fp
 1383 000a 9046     		mov	r8, r2
ARM GAS  C:\Users\EBANO_~1\AppData\Local\Temp\ccazSBuk.s 			page 45


 579:../../../../../../Middlewares/Third_Party/LoRaWAN/Mac/region/RegionRU864.c ****     int8_t txPowerLimited = LimitTxPower( txConfig->TxPower, NvmCtx.Bands[NvmCtx.Channels[txConfig-
 1384              		.loc 1 579 0
 1385 000c 0122     		movs	r2, #1
 1386              	.LVL115:
 577:../../../../../../Middlewares/Third_Party/LoRaWAN/Mac/region/RegionRU864.c ****     RadioModems_t modem;
 1387              		.loc 1 577 0
 1388 000e 0400     		movs	r4, r0
 579:../../../../../../Middlewares/Third_Party/LoRaWAN/Mac/region/RegionRU864.c ****     int8_t txPowerLimited = LimitTxPower( txConfig->TxPower, NvmCtx.Bands[NvmCtx.Channels[txConfig-
 1389              		.loc 1 579 0
 1390 0010 2023     		movs	r3, #32
 577:../../../../../../Middlewares/Third_Party/LoRaWAN/Mac/region/RegionRU864.c ****     RadioModems_t modem;
 1391              		.loc 1 577 0
 1392 0012 E0B5     		push	{r5, r6, r7, lr}
 1393              	.LCFI17:
 1394              		.cfi_def_cfa_offset 36
 1395              		.cfi_offset 8, -36
 1396              		.cfi_offset 9, -32
 1397              		.cfi_offset 10, -28
 1398              		.cfi_offset 11, -24
 1399 0014 8DB0     		sub	sp, sp, #52
 1400              	.LCFI18:
 1401              		.cfi_def_cfa_offset 88
 577:../../../../../../Middlewares/Third_Party/LoRaWAN/Mac/region/RegionRU864.c ****     RadioModems_t modem;
 1402              		.loc 1 577 0
 1403 0016 0A91     		str	r1, [sp, #40]
 579:../../../../../../Middlewares/Third_Party/LoRaWAN/Mac/region/RegionRU864.c ****     int8_t txPowerLimited = LimitTxPower( txConfig->TxPower, NvmCtx.Bands[NvmCtx.Channels[txConfig-
 1404              		.loc 1 579 0
 1405 0018 8256     		ldrsb	r2, [r0, r2]
 1406 001a 4149     		ldr	r1, .L120
 1407              	.LVL116:
 580:../../../../../../Middlewares/Third_Party/LoRaWAN/Mac/region/RegionRU864.c ****     uint32_t bandwidth = GetBandwidth( txConfig->Datarate );
 1408              		.loc 1 580 0
 1409 001c 414D     		ldr	r5, .L120+4
 579:../../../../../../Middlewares/Third_Party/LoRaWAN/Mac/region/RegionRU864.c ****     int8_t txPowerLimited = LimitTxPower( txConfig->TxPower, NvmCtx.Bands[NvmCtx.Channels[txConfig-
 1410              		.loc 1 579 0
 1411 001e 8818     		adds	r0, r1, r2
 1412              	.LVL117:
 1413 0020 C656     		ldrsb	r6, [r0, r3]
 1414              	.LVL118:
 580:../../../../../../Middlewares/Third_Party/LoRaWAN/Mac/region/RegionRU864.c ****     uint32_t bandwidth = GetBandwidth( txConfig->Datarate );
 1415              		.loc 1 580 0
 1416 0022 2078     		ldrb	r0, [r4]
 1417              	.LVL119:
 1418 0024 4300     		lsls	r3, r0, #1
 1419 0026 1B18     		adds	r3, r3, r0
 1420              	.LBB55:
 1421              	.LBB56:
 103:../../../../../../Middlewares/Third_Party/LoRaWAN/Mac/region/RegionRU864.c **** 
 1422              		.loc 1 103 0
 1423 0028 A078     		ldrb	r0, [r4, #2]
 1424              	.LVL120:
 1425              	.LBE56:
 1426              	.LBE55:
 580:../../../../../../Middlewares/Third_Party/LoRaWAN/Mac/region/RegionRU864.c ****     uint32_t bandwidth = GetBandwidth( txConfig->Datarate );
 1427              		.loc 1 580 0
 1428 002a 9B00     		lsls	r3, r3, #2
 1429              	.LBB61:
ARM GAS  C:\Users\EBANO_~1\AppData\Local\Temp\ccazSBuk.s 			page 46


 1430              	.LBB57:
 103:../../../../../../Middlewares/Third_Party/LoRaWAN/Mac/region/RegionRU864.c **** 
 1431              		.loc 1 103 0
 1432 002c 8446     		mov	ip, r0
 1433 002e 6746     		mov	r7, ip
 1434              	.LBE57:
 1435              	.LBE61:
 580:../../../../../../Middlewares/Third_Party/LoRaWAN/Mac/region/RegionRU864.c ****     uint32_t bandwidth = GetBandwidth( txConfig->Datarate );
 1436              		.loc 1 580 0
 1437 0030 EB18     		adds	r3, r5, r3
 1438 0032 5B7A     		ldrb	r3, [r3, #9]
 1439              	.LBB62:
 1440              	.LBB58:
 103:../../../../../../Middlewares/Third_Party/LoRaWAN/Mac/region/RegionRU864.c **** 
 1441              		.loc 1 103 0
 1442 0034 7FB2     		sxtb	r7, r7
 1443              	.LBE58:
 1444              	.LBE62:
 580:../../../../../../Middlewares/Third_Party/LoRaWAN/Mac/region/RegionRU864.c ****     uint32_t bandwidth = GetBandwidth( txConfig->Datarate );
 1445              		.loc 1 580 0
 1446 0036 0633     		adds	r3, r3, #6
 1447 0038 1B01     		lsls	r3, r3, #4
 1448 003a EB18     		adds	r3, r5, r3
 1449              	.LBB63:
 1450              	.LBB59:
 103:../../../../../../Middlewares/Third_Party/LoRaWAN/Mac/region/RegionRU864.c **** 
 1451              		.loc 1 103 0
 1452 003c 9B78     		ldrb	r3, [r3, #2]
 1453 003e 181C     		adds	r0, r3, #0
 1454 0040 5BB2     		sxtb	r3, r3
 1455 0042 BB42     		cmp	r3, r7
 1456 0044 00DA     		bge	.L112
 1457 0046 6046     		mov	r0, ip
 1458              	.L112:
 1459 0048 43B2     		sxtb	r3, r0
 1460              	.LBE59:
 1461              	.LBE63:
 1462              	.LBB64:
 1463              	.LBB65:
  86:../../../../../../Middlewares/Third_Party/LoRaWAN/Mac/region/RegionRU864.c ****     {
 1464              		.loc 1 86 0
 1465 004a 9200     		lsls	r2, r2, #2
 1466              	.LVL121:
 1467              	.LBE65:
 1468              	.LBE64:
 1469              	.LBB68:
 1470              	.LBB60:
 103:../../../../../../Middlewares/Third_Party/LoRaWAN/Mac/region/RegionRU864.c **** 
 1471              		.loc 1 103 0
 1472 004c 9946     		mov	r9, r3
 1473              	.LVL122:
 1474              	.LBE60:
 1475              	.LBE68:
 1476              	.LBB69:
 1477              	.LBB66:
  86:../../../../../../Middlewares/Third_Party/LoRaWAN/Mac/region/RegionRU864.c ****     {
 1478              		.loc 1 86 0
ARM GAS  C:\Users\EBANO_~1\AppData\Local\Temp\ccazSBuk.s 			page 47


 1479 004e 8B58     		ldr	r3, [r1, r2]
 1480 0050 354A     		ldr	r2, .L120+8
 1481 0052 9342     		cmp	r3, r2
 1482 0054 46D0     		beq	.L118
  90:../../../../../../Middlewares/Third_Party/LoRaWAN/Mac/region/RegionRU864.c ****         case 250000:
 1483              		.loc 1 90 0
 1484 0056 354A     		ldr	r2, .L120+12
 1485 0058 9446     		mov	ip, r2
 1486 005a 6344     		add	r3, r3, ip
 1487 005c 5A42     		rsbs	r2, r3, #0
 1488 005e 5341     		adcs	r3, r3, r2
 1489 0060 5B00     		lsls	r3, r3, #1
 1490 0062 9A46     		mov	r10, r3
 1491              	.L114:
 1492              	.LVL123:
 1493              	.LBE66:
 1494              	.LBE69:
 585:../../../../../../Middlewares/Third_Party/LoRaWAN/Mac/region/RegionRU864.c **** 
 1495              		.loc 1 585 0
 1496 0064 A268     		ldr	r2, [r4, #8]
 1497 0066 6168     		ldr	r1, [r4, #4]
 1498 0068 4846     		mov	r0, r9
 1499 006a FFF7FEFF 		bl	RegionCommonComputeTxPower
 1500              	.LVL124:
 588:../../../../../../Middlewares/Third_Party/LoRaWAN/Mac/region/RegionRU864.c **** 
 1501              		.loc 1 588 0
 1502 006e 2278     		ldrb	r2, [r4]
 585:../../../../../../Middlewares/Third_Party/LoRaWAN/Mac/region/RegionRU864.c **** 
 1503              		.loc 1 585 0
 1504 0070 8346     		mov	fp, r0
 1505              	.LVL125:
 588:../../../../../../Middlewares/Third_Party/LoRaWAN/Mac/region/RegionRU864.c **** 
 1506              		.loc 1 588 0
 1507 0072 5300     		lsls	r3, r2, #1
 1508 0074 9B18     		adds	r3, r3, r2
 1509 0076 9B00     		lsls	r3, r3, #2
 1510 0078 E858     		ldr	r0, [r5, r3]
 1511 007a 2D4D     		ldr	r5, .L120+16
 1512 007c 6B69     		ldr	r3, [r5, #20]
 1513 007e 0B93     		str	r3, [sp, #44]
 1514 0080 9847     		blx	r3
 1515              	.LVL126:
 1516 0082 6B6A     		ldr	r3, [r5, #36]
 1517 0084 0B93     		str	r3, [sp, #44]
 590:../../../../../../Middlewares/Third_Party/LoRaWAN/Mac/region/RegionRU864.c ****     { // High Speed FSK channel
 1518              		.loc 1 590 0
 1519 0086 0123     		movs	r3, #1
 1520 0088 E356     		ldrsb	r3, [r4, r3]
 1521 008a 072B     		cmp	r3, #7
 1522 008c 2DD0     		beq	.L119
 1523              	.LVL127:
 598:../../../../../../Middlewares/Third_Party/LoRaWAN/Mac/region/RegionRU864.c ****     }
 1524              		.loc 1 598 0
 1525 008e 294B     		ldr	r3, .L120+20
 1526 0090 0122     		movs	r2, #1
 1527 0092 0893     		str	r3, [sp, #32]
 1528 0094 0023     		movs	r3, #0
ARM GAS  C:\Users\EBANO_~1\AppData\Local\Temp\ccazSBuk.s 			page 48


 1529 0096 0793     		str	r3, [sp, #28]
 1530 0098 0693     		str	r3, [sp, #24]
 1531 009a 0593     		str	r3, [sp, #20]
 1532 009c 0393     		str	r3, [sp, #12]
 1533 009e 0833     		adds	r3, r3, #8
 1534 00a0 0492     		str	r2, [sp, #16]
 1535 00a2 0293     		str	r3, [sp, #8]
 1536 00a4 0192     		str	r2, [sp, #4]
 1537 00a6 0096     		str	r6, [sp]
 1538 00a8 5346     		mov	r3, r10
 1539 00aa 0B9E     		ldr	r6, [sp, #44]
 1540              	.LVL128:
 1541 00ac 0022     		movs	r2, #0
 1542 00ae 5946     		mov	r1, fp
 1543 00b0 0120     		movs	r0, #1
 1544 00b2 B047     		blx	r6
 1545              	.LVL129:
 597:../../../../../../Middlewares/Third_Party/LoRaWAN/Mac/region/RegionRU864.c ****         Radio.SetTxConfig( modem, phyTxPower, 0, bandwidth, phyDr, 1, 8, false, true, 0, 0, false, 
 1546              		.loc 1 597 0
 1547 00b4 0126     		movs	r6, #1
 1548              	.LVL130:
 1549              	.L117:
 602:../../../../../../Middlewares/Third_Party/LoRaWAN/Mac/region/RegionRU864.c ****     // Get the time-on-air of the next tx frame
 1550              		.loc 1 602 0
 1551 00b6 EB6D     		ldr	r3, [r5, #92]
 1552 00b8 217B     		ldrb	r1, [r4, #12]
 1553 00ba 3000     		movs	r0, r6
 1554 00bc 0B93     		str	r3, [sp, #44]
 1555 00be 9847     		blx	r3
 1556              	.LVL131:
 604:../../../../../../Middlewares/Third_Party/LoRaWAN/Mac/region/RegionRU864.c **** 
 1557              		.loc 1 604 0
 1558 00c0 EB6A     		ldr	r3, [r5, #44]
 1559 00c2 217B     		ldrb	r1, [r4, #12]
 1560 00c4 3000     		movs	r0, r6
 1561 00c6 0B93     		str	r3, [sp, #44]
 1562 00c8 9847     		blx	r3
 1563              	.LVL132:
 1564 00ca 4346     		mov	r3, r8
 1565 00cc 1860     		str	r0, [r3]
 606:../../../../../../Middlewares/Third_Party/LoRaWAN/Mac/region/RegionRU864.c ****     return true;
 1566              		.loc 1 606 0
 1567 00ce 4B46     		mov	r3, r9
 608:../../../../../../Middlewares/Third_Party/LoRaWAN/Mac/region/RegionRU864.c **** 
 1568              		.loc 1 608 0
 1569 00d0 0120     		movs	r0, #1
 606:../../../../../../Middlewares/Third_Party/LoRaWAN/Mac/region/RegionRU864.c ****     return true;
 1570              		.loc 1 606 0
 1571 00d2 0A9A     		ldr	r2, [sp, #40]
 1572 00d4 1370     		strb	r3, [r2]
 608:../../../../../../Middlewares/Third_Party/LoRaWAN/Mac/region/RegionRU864.c **** 
 1573              		.loc 1 608 0
 1574 00d6 0DB0     		add	sp, sp, #52
 1575              		@ sp needed
 1576              	.LVL133:
 1577              	.LVL134:
 1578              	.LVL135:
ARM GAS  C:\Users\EBANO_~1\AppData\Local\Temp\ccazSBuk.s 			page 49


 1579              	.LVL136:
 1580 00d8 3CBC     		pop	{r2, r3, r4, r5}
 1581 00da 9046     		mov	r8, r2
 1582 00dc 9946     		mov	r9, r3
 1583 00de A246     		mov	r10, r4
 1584 00e0 AB46     		mov	fp, r5
 1585 00e2 F0BD     		pop	{r4, r5, r6, r7, pc}
 1586              	.LVL137:
 1587              	.L118:
 1588              	.LBB70:
 1589              	.LBB67:
  92:../../../../../../Middlewares/Third_Party/LoRaWAN/Mac/region/RegionRU864.c ****         case 500000:
 1590              		.loc 1 92 0
 1591 00e4 0123     		movs	r3, #1
 1592              	.LVL138:
 1593 00e6 9A46     		mov	r10, r3
 1594 00e8 BCE7     		b	.L114
 1595              	.LVL139:
 1596              	.L119:
 1597              	.LBE67:
 1598              	.LBE70:
 593:../../../../../../Middlewares/Third_Party/LoRaWAN/Mac/region/RegionRU864.c ****     }
 1599              		.loc 1 593 0
 1600 00ea 124B     		ldr	r3, .L120+20
 1601 00ec 0122     		movs	r2, #1
 1602 00ee 0893     		str	r3, [sp, #32]
 1603 00f0 0023     		movs	r3, #0
 1604 00f2 0793     		str	r3, [sp, #28]
 1605 00f4 0693     		str	r3, [sp, #24]
 1606 00f6 0593     		str	r3, [sp, #20]
 1607 00f8 0393     		str	r3, [sp, #12]
 1608 00fa 0193     		str	r3, [sp, #4]
 1609 00fc 7301     		lsls	r3, r6, #5
 1610 00fe 9B1B     		subs	r3, r3, r6
 1611 0100 9B00     		lsls	r3, r3, #2
 1612 0102 9E19     		adds	r6, r3, r6
 1613              	.LVL140:
 1614 0104 0492     		str	r2, [sp, #16]
 1615 0106 F600     		lsls	r6, r6, #3
 1616 0108 0432     		adds	r2, r2, #4
 1617 010a 0292     		str	r2, [sp, #8]
 1618 010c 0096     		str	r6, [sp]
 1619 010e 5346     		mov	r3, r10
 1620 0110 0B9E     		ldr	r6, [sp, #44]
 1621 0112 094A     		ldr	r2, .L120+24
 1622 0114 5946     		mov	r1, fp
 1623 0116 0020     		movs	r0, #0
 1624 0118 B047     		blx	r6
 1625              	.LVL141:
 592:../../../../../../Middlewares/Third_Party/LoRaWAN/Mac/region/RegionRU864.c ****         Radio.SetTxConfig( modem, phyTxPower, 25000, bandwidth, phyDr * 1000, 0, 5, false, true, 0,
 1626              		.loc 1 592 0
 1627 011a 0026     		movs	r6, #0
 1628 011c CBE7     		b	.L117
 1629              	.L121:
 1630 011e C046     		.align	2
 1631              	.L120:
 1632 0120 CC000000 		.word	.LANCHOR2
ARM GAS  C:\Users\EBANO_~1\AppData\Local\Temp\ccazSBuk.s 			page 50


 1633 0124 00000000 		.word	.LANCHOR1
 1634 0128 90D00300 		.word	250000
 1635 012c E05EF8FF 		.word	-500000
 1636 0130 00000000 		.word	Radio
 1637 0134 B80B0000 		.word	3000
 1638 0138 A8610000 		.word	25000
 1639              		.cfi_endproc
 1640              	.LFE53:
 1641              		.size	RegionRU864TxConfig, .-RegionRU864TxConfig
 1642              		.section	.text.RegionRU864LinkAdrReq,"ax",%progbits
 1643              		.align	1
 1644              		.p2align 2,,3
 1645              		.global	RegionRU864LinkAdrReq
 1646              		.syntax unified
 1647              		.code	16
 1648              		.thumb_func
 1649              		.fpu softvfp
 1650              		.type	RegionRU864LinkAdrReq, %function
 1651              	RegionRU864LinkAdrReq:
 1652              	.LFB54:
 611:../../../../../../Middlewares/Third_Party/LoRaWAN/Mac/region/RegionRU864.c ****     uint8_t status = 0x07;
 1653              		.loc 1 611 0
 1654              		.cfi_startproc
 1655              		@ args = 4, pretend = 0, frame = 56
 1656              		@ frame_needed = 0, uses_anonymous_args = 0
 1657              	.LVL142:
 1658 0000 F0B5     		push	{r4, r5, r6, r7, lr}
 1659              	.LCFI19:
 1660              		.cfi_def_cfa_offset 20
 1661              		.cfi_offset 4, -20
 1662              		.cfi_offset 5, -16
 1663              		.cfi_offset 6, -12
 1664              		.cfi_offset 7, -8
 1665              		.cfi_offset 14, -4
 1666 0002 5746     		mov	r7, r10
 1667 0004 4E46     		mov	r6, r9
 1668 0006 4546     		mov	r5, r8
 1669 0008 DE46     		mov	lr, fp
 1670 000a E0B5     		push	{r5, r6, r7, lr}
 1671              	.LCFI20:
 1672              		.cfi_def_cfa_offset 36
 1673              		.cfi_offset 8, -36
 1674              		.cfi_offset 9, -32
 1675              		.cfi_offset 10, -28
 1676              		.cfi_offset 11, -24
 1677 000c 8FB0     		sub	sp, sp, #60
 1678              	.LCFI21:
 1679              		.cfi_def_cfa_offset 96
 611:../../../../../../Middlewares/Third_Party/LoRaWAN/Mac/region/RegionRU864.c ****     uint8_t status = 0x07;
 1680              		.loc 1 611 0
 1681 000e 0193     		str	r3, [sp, #4]
 616:../../../../../../Middlewares/Third_Party/LoRaWAN/Mac/region/RegionRU864.c ****     GetPhyParams_t getPhy;
 1682              		.loc 1 616 0
 1683 0010 02AB     		add	r3, sp, #8
 1684              	.LVL143:
 1685 0012 9F1D     		adds	r7, r3, #6
 1686 0014 0023     		movs	r3, #0
ARM GAS  C:\Users\EBANO_~1\AppData\Local\Temp\ccazSBuk.s 			page 51


 1687 0016 3B80     		strh	r3, [r7]
 612:../../../../../../Middlewares/Third_Party/LoRaWAN/Mac/region/RegionRU864.c ****     RegionCommonLinkAdrParams_t linkAdrParams;
 1688              		.loc 1 612 0
 1689 0018 0733     		adds	r3, r3, #7
 1690 001a 9846     		mov	r8, r3
 1691 001c 7F4B     		ldr	r3, .L192
 611:../../../../../../Middlewares/Third_Party/LoRaWAN/Mac/region/RegionRU864.c ****     uint8_t status = 0x07;
 1692              		.loc 1 611 0
 1693 001e 0600     		movs	r6, r0
 1694 0020 8B46     		mov	fp, r1
 1695 0022 9246     		mov	r10, r2
 615:../../../../../../Middlewares/Third_Party/LoRaWAN/Mac/region/RegionRU864.c ****     uint16_t chMask = 0;
 1696              		.loc 1 615 0
 1697 0024 0024     		movs	r4, #0
 1698 0026 9946     		mov	r9, r3
 1699 0028 04AD     		add	r5, sp, #16
 1700              	.LVL144:
 1701              	.L123:
 621:../../../../../../Middlewares/Third_Party/LoRaWAN/Mac/region/RegionRU864.c ****     {
 1702              		.loc 1 621 0
 1703 002a 337A     		ldrb	r3, [r6, #8]
 1704 002c A342     		cmp	r3, r4
 1705 002e 4DD9     		bls	.L150
 1706              	.L149:
 624:../../../../../../Middlewares/Third_Party/LoRaWAN/Mac/region/RegionRU864.c **** 
 1707              		.loc 1 624 0
 1708 0030 7368     		ldr	r3, [r6, #4]
 1709 0032 2900     		movs	r1, r5
 1710 0034 1819     		adds	r0, r3, r4
 1711 0036 FFF7FEFF 		bl	RegionCommonParseLinkAdrReq
 1712              	.LVL145:
 626:../../../../../../Middlewares/Third_Party/LoRaWAN/Mac/region/RegionRU864.c ****             break; // break loop, since no more request has been found
 1713              		.loc 1 626 0
 1714 003a 0028     		cmp	r0, #0
 1715 003c 46D0     		beq	.L150
 636:../../../../../../Middlewares/Third_Party/LoRaWAN/Mac/region/RegionRU864.c **** 
 1716              		.loc 1 636 0
 1717 003e AB88     		ldrh	r3, [r5, #4]
 630:../../../../../../Middlewares/Third_Party/LoRaWAN/Mac/region/RegionRU864.c **** 
 1718              		.loc 1 630 0
 1719 0040 2418     		adds	r4, r4, r0
 1720              	.LVL146:
 636:../../../../../../Middlewares/Third_Party/LoRaWAN/Mac/region/RegionRU864.c **** 
 1721              		.loc 1 636 0
 1722 0042 3B80     		strh	r3, [r7]
 639:../../../../../../Middlewares/Third_Party/LoRaWAN/Mac/region/RegionRU864.c ****         {
 1723              		.loc 1 639 0
 1724 0044 EA78     		ldrb	r2, [r5, #3]
 630:../../../../../../Middlewares/Third_Party/LoRaWAN/Mac/region/RegionRU864.c **** 
 1725              		.loc 1 630 0
 1726 0046 E4B2     		uxtb	r4, r4
 1727              	.LVL147:
 636:../../../../../../Middlewares/Third_Party/LoRaWAN/Mac/region/RegionRU864.c **** 
 1728              		.loc 1 636 0
 1729 0048 181C     		adds	r0, r3, #0
 1730              	.LVL148:
 639:../../../../../../Middlewares/Third_Party/LoRaWAN/Mac/region/RegionRU864.c ****         {
ARM GAS  C:\Users\EBANO_~1\AppData\Local\Temp\ccazSBuk.s 			page 52


 1731              		.loc 1 639 0
 1732 004a 002A     		cmp	r2, #0
 1733 004c 00D0     		beq	.LCB1605
 1734 004e 79E0     		b	.L127	@long jump
 1735              	.LCB1605:
 1736              	.LBB76:
 665:../../../../../../Middlewares/Third_Party/LoRaWAN/Mac/region/RegionRU864.c ****                     }
 1737              		.loc 1 665 0 discriminator 1
 1738 0050 0632     		adds	r2, r2, #6
 1739 0052 9046     		mov	r8, r2
 1740              	.LBE76:
 639:../../../../../../Middlewares/Third_Party/LoRaWAN/Mac/region/RegionRU864.c ****         {
 1741              		.loc 1 639 0 discriminator 1
 1742 0054 002B     		cmp	r3, #0
 1743 0056 E8D0     		beq	.L123
 1744              	.LVL149:
 1745              	.LBB77:
 662:../../../../../../Middlewares/Third_Party/LoRaWAN/Mac/region/RegionRU864.c ****                         ( NvmCtx.Channels[i].Frequency == 0 ) )
 1746              		.loc 1 662 0
 1747 0058 0722     		movs	r2, #7
 1748 005a 9046     		mov	r8, r2
 1749 005c DA07     		lsls	r2, r3, #31
 1750 005e 00D5     		bpl	.LCB1621
 1751 0060 B4E0     		b	.L189	@long jump
 1752              	.LCB1621:
 1753              	.L131:
 1754              	.LVL150:
 1755 0062 9A07     		lsls	r2, r3, #30
 1756 0064 04D5     		bpl	.L133
 1757 0066 4A46     		mov	r2, r9
 1758 0068 D268     		ldr	r2, [r2, #12]
 1759 006a 002A     		cmp	r2, #0
 1760 006c 00D1     		bne	.LCB1634
 1761 006e D1E0     		b	.L168	@long jump
 1762              	.LCB1634:
 1763              	.LVL151:
 1764              	.L133:
 1765 0070 5A07     		lsls	r2, r3, #29
 1766 0072 04D5     		bpl	.L135
 1767 0074 4A46     		mov	r2, r9
 1768 0076 9269     		ldr	r2, [r2, #24]
 1769 0078 002A     		cmp	r2, #0
 1770 007a 00D1     		bne	.LCB1648
 1771 007c C7E0     		b	.L169	@long jump
 1772              	.LCB1648:
 1773              	.LVL152:
 1774              	.L135:
 1775 007e 1A07     		lsls	r2, r3, #28
 1776 0080 04D5     		bpl	.L138
 1777 0082 4A46     		mov	r2, r9
 1778 0084 526A     		ldr	r2, [r2, #36]
 1779 0086 002A     		cmp	r2, #0
 1780 0088 00D1     		bne	.LCB1662
 1781 008a BDE0     		b	.L170	@long jump
 1782              	.LCB1662:
 1783              	.LVL153:
 1784              	.L138:
ARM GAS  C:\Users\EBANO_~1\AppData\Local\Temp\ccazSBuk.s 			page 53


 1785 008c DA06     		lsls	r2, r3, #27
 1786 008e 04D5     		bpl	.L141
 1787 0090 4A46     		mov	r2, r9
 1788 0092 126B     		ldr	r2, [r2, #48]
 1789 0094 002A     		cmp	r2, #0
 1790 0096 00D1     		bne	.LCB1676
 1791 0098 B3E0     		b	.L171	@long jump
 1792              	.LCB1676:
 1793              	.LVL154:
 1794              	.L141:
 1795 009a 9A06     		lsls	r2, r3, #26
 1796 009c 04D5     		bpl	.L144
 1797 009e 4A46     		mov	r2, r9
 1798 00a0 D26B     		ldr	r2, [r2, #60]
 1799 00a2 002A     		cmp	r2, #0
 1800 00a4 00D1     		bne	.LCB1690
 1801 00a6 A9E0     		b	.L172	@long jump
 1802              	.LCB1690:
 1803              	.LVL155:
 1804              	.L144:
 1805 00a8 5A06     		lsls	r2, r3, #25
 1806 00aa 04D5     		bpl	.L146
 1807 00ac 4A46     		mov	r2, r9
 1808 00ae 926C     		ldr	r2, [r2, #72]
 1809 00b0 002A     		cmp	r2, #0
 1810 00b2 00D1     		bne	.LCB1704
 1811 00b4 9FE0     		b	.L173	@long jump
 1812              	.LCB1704:
 1813              	.LVL156:
 1814              	.L146:
 1815 00b6 1B06     		lsls	r3, r3, #24
 1816 00b8 B7D5     		bpl	.L123
 1817 00ba 4B46     		mov	r3, r9
 1818 00bc 5B6D     		ldr	r3, [r3, #84]
 1819 00be 002B     		cmp	r3, #0
 1820 00c0 B3D1     		bne	.L123
 665:../../../../../../Middlewares/Third_Party/LoRaWAN/Mac/region/RegionRU864.c ****                     }
 1821              		.loc 1 665 0
 1822 00c2 0623     		movs	r3, #6
 1823 00c4 9846     		mov	r8, r3
 1824              	.LVL157:
 1825              	.LBE77:
 621:../../../../../../Middlewares/Third_Party/LoRaWAN/Mac/region/RegionRU864.c ****     {
 1826              		.loc 1 621 0
 1827 00c6 337A     		ldrb	r3, [r6, #8]
 1828 00c8 A342     		cmp	r3, r4
 1829 00ca B1D8     		bhi	.L149
 1830              	.LVL158:
 1831              	.L150:
 677:../../../../../../Middlewares/Third_Party/LoRaWAN/Mac/region/RegionRU864.c ****     linkAdrVerifyParams.AdrEnabled = linkAdrReq->AdrEnabled;
 1832              		.loc 1 677 0
 1833 00cc 4346     		mov	r3, r8
 1834 00ce 06A8     		add	r0, sp, #24
 1835 00d0 0371     		strb	r3, [r0, #4]
 678:../../../../../../Middlewares/Third_Party/LoRaWAN/Mac/region/RegionRU864.c ****     linkAdrVerifyParams.Datarate = linkAdrParams.Datarate;
 1836              		.loc 1 678 0
 1837 00d2 B37A     		ldrb	r3, [r6, #10]
ARM GAS  C:\Users\EBANO_~1\AppData\Local\Temp\ccazSBuk.s 			page 54


 695:../../../../../../Middlewares/Third_Party/LoRaWAN/Mac/region/RegionRU864.c **** 
 1838              		.loc 1 695 0
 1839 00d4 02A9     		add	r1, sp, #8
 678:../../../../../../Middlewares/Third_Party/LoRaWAN/Mac/region/RegionRU864.c ****     linkAdrVerifyParams.Datarate = linkAdrParams.Datarate;
 1840              		.loc 1 678 0
 1841 00d6 4371     		strb	r3, [r0, #5]
 679:../../../../../../Middlewares/Third_Party/LoRaWAN/Mac/region/RegionRU864.c ****     linkAdrVerifyParams.TxPower = linkAdrParams.TxPower;
 1842              		.loc 1 679 0
 1843 00d8 6B78     		ldrb	r3, [r5, #1]
 695:../../../../../../Middlewares/Third_Party/LoRaWAN/Mac/region/RegionRU864.c **** 
 1844              		.loc 1 695 0
 1845 00da 8C46     		mov	ip, r1
 679:../../../../../../Middlewares/Third_Party/LoRaWAN/Mac/region/RegionRU864.c ****     linkAdrVerifyParams.TxPower = linkAdrParams.TxPower;
 1846              		.loc 1 679 0
 1847 00dc 8371     		strb	r3, [r0, #6]
 680:../../../../../../Middlewares/Third_Party/LoRaWAN/Mac/region/RegionRU864.c ****     linkAdrVerifyParams.NbRep = linkAdrParams.NbRep;
 1848              		.loc 1 680 0
 1849 00de AB78     		ldrb	r3, [r5, #2]
 695:../../../../../../Middlewares/Third_Party/LoRaWAN/Mac/region/RegionRU864.c **** 
 1850              		.loc 1 695 0
 1851 00e0 0A22     		movs	r2, #10
 680:../../../../../../Middlewares/Third_Party/LoRaWAN/Mac/region/RegionRU864.c ****     linkAdrVerifyParams.NbRep = linkAdrParams.NbRep;
 1852              		.loc 1 680 0
 1853 00e2 C371     		strb	r3, [r0, #7]
 681:../../../../../../Middlewares/Third_Party/LoRaWAN/Mac/region/RegionRU864.c ****     linkAdrVerifyParams.CurrentDatarate = linkAdrReq->CurrentDatarate;
 1854              		.loc 1 681 0
 1855 00e4 2B78     		ldrb	r3, [r5]
 695:../../../../../../Middlewares/Third_Party/LoRaWAN/Mac/region/RegionRU864.c **** 
 1856              		.loc 1 695 0
 1857 00e6 0921     		movs	r1, #9
 681:../../../../../../Middlewares/Third_Party/LoRaWAN/Mac/region/RegionRU864.c ****     linkAdrVerifyParams.CurrentDatarate = linkAdrReq->CurrentDatarate;
 1858              		.loc 1 681 0
 1859 00e8 0372     		strb	r3, [r0, #8]
 682:../../../../../../Middlewares/Third_Party/LoRaWAN/Mac/region/RegionRU864.c ****     linkAdrVerifyParams.CurrentTxPower = linkAdrReq->CurrentTxPower;
 1860              		.loc 1 682 0
 1861 00ea F37A     		ldrb	r3, [r6, #11]
 695:../../../../../../Middlewares/Third_Party/LoRaWAN/Mac/region/RegionRU864.c **** 
 1862              		.loc 1 695 0
 1863 00ec 6244     		add	r2, r2, ip
 682:../../../../../../Middlewares/Third_Party/LoRaWAN/Mac/region/RegionRU864.c ****     linkAdrVerifyParams.CurrentTxPower = linkAdrReq->CurrentTxPower;
 1864              		.loc 1 682 0
 1865 00ee 4372     		strb	r3, [r0, #9]
 683:../../../../../../Middlewares/Third_Party/LoRaWAN/Mac/region/RegionRU864.c ****     linkAdrVerifyParams.CurrentNbRep = linkAdrReq->CurrentNbRep;
 1866              		.loc 1 683 0
 1867 00f0 337B     		ldrb	r3, [r6, #12]
 695:../../../../../../Middlewares/Third_Party/LoRaWAN/Mac/region/RegionRU864.c **** 
 1868              		.loc 1 695 0
 1869 00f2 6144     		add	r1, r1, ip
 683:../../../../../../Middlewares/Third_Party/LoRaWAN/Mac/region/RegionRU864.c ****     linkAdrVerifyParams.CurrentNbRep = linkAdrReq->CurrentNbRep;
 1870              		.loc 1 683 0
 1871 00f4 8372     		strb	r3, [r0, #10]
 684:../../../../../../Middlewares/Third_Party/LoRaWAN/Mac/region/RegionRU864.c ****     linkAdrVerifyParams.NbChannels = RU864_MAX_NB_CHANNELS;
 1872              		.loc 1 684 0
 1873 00f6 737B     		ldrb	r3, [r6, #13]
 686:../../../../../../Middlewares/Third_Party/LoRaWAN/Mac/region/RegionRU864.c ****     linkAdrVerifyParams.MinDatarate = ( int8_t )phyParam.Value;
 1874              		.loc 1 686 0
 1875 00f8 0761     		str	r7, [r0, #16]
ARM GAS  C:\Users\EBANO_~1\AppData\Local\Temp\ccazSBuk.s 			page 55


 684:../../../../../../Middlewares/Third_Party/LoRaWAN/Mac/region/RegionRU864.c ****     linkAdrVerifyParams.NbChannels = RU864_MAX_NB_CHANNELS;
 1876              		.loc 1 684 0
 1877 00fa C372     		strb	r3, [r0, #11]
 685:../../../../../../Middlewares/Third_Party/LoRaWAN/Mac/region/RegionRU864.c ****     linkAdrVerifyParams.ChannelsMask = &chMask;
 1878              		.loc 1 685 0
 1879 00fc 0823     		movs	r3, #8
 1880 00fe 0373     		strb	r3, [r0, #12]
 687:../../../../../../Middlewares/Third_Party/LoRaWAN/Mac/region/RegionRU864.c ****     linkAdrVerifyParams.MaxDatarate = RU864_TX_MAX_DATARATE;
 1881              		.loc 1 687 0
 1882 0100 E023     		movs	r3, #224
 1883 0102 DB00     		lsls	r3, r3, #3
 1884 0104 8382     		strh	r3, [r0, #20]
 689:../../../../../../Middlewares/Third_Party/LoRaWAN/Mac/region/RegionRU864.c ****     linkAdrVerifyParams.MinTxPower = RU864_MIN_TX_POWER;
 1885              		.loc 1 689 0
 1886 0106 4B46     		mov	r3, r9
 1887 0108 8361     		str	r3, [r0, #24]
 690:../../../../../../Middlewares/Third_Party/LoRaWAN/Mac/region/RegionRU864.c ****     linkAdrVerifyParams.MaxTxPower = RU864_MAX_TX_POWER;
 1888              		.loc 1 690 0
 1889 010a 0723     		movs	r3, #7
 1890 010c 8383     		strh	r3, [r0, #28]
 692:../../../../../../Middlewares/Third_Party/LoRaWAN/Mac/region/RegionRU864.c **** 
 1891              		.loc 1 692 0
 1892 010e 3368     		ldr	r3, [r6]
 1893 0110 0693     		str	r3, [sp, #24]
 695:../../../../../../Middlewares/Third_Party/LoRaWAN/Mac/region/RegionRU864.c **** 
 1894              		.loc 1 695 0
 1895 0112 2B00     		movs	r3, r5
 1896 0114 FFF7FEFF 		bl	RegionCommonLinkAdrReqVerifyParams
 1897              	.LVL159:
 1898 0118 0600     		movs	r6, r0
 1899              	.LVL160:
 698:../../../../../../Middlewares/Third_Party/LoRaWAN/Mac/region/RegionRU864.c ****     {
 1900              		.loc 1 698 0
 1901 011a 0728     		cmp	r0, #7
 1902 011c 5DD0     		beq	.L190
 1903              	.LVL161:
 1904              	.L126:
 707:../../../../../../Middlewares/Third_Party/LoRaWAN/Mac/region/RegionRU864.c ****     *txPowOut = linkAdrParams.TxPower;
 1905              		.loc 1 707 0
 1906 011e 5A46     		mov	r2, fp
 1907 0120 6B78     		ldrb	r3, [r5, #1]
 713:../../../../../../Middlewares/Third_Party/LoRaWAN/Mac/region/RegionRU864.c **** 
 1908              		.loc 1 713 0
 1909 0122 3000     		movs	r0, r6
 707:../../../../../../Middlewares/Third_Party/LoRaWAN/Mac/region/RegionRU864.c ****     *txPowOut = linkAdrParams.TxPower;
 1910              		.loc 1 707 0
 1911 0124 1370     		strb	r3, [r2]
 708:../../../../../../Middlewares/Third_Party/LoRaWAN/Mac/region/RegionRU864.c ****     *nbRepOut = linkAdrParams.NbRep;
 1912              		.loc 1 708 0
 1913 0126 5246     		mov	r2, r10
 1914 0128 AB78     		ldrb	r3, [r5, #2]
 1915 012a 1370     		strb	r3, [r2]
 709:../../../../../../Middlewares/Third_Party/LoRaWAN/Mac/region/RegionRU864.c ****     *nbBytesParsed = bytesProcessed;
 1916              		.loc 1 709 0
 1917 012c 2B78     		ldrb	r3, [r5]
 1918 012e 019A     		ldr	r2, [sp, #4]
 1919 0130 1370     		strb	r3, [r2]
ARM GAS  C:\Users\EBANO_~1\AppData\Local\Temp\ccazSBuk.s 			page 56


 710:../../../../../../Middlewares/Third_Party/LoRaWAN/Mac/region/RegionRU864.c **** 
 1920              		.loc 1 710 0
 1921 0132 189B     		ldr	r3, [sp, #96]
 1922 0134 1C70     		strb	r4, [r3]
 713:../../../../../../Middlewares/Third_Party/LoRaWAN/Mac/region/RegionRU864.c **** 
 1923              		.loc 1 713 0
 1924 0136 0FB0     		add	sp, sp, #60
 1925              		@ sp needed
 1926              	.LVL162:
 1927              	.LVL163:
 1928              	.LVL164:
 1929 0138 3CBC     		pop	{r2, r3, r4, r5}
 1930 013a 9046     		mov	r8, r2
 1931 013c 9946     		mov	r9, r3
 1932 013e A246     		mov	r10, r4
 1933 0140 AB46     		mov	fp, r5
 1934 0142 F0BD     		pop	{r4, r5, r6, r7, pc}
 1935              	.LVL165:
 1936              	.L127:
 1937              	.LBB78:
 665:../../../../../../Middlewares/Third_Party/LoRaWAN/Mac/region/RegionRU864.c ****                     }
 1938              		.loc 1 665 0
 1939 0144 0621     		movs	r1, #6
 1940 0146 8846     		mov	r8, r1
 1941              	.LBE78:
 643:../../../../../../Middlewares/Third_Party/LoRaWAN/Mac/region/RegionRU864.c ****                 ( linkAdrParams.ChMaskCtrl >= 7 ) )
 1942              		.loc 1 643 0
 1943 0148 511E     		subs	r1, r2, #1
 1944 014a 0429     		cmp	r1, #4
 1945 014c 00D8     		bhi	.LCB1830
 1946 014e 6CE7     		b	.L123	@long jump
 1947              	.LCB1830:
 643:../../../../../../Middlewares/Third_Party/LoRaWAN/Mac/region/RegionRU864.c ****                 ( linkAdrParams.ChMaskCtrl >= 7 ) )
 1948              		.loc 1 643 0 is_stmt 0 discriminator 1
 1949 0150 062A     		cmp	r2, #6
 1950 0152 00D0     		beq	.LCB1832
 1951 0154 69E7     		b	.L123	@long jump
 1952              	.LCB1832:
 1953              	.LVL166:
 1954              	.LBB79:
 655:../../../../../../Middlewares/Third_Party/LoRaWAN/Mac/region/RegionRU864.c ****                     {
 1955              		.loc 1 655 0 is_stmt 1
 1956 0156 4A46     		mov	r2, r9
 1957 0158 1268     		ldr	r2, [r2]
 1958 015a 002A     		cmp	r2, #0
 1959 015c 02D0     		beq	.L132
 657:../../../../../../Middlewares/Third_Party/LoRaWAN/Mac/region/RegionRU864.c ****                     }
 1960              		.loc 1 657 0
 1961 015e 0123     		movs	r3, #1
 1962 0160 0343     		orrs	r3, r0
 1963 0162 3B80     		strh	r3, [r7]
 1964              	.L132:
 1965              	.LVL167:
 655:../../../../../../Middlewares/Third_Party/LoRaWAN/Mac/region/RegionRU864.c ****                     {
 1966              		.loc 1 655 0
 1967 0164 4A46     		mov	r2, r9
 1968 0166 D268     		ldr	r2, [r2, #12]
ARM GAS  C:\Users\EBANO_~1\AppData\Local\Temp\ccazSBuk.s 			page 57


 1969 0168 002A     		cmp	r2, #0
 1970 016a 02D0     		beq	.L134
 657:../../../../../../Middlewares/Third_Party/LoRaWAN/Mac/region/RegionRU864.c ****                     }
 1971              		.loc 1 657 0
 1972 016c 0222     		movs	r2, #2
 1973 016e 1343     		orrs	r3, r2
 1974 0170 3B80     		strh	r3, [r7]
 1975              	.L134:
 1976              	.LVL168:
 655:../../../../../../Middlewares/Third_Party/LoRaWAN/Mac/region/RegionRU864.c ****                     {
 1977              		.loc 1 655 0
 1978 0172 4A46     		mov	r2, r9
 1979 0174 9269     		ldr	r2, [r2, #24]
 1980 0176 002A     		cmp	r2, #0
 1981 0178 02D0     		beq	.L137
 657:../../../../../../Middlewares/Third_Party/LoRaWAN/Mac/region/RegionRU864.c ****                     }
 1982              		.loc 1 657 0
 1983 017a 0422     		movs	r2, #4
 1984 017c 1343     		orrs	r3, r2
 1985 017e 3B80     		strh	r3, [r7]
 1986              	.L137:
 1987              	.LVL169:
 655:../../../../../../Middlewares/Third_Party/LoRaWAN/Mac/region/RegionRU864.c ****                     {
 1988              		.loc 1 655 0
 1989 0180 4A46     		mov	r2, r9
 1990 0182 526A     		ldr	r2, [r2, #36]
 1991 0184 002A     		cmp	r2, #0
 1992 0186 02D0     		beq	.L140
 657:../../../../../../Middlewares/Third_Party/LoRaWAN/Mac/region/RegionRU864.c ****                     }
 1993              		.loc 1 657 0
 1994 0188 0822     		movs	r2, #8
 1995 018a 1343     		orrs	r3, r2
 1996 018c 3B80     		strh	r3, [r7]
 1997              	.L140:
 1998              	.LVL170:
 655:../../../../../../Middlewares/Third_Party/LoRaWAN/Mac/region/RegionRU864.c ****                     {
 1999              		.loc 1 655 0
 2000 018e 4A46     		mov	r2, r9
 2001 0190 126B     		ldr	r2, [r2, #48]
 2002 0192 002A     		cmp	r2, #0
 2003 0194 02D0     		beq	.L143
 657:../../../../../../Middlewares/Third_Party/LoRaWAN/Mac/region/RegionRU864.c ****                     }
 2004              		.loc 1 657 0
 2005 0196 1022     		movs	r2, #16
 2006 0198 1343     		orrs	r3, r2
 2007 019a 3B80     		strh	r3, [r7]
 2008              	.L143:
 2009              	.LVL171:
 655:../../../../../../Middlewares/Third_Party/LoRaWAN/Mac/region/RegionRU864.c ****                     {
 2010              		.loc 1 655 0
 2011 019c 4A46     		mov	r2, r9
 2012 019e D26B     		ldr	r2, [r2, #60]
 2013 01a0 002A     		cmp	r2, #0
 2014 01a2 02D0     		beq	.L145
 657:../../../../../../Middlewares/Third_Party/LoRaWAN/Mac/region/RegionRU864.c ****                     }
 2015              		.loc 1 657 0
 2016 01a4 2022     		movs	r2, #32
ARM GAS  C:\Users\EBANO_~1\AppData\Local\Temp\ccazSBuk.s 			page 58


 2017 01a6 1343     		orrs	r3, r2
 2018 01a8 3B80     		strh	r3, [r7]
 2019              	.L145:
 2020              	.LVL172:
 655:../../../../../../Middlewares/Third_Party/LoRaWAN/Mac/region/RegionRU864.c ****                     {
 2021              		.loc 1 655 0
 2022 01aa 4A46     		mov	r2, r9
 2023 01ac 926C     		ldr	r2, [r2, #72]
 2024 01ae 002A     		cmp	r2, #0
 2025 01b0 02D0     		beq	.L148
 657:../../../../../../Middlewares/Third_Party/LoRaWAN/Mac/region/RegionRU864.c ****                     }
 2026              		.loc 1 657 0
 2027 01b2 4022     		movs	r2, #64
 2028 01b4 1343     		orrs	r3, r2
 2029 01b6 3B80     		strh	r3, [r7]
 2030              	.L148:
 2031              	.LVL173:
 655:../../../../../../Middlewares/Third_Party/LoRaWAN/Mac/region/RegionRU864.c ****                     {
 2032              		.loc 1 655 0
 2033 01b8 4A46     		mov	r2, r9
 2034 01ba 526D     		ldr	r2, [r2, #84]
 2035 01bc 002A     		cmp	r2, #0
 2036 01be 17D0     		beq	.L191
 657:../../../../../../Middlewares/Third_Party/LoRaWAN/Mac/region/RegionRU864.c ****                     }
 2037              		.loc 1 657 0
 2038 01c0 8022     		movs	r2, #128
 2039 01c2 1343     		orrs	r3, r2
 2040 01c4 3B80     		strh	r3, [r7]
 2041 01c6 0723     		movs	r3, #7
 2042 01c8 9846     		mov	r8, r3
 2043 01ca 2EE7     		b	.L123
 2044              	.LVL174:
 2045              	.L189:
 665:../../../../../../Middlewares/Third_Party/LoRaWAN/Mac/region/RegionRU864.c ****                     }
 2046              		.loc 1 665 0
 2047 01cc 4A46     		mov	r2, r9
 2048 01ce 1268     		ldr	r2, [r2]
 2049 01d0 511E     		subs	r1, r2, #1
 2050 01d2 8A41     		sbcs	r2, r2, r1
 2051 01d4 0632     		adds	r2, r2, #6
 2052 01d6 9046     		mov	r8, r2
 2053 01d8 43E7     		b	.L131
 2054              	.LVL175:
 2055              	.L190:
 2056              	.LBE79:
 701:../../../../../../Middlewares/Third_Party/LoRaWAN/Mac/region/RegionRU864.c ****         // Update the channels mask
 2057              		.loc 1 701 0
 2058 01da 4846     		mov	r0, r9
 2059              	.LVL176:
 2060 01dc 0222     		movs	r2, #2
 2061 01de 0021     		movs	r1, #0
 2062 01e0 7030     		adds	r0, r0, #112
 2063 01e2 FFF7FEFF 		bl	memset1
 2064              	.LVL177:
 703:../../../../../../Middlewares/Third_Party/LoRaWAN/Mac/region/RegionRU864.c ****     }
 2065              		.loc 1 703 0
 2066 01e6 7023     		movs	r3, #112
ARM GAS  C:\Users\EBANO_~1\AppData\Local\Temp\ccazSBuk.s 			page 59


 2067 01e8 4946     		mov	r1, r9
 2068 01ea 3A88     		ldrh	r2, [r7]
 2069 01ec CA52     		strh	r2, [r1, r3]
 2070 01ee 96E7     		b	.L126
 2071              	.LVL178:
 2072              	.L191:
 2073              	.LBB80:
 655:../../../../../../Middlewares/Third_Party/LoRaWAN/Mac/region/RegionRU864.c ****                     {
 2074              		.loc 1 655 0
 2075 01f0 0723     		movs	r3, #7
 2076 01f2 9846     		mov	r8, r3
 2077 01f4 19E7     		b	.L123
 2078              	.LVL179:
 2079              	.L173:
 665:../../../../../../Middlewares/Third_Party/LoRaWAN/Mac/region/RegionRU864.c ****                     }
 2080              		.loc 1 665 0
 2081 01f6 0622     		movs	r2, #6
 2082 01f8 9046     		mov	r8, r2
 2083              	.LVL180:
 2084 01fa 5CE7     		b	.L146
 2085              	.LVL181:
 2086              	.L172:
 2087 01fc 0622     		movs	r2, #6
 2088 01fe 9046     		mov	r8, r2
 2089              	.LVL182:
 2090 0200 52E7     		b	.L144
 2091              	.LVL183:
 2092              	.L171:
 2093 0202 0622     		movs	r2, #6
 2094 0204 9046     		mov	r8, r2
 2095              	.LVL184:
 2096 0206 48E7     		b	.L141
 2097              	.LVL185:
 2098              	.L170:
 2099 0208 0622     		movs	r2, #6
 2100 020a 9046     		mov	r8, r2
 2101              	.LVL186:
 2102 020c 3EE7     		b	.L138
 2103              	.LVL187:
 2104              	.L169:
 2105 020e 0622     		movs	r2, #6
 2106 0210 9046     		mov	r8, r2
 2107              	.LVL188:
 2108 0212 34E7     		b	.L135
 2109              	.LVL189:
 2110              	.L168:
 2111 0214 0622     		movs	r2, #6
 2112 0216 9046     		mov	r8, r2
 2113              	.LVL190:
 2114 0218 2AE7     		b	.L133
 2115              	.L193:
 2116 021a C046     		.align	2
 2117              	.L192:
 2118 021c 00000000 		.word	.LANCHOR1
 2119              	.LBE80:
 2120              		.cfi_endproc
 2121              	.LFE54:
ARM GAS  C:\Users\EBANO_~1\AppData\Local\Temp\ccazSBuk.s 			page 60


 2122              		.size	RegionRU864LinkAdrReq, .-RegionRU864LinkAdrReq
 2123              		.section	.text.RegionRU864RxParamSetupReq,"ax",%progbits
 2124              		.align	1
 2125              		.p2align 2,,3
 2126              		.global	RegionRU864RxParamSetupReq
 2127              		.syntax unified
 2128              		.code	16
 2129              		.thumb_func
 2130              		.fpu softvfp
 2131              		.type	RegionRU864RxParamSetupReq, %function
 2132              	RegionRU864RxParamSetupReq:
 2133              	.LFB55:
 716:../../../../../../Middlewares/Third_Party/LoRaWAN/Mac/region/RegionRU864.c ****     uint8_t status = 0x07;
 2134              		.loc 1 716 0
 2135              		.cfi_startproc
 2136              		@ args = 0, pretend = 0, frame = 8
 2137              		@ frame_needed = 0, uses_anonymous_args = 0
 2138              	.LVL191:
 2139 0000 70B5     		push	{r4, r5, r6, lr}
 2140              	.LCFI22:
 2141              		.cfi_def_cfa_offset 16
 2142              		.cfi_offset 4, -16
 2143              		.cfi_offset 5, -12
 2144              		.cfi_offset 6, -8
 2145              		.cfi_offset 14, -4
 2146              	.LBB81:
 2147              	.LBB82:
 111:../../../../../../Middlewares/Third_Party/LoRaWAN/Mac/region/RegionRU864.c ****     {
 2148              		.loc 1 111 0
 2149 0002 154B     		ldr	r3, .L204
 2150              	.LBE82:
 2151              	.LBE81:
 720:../../../../../../Middlewares/Third_Party/LoRaWAN/Mac/region/RegionRU864.c ****     {
 2152              		.loc 1 720 0
 2153 0004 4568     		ldr	r5, [r0, #4]
 2154              	.LVL192:
 2155              	.LBB86:
 2156              	.LBB83:
 111:../../../../../../Middlewares/Third_Party/LoRaWAN/Mac/region/RegionRU864.c ****     {
 2157              		.loc 1 111 0
 2158 0006 9B6A     		ldr	r3, [r3, #40]
 2159              	.LBE83:
 2160              	.LBE86:
 716:../../../../../../Middlewares/Third_Party/LoRaWAN/Mac/region/RegionRU864.c ****     uint8_t status = 0x07;
 2161              		.loc 1 716 0
 2162 0008 82B0     		sub	sp, sp, #8
 2163              	.LCFI23:
 2164              		.cfi_def_cfa_offset 24
 716:../../../../../../Middlewares/Third_Party/LoRaWAN/Mac/region/RegionRU864.c ****     uint8_t status = 0x07;
 2165              		.loc 1 716 0
 2166 000a 0400     		movs	r4, r0
 2167              	.LBB87:
 2168              	.LBB84:
 111:../../../../../../Middlewares/Third_Party/LoRaWAN/Mac/region/RegionRU864.c ****     {
 2169              		.loc 1 111 0
 2170 000c 2800     		movs	r0, r5
 2171              	.LVL193:
ARM GAS  C:\Users\EBANO_~1\AppData\Local\Temp\ccazSBuk.s 			page 61


 2172 000e 0193     		str	r3, [sp, #4]
 2173 0010 9847     		blx	r3
 2174              	.LVL194:
 2175 0012 0028     		cmp	r0, #0
 2176 0014 05D0     		beq	.L199
 117:../../../../../../Middlewares/Third_Party/LoRaWAN/Mac/region/RegionRU864.c ****     {
 2177              		.loc 1 117 0
 2178 0016 114B     		ldr	r3, .L204+4
 2179 0018 9C46     		mov	ip, r3
 2180 001a 114B     		ldr	r3, .L204+8
 2181 001c 6544     		add	r5, r5, ip
 2182              	.LVL195:
 2183 001e 9D42     		cmp	r5, r3
 2184 0020 17D9     		bls	.L203
 2185              	.LVL196:
 2186              	.L199:
 2187 0022 0425     		movs	r5, #4
 2188              	.LBE84:
 2189              	.LBE87:
 722:../../../../../../Middlewares/Third_Party/LoRaWAN/Mac/region/RegionRU864.c ****     }
 2190              		.loc 1 722 0
 2191 0024 0626     		movs	r6, #6
 2192              	.L195:
 2193              	.LVL197:
 726:../../../../../../Middlewares/Third_Party/LoRaWAN/Mac/region/RegionRU864.c ****     {
 2194              		.loc 1 726 0
 2195 0026 0020     		movs	r0, #0
 2196 0028 0722     		movs	r2, #7
 2197 002a 2056     		ldrsb	r0, [r4, r0]
 2198 002c 0021     		movs	r1, #0
 2199 002e FFF7FEFF 		bl	RegionCommonValueInRange
 2200              	.LVL198:
 2201 0032 0028     		cmp	r0, #0
 2202 0034 00D0     		beq	.L196
 2203 0036 3500     		movs	r5, r6
 2204              	.L196:
 2205              	.LVL199:
 732:../../../../../../Middlewares/Third_Party/LoRaWAN/Mac/region/RegionRU864.c ****     {
 2206              		.loc 1 732 0
 2207 0038 0120     		movs	r0, #1
 2208 003a 0522     		movs	r2, #5
 2209 003c 2056     		ldrsb	r0, [r4, r0]
 2210 003e 0021     		movs	r1, #0
 2211 0040 FFF7FEFF 		bl	RegionCommonValueInRange
 2212              	.LVL200:
 2213 0044 0028     		cmp	r0, #0
 2214 0046 01D1     		bne	.L197
 734:../../../../../../Middlewares/Third_Party/LoRaWAN/Mac/region/RegionRU864.c ****     }
 2215              		.loc 1 734 0
 2216 0048 FB23     		movs	r3, #251
 2217 004a 1D40     		ands	r5, r3
 2218              	.LVL201:
 2219              	.L197:
 738:../../../../../../Middlewares/Third_Party/LoRaWAN/Mac/region/RegionRU864.c **** 
 2220              		.loc 1 738 0
 2221 004c 2800     		movs	r0, r5
 2222 004e 02B0     		add	sp, sp, #8
ARM GAS  C:\Users\EBANO_~1\AppData\Local\Temp\ccazSBuk.s 			page 62


 2223              		@ sp needed
 2224              	.LVL202:
 2225              	.LVL203:
 2226 0050 70BD     		pop	{r4, r5, r6, pc}
 2227              	.LVL204:
 2228              	.L203:
 2229              	.LBB88:
 2230              	.LBB85:
 117:../../../../../../Middlewares/Third_Party/LoRaWAN/Mac/region/RegionRU864.c ****     {
 2231              		.loc 1 117 0
 2232 0052 0525     		movs	r5, #5
 2233              	.LVL205:
 2234              	.LBE85:
 2235              	.LBE88:
 717:../../../../../../Middlewares/Third_Party/LoRaWAN/Mac/region/RegionRU864.c **** 
 2236              		.loc 1 717 0
 2237 0054 0726     		movs	r6, #7
 2238 0056 E6E7     		b	.L195
 2239              	.L205:
 2240              		.align	2
 2241              	.L204:
 2242 0058 00000000 		.word	Radio
 2243 005c 006880CC 		.word	-864000000
 2244 0060 808D5B00 		.word	6000000
 2245              		.cfi_endproc
 2246              	.LFE55:
 2247              		.size	RegionRU864RxParamSetupReq, .-RegionRU864RxParamSetupReq
 2248              		.section	.text.RegionRU864NewChannelReq,"ax",%progbits
 2249              		.align	1
 2250              		.p2align 2,,3
 2251              		.global	RegionRU864NewChannelReq
 2252              		.syntax unified
 2253              		.code	16
 2254              		.thumb_func
 2255              		.fpu softvfp
 2256              		.type	RegionRU864NewChannelReq, %function
 2257              	RegionRU864NewChannelReq:
 2258              	.LFB56:
 741:../../../../../../Middlewares/Third_Party/LoRaWAN/Mac/region/RegionRU864.c ****     uint8_t status = 0x03;
 2259              		.loc 1 741 0
 2260              		.cfi_startproc
 2261              		@ args = 0, pretend = 0, frame = 8
 2262              		@ frame_needed = 0, uses_anonymous_args = 0
 2263              	.LVL206:
 2264 0000 F0B5     		push	{r4, r5, r6, r7, lr}
 2265              	.LCFI24:
 2266              		.cfi_def_cfa_offset 20
 2267              		.cfi_offset 4, -20
 2268              		.cfi_offset 5, -16
 2269              		.cfi_offset 6, -12
 2270              		.cfi_offset 7, -8
 2271              		.cfi_offset 14, -4
 2272 0002 C646     		mov	lr, r8
 2273 0004 00B5     		push	{lr}
 2274              	.LCFI25:
 2275              		.cfi_def_cfa_offset 24
 2276              		.cfi_offset 8, -24
ARM GAS  C:\Users\EBANO_~1\AppData\Local\Temp\ccazSBuk.s 			page 63


 746:../../../../../../Middlewares/Third_Party/LoRaWAN/Mac/region/RegionRU864.c ****     {
 2277              		.loc 1 746 0
 2278 0006 0568     		ldr	r5, [r0]
 741:../../../../../../Middlewares/Third_Party/LoRaWAN/Mac/region/RegionRU864.c ****     uint8_t status = 0x03;
 2279              		.loc 1 741 0
 2280 0008 82B0     		sub	sp, sp, #8
 2281              	.LCFI26:
 2282              		.cfi_def_cfa_offset 32
 746:../../../../../../Middlewares/Third_Party/LoRaWAN/Mac/region/RegionRU864.c ****     {
 2283              		.loc 1 746 0
 2284 000a 2B68     		ldr	r3, [r5]
 2285 000c 0479     		ldrb	r4, [r0, #4]
 2286 000e 002B     		cmp	r3, #0
 2287 0010 19D1     		bne	.L207
 2288              	.LVL207:
 2289              	.LBB95:
 2290              	.LBB96:
 961:../../../../../../Middlewares/Third_Party/LoRaWAN/Mac/region/RegionRU864.c ****     {
 2291              		.loc 1 961 0
 2292 0012 012C     		cmp	r4, #1
 2293 0014 12D9     		bls	.L208
 967:../../../../../../Middlewares/Third_Party/LoRaWAN/Mac/region/RegionRU864.c **** 
 2294              		.loc 1 967 0
 2295 0016 6000     		lsls	r0, r4, #1
 2296              	.LVL208:
 2297 0018 364D     		ldr	r5, .L228
 2298 001a 0019     		adds	r0, r0, r4
 2299 001c 8000     		lsls	r0, r0, #2
 2300 001e 0C22     		movs	r2, #12
 2301 0020 0021     		movs	r1, #0
 2302 0022 2818     		adds	r0, r5, r0
 2303 0024 FFF7FEFF 		bl	memset
 2304              	.LVL209:
 2305              		.loc 1 969 0
 2306 0028 2800     		movs	r0, r5
 2307 002a 0822     		movs	r2, #8
 2308 002c 7030     		adds	r0, r0, #112
 2309 002e 2100     		movs	r1, r4
 2310 0030 FFF7FEFF 		bl	RegionCommonChanDisable
 2311              	.LVL210:
 2312 0034 0300     		movs	r3, r0
 2313              	.LVL211:
 2314              	.LBE96:
 2315              	.LBE95:
 742:../../../../../../Middlewares/Third_Party/LoRaWAN/Mac/region/RegionRU864.c ****     ChannelAddParams_t channelAdd;
 2316              		.loc 1 742 0
 2317 0036 0320     		movs	r0, #3
 751:../../../../../../Middlewares/Third_Party/LoRaWAN/Mac/region/RegionRU864.c ****         {
 2318              		.loc 1 751 0
 2319 0038 002B     		cmp	r3, #0
 2320 003a 00D1     		bne	.L221
 2321              	.L208:
 753:../../../../../../Middlewares/Third_Party/LoRaWAN/Mac/region/RegionRU864.c ****         }
 2322              		.loc 1 753 0
 2323 003c 0020     		movs	r0, #0
 2324              	.L221:
 791:../../../../../../Middlewares/Third_Party/LoRaWAN/Mac/region/RegionRU864.c **** 
ARM GAS  C:\Users\EBANO_~1\AppData\Local\Temp\ccazSBuk.s 			page 64


 2325              		.loc 1 791 0
 2326 003e 02B0     		add	sp, sp, #8
 2327              		@ sp needed
 2328 0040 04BC     		pop	{r2}
 2329 0042 9046     		mov	r8, r2
 2330 0044 F0BD     		pop	{r4, r5, r6, r7, pc}
 2331              	.LVL212:
 2332              	.L207:
 2333              	.LBB97:
 2334              	.LBB98:
 904:../../../../../../Middlewares/Third_Party/LoRaWAN/Mac/region/RegionRU864.c ****     {
 2335              		.loc 1 904 0
 2336 0046 A31E     		subs	r3, r4, #2
 2337 0048 052B     		cmp	r3, #5
 2338 004a F7D8     		bhi	.L208
 915:../../../../../../Middlewares/Third_Party/LoRaWAN/Mac/region/RegionRU864.c ****     {
 2339              		.loc 1 915 0
 2340 004c 287A     		ldrb	r0, [r5, #8]
 2341              	.LVL213:
 2342 004e 0722     		movs	r2, #7
 2343 0050 0007     		lsls	r0, r0, #28
 2344 0052 0021     		movs	r1, #0
 2345 0054 0017     		asrs	r0, r0, #28
 2346 0056 FFF7FEFF 		bl	RegionCommonValueInRange
 2347              	.LVL214:
 2348 005a 0600     		movs	r6, r0
 2349              	.LVL215:
 919:../../../../../../Middlewares/Third_Party/LoRaWAN/Mac/region/RegionRU864.c ****     {
 2350              		.loc 1 919 0
 2351 005c 0820     		movs	r0, #8
 2352 005e 2856     		ldrsb	r0, [r5, r0]
 2353 0060 0722     		movs	r2, #7
 2354 0062 0011     		asrs	r0, r0, #4
 2355 0064 0021     		movs	r1, #0
 2356 0066 FFF7FEFF 		bl	RegionCommonValueInRange
 2357              	.LVL216:
 921:../../../../../../Middlewares/Third_Party/LoRaWAN/Mac/region/RegionRU864.c ****     }
 2358              		.loc 1 921 0
 2359 006a 0127     		movs	r7, #1
 919:../../../../../../Middlewares/Third_Party/LoRaWAN/Mac/region/RegionRU864.c ****     {
 2360              		.loc 1 919 0
 2361 006c 0028     		cmp	r0, #0
 2362 006e 25D1     		bne	.L226
 2363              	.LVL217:
 2364              	.L210:
 2365 0070 214B     		ldr	r3, .L228+4
 2366 0072 2E68     		ldr	r6, [r5]
 2367 0074 9B6A     		ldr	r3, [r3, #40]
 2368              	.LBB99:
 2369              	.LBB100:
 111:../../../../../../Middlewares/Third_Party/LoRaWAN/Mac/region/RegionRU864.c ****     {
 2370              		.loc 1 111 0
 2371 0076 3000     		movs	r0, r6
 2372 0078 0193     		str	r3, [sp, #4]
 2373              	.LBE100:
 2374              	.LBE99:
 923:../../../../../../Middlewares/Third_Party/LoRaWAN/Mac/region/RegionRU864.c ****     {
ARM GAS  C:\Users\EBANO_~1\AppData\Local\Temp\ccazSBuk.s 			page 65


 2375              		.loc 1 923 0
 2376 007a 2B7A     		ldrb	r3, [r5, #8]
 2377 007c 1A07     		lsls	r2, r3, #28
 2378 007e 5BB2     		sxtb	r3, r3
 2379 0080 1217     		asrs	r2, r2, #28
 2380 0082 1B11     		asrs	r3, r3, #4
 2381 0084 9A42     		cmp	r2, r3
 2382 0086 0BDD     		ble	.L227
 2383              	.LVL218:
 2384              	.LBB103:
 2385              	.LBB101:
 111:../../../../../../Middlewares/Third_Party/LoRaWAN/Mac/region/RegionRU864.c ****     {
 2386              		.loc 1 111 0
 2387 0088 019B     		ldr	r3, [sp, #4]
 2388 008a 9847     		blx	r3
 2389              	.LVL219:
 2390 008c 0028     		cmp	r0, #0
 2391 008e D5D0     		beq	.L208
 117:../../../../../../Middlewares/Third_Party/LoRaWAN/Mac/region/RegionRU864.c ****     {
 2392              		.loc 1 117 0
 2393 0090 1A4B     		ldr	r3, .L228+8
 2394 0092 9C46     		mov	ip, r3
 2395 0094 1A4B     		ldr	r3, .L228+12
 2396 0096 6644     		add	r6, r6, ip
 2397 0098 9E42     		cmp	r6, r3
 2398 009a CFD8     		bhi	.L208
 2399              	.LVL220:
 2400              	.L216:
 2401              	.LBE101:
 2402              	.LBE103:
 2403              	.LBE98:
 2404              	.LBE97:
 774:../../../../../../Middlewares/Third_Party/LoRaWAN/Mac/region/RegionRU864.c ****                 break;
 2405              		.loc 1 774 0
 2406 009c 0120     		movs	r0, #1
 2407 009e CEE7     		b	.L221
 2408              	.LVL221:
 2409              	.L227:
 2410              	.LBB108:
 2411              	.LBB105:
 2412              	.LBB104:
 2413              	.LBB102:
 111:../../../../../../Middlewares/Third_Party/LoRaWAN/Mac/region/RegionRU864.c ****     {
 2414              		.loc 1 111 0
 2415 00a0 019B     		ldr	r3, [sp, #4]
 2416 00a2 9847     		blx	r3
 2417              	.LVL222:
 2418 00a4 0028     		cmp	r0, #0
 2419 00a6 05D0     		beq	.L212
 117:../../../../../../Middlewares/Third_Party/LoRaWAN/Mac/region/RegionRU864.c ****     {
 2420              		.loc 1 117 0
 2421 00a8 144B     		ldr	r3, .L228+8
 2422 00aa 9C46     		mov	ip, r3
 2423 00ac 144B     		ldr	r3, .L228+12
 2424 00ae 6644     		add	r6, r6, ip
 2425 00b0 9E42     		cmp	r6, r3
 2426 00b2 07D9     		bls	.L213
ARM GAS  C:\Users\EBANO_~1\AppData\Local\Temp\ccazSBuk.s 			page 66


 2427              	.L212:
 2428              	.LVL223:
 2429              	.LBE102:
 2430              	.LBE104:
 938:../../../../../../Middlewares/Third_Party/LoRaWAN/Mac/region/RegionRU864.c ****     {
 2431              		.loc 1 938 0
 2432 00b4 002F     		cmp	r7, #0
 2433 00b6 C1D1     		bne	.L208
 2434              	.LBE105:
 2435              	.LBE108:
 769:../../../../../../Middlewares/Third_Party/LoRaWAN/Mac/region/RegionRU864.c ****                 break;
 2436              		.loc 1 769 0
 2437 00b8 0220     		movs	r0, #2
 2438 00ba C0E7     		b	.L221
 2439              	.LVL224:
 2440              	.L226:
 2441              	.LBB109:
 2442              	.LBB106:
 915:../../../../../../Middlewares/Third_Party/LoRaWAN/Mac/region/RegionRU864.c ****     {
 2443              		.loc 1 915 0
 2444 00bc 7742     		rsbs	r7, r6, #0
 2445 00be 7741     		adcs	r7, r7, r6
 2446              	.LVL225:
 2447 00c0 FFB2     		uxtb	r7, r7
 2448 00c2 D5E7     		b	.L210
 2449              	.LVL226:
 2450              	.L213:
 938:../../../../../../Middlewares/Third_Party/LoRaWAN/Mac/region/RegionRU864.c ****     {
 2451              		.loc 1 938 0
 2452 00c4 002F     		cmp	r7, #0
 2453 00c6 E9D1     		bne	.L216
 951:../../../../../../Middlewares/Third_Party/LoRaWAN/Mac/region/RegionRU864.c ****     NvmCtx.Channels[id].Band = 0;
 2454              		.loc 1 951 0
 2455 00c8 0A4B     		ldr	r3, .L228
 2456 00ca 6600     		lsls	r6, r4, #1
 2457 00cc 9846     		mov	r8, r3
 2458 00ce 3619     		adds	r6, r6, r4
 2459 00d0 B600     		lsls	r6, r6, #2
 2460 00d2 4644     		add	r6, r6, r8
 2461 00d4 0C22     		movs	r2, #12
 2462 00d6 2900     		movs	r1, r5
 2463 00d8 3000     		movs	r0, r6
 2464 00da FFF7FEFF 		bl	memcpy1
 2465              	.LVL227:
 953:../../../../../../Middlewares/Third_Party/LoRaWAN/Mac/region/RegionRU864.c ****     return LORAMAC_STATUS_OK;
 2466              		.loc 1 953 0
 2467 00de 0122     		movs	r2, #1
 2468 00e0 7021     		movs	r1, #112
 2469 00e2 4346     		mov	r3, r8
 2470 00e4 A240     		lsls	r2, r2, r4
 952:../../../../../../Middlewares/Third_Party/LoRaWAN/Mac/region/RegionRU864.c ****     NvmCtx.ChannelsMask[0] |= ( 1 << id );
 2471              		.loc 1 952 0
 2472 00e6 7772     		strb	r7, [r6, #9]
 953:../../../../../../Middlewares/Third_Party/LoRaWAN/Mac/region/RegionRU864.c ****     return LORAMAC_STATUS_OK;
 2473              		.loc 1 953 0
 2474 00e8 5B5A     		ldrh	r3, [r3, r1]
 2475              	.LBE106:
ARM GAS  C:\Users\EBANO_~1\AppData\Local\Temp\ccazSBuk.s 			page 67


 2476              	.LBE109:
 742:../../../../../../Middlewares/Third_Party/LoRaWAN/Mac/region/RegionRU864.c ****     ChannelAddParams_t channelAdd;
 2477              		.loc 1 742 0
 2478 00ea 0320     		movs	r0, #3
 2479              	.LBB110:
 2480              	.LBB107:
 953:../../../../../../Middlewares/Third_Party/LoRaWAN/Mac/region/RegionRU864.c ****     return LORAMAC_STATUS_OK;
 2481              		.loc 1 953 0
 2482 00ec 1343     		orrs	r3, r2
 2483 00ee 4246     		mov	r2, r8
 2484 00f0 5352     		strh	r3, [r2, r1]
 2485              	.LVL228:
 2486              	.LBE107:
 2487              	.LBE110:
 790:../../../../../../Middlewares/Third_Party/LoRaWAN/Mac/region/RegionRU864.c **** }
 2488              		.loc 1 790 0
 2489 00f2 A4E7     		b	.L221
 2490              	.L229:
 2491              		.align	2
 2492              	.L228:
 2493 00f4 00000000 		.word	.LANCHOR1
 2494 00f8 00000000 		.word	Radio
 2495 00fc 006880CC 		.word	-864000000
 2496 0100 808D5B00 		.word	6000000
 2497              		.cfi_endproc
 2498              	.LFE56:
 2499              		.size	RegionRU864NewChannelReq, .-RegionRU864NewChannelReq
 2500              		.section	.text.RegionRU864TxParamSetupReq,"ax",%progbits
 2501              		.align	1
 2502              		.p2align 2,,3
 2503              		.global	RegionRU864TxParamSetupReq
 2504              		.syntax unified
 2505              		.code	16
 2506              		.thumb_func
 2507              		.fpu softvfp
 2508              		.type	RegionRU864TxParamSetupReq, %function
 2509              	RegionRU864TxParamSetupReq:
 2510              	.LFB57:
 794:../../../../../../Middlewares/Third_Party/LoRaWAN/Mac/region/RegionRU864.c ****     return -1;
 2511              		.loc 1 794 0
 2512              		.cfi_startproc
 2513              		@ args = 0, pretend = 0, frame = 0
 2514              		@ frame_needed = 0, uses_anonymous_args = 0
 2515              		@ link register save eliminated.
 2516              	.LVL229:
 795:../../../../../../Middlewares/Third_Party/LoRaWAN/Mac/region/RegionRU864.c **** }
 2517              		.loc 1 795 0
 2518 0000 0120     		movs	r0, #1
 2519              	.LVL230:
 796:../../../../../../Middlewares/Third_Party/LoRaWAN/Mac/region/RegionRU864.c **** 
 2520              		.loc 1 796 0
 2521              		@ sp needed
 2522 0002 4042     		rsbs	r0, r0, #0
 2523 0004 7047     		bx	lr
 2524              		.cfi_endproc
 2525              	.LFE57:
 2526              		.size	RegionRU864TxParamSetupReq, .-RegionRU864TxParamSetupReq
ARM GAS  C:\Users\EBANO_~1\AppData\Local\Temp\ccazSBuk.s 			page 68


 2527 0006 C046     		.section	.text.RegionRU864DlChannelReq,"ax",%progbits
 2528              		.align	1
 2529              		.p2align 2,,3
 2530              		.global	RegionRU864DlChannelReq
 2531              		.syntax unified
 2532              		.code	16
 2533              		.thumb_func
 2534              		.fpu softvfp
 2535              		.type	RegionRU864DlChannelReq, %function
 2536              	RegionRU864DlChannelReq:
 2537              	.LFB58:
 799:../../../../../../Middlewares/Third_Party/LoRaWAN/Mac/region/RegionRU864.c ****     uint8_t status = 0x03;
 2538              		.loc 1 799 0
 2539              		.cfi_startproc
 2540              		@ args = 0, pretend = 0, frame = 8
 2541              		@ frame_needed = 0, uses_anonymous_args = 0
 2542              	.LVL231:
 2543 0000 30B5     		push	{r4, r5, lr}
 2544              	.LCFI27:
 2545              		.cfi_def_cfa_offset 12
 2546              		.cfi_offset 4, -12
 2547              		.cfi_offset 5, -8
 2548              		.cfi_offset 14, -4
 2549              	.LBB111:
 2550              	.LBB112:
 111:../../../../../../Middlewares/Third_Party/LoRaWAN/Mac/region/RegionRU864.c ****     {
 2551              		.loc 1 111 0
 2552 0002 174B     		ldr	r3, .L243
 2553              	.LBE112:
 2554              	.LBE111:
 803:../../../../../../Middlewares/Third_Party/LoRaWAN/Mac/region/RegionRU864.c ****     {
 2555              		.loc 1 803 0
 2556 0004 4468     		ldr	r4, [r0, #4]
 2557              	.LVL232:
 2558              	.LBB115:
 2559              	.LBB113:
 111:../../../../../../Middlewares/Third_Party/LoRaWAN/Mac/region/RegionRU864.c ****     {
 2560              		.loc 1 111 0
 2561 0006 9B6A     		ldr	r3, [r3, #40]
 2562              	.LBE113:
 2563              	.LBE115:
 799:../../../../../../Middlewares/Third_Party/LoRaWAN/Mac/region/RegionRU864.c ****     uint8_t status = 0x03;
 2564              		.loc 1 799 0
 2565 0008 83B0     		sub	sp, sp, #12
 2566              	.LCFI28:
 2567              		.cfi_def_cfa_offset 24
 799:../../../../../../Middlewares/Third_Party/LoRaWAN/Mac/region/RegionRU864.c ****     uint8_t status = 0x03;
 2568              		.loc 1 799 0
 2569 000a 0500     		movs	r5, r0
 2570              	.LBB116:
 2571              	.LBB114:
 111:../../../../../../Middlewares/Third_Party/LoRaWAN/Mac/region/RegionRU864.c ****     {
 2572              		.loc 1 111 0
 2573 000c 2000     		movs	r0, r4
 2574              	.LVL233:
 2575 000e 0193     		str	r3, [sp, #4]
 2576 0010 9847     		blx	r3
ARM GAS  C:\Users\EBANO_~1\AppData\Local\Temp\ccazSBuk.s 			page 69


 2577              	.LVL234:
 2578 0012 0028     		cmp	r0, #0
 2579 0014 19D0     		beq	.L232
 117:../../../../../../Middlewares/Third_Party/LoRaWAN/Mac/region/RegionRU864.c ****     {
 2580              		.loc 1 117 0
 2581 0016 1348     		ldr	r0, .L243+4
 2582 0018 2978     		ldrb	r1, [r5]
 2583 001a 8446     		mov	ip, r0
 2584 001c 4B00     		lsls	r3, r1, #1
 2585 001e 5B18     		adds	r3, r3, r1
 2586 0020 114A     		ldr	r2, .L243+8
 2587 0022 1248     		ldr	r0, .L243+12
 2588 0024 9B00     		lsls	r3, r3, #2
 2589 0026 6444     		add	r4, r4, ip
 2590              	.LVL235:
 2591 0028 9958     		ldr	r1, [r3, r2]
 2592 002a 8442     		cmp	r4, r0
 2593 002c 05D9     		bls	.L242
 2594              	.LVL236:
 2595              	.LBE114:
 2596              	.LBE116:
 805:../../../../../../Middlewares/Third_Party/LoRaWAN/Mac/region/RegionRU864.c ****     }
 2597              		.loc 1 805 0
 2598 002e 0800     		movs	r0, r1
 2599 0030 411E     		subs	r1, r0, #1
 2600 0032 8841     		sbcs	r0, r0, r1
 2601 0034 4000     		lsls	r0, r0, #1
 2602              	.LVL237:
 2603              	.L236:
 821:../../../../../../Middlewares/Third_Party/LoRaWAN/Mac/region/RegionRU864.c **** 
 2604              		.loc 1 821 0
 2605 0036 03B0     		add	sp, sp, #12
 2606              		@ sp needed
 2607              	.LVL238:
 2608 0038 30BD     		pop	{r4, r5, pc}
 2609              	.LVL239:
 2610              	.L242:
 809:../../../../../../Middlewares/Third_Party/LoRaWAN/Mac/region/RegionRU864.c ****     {
 2611              		.loc 1 809 0
 2612 003a 0120     		movs	r0, #1
 2613 003c 0029     		cmp	r1, #0
 2614 003e FAD0     		beq	.L236
 817:../../../../../../Middlewares/Third_Party/LoRaWAN/Mac/region/RegionRU864.c ****     }
 2615              		.loc 1 817 0
 2616 0040 D318     		adds	r3, r2, r3
 2617 0042 6A68     		ldr	r2, [r5, #4]
 2618 0044 0320     		movs	r0, #3
 2619 0046 5A60     		str	r2, [r3, #4]
 2620 0048 F5E7     		b	.L236
 2621              	.LVL240:
 2622              	.L232:
 809:../../../../../../Middlewares/Third_Party/LoRaWAN/Mac/region/RegionRU864.c ****     {
 2623              		.loc 1 809 0
 2624 004a 2A78     		ldrb	r2, [r5]
 2625 004c 5300     		lsls	r3, r2, #1
 2626 004e 9B18     		adds	r3, r3, r2
 2627 0050 054A     		ldr	r2, .L243+8
ARM GAS  C:\Users\EBANO_~1\AppData\Local\Temp\ccazSBuk.s 			page 70


 2628 0052 9B00     		lsls	r3, r3, #2
 2629 0054 9858     		ldr	r0, [r3, r2]
 2630 0056 431E     		subs	r3, r0, #1
 2631 0058 9841     		sbcs	r0, r0, r3
 2632 005a 4000     		lsls	r0, r0, #1
 2633 005c EBE7     		b	.L236
 2634              	.L244:
 2635 005e C046     		.align	2
 2636              	.L243:
 2637 0060 00000000 		.word	Radio
 2638 0064 006880CC 		.word	-864000000
 2639 0068 00000000 		.word	.LANCHOR1
 2640 006c 808D5B00 		.word	6000000
 2641              		.cfi_endproc
 2642              	.LFE58:
 2643              		.size	RegionRU864DlChannelReq, .-RegionRU864DlChannelReq
 2644              		.section	.text.RegionRU864AlternateDr,"ax",%progbits
 2645              		.align	1
 2646              		.p2align 2,,3
 2647              		.global	RegionRU864AlternateDr
 2648              		.syntax unified
 2649              		.code	16
 2650              		.thumb_func
 2651              		.fpu softvfp
 2652              		.type	RegionRU864AlternateDr, %function
 2653              	RegionRU864AlternateDr:
 2654              	.LFB59:
 824:../../../../../../Middlewares/Third_Party/LoRaWAN/Mac/region/RegionRU864.c ****     return currentDr;
 2655              		.loc 1 824 0
 2656              		.cfi_startproc
 2657              		@ args = 0, pretend = 0, frame = 0
 2658              		@ frame_needed = 0, uses_anonymous_args = 0
 2659              		@ link register save eliminated.
 2660              	.LVL241:
 826:../../../../../../Middlewares/Third_Party/LoRaWAN/Mac/region/RegionRU864.c **** 
 2661              		.loc 1 826 0
 2662              		@ sp needed
 2663 0000 7047     		bx	lr
 2664              		.cfi_endproc
 2665              	.LFE59:
 2666              		.size	RegionRU864AlternateDr, .-RegionRU864AlternateDr
 2667 0002 C046     		.section	.text.RegionRU864CalcBackOff,"ax",%progbits
 2668              		.align	1
 2669              		.p2align 2,,3
 2670              		.global	RegionRU864CalcBackOff
 2671              		.syntax unified
 2672              		.code	16
 2673              		.thumb_func
 2674              		.fpu softvfp
 2675              		.type	RegionRU864CalcBackOff, %function
 2676              	RegionRU864CalcBackOff:
 2677              	.LFB60:
 829:../../../../../../Middlewares/Third_Party/LoRaWAN/Mac/region/RegionRU864.c ****     RegionCommonCalcBackOffParams_t calcBackOffParams;
 2678              		.loc 1 829 0
 2679              		.cfi_startproc
 2680              		@ args = 0, pretend = 0, frame = 24
 2681              		@ frame_needed = 0, uses_anonymous_args = 0
ARM GAS  C:\Users\EBANO_~1\AppData\Local\Temp\ccazSBuk.s 			page 71


 2682              	.LVL242:
 2683 0000 00B5     		push	{lr}
 2684              	.LCFI29:
 2685              		.cfi_def_cfa_offset 4
 2686              		.cfi_offset 14, -4
 832:../../../../../../Middlewares/Third_Party/LoRaWAN/Mac/region/RegionRU864.c ****     calcBackOffParams.Bands = NvmCtx.Bands;
 2687              		.loc 1 832 0
 2688 0002 0B4A     		ldr	r2, .L247
 829:../../../../../../Middlewares/Third_Party/LoRaWAN/Mac/region/RegionRU864.c ****     RegionCommonCalcBackOffParams_t calcBackOffParams;
 2689              		.loc 1 829 0
 2690 0004 87B0     		sub	sp, sp, #28
 2691              	.LCFI30:
 2692              		.cfi_def_cfa_offset 32
 832:../../../../../../Middlewares/Third_Party/LoRaWAN/Mac/region/RegionRU864.c ****     calcBackOffParams.Bands = NvmCtx.Bands;
 2693              		.loc 1 832 0
 2694 0006 0192     		str	r2, [sp, #4]
 833:../../../../../../Middlewares/Third_Party/LoRaWAN/Mac/region/RegionRU864.c ****     calcBackOffParams.LastTxIsJoinRequest = calcBackOff->LastTxIsJoinRequest;
 2695              		.loc 1 833 0
 2696 0008 6032     		adds	r2, r2, #96
 2697 000a 0292     		str	r2, [sp, #8]
 834:../../../../../../Middlewares/Third_Party/LoRaWAN/Mac/region/RegionRU864.c ****     calcBackOffParams.Joined = calcBackOff->Joined;
 2698              		.loc 1 834 0
 2699 000c 4278     		ldrb	r2, [r0, #1]
 832:../../../../../../Middlewares/Third_Party/LoRaWAN/Mac/region/RegionRU864.c ****     calcBackOffParams.Bands = NvmCtx.Bands;
 2700              		.loc 1 832 0
 2701 000e 01AB     		add	r3, sp, #4
 834:../../../../../../Middlewares/Third_Party/LoRaWAN/Mac/region/RegionRU864.c ****     calcBackOffParams.Joined = calcBackOff->Joined;
 2702              		.loc 1 834 0
 2703 0010 1A72     		strb	r2, [r3, #8]
 835:../../../../../../Middlewares/Third_Party/LoRaWAN/Mac/region/RegionRU864.c ****     calcBackOffParams.DutyCycleEnabled = calcBackOff->DutyCycleEnabled;
 2704              		.loc 1 835 0
 2705 0012 0278     		ldrb	r2, [r0]
 2706 0014 5A72     		strb	r2, [r3, #9]
 836:../../../../../../Middlewares/Third_Party/LoRaWAN/Mac/region/RegionRU864.c ****     calcBackOffParams.Channel = calcBackOff->Channel;
 2707              		.loc 1 836 0
 2708 0016 8278     		ldrb	r2, [r0, #2]
 2709 0018 9A72     		strb	r2, [r3, #10]
 837:../../../../../../Middlewares/Third_Party/LoRaWAN/Mac/region/RegionRU864.c ****     calcBackOffParams.ElapsedTime = calcBackOff->ElapsedTime;
 2710              		.loc 1 837 0
 2711 001a C278     		ldrb	r2, [r0, #3]
 2712 001c DA72     		strb	r2, [r3, #11]
 838:../../../../../../Middlewares/Third_Party/LoRaWAN/Mac/region/RegionRU864.c ****     calcBackOffParams.TxTimeOnAir = calcBackOff->TxTimeOnAir;
 2713              		.loc 1 838 0
 2714 001e 4268     		ldr	r2, [r0, #4]
 2715 0020 0492     		str	r2, [sp, #16]
 839:../../../../../../Middlewares/Third_Party/LoRaWAN/Mac/region/RegionRU864.c **** 
 2716              		.loc 1 839 0
 2717 0022 8268     		ldr	r2, [r0, #8]
 841:../../../../../../Middlewares/Third_Party/LoRaWAN/Mac/region/RegionRU864.c **** }
 2718              		.loc 1 841 0
 2719 0024 1800     		movs	r0, r3
 2720              	.LVL243:
 839:../../../../../../Middlewares/Third_Party/LoRaWAN/Mac/region/RegionRU864.c **** 
 2721              		.loc 1 839 0
 2722 0026 0592     		str	r2, [sp, #20]
 841:../../../../../../Middlewares/Third_Party/LoRaWAN/Mac/region/RegionRU864.c **** }
 2723              		.loc 1 841 0
ARM GAS  C:\Users\EBANO_~1\AppData\Local\Temp\ccazSBuk.s 			page 72


 2724 0028 FFF7FEFF 		bl	RegionCommonCalcBackOff
 2725              	.LVL244:
 842:../../../../../../Middlewares/Third_Party/LoRaWAN/Mac/region/RegionRU864.c **** 
 2726              		.loc 1 842 0
 2727 002c 07B0     		add	sp, sp, #28
 2728              		@ sp needed
 2729 002e 00BD     		pop	{pc}
 2730              	.L248:
 2731              		.align	2
 2732              	.L247:
 2733 0030 00000000 		.word	.LANCHOR1
 2734              		.cfi_endproc
 2735              	.LFE60:
 2736              		.size	RegionRU864CalcBackOff, .-RegionRU864CalcBackOff
 2737              		.section	.text.RegionRU864NextChannel,"ax",%progbits
 2738              		.align	1
 2739              		.p2align 2,,3
 2740              		.global	RegionRU864NextChannel
 2741              		.syntax unified
 2742              		.code	16
 2743              		.thumb_func
 2744              		.fpu softvfp
 2745              		.type	RegionRU864NextChannel, %function
 2746              	RegionRU864NextChannel:
 2747              	.LFB61:
 845:../../../../../../Middlewares/Third_Party/LoRaWAN/Mac/region/RegionRU864.c ****     uint8_t nbEnabledChannels = 0;
 2748              		.loc 1 845 0
 2749              		.cfi_startproc
 2750              		@ args = 0, pretend = 0, frame = 24
 2751              		@ frame_needed = 0, uses_anonymous_args = 0
 2752              	.LVL245:
 2753 0000 F0B5     		push	{r4, r5, r6, r7, lr}
 2754              	.LCFI31:
 2755              		.cfi_def_cfa_offset 20
 2756              		.cfi_offset 4, -20
 2757              		.cfi_offset 5, -16
 2758              		.cfi_offset 6, -12
 2759              		.cfi_offset 7, -8
 2760              		.cfi_offset 14, -4
 2761 0002 4E46     		mov	r6, r9
 2762 0004 DE46     		mov	lr, fp
 2763 0006 5746     		mov	r7, r10
 2764 0008 4546     		mov	r5, r8
 2765 000a E0B5     		push	{r5, r6, r7, lr}
