ARM GAS  C:\Users\EBANO_~1\AppData\Local\Temp\ccJkfoGk.s 			page 1


   1              		.cpu cortex-m0plus
   2              		.eabi_attribute 20, 1
   3              		.eabi_attribute 21, 1
   4              		.eabi_attribute 23, 3
   5              		.eabi_attribute 24, 1
   6              		.eabi_attribute 25, 1
   7              		.eabi_attribute 26, 1
   8              		.eabi_attribute 30, 2
   9              		.eabi_attribute 34, 0
  10              		.eabi_attribute 18, 4
  11              		.file	"RegionEU868.c"
  12              		.text
  13              	.Ltext0:
  14              		.cfi_sections	.debug_frame
  15              		.section	.text.RegionEU868GetPhyParam,"ax",%progbits
  16              		.align	1
  17              		.p2align 2,,3
  18              		.global	RegionEU868GetPhyParam
  19              		.syntax unified
  20              		.code	16
  21              		.thumb_func
  22              		.fpu softvfp
  23              		.type	RegionEU868GetPhyParam, %function
  24              	RegionEU868GetPhyParam:
  25              	.LFB44:
  26              		.file 1 "../../../../../../Middlewares/Third_Party/LoRaWAN/Mac/region/RegionEU868.c"
   1:../../../../../../Middlewares/Third_Party/LoRaWAN/Mac/region/RegionEU868.c **** /*!
   2:../../../../../../Middlewares/Third_Party/LoRaWAN/Mac/region/RegionEU868.c ****  * \file      RegionEU868.c
   3:../../../../../../Middlewares/Third_Party/LoRaWAN/Mac/region/RegionEU868.c ****  *
   4:../../../../../../Middlewares/Third_Party/LoRaWAN/Mac/region/RegionEU868.c ****  * \brief     Region implementation for EU868
   5:../../../../../../Middlewares/Third_Party/LoRaWAN/Mac/region/RegionEU868.c ****  *
   6:../../../../../../Middlewares/Third_Party/LoRaWAN/Mac/region/RegionEU868.c ****  * \copyright Revised BSD License, see section \ref LICENSE.
   7:../../../../../../Middlewares/Third_Party/LoRaWAN/Mac/region/RegionEU868.c ****  *
   8:../../../../../../Middlewares/Third_Party/LoRaWAN/Mac/region/RegionEU868.c ****  * \code
   9:../../../../../../Middlewares/Third_Party/LoRaWAN/Mac/region/RegionEU868.c ****  *                ______                              _
  10:../../../../../../Middlewares/Third_Party/LoRaWAN/Mac/region/RegionEU868.c ****  *               / _____)             _              | |
  11:../../../../../../Middlewares/Third_Party/LoRaWAN/Mac/region/RegionEU868.c ****  *              ( (____  _____ ____ _| |_ _____  ____| |__
  12:../../../../../../Middlewares/Third_Party/LoRaWAN/Mac/region/RegionEU868.c ****  *               \____ \| ___ |    (_   _) ___ |/ ___)  _ \
  13:../../../../../../Middlewares/Third_Party/LoRaWAN/Mac/region/RegionEU868.c ****  *               _____) ) ____| | | || |_| ____( (___| | | |
  14:../../../../../../Middlewares/Third_Party/LoRaWAN/Mac/region/RegionEU868.c ****  *              (______/|_____)_|_|_| \__)_____)\____)_| |_|
  15:../../../../../../Middlewares/Third_Party/LoRaWAN/Mac/region/RegionEU868.c ****  *              (C)2013-2017 Semtech
  16:../../../../../../Middlewares/Third_Party/LoRaWAN/Mac/region/RegionEU868.c ****  *
  17:../../../../../../Middlewares/Third_Party/LoRaWAN/Mac/region/RegionEU868.c ****  *               ___ _____ _   ___ _  _____ ___  ___  ___ ___
  18:../../../../../../Middlewares/Third_Party/LoRaWAN/Mac/region/RegionEU868.c ****  *              / __|_   _/_\ / __| |/ / __/ _ \| _ \/ __| __|
  19:../../../../../../Middlewares/Third_Party/LoRaWAN/Mac/region/RegionEU868.c ****  *              \__ \ | |/ _ \ (__| ' <| _| (_) |   / (__| _|
  20:../../../../../../Middlewares/Third_Party/LoRaWAN/Mac/region/RegionEU868.c ****  *              |___/ |_/_/ \_\___|_|\_\_| \___/|_|_\\___|___|
  21:../../../../../../Middlewares/Third_Party/LoRaWAN/Mac/region/RegionEU868.c ****  *              embedded.connectivity.solutions===============
  22:../../../../../../Middlewares/Third_Party/LoRaWAN/Mac/region/RegionEU868.c ****  *
  23:../../../../../../Middlewares/Third_Party/LoRaWAN/Mac/region/RegionEU868.c ****  * \endcode
  24:../../../../../../Middlewares/Third_Party/LoRaWAN/Mac/region/RegionEU868.c ****  *
  25:../../../../../../Middlewares/Third_Party/LoRaWAN/Mac/region/RegionEU868.c ****  * \author    Miguel Luis ( Semtech )
  26:../../../../../../Middlewares/Third_Party/LoRaWAN/Mac/region/RegionEU868.c ****  *
  27:../../../../../../Middlewares/Third_Party/LoRaWAN/Mac/region/RegionEU868.c ****  * \author    Gregory Cristian ( Semtech )
  28:../../../../../../Middlewares/Third_Party/LoRaWAN/Mac/region/RegionEU868.c ****  *
  29:../../../../../../Middlewares/Third_Party/LoRaWAN/Mac/region/RegionEU868.c ****  * \author    Daniel Jaeckle ( STACKFORCE )
  30:../../../../../../Middlewares/Third_Party/LoRaWAN/Mac/region/RegionEU868.c **** */
  31:../../../../../../Middlewares/Third_Party/LoRaWAN/Mac/region/RegionEU868.c **** #include "utilities.h"
ARM GAS  C:\Users\EBANO_~1\AppData\Local\Temp\ccJkfoGk.s 			page 2


  32:../../../../../../Middlewares/Third_Party/LoRaWAN/Mac/region/RegionEU868.c **** 
  33:../../../../../../Middlewares/Third_Party/LoRaWAN/Mac/region/RegionEU868.c **** #include "RegionCommon.h"
  34:../../../../../../Middlewares/Third_Party/LoRaWAN/Mac/region/RegionEU868.c **** #include "RegionEU868.h"
  35:../../../../../../Middlewares/Third_Party/LoRaWAN/Mac/region/RegionEU868.c **** #include "util_console.h"
  36:../../../../../../Middlewares/Third_Party/LoRaWAN/Mac/region/RegionEU868.c **** 
  37:../../../../../../Middlewares/Third_Party/LoRaWAN/Mac/region/RegionEU868.c **** // Definitions
  38:../../../../../../Middlewares/Third_Party/LoRaWAN/Mac/region/RegionEU868.c **** #define CHANNELS_MASK_SIZE              1
  39:../../../../../../Middlewares/Third_Party/LoRaWAN/Mac/region/RegionEU868.c **** 
  40:../../../../../../Middlewares/Third_Party/LoRaWAN/Mac/region/RegionEU868.c **** /*!
  41:../../../../../../Middlewares/Third_Party/LoRaWAN/Mac/region/RegionEU868.c ****  * Region specific context
  42:../../../../../../Middlewares/Third_Party/LoRaWAN/Mac/region/RegionEU868.c ****  */
  43:../../../../../../Middlewares/Third_Party/LoRaWAN/Mac/region/RegionEU868.c **** typedef struct sRegionEU868NvmCtx
  44:../../../../../../Middlewares/Third_Party/LoRaWAN/Mac/region/RegionEU868.c **** {
  45:../../../../../../Middlewares/Third_Party/LoRaWAN/Mac/region/RegionEU868.c ****     /*!
  46:../../../../../../Middlewares/Third_Party/LoRaWAN/Mac/region/RegionEU868.c ****      * LoRaMAC channels
  47:../../../../../../Middlewares/Third_Party/LoRaWAN/Mac/region/RegionEU868.c ****      */
  48:../../../../../../Middlewares/Third_Party/LoRaWAN/Mac/region/RegionEU868.c ****     ChannelParams_t Channels[ EU868_MAX_NB_CHANNELS ];
  49:../../../../../../Middlewares/Third_Party/LoRaWAN/Mac/region/RegionEU868.c ****     /*!
  50:../../../../../../Middlewares/Third_Party/LoRaWAN/Mac/region/RegionEU868.c ****      * LoRaMac bands
  51:../../../../../../Middlewares/Third_Party/LoRaWAN/Mac/region/RegionEU868.c ****      */
  52:../../../../../../Middlewares/Third_Party/LoRaWAN/Mac/region/RegionEU868.c ****     Band_t Bands[ EU868_MAX_NB_BANDS ];
  53:../../../../../../Middlewares/Third_Party/LoRaWAN/Mac/region/RegionEU868.c ****     /*!
  54:../../../../../../Middlewares/Third_Party/LoRaWAN/Mac/region/RegionEU868.c ****      * LoRaMac channels mask
  55:../../../../../../Middlewares/Third_Party/LoRaWAN/Mac/region/RegionEU868.c ****      */
  56:../../../../../../Middlewares/Third_Party/LoRaWAN/Mac/region/RegionEU868.c ****     uint16_t ChannelsMask[ CHANNELS_MASK_SIZE ];
  57:../../../../../../Middlewares/Third_Party/LoRaWAN/Mac/region/RegionEU868.c ****     /*!
  58:../../../../../../Middlewares/Third_Party/LoRaWAN/Mac/region/RegionEU868.c ****      * LoRaMac channels default mask
  59:../../../../../../Middlewares/Third_Party/LoRaWAN/Mac/region/RegionEU868.c ****      */
  60:../../../../../../Middlewares/Third_Party/LoRaWAN/Mac/region/RegionEU868.c ****     uint16_t ChannelsDefaultMask[ CHANNELS_MASK_SIZE ];
  61:../../../../../../Middlewares/Third_Party/LoRaWAN/Mac/region/RegionEU868.c **** }RegionEU868NvmCtx_t;
  62:../../../../../../Middlewares/Third_Party/LoRaWAN/Mac/region/RegionEU868.c **** 
  63:../../../../../../Middlewares/Third_Party/LoRaWAN/Mac/region/RegionEU868.c **** /*
  64:../../../../../../Middlewares/Third_Party/LoRaWAN/Mac/region/RegionEU868.c ****  * Non-volatile module context.
  65:../../../../../../Middlewares/Third_Party/LoRaWAN/Mac/region/RegionEU868.c ****  */
  66:../../../../../../Middlewares/Third_Party/LoRaWAN/Mac/region/RegionEU868.c **** static RegionEU868NvmCtx_t NvmCtx;
  67:../../../../../../Middlewares/Third_Party/LoRaWAN/Mac/region/RegionEU868.c **** 
  68:../../../../../../Middlewares/Third_Party/LoRaWAN/Mac/region/RegionEU868.c **** // Static functions
  69:../../../../../../Middlewares/Third_Party/LoRaWAN/Mac/region/RegionEU868.c **** static int8_t GetNextLowerTxDr( int8_t dr, int8_t minDr )
  70:../../../../../../Middlewares/Third_Party/LoRaWAN/Mac/region/RegionEU868.c **** {
  71:../../../../../../Middlewares/Third_Party/LoRaWAN/Mac/region/RegionEU868.c ****     uint8_t nextLowerDr = 0;
  72:../../../../../../Middlewares/Third_Party/LoRaWAN/Mac/region/RegionEU868.c **** 
  73:../../../../../../Middlewares/Third_Party/LoRaWAN/Mac/region/RegionEU868.c ****     if( dr == minDr )
  74:../../../../../../Middlewares/Third_Party/LoRaWAN/Mac/region/RegionEU868.c ****     {
  75:../../../../../../Middlewares/Third_Party/LoRaWAN/Mac/region/RegionEU868.c ****         nextLowerDr = minDr;
  76:../../../../../../Middlewares/Third_Party/LoRaWAN/Mac/region/RegionEU868.c ****     }
  77:../../../../../../Middlewares/Third_Party/LoRaWAN/Mac/region/RegionEU868.c ****     else
  78:../../../../../../Middlewares/Third_Party/LoRaWAN/Mac/region/RegionEU868.c ****     {
  79:../../../../../../Middlewares/Third_Party/LoRaWAN/Mac/region/RegionEU868.c ****         nextLowerDr = dr - 1;
  80:../../../../../../Middlewares/Third_Party/LoRaWAN/Mac/region/RegionEU868.c ****     }
  81:../../../../../../Middlewares/Third_Party/LoRaWAN/Mac/region/RegionEU868.c ****     return nextLowerDr;
  82:../../../../../../Middlewares/Third_Party/LoRaWAN/Mac/region/RegionEU868.c **** }
  83:../../../../../../Middlewares/Third_Party/LoRaWAN/Mac/region/RegionEU868.c **** 
  84:../../../../../../Middlewares/Third_Party/LoRaWAN/Mac/region/RegionEU868.c **** static uint32_t GetBandwidth( uint32_t drIndex )
  85:../../../../../../Middlewares/Third_Party/LoRaWAN/Mac/region/RegionEU868.c **** {
  86:../../../../../../Middlewares/Third_Party/LoRaWAN/Mac/region/RegionEU868.c ****     switch( BandwidthsEU868[drIndex] )
  87:../../../../../../Middlewares/Third_Party/LoRaWAN/Mac/region/RegionEU868.c ****     {
  88:../../../../../../Middlewares/Third_Party/LoRaWAN/Mac/region/RegionEU868.c ****         default:
ARM GAS  C:\Users\EBANO_~1\AppData\Local\Temp\ccJkfoGk.s 			page 3


  89:../../../../../../Middlewares/Third_Party/LoRaWAN/Mac/region/RegionEU868.c ****         case 125000:
  90:../../../../../../Middlewares/Third_Party/LoRaWAN/Mac/region/RegionEU868.c ****             return 0;
  91:../../../../../../Middlewares/Third_Party/LoRaWAN/Mac/region/RegionEU868.c ****         case 250000:
  92:../../../../../../Middlewares/Third_Party/LoRaWAN/Mac/region/RegionEU868.c ****             return 1;
  93:../../../../../../Middlewares/Third_Party/LoRaWAN/Mac/region/RegionEU868.c ****         case 500000:
  94:../../../../../../Middlewares/Third_Party/LoRaWAN/Mac/region/RegionEU868.c ****             return 2;
  95:../../../../../../Middlewares/Third_Party/LoRaWAN/Mac/region/RegionEU868.c ****     }
  96:../../../../../../Middlewares/Third_Party/LoRaWAN/Mac/region/RegionEU868.c **** }
  97:../../../../../../Middlewares/Third_Party/LoRaWAN/Mac/region/RegionEU868.c **** 
  98:../../../../../../Middlewares/Third_Party/LoRaWAN/Mac/region/RegionEU868.c **** static int8_t LimitTxPower( int8_t txPower, int8_t maxBandTxPower, int8_t datarate, uint16_t* chann
  99:../../../../../../Middlewares/Third_Party/LoRaWAN/Mac/region/RegionEU868.c **** {
 100:../../../../../../Middlewares/Third_Party/LoRaWAN/Mac/region/RegionEU868.c ****     int8_t txPowerResult = txPower;
 101:../../../../../../Middlewares/Third_Party/LoRaWAN/Mac/region/RegionEU868.c **** 
 102:../../../../../../Middlewares/Third_Party/LoRaWAN/Mac/region/RegionEU868.c ****     // Limit tx power to the band max
 103:../../../../../../Middlewares/Third_Party/LoRaWAN/Mac/region/RegionEU868.c ****     txPowerResult =  MAX( txPower, maxBandTxPower );
 104:../../../../../../Middlewares/Third_Party/LoRaWAN/Mac/region/RegionEU868.c **** 
 105:../../../../../../Middlewares/Third_Party/LoRaWAN/Mac/region/RegionEU868.c ****     return txPowerResult;
 106:../../../../../../Middlewares/Third_Party/LoRaWAN/Mac/region/RegionEU868.c **** }
 107:../../../../../../Middlewares/Third_Party/LoRaWAN/Mac/region/RegionEU868.c **** 
 108:../../../../../../Middlewares/Third_Party/LoRaWAN/Mac/region/RegionEU868.c **** static bool VerifyRfFreq( uint32_t freq, uint8_t *band )
 109:../../../../../../Middlewares/Third_Party/LoRaWAN/Mac/region/RegionEU868.c **** {
 110:../../../../../../Middlewares/Third_Party/LoRaWAN/Mac/region/RegionEU868.c ****     // Check radio driver support
 111:../../../../../../Middlewares/Third_Party/LoRaWAN/Mac/region/RegionEU868.c ****     if( Radio.CheckRfFrequency( freq ) == false )
 112:../../../../../../Middlewares/Third_Party/LoRaWAN/Mac/region/RegionEU868.c ****     {
 113:../../../../../../Middlewares/Third_Party/LoRaWAN/Mac/region/RegionEU868.c ****         return false;
 114:../../../../../../Middlewares/Third_Party/LoRaWAN/Mac/region/RegionEU868.c ****     }
 115:../../../../../../Middlewares/Third_Party/LoRaWAN/Mac/region/RegionEU868.c **** 
 116:../../../../../../Middlewares/Third_Party/LoRaWAN/Mac/region/RegionEU868.c ****     // Check frequency bands
 117:../../../../../../Middlewares/Third_Party/LoRaWAN/Mac/region/RegionEU868.c ****     if( ( freq >= 863000000 ) && ( freq < 865000000 ) )
 118:../../../../../../Middlewares/Third_Party/LoRaWAN/Mac/region/RegionEU868.c ****     {
 119:../../../../../../Middlewares/Third_Party/LoRaWAN/Mac/region/RegionEU868.c ****         *band = 2;
 120:../../../../../../Middlewares/Third_Party/LoRaWAN/Mac/region/RegionEU868.c ****     }
 121:../../../../../../Middlewares/Third_Party/LoRaWAN/Mac/region/RegionEU868.c ****     else if( ( freq >= 865000000 ) && ( freq <= 868000000 ) )
 122:../../../../../../Middlewares/Third_Party/LoRaWAN/Mac/region/RegionEU868.c ****     {
 123:../../../../../../Middlewares/Third_Party/LoRaWAN/Mac/region/RegionEU868.c ****         *band = 0;
 124:../../../../../../Middlewares/Third_Party/LoRaWAN/Mac/region/RegionEU868.c ****     }
 125:../../../../../../Middlewares/Third_Party/LoRaWAN/Mac/region/RegionEU868.c ****     else if( ( freq > 868000000 ) && ( freq <= 868600000 ) )
 126:../../../../../../Middlewares/Third_Party/LoRaWAN/Mac/region/RegionEU868.c ****     {
 127:../../../../../../Middlewares/Third_Party/LoRaWAN/Mac/region/RegionEU868.c ****         *band = 1;
 128:../../../../../../Middlewares/Third_Party/LoRaWAN/Mac/region/RegionEU868.c ****     }
 129:../../../../../../Middlewares/Third_Party/LoRaWAN/Mac/region/RegionEU868.c ****     else if( ( freq >= 868700000 ) && ( freq <= 869200000 ) )
 130:../../../../../../Middlewares/Third_Party/LoRaWAN/Mac/region/RegionEU868.c ****     {
 131:../../../../../../Middlewares/Third_Party/LoRaWAN/Mac/region/RegionEU868.c ****         *band = 2;
 132:../../../../../../Middlewares/Third_Party/LoRaWAN/Mac/region/RegionEU868.c ****     }
 133:../../../../../../Middlewares/Third_Party/LoRaWAN/Mac/region/RegionEU868.c ****     else if( ( freq >= 869400000 ) && ( freq <= 869650000 ) )
 134:../../../../../../Middlewares/Third_Party/LoRaWAN/Mac/region/RegionEU868.c ****     {
 135:../../../../../../Middlewares/Third_Party/LoRaWAN/Mac/region/RegionEU868.c ****         *band = 3;
 136:../../../../../../Middlewares/Third_Party/LoRaWAN/Mac/region/RegionEU868.c ****     }
 137:../../../../../../Middlewares/Third_Party/LoRaWAN/Mac/region/RegionEU868.c ****     else if( ( freq >= 869700000 ) && ( freq <= 870000000 ) )
 138:../../../../../../Middlewares/Third_Party/LoRaWAN/Mac/region/RegionEU868.c ****     {
 139:../../../../../../Middlewares/Third_Party/LoRaWAN/Mac/region/RegionEU868.c ****         *band = 4;
 140:../../../../../../Middlewares/Third_Party/LoRaWAN/Mac/region/RegionEU868.c ****     }
 141:../../../../../../Middlewares/Third_Party/LoRaWAN/Mac/region/RegionEU868.c ****     else
 142:../../../../../../Middlewares/Third_Party/LoRaWAN/Mac/region/RegionEU868.c ****     {
 143:../../../../../../Middlewares/Third_Party/LoRaWAN/Mac/region/RegionEU868.c ****         return false;
 144:../../../../../../Middlewares/Third_Party/LoRaWAN/Mac/region/RegionEU868.c ****     }
 145:../../../../../../Middlewares/Third_Party/LoRaWAN/Mac/region/RegionEU868.c ****     return true;
ARM GAS  C:\Users\EBANO_~1\AppData\Local\Temp\ccJkfoGk.s 			page 4


 146:../../../../../../Middlewares/Third_Party/LoRaWAN/Mac/region/RegionEU868.c **** }
 147:../../../../../../Middlewares/Third_Party/LoRaWAN/Mac/region/RegionEU868.c **** 
 148:../../../../../../Middlewares/Third_Party/LoRaWAN/Mac/region/RegionEU868.c **** static uint8_t CountNbOfEnabledChannels( bool joined, uint8_t datarate, uint16_t* channelsMask, Cha
 149:../../../../../../Middlewares/Third_Party/LoRaWAN/Mac/region/RegionEU868.c **** {
 150:../../../../../../Middlewares/Third_Party/LoRaWAN/Mac/region/RegionEU868.c ****     uint8_t nbEnabledChannels = 0;
 151:../../../../../../Middlewares/Third_Party/LoRaWAN/Mac/region/RegionEU868.c ****     uint8_t delayTransmission = 0;
 152:../../../../../../Middlewares/Third_Party/LoRaWAN/Mac/region/RegionEU868.c **** 
 153:../../../../../../Middlewares/Third_Party/LoRaWAN/Mac/region/RegionEU868.c ****     for( uint8_t i = 0, k = 0; i < EU868_MAX_NB_CHANNELS; i += 16, k++ )
 154:../../../../../../Middlewares/Third_Party/LoRaWAN/Mac/region/RegionEU868.c ****     {
 155:../../../../../../Middlewares/Third_Party/LoRaWAN/Mac/region/RegionEU868.c ****         for( uint8_t j = 0; j < 16; j++ )
 156:../../../../../../Middlewares/Third_Party/LoRaWAN/Mac/region/RegionEU868.c ****         {
 157:../../../../../../Middlewares/Third_Party/LoRaWAN/Mac/region/RegionEU868.c ****             if( ( channelsMask[k] & ( 1 << j ) ) != 0 )
 158:../../../../../../Middlewares/Third_Party/LoRaWAN/Mac/region/RegionEU868.c ****             {
 159:../../../../../../Middlewares/Third_Party/LoRaWAN/Mac/region/RegionEU868.c ****                 if( channels[i + j].Frequency == 0 )
 160:../../../../../../Middlewares/Third_Party/LoRaWAN/Mac/region/RegionEU868.c ****                 { // Check if the channel is enabled
 161:../../../../../../Middlewares/Third_Party/LoRaWAN/Mac/region/RegionEU868.c ****                     continue;
 162:../../../../../../Middlewares/Third_Party/LoRaWAN/Mac/region/RegionEU868.c ****                 }
 163:../../../../../../Middlewares/Third_Party/LoRaWAN/Mac/region/RegionEU868.c ****                 if( joined == false )
 164:../../../../../../Middlewares/Third_Party/LoRaWAN/Mac/region/RegionEU868.c ****                 {
 165:../../../../../../Middlewares/Third_Party/LoRaWAN/Mac/region/RegionEU868.c ****                     if( ( EU868_JOIN_CHANNELS & ( 1 << j ) ) == 0 )
 166:../../../../../../Middlewares/Third_Party/LoRaWAN/Mac/region/RegionEU868.c ****                     {
 167:../../../../../../Middlewares/Third_Party/LoRaWAN/Mac/region/RegionEU868.c ****                         continue;
 168:../../../../../../Middlewares/Third_Party/LoRaWAN/Mac/region/RegionEU868.c ****                     }
 169:../../../../../../Middlewares/Third_Party/LoRaWAN/Mac/region/RegionEU868.c ****                 }
 170:../../../../../../Middlewares/Third_Party/LoRaWAN/Mac/region/RegionEU868.c ****                 if( RegionCommonValueInRange( datarate, channels[i + j].DrRange.Fields.Min,
 171:../../../../../../Middlewares/Third_Party/LoRaWAN/Mac/region/RegionEU868.c ****                                               channels[i + j].DrRange.Fields.Max ) == false )
 172:../../../../../../Middlewares/Third_Party/LoRaWAN/Mac/region/RegionEU868.c ****                 { // Check if the current channel selection supports the given datarate
 173:../../../../../../Middlewares/Third_Party/LoRaWAN/Mac/region/RegionEU868.c ****                     continue;
 174:../../../../../../Middlewares/Third_Party/LoRaWAN/Mac/region/RegionEU868.c ****                 }
 175:../../../../../../Middlewares/Third_Party/LoRaWAN/Mac/region/RegionEU868.c ****                 if( bands[channels[i + j].Band].TimeOff > 0 )
 176:../../../../../../Middlewares/Third_Party/LoRaWAN/Mac/region/RegionEU868.c ****                 { // Check if the band is available for transmission
 177:../../../../../../Middlewares/Third_Party/LoRaWAN/Mac/region/RegionEU868.c ****                     delayTransmission++;
 178:../../../../../../Middlewares/Third_Party/LoRaWAN/Mac/region/RegionEU868.c ****                     continue;
 179:../../../../../../Middlewares/Third_Party/LoRaWAN/Mac/region/RegionEU868.c ****                 }
 180:../../../../../../Middlewares/Third_Party/LoRaWAN/Mac/region/RegionEU868.c ****                 enabledChannels[nbEnabledChannels++] = i + j;
 181:../../../../../../Middlewares/Third_Party/LoRaWAN/Mac/region/RegionEU868.c ****             }
 182:../../../../../../Middlewares/Third_Party/LoRaWAN/Mac/region/RegionEU868.c ****         }
 183:../../../../../../Middlewares/Third_Party/LoRaWAN/Mac/region/RegionEU868.c ****     }
 184:../../../../../../Middlewares/Third_Party/LoRaWAN/Mac/region/RegionEU868.c **** 
 185:../../../../../../Middlewares/Third_Party/LoRaWAN/Mac/region/RegionEU868.c ****     *delayTx = delayTransmission;
 186:../../../../../../Middlewares/Third_Party/LoRaWAN/Mac/region/RegionEU868.c ****     return nbEnabledChannels;
 187:../../../../../../Middlewares/Third_Party/LoRaWAN/Mac/region/RegionEU868.c **** }
 188:../../../../../../Middlewares/Third_Party/LoRaWAN/Mac/region/RegionEU868.c **** 
 189:../../../../../../Middlewares/Third_Party/LoRaWAN/Mac/region/RegionEU868.c **** PhyParam_t RegionEU868GetPhyParam( GetPhyParams_t* getPhy )
 190:../../../../../../Middlewares/Third_Party/LoRaWAN/Mac/region/RegionEU868.c **** {
  27              		.loc 1 190 0
  28              		.cfi_startproc
  29              		@ args = 0, pretend = 0, frame = 8
  30              		@ frame_needed = 0, uses_anonymous_args = 0
  31              	.LVL0:
 191:../../../../../../Middlewares/Third_Party/LoRaWAN/Mac/region/RegionEU868.c ****     PhyParam_t phyParam = { 0 };
  32              		.loc 1 191 0
  33 0000 0023     		movs	r3, #0
 190:../../../../../../Middlewares/Third_Party/LoRaWAN/Mac/region/RegionEU868.c ****     PhyParam_t phyParam = { 0 };
  34              		.loc 1 190 0
  35 0002 00B5     		push	{lr}
  36              	.LCFI0:
ARM GAS  C:\Users\EBANO_~1\AppData\Local\Temp\ccJkfoGk.s 			page 5


  37              		.cfi_def_cfa_offset 4
  38              		.cfi_offset 14, -4
  39 0004 83B0     		sub	sp, sp, #12
  40              	.LCFI1:
  41              		.cfi_def_cfa_offset 16
  42              		.loc 1 191 0
  43 0006 0093     		str	r3, [sp]
 192:../../../../../../Middlewares/Third_Party/LoRaWAN/Mac/region/RegionEU868.c **** 
 193:../../../../../../Middlewares/Third_Party/LoRaWAN/Mac/region/RegionEU868.c ****     switch( getPhy->Attribute )
  44              		.loc 1 193 0
  45 0008 0378     		ldrb	r3, [r0]
  46 000a 0A3B     		subs	r3, r3, #10
  47 000c DBB2     		uxtb	r3, r3
  48 000e 2A2B     		cmp	r3, #42
  49 0010 05D8     		bhi	.L2
  50 0012 314A     		ldr	r2, .L30
  51 0014 9B00     		lsls	r3, r3, #2
  52 0016 D358     		ldr	r3, [r2, r3]
  53 0018 9F46     		mov	pc, r3
  54              		.section	.rodata
  55              		.align	2
  56              	.L4:
  57 0000 B0000000 		.word	.L3
  58 0004 30000000 		.word	.L5
  59 0008 CA000000 		.word	.L6
  60 000c BC000000 		.word	.L7
  61 0010 B6000000 		.word	.L8
  62 0014 60000000 		.word	.L9
  63 0018 58000000 		.word	.L10
  64 001c 50000000 		.word	.L11
  65 0020 66000000 		.word	.L12
  66 0024 94000000 		.word	.L13
  67 0028 8C000000 		.word	.L14
  68 002c 9A000000 		.word	.L15
  69 0030 1E000000 		.word	.L2
  70 0034 24000000 		.word	.L16
  71 0038 1E000000 		.word	.L2
  72 003c 42000000 		.word	.L17
  73 0040 1A000000 		.word	.L18
  74 0044 3C000000 		.word	.L19
  75 0048 36000000 		.word	.L20
  76 004c 1E000000 		.word	.L2
  77 0050 1E000000 		.word	.L2
  78 0054 48000000 		.word	.L21
  79 0058 6C000000 		.word	.L22
  80 005c 7A000000 		.word	.L23
  81 0060 1E000000 		.word	.L2
  82 0064 1E000000 		.word	.L2
  83 0068 1E000000 		.word	.L2
  84 006c 1E000000 		.word	.L2
  85 0070 1E000000 		.word	.L2
  86 0074 1E000000 		.word	.L2
  87 0078 1E000000 		.word	.L2
  88 007c 1E000000 		.word	.L2
  89 0080 1E000000 		.word	.L2
  90 0084 1E000000 		.word	.L2
  91 0088 1E000000 		.word	.L2
ARM GAS  C:\Users\EBANO_~1\AppData\Local\Temp\ccJkfoGk.s 			page 6


  92 008c 1E000000 		.word	.L2
  93 0090 1E000000 		.word	.L2
  94 0094 24000000 		.word	.L16
  95 0098 72000000 		.word	.L24
  96 009c 2A000000 		.word	.L25
  97 00a0 1E000000 		.word	.L2
  98 00a4 1E000000 		.word	.L2
  99 00a8 2A000000 		.word	.L25
 100              		.section	.text.RegionEU868GetPhyParam
 101              	.L18:
 194:../../../../../../Middlewares/Third_Party/LoRaWAN/Mac/region/RegionEU868.c ****     {
 195:../../../../../../Middlewares/Third_Party/LoRaWAN/Mac/region/RegionEU868.c ****         case PHY_MIN_RX_DR:
 196:../../../../../../Middlewares/Third_Party/LoRaWAN/Mac/region/RegionEU868.c ****         {
 197:../../../../../../Middlewares/Third_Party/LoRaWAN/Mac/region/RegionEU868.c ****             phyParam.Value = EU868_RX_MIN_DATARATE;
 198:../../../../../../Middlewares/Third_Party/LoRaWAN/Mac/region/RegionEU868.c ****             break;
 199:../../../../../../Middlewares/Third_Party/LoRaWAN/Mac/region/RegionEU868.c ****         }
 200:../../../../../../Middlewares/Third_Party/LoRaWAN/Mac/region/RegionEU868.c ****         case PHY_MIN_TX_DR:
 201:../../../../../../Middlewares/Third_Party/LoRaWAN/Mac/region/RegionEU868.c ****         {
 202:../../../../../../Middlewares/Third_Party/LoRaWAN/Mac/region/RegionEU868.c ****             phyParam.Value = EU868_TX_MIN_DATARATE;
 203:../../../../../../Middlewares/Third_Party/LoRaWAN/Mac/region/RegionEU868.c ****             break;
 204:../../../../../../Middlewares/Third_Party/LoRaWAN/Mac/region/RegionEU868.c ****         }
 205:../../../../../../Middlewares/Third_Party/LoRaWAN/Mac/region/RegionEU868.c ****         case PHY_DEF_TX_DR:
 206:../../../../../../Middlewares/Third_Party/LoRaWAN/Mac/region/RegionEU868.c ****         {
 207:../../../../../../Middlewares/Third_Party/LoRaWAN/Mac/region/RegionEU868.c ****             phyParam.Value = EU868_DEFAULT_DATARATE;
 208:../../../../../../Middlewares/Third_Party/LoRaWAN/Mac/region/RegionEU868.c ****             break;
 209:../../../../../../Middlewares/Third_Party/LoRaWAN/Mac/region/RegionEU868.c ****         }
 210:../../../../../../Middlewares/Third_Party/LoRaWAN/Mac/region/RegionEU868.c ****         case PHY_NEXT_LOWER_TX_DR:
 211:../../../../../../Middlewares/Third_Party/LoRaWAN/Mac/region/RegionEU868.c ****         {
 212:../../../../../../Middlewares/Third_Party/LoRaWAN/Mac/region/RegionEU868.c ****             phyParam.Value = GetNextLowerTxDr( getPhy->Datarate, EU868_TX_MIN_DATARATE );
 213:../../../../../../Middlewares/Third_Party/LoRaWAN/Mac/region/RegionEU868.c ****             break;
 214:../../../../../../Middlewares/Third_Party/LoRaWAN/Mac/region/RegionEU868.c ****         }
 215:../../../../../../Middlewares/Third_Party/LoRaWAN/Mac/region/RegionEU868.c ****         case PHY_MAX_TX_POWER:
 216:../../../../../../Middlewares/Third_Party/LoRaWAN/Mac/region/RegionEU868.c ****         {
 217:../../../../../../Middlewares/Third_Party/LoRaWAN/Mac/region/RegionEU868.c ****             phyParam.Value = EU868_MAX_TX_POWER;
 218:../../../../../../Middlewares/Third_Party/LoRaWAN/Mac/region/RegionEU868.c ****             break;
 219:../../../../../../Middlewares/Third_Party/LoRaWAN/Mac/region/RegionEU868.c ****         }
 220:../../../../../../Middlewares/Third_Party/LoRaWAN/Mac/region/RegionEU868.c ****         case PHY_DEF_TX_POWER:
 221:../../../../../../Middlewares/Third_Party/LoRaWAN/Mac/region/RegionEU868.c ****         {
 222:../../../../../../Middlewares/Third_Party/LoRaWAN/Mac/region/RegionEU868.c ****             phyParam.Value = EU868_DEFAULT_TX_POWER;
 223:../../../../../../Middlewares/Third_Party/LoRaWAN/Mac/region/RegionEU868.c ****             break;
 224:../../../../../../Middlewares/Third_Party/LoRaWAN/Mac/region/RegionEU868.c ****         }
 225:../../../../../../Middlewares/Third_Party/LoRaWAN/Mac/region/RegionEU868.c ****         case PHY_DEF_ADR_ACK_LIMIT:
 226:../../../../../../Middlewares/Third_Party/LoRaWAN/Mac/region/RegionEU868.c ****         {
 227:../../../../../../Middlewares/Third_Party/LoRaWAN/Mac/region/RegionEU868.c ****             phyParam.Value = EU868_ADR_ACK_LIMIT;
 228:../../../../../../Middlewares/Third_Party/LoRaWAN/Mac/region/RegionEU868.c ****             break;
 229:../../../../../../Middlewares/Third_Party/LoRaWAN/Mac/region/RegionEU868.c ****         }
 230:../../../../../../Middlewares/Third_Party/LoRaWAN/Mac/region/RegionEU868.c ****         case PHY_DEF_ADR_ACK_DELAY:
 231:../../../../../../Middlewares/Third_Party/LoRaWAN/Mac/region/RegionEU868.c ****         {
 232:../../../../../../Middlewares/Third_Party/LoRaWAN/Mac/region/RegionEU868.c ****             phyParam.Value = EU868_ADR_ACK_DELAY;
 233:../../../../../../Middlewares/Third_Party/LoRaWAN/Mac/region/RegionEU868.c ****             break;
 234:../../../../../../Middlewares/Third_Party/LoRaWAN/Mac/region/RegionEU868.c ****         }
 235:../../../../../../Middlewares/Third_Party/LoRaWAN/Mac/region/RegionEU868.c ****         case PHY_MAX_PAYLOAD:
 236:../../../../../../Middlewares/Third_Party/LoRaWAN/Mac/region/RegionEU868.c ****         {
 237:../../../../../../Middlewares/Third_Party/LoRaWAN/Mac/region/RegionEU868.c ****             phyParam.Value = MaxPayloadOfDatarateEU868[getPhy->Datarate];
 238:../../../../../../Middlewares/Third_Party/LoRaWAN/Mac/region/RegionEU868.c ****             break;
 239:../../../../../../Middlewares/Third_Party/LoRaWAN/Mac/region/RegionEU868.c ****         }
 240:../../../../../../Middlewares/Third_Party/LoRaWAN/Mac/region/RegionEU868.c ****         case PHY_MAX_PAYLOAD_REPEATER:
ARM GAS  C:\Users\EBANO_~1\AppData\Local\Temp\ccJkfoGk.s 			page 7


 241:../../../../../../Middlewares/Third_Party/LoRaWAN/Mac/region/RegionEU868.c ****         {
 242:../../../../../../Middlewares/Third_Party/LoRaWAN/Mac/region/RegionEU868.c ****             phyParam.Value = MaxPayloadOfDatarateRepeaterEU868[getPhy->Datarate];
 243:../../../../../../Middlewares/Third_Party/LoRaWAN/Mac/region/RegionEU868.c ****             break;
 244:../../../../../../Middlewares/Third_Party/LoRaWAN/Mac/region/RegionEU868.c ****         }
 245:../../../../../../Middlewares/Third_Party/LoRaWAN/Mac/region/RegionEU868.c ****         case PHY_DUTY_CYCLE:
 246:../../../../../../Middlewares/Third_Party/LoRaWAN/Mac/region/RegionEU868.c ****         {
 247:../../../../../../Middlewares/Third_Party/LoRaWAN/Mac/region/RegionEU868.c ****             phyParam.Value = EU868_DUTY_CYCLE_ENABLED;
 248:../../../../../../Middlewares/Third_Party/LoRaWAN/Mac/region/RegionEU868.c ****             break;
 249:../../../../../../Middlewares/Third_Party/LoRaWAN/Mac/region/RegionEU868.c ****         }
 250:../../../../../../Middlewares/Third_Party/LoRaWAN/Mac/region/RegionEU868.c ****         case PHY_MAX_RX_WINDOW:
 251:../../../../../../Middlewares/Third_Party/LoRaWAN/Mac/region/RegionEU868.c ****         {
 252:../../../../../../Middlewares/Third_Party/LoRaWAN/Mac/region/RegionEU868.c ****             phyParam.Value = EU868_MAX_RX_WINDOW;
 253:../../../../../../Middlewares/Third_Party/LoRaWAN/Mac/region/RegionEU868.c ****             break;
 254:../../../../../../Middlewares/Third_Party/LoRaWAN/Mac/region/RegionEU868.c ****         }
 255:../../../../../../Middlewares/Third_Party/LoRaWAN/Mac/region/RegionEU868.c ****         case PHY_RECEIVE_DELAY1:
 256:../../../../../../Middlewares/Third_Party/LoRaWAN/Mac/region/RegionEU868.c ****         {
 257:../../../../../../Middlewares/Third_Party/LoRaWAN/Mac/region/RegionEU868.c ****             phyParam.Value = EU868_RECEIVE_DELAY1;
 258:../../../../../../Middlewares/Third_Party/LoRaWAN/Mac/region/RegionEU868.c ****             break;
 259:../../../../../../Middlewares/Third_Party/LoRaWAN/Mac/region/RegionEU868.c ****         }
 260:../../../../../../Middlewares/Third_Party/LoRaWAN/Mac/region/RegionEU868.c ****         case PHY_RECEIVE_DELAY2:
 261:../../../../../../Middlewares/Third_Party/LoRaWAN/Mac/region/RegionEU868.c ****         {
 262:../../../../../../Middlewares/Third_Party/LoRaWAN/Mac/region/RegionEU868.c ****             phyParam.Value = EU868_RECEIVE_DELAY2;
 263:../../../../../../Middlewares/Third_Party/LoRaWAN/Mac/region/RegionEU868.c ****             break;
 264:../../../../../../Middlewares/Third_Party/LoRaWAN/Mac/region/RegionEU868.c ****         }
 265:../../../../../../Middlewares/Third_Party/LoRaWAN/Mac/region/RegionEU868.c ****         case PHY_JOIN_ACCEPT_DELAY1:
 266:../../../../../../Middlewares/Third_Party/LoRaWAN/Mac/region/RegionEU868.c ****         {
 267:../../../../../../Middlewares/Third_Party/LoRaWAN/Mac/region/RegionEU868.c ****             phyParam.Value = EU868_JOIN_ACCEPT_DELAY1;
 268:../../../../../../Middlewares/Third_Party/LoRaWAN/Mac/region/RegionEU868.c ****             break;
 269:../../../../../../Middlewares/Third_Party/LoRaWAN/Mac/region/RegionEU868.c ****         }
 270:../../../../../../Middlewares/Third_Party/LoRaWAN/Mac/region/RegionEU868.c ****         case PHY_JOIN_ACCEPT_DELAY2:
 271:../../../../../../Middlewares/Third_Party/LoRaWAN/Mac/region/RegionEU868.c ****         {
 272:../../../../../../Middlewares/Third_Party/LoRaWAN/Mac/region/RegionEU868.c ****             phyParam.Value = EU868_JOIN_ACCEPT_DELAY2;
 273:../../../../../../Middlewares/Third_Party/LoRaWAN/Mac/region/RegionEU868.c ****             break;
 274:../../../../../../Middlewares/Third_Party/LoRaWAN/Mac/region/RegionEU868.c ****         }
 275:../../../../../../Middlewares/Third_Party/LoRaWAN/Mac/region/RegionEU868.c ****         case PHY_MAX_FCNT_GAP:
 276:../../../../../../Middlewares/Third_Party/LoRaWAN/Mac/region/RegionEU868.c ****         {
 277:../../../../../../Middlewares/Third_Party/LoRaWAN/Mac/region/RegionEU868.c ****             phyParam.Value = EU868_MAX_FCNT_GAP;
 278:../../../../../../Middlewares/Third_Party/LoRaWAN/Mac/region/RegionEU868.c ****             break;
 279:../../../../../../Middlewares/Third_Party/LoRaWAN/Mac/region/RegionEU868.c ****         }
 280:../../../../../../Middlewares/Third_Party/LoRaWAN/Mac/region/RegionEU868.c ****         case PHY_ACK_TIMEOUT:
 281:../../../../../../Middlewares/Third_Party/LoRaWAN/Mac/region/RegionEU868.c ****         {
 282:../../../../../../Middlewares/Third_Party/LoRaWAN/Mac/region/RegionEU868.c ****             phyParam.Value = ( EU868_ACKTIMEOUT + randr( -EU868_ACK_TIMEOUT_RND, EU868_ACK_TIMEOUT_
 283:../../../../../../Middlewares/Third_Party/LoRaWAN/Mac/region/RegionEU868.c ****             break;
 284:../../../../../../Middlewares/Third_Party/LoRaWAN/Mac/region/RegionEU868.c ****         }
 285:../../../../../../Middlewares/Third_Party/LoRaWAN/Mac/region/RegionEU868.c ****         case PHY_DEF_DR1_OFFSET:
 286:../../../../../../Middlewares/Third_Party/LoRaWAN/Mac/region/RegionEU868.c ****         {
 287:../../../../../../Middlewares/Third_Party/LoRaWAN/Mac/region/RegionEU868.c ****             phyParam.Value = EU868_DEFAULT_RX1_DR_OFFSET;
 288:../../../../../../Middlewares/Third_Party/LoRaWAN/Mac/region/RegionEU868.c ****             break;
 289:../../../../../../Middlewares/Third_Party/LoRaWAN/Mac/region/RegionEU868.c ****         }
 290:../../../../../../Middlewares/Third_Party/LoRaWAN/Mac/region/RegionEU868.c ****         case PHY_DEF_RX2_FREQUENCY:
 291:../../../../../../Middlewares/Third_Party/LoRaWAN/Mac/region/RegionEU868.c ****         {
 292:../../../../../../Middlewares/Third_Party/LoRaWAN/Mac/region/RegionEU868.c ****             phyParam.Value = EU868_RX_WND_2_FREQ;
 293:../../../../../../Middlewares/Third_Party/LoRaWAN/Mac/region/RegionEU868.c ****             break;
 294:../../../../../../Middlewares/Third_Party/LoRaWAN/Mac/region/RegionEU868.c ****         }
 295:../../../../../../Middlewares/Third_Party/LoRaWAN/Mac/region/RegionEU868.c ****         case PHY_DEF_RX2_DR:
 296:../../../../../../Middlewares/Third_Party/LoRaWAN/Mac/region/RegionEU868.c ****         {
 297:../../../../../../Middlewares/Third_Party/LoRaWAN/Mac/region/RegionEU868.c ****             phyParam.Value = EU868_RX_WND_2_DR;
ARM GAS  C:\Users\EBANO_~1\AppData\Local\Temp\ccJkfoGk.s 			page 8


 298:../../../../../../Middlewares/Third_Party/LoRaWAN/Mac/region/RegionEU868.c ****             break;
 299:../../../../../../Middlewares/Third_Party/LoRaWAN/Mac/region/RegionEU868.c ****         }
 300:../../../../../../Middlewares/Third_Party/LoRaWAN/Mac/region/RegionEU868.c ****         case PHY_CHANNELS_MASK:
 301:../../../../../../Middlewares/Third_Party/LoRaWAN/Mac/region/RegionEU868.c ****         {
 302:../../../../../../Middlewares/Third_Party/LoRaWAN/Mac/region/RegionEU868.c ****             phyParam.ChannelsMask = NvmCtx.ChannelsMask;
 303:../../../../../../Middlewares/Third_Party/LoRaWAN/Mac/region/RegionEU868.c ****             break;
 304:../../../../../../Middlewares/Third_Party/LoRaWAN/Mac/region/RegionEU868.c ****         }
 305:../../../../../../Middlewares/Third_Party/LoRaWAN/Mac/region/RegionEU868.c ****         case PHY_CHANNELS_DEFAULT_MASK:
 306:../../../../../../Middlewares/Third_Party/LoRaWAN/Mac/region/RegionEU868.c ****         {
 307:../../../../../../Middlewares/Third_Party/LoRaWAN/Mac/region/RegionEU868.c ****             phyParam.ChannelsMask = NvmCtx.ChannelsDefaultMask;
 102              		.loc 1 307 0
 103 001a 304B     		ldr	r3, .L30+4
 104 001c 0093     		str	r3, [sp]
 105              	.LVL1:
 106              	.L2:
 308:../../../../../../Middlewares/Third_Party/LoRaWAN/Mac/region/RegionEU868.c ****             break;
 309:../../../../../../Middlewares/Third_Party/LoRaWAN/Mac/region/RegionEU868.c ****         }
 310:../../../../../../Middlewares/Third_Party/LoRaWAN/Mac/region/RegionEU868.c ****         case PHY_MAX_NB_CHANNELS:
 311:../../../../../../Middlewares/Third_Party/LoRaWAN/Mac/region/RegionEU868.c ****         {
 312:../../../../../../Middlewares/Third_Party/LoRaWAN/Mac/region/RegionEU868.c ****             phyParam.Value = EU868_MAX_NB_CHANNELS;
 313:../../../../../../Middlewares/Third_Party/LoRaWAN/Mac/region/RegionEU868.c ****             break;
 314:../../../../../../Middlewares/Third_Party/LoRaWAN/Mac/region/RegionEU868.c ****         }
 315:../../../../../../Middlewares/Third_Party/LoRaWAN/Mac/region/RegionEU868.c ****         case PHY_CHANNELS:
 316:../../../../../../Middlewares/Third_Party/LoRaWAN/Mac/region/RegionEU868.c ****         {
 317:../../../../../../Middlewares/Third_Party/LoRaWAN/Mac/region/RegionEU868.c ****             phyParam.Channels = NvmCtx.Channels;
 318:../../../../../../Middlewares/Third_Party/LoRaWAN/Mac/region/RegionEU868.c ****             break;
 319:../../../../../../Middlewares/Third_Party/LoRaWAN/Mac/region/RegionEU868.c ****         }
 320:../../../../../../Middlewares/Third_Party/LoRaWAN/Mac/region/RegionEU868.c ****         case PHY_DEF_UPLINK_DWELL_TIME:
 321:../../../../../../Middlewares/Third_Party/LoRaWAN/Mac/region/RegionEU868.c ****         case PHY_DEF_DOWNLINK_DWELL_TIME:
 322:../../../../../../Middlewares/Third_Party/LoRaWAN/Mac/region/RegionEU868.c ****         {
 323:../../../../../../Middlewares/Third_Party/LoRaWAN/Mac/region/RegionEU868.c ****             phyParam.Value = 0;
 324:../../../../../../Middlewares/Third_Party/LoRaWAN/Mac/region/RegionEU868.c ****             break;
 325:../../../../../../Middlewares/Third_Party/LoRaWAN/Mac/region/RegionEU868.c ****         }
 326:../../../../../../Middlewares/Third_Party/LoRaWAN/Mac/region/RegionEU868.c ****         case PHY_DEF_MAX_EIRP:
 327:../../../../../../Middlewares/Third_Party/LoRaWAN/Mac/region/RegionEU868.c ****         {
 328:../../../../../../Middlewares/Third_Party/LoRaWAN/Mac/region/RegionEU868.c ****             phyParam.fValue = EU868_DEFAULT_MAX_EIRP;
 329:../../../../../../Middlewares/Third_Party/LoRaWAN/Mac/region/RegionEU868.c ****             break;
 330:../../../../../../Middlewares/Third_Party/LoRaWAN/Mac/region/RegionEU868.c ****         }
 331:../../../../../../Middlewares/Third_Party/LoRaWAN/Mac/region/RegionEU868.c ****         case PHY_DEF_ANTENNA_GAIN:
 332:../../../../../../Middlewares/Third_Party/LoRaWAN/Mac/region/RegionEU868.c ****         {
 333:../../../../../../Middlewares/Third_Party/LoRaWAN/Mac/region/RegionEU868.c ****             phyParam.fValue = EU868_DEFAULT_ANTENNA_GAIN;
 334:../../../../../../Middlewares/Third_Party/LoRaWAN/Mac/region/RegionEU868.c ****             break;
 335:../../../../../../Middlewares/Third_Party/LoRaWAN/Mac/region/RegionEU868.c ****         }
 336:../../../../../../Middlewares/Third_Party/LoRaWAN/Mac/region/RegionEU868.c ****         case PHY_BEACON_CHANNEL_FREQ:
 337:../../../../../../Middlewares/Third_Party/LoRaWAN/Mac/region/RegionEU868.c ****         {
 338:../../../../../../Middlewares/Third_Party/LoRaWAN/Mac/region/RegionEU868.c ****             phyParam.Value = EU868_BEACON_CHANNEL_FREQ;
 339:../../../../../../Middlewares/Third_Party/LoRaWAN/Mac/region/RegionEU868.c ****             break;
 340:../../../../../../Middlewares/Third_Party/LoRaWAN/Mac/region/RegionEU868.c ****         }
 341:../../../../../../Middlewares/Third_Party/LoRaWAN/Mac/region/RegionEU868.c ****         case PHY_BEACON_FORMAT:
 342:../../../../../../Middlewares/Third_Party/LoRaWAN/Mac/region/RegionEU868.c ****         {
 343:../../../../../../Middlewares/Third_Party/LoRaWAN/Mac/region/RegionEU868.c ****             phyParam.BeaconFormat.BeaconSize = EU868_BEACON_SIZE;
 344:../../../../../../Middlewares/Third_Party/LoRaWAN/Mac/region/RegionEU868.c ****             phyParam.BeaconFormat.Rfu1Size = EU868_RFU1_SIZE;
 345:../../../../../../Middlewares/Third_Party/LoRaWAN/Mac/region/RegionEU868.c ****             phyParam.BeaconFormat.Rfu2Size = EU868_RFU2_SIZE;
 346:../../../../../../Middlewares/Third_Party/LoRaWAN/Mac/region/RegionEU868.c ****             break;
 347:../../../../../../Middlewares/Third_Party/LoRaWAN/Mac/region/RegionEU868.c ****         }
 348:../../../../../../Middlewares/Third_Party/LoRaWAN/Mac/region/RegionEU868.c ****         case PHY_BEACON_CHANNEL_DR:
 349:../../../../../../Middlewares/Third_Party/LoRaWAN/Mac/region/RegionEU868.c ****         {
ARM GAS  C:\Users\EBANO_~1\AppData\Local\Temp\ccJkfoGk.s 			page 9


 350:../../../../../../Middlewares/Third_Party/LoRaWAN/Mac/region/RegionEU868.c ****             phyParam.Value = EU868_BEACON_CHANNEL_DR;
 351:../../../../../../Middlewares/Third_Party/LoRaWAN/Mac/region/RegionEU868.c ****             break;
 352:../../../../../../Middlewares/Third_Party/LoRaWAN/Mac/region/RegionEU868.c ****         }
 353:../../../../../../Middlewares/Third_Party/LoRaWAN/Mac/region/RegionEU868.c ****         case PHY_PING_SLOT_CHANNEL_DR:
 354:../../../../../../Middlewares/Third_Party/LoRaWAN/Mac/region/RegionEU868.c ****         {
 355:../../../../../../Middlewares/Third_Party/LoRaWAN/Mac/region/RegionEU868.c ****             phyParam.Value = EU868_PING_SLOT_CHANNEL_DR;
 356:../../../../../../Middlewares/Third_Party/LoRaWAN/Mac/region/RegionEU868.c ****             break;
 357:../../../../../../Middlewares/Third_Party/LoRaWAN/Mac/region/RegionEU868.c ****         }
 358:../../../../../../Middlewares/Third_Party/LoRaWAN/Mac/region/RegionEU868.c ****         default:
 359:../../../../../../Middlewares/Third_Party/LoRaWAN/Mac/region/RegionEU868.c ****         {
 360:../../../../../../Middlewares/Third_Party/LoRaWAN/Mac/region/RegionEU868.c ****             break;
 361:../../../../../../Middlewares/Third_Party/LoRaWAN/Mac/region/RegionEU868.c ****         }
 362:../../../../../../Middlewares/Third_Party/LoRaWAN/Mac/region/RegionEU868.c ****     }
 363:../../../../../../Middlewares/Third_Party/LoRaWAN/Mac/region/RegionEU868.c **** 
 364:../../../../../../Middlewares/Third_Party/LoRaWAN/Mac/region/RegionEU868.c ****     return phyParam;
 365:../../../../../../Middlewares/Third_Party/LoRaWAN/Mac/region/RegionEU868.c **** }
 107              		.loc 1 365 0
 108 001e 0098     		ldr	r0, [sp]
 109 0020 03B0     		add	sp, sp, #12
 110              		@ sp needed
 111 0022 00BD     		pop	{pc}
 112              	.LVL2:
 113              	.L16:
 292:../../../../../../Middlewares/Third_Party/LoRaWAN/Mac/region/RegionEU868.c ****             break;
 114              		.loc 1 292 0
 115 0024 2E4B     		ldr	r3, .L30+8
 116 0026 0093     		str	r3, [sp]
 293:../../../../../../Middlewares/Third_Party/LoRaWAN/Mac/region/RegionEU868.c ****         }
 117              		.loc 1 293 0
 118 0028 F9E7     		b	.L2
 119              	.L25:
 350:../../../../../../Middlewares/Third_Party/LoRaWAN/Mac/region/RegionEU868.c ****             break;
 120              		.loc 1 350 0
 121 002a 0323     		movs	r3, #3
 122 002c 0093     		str	r3, [sp]
 351:../../../../../../Middlewares/Third_Party/LoRaWAN/Mac/region/RegionEU868.c ****         }
 123              		.loc 1 351 0
 124 002e F6E7     		b	.L2
 125              	.L5:
 232:../../../../../../Middlewares/Third_Party/LoRaWAN/Mac/region/RegionEU868.c ****             break;
 126              		.loc 1 232 0
 127 0030 2023     		movs	r3, #32
 128 0032 0093     		str	r3, [sp]
 233:../../../../../../Middlewares/Third_Party/LoRaWAN/Mac/region/RegionEU868.c ****         }
 129              		.loc 1 233 0
 130 0034 F3E7     		b	.L2
 131              	.L20:
 317:../../../../../../Middlewares/Third_Party/LoRaWAN/Mac/region/RegionEU868.c ****             break;
 132              		.loc 1 317 0
 133 0036 2B4B     		ldr	r3, .L30+12
 134 0038 0093     		str	r3, [sp]
 318:../../../../../../Middlewares/Third_Party/LoRaWAN/Mac/region/RegionEU868.c ****         }
 135              		.loc 1 318 0
 136 003a F0E7     		b	.L2
 137              	.L19:
 312:../../../../../../Middlewares/Third_Party/LoRaWAN/Mac/region/RegionEU868.c ****             break;
 138              		.loc 1 312 0
ARM GAS  C:\Users\EBANO_~1\AppData\Local\Temp\ccJkfoGk.s 			page 10


 139 003c 1023     		movs	r3, #16
 140 003e 0093     		str	r3, [sp]
 313:../../../../../../Middlewares/Third_Party/LoRaWAN/Mac/region/RegionEU868.c ****         }
 141              		.loc 1 313 0
 142 0040 EDE7     		b	.L2
 143              	.L17:
 302:../../../../../../Middlewares/Third_Party/LoRaWAN/Mac/region/RegionEU868.c ****             break;
 144              		.loc 1 302 0
 145 0042 294B     		ldr	r3, .L30+16
 146 0044 0093     		str	r3, [sp]
 303:../../../../../../Middlewares/Third_Party/LoRaWAN/Mac/region/RegionEU868.c ****         }
 147              		.loc 1 303 0
 148 0046 EAE7     		b	.L2
 149              	.L21:
 328:../../../../../../Middlewares/Third_Party/LoRaWAN/Mac/region/RegionEU868.c ****             break;
 150              		.loc 1 328 0
 151 0048 8323     		movs	r3, #131
 152 004a DB05     		lsls	r3, r3, #23
 153 004c 0093     		str	r3, [sp]
 329:../../../../../../Middlewares/Third_Party/LoRaWAN/Mac/region/RegionEU868.c ****         }
 154              		.loc 1 329 0
 155 004e E6E7     		b	.L2
 156              	.L11:
 262:../../../../../../Middlewares/Third_Party/LoRaWAN/Mac/region/RegionEU868.c ****             break;
 157              		.loc 1 262 0
 158 0050 FA23     		movs	r3, #250
 159 0052 DB00     		lsls	r3, r3, #3
 160 0054 0093     		str	r3, [sp]
 263:../../../../../../Middlewares/Third_Party/LoRaWAN/Mac/region/RegionEU868.c ****         }
 161              		.loc 1 263 0
 162 0056 E2E7     		b	.L2
 163              	.L10:
 257:../../../../../../Middlewares/Third_Party/LoRaWAN/Mac/region/RegionEU868.c ****             break;
 164              		.loc 1 257 0
 165 0058 FA23     		movs	r3, #250
 166 005a 9B00     		lsls	r3, r3, #2
 167 005c 0093     		str	r3, [sp]
 258:../../../../../../Middlewares/Third_Party/LoRaWAN/Mac/region/RegionEU868.c ****         }
 168              		.loc 1 258 0
 169 005e DEE7     		b	.L2
 170              	.L9:
 252:../../../../../../Middlewares/Third_Party/LoRaWAN/Mac/region/RegionEU868.c ****             break;
 171              		.loc 1 252 0
 172 0060 224B     		ldr	r3, .L30+20
 173 0062 0093     		str	r3, [sp]
 253:../../../../../../Middlewares/Third_Party/LoRaWAN/Mac/region/RegionEU868.c ****         }
 174              		.loc 1 253 0
 175 0064 DBE7     		b	.L2
 176              	.L12:
 267:../../../../../../Middlewares/Third_Party/LoRaWAN/Mac/region/RegionEU868.c ****             break;
 177              		.loc 1 267 0
 178 0066 224B     		ldr	r3, .L30+24
 179 0068 0093     		str	r3, [sp]
 268:../../../../../../Middlewares/Third_Party/LoRaWAN/Mac/region/RegionEU868.c ****         }
 180              		.loc 1 268 0
 181 006a D8E7     		b	.L2
 182              	.L22:
ARM GAS  C:\Users\EBANO_~1\AppData\Local\Temp\ccJkfoGk.s 			page 11


 333:../../../../../../Middlewares/Third_Party/LoRaWAN/Mac/region/RegionEU868.c ****             break;
 183              		.loc 1 333 0
 184 006c 214B     		ldr	r3, .L30+28
 185 006e 0093     		str	r3, [sp]
 334:../../../../../../Middlewares/Third_Party/LoRaWAN/Mac/region/RegionEU868.c ****         }
 186              		.loc 1 334 0
 187 0070 D5E7     		b	.L2
 188              	.L24:
 343:../../../../../../Middlewares/Third_Party/LoRaWAN/Mac/region/RegionEU868.c ****             phyParam.BeaconFormat.Rfu1Size = EU868_RFU1_SIZE;
 189              		.loc 1 343 0
 190 0072 6A46     		mov	r2, sp
 191 0074 204B     		ldr	r3, .L30+32
 192 0076 1380     		strh	r3, [r2]
 346:../../../../../../Middlewares/Third_Party/LoRaWAN/Mac/region/RegionEU868.c ****         }
 193              		.loc 1 346 0
 194 0078 D1E7     		b	.L2
 195              	.L23:
 212:../../../../../../Middlewares/Third_Party/LoRaWAN/Mac/region/RegionEU868.c ****             break;
 196              		.loc 1 212 0
 197 007a 0123     		movs	r3, #1
 198 007c C356     		ldrsb	r3, [r0, r3]
 199              	.LVL3:
 200              	.LBB16:
 201              	.LBB17:
  73:../../../../../../Middlewares/Third_Party/LoRaWAN/Mac/region/RegionEU868.c ****     {
 202              		.loc 1 73 0
 203 007e 0022     		movs	r2, #0
 204 0080 002B     		cmp	r3, #0
 205 0082 01D0     		beq	.L26
 206              	.LVL4:
  79:../../../../../../Middlewares/Third_Party/LoRaWAN/Mac/region/RegionEU868.c ****     }
 207              		.loc 1 79 0
 208 0084 013B     		subs	r3, r3, #1
 209              	.LVL5:
 210 0086 5AB2     		sxtb	r2, r3
 211              	.LVL6:
 212              	.L26:
 213              	.LBE17:
 214              	.LBE16:
 212:../../../../../../Middlewares/Third_Party/LoRaWAN/Mac/region/RegionEU868.c ****             break;
 215              		.loc 1 212 0
 216 0088 0092     		str	r2, [sp]
 213:../../../../../../Middlewares/Third_Party/LoRaWAN/Mac/region/RegionEU868.c ****         }
 217              		.loc 1 213 0
 218 008a C8E7     		b	.L2
 219              	.L14:
 277:../../../../../../Middlewares/Third_Party/LoRaWAN/Mac/region/RegionEU868.c ****             break;
 220              		.loc 1 277 0
 221 008c 8023     		movs	r3, #128
 222 008e DB01     		lsls	r3, r3, #7
 223 0090 0093     		str	r3, [sp]
 278:../../../../../../Middlewares/Third_Party/LoRaWAN/Mac/region/RegionEU868.c ****         }
 224              		.loc 1 278 0
 225 0092 C4E7     		b	.L2
 226              	.L13:
 272:../../../../../../Middlewares/Third_Party/LoRaWAN/Mac/region/RegionEU868.c ****             break;
 227              		.loc 1 272 0
ARM GAS  C:\Users\EBANO_~1\AppData\Local\Temp\ccJkfoGk.s 			page 12


 228 0094 194B     		ldr	r3, .L30+36
 229 0096 0093     		str	r3, [sp]
 273:../../../../../../Middlewares/Third_Party/LoRaWAN/Mac/region/RegionEU868.c ****         }
 230              		.loc 1 273 0
 231 0098 C1E7     		b	.L2
 232              	.L15:
 282:../../../../../../Middlewares/Third_Party/LoRaWAN/Mac/region/RegionEU868.c ****             break;
 233              		.loc 1 282 0
 234 009a FA21     		movs	r1, #250
 235 009c 1848     		ldr	r0, .L30+40
 236              	.LVL7:
 237 009e 8900     		lsls	r1, r1, #2
 238 00a0 FFF7FEFF 		bl	randr
 239              	.LVL8:
 240 00a4 FA23     		movs	r3, #250
 241 00a6 DB00     		lsls	r3, r3, #3
 242 00a8 9C46     		mov	ip, r3
 243 00aa 6044     		add	r0, r0, ip
 244 00ac 0090     		str	r0, [sp]
 283:../../../../../../Middlewares/Third_Party/LoRaWAN/Mac/region/RegionEU868.c ****         }
 245              		.loc 1 283 0
 246 00ae B6E7     		b	.L2
 247              	.LVL9:
 248              	.L3:
 227:../../../../../../Middlewares/Third_Party/LoRaWAN/Mac/region/RegionEU868.c ****             break;
 249              		.loc 1 227 0
 250 00b0 4023     		movs	r3, #64
 251 00b2 0093     		str	r3, [sp]
 228:../../../../../../Middlewares/Third_Party/LoRaWAN/Mac/region/RegionEU868.c ****         }
 252              		.loc 1 228 0
 253 00b4 B3E7     		b	.L2
 254              	.L8:
 247:../../../../../../Middlewares/Third_Party/LoRaWAN/Mac/region/RegionEU868.c ****             break;
 255              		.loc 1 247 0
 256 00b6 0123     		movs	r3, #1
 257 00b8 0093     		str	r3, [sp]
 248:../../../../../../Middlewares/Third_Party/LoRaWAN/Mac/region/RegionEU868.c ****         }
 258              		.loc 1 248 0
 259 00ba B0E7     		b	.L2
 260              	.L7:
 242:../../../../../../Middlewares/Third_Party/LoRaWAN/Mac/region/RegionEU868.c ****             break;
 261              		.loc 1 242 0
 262 00bc 0122     		movs	r2, #1
 263 00be 114B     		ldr	r3, .L30+44
 264 00c0 8256     		ldrsb	r2, [r0, r2]
 265 00c2 9B18     		adds	r3, r3, r2
 266 00c4 1B7A     		ldrb	r3, [r3, #8]
 267 00c6 0093     		str	r3, [sp]
 243:../../../../../../Middlewares/Third_Party/LoRaWAN/Mac/region/RegionEU868.c ****         }
 268              		.loc 1 243 0
 269 00c8 A9E7     		b	.L2
 270              	.L6:
 237:../../../../../../Middlewares/Third_Party/LoRaWAN/Mac/region/RegionEU868.c ****             break;
 271              		.loc 1 237 0
 272 00ca 0123     		movs	r3, #1
 273 00cc 0D4A     		ldr	r2, .L30+44
 274 00ce C356     		ldrsb	r3, [r0, r3]
ARM GAS  C:\Users\EBANO_~1\AppData\Local\Temp\ccJkfoGk.s 			page 13


 275 00d0 D35C     		ldrb	r3, [r2, r3]
 276 00d2 0093     		str	r3, [sp]
 238:../../../../../../Middlewares/Third_Party/LoRaWAN/Mac/region/RegionEU868.c ****         }
 277              		.loc 1 238 0
 278 00d4 A3E7     		b	.L2
 279              	.L31:
 280 00d6 C046     		.align	2
 281              	.L30:
 282 00d8 00000000 		.word	.L4
 283 00dc 12010000 		.word	NvmCtx+274
 284 00e0 08E6D333 		.word	869525000
 285 00e4 00000000 		.word	NvmCtx
 286 00e8 10010000 		.word	NvmCtx+272
 287 00ec B80B0000 		.word	3000
 288 00f0 88130000 		.word	5000
 289 00f4 9A990940 		.word	1074370970
 290 00f8 11020000 		.word	529
 291 00fc 70170000 		.word	6000
 292 0100 18FCFFFF 		.word	-1000
 293 0104 00010000 		.word	.LANCHOR0
 294              		.cfi_endproc
 295              	.LFE44:
 296              		.size	RegionEU868GetPhyParam, .-RegionEU868GetPhyParam
 297              		.section	.text.RegionEU868SetBandTxDone,"ax",%progbits
 298              		.align	1
 299              		.p2align 2,,3
 300              		.global	RegionEU868SetBandTxDone
 301              		.syntax unified
 302              		.code	16
 303              		.thumb_func
 304              		.fpu softvfp
 305              		.type	RegionEU868SetBandTxDone, %function
 306              	RegionEU868SetBandTxDone:
 307              	.LFB45:
 366:../../../../../../Middlewares/Third_Party/LoRaWAN/Mac/region/RegionEU868.c **** 
 367:../../../../../../Middlewares/Third_Party/LoRaWAN/Mac/region/RegionEU868.c **** void RegionEU868SetBandTxDone( SetBandTxDoneParams_t* txDone )
 368:../../../../../../Middlewares/Third_Party/LoRaWAN/Mac/region/RegionEU868.c **** {
 308              		.loc 1 368 0
 309              		.cfi_startproc
 310              		@ args = 0, pretend = 0, frame = 0
 311              		@ frame_needed = 0, uses_anonymous_args = 0
 312              	.LVL10:
 369:../../../../../../Middlewares/Third_Party/LoRaWAN/Mac/region/RegionEU868.c ****     RegionCommonSetBandTxDone( txDone->Joined, &NvmCtx.Bands[NvmCtx.Channels[txDone->Channel].Band]
 313              		.loc 1 369 0
 314 0000 0178     		ldrb	r1, [r0]
 368:../../../../../../Middlewares/Third_Party/LoRaWAN/Mac/region/RegionEU868.c ****     RegionCommonSetBandTxDone( txDone->Joined, &NvmCtx.Bands[NvmCtx.Channels[txDone->Channel].Band]
 315              		.loc 1 368 0
 316 0002 10B5     		push	{r4, lr}
 317              	.LCFI2:
 318              		.cfi_def_cfa_offset 8
 319              		.cfi_offset 4, -8
 320              		.cfi_offset 14, -4
 321              		.loc 1 369 0
 322 0004 4B00     		lsls	r3, r1, #1
 323 0006 064C     		ldr	r4, .L33
 324 0008 5B18     		adds	r3, r3, r1
 325 000a 9B00     		lsls	r3, r3, #2
ARM GAS  C:\Users\EBANO_~1\AppData\Local\Temp\ccJkfoGk.s 			page 14


 326 000c E318     		adds	r3, r4, r3
 327 000e 597A     		ldrb	r1, [r3, #9]
 328 0010 4268     		ldr	r2, [r0, #4]
 329 0012 0C31     		adds	r1, r1, #12
 330 0014 0901     		lsls	r1, r1, #4
 331 0016 0919     		adds	r1, r1, r4
 332 0018 4078     		ldrb	r0, [r0, #1]
 333              	.LVL11:
 334 001a FFF7FEFF 		bl	RegionCommonSetBandTxDone
 335              	.LVL12:
 370:../../../../../../Middlewares/Third_Party/LoRaWAN/Mac/region/RegionEU868.c **** }
 336              		.loc 1 370 0
 337              		@ sp needed
 338 001e 10BD     		pop	{r4, pc}
 339              	.L34:
 340              		.align	2
 341              	.L33:
 342 0020 00000000 		.word	NvmCtx
 343              		.cfi_endproc
 344              	.LFE45:
 345              		.size	RegionEU868SetBandTxDone, .-RegionEU868SetBandTxDone
 346              		.section	.text.RegionEU868InitDefaults,"ax",%progbits
 347              		.align	1
 348              		.p2align 2,,3
 349              		.global	RegionEU868InitDefaults
 350              		.syntax unified
 351              		.code	16
 352              		.thumb_func
 353              		.fpu softvfp
 354              		.type	RegionEU868InitDefaults, %function
 355              	RegionEU868InitDefaults:
 356              	.LFB46:
 371:../../../../../../Middlewares/Third_Party/LoRaWAN/Mac/region/RegionEU868.c **** 
 372:../../../../../../Middlewares/Third_Party/LoRaWAN/Mac/region/RegionEU868.c **** void RegionEU868InitDefaults( InitDefaultsParams_t* params )
 373:../../../../../../Middlewares/Third_Party/LoRaWAN/Mac/region/RegionEU868.c **** {
 357              		.loc 1 373 0
 358              		.cfi_startproc
 359              		@ args = 0, pretend = 0, frame = 80
 360              		@ frame_needed = 0, uses_anonymous_args = 0
 361              	.LVL13:
 362 0000 F0B5     		push	{r4, r5, r6, r7, lr}
 363              	.LCFI3:
 364              		.cfi_def_cfa_offset 20
 365              		.cfi_offset 4, -20
 366              		.cfi_offset 5, -16
 367              		.cfi_offset 6, -12
 368              		.cfi_offset 7, -8
 369              		.cfi_offset 14, -4
 370 0002 95B0     		sub	sp, sp, #84
 371              	.LCFI4:
 372              		.cfi_def_cfa_offset 104
 374:../../../../../../Middlewares/Third_Party/LoRaWAN/Mac/region/RegionEU868.c ****     Band_t bands[EU868_MAX_NB_BANDS] =
 373              		.loc 1 374 0
 374 0004 6B46     		mov	r3, sp
 373:../../../../../../Middlewares/Third_Party/LoRaWAN/Mac/region/RegionEU868.c ****     Band_t bands[EU868_MAX_NB_BANDS] =
 375              		.loc 1 373 0
 376 0006 0400     		movs	r4, r0
ARM GAS  C:\Users\EBANO_~1\AppData\Local\Temp\ccJkfoGk.s 			page 15


 377              		.loc 1 374 0
 378 0008 4E22     		movs	r2, #78
 379 000a 0021     		movs	r1, #0
 380 000c 981C     		adds	r0, r3, #2
 381              	.LVL14:
 382 000e FFF7FEFF 		bl	memset
 383              	.LVL15:
 384 0012 6423     		movs	r3, #100
 385 0014 6A46     		mov	r2, sp
 386 0016 1380     		strh	r3, [r2]
 387 0018 1382     		strh	r3, [r2, #16]
 388 001a FA22     		movs	r2, #250
 389 001c 6946     		mov	r1, sp
 390 001e 9200     		lsls	r2, r2, #2
 391 0020 0A84     		strh	r2, [r1, #32]
 392 0022 0A22     		movs	r2, #10
 393 0024 0A86     		strh	r2, [r1, #48]
 394 0026 3632     		adds	r2, r2, #54
 395 0028 8B52     		strh	r3, [r1, r2]
 375:../../../../../../Middlewares/Third_Party/LoRaWAN/Mac/region/RegionEU868.c ****     {
 376:../../../../../../Middlewares/Third_Party/LoRaWAN/Mac/region/RegionEU868.c ****         EU868_BAND0,
 377:../../../../../../Middlewares/Third_Party/LoRaWAN/Mac/region/RegionEU868.c ****         EU868_BAND1,
 378:../../../../../../Middlewares/Third_Party/LoRaWAN/Mac/region/RegionEU868.c ****         EU868_BAND2,
 379:../../../../../../Middlewares/Third_Party/LoRaWAN/Mac/region/RegionEU868.c ****         EU868_BAND3,
 380:../../../../../../Middlewares/Third_Party/LoRaWAN/Mac/region/RegionEU868.c ****         EU868_BAND4,
 381:../../../../../../Middlewares/Third_Party/LoRaWAN/Mac/region/RegionEU868.c ****     };
 382:../../../../../../Middlewares/Third_Party/LoRaWAN/Mac/region/RegionEU868.c **** 
 383:../../../../../../Middlewares/Third_Party/LoRaWAN/Mac/region/RegionEU868.c ****     switch( params->Type )
 396              		.loc 1 383 0
 397 002a 2379     		ldrb	r3, [r4, #4]
 398 002c 012B     		cmp	r3, #1
 399 002e 30D0     		beq	.L37
 400 0030 002B     		cmp	r3, #0
 401 0032 0BD0     		beq	.L38
 402 0034 022B     		cmp	r3, #2
 403 0036 07D1     		bne	.L35
 384:../../../../../../Middlewares/Third_Party/LoRaWAN/Mac/region/RegionEU868.c ****     {
 385:../../../../../../Middlewares/Third_Party/LoRaWAN/Mac/region/RegionEU868.c ****         case INIT_TYPE_INIT:
 386:../../../../../../Middlewares/Third_Party/LoRaWAN/Mac/region/RegionEU868.c ****         {
 387:../../../../../../Middlewares/Third_Party/LoRaWAN/Mac/region/RegionEU868.c ****             // Initialize bands
 388:../../../../../../Middlewares/Third_Party/LoRaWAN/Mac/region/RegionEU868.c ****             memcpy1( ( uint8_t* )NvmCtx.Bands, ( uint8_t* )bands, sizeof( Band_t ) * EU868_MAX_NB_B
 389:../../../../../../Middlewares/Third_Party/LoRaWAN/Mac/region/RegionEU868.c **** 
 390:../../../../../../Middlewares/Third_Party/LoRaWAN/Mac/region/RegionEU868.c ****             // Channels
 391:../../../../../../Middlewares/Third_Party/LoRaWAN/Mac/region/RegionEU868.c ****             NvmCtx.Channels[0] = ( ChannelParams_t ) EU868_LC1;
 392:../../../../../../Middlewares/Third_Party/LoRaWAN/Mac/region/RegionEU868.c ****             NvmCtx.Channels[1] = ( ChannelParams_t ) EU868_LC2;
 393:../../../../../../Middlewares/Third_Party/LoRaWAN/Mac/region/RegionEU868.c ****             NvmCtx.Channels[2] = ( ChannelParams_t ) EU868_LC3;
 394:../../../../../../Middlewares/Third_Party/LoRaWAN/Mac/region/RegionEU868.c **** 
 395:../../../../../../Middlewares/Third_Party/LoRaWAN/Mac/region/RegionEU868.c ****             // Initialize the channels default mask
 396:../../../../../../Middlewares/Third_Party/LoRaWAN/Mac/region/RegionEU868.c ****             NvmCtx.ChannelsDefaultMask[0] = LC( 1 ) + LC( 2 ) + LC( 3 );
 397:../../../../../../Middlewares/Third_Party/LoRaWAN/Mac/region/RegionEU868.c ****             // Update the channels mask
 398:../../../../../../Middlewares/Third_Party/LoRaWAN/Mac/region/RegionEU868.c ****             RegionCommonChanMaskCopy( NvmCtx.ChannelsMask, NvmCtx.ChannelsDefaultMask, 1 );
 399:../../../../../../Middlewares/Third_Party/LoRaWAN/Mac/region/RegionEU868.c ****             break;
 400:../../../../../../Middlewares/Third_Party/LoRaWAN/Mac/region/RegionEU868.c ****         }
 401:../../../../../../Middlewares/Third_Party/LoRaWAN/Mac/region/RegionEU868.c ****         case INIT_TYPE_RESTORE_CTX:
 402:../../../../../../Middlewares/Third_Party/LoRaWAN/Mac/region/RegionEU868.c ****         {
 403:../../../../../../Middlewares/Third_Party/LoRaWAN/Mac/region/RegionEU868.c ****             if( params->NvmCtx != 0 )
 404              		.loc 1 403 0
ARM GAS  C:\Users\EBANO_~1\AppData\Local\Temp\ccJkfoGk.s 			page 16


 405 0038 2168     		ldr	r1, [r4]
 406 003a 0029     		cmp	r1, #0
 407 003c 04D0     		beq	.L35
 404:../../../../../../Middlewares/Third_Party/LoRaWAN/Mac/region/RegionEU868.c ****             {
 405:../../../../../../Middlewares/Third_Party/LoRaWAN/Mac/region/RegionEU868.c ****                 memcpy1( (uint8_t*) &NvmCtx, (uint8_t*) params->NvmCtx, sizeof( NvmCtx ) );
 408              		.loc 1 405 0
 409 003e 8A22     		movs	r2, #138
 410 0040 1948     		ldr	r0, .L43
 411 0042 5200     		lsls	r2, r2, #1
 412 0044 FFF7FEFF 		bl	memcpy1
 413              	.LVL16:
 414              	.L35:
 406:../../../../../../Middlewares/Third_Party/LoRaWAN/Mac/region/RegionEU868.c ****             }
 407:../../../../../../Middlewares/Third_Party/LoRaWAN/Mac/region/RegionEU868.c ****             break;
 408:../../../../../../Middlewares/Third_Party/LoRaWAN/Mac/region/RegionEU868.c ****         }
 409:../../../../../../Middlewares/Third_Party/LoRaWAN/Mac/region/RegionEU868.c ****         case INIT_TYPE_RESTORE_DEFAULT_CHANNELS:
 410:../../../../../../Middlewares/Third_Party/LoRaWAN/Mac/region/RegionEU868.c ****         {
 411:../../../../../../Middlewares/Third_Party/LoRaWAN/Mac/region/RegionEU868.c ****             // Restore channels default mask
 412:../../../../../../Middlewares/Third_Party/LoRaWAN/Mac/region/RegionEU868.c ****             NvmCtx.ChannelsMask[0] |= NvmCtx.ChannelsDefaultMask[0];
 413:../../../../../../Middlewares/Third_Party/LoRaWAN/Mac/region/RegionEU868.c ****             break;
 414:../../../../../../Middlewares/Third_Party/LoRaWAN/Mac/region/RegionEU868.c ****         }
 415:../../../../../../Middlewares/Third_Party/LoRaWAN/Mac/region/RegionEU868.c ****         default:
 416:../../../../../../Middlewares/Third_Party/LoRaWAN/Mac/region/RegionEU868.c ****         {
 417:../../../../../../Middlewares/Third_Party/LoRaWAN/Mac/region/RegionEU868.c ****             break;
 418:../../../../../../Middlewares/Third_Party/LoRaWAN/Mac/region/RegionEU868.c ****         }
 419:../../../../../../Middlewares/Third_Party/LoRaWAN/Mac/region/RegionEU868.c ****     }
 420:../../../../../../Middlewares/Third_Party/LoRaWAN/Mac/region/RegionEU868.c **** }
 415              		.loc 1 420 0
 416 0048 15B0     		add	sp, sp, #84
 417              		@ sp needed
 418 004a F0BD     		pop	{r4, r5, r6, r7, pc}
 419              	.LVL17:
 420              	.L38:
 388:../../../../../../Middlewares/Third_Party/LoRaWAN/Mac/region/RegionEU868.c **** 
 421              		.loc 1 388 0
 422 004c 174C     		ldr	r4, .L43+4
 423              	.LVL18:
 424 004e 6946     		mov	r1, sp
 425 0050 2000     		movs	r0, r4
 426 0052 5022     		movs	r2, #80
 427 0054 FFF7FEFF 		bl	memcpy1
 428              	.LVL19:
 391:../../../../../../Middlewares/Third_Party/LoRaWAN/Mac/region/RegionEU868.c ****             NvmCtx.Channels[1] = ( ChannelParams_t ) EU868_LC2;
 429              		.loc 1 391 0
 430 0058 2200     		movs	r2, r4
 431 005a 154B     		ldr	r3, .L43+8
 432 005c C03A     		subs	r2, r2, #192
 433 005e 1900     		movs	r1, r3
 434 0060 1000     		movs	r0, r2
 435 0062 1031     		adds	r1, r1, #16
 436 0064 E0C9     		ldmia	r1!, {r5, r6, r7}
 437 0066 E0C0     		stmia	r0!, {r5, r6, r7}
 392:../../../../../../Middlewares/Third_Party/LoRaWAN/Mac/region/RegionEU868.c ****             NvmCtx.Channels[2] = ( ChannelParams_t ) EU868_LC3;
 438              		.loc 1 392 0
 439 0068 1900     		movs	r1, r3
 440 006a 1C31     		adds	r1, r1, #28
 441 006c E0C9     		ldmia	r1!, {r5, r6, r7}
ARM GAS  C:\Users\EBANO_~1\AppData\Local\Temp\ccJkfoGk.s 			page 17


 442 006e E0C0     		stmia	r0!, {r5, r6, r7}
 393:../../../../../../Middlewares/Third_Party/LoRaWAN/Mac/region/RegionEU868.c **** 
 443              		.loc 1 393 0
 444 0070 2100     		movs	r1, r4
 445 0072 2833     		adds	r3, r3, #40
 446 0074 A839     		subs	r1, r1, #168
 447 0076 61CB     		ldmia	r3!, {r0, r5, r6}
 448 0078 61C1     		stmia	r1!, {r0, r5, r6}
 396:../../../../../../Middlewares/Third_Party/LoRaWAN/Mac/region/RegionEU868.c ****             // Update the channels mask
 449              		.loc 1 396 0
 450 007a 8923     		movs	r3, #137
 451 007c 0721     		movs	r1, #7
 452 007e 5B00     		lsls	r3, r3, #1
 453 0080 D152     		strh	r1, [r2, r3]
 398:../../../../../../Middlewares/Third_Party/LoRaWAN/Mac/region/RegionEU868.c ****             break;
 454              		.loc 1 398 0
 455 0082 2000     		movs	r0, r4
 456 0084 2100     		movs	r1, r4
 457 0086 5030     		adds	r0, r0, #80
 458 0088 5231     		adds	r1, r1, #82
 459 008a 0122     		movs	r2, #1
 460 008c FFF7FEFF 		bl	RegionCommonChanMaskCopy
 461              	.LVL20:
 399:../../../../../../Middlewares/Third_Party/LoRaWAN/Mac/region/RegionEU868.c ****         }
 462              		.loc 1 399 0
 463 0090 DAE7     		b	.L35
 464              	.LVL21:
 465              	.L37:
 412:../../../../../../Middlewares/Third_Party/LoRaWAN/Mac/region/RegionEU868.c ****             break;
 466              		.loc 1 412 0
 467 0092 8821     		movs	r1, #136
 468 0094 8920     		movs	r0, #137
 469 0096 044B     		ldr	r3, .L43
 470 0098 4900     		lsls	r1, r1, #1
 471 009a 4000     		lsls	r0, r0, #1
 472 009c 5A5A     		ldrh	r2, [r3, r1]
 473 009e 185A     		ldrh	r0, [r3, r0]
 474 00a0 0243     		orrs	r2, r0
 475 00a2 5A52     		strh	r2, [r3, r1]
 476              		.loc 1 420 0
 477 00a4 D0E7     		b	.L35
 478              	.L44:
 479 00a6 C046     		.align	2
 480              	.L43:
 481 00a8 00000000 		.word	NvmCtx
 482 00ac C0000000 		.word	NvmCtx+192
 483 00b0 00010000 		.word	.LANCHOR0
 484              		.cfi_endproc
 485              	.LFE46:
 486              		.size	RegionEU868InitDefaults, .-RegionEU868InitDefaults
 487              		.section	.text.RegionEU868GetNvmCtx,"ax",%progbits
 488              		.align	1
 489              		.p2align 2,,3
 490              		.global	RegionEU868GetNvmCtx
 491              		.syntax unified
 492              		.code	16
 493              		.thumb_func
ARM GAS  C:\Users\EBANO_~1\AppData\Local\Temp\ccJkfoGk.s 			page 18


 494              		.fpu softvfp
 495              		.type	RegionEU868GetNvmCtx, %function
 496              	RegionEU868GetNvmCtx:
 497              	.LFB47:
 421:../../../../../../Middlewares/Third_Party/LoRaWAN/Mac/region/RegionEU868.c **** 
 422:../../../../../../Middlewares/Third_Party/LoRaWAN/Mac/region/RegionEU868.c **** void* RegionEU868GetNvmCtx( GetNvmCtxParams_t* params )
 423:../../../../../../Middlewares/Third_Party/LoRaWAN/Mac/region/RegionEU868.c **** {
 498              		.loc 1 423 0
 499              		.cfi_startproc
 500              		@ args = 0, pretend = 0, frame = 0
 501              		@ frame_needed = 0, uses_anonymous_args = 0
 502              		@ link register save eliminated.
 503              	.LVL22:
 424:../../../../../../Middlewares/Third_Party/LoRaWAN/Mac/region/RegionEU868.c ****     params->nvmCtxSize = sizeof( RegionEU868NvmCtx_t );
 504              		.loc 1 424 0
 505 0000 8A23     		movs	r3, #138
 506 0002 5B00     		lsls	r3, r3, #1
 507 0004 0360     		str	r3, [r0]
 425:../../../../../../Middlewares/Third_Party/LoRaWAN/Mac/region/RegionEU868.c ****     return &NvmCtx;
 426:../../../../../../Middlewares/Third_Party/LoRaWAN/Mac/region/RegionEU868.c **** }
 508              		.loc 1 426 0
 509              		@ sp needed
 510 0006 0148     		ldr	r0, .L46
 511              	.LVL23:
 512 0008 7047     		bx	lr
 513              	.L47:
 514 000a C046     		.align	2
 515              	.L46:
 516 000c 00000000 		.word	NvmCtx
 517              		.cfi_endproc
 518              	.LFE47:
 519              		.size	RegionEU868GetNvmCtx, .-RegionEU868GetNvmCtx
 520              		.section	.text.RegionEU868Verify,"ax",%progbits
 521              		.align	1
 522              		.p2align 2,,3
 523              		.global	RegionEU868Verify
 524              		.syntax unified
 525              		.code	16
 526              		.thumb_func
 527              		.fpu softvfp
 528              		.type	RegionEU868Verify, %function
 529              	RegionEU868Verify:
 530              	.LFB48:
 427:../../../../../../Middlewares/Third_Party/LoRaWAN/Mac/region/RegionEU868.c **** 
 428:../../../../../../Middlewares/Third_Party/LoRaWAN/Mac/region/RegionEU868.c **** bool RegionEU868Verify( VerifyParams_t* verify, PhyAttribute_t phyAttribute )
 429:../../../../../../Middlewares/Third_Party/LoRaWAN/Mac/region/RegionEU868.c **** {
 531              		.loc 1 429 0
 532              		.cfi_startproc
 533              		@ args = 0, pretend = 0, frame = 0
 534              		@ frame_needed = 0, uses_anonymous_args = 0
 535              	.LVL24:
 430:../../../../../../Middlewares/Third_Party/LoRaWAN/Mac/region/RegionEU868.c ****     switch( phyAttribute )
 536              		.loc 1 430 0
 537 0000 0439     		subs	r1, r1, #4
 538              	.LVL25:
 539 0002 C9B2     		uxtb	r1, r1
 429:../../../../../../Middlewares/Third_Party/LoRaWAN/Mac/region/RegionEU868.c ****     switch( phyAttribute )
ARM GAS  C:\Users\EBANO_~1\AppData\Local\Temp\ccJkfoGk.s 			page 19


 540              		.loc 1 429 0
 541 0004 10B5     		push	{r4, lr}
 542              	.LCFI5:
 543              		.cfi_def_cfa_offset 8
 544              		.cfi_offset 4, -8
 545              		.cfi_offset 14, -4
 546              		.loc 1 430 0
 547 0006 0A29     		cmp	r1, #10
 548 0008 19D8     		bhi	.L49
 549 000a 0E4B     		ldr	r3, .L56
 550 000c 8900     		lsls	r1, r1, #2
 551 000e 5B58     		ldr	r3, [r3, r1]
 552 0010 9F46     		mov	pc, r3
 553              		.section	.rodata
 554              		.align	2
 555              	.L51:
 556 00ac 12000000 		.word	.L53
 557 00b0 2A000000 		.word	.L52
 558 00b4 12000000 		.word	.L53
 559 00b8 3E000000 		.word	.L49
 560 00bc 12000000 		.word	.L53
 561 00c0 12000000 		.word	.L53
 562 00c4 3E000000 		.word	.L49
 563 00c8 3E000000 		.word	.L49
 564 00cc 3E000000 		.word	.L49
 565 00d0 3E000000 		.word	.L49
 566 00d4 26000000 		.word	.L55
 567              		.section	.text.RegionEU868Verify
 568              	.L53:
 431:../../../../../../Middlewares/Third_Party/LoRaWAN/Mac/region/RegionEU868.c ****     {
 432:../../../../../../Middlewares/Third_Party/LoRaWAN/Mac/region/RegionEU868.c ****         case PHY_TX_DR:
 433:../../../../../../Middlewares/Third_Party/LoRaWAN/Mac/region/RegionEU868.c ****         {
 434:../../../../../../Middlewares/Third_Party/LoRaWAN/Mac/region/RegionEU868.c ****             return RegionCommonValueInRange( verify->DatarateParams.Datarate, EU868_TX_MIN_DATARATE
 435:../../../../../../Middlewares/Third_Party/LoRaWAN/Mac/region/RegionEU868.c ****         }
 436:../../../../../../Middlewares/Third_Party/LoRaWAN/Mac/region/RegionEU868.c ****         case PHY_DEF_TX_DR:
 437:../../../../../../Middlewares/Third_Party/LoRaWAN/Mac/region/RegionEU868.c ****         {
 438:../../../../../../Middlewares/Third_Party/LoRaWAN/Mac/region/RegionEU868.c ****             return RegionCommonValueInRange( verify->DatarateParams.Datarate, DR_0, DR_5 );
 439:../../../../../../Middlewares/Third_Party/LoRaWAN/Mac/region/RegionEU868.c ****         }
 440:../../../../../../Middlewares/Third_Party/LoRaWAN/Mac/region/RegionEU868.c ****         case PHY_RX_DR:
 441:../../../../../../Middlewares/Third_Party/LoRaWAN/Mac/region/RegionEU868.c ****         {
 442:../../../../../../Middlewares/Third_Party/LoRaWAN/Mac/region/RegionEU868.c ****             return RegionCommonValueInRange( verify->DatarateParams.Datarate, EU868_RX_MIN_DATARATE
 443:../../../../../../Middlewares/Third_Party/LoRaWAN/Mac/region/RegionEU868.c ****         }
 444:../../../../../../Middlewares/Third_Party/LoRaWAN/Mac/region/RegionEU868.c ****         case PHY_DEF_TX_POWER:
 445:../../../../../../Middlewares/Third_Party/LoRaWAN/Mac/region/RegionEU868.c ****         case PHY_TX_POWER:
 446:../../../../../../Middlewares/Third_Party/LoRaWAN/Mac/region/RegionEU868.c ****         {
 447:../../../../../../Middlewares/Third_Party/LoRaWAN/Mac/region/RegionEU868.c ****             // Remark: switched min and max!
 448:../../../../../../Middlewares/Third_Party/LoRaWAN/Mac/region/RegionEU868.c ****             return RegionCommonValueInRange( verify->TxPower, EU868_MAX_TX_POWER, EU868_MIN_TX_POWE
 569              		.loc 1 448 0
 570 0012 0078     		ldrb	r0, [r0]
 571              	.LVL26:
 572 0014 0722     		movs	r2, #7
 573 0016 40B2     		sxtb	r0, r0
 574 0018 0021     		movs	r1, #0
 575 001a FFF7FEFF 		bl	RegionCommonValueInRange
 576              	.LVL27:
 577 001e 431E     		subs	r3, r0, #1
 578 0020 9841     		sbcs	r0, r0, r3
ARM GAS  C:\Users\EBANO_~1\AppData\Local\Temp\ccJkfoGk.s 			page 20


 579 0022 C0B2     		uxtb	r0, r0
 580              	.L54:
 449:../../../../../../Middlewares/Third_Party/LoRaWAN/Mac/region/RegionEU868.c ****         }
 450:../../../../../../Middlewares/Third_Party/LoRaWAN/Mac/region/RegionEU868.c ****         case PHY_DUTY_CYCLE:
 451:../../../../../../Middlewares/Third_Party/LoRaWAN/Mac/region/RegionEU868.c ****         {
 452:../../../../../../Middlewares/Third_Party/LoRaWAN/Mac/region/RegionEU868.c ****             return EU868_DUTY_CYCLE_ENABLED;
 453:../../../../../../Middlewares/Third_Party/LoRaWAN/Mac/region/RegionEU868.c ****         }
 454:../../../../../../Middlewares/Third_Party/LoRaWAN/Mac/region/RegionEU868.c ****         default:
 455:../../../../../../Middlewares/Third_Party/LoRaWAN/Mac/region/RegionEU868.c ****             return false;
 456:../../../../../../Middlewares/Third_Party/LoRaWAN/Mac/region/RegionEU868.c ****     }
 457:../../../../../../Middlewares/Third_Party/LoRaWAN/Mac/region/RegionEU868.c **** }
 581              		.loc 1 457 0
 582              		@ sp needed
 583 0024 10BD     		pop	{r4, pc}
 584              	.LVL28:
 585              	.L55:
 452:../../../../../../Middlewares/Third_Party/LoRaWAN/Mac/region/RegionEU868.c ****         }
 586              		.loc 1 452 0
 587 0026 0120     		movs	r0, #1
 588              	.LVL29:
 589 0028 FCE7     		b	.L54
 590              	.LVL30:
 591              	.L52:
 438:../../../../../../Middlewares/Third_Party/LoRaWAN/Mac/region/RegionEU868.c ****         }
 592              		.loc 1 438 0
 593 002a 0078     		ldrb	r0, [r0]
 594              	.LVL31:
 595 002c 0522     		movs	r2, #5
 596 002e 40B2     		sxtb	r0, r0
 597 0030 0021     		movs	r1, #0
 598 0032 FFF7FEFF 		bl	RegionCommonValueInRange
 599              	.LVL32:
 600 0036 431E     		subs	r3, r0, #1
 601 0038 9841     		sbcs	r0, r0, r3
 602 003a C0B2     		uxtb	r0, r0
 603 003c F2E7     		b	.L54
 604              	.LVL33:
 605              	.L49:
 455:../../../../../../Middlewares/Third_Party/LoRaWAN/Mac/region/RegionEU868.c ****     }
 606              		.loc 1 455 0
 607 003e 0020     		movs	r0, #0
 608              	.LVL34:
 609 0040 F0E7     		b	.L54
 610              	.L57:
 611 0042 C046     		.align	2
 612              	.L56:
 613 0044 AC000000 		.word	.L51
 614              		.cfi_endproc
 615              	.LFE48:
 616              		.size	RegionEU868Verify, .-RegionEU868Verify
 617              		.section	.text.RegionEU868ApplyCFList,"ax",%progbits
 618              		.align	1
 619              		.p2align 2,,3
 620              		.global	RegionEU868ApplyCFList
 621              		.syntax unified
 622              		.code	16
 623              		.thumb_func
ARM GAS  C:\Users\EBANO_~1\AppData\Local\Temp\ccJkfoGk.s 			page 21


 624              		.fpu softvfp
 625              		.type	RegionEU868ApplyCFList, %function
 626              	RegionEU868ApplyCFList:
 627              	.LFB49:
 458:../../../../../../Middlewares/Third_Party/LoRaWAN/Mac/region/RegionEU868.c **** 
 459:../../../../../../Middlewares/Third_Party/LoRaWAN/Mac/region/RegionEU868.c **** void RegionEU868ApplyCFList( ApplyCFListParams_t* applyCFList )
 460:../../../../../../Middlewares/Third_Party/LoRaWAN/Mac/region/RegionEU868.c **** {
 628              		.loc 1 460 0
 629              		.cfi_startproc
 630              		@ args = 0, pretend = 0, frame = 24
 631              		@ frame_needed = 0, uses_anonymous_args = 0
 632              	.LVL35:
 633 0000 F0B5     		push	{r4, r5, r6, r7, lr}
 634              	.LCFI6:
 635              		.cfi_def_cfa_offset 20
 636              		.cfi_offset 4, -20
 637              		.cfi_offset 5, -16
 638              		.cfi_offset 6, -12
 639              		.cfi_offset 7, -8
 640              		.cfi_offset 14, -4
 641 0002 5746     		mov	r7, r10
 642 0004 DE46     		mov	lr, fp
 643 0006 4E46     		mov	r6, r9
 644 0008 4546     		mov	r5, r8
 461:../../../../../../Middlewares/Third_Party/LoRaWAN/Mac/region/RegionEU868.c ****     ChannelParams_t newChannel;
 462:../../../../../../Middlewares/Third_Party/LoRaWAN/Mac/region/RegionEU868.c ****     ChannelAddParams_t channelAdd;
 463:../../../../../../Middlewares/Third_Party/LoRaWAN/Mac/region/RegionEU868.c ****     ChannelRemoveParams_t channelRemove;
 464:../../../../../../Middlewares/Third_Party/LoRaWAN/Mac/region/RegionEU868.c **** 
 465:../../../../../../Middlewares/Third_Party/LoRaWAN/Mac/region/RegionEU868.c ****     // Setup default datarate range
 466:../../../../../../Middlewares/Third_Party/LoRaWAN/Mac/region/RegionEU868.c ****     newChannel.DrRange.Value = ( DR_5 << 4 ) | DR_0;
 645              		.loc 1 466 0
 646 000a 5023     		movs	r3, #80
 460:../../../../../../Middlewares/Third_Party/LoRaWAN/Mac/region/RegionEU868.c ****     ChannelParams_t newChannel;
 647              		.loc 1 460 0
 648 000c E0B5     		push	{r5, r6, r7, lr}
 649              	.LCFI7:
 650              		.cfi_def_cfa_offset 36
 651              		.cfi_offset 8, -36
 652              		.cfi_offset 9, -32
 653              		.cfi_offset 10, -28
 654              		.cfi_offset 11, -24
 655 000e 87B0     		sub	sp, sp, #28
 656              	.LCFI8:
 657              		.cfi_def_cfa_offset 64
 658              		.loc 1 466 0
 659 0010 03AC     		add	r4, sp, #12
 660 0012 2372     		strb	r3, [r4, #8]
 467:../../../../../../Middlewares/Third_Party/LoRaWAN/Mac/region/RegionEU868.c **** 
 468:../../../../../../Middlewares/Third_Party/LoRaWAN/Mac/region/RegionEU868.c ****     // Size of the optional CF list
 469:../../../../../../Middlewares/Third_Party/LoRaWAN/Mac/region/RegionEU868.c ****     if( applyCFList->Size != 16 )
 661              		.loc 1 469 0
 662 0014 0379     		ldrb	r3, [r0, #4]
 460:../../../../../../Middlewares/Third_Party/LoRaWAN/Mac/region/RegionEU868.c ****     ChannelParams_t newChannel;
 663              		.loc 1 460 0
 664 0016 0700     		movs	r7, r0
 665              		.loc 1 469 0
 666 0018 102B     		cmp	r3, #16
ARM GAS  C:\Users\EBANO_~1\AppData\Local\Temp\ccJkfoGk.s 			page 22


 667 001a 06D0     		beq	.L83
 668              	.LVL36:
 669              	.L58:
 470:../../../../../../Middlewares/Third_Party/LoRaWAN/Mac/region/RegionEU868.c ****     {
 471:../../../../../../Middlewares/Third_Party/LoRaWAN/Mac/region/RegionEU868.c ****         return;
 472:../../../../../../Middlewares/Third_Party/LoRaWAN/Mac/region/RegionEU868.c ****     }
 473:../../../../../../Middlewares/Third_Party/LoRaWAN/Mac/region/RegionEU868.c **** 
 474:../../../../../../Middlewares/Third_Party/LoRaWAN/Mac/region/RegionEU868.c ****     // Last byte CFListType must be 0 to indicate the CFList contains a list of frequencies
 475:../../../../../../Middlewares/Third_Party/LoRaWAN/Mac/region/RegionEU868.c ****     if( applyCFList->Payload[15] != 0 )
 476:../../../../../../Middlewares/Third_Party/LoRaWAN/Mac/region/RegionEU868.c ****     {
 477:../../../../../../Middlewares/Third_Party/LoRaWAN/Mac/region/RegionEU868.c ****         return;
 478:../../../../../../Middlewares/Third_Party/LoRaWAN/Mac/region/RegionEU868.c ****     }
 479:../../../../../../Middlewares/Third_Party/LoRaWAN/Mac/region/RegionEU868.c **** 
 480:../../../../../../Middlewares/Third_Party/LoRaWAN/Mac/region/RegionEU868.c ****     // Last byte is RFU, don't take it into account
 481:../../../../../../Middlewares/Third_Party/LoRaWAN/Mac/region/RegionEU868.c ****     for( uint8_t i = 0, chanIdx = EU868_NUMB_DEFAULT_CHANNELS; chanIdx < EU868_MAX_NB_CHANNELS; i+=
 482:../../../../../../Middlewares/Third_Party/LoRaWAN/Mac/region/RegionEU868.c ****     {
 483:../../../../../../Middlewares/Third_Party/LoRaWAN/Mac/region/RegionEU868.c ****         if( chanIdx < ( EU868_NUMB_CHANNELS_CF_LIST + EU868_NUMB_DEFAULT_CHANNELS ) )
 484:../../../../../../Middlewares/Third_Party/LoRaWAN/Mac/region/RegionEU868.c ****         {
 485:../../../../../../Middlewares/Third_Party/LoRaWAN/Mac/region/RegionEU868.c ****             // Channel frequency
 486:../../../../../../Middlewares/Third_Party/LoRaWAN/Mac/region/RegionEU868.c ****             newChannel.Frequency = (uint32_t) applyCFList->Payload[i];
 487:../../../../../../Middlewares/Third_Party/LoRaWAN/Mac/region/RegionEU868.c ****             newChannel.Frequency |= ( (uint32_t) applyCFList->Payload[i + 1] << 8 );
 488:../../../../../../Middlewares/Third_Party/LoRaWAN/Mac/region/RegionEU868.c ****             newChannel.Frequency |= ( (uint32_t) applyCFList->Payload[i + 2] << 16 );
 489:../../../../../../Middlewares/Third_Party/LoRaWAN/Mac/region/RegionEU868.c ****             newChannel.Frequency *= 100;
 490:../../../../../../Middlewares/Third_Party/LoRaWAN/Mac/region/RegionEU868.c **** 
 491:../../../../../../Middlewares/Third_Party/LoRaWAN/Mac/region/RegionEU868.c ****             // Initialize alternative frequency to 0
 492:../../../../../../Middlewares/Third_Party/LoRaWAN/Mac/region/RegionEU868.c ****             newChannel.Rx1Frequency = 0;
 493:../../../../../../Middlewares/Third_Party/LoRaWAN/Mac/region/RegionEU868.c ****         }
 494:../../../../../../Middlewares/Third_Party/LoRaWAN/Mac/region/RegionEU868.c ****         else
 495:../../../../../../Middlewares/Third_Party/LoRaWAN/Mac/region/RegionEU868.c ****         {
 496:../../../../../../Middlewares/Third_Party/LoRaWAN/Mac/region/RegionEU868.c ****             newChannel.Frequency = 0;
 497:../../../../../../Middlewares/Third_Party/LoRaWAN/Mac/region/RegionEU868.c ****             newChannel.DrRange.Value = 0;
 498:../../../../../../Middlewares/Third_Party/LoRaWAN/Mac/region/RegionEU868.c ****             newChannel.Rx1Frequency = 0;
 499:../../../../../../Middlewares/Third_Party/LoRaWAN/Mac/region/RegionEU868.c ****         }
 500:../../../../../../Middlewares/Third_Party/LoRaWAN/Mac/region/RegionEU868.c **** 
 501:../../../../../../Middlewares/Third_Party/LoRaWAN/Mac/region/RegionEU868.c ****         if( newChannel.Frequency != 0 )
 502:../../../../../../Middlewares/Third_Party/LoRaWAN/Mac/region/RegionEU868.c ****         {
 503:../../../../../../Middlewares/Third_Party/LoRaWAN/Mac/region/RegionEU868.c ****             channelAdd.NewChannel = &newChannel;
 504:../../../../../../Middlewares/Third_Party/LoRaWAN/Mac/region/RegionEU868.c ****             channelAdd.ChannelId = chanIdx;
 505:../../../../../../Middlewares/Third_Party/LoRaWAN/Mac/region/RegionEU868.c **** 
 506:../../../../../../Middlewares/Third_Party/LoRaWAN/Mac/region/RegionEU868.c ****             // Try to add all channels
 507:../../../../../../Middlewares/Third_Party/LoRaWAN/Mac/region/RegionEU868.c ****             RegionEU868ChannelAdd( &channelAdd );
 508:../../../../../../Middlewares/Third_Party/LoRaWAN/Mac/region/RegionEU868.c ****         }
 509:../../../../../../Middlewares/Third_Party/LoRaWAN/Mac/region/RegionEU868.c ****         else
 510:../../../../../../Middlewares/Third_Party/LoRaWAN/Mac/region/RegionEU868.c ****         {
 511:../../../../../../Middlewares/Third_Party/LoRaWAN/Mac/region/RegionEU868.c ****             channelRemove.ChannelId = chanIdx;
 512:../../../../../../Middlewares/Third_Party/LoRaWAN/Mac/region/RegionEU868.c **** 
 513:../../../../../../Middlewares/Third_Party/LoRaWAN/Mac/region/RegionEU868.c ****             RegionEU868ChannelsRemove( &channelRemove );
 514:../../../../../../Middlewares/Third_Party/LoRaWAN/Mac/region/RegionEU868.c ****         }
 515:../../../../../../Middlewares/Third_Party/LoRaWAN/Mac/region/RegionEU868.c ****     }
 516:../../../../../../Middlewares/Third_Party/LoRaWAN/Mac/region/RegionEU868.c **** }
 670              		.loc 1 516 0
 671 001c 07B0     		add	sp, sp, #28
 672              		@ sp needed
 673              	.LVL37:
 674 001e 3CBC     		pop	{r2, r3, r4, r5}
 675 0020 9046     		mov	r8, r2
 676 0022 9946     		mov	r9, r3
ARM GAS  C:\Users\EBANO_~1\AppData\Local\Temp\ccJkfoGk.s 			page 23


 677 0024 A246     		mov	r10, r4
 678 0026 AB46     		mov	fp, r5
 679 0028 F0BD     		pop	{r4, r5, r6, r7, pc}
 680              	.LVL38:
 681              	.L83:
 475:../../../../../../Middlewares/Third_Party/LoRaWAN/Mac/region/RegionEU868.c ****     {
 682              		.loc 1 475 0
 683 002a 0368     		ldr	r3, [r0]
 684 002c DB7B     		ldrb	r3, [r3, #15]
 685 002e 002B     		cmp	r3, #0
 686 0030 F4D1     		bne	.L58
 687              	.LBB27:
 688              	.LBB28:
 689              	.LBB29:
 517:../../../../../../Middlewares/Third_Party/LoRaWAN/Mac/region/RegionEU868.c **** 
 518:../../../../../../Middlewares/Third_Party/LoRaWAN/Mac/region/RegionEU868.c **** bool RegionEU868ChanMaskSet( ChanMaskSetParams_t* chanMaskSet )
 519:../../../../../../Middlewares/Third_Party/LoRaWAN/Mac/region/RegionEU868.c **** {
 520:../../../../../../Middlewares/Third_Party/LoRaWAN/Mac/region/RegionEU868.c ****     switch( chanMaskSet->ChannelsMaskType )
 521:../../../../../../Middlewares/Third_Party/LoRaWAN/Mac/region/RegionEU868.c ****     {
 522:../../../../../../Middlewares/Third_Party/LoRaWAN/Mac/region/RegionEU868.c ****         case CHANNELS_MASK:
 523:../../../../../../Middlewares/Third_Party/LoRaWAN/Mac/region/RegionEU868.c ****         {
 524:../../../../../../Middlewares/Third_Party/LoRaWAN/Mac/region/RegionEU868.c ****             RegionCommonChanMaskCopy( NvmCtx.ChannelsMask, chanMaskSet->ChannelsMaskIn, 1 );
 525:../../../../../../Middlewares/Third_Party/LoRaWAN/Mac/region/RegionEU868.c ****             break;
 526:../../../../../../Middlewares/Third_Party/LoRaWAN/Mac/region/RegionEU868.c ****         }
 527:../../../../../../Middlewares/Third_Party/LoRaWAN/Mac/region/RegionEU868.c ****         case CHANNELS_DEFAULT_MASK:
 528:../../../../../../Middlewares/Third_Party/LoRaWAN/Mac/region/RegionEU868.c ****         {
 529:../../../../../../Middlewares/Third_Party/LoRaWAN/Mac/region/RegionEU868.c ****             RegionCommonChanMaskCopy( NvmCtx.ChannelsDefaultMask, chanMaskSet->ChannelsMaskIn, 1 );
 530:../../../../../../Middlewares/Third_Party/LoRaWAN/Mac/region/RegionEU868.c ****             break;
 531:../../../../../../Middlewares/Third_Party/LoRaWAN/Mac/region/RegionEU868.c ****         }
 532:../../../../../../Middlewares/Third_Party/LoRaWAN/Mac/region/RegionEU868.c ****         default:
 533:../../../../../../Middlewares/Third_Party/LoRaWAN/Mac/region/RegionEU868.c ****             return false;
 534:../../../../../../Middlewares/Third_Party/LoRaWAN/Mac/region/RegionEU868.c ****     }
 535:../../../../../../Middlewares/Third_Party/LoRaWAN/Mac/region/RegionEU868.c ****     return true;
 536:../../../../../../Middlewares/Third_Party/LoRaWAN/Mac/region/RegionEU868.c **** }
 537:../../../../../../Middlewares/Third_Party/LoRaWAN/Mac/region/RegionEU868.c **** 
 538:../../../../../../Middlewares/Third_Party/LoRaWAN/Mac/region/RegionEU868.c **** void RegionEU868ComputeRxWindowParameters( int8_t datarate, uint8_t minRxSymbols, uint32_t rxError,
 539:../../../../../../Middlewares/Third_Party/LoRaWAN/Mac/region/RegionEU868.c **** {
 540:../../../../../../Middlewares/Third_Party/LoRaWAN/Mac/region/RegionEU868.c ****     double tSymbol = 0.0;
 541:../../../../../../Middlewares/Third_Party/LoRaWAN/Mac/region/RegionEU868.c **** 
 542:../../../../../../Middlewares/Third_Party/LoRaWAN/Mac/region/RegionEU868.c ****     // Get the datarate, perform a boundary check
 543:../../../../../../Middlewares/Third_Party/LoRaWAN/Mac/region/RegionEU868.c ****     rxConfigParams->Datarate = MIN( datarate, EU868_RX_MAX_DATARATE );
 544:../../../../../../Middlewares/Third_Party/LoRaWAN/Mac/region/RegionEU868.c ****     rxConfigParams->Bandwidth = GetBandwidth( rxConfigParams->Datarate );
 545:../../../../../../Middlewares/Third_Party/LoRaWAN/Mac/region/RegionEU868.c **** 
 546:../../../../../../Middlewares/Third_Party/LoRaWAN/Mac/region/RegionEU868.c ****     if( rxConfigParams->Datarate == DR_7 )
 547:../../../../../../Middlewares/Third_Party/LoRaWAN/Mac/region/RegionEU868.c ****     { // FSK
 548:../../../../../../Middlewares/Third_Party/LoRaWAN/Mac/region/RegionEU868.c ****         tSymbol = RegionCommonComputeSymbolTimeFsk( DataratesEU868[rxConfigParams->Datarate] );
 549:../../../../../../Middlewares/Third_Party/LoRaWAN/Mac/region/RegionEU868.c ****     }
 550:../../../../../../Middlewares/Third_Party/LoRaWAN/Mac/region/RegionEU868.c ****     else
 551:../../../../../../Middlewares/Third_Party/LoRaWAN/Mac/region/RegionEU868.c ****     { // LoRa
 552:../../../../../../Middlewares/Third_Party/LoRaWAN/Mac/region/RegionEU868.c ****         tSymbol = RegionCommonComputeSymbolTimeLoRa( DataratesEU868[rxConfigParams->Datarate], Band
 553:../../../../../../Middlewares/Third_Party/LoRaWAN/Mac/region/RegionEU868.c ****     }
 554:../../../../../../Middlewares/Third_Party/LoRaWAN/Mac/region/RegionEU868.c **** 
 555:../../../../../../Middlewares/Third_Party/LoRaWAN/Mac/region/RegionEU868.c ****     RegionCommonComputeRxWindowParameters( tSymbol, minRxSymbols, rxError, Radio.GetWakeupTime( ), 
 556:../../../../../../Middlewares/Third_Party/LoRaWAN/Mac/region/RegionEU868.c **** }
 557:../../../../../../Middlewares/Third_Party/LoRaWAN/Mac/region/RegionEU868.c **** 
 558:../../../../../../Middlewares/Third_Party/LoRaWAN/Mac/region/RegionEU868.c **** bool RegionEU868RxConfig( RxConfigParams_t* rxConfig, int8_t* datarate )
 559:../../../../../../Middlewares/Third_Party/LoRaWAN/Mac/region/RegionEU868.c **** {
ARM GAS  C:\Users\EBANO_~1\AppData\Local\Temp\ccJkfoGk.s 			page 24


 560:../../../../../../Middlewares/Third_Party/LoRaWAN/Mac/region/RegionEU868.c ****     RadioModems_t modem;
 561:../../../../../../Middlewares/Third_Party/LoRaWAN/Mac/region/RegionEU868.c ****     int8_t dr = rxConfig->Datarate;
 562:../../../../../../Middlewares/Third_Party/LoRaWAN/Mac/region/RegionEU868.c ****     uint8_t maxPayload = 0;
 563:../../../../../../Middlewares/Third_Party/LoRaWAN/Mac/region/RegionEU868.c ****     int8_t phyDr = 0;
 564:../../../../../../Middlewares/Third_Party/LoRaWAN/Mac/region/RegionEU868.c ****     uint32_t frequency = rxConfig->Frequency;
 565:../../../../../../Middlewares/Third_Party/LoRaWAN/Mac/region/RegionEU868.c **** 
 566:../../../../../../Middlewares/Third_Party/LoRaWAN/Mac/region/RegionEU868.c ****     if( Radio.GetStatus( ) != RF_IDLE )
 567:../../../../../../Middlewares/Third_Party/LoRaWAN/Mac/region/RegionEU868.c ****     {
 568:../../../../../../Middlewares/Third_Party/LoRaWAN/Mac/region/RegionEU868.c ****         return false;
 569:../../../../../../Middlewares/Third_Party/LoRaWAN/Mac/region/RegionEU868.c ****     }
 570:../../../../../../Middlewares/Third_Party/LoRaWAN/Mac/region/RegionEU868.c **** 
 571:../../../../../../Middlewares/Third_Party/LoRaWAN/Mac/region/RegionEU868.c ****     if( rxConfig->RxSlot == RX_SLOT_WIN_1 )
 572:../../../../../../Middlewares/Third_Party/LoRaWAN/Mac/region/RegionEU868.c ****     {
 573:../../../../../../Middlewares/Third_Party/LoRaWAN/Mac/region/RegionEU868.c ****         // Apply window 1 frequency
 574:../../../../../../Middlewares/Third_Party/LoRaWAN/Mac/region/RegionEU868.c ****         frequency = NvmCtx.Channels[rxConfig->Channel].Frequency;
 575:../../../../../../Middlewares/Third_Party/LoRaWAN/Mac/region/RegionEU868.c ****         // Apply the alternative RX 1 window frequency, if it is available
 576:../../../../../../Middlewares/Third_Party/LoRaWAN/Mac/region/RegionEU868.c ****         if( NvmCtx.Channels[rxConfig->Channel].Rx1Frequency != 0 )
 577:../../../../../../Middlewares/Third_Party/LoRaWAN/Mac/region/RegionEU868.c ****         {
 578:../../../../../../Middlewares/Third_Party/LoRaWAN/Mac/region/RegionEU868.c ****             frequency = NvmCtx.Channels[rxConfig->Channel].Rx1Frequency;
 579:../../../../../../Middlewares/Third_Party/LoRaWAN/Mac/region/RegionEU868.c ****         }
 580:../../../../../../Middlewares/Third_Party/LoRaWAN/Mac/region/RegionEU868.c ****     }
 581:../../../../../../Middlewares/Third_Party/LoRaWAN/Mac/region/RegionEU868.c **** 
 582:../../../../../../Middlewares/Third_Party/LoRaWAN/Mac/region/RegionEU868.c ****     // Read the physical datarate from the datarates table
 583:../../../../../../Middlewares/Third_Party/LoRaWAN/Mac/region/RegionEU868.c ****     phyDr = DataratesEU868[dr];
 584:../../../../../../Middlewares/Third_Party/LoRaWAN/Mac/region/RegionEU868.c **** 
 585:../../../../../../Middlewares/Third_Party/LoRaWAN/Mac/region/RegionEU868.c ****     Radio.SetChannel( frequency );
 586:../../../../../../Middlewares/Third_Party/LoRaWAN/Mac/region/RegionEU868.c **** 
 587:../../../../../../Middlewares/Third_Party/LoRaWAN/Mac/region/RegionEU868.c ****     // Radio configuration
 588:../../../../../../Middlewares/Third_Party/LoRaWAN/Mac/region/RegionEU868.c ****     if( dr == DR_7 )
 589:../../../../../../Middlewares/Third_Party/LoRaWAN/Mac/region/RegionEU868.c ****     {
 590:../../../../../../Middlewares/Third_Party/LoRaWAN/Mac/region/RegionEU868.c ****         modem = MODEM_FSK;
 591:../../../../../../Middlewares/Third_Party/LoRaWAN/Mac/region/RegionEU868.c ****         Radio.SetRxConfig( modem, 50000, phyDr * 1000, 0, 83333, 5, rxConfig->WindowTimeout, false,
 592:../../../../../../Middlewares/Third_Party/LoRaWAN/Mac/region/RegionEU868.c ****     }
 593:../../../../../../Middlewares/Third_Party/LoRaWAN/Mac/region/RegionEU868.c ****     else
 594:../../../../../../Middlewares/Third_Party/LoRaWAN/Mac/region/RegionEU868.c ****     {
 595:../../../../../../Middlewares/Third_Party/LoRaWAN/Mac/region/RegionEU868.c ****         modem = MODEM_LORA;
 596:../../../../../../Middlewares/Third_Party/LoRaWAN/Mac/region/RegionEU868.c ****         Radio.SetRxConfig( modem, rxConfig->Bandwidth, phyDr, 1, 0, 8, rxConfig->WindowTimeout, fal
 597:../../../../../../Middlewares/Third_Party/LoRaWAN/Mac/region/RegionEU868.c ****     }
 598:../../../../../../Middlewares/Third_Party/LoRaWAN/Mac/region/RegionEU868.c **** 
 599:../../../../../../Middlewares/Third_Party/LoRaWAN/Mac/region/RegionEU868.c ****     if( rxConfig->RepeaterSupport == true )
 600:../../../../../../Middlewares/Third_Party/LoRaWAN/Mac/region/RegionEU868.c ****     {
 601:../../../../../../Middlewares/Third_Party/LoRaWAN/Mac/region/RegionEU868.c ****         maxPayload = MaxPayloadOfDatarateRepeaterEU868[dr];
 602:../../../../../../Middlewares/Third_Party/LoRaWAN/Mac/region/RegionEU868.c ****     }
 603:../../../../../../Middlewares/Third_Party/LoRaWAN/Mac/region/RegionEU868.c ****     else
 604:../../../../../../Middlewares/Third_Party/LoRaWAN/Mac/region/RegionEU868.c ****     {
 605:../../../../../../Middlewares/Third_Party/LoRaWAN/Mac/region/RegionEU868.c ****         maxPayload = MaxPayloadOfDatarateEU868[dr];
 606:../../../../../../Middlewares/Third_Party/LoRaWAN/Mac/region/RegionEU868.c ****     }
 607:../../../../../../Middlewares/Third_Party/LoRaWAN/Mac/region/RegionEU868.c **** 
 608:../../../../../../Middlewares/Third_Party/LoRaWAN/Mac/region/RegionEU868.c ****     Radio.SetMaxPayloadLength( modem, maxPayload + LORA_MAC_FRMPAYLOAD_OVERHEAD );
 609:../../../../../../Middlewares/Third_Party/LoRaWAN/Mac/region/RegionEU868.c ****     TVL1( PRINTF( "RX on freq %d Hz at DR %d\n\r", frequency, dr );)
 610:../../../../../../Middlewares/Third_Party/LoRaWAN/Mac/region/RegionEU868.c **** 
 611:../../../../../../Middlewares/Third_Party/LoRaWAN/Mac/region/RegionEU868.c ****     *datarate = (uint8_t) dr;
 612:../../../../../../Middlewares/Third_Party/LoRaWAN/Mac/region/RegionEU868.c ****     return true;
 613:../../../../../../Middlewares/Third_Party/LoRaWAN/Mac/region/RegionEU868.c **** }
 614:../../../../../../Middlewares/Third_Party/LoRaWAN/Mac/region/RegionEU868.c **** 
 615:../../../../../../Middlewares/Third_Party/LoRaWAN/Mac/region/RegionEU868.c **** bool RegionEU868TxConfig( TxConfigParams_t* txConfig, int8_t* txPower, TimerTime_t* txTimeOnAir )
 616:../../../../../../Middlewares/Third_Party/LoRaWAN/Mac/region/RegionEU868.c **** {
ARM GAS  C:\Users\EBANO_~1\AppData\Local\Temp\ccJkfoGk.s 			page 25


 617:../../../../../../Middlewares/Third_Party/LoRaWAN/Mac/region/RegionEU868.c ****     RadioModems_t modem;
 618:../../../../../../Middlewares/Third_Party/LoRaWAN/Mac/region/RegionEU868.c ****     int8_t phyDr = DataratesEU868[txConfig->Datarate];
 619:../../../../../../Middlewares/Third_Party/LoRaWAN/Mac/region/RegionEU868.c ****     int8_t txPowerLimited = LimitTxPower( txConfig->TxPower, NvmCtx.Bands[NvmCtx.Channels[txConfig-
 620:../../../../../../Middlewares/Third_Party/LoRaWAN/Mac/region/RegionEU868.c ****     uint32_t bandwidth = GetBandwidth( txConfig->Datarate );
 621:../../../../../../Middlewares/Third_Party/LoRaWAN/Mac/region/RegionEU868.c ****     int8_t phyTxPower = 0;
 622:../../../../../../Middlewares/Third_Party/LoRaWAN/Mac/region/RegionEU868.c **** 
 623:../../../../../../Middlewares/Third_Party/LoRaWAN/Mac/region/RegionEU868.c ****     // Calculate physical TX power
 624:../../../../../../Middlewares/Third_Party/LoRaWAN/Mac/region/RegionEU868.c ****     phyTxPower = RegionCommonComputeTxPower( txPowerLimited, txConfig->MaxEirp, txConfig->AntennaGa
 625:../../../../../../Middlewares/Third_Party/LoRaWAN/Mac/region/RegionEU868.c **** 
 626:../../../../../../Middlewares/Third_Party/LoRaWAN/Mac/region/RegionEU868.c ****     // Setup the radio frequency
 627:../../../../../../Middlewares/Third_Party/LoRaWAN/Mac/region/RegionEU868.c ****     Radio.SetChannel( NvmCtx.Channels[txConfig->Channel].Frequency );
 628:../../../../../../Middlewares/Third_Party/LoRaWAN/Mac/region/RegionEU868.c **** 
 629:../../../../../../Middlewares/Third_Party/LoRaWAN/Mac/region/RegionEU868.c ****     if( txConfig->Datarate == DR_7 )
 630:../../../../../../Middlewares/Third_Party/LoRaWAN/Mac/region/RegionEU868.c ****     { // High Speed FSK channel
 631:../../../../../../Middlewares/Third_Party/LoRaWAN/Mac/region/RegionEU868.c ****         modem = MODEM_FSK;
 632:../../../../../../Middlewares/Third_Party/LoRaWAN/Mac/region/RegionEU868.c ****         Radio.SetTxConfig( modem, phyTxPower, 25000, bandwidth, phyDr * 1000, 0, 5, false, true, 0,
 633:../../../../../../Middlewares/Third_Party/LoRaWAN/Mac/region/RegionEU868.c ****     }
 634:../../../../../../Middlewares/Third_Party/LoRaWAN/Mac/region/RegionEU868.c ****     else
 635:../../../../../../Middlewares/Third_Party/LoRaWAN/Mac/region/RegionEU868.c ****     {
 636:../../../../../../Middlewares/Third_Party/LoRaWAN/Mac/region/RegionEU868.c ****         modem = MODEM_LORA;
 637:../../../../../../Middlewares/Third_Party/LoRaWAN/Mac/region/RegionEU868.c ****         Radio.SetTxConfig( modem, phyTxPower, 0, bandwidth, phyDr, 1, 8, false, true, 0, 0, false, 
 638:../../../../../../Middlewares/Third_Party/LoRaWAN/Mac/region/RegionEU868.c ****     }
 639:../../../../../../Middlewares/Third_Party/LoRaWAN/Mac/region/RegionEU868.c ****     TVL1( PRINTF( "TX on freq %d Hz at DR %d\n\r", NvmCtx.Channels[txConfig->Channel].Frequency, tx
 640:../../../../../../Middlewares/Third_Party/LoRaWAN/Mac/region/RegionEU868.c **** 
 641:../../../../../../Middlewares/Third_Party/LoRaWAN/Mac/region/RegionEU868.c ****     // Setup maximum payload lenght of the radio driver
 642:../../../../../../Middlewares/Third_Party/LoRaWAN/Mac/region/RegionEU868.c ****     Radio.SetMaxPayloadLength( modem, txConfig->PktLen );
 643:../../../../../../Middlewares/Third_Party/LoRaWAN/Mac/region/RegionEU868.c ****     // Get the time-on-air of the next tx frame
 644:../../../../../../Middlewares/Third_Party/LoRaWAN/Mac/region/RegionEU868.c ****     *txTimeOnAir = Radio.TimeOnAir( modem, txConfig->PktLen );
 645:../../../../../../Middlewares/Third_Party/LoRaWAN/Mac/region/RegionEU868.c **** 
 646:../../../../../../Middlewares/Third_Party/LoRaWAN/Mac/region/RegionEU868.c ****     *txPower = txPowerLimited;
 647:../../../../../../Middlewares/Third_Party/LoRaWAN/Mac/region/RegionEU868.c ****     return true;
 648:../../../../../../Middlewares/Third_Party/LoRaWAN/Mac/region/RegionEU868.c **** }
 649:../../../../../../Middlewares/Third_Party/LoRaWAN/Mac/region/RegionEU868.c **** 
 650:../../../../../../Middlewares/Third_Party/LoRaWAN/Mac/region/RegionEU868.c **** uint8_t RegionEU868LinkAdrReq( LinkAdrReqParams_t* linkAdrReq, int8_t* drOut, int8_t* txPowOut, uin
 651:../../../../../../Middlewares/Third_Party/LoRaWAN/Mac/region/RegionEU868.c **** {
 652:../../../../../../Middlewares/Third_Party/LoRaWAN/Mac/region/RegionEU868.c ****     uint8_t status = 0x07;
 653:../../../../../../Middlewares/Third_Party/LoRaWAN/Mac/region/RegionEU868.c ****     RegionCommonLinkAdrParams_t linkAdrParams;
 654:../../../../../../Middlewares/Third_Party/LoRaWAN/Mac/region/RegionEU868.c ****     uint8_t nextIndex = 0;
 655:../../../../../../Middlewares/Third_Party/LoRaWAN/Mac/region/RegionEU868.c ****     uint8_t bytesProcessed = 0;
 656:../../../../../../Middlewares/Third_Party/LoRaWAN/Mac/region/RegionEU868.c ****     uint16_t chMask = 0;
 657:../../../../../../Middlewares/Third_Party/LoRaWAN/Mac/region/RegionEU868.c ****     GetPhyParams_t getPhy;
 658:../../../../../../Middlewares/Third_Party/LoRaWAN/Mac/region/RegionEU868.c ****     PhyParam_t phyParam;
 659:../../../../../../Middlewares/Third_Party/LoRaWAN/Mac/region/RegionEU868.c ****     RegionCommonLinkAdrReqVerifyParams_t linkAdrVerifyParams;
 660:../../../../../../Middlewares/Third_Party/LoRaWAN/Mac/region/RegionEU868.c **** 
 661:../../../../../../Middlewares/Third_Party/LoRaWAN/Mac/region/RegionEU868.c ****     while( bytesProcessed < linkAdrReq->PayloadSize )
 662:../../../../../../Middlewares/Third_Party/LoRaWAN/Mac/region/RegionEU868.c ****     {
 663:../../../../../../Middlewares/Third_Party/LoRaWAN/Mac/region/RegionEU868.c ****         // Get ADR request parameters
 664:../../../../../../Middlewares/Third_Party/LoRaWAN/Mac/region/RegionEU868.c ****         nextIndex = RegionCommonParseLinkAdrReq( &( linkAdrReq->Payload[bytesProcessed] ), &linkAdr
 665:../../../../../../Middlewares/Third_Party/LoRaWAN/Mac/region/RegionEU868.c **** 
 666:../../../../../../Middlewares/Third_Party/LoRaWAN/Mac/region/RegionEU868.c ****         if( nextIndex == 0 )
 667:../../../../../../Middlewares/Third_Party/LoRaWAN/Mac/region/RegionEU868.c ****             break; // break loop, since no more request has been found
 668:../../../../../../Middlewares/Third_Party/LoRaWAN/Mac/region/RegionEU868.c **** 
 669:../../../../../../Middlewares/Third_Party/LoRaWAN/Mac/region/RegionEU868.c ****         // Update bytes processed
 670:../../../../../../Middlewares/Third_Party/LoRaWAN/Mac/region/RegionEU868.c ****         bytesProcessed += nextIndex;
 671:../../../../../../Middlewares/Third_Party/LoRaWAN/Mac/region/RegionEU868.c **** 
 672:../../../../../../Middlewares/Third_Party/LoRaWAN/Mac/region/RegionEU868.c ****         // Revert status, as we only check the last ADR request for the channel mask KO
 673:../../../../../../Middlewares/Third_Party/LoRaWAN/Mac/region/RegionEU868.c ****         status = 0x07;
ARM GAS  C:\Users\EBANO_~1\AppData\Local\Temp\ccJkfoGk.s 			page 26


 674:../../../../../../Middlewares/Third_Party/LoRaWAN/Mac/region/RegionEU868.c **** 
 675:../../../../../../Middlewares/Third_Party/LoRaWAN/Mac/region/RegionEU868.c ****         // Setup temporary channels mask
 676:../../../../../../Middlewares/Third_Party/LoRaWAN/Mac/region/RegionEU868.c ****         chMask = linkAdrParams.ChMask;
 677:../../../../../../Middlewares/Third_Party/LoRaWAN/Mac/region/RegionEU868.c **** 
 678:../../../../../../Middlewares/Third_Party/LoRaWAN/Mac/region/RegionEU868.c ****         // Verify channels mask
 679:../../../../../../Middlewares/Third_Party/LoRaWAN/Mac/region/RegionEU868.c ****         if( ( linkAdrParams.ChMaskCtrl == 0 ) && ( chMask == 0 ) )
 680:../../../../../../Middlewares/Third_Party/LoRaWAN/Mac/region/RegionEU868.c ****         {
 681:../../../../../../Middlewares/Third_Party/LoRaWAN/Mac/region/RegionEU868.c ****             status &= 0xFE; // Channel mask KO
 682:../../../../../../Middlewares/Third_Party/LoRaWAN/Mac/region/RegionEU868.c ****         }
 683:../../../../../../Middlewares/Third_Party/LoRaWAN/Mac/region/RegionEU868.c ****         else if( ( ( linkAdrParams.ChMaskCtrl >= 1 ) && ( linkAdrParams.ChMaskCtrl <= 5 )) ||
 684:../../../../../../Middlewares/Third_Party/LoRaWAN/Mac/region/RegionEU868.c ****                 ( linkAdrParams.ChMaskCtrl >= 7 ) )
 685:../../../../../../Middlewares/Third_Party/LoRaWAN/Mac/region/RegionEU868.c ****         {
 686:../../../../../../Middlewares/Third_Party/LoRaWAN/Mac/region/RegionEU868.c ****             // RFU
 687:../../../../../../Middlewares/Third_Party/LoRaWAN/Mac/region/RegionEU868.c ****             status &= 0xFE; // Channel mask KO
 688:../../../../../../Middlewares/Third_Party/LoRaWAN/Mac/region/RegionEU868.c ****         }
 689:../../../../../../Middlewares/Third_Party/LoRaWAN/Mac/region/RegionEU868.c ****         else
 690:../../../../../../Middlewares/Third_Party/LoRaWAN/Mac/region/RegionEU868.c ****         {
 691:../../../../../../Middlewares/Third_Party/LoRaWAN/Mac/region/RegionEU868.c ****             for( uint8_t i = 0; i < EU868_MAX_NB_CHANNELS; i++ )
 692:../../../../../../Middlewares/Third_Party/LoRaWAN/Mac/region/RegionEU868.c ****             {
 693:../../../../../../Middlewares/Third_Party/LoRaWAN/Mac/region/RegionEU868.c ****                 if( linkAdrParams.ChMaskCtrl == 6 )
 694:../../../../../../Middlewares/Third_Party/LoRaWAN/Mac/region/RegionEU868.c ****                 {
 695:../../../../../../Middlewares/Third_Party/LoRaWAN/Mac/region/RegionEU868.c ****                     if( NvmCtx.Channels[i].Frequency != 0 )
 696:../../../../../../Middlewares/Third_Party/LoRaWAN/Mac/region/RegionEU868.c ****                     {
 697:../../../../../../Middlewares/Third_Party/LoRaWAN/Mac/region/RegionEU868.c ****                         chMask |= 1 << i;
 698:../../../../../../Middlewares/Third_Party/LoRaWAN/Mac/region/RegionEU868.c ****                     }
 699:../../../../../../Middlewares/Third_Party/LoRaWAN/Mac/region/RegionEU868.c ****                 }
 700:../../../../../../Middlewares/Third_Party/LoRaWAN/Mac/region/RegionEU868.c ****                 else
 701:../../../../../../Middlewares/Third_Party/LoRaWAN/Mac/region/RegionEU868.c ****                 {
 702:../../../../../../Middlewares/Third_Party/LoRaWAN/Mac/region/RegionEU868.c ****                     if( ( ( chMask & ( 1 << i ) ) != 0 ) &&
 703:../../../../../../Middlewares/Third_Party/LoRaWAN/Mac/region/RegionEU868.c ****                         ( NvmCtx.Channels[i].Frequency == 0 ) )
 704:../../../../../../Middlewares/Third_Party/LoRaWAN/Mac/region/RegionEU868.c ****                     {// Trying to enable an undefined channel
 705:../../../../../../Middlewares/Third_Party/LoRaWAN/Mac/region/RegionEU868.c ****                         status &= 0xFE; // Channel mask KO
 706:../../../../../../Middlewares/Third_Party/LoRaWAN/Mac/region/RegionEU868.c ****                     }
 707:../../../../../../Middlewares/Third_Party/LoRaWAN/Mac/region/RegionEU868.c ****                 }
 708:../../../../../../Middlewares/Third_Party/LoRaWAN/Mac/region/RegionEU868.c ****             }
 709:../../../../../../Middlewares/Third_Party/LoRaWAN/Mac/region/RegionEU868.c ****         }
 710:../../../../../../Middlewares/Third_Party/LoRaWAN/Mac/region/RegionEU868.c ****     }
 711:../../../../../../Middlewares/Third_Party/LoRaWAN/Mac/region/RegionEU868.c **** 
 712:../../../../../../Middlewares/Third_Party/LoRaWAN/Mac/region/RegionEU868.c ****     // Get the minimum possible datarate
 713:../../../../../../Middlewares/Third_Party/LoRaWAN/Mac/region/RegionEU868.c ****     getPhy.Attribute = PHY_MIN_TX_DR;
 714:../../../../../../Middlewares/Third_Party/LoRaWAN/Mac/region/RegionEU868.c ****     getPhy.UplinkDwellTime = linkAdrReq->UplinkDwellTime;
 715:../../../../../../Middlewares/Third_Party/LoRaWAN/Mac/region/RegionEU868.c ****     phyParam = RegionEU868GetPhyParam( &getPhy );
 716:../../../../../../Middlewares/Third_Party/LoRaWAN/Mac/region/RegionEU868.c **** 
 717:../../../../../../Middlewares/Third_Party/LoRaWAN/Mac/region/RegionEU868.c ****     linkAdrVerifyParams.Status = status;
 718:../../../../../../Middlewares/Third_Party/LoRaWAN/Mac/region/RegionEU868.c ****     linkAdrVerifyParams.AdrEnabled = linkAdrReq->AdrEnabled;
 719:../../../../../../Middlewares/Third_Party/LoRaWAN/Mac/region/RegionEU868.c ****     linkAdrVerifyParams.Datarate = linkAdrParams.Datarate;
 720:../../../../../../Middlewares/Third_Party/LoRaWAN/Mac/region/RegionEU868.c ****     linkAdrVerifyParams.TxPower = linkAdrParams.TxPower;
 721:../../../../../../Middlewares/Third_Party/LoRaWAN/Mac/region/RegionEU868.c ****     linkAdrVerifyParams.NbRep = linkAdrParams.NbRep;
 722:../../../../../../Middlewares/Third_Party/LoRaWAN/Mac/region/RegionEU868.c ****     linkAdrVerifyParams.CurrentDatarate = linkAdrReq->CurrentDatarate;
 723:../../../../../../Middlewares/Third_Party/LoRaWAN/Mac/region/RegionEU868.c ****     linkAdrVerifyParams.CurrentTxPower = linkAdrReq->CurrentTxPower;
 724:../../../../../../Middlewares/Third_Party/LoRaWAN/Mac/region/RegionEU868.c ****     linkAdrVerifyParams.CurrentNbRep = linkAdrReq->CurrentNbRep;
 725:../../../../../../Middlewares/Third_Party/LoRaWAN/Mac/region/RegionEU868.c ****     linkAdrVerifyParams.NbChannels = EU868_MAX_NB_CHANNELS;
 726:../../../../../../Middlewares/Third_Party/LoRaWAN/Mac/region/RegionEU868.c ****     linkAdrVerifyParams.ChannelsMask = &chMask;
 727:../../../../../../Middlewares/Third_Party/LoRaWAN/Mac/region/RegionEU868.c ****     linkAdrVerifyParams.MinDatarate = ( int8_t )phyParam.Value;
 728:../../../../../../Middlewares/Third_Party/LoRaWAN/Mac/region/RegionEU868.c ****     linkAdrVerifyParams.MaxDatarate = EU868_TX_MAX_DATARATE;
 729:../../../../../../Middlewares/Third_Party/LoRaWAN/Mac/region/RegionEU868.c ****     linkAdrVerifyParams.Channels = NvmCtx.Channels;
 730:../../../../../../Middlewares/Third_Party/LoRaWAN/Mac/region/RegionEU868.c ****     linkAdrVerifyParams.MinTxPower = EU868_MIN_TX_POWER;
ARM GAS  C:\Users\EBANO_~1\AppData\Local\Temp\ccJkfoGk.s 			page 27


 731:../../../../../../Middlewares/Third_Party/LoRaWAN/Mac/region/RegionEU868.c ****     linkAdrVerifyParams.MaxTxPower = EU868_MAX_TX_POWER;
 732:../../../../../../Middlewares/Third_Party/LoRaWAN/Mac/region/RegionEU868.c ****     linkAdrVerifyParams.Version = linkAdrReq->Version;
 733:../../../../../../Middlewares/Third_Party/LoRaWAN/Mac/region/RegionEU868.c **** 
 734:../../../../../../Middlewares/Third_Party/LoRaWAN/Mac/region/RegionEU868.c ****     // Verify the parameters and update, if necessary
 735:../../../../../../Middlewares/Third_Party/LoRaWAN/Mac/region/RegionEU868.c ****     status = RegionCommonLinkAdrReqVerifyParams( &linkAdrVerifyParams, &linkAdrParams.Datarate, &li
 736:../../../../../../Middlewares/Third_Party/LoRaWAN/Mac/region/RegionEU868.c **** 
 737:../../../../../../Middlewares/Third_Party/LoRaWAN/Mac/region/RegionEU868.c ****     // Update channelsMask if everything is correct
 738:../../../../../../Middlewares/Third_Party/LoRaWAN/Mac/region/RegionEU868.c ****     if( status == 0x07 )
 739:../../../../../../Middlewares/Third_Party/LoRaWAN/Mac/region/RegionEU868.c ****     {
 740:../../../../../../Middlewares/Third_Party/LoRaWAN/Mac/region/RegionEU868.c ****         // Set the channels mask to a default value
 741:../../../../../../Middlewares/Third_Party/LoRaWAN/Mac/region/RegionEU868.c ****         memset1( ( uint8_t* ) NvmCtx.ChannelsMask, 0, sizeof( NvmCtx.ChannelsMask ) );
 742:../../../../../../Middlewares/Third_Party/LoRaWAN/Mac/region/RegionEU868.c ****         // Update the channels mask
 743:../../../../../../Middlewares/Third_Party/LoRaWAN/Mac/region/RegionEU868.c ****         NvmCtx.ChannelsMask[0] = chMask;
 744:../../../../../../Middlewares/Third_Party/LoRaWAN/Mac/region/RegionEU868.c ****     }
 745:../../../../../../Middlewares/Third_Party/LoRaWAN/Mac/region/RegionEU868.c **** 
 746:../../../../../../Middlewares/Third_Party/LoRaWAN/Mac/region/RegionEU868.c ****     // Update status variables
 747:../../../../../../Middlewares/Third_Party/LoRaWAN/Mac/region/RegionEU868.c ****     *drOut = linkAdrParams.Datarate;
 748:../../../../../../Middlewares/Third_Party/LoRaWAN/Mac/region/RegionEU868.c ****     *txPowOut = linkAdrParams.TxPower;
 749:../../../../../../Middlewares/Third_Party/LoRaWAN/Mac/region/RegionEU868.c ****     *nbRepOut = linkAdrParams.NbRep;
 750:../../../../../../Middlewares/Third_Party/LoRaWAN/Mac/region/RegionEU868.c ****     *nbBytesParsed = bytesProcessed;
 751:../../../../../../Middlewares/Third_Party/LoRaWAN/Mac/region/RegionEU868.c **** 
 752:../../../../../../Middlewares/Third_Party/LoRaWAN/Mac/region/RegionEU868.c ****     return status;
 753:../../../../../../Middlewares/Third_Party/LoRaWAN/Mac/region/RegionEU868.c **** }
 754:../../../../../../Middlewares/Third_Party/LoRaWAN/Mac/region/RegionEU868.c **** 
 755:../../../../../../Middlewares/Third_Party/LoRaWAN/Mac/region/RegionEU868.c **** uint8_t RegionEU868RxParamSetupReq( RxParamSetupReqParams_t* rxParamSetupReq )
 756:../../../../../../Middlewares/Third_Party/LoRaWAN/Mac/region/RegionEU868.c **** {
 757:../../../../../../Middlewares/Third_Party/LoRaWAN/Mac/region/RegionEU868.c ****     uint8_t status = 0x07;
 758:../../../../../../Middlewares/Third_Party/LoRaWAN/Mac/region/RegionEU868.c ****     uint8_t band = 0;
 759:../../../../../../Middlewares/Third_Party/LoRaWAN/Mac/region/RegionEU868.c **** 
 760:../../../../../../Middlewares/Third_Party/LoRaWAN/Mac/region/RegionEU868.c ****     // Verify radio frequency
 761:../../../../../../Middlewares/Third_Party/LoRaWAN/Mac/region/RegionEU868.c ****     if( VerifyRfFreq( rxParamSetupReq->Frequency, &band ) == false )
 762:../../../../../../Middlewares/Third_Party/LoRaWAN/Mac/region/RegionEU868.c ****     {
 763:../../../../../../Middlewares/Third_Party/LoRaWAN/Mac/region/RegionEU868.c ****         status &= 0xFE; // Channel frequency KO
 764:../../../../../../Middlewares/Third_Party/LoRaWAN/Mac/region/RegionEU868.c ****     }
 765:../../../../../../Middlewares/Third_Party/LoRaWAN/Mac/region/RegionEU868.c **** 
 766:../../../../../../Middlewares/Third_Party/LoRaWAN/Mac/region/RegionEU868.c ****     // Verify datarate
 767:../../../../../../Middlewares/Third_Party/LoRaWAN/Mac/region/RegionEU868.c ****     if( RegionCommonValueInRange( rxParamSetupReq->Datarate, EU868_RX_MIN_DATARATE, EU868_RX_MAX_DA
 768:../../../../../../Middlewares/Third_Party/LoRaWAN/Mac/region/RegionEU868.c ****     {
 769:../../../../../../Middlewares/Third_Party/LoRaWAN/Mac/region/RegionEU868.c ****         status &= 0xFD; // Datarate KO
 770:../../../../../../Middlewares/Third_Party/LoRaWAN/Mac/region/RegionEU868.c ****     }
 771:../../../../../../Middlewares/Third_Party/LoRaWAN/Mac/region/RegionEU868.c **** 
 772:../../../../../../Middlewares/Third_Party/LoRaWAN/Mac/region/RegionEU868.c ****     // Verify datarate offset
 773:../../../../../../Middlewares/Third_Party/LoRaWAN/Mac/region/RegionEU868.c ****     if( RegionCommonValueInRange( rxParamSetupReq->DrOffset, EU868_MIN_RX1_DR_OFFSET, EU868_MAX_RX1
 774:../../../../../../Middlewares/Third_Party/LoRaWAN/Mac/region/RegionEU868.c ****     {
 775:../../../../../../Middlewares/Third_Party/LoRaWAN/Mac/region/RegionEU868.c ****         status &= 0xFB; // Rx1DrOffset range KO
 776:../../../../../../Middlewares/Third_Party/LoRaWAN/Mac/region/RegionEU868.c ****     }
 777:../../../../../../Middlewares/Third_Party/LoRaWAN/Mac/region/RegionEU868.c **** 
 778:../../../../../../Middlewares/Third_Party/LoRaWAN/Mac/region/RegionEU868.c ****     return status;
 779:../../../../../../Middlewares/Third_Party/LoRaWAN/Mac/region/RegionEU868.c **** }
 780:../../../../../../Middlewares/Third_Party/LoRaWAN/Mac/region/RegionEU868.c **** 
 781:../../../../../../Middlewares/Third_Party/LoRaWAN/Mac/region/RegionEU868.c **** uint8_t RegionEU868NewChannelReq( NewChannelReqParams_t* newChannelReq )
 782:../../../../../../Middlewares/Third_Party/LoRaWAN/Mac/region/RegionEU868.c **** {
 783:../../../../../../Middlewares/Third_Party/LoRaWAN/Mac/region/RegionEU868.c ****     uint8_t status = 0x03;
 784:../../../../../../Middlewares/Third_Party/LoRaWAN/Mac/region/RegionEU868.c ****     ChannelAddParams_t channelAdd;
 785:../../../../../../Middlewares/Third_Party/LoRaWAN/Mac/region/RegionEU868.c ****     ChannelRemoveParams_t channelRemove;
 786:../../../../../../Middlewares/Third_Party/LoRaWAN/Mac/region/RegionEU868.c **** 
 787:../../../../../../Middlewares/Third_Party/LoRaWAN/Mac/region/RegionEU868.c ****     if( newChannelReq->NewChannel->Frequency == 0 )
ARM GAS  C:\Users\EBANO_~1\AppData\Local\Temp\ccJkfoGk.s 			page 28


 788:../../../../../../Middlewares/Third_Party/LoRaWAN/Mac/region/RegionEU868.c ****     {
 789:../../../../../../Middlewares/Third_Party/LoRaWAN/Mac/region/RegionEU868.c ****         channelRemove.ChannelId = newChannelReq->ChannelId;
 790:../../../../../../Middlewares/Third_Party/LoRaWAN/Mac/region/RegionEU868.c **** 
 791:../../../../../../Middlewares/Third_Party/LoRaWAN/Mac/region/RegionEU868.c ****         // Remove
 792:../../../../../../Middlewares/Third_Party/LoRaWAN/Mac/region/RegionEU868.c ****         if( RegionEU868ChannelsRemove( &channelRemove ) == false )
 793:../../../../../../Middlewares/Third_Party/LoRaWAN/Mac/region/RegionEU868.c ****         {
 794:../../../../../../Middlewares/Third_Party/LoRaWAN/Mac/region/RegionEU868.c ****             status &= 0xFC;
 795:../../../../../../Middlewares/Third_Party/LoRaWAN/Mac/region/RegionEU868.c ****         }
 796:../../../../../../Middlewares/Third_Party/LoRaWAN/Mac/region/RegionEU868.c ****     }
 797:../../../../../../Middlewares/Third_Party/LoRaWAN/Mac/region/RegionEU868.c ****     else
 798:../../../../../../Middlewares/Third_Party/LoRaWAN/Mac/region/RegionEU868.c ****     {
 799:../../../../../../Middlewares/Third_Party/LoRaWAN/Mac/region/RegionEU868.c ****         channelAdd.NewChannel = newChannelReq->NewChannel;
 800:../../../../../../Middlewares/Third_Party/LoRaWAN/Mac/region/RegionEU868.c ****         channelAdd.ChannelId = newChannelReq->ChannelId;
 801:../../../../../../Middlewares/Third_Party/LoRaWAN/Mac/region/RegionEU868.c **** 
 802:../../../../../../Middlewares/Third_Party/LoRaWAN/Mac/region/RegionEU868.c ****         switch( RegionEU868ChannelAdd( &channelAdd ) )
 803:../../../../../../Middlewares/Third_Party/LoRaWAN/Mac/region/RegionEU868.c ****         {
 804:../../../../../../Middlewares/Third_Party/LoRaWAN/Mac/region/RegionEU868.c ****             case LORAMAC_STATUS_OK:
 805:../../../../../../Middlewares/Third_Party/LoRaWAN/Mac/region/RegionEU868.c ****             {
 806:../../../../../../Middlewares/Third_Party/LoRaWAN/Mac/region/RegionEU868.c ****                 break;
 807:../../../../../../Middlewares/Third_Party/LoRaWAN/Mac/region/RegionEU868.c ****             }
 808:../../../../../../Middlewares/Third_Party/LoRaWAN/Mac/region/RegionEU868.c ****             case LORAMAC_STATUS_FREQUENCY_INVALID:
 809:../../../../../../Middlewares/Third_Party/LoRaWAN/Mac/region/RegionEU868.c ****             {
 810:../../../../../../Middlewares/Third_Party/LoRaWAN/Mac/region/RegionEU868.c ****                 status &= 0xFE;
 811:../../../../../../Middlewares/Third_Party/LoRaWAN/Mac/region/RegionEU868.c ****                 break;
 812:../../../../../../Middlewares/Third_Party/LoRaWAN/Mac/region/RegionEU868.c ****             }
 813:../../../../../../Middlewares/Third_Party/LoRaWAN/Mac/region/RegionEU868.c ****             case LORAMAC_STATUS_DATARATE_INVALID:
 814:../../../../../../Middlewares/Third_Party/LoRaWAN/Mac/region/RegionEU868.c ****             {
 815:../../../../../../Middlewares/Third_Party/LoRaWAN/Mac/region/RegionEU868.c ****                 status &= 0xFD;
 816:../../../../../../Middlewares/Third_Party/LoRaWAN/Mac/region/RegionEU868.c ****                 break;
 817:../../../../../../Middlewares/Third_Party/LoRaWAN/Mac/region/RegionEU868.c ****             }
 818:../../../../../../Middlewares/Third_Party/LoRaWAN/Mac/region/RegionEU868.c ****             case LORAMAC_STATUS_FREQ_AND_DR_INVALID:
 819:../../../../../../Middlewares/Third_Party/LoRaWAN/Mac/region/RegionEU868.c ****             {
 820:../../../../../../Middlewares/Third_Party/LoRaWAN/Mac/region/RegionEU868.c ****                 status &= 0xFC;
 821:../../../../../../Middlewares/Third_Party/LoRaWAN/Mac/region/RegionEU868.c ****                 break;
 822:../../../../../../Middlewares/Third_Party/LoRaWAN/Mac/region/RegionEU868.c ****             }
 823:../../../../../../Middlewares/Third_Party/LoRaWAN/Mac/region/RegionEU868.c ****             default:
 824:../../../../../../Middlewares/Third_Party/LoRaWAN/Mac/region/RegionEU868.c ****             {
 825:../../../../../../Middlewares/Third_Party/LoRaWAN/Mac/region/RegionEU868.c ****                 status &= 0xFC;
 826:../../../../../../Middlewares/Third_Party/LoRaWAN/Mac/region/RegionEU868.c ****                 break;
 827:../../../../../../Middlewares/Third_Party/LoRaWAN/Mac/region/RegionEU868.c ****             }
 828:../../../../../../Middlewares/Third_Party/LoRaWAN/Mac/region/RegionEU868.c ****         }
 829:../../../../../../Middlewares/Third_Party/LoRaWAN/Mac/region/RegionEU868.c ****     }
 830:../../../../../../Middlewares/Third_Party/LoRaWAN/Mac/region/RegionEU868.c **** 
 831:../../../../../../Middlewares/Third_Party/LoRaWAN/Mac/region/RegionEU868.c ****     return status;
 832:../../../../../../Middlewares/Third_Party/LoRaWAN/Mac/region/RegionEU868.c **** }
 833:../../../../../../Middlewares/Third_Party/LoRaWAN/Mac/region/RegionEU868.c **** 
 834:../../../../../../Middlewares/Third_Party/LoRaWAN/Mac/region/RegionEU868.c **** int8_t RegionEU868TxParamSetupReq( TxParamSetupReqParams_t* txParamSetupReq )
 835:../../../../../../Middlewares/Third_Party/LoRaWAN/Mac/region/RegionEU868.c **** {
 836:../../../../../../Middlewares/Third_Party/LoRaWAN/Mac/region/RegionEU868.c ****     return -1;
 837:../../../../../../Middlewares/Third_Party/LoRaWAN/Mac/region/RegionEU868.c **** }
 838:../../../../../../Middlewares/Third_Party/LoRaWAN/Mac/region/RegionEU868.c **** 
 839:../../../../../../Middlewares/Third_Party/LoRaWAN/Mac/region/RegionEU868.c **** uint8_t RegionEU868DlChannelReq( DlChannelReqParams_t* dlChannelReq )
 840:../../../../../../Middlewares/Third_Party/LoRaWAN/Mac/region/RegionEU868.c **** {
 841:../../../../../../Middlewares/Third_Party/LoRaWAN/Mac/region/RegionEU868.c ****     uint8_t status = 0x03;
 842:../../../../../../Middlewares/Third_Party/LoRaWAN/Mac/region/RegionEU868.c ****     uint8_t band = 0;
 843:../../../../../../Middlewares/Third_Party/LoRaWAN/Mac/region/RegionEU868.c **** 
 844:../../../../../../Middlewares/Third_Party/LoRaWAN/Mac/region/RegionEU868.c ****     // Verify if the frequency is supported
ARM GAS  C:\Users\EBANO_~1\AppData\Local\Temp\ccJkfoGk.s 			page 29


 845:../../../../../../Middlewares/Third_Party/LoRaWAN/Mac/region/RegionEU868.c ****     if( VerifyRfFreq( dlChannelReq->Rx1Frequency, &band ) == false )
 846:../../../../../../Middlewares/Third_Party/LoRaWAN/Mac/region/RegionEU868.c ****     {
 847:../../../../../../Middlewares/Third_Party/LoRaWAN/Mac/region/RegionEU868.c ****         status &= 0xFE;
 848:../../../../../../Middlewares/Third_Party/LoRaWAN/Mac/region/RegionEU868.c ****     }
 849:../../../../../../Middlewares/Third_Party/LoRaWAN/Mac/region/RegionEU868.c **** 
 850:../../../../../../Middlewares/Third_Party/LoRaWAN/Mac/region/RegionEU868.c ****     // Verify if an uplink frequency exists
 851:../../../../../../Middlewares/Third_Party/LoRaWAN/Mac/region/RegionEU868.c ****     if( NvmCtx.Channels[dlChannelReq->ChannelId].Frequency == 0 )
 852:../../../../../../Middlewares/Third_Party/LoRaWAN/Mac/region/RegionEU868.c ****     {
 853:../../../../../../Middlewares/Third_Party/LoRaWAN/Mac/region/RegionEU868.c ****         status &= 0xFD;
 854:../../../../../../Middlewares/Third_Party/LoRaWAN/Mac/region/RegionEU868.c ****     }
 855:../../../../../../Middlewares/Third_Party/LoRaWAN/Mac/region/RegionEU868.c **** 
 856:../../../../../../Middlewares/Third_Party/LoRaWAN/Mac/region/RegionEU868.c ****     // Apply Rx1 frequency, if the status is OK
 857:../../../../../../Middlewares/Third_Party/LoRaWAN/Mac/region/RegionEU868.c ****     if( status == 0x03 )
 858:../../../../../../Middlewares/Third_Party/LoRaWAN/Mac/region/RegionEU868.c ****     {
 859:../../../../../../Middlewares/Third_Party/LoRaWAN/Mac/region/RegionEU868.c ****         NvmCtx.Channels[dlChannelReq->ChannelId].Rx1Frequency = dlChannelReq->Rx1Frequency;
 860:../../../../../../Middlewares/Third_Party/LoRaWAN/Mac/region/RegionEU868.c ****     }
 861:../../../../../../Middlewares/Third_Party/LoRaWAN/Mac/region/RegionEU868.c **** 
 862:../../../../../../Middlewares/Third_Party/LoRaWAN/Mac/region/RegionEU868.c ****     return status;
 863:../../../../../../Middlewares/Third_Party/LoRaWAN/Mac/region/RegionEU868.c **** }
 864:../../../../../../Middlewares/Third_Party/LoRaWAN/Mac/region/RegionEU868.c **** 
 865:../../../../../../Middlewares/Third_Party/LoRaWAN/Mac/region/RegionEU868.c **** int8_t RegionEU868AlternateDr( int8_t currentDr, AlternateDrType_t type )
 866:../../../../../../Middlewares/Third_Party/LoRaWAN/Mac/region/RegionEU868.c **** {
 867:../../../../../../Middlewares/Third_Party/LoRaWAN/Mac/region/RegionEU868.c ****     return currentDr;
 868:../../../../../../Middlewares/Third_Party/LoRaWAN/Mac/region/RegionEU868.c **** }
 869:../../../../../../Middlewares/Third_Party/LoRaWAN/Mac/region/RegionEU868.c **** 
 870:../../../../../../Middlewares/Third_Party/LoRaWAN/Mac/region/RegionEU868.c **** void RegionEU868CalcBackOff( CalcBackOffParams_t* calcBackOff )
 871:../../../../../../Middlewares/Third_Party/LoRaWAN/Mac/region/RegionEU868.c **** {
 872:../../../../../../Middlewares/Third_Party/LoRaWAN/Mac/region/RegionEU868.c ****     RegionCommonCalcBackOffParams_t calcBackOffParams;
 873:../../../../../../Middlewares/Third_Party/LoRaWAN/Mac/region/RegionEU868.c **** 
 874:../../../../../../Middlewares/Third_Party/LoRaWAN/Mac/region/RegionEU868.c ****     calcBackOffParams.Channels = NvmCtx.Channels;
 875:../../../../../../Middlewares/Third_Party/LoRaWAN/Mac/region/RegionEU868.c ****     calcBackOffParams.Bands = NvmCtx.Bands;
 876:../../../../../../Middlewares/Third_Party/LoRaWAN/Mac/region/RegionEU868.c ****     calcBackOffParams.LastTxIsJoinRequest = calcBackOff->LastTxIsJoinRequest;
 877:../../../../../../Middlewares/Third_Party/LoRaWAN/Mac/region/RegionEU868.c ****     calcBackOffParams.Joined = calcBackOff->Joined;
 878:../../../../../../Middlewares/Third_Party/LoRaWAN/Mac/region/RegionEU868.c ****     calcBackOffParams.DutyCycleEnabled = calcBackOff->DutyCycleEnabled;
 879:../../../../../../Middlewares/Third_Party/LoRaWAN/Mac/region/RegionEU868.c ****     calcBackOffParams.Channel = calcBackOff->Channel;
 880:../../../../../../Middlewares/Third_Party/LoRaWAN/Mac/region/RegionEU868.c ****     calcBackOffParams.ElapsedTime = calcBackOff->ElapsedTime;
 881:../../../../../../Middlewares/Third_Party/LoRaWAN/Mac/region/RegionEU868.c ****     calcBackOffParams.TxTimeOnAir = calcBackOff->TxTimeOnAir;
 882:../../../../../../Middlewares/Third_Party/LoRaWAN/Mac/region/RegionEU868.c **** 
 883:../../../../../../Middlewares/Third_Party/LoRaWAN/Mac/region/RegionEU868.c ****     RegionCommonCalcBackOff( &calcBackOffParams );
 884:../../../../../../Middlewares/Third_Party/LoRaWAN/Mac/region/RegionEU868.c **** }
 885:../../../../../../Middlewares/Third_Party/LoRaWAN/Mac/region/RegionEU868.c **** 
 886:../../../../../../Middlewares/Third_Party/LoRaWAN/Mac/region/RegionEU868.c **** LoRaMacStatus_t RegionEU868NextChannel( NextChanParams_t* nextChanParams, uint8_t* channel, TimerTi
 887:../../../../../../Middlewares/Third_Party/LoRaWAN/Mac/region/RegionEU868.c **** {
 888:../../../../../../Middlewares/Third_Party/LoRaWAN/Mac/region/RegionEU868.c ****     uint8_t nbEnabledChannels = 0;
 889:../../../../../../Middlewares/Third_Party/LoRaWAN/Mac/region/RegionEU868.c ****     uint8_t delayTx = 0;
 890:../../../../../../Middlewares/Third_Party/LoRaWAN/Mac/region/RegionEU868.c ****     uint8_t enabledChannels[EU868_MAX_NB_CHANNELS] = { 0 };
 891:../../../../../../Middlewares/Third_Party/LoRaWAN/Mac/region/RegionEU868.c ****     TimerTime_t nextTxDelay = 0;
 892:../../../../../../Middlewares/Third_Party/LoRaWAN/Mac/region/RegionEU868.c **** 
 893:../../../../../../Middlewares/Third_Party/LoRaWAN/Mac/region/RegionEU868.c ****     if( RegionCommonCountChannels( NvmCtx.ChannelsMask, 0, 1 ) == 0 )
 894:../../../../../../Middlewares/Third_Party/LoRaWAN/Mac/region/RegionEU868.c ****     { // Reactivate default channels
 895:../../../../../../Middlewares/Third_Party/LoRaWAN/Mac/region/RegionEU868.c ****         NvmCtx.ChannelsMask[0] |= LC( 1 ) + LC( 2 ) + LC( 3 );
 896:../../../../../../Middlewares/Third_Party/LoRaWAN/Mac/region/RegionEU868.c ****     }
 897:../../../../../../Middlewares/Third_Party/LoRaWAN/Mac/region/RegionEU868.c **** 
 898:../../../../../../Middlewares/Third_Party/LoRaWAN/Mac/region/RegionEU868.c ****     if( nextChanParams->AggrTimeOff <= TimerGetElapsedTime( nextChanParams->LastAggrTx ) )
 899:../../../../../../Middlewares/Third_Party/LoRaWAN/Mac/region/RegionEU868.c ****     {
 900:../../../../../../Middlewares/Third_Party/LoRaWAN/Mac/region/RegionEU868.c ****         // Reset Aggregated time off
 901:../../../../../../Middlewares/Third_Party/LoRaWAN/Mac/region/RegionEU868.c ****         *aggregatedTimeOff = 0;
ARM GAS  C:\Users\EBANO_~1\AppData\Local\Temp\ccJkfoGk.s 			page 30


 902:../../../../../../Middlewares/Third_Party/LoRaWAN/Mac/region/RegionEU868.c **** 
 903:../../../../../../Middlewares/Third_Party/LoRaWAN/Mac/region/RegionEU868.c ****         // Update bands Time OFF
 904:../../../../../../Middlewares/Third_Party/LoRaWAN/Mac/region/RegionEU868.c ****         nextTxDelay = RegionCommonUpdateBandTimeOff( nextChanParams->Joined, nextChanParams->DutyCy
 905:../../../../../../Middlewares/Third_Party/LoRaWAN/Mac/region/RegionEU868.c **** 
 906:../../../../../../Middlewares/Third_Party/LoRaWAN/Mac/region/RegionEU868.c ****         // Search how many channels are enabled
 907:../../../../../../Middlewares/Third_Party/LoRaWAN/Mac/region/RegionEU868.c ****         nbEnabledChannels = CountNbOfEnabledChannels( nextChanParams->Joined, nextChanParams->Datar
 908:../../../../../../Middlewares/Third_Party/LoRaWAN/Mac/region/RegionEU868.c ****                                                       NvmCtx.ChannelsMask, NvmCtx.Channels,
 909:../../../../../../Middlewares/Third_Party/LoRaWAN/Mac/region/RegionEU868.c ****                                                       NvmCtx.Bands, enabledChannels, &delayTx );
 910:../../../../../../Middlewares/Third_Party/LoRaWAN/Mac/region/RegionEU868.c ****     }
 911:../../../../../../Middlewares/Third_Party/LoRaWAN/Mac/region/RegionEU868.c ****     else
 912:../../../../../../Middlewares/Third_Party/LoRaWAN/Mac/region/RegionEU868.c ****     {
 913:../../../../../../Middlewares/Third_Party/LoRaWAN/Mac/region/RegionEU868.c ****         delayTx++;
 914:../../../../../../Middlewares/Third_Party/LoRaWAN/Mac/region/RegionEU868.c ****         nextTxDelay = nextChanParams->AggrTimeOff - TimerGetElapsedTime( nextChanParams->LastAggrTx
 915:../../../../../../Middlewares/Third_Party/LoRaWAN/Mac/region/RegionEU868.c ****     }
 916:../../../../../../Middlewares/Third_Party/LoRaWAN/Mac/region/RegionEU868.c **** 
 917:../../../../../../Middlewares/Third_Party/LoRaWAN/Mac/region/RegionEU868.c ****     if( nbEnabledChannels > 0 )
 918:../../../../../../Middlewares/Third_Party/LoRaWAN/Mac/region/RegionEU868.c ****     {
 919:../../../../../../Middlewares/Third_Party/LoRaWAN/Mac/region/RegionEU868.c ****         // We found a valid channel
 920:../../../../../../Middlewares/Third_Party/LoRaWAN/Mac/region/RegionEU868.c ****         *channel = enabledChannels[randr( 0, nbEnabledChannels - 1 )];
 921:../../../../../../Middlewares/Third_Party/LoRaWAN/Mac/region/RegionEU868.c **** 
 922:../../../../../../Middlewares/Third_Party/LoRaWAN/Mac/region/RegionEU868.c ****         *time = 0;
 923:../../../../../../Middlewares/Third_Party/LoRaWAN/Mac/region/RegionEU868.c ****         return LORAMAC_STATUS_OK;
 924:../../../../../../Middlewares/Third_Party/LoRaWAN/Mac/region/RegionEU868.c ****     }
 925:../../../../../../Middlewares/Third_Party/LoRaWAN/Mac/region/RegionEU868.c ****     else
 926:../../../../../../Middlewares/Third_Party/LoRaWAN/Mac/region/RegionEU868.c ****     {
 927:../../../../../../Middlewares/Third_Party/LoRaWAN/Mac/region/RegionEU868.c ****         if( delayTx > 0 )
 928:../../../../../../Middlewares/Third_Party/LoRaWAN/Mac/region/RegionEU868.c ****         {
 929:../../../../../../Middlewares/Third_Party/LoRaWAN/Mac/region/RegionEU868.c ****             // Delay transmission due to AggregatedTimeOff or to a band time off
 930:../../../../../../Middlewares/Third_Party/LoRaWAN/Mac/region/RegionEU868.c ****             *time = nextTxDelay;
 931:../../../../../../Middlewares/Third_Party/LoRaWAN/Mac/region/RegionEU868.c ****             return LORAMAC_STATUS_DUTYCYCLE_RESTRICTED;
 932:../../../../../../Middlewares/Third_Party/LoRaWAN/Mac/region/RegionEU868.c ****         }
 933:../../../../../../Middlewares/Third_Party/LoRaWAN/Mac/region/RegionEU868.c ****         // Datarate not supported by any channel, restore defaults
 934:../../../../../../Middlewares/Third_Party/LoRaWAN/Mac/region/RegionEU868.c ****         NvmCtx.ChannelsMask[0] |= LC( 1 ) + LC( 2 ) + LC( 3 );
 935:../../../../../../Middlewares/Third_Party/LoRaWAN/Mac/region/RegionEU868.c ****         *time = 0;
 936:../../../../../../Middlewares/Third_Party/LoRaWAN/Mac/region/RegionEU868.c ****         return LORAMAC_STATUS_NO_CHANNEL_FOUND;
 937:../../../../../../Middlewares/Third_Party/LoRaWAN/Mac/region/RegionEU868.c ****     }
 938:../../../../../../Middlewares/Third_Party/LoRaWAN/Mac/region/RegionEU868.c **** }
 939:../../../../../../Middlewares/Third_Party/LoRaWAN/Mac/region/RegionEU868.c **** 
 940:../../../../../../Middlewares/Third_Party/LoRaWAN/Mac/region/RegionEU868.c **** LoRaMacStatus_t RegionEU868ChannelAdd( ChannelAddParams_t* channelAdd )
 941:../../../../../../Middlewares/Third_Party/LoRaWAN/Mac/region/RegionEU868.c **** {
 942:../../../../../../Middlewares/Third_Party/LoRaWAN/Mac/region/RegionEU868.c ****     uint8_t band = 0;
 943:../../../../../../Middlewares/Third_Party/LoRaWAN/Mac/region/RegionEU868.c ****     bool drInvalid = false;
 944:../../../../../../Middlewares/Third_Party/LoRaWAN/Mac/region/RegionEU868.c ****     bool freqInvalid = false;
 945:../../../../../../Middlewares/Third_Party/LoRaWAN/Mac/region/RegionEU868.c ****     uint8_t id = channelAdd->ChannelId;
 946:../../../../../../Middlewares/Third_Party/LoRaWAN/Mac/region/RegionEU868.c **** 
 947:../../../../../../Middlewares/Third_Party/LoRaWAN/Mac/region/RegionEU868.c ****     if( id < EU868_NUMB_DEFAULT_CHANNELS )
 948:../../../../../../Middlewares/Third_Party/LoRaWAN/Mac/region/RegionEU868.c ****     {
 949:../../../../../../Middlewares/Third_Party/LoRaWAN/Mac/region/RegionEU868.c ****         return LORAMAC_STATUS_FREQ_AND_DR_INVALID;
 950:../../../../../../Middlewares/Third_Party/LoRaWAN/Mac/region/RegionEU868.c ****     }
 951:../../../../../../Middlewares/Third_Party/LoRaWAN/Mac/region/RegionEU868.c **** 
 952:../../../../../../Middlewares/Third_Party/LoRaWAN/Mac/region/RegionEU868.c ****     if( id >= EU868_MAX_NB_CHANNELS )
 953:../../../../../../Middlewares/Third_Party/LoRaWAN/Mac/region/RegionEU868.c ****     {
 954:../../../../../../Middlewares/Third_Party/LoRaWAN/Mac/region/RegionEU868.c ****         return LORAMAC_STATUS_PARAMETER_INVALID;
 955:../../../../../../Middlewares/Third_Party/LoRaWAN/Mac/region/RegionEU868.c ****     }
 956:../../../../../../Middlewares/Third_Party/LoRaWAN/Mac/region/RegionEU868.c **** 
 957:../../../../../../Middlewares/Third_Party/LoRaWAN/Mac/region/RegionEU868.c ****     // Validate the datarate range
 958:../../../../../../Middlewares/Third_Party/LoRaWAN/Mac/region/RegionEU868.c ****     if( RegionCommonValueInRange( channelAdd->NewChannel->DrRange.Fields.Min, EU868_TX_MIN_DATARATE
ARM GAS  C:\Users\EBANO_~1\AppData\Local\Temp\ccJkfoGk.s 			page 31


 959:../../../../../../Middlewares/Third_Party/LoRaWAN/Mac/region/RegionEU868.c ****     {
 960:../../../../../../Middlewares/Third_Party/LoRaWAN/Mac/region/RegionEU868.c ****         drInvalid = true;
 961:../../../../../../Middlewares/Third_Party/LoRaWAN/Mac/region/RegionEU868.c ****     }
 962:../../../../../../Middlewares/Third_Party/LoRaWAN/Mac/region/RegionEU868.c ****     if( RegionCommonValueInRange( channelAdd->NewChannel->DrRange.Fields.Max, EU868_TX_MIN_DATARATE
 963:../../../../../../Middlewares/Third_Party/LoRaWAN/Mac/region/RegionEU868.c ****     {
 964:../../../../../../Middlewares/Third_Party/LoRaWAN/Mac/region/RegionEU868.c ****         drInvalid = true;
 965:../../../../../../Middlewares/Third_Party/LoRaWAN/Mac/region/RegionEU868.c ****     }
 966:../../../../../../Middlewares/Third_Party/LoRaWAN/Mac/region/RegionEU868.c ****     if( channelAdd->NewChannel->DrRange.Fields.Min > channelAdd->NewChannel->DrRange.Fields.Max )
 967:../../../../../../Middlewares/Third_Party/LoRaWAN/Mac/region/RegionEU868.c ****     {
 968:../../../../../../Middlewares/Third_Party/LoRaWAN/Mac/region/RegionEU868.c ****         drInvalid = true;
 969:../../../../../../Middlewares/Third_Party/LoRaWAN/Mac/region/RegionEU868.c ****     }
 970:../../../../../../Middlewares/Third_Party/LoRaWAN/Mac/region/RegionEU868.c **** 
 971:../../../../../../Middlewares/Third_Party/LoRaWAN/Mac/region/RegionEU868.c ****     // Check frequency
 972:../../../../../../Middlewares/Third_Party/LoRaWAN/Mac/region/RegionEU868.c ****     if( freqInvalid == false )
 973:../../../../../../Middlewares/Third_Party/LoRaWAN/Mac/region/RegionEU868.c ****     {
 974:../../../../../../Middlewares/Third_Party/LoRaWAN/Mac/region/RegionEU868.c ****         if( VerifyRfFreq( channelAdd->NewChannel->Frequency, &band ) == false )
 975:../../../../../../Middlewares/Third_Party/LoRaWAN/Mac/region/RegionEU868.c ****         {
 976:../../../../../../Middlewares/Third_Party/LoRaWAN/Mac/region/RegionEU868.c ****             freqInvalid = true;
 977:../../../../../../Middlewares/Third_Party/LoRaWAN/Mac/region/RegionEU868.c ****         }
 978:../../../../../../Middlewares/Third_Party/LoRaWAN/Mac/region/RegionEU868.c ****     }
 979:../../../../../../Middlewares/Third_Party/LoRaWAN/Mac/region/RegionEU868.c **** 
 980:../../../../../../Middlewares/Third_Party/LoRaWAN/Mac/region/RegionEU868.c ****     // Check status
 981:../../../../../../Middlewares/Third_Party/LoRaWAN/Mac/region/RegionEU868.c ****     if( ( drInvalid == true ) && ( freqInvalid == true ) )
 982:../../../../../../Middlewares/Third_Party/LoRaWAN/Mac/region/RegionEU868.c ****     {
 983:../../../../../../Middlewares/Third_Party/LoRaWAN/Mac/region/RegionEU868.c ****         return LORAMAC_STATUS_FREQ_AND_DR_INVALID;
 984:../../../../../../Middlewares/Third_Party/LoRaWAN/Mac/region/RegionEU868.c ****     }
 985:../../../../../../Middlewares/Third_Party/LoRaWAN/Mac/region/RegionEU868.c ****     if( drInvalid == true )
 986:../../../../../../Middlewares/Third_Party/LoRaWAN/Mac/region/RegionEU868.c ****     {
 987:../../../../../../Middlewares/Third_Party/LoRaWAN/Mac/region/RegionEU868.c ****         return LORAMAC_STATUS_DATARATE_INVALID;
 988:../../../../../../Middlewares/Third_Party/LoRaWAN/Mac/region/RegionEU868.c ****     }
 989:../../../../../../Middlewares/Third_Party/LoRaWAN/Mac/region/RegionEU868.c ****     if( freqInvalid == true )
 990:../../../../../../Middlewares/Third_Party/LoRaWAN/Mac/region/RegionEU868.c ****     {
 991:../../../../../../Middlewares/Third_Party/LoRaWAN/Mac/region/RegionEU868.c ****         return LORAMAC_STATUS_FREQUENCY_INVALID;
 992:../../../../../../Middlewares/Third_Party/LoRaWAN/Mac/region/RegionEU868.c ****     }
 993:../../../../../../Middlewares/Third_Party/LoRaWAN/Mac/region/RegionEU868.c **** 
 994:../../../../../../Middlewares/Third_Party/LoRaWAN/Mac/region/RegionEU868.c ****     memcpy1( ( uint8_t* ) &(NvmCtx.Channels[id]), ( uint8_t* ) channelAdd->NewChannel, sizeof( NvmC
 995:../../../../../../Middlewares/Third_Party/LoRaWAN/Mac/region/RegionEU868.c ****     NvmCtx.Channels[id].Band = band;
 996:../../../../../../Middlewares/Third_Party/LoRaWAN/Mac/region/RegionEU868.c ****     NvmCtx.ChannelsMask[0] |= ( 1 << id );
 997:../../../../../../Middlewares/Third_Party/LoRaWAN/Mac/region/RegionEU868.c ****     return LORAMAC_STATUS_OK;
 998:../../../../../../Middlewares/Third_Party/LoRaWAN/Mac/region/RegionEU868.c **** }
 999:../../../../../../Middlewares/Third_Party/LoRaWAN/Mac/region/RegionEU868.c **** 
1000:../../../../../../Middlewares/Third_Party/LoRaWAN/Mac/region/RegionEU868.c **** bool RegionEU868ChannelsRemove( ChannelRemoveParams_t* channelRemove  )
1001:../../../../../../Middlewares/Third_Party/LoRaWAN/Mac/region/RegionEU868.c **** {
1002:../../../../../../Middlewares/Third_Party/LoRaWAN/Mac/region/RegionEU868.c ****     uint8_t id = channelRemove->ChannelId;
1003:../../../../../../Middlewares/Third_Party/LoRaWAN/Mac/region/RegionEU868.c **** 
1004:../../../../../../Middlewares/Third_Party/LoRaWAN/Mac/region/RegionEU868.c ****     if( id < EU868_NUMB_DEFAULT_CHANNELS )
1005:../../../../../../Middlewares/Third_Party/LoRaWAN/Mac/region/RegionEU868.c ****     {
1006:../../../../../../Middlewares/Third_Party/LoRaWAN/Mac/region/RegionEU868.c ****         return false;
1007:../../../../../../Middlewares/Third_Party/LoRaWAN/Mac/region/RegionEU868.c ****     }
1008:../../../../../../Middlewares/Third_Party/LoRaWAN/Mac/region/RegionEU868.c **** 
1009:../../../../../../Middlewares/Third_Party/LoRaWAN/Mac/region/RegionEU868.c ****     // Remove the channel from the list of channels
1010:../../../../../../Middlewares/Third_Party/LoRaWAN/Mac/region/RegionEU868.c ****     NvmCtx.Channels[id] = ( ChannelParams_t ){ 0, 0, { 0 }, 0 };
 690              		.loc 1 1010 0
 691 0032 524B     		ldr	r3, .L84
 692              	.LBE29:
 693              	.LBE28:
 694              	.LBE27:
ARM GAS  C:\Users\EBANO_~1\AppData\Local\Temp\ccJkfoGk.s 			page 32


 695 0034 0126     		movs	r6, #1
 696              	.LBB52:
 697              	.LBB32:
 698              	.LBB30:
 699 0036 9A46     		mov	r10, r3
 700              	.LBE30:
 701              	.LBE32:
 702              	.LBB33:
 703              	.LBB34:
 704              	.LBB35:
 705              	.LBB36:
 111:../../../../../../Middlewares/Third_Party/LoRaWAN/Mac/region/RegionEU868.c ****     {
 706              		.loc 1 111 0
 707 0038 514B     		ldr	r3, .L84+4
 708              	.LBE36:
 709              	.LBE35:
 710              	.LBE34:
 711              	.LBE33:
 712              	.LBE52:
 713 003a 0325     		movs	r5, #3
 714              	.LBB53:
 715              	.LBB49:
 716              	.LBB47:
 717              	.LBB44:
 718              	.LBB41:
 719 003c 9B46     		mov	fp, r3
 720 003e 14E0     		b	.L67
 721              	.LVL39:
 722              	.L60:
 723              	.LBE41:
 724              	.LBE44:
 725              	.LBE47:
 726              	.LBE49:
 496:../../../../../../Middlewares/Third_Party/LoRaWAN/Mac/region/RegionEU868.c ****             newChannel.DrRange.Value = 0;
 727              		.loc 1 496 0
 728 0040 0023     		movs	r3, #0
 729              	.LVL40:
 730 0042 2360     		str	r3, [r4]
 497:../../../../../../Middlewares/Third_Party/LoRaWAN/Mac/region/RegionEU868.c ****             newChannel.Rx1Frequency = 0;
 731              		.loc 1 497 0
 732 0044 2372     		strb	r3, [r4, #8]
 498:../../../../../../Middlewares/Third_Party/LoRaWAN/Mac/region/RegionEU868.c ****         }
 733              		.loc 1 498 0
 734 0046 6360     		str	r3, [r4, #4]
 735              	.L62:
 736              	.LVL41:
 737              	.LBB50:
 738              	.LBB31:
 739              		.loc 1 1010 0
 740 0048 6800     		lsls	r0, r5, #1
 741 004a 4019     		adds	r0, r0, r5
 742 004c 8000     		lsls	r0, r0, #2
 743 004e 0C22     		movs	r2, #12
 744 0050 0021     		movs	r1, #0
 745 0052 5044     		add	r0, r0, r10
 746 0054 FFF7FEFF 		bl	memset
 747              	.LVL42:
ARM GAS  C:\Users\EBANO_~1\AppData\Local\Temp\ccJkfoGk.s 			page 33


1011:../../../../../../Middlewares/Third_Party/LoRaWAN/Mac/region/RegionEU868.c **** 
1012:../../../../../../Middlewares/Third_Party/LoRaWAN/Mac/region/RegionEU868.c ****     return RegionCommonChanDisable( NvmCtx.ChannelsMask, id, EU868_MAX_NB_CHANNELS );
 748              		.loc 1 1012 0
 749 0058 1022     		movs	r2, #16
 750 005a 4146     		mov	r1, r8
 751 005c 4948     		ldr	r0, .L84+8
 752 005e FFF7FEFF 		bl	RegionCommonChanDisable
 753              	.LVL43:
 754              	.L64:
 755 0062 0336     		adds	r6, r6, #3
 756              	.LVL44:
 757 0064 0135     		adds	r5, r5, #1
 758              	.LVL45:
 759              	.LBE31:
 760              	.LBE50:
 481:../../../../../../Middlewares/Third_Party/LoRaWAN/Mac/region/RegionEU868.c ****     {
 761              		.loc 1 481 0 discriminator 2
 762 0066 282E     		cmp	r6, #40
 763 0068 D8D0     		beq	.L58
 764              	.L67:
 765 006a EBB2     		uxtb	r3, r5
 766 006c 9846     		mov	r8, r3
 767              	.LVL46:
 483:../../../../../../Middlewares/Third_Party/LoRaWAN/Mac/region/RegionEU868.c ****         {
 768              		.loc 1 483 0
 769 006e 072D     		cmp	r5, #7
 770 0070 E6D8     		bhi	.L60
 486:../../../../../../Middlewares/Third_Party/LoRaWAN/Mac/region/RegionEU868.c ****             newChannel.Frequency |= ( (uint32_t) applyCFList->Payload[i + 1] << 8 );
 771              		.loc 1 486 0
 772 0072 3B68     		ldr	r3, [r7]
 773              	.LVL47:
 774 0074 9A19     		adds	r2, r3, r6
 775 0076 511E     		subs	r1, r2, #1
 776 0078 0978     		ldrb	r1, [r1]
 777 007a 2160     		str	r1, [r4]
 487:../../../../../../Middlewares/Third_Party/LoRaWAN/Mac/region/RegionEU868.c ****             newChannel.Frequency |= ( (uint32_t) applyCFList->Payload[i + 2] << 16 );
 778              		.loc 1 487 0
 779 007c 9B5D     		ldrb	r3, [r3, r6]
 780 007e 1B02     		lsls	r3, r3, #8
 781 0080 0B43     		orrs	r3, r1
 782 0082 2360     		str	r3, [r4]
 488:../../../../../../Middlewares/Third_Party/LoRaWAN/Mac/region/RegionEU868.c ****             newChannel.Frequency *= 100;
 783              		.loc 1 488 0
 784 0084 5278     		ldrb	r2, [r2, #1]
 785 0086 1204     		lsls	r2, r2, #16
 786 0088 1343     		orrs	r3, r2
 489:../../../../../../Middlewares/Third_Party/LoRaWAN/Mac/region/RegionEU868.c **** 
 787              		.loc 1 489 0
 788 008a 6422     		movs	r2, #100
 789 008c 5343     		muls	r3, r2
 492:../../../../../../Middlewares/Third_Party/LoRaWAN/Mac/region/RegionEU868.c ****         }
 790              		.loc 1 492 0
 791 008e 0022     		movs	r2, #0
 489:../../../../../../Middlewares/Third_Party/LoRaWAN/Mac/region/RegionEU868.c **** 
 792              		.loc 1 489 0
 793 0090 2360     		str	r3, [r4]
 492:../../../../../../Middlewares/Third_Party/LoRaWAN/Mac/region/RegionEU868.c ****         }
ARM GAS  C:\Users\EBANO_~1\AppData\Local\Temp\ccJkfoGk.s 			page 34


 794              		.loc 1 492 0
 795 0092 6260     		str	r2, [r4, #4]
 501:../../../../../../Middlewares/Third_Party/LoRaWAN/Mac/region/RegionEU868.c ****         {
 796              		.loc 1 501 0
 797 0094 002B     		cmp	r3, #0
 798 0096 D7D0     		beq	.L62
 799              	.LVL48:
 800              	.LBB51:
 801              	.LBB48:
 958:../../../../../../Middlewares/Third_Party/LoRaWAN/Mac/region/RegionEU868.c ****     {
 802              		.loc 1 958 0
 803 0098 207A     		ldrb	r0, [r4, #8]
 804 009a 0722     		movs	r2, #7
 805 009c 0007     		lsls	r0, r0, #28
 806 009e 0021     		movs	r1, #0
 807 00a0 0017     		asrs	r0, r0, #28
 808 00a2 FFF7FEFF 		bl	RegionCommonValueInRange
 809              	.LVL49:
 810 00a6 8046     		mov	r8, r0
 811              	.LVL50:
 962:../../../../../../Middlewares/Third_Party/LoRaWAN/Mac/region/RegionEU868.c ****     {
 812              		.loc 1 962 0
 813 00a8 0820     		movs	r0, #8
 814 00aa 2056     		ldrsb	r0, [r4, r0]
 815 00ac 0722     		movs	r2, #7
 816 00ae 0011     		asrs	r0, r0, #4
 817 00b0 0021     		movs	r1, #0
 818 00b2 FFF7FEFF 		bl	RegionCommonValueInRange
 819              	.LVL51:
 964:../../../../../../Middlewares/Third_Party/LoRaWAN/Mac/region/RegionEU868.c ****     }
 820              		.loc 1 964 0
 821 00b6 0123     		movs	r3, #1
 822 00b8 9946     		mov	r9, r3
 962:../../../../../../Middlewares/Third_Party/LoRaWAN/Mac/region/RegionEU868.c ****     {
 823              		.loc 1 962 0
 824 00ba 0028     		cmp	r0, #0
 825 00bc 04D0     		beq	.L68
 958:../../../../../../Middlewares/Third_Party/LoRaWAN/Mac/region/RegionEU868.c ****     {
 826              		.loc 1 958 0
 827 00be 4346     		mov	r3, r8
 828 00c0 5A42     		rsbs	r2, r3, #0
 829 00c2 5341     		adcs	r3, r3, r2
 830 00c4 DBB2     		uxtb	r3, r3
 831 00c6 9946     		mov	r9, r3
 832              	.L68:
 833              	.LVL52:
 966:../../../../../../Middlewares/Third_Party/LoRaWAN/Mac/region/RegionEU868.c ****     {
 834              		.loc 1 966 0
 835 00c8 237A     		ldrb	r3, [r4, #8]
 836 00ca 1A07     		lsls	r2, r3, #28
 837 00cc 5BB2     		sxtb	r3, r3
 838 00ce 1217     		asrs	r2, r2, #28
 839 00d0 1B11     		asrs	r3, r3, #4
 840 00d2 9A42     		cmp	r2, r3
 841 00d4 01DD     		ble	.L63
 968:../../../../../../Middlewares/Third_Party/LoRaWAN/Mac/region/RegionEU868.c ****     }
 842              		.loc 1 968 0
ARM GAS  C:\Users\EBANO_~1\AppData\Local\Temp\ccJkfoGk.s 			page 35


 843 00d6 0123     		movs	r3, #1
 844 00d8 9946     		mov	r9, r3
 845              	.LVL53:
 846              	.L63:
 974:../../../../../../Middlewares/Third_Party/LoRaWAN/Mac/region/RegionEU868.c ****         {
 847              		.loc 1 974 0
 848 00da 2368     		ldr	r3, [r4]
 849 00dc 9846     		mov	r8, r3
 850              	.LVL54:
 851              	.LBB45:
 852              	.LBB42:
 111:../../../../../../Middlewares/Third_Party/LoRaWAN/Mac/region/RegionEU868.c ****     {
 853              		.loc 1 111 0
 854 00de 5B46     		mov	r3, fp
 855              	.LVL55:
 856 00e0 9B6A     		ldr	r3, [r3, #40]
 857 00e2 4046     		mov	r0, r8
 858 00e4 0193     		str	r3, [sp, #4]
 859 00e6 9847     		blx	r3
 860              	.LVL56:
 861 00e8 0028     		cmp	r0, #0
 862 00ea BAD0     		beq	.L64
 117:../../../../../../Middlewares/Third_Party/LoRaWAN/Mac/region/RegionEU868.c ****     {
 863              		.loc 1 117 0
 864 00ec 264B     		ldr	r3, .L84+12
 865 00ee 274A     		ldr	r2, .L84+16
 866 00f0 4344     		add	r3, r3, r8
 867 00f2 9342     		cmp	r3, r2
 868 00f4 1BD9     		bls	.L74
 121:../../../../../../Middlewares/Third_Party/LoRaWAN/Mac/region/RegionEU868.c ****     {
 869              		.loc 1 121 0
 870 00f6 264B     		ldr	r3, .L84+20
 871 00f8 264A     		ldr	r2, .L84+24
 872 00fa 4344     		add	r3, r3, r8
 873 00fc 9342     		cmp	r3, r2
 874 00fe 34D9     		bls	.L72
 125:../../../../../../Middlewares/Third_Party/LoRaWAN/Mac/region/RegionEU868.c ****     {
 875              		.loc 1 125 0
 876 0100 254B     		ldr	r3, .L84+28
 877 0102 264A     		ldr	r2, .L84+32
 878 0104 4344     		add	r3, r3, r8
 879 0106 9342     		cmp	r3, r2
 880 0108 32D9     		bls	.L73
 129:../../../../../../Middlewares/Third_Party/LoRaWAN/Mac/region/RegionEU868.c ****     {
 881              		.loc 1 129 0
 882 010a 254B     		ldr	r3, .L84+36
 883 010c 254A     		ldr	r2, .L84+40
 884 010e 4344     		add	r3, r3, r8
 885 0110 9342     		cmp	r3, r2
 886 0112 0CD9     		bls	.L74
 887              	.LVL57:
 888              	.LBB37:
 889              	.LBB38:
 133:../../../../../../Middlewares/Third_Party/LoRaWAN/Mac/region/RegionEU868.c ****     {
 890              		.loc 1 133 0
 891 0114 244B     		ldr	r3, .L84+44
 892 0116 254A     		ldr	r2, .L84+48
ARM GAS  C:\Users\EBANO_~1\AppData\Local\Temp\ccJkfoGk.s 			page 36


 893 0118 4344     		add	r3, r3, r8
 894 011a 9342     		cmp	r3, r2
 895 011c 2BD9     		bls	.L75
 139:../../../../../../Middlewares/Third_Party/LoRaWAN/Mac/region/RegionEU868.c ****     }
 896              		.loc 1 139 0
 897 011e 0421     		movs	r1, #4
 137:../../../../../../Middlewares/Third_Party/LoRaWAN/Mac/region/RegionEU868.c ****     {
 898              		.loc 1 137 0
 899 0120 234B     		ldr	r3, .L84+52
 900 0122 244A     		ldr	r2, .L84+56
 901 0124 4344     		add	r3, r3, r8
 139:../../../../../../Middlewares/Third_Party/LoRaWAN/Mac/region/RegionEU868.c ****     }
 902              		.loc 1 139 0
 903 0126 0191     		str	r1, [sp, #4]
 137:../../../../../../Middlewares/Third_Party/LoRaWAN/Mac/region/RegionEU868.c ****     {
 904              		.loc 1 137 0
 905 0128 9342     		cmp	r3, r2
 906 012a 02D9     		bls	.L65
 907 012c 99E7     		b	.L64
 908              	.LVL58:
 909              	.L74:
 910              	.LBE38:
 911              	.LBE37:
 131:../../../../../../Middlewares/Third_Party/LoRaWAN/Mac/region/RegionEU868.c ****     }
 912              		.loc 1 131 0
 913 012e 0223     		movs	r3, #2
 914 0130 0193     		str	r3, [sp, #4]
 915              	.L65:
 916              	.LBE42:
 917              	.LBE45:
 981:../../../../../../Middlewares/Third_Party/LoRaWAN/Mac/region/RegionEU868.c ****     {
 918              		.loc 1 981 0
 919 0132 4B46     		mov	r3, r9
 920 0134 002B     		cmp	r3, #0
 921 0136 94D1     		bne	.L64
 994:../../../../../../Middlewares/Third_Party/LoRaWAN/Mac/region/RegionEU868.c ****     NvmCtx.Channels[id].Band = band;
 922              		.loc 1 994 0
 923 0138 104B     		ldr	r3, .L84
 924 013a 6800     		lsls	r0, r5, #1
 925 013c 9846     		mov	r8, r3
 926              	.LVL59:
 927 013e 4019     		adds	r0, r0, r5
 928 0140 8000     		lsls	r0, r0, #2
 929 0142 0C22     		movs	r2, #12
 930 0144 2100     		movs	r1, r4
 931 0146 4044     		add	r0, r0, r8
 932 0148 FFF7FEFF 		bl	memcpy1
 933              	.LVL60:
 995:../../../../../../Middlewares/Third_Party/LoRaWAN/Mac/region/RegionEU868.c ****     NvmCtx.ChannelsMask[0] |= ( 1 << id );
 934              		.loc 1 995 0
 935 014c 4246     		mov	r2, r8
 936 014e 0199     		ldr	r1, [sp, #4]
 937 0150 B300     		lsls	r3, r6, #2
 938 0152 2933     		adds	r3, r3, #41
 939 0154 D154     		strb	r1, [r2, r3]
 996:../../../../../../Middlewares/Third_Party/LoRaWAN/Mac/region/RegionEU868.c ****     return LORAMAC_STATUS_OK;
 940              		.loc 1 996 0
ARM GAS  C:\Users\EBANO_~1\AppData\Local\Temp\ccJkfoGk.s 			page 37


 941 0156 0122     		movs	r2, #1
 942 0158 8821     		movs	r1, #136
 943 015a 4346     		mov	r3, r8
 944 015c AA40     		lsls	r2, r2, r5
 945 015e 4900     		lsls	r1, r1, #1
 946 0160 5B5A     		ldrh	r3, [r3, r1]
 947 0162 1343     		orrs	r3, r2
 948 0164 4246     		mov	r2, r8
 949 0166 5352     		strh	r3, [r2, r1]
 950 0168 7BE7     		b	.L64
 951              	.LVL61:
 952              	.L72:
 953              	.LBB46:
 954              	.LBB43:
 123:../../../../../../Middlewares/Third_Party/LoRaWAN/Mac/region/RegionEU868.c ****     }
 955              		.loc 1 123 0
 956 016a 0023     		movs	r3, #0
 957 016c 0193     		str	r3, [sp, #4]
 958 016e E0E7     		b	.L65
 959              	.L73:
 127:../../../../../../Middlewares/Third_Party/LoRaWAN/Mac/region/RegionEU868.c ****     }
 960              		.loc 1 127 0
 961 0170 0123     		movs	r3, #1
 962 0172 0193     		str	r3, [sp, #4]
 963 0174 DDE7     		b	.L65
 964              	.LVL62:
 965              	.L75:
 966              	.LBB40:
 967              	.LBB39:
 135:../../../../../../Middlewares/Third_Party/LoRaWAN/Mac/region/RegionEU868.c ****     }
 968              		.loc 1 135 0
 969 0176 0323     		movs	r3, #3
 970 0178 0193     		str	r3, [sp, #4]
 971 017a DAE7     		b	.L65
 972              	.L85:
 973              		.align	2
 974              	.L84:
 975 017c 00000000 		.word	NvmCtx
 976 0180 00000000 		.word	Radio
 977 0184 10010000 		.word	NvmCtx+272
 978 0188 40AA8FCC 		.word	-863000000
 979 018c 7F841E00 		.word	1999999
 980 0190 C02571CC 		.word	-865000000
 981 0194 C0C62D00 		.word	3000000
 982 0198 FF5E43CC 		.word	-868000001
 983 019c BF270900 		.word	599999
 984 01a0 A0B038CC 		.word	-868700000
 985 01a4 20A10700 		.word	500000
 986 01a8 40022ECC 		.word	-869400000
 987 01ac 90D00300 		.word	250000
 988 01b0 606E29CC 		.word	-869700000
 989 01b4 E0930400 		.word	300000
 990              	.LBE39:
 991              	.LBE40:
 992              	.LBE43:
 993              	.LBE46:
 994              	.LBE48:
ARM GAS  C:\Users\EBANO_~1\AppData\Local\Temp\ccJkfoGk.s 			page 38


 995              	.LBE51:
 996              	.LBE53:
 997              		.cfi_endproc
 998              	.LFE49:
 999              		.size	RegionEU868ApplyCFList, .-RegionEU868ApplyCFList
 1000              		.section	.text.RegionEU868ChanMaskSet,"ax",%progbits
 1001              		.align	1
 1002              		.p2align 2,,3
 1003              		.global	RegionEU868ChanMaskSet
 1004              		.syntax unified
 1005              		.code	16
 1006              		.thumb_func
 1007              		.fpu softvfp
 1008              		.type	RegionEU868ChanMaskSet, %function
 1009              	RegionEU868ChanMaskSet:
 1010              	.LFB50:
 519:../../../../../../Middlewares/Third_Party/LoRaWAN/Mac/region/RegionEU868.c ****     switch( chanMaskSet->ChannelsMaskType )
 1011              		.loc 1 519 0
 1012              		.cfi_startproc
 1013              		@ args = 0, pretend = 0, frame = 0
 1014              		@ frame_needed = 0, uses_anonymous_args = 0
 1015              	.LVL63:
 1016 0000 10B5     		push	{r4, lr}
 1017              	.LCFI9:
 1018              		.cfi_def_cfa_offset 8
 1019              		.cfi_offset 4, -8
 1020              		.cfi_offset 14, -4
 520:../../../../../../Middlewares/Third_Party/LoRaWAN/Mac/region/RegionEU868.c ****     {
 1021              		.loc 1 520 0
 1022 0002 0379     		ldrb	r3, [r0, #4]
 1023 0004 002B     		cmp	r3, #0
 1024 0006 0AD0     		beq	.L88
 1025 0008 012B     		cmp	r3, #1
 1026 000a 01D0     		beq	.L89
 533:../../../../../../Middlewares/Third_Party/LoRaWAN/Mac/region/RegionEU868.c ****     }
 1027              		.loc 1 533 0
 1028 000c 0020     		movs	r0, #0
 1029              	.LVL64:
 1030              	.L87:
 536:../../../../../../Middlewares/Third_Party/LoRaWAN/Mac/region/RegionEU868.c **** 
 1031              		.loc 1 536 0
 1032              		@ sp needed
 1033 000e 10BD     		pop	{r4, pc}
 1034              	.LVL65:
 1035              	.L89:
 529:../../../../../../Middlewares/Third_Party/LoRaWAN/Mac/region/RegionEU868.c ****             break;
 1036              		.loc 1 529 0
 1037 0010 0168     		ldr	r1, [r0]
 1038 0012 0122     		movs	r2, #1
 1039 0014 0548     		ldr	r0, .L92
 1040              	.LVL66:
 1041 0016 FFF7FEFF 		bl	RegionCommonChanMaskCopy
 1042              	.LVL67:
 535:../../../../../../Middlewares/Third_Party/LoRaWAN/Mac/region/RegionEU868.c **** }
 1043              		.loc 1 535 0
 1044 001a 0120     		movs	r0, #1
 530:../../../../../../Middlewares/Third_Party/LoRaWAN/Mac/region/RegionEU868.c ****         }
ARM GAS  C:\Users\EBANO_~1\AppData\Local\Temp\ccJkfoGk.s 			page 39


 1045              		.loc 1 530 0
 1046 001c F7E7     		b	.L87
 1047              	.LVL68:
 1048              	.L88:
 524:../../../../../../Middlewares/Third_Party/LoRaWAN/Mac/region/RegionEU868.c ****             break;
 1049              		.loc 1 524 0
 1050 001e 0168     		ldr	r1, [r0]
 1051 0020 0122     		movs	r2, #1
 1052 0022 0348     		ldr	r0, .L92+4
 1053              	.LVL69:
 1054 0024 FFF7FEFF 		bl	RegionCommonChanMaskCopy
 1055              	.LVL70:
 535:../../../../../../Middlewares/Third_Party/LoRaWAN/Mac/region/RegionEU868.c **** }
 1056              		.loc 1 535 0
 1057 0028 0120     		movs	r0, #1
 525:../../../../../../Middlewares/Third_Party/LoRaWAN/Mac/region/RegionEU868.c ****         }
 1058              		.loc 1 525 0
 1059 002a F0E7     		b	.L87
 1060              	.L93:
 1061              		.align	2
 1062              	.L92:
 1063 002c 12010000 		.word	NvmCtx+274
 1064 0030 10010000 		.word	NvmCtx+272
 1065              		.cfi_endproc
 1066              	.LFE50:
 1067              		.size	RegionEU868ChanMaskSet, .-RegionEU868ChanMaskSet
 1068              		.section	.text.RegionEU868ComputeRxWindowParameters,"ax",%progbits
 1069              		.align	1
 1070              		.p2align 2,,3
 1071              		.global	RegionEU868ComputeRxWindowParameters
 1072              		.syntax unified
 1073              		.code	16
 1074              		.thumb_func
 1075              		.fpu softvfp
 1076              		.type	RegionEU868ComputeRxWindowParameters, %function
 1077              	RegionEU868ComputeRxWindowParameters:
 1078              	.LFB51:
 539:../../../../../../Middlewares/Third_Party/LoRaWAN/Mac/region/RegionEU868.c ****     double tSymbol = 0.0;
 1079              		.loc 1 539 0
 1080              		.cfi_startproc
 1081              		@ args = 0, pretend = 0, frame = 8
 1082              		@ frame_needed = 0, uses_anonymous_args = 0
 1083              	.LVL71:
 1084 0000 F0B5     		push	{r4, r5, r6, r7, lr}
 1085              	.LCFI10:
 1086              		.cfi_def_cfa_offset 20
 1087              		.cfi_offset 4, -20
 1088              		.cfi_offset 5, -16
 1089              		.cfi_offset 6, -12
 1090              		.cfi_offset 7, -8
 1091              		.cfi_offset 14, -4
 1092 0002 C646     		mov	lr, r8
 1093 0004 00B5     		push	{lr}
 1094              	.LCFI11:
 1095              		.cfi_def_cfa_offset 24
 1096              		.cfi_offset 8, -24
 1097 0006 1C00     		movs	r4, r3
ARM GAS  C:\Users\EBANO_~1\AppData\Local\Temp\ccJkfoGk.s 			page 40


 1098 0008 86B0     		sub	sp, sp, #24
 1099              	.LCFI12:
 1100              		.cfi_def_cfa_offset 48
 539:../../../../../../Middlewares/Third_Party/LoRaWAN/Mac/region/RegionEU868.c ****     double tSymbol = 0.0;
 1101              		.loc 1 539 0
 1102 000a 0D00     		movs	r5, r1
 1103 000c 9046     		mov	r8, r2
 543:../../../../../../Middlewares/Third_Party/LoRaWAN/Mac/region/RegionEU868.c ****     rxConfigParams->Bandwidth = GetBandwidth( rxConfigParams->Datarate );
 1104              		.loc 1 543 0
 1105 000e 031C     		adds	r3, r0, #0
 1106              	.LVL72:
 1107 0010 0728     		cmp	r0, #7
 1108 0012 00DD     		ble	.L95
 1109 0014 0723     		movs	r3, #7
 1110              	.L95:
 1111 0016 5EB2     		sxtb	r6, r3
 1112              	.LBB54:
 1113              	.LBB55:
  86:../../../../../../Middlewares/Third_Party/LoRaWAN/Mac/region/RegionEU868.c ****     {
 1114              		.loc 1 86 0
 1115 0018 1A4A     		ldr	r2, .L103
 1116              	.LVL73:
 1117 001a B100     		lsls	r1, r6, #2
 1118              	.LVL74:
 1119              	.LBE55:
 1120              	.LBE54:
 543:../../../../../../Middlewares/Third_Party/LoRaWAN/Mac/region/RegionEU868.c ****     rxConfigParams->Bandwidth = GetBandwidth( rxConfigParams->Datarate );
 1121              		.loc 1 543 0
 1122 001c 6370     		strb	r3, [r4, #1]
 1123              	.LVL75:
 1124              	.LBB58:
 1125              	.LBB56:
  86:../../../../../../Middlewares/Third_Party/LoRaWAN/Mac/region/RegionEU868.c ****     {
 1126              		.loc 1 86 0
 1127 001e 1A4F     		ldr	r7, .L103+4
 1128 0020 5358     		ldr	r3, [r2, r1]
 1129 0022 BB42     		cmp	r3, r7
 1130 0024 24D0     		beq	.L101
 1131 0026 194F     		ldr	r7, .L103+8
 1132 0028 BC46     		mov	ip, r7
 1133 002a 6344     		add	r3, r3, ip
 1134 002c 5F42     		rsbs	r7, r3, #0
 1135 002e 7B41     		adcs	r3, r3, r7
 1136 0030 5B00     		lsls	r3, r3, #1
 1137              	.LBE56:
 1138              	.LBE58:
 544:../../../../../../Middlewares/Third_Party/LoRaWAN/Mac/region/RegionEU868.c **** 
 1139              		.loc 1 544 0
 1140 0032 A370     		strb	r3, [r4, #2]
 546:../../../../../../Middlewares/Third_Party/LoRaWAN/Mac/region/RegionEU868.c ****     { // FSK
 1141              		.loc 1 546 0
 1142 0034 0628     		cmp	r0, #6
 1143 0036 1FDC     		bgt	.L102
 1144              	.L99:
 552:../../../../../../Middlewares/Third_Party/LoRaWAN/Mac/region/RegionEU868.c ****     }
 1145              		.loc 1 552 0
 1146 0038 2023     		movs	r3, #32
ARM GAS  C:\Users\EBANO_~1\AppData\Local\Temp\ccJkfoGk.s 			page 41


 1147 003a 5158     		ldr	r1, [r2, r1]
 1148 003c 9219     		adds	r2, r2, r6
 1149 003e D05C     		ldrb	r0, [r2, r3]
 1150              	.LVL76:
 1151 0040 FFF7FEFF 		bl	RegionCommonComputeSymbolTimeLoRa
 1152              	.LVL77:
 1153 0044 0600     		movs	r6, r0
 1154 0046 0F00     		movs	r7, r1
 1155              	.LVL78:
 1156              	.L100:
 555:../../../../../../Middlewares/Third_Party/LoRaWAN/Mac/region/RegionEU868.c **** }
 1157              		.loc 1 555 0
 1158 0048 114B     		ldr	r3, .L103+12
 1159 004a 5B6E     		ldr	r3, [r3, #100]
 1160 004c 0593     		str	r3, [sp, #20]
 1161 004e 9847     		blx	r3
 1162              	.LVL79:
 1163 0050 2300     		movs	r3, r4
 1164 0052 0834     		adds	r4, r4, #8
 1165              	.LVL80:
 1166 0054 0C33     		adds	r3, r3, #12
 1167              	.LVL81:
 1168 0056 0293     		str	r3, [sp, #8]
 1169 0058 0090     		str	r0, [sp]
 1170 005a 0194     		str	r4, [sp, #4]
 1171 005c 4346     		mov	r3, r8
 1172              	.LVL82:
 1173 005e 2A00     		movs	r2, r5
 1174 0060 3000     		movs	r0, r6
 1175 0062 3900     		movs	r1, r7
 1176 0064 FFF7FEFF 		bl	RegionCommonComputeRxWindowParameters
 1177              	.LVL83:
 556:../../../../../../Middlewares/Third_Party/LoRaWAN/Mac/region/RegionEU868.c **** 
 1178              		.loc 1 556 0
 1179 0068 06B0     		add	sp, sp, #24
 1180              		@ sp needed
 1181              	.LVL84:
 1182              	.LVL85:
 1183              	.LVL86:
 1184 006a 04BC     		pop	{r2}
 1185 006c 9046     		mov	r8, r2
 1186 006e F0BD     		pop	{r4, r5, r6, r7, pc}
 1187              	.LVL87:
 1188              	.L101:
 1189              	.LBB59:
 1190              	.LBB57:
  86:../../../../../../Middlewares/Third_Party/LoRaWAN/Mac/region/RegionEU868.c ****     {
 1191              		.loc 1 86 0
 1192 0070 0123     		movs	r3, #1
 1193              	.LBE57:
 1194              	.LBE59:
 544:../../../../../../Middlewares/Third_Party/LoRaWAN/Mac/region/RegionEU868.c **** 
 1195              		.loc 1 544 0
 1196 0072 A370     		strb	r3, [r4, #2]
 546:../../../../../../Middlewares/Third_Party/LoRaWAN/Mac/region/RegionEU868.c ****     { // FSK
 1197              		.loc 1 546 0
 1198 0074 0628     		cmp	r0, #6
ARM GAS  C:\Users\EBANO_~1\AppData\Local\Temp\ccJkfoGk.s 			page 42


 1199 0076 DFDD     		ble	.L99
 1200              	.L102:
 548:../../../../../../Middlewares/Third_Party/LoRaWAN/Mac/region/RegionEU868.c ****     }
 1201              		.loc 1 548 0
 1202 0078 3220     		movs	r0, #50
 1203              	.LVL88:
 1204 007a FFF7FEFF 		bl	RegionCommonComputeSymbolTimeFsk
 1205              	.LVL89:
 1206 007e 0600     		movs	r6, r0
 1207 0080 0F00     		movs	r7, r1
 1208              	.LVL90:
 1209 0082 E1E7     		b	.L100
 1210              	.L104:
 1211              		.align	2
 1212              	.L103:
 1213 0084 D8000000 		.word	.LANCHOR1
 1214 0088 90D00300 		.word	250000
 1215 008c E05EF8FF 		.word	-500000
 1216 0090 00000000 		.word	Radio
 1217              		.cfi_endproc
 1218              	.LFE51:
 1219              		.size	RegionEU868ComputeRxWindowParameters, .-RegionEU868ComputeRxWindowParameters
 1220              		.section	.text.RegionEU868RxConfig,"ax",%progbits
 1221              		.align	1
 1222              		.p2align 2,,3
 1223              		.global	RegionEU868RxConfig
 1224              		.syntax unified
 1225              		.code	16
 1226              		.thumb_func
 1227              		.fpu softvfp
 1228              		.type	RegionEU868RxConfig, %function
 1229              	RegionEU868RxConfig:
 1230              	.LFB52:
 559:../../../../../../Middlewares/Third_Party/LoRaWAN/Mac/region/RegionEU868.c ****     RadioModems_t modem;
 1231              		.loc 1 559 0
 1232              		.cfi_startproc
 1233              		@ args = 0, pretend = 0, frame = 8
 1234              		@ frame_needed = 0, uses_anonymous_args = 0
 1235              	.LVL91:
 1236 0000 F0B5     		push	{r4, r5, r6, r7, lr}
 1237              	.LCFI13:
 1238              		.cfi_def_cfa_offset 20
 1239              		.cfi_offset 4, -20
 1240              		.cfi_offset 5, -16
 1241              		.cfi_offset 6, -12
 1242              		.cfi_offset 7, -8
 1243              		.cfi_offset 14, -4
 1244 0002 D646     		mov	lr, r10
 1245 0004 4646     		mov	r6, r8
 1246 0006 4F46     		mov	r7, r9
 1247 0008 C0B5     		push	{r6, r7, lr}
 1248              	.LCFI14:
 1249              		.cfi_def_cfa_offset 32
 1250              		.cfi_offset 8, -32
 1251              		.cfi_offset 9, -28
 1252              		.cfi_offset 10, -24
 561:../../../../../../Middlewares/Third_Party/LoRaWAN/Mac/region/RegionEU868.c ****     uint8_t maxPayload = 0;
ARM GAS  C:\Users\EBANO_~1\AppData\Local\Temp\ccJkfoGk.s 			page 43


 1253              		.loc 1 561 0
 1254 000a 0126     		movs	r6, #1
 564:../../../../../../Middlewares/Third_Party/LoRaWAN/Mac/region/RegionEU868.c **** 
 1255              		.loc 1 564 0
 1256 000c 4368     		ldr	r3, [r0, #4]
 566:../../../../../../Middlewares/Third_Party/LoRaWAN/Mac/region/RegionEU868.c ****     {
 1257              		.loc 1 566 0
 1258 000e 394D     		ldr	r5, .L115
 564:../../../../../../Middlewares/Third_Party/LoRaWAN/Mac/region/RegionEU868.c **** 
 1259              		.loc 1 564 0
 1260 0010 9846     		mov	r8, r3
 566:../../../../../../Middlewares/Third_Party/LoRaWAN/Mac/region/RegionEU868.c ****     {
 1261              		.loc 1 566 0
 1262 0012 EB68     		ldr	r3, [r5, #12]
 559:../../../../../../Middlewares/Third_Party/LoRaWAN/Mac/region/RegionEU868.c ****     RadioModems_t modem;
 1263              		.loc 1 559 0
 1264 0014 8CB0     		sub	sp, sp, #48
 1265              	.LCFI15:
 1266              		.cfi_def_cfa_offset 80
 561:../../../../../../Middlewares/Third_Party/LoRaWAN/Mac/region/RegionEU868.c ****     uint8_t maxPayload = 0;
 1267              		.loc 1 561 0
 1268 0016 8657     		ldrsb	r6, [r0, r6]
 1269              	.LVL92:
 559:../../../../../../Middlewares/Third_Party/LoRaWAN/Mac/region/RegionEU868.c ****     RadioModems_t modem;
 1270              		.loc 1 559 0
 1271 0018 0400     		movs	r4, r0
 566:../../../../../../Middlewares/Third_Party/LoRaWAN/Mac/region/RegionEU868.c ****     {
 1272              		.loc 1 566 0
 1273 001a 0B93     		str	r3, [sp, #44]
 559:../../../../../../Middlewares/Third_Party/LoRaWAN/Mac/region/RegionEU868.c ****     RadioModems_t modem;
 1274              		.loc 1 559 0
 1275 001c 8A46     		mov	r10, r1
 566:../../../../../../Middlewares/Third_Party/LoRaWAN/Mac/region/RegionEU868.c ****     {
 1276              		.loc 1 566 0
 1277 001e 9847     		blx	r3
 1278              	.LVL93:
 568:../../../../../../Middlewares/Third_Party/LoRaWAN/Mac/region/RegionEU868.c ****     }
 1279              		.loc 1 568 0
 1280 0020 0023     		movs	r3, #0
 566:../../../../../../Middlewares/Third_Party/LoRaWAN/Mac/region/RegionEU868.c ****     {
 1281              		.loc 1 566 0
 1282 0022 0028     		cmp	r0, #0
 1283 0024 3ED1     		bne	.L106
 571:../../../../../../Middlewares/Third_Party/LoRaWAN/Mac/region/RegionEU868.c ****     {
 1284              		.loc 1 571 0
 1285 0026 E37C     		ldrb	r3, [r4, #19]
 1286 0028 002B     		cmp	r3, #0
 1287 002a 0AD1     		bne	.L107
 574:../../../../../../Middlewares/Third_Party/LoRaWAN/Mac/region/RegionEU868.c ****         // Apply the alternative RX 1 window frequency, if it is available
 1288              		.loc 1 574 0
 1289 002c 2178     		ldrb	r1, [r4]
 1290 002e 324A     		ldr	r2, .L115+4
 1291 0030 4B00     		lsls	r3, r1, #1
 1292 0032 5B18     		adds	r3, r3, r1
 1293 0034 9B00     		lsls	r3, r3, #2
 1294 0036 9958     		ldr	r1, [r3, r2]
 1295              	.LVL94:
ARM GAS  C:\Users\EBANO_~1\AppData\Local\Temp\ccJkfoGk.s 			page 44


 576:../../../../../../Middlewares/Third_Party/LoRaWAN/Mac/region/RegionEU868.c ****         {
 1296              		.loc 1 576 0
 1297 0038 D318     		adds	r3, r2, r3
 1298 003a 5B68     		ldr	r3, [r3, #4]
 1299 003c 9846     		mov	r8, r3
 1300 003e 002B     		cmp	r3, #0
 1301 0040 56D0     		beq	.L113
 1302              	.LVL95:
 1303              	.L107:
 583:../../../../../../Middlewares/Third_Party/LoRaWAN/Mac/region/RegionEU868.c **** 
 1304              		.loc 1 583 0
 1305 0042 2022     		movs	r2, #32
 1306 0044 2D4B     		ldr	r3, .L115+8
 585:../../../../../../Middlewares/Third_Party/LoRaWAN/Mac/region/RegionEU868.c **** 
 1307              		.loc 1 585 0
 1308 0046 4046     		mov	r0, r8
 583:../../../../../../Middlewares/Third_Party/LoRaWAN/Mac/region/RegionEU868.c **** 
 1309              		.loc 1 583 0
 1310 0048 9B19     		adds	r3, r3, r6
 1311 004a 9B56     		ldrsb	r3, [r3, r2]
 1312 004c 9946     		mov	r9, r3
 1313              	.LVL96:
 585:../../../../../../Middlewares/Third_Party/LoRaWAN/Mac/region/RegionEU868.c **** 
 1314              		.loc 1 585 0
 1315 004e 6B69     		ldr	r3, [r5, #20]
 1316 0050 0B93     		str	r3, [sp, #44]
 1317 0052 9847     		blx	r3
 1318              	.LVL97:
 1319 0054 2B6A     		ldr	r3, [r5, #32]
 1320 0056 0B93     		str	r3, [sp, #44]
 1321 0058 1F00     		movs	r7, r3
 588:../../../../../../Middlewares/Third_Party/LoRaWAN/Mac/region/RegionEU868.c ****     {
 1322              		.loc 1 588 0
 1323 005a 072E     		cmp	r6, #7
 1324 005c 2CD0     		beq	.L114
 1325              	.LVL98:
 596:../../../../../../Middlewares/Third_Party/LoRaWAN/Mac/region/RegionEU868.c ****     }
 1326              		.loc 1 596 0
 1327 005e A37C     		ldrb	r3, [r4, #18]
 1328 0060 2289     		ldrh	r2, [r4, #8]
 1329 0062 0993     		str	r3, [sp, #36]
 1330 0064 0123     		movs	r3, #1
 1331 0066 0292     		str	r2, [sp, #8]
 1332 0068 0893     		str	r3, [sp, #32]
 1333 006a 0822     		movs	r2, #8
 1334 006c 0023     		movs	r3, #0
 1335 006e 0192     		str	r2, [sp, #4]
 1336 0070 0793     		str	r3, [sp, #28]
 1337 0072 0693     		str	r3, [sp, #24]
 1338 0074 0593     		str	r3, [sp, #20]
 1339 0076 0493     		str	r3, [sp, #16]
 1340 0078 0393     		str	r3, [sp, #12]
 1341 007a 0093     		str	r3, [sp]
 1342 007c 0120     		movs	r0, #1
 1343 007e A178     		ldrb	r1, [r4, #2]
 1344 0080 0133     		adds	r3, r3, #1
 1345 0082 4A46     		mov	r2, r9
ARM GAS  C:\Users\EBANO_~1\AppData\Local\Temp\ccJkfoGk.s 			page 45


 1346 0084 B847     		blx	r7
 1347              	.LVL99:
 595:../../../../../../Middlewares/Third_Party/LoRaWAN/Mac/region/RegionEU868.c ****         Radio.SetRxConfig( modem, rxConfig->Bandwidth, phyDr, 1, 0, 8, rxConfig->WindowTimeout, fal
 1348              		.loc 1 595 0
 1349 0086 0120     		movs	r0, #1
 1350              	.LVL100:
 1351              	.L109:
 599:../../../../../../Middlewares/Third_Party/LoRaWAN/Mac/region/RegionEU868.c ****     {
 1352              		.loc 1 599 0
 1353 0088 637C     		ldrb	r3, [r4, #17]
 1354 008a 002B     		cmp	r3, #0
 1355 008c 11D0     		beq	.L110
 601:../../../../../../Middlewares/Third_Party/LoRaWAN/Mac/region/RegionEU868.c ****     }
 1356              		.loc 1 601 0
 1357 008e 1C4B     		ldr	r3, .L115+12
 1358 0090 9B19     		adds	r3, r3, r6
 1359 0092 197A     		ldrb	r1, [r3, #8]
 1360              	.LVL101:
 1361              	.L111:
 608:../../../../../../Middlewares/Third_Party/LoRaWAN/Mac/region/RegionEU868.c ****     TVL1( PRINTF( "RX on freq %d Hz at DR %d\n\r", frequency, dr );)
 1362              		.loc 1 608 0
 1363 0094 EB6D     		ldr	r3, [r5, #92]
 1364 0096 0D31     		adds	r1, r1, #13
 1365              	.LVL102:
 1366 0098 C9B2     		uxtb	r1, r1
 1367 009a 0B93     		str	r3, [sp, #44]
 1368 009c 9847     		blx	r3
 1369              	.LVL103:
 611:../../../../../../Middlewares/Third_Party/LoRaWAN/Mac/region/RegionEU868.c ****     return true;
 1370              		.loc 1 611 0
 1371 009e 5346     		mov	r3, r10
 1372 00a0 1E70     		strb	r6, [r3]
 612:../../../../../../Middlewares/Third_Party/LoRaWAN/Mac/region/RegionEU868.c **** }
 1373              		.loc 1 612 0
 1374 00a2 0123     		movs	r3, #1
 1375              	.LVL104:
 1376              	.L106:
 613:../../../../../../Middlewares/Third_Party/LoRaWAN/Mac/region/RegionEU868.c **** 
 1377              		.loc 1 613 0
 1378 00a4 1800     		movs	r0, r3
 1379 00a6 0CB0     		add	sp, sp, #48
 1380              		@ sp needed
 1381              	.LVL105:
 1382              	.LVL106:
 1383              	.LVL107:
 1384              	.LVL108:
 1385 00a8 1CBC     		pop	{r2, r3, r4}
 1386 00aa 9046     		mov	r8, r2
 1387 00ac 9946     		mov	r9, r3
 1388 00ae A246     		mov	r10, r4
 1389 00b0 F0BD     		pop	{r4, r5, r6, r7, pc}
 1390              	.LVL109:
 1391              	.L110:
 605:../../../../../../Middlewares/Third_Party/LoRaWAN/Mac/region/RegionEU868.c ****     }
 1392              		.loc 1 605 0
 1393 00b2 134B     		ldr	r3, .L115+12
 1394 00b4 995D     		ldrb	r1, [r3, r6]
ARM GAS  C:\Users\EBANO_~1\AppData\Local\Temp\ccJkfoGk.s 			page 46


 1395              	.LVL110:
 1396 00b6 EDE7     		b	.L111
 1397              	.LVL111:
 1398              	.L114:
 591:../../../../../../Middlewares/Third_Party/LoRaWAN/Mac/region/RegionEU868.c ****     }
 1399              		.loc 1 591 0
 1400 00b8 4B46     		mov	r3, r9
 1401 00ba 5A01     		lsls	r2, r3, #5
 1402 00bc D21A     		subs	r2, r2, r3
 1403 00be A37C     		ldrb	r3, [r4, #18]
 1404 00c0 0121     		movs	r1, #1
 1405 00c2 0993     		str	r3, [sp, #36]
 1406 00c4 0023     		movs	r3, #0
 1407 00c6 0893     		str	r3, [sp, #32]
 1408 00c8 0793     		str	r3, [sp, #28]
 1409 00ca 0693     		str	r3, [sp, #24]
 1410 00cc 0493     		str	r3, [sp, #16]
 1411 00ce 0393     		str	r3, [sp, #12]
 1412 00d0 2389     		ldrh	r3, [r4, #8]
 1413 00d2 9200     		lsls	r2, r2, #2
 1414 00d4 0293     		str	r3, [sp, #8]
 1415 00d6 0523     		movs	r3, #5
 1416 00d8 0193     		str	r3, [sp, #4]
 1417 00da 0A4B     		ldr	r3, .L115+16
 1418 00dc 4A44     		add	r2, r2, r9
 1419 00de 0591     		str	r1, [sp, #20]
 1420 00e0 0093     		str	r3, [sp]
 1421 00e2 0020     		movs	r0, #0
 1422 00e4 D200     		lsls	r2, r2, #3
 1423 00e6 0023     		movs	r3, #0
 1424 00e8 0749     		ldr	r1, .L115+20
 1425 00ea B847     		blx	r7
 1426              	.LVL112:
 590:../../../../../../Middlewares/Third_Party/LoRaWAN/Mac/region/RegionEU868.c ****         Radio.SetRxConfig( modem, 50000, phyDr * 1000, 0, 83333, 5, rxConfig->WindowTimeout, false,
 1427              		.loc 1 590 0
 1428 00ec 0020     		movs	r0, #0
 1429 00ee CBE7     		b	.L109
 1430              	.LVL113:
 1431              	.L113:
 574:../../../../../../Middlewares/Third_Party/LoRaWAN/Mac/region/RegionEU868.c ****         // Apply the alternative RX 1 window frequency, if it is available
 1432              		.loc 1 574 0
 1433 00f0 8846     		mov	r8, r1
 1434 00f2 A6E7     		b	.L107
 1435              	.L116:
 1436              		.align	2
 1437              	.L115:
 1438 00f4 00000000 		.word	Radio
 1439 00f8 00000000 		.word	NvmCtx
 1440 00fc D8000000 		.word	.LANCHOR1
 1441 0100 00010000 		.word	.LANCHOR0
 1442 0104 85450100 		.word	83333
 1443 0108 50C30000 		.word	50000
 1444              		.cfi_endproc
 1445              	.LFE52:
 1446              		.size	RegionEU868RxConfig, .-RegionEU868RxConfig
 1447              		.section	.text.RegionEU868TxConfig,"ax",%progbits
 1448              		.align	1
ARM GAS  C:\Users\EBANO_~1\AppData\Local\Temp\ccJkfoGk.s 			page 47


 1449              		.p2align 2,,3
 1450              		.global	RegionEU868TxConfig
 1451              		.syntax unified
 1452              		.code	16
 1453              		.thumb_func
 1454              		.fpu softvfp
 1455              		.type	RegionEU868TxConfig, %function
 1456              	RegionEU868TxConfig:
 1457              	.LFB53:
 616:../../../../../../Middlewares/Third_Party/LoRaWAN/Mac/region/RegionEU868.c ****     RadioModems_t modem;
 1458              		.loc 1 616 0
 1459              		.cfi_startproc
 1460              		@ args = 0, pretend = 0, frame = 8
 1461              		@ frame_needed = 0, uses_anonymous_args = 0
 1462              	.LVL114:
 1463 0000 F0B5     		push	{r4, r5, r6, r7, lr}
 1464              	.LCFI16:
 1465              		.cfi_def_cfa_offset 20
 1466              		.cfi_offset 4, -20
 1467              		.cfi_offset 5, -16
 1468              		.cfi_offset 6, -12
 1469              		.cfi_offset 7, -8
 1470              		.cfi_offset 14, -4
 1471 0002 4546     		mov	r5, r8
 1472 0004 5746     		mov	r7, r10
 1473 0006 4E46     		mov	r6, r9
 1474 0008 DE46     		mov	lr, fp
 1475 000a 9046     		mov	r8, r2
 618:../../../../../../Middlewares/Third_Party/LoRaWAN/Mac/region/RegionEU868.c ****     int8_t txPowerLimited = LimitTxPower( txConfig->TxPower, NvmCtx.Bands[NvmCtx.Channels[txConfig-
 1476              		.loc 1 618 0
 1477 000c 0122     		movs	r2, #1
 1478              	.LVL115:
 616:../../../../../../Middlewares/Third_Party/LoRaWAN/Mac/region/RegionEU868.c ****     RadioModems_t modem;
 1479              		.loc 1 616 0
 1480 000e 0400     		movs	r4, r0
 618:../../../../../../Middlewares/Third_Party/LoRaWAN/Mac/region/RegionEU868.c ****     int8_t txPowerLimited = LimitTxPower( txConfig->TxPower, NvmCtx.Bands[NvmCtx.Channels[txConfig-
 1481              		.loc 1 618 0
 1482 0010 2023     		movs	r3, #32
 616:../../../../../../Middlewares/Third_Party/LoRaWAN/Mac/region/RegionEU868.c ****     RadioModems_t modem;
 1483              		.loc 1 616 0
 1484 0012 E0B5     		push	{r5, r6, r7, lr}
 1485              	.LCFI17:
 1486              		.cfi_def_cfa_offset 36
 1487              		.cfi_offset 8, -36
 1488              		.cfi_offset 9, -32
 1489              		.cfi_offset 10, -28
 1490              		.cfi_offset 11, -24
 1491 0014 8DB0     		sub	sp, sp, #52
 1492              	.LCFI18:
 1493              		.cfi_def_cfa_offset 88
 616:../../../../../../Middlewares/Third_Party/LoRaWAN/Mac/region/RegionEU868.c ****     RadioModems_t modem;
 1494              		.loc 1 616 0
 1495 0016 0A91     		str	r1, [sp, #40]
 618:../../../../../../Middlewares/Third_Party/LoRaWAN/Mac/region/RegionEU868.c ****     int8_t txPowerLimited = LimitTxPower( txConfig->TxPower, NvmCtx.Bands[NvmCtx.Channels[txConfig-
 1496              		.loc 1 618 0
 1497 0018 8256     		ldrsb	r2, [r0, r2]
 1498 001a 4149     		ldr	r1, .L126
ARM GAS  C:\Users\EBANO_~1\AppData\Local\Temp\ccJkfoGk.s 			page 48


 1499              	.LVL116:
 619:../../../../../../Middlewares/Third_Party/LoRaWAN/Mac/region/RegionEU868.c ****     uint32_t bandwidth = GetBandwidth( txConfig->Datarate );
 1500              		.loc 1 619 0
 1501 001c 414D     		ldr	r5, .L126+4
 618:../../../../../../Middlewares/Third_Party/LoRaWAN/Mac/region/RegionEU868.c ****     int8_t txPowerLimited = LimitTxPower( txConfig->TxPower, NvmCtx.Bands[NvmCtx.Channels[txConfig-
 1502              		.loc 1 618 0
 1503 001e 8818     		adds	r0, r1, r2
 1504              	.LVL117:
 1505 0020 C656     		ldrsb	r6, [r0, r3]
 1506              	.LVL118:
 619:../../../../../../Middlewares/Third_Party/LoRaWAN/Mac/region/RegionEU868.c ****     uint32_t bandwidth = GetBandwidth( txConfig->Datarate );
 1507              		.loc 1 619 0
 1508 0022 2078     		ldrb	r0, [r4]
 1509              	.LVL119:
 1510 0024 4300     		lsls	r3, r0, #1
 1511 0026 1B18     		adds	r3, r3, r0
 1512              	.LBB60:
 1513              	.LBB61:
 103:../../../../../../Middlewares/Third_Party/LoRaWAN/Mac/region/RegionEU868.c **** 
 1514              		.loc 1 103 0
 1515 0028 A078     		ldrb	r0, [r4, #2]
 1516              	.LVL120:
 1517              	.LBE61:
 1518              	.LBE60:
 619:../../../../../../Middlewares/Third_Party/LoRaWAN/Mac/region/RegionEU868.c ****     uint32_t bandwidth = GetBandwidth( txConfig->Datarate );
 1519              		.loc 1 619 0
 1520 002a 9B00     		lsls	r3, r3, #2
 1521              	.LBB66:
 1522              	.LBB62:
 103:../../../../../../Middlewares/Third_Party/LoRaWAN/Mac/region/RegionEU868.c **** 
 1523              		.loc 1 103 0
 1524 002c 8446     		mov	ip, r0
 1525 002e 6746     		mov	r7, ip
 1526              	.LBE62:
 1527              	.LBE66:
 619:../../../../../../Middlewares/Third_Party/LoRaWAN/Mac/region/RegionEU868.c ****     uint32_t bandwidth = GetBandwidth( txConfig->Datarate );
 1528              		.loc 1 619 0
 1529 0030 EB18     		adds	r3, r5, r3
 1530 0032 5B7A     		ldrb	r3, [r3, #9]
 1531              	.LBB67:
 1532              	.LBB63:
 103:../../../../../../Middlewares/Third_Party/LoRaWAN/Mac/region/RegionEU868.c **** 
 1533              		.loc 1 103 0
 1534 0034 7FB2     		sxtb	r7, r7
 1535              	.LBE63:
 1536              	.LBE67:
 619:../../../../../../Middlewares/Third_Party/LoRaWAN/Mac/region/RegionEU868.c ****     uint32_t bandwidth = GetBandwidth( txConfig->Datarate );
 1537              		.loc 1 619 0
 1538 0036 0C33     		adds	r3, r3, #12
 1539 0038 1B01     		lsls	r3, r3, #4
 1540 003a EB18     		adds	r3, r5, r3
 1541              	.LBB68:
 1542              	.LBB64:
 103:../../../../../../Middlewares/Third_Party/LoRaWAN/Mac/region/RegionEU868.c **** 
 1543              		.loc 1 103 0
 1544 003c 9B78     		ldrb	r3, [r3, #2]
 1545 003e 181C     		adds	r0, r3, #0
ARM GAS  C:\Users\EBANO_~1\AppData\Local\Temp\ccJkfoGk.s 			page 49


 1546 0040 5BB2     		sxtb	r3, r3
 1547 0042 BB42     		cmp	r3, r7
 1548 0044 00DA     		bge	.L118
 1549 0046 6046     		mov	r0, ip
 1550              	.L118:
 1551 0048 43B2     		sxtb	r3, r0
 1552              	.LBE64:
 1553              	.LBE68:
 1554              	.LBB69:
 1555              	.LBB70:
  86:../../../../../../Middlewares/Third_Party/LoRaWAN/Mac/region/RegionEU868.c ****     {
 1556              		.loc 1 86 0
 1557 004a 9200     		lsls	r2, r2, #2
 1558              	.LVL121:
 1559              	.LBE70:
 1560              	.LBE69:
 1561              	.LBB73:
 1562              	.LBB65:
 103:../../../../../../Middlewares/Third_Party/LoRaWAN/Mac/region/RegionEU868.c **** 
 1563              		.loc 1 103 0
 1564 004c 9946     		mov	r9, r3
 1565              	.LVL122:
 1566              	.LBE65:
 1567              	.LBE73:
 1568              	.LBB74:
 1569              	.LBB71:
  86:../../../../../../Middlewares/Third_Party/LoRaWAN/Mac/region/RegionEU868.c ****     {
 1570              		.loc 1 86 0
 1571 004e 8B58     		ldr	r3, [r1, r2]
 1572 0050 354A     		ldr	r2, .L126+8
 1573 0052 9342     		cmp	r3, r2
 1574 0054 46D0     		beq	.L124
  90:../../../../../../Middlewares/Third_Party/LoRaWAN/Mac/region/RegionEU868.c ****         case 250000:
 1575              		.loc 1 90 0
 1576 0056 354A     		ldr	r2, .L126+12
 1577 0058 9446     		mov	ip, r2
 1578 005a 6344     		add	r3, r3, ip
 1579 005c 5A42     		rsbs	r2, r3, #0
 1580 005e 5341     		adcs	r3, r3, r2
 1581 0060 5B00     		lsls	r3, r3, #1
 1582 0062 9A46     		mov	r10, r3
 1583              	.L120:
 1584              	.LVL123:
 1585              	.LBE71:
 1586              	.LBE74:
 624:../../../../../../Middlewares/Third_Party/LoRaWAN/Mac/region/RegionEU868.c **** 
 1587              		.loc 1 624 0
 1588 0064 A268     		ldr	r2, [r4, #8]
 1589 0066 6168     		ldr	r1, [r4, #4]
 1590 0068 4846     		mov	r0, r9
 1591 006a FFF7FEFF 		bl	RegionCommonComputeTxPower
 1592              	.LVL124:
 627:../../../../../../Middlewares/Third_Party/LoRaWAN/Mac/region/RegionEU868.c **** 
 1593              		.loc 1 627 0
 1594 006e 2278     		ldrb	r2, [r4]
 624:../../../../../../Middlewares/Third_Party/LoRaWAN/Mac/region/RegionEU868.c **** 
 1595              		.loc 1 624 0
ARM GAS  C:\Users\EBANO_~1\AppData\Local\Temp\ccJkfoGk.s 			page 50


 1596 0070 8346     		mov	fp, r0
 1597              	.LVL125:
 627:../../../../../../Middlewares/Third_Party/LoRaWAN/Mac/region/RegionEU868.c **** 
 1598              		.loc 1 627 0
 1599 0072 5300     		lsls	r3, r2, #1
 1600 0074 9B18     		adds	r3, r3, r2
 1601 0076 9B00     		lsls	r3, r3, #2
 1602 0078 E858     		ldr	r0, [r5, r3]
 1603 007a 2D4D     		ldr	r5, .L126+16
 1604 007c 6B69     		ldr	r3, [r5, #20]
 1605 007e 0B93     		str	r3, [sp, #44]
 1606 0080 9847     		blx	r3
 1607              	.LVL126:
 1608 0082 6B6A     		ldr	r3, [r5, #36]
 1609 0084 0B93     		str	r3, [sp, #44]
 629:../../../../../../Middlewares/Third_Party/LoRaWAN/Mac/region/RegionEU868.c ****     { // High Speed FSK channel
 1610              		.loc 1 629 0
 1611 0086 0123     		movs	r3, #1
 1612 0088 E356     		ldrsb	r3, [r4, r3]
 1613 008a 072B     		cmp	r3, #7
 1614 008c 2DD0     		beq	.L125
 1615              	.LVL127:
 637:../../../../../../Middlewares/Third_Party/LoRaWAN/Mac/region/RegionEU868.c ****     }
 1616              		.loc 1 637 0
 1617 008e 294B     		ldr	r3, .L126+20
 1618 0090 0122     		movs	r2, #1
 1619 0092 0893     		str	r3, [sp, #32]
 1620 0094 0023     		movs	r3, #0
 1621 0096 0793     		str	r3, [sp, #28]
 1622 0098 0693     		str	r3, [sp, #24]
 1623 009a 0593     		str	r3, [sp, #20]
 1624 009c 0393     		str	r3, [sp, #12]
 1625 009e 0833     		adds	r3, r3, #8
 1626 00a0 0492     		str	r2, [sp, #16]
 1627 00a2 0293     		str	r3, [sp, #8]
 1628 00a4 0192     		str	r2, [sp, #4]
 1629 00a6 0096     		str	r6, [sp]
 1630 00a8 5346     		mov	r3, r10
 1631 00aa 0B9E     		ldr	r6, [sp, #44]
 1632              	.LVL128:
 1633 00ac 0022     		movs	r2, #0
 1634 00ae 5946     		mov	r1, fp
 1635 00b0 0120     		movs	r0, #1
 1636 00b2 B047     		blx	r6
 1637              	.LVL129:
 636:../../../../../../Middlewares/Third_Party/LoRaWAN/Mac/region/RegionEU868.c ****         Radio.SetTxConfig( modem, phyTxPower, 0, bandwidth, phyDr, 1, 8, false, true, 0, 0, false, 
 1638              		.loc 1 636 0
 1639 00b4 0126     		movs	r6, #1
 1640              	.LVL130:
 1641              	.L123:
 642:../../../../../../Middlewares/Third_Party/LoRaWAN/Mac/region/RegionEU868.c ****     // Get the time-on-air of the next tx frame
 1642              		.loc 1 642 0
 1643 00b6 EB6D     		ldr	r3, [r5, #92]
 1644 00b8 217B     		ldrb	r1, [r4, #12]
 1645 00ba 3000     		movs	r0, r6
 1646 00bc 0B93     		str	r3, [sp, #44]
 1647 00be 9847     		blx	r3
ARM GAS  C:\Users\EBANO_~1\AppData\Local\Temp\ccJkfoGk.s 			page 51


 1648              	.LVL131:
 644:../../../../../../Middlewares/Third_Party/LoRaWAN/Mac/region/RegionEU868.c **** 
 1649              		.loc 1 644 0
 1650 00c0 EB6A     		ldr	r3, [r5, #44]
 1651 00c2 217B     		ldrb	r1, [r4, #12]
 1652 00c4 3000     		movs	r0, r6
 1653 00c6 0B93     		str	r3, [sp, #44]
 1654 00c8 9847     		blx	r3
 1655              	.LVL132:
 1656 00ca 4346     		mov	r3, r8
 1657 00cc 1860     		str	r0, [r3]
 646:../../../../../../Middlewares/Third_Party/LoRaWAN/Mac/region/RegionEU868.c ****     return true;
 1658              		.loc 1 646 0
 1659 00ce 4B46     		mov	r3, r9
 648:../../../../../../Middlewares/Third_Party/LoRaWAN/Mac/region/RegionEU868.c **** 
 1660              		.loc 1 648 0
 1661 00d0 0120     		movs	r0, #1
 646:../../../../../../Middlewares/Third_Party/LoRaWAN/Mac/region/RegionEU868.c ****     return true;
 1662              		.loc 1 646 0
 1663 00d2 0A9A     		ldr	r2, [sp, #40]
 1664 00d4 1370     		strb	r3, [r2]
 648:../../../../../../Middlewares/Third_Party/LoRaWAN/Mac/region/RegionEU868.c **** 
 1665              		.loc 1 648 0
 1666 00d6 0DB0     		add	sp, sp, #52
 1667              		@ sp needed
 1668              	.LVL133:
 1669              	.LVL134:
 1670              	.LVL135:
 1671              	.LVL136:
 1672 00d8 3CBC     		pop	{r2, r3, r4, r5}
 1673 00da 9046     		mov	r8, r2
 1674 00dc 9946     		mov	r9, r3
 1675 00de A246     		mov	r10, r4
 1676 00e0 AB46     		mov	fp, r5
 1677 00e2 F0BD     		pop	{r4, r5, r6, r7, pc}
 1678              	.LVL137:
 1679              	.L124:
 1680              	.LBB75:
 1681              	.LBB72:
  92:../../../../../../Middlewares/Third_Party/LoRaWAN/Mac/region/RegionEU868.c ****         case 500000:
 1682              		.loc 1 92 0
 1683 00e4 0123     		movs	r3, #1
 1684              	.LVL138:
 1685 00e6 9A46     		mov	r10, r3
 1686 00e8 BCE7     		b	.L120
 1687              	.LVL139:
 1688              	.L125:
 1689              	.LBE72:
 1690              	.LBE75:
 632:../../../../../../Middlewares/Third_Party/LoRaWAN/Mac/region/RegionEU868.c ****     }
 1691              		.loc 1 632 0
 1692 00ea 124B     		ldr	r3, .L126+20
 1693 00ec 0122     		movs	r2, #1
 1694 00ee 0893     		str	r3, [sp, #32]
 1695 00f0 0023     		movs	r3, #0
 1696 00f2 0793     		str	r3, [sp, #28]
 1697 00f4 0693     		str	r3, [sp, #24]
ARM GAS  C:\Users\EBANO_~1\AppData\Local\Temp\ccJkfoGk.s 			page 52


 1698 00f6 0593     		str	r3, [sp, #20]
 1699 00f8 0393     		str	r3, [sp, #12]
 1700 00fa 0193     		str	r3, [sp, #4]
 1701 00fc 7301     		lsls	r3, r6, #5
 1702 00fe 9B1B     		subs	r3, r3, r6
 1703 0100 9B00     		lsls	r3, r3, #2
 1704 0102 9E19     		adds	r6, r3, r6
 1705              	.LVL140:
 1706 0104 0492     		str	r2, [sp, #16]
 1707 0106 F600     		lsls	r6, r6, #3
 1708 0108 0432     		adds	r2, r2, #4
 1709 010a 0292     		str	r2, [sp, #8]
 1710 010c 0096     		str	r6, [sp]
 1711 010e 5346     		mov	r3, r10
 1712 0110 0B9E     		ldr	r6, [sp, #44]
 1713 0112 094A     		ldr	r2, .L126+24
 1714 0114 5946     		mov	r1, fp
 1715 0116 0020     		movs	r0, #0
 1716 0118 B047     		blx	r6
 1717              	.LVL141:
 631:../../../../../../Middlewares/Third_Party/LoRaWAN/Mac/region/RegionEU868.c ****         Radio.SetTxConfig( modem, phyTxPower, 25000, bandwidth, phyDr * 1000, 0, 5, false, true, 0,
 1718              		.loc 1 631 0
 1719 011a 0026     		movs	r6, #0
 1720 011c CBE7     		b	.L123
 1721              	.L127:
 1722 011e C046     		.align	2
 1723              	.L126:
 1724 0120 D8000000 		.word	.LANCHOR1
 1725 0124 00000000 		.word	NvmCtx
 1726 0128 90D00300 		.word	250000
 1727 012c E05EF8FF 		.word	-500000
 1728 0130 00000000 		.word	Radio
 1729 0134 B80B0000 		.word	3000
 1730 0138 A8610000 		.word	25000
 1731              		.cfi_endproc
 1732              	.LFE53:
 1733              		.size	RegionEU868TxConfig, .-RegionEU868TxConfig
 1734              		.section	.text.RegionEU868LinkAdrReq,"ax",%progbits
 1735              		.align	1
 1736              		.p2align 2,,3
 1737              		.global	RegionEU868LinkAdrReq
 1738              		.syntax unified
 1739              		.code	16
 1740              		.thumb_func
 1741              		.fpu softvfp
 1742              		.type	RegionEU868LinkAdrReq, %function
 1743              	RegionEU868LinkAdrReq:
 1744              	.LFB54:
 651:../../../../../../Middlewares/Third_Party/LoRaWAN/Mac/region/RegionEU868.c ****     uint8_t status = 0x07;
 1745              		.loc 1 651 0
 1746              		.cfi_startproc
 1747              		@ args = 4, pretend = 0, frame = 56
 1748              		@ frame_needed = 0, uses_anonymous_args = 0
 1749              	.LVL142:
 1750 0000 F0B5     		push	{r4, r5, r6, r7, lr}
 1751              	.LCFI19:
 1752              		.cfi_def_cfa_offset 20
ARM GAS  C:\Users\EBANO_~1\AppData\Local\Temp\ccJkfoGk.s 			page 53


 1753              		.cfi_offset 4, -20
 1754              		.cfi_offset 5, -16
 1755              		.cfi_offset 6, -12
 1756              		.cfi_offset 7, -8
 1757              		.cfi_offset 14, -4
 1758 0002 5746     		mov	r7, r10
 1759 0004 4E46     		mov	r6, r9
 1760 0006 4546     		mov	r5, r8
 1761 0008 DE46     		mov	lr, fp
 1762 000a E0B5     		push	{r5, r6, r7, lr}
 1763              	.LCFI20:
 1764              		.cfi_def_cfa_offset 36
 1765              		.cfi_offset 8, -36
 1766              		.cfi_offset 9, -32
 1767              		.cfi_offset 10, -28
 1768              		.cfi_offset 11, -24
 1769 000c 8FB0     		sub	sp, sp, #60
 1770              	.LCFI21:
 1771              		.cfi_def_cfa_offset 96
 651:../../../../../../Middlewares/Third_Party/LoRaWAN/Mac/region/RegionEU868.c ****     uint8_t status = 0x07;
 1772              		.loc 1 651 0
 1773 000e 0193     		str	r3, [sp, #4]
 656:../../../../../../Middlewares/Third_Party/LoRaWAN/Mac/region/RegionEU868.c ****     GetPhyParams_t getPhy;
 1774              		.loc 1 656 0
 1775 0010 0023     		movs	r3, #0
 1776              	.LVL143:
 651:../../../../../../Middlewares/Third_Party/LoRaWAN/Mac/region/RegionEU868.c ****     uint8_t status = 0x07;
 1777              		.loc 1 651 0
 1778 0012 9246     		mov	r10, r2
 656:../../../../../../Middlewares/Third_Party/LoRaWAN/Mac/region/RegionEU868.c ****     GetPhyParams_t getPhy;
 1779              		.loc 1 656 0
 1780 0014 02AA     		add	r2, sp, #8
 1781              	.LVL144:
 1782 0016 D380     		strh	r3, [r2, #6]
 652:../../../../../../Middlewares/Third_Party/LoRaWAN/Mac/region/RegionEU868.c ****     RegionCommonLinkAdrParams_t linkAdrParams;
 1783              		.loc 1 652 0
 1784 0018 0733     		adds	r3, r3, #7
 651:../../../../../../Middlewares/Third_Party/LoRaWAN/Mac/region/RegionEU868.c ****     uint8_t status = 0x07;
 1785              		.loc 1 651 0
 1786 001a 0600     		movs	r6, r0
 1787 001c 8B46     		mov	fp, r1
 655:../../../../../../Middlewares/Third_Party/LoRaWAN/Mac/region/RegionEU868.c ****     uint16_t chMask = 0;
 1788              		.loc 1 655 0
 1789 001e 0024     		movs	r4, #0
 652:../../../../../../Middlewares/Third_Party/LoRaWAN/Mac/region/RegionEU868.c ****     RegionCommonLinkAdrParams_t linkAdrParams;
 1790              		.loc 1 652 0
 1791 0020 9946     		mov	r9, r3
 1792              	.LBB81:
 695:../../../../../../Middlewares/Third_Party/LoRaWAN/Mac/region/RegionEU868.c ****                     {
 1793              		.loc 1 695 0
 1794 0022 9846     		mov	r8, r3
 1795 0024 B54F     		ldr	r7, .L284
 1796 0026 04AD     		add	r5, sp, #16
 1797              	.LVL145:
 1798              	.L129:
 1799              	.LBE81:
 661:../../../../../../Middlewares/Third_Party/LoRaWAN/Mac/region/RegionEU868.c ****     {
ARM GAS  C:\Users\EBANO_~1\AppData\Local\Temp\ccJkfoGk.s 			page 54


 1800              		.loc 1 661 0
 1801 0028 337A     		ldrb	r3, [r6, #8]
 1802 002a A342     		cmp	r3, r4
 1803 002c 00D8     		bhi	.LCB1660
 1804 002e 93E0     		b	.L174	@long jump
 1805              	.LCB1660:
 1806              	.L173:
 664:../../../../../../Middlewares/Third_Party/LoRaWAN/Mac/region/RegionEU868.c **** 
 1807              		.loc 1 664 0
 1808 0030 7368     		ldr	r3, [r6, #4]
 1809 0032 2900     		movs	r1, r5
 1810 0034 1819     		adds	r0, r3, r4
 1811 0036 FFF7FEFF 		bl	RegionCommonParseLinkAdrReq
 1812              	.LVL146:
 666:../../../../../../Middlewares/Third_Party/LoRaWAN/Mac/region/RegionEU868.c ****             break; // break loop, since no more request has been found
 1813              		.loc 1 666 0
 1814 003a 0028     		cmp	r0, #0
 1815 003c 00D1     		bne	.LCB1672
 1816 003e 8BE0     		b	.L174	@long jump
 1817              	.LCB1672:
 676:../../../../../../Middlewares/Third_Party/LoRaWAN/Mac/region/RegionEU868.c **** 
 1818              		.loc 1 676 0
 1819 0040 AB88     		ldrh	r3, [r5, #4]
 1820 0042 02AA     		add	r2, sp, #8
 1821 0044 D380     		strh	r3, [r2, #6]
 679:../../../../../../Middlewares/Third_Party/LoRaWAN/Mac/region/RegionEU868.c ****         {
 1822              		.loc 1 679 0
 1823 0046 EA78     		ldrb	r2, [r5, #3]
 670:../../../../../../Middlewares/Third_Party/LoRaWAN/Mac/region/RegionEU868.c **** 
 1824              		.loc 1 670 0
 1825 0048 2418     		adds	r4, r4, r0
 1826              	.LVL147:
 1827 004a E4B2     		uxtb	r4, r4
 1828              	.LVL148:
 676:../../../../../../Middlewares/Third_Party/LoRaWAN/Mac/region/RegionEU868.c **** 
 1829              		.loc 1 676 0
 1830 004c 181C     		adds	r0, r3, #0
 1831              	.LVL149:
 679:../../../../../../Middlewares/Third_Party/LoRaWAN/Mac/region/RegionEU868.c ****         {
 1832              		.loc 1 679 0
 1833 004e 002A     		cmp	r2, #0
 1834 0050 00D0     		beq	.LCB1685
 1835 0052 BFE0     		b	.L133	@long jump
 1836              	.LCB1685:
 681:../../../../../../Middlewares/Third_Party/LoRaWAN/Mac/region/RegionEU868.c ****         }
 1837              		.loc 1 681 0 discriminator 1
 1838 0054 0632     		adds	r2, r2, #6
 1839 0056 9146     		mov	r9, r2
 679:../../../../../../Middlewares/Third_Party/LoRaWAN/Mac/region/RegionEU868.c ****         {
 1840              		.loc 1 679 0 discriminator 1
 1841 0058 002B     		cmp	r3, #0
 1842 005a E5D0     		beq	.L129
 1843              	.LVL150:
 1844              	.LBB82:
 702:../../../../../../Middlewares/Third_Party/LoRaWAN/Mac/region/RegionEU868.c ****                         ( NvmCtx.Channels[i].Frequency == 0 ) )
 1845              		.loc 1 702 0
 1846 005c 0722     		movs	r2, #7
ARM GAS  C:\Users\EBANO_~1\AppData\Local\Temp\ccJkfoGk.s 			page 55


 1847 005e 9146     		mov	r9, r2
 1848 0060 DA07     		lsls	r2, r3, #31
 1849 0062 04D5     		bpl	.L137
 1850 0064 3A68     		ldr	r2, [r7]
 1851 0066 511E     		subs	r1, r2, #1
 1852 0068 8A41     		sbcs	r2, r2, r1
 1853 006a 0632     		adds	r2, r2, #6
 1854 006c 9146     		mov	r9, r2
 1855              	.L137:
 1856              	.LVL151:
 1857 006e 9A07     		lsls	r2, r3, #30
 1858 0070 04D5     		bpl	.L138
 1859 0072 FA68     		ldr	r2, [r7, #12]
 1860 0074 002A     		cmp	r2, #0
 1861 0076 01D1     		bne	.L138
 705:../../../../../../Middlewares/Third_Party/LoRaWAN/Mac/region/RegionEU868.c ****                     }
 1862              		.loc 1 705 0
 1863 0078 0632     		adds	r2, r2, #6
 1864 007a 9146     		mov	r9, r2
 1865              	.LVL152:
 1866              	.L138:
 702:../../../../../../Middlewares/Third_Party/LoRaWAN/Mac/region/RegionEU868.c ****                         ( NvmCtx.Channels[i].Frequency == 0 ) )
 1867              		.loc 1 702 0
 1868 007c 5A07     		lsls	r2, r3, #29
 1869 007e 04D5     		bpl	.L139
 1870 0080 BA69     		ldr	r2, [r7, #24]
 1871 0082 002A     		cmp	r2, #0
 1872 0084 01D1     		bne	.L139
 705:../../../../../../Middlewares/Third_Party/LoRaWAN/Mac/region/RegionEU868.c ****                     }
 1873              		.loc 1 705 0
 1874 0086 0632     		adds	r2, r2, #6
 1875 0088 9146     		mov	r9, r2
 1876              	.LVL153:
 1877              	.L139:
 702:../../../../../../Middlewares/Third_Party/LoRaWAN/Mac/region/RegionEU868.c ****                         ( NvmCtx.Channels[i].Frequency == 0 ) )
 1878              		.loc 1 702 0
 1879 008a 1A07     		lsls	r2, r3, #28
 1880 008c 04D5     		bpl	.L140
 1881 008e 7A6A     		ldr	r2, [r7, #36]
 1882 0090 002A     		cmp	r2, #0
 1883 0092 01D1     		bne	.L140
 705:../../../../../../Middlewares/Third_Party/LoRaWAN/Mac/region/RegionEU868.c ****                     }
 1884              		.loc 1 705 0
 1885 0094 0632     		adds	r2, r2, #6
 1886 0096 9146     		mov	r9, r2
 1887              	.LVL154:
 1888              	.L140:
 702:../../../../../../Middlewares/Third_Party/LoRaWAN/Mac/region/RegionEU868.c ****                         ( NvmCtx.Channels[i].Frequency == 0 ) )
 1889              		.loc 1 702 0
 1890 0098 DA06     		lsls	r2, r3, #27
 1891 009a 04D5     		bpl	.L141
 1892 009c 3A6B     		ldr	r2, [r7, #48]
 1893 009e 002A     		cmp	r2, #0
 1894 00a0 01D1     		bne	.L141
 705:../../../../../../Middlewares/Third_Party/LoRaWAN/Mac/region/RegionEU868.c ****                     }
 1895              		.loc 1 705 0
 1896 00a2 0632     		adds	r2, r2, #6
ARM GAS  C:\Users\EBANO_~1\AppData\Local\Temp\ccJkfoGk.s 			page 56


 1897 00a4 9146     		mov	r9, r2
 1898              	.LVL155:
 1899              	.L141:
 702:../../../../../../Middlewares/Third_Party/LoRaWAN/Mac/region/RegionEU868.c ****                         ( NvmCtx.Channels[i].Frequency == 0 ) )
 1900              		.loc 1 702 0
 1901 00a6 9A06     		lsls	r2, r3, #26
 1902 00a8 04D5     		bpl	.L142
 1903 00aa FA6B     		ldr	r2, [r7, #60]
 1904 00ac 002A     		cmp	r2, #0
 1905 00ae 01D1     		bne	.L142
 705:../../../../../../Middlewares/Third_Party/LoRaWAN/Mac/region/RegionEU868.c ****                     }
 1906              		.loc 1 705 0
 1907 00b0 0632     		adds	r2, r2, #6
 1908 00b2 9146     		mov	r9, r2
 1909              	.LVL156:
 1910              	.L142:
 702:../../../../../../Middlewares/Third_Party/LoRaWAN/Mac/region/RegionEU868.c ****                         ( NvmCtx.Channels[i].Frequency == 0 ) )
 1911              		.loc 1 702 0
 1912 00b4 5A06     		lsls	r2, r3, #25
 1913 00b6 04D5     		bpl	.L143
 1914 00b8 BA6C     		ldr	r2, [r7, #72]
 1915 00ba 002A     		cmp	r2, #0
 1916 00bc 01D1     		bne	.L143
 705:../../../../../../Middlewares/Third_Party/LoRaWAN/Mac/region/RegionEU868.c ****                     }
 1917              		.loc 1 705 0
 1918 00be 0632     		adds	r2, r2, #6
 1919 00c0 9146     		mov	r9, r2
 1920              	.LVL157:
 1921              	.L143:
 702:../../../../../../Middlewares/Third_Party/LoRaWAN/Mac/region/RegionEU868.c ****                         ( NvmCtx.Channels[i].Frequency == 0 ) )
 1922              		.loc 1 702 0
 1923 00c2 1A06     		lsls	r2, r3, #24
 1924 00c4 04D5     		bpl	.L144
 1925 00c6 7A6D     		ldr	r2, [r7, #84]
 1926 00c8 002A     		cmp	r2, #0
 1927 00ca 01D1     		bne	.L144
 705:../../../../../../Middlewares/Third_Party/LoRaWAN/Mac/region/RegionEU868.c ****                     }
 1928              		.loc 1 705 0
 1929 00cc 0632     		adds	r2, r2, #6
 1930 00ce 9146     		mov	r9, r2
 1931              	.LVL158:
 1932              	.L144:
 702:../../../../../../Middlewares/Third_Party/LoRaWAN/Mac/region/RegionEU868.c ****                         ( NvmCtx.Channels[i].Frequency == 0 ) )
 1933              		.loc 1 702 0
 1934 00d0 DA05     		lsls	r2, r3, #23
 1935 00d2 04D5     		bpl	.L145
 1936 00d4 3A6E     		ldr	r2, [r7, #96]
 1937 00d6 002A     		cmp	r2, #0
 1938 00d8 01D1     		bne	.L145
 705:../../../../../../Middlewares/Third_Party/LoRaWAN/Mac/region/RegionEU868.c ****                     }
 1939              		.loc 1 705 0
 1940 00da 0632     		adds	r2, r2, #6
 1941 00dc 9146     		mov	r9, r2
 1942              	.LVL159:
 1943              	.L145:
 702:../../../../../../Middlewares/Third_Party/LoRaWAN/Mac/region/RegionEU868.c ****                         ( NvmCtx.Channels[i].Frequency == 0 ) )
 1944              		.loc 1 702 0
ARM GAS  C:\Users\EBANO_~1\AppData\Local\Temp\ccJkfoGk.s 			page 57


 1945 00de 9A05     		lsls	r2, r3, #22
 1946 00e0 04D5     		bpl	.L146
 1947 00e2 FA6E     		ldr	r2, [r7, #108]
 1948 00e4 002A     		cmp	r2, #0
 1949 00e6 01D1     		bne	.L146
 705:../../../../../../Middlewares/Third_Party/LoRaWAN/Mac/region/RegionEU868.c ****                     }
 1950              		.loc 1 705 0
 1951 00e8 0632     		adds	r2, r2, #6
 1952 00ea 9146     		mov	r9, r2
 1953              	.LVL160:
 1954              	.L146:
 702:../../../../../../Middlewares/Third_Party/LoRaWAN/Mac/region/RegionEU868.c ****                         ( NvmCtx.Channels[i].Frequency == 0 ) )
 1955              		.loc 1 702 0
 1956 00ec 5A05     		lsls	r2, r3, #21
 1957 00ee 04D5     		bpl	.L147
 1958 00f0 BA6F     		ldr	r2, [r7, #120]
 1959 00f2 002A     		cmp	r2, #0
 1960 00f4 01D1     		bne	.L147
 705:../../../../../../Middlewares/Third_Party/LoRaWAN/Mac/region/RegionEU868.c ****                     }
 1961              		.loc 1 705 0
 1962 00f6 0632     		adds	r2, r2, #6
 1963 00f8 9146     		mov	r9, r2
 1964              	.LVL161:
 1965              	.L147:
 702:../../../../../../Middlewares/Third_Party/LoRaWAN/Mac/region/RegionEU868.c ****                         ( NvmCtx.Channels[i].Frequency == 0 ) )
 1966              		.loc 1 702 0
 1967 00fa 1A05     		lsls	r2, r3, #20
 1968 00fc 05D5     		bpl	.L148
 703:../../../../../../Middlewares/Third_Party/LoRaWAN/Mac/region/RegionEU868.c ****                     {// Trying to enable an undefined channel
 1969              		.loc 1 703 0
 1970 00fe 8422     		movs	r2, #132
 702:../../../../../../Middlewares/Third_Party/LoRaWAN/Mac/region/RegionEU868.c ****                         ( NvmCtx.Channels[i].Frequency == 0 ) )
 1971              		.loc 1 702 0
 1972 0100 BA58     		ldr	r2, [r7, r2]
 1973 0102 002A     		cmp	r2, #0
 1974 0104 01D1     		bne	.L148
 705:../../../../../../Middlewares/Third_Party/LoRaWAN/Mac/region/RegionEU868.c ****                     }
 1975              		.loc 1 705 0
 1976 0106 0632     		adds	r2, r2, #6
 1977 0108 9146     		mov	r9, r2
 1978              	.LVL162:
 1979              	.L148:
 702:../../../../../../Middlewares/Third_Party/LoRaWAN/Mac/region/RegionEU868.c ****                         ( NvmCtx.Channels[i].Frequency == 0 ) )
 1980              		.loc 1 702 0
 1981 010a DA04     		lsls	r2, r3, #19
 1982 010c 05D5     		bpl	.L149
 703:../../../../../../Middlewares/Third_Party/LoRaWAN/Mac/region/RegionEU868.c ****                     {// Trying to enable an undefined channel
 1983              		.loc 1 703 0
 1984 010e 9022     		movs	r2, #144
 702:../../../../../../Middlewares/Third_Party/LoRaWAN/Mac/region/RegionEU868.c ****                         ( NvmCtx.Channels[i].Frequency == 0 ) )
 1985              		.loc 1 702 0
 1986 0110 BA58     		ldr	r2, [r7, r2]
 1987 0112 002A     		cmp	r2, #0
 1988 0114 01D1     		bne	.L149
 705:../../../../../../Middlewares/Third_Party/LoRaWAN/Mac/region/RegionEU868.c ****                     }
 1989              		.loc 1 705 0
 1990 0116 0632     		adds	r2, r2, #6
ARM GAS  C:\Users\EBANO_~1\AppData\Local\Temp\ccJkfoGk.s 			page 58


 1991 0118 9146     		mov	r9, r2
 1992              	.LVL163:
 1993              	.L149:
 702:../../../../../../Middlewares/Third_Party/LoRaWAN/Mac/region/RegionEU868.c ****                         ( NvmCtx.Channels[i].Frequency == 0 ) )
 1994              		.loc 1 702 0
 1995 011a 9A04     		lsls	r2, r3, #18
 1996 011c 05D5     		bpl	.L150
 703:../../../../../../Middlewares/Third_Party/LoRaWAN/Mac/region/RegionEU868.c ****                     {// Trying to enable an undefined channel
 1997              		.loc 1 703 0
 1998 011e 9C22     		movs	r2, #156
 702:../../../../../../Middlewares/Third_Party/LoRaWAN/Mac/region/RegionEU868.c ****                         ( NvmCtx.Channels[i].Frequency == 0 ) )
 1999              		.loc 1 702 0
 2000 0120 BA58     		ldr	r2, [r7, r2]
 2001 0122 002A     		cmp	r2, #0
 2002 0124 01D1     		bne	.L150
 705:../../../../../../Middlewares/Third_Party/LoRaWAN/Mac/region/RegionEU868.c ****                     }
 2003              		.loc 1 705 0
 2004 0126 0632     		adds	r2, r2, #6
 2005 0128 9146     		mov	r9, r2
 2006              	.LVL164:
 2007              	.L150:
 702:../../../../../../Middlewares/Third_Party/LoRaWAN/Mac/region/RegionEU868.c ****                         ( NvmCtx.Channels[i].Frequency == 0 ) )
 2008              		.loc 1 702 0
 2009 012a 5A04     		lsls	r2, r3, #17
 2010 012c 05D5     		bpl	.L151
 703:../../../../../../Middlewares/Third_Party/LoRaWAN/Mac/region/RegionEU868.c ****                     {// Trying to enable an undefined channel
 2011              		.loc 1 703 0
 2012 012e A822     		movs	r2, #168
 702:../../../../../../Middlewares/Third_Party/LoRaWAN/Mac/region/RegionEU868.c ****                         ( NvmCtx.Channels[i].Frequency == 0 ) )
 2013              		.loc 1 702 0
 2014 0130 BA58     		ldr	r2, [r7, r2]
 2015 0132 002A     		cmp	r2, #0
 2016 0134 01D1     		bne	.L151
 705:../../../../../../Middlewares/Third_Party/LoRaWAN/Mac/region/RegionEU868.c ****                     }
 2017              		.loc 1 705 0
 2018 0136 0632     		adds	r2, r2, #6
 2019 0138 9146     		mov	r9, r2
 2020              	.LVL165:
 2021              	.L151:
 702:../../../../../../Middlewares/Third_Party/LoRaWAN/Mac/region/RegionEU868.c ****                         ( NvmCtx.Channels[i].Frequency == 0 ) )
 2022              		.loc 1 702 0
 2023 013a 1BB2     		sxth	r3, r3
 2024 013c 002B     		cmp	r3, #0
 2025 013e 00DB     		blt	.LCB1935
 2026 0140 72E7     		b	.L129	@long jump
 2027              	.LCB1935:
 703:../../../../../../Middlewares/Third_Party/LoRaWAN/Mac/region/RegionEU868.c ****                     {// Trying to enable an undefined channel
 2028              		.loc 1 703 0
 2029 0142 B423     		movs	r3, #180
 702:../../../../../../Middlewares/Third_Party/LoRaWAN/Mac/region/RegionEU868.c ****                         ( NvmCtx.Channels[i].Frequency == 0 ) )
 2030              		.loc 1 702 0
 2031 0144 FB58     		ldr	r3, [r7, r3]
 2032 0146 002B     		cmp	r3, #0
 2033 0148 00D0     		beq	.LCB1939
 2034 014a 6DE7     		b	.L129	@long jump
 2035              	.LCB1939:
 705:../../../../../../Middlewares/Third_Party/LoRaWAN/Mac/region/RegionEU868.c ****                     }
ARM GAS  C:\Users\EBANO_~1\AppData\Local\Temp\ccJkfoGk.s 			page 59


 2036              		.loc 1 705 0
 2037 014c 0633     		adds	r3, r3, #6
 2038 014e 9946     		mov	r9, r3
 2039              	.LVL166:
 2040              	.LBE82:
 661:../../../../../../Middlewares/Third_Party/LoRaWAN/Mac/region/RegionEU868.c ****     {
 2041              		.loc 1 661 0
 2042 0150 337A     		ldrb	r3, [r6, #8]
 2043 0152 A342     		cmp	r3, r4
 2044 0154 00D9     		bls	.LCB1948
 2045 0156 6BE7     		b	.L173	@long jump
 2046              	.LCB1948:
 2047              	.LVL167:
 2048              	.L174:
 717:../../../../../../Middlewares/Third_Party/LoRaWAN/Mac/region/RegionEU868.c ****     linkAdrVerifyParams.AdrEnabled = linkAdrReq->AdrEnabled;
 2049              		.loc 1 717 0
 2050 0158 4B46     		mov	r3, r9
 2051 015a 06A8     		add	r0, sp, #24
 2052 015c 0371     		strb	r3, [r0, #4]
 718:../../../../../../Middlewares/Third_Party/LoRaWAN/Mac/region/RegionEU868.c ****     linkAdrVerifyParams.Datarate = linkAdrParams.Datarate;
 2053              		.loc 1 718 0
 2054 015e B37A     		ldrb	r3, [r6, #10]
 735:../../../../../../Middlewares/Third_Party/LoRaWAN/Mac/region/RegionEU868.c **** 
 2055              		.loc 1 735 0
 2056 0160 02A9     		add	r1, sp, #8
 718:../../../../../../Middlewares/Third_Party/LoRaWAN/Mac/region/RegionEU868.c ****     linkAdrVerifyParams.Datarate = linkAdrParams.Datarate;
 2057              		.loc 1 718 0
 2058 0162 4371     		strb	r3, [r0, #5]
 719:../../../../../../Middlewares/Third_Party/LoRaWAN/Mac/region/RegionEU868.c ****     linkAdrVerifyParams.TxPower = linkAdrParams.TxPower;
 2059              		.loc 1 719 0
 2060 0164 6B78     		ldrb	r3, [r5, #1]
 735:../../../../../../Middlewares/Third_Party/LoRaWAN/Mac/region/RegionEU868.c **** 
 2061              		.loc 1 735 0
 2062 0166 8C46     		mov	ip, r1
 719:../../../../../../Middlewares/Third_Party/LoRaWAN/Mac/region/RegionEU868.c ****     linkAdrVerifyParams.TxPower = linkAdrParams.TxPower;
 2063              		.loc 1 719 0
 2064 0168 8371     		strb	r3, [r0, #6]
 720:../../../../../../Middlewares/Third_Party/LoRaWAN/Mac/region/RegionEU868.c ****     linkAdrVerifyParams.NbRep = linkAdrParams.NbRep;
 2065              		.loc 1 720 0
 2066 016a AB78     		ldrb	r3, [r5, #2]
 735:../../../../../../Middlewares/Third_Party/LoRaWAN/Mac/region/RegionEU868.c **** 
 2067              		.loc 1 735 0
 2068 016c 0A22     		movs	r2, #10
 720:../../../../../../Middlewares/Third_Party/LoRaWAN/Mac/region/RegionEU868.c ****     linkAdrVerifyParams.NbRep = linkAdrParams.NbRep;
 2069              		.loc 1 720 0
 2070 016e C371     		strb	r3, [r0, #7]
 721:../../../../../../Middlewares/Third_Party/LoRaWAN/Mac/region/RegionEU868.c ****     linkAdrVerifyParams.CurrentDatarate = linkAdrReq->CurrentDatarate;
 2071              		.loc 1 721 0
 2072 0170 2B78     		ldrb	r3, [r5]
 735:../../../../../../Middlewares/Third_Party/LoRaWAN/Mac/region/RegionEU868.c **** 
 2073              		.loc 1 735 0
 2074 0172 0921     		movs	r1, #9
 721:../../../../../../Middlewares/Third_Party/LoRaWAN/Mac/region/RegionEU868.c ****     linkAdrVerifyParams.CurrentDatarate = linkAdrReq->CurrentDatarate;
 2075              		.loc 1 721 0
 2076 0174 0372     		strb	r3, [r0, #8]
 722:../../../../../../Middlewares/Third_Party/LoRaWAN/Mac/region/RegionEU868.c ****     linkAdrVerifyParams.CurrentTxPower = linkAdrReq->CurrentTxPower;
 2077              		.loc 1 722 0
ARM GAS  C:\Users\EBANO_~1\AppData\Local\Temp\ccJkfoGk.s 			page 60


 2078 0176 F37A     		ldrb	r3, [r6, #11]
 735:../../../../../../Middlewares/Third_Party/LoRaWAN/Mac/region/RegionEU868.c **** 
 2079              		.loc 1 735 0
 2080 0178 6244     		add	r2, r2, ip
 722:../../../../../../Middlewares/Third_Party/LoRaWAN/Mac/region/RegionEU868.c ****     linkAdrVerifyParams.CurrentTxPower = linkAdrReq->CurrentTxPower;
 2081              		.loc 1 722 0
 2082 017a 4372     		strb	r3, [r0, #9]
 723:../../../../../../Middlewares/Third_Party/LoRaWAN/Mac/region/RegionEU868.c ****     linkAdrVerifyParams.CurrentNbRep = linkAdrReq->CurrentNbRep;
 2083              		.loc 1 723 0
 2084 017c 337B     		ldrb	r3, [r6, #12]
 735:../../../../../../Middlewares/Third_Party/LoRaWAN/Mac/region/RegionEU868.c **** 
 2085              		.loc 1 735 0
 2086 017e 6144     		add	r1, r1, ip
 723:../../../../../../Middlewares/Third_Party/LoRaWAN/Mac/region/RegionEU868.c ****     linkAdrVerifyParams.CurrentNbRep = linkAdrReq->CurrentNbRep;
 2087              		.loc 1 723 0
 2088 0180 8372     		strb	r3, [r0, #10]
 724:../../../../../../Middlewares/Third_Party/LoRaWAN/Mac/region/RegionEU868.c ****     linkAdrVerifyParams.NbChannels = EU868_MAX_NB_CHANNELS;
 2089              		.loc 1 724 0
 2090 0182 737B     		ldrb	r3, [r6, #13]
 729:../../../../../../Middlewares/Third_Party/LoRaWAN/Mac/region/RegionEU868.c ****     linkAdrVerifyParams.MinTxPower = EU868_MIN_TX_POWER;
 2091              		.loc 1 729 0
 2092 0184 8761     		str	r7, [r0, #24]
 724:../../../../../../Middlewares/Third_Party/LoRaWAN/Mac/region/RegionEU868.c ****     linkAdrVerifyParams.NbChannels = EU868_MAX_NB_CHANNELS;
 2093              		.loc 1 724 0
 2094 0186 C372     		strb	r3, [r0, #11]
 725:../../../../../../Middlewares/Third_Party/LoRaWAN/Mac/region/RegionEU868.c ****     linkAdrVerifyParams.ChannelsMask = &chMask;
 2095              		.loc 1 725 0
 2096 0188 1023     		movs	r3, #16
 2097 018a 0373     		strb	r3, [r0, #12]
 726:../../../../../../Middlewares/Third_Party/LoRaWAN/Mac/region/RegionEU868.c ****     linkAdrVerifyParams.MinDatarate = ( int8_t )phyParam.Value;
 2098              		.loc 1 726 0
 2099 018c 02AB     		add	r3, sp, #8
 2100 018e 0633     		adds	r3, r3, #6
 2101 0190 0361     		str	r3, [r0, #16]
 727:../../../../../../Middlewares/Third_Party/LoRaWAN/Mac/region/RegionEU868.c ****     linkAdrVerifyParams.MaxDatarate = EU868_TX_MAX_DATARATE;
 2102              		.loc 1 727 0
 2103 0192 E023     		movs	r3, #224
 2104 0194 DB00     		lsls	r3, r3, #3
 2105 0196 8382     		strh	r3, [r0, #20]
 730:../../../../../../Middlewares/Third_Party/LoRaWAN/Mac/region/RegionEU868.c ****     linkAdrVerifyParams.MaxTxPower = EU868_MAX_TX_POWER;
 2106              		.loc 1 730 0
 2107 0198 0723     		movs	r3, #7
 2108 019a 8383     		strh	r3, [r0, #28]
 732:../../../../../../Middlewares/Third_Party/LoRaWAN/Mac/region/RegionEU868.c **** 
 2109              		.loc 1 732 0
 2110 019c 3368     		ldr	r3, [r6]
 2111 019e 0693     		str	r3, [sp, #24]
 735:../../../../../../Middlewares/Third_Party/LoRaWAN/Mac/region/RegionEU868.c **** 
 2112              		.loc 1 735 0
 2113 01a0 2B00     		movs	r3, r5
 2114 01a2 FFF7FEFF 		bl	RegionCommonLinkAdrReqVerifyParams
 2115              	.LVL168:
 2116 01a6 0600     		movs	r6, r0
 2117              	.LVL169:
 738:../../../../../../Middlewares/Third_Party/LoRaWAN/Mac/region/RegionEU868.c ****     {
 2118              		.loc 1 738 0
 2119 01a8 0728     		cmp	r0, #7
ARM GAS  C:\Users\EBANO_~1\AppData\Local\Temp\ccJkfoGk.s 			page 61


 2120 01aa 00D1     		bne	.LCB1999
 2121 01ac 91E0     		b	.L282	@long jump
 2122              	.LCB1999:
 2123              	.LVL170:
 2124              	.L132:
 747:../../../../../../Middlewares/Third_Party/LoRaWAN/Mac/region/RegionEU868.c ****     *txPowOut = linkAdrParams.TxPower;
 2125              		.loc 1 747 0
 2126 01ae 5A46     		mov	r2, fp
 2127 01b0 6B78     		ldrb	r3, [r5, #1]
 753:../../../../../../Middlewares/Third_Party/LoRaWAN/Mac/region/RegionEU868.c **** 
 2128              		.loc 1 753 0
 2129 01b2 3000     		movs	r0, r6
 747:../../../../../../Middlewares/Third_Party/LoRaWAN/Mac/region/RegionEU868.c ****     *txPowOut = linkAdrParams.TxPower;
 2130              		.loc 1 747 0
 2131 01b4 1370     		strb	r3, [r2]
 748:../../../../../../Middlewares/Third_Party/LoRaWAN/Mac/region/RegionEU868.c ****     *nbRepOut = linkAdrParams.NbRep;
 2132              		.loc 1 748 0
 2133 01b6 5246     		mov	r2, r10
 2134 01b8 AB78     		ldrb	r3, [r5, #2]
 2135 01ba 1370     		strb	r3, [r2]
 749:../../../../../../Middlewares/Third_Party/LoRaWAN/Mac/region/RegionEU868.c ****     *nbBytesParsed = bytesProcessed;
 2136              		.loc 1 749 0
 2137 01bc 2B78     		ldrb	r3, [r5]
 2138 01be 019A     		ldr	r2, [sp, #4]
 2139 01c0 1370     		strb	r3, [r2]
 750:../../../../../../Middlewares/Third_Party/LoRaWAN/Mac/region/RegionEU868.c **** 
 2140              		.loc 1 750 0
 2141 01c2 189B     		ldr	r3, [sp, #96]
 2142 01c4 1C70     		strb	r4, [r3]
 753:../../../../../../Middlewares/Third_Party/LoRaWAN/Mac/region/RegionEU868.c **** 
 2143              		.loc 1 753 0
 2144 01c6 0FB0     		add	sp, sp, #60
 2145              		@ sp needed
 2146              	.LVL171:
 2147              	.LVL172:
 2148              	.LVL173:
 2149 01c8 3CBC     		pop	{r2, r3, r4, r5}
 2150 01ca 9046     		mov	r8, r2
 2151 01cc 9946     		mov	r9, r3
 2152 01ce A246     		mov	r10, r4
 2153 01d0 AB46     		mov	fp, r5
 2154 01d2 F0BD     		pop	{r4, r5, r6, r7, pc}
 2155              	.LVL174:
 2156              	.L133:
 681:../../../../../../Middlewares/Third_Party/LoRaWAN/Mac/region/RegionEU868.c ****         }
 2157              		.loc 1 681 0
 2158 01d4 0621     		movs	r1, #6
 2159 01d6 8946     		mov	r9, r1
 683:../../../../../../Middlewares/Third_Party/LoRaWAN/Mac/region/RegionEU868.c ****                 ( linkAdrParams.ChMaskCtrl >= 7 ) )
 2160              		.loc 1 683 0
 2161 01d8 511E     		subs	r1, r2, #1
 2162 01da 0429     		cmp	r1, #4
 2163 01dc 00D8     		bhi	.LCB2050
 2164 01de 23E7     		b	.L129	@long jump
 2165              	.LCB2050:
 683:../../../../../../Middlewares/Third_Party/LoRaWAN/Mac/region/RegionEU868.c ****                 ( linkAdrParams.ChMaskCtrl >= 7 ) )
 2166              		.loc 1 683 0 is_stmt 0 discriminator 1
ARM GAS  C:\Users\EBANO_~1\AppData\Local\Temp\ccJkfoGk.s 			page 62


 2167 01e0 062A     		cmp	r2, #6
 2168 01e2 00D0     		beq	.LCB2052
 2169 01e4 20E7     		b	.L129	@long jump
 2170              	.LCB2052:
 2171              	.LVL175:
 2172              	.LBB83:
 695:../../../../../../Middlewares/Third_Party/LoRaWAN/Mac/region/RegionEU868.c ****                     {
 2173              		.loc 1 695 0 is_stmt 1
 2174 01e6 3968     		ldr	r1, [r7]
 2175 01e8 0022     		movs	r2, #0
 2176 01ea 0029     		cmp	r1, #0
 2177 01ec 02D0     		beq	.L154
 697:../../../../../../Middlewares/Third_Party/LoRaWAN/Mac/region/RegionEU868.c ****                     }
 2178              		.loc 1 697 0
 2179 01ee 0123     		movs	r3, #1
 2180 01f0 0132     		adds	r2, r2, #1
 2181 01f2 0343     		orrs	r3, r0
 2182              	.L154:
 2183              	.LVL176:
 695:../../../../../../Middlewares/Third_Party/LoRaWAN/Mac/region/RegionEU868.c ****                     {
 2184              		.loc 1 695 0
 2185 01f4 F968     		ldr	r1, [r7, #12]
 2186 01f6 0029     		cmp	r1, #0
 2187 01f8 02D0     		beq	.L155
 697:../../../../../../Middlewares/Third_Party/LoRaWAN/Mac/region/RegionEU868.c ****                     }
 2188              		.loc 1 697 0
 2189 01fa 0222     		movs	r2, #2
 2190 01fc 1343     		orrs	r3, r2
 2191 01fe 0122     		movs	r2, #1
 2192              	.L155:
 2193              	.LVL177:
 695:../../../../../../Middlewares/Third_Party/LoRaWAN/Mac/region/RegionEU868.c ****                     {
 2194              		.loc 1 695 0
 2195 0200 B969     		ldr	r1, [r7, #24]
 2196 0202 0029     		cmp	r1, #0
 2197 0204 02D0     		beq	.L156
 697:../../../../../../Middlewares/Third_Party/LoRaWAN/Mac/region/RegionEU868.c ****                     }
 2198              		.loc 1 697 0
 2199 0206 0422     		movs	r2, #4
 2200 0208 1343     		orrs	r3, r2
 2201 020a 0122     		movs	r2, #1
 2202              	.L156:
 2203              	.LVL178:
 695:../../../../../../Middlewares/Third_Party/LoRaWAN/Mac/region/RegionEU868.c ****                     {
 2204              		.loc 1 695 0
 2205 020c 796A     		ldr	r1, [r7, #36]
 2206 020e 0029     		cmp	r1, #0
 2207 0210 02D0     		beq	.L157
 697:../../../../../../Middlewares/Third_Party/LoRaWAN/Mac/region/RegionEU868.c ****                     }
 2208              		.loc 1 697 0
 2209 0212 0822     		movs	r2, #8
 2210 0214 1343     		orrs	r3, r2
 2211 0216 0122     		movs	r2, #1
 2212              	.L157:
 2213              	.LVL179:
 695:../../../../../../Middlewares/Third_Party/LoRaWAN/Mac/region/RegionEU868.c ****                     {
 2214              		.loc 1 695 0
ARM GAS  C:\Users\EBANO_~1\AppData\Local\Temp\ccJkfoGk.s 			page 63


 2215 0218 396B     		ldr	r1, [r7, #48]
 2216 021a 0029     		cmp	r1, #0
 2217 021c 02D0     		beq	.L158
 697:../../../../../../Middlewares/Third_Party/LoRaWAN/Mac/region/RegionEU868.c ****                     }
 2218              		.loc 1 697 0
 2219 021e 1022     		movs	r2, #16
 2220 0220 1343     		orrs	r3, r2
 2221 0222 0122     		movs	r2, #1
 2222              	.L158:
 2223              	.LVL180:
 695:../../../../../../Middlewares/Third_Party/LoRaWAN/Mac/region/RegionEU868.c ****                     {
 2224              		.loc 1 695 0
 2225 0224 F96B     		ldr	r1, [r7, #60]
 2226 0226 0029     		cmp	r1, #0
 2227 0228 02D0     		beq	.L159
 697:../../../../../../Middlewares/Third_Party/LoRaWAN/Mac/region/RegionEU868.c ****                     }
 2228              		.loc 1 697 0
 2229 022a 2022     		movs	r2, #32
 2230 022c 1343     		orrs	r3, r2
 2231 022e 0122     		movs	r2, #1
 2232              	.L159:
 2233              	.LVL181:
 695:../../../../../../Middlewares/Third_Party/LoRaWAN/Mac/region/RegionEU868.c ****                     {
 2234              		.loc 1 695 0
 2235 0230 B96C     		ldr	r1, [r7, #72]
 2236 0232 0029     		cmp	r1, #0
 2237 0234 02D0     		beq	.L160
 697:../../../../../../Middlewares/Third_Party/LoRaWAN/Mac/region/RegionEU868.c ****                     }
 2238              		.loc 1 697 0
 2239 0236 4022     		movs	r2, #64
 2240 0238 1343     		orrs	r3, r2
 2241 023a 0122     		movs	r2, #1
 2242              	.L160:
 2243              	.LVL182:
 695:../../../../../../Middlewares/Third_Party/LoRaWAN/Mac/region/RegionEU868.c ****                     {
 2244              		.loc 1 695 0
 2245 023c 796D     		ldr	r1, [r7, #84]
 2246 023e 0029     		cmp	r1, #0
 2247 0240 02D0     		beq	.L161
 697:../../../../../../Middlewares/Third_Party/LoRaWAN/Mac/region/RegionEU868.c ****                     }
 2248              		.loc 1 697 0
 2249 0242 8022     		movs	r2, #128
 2250 0244 1343     		orrs	r3, r2
 2251 0246 0122     		movs	r2, #1
 2252              	.L161:
 2253              	.LVL183:
 695:../../../../../../Middlewares/Third_Party/LoRaWAN/Mac/region/RegionEU868.c ****                     {
 2254              		.loc 1 695 0
 2255 0248 396E     		ldr	r1, [r7, #96]
 2256 024a 0029     		cmp	r1, #0
 2257 024c 03D0     		beq	.L162
 697:../../../../../../Middlewares/Third_Party/LoRaWAN/Mac/region/RegionEU868.c ****                     }
 2258              		.loc 1 697 0
 2259 024e 8022     		movs	r2, #128
 2260 0250 5200     		lsls	r2, r2, #1
 2261 0252 1343     		orrs	r3, r2
 2262 0254 FF3A     		subs	r2, r2, #255
ARM GAS  C:\Users\EBANO_~1\AppData\Local\Temp\ccJkfoGk.s 			page 64


 2263              	.L162:
 2264              	.LVL184:
 695:../../../../../../Middlewares/Third_Party/LoRaWAN/Mac/region/RegionEU868.c ****                     {
 2265              		.loc 1 695 0
 2266 0256 F96E     		ldr	r1, [r7, #108]
 2267 0258 0029     		cmp	r1, #0
 2268 025a 03D0     		beq	.L163
 697:../../../../../../Middlewares/Third_Party/LoRaWAN/Mac/region/RegionEU868.c ****                     }
 2269              		.loc 1 697 0
 2270 025c 8022     		movs	r2, #128
 2271 025e 9200     		lsls	r2, r2, #2
 2272 0260 1343     		orrs	r3, r2
 2273 0262 0122     		movs	r2, #1
 2274              	.L163:
 2275              	.LVL185:
 695:../../../../../../Middlewares/Third_Party/LoRaWAN/Mac/region/RegionEU868.c ****                     {
 2276              		.loc 1 695 0
 2277 0264 B96F     		ldr	r1, [r7, #120]
 2278 0266 0029     		cmp	r1, #0
 2279 0268 03D0     		beq	.L164
 697:../../../../../../Middlewares/Third_Party/LoRaWAN/Mac/region/RegionEU868.c ****                     }
 2280              		.loc 1 697 0
 2281 026a 8022     		movs	r2, #128
 2282 026c D200     		lsls	r2, r2, #3
 2283 026e 1343     		orrs	r3, r2
 2284 0270 0122     		movs	r2, #1
 2285              	.L164:
 2286              	.LVL186:
 695:../../../../../../Middlewares/Third_Party/LoRaWAN/Mac/region/RegionEU868.c ****                     {
 2287              		.loc 1 695 0
 2288 0272 8421     		movs	r1, #132
 2289 0274 7958     		ldr	r1, [r7, r1]
 2290 0276 0029     		cmp	r1, #0
 2291 0278 03D0     		beq	.L165
 697:../../../../../../Middlewares/Third_Party/LoRaWAN/Mac/region/RegionEU868.c ****                     }
 2292              		.loc 1 697 0
 2293 027a 8022     		movs	r2, #128
 2294 027c 1201     		lsls	r2, r2, #4
 2295 027e 1343     		orrs	r3, r2
 2296 0280 0122     		movs	r2, #1
 2297              	.L165:
 2298              	.LVL187:
 695:../../../../../../Middlewares/Third_Party/LoRaWAN/Mac/region/RegionEU868.c ****                     {
 2299              		.loc 1 695 0
 2300 0282 9021     		movs	r1, #144
 2301 0284 7958     		ldr	r1, [r7, r1]
 2302 0286 0029     		cmp	r1, #0
 2303 0288 03D0     		beq	.L166
 697:../../../../../../Middlewares/Third_Party/LoRaWAN/Mac/region/RegionEU868.c ****                     }
 2304              		.loc 1 697 0
 2305 028a 8022     		movs	r2, #128
 2306 028c 5201     		lsls	r2, r2, #5
 2307 028e 1343     		orrs	r3, r2
 2308 0290 0122     		movs	r2, #1
 2309              	.L166:
 2310              	.LVL188:
 695:../../../../../../Middlewares/Third_Party/LoRaWAN/Mac/region/RegionEU868.c ****                     {
ARM GAS  C:\Users\EBANO_~1\AppData\Local\Temp\ccJkfoGk.s 			page 65


 2311              		.loc 1 695 0
 2312 0292 9C21     		movs	r1, #156
 2313 0294 7958     		ldr	r1, [r7, r1]
 2314 0296 0029     		cmp	r1, #0
 2315 0298 28D1     		bne	.L283
 2316              	.LVL189:
 2317 029a A821     		movs	r1, #168
 2318 029c 7958     		ldr	r1, [r7, r1]
 2319 029e 0029     		cmp	r1, #0
 2320 02a0 0DD0     		beq	.L171
 2321              	.L168:
 697:../../../../../../Middlewares/Third_Party/LoRaWAN/Mac/region/RegionEU868.c ****                     }
 2322              		.loc 1 697 0
 2323 02a2 8022     		movs	r2, #128
 2324 02a4 D201     		lsls	r2, r2, #7
 2325 02a6 1343     		orrs	r3, r2
 2326              	.L281:
 2327              	.LVL190:
 695:../../../../../../Middlewares/Third_Party/LoRaWAN/Mac/region/RegionEU868.c ****                     {
 2328              		.loc 1 695 0
 2329 02a8 B422     		movs	r2, #180
 2330 02aa BA58     		ldr	r2, [r7, r2]
 2331 02ac 002A     		cmp	r2, #0
 2332 02ae 02D0     		beq	.L170
 2333              	.L169:
 697:../../../../../../Middlewares/Third_Party/LoRaWAN/Mac/region/RegionEU868.c ****                     }
 2334              		.loc 1 697 0
 2335 02b0 8022     		movs	r2, #128
 2336 02b2 1202     		lsls	r2, r2, #8
 2337 02b4 1343     		orrs	r3, r2
 2338              	.LVL191:
 2339              	.L170:
 2340 02b6 02AA     		add	r2, sp, #8
 2341 02b8 D380     		strh	r3, [r2, #6]
 695:../../../../../../Middlewares/Third_Party/LoRaWAN/Mac/region/RegionEU868.c ****                     {
 2342              		.loc 1 695 0
 2343 02ba C146     		mov	r9, r8
 2344 02bc B4E6     		b	.L129
 2345              	.LVL192:
 2346              	.L171:
 2347 02be B421     		movs	r1, #180
 2348 02c0 7958     		ldr	r1, [r7, r1]
 2349 02c2 0029     		cmp	r1, #0
 2350 02c4 F4D1     		bne	.L169
 2351              	.LVL193:
 2352 02c6 0721     		movs	r1, #7
 2353 02c8 8946     		mov	r9, r1
 2354 02ca 002A     		cmp	r2, #0
 2355 02cc 00D1     		bne	.LCB2270
 2356 02ce ABE6     		b	.L129	@long jump
 2357              	.LCB2270:
 2358 02d0 F1E7     		b	.L170
 2359              	.LVL194:
 2360              	.L282:
 2361              	.LBE83:
 741:../../../../../../Middlewares/Third_Party/LoRaWAN/Mac/region/RegionEU868.c ****         // Update the channels mask
 2362              		.loc 1 741 0
ARM GAS  C:\Users\EBANO_~1\AppData\Local\Temp\ccJkfoGk.s 			page 66


 2363 02d2 3800     		movs	r0, r7
 2364              	.LVL195:
 2365 02d4 1130     		adds	r0, r0, #17
 2366 02d6 0222     		movs	r2, #2
 2367 02d8 FF30     		adds	r0, r0, #255
 2368 02da 0021     		movs	r1, #0
 2369 02dc FFF7FEFF 		bl	memset1
 2370              	.LVL196:
 743:../../../../../../Middlewares/Third_Party/LoRaWAN/Mac/region/RegionEU868.c ****     }
 2371              		.loc 1 743 0
 2372 02e0 02AB     		add	r3, sp, #8
 2373 02e2 DA88     		ldrh	r2, [r3, #6]
 2374 02e4 8823     		movs	r3, #136
 2375 02e6 5B00     		lsls	r3, r3, #1
 2376 02e8 FA52     		strh	r2, [r7, r3]
 2377 02ea 60E7     		b	.L132
 2378              	.LVL197:
 2379              	.L283:
 2380              	.LBB84:
 697:../../../../../../Middlewares/Third_Party/LoRaWAN/Mac/region/RegionEU868.c ****                     }
 2381              		.loc 1 697 0
 2382 02ec 8022     		movs	r2, #128
 2383 02ee 9201     		lsls	r2, r2, #6
 2384 02f0 1343     		orrs	r3, r2
 2385              	.LVL198:
 695:../../../../../../Middlewares/Third_Party/LoRaWAN/Mac/region/RegionEU868.c ****                     {
 2386              		.loc 1 695 0
 2387 02f2 A822     		movs	r2, #168
 2388 02f4 BA58     		ldr	r2, [r7, r2]
 2389 02f6 002A     		cmp	r2, #0
 2390 02f8 D3D1     		bne	.L168
 2391 02fa D5E7     		b	.L281
 2392              	.L285:
 2393              		.align	2
 2394              	.L284:
 2395 02fc 00000000 		.word	NvmCtx
 2396              	.LBE84:
 2397              		.cfi_endproc
 2398              	.LFE54:
 2399              		.size	RegionEU868LinkAdrReq, .-RegionEU868LinkAdrReq
 2400              		.section	.text.RegionEU868RxParamSetupReq,"ax",%progbits
 2401              		.align	1
 2402              		.p2align 2,,3
 2403              		.global	RegionEU868RxParamSetupReq
 2404              		.syntax unified
 2405              		.code	16
 2406              		.thumb_func
 2407              		.fpu softvfp
 2408              		.type	RegionEU868RxParamSetupReq, %function
 2409              	RegionEU868RxParamSetupReq:
 2410              	.LFB55:
 756:../../../../../../Middlewares/Third_Party/LoRaWAN/Mac/region/RegionEU868.c ****     uint8_t status = 0x07;
 2411              		.loc 1 756 0
 2412              		.cfi_startproc
 2413              		@ args = 0, pretend = 0, frame = 8
 2414              		@ frame_needed = 0, uses_anonymous_args = 0
 2415              	.LVL199:
ARM GAS  C:\Users\EBANO_~1\AppData\Local\Temp\ccJkfoGk.s 			page 67


 2416 0000 70B5     		push	{r4, r5, r6, lr}
 2417              	.LCFI22:
 2418              		.cfi_def_cfa_offset 16
 2419              		.cfi_offset 4, -16
 2420              		.cfi_offset 5, -12
 2421              		.cfi_offset 6, -8
 2422              		.cfi_offset 14, -4
 2423              	.LBB89:
 2424              	.LBB90:
 111:../../../../../../Middlewares/Third_Party/LoRaWAN/Mac/region/RegionEU868.c ****     {
 2425              		.loc 1 111 0
 2426 0002 1D4B     		ldr	r3, .L298
 2427              	.LBE90:
 2428              	.LBE89:
 761:../../../../../../Middlewares/Third_Party/LoRaWAN/Mac/region/RegionEU868.c ****     {
 2429              		.loc 1 761 0
 2430 0004 4568     		ldr	r5, [r0, #4]
 2431              	.LVL200:
 2432              	.LBB98:
 2433              	.LBB95:
 111:../../../../../../Middlewares/Third_Party/LoRaWAN/Mac/region/RegionEU868.c ****     {
 2434              		.loc 1 111 0
 2435 0006 9B6A     		ldr	r3, [r3, #40]
 2436              	.LBE95:
 2437              	.LBE98:
 756:../../../../../../Middlewares/Third_Party/LoRaWAN/Mac/region/RegionEU868.c ****     uint8_t status = 0x07;
 2438              		.loc 1 756 0
 2439 0008 82B0     		sub	sp, sp, #8
 2440              	.LCFI23:
 2441              		.cfi_def_cfa_offset 24
 756:../../../../../../Middlewares/Third_Party/LoRaWAN/Mac/region/RegionEU868.c ****     uint8_t status = 0x07;
 2442              		.loc 1 756 0
 2443 000a 0400     		movs	r4, r0
 2444              	.LBB99:
 2445              	.LBB96:
 111:../../../../../../Middlewares/Third_Party/LoRaWAN/Mac/region/RegionEU868.c ****     {
 2446              		.loc 1 111 0
 2447 000c 2800     		movs	r0, r5
 2448              	.LVL201:
 2449 000e 0193     		str	r3, [sp, #4]
 2450 0010 9847     		blx	r3
 2451              	.LVL202:
 2452 0012 0028     		cmp	r0, #0
 2453 0014 2CD0     		beq	.L294
 117:../../../../../../Middlewares/Third_Party/LoRaWAN/Mac/region/RegionEU868.c ****     {
 2454              		.loc 1 117 0
 2455 0016 194B     		ldr	r3, .L298+4
 2456 0018 194A     		ldr	r2, .L298+8
 2457 001a EB18     		adds	r3, r5, r3
 2458 001c 9342     		cmp	r3, r2
 2459 001e 0FD9     		bls	.L293
 129:../../../../../../Middlewares/Third_Party/LoRaWAN/Mac/region/RegionEU868.c ****     {
 2460              		.loc 1 129 0
 2461 0020 184B     		ldr	r3, .L298+12
 2462 0022 194A     		ldr	r2, .L298+16
 2463 0024 EB18     		adds	r3, r5, r3
 2464 0026 9342     		cmp	r3, r2
ARM GAS  C:\Users\EBANO_~1\AppData\Local\Temp\ccJkfoGk.s 			page 68


 2465 0028 0AD9     		bls	.L293
 2466              	.LVL203:
 2467              	.LBB91:
 2468              	.LBB92:
 133:../../../../../../Middlewares/Third_Party/LoRaWAN/Mac/region/RegionEU868.c ****     {
 2469              		.loc 1 133 0
 2470 002a 184B     		ldr	r3, .L298+20
 2471 002c 184A     		ldr	r2, .L298+24
 2472 002e EB18     		adds	r3, r5, r3
 2473 0030 9342     		cmp	r3, r2
 2474 0032 05D9     		bls	.L293
 137:../../../../../../Middlewares/Third_Party/LoRaWAN/Mac/region/RegionEU868.c ****     {
 2475              		.loc 1 137 0
 2476 0034 174B     		ldr	r3, .L298+28
 2477 0036 9C46     		mov	ip, r3
 2478 0038 174B     		ldr	r3, .L298+32
 2479 003a 6544     		add	r5, r5, ip
 2480              	.LVL204:
 2481 003c 9D42     		cmp	r5, r3
 2482 003e 17D8     		bhi	.L294
 2483              	.LVL205:
 2484              	.L293:
 133:../../../../../../Middlewares/Third_Party/LoRaWAN/Mac/region/RegionEU868.c ****     {
 2485              		.loc 1 133 0
 2486 0040 0525     		movs	r5, #5
 2487              	.LBE92:
 2488              	.LBE91:
 2489              	.LBE96:
 2490              	.LBE99:
 757:../../../../../../Middlewares/Third_Party/LoRaWAN/Mac/region/RegionEU868.c ****     uint8_t band = 0;
 2491              		.loc 1 757 0
 2492 0042 0726     		movs	r6, #7
 2493              	.L287:
 2494              	.LVL206:
 767:../../../../../../Middlewares/Third_Party/LoRaWAN/Mac/region/RegionEU868.c ****     {
 2495              		.loc 1 767 0
 2496 0044 0020     		movs	r0, #0
 2497 0046 0722     		movs	r2, #7
 2498 0048 2056     		ldrsb	r0, [r4, r0]
 2499 004a 0021     		movs	r1, #0
 2500 004c FFF7FEFF 		bl	RegionCommonValueInRange
 2501              	.LVL207:
 2502 0050 0028     		cmp	r0, #0
 2503 0052 00D0     		beq	.L288
 2504 0054 3500     		movs	r5, r6
 2505              	.L288:
 2506              	.LVL208:
 773:../../../../../../Middlewares/Third_Party/LoRaWAN/Mac/region/RegionEU868.c ****     {
 2507              		.loc 1 773 0
 2508 0056 0120     		movs	r0, #1
 2509 0058 0522     		movs	r2, #5
 2510 005a 2056     		ldrsb	r0, [r4, r0]
 2511 005c 0021     		movs	r1, #0
 2512 005e FFF7FEFF 		bl	RegionCommonValueInRange
 2513              	.LVL209:
 2514 0062 0028     		cmp	r0, #0
 2515 0064 01D1     		bne	.L289
ARM GAS  C:\Users\EBANO_~1\AppData\Local\Temp\ccJkfoGk.s 			page 69


 775:../../../../../../Middlewares/Third_Party/LoRaWAN/Mac/region/RegionEU868.c ****     }
 2516              		.loc 1 775 0
 2517 0066 FB23     		movs	r3, #251
 2518 0068 1D40     		ands	r5, r3
 2519              	.LVL210:
 2520              	.L289:
 779:../../../../../../Middlewares/Third_Party/LoRaWAN/Mac/region/RegionEU868.c **** 
 2521              		.loc 1 779 0
 2522 006a 2800     		movs	r0, r5
 2523 006c 02B0     		add	sp, sp, #8
 2524              		@ sp needed
 2525              	.LVL211:
 2526              	.LVL212:
 2527 006e 70BD     		pop	{r4, r5, r6, pc}
 2528              	.LVL213:
 2529              	.L294:
 2530              	.LBB100:
 2531              	.LBB97:
 2532              	.LBB94:
 2533              	.LBB93:
 137:../../../../../../Middlewares/Third_Party/LoRaWAN/Mac/region/RegionEU868.c ****     {
 2534              		.loc 1 137 0
 2535 0070 0425     		movs	r5, #4
 2536              	.LBE93:
 2537              	.LBE94:
 2538              	.LBE97:
 2539              	.LBE100:
 763:../../../../../../Middlewares/Third_Party/LoRaWAN/Mac/region/RegionEU868.c ****     }
 2540              		.loc 1 763 0
 2541 0072 0626     		movs	r6, #6
 2542 0074 E6E7     		b	.L287
 2543              	.L299:
 2544 0076 C046     		.align	2
 2545              	.L298:
 2546 0078 00000000 		.word	Radio
 2547 007c 40AA8FCC 		.word	-863000000
 2548 0080 00735500 		.word	5600000
 2549 0084 A0B038CC 		.word	-868700000
 2550 0088 20A10700 		.word	500000
 2551 008c 40022ECC 		.word	-869400000
 2552 0090 90D00300 		.word	250000
 2553 0094 606E29CC 		.word	-869700000
 2554 0098 E0930400 		.word	300000
 2555              		.cfi_endproc
 2556              	.LFE55:
 2557              		.size	RegionEU868RxParamSetupReq, .-RegionEU868RxParamSetupReq
 2558              		.section	.text.RegionEU868NewChannelReq,"ax",%progbits
 2559              		.align	1
 2560              		.p2align 2,,3
 2561              		.global	RegionEU868NewChannelReq
 2562              		.syntax unified
 2563              		.code	16
 2564              		.thumb_func
 2565              		.fpu softvfp
 2566              		.type	RegionEU868NewChannelReq, %function
 2567              	RegionEU868NewChannelReq:
 2568              	.LFB56:
ARM GAS  C:\Users\EBANO_~1\AppData\Local\Temp\ccJkfoGk.s 			page 70


 782:../../../../../../Middlewares/Third_Party/LoRaWAN/Mac/region/RegionEU868.c ****     uint8_t status = 0x03;
 2569              		.loc 1 782 0
 2570              		.cfi_startproc
 2571              		@ args = 0, pretend = 0, frame = 8
 2572              		@ frame_needed = 0, uses_anonymous_args = 0
 2573              	.LVL214:
 2574 0000 F0B5     		push	{r4, r5, r6, r7, lr}
 2575              	.LCFI24:
 2576              		.cfi_def_cfa_offset 20
 2577              		.cfi_offset 4, -20
 2578              		.cfi_offset 5, -16
 2579              		.cfi_offset 6, -12
 2580              		.cfi_offset 7, -8
 2581              		.cfi_offset 14, -4
 2582 0002 C646     		mov	lr, r8
 2583 0004 00B5     		push	{lr}
 2584              	.LCFI25:
 2585              		.cfi_def_cfa_offset 24
 2586              		.cfi_offset 8, -24
 787:../../../../../../Middlewares/Third_Party/LoRaWAN/Mac/region/RegionEU868.c ****     {
 2587              		.loc 1 787 0
 2588 0006 0468     		ldr	r4, [r0]
 782:../../../../../../Middlewares/Third_Party/LoRaWAN/Mac/region/RegionEU868.c ****     uint8_t status = 0x03;
 2589              		.loc 1 782 0
 2590 0008 82B0     		sub	sp, sp, #8
 2591              	.LCFI26:
 2592              		.cfi_def_cfa_offset 32
 787:../../../../../../Middlewares/Third_Party/LoRaWAN/Mac/region/RegionEU868.c ****     {
 2593              		.loc 1 787 0
 2594 000a 2368     		ldr	r3, [r4]
 2595 000c 0579     		ldrb	r5, [r0, #4]
 2596 000e 002B     		cmp	r3, #0
 2597 0010 06D1     		bne	.L301
 2598              	.LVL215:
 2599              	.LBB109:
 2600              	.LBB110:
1004:../../../../../../Middlewares/Third_Party/LoRaWAN/Mac/region/RegionEU868.c ****     {
 2601              		.loc 1 1004 0
 2602 0012 022D     		cmp	r5, #2
 2603 0014 3ED8     		bhi	.L334
 2604              	.LVL216:
 2605              	.L302:
 2606              	.LBE110:
 2607              	.LBE109:
 794:../../../../../../Middlewares/Third_Party/LoRaWAN/Mac/region/RegionEU868.c ****         }
 2608              		.loc 1 794 0
 2609 0016 0020     		movs	r0, #0
 2610              	.L328:
 832:../../../../../../Middlewares/Third_Party/LoRaWAN/Mac/region/RegionEU868.c **** 
 2611              		.loc 1 832 0
 2612 0018 02B0     		add	sp, sp, #8
 2613              		@ sp needed
 2614 001a 04BC     		pop	{r2}
 2615 001c 9046     		mov	r8, r2
 2616 001e F0BD     		pop	{r4, r5, r6, r7, pc}
 2617              	.LVL217:
 2618              	.L301:
ARM GAS  C:\Users\EBANO_~1\AppData\Local\Temp\ccJkfoGk.s 			page 71


 2619              	.LBB112:
 2620              	.LBB113:
 947:../../../../../../Middlewares/Third_Party/LoRaWAN/Mac/region/RegionEU868.c ****     {
 2621              		.loc 1 947 0
 2622 0020 EB1E     		subs	r3, r5, #3
 2623 0022 0C2B     		cmp	r3, #12
 2624 0024 F7D8     		bhi	.L302
 958:../../../../../../Middlewares/Third_Party/LoRaWAN/Mac/region/RegionEU868.c ****     {
 2625              		.loc 1 958 0
 2626 0026 207A     		ldrb	r0, [r4, #8]
 2627              	.LVL218:
 2628 0028 0722     		movs	r2, #7
 2629 002a 0007     		lsls	r0, r0, #28
 2630 002c 0021     		movs	r1, #0
 2631 002e 0017     		asrs	r0, r0, #28
 2632 0030 FFF7FEFF 		bl	RegionCommonValueInRange
 2633              	.LVL219:
 2634 0034 0600     		movs	r6, r0
 2635              	.LVL220:
 962:../../../../../../Middlewares/Third_Party/LoRaWAN/Mac/region/RegionEU868.c ****     {
 2636              		.loc 1 962 0
 2637 0036 0820     		movs	r0, #8
 2638 0038 2056     		ldrsb	r0, [r4, r0]
 2639 003a 0722     		movs	r2, #7
 2640 003c 0011     		asrs	r0, r0, #4
 2641 003e 0021     		movs	r1, #0
 2642 0040 FFF7FEFF 		bl	RegionCommonValueInRange
 2643              	.LVL221:
 964:../../../../../../Middlewares/Third_Party/LoRaWAN/Mac/region/RegionEU868.c ****     }
 2644              		.loc 1 964 0
 2645 0044 0127     		movs	r7, #1
 962:../../../../../../Middlewares/Third_Party/LoRaWAN/Mac/region/RegionEU868.c ****     {
 2646              		.loc 1 962 0
 2647 0046 0028     		cmp	r0, #0
 2648 0048 02D0     		beq	.L304
 958:../../../../../../Middlewares/Third_Party/LoRaWAN/Mac/region/RegionEU868.c ****     {
 2649              		.loc 1 958 0
 2650 004a 7742     		rsbs	r7, r6, #0
 2651 004c 7741     		adcs	r7, r7, r6
 2652              	.LVL222:
 2653 004e FFB2     		uxtb	r7, r7
 2654              	.L304:
 2655              	.LVL223:
 2656 0050 414B     		ldr	r3, .L336
 2657 0052 2668     		ldr	r6, [r4]
 2658 0054 9B6A     		ldr	r3, [r3, #40]
 2659              	.LBB114:
 2660              	.LBB115:
 111:../../../../../../Middlewares/Third_Party/LoRaWAN/Mac/region/RegionEU868.c ****     {
 2661              		.loc 1 111 0
 2662 0056 3000     		movs	r0, r6
 2663 0058 0193     		str	r3, [sp, #4]
 2664              	.LBE115:
 2665              	.LBE114:
 966:../../../../../../Middlewares/Third_Party/LoRaWAN/Mac/region/RegionEU868.c ****     {
 2666              		.loc 1 966 0
 2667 005a 237A     		ldrb	r3, [r4, #8]
ARM GAS  C:\Users\EBANO_~1\AppData\Local\Temp\ccJkfoGk.s 			page 72


 2668 005c 1A07     		lsls	r2, r3, #28
 2669 005e 5BB2     		sxtb	r3, r3
 2670 0060 1217     		asrs	r2, r2, #28
 2671 0062 1B11     		asrs	r3, r3, #4
 2672 0064 9A42     		cmp	r2, r3
 2673 0066 2ADC     		bgt	.L305
 2674              	.LVL224:
 2675              	.LBB125:
 2676              	.LBB120:
 111:../../../../../../Middlewares/Third_Party/LoRaWAN/Mac/region/RegionEU868.c ****     {
 2677              		.loc 1 111 0
 2678 0068 019B     		ldr	r3, [sp, #4]
 2679 006a 9847     		blx	r3
 2680              	.LVL225:
 2681 006c 0028     		cmp	r0, #0
 2682 006e 63D0     		beq	.L331
 117:../../../../../../Middlewares/Third_Party/LoRaWAN/Mac/region/RegionEU868.c ****     {
 2683              		.loc 1 117 0
 2684 0070 3A4B     		ldr	r3, .L336+4
 2685 0072 3B4A     		ldr	r2, .L336+8
 2686 0074 F318     		adds	r3, r6, r3
 2687 0076 9342     		cmp	r3, r2
 2688 0078 63D9     		bls	.L318
 121:../../../../../../Middlewares/Third_Party/LoRaWAN/Mac/region/RegionEU868.c ****     {
 2689              		.loc 1 121 0
 2690 007a 3A4B     		ldr	r3, .L336+12
 2691 007c 3A4A     		ldr	r2, .L336+16
 2692 007e F318     		adds	r3, r6, r3
 2693 0080 9342     		cmp	r3, r2
 2694 0082 61D9     		bls	.L316
 125:../../../../../../Middlewares/Third_Party/LoRaWAN/Mac/region/RegionEU868.c ****     {
 2695              		.loc 1 125 0
 2696 0084 394B     		ldr	r3, .L336+20
 2697 0086 3A4A     		ldr	r2, .L336+24
 2698 0088 F318     		adds	r3, r6, r3
 2699 008a 9342     		cmp	r3, r2
 2700 008c 2BD8     		bhi	.L312
 127:../../../../../../Middlewares/Third_Party/LoRaWAN/Mac/region/RegionEU868.c ****     }
 2701              		.loc 1 127 0
 2702 008e 0123     		movs	r3, #1
 2703 0090 9846     		mov	r8, r3
 2704 0092 3AE0     		b	.L308
 2705              	.LVL226:
 2706              	.L334:
 2707              	.LBE120:
 2708              	.LBE125:
 2709              	.LBE113:
 2710              	.LBE112:
 2711              	.LBB135:
 2712              	.LBB111:
1010:../../../../../../Middlewares/Third_Party/LoRaWAN/Mac/region/RegionEU868.c **** 
 2713              		.loc 1 1010 0
 2714 0094 6800     		lsls	r0, r5, #1
 2715              	.LVL227:
 2716 0096 374C     		ldr	r4, .L336+28
 2717 0098 4019     		adds	r0, r0, r5
 2718 009a 8000     		lsls	r0, r0, #2
ARM GAS  C:\Users\EBANO_~1\AppData\Local\Temp\ccJkfoGk.s 			page 73


 2719 009c 0C22     		movs	r2, #12
 2720 009e 0021     		movs	r1, #0
 2721 00a0 2018     		adds	r0, r4, r0
 2722 00a2 FFF7FEFF 		bl	memset
 2723              	.LVL228:
 2724              		.loc 1 1012 0
 2725 00a6 2000     		movs	r0, r4
 2726 00a8 1130     		adds	r0, r0, #17
 2727 00aa FF30     		adds	r0, r0, #255
 2728 00ac 1022     		movs	r2, #16
 2729 00ae 2900     		movs	r1, r5
 2730 00b0 FFF7FEFF 		bl	RegionCommonChanDisable
 2731              	.LVL229:
 2732 00b4 0300     		movs	r3, r0
 2733              	.LVL230:
 2734              	.LBE111:
 2735              	.LBE135:
 783:../../../../../../Middlewares/Third_Party/LoRaWAN/Mac/region/RegionEU868.c ****     ChannelAddParams_t channelAdd;
 2736              		.loc 1 783 0
 2737 00b6 0320     		movs	r0, #3
 792:../../../../../../Middlewares/Third_Party/LoRaWAN/Mac/region/RegionEU868.c ****         {
 2738              		.loc 1 792 0
 2739 00b8 002B     		cmp	r3, #0
 2740 00ba ADD1     		bne	.L328
 2741 00bc ABE7     		b	.L302
 2742              	.LVL231:
 2743              	.L305:
 2744              	.LBB136:
 2745              	.LBB130:
 2746              	.LBB126:
 2747              	.LBB121:
 111:../../../../../../Middlewares/Third_Party/LoRaWAN/Mac/region/RegionEU868.c ****     {
 2748              		.loc 1 111 0
 2749 00be 019B     		ldr	r3, [sp, #4]
 2750 00c0 9847     		blx	r3
 2751              	.LVL232:
 2752 00c2 071E     		subs	r7, r0, #0
 2753 00c4 A7D0     		beq	.L302
 117:../../../../../../Middlewares/Third_Party/LoRaWAN/Mac/region/RegionEU868.c ****     {
 2754              		.loc 1 117 0
 2755 00c6 254B     		ldr	r3, .L336+4
 2756 00c8 254A     		ldr	r2, .L336+8
 2757 00ca F318     		adds	r3, r6, r3
 2758              	.LBE121:
 2759              	.LBE126:
 2760              	.LBE130:
 2761              	.LBE136:
 815:../../../../../../Middlewares/Third_Party/LoRaWAN/Mac/region/RegionEU868.c ****                 break;
 2762              		.loc 1 815 0
 2763 00cc 0120     		movs	r0, #1
 2764              	.LBB137:
 2765              	.LBB131:
 2766              	.LBB127:
 2767              	.LBB122:
 117:../../../../../../Middlewares/Third_Party/LoRaWAN/Mac/region/RegionEU868.c ****     {
 2768              		.loc 1 117 0
 2769 00ce 9342     		cmp	r3, r2
ARM GAS  C:\Users\EBANO_~1\AppData\Local\Temp\ccJkfoGk.s 			page 74


 2770 00d0 A2D9     		bls	.L328
 121:../../../../../../Middlewares/Third_Party/LoRaWAN/Mac/region/RegionEU868.c ****     {
 2771              		.loc 1 121 0
 2772 00d2 244B     		ldr	r3, .L336+12
 2773 00d4 244A     		ldr	r2, .L336+16
 2774 00d6 F318     		adds	r3, r6, r3
 2775 00d8 9342     		cmp	r3, r2
 2776 00da 9DD9     		bls	.L328
 125:../../../../../../Middlewares/Third_Party/LoRaWAN/Mac/region/RegionEU868.c ****     {
 2777              		.loc 1 125 0
 2778 00dc 234B     		ldr	r3, .L336+20
 2779 00de 244A     		ldr	r2, .L336+24
 2780 00e0 F318     		adds	r3, r6, r3
 2781 00e2 9342     		cmp	r3, r2
 2782 00e4 98D9     		bls	.L328
 2783              	.LVL233:
 2784              	.L312:
 129:../../../../../../Middlewares/Third_Party/LoRaWAN/Mac/region/RegionEU868.c ****     {
 2785              		.loc 1 129 0
 2786 00e6 244B     		ldr	r3, .L336+32
 2787 00e8 244A     		ldr	r2, .L336+36
 2788 00ea F318     		adds	r3, r6, r3
 2789 00ec 9342     		cmp	r3, r2
 2790 00ee 28D9     		bls	.L318
 2791              	.LVL234:
 2792              	.LBB116:
 2793              	.LBB117:
 133:../../../../../../Middlewares/Third_Party/LoRaWAN/Mac/region/RegionEU868.c ****     {
 2794              		.loc 1 133 0
 2795 00f0 234B     		ldr	r3, .L336+40
 2796 00f2 244A     		ldr	r2, .L336+44
 2797 00f4 F318     		adds	r3, r6, r3
 2798 00f6 9342     		cmp	r3, r2
 2799 00f8 2BD9     		bls	.L319
 137:../../../../../../Middlewares/Third_Party/LoRaWAN/Mac/region/RegionEU868.c ****     {
 2800              		.loc 1 137 0
 2801 00fa 234B     		ldr	r3, .L336+48
 139:../../../../../../Middlewares/Third_Party/LoRaWAN/Mac/region/RegionEU868.c ****     }
 2802              		.loc 1 139 0
 2803 00fc 0422     		movs	r2, #4
 137:../../../../../../Middlewares/Third_Party/LoRaWAN/Mac/region/RegionEU868.c ****     {
 2804              		.loc 1 137 0
 2805 00fe 9C46     		mov	ip, r3
 2806 0100 224B     		ldr	r3, .L336+52
 2807 0102 6644     		add	r6, r6, ip
 2808              	.LVL235:
 139:../../../../../../Middlewares/Third_Party/LoRaWAN/Mac/region/RegionEU868.c ****     }
 2809              		.loc 1 139 0
 2810 0104 9046     		mov	r8, r2
 137:../../../../../../Middlewares/Third_Party/LoRaWAN/Mac/region/RegionEU868.c ****     {
 2811              		.loc 1 137 0
 2812 0106 9E42     		cmp	r6, r3
 2813 0108 16D8     		bhi	.L331
 2814              	.LVL236:
 2815              	.L308:
 2816              	.LBE117:
 2817              	.LBE116:
ARM GAS  C:\Users\EBANO_~1\AppData\Local\Temp\ccJkfoGk.s 			page 75


 2818              	.LBE122:
 2819              	.LBE127:
 981:../../../../../../Middlewares/Third_Party/LoRaWAN/Mac/region/RegionEU868.c ****     {
 2820              		.loc 1 981 0
 2821 010a 002F     		cmp	r7, #0
 2822 010c 1FD1     		bne	.L335
 994:../../../../../../Middlewares/Third_Party/LoRaWAN/Mac/region/RegionEU868.c ****     NvmCtx.Channels[id].Band = band;
 2823              		.loc 1 994 0
 2824 010e 6E00     		lsls	r6, r5, #1
 2825 0110 184F     		ldr	r7, .L336+28
 2826 0112 7619     		adds	r6, r6, r5
 2827 0114 B600     		lsls	r6, r6, #2
 2828 0116 F619     		adds	r6, r6, r7
 2829 0118 0C22     		movs	r2, #12
 2830 011a 2100     		movs	r1, r4
 2831 011c 3000     		movs	r0, r6
 2832 011e FFF7FEFF 		bl	memcpy1
 2833              	.LVL237:
 996:../../../../../../Middlewares/Third_Party/LoRaWAN/Mac/region/RegionEU868.c ****     return LORAMAC_STATUS_OK;
 2834              		.loc 1 996 0
 2835 0122 0122     		movs	r2, #1
 995:../../../../../../Middlewares/Third_Party/LoRaWAN/Mac/region/RegionEU868.c ****     NvmCtx.ChannelsMask[0] |= ( 1 << id );
 2836              		.loc 1 995 0
 2837 0124 4346     		mov	r3, r8
 996:../../../../../../Middlewares/Third_Party/LoRaWAN/Mac/region/RegionEU868.c ****     return LORAMAC_STATUS_OK;
 2838              		.loc 1 996 0
 2839 0126 8821     		movs	r1, #136
 2840 0128 AA40     		lsls	r2, r2, r5
 2841 012a 4900     		lsls	r1, r1, #1
 995:../../../../../../Middlewares/Third_Party/LoRaWAN/Mac/region/RegionEU868.c ****     NvmCtx.ChannelsMask[0] |= ( 1 << id );
 2842              		.loc 1 995 0
 2843 012c 7372     		strb	r3, [r6, #9]
 996:../../../../../../Middlewares/Third_Party/LoRaWAN/Mac/region/RegionEU868.c ****     return LORAMAC_STATUS_OK;
 2844              		.loc 1 996 0
 2845 012e 7B5A     		ldrh	r3, [r7, r1]
 2846              	.LBE131:
 2847              	.LBE137:
 783:../../../../../../Middlewares/Third_Party/LoRaWAN/Mac/region/RegionEU868.c ****     ChannelAddParams_t channelAdd;
 2848              		.loc 1 783 0
 2849 0130 0320     		movs	r0, #3
 2850              	.LBB138:
 2851              	.LBB132:
 996:../../../../../../Middlewares/Third_Party/LoRaWAN/Mac/region/RegionEU868.c ****     return LORAMAC_STATUS_OK;
 2852              		.loc 1 996 0
 2853 0132 1343     		orrs	r3, r2
 2854 0134 7B52     		strh	r3, [r7, r1]
 2855              	.LVL238:
 2856 0136 6FE7     		b	.L328
 2857              	.LVL239:
 2858              	.L331:
 981:../../../../../../Middlewares/Third_Party/LoRaWAN/Mac/region/RegionEU868.c ****     {
 2859              		.loc 1 981 0
 2860 0138 002F     		cmp	r7, #0
 2861 013a 00D0     		beq	.LCB2797
 2862 013c 6BE7     		b	.L302	@long jump
 2863              	.LCB2797:
 2864              	.LBE132:
ARM GAS  C:\Users\EBANO_~1\AppData\Local\Temp\ccJkfoGk.s 			page 76


 2865              	.LBE138:
 810:../../../../../../Middlewares/Third_Party/LoRaWAN/Mac/region/RegionEU868.c ****                 break;
 2866              		.loc 1 810 0
 2867 013e 0220     		movs	r0, #2
 2868 0140 6AE7     		b	.L328
 2869              	.LVL240:
 2870              	.L318:
 2871              	.LBB139:
 2872              	.LBB133:
 2873              	.LBB128:
 2874              	.LBB123:
 131:../../../../../../Middlewares/Third_Party/LoRaWAN/Mac/region/RegionEU868.c ****     }
 2875              		.loc 1 131 0
 2876 0142 0223     		movs	r3, #2
 2877 0144 9846     		mov	r8, r3
 2878 0146 E0E7     		b	.L308
 2879              	.LVL241:
 2880              	.L316:
 123:../../../../../../Middlewares/Third_Party/LoRaWAN/Mac/region/RegionEU868.c ****     }
 2881              		.loc 1 123 0
 2882 0148 0023     		movs	r3, #0
 2883 014a 9846     		mov	r8, r3
 2884 014c DDE7     		b	.L308
 2885              	.LVL242:
 2886              	.L335:
 2887              	.LBE123:
 2888              	.LBE128:
 2889              	.LBE133:
 2890              	.LBE139:
 815:../../../../../../Middlewares/Third_Party/LoRaWAN/Mac/region/RegionEU868.c ****                 break;
 2891              		.loc 1 815 0
 2892 014e 0120     		movs	r0, #1
 2893 0150 62E7     		b	.L328
 2894              	.LVL243:
 2895              	.L319:
 2896              	.LBB140:
 2897              	.LBB134:
 2898              	.LBB129:
 2899              	.LBB124:
 2900              	.LBB119:
 2901              	.LBB118:
 135:../../../../../../Middlewares/Third_Party/LoRaWAN/Mac/region/RegionEU868.c ****     }
 2902              		.loc 1 135 0
 2903 0152 0323     		movs	r3, #3
 2904 0154 9846     		mov	r8, r3
 2905 0156 D8E7     		b	.L308
 2906              	.L337:
 2907              		.align	2
 2908              	.L336:
 2909 0158 00000000 		.word	Radio
 2910 015c 40AA8FCC 		.word	-863000000
 2911 0160 7F841E00 		.word	1999999
 2912 0164 C02571CC 		.word	-865000000
 2913 0168 C0C62D00 		.word	3000000
 2914 016c FF5E43CC 		.word	-868000001
 2915 0170 BF270900 		.word	599999
 2916 0174 00000000 		.word	NvmCtx
ARM GAS  C:\Users\EBANO_~1\AppData\Local\Temp\ccJkfoGk.s 			page 77


 2917 0178 A0B038CC 		.word	-868700000
 2918 017c 20A10700 		.word	500000
 2919 0180 40022ECC 		.word	-869400000
 2920 0184 90D00300 		.word	250000
 2921 0188 606E29CC 		.word	-869700000
 2922 018c E0930400 		.word	300000
 2923              	.LBE118:
 2924              	.LBE119:
 2925              	.LBE124:
 2926              	.LBE129:
 2927              	.LBE134:
 2928              	.LBE140:
 2929              		.cfi_endproc
 2930              	.LFE56:
 2931              		.size	RegionEU868NewChannelReq, .-RegionEU868NewChannelReq
 2932              		.section	.text.RegionEU868TxParamSetupReq,"ax",%progbits
 2933              		.align	1
 2934              		.p2align 2,,3
 2935              		.global	RegionEU868TxParamSetupReq
 2936              		.syntax unified
 2937              		.code	16
 2938              		.thumb_func
 2939              		.fpu softvfp
 2940              		.type	RegionEU868TxParamSetupReq, %function
 2941              	RegionEU868TxParamSetupReq:
 2942              	.LFB57:
 835:../../../../../../Middlewares/Third_Party/LoRaWAN/Mac/region/RegionEU868.c ****     return -1;
 2943              		.loc 1 835 0
 2944              		.cfi_startproc
 2945              		@ args = 0, pretend = 0, frame = 0
 2946              		@ frame_needed = 0, uses_anonymous_args = 0
 2947              		@ link register save eliminated.
 2948              	.LVL244:
 836:../../../../../../Middlewares/Third_Party/LoRaWAN/Mac/region/RegionEU868.c **** }
 2949              		.loc 1 836 0
 2950 0000 0120     		movs	r0, #1
 2951              	.LVL245:
 837:../../../../../../Middlewares/Third_Party/LoRaWAN/Mac/region/RegionEU868.c **** 
 2952              		.loc 1 837 0
 2953              		@ sp needed
 2954 0002 4042     		rsbs	r0, r0, #0
 2955 0004 7047     		bx	lr
 2956              		.cfi_endproc
 2957              	.LFE57:
 2958              		.size	RegionEU868TxParamSetupReq, .-RegionEU868TxParamSetupReq
 2959 0006 C046     		.section	.text.RegionEU868DlChannelReq,"ax",%progbits
 2960              		.align	1
 2961              		.p2align 2,,3
 2962              		.global	RegionEU868DlChannelReq
 2963              		.syntax unified
 2964              		.code	16
 2965              		.thumb_func
 2966              		.fpu softvfp
 2967              		.type	RegionEU868DlChannelReq, %function
 2968              	RegionEU868DlChannelReq:
 2969              	.LFB58:
 840:../../../../../../Middlewares/Third_Party/LoRaWAN/Mac/region/RegionEU868.c ****     uint8_t status = 0x03;
ARM GAS  C:\Users\EBANO_~1\AppData\Local\Temp\ccJkfoGk.s 			page 78


 2970              		.loc 1 840 0
 2971              		.cfi_startproc
 2972              		@ args = 0, pretend = 0, frame = 8
 2973              		@ frame_needed = 0, uses_anonymous_args = 0
 2974              	.LVL246:
 2975 0000 30B5     		push	{r4, r5, lr}
 2976              	.LCFI27:
 2977              		.cfi_def_cfa_offset 12
 2978              		.cfi_offset 4, -12
 2979              		.cfi_offset 5, -8
 2980              		.cfi_offset 14, -4
 2981              	.LBB145:
 2982              	.LBB146:
 111:../../../../../../Middlewares/Third_Party/LoRaWAN/Mac/region/RegionEU868.c ****     {
 2983              		.loc 1 111 0
 2984 0002 1C4B     		ldr	r3, .L349
 2985              	.LBE146:
 2986              	.LBE145:
 845:../../../../../../Middlewares/Third_Party/LoRaWAN/Mac/region/RegionEU868.c ****     {
 2987              		.loc 1 845 0
 2988 0004 4568     		ldr	r5, [r0, #4]
 2989              	.LVL247:
 2990              	.LBB151:
 2991              	.LBB149:
 111:../../../../../../Middlewares/Third_Party/LoRaWAN/Mac/region/RegionEU868.c ****     {
 2992              		.loc 1 111 0
 2993 0006 9B6A     		ldr	r3, [r3, #40]
 2994              	.LBE149:
 2995              	.LBE151:
 840:../../../../../../Middlewares/Third_Party/LoRaWAN/Mac/region/RegionEU868.c ****     uint8_t status = 0x03;
 2996              		.loc 1 840 0
 2997 0008 83B0     		sub	sp, sp, #12
 2998              	.LCFI28:
 2999              		.cfi_def_cfa_offset 24
 840:../../../../../../Middlewares/Third_Party/LoRaWAN/Mac/region/RegionEU868.c ****     uint8_t status = 0x03;
 3000              		.loc 1 840 0
 3001 000a 0400     		movs	r4, r0
 3002              	.LBB152:
 3003              	.LBB150:
 111:../../../../../../Middlewares/Third_Party/LoRaWAN/Mac/region/RegionEU868.c ****     {
 3004              		.loc 1 111 0
 3005 000c 2800     		movs	r0, r5
 3006              	.LVL248:
 3007 000e 0193     		str	r3, [sp, #4]
 3008 0010 9847     		blx	r3
 3009              	.LVL249:
 3010 0012 0028     		cmp	r0, #0
 3011 0014 22D0     		beq	.L340
 117:../../../../../../Middlewares/Third_Party/LoRaWAN/Mac/region/RegionEU868.c ****     {
 3012              		.loc 1 117 0
 3013 0016 184B     		ldr	r3, .L349+4
 3014 0018 184A     		ldr	r2, .L349+8
 3015 001a EB18     		adds	r3, r5, r3
 3016 001c 9342     		cmp	r3, r2
 3017 001e 0FD9     		bls	.L341
 129:../../../../../../Middlewares/Third_Party/LoRaWAN/Mac/region/RegionEU868.c ****     {
 3018              		.loc 1 129 0
ARM GAS  C:\Users\EBANO_~1\AppData\Local\Temp\ccJkfoGk.s 			page 79


 3019 0020 174B     		ldr	r3, .L349+12
 3020 0022 184A     		ldr	r2, .L349+16
 3021 0024 EB18     		adds	r3, r5, r3
 3022 0026 9342     		cmp	r3, r2
 3023 0028 0AD9     		bls	.L341
 3024              	.LVL250:
 3025              	.LBB147:
 3026              	.LBB148:
 133:../../../../../../Middlewares/Third_Party/LoRaWAN/Mac/region/RegionEU868.c ****     {
 3027              		.loc 1 133 0
 3028 002a 174B     		ldr	r3, .L349+20
 3029 002c 174A     		ldr	r2, .L349+24
 3030 002e EB18     		adds	r3, r5, r3
 3031 0030 9342     		cmp	r3, r2
 3032 0032 05D9     		bls	.L341
 137:../../../../../../Middlewares/Third_Party/LoRaWAN/Mac/region/RegionEU868.c ****     {
 3033              		.loc 1 137 0
 3034 0034 164B     		ldr	r3, .L349+28
 3035 0036 9C46     		mov	ip, r3
 3036 0038 164B     		ldr	r3, .L349+32
 3037 003a 6544     		add	r5, r5, ip
 3038              	.LVL251:
 3039 003c 9D42     		cmp	r5, r3
 3040 003e 0DD8     		bhi	.L340
 3041              	.LVL252:
 3042              	.L341:
 3043              	.LBE148:
 3044              	.LBE147:
 3045              	.LBE150:
 3046              	.LBE152:
 851:../../../../../../Middlewares/Third_Party/LoRaWAN/Mac/region/RegionEU868.c ****     {
 3047              		.loc 1 851 0
 3048 0040 2178     		ldrb	r1, [r4]
 3049 0042 154A     		ldr	r2, .L349+36
 3050 0044 4B00     		lsls	r3, r1, #1
 3051 0046 5B18     		adds	r3, r3, r1
 3052 0048 9B00     		lsls	r3, r3, #2
 3053 004a 9958     		ldr	r1, [r3, r2]
 3054 004c 0120     		movs	r0, #1
 3055 004e 0029     		cmp	r1, #0
 3056 0050 0DD0     		beq	.L343
 859:../../../../../../Middlewares/Third_Party/LoRaWAN/Mac/region/RegionEU868.c ****     }
 3057              		.loc 1 859 0
 3058 0052 D318     		adds	r3, r2, r3
 3059 0054 6268     		ldr	r2, [r4, #4]
 3060 0056 0320     		movs	r0, #3
 3061 0058 5A60     		str	r2, [r3, #4]
 3062 005a 08E0     		b	.L343
 3063              	.L340:
 3064              	.LVL253:
 851:../../../../../../Middlewares/Third_Party/LoRaWAN/Mac/region/RegionEU868.c ****     {
 3065              		.loc 1 851 0
 3066 005c 2278     		ldrb	r2, [r4]
 3067 005e 5300     		lsls	r3, r2, #1
 3068 0060 9B18     		adds	r3, r3, r2
 3069 0062 0D4A     		ldr	r2, .L349+36
 3070 0064 9B00     		lsls	r3, r3, #2
ARM GAS  C:\Users\EBANO_~1\AppData\Local\Temp\ccJkfoGk.s 			page 80


 3071 0066 9858     		ldr	r0, [r3, r2]
 3072 0068 431E     		subs	r3, r0, #1
 3073 006a 9841     		sbcs	r0, r0, r3
 3074 006c 4000     		lsls	r0, r0, #1
 3075              	.LVL254:
 3076              	.L343:
 863:../../../../../../Middlewares/Third_Party/LoRaWAN/Mac/region/RegionEU868.c **** 
 3077              		.loc 1 863 0
 3078 006e 03B0     		add	sp, sp, #12
 3079              		@ sp needed
 3080              	.LVL255:
 3081 0070 30BD     		pop	{r4, r5, pc}
 3082              	.L350:
 3083 0072 C046     		.align	2
 3084              	.L349:
 3085 0074 00000000 		.word	Radio
 3086 0078 40AA8FCC 		.word	-863000000
 3087 007c 00735500 		.word	5600000
 3088 0080 A0B038CC 		.word	-868700000
 3089 0084 20A10700 		.word	500000
 3090 0088 40022ECC 		.word	-869400000
 3091 008c 90D00300 		.word	250000
 3092 0090 606E29CC 		.word	-869700000
 3093 0094 E0930400 		.word	300000
 3094 0098 00000000 		.word	NvmCtx
 3095              		.cfi_endproc
 3096              	.LFE58:
 3097              		.size	RegionEU868DlChannelReq, .-RegionEU868DlChannelReq
 3098              		.section	.text.RegionEU868AlternateDr,"ax",%progbits
 3099              		.align	1
 3100              		.p2align 2,,3
 3101              		.global	RegionEU868AlternateDr
 3102              		.syntax unified
 3103              		.code	16
 3104              		.thumb_func
 3105              		.fpu softvfp
 3106              		.type	RegionEU868AlternateDr, %function
 3107              	RegionEU868AlternateDr:
 3108              	.LFB59:
 866:../../../../../../Middlewares/Third_Party/LoRaWAN/Mac/region/RegionEU868.c ****     return currentDr;
 3109              		.loc 1 866 0
 3110              		.cfi_startproc
 3111              		@ args = 0, pretend = 0, frame = 0
 3112              		@ frame_needed = 0, uses_anonymous_args = 0
 3113              		@ link register save eliminated.
 3114              	.LVL256:
 868:../../../../../../Middlewares/Third_Party/LoRaWAN/Mac/region/RegionEU868.c **** 
 3115              		.loc 1 868 0
 3116              		@ sp needed
 3117 0000 7047     		bx	lr
 3118              		.cfi_endproc
 3119              	.LFE59:
 3120              		.size	RegionEU868AlternateDr, .-RegionEU868AlternateDr
 3121 0002 C046     		.section	.text.RegionEU868CalcBackOff,"ax",%progbits
 3122              		.align	1
 3123              		.p2align 2,,3
 3124              		.global	RegionEU868CalcBackOff
ARM GAS  C:\Users\EBANO_~1\AppData\Local\Temp\ccJkfoGk.s 			page 81


 3125              		.syntax unified
 3126              		.code	16
 3127              		.thumb_func
 3128              		.fpu softvfp
 3129              		.type	RegionEU868CalcBackOff, %function
 3130              	RegionEU868CalcBackOff:
 3131              	.LFB60:
 871:../../../../../../Middlewares/Third_Party/LoRaWAN/Mac/region/RegionEU868.c ****     RegionCommonCalcBackOffParams_t calcBackOffParams;
 3132              		.loc 1 871 0
 3133              		.cfi_startproc
 3134              		@ args = 0, pretend = 0, frame = 24
 3135              		@ frame_needed = 0, uses_anonymous_args = 0
 3136              	.LVL257:
 3137 0000 00B5     		push	{lr}
 3138              	.LCFI29:
 3139              		.cfi_def_cfa_offset 4
 3140              		.cfi_offset 14, -4
 874:../../../../../../Middlewares/Third_Party/LoRaWAN/Mac/region/RegionEU868.c ****     calcBackOffParams.Bands = NvmCtx.Bands;
 3141              		.loc 1 874 0
 3142 0002 0B4A     		ldr	r2, .L353
 871:../../../../../../Middlewares/Third_Party/LoRaWAN/Mac/region/RegionEU868.c ****     RegionCommonCalcBackOffParams_t calcBackOffParams;
 3143              		.loc 1 871 0
 3144 0004 87B0     		sub	sp, sp, #28
 3145              	.LCFI30:
 3146              		.cfi_def_cfa_offset 32
 874:../../../../../../Middlewares/Third_Party/LoRaWAN/Mac/region/RegionEU868.c ****     calcBackOffParams.Bands = NvmCtx.Bands;
 3147              		.loc 1 874 0
 3148 0006 0192     		str	r2, [sp, #4]
 875:../../../../../../Middlewares/Third_Party/LoRaWAN/Mac/region/RegionEU868.c ****     calcBackOffParams.LastTxIsJoinRequest = calcBackOff->LastTxIsJoinRequest;
 3149              		.loc 1 875 0
 3150 0008 C032     		adds	r2, r2, #192
 3151 000a 0292     		str	r2, [sp, #8]
 876:../../../../../../Middlewares/Third_Party/LoRaWAN/Mac/region/RegionEU868.c ****     calcBackOffParams.Joined = calcBackOff->Joined;
 3152              		.loc 1 876 0
 3153 000c 4278     		ldrb	r2, [r0, #1]
 874:../../../../../../Middlewares/Third_Party/LoRaWAN/Mac/region/RegionEU868.c ****     calcBackOffParams.Bands = NvmCtx.Bands;
 3154              		.loc 1 874 0
 3155 000e 01AB     		add	r3, sp, #4
 876:../../../../../../Middlewares/Third_Party/LoRaWAN/Mac/region/RegionEU868.c ****     calcBackOffParams.Joined = calcBackOff->Joined;
 3156              		.loc 1 876 0
 3157 0010 1A72     		strb	r2, [r3, #8]
 877:../../../../../../Middlewares/Third_Party/LoRaWAN/Mac/region/RegionEU868.c ****     calcBackOffParams.DutyCycleEnabled = calcBackOff->DutyCycleEnabled;
 3158              		.loc 1 877 0
 3159 0012 0278     		ldrb	r2, [r0]
 3160 0014 5A72     		strb	r2, [r3, #9]
 878:../../../../../../Middlewares/Third_Party/LoRaWAN/Mac/region/RegionEU868.c ****     calcBackOffParams.Channel = calcBackOff->Channel;
 3161              		.loc 1 878 0
 3162 0016 8278     		ldrb	r2, [r0, #2]
 3163 0018 9A72     		strb	r2, [r3, #10]
 879:../../../../../../Middlewares/Third_Party/LoRaWAN/Mac/region/RegionEU868.c ****     calcBackOffParams.ElapsedTime = calcBackOff->ElapsedTime;
 3164              		.loc 1 879 0
 3165 001a C278     		ldrb	r2, [r0, #3]
 3166 001c DA72     		strb	r2, [r3, #11]
 880:../../../../../../Middlewares/Third_Party/LoRaWAN/Mac/region/RegionEU868.c ****     calcBackOffParams.TxTimeOnAir = calcBackOff->TxTimeOnAir;
 3167              		.loc 1 880 0
 3168 001e 4268     		ldr	r2, [r0, #4]
 3169 0020 0492     		str	r2, [sp, #16]
ARM GAS  C:\Users\EBANO_~1\AppData\Local\Temp\ccJkfoGk.s 			page 82


 881:../../../../../../Middlewares/Third_Party/LoRaWAN/Mac/region/RegionEU868.c **** 
 3170              		.loc 1 881 0
 3171 0022 8268     		ldr	r2, [r0, #8]
 883:../../../../../../Middlewares/Third_Party/LoRaWAN/Mac/region/RegionEU868.c **** }
 3172              		.loc 1 883 0
 3173 0024 1800     		movs	r0, r3
 3174              	.LVL258:
 881:../../../../../../Middlewares/Third_Party/LoRaWAN/Mac/region/RegionEU868.c **** 
 3175              		.loc 1 881 0
 3176 0026 0592     		str	r2, [sp, #20]
 883:../../../../../../Middlewares/Third_Party/LoRaWAN/Mac/region/RegionEU868.c **** }
 3177              		.loc 1 883 0
 3178 0028 FFF7FEFF 		bl	RegionCommonCalcBackOff
 3179              	.LVL259:
 884:../../../../../../Middlewares/Third_Party/LoRaWAN/Mac/region/RegionEU868.c **** 
 3180              		.loc 1 884 0
 3181 002c 07B0     		add	sp, sp, #28
 3182              		@ sp needed
 3183 002e 00BD     		pop	{pc}
 3184              	.L354:
 3185              		.align	2
 3186              	.L353:
 3187 0030 00000000 		.word	NvmCtx
 3188              		.cfi_endproc
 3189              	.LFE60:
 3190              		.size	RegionEU868CalcBackOff, .-RegionEU868CalcBackOff
 3191              		.section	.text.RegionEU868NextChannel,"ax",%progbits
 3192              		.align	1
 3193              		.p2align 2,,3
 3194              		.global	RegionEU868NextChannel
 3195              		.syntax unified
 3196              		.code	16
 3197              		.thumb_func
 3198              		.fpu softvfp
 3199              		.type	RegionEU868NextChannel, %function
 3200              	RegionEU868NextChannel:
 3201              	.LFB61:
 887:../../../../../../Middlewares/Third_Party/LoRaWAN/Mac/region/RegionEU868.c ****     uint8_t nbEnabledChannels = 0;
 3202              		.loc 1 887 0
 3203              		.cfi_startproc
 3204              		@ args = 0, pretend = 0, frame = 40
 3205              		@ frame_needed = 0, uses_anonymous_args = 0
 3206              	.LVL260:
 3207 0000 F0B5     		push	{r4, r5, r6, r7, lr}
 3208              	.LCFI31:
 3209              		.cfi_def_cfa_offset 20
 3210              		.cfi_offset 4, -20
 3211              		.cfi_offset 5, -16
 3212              		.cfi_offset 6, -12
 3213              		.cfi_offset 7, -8
 3214              		.cfi_offset 14, -4
 3215 0002 DE46     		mov	lr, fp
 3216 0004 4E46     		mov	r6, r9
 3217 0006 4546     		mov	r5, r8
 3218 0008 5746     		mov	r7, r10
 3219 000a E0B5     		push	{r5, r6, r7, lr}
 3220              	.LCFI32:
ARM GAS  C:\Users\EBANO_~1\AppData\Local\Temp\ccJkfoGk.s 			page 83


 3221              		.cfi_def_cfa_offset 36
 3222              		.cfi_offset 8, -36
 3223              		.cfi_offset 9, -32
 3224              		.cfi_offset 10, -28
 3225              		.cfi_offset 11, -24
 3226 000c 8BB0     		sub	sp, sp, #44
 3227              	.LCFI33:
 3228              		.cfi_def_cfa_offset 80
 887:../../../../../../Middlewares/Third_Party/LoRaWAN/Mac/region/RegionEU868.c ****     uint8_t nbEnabledChannels = 0;
 3229              		.loc 1 887 0
 3230 000e 0491     		str	r1, [sp, #16]
 3231 0010 0400     		movs	r4, r0
 890:../../../../../../Middlewares/Third_Party/LoRaWAN/Mac/region/RegionEU868.c ****     TimerTime_t nextTxDelay = 0;
 3232              		.loc 1 890 0
 3233 0012 0021     		movs	r1, #0
 3234              	.LVL261:
 887:../../../../../../Middlewares/Third_Party/LoRaWAN/Mac/region/RegionEU868.c ****     uint8_t nbEnabledChannels = 0;
 3235              		.loc 1 887 0
 3236 0014 9346     		mov	fp, r2
 890:../../../../../../Middlewares/Third_Party/LoRaWAN/Mac/region/RegionEU868.c ****     TimerTime_t nextTxDelay = 0;
 3237              		.loc 1 890 0
 3238 0016 06A8     		add	r0, sp, #24
 3239              	.LVL262:
 3240 0018 1022     		movs	r2, #16
 3241              	.LVL263:
 887:../../../../../../Middlewares/Third_Party/LoRaWAN/Mac/region/RegionEU868.c ****     uint8_t nbEnabledChannels = 0;
 3242              		.loc 1 887 0
 3243 001a 1E00     		movs	r6, r3
 890:../../../../../../Middlewares/Third_Party/LoRaWAN/Mac/region/RegionEU868.c ****     TimerTime_t nextTxDelay = 0;
 3244              		.loc 1 890 0
 3245 001c FFF7FEFF 		bl	memset
 3246              	.LVL264:
 893:../../../../../../Middlewares/Third_Party/LoRaWAN/Mac/region/RegionEU868.c ****     { // Reactivate default channels
 3247              		.loc 1 893 0
 3248 0020 674D     		ldr	r5, .L394
 3249 0022 0122     		movs	r2, #1
 3250 0024 0021     		movs	r1, #0
 3251 0026 2800     		movs	r0, r5
 3252 0028 FFF7FEFF 		bl	RegionCommonCountChannels
 3253              	.LVL265:
 3254 002c 0028     		cmp	r0, #0
 3255 002e 07D1     		bne	.L356
 895:../../../../../../Middlewares/Third_Party/LoRaWAN/Mac/region/RegionEU868.c ****     }
 3256              		.loc 1 895 0
 3257 0030 8822     		movs	r2, #136
 3258 0032 0721     		movs	r1, #7
 3259 0034 113D     		subs	r5, r5, #17
 3260 0036 FF3D     		subs	r5, r5, #255
 3261 0038 5200     		lsls	r2, r2, #1
 3262 003a AB5A     		ldrh	r3, [r5, r2]
 3263 003c 0B43     		orrs	r3, r1
 3264 003e AB52     		strh	r3, [r5, r2]
 3265              	.L356:
 898:../../../../../../Middlewares/Third_Party/LoRaWAN/Mac/region/RegionEU868.c ****     {
 3266              		.loc 1 898 0
 3267 0040 6068     		ldr	r0, [r4, #4]
 3268 0042 2568     		ldr	r5, [r4]
ARM GAS  C:\Users\EBANO_~1\AppData\Local\Temp\ccJkfoGk.s 			page 84


 3269 0044 FFF7FEFF 		bl	TimerGetElapsedTime
 3270              	.LVL266:
 3271 0048 8542     		cmp	r5, r0
 3272 004a 64D8     		bhi	.L357
 901:../../../../../../Middlewares/Third_Party/LoRaWAN/Mac/region/RegionEU868.c **** 
 3273              		.loc 1 901 0
 3274 004c 0023     		movs	r3, #0
 904:../../../../../../Middlewares/Third_Party/LoRaWAN/Mac/region/RegionEU868.c **** 
 3275              		.loc 1 904 0
 3276 004e 5D4D     		ldr	r5, .L394+4
 901:../../../../../../Middlewares/Third_Party/LoRaWAN/Mac/region/RegionEU868.c **** 
 3277              		.loc 1 901 0
 3278 0050 3360     		str	r3, [r6]
 904:../../../../../../Middlewares/Third_Party/LoRaWAN/Mac/region/RegionEU868.c **** 
 3279              		.loc 1 904 0
 3280 0052 A17A     		ldrb	r1, [r4, #10]
 3281 0054 0533     		adds	r3, r3, #5
 3282 0056 607A     		ldrb	r0, [r4, #9]
 3283 0058 2A00     		movs	r2, r5
 3284 005a FFF7FEFF 		bl	RegionCommonUpdateBandTimeOff
 3285              	.LVL267:
 907:../../../../../../Middlewares/Third_Party/LoRaWAN/Mac/region/RegionEU868.c ****                                                       NvmCtx.ChannelsMask, NvmCtx.Channels,
 3286              		.loc 1 907 0
 3287 005e 0823     		movs	r3, #8
 904:../../../../../../Middlewares/Third_Party/LoRaWAN/Mac/region/RegionEU868.c **** 
 3288              		.loc 1 904 0
 3289 0060 0390     		str	r0, [sp, #12]
 3290              	.LVL268:
 907:../../../../../../Middlewares/Third_Party/LoRaWAN/Mac/region/RegionEU868.c ****                                                       NvmCtx.ChannelsMask, NvmCtx.Channels,
 3291              		.loc 1 907 0
 3292 0062 E356     		ldrsb	r3, [r4, r3]
 3293 0064 0193     		str	r3, [sp, #4]
 3294              	.LVL269:
 3295 0066 637A     		ldrb	r3, [r4, #9]
 3296 0068 002B     		cmp	r3, #0
 3297 006a 5FD1     		bne	.L358
 3298              	.LBB157:
 3299              	.LBB158:
 151:../../../../../../Middlewares/Third_Party/LoRaWAN/Mac/region/RegionEU868.c **** 
 3300              		.loc 1 151 0
 3301 006c 0293     		str	r3, [sp, #8]
 150:../../../../../../Middlewares/Third_Party/LoRaWAN/Mac/region/RegionEU868.c ****     uint8_t delayTransmission = 0;
 3302              		.loc 1 150 0
 3303 006e 9846     		mov	r8, r3
 3304              	.LBB159:
 3305              	.LBB160:
 157:../../../../../../Middlewares/Third_Party/LoRaWAN/Mac/region/RegionEU868.c ****             {
 3306              		.loc 1 157 0
 3307 0070 1133     		adds	r3, r3, #17
 3308 0072 C03D     		subs	r5, r5, #192
 3309              	.LVL270:
 3310 0074 FF33     		adds	r3, r3, #255
 3311              	.LBE160:
 3312              	.LBE159:
 3313              	.LBE158:
 3314              	.LBE157:
 907:../../../../../../Middlewares/Third_Party/LoRaWAN/Mac/region/RegionEU868.c ****                                                       NvmCtx.ChannelsMask, NvmCtx.Channels,
ARM GAS  C:\Users\EBANO_~1\AppData\Local\Temp\ccJkfoGk.s 			page 85


 3315              		.loc 1 907 0
 3316 0076 0024     		movs	r4, #0
 3317              	.LVL271:
 3318 0078 2E00     		movs	r6, r5
 3319              	.LVL272:
 3320              	.LBB170:
 3321              	.LBB167:
 3322              	.LBB164:
 3323              	.LBB161:
 157:../../../../../../Middlewares/Third_Party/LoRaWAN/Mac/region/RegionEU868.c ****             {
 3324              		.loc 1 157 0
 3325 007a 9A46     		mov	r10, r3
 3326 007c 0127     		movs	r7, #1
 3327 007e 0BE0     		b	.L361
 3328              	.LVL273:
 3329              	.L360:
 180:../../../../../../Middlewares/Third_Party/LoRaWAN/Mac/region/RegionEU868.c ****             }
 3330              		.loc 1 180 0
 3331 0080 4346     		mov	r3, r8
 3332 0082 0133     		adds	r3, r3, #1
 3333              	.LVL274:
 3334 0084 4146     		mov	r1, r8
 3335 0086 4846     		mov	r0, r9
 3336 0088 DBB2     		uxtb	r3, r3
 3337 008a 9846     		mov	r8, r3
 3338 008c 06AA     		add	r2, sp, #24
 3339              	.LVL275:
 3340 008e 5054     		strb	r0, [r2, r1]
 3341              	.LVL276:
 3342              	.L359:
 3343 0090 0134     		adds	r4, r4, #1
 3344              	.LVL277:
 3345 0092 0C35     		adds	r5, r5, #12
 155:../../../../../../Middlewares/Third_Party/LoRaWAN/Mac/region/RegionEU868.c ****         {
 3346              		.loc 1 155 0
 3347 0094 102C     		cmp	r4, #16
 3348 0096 27D0     		beq	.L362
 3349              	.LVL278:
 3350              	.L361:
 3351 0098 E3B2     		uxtb	r3, r4
 3352 009a 9946     		mov	r9, r3
 3353              	.LVL279:
 157:../../../../../../Middlewares/Third_Party/LoRaWAN/Mac/region/RegionEU868.c ****             {
 3354              		.loc 1 157 0
 3355 009c 5346     		mov	r3, r10
 3356 009e F35A     		ldrh	r3, [r6, r3]
 3357 00a0 2341     		asrs	r3, r3, r4
 3358 00a2 1F42     		tst	r7, r3
 3359 00a4 F4D0     		beq	.L359
 159:../../../../../../Middlewares/Third_Party/LoRaWAN/Mac/region/RegionEU868.c ****                 { // Check if the channel is enabled
 3360              		.loc 1 159 0
 3361 00a6 2B68     		ldr	r3, [r5]
 3362 00a8 002B     		cmp	r3, #0
 3363 00aa F1D0     		beq	.L359
 165:../../../../../../Middlewares/Third_Party/LoRaWAN/Mac/region/RegionEU868.c ****                     {
 3364              		.loc 1 165 0
 3365 00ac 0723     		movs	r3, #7
ARM GAS  C:\Users\EBANO_~1\AppData\Local\Temp\ccJkfoGk.s 			page 86


 3366 00ae 2341     		asrs	r3, r3, r4
 3367 00b0 1F42     		tst	r7, r3
 3368 00b2 EDD0     		beq	.L359
 171:../../../../../../Middlewares/Third_Party/LoRaWAN/Mac/region/RegionEU868.c ****                 { // Check if the current channel selection supports the given datarate
 3369              		.loc 1 171 0
 3370 00b4 297A     		ldrb	r1, [r5, #8]
 170:../../../../../../Middlewares/Third_Party/LoRaWAN/Mac/region/RegionEU868.c ****                                               channels[i + j].DrRange.Fields.Max ) == false )
 3371              		.loc 1 170 0
 3372 00b6 0198     		ldr	r0, [sp, #4]
 171:../../../../../../Middlewares/Third_Party/LoRaWAN/Mac/region/RegionEU868.c ****                 { // Check if the current channel selection supports the given datarate
 3373              		.loc 1 171 0
 3374 00b8 4AB2     		sxtb	r2, r1
 170:../../../../../../Middlewares/Third_Party/LoRaWAN/Mac/region/RegionEU868.c ****                                               channels[i + j].DrRange.Fields.Max ) == false )
 3375              		.loc 1 170 0
 3376 00ba 0907     		lsls	r1, r1, #28
 3377 00bc 1211     		asrs	r2, r2, #4
 3378 00be 0917     		asrs	r1, r1, #28
 3379 00c0 FFF7FEFF 		bl	RegionCommonValueInRange
 3380              	.LVL280:
 3381 00c4 0028     		cmp	r0, #0
 3382 00c6 E3D0     		beq	.L359
 175:../../../../../../Middlewares/Third_Party/LoRaWAN/Mac/region/RegionEU868.c ****                 { // Check if the band is available for transmission
 3383              		.loc 1 175 0
 3384 00c8 3200     		movs	r2, r6
 3385 00ca 6B7A     		ldrb	r3, [r5, #9]
 3386 00cc C032     		adds	r2, r2, #192
 3387 00ce 1B01     		lsls	r3, r3, #4
 3388 00d0 9B18     		adds	r3, r3, r2
 3389 00d2 DB68     		ldr	r3, [r3, #12]
 3390 00d4 002B     		cmp	r3, #0
 3391 00d6 D3D0     		beq	.L360
 177:../../../../../../Middlewares/Third_Party/LoRaWAN/Mac/region/RegionEU868.c ****                     continue;
 3392              		.loc 1 177 0
 3393 00d8 029B     		ldr	r3, [sp, #8]
 3394 00da 0134     		adds	r4, r4, #1
 3395 00dc 0133     		adds	r3, r3, #1
 3396 00de DBB2     		uxtb	r3, r3
 3397 00e0 0293     		str	r3, [sp, #8]
 3398              	.LVL281:
 3399 00e2 0C35     		adds	r5, r5, #12
 155:../../../../../../Middlewares/Third_Party/LoRaWAN/Mac/region/RegionEU868.c ****         {
 3400              		.loc 1 155 0
 3401 00e4 102C     		cmp	r4, #16
 3402 00e6 D7D1     		bne	.L361
 3403              	.LVL282:
 3404              	.L362:
 3405              	.LBE161:
 3406              	.LBE164:
 3407              	.LBE167:
 3408              	.LBE170:
 917:../../../../../../Middlewares/Third_Party/LoRaWAN/Mac/region/RegionEU868.c ****     {
 3409              		.loc 1 917 0
 3410 00e8 4346     		mov	r3, r8
 3411 00ea 002B     		cmp	r3, #0
 3412 00ec 5AD1     		bne	.L393
 927:../../../../../../Middlewares/Third_Party/LoRaWAN/Mac/region/RegionEU868.c ****         {
 3413              		.loc 1 927 0
ARM GAS  C:\Users\EBANO_~1\AppData\Local\Temp\ccJkfoGk.s 			page 87


 3414 00ee 029B     		ldr	r3, [sp, #8]
 3415 00f0 002B     		cmp	r3, #0
 3416 00f2 16D1     		bne	.L369
 934:../../../../../../Middlewares/Third_Party/LoRaWAN/Mac/region/RegionEU868.c ****         *time = 0;
 3417              		.loc 1 934 0
 3418 00f4 8822     		movs	r2, #136
 3419 00f6 0721     		movs	r1, #7
 3420 00f8 5200     		lsls	r2, r2, #1
 3421 00fa B35A     		ldrh	r3, [r6, r2]
 936:../../../../../../Middlewares/Third_Party/LoRaWAN/Mac/region/RegionEU868.c ****     }
 3422              		.loc 1 936 0
 3423 00fc 0C20     		movs	r0, #12
 934:../../../../../../Middlewares/Third_Party/LoRaWAN/Mac/region/RegionEU868.c ****         *time = 0;
 3424              		.loc 1 934 0
 3425 00fe 0B43     		orrs	r3, r1
 3426 0100 B352     		strh	r3, [r6, r2]
 935:../../../../../../Middlewares/Third_Party/LoRaWAN/Mac/region/RegionEU868.c ****         return LORAMAC_STATUS_NO_CHANNEL_FOUND;
 3427              		.loc 1 935 0
 3428 0102 5B46     		mov	r3, fp
 3429 0104 029A     		ldr	r2, [sp, #8]
 3430 0106 1A60     		str	r2, [r3]
 3431              	.LVL283:
 3432              	.L370:
 938:../../../../../../Middlewares/Third_Party/LoRaWAN/Mac/region/RegionEU868.c **** 
 3433              		.loc 1 938 0
 3434 0108 0BB0     		add	sp, sp, #44
 3435              		@ sp needed
 3436              	.LVL284:
 3437 010a 3CBC     		pop	{r2, r3, r4, r5}
 3438 010c 9046     		mov	r8, r2
 3439 010e 9946     		mov	r9, r3
 3440 0110 A246     		mov	r10, r4
 3441 0112 AB46     		mov	fp, r5
 3442 0114 F0BD     		pop	{r4, r5, r6, r7, pc}
 3443              	.LVL285:
 3444              	.L357:
 914:../../../../../../Middlewares/Third_Party/LoRaWAN/Mac/region/RegionEU868.c ****     }
 3445              		.loc 1 914 0
 3446 0116 6068     		ldr	r0, [r4, #4]
 3447 0118 2568     		ldr	r5, [r4]
 3448 011a FFF7FEFF 		bl	TimerGetElapsedTime
 3449              	.LVL286:
 3450 011e 2B1A     		subs	r3, r5, r0
 3451 0120 0393     		str	r3, [sp, #12]
 3452              	.LVL287:
 3453              	.L369:
 930:../../../../../../Middlewares/Third_Party/LoRaWAN/Mac/region/RegionEU868.c ****             return LORAMAC_STATUS_DUTYCYCLE_RESTRICTED;
 3454              		.loc 1 930 0
 3455 0122 5B46     		mov	r3, fp
 3456 0124 039A     		ldr	r2, [sp, #12]
 931:../../../../../../Middlewares/Third_Party/LoRaWAN/Mac/region/RegionEU868.c ****         }
 3457              		.loc 1 931 0
 3458 0126 0B20     		movs	r0, #11
 930:../../../../../../Middlewares/Third_Party/LoRaWAN/Mac/region/RegionEU868.c ****             return LORAMAC_STATUS_DUTYCYCLE_RESTRICTED;
 3459              		.loc 1 930 0
 3460 0128 1A60     		str	r2, [r3]
 931:../../../../../../Middlewares/Third_Party/LoRaWAN/Mac/region/RegionEU868.c ****         }
ARM GAS  C:\Users\EBANO_~1\AppData\Local\Temp\ccJkfoGk.s 			page 88


 3461              		.loc 1 931 0
 3462 012a EDE7     		b	.L370
 3463              	.LVL288:
 3464              	.L358:
 3465              	.LBB171:
 3466              	.LBB168:
 151:../../../../../../Middlewares/Third_Party/LoRaWAN/Mac/region/RegionEU868.c **** 
 3467              		.loc 1 151 0
 3468 012c 0023     		movs	r3, #0
 3469 012e 2F00     		movs	r7, r5
 3470 0130 0293     		str	r3, [sp, #8]
 150:../../../../../../Middlewares/Third_Party/LoRaWAN/Mac/region/RegionEU868.c ****     uint8_t delayTransmission = 0;
 3471              		.loc 1 150 0
 3472 0132 9846     		mov	r8, r3
 3473              	.LBB165:
 3474              	.LBB162:
 157:../../../../../../Middlewares/Third_Party/LoRaWAN/Mac/region/RegionEU868.c ****             {
 3475              		.loc 1 157 0
 3476 0134 1133     		adds	r3, r3, #17
 3477 0136 FF33     		adds	r3, r3, #255
 3478 0138 9A46     		mov	r10, r3
 3479 013a 103B     		subs	r3, r3, #16
 3480 013c C03F     		subs	r7, r7, #192
 3481 013e FF3B     		subs	r3, r3, #255
 3482              	.LBE162:
 3483              	.LBE165:
 3484              	.LBE168:
 3485              	.LBE171:
 907:../../../../../../Middlewares/Third_Party/LoRaWAN/Mac/region/RegionEU868.c ****                                                       NvmCtx.ChannelsMask, NvmCtx.Channels,
 3486              		.loc 1 907 0
 3487 0140 0024     		movs	r4, #0
 3488              	.LVL289:
 3489 0142 3E00     		movs	r6, r7
 3490              	.LVL290:
 3491              	.LBB172:
 3492              	.LBB169:
 3493              	.LBB166:
 3494              	.LBB163:
 157:../../../../../../Middlewares/Third_Party/LoRaWAN/Mac/region/RegionEU868.c ****             {
 3495              		.loc 1 157 0
 3496 0144 9946     		mov	r9, r3
 175:../../../../../../Middlewares/Third_Party/LoRaWAN/Mac/region/RegionEU868.c ****                 { // Check if the band is available for transmission
 3497              		.loc 1 175 0
 3498 0146 0595     		str	r5, [sp, #20]
 3499 0148 03E0     		b	.L364
 3500              	.LVL291:
 3501              	.L365:
 3502 014a 0134     		adds	r4, r4, #1
 3503              	.LVL292:
 3504 014c 0C37     		adds	r7, r7, #12
 155:../../../../../../Middlewares/Third_Party/LoRaWAN/Mac/region/RegionEU868.c ****         {
 3505              		.loc 1 155 0
 3506 014e 102C     		cmp	r4, #16
 3507 0150 CAD0     		beq	.L362
 3508              	.LVL293:
 3509              	.L364:
 157:../../../../../../Middlewares/Third_Party/LoRaWAN/Mac/region/RegionEU868.c ****             {
ARM GAS  C:\Users\EBANO_~1\AppData\Local\Temp\ccJkfoGk.s 			page 89


 3510              		.loc 1 157 0
 3511 0152 5346     		mov	r3, r10
 3512 0154 F35A     		ldrh	r3, [r6, r3]
 3513 0156 4A46     		mov	r2, r9
 3514 0158 2341     		asrs	r3, r3, r4
 3515 015a E5B2     		uxtb	r5, r4
 3516              	.LVL294:
 3517 015c 1A42     		tst	r2, r3
 3518 015e F4D0     		beq	.L365
 159:../../../../../../Middlewares/Third_Party/LoRaWAN/Mac/region/RegionEU868.c ****                 { // Check if the channel is enabled
 3519              		.loc 1 159 0
 3520 0160 3B68     		ldr	r3, [r7]
 3521 0162 002B     		cmp	r3, #0
 3522 0164 F1D0     		beq	.L365
 171:../../../../../../Middlewares/Third_Party/LoRaWAN/Mac/region/RegionEU868.c ****                 { // Check if the current channel selection supports the given datarate
 3523              		.loc 1 171 0
 3524 0166 397A     		ldrb	r1, [r7, #8]
 170:../../../../../../Middlewares/Third_Party/LoRaWAN/Mac/region/RegionEU868.c ****                                               channels[i + j].DrRange.Fields.Max ) == false )
 3525              		.loc 1 170 0
 3526 0168 0198     		ldr	r0, [sp, #4]
 171:../../../../../../Middlewares/Third_Party/LoRaWAN/Mac/region/RegionEU868.c ****                 { // Check if the current channel selection supports the given datarate
 3527              		.loc 1 171 0
 3528 016a 4AB2     		sxtb	r2, r1
 170:../../../../../../Middlewares/Third_Party/LoRaWAN/Mac/region/RegionEU868.c ****                                               channels[i + j].DrRange.Fields.Max ) == false )
 3529              		.loc 1 170 0
 3530 016c 0907     		lsls	r1, r1, #28
 3531 016e 1211     		asrs	r2, r2, #4
 3532 0170 0917     		asrs	r1, r1, #28
 3533 0172 FFF7FEFF 		bl	RegionCommonValueInRange
 3534              	.LVL295:
 3535 0176 0028     		cmp	r0, #0
 3536 0178 E7D0     		beq	.L365
 175:../../../../../../Middlewares/Third_Party/LoRaWAN/Mac/region/RegionEU868.c ****                 { // Check if the band is available for transmission
 3537              		.loc 1 175 0
 3538 017a 059A     		ldr	r2, [sp, #20]
 3539 017c 7B7A     		ldrb	r3, [r7, #9]
 3540 017e 9446     		mov	ip, r2
 3541 0180 1B01     		lsls	r3, r3, #4
 3542 0182 6344     		add	r3, r3, ip
 3543 0184 DB68     		ldr	r3, [r3, #12]
 3544 0186 002B     		cmp	r3, #0
 3545 0188 07D1     		bne	.L366
 180:../../../../../../Middlewares/Third_Party/LoRaWAN/Mac/region/RegionEU868.c ****             }
 3546              		.loc 1 180 0
 3547 018a 4346     		mov	r3, r8
 3548 018c 4146     		mov	r1, r8
 3549 018e 0133     		adds	r3, r3, #1
 3550              	.LVL296:
 3551 0190 06AA     		add	r2, sp, #24
 3552              	.LVL297:
 3553 0192 DBB2     		uxtb	r3, r3
 3554 0194 5554     		strb	r5, [r2, r1]
 3555 0196 9846     		mov	r8, r3
 3556 0198 D7E7     		b	.L365
 3557              	.LVL298:
 3558              	.L366:
 177:../../../../../../Middlewares/Third_Party/LoRaWAN/Mac/region/RegionEU868.c ****                     continue;
ARM GAS  C:\Users\EBANO_~1\AppData\Local\Temp\ccJkfoGk.s 			page 90


 3559              		.loc 1 177 0
 3560 019a 029B     		ldr	r3, [sp, #8]
 3561 019c 0133     		adds	r3, r3, #1
 3562 019e DBB2     		uxtb	r3, r3
 3563 01a0 0293     		str	r3, [sp, #8]
 3564              	.LVL299:
 3565 01a2 D2E7     		b	.L365
 3566              	.LVL300:
 3567              	.L393:
 3568              	.LBE163:
 3569              	.LBE166:
 3570              	.LBE169:
 3571              	.LBE172:
 920:../../../../../../Middlewares/Third_Party/LoRaWAN/Mac/region/RegionEU868.c **** 
 3572              		.loc 1 920 0
 3573 01a4 4146     		mov	r1, r8
 3574 01a6 0020     		movs	r0, #0
 3575 01a8 0139     		subs	r1, r1, #1
 3576 01aa FFF7FEFF 		bl	randr
 3577              	.LVL301:
 3578 01ae 06AB     		add	r3, sp, #24
 3579 01b0 1B5C     		ldrb	r3, [r3, r0]
 3580 01b2 049A     		ldr	r2, [sp, #16]
 923:../../../../../../Middlewares/Third_Party/LoRaWAN/Mac/region/RegionEU868.c ****     }
 3581              		.loc 1 923 0
 3582 01b4 0020     		movs	r0, #0
 920:../../../../../../Middlewares/Third_Party/LoRaWAN/Mac/region/RegionEU868.c **** 
 3583              		.loc 1 920 0
 3584 01b6 1370     		strb	r3, [r2]
 922:../../../../../../Middlewares/Third_Party/LoRaWAN/Mac/region/RegionEU868.c ****         return LORAMAC_STATUS_OK;
 3585              		.loc 1 922 0
 3586 01b8 0023     		movs	r3, #0
 3587 01ba 5A46     		mov	r2, fp
 3588 01bc 1360     		str	r3, [r2]
 923:../../../../../../Middlewares/Third_Party/LoRaWAN/Mac/region/RegionEU868.c ****     }
 3589              		.loc 1 923 0
 3590 01be A3E7     		b	.L370
 3591              	.L395:
 3592              		.align	2
 3593              	.L394:
 3594 01c0 10010000 		.word	NvmCtx+272
 3595 01c4 C0000000 		.word	NvmCtx+192
 3596              		.cfi_endproc
 3597              	.LFE61:
 3598              		.size	RegionEU868NextChannel, .-RegionEU868NextChannel
 3599              		.section	.text.RegionEU868ChannelAdd,"ax",%progbits
 3600              		.align	1
 3601              		.p2align 2,,3
 3602              		.global	RegionEU868ChannelAdd
 3603              		.syntax unified
 3604              		.code	16
 3605              		.thumb_func
 3606              		.fpu softvfp
 3607              		.type	RegionEU868ChannelAdd, %function
 3608              	RegionEU868ChannelAdd:
 3609              	.LFB62:
 941:../../../../../../Middlewares/Third_Party/LoRaWAN/Mac/region/RegionEU868.c ****     uint8_t band = 0;
ARM GAS  C:\Users\EBANO_~1\AppData\Local\Temp\ccJkfoGk.s 			page 91


 3610              		.loc 1 941 0
 3611              		.cfi_startproc
 3612              		@ args = 0, pretend = 0, frame = 8
 3613              		@ frame_needed = 0, uses_anonymous_args = 0
 3614              	.LVL302:
 3615 0000 F0B5     		push	{r4, r5, r6, r7, lr}
 3616              	.LCFI34:
 3617              		.cfi_def_cfa_offset 20
 3618              		.cfi_offset 4, -20
 3619              		.cfi_offset 5, -16
 3620              		.cfi_offset 6, -12
 3621              		.cfi_offset 7, -8
 3622              		.cfi_offset 14, -4
 945:../../../../../../Middlewares/Third_Party/LoRaWAN/Mac/region/RegionEU868.c **** 
 3623              		.loc 1 945 0
 3624 0002 0579     		ldrb	r5, [r0, #4]
 3625              	.LVL303:
 941:../../../../../../Middlewares/Third_Party/LoRaWAN/Mac/region/RegionEU868.c ****     uint8_t band = 0;
 3626              		.loc 1 941 0
 3627 0004 83B0     		sub	sp, sp, #12
 3628              	.LCFI35:
 3629              		.cfi_def_cfa_offset 32
 941:../../../../../../Middlewares/Third_Party/LoRaWAN/Mac/region/RegionEU868.c ****     uint8_t band = 0;
 3630              		.loc 1 941 0
 3631 0006 0400     		movs	r4, r0
 947:../../../../../../Middlewares/Third_Party/LoRaWAN/Mac/region/RegionEU868.c ****     {
 3632              		.loc 1 947 0
 3633 0008 022D     		cmp	r5, #2
 3634 000a 4CD9     		bls	.L406
 954:../../../../../../Middlewares/Third_Party/LoRaWAN/Mac/region/RegionEU868.c ****     }
 3635              		.loc 1 954 0
 3636 000c 0320     		movs	r0, #3
 3637              	.LVL304:
 952:../../../../../../Middlewares/Third_Party/LoRaWAN/Mac/region/RegionEU868.c ****     {
 3638              		.loc 1 952 0
 3639 000e 0F2D     		cmp	r5, #15
 3640 0010 47D8     		bhi	.L424
 958:../../../../../../Middlewares/Third_Party/LoRaWAN/Mac/region/RegionEU868.c ****     {
 3641              		.loc 1 958 0
 3642 0012 2368     		ldr	r3, [r4]
 3643 0014 0722     		movs	r2, #7
 3644 0016 187A     		ldrb	r0, [r3, #8]
 3645 0018 0021     		movs	r1, #0
 3646 001a 0007     		lsls	r0, r0, #28
 3647 001c 0017     		asrs	r0, r0, #28
 3648 001e FFF7FEFF 		bl	RegionCommonValueInRange
 3649              	.LVL305:
 3650 0022 0600     		movs	r6, r0
 3651              	.LVL306:
 962:../../../../../../Middlewares/Third_Party/LoRaWAN/Mac/region/RegionEU868.c ****     {
 3652              		.loc 1 962 0
 3653 0024 0820     		movs	r0, #8
 3654 0026 2368     		ldr	r3, [r4]
 3655 0028 0722     		movs	r2, #7
 3656 002a 1856     		ldrsb	r0, [r3, r0]
 3657 002c 0021     		movs	r1, #0
 3658 002e 0011     		asrs	r0, r0, #4
ARM GAS  C:\Users\EBANO_~1\AppData\Local\Temp\ccJkfoGk.s 			page 92


 3659 0030 FFF7FEFF 		bl	RegionCommonValueInRange
 3660              	.LVL307:
 964:../../../../../../Middlewares/Third_Party/LoRaWAN/Mac/region/RegionEU868.c ****     }
 3661              		.loc 1 964 0
 3662 0034 0127     		movs	r7, #1
 962:../../../../../../Middlewares/Third_Party/LoRaWAN/Mac/region/RegionEU868.c ****     {
 3663              		.loc 1 962 0
 3664 0036 0028     		cmp	r0, #0
 3665 0038 4CD1     		bne	.L429
 3666              	.LVL308:
 3667              	.L399:
 966:../../../../../../Middlewares/Third_Party/LoRaWAN/Mac/region/RegionEU868.c ****     {
 3668              		.loc 1 966 0
 3669 003a 2368     		ldr	r3, [r4]
 3670 003c 364A     		ldr	r2, .L432
 3671 003e 1E68     		ldr	r6, [r3]
 3672 0040 926A     		ldr	r2, [r2, #40]
 3673 0042 1B7A     		ldrb	r3, [r3, #8]
 3674 0044 0192     		str	r2, [sp, #4]
 3675 0046 1A07     		lsls	r2, r3, #28
 3676 0048 5BB2     		sxtb	r3, r3
 3677 004a 1217     		asrs	r2, r2, #28
 3678 004c 1B11     		asrs	r3, r3, #4
 3679              	.LBB177:
 3680              	.LBB178:
 111:../../../../../../Middlewares/Third_Party/LoRaWAN/Mac/region/RegionEU868.c ****     {
 3681              		.loc 1 111 0
 3682 004e 3000     		movs	r0, r6
 3683              	.LBE178:
 3684              	.LBE177:
 966:../../../../../../Middlewares/Third_Party/LoRaWAN/Mac/region/RegionEU868.c ****     {
 3685              		.loc 1 966 0
 3686 0050 9A42     		cmp	r2, r3
 3687 0052 2ADD     		ble	.L430
 3688              	.LVL309:
 3689              	.LBB188:
 3690              	.LBB183:
 111:../../../../../../Middlewares/Third_Party/LoRaWAN/Mac/region/RegionEU868.c ****     {
 3691              		.loc 1 111 0
 3692 0054 019B     		ldr	r3, [sp, #4]
 3693 0056 9847     		blx	r3
 3694              	.LVL310:
 3695 0058 071E     		subs	r7, r0, #0
 3696 005a 24D0     		beq	.L406
 117:../../../../../../Middlewares/Third_Party/LoRaWAN/Mac/region/RegionEU868.c ****     {
 3697              		.loc 1 117 0
 3698 005c 2F4B     		ldr	r3, .L432+4
 3699 005e 304A     		ldr	r2, .L432+8
 3700 0060 F318     		adds	r3, r6, r3
 3701              	.LBE183:
 3702              	.LBE188:
 987:../../../../../../Middlewares/Third_Party/LoRaWAN/Mac/region/RegionEU868.c ****     }
 3703              		.loc 1 987 0
 3704 0062 0520     		movs	r0, #5
 3705              	.LBB189:
 3706              	.LBB184:
 117:../../../../../../Middlewares/Third_Party/LoRaWAN/Mac/region/RegionEU868.c ****     {
ARM GAS  C:\Users\EBANO_~1\AppData\Local\Temp\ccJkfoGk.s 			page 93


 3707              		.loc 1 117 0
 3708 0064 9342     		cmp	r3, r2
 3709 0066 1CD9     		bls	.L424
 121:../../../../../../Middlewares/Third_Party/LoRaWAN/Mac/region/RegionEU868.c ****     {
 3710              		.loc 1 121 0
 3711 0068 2E4B     		ldr	r3, .L432+12
 3712 006a 2F4A     		ldr	r2, .L432+16
 3713 006c F318     		adds	r3, r6, r3
 3714 006e 9342     		cmp	r3, r2
 3715 0070 17D9     		bls	.L424
 125:../../../../../../Middlewares/Third_Party/LoRaWAN/Mac/region/RegionEU868.c ****     {
 3716              		.loc 1 125 0
 3717 0072 2E4B     		ldr	r3, .L432+20
 3718 0074 2E4A     		ldr	r2, .L432+24
 3719 0076 F318     		adds	r3, r6, r3
 3720 0078 9342     		cmp	r3, r2
 3721 007a 12D9     		bls	.L424
 3722              	.LVL311:
 3723              	.L408:
 129:../../../../../../Middlewares/Third_Party/LoRaWAN/Mac/region/RegionEU868.c ****     {
 3724              		.loc 1 129 0
 3725 007c 2D4B     		ldr	r3, .L432+28
 3726 007e 2E4A     		ldr	r2, .L432+32
 3727 0080 F318     		adds	r3, r6, r3
 3728 0082 9342     		cmp	r3, r2
 3729 0084 2AD9     		bls	.L414
 3730              	.LVL312:
 3731              	.LBB179:
 3732              	.LBB180:
 133:../../../../../../Middlewares/Third_Party/LoRaWAN/Mac/region/RegionEU868.c ****     {
 3733              		.loc 1 133 0
 3734 0086 2D4B     		ldr	r3, .L432+36
 3735 0088 2D4A     		ldr	r2, .L432+40
 3736 008a F318     		adds	r3, r6, r3
 3737 008c 9342     		cmp	r3, r2
 3738 008e 3ED9     		bls	.L415
 137:../../../../../../Middlewares/Third_Party/LoRaWAN/Mac/region/RegionEU868.c ****     {
 3739              		.loc 1 137 0
 3740 0090 2C4B     		ldr	r3, .L432+44
 3741 0092 F218     		adds	r2, r6, r3
 3742 0094 2C4B     		ldr	r3, .L432+48
 139:../../../../../../Middlewares/Third_Party/LoRaWAN/Mac/region/RegionEU868.c ****     }
 3743              		.loc 1 139 0
 3744 0096 0426     		movs	r6, #4
 3745              	.LVL313:
 137:../../../../../../Middlewares/Third_Party/LoRaWAN/Mac/region/RegionEU868.c ****     {
 3746              		.loc 1 137 0
 3747 0098 9A42     		cmp	r2, r3
 3748 009a 20D9     		bls	.L403
 3749              	.LVL314:
 3750              	.L427:
 3751              	.LBE180:
 3752              	.LBE179:
 3753              	.LBE184:
 3754              	.LBE189:
 981:../../../../../../Middlewares/Third_Party/LoRaWAN/Mac/region/RegionEU868.c ****     {
 3755              		.loc 1 981 0
ARM GAS  C:\Users\EBANO_~1\AppData\Local\Temp\ccJkfoGk.s 			page 94


 3756 009c 002F     		cmp	r7, #0
 3757 009e 02D1     		bne	.L406
 991:../../../../../../Middlewares/Third_Party/LoRaWAN/Mac/region/RegionEU868.c ****     }
 3758              		.loc 1 991 0
 3759 00a0 0420     		movs	r0, #4
 3760              	.LVL315:
 3761              	.L424:
 998:../../../../../../Middlewares/Third_Party/LoRaWAN/Mac/region/RegionEU868.c **** 
 3762              		.loc 1 998 0
 3763 00a2 03B0     		add	sp, sp, #12
 3764              		@ sp needed
 3765              	.LVL316:
 3766 00a4 F0BD     		pop	{r4, r5, r6, r7, pc}
 3767              	.LVL317:
 3768              	.L406:
 949:../../../../../../Middlewares/Third_Party/LoRaWAN/Mac/region/RegionEU868.c ****     }
 3769              		.loc 1 949 0
 3770 00a6 0620     		movs	r0, #6
 3771 00a8 FBE7     		b	.L424
 3772              	.LVL318:
 3773              	.L430:
 3774              	.LBB190:
 3775              	.LBB185:
 111:../../../../../../Middlewares/Third_Party/LoRaWAN/Mac/region/RegionEU868.c ****     {
 3776              		.loc 1 111 0
 3777 00aa 019B     		ldr	r3, [sp, #4]
 3778 00ac 9847     		blx	r3
 3779              	.LVL319:
 3780 00ae 0028     		cmp	r0, #0
 3781 00b0 F4D0     		beq	.L427
 117:../../../../../../Middlewares/Third_Party/LoRaWAN/Mac/region/RegionEU868.c ****     {
 3782              		.loc 1 117 0
 3783 00b2 1A4B     		ldr	r3, .L432+4
 3784 00b4 1A4A     		ldr	r2, .L432+8
 3785 00b6 F318     		adds	r3, r6, r3
 3786 00b8 9342     		cmp	r3, r2
 3787 00ba 0FD9     		bls	.L414
 121:../../../../../../Middlewares/Third_Party/LoRaWAN/Mac/region/RegionEU868.c ****     {
 3788              		.loc 1 121 0
 3789 00bc 194B     		ldr	r3, .L432+12
 3790 00be 1A4A     		ldr	r2, .L432+16
 3791 00c0 F318     		adds	r3, r6, r3
 3792 00c2 9342     		cmp	r3, r2
 3793 00c4 21D9     		bls	.L412
 125:../../../../../../Middlewares/Third_Party/LoRaWAN/Mac/region/RegionEU868.c ****     {
 3794              		.loc 1 125 0
 3795 00c6 194B     		ldr	r3, .L432+20
 3796 00c8 194A     		ldr	r2, .L432+24
 3797 00ca F318     		adds	r3, r6, r3
 3798 00cc 9342     		cmp	r3, r2
 3799 00ce D5D8     		bhi	.L408
 127:../../../../../../Middlewares/Third_Party/LoRaWAN/Mac/region/RegionEU868.c ****     }
 3800              		.loc 1 127 0
 3801 00d0 0126     		movs	r6, #1
 3802 00d2 04E0     		b	.L403
 3803              	.LVL320:
 3804              	.L429:
ARM GAS  C:\Users\EBANO_~1\AppData\Local\Temp\ccJkfoGk.s 			page 95


 3805              	.LBE185:
 3806              	.LBE190:
 958:../../../../../../Middlewares/Third_Party/LoRaWAN/Mac/region/RegionEU868.c ****     {
 3807              		.loc 1 958 0
 3808 00d4 7742     		rsbs	r7, r6, #0
 3809 00d6 7741     		adcs	r7, r7, r6
 3810              	.LVL321:
 3811 00d8 FFB2     		uxtb	r7, r7
 3812 00da AEE7     		b	.L399
 3813              	.LVL322:
 3814              	.L414:
 3815              	.LBB191:
 3816              	.LBB186:
 131:../../../../../../Middlewares/Third_Party/LoRaWAN/Mac/region/RegionEU868.c ****     }
 3817              		.loc 1 131 0
 3818 00dc 0226     		movs	r6, #2
 3819              	.L403:
 3820              	.LBE186:
 3821              	.LBE191:
 981:../../../../../../Middlewares/Third_Party/LoRaWAN/Mac/region/RegionEU868.c ****     {
 3822              		.loc 1 981 0
 3823 00de 002F     		cmp	r7, #0
 3824 00e0 17D1     		bne	.L431
 994:../../../../../../Middlewares/Third_Party/LoRaWAN/Mac/region/RegionEU868.c ****     NvmCtx.Channels[id].Band = band;
 3825              		.loc 1 994 0
 3826 00e2 2168     		ldr	r1, [r4]
 3827 00e4 6C00     		lsls	r4, r5, #1
 3828              	.LVL323:
 3829 00e6 194F     		ldr	r7, .L432+52
 3830 00e8 6419     		adds	r4, r4, r5
 3831 00ea A400     		lsls	r4, r4, #2
 3832 00ec E419     		adds	r4, r4, r7
 3833 00ee 0C22     		movs	r2, #12
 3834 00f0 2000     		movs	r0, r4
 3835 00f2 FFF7FEFF 		bl	memcpy1
 3836              	.LVL324:
 996:../../../../../../Middlewares/Third_Party/LoRaWAN/Mac/region/RegionEU868.c ****     return LORAMAC_STATUS_OK;
 3837              		.loc 1 996 0
 3838 00f6 0122     		movs	r2, #1
 3839 00f8 8821     		movs	r1, #136
 3840 00fa AA40     		lsls	r2, r2, r5
 3841 00fc 4900     		lsls	r1, r1, #1
 995:../../../../../../Middlewares/Third_Party/LoRaWAN/Mac/region/RegionEU868.c ****     NvmCtx.ChannelsMask[0] |= ( 1 << id );
 3842              		.loc 1 995 0
 3843 00fe 6672     		strb	r6, [r4, #9]
 996:../../../../../../Middlewares/Third_Party/LoRaWAN/Mac/region/RegionEU868.c ****     return LORAMAC_STATUS_OK;
 3844              		.loc 1 996 0
 3845 0100 7B5A     		ldrh	r3, [r7, r1]
 997:../../../../../../Middlewares/Third_Party/LoRaWAN/Mac/region/RegionEU868.c **** }
 3846              		.loc 1 997 0
 3847 0102 0020     		movs	r0, #0
 996:../../../../../../Middlewares/Third_Party/LoRaWAN/Mac/region/RegionEU868.c ****     return LORAMAC_STATUS_OK;
 3848              		.loc 1 996 0
 3849 0104 1343     		orrs	r3, r2
 3850 0106 7B52     		strh	r3, [r7, r1]
 997:../../../../../../Middlewares/Third_Party/LoRaWAN/Mac/region/RegionEU868.c **** }
 3851              		.loc 1 997 0
ARM GAS  C:\Users\EBANO_~1\AppData\Local\Temp\ccJkfoGk.s 			page 96


 3852 0108 CBE7     		b	.L424
 3853              	.LVL325:
 3854              	.L412:
 3855              	.LBB192:
 3856              	.LBB187:
 123:../../../../../../Middlewares/Third_Party/LoRaWAN/Mac/region/RegionEU868.c ****     }
 3857              		.loc 1 123 0
 3858 010a 0026     		movs	r6, #0
 3859 010c E7E7     		b	.L403
 3860              	.LVL326:
 3861              	.L415:
 3862              	.LBB182:
 3863              	.LBB181:
 135:../../../../../../Middlewares/Third_Party/LoRaWAN/Mac/region/RegionEU868.c ****     }
 3864              		.loc 1 135 0
 3865 010e 0326     		movs	r6, #3
 3866              	.LVL327:
 3867 0110 E5E7     		b	.L403
 3868              	.LVL328:
 3869              	.L431:
 3870              	.LBE181:
 3871              	.LBE182:
 3872              	.LBE187:
 3873              	.LBE192:
 987:../../../../../../Middlewares/Third_Party/LoRaWAN/Mac/region/RegionEU868.c ****     }
 3874              		.loc 1 987 0
 3875 0112 0520     		movs	r0, #5
 3876 0114 C5E7     		b	.L424
 3877              	.L433:
 3878 0116 C046     		.align	2
 3879              	.L432:
 3880 0118 00000000 		.word	Radio
 3881 011c 40AA8FCC 		.word	-863000000
 3882 0120 7F841E00 		.word	1999999
 3883 0124 C02571CC 		.word	-865000000
 3884 0128 C0C62D00 		.word	3000000
 3885 012c FF5E43CC 		.word	-868000001
 3886 0130 BF270900 		.word	599999
 3887 0134 A0B038CC 		.word	-868700000
 3888 0138 20A10700 		.word	500000
 3889 013c 40022ECC 		.word	-869400000
 3890 0140 90D00300 		.word	250000
 3891 0144 606E29CC 		.word	-869700000
 3892 0148 E0930400 		.word	300000
 3893 014c 00000000 		.word	NvmCtx
 3894              		.cfi_endproc
 3895              	.LFE62:
 3896              		.size	RegionEU868ChannelAdd, .-RegionEU868ChannelAdd
 3897              		.section	.text.RegionEU868ChannelsRemove,"ax",%progbits
 3898              		.align	1
 3899              		.p2align 2,,3
 3900              		.global	RegionEU868ChannelsRemove
 3901              		.syntax unified
 3902              		.code	16
 3903              		.thumb_func
 3904              		.fpu softvfp
 3905              		.type	RegionEU868ChannelsRemove, %function
ARM GAS  C:\Users\EBANO_~1\AppData\Local\Temp\ccJkfoGk.s 			page 97


 3906              	RegionEU868ChannelsRemove:
 3907              	.LFB63:
1001:../../../../../../Middlewares/Third_Party/LoRaWAN/Mac/region/RegionEU868.c ****     uint8_t id = channelRemove->ChannelId;
 3908              		.loc 1 1001 0
 3909              		.cfi_startproc
 3910              		@ args = 0, pretend = 0, frame = 0
 3911              		@ frame_needed = 0, uses_anonymous_args = 0
 3912              	.LVL329:
 3913 0000 70B5     		push	{r4, r5, r6, lr}
 3914              	.LCFI36:
 3915              		.cfi_def_cfa_offset 16
 3916              		.cfi_offset 4, -16
 3917              		.cfi_offset 5, -12
 3918              		.cfi_offset 6, -8
 3919              		.cfi_offset 14, -4
1002:../../../../../../Middlewares/Third_Party/LoRaWAN/Mac/region/RegionEU868.c **** 
 3920              		.loc 1 1002 0
 3921 0002 0478     		ldrb	r4, [r0]
 3922              	.LVL330:
1006:../../../../../../Middlewares/Third_Party/LoRaWAN/Mac/region/RegionEU868.c ****     }
 3923              		.loc 1 1006 0
 3924 0004 0020     		movs	r0, #0
 3925              	.LVL331:
1004:../../../../../../Middlewares/Third_Party/LoRaWAN/Mac/region/RegionEU868.c ****     {
 3926              		.loc 1 1004 0
 3927 0006 022C     		cmp	r4, #2
 3928 0008 0FD9     		bls	.L435
1010:../../../../../../Middlewares/Third_Party/LoRaWAN/Mac/region/RegionEU868.c **** 
 3929              		.loc 1 1010 0
 3930 000a 6000     		lsls	r0, r4, #1
 3931 000c 074D     		ldr	r5, .L437
 3932 000e 0019     		adds	r0, r0, r4
 3933 0010 8000     		lsls	r0, r0, #2
 3934 0012 0C22     		movs	r2, #12
 3935 0014 0021     		movs	r1, #0
 3936 0016 2818     		adds	r0, r5, r0
 3937 0018 FFF7FEFF 		bl	memset
 3938              	.LVL332:
 3939              		.loc 1 1012 0
 3940 001c 2800     		movs	r0, r5
 3941 001e 1130     		adds	r0, r0, #17
 3942 0020 FF30     		adds	r0, r0, #255
 3943 0022 1022     		movs	r2, #16
 3944 0024 2100     		movs	r1, r4
 3945 0026 FFF7FEFF 		bl	RegionCommonChanDisable
 3946              	.LVL333:
 3947              	.L435:
1013:../../../../../../Middlewares/Third_Party/LoRaWAN/Mac/region/RegionEU868.c **** }
 3948              		.loc 1 1013 0
 3949              		@ sp needed
 3950              	.LVL334:
 3951 002a 70BD     		pop	{r4, r5, r6, pc}
 3952              	.L438:
 3953              		.align	2
 3954              	.L437:
 3955 002c 00000000 		.word	NvmCtx
 3956              		.cfi_endproc
ARM GAS  C:\Users\EBANO_~1\AppData\Local\Temp\ccJkfoGk.s 			page 98


 3957              	.LFE63:
 3958              		.size	RegionEU868ChannelsRemove, .-RegionEU868ChannelsRemove
 3959              		.section	.text.RegionEU868SetContinuousWave,"ax",%progbits
 3960              		.align	1
 3961              		.p2align 2,,3
 3962              		.global	RegionEU868SetContinuousWave
 3963              		.syntax unified
 3964              		.code	16
 3965              		.thumb_func
 3966              		.fpu softvfp
 3967              		.type	RegionEU868SetContinuousWave, %function
 3968              	RegionEU868SetContinuousWave:
 3969              	.LFB64:
1014:../../../../../../Middlewares/Third_Party/LoRaWAN/Mac/region/RegionEU868.c **** 
1015:../../../../../../Middlewares/Third_Party/LoRaWAN/Mac/region/RegionEU868.c **** void RegionEU868SetContinuousWave( ContinuousWaveParams_t* continuousWave )
1016:../../../../../../Middlewares/Third_Party/LoRaWAN/Mac/region/RegionEU868.c **** {
 3970              		.loc 1 1016 0
 3971              		.cfi_startproc
 3972              		@ args = 0, pretend = 0, frame = 8
 3973              		@ frame_needed = 0, uses_anonymous_args = 0
 3974              	.LVL335:
 3975 0000 F0B5     		push	{r4, r5, r6, r7, lr}
 3976              	.LCFI37:
 3977              		.cfi_def_cfa_offset 20
 3978              		.cfi_offset 4, -20
 3979              		.cfi_offset 5, -16
 3980              		.cfi_offset 6, -12
 3981              		.cfi_offset 7, -8
 3982              		.cfi_offset 14, -4
 3983 0002 0400     		movs	r4, r0
1017:../../../../../../Middlewares/Third_Party/LoRaWAN/Mac/region/RegionEU868.c ****     int8_t txPowerLimited = LimitTxPower( continuousWave->TxPower, NvmCtx.Bands[NvmCtx.Channels[con
 3984              		.loc 1 1017 0
 3985 0004 0278     		ldrb	r2, [r0]
 3986              	.LVL336:
1018:../../../../../../Middlewares/Third_Party/LoRaWAN/Mac/region/RegionEU868.c ****     int8_t phyTxPower = 0;
1019:../../../../../../Middlewares/Third_Party/LoRaWAN/Mac/region/RegionEU868.c ****     uint32_t frequency = NvmCtx.Channels[continuousWave->Channel].Frequency;
 3987              		.loc 1 1019 0
 3988 0006 1048     		ldr	r0, .L441
 3989              	.LVL337:
 3990 0008 5300     		lsls	r3, r2, #1
 3991 000a 9B18     		adds	r3, r3, r2
 3992 000c 9B00     		lsls	r3, r3, #2
 3993 000e 1D58     		ldr	r5, [r3, r0]
 3994              	.LVL338:
1017:../../../../../../Middlewares/Third_Party/LoRaWAN/Mac/region/RegionEU868.c ****     int8_t txPowerLimited = LimitTxPower( continuousWave->TxPower, NvmCtx.Bands[NvmCtx.Channels[con
 3995              		.loc 1 1017 0
 3996 0010 C318     		adds	r3, r0, r3
 3997 0012 5B7A     		ldrb	r3, [r3, #9]
 3998              	.LBB193:
 3999              	.LBB194:
 103:../../../../../../Middlewares/Third_Party/LoRaWAN/Mac/region/RegionEU868.c **** 
 4000              		.loc 1 103 0
 4001 0014 A678     		ldrb	r6, [r4, #2]
 4002              	.LBE194:
 4003              	.LBE193:
1017:../../../../../../Middlewares/Third_Party/LoRaWAN/Mac/region/RegionEU868.c ****     int8_t txPowerLimited = LimitTxPower( continuousWave->TxPower, NvmCtx.Bands[NvmCtx.Channels[con
 4004              		.loc 1 1017 0
ARM GAS  C:\Users\EBANO_~1\AppData\Local\Temp\ccJkfoGk.s 			page 99


 4005 0016 0C33     		adds	r3, r3, #12
 4006 0018 1B01     		lsls	r3, r3, #4
 4007 001a C018     		adds	r0, r0, r3
 4008              	.LBB197:
 4009              	.LBB195:
 103:../../../../../../Middlewares/Third_Party/LoRaWAN/Mac/region/RegionEU868.c **** 
 4010              		.loc 1 103 0
 4011 001c 8378     		ldrb	r3, [r0, #2]
 4012 001e 77B2     		sxtb	r7, r6
 4013 0020 181C     		adds	r0, r3, #0
 4014 0022 5BB2     		sxtb	r3, r3
 4015              	.LBE195:
 4016              	.LBE197:
1016:../../../../../../Middlewares/Third_Party/LoRaWAN/Mac/region/RegionEU868.c ****     int8_t txPowerLimited = LimitTxPower( continuousWave->TxPower, NvmCtx.Bands[NvmCtx.Channels[con
 4017              		.loc 1 1016 0
 4018 0024 83B0     		sub	sp, sp, #12
 4019              	.LCFI38:
 4020              		.cfi_def_cfa_offset 32
1020:../../../../../../Middlewares/Third_Party/LoRaWAN/Mac/region/RegionEU868.c **** 
1021:../../../../../../Middlewares/Third_Party/LoRaWAN/Mac/region/RegionEU868.c ****     // Calculate physical TX power
1022:../../../../../../Middlewares/Third_Party/LoRaWAN/Mac/region/RegionEU868.c ****     phyTxPower = RegionCommonComputeTxPower( txPowerLimited, continuousWave->MaxEirp, continuousWav
 4021              		.loc 1 1022 0
 4022 0026 A268     		ldr	r2, [r4, #8]
 4023 0028 6168     		ldr	r1, [r4, #4]
 4024              	.LBB198:
 4025              	.LBB196:
 103:../../../../../../Middlewares/Third_Party/LoRaWAN/Mac/region/RegionEU868.c **** 
 4026              		.loc 1 103 0
 4027 002a BB42     		cmp	r3, r7
 4028 002c 00DA     		bge	.L440
 4029 002e 301C     		adds	r0, r6, #0
 4030              	.L440:
 4031              	.LBE196:
 4032              	.LBE198:
 4033              		.loc 1 1022 0
 4034 0030 40B2     		sxtb	r0, r0
 4035 0032 FFF7FEFF 		bl	RegionCommonComputeTxPower
 4036              	.LVL339:
1023:../../../../../../Middlewares/Third_Party/LoRaWAN/Mac/region/RegionEU868.c **** 
1024:../../../../../../Middlewares/Third_Party/LoRaWAN/Mac/region/RegionEU868.c ****     Radio.SetTxContinuousWave( frequency, phyTxPower, continuousWave->Timeout );
 4037              		.loc 1 1024 0
 4038 0036 054B     		ldr	r3, .L441+4
1022:../../../../../../Middlewares/Third_Party/LoRaWAN/Mac/region/RegionEU868.c **** 
 4039              		.loc 1 1022 0
 4040 0038 0100     		movs	r1, r0
 4041              	.LVL340:
 4042              		.loc 1 1024 0
 4043 003a 5B6C     		ldr	r3, [r3, #68]
 4044 003c A289     		ldrh	r2, [r4, #12]
 4045 003e 2800     		movs	r0, r5
 4046 0040 0193     		str	r3, [sp, #4]
 4047 0042 9847     		blx	r3
 4048              	.LVL341:
1025:../../../../../../Middlewares/Third_Party/LoRaWAN/Mac/region/RegionEU868.c **** }
 4049              		.loc 1 1025 0
 4050 0044 03B0     		add	sp, sp, #12
 4051              		@ sp needed
ARM GAS  C:\Users\EBANO_~1\AppData\Local\Temp\ccJkfoGk.s 			page 100


 4052              	.LVL342:
 4053              	.LVL343:
 4054 0046 F0BD     		pop	{r4, r5, r6, r7, pc}
 4055              	.L442:
 4056              		.align	2
 4057              	.L441:
 4058 0048 00000000 		.word	NvmCtx
 4059 004c 00000000 		.word	Radio
 4060              		.cfi_endproc
 4061              	.LFE64:
 4062              		.size	RegionEU868SetContinuousWave, .-RegionEU868SetContinuousWave
 4063              		.section	.text.RegionEU868ApplyDrOffset,"ax",%progbits
 4064              		.align	1
 4065              		.p2align 2,,3
 4066              		.global	RegionEU868ApplyDrOffset
 4067              		.syntax unified
 4068              		.code	16
 4069              		.thumb_func
 4070              		.fpu softvfp
 4071              		.type	RegionEU868ApplyDrOffset, %function
 4072              	RegionEU868ApplyDrOffset:
 4073              	.LFB65:
1026:../../../../../../Middlewares/Third_Party/LoRaWAN/Mac/region/RegionEU868.c **** 
1027:../../../../../../Middlewares/Third_Party/LoRaWAN/Mac/region/RegionEU868.c **** uint8_t RegionEU868ApplyDrOffset( uint8_t downlinkDwellTime, int8_t dr, int8_t drOffset )
1028:../../../../../../Middlewares/Third_Party/LoRaWAN/Mac/region/RegionEU868.c **** {
 4074              		.loc 1 1028 0
 4075              		.cfi_startproc
 4076              		@ args = 0, pretend = 0, frame = 0
 4077              		@ frame_needed = 0, uses_anonymous_args = 0
 4078              		@ link register save eliminated.
 4079              	.LVL344:
1029:../../../../../../Middlewares/Third_Party/LoRaWAN/Mac/region/RegionEU868.c ****     int8_t datarate = dr - drOffset;
 4080              		.loc 1 1029 0
 4081 0000 891A     		subs	r1, r1, r2
 4082              	.LVL345:
 4083 0002 49B2     		sxtb	r1, r1
 4084              	.LVL346:
1030:../../../../../../Middlewares/Third_Party/LoRaWAN/Mac/region/RegionEU868.c **** 
1031:../../../../../../Middlewares/Third_Party/LoRaWAN/Mac/region/RegionEU868.c ****     if( datarate < 0 )
1032:../../../../../../Middlewares/Third_Party/LoRaWAN/Mac/region/RegionEU868.c ****     {
1033:../../../../../../Middlewares/Third_Party/LoRaWAN/Mac/region/RegionEU868.c ****         datarate = DR_0;
1034:../../../../../../Middlewares/Third_Party/LoRaWAN/Mac/region/RegionEU868.c ****     }
1035:../../../../../../Middlewares/Third_Party/LoRaWAN/Mac/region/RegionEU868.c ****     return datarate;
 4085              		.loc 1 1035 0
 4086 0004 C843     		mvns	r0, r1
 4087              	.LVL347:
 4088 0006 C017     		asrs	r0, r0, #31
 4089 0008 0840     		ands	r0, r1
 4090 000a C0B2     		uxtb	r0, r0
1036:../../../../../../Middlewares/Third_Party/LoRaWAN/Mac/region/RegionEU868.c **** }
 4091              		.loc 1 1036 0
 4092              		@ sp needed
 4093 000c 7047     		bx	lr
 4094              		.cfi_endproc
 4095              	.LFE65:
 4096              		.size	RegionEU868ApplyDrOffset, .-RegionEU868ApplyDrOffset
 4097 000e C046     		.section	.text.RegionEU868RxBeaconSetup,"ax",%progbits
ARM GAS  C:\Users\EBANO_~1\AppData\Local\Temp\ccJkfoGk.s 			page 101


 4098              		.align	1
 4099              		.p2align 2,,3
 4100              		.global	RegionEU868RxBeaconSetup
 4101              		.syntax unified
 4102              		.code	16
 4103              		.thumb_func
 4104              		.fpu softvfp
 4105              		.type	RegionEU868RxBeaconSetup, %function
 4106              	RegionEU868RxBeaconSetup:
 4107              	.LFB66:
1037:../../../../../../Middlewares/Third_Party/LoRaWAN/Mac/region/RegionEU868.c **** 
1038:../../../../../../Middlewares/Third_Party/LoRaWAN/Mac/region/RegionEU868.c **** void RegionEU868RxBeaconSetup( RxBeaconSetup_t* rxBeaconSetup, uint8_t* outDr )
1039:../../../../../../Middlewares/Third_Party/LoRaWAN/Mac/region/RegionEU868.c **** {
 4108              		.loc 1 1039 0
 4109              		.cfi_startproc
 4110              		@ args = 0, pretend = 0, frame = 24
 4111              		@ frame_needed = 0, uses_anonymous_args = 0
 4112              	.LVL348:
 4113 0000 10B5     		push	{r4, lr}
 4114              	.LCFI39:
 4115              		.cfi_def_cfa_offset 8
 4116              		.cfi_offset 4, -8
 4117              		.cfi_offset 14, -4
1040:../../../../../../Middlewares/Third_Party/LoRaWAN/Mac/region/RegionEU868.c ****     RegionCommonRxBeaconSetupParams_t regionCommonRxBeaconSetup;
1041:../../../../../../Middlewares/Third_Party/LoRaWAN/Mac/region/RegionEU868.c **** 
1042:../../../../../../Middlewares/Third_Party/LoRaWAN/Mac/region/RegionEU868.c ****     regionCommonRxBeaconSetup.Datarates = DataratesEU868;
 4118              		.loc 1 1042 0
 4119 0002 0B4A     		ldr	r2, .L446
1039:../../../../../../Middlewares/Third_Party/LoRaWAN/Mac/region/RegionEU868.c ****     RegionCommonRxBeaconSetupParams_t regionCommonRxBeaconSetup;
 4120              		.loc 1 1039 0
 4121 0004 86B0     		sub	sp, sp, #24
 4122              	.LCFI40:
 4123              		.cfi_def_cfa_offset 32
 4124              		.loc 1 1042 0
 4125 0006 2032     		adds	r2, r2, #32
 4126 0008 0192     		str	r2, [sp, #4]
1043:../../../../../../Middlewares/Third_Party/LoRaWAN/Mac/region/RegionEU868.c ****     regionCommonRxBeaconSetup.Frequency = rxBeaconSetup->Frequency;
 4127              		.loc 1 1043 0
 4128 000a 8268     		ldr	r2, [r0, #8]
1042:../../../../../../Middlewares/Third_Party/LoRaWAN/Mac/region/RegionEU868.c ****     regionCommonRxBeaconSetup.Frequency = rxBeaconSetup->Frequency;
 4129              		.loc 1 1042 0
 4130 000c 01AB     		add	r3, sp, #4
 4131              		.loc 1 1043 0
 4132 000e 0292     		str	r2, [sp, #8]
1044:../../../../../../Middlewares/Third_Party/LoRaWAN/Mac/region/RegionEU868.c ****     regionCommonRxBeaconSetup.BeaconSize = EU868_BEACON_SIZE;
 4133              		.loc 1 1044 0
 4134 0010 084A     		ldr	r2, .L446+4
1039:../../../../../../Middlewares/Third_Party/LoRaWAN/Mac/region/RegionEU868.c ****     RegionCommonRxBeaconSetupParams_t regionCommonRxBeaconSetup;
 4135              		.loc 1 1039 0
 4136 0012 0C00     		movs	r4, r1
 4137              		.loc 1 1044 0
 4138 0014 1A81     		strh	r2, [r3, #8]
1045:../../../../../../Middlewares/Third_Party/LoRaWAN/Mac/region/RegionEU868.c ****     regionCommonRxBeaconSetup.BeaconDatarate = EU868_BEACON_CHANNEL_DR;
 4139              		.loc 1 1045 0
 4140 0016 0022     		movs	r2, #0
 4141 0018 9A72     		strb	r2, [r3, #10]
1046:../../../../../../Middlewares/Third_Party/LoRaWAN/Mac/region/RegionEU868.c ****     regionCommonRxBeaconSetup.BeaconChannelBW = EU868_BEACON_CHANNEL_BW;
ARM GAS  C:\Users\EBANO_~1\AppData\Local\Temp\ccJkfoGk.s 			page 102


1047:../../../../../../Middlewares/Third_Party/LoRaWAN/Mac/region/RegionEU868.c ****     regionCommonRxBeaconSetup.RxTime = rxBeaconSetup->RxTime;
 4142              		.loc 1 1047 0
 4143 001a 4268     		ldr	r2, [r0, #4]
 4144 001c 0492     		str	r2, [sp, #16]
1048:../../../../../../Middlewares/Third_Party/LoRaWAN/Mac/region/RegionEU868.c ****     regionCommonRxBeaconSetup.SymbolTimeout = rxBeaconSetup->SymbolTimeout;
 4145              		.loc 1 1048 0
 4146 001e 0288     		ldrh	r2, [r0]
1049:../../../../../../Middlewares/Third_Party/LoRaWAN/Mac/region/RegionEU868.c **** 
1050:../../../../../../Middlewares/Third_Party/LoRaWAN/Mac/region/RegionEU868.c ****     RegionCommonRxBeaconSetup( &regionCommonRxBeaconSetup );
 4147              		.loc 1 1050 0
 4148 0020 1800     		movs	r0, r3
 4149              	.LVL349:
1048:../../../../../../Middlewares/Third_Party/LoRaWAN/Mac/region/RegionEU868.c ****     regionCommonRxBeaconSetup.SymbolTimeout = rxBeaconSetup->SymbolTimeout;
 4150              		.loc 1 1048 0
 4151 0022 1A82     		strh	r2, [r3, #16]
 4152              		.loc 1 1050 0
 4153 0024 FFF7FEFF 		bl	RegionCommonRxBeaconSetup
 4154              	.LVL350:
1051:../../../../../../Middlewares/Third_Party/LoRaWAN/Mac/region/RegionEU868.c **** 
1052:../../../../../../Middlewares/Third_Party/LoRaWAN/Mac/region/RegionEU868.c ****     // Store downlink datarate
1053:../../../../../../Middlewares/Third_Party/LoRaWAN/Mac/region/RegionEU868.c ****     *outDr = EU868_BEACON_CHANNEL_DR;
 4155              		.loc 1 1053 0
 4156 0028 0323     		movs	r3, #3
 4157 002a 2370     		strb	r3, [r4]
1054:../../../../../../Middlewares/Third_Party/LoRaWAN/Mac/region/RegionEU868.c **** }
 4158              		.loc 1 1054 0
 4159 002c 06B0     		add	sp, sp, #24
 4160              		@ sp needed
 4161              	.LVL351:
 4162 002e 10BD     		pop	{r4, pc}
 4163              	.L447:
 4164              		.align	2
 4165              	.L446:
 4166 0030 D8000000 		.word	.LANCHOR1
 4167 0034 11030000 		.word	785
 4168              		.cfi_endproc
 4169              	.LFE66:
 4170              		.size	RegionEU868RxBeaconSetup, .-RegionEU868RxBeaconSetup
 4171              		.bss
 4172              		.align	2
 4173              		.type	NvmCtx, %object
 4174              		.size	NvmCtx, 276
 4175              	NvmCtx:
 4176 0000 00000000 		.space	276
 4176      00000000 
 4176      00000000 
 4176      00000000 
 4176      00000000 
 4177              		.section	.rodata
 4178              		.align	2
 4179              		.set	.LANCHOR1,. + 0
 4180              		.type	BandwidthsEU868, %object
 4181              		.size	BandwidthsEU868, 32
 4182              	BandwidthsEU868:
 4183 00d8 48E80100 		.word	125000
 4184 00dc 48E80100 		.word	125000
 4185 00e0 48E80100 		.word	125000
ARM GAS  C:\Users\EBANO_~1\AppData\Local\Temp\ccJkfoGk.s 			page 103


 4186 00e4 48E80100 		.word	125000
 4187 00e8 48E80100 		.word	125000
 4188 00ec 48E80100 		.word	125000
 4189 00f0 90D00300 		.word	250000
 4190 00f4 00000000 		.word	0
 4191              		.type	DataratesEU868, %object
 4192              		.size	DataratesEU868, 8
 4193              	DataratesEU868:
 4194 00f8 0C       		.byte	12
 4195 00f9 0B       		.byte	11
 4196 00fa 0A       		.byte	10
 4197 00fb 09       		.byte	9
 4198 00fc 08       		.byte	8
 4199 00fd 07       		.byte	7
 4200 00fe 07       		.byte	7
 4201 00ff 32       		.byte	50
 4202              		.align	2
 4203              		.set	.LANCHOR0,. + 0
 4204              		.type	MaxPayloadOfDatarateEU868, %object
 4205              		.size	MaxPayloadOfDatarateEU868, 8
 4206              	MaxPayloadOfDatarateEU868:
 4207 0100 33       		.byte	51
 4208 0101 33       		.byte	51
 4209 0102 33       		.byte	51
 4210 0103 73       		.byte	115
 4211 0104 F2       		.byte	-14
 4212 0105 F2       		.byte	-14
 4213 0106 F2       		.byte	-14
 4214 0107 F2       		.byte	-14
 4215              		.type	MaxPayloadOfDatarateRepeaterEU868, %object
 4216              		.size	MaxPayloadOfDatarateRepeaterEU868, 8
 4217              	MaxPayloadOfDatarateRepeaterEU868:
 4218 0108 33       		.byte	51
 4219 0109 33       		.byte	51
 4220 010a 33       		.byte	51
 4221 010b 73       		.byte	115
 4222 010c DE       		.byte	-34
 4223 010d DE       		.byte	-34
 4224 010e DE       		.byte	-34
 4225 010f DE       		.byte	-34
 4226              	.LC0:
 4227 0110 A027BE33 		.word	868100000
 4228 0114 00000000 		.word	0
 4229 0118 50       		.byte	80
 4230 0119 01       		.byte	1
 4231 011a 0000     		.space	2
 4232              	.LC1:
 4233 011c E034C133 		.word	868300000
 4234 0120 00000000 		.word	0
 4235 0124 50       		.byte	80
 4236 0125 01       		.byte	1
 4237 0126 0000     		.space	2
 4238              	.LC2:
 4239 0128 2042C433 		.word	868500000
 4240 012c 00000000 		.word	0
 4241 0130 50       		.byte	80
 4242 0131 01       		.byte	1
ARM GAS  C:\Users\EBANO_~1\AppData\Local\Temp\ccJkfoGk.s 			page 104


 4243 0132 0000     		.space	2
 4244              		.text
 4245              	.Letext0:
 4246              		.file 2 "c:\\program files (x86)\\gnu tools arm embedded\\7 2018-q2-update\\arm-none-eabi\\include
 4247              		.file 3 "c:\\program files (x86)\\gnu tools arm embedded\\7 2018-q2-update\\arm-none-eabi\\include
 4248              		.file 4 "../../../../../../Drivers/CMSIS/Device/ST/STM32L0xx/Include/system_stm32l0xx.h"
 4249              		.file 5 "c:\\program files (x86)\\gnu tools arm embedded\\7 2018-q2-update\\lib\\gcc\\arm-none-eab
 4250              		.file 6 "c:\\program files (x86)\\gnu tools arm embedded\\7 2018-q2-update\\arm-none-eabi\\include
 4251              		.file 7 "c:\\program files (x86)\\gnu tools arm embedded\\7 2018-q2-update\\arm-none-eabi\\include
 4252              		.file 8 "c:\\program files (x86)\\gnu tools arm embedded\\7 2018-q2-update\\arm-none-eabi\\include
 4253              		.file 9 "c:\\program files (x86)\\gnu tools arm embedded\\7 2018-q2-update\\arm-none-eabi\\include
 4254              		.file 10 "../../../../../../Middlewares/Third_Party/LoRaWAN/Utilities/utilities.h"
 4255              		.file 11 "../../../../../../Middlewares/Third_Party/LoRaWAN/Mac/LoRaMacTypes.h"
 4256              		.file 12 "c:\\program files (x86)\\gnu tools arm embedded\\7 2018-q2-update\\arm-none-eabi\\includ
 4257              		.file 13 "../../../../../../Middlewares/Third_Party/LoRaWAN/Phy/radio.h"
 4258              		.file 14 "../../../../../../Middlewares/Third_Party/LoRaWAN/Mac/LoRaMac.h"
 4259              		.file 15 "../../../../../../Middlewares/Third_Party/LoRaWAN/Mac/region/Region.h"
 4260              		.file 16 "../../../../../../Middlewares/Third_Party/LoRaWAN/Mac/region/RegionCommon.h"
 4261              		.file 17 "../../../../../../Middlewares/Third_Party/LoRaWAN/Mac/region/RegionEU868.h"
 4262              		.file 18 "../../../../../../Middlewares/Third_Party/LoRaWAN/Utilities/timeServer.h"
 4263              		.file 19 "<built-in>"
 4264              		.section	.debug_info,"",%progbits
 4265              	.Ldebug_info0:
 4266 0000 BB340000 		.4byte	0x34bb
 4267 0004 0200     		.2byte	0x2
 4268 0006 00000000 		.4byte	.Ldebug_abbrev0
 4269 000a 04       		.byte	0x4
 4270 000b 01       		.uleb128 0x1
 4271 000c 00090000 		.4byte	.LASF561
 4272 0010 0C       		.byte	0xc
 4273 0011 DF140000 		.4byte	.LASF562
 4274 0015 39070000 		.4byte	.LASF563
 4275 0019 F8020000 		.4byte	.Ldebug_ranges0+0x2f8
 4276 001d 00000000 		.4byte	0
 4277 0021 00000000 		.4byte	0
 4278 0025 00000000 		.4byte	.Ldebug_line0
 4279 0029 02       		.uleb128 0x2
 4280 002a 01       		.byte	0x1
 4281 002b 06       		.byte	0x6
 4282 002c AE110000 		.4byte	.LASF2
 4283 0030 03       		.uleb128 0x3
 4284 0031 4B200000 		.4byte	.LASF0
 4285 0035 02       		.byte	0x2
 4286 0036 29       		.byte	0x29
 4287 0037 29000000 		.4byte	0x29
 4288 003b 03       		.uleb128 0x3
 4289 003c 9D000000 		.4byte	.LASF1
 4290 0040 02       		.byte	0x2
 4291 0041 2B       		.byte	0x2b
 4292 0042 46000000 		.4byte	0x46
 4293 0046 02       		.uleb128 0x2
 4294 0047 01       		.byte	0x1
 4295 0048 08       		.byte	0x8
 4296 0049 EC060000 		.4byte	.LASF3
 4297 004d 03       		.uleb128 0x3
 4298 004e 91050000 		.4byte	.LASF4
 4299 0052 02       		.byte	0x2
ARM GAS  C:\Users\EBANO_~1\AppData\Local\Temp\ccJkfoGk.s 			page 105


 4300 0053 37       		.byte	0x37
 4301 0054 58000000 		.4byte	0x58
 4302 0058 02       		.uleb128 0x2
 4303 0059 02       		.byte	0x2
 4304 005a 05       		.byte	0x5
 4305 005b F6200000 		.4byte	.LASF5
 4306 005f 03       		.uleb128 0x3
 4307 0060 A7050000 		.4byte	.LASF6
 4308 0064 02       		.byte	0x2
 4309 0065 39       		.byte	0x39
 4310 0066 6A000000 		.4byte	0x6a
 4311 006a 02       		.uleb128 0x2
 4312 006b 02       		.byte	0x2
 4313 006c 07       		.byte	0x7
 4314 006d 9B110000 		.4byte	.LASF7
 4315 0071 03       		.uleb128 0x3
 4316 0072 A4190000 		.4byte	.LASF8
 4317 0076 02       		.byte	0x2
 4318 0077 4D       		.byte	0x4d
 4319 0078 7C000000 		.4byte	0x7c
 4320 007c 02       		.uleb128 0x2
 4321 007d 04       		.byte	0x4
 4322 007e 05       		.byte	0x5
 4323 007f 99130000 		.4byte	.LASF9
 4324 0083 03       		.uleb128 0x3
 4325 0084 B7190000 		.4byte	.LASF10
 4326 0088 02       		.byte	0x2
 4327 0089 4F       		.byte	0x4f
 4328 008a 8E000000 		.4byte	0x8e
 4329 008e 02       		.uleb128 0x2
 4330 008f 04       		.byte	0x4
 4331 0090 07       		.byte	0x7
 4332 0091 56150000 		.4byte	.LASF11
 4333 0095 02       		.uleb128 0x2
 4334 0096 08       		.byte	0x8
 4335 0097 05       		.byte	0x5
 4336 0098 121E0000 		.4byte	.LASF12
 4337 009c 02       		.uleb128 0x2
 4338 009d 08       		.byte	0x8
 4339 009e 07       		.byte	0x7
 4340 009f 751B0000 		.4byte	.LASF13
 4341 00a3 04       		.uleb128 0x4
 4342 00a4 04       		.byte	0x4
 4343 00a5 05       		.byte	0x5
 4344 00a6 696E7400 		.ascii	"int\000"
 4345 00aa 02       		.uleb128 0x2
 4346 00ab 04       		.byte	0x4
 4347 00ac 07       		.byte	0x7
 4348 00ad 85200000 		.4byte	.LASF14
 4349 00b1 03       		.uleb128 0x3
 4350 00b2 7A100000 		.4byte	.LASF15
 4351 00b6 03       		.byte	0x3
 4352 00b7 14       		.byte	0x14
 4353 00b8 30000000 		.4byte	0x30
 4354 00bc 03       		.uleb128 0x3
 4355 00bd 090B0000 		.4byte	.LASF16
 4356 00c1 03       		.byte	0x3
ARM GAS  C:\Users\EBANO_~1\AppData\Local\Temp\ccJkfoGk.s 			page 106


 4357 00c2 18       		.byte	0x18
 4358 00c3 3B000000 		.4byte	0x3b
 4359 00c7 05       		.uleb128 0x5
 4360 00c8 BC000000 		.4byte	0xbc
 4361 00cc 03       		.uleb128 0x3
 4362 00cd 7C110000 		.4byte	.LASF17
 4363 00d1 03       		.byte	0x3
 4364 00d2 20       		.byte	0x20
 4365 00d3 4D000000 		.4byte	0x4d
 4366 00d7 03       		.uleb128 0x3
 4367 00d8 2B010000 		.4byte	.LASF18
 4368 00dc 03       		.byte	0x3
 4369 00dd 24       		.byte	0x24
 4370 00de 5F000000 		.4byte	0x5f
 4371 00e2 03       		.uleb128 0x3
 4372 00e3 CA020000 		.4byte	.LASF19
 4373 00e7 03       		.byte	0x3
 4374 00e8 2C       		.byte	0x2c
 4375 00e9 71000000 		.4byte	0x71
 4376 00ed 03       		.uleb128 0x3
 4377 00ee 5F140000 		.4byte	.LASF20
 4378 00f2 03       		.byte	0x3
 4379 00f3 30       		.byte	0x30
 4380 00f4 83000000 		.4byte	0x83
 4381 00f8 05       		.uleb128 0x5
 4382 00f9 ED000000 		.4byte	0xed
 4383 00fd 06       		.uleb128 0x6
 4384 00fe 48120000 		.4byte	.LASF21
 4385 0102 04       		.byte	0x4
 4386 0103 4A       		.byte	0x4a
 4387 0104 ED000000 		.4byte	0xed
 4388 0108 01       		.byte	0x1
 4389 0109 01       		.byte	0x1
 4390 010a 07       		.uleb128 0x7
 4391 010b C7000000 		.4byte	0xc7
 4392 010f 1A010000 		.4byte	0x11a
 4393 0113 08       		.uleb128 0x8
 4394 0114 AA000000 		.4byte	0xaa
 4395 0118 0F       		.byte	0xf
 4396 0119 00       		.byte	0
 4397 011a 05       		.uleb128 0x5
 4398 011b 0A010000 		.4byte	0x10a
 4399 011f 06       		.uleb128 0x6
 4400 0120 DD1E0000 		.4byte	.LASF22
 4401 0124 04       		.byte	0x4
 4402 0125 4D       		.byte	0x4d
 4403 0126 1A010000 		.4byte	0x11a
 4404 012a 01       		.byte	0x1
 4405 012b 01       		.byte	0x1
 4406 012c 07       		.uleb128 0x7
 4407 012d C7000000 		.4byte	0xc7
 4408 0131 3C010000 		.4byte	0x13c
 4409 0135 08       		.uleb128 0x8
 4410 0136 AA000000 		.4byte	0xaa
 4411 013a 07       		.byte	0x7
 4412 013b 00       		.byte	0
 4413 013c 05       		.uleb128 0x5
ARM GAS  C:\Users\EBANO_~1\AppData\Local\Temp\ccJkfoGk.s 			page 107


 4414 013d 2C010000 		.4byte	0x12c
 4415 0141 06       		.uleb128 0x6
 4416 0142 1F160000 		.4byte	.LASF23
 4417 0146 04       		.byte	0x4
 4418 0147 4E       		.byte	0x4e
 4419 0148 3C010000 		.4byte	0x13c
 4420 014c 01       		.byte	0x1
 4421 014d 01       		.byte	0x1
 4422 014e 07       		.uleb128 0x7
 4423 014f C7000000 		.4byte	0xc7
 4424 0153 5E010000 		.4byte	0x15e
 4425 0157 08       		.uleb128 0x8
 4426 0158 AA000000 		.4byte	0xaa
 4427 015c 08       		.byte	0x8
 4428 015d 00       		.byte	0
 4429 015e 05       		.uleb128 0x5
 4430 015f 4E010000 		.4byte	0x14e
 4431 0163 06       		.uleb128 0x6
 4432 0164 EF180000 		.4byte	.LASF24
 4433 0168 04       		.byte	0x4
 4434 0169 4F       		.byte	0x4f
 4435 016a 5E010000 		.4byte	0x15e
 4436 016e 01       		.byte	0x1
 4437 016f 01       		.byte	0x1
 4438 0170 03       		.uleb128 0x3
 4439 0171 EB0A0000 		.4byte	.LASF25
 4440 0175 05       		.byte	0x5
 4441 0176 D8       		.byte	0xd8
 4442 0177 AA000000 		.4byte	0xaa
 4443 017b 02       		.uleb128 0x2
 4444 017c 08       		.byte	0x8
 4445 017d 04       		.byte	0x4
 4446 017e C9140000 		.4byte	.LASF26
 4447 0182 09       		.uleb128 0x9
 4448 0183 04       		.byte	0x4
 4449 0184 03       		.uleb128 0x3
 4450 0185 39050000 		.4byte	.LASF27
 4451 0189 06       		.byte	0x6
 4452 018a 22       		.byte	0x22
 4453 018b 8F010000 		.4byte	0x18f
 4454 018f 0A       		.uleb128 0xa
 4455 0190 04       		.byte	0x4
 4456 0191 95010000 		.4byte	0x195
 4457 0195 0B       		.uleb128 0xb
 4458 0196 3F040000 		.4byte	.LASF134
 4459 019a 01       		.byte	0x1
 4460 019b 03       		.uleb128 0x3
 4461 019c BE0A0000 		.4byte	.LASF28
 4462 01a0 07       		.byte	0x7
 4463 01a1 2C       		.byte	0x2c
 4464 01a2 7C000000 		.4byte	0x7c
 4465 01a6 03       		.uleb128 0x3
 4466 01a7 13190000 		.4byte	.LASF29
 4467 01ab 07       		.byte	0x7
 4468 01ac 72       		.byte	0x72
 4469 01ad 7C000000 		.4byte	0x7c
 4470 01b1 0C       		.uleb128 0xc
ARM GAS  C:\Users\EBANO_~1\AppData\Local\Temp\ccJkfoGk.s 			page 108


 4471 01b2 990C0000 		.4byte	.LASF30
 4472 01b6 05       		.byte	0x5
 4473 01b7 6501     		.2byte	0x165
 4474 01b9 AA000000 		.4byte	0xaa
 4475 01bd 0D       		.uleb128 0xd
 4476 01be 04       		.byte	0x4
 4477 01bf 07       		.byte	0x7
 4478 01c0 A6       		.byte	0xa6
 4479 01c1 DC010000 		.4byte	0x1dc
 4480 01c5 0E       		.uleb128 0xe
 4481 01c6 F0120000 		.4byte	.LASF31
 4482 01ca 07       		.byte	0x7
 4483 01cb A8       		.byte	0xa8
 4484 01cc B1010000 		.4byte	0x1b1
 4485 01d0 0E       		.uleb128 0xe
 4486 01d1 3F0C0000 		.4byte	.LASF32
 4487 01d5 07       		.byte	0x7
 4488 01d6 A9       		.byte	0xa9
 4489 01d7 DC010000 		.4byte	0x1dc
 4490 01db 00       		.byte	0
 4491 01dc 07       		.uleb128 0x7
 4492 01dd 46000000 		.4byte	0x46
 4493 01e1 EC010000 		.4byte	0x1ec
 4494 01e5 08       		.uleb128 0x8
 4495 01e6 AA000000 		.4byte	0xaa
 4496 01ea 03       		.byte	0x3
 4497 01eb 00       		.byte	0
 4498 01ec 0F       		.uleb128 0xf
 4499 01ed 08       		.byte	0x8
 4500 01ee 07       		.byte	0x7
 4501 01ef A3       		.byte	0xa3
 4502 01f0 11020000 		.4byte	0x211
 4503 01f4 10       		.uleb128 0x10
 4504 01f5 010B0000 		.4byte	.LASF33
 4505 01f9 07       		.byte	0x7
 4506 01fa A5       		.byte	0xa5
 4507 01fb A3000000 		.4byte	0xa3
 4508 01ff 02       		.byte	0x2
 4509 0200 23       		.byte	0x23
 4510 0201 00       		.uleb128 0
 4511 0202 10       		.uleb128 0x10
 4512 0203 EA190000 		.4byte	.LASF34
 4513 0207 07       		.byte	0x7
 4514 0208 AA       		.byte	0xaa
 4515 0209 BD010000 		.4byte	0x1bd
 4516 020d 02       		.byte	0x2
 4517 020e 23       		.byte	0x23
 4518 020f 04       		.uleb128 0x4
 4519 0210 00       		.byte	0
 4520 0211 03       		.uleb128 0x3
 4521 0212 81190000 		.4byte	.LASF35
 4522 0216 07       		.byte	0x7
 4523 0217 AB       		.byte	0xab
 4524 0218 EC010000 		.4byte	0x1ec
 4525 021c 03       		.uleb128 0x3
 4526 021d 311D0000 		.4byte	.LASF36
 4527 0221 07       		.byte	0x7
ARM GAS  C:\Users\EBANO_~1\AppData\Local\Temp\ccJkfoGk.s 			page 109


 4528 0222 AF       		.byte	0xaf
 4529 0223 84010000 		.4byte	0x184
 4530 0227 03       		.uleb128 0x3
 4531 0228 A6100000 		.4byte	.LASF37
 4532 022c 08       		.byte	0x8
 4533 022d 16       		.byte	0x16
 4534 022e 8E000000 		.4byte	0x8e
 4535 0232 11       		.uleb128 0x11
 4536 0233 C5160000 		.4byte	.LASF42
 4537 0237 18       		.byte	0x18
 4538 0238 08       		.byte	0x8
 4539 0239 2F       		.byte	0x2f
 4540 023a 91020000 		.4byte	0x291
 4541 023e 10       		.uleb128 0x10
 4542 023f 0A0E0000 		.4byte	.LASF38
 4543 0243 08       		.byte	0x8
 4544 0244 31       		.byte	0x31
 4545 0245 91020000 		.4byte	0x291
 4546 0249 02       		.byte	0x2
 4547 024a 23       		.byte	0x23
 4548 024b 00       		.uleb128 0
 4549 024c 12       		.uleb128 0x12
 4550 024d 5F6B00   		.ascii	"_k\000"
 4551 0250 08       		.byte	0x8
 4552 0251 32       		.byte	0x32
 4553 0252 A3000000 		.4byte	0xa3
 4554 0256 02       		.byte	0x2
 4555 0257 23       		.byte	0x23
 4556 0258 04       		.uleb128 0x4
 4557 0259 10       		.uleb128 0x10
 4558 025a A7140000 		.4byte	.LASF39
 4559 025e 08       		.byte	0x8
 4560 025f 32       		.byte	0x32
 4561 0260 A3000000 		.4byte	0xa3
 4562 0264 02       		.byte	0x2
 4563 0265 23       		.byte	0x23
 4564 0266 08       		.uleb128 0x8
 4565 0267 10       		.uleb128 0x10
 4566 0268 45200000 		.4byte	.LASF40
 4567 026c 08       		.byte	0x8
 4568 026d 32       		.byte	0x32
 4569 026e A3000000 		.4byte	0xa3
 4570 0272 02       		.byte	0x2
 4571 0273 23       		.byte	0x23
 4572 0274 0C       		.uleb128 0xc
 4573 0275 10       		.uleb128 0x10
 4574 0276 24070000 		.4byte	.LASF41
 4575 027a 08       		.byte	0x8
 4576 027b 32       		.byte	0x32
 4577 027c A3000000 		.4byte	0xa3
 4578 0280 02       		.byte	0x2
 4579 0281 23       		.byte	0x23
 4580 0282 10       		.uleb128 0x10
 4581 0283 12       		.uleb128 0x12
 4582 0284 5F7800   		.ascii	"_x\000"
 4583 0287 08       		.byte	0x8
 4584 0288 33       		.byte	0x33
ARM GAS  C:\Users\EBANO_~1\AppData\Local\Temp\ccJkfoGk.s 			page 110


 4585 0289 97020000 		.4byte	0x297
 4586 028d 02       		.byte	0x2
 4587 028e 23       		.byte	0x23
 4588 028f 14       		.uleb128 0x14
 4589 0290 00       		.byte	0
 4590 0291 0A       		.uleb128 0xa
 4591 0292 04       		.byte	0x4
 4592 0293 32020000 		.4byte	0x232
 4593 0297 07       		.uleb128 0x7
 4594 0298 27020000 		.4byte	0x227
 4595 029c A7020000 		.4byte	0x2a7
 4596 02a0 08       		.uleb128 0x8
 4597 02a1 AA000000 		.4byte	0xaa
 4598 02a5 00       		.byte	0
 4599 02a6 00       		.byte	0
 4600 02a7 11       		.uleb128 0x11
 4601 02a8 E6040000 		.4byte	.LASF43
 4602 02ac 24       		.byte	0x24
 4603 02ad 08       		.byte	0x8
 4604 02ae 37       		.byte	0x37
 4605 02af 32030000 		.4byte	0x332
 4606 02b3 10       		.uleb128 0x10
 4607 02b4 920F0000 		.4byte	.LASF44
 4608 02b8 08       		.byte	0x8
 4609 02b9 39       		.byte	0x39
 4610 02ba A3000000 		.4byte	0xa3
 4611 02be 02       		.byte	0x2
 4612 02bf 23       		.byte	0x23
 4613 02c0 00       		.uleb128 0
 4614 02c1 10       		.uleb128 0x10
 4615 02c2 54200000 		.4byte	.LASF45
 4616 02c6 08       		.byte	0x8
 4617 02c7 3A       		.byte	0x3a
 4618 02c8 A3000000 		.4byte	0xa3
 4619 02cc 02       		.byte	0x2
 4620 02cd 23       		.byte	0x23
 4621 02ce 04       		.uleb128 0x4
 4622 02cf 10       		.uleb128 0x10
 4623 02d0 550C0000 		.4byte	.LASF46
 4624 02d4 08       		.byte	0x8
 4625 02d5 3B       		.byte	0x3b
 4626 02d6 A3000000 		.4byte	0xa3
 4627 02da 02       		.byte	0x2
 4628 02db 23       		.byte	0x23
 4629 02dc 08       		.uleb128 0x8
 4630 02dd 10       		.uleb128 0x10
 4631 02de 550D0000 		.4byte	.LASF47
 4632 02e2 08       		.byte	0x8
 4633 02e3 3C       		.byte	0x3c
 4634 02e4 A3000000 		.4byte	0xa3
 4635 02e8 02       		.byte	0x2
 4636 02e9 23       		.byte	0x23
 4637 02ea 0C       		.uleb128 0xc
 4638 02eb 10       		.uleb128 0x10
 4639 02ec FB000000 		.4byte	.LASF48
 4640 02f0 08       		.byte	0x8
 4641 02f1 3D       		.byte	0x3d
ARM GAS  C:\Users\EBANO_~1\AppData\Local\Temp\ccJkfoGk.s 			page 111


 4642 02f2 A3000000 		.4byte	0xa3
 4643 02f6 02       		.byte	0x2
 4644 02f7 23       		.byte	0x23
 4645 02f8 10       		.uleb128 0x10
 4646 02f9 10       		.uleb128 0x10
 4647 02fa 9B080000 		.4byte	.LASF49
 4648 02fe 08       		.byte	0x8
 4649 02ff 3E       		.byte	0x3e
 4650 0300 A3000000 		.4byte	0xa3
 4651 0304 02       		.byte	0x2
 4652 0305 23       		.byte	0x23
 4653 0306 14       		.uleb128 0x14
 4654 0307 10       		.uleb128 0x10
 4655 0308 92060000 		.4byte	.LASF50
 4656 030c 08       		.byte	0x8
 4657 030d 3F       		.byte	0x3f
 4658 030e A3000000 		.4byte	0xa3
 4659 0312 02       		.byte	0x2
 4660 0313 23       		.byte	0x23
 4661 0314 18       		.uleb128 0x18
 4662 0315 10       		.uleb128 0x10
 4663 0316 07050000 		.4byte	.LASF51
 4664 031a 08       		.byte	0x8
 4665 031b 40       		.byte	0x40
 4666 031c A3000000 		.4byte	0xa3
 4667 0320 02       		.byte	0x2
 4668 0321 23       		.byte	0x23
 4669 0322 1C       		.uleb128 0x1c
 4670 0323 10       		.uleb128 0x10
 4671 0324 9C060000 		.4byte	.LASF52
 4672 0328 08       		.byte	0x8
 4673 0329 41       		.byte	0x41
 4674 032a A3000000 		.4byte	0xa3
 4675 032e 02       		.byte	0x2
 4676 032f 23       		.byte	0x23
 4677 0330 20       		.uleb128 0x20
 4678 0331 00       		.byte	0
 4679 0332 13       		.uleb128 0x13
 4680 0333 9B0F0000 		.4byte	.LASF53
 4681 0337 0801     		.2byte	0x108
 4682 0339 08       		.byte	0x8
 4683 033a 4A       		.byte	0x4a
 4684 033b 7B030000 		.4byte	0x37b
 4685 033f 10       		.uleb128 0x10
 4686 0340 5F0D0000 		.4byte	.LASF54
 4687 0344 08       		.byte	0x8
 4688 0345 4B       		.byte	0x4b
 4689 0346 7B030000 		.4byte	0x37b
 4690 034a 02       		.byte	0x2
 4691 034b 23       		.byte	0x23
 4692 034c 00       		.uleb128 0
 4693 034d 10       		.uleb128 0x10
 4694 034e 73060000 		.4byte	.LASF55
 4695 0352 08       		.byte	0x8
 4696 0353 4C       		.byte	0x4c
 4697 0354 7B030000 		.4byte	0x37b
 4698 0358 03       		.byte	0x3
ARM GAS  C:\Users\EBANO_~1\AppData\Local\Temp\ccJkfoGk.s 			page 112


 4699 0359 23       		.byte	0x23
 4700 035a 8001     		.uleb128 0x80
 4701 035c 10       		.uleb128 0x10
 4702 035d 04010000 		.4byte	.LASF56
 4703 0361 08       		.byte	0x8
 4704 0362 4E       		.byte	0x4e
 4705 0363 27020000 		.4byte	0x227
 4706 0367 03       		.byte	0x3
 4707 0368 23       		.byte	0x23
 4708 0369 8002     		.uleb128 0x100
 4709 036b 10       		.uleb128 0x10
 4710 036c 021A0000 		.4byte	.LASF57
 4711 0370 08       		.byte	0x8
 4712 0371 51       		.byte	0x51
 4713 0372 27020000 		.4byte	0x227
 4714 0376 03       		.byte	0x3
 4715 0377 23       		.byte	0x23
 4716 0378 8402     		.uleb128 0x104
 4717 037a 00       		.byte	0
 4718 037b 07       		.uleb128 0x7
 4719 037c 82010000 		.4byte	0x182
 4720 0380 8B030000 		.4byte	0x38b
 4721 0384 08       		.uleb128 0x8
 4722 0385 AA000000 		.4byte	0xaa
 4723 0389 1F       		.byte	0x1f
 4724 038a 00       		.byte	0
 4725 038b 13       		.uleb128 0x13
 4726 038c E1000000 		.4byte	.LASF58
 4727 0390 9001     		.2byte	0x190
 4728 0392 08       		.byte	0x8
 4729 0393 5D       		.byte	0x5d
 4730 0394 D2030000 		.4byte	0x3d2
 4731 0398 10       		.uleb128 0x10
 4732 0399 0A0E0000 		.4byte	.LASF38
 4733 039d 08       		.byte	0x8
 4734 039e 5E       		.byte	0x5e
 4735 039f D2030000 		.4byte	0x3d2
 4736 03a3 02       		.byte	0x2
 4737 03a4 23       		.byte	0x23
 4738 03a5 00       		.uleb128 0
 4739 03a6 10       		.uleb128 0x10
 4740 03a7 12010000 		.4byte	.LASF59
 4741 03ab 08       		.byte	0x8
 4742 03ac 5F       		.byte	0x5f
 4743 03ad A3000000 		.4byte	0xa3
 4744 03b1 02       		.byte	0x2
 4745 03b2 23       		.byte	0x23
 4746 03b3 04       		.uleb128 0x4
 4747 03b4 10       		.uleb128 0x10
 4748 03b5 5C190000 		.4byte	.LASF60
 4749 03b9 08       		.byte	0x8
 4750 03ba 61       		.byte	0x61
 4751 03bb D8030000 		.4byte	0x3d8
 4752 03bf 02       		.byte	0x2
 4753 03c0 23       		.byte	0x23
 4754 03c1 08       		.uleb128 0x8
 4755 03c2 10       		.uleb128 0x10
ARM GAS  C:\Users\EBANO_~1\AppData\Local\Temp\ccJkfoGk.s 			page 113


 4756 03c3 9B0F0000 		.4byte	.LASF53
 4757 03c7 08       		.byte	0x8
 4758 03c8 62       		.byte	0x62
 4759 03c9 32030000 		.4byte	0x332
 4760 03cd 03       		.byte	0x3
 4761 03ce 23       		.byte	0x23
 4762 03cf 8801     		.uleb128 0x88
 4763 03d1 00       		.byte	0
 4764 03d2 0A       		.uleb128 0xa
 4765 03d3 04       		.byte	0x4
 4766 03d4 8B030000 		.4byte	0x38b
 4767 03d8 07       		.uleb128 0x7
 4768 03d9 E8030000 		.4byte	0x3e8
 4769 03dd E8030000 		.4byte	0x3e8
 4770 03e1 08       		.uleb128 0x8
 4771 03e2 AA000000 		.4byte	0xaa
 4772 03e6 1F       		.byte	0x1f
 4773 03e7 00       		.byte	0
 4774 03e8 0A       		.uleb128 0xa
 4775 03e9 04       		.byte	0x4
 4776 03ea EE030000 		.4byte	0x3ee
 4777 03ee 14       		.uleb128 0x14
 4778 03ef 01       		.byte	0x1
 4779 03f0 11       		.uleb128 0x11
 4780 03f1 74120000 		.4byte	.LASF61
 4781 03f5 08       		.byte	0x8
 4782 03f6 08       		.byte	0x8
 4783 03f7 75       		.byte	0x75
 4784 03f8 19040000 		.4byte	0x419
 4785 03fc 10       		.uleb128 0x10
 4786 03fd 99040000 		.4byte	.LASF62
 4787 0401 08       		.byte	0x8
 4788 0402 76       		.byte	0x76
 4789 0403 19040000 		.4byte	0x419
 4790 0407 02       		.byte	0x2
 4791 0408 23       		.byte	0x23
 4792 0409 00       		.uleb128 0
 4793 040a 10       		.uleb128 0x10
 4794 040b EE070000 		.4byte	.LASF63
 4795 040f 08       		.byte	0x8
 4796 0410 77       		.byte	0x77
 4797 0411 A3000000 		.4byte	0xa3
 4798 0415 02       		.byte	0x2
 4799 0416 23       		.byte	0x23
 4800 0417 04       		.uleb128 0x4
 4801 0418 00       		.byte	0
 4802 0419 0A       		.uleb128 0xa
 4803 041a 04       		.byte	0x4
 4804 041b 46000000 		.4byte	0x46
 4805 041f 11       		.uleb128 0x11
 4806 0420 43190000 		.4byte	.LASF64
 4807 0424 68       		.byte	0x68
 4808 0425 08       		.byte	0x8
 4809 0426 B5       		.byte	0xb5
 4810 0427 79050000 		.4byte	0x579
 4811 042b 12       		.uleb128 0x12
 4812 042c 5F7000   		.ascii	"_p\000"
ARM GAS  C:\Users\EBANO_~1\AppData\Local\Temp\ccJkfoGk.s 			page 114


 4813 042f 08       		.byte	0x8
 4814 0430 B6       		.byte	0xb6
 4815 0431 19040000 		.4byte	0x419
 4816 0435 02       		.byte	0x2
 4817 0436 23       		.byte	0x23
 4818 0437 00       		.uleb128 0
 4819 0438 12       		.uleb128 0x12
 4820 0439 5F7200   		.ascii	"_r\000"
 4821 043c 08       		.byte	0x8
 4822 043d B7       		.byte	0xb7
 4823 043e A3000000 		.4byte	0xa3
 4824 0442 02       		.byte	0x2
 4825 0443 23       		.byte	0x23
 4826 0444 04       		.uleb128 0x4
 4827 0445 12       		.uleb128 0x12
 4828 0446 5F7700   		.ascii	"_w\000"
 4829 0449 08       		.byte	0x8
 4830 044a B8       		.byte	0xb8
 4831 044b A3000000 		.4byte	0xa3
 4832 044f 02       		.byte	0x2
 4833 0450 23       		.byte	0x23
 4834 0451 08       		.uleb128 0x8
 4835 0452 10       		.uleb128 0x10
 4836 0453 61010000 		.4byte	.LASF65
 4837 0457 08       		.byte	0x8
 4838 0458 B9       		.byte	0xb9
 4839 0459 58000000 		.4byte	0x58
 4840 045d 02       		.byte	0x2
 4841 045e 23       		.byte	0x23
 4842 045f 0C       		.uleb128 0xc
 4843 0460 10       		.uleb128 0x10
 4844 0461 2E190000 		.4byte	.LASF66
 4845 0465 08       		.byte	0x8
 4846 0466 BA       		.byte	0xba
 4847 0467 58000000 		.4byte	0x58
 4848 046b 02       		.byte	0x2
 4849 046c 23       		.byte	0x23
 4850 046d 0E       		.uleb128 0xe
 4851 046e 12       		.uleb128 0x12
 4852 046f 5F626600 		.ascii	"_bf\000"
 4853 0473 08       		.byte	0x8
 4854 0474 BB       		.byte	0xbb
 4855 0475 F0030000 		.4byte	0x3f0
 4856 0479 02       		.byte	0x2
 4857 047a 23       		.byte	0x23
 4858 047b 10       		.uleb128 0x10
 4859 047c 10       		.uleb128 0x10
 4860 047d 61030000 		.4byte	.LASF67
 4861 0481 08       		.byte	0x8
 4862 0482 BC       		.byte	0xbc
 4863 0483 A3000000 		.4byte	0xa3
 4864 0487 02       		.byte	0x2
 4865 0488 23       		.byte	0x23
 4866 0489 18       		.uleb128 0x18
 4867 048a 10       		.uleb128 0x10
 4868 048b 430E0000 		.4byte	.LASF68
 4869 048f 08       		.byte	0x8
ARM GAS  C:\Users\EBANO_~1\AppData\Local\Temp\ccJkfoGk.s 			page 115


 4870 0490 C3       		.byte	0xc3
 4871 0491 82010000 		.4byte	0x182
 4872 0495 02       		.byte	0x2
 4873 0496 23       		.byte	0x23
 4874 0497 1C       		.uleb128 0x1c
 4875 0498 10       		.uleb128 0x10
 4876 0499 32210000 		.4byte	.LASF69
 4877 049d 08       		.byte	0x8
 4878 049e C5       		.byte	0xc5
 4879 049f 13070000 		.4byte	0x713
 4880 04a3 02       		.byte	0x2
 4881 04a4 23       		.byte	0x23
 4882 04a5 20       		.uleb128 0x20
 4883 04a6 10       		.uleb128 0x10
 4884 04a7 FC070000 		.4byte	.LASF70
 4885 04ab 08       		.byte	0x8
 4886 04ac C7       		.byte	0xc7
 4887 04ad 3E070000 		.4byte	0x73e
 4888 04b1 02       		.byte	0x2
 4889 04b2 23       		.byte	0x23
 4890 04b3 24       		.uleb128 0x24
 4891 04b4 10       		.uleb128 0x10
 4892 04b5 69110000 		.4byte	.LASF71
 4893 04b9 08       		.byte	0x8
 4894 04ba CA       		.byte	0xca
 4895 04bb 63070000 		.4byte	0x763
 4896 04bf 02       		.byte	0x2
 4897 04c0 23       		.byte	0x23
 4898 04c1 28       		.uleb128 0x28
 4899 04c2 10       		.uleb128 0x10
 4900 04c3 BA150000 		.4byte	.LASF72
 4901 04c7 08       		.byte	0x8
 4902 04c8 CB       		.byte	0xcb
 4903 04c9 7E070000 		.4byte	0x77e
 4904 04cd 02       		.byte	0x2
 4905 04ce 23       		.byte	0x23
 4906 04cf 2C       		.uleb128 0x2c
 4907 04d0 12       		.uleb128 0x12
 4908 04d1 5F756200 		.ascii	"_ub\000"
 4909 04d5 08       		.byte	0x8
 4910 04d6 CE       		.byte	0xce
 4911 04d7 F0030000 		.4byte	0x3f0
 4912 04db 02       		.byte	0x2
 4913 04dc 23       		.byte	0x23
 4914 04dd 30       		.uleb128 0x30
 4915 04de 12       		.uleb128 0x12
 4916 04df 5F757000 		.ascii	"_up\000"
 4917 04e3 08       		.byte	0x8
 4918 04e4 CF       		.byte	0xcf
 4919 04e5 19040000 		.4byte	0x419
 4920 04e9 02       		.byte	0x2
 4921 04ea 23       		.byte	0x23
 4922 04eb 38       		.uleb128 0x38
 4923 04ec 12       		.uleb128 0x12
 4924 04ed 5F757200 		.ascii	"_ur\000"
 4925 04f1 08       		.byte	0x8
 4926 04f2 D0       		.byte	0xd0
ARM GAS  C:\Users\EBANO_~1\AppData\Local\Temp\ccJkfoGk.s 			page 116


 4927 04f3 A3000000 		.4byte	0xa3
 4928 04f7 02       		.byte	0x2
 4929 04f8 23       		.byte	0x23
 4930 04f9 3C       		.uleb128 0x3c
 4931 04fa 10       		.uleb128 0x10
 4932 04fb 5B180000 		.4byte	.LASF73
 4933 04ff 08       		.byte	0x8
 4934 0500 D3       		.byte	0xd3
 4935 0501 84070000 		.4byte	0x784
 4936 0505 02       		.byte	0x2
 4937 0506 23       		.byte	0x23
 4938 0507 40       		.uleb128 0x40
 4939 0508 10       		.uleb128 0x10
 4940 0509 DB010000 		.4byte	.LASF74
 4941 050d 08       		.byte	0x8
 4942 050e D4       		.byte	0xd4
 4943 050f 94070000 		.4byte	0x794
 4944 0513 02       		.byte	0x2
 4945 0514 23       		.byte	0x23
 4946 0515 43       		.uleb128 0x43
 4947 0516 12       		.uleb128 0x12
 4948 0517 5F6C6200 		.ascii	"_lb\000"
 4949 051b 08       		.byte	0x8
 4950 051c D7       		.byte	0xd7
 4951 051d F0030000 		.4byte	0x3f0
 4952 0521 02       		.byte	0x2
 4953 0522 23       		.byte	0x23
 4954 0523 44       		.uleb128 0x44
 4955 0524 10       		.uleb128 0x10
 4956 0525 43180000 		.4byte	.LASF75
 4957 0529 08       		.byte	0x8
 4958 052a DA       		.byte	0xda
 4959 052b A3000000 		.4byte	0xa3
 4960 052f 02       		.byte	0x2
 4961 0530 23       		.byte	0x23
 4962 0531 4C       		.uleb128 0x4c
 4963 0532 10       		.uleb128 0x10
 4964 0533 40120000 		.4byte	.LASF76
 4965 0537 08       		.byte	0x8
 4966 0538 DB       		.byte	0xdb
 4967 0539 9B010000 		.4byte	0x19b
 4968 053d 02       		.byte	0x2
 4969 053e 23       		.byte	0x23
 4970 053f 50       		.uleb128 0x50
 4971 0540 10       		.uleb128 0x10
 4972 0541 B0030000 		.4byte	.LASF77
 4973 0545 08       		.byte	0x8
 4974 0546 DE       		.byte	0xde
 4975 0547 98050000 		.4byte	0x598
 4976 054b 02       		.byte	0x2
 4977 054c 23       		.byte	0x23
 4978 054d 54       		.uleb128 0x54
 4979 054e 10       		.uleb128 0x10
 4980 054f D5010000 		.4byte	.LASF78
 4981 0553 08       		.byte	0x8
 4982 0554 E2       		.byte	0xe2
 4983 0555 1C020000 		.4byte	0x21c
ARM GAS  C:\Users\EBANO_~1\AppData\Local\Temp\ccJkfoGk.s 			page 117


 4984 0559 02       		.byte	0x2
 4985 055a 23       		.byte	0x23
 4986 055b 58       		.uleb128 0x58
 4987 055c 10       		.uleb128 0x10
 4988 055d CC000000 		.4byte	.LASF79
 4989 0561 08       		.byte	0x8
 4990 0562 E4       		.byte	0xe4
 4991 0563 11020000 		.4byte	0x211
 4992 0567 02       		.byte	0x2
 4993 0568 23       		.byte	0x23
 4994 0569 5C       		.uleb128 0x5c
 4995 056a 10       		.uleb128 0x10
 4996 056b 601E0000 		.4byte	.LASF80
 4997 056f 08       		.byte	0x8
 4998 0570 E5       		.byte	0xe5
 4999 0571 A3000000 		.4byte	0xa3
 5000 0575 02       		.byte	0x2
 5001 0576 23       		.byte	0x23
 5002 0577 64       		.uleb128 0x64
 5003 0578 00       		.byte	0
 5004 0579 15       		.uleb128 0x15
 5005 057a 01       		.byte	0x1
 5006 057b A3000000 		.4byte	0xa3
 5007 057f 98050000 		.4byte	0x598
 5008 0583 16       		.uleb128 0x16
 5009 0584 98050000 		.4byte	0x598
 5010 0588 16       		.uleb128 0x16
 5011 0589 82010000 		.4byte	0x182
 5012 058d 16       		.uleb128 0x16
 5013 058e 01070000 		.4byte	0x701
 5014 0592 16       		.uleb128 0x16
 5015 0593 A3000000 		.4byte	0xa3
 5016 0597 00       		.byte	0
 5017 0598 0A       		.uleb128 0xa
 5018 0599 04       		.byte	0x4
 5019 059a A3050000 		.4byte	0x5a3
 5020 059e 05       		.uleb128 0x5
 5021 059f 98050000 		.4byte	0x598
 5022 05a3 17       		.uleb128 0x17
 5023 05a4 46040000 		.4byte	.LASF81
 5024 05a8 2804     		.2byte	0x428
 5025 05aa 08       		.byte	0x8
 5026 05ab 6002     		.2byte	0x260
 5027 05ad 01070000 		.4byte	0x701
 5028 05b1 18       		.uleb128 0x18
 5029 05b2 320D0000 		.4byte	.LASF82
 5030 05b6 08       		.byte	0x8
 5031 05b7 6202     		.2byte	0x262
 5032 05b9 A3000000 		.4byte	0xa3
 5033 05bd 02       		.byte	0x2
 5034 05be 23       		.byte	0x23
 5035 05bf 00       		.uleb128 0
 5036 05c0 18       		.uleb128 0x18
 5037 05c1 570A0000 		.4byte	.LASF83
 5038 05c5 08       		.byte	0x8
 5039 05c6 6702     		.2byte	0x267
 5040 05c8 F1070000 		.4byte	0x7f1
ARM GAS  C:\Users\EBANO_~1\AppData\Local\Temp\ccJkfoGk.s 			page 118


 5041 05cc 02       		.byte	0x2
 5042 05cd 23       		.byte	0x23
 5043 05ce 04       		.uleb128 0x4
 5044 05cf 18       		.uleb128 0x18
 5045 05d0 FA060000 		.4byte	.LASF84
 5046 05d4 08       		.byte	0x8
 5047 05d5 6702     		.2byte	0x267
 5048 05d7 F1070000 		.4byte	0x7f1
 5049 05db 02       		.byte	0x2
 5050 05dc 23       		.byte	0x23
 5051 05dd 08       		.uleb128 0x8
 5052 05de 18       		.uleb128 0x18
 5053 05df 54060000 		.4byte	.LASF85
 5054 05e3 08       		.byte	0x8
 5055 05e4 6702     		.2byte	0x267
 5056 05e6 F1070000 		.4byte	0x7f1
 5057 05ea 02       		.byte	0x2
 5058 05eb 23       		.byte	0x23
 5059 05ec 0C       		.uleb128 0xc
 5060 05ed 18       		.uleb128 0x18
 5061 05ee 0D010000 		.4byte	.LASF86
 5062 05f2 08       		.byte	0x8
 5063 05f3 6902     		.2byte	0x269
 5064 05f5 A3000000 		.4byte	0xa3
 5065 05f9 02       		.byte	0x2
 5066 05fa 23       		.byte	0x23
 5067 05fb 10       		.uleb128 0x10
 5068 05fc 18       		.uleb128 0x18
 5069 05fd 0B140000 		.4byte	.LASF87
 5070 0601 08       		.byte	0x8
 5071 0602 6A02     		.2byte	0x26a
 5072 0604 0C0A0000 		.4byte	0xa0c
 5073 0608 02       		.byte	0x2
 5074 0609 23       		.byte	0x23
 5075 060a 14       		.uleb128 0x14
 5076 060b 18       		.uleb128 0x18
 5077 060c 921C0000 		.4byte	.LASF88
 5078 0610 08       		.byte	0x8
 5079 0611 6D02     		.2byte	0x26d
 5080 0613 A3000000 		.4byte	0xa3
 5081 0617 02       		.byte	0x2
 5082 0618 23       		.byte	0x23
 5083 0619 30       		.uleb128 0x30
 5084 061a 18       		.uleb128 0x18
 5085 061b A21E0000 		.4byte	.LASF89
 5086 061f 08       		.byte	0x8
 5087 0620 6E02     		.2byte	0x26e
 5088 0622 220A0000 		.4byte	0xa22
 5089 0626 02       		.byte	0x2
 5090 0627 23       		.byte	0x23
 5091 0628 34       		.uleb128 0x34
 5092 0629 18       		.uleb128 0x18
 5093 062a E21C0000 		.4byte	.LASF90
 5094 062e 08       		.byte	0x8
 5095 062f 7002     		.2byte	0x270
 5096 0631 A3000000 		.4byte	0xa3
 5097 0635 02       		.byte	0x2
ARM GAS  C:\Users\EBANO_~1\AppData\Local\Temp\ccJkfoGk.s 			page 119


 5098 0636 23       		.byte	0x23
 5099 0637 38       		.uleb128 0x38
 5100 0638 18       		.uleb128 0x18
 5101 0639 B7180000 		.4byte	.LASF91
 5102 063d 08       		.byte	0x8
 5103 063e 7202     		.2byte	0x272
 5104 0640 340A0000 		.4byte	0xa34
 5105 0644 02       		.byte	0x2
 5106 0645 23       		.byte	0x23
 5107 0646 3C       		.uleb128 0x3c
 5108 0647 18       		.uleb128 0x18
 5109 0648 5C060000 		.4byte	.LASF92
 5110 064c 08       		.byte	0x8
 5111 064d 7502     		.2byte	0x275
 5112 064f 91020000 		.4byte	0x291
 5113 0653 02       		.byte	0x2
 5114 0654 23       		.byte	0x23
 5115 0655 40       		.uleb128 0x40
 5116 0656 18       		.uleb128 0x18
 5117 0657 4A060000 		.4byte	.LASF93
 5118 065b 08       		.byte	0x8
 5119 065c 7602     		.2byte	0x276
 5120 065e A3000000 		.4byte	0xa3
 5121 0662 02       		.byte	0x2
 5122 0663 23       		.byte	0x23
 5123 0664 44       		.uleb128 0x44
 5124 0665 18       		.uleb128 0x18
 5125 0666 3C1A0000 		.4byte	.LASF94
 5126 066a 08       		.byte	0x8
 5127 066b 7702     		.2byte	0x277
 5128 066d 91020000 		.4byte	0x291
 5129 0671 02       		.byte	0x2
 5130 0672 23       		.byte	0x23
 5131 0673 48       		.uleb128 0x48
 5132 0674 18       		.uleb128 0x18
 5133 0675 26120000 		.4byte	.LASF95
 5134 0679 08       		.byte	0x8
 5135 067a 7802     		.2byte	0x278
 5136 067c 3A0A0000 		.4byte	0xa3a
 5137 0680 02       		.byte	0x2
 5138 0681 23       		.byte	0x23
 5139 0682 4C       		.uleb128 0x4c
 5140 0683 18       		.uleb128 0x18
 5141 0684 77010000 		.4byte	.LASF96
 5142 0688 08       		.byte	0x8
 5143 0689 7B02     		.2byte	0x27b
 5144 068b A3000000 		.4byte	0xa3
 5145 068f 02       		.byte	0x2
 5146 0690 23       		.byte	0x23
 5147 0691 50       		.uleb128 0x50
 5148 0692 18       		.uleb128 0x18
 5149 0693 B20B0000 		.4byte	.LASF97
 5150 0697 08       		.byte	0x8
 5151 0698 7C02     		.2byte	0x27c
 5152 069a 01070000 		.4byte	0x701
 5153 069e 02       		.byte	0x2
 5154 069f 23       		.byte	0x23
ARM GAS  C:\Users\EBANO_~1\AppData\Local\Temp\ccJkfoGk.s 			page 120


 5155 06a0 54       		.uleb128 0x54
 5156 06a1 18       		.uleb128 0x18
 5157 06a2 A00C0000 		.4byte	.LASF98
 5158 06a6 08       		.byte	0x8
 5159 06a7 9F02     		.2byte	0x29f
 5160 06a9 EA090000 		.4byte	0x9ea
 5161 06ad 02       		.byte	0x2
 5162 06ae 23       		.byte	0x23
 5163 06af 58       		.uleb128 0x58
 5164 06b0 18       		.uleb128 0x18
 5165 06b1 E1000000 		.4byte	.LASF58
 5166 06b5 08       		.byte	0x8
 5167 06b6 A302     		.2byte	0x2a3
 5168 06b8 D2030000 		.4byte	0x3d2
 5169 06bc 03       		.byte	0x3
 5170 06bd 23       		.byte	0x23
 5171 06be C802     		.uleb128 0x148
 5172 06c0 18       		.uleb128 0x18
 5173 06c1 2B170000 		.4byte	.LASF99
 5174 06c5 08       		.byte	0x8
 5175 06c6 A402     		.2byte	0x2a4
 5176 06c8 8B030000 		.4byte	0x38b
 5177 06cc 03       		.byte	0x3
 5178 06cd 23       		.byte	0x23
 5179 06ce CC02     		.uleb128 0x14c
 5180 06d0 18       		.uleb128 0x18
 5181 06d1 A0010000 		.4byte	.LASF100
 5182 06d5 08       		.byte	0x8
 5183 06d6 A802     		.2byte	0x2a8
 5184 06d8 4C0A0000 		.4byte	0xa4c
 5185 06dc 03       		.byte	0x3
 5186 06dd 23       		.byte	0x23
 5187 06de DC05     		.uleb128 0x2dc
 5188 06e0 18       		.uleb128 0x18
 5189 06e1 9E180000 		.4byte	.LASF101
 5190 06e5 08       		.byte	0x8
 5191 06e6 AD02     		.2byte	0x2ad
 5192 06e8 B0070000 		.4byte	0x7b0
 5193 06ec 03       		.byte	0x3
 5194 06ed 23       		.byte	0x23
 5195 06ee E005     		.uleb128 0x2e0
 5196 06f0 18       		.uleb128 0x18
 5197 06f1 94040000 		.4byte	.LASF102
 5198 06f5 08       		.byte	0x8
 5199 06f6 AF02     		.2byte	0x2af
 5200 06f8 580A0000 		.4byte	0xa58
 5201 06fc 03       		.byte	0x3
 5202 06fd 23       		.byte	0x23
 5203 06fe EC05     		.uleb128 0x2ec
 5204 0700 00       		.byte	0
 5205 0701 0A       		.uleb128 0xa
 5206 0702 04       		.byte	0x4
 5207 0703 07070000 		.4byte	0x707
 5208 0707 02       		.uleb128 0x2
 5209 0708 01       		.byte	0x1
 5210 0709 08       		.byte	0x8
 5211 070a D2150000 		.4byte	.LASF103
ARM GAS  C:\Users\EBANO_~1\AppData\Local\Temp\ccJkfoGk.s 			page 121


 5212 070e 05       		.uleb128 0x5
 5213 070f 07070000 		.4byte	0x707
 5214 0713 0A       		.uleb128 0xa
 5215 0714 04       		.byte	0x4
 5216 0715 79050000 		.4byte	0x579
 5217 0719 15       		.uleb128 0x15
 5218 071a 01       		.byte	0x1
 5219 071b A3000000 		.4byte	0xa3
 5220 071f 38070000 		.4byte	0x738
 5221 0723 16       		.uleb128 0x16
 5222 0724 98050000 		.4byte	0x598
 5223 0728 16       		.uleb128 0x16
 5224 0729 82010000 		.4byte	0x182
 5225 072d 16       		.uleb128 0x16
 5226 072e 38070000 		.4byte	0x738
 5227 0732 16       		.uleb128 0x16
 5228 0733 A3000000 		.4byte	0xa3
 5229 0737 00       		.byte	0
 5230 0738 0A       		.uleb128 0xa
 5231 0739 04       		.byte	0x4
 5232 073a 0E070000 		.4byte	0x70e
 5233 073e 0A       		.uleb128 0xa
 5234 073f 04       		.byte	0x4
 5235 0740 19070000 		.4byte	0x719
 5236 0744 15       		.uleb128 0x15
 5237 0745 01       		.byte	0x1
 5238 0746 A6010000 		.4byte	0x1a6
 5239 074a 63070000 		.4byte	0x763
 5240 074e 16       		.uleb128 0x16
 5241 074f 98050000 		.4byte	0x598
 5242 0753 16       		.uleb128 0x16
 5243 0754 82010000 		.4byte	0x182
 5244 0758 16       		.uleb128 0x16
 5245 0759 A6010000 		.4byte	0x1a6
 5246 075d 16       		.uleb128 0x16
 5247 075e A3000000 		.4byte	0xa3
 5248 0762 00       		.byte	0
 5249 0763 0A       		.uleb128 0xa
 5250 0764 04       		.byte	0x4
 5251 0765 44070000 		.4byte	0x744
 5252 0769 15       		.uleb128 0x15
 5253 076a 01       		.byte	0x1
 5254 076b A3000000 		.4byte	0xa3
 5255 076f 7E070000 		.4byte	0x77e
 5256 0773 16       		.uleb128 0x16
 5257 0774 98050000 		.4byte	0x598
 5258 0778 16       		.uleb128 0x16
 5259 0779 82010000 		.4byte	0x182
 5260 077d 00       		.byte	0
 5261 077e 0A       		.uleb128 0xa
 5262 077f 04       		.byte	0x4
 5263 0780 69070000 		.4byte	0x769
 5264 0784 07       		.uleb128 0x7
 5265 0785 46000000 		.4byte	0x46
 5266 0789 94070000 		.4byte	0x794
 5267 078d 08       		.uleb128 0x8
 5268 078e AA000000 		.4byte	0xaa
ARM GAS  C:\Users\EBANO_~1\AppData\Local\Temp\ccJkfoGk.s 			page 122


 5269 0792 02       		.byte	0x2
 5270 0793 00       		.byte	0
 5271 0794 07       		.uleb128 0x7
 5272 0795 46000000 		.4byte	0x46
 5273 0799 A4070000 		.4byte	0x7a4
 5274 079d 08       		.uleb128 0x8
 5275 079e AA000000 		.4byte	0xaa
 5276 07a2 00       		.byte	0
 5277 07a3 00       		.byte	0
 5278 07a4 0C       		.uleb128 0xc
 5279 07a5 E61F0000 		.4byte	.LASF104
 5280 07a9 08       		.byte	0x8
 5281 07aa 1F01     		.2byte	0x11f
 5282 07ac 1F040000 		.4byte	0x41f
 5283 07b0 19       		.uleb128 0x19
 5284 07b1 F3150000 		.4byte	.LASF105
 5285 07b5 0C       		.byte	0xc
 5286 07b6 08       		.byte	0x8
 5287 07b7 2301     		.2byte	0x123
 5288 07b9 EB070000 		.4byte	0x7eb
 5289 07bd 18       		.uleb128 0x18
 5290 07be 0A0E0000 		.4byte	.LASF38
 5291 07c2 08       		.byte	0x8
 5292 07c3 2501     		.2byte	0x125
 5293 07c5 EB070000 		.4byte	0x7eb
 5294 07c9 02       		.byte	0x2
 5295 07ca 23       		.byte	0x23
 5296 07cb 00       		.uleb128 0
 5297 07cc 18       		.uleb128 0x18
 5298 07cd BE0C0000 		.4byte	.LASF106
 5299 07d1 08       		.byte	0x8
 5300 07d2 2601     		.2byte	0x126
 5301 07d4 A3000000 		.4byte	0xa3
 5302 07d8 02       		.byte	0x2
 5303 07d9 23       		.byte	0x23
 5304 07da 04       		.uleb128 0x4
 5305 07db 18       		.uleb128 0x18
 5306 07dc 05140000 		.4byte	.LASF107
 5307 07e0 08       		.byte	0x8
 5308 07e1 2701     		.2byte	0x127
 5309 07e3 F1070000 		.4byte	0x7f1
 5310 07e7 02       		.byte	0x2
 5311 07e8 23       		.byte	0x23
 5312 07e9 08       		.uleb128 0x8
 5313 07ea 00       		.byte	0
 5314 07eb 0A       		.uleb128 0xa
 5315 07ec 04       		.byte	0x4
 5316 07ed B0070000 		.4byte	0x7b0
 5317 07f1 0A       		.uleb128 0xa
 5318 07f2 04       		.byte	0x4
 5319 07f3 A4070000 		.4byte	0x7a4
 5320 07f7 19       		.uleb128 0x19
 5321 07f8 72210000 		.4byte	.LASF108
 5322 07fc 0E       		.byte	0xe
 5323 07fd 08       		.byte	0x8
 5324 07fe 3F01     		.2byte	0x13f
 5325 0800 32080000 		.4byte	0x832
ARM GAS  C:\Users\EBANO_~1\AppData\Local\Temp\ccJkfoGk.s 			page 123


 5326 0804 18       		.uleb128 0x18
 5327 0805 57110000 		.4byte	.LASF109
 5328 0809 08       		.byte	0x8
 5329 080a 4001     		.2byte	0x140
 5330 080c 32080000 		.4byte	0x832
 5331 0810 02       		.byte	0x2
 5332 0811 23       		.byte	0x23
 5333 0812 00       		.uleb128 0
 5334 0813 18       		.uleb128 0x18
 5335 0814 98090000 		.4byte	.LASF110
 5336 0818 08       		.byte	0x8
 5337 0819 4101     		.2byte	0x141
 5338 081b 32080000 		.4byte	0x832
 5339 081f 02       		.byte	0x2
 5340 0820 23       		.byte	0x23
 5341 0821 06       		.uleb128 0x6
 5342 0822 18       		.uleb128 0x18
 5343 0823 D2020000 		.4byte	.LASF111
 5344 0827 08       		.byte	0x8
 5345 0828 4201     		.2byte	0x142
 5346 082a 6A000000 		.4byte	0x6a
 5347 082e 02       		.byte	0x2
 5348 082f 23       		.byte	0x23
 5349 0830 0C       		.uleb128 0xc
 5350 0831 00       		.byte	0
 5351 0832 07       		.uleb128 0x7
 5352 0833 6A000000 		.4byte	0x6a
 5353 0837 42080000 		.4byte	0x842
 5354 083b 08       		.uleb128 0x8
 5355 083c AA000000 		.4byte	0xaa
 5356 0840 02       		.byte	0x2
 5357 0841 00       		.byte	0
 5358 0842 1A       		.uleb128 0x1a
 5359 0843 D0       		.byte	0xd0
 5360 0844 08       		.byte	0x8
 5361 0845 8002     		.2byte	0x280
 5362 0847 72090000 		.4byte	0x972
 5363 084b 18       		.uleb128 0x18
 5364 084c C5050000 		.4byte	.LASF112
 5365 0850 08       		.byte	0x8
 5366 0851 8202     		.2byte	0x282
 5367 0853 AA000000 		.4byte	0xaa
 5368 0857 02       		.byte	0x2
 5369 0858 23       		.byte	0x23
 5370 0859 00       		.uleb128 0
 5371 085a 18       		.uleb128 0x18
 5372 085b 2C110000 		.4byte	.LASF113
 5373 085f 08       		.byte	0x8
 5374 0860 8302     		.2byte	0x283
 5375 0862 01070000 		.4byte	0x701
 5376 0866 02       		.byte	0x2
 5377 0867 23       		.byte	0x23
 5378 0868 04       		.uleb128 0x4
 5379 0869 18       		.uleb128 0x18
 5380 086a D7120000 		.4byte	.LASF114
 5381 086e 08       		.byte	0x8
 5382 086f 8402     		.2byte	0x284
ARM GAS  C:\Users\EBANO_~1\AppData\Local\Temp\ccJkfoGk.s 			page 124


 5383 0871 72090000 		.4byte	0x972
 5384 0875 02       		.byte	0x2
 5385 0876 23       		.byte	0x23
 5386 0877 08       		.uleb128 0x8
 5387 0878 18       		.uleb128 0x18
 5388 0879 F20A0000 		.4byte	.LASF115
 5389 087d 08       		.byte	0x8
 5390 087e 8502     		.2byte	0x285
 5391 0880 A7020000 		.4byte	0x2a7
 5392 0884 02       		.byte	0x2
 5393 0885 23       		.byte	0x23
 5394 0886 24       		.uleb128 0x24
 5395 0887 18       		.uleb128 0x18
 5396 0888 BA1B0000 		.4byte	.LASF116
 5397 088c 08       		.byte	0x8
 5398 088d 8602     		.2byte	0x286
 5399 088f A3000000 		.4byte	0xa3
 5400 0893 02       		.byte	0x2
 5401 0894 23       		.byte	0x23
 5402 0895 48       		.uleb128 0x48
 5403 0896 18       		.uleb128 0x18
 5404 0897 47140000 		.4byte	.LASF117
 5405 089b 08       		.byte	0x8
 5406 089c 8702     		.2byte	0x287
 5407 089e 9C000000 		.4byte	0x9c
 5408 08a2 02       		.byte	0x2
 5409 08a3 23       		.byte	0x23
 5410 08a4 50       		.uleb128 0x50
 5411 08a5 18       		.uleb128 0x18
 5412 08a6 92200000 		.4byte	.LASF118
 5413 08aa 08       		.byte	0x8
 5414 08ab 8802     		.2byte	0x288
 5415 08ad F7070000 		.4byte	0x7f7
 5416 08b1 02       		.byte	0x2
 5417 08b2 23       		.byte	0x23
 5418 08b3 58       		.uleb128 0x58
 5419 08b4 18       		.uleb128 0x18
 5420 08b5 91180000 		.4byte	.LASF119
 5421 08b9 08       		.byte	0x8
 5422 08ba 8902     		.2byte	0x289
 5423 08bc 11020000 		.4byte	0x211
 5424 08c0 02       		.byte	0x2
 5425 08c1 23       		.byte	0x23
 5426 08c2 68       		.uleb128 0x68
 5427 08c3 18       		.uleb128 0x18
 5428 08c4 A5040000 		.4byte	.LASF120
 5429 08c8 08       		.byte	0x8
 5430 08c9 8A02     		.2byte	0x28a
 5431 08cb 11020000 		.4byte	0x211
 5432 08cf 02       		.byte	0x2
 5433 08d0 23       		.byte	0x23
 5434 08d1 70       		.uleb128 0x70
 5435 08d2 18       		.uleb128 0x18
 5436 08d3 A2130000 		.4byte	.LASF121
 5437 08d7 08       		.byte	0x8
 5438 08d8 8B02     		.2byte	0x28b
 5439 08da 11020000 		.4byte	0x211
ARM GAS  C:\Users\EBANO_~1\AppData\Local\Temp\ccJkfoGk.s 			page 125


 5440 08de 02       		.byte	0x2
 5441 08df 23       		.byte	0x23
 5442 08e0 78       		.uleb128 0x78
 5443 08e1 18       		.uleb128 0x18
 5444 08e2 7B120000 		.4byte	.LASF122
 5445 08e6 08       		.byte	0x8
 5446 08e7 8C02     		.2byte	0x28c
 5447 08e9 82090000 		.4byte	0x982
 5448 08ed 03       		.byte	0x3
 5449 08ee 23       		.byte	0x23
 5450 08ef 8001     		.uleb128 0x80
 5451 08f1 18       		.uleb128 0x18
 5452 08f2 370E0000 		.4byte	.LASF123
 5453 08f6 08       		.byte	0x8
 5454 08f7 8D02     		.2byte	0x28d
 5455 08f9 92090000 		.4byte	0x992
 5456 08fd 03       		.byte	0x3
 5457 08fe 23       		.byte	0x23
 5458 08ff 8801     		.uleb128 0x88
 5459 0901 18       		.uleb128 0x18
 5460 0902 66170000 		.4byte	.LASF124
 5461 0906 08       		.byte	0x8
 5462 0907 8E02     		.2byte	0x28e
 5463 0909 A3000000 		.4byte	0xa3
 5464 090d 03       		.byte	0x3
 5465 090e 23       		.byte	0x23
 5466 090f A001     		.uleb128 0xa0
 5467 0911 18       		.uleb128 0x18
 5468 0912 D5090000 		.4byte	.LASF125
 5469 0916 08       		.byte	0x8
 5470 0917 8F02     		.2byte	0x28f
 5471 0919 11020000 		.4byte	0x211
 5472 091d 03       		.byte	0x3
 5473 091e 23       		.byte	0x23
 5474 091f A401     		.uleb128 0xa4
 5475 0921 18       		.uleb128 0x18
 5476 0922 460C0000 		.4byte	.LASF126
 5477 0926 08       		.byte	0x8
 5478 0927 9002     		.2byte	0x290
 5479 0929 11020000 		.4byte	0x211
 5480 092d 03       		.byte	0x3
 5481 092e 23       		.byte	0x23
 5482 092f AC01     		.uleb128 0xac
 5483 0931 18       		.uleb128 0x18
 5484 0932 13070000 		.4byte	.LASF127
 5485 0936 08       		.byte	0x8
 5486 0937 9102     		.2byte	0x291
 5487 0939 11020000 		.4byte	0x211
 5488 093d 03       		.byte	0x3
 5489 093e 23       		.byte	0x23
 5490 093f B401     		.uleb128 0xb4
 5491 0941 18       		.uleb128 0x18
 5492 0942 0A100000 		.4byte	.LASF128
 5493 0946 08       		.byte	0x8
 5494 0947 9202     		.2byte	0x292
 5495 0949 11020000 		.4byte	0x211
 5496 094d 03       		.byte	0x3
ARM GAS  C:\Users\EBANO_~1\AppData\Local\Temp\ccJkfoGk.s 			page 126


 5497 094e 23       		.byte	0x23
 5498 094f BC01     		.uleb128 0xbc
 5499 0951 18       		.uleb128 0x18
 5500 0952 01130000 		.4byte	.LASF129
 5501 0956 08       		.byte	0x8
 5502 0957 9302     		.2byte	0x293
 5503 0959 11020000 		.4byte	0x211
 5504 095d 03       		.byte	0x3
 5505 095e 23       		.byte	0x23
 5506 095f C401     		.uleb128 0xc4
 5507 0961 18       		.uleb128 0x18
 5508 0962 8C190000 		.4byte	.LASF130
 5509 0966 08       		.byte	0x8
 5510 0967 9402     		.2byte	0x294
 5511 0969 A3000000 		.4byte	0xa3
 5512 096d 03       		.byte	0x3
 5513 096e 23       		.byte	0x23
 5514 096f CC01     		.uleb128 0xcc
 5515 0971 00       		.byte	0
 5516 0972 07       		.uleb128 0x7
 5517 0973 07070000 		.4byte	0x707
 5518 0977 82090000 		.4byte	0x982
 5519 097b 08       		.uleb128 0x8
 5520 097c AA000000 		.4byte	0xaa
 5521 0980 19       		.byte	0x19
 5522 0981 00       		.byte	0
 5523 0982 07       		.uleb128 0x7
 5524 0983 07070000 		.4byte	0x707
 5525 0987 92090000 		.4byte	0x992
 5526 098b 08       		.uleb128 0x8
 5527 098c AA000000 		.4byte	0xaa
 5528 0990 07       		.byte	0x7
 5529 0991 00       		.byte	0
 5530 0992 07       		.uleb128 0x7
 5531 0993 07070000 		.4byte	0x707
 5532 0997 A2090000 		.4byte	0x9a2
 5533 099b 08       		.uleb128 0x8
 5534 099c AA000000 		.4byte	0xaa
 5535 09a0 17       		.byte	0x17
 5536 09a1 00       		.byte	0
 5537 09a2 1A       		.uleb128 0x1a
 5538 09a3 F0       		.byte	0xf0
 5539 09a4 08       		.byte	0x8
 5540 09a5 9902     		.2byte	0x299
 5541 09a7 CA090000 		.4byte	0x9ca
 5542 09ab 18       		.uleb128 0x18
 5543 09ac 40140000 		.4byte	.LASF131
 5544 09b0 08       		.byte	0x8
 5545 09b1 9C02     		.2byte	0x29c
 5546 09b3 CA090000 		.4byte	0x9ca
 5547 09b7 02       		.byte	0x2
 5548 09b8 23       		.byte	0x23
 5549 09b9 00       		.uleb128 0
 5550 09ba 18       		.uleb128 0x18
 5551 09bb 6C0A0000 		.4byte	.LASF132
 5552 09bf 08       		.byte	0x8
 5553 09c0 9D02     		.2byte	0x29d
ARM GAS  C:\Users\EBANO_~1\AppData\Local\Temp\ccJkfoGk.s 			page 127


 5554 09c2 DA090000 		.4byte	0x9da
 5555 09c6 02       		.byte	0x2
 5556 09c7 23       		.byte	0x23
 5557 09c8 78       		.uleb128 0x78
 5558 09c9 00       		.byte	0
 5559 09ca 07       		.uleb128 0x7
 5560 09cb 19040000 		.4byte	0x419
 5561 09cf DA090000 		.4byte	0x9da
 5562 09d3 08       		.uleb128 0x8
 5563 09d4 AA000000 		.4byte	0xaa
 5564 09d8 1D       		.byte	0x1d
 5565 09d9 00       		.byte	0
 5566 09da 07       		.uleb128 0x7
 5567 09db AA000000 		.4byte	0xaa
 5568 09df EA090000 		.4byte	0x9ea
 5569 09e3 08       		.uleb128 0x8
 5570 09e4 AA000000 		.4byte	0xaa
 5571 09e8 1D       		.byte	0x1d
 5572 09e9 00       		.byte	0
 5573 09ea 1B       		.uleb128 0x1b
 5574 09eb F0       		.byte	0xf0
 5575 09ec 08       		.byte	0x8
 5576 09ed 7E02     		.2byte	0x27e
 5577 09ef 0C0A0000 		.4byte	0xa0c
 5578 09f3 1C       		.uleb128 0x1c
 5579 09f4 46040000 		.4byte	.LASF81
 5580 09f8 08       		.byte	0x8
 5581 09f9 9502     		.2byte	0x295
 5582 09fb 42080000 		.4byte	0x842
 5583 09ff 1C       		.uleb128 0x1c
 5584 0a00 F9010000 		.4byte	.LASF133
 5585 0a04 08       		.byte	0x8
 5586 0a05 9E02     		.2byte	0x29e
 5587 0a07 A2090000 		.4byte	0x9a2
 5588 0a0b 00       		.byte	0
 5589 0a0c 07       		.uleb128 0x7
 5590 0a0d 07070000 		.4byte	0x707
 5591 0a11 1C0A0000 		.4byte	0xa1c
 5592 0a15 08       		.uleb128 0x8
 5593 0a16 AA000000 		.4byte	0xaa
 5594 0a1a 18       		.byte	0x18
 5595 0a1b 00       		.byte	0
 5596 0a1c 0B       		.uleb128 0xb
 5597 0a1d A6180000 		.4byte	.LASF135
 5598 0a21 01       		.byte	0x1
 5599 0a22 0A       		.uleb128 0xa
 5600 0a23 04       		.byte	0x4
 5601 0a24 1C0A0000 		.4byte	0xa1c
 5602 0a28 1D       		.uleb128 0x1d
 5603 0a29 01       		.byte	0x1
 5604 0a2a 340A0000 		.4byte	0xa34
 5605 0a2e 16       		.uleb128 0x16
 5606 0a2f 98050000 		.4byte	0x598
 5607 0a33 00       		.byte	0
 5608 0a34 0A       		.uleb128 0xa
 5609 0a35 04       		.byte	0x4
 5610 0a36 280A0000 		.4byte	0xa28
ARM GAS  C:\Users\EBANO_~1\AppData\Local\Temp\ccJkfoGk.s 			page 128


 5611 0a3a 0A       		.uleb128 0xa
 5612 0a3b 04       		.byte	0x4
 5613 0a3c 91020000 		.4byte	0x291
 5614 0a40 1D       		.uleb128 0x1d
 5615 0a41 01       		.byte	0x1
 5616 0a42 4C0A0000 		.4byte	0xa4c
 5617 0a46 16       		.uleb128 0x16
 5618 0a47 A3000000 		.4byte	0xa3
 5619 0a4b 00       		.byte	0
 5620 0a4c 0A       		.uleb128 0xa
 5621 0a4d 04       		.byte	0x4
 5622 0a4e 520A0000 		.4byte	0xa52
 5623 0a52 0A       		.uleb128 0xa
 5624 0a53 04       		.byte	0x4
 5625 0a54 400A0000 		.4byte	0xa40
 5626 0a58 07       		.uleb128 0x7
 5627 0a59 A4070000 		.4byte	0x7a4
 5628 0a5d 680A0000 		.4byte	0xa68
 5629 0a61 08       		.uleb128 0x8
 5630 0a62 AA000000 		.4byte	0xaa
 5631 0a66 02       		.byte	0x2
 5632 0a67 00       		.byte	0
 5633 0a68 1E       		.uleb128 0x1e
 5634 0a69 37180000 		.4byte	.LASF136
 5635 0a6d 08       		.byte	0x8
 5636 0a6e 2E03     		.2byte	0x32e
 5637 0a70 98050000 		.4byte	0x598
 5638 0a74 01       		.byte	0x1
 5639 0a75 01       		.byte	0x1
 5640 0a76 1E       		.uleb128 0x1e
 5641 0a77 711C0000 		.4byte	.LASF137
 5642 0a7b 08       		.byte	0x8
 5643 0a7c 2F03     		.2byte	0x32f
 5644 0a7e 9E050000 		.4byte	0x59e
 5645 0a82 01       		.byte	0x1
 5646 0a83 01       		.byte	0x1
 5647 0a84 0A       		.uleb128 0xa
 5648 0a85 04       		.byte	0x4
 5649 0a86 BC000000 		.4byte	0xbc
 5650 0a8a 06       		.uleb128 0x6
 5651 0a8b D5140000 		.4byte	.LASF138
 5652 0a8f 09       		.byte	0x9
 5653 0a90 63       		.byte	0x63
 5654 0a91 01070000 		.4byte	0x701
 5655 0a95 01       		.byte	0x1
 5656 0a96 01       		.byte	0x1
 5657 0a97 03       		.uleb128 0x3
 5658 0a98 AE1A0000 		.4byte	.LASF139
 5659 0a9c 0A       		.byte	0xa
 5660 0a9d 3D       		.byte	0x3d
 5661 0a9e ED000000 		.4byte	0xed
 5662 0aa2 11       		.uleb128 0x11
 5663 0aa3 C50A0000 		.4byte	.LASF140
 5664 0aa7 04       		.byte	0x4
 5665 0aa8 0A       		.byte	0xa
 5666 0aa9 5F       		.byte	0x5f
 5667 0aaa E70A0000 		.4byte	0xae7
ARM GAS  C:\Users\EBANO_~1\AppData\Local\Temp\ccJkfoGk.s 			page 129


 5668 0aae 12       		.uleb128 0x12
 5669 0aaf 52667500 		.ascii	"Rfu\000"
 5670 0ab3 0A       		.byte	0xa
 5671 0ab4 61       		.byte	0x61
 5672 0ab5 BC000000 		.4byte	0xbc
 5673 0ab9 02       		.byte	0x2
 5674 0aba 23       		.byte	0x23
 5675 0abb 00       		.uleb128 0
 5676 0abc 10       		.uleb128 0x10
 5677 0abd 8A000000 		.4byte	.LASF141
 5678 0ac1 0A       		.byte	0xa
 5679 0ac2 62       		.byte	0x62
 5680 0ac3 BC000000 		.4byte	0xbc
 5681 0ac7 02       		.byte	0x2
 5682 0ac8 23       		.byte	0x23
 5683 0ac9 01       		.uleb128 0x1
 5684 0aca 10       		.uleb128 0x10
 5685 0acb 98020000 		.4byte	.LASF142
 5686 0acf 0A       		.byte	0xa
 5687 0ad0 63       		.byte	0x63
 5688 0ad1 BC000000 		.4byte	0xbc
 5689 0ad5 02       		.byte	0x2
 5690 0ad6 23       		.byte	0x23
 5691 0ad7 02       		.uleb128 0x2
 5692 0ad8 10       		.uleb128 0x10
 5693 0ad9 4F1C0000 		.4byte	.LASF143
 5694 0add 0A       		.byte	0xa
 5695 0ade 64       		.byte	0x64
 5696 0adf BC000000 		.4byte	0xbc
 5697 0ae3 02       		.byte	0x2
 5698 0ae4 23       		.byte	0x23
 5699 0ae5 03       		.uleb128 0x3
 5700 0ae6 00       		.byte	0
 5701 0ae7 1F       		.uleb128 0x1f
 5702 0ae8 D90A0000 		.4byte	.LASF205
 5703 0aec 04       		.byte	0x4
 5704 0aed 0A       		.byte	0xa
 5705 0aee 5D       		.byte	0x5d
 5706 0aef 0A0B0000 		.4byte	0xb0a
 5707 0af3 0E       		.uleb128 0xe
 5708 0af4 0D110000 		.4byte	.LASF144
 5709 0af8 0A       		.byte	0xa
 5710 0af9 65       		.byte	0x65
 5711 0afa A20A0000 		.4byte	0xaa2
 5712 0afe 0E       		.uleb128 0xe
 5713 0aff 97200000 		.4byte	.LASF145
 5714 0b03 0A       		.byte	0xa
 5715 0b04 66       		.byte	0x66
 5716 0b05 ED000000 		.4byte	0xed
 5717 0b09 00       		.byte	0
 5718 0b0a 03       		.uleb128 0x3
 5719 0b0b CF0A0000 		.4byte	.LASF146
 5720 0b0f 0A       		.byte	0xa
 5721 0b10 67       		.byte	0x67
 5722 0b11 E70A0000 		.4byte	0xae7
 5723 0b15 02       		.uleb128 0x2
 5724 0b16 01       		.byte	0x1
ARM GAS  C:\Users\EBANO_~1\AppData\Local\Temp\ccJkfoGk.s 			page 130


 5725 0b17 02       		.byte	0x2
 5726 0b18 C6000000 		.4byte	.LASF147
 5727 0b1c 19       		.uleb128 0x19
 5728 0b1d 540B0000 		.4byte	.LASF148
 5729 0b21 10       		.byte	0x10
 5730 0b22 0B       		.byte	0xb
 5731 0b23 D301     		.2byte	0x1d3
 5732 0b25 750B0000 		.4byte	0xb75
 5733 0b29 18       		.uleb128 0x18
 5734 0b2a 68020000 		.4byte	.LASF149
 5735 0b2e 0B       		.byte	0xb
 5736 0b2f D801     		.2byte	0x1d8
 5737 0b31 D7000000 		.4byte	0xd7
 5738 0b35 02       		.byte	0x2
 5739 0b36 23       		.byte	0x23
 5740 0b37 00       		.uleb128 0
 5741 0b38 18       		.uleb128 0x18
 5742 0b39 01030000 		.4byte	.LASF150
 5743 0b3d 0B       		.byte	0xb
 5744 0b3e DC01     		.2byte	0x1dc
 5745 0b40 B1000000 		.4byte	0xb1
 5746 0b44 02       		.byte	0x2
 5747 0b45 23       		.byte	0x23
 5748 0b46 02       		.uleb128 0x2
 5749 0b47 18       		.uleb128 0x18
 5750 0b48 C91B0000 		.4byte	.LASF151
 5751 0b4c 0B       		.byte	0xb
 5752 0b4d E001     		.2byte	0x1e0
 5753 0b4f 970A0000 		.4byte	0xa97
 5754 0b53 02       		.byte	0x2
 5755 0b54 23       		.byte	0x23
 5756 0b55 04       		.uleb128 0x4
 5757 0b56 18       		.uleb128 0x18
 5758 0b57 D2040000 		.4byte	.LASF152
 5759 0b5b 0B       		.byte	0xb
 5760 0b5c E401     		.2byte	0x1e4
 5761 0b5e 970A0000 		.4byte	0xa97
 5762 0b62 02       		.byte	0x2
 5763 0b63 23       		.byte	0x23
 5764 0b64 08       		.uleb128 0x8
 5765 0b65 18       		.uleb128 0x18
 5766 0b66 E4060000 		.4byte	.LASF153
 5767 0b6a 0B       		.byte	0xb
 5768 0b6b E801     		.2byte	0x1e8
 5769 0b6d 970A0000 		.4byte	0xa97
 5770 0b71 02       		.byte	0x2
 5771 0b72 23       		.byte	0x23
 5772 0b73 0C       		.uleb128 0xc
 5773 0b74 00       		.byte	0
 5774 0b75 0C       		.uleb128 0xc
 5775 0b76 B7020000 		.4byte	.LASF154
 5776 0b7a 0B       		.byte	0xb
 5777 0b7b E901     		.2byte	0x1e9
 5778 0b7d 1C0B0000 		.4byte	0xb1c
 5779 0b81 06       		.uleb128 0x6
 5780 0b82 4D1B0000 		.4byte	.LASF155
 5781 0b86 0C       		.byte	0xc
ARM GAS  C:\Users\EBANO_~1\AppData\Local\Temp\ccJkfoGk.s 			page 131


 5782 0b87 9A       		.byte	0x9a
 5783 0b88 7C000000 		.4byte	0x7c
 5784 0b8c 01       		.byte	0x1
 5785 0b8d 01       		.byte	0x1
 5786 0b8e 06       		.uleb128 0x6
 5787 0b8f 11040000 		.4byte	.LASF156
 5788 0b93 0C       		.byte	0xc
 5789 0b94 9B       		.byte	0x9b
 5790 0b95 A3000000 		.4byte	0xa3
 5791 0b99 01       		.byte	0x1
 5792 0b9a 01       		.byte	0x1
 5793 0b9b 07       		.uleb128 0x7
 5794 0b9c 01070000 		.4byte	0x701
 5795 0ba0 AB0B0000 		.4byte	0xbab
 5796 0ba4 08       		.uleb128 0x8
 5797 0ba5 AA000000 		.4byte	0xaa
 5798 0ba9 01       		.byte	0x1
 5799 0baa 00       		.byte	0
 5800 0bab 06       		.uleb128 0x6
 5801 0bac 980E0000 		.4byte	.LASF157
 5802 0bb0 0C       		.byte	0xc
 5803 0bb1 9E       		.byte	0x9e
 5804 0bb2 9B0B0000 		.4byte	0xb9b
 5805 0bb6 01       		.byte	0x1
 5806 0bb7 01       		.byte	0x1
 5807 0bb8 20       		.uleb128 0x20
 5808 0bb9 07       		.byte	0x7
 5809 0bba 01       		.byte	0x1
 5810 0bbb 46000000 		.4byte	0x46
 5811 0bbf 0D       		.byte	0xd
 5812 0bc0 21       		.byte	0x21
 5813 0bc1 D20B0000 		.4byte	0xbd2
 5814 0bc5 21       		.uleb128 0x21
 5815 0bc6 5F0C0000 		.4byte	.LASF158
 5816 0bca 00       		.byte	0
 5817 0bcb 21       		.uleb128 0x21
 5818 0bcc 6A1B0000 		.4byte	.LASF159
 5819 0bd0 01       		.byte	0x1
 5820 0bd1 00       		.byte	0
 5821 0bd2 03       		.uleb128 0x3
 5822 0bd3 F30C0000 		.4byte	.LASF160
 5823 0bd7 0D       		.byte	0xd
 5824 0bd8 24       		.byte	0x24
 5825 0bd9 B80B0000 		.4byte	0xbb8
 5826 0bdd 20       		.uleb128 0x20
 5827 0bde 07       		.byte	0x7
 5828 0bdf 01       		.byte	0x1
 5829 0be0 46000000 		.4byte	0x46
 5830 0be4 0D       		.byte	0xd
 5831 0be5 2A       		.byte	0x2a
 5832 0be6 030C0000 		.4byte	0xc03
 5833 0bea 21       		.uleb128 0x21
 5834 0beb F9020000 		.4byte	.LASF161
 5835 0bef 00       		.byte	0
 5836 0bf0 21       		.uleb128 0x21
 5837 0bf1 E80E0000 		.4byte	.LASF162
 5838 0bf5 01       		.byte	0x1
ARM GAS  C:\Users\EBANO_~1\AppData\Local\Temp\ccJkfoGk.s 			page 132


 5839 0bf6 21       		.uleb128 0x21
 5840 0bf7 491A0000 		.4byte	.LASF163
 5841 0bfb 02       		.byte	0x2
 5842 0bfc 21       		.uleb128 0x21
 5843 0bfd EC150000 		.4byte	.LASF164
 5844 0c01 03       		.byte	0x3
 5845 0c02 00       		.byte	0
 5846 0c03 03       		.uleb128 0x3
 5847 0c04 29100000 		.4byte	.LASF165
 5848 0c08 0D       		.byte	0xd
 5849 0c09 2F       		.byte	0x2f
 5850 0c0a DD0B0000 		.4byte	0xbdd
 5851 0c0e 0F       		.uleb128 0xf
 5852 0c0f 1C       		.byte	0x1c
 5853 0c10 0D       		.byte	0xd
 5854 0c11 34       		.byte	0x34
 5855 0c12 790C0000 		.4byte	0xc79
 5856 0c16 10       		.uleb128 0x10
 5857 0c17 7B080000 		.4byte	.LASF166
 5858 0c1b 0D       		.byte	0xd
 5859 0c1c 39       		.byte	0x39
 5860 0c1d E8030000 		.4byte	0x3e8
 5861 0c21 02       		.byte	0x2
 5862 0c22 23       		.byte	0x23
 5863 0c23 00       		.uleb128 0
 5864 0c24 10       		.uleb128 0x10
 5865 0c25 5E020000 		.4byte	.LASF167
 5866 0c29 0D       		.byte	0xd
 5867 0c2a 3D       		.byte	0x3d
 5868 0c2b E8030000 		.4byte	0x3e8
 5869 0c2f 02       		.byte	0x2
 5870 0c30 23       		.byte	0x23
 5871 0c31 04       		.uleb128 0x4
 5872 0c32 10       		.uleb128 0x10
 5873 0c33 500A0000 		.4byte	.LASF168
 5874 0c37 0D       		.byte	0xd
 5875 0c38 48       		.byte	0x48
 5876 0c39 940C0000 		.4byte	0xc94
 5877 0c3d 02       		.byte	0x2
 5878 0c3e 23       		.byte	0x23
 5879 0c3f 08       		.uleb128 0x8
 5880 0c40 10       		.uleb128 0x10
 5881 0c41 23020000 		.4byte	.LASF169
 5882 0c45 0D       		.byte	0xd
 5883 0c46 4C       		.byte	0x4c
 5884 0c47 E8030000 		.4byte	0x3e8
 5885 0c4b 02       		.byte	0x2
 5886 0c4c 23       		.byte	0x23
 5887 0c4d 0C       		.uleb128 0xc
 5888 0c4e 10       		.uleb128 0x10
 5889 0c4f 23010000 		.4byte	.LASF170
 5890 0c53 0D       		.byte	0xd
 5891 0c54 50       		.byte	0x50
 5892 0c55 E8030000 		.4byte	0x3e8
 5893 0c59 02       		.byte	0x2
 5894 0c5a 23       		.byte	0x23
 5895 0c5b 10       		.uleb128 0x10
ARM GAS  C:\Users\EBANO_~1\AppData\Local\Temp\ccJkfoGk.s 			page 133


 5896 0c5c 10       		.uleb128 0x10
 5897 0c5d 100E0000 		.4byte	.LASF171
 5898 0c61 0D       		.byte	0xd
 5899 0c62 56       		.byte	0x56
 5900 0c63 A60C0000 		.4byte	0xca6
 5901 0c67 02       		.byte	0x2
 5902 0c68 23       		.byte	0x23
 5903 0c69 14       		.uleb128 0x14
 5904 0c6a 10       		.uleb128 0x10
 5905 0c6b 9A1E0000 		.4byte	.LASF172
 5906 0c6f 0D       		.byte	0xd
 5907 0c70 5D       		.byte	0x5d
 5908 0c71 B80C0000 		.4byte	0xcb8
 5909 0c75 02       		.byte	0x2
 5910 0c76 23       		.byte	0x23
 5911 0c77 18       		.uleb128 0x18
 5912 0c78 00       		.byte	0
 5913 0c79 1D       		.uleb128 0x1d
 5914 0c7a 01       		.byte	0x1
 5915 0c7b 940C0000 		.4byte	0xc94
 5916 0c7f 16       		.uleb128 0x16
 5917 0c80 840A0000 		.4byte	0xa84
 5918 0c84 16       		.uleb128 0x16
 5919 0c85 D7000000 		.4byte	0xd7
 5920 0c89 16       		.uleb128 0x16
 5921 0c8a CC000000 		.4byte	0xcc
 5922 0c8e 16       		.uleb128 0x16
 5923 0c8f B1000000 		.4byte	0xb1
 5924 0c93 00       		.byte	0
 5925 0c94 0A       		.uleb128 0xa
 5926 0c95 04       		.byte	0x4
 5927 0c96 790C0000 		.4byte	0xc79
 5928 0c9a 1D       		.uleb128 0x1d
 5929 0c9b 01       		.byte	0x1
 5930 0c9c A60C0000 		.4byte	0xca6
 5931 0ca0 16       		.uleb128 0x16
 5932 0ca1 BC000000 		.4byte	0xbc
 5933 0ca5 00       		.byte	0
 5934 0ca6 0A       		.uleb128 0xa
 5935 0ca7 04       		.byte	0x4
 5936 0ca8 9A0C0000 		.4byte	0xc9a
 5937 0cac 1D       		.uleb128 0x1d
 5938 0cad 01       		.byte	0x1
 5939 0cae B80C0000 		.4byte	0xcb8
 5940 0cb2 16       		.uleb128 0x16
 5941 0cb3 150B0000 		.4byte	0xb15
 5942 0cb7 00       		.byte	0
 5943 0cb8 0A       		.uleb128 0xa
 5944 0cb9 04       		.byte	0x4
 5945 0cba AC0C0000 		.4byte	0xcac
 5946 0cbe 03       		.uleb128 0x3
 5947 0cbf A61D0000 		.4byte	.LASF173
 5948 0cc3 0D       		.byte	0xd
 5949 0cc4 5E       		.byte	0x5e
 5950 0cc5 0E0C0000 		.4byte	0xc0e
 5951 0cc9 11       		.uleb128 0x11
 5952 0cca 80030000 		.4byte	.LASF174
ARM GAS  C:\Users\EBANO_~1\AppData\Local\Temp\ccJkfoGk.s 			page 134


 5953 0cce 74       		.byte	0x74
 5954 0ccf 0D       		.byte	0xd
 5955 0cd0 63       		.byte	0x63
 5956 0cd1 7D0E0000 		.4byte	0xe7d
 5957 0cd5 10       		.uleb128 0x10
 5958 0cd6 1F120000 		.4byte	.LASF175
 5959 0cda 0D       		.byte	0xd
 5960 0cdb 68       		.byte	0x68
 5961 0cdc E8030000 		.4byte	0x3e8
 5962 0ce0 02       		.byte	0x2
 5963 0ce1 23       		.byte	0x23
 5964 0ce2 00       		.uleb128 0
 5965 0ce3 10       		.uleb128 0x10
 5966 0ce4 1F080000 		.4byte	.LASF176
 5967 0ce8 0D       		.byte	0xd
 5968 0ce9 6C       		.byte	0x6c
 5969 0cea E8030000 		.4byte	0x3e8
 5970 0cee 02       		.byte	0x2
 5971 0cef 23       		.byte	0x23
 5972 0cf0 04       		.uleb128 0x4
 5973 0cf1 10       		.uleb128 0x10
 5974 0cf2 DC1B0000 		.4byte	.LASF177
 5975 0cf6 0D       		.byte	0xd
 5976 0cf7 73       		.byte	0x73
 5977 0cf8 980E0000 		.4byte	0xe98
 5978 0cfc 02       		.byte	0x2
 5979 0cfd 23       		.byte	0x23
 5980 0cfe 08       		.uleb128 0x8
 5981 0cff 10       		.uleb128 0x10
 5982 0d00 3C0F0000 		.4byte	.LASF178
 5983 0d04 0D       		.byte	0xd
 5984 0d05 79       		.byte	0x79
 5985 0d06 A40E0000 		.4byte	0xea4
 5986 0d0a 02       		.byte	0x2
 5987 0d0b 23       		.byte	0x23
 5988 0d0c 0C       		.uleb128 0xc
 5989 0d0d 10       		.uleb128 0x10
 5990 0d0e 28080000 		.4byte	.LASF179
 5991 0d12 0D       		.byte	0xd
 5992 0d13 7F       		.byte	0x7f
 5993 0d14 B60E0000 		.4byte	0xeb6
 5994 0d18 02       		.byte	0x2
 5995 0d19 23       		.byte	0x23
 5996 0d1a 10       		.uleb128 0x10
 5997 0d1b 10       		.uleb128 0x10
 5998 0d1c 0D170000 		.4byte	.LASF180
 5999 0d20 0D       		.byte	0xd
 6000 0d21 85       		.byte	0x85
 6001 0d22 C80E0000 		.4byte	0xec8
 6002 0d26 02       		.byte	0x2
 6003 0d27 23       		.byte	0x23
 6004 0d28 14       		.uleb128 0x14
 6005 0d29 10       		.uleb128 0x10
 6006 0d2a AC150000 		.4byte	.LASF181
 6007 0d2e 0D       		.byte	0xd
 6008 0d2f 90       		.byte	0x90
 6009 0d30 ED0E0000 		.4byte	0xeed
ARM GAS  C:\Users\EBANO_~1\AppData\Local\Temp\ccJkfoGk.s 			page 135


 6010 0d34 02       		.byte	0x2
 6011 0d35 23       		.byte	0x23
 6012 0d36 18       		.uleb128 0x18
 6013 0d37 10       		.uleb128 0x10
 6014 0d38 800A0000 		.4byte	.LASF182
 6015 0d3c 0D       		.byte	0xd
 6016 0d3d 9B       		.byte	0x9b
 6017 0d3e F90E0000 		.4byte	0xef9
 6018 0d42 02       		.byte	0x2
 6019 0d43 23       		.byte	0x23
 6020 0d44 1C       		.uleb128 0x1c
 6021 0d45 10       		.uleb128 0x10
 6022 0d46 26210000 		.4byte	.LASF183
 6023 0d4a 0D       		.byte	0xd
 6024 0d4b C3       		.byte	0xc3
 6025 0d4c 4C0F0000 		.4byte	0xf4c
 6026 0d50 02       		.byte	0x2
 6027 0d51 23       		.byte	0x23
 6028 0d52 20       		.uleb128 0x20
 6029 0d53 10       		.uleb128 0x10
 6030 0d54 5D0F0000 		.4byte	.LASF184
 6031 0d58 0D       		.byte	0xd
 6032 0d59 ED       		.byte	0xed
 6033 0d5a 9A0F0000 		.4byte	0xf9a
 6034 0d5e 02       		.byte	0x2
 6035 0d5f 23       		.byte	0x23
 6036 0d60 24       		.uleb128 0x24
 6037 0d61 10       		.uleb128 0x10
 6038 0d62 39110000 		.4byte	.LASF185
 6039 0d66 0D       		.byte	0xd
 6040 0d67 F8       		.byte	0xf8
 6041 0d68 B00F0000 		.4byte	0xfb0
 6042 0d6c 02       		.byte	0x2
 6043 0d6d 23       		.byte	0x23
 6044 0d6e 28       		.uleb128 0x28
 6045 0d6f 18       		.uleb128 0x18
 6046 0d70 6A120000 		.4byte	.LASF186
 6047 0d74 0D       		.byte	0xd
 6048 0d75 0301     		.2byte	0x103
 6049 0d77 CB0F0000 		.4byte	0xfcb
 6050 0d7b 02       		.byte	0x2
 6051 0d7c 23       		.byte	0x23
 6052 0d7d 2C       		.uleb128 0x2c
 6053 0d7e 18       		.uleb128 0x18
 6054 0d7f 0A1D0000 		.4byte	.LASF187
 6055 0d83 0D       		.byte	0xd
 6056 0d84 0B01     		.2byte	0x10b
 6057 0d86 E20F0000 		.4byte	0xfe2
 6058 0d8a 02       		.byte	0x2
 6059 0d8b 23       		.byte	0x23
 6060 0d8c 30       		.uleb128 0x30
 6061 0d8d 18       		.uleb128 0x18
 6062 0d8e A50C0000 		.4byte	.LASF188
 6063 0d92 0D       		.byte	0xd
 6064 0d93 0F01     		.2byte	0x10f
 6065 0d95 E8030000 		.4byte	0x3e8
 6066 0d99 02       		.byte	0x2
ARM GAS  C:\Users\EBANO_~1\AppData\Local\Temp\ccJkfoGk.s 			page 136


 6067 0d9a 23       		.byte	0x23
 6068 0d9b 34       		.uleb128 0x34
 6069 0d9c 18       		.uleb128 0x18
 6070 0d9d 80040000 		.4byte	.LASF189
 6071 0da1 0D       		.byte	0xd
 6072 0da2 1301     		.2byte	0x113
 6073 0da4 E8030000 		.4byte	0x3e8
 6074 0da8 02       		.byte	0x2
 6075 0da9 23       		.byte	0x23
 6076 0daa 38       		.uleb128 0x38
 6077 0dab 22       		.uleb128 0x22
 6078 0dac 527800   		.ascii	"Rx\000"
 6079 0daf 0D       		.byte	0xd
 6080 0db0 1901     		.2byte	0x119
 6081 0db2 C80E0000 		.4byte	0xec8
 6082 0db6 02       		.byte	0x2
 6083 0db7 23       		.byte	0x23
 6084 0db8 3C       		.uleb128 0x3c
 6085 0db9 18       		.uleb128 0x18
 6086 0dba B7090000 		.4byte	.LASF190
 6087 0dbe 0D       		.byte	0xd
 6088 0dbf 1D01     		.2byte	0x11d
 6089 0dc1 E8030000 		.4byte	0x3e8
 6090 0dc5 02       		.byte	0x2
 6091 0dc6 23       		.byte	0x23
 6092 0dc7 40       		.uleb128 0x40
 6093 0dc8 18       		.uleb128 0x18
 6094 0dc9 B5140000 		.4byte	.LASF191
 6095 0dcd 0D       		.byte	0xd
 6096 0dce 2501     		.2byte	0x125
 6097 0dd0 FE0F0000 		.4byte	0xffe
 6098 0dd4 02       		.byte	0x2
 6099 0dd5 23       		.byte	0x23
 6100 0dd6 44       		.uleb128 0x44
 6101 0dd7 18       		.uleb128 0x18
 6102 0dd8 651B0000 		.4byte	.LASF192
 6103 0ddc 0D       		.byte	0xd
 6104 0ddd 2B01     		.2byte	0x12b
 6105 0ddf 14100000 		.4byte	0x1014
 6106 0de3 02       		.byte	0x2
 6107 0de4 23       		.byte	0x23
 6108 0de5 48       		.uleb128 0x48
 6109 0de6 18       		.uleb128 0x18
 6110 0de7 9F040000 		.4byte	.LASF193
 6111 0deb 0D       		.byte	0xd
 6112 0dec 3201     		.2byte	0x132
 6113 0dee 2B100000 		.4byte	0x102b
 6114 0df2 02       		.byte	0x2
 6115 0df3 23       		.byte	0x23
 6116 0df4 4C       		.uleb128 0x4c
 6117 0df5 18       		.uleb128 0x18
 6118 0df6 E1040000 		.4byte	.LASF194
 6119 0dfa 0D       		.byte	0xd
 6120 0dfb 3901     		.2byte	0x139
 6121 0dfd 41100000 		.4byte	0x1041
 6122 0e01 02       		.byte	0x2
 6123 0e02 23       		.byte	0x23
ARM GAS  C:\Users\EBANO_~1\AppData\Local\Temp\ccJkfoGk.s 			page 137


 6124 0e03 50       		.uleb128 0x50
 6125 0e04 18       		.uleb128 0x18
 6126 0e05 17010000 		.4byte	.LASF195
 6127 0e09 0D       		.byte	0xd
 6128 0e0a 4101     		.2byte	0x141
 6129 0e0c 5D100000 		.4byte	0x105d
 6130 0e10 02       		.byte	0x2
 6131 0e11 23       		.byte	0x23
 6132 0e12 54       		.uleb128 0x54
 6133 0e13 18       		.uleb128 0x18
 6134 0e14 34010000 		.4byte	.LASF196
 6135 0e18 0D       		.byte	0xd
 6136 0e19 4901     		.2byte	0x149
 6137 0e1b 5D100000 		.4byte	0x105d
 6138 0e1f 02       		.byte	0x2
 6139 0e20 23       		.byte	0x23
 6140 0e21 58       		.uleb128 0x58
 6141 0e22 18       		.uleb128 0x18
 6142 0e23 F0030000 		.4byte	.LASF197
 6143 0e27 0D       		.byte	0xd
 6144 0e28 5001     		.2byte	0x150
 6145 0e2a 74100000 		.4byte	0x1074
 6146 0e2e 02       		.byte	0x2
 6147 0e2f 23       		.byte	0x23
 6148 0e30 5C       		.uleb128 0x5c
 6149 0e31 18       		.uleb128 0x18
 6150 0e32 C1150000 		.4byte	.LASF198
 6151 0e36 0D       		.byte	0xd
 6152 0e37 5801     		.2byte	0x158
 6153 0e39 B80C0000 		.4byte	0xcb8
 6154 0e3d 02       		.byte	0x2
 6155 0e3e 23       		.byte	0x23
 6156 0e3f 60       		.uleb128 0x60
 6157 0e40 18       		.uleb128 0x18
 6158 0e41 651F0000 		.4byte	.LASF199
 6159 0e45 0D       		.byte	0xd
 6160 0e46 5E01     		.2byte	0x15e
 6161 0e48 F90E0000 		.4byte	0xef9
 6162 0e4c 02       		.byte	0x2
 6163 0e4d 23       		.byte	0x23
 6164 0e4e 64       		.uleb128 0x64
 6165 0e4f 18       		.uleb128 0x18
 6166 0e50 2D160000 		.4byte	.LASF200
 6167 0e54 0D       		.byte	0xd
 6168 0e55 6201     		.2byte	0x162
 6169 0e57 E8030000 		.4byte	0x3e8
 6170 0e5b 02       		.byte	0x2
 6171 0e5c 23       		.byte	0x23
 6172 0e5d 68       		.uleb128 0x68
 6173 0e5e 18       		.uleb128 0x18
 6174 0e5f 87050000 		.4byte	.LASF201
 6175 0e63 0D       		.byte	0xd
 6176 0e64 6E01     		.2byte	0x16e
 6177 0e66 C80E0000 		.4byte	0xec8
 6178 0e6a 02       		.byte	0x2
 6179 0e6b 23       		.byte	0x23
 6180 0e6c 6C       		.uleb128 0x6c
ARM GAS  C:\Users\EBANO_~1\AppData\Local\Temp\ccJkfoGk.s 			page 138


 6181 0e6d 18       		.uleb128 0x18
 6182 0e6e 210C0000 		.4byte	.LASF202
 6183 0e72 0D       		.byte	0xd
 6184 0e73 7701     		.2byte	0x177
 6185 0e75 8B100000 		.4byte	0x108b
 6186 0e79 02       		.byte	0x2
 6187 0e7a 23       		.byte	0x23
 6188 0e7b 70       		.uleb128 0x70
 6189 0e7c 00       		.byte	0
 6190 0e7d 05       		.uleb128 0x5
 6191 0e7e C90C0000 		.4byte	0xcc9
 6192 0e82 15       		.uleb128 0x15
 6193 0e83 01       		.byte	0x1
 6194 0e84 ED000000 		.4byte	0xed
 6195 0e88 920E0000 		.4byte	0xe92
 6196 0e8c 16       		.uleb128 0x16
 6197 0e8d 920E0000 		.4byte	0xe92
 6198 0e91 00       		.byte	0
 6199 0e92 0A       		.uleb128 0xa
 6200 0e93 04       		.byte	0x4
 6201 0e94 BE0C0000 		.4byte	0xcbe
 6202 0e98 0A       		.uleb128 0xa
 6203 0e99 04       		.byte	0x4
 6204 0e9a 820E0000 		.4byte	0xe82
 6205 0e9e 23       		.uleb128 0x23
 6206 0e9f 01       		.byte	0x1
 6207 0ea0 030C0000 		.4byte	0xc03
 6208 0ea4 0A       		.uleb128 0xa
 6209 0ea5 04       		.byte	0x4
 6210 0ea6 9E0E0000 		.4byte	0xe9e
 6211 0eaa 1D       		.uleb128 0x1d
 6212 0eab 01       		.byte	0x1
 6213 0eac B60E0000 		.4byte	0xeb6
 6214 0eb0 16       		.uleb128 0x16
 6215 0eb1 D20B0000 		.4byte	0xbd2
 6216 0eb5 00       		.byte	0
 6217 0eb6 0A       		.uleb128 0xa
 6218 0eb7 04       		.byte	0x4
 6219 0eb8 AA0E0000 		.4byte	0xeaa
 6220 0ebc 1D       		.uleb128 0x1d
 6221 0ebd 01       		.byte	0x1
 6222 0ebe C80E0000 		.4byte	0xec8
 6223 0ec2 16       		.uleb128 0x16
 6224 0ec3 ED000000 		.4byte	0xed
 6225 0ec7 00       		.byte	0
 6226 0ec8 0A       		.uleb128 0xa
 6227 0ec9 04       		.byte	0x4
 6228 0eca BC0E0000 		.4byte	0xebc
 6229 0ece 15       		.uleb128 0x15
 6230 0ecf 01       		.byte	0x1
 6231 0ed0 150B0000 		.4byte	0xb15
 6232 0ed4 ED0E0000 		.4byte	0xeed
 6233 0ed8 16       		.uleb128 0x16
 6234 0ed9 D20B0000 		.4byte	0xbd2
 6235 0edd 16       		.uleb128 0x16
 6236 0ede ED000000 		.4byte	0xed
 6237 0ee2 16       		.uleb128 0x16
ARM GAS  C:\Users\EBANO_~1\AppData\Local\Temp\ccJkfoGk.s 			page 139


 6238 0ee3 CC000000 		.4byte	0xcc
 6239 0ee7 16       		.uleb128 0x16
 6240 0ee8 ED000000 		.4byte	0xed
 6241 0eec 00       		.byte	0
 6242 0eed 0A       		.uleb128 0xa
 6243 0eee 04       		.byte	0x4
 6244 0eef CE0E0000 		.4byte	0xece
 6245 0ef3 23       		.uleb128 0x23
 6246 0ef4 01       		.byte	0x1
 6247 0ef5 ED000000 		.4byte	0xed
 6248 0ef9 0A       		.uleb128 0xa
 6249 0efa 04       		.byte	0x4
 6250 0efb F30E0000 		.4byte	0xef3
 6251 0eff 1D       		.uleb128 0x1d
 6252 0f00 01       		.byte	0x1
 6253 0f01 4C0F0000 		.4byte	0xf4c
 6254 0f05 16       		.uleb128 0x16
 6255 0f06 D20B0000 		.4byte	0xbd2
 6256 0f0a 16       		.uleb128 0x16
 6257 0f0b ED000000 		.4byte	0xed
 6258 0f0f 16       		.uleb128 0x16
 6259 0f10 ED000000 		.4byte	0xed
 6260 0f14 16       		.uleb128 0x16
 6261 0f15 BC000000 		.4byte	0xbc
 6262 0f19 16       		.uleb128 0x16
 6263 0f1a ED000000 		.4byte	0xed
 6264 0f1e 16       		.uleb128 0x16
 6265 0f1f D7000000 		.4byte	0xd7
 6266 0f23 16       		.uleb128 0x16
 6267 0f24 D7000000 		.4byte	0xd7
 6268 0f28 16       		.uleb128 0x16
 6269 0f29 150B0000 		.4byte	0xb15
 6270 0f2d 16       		.uleb128 0x16
 6271 0f2e BC000000 		.4byte	0xbc
 6272 0f32 16       		.uleb128 0x16
 6273 0f33 150B0000 		.4byte	0xb15
 6274 0f37 16       		.uleb128 0x16
 6275 0f38 150B0000 		.4byte	0xb15
 6276 0f3c 16       		.uleb128 0x16
 6277 0f3d BC000000 		.4byte	0xbc
 6278 0f41 16       		.uleb128 0x16
 6279 0f42 150B0000 		.4byte	0xb15
 6280 0f46 16       		.uleb128 0x16
 6281 0f47 150B0000 		.4byte	0xb15
 6282 0f4b 00       		.byte	0
 6283 0f4c 0A       		.uleb128 0xa
 6284 0f4d 04       		.byte	0x4
 6285 0f4e FF0E0000 		.4byte	0xeff
 6286 0f52 1D       		.uleb128 0x1d
 6287 0f53 01       		.byte	0x1
 6288 0f54 9A0F0000 		.4byte	0xf9a
 6289 0f58 16       		.uleb128 0x16
 6290 0f59 D20B0000 		.4byte	0xbd2
 6291 0f5d 16       		.uleb128 0x16
 6292 0f5e B1000000 		.4byte	0xb1
 6293 0f62 16       		.uleb128 0x16
 6294 0f63 ED000000 		.4byte	0xed
ARM GAS  C:\Users\EBANO_~1\AppData\Local\Temp\ccJkfoGk.s 			page 140


 6295 0f67 16       		.uleb128 0x16
 6296 0f68 ED000000 		.4byte	0xed
 6297 0f6c 16       		.uleb128 0x16
 6298 0f6d ED000000 		.4byte	0xed
 6299 0f71 16       		.uleb128 0x16
 6300 0f72 BC000000 		.4byte	0xbc
 6301 0f76 16       		.uleb128 0x16
 6302 0f77 D7000000 		.4byte	0xd7
 6303 0f7b 16       		.uleb128 0x16
 6304 0f7c 150B0000 		.4byte	0xb15
 6305 0f80 16       		.uleb128 0x16
 6306 0f81 150B0000 		.4byte	0xb15
 6307 0f85 16       		.uleb128 0x16
 6308 0f86 150B0000 		.4byte	0xb15
 6309 0f8a 16       		.uleb128 0x16
 6310 0f8b BC000000 		.4byte	0xbc
 6311 0f8f 16       		.uleb128 0x16
 6312 0f90 150B0000 		.4byte	0xb15
 6313 0f94 16       		.uleb128 0x16
 6314 0f95 ED000000 		.4byte	0xed
 6315 0f99 00       		.byte	0
 6316 0f9a 0A       		.uleb128 0xa
 6317 0f9b 04       		.byte	0x4
 6318 0f9c 520F0000 		.4byte	0xf52
 6319 0fa0 15       		.uleb128 0x15
 6320 0fa1 01       		.byte	0x1
 6321 0fa2 150B0000 		.4byte	0xb15
 6322 0fa6 B00F0000 		.4byte	0xfb0
 6323 0faa 16       		.uleb128 0x16
 6324 0fab ED000000 		.4byte	0xed
 6325 0faf 00       		.byte	0
 6326 0fb0 0A       		.uleb128 0xa
 6327 0fb1 04       		.byte	0x4
 6328 0fb2 A00F0000 		.4byte	0xfa0
 6329 0fb6 15       		.uleb128 0x15
 6330 0fb7 01       		.byte	0x1
 6331 0fb8 ED000000 		.4byte	0xed
 6332 0fbc CB0F0000 		.4byte	0xfcb
 6333 0fc0 16       		.uleb128 0x16
 6334 0fc1 D20B0000 		.4byte	0xbd2
 6335 0fc5 16       		.uleb128 0x16
 6336 0fc6 BC000000 		.4byte	0xbc
 6337 0fca 00       		.byte	0
 6338 0fcb 0A       		.uleb128 0xa
 6339 0fcc 04       		.byte	0x4
 6340 0fcd B60F0000 		.4byte	0xfb6
 6341 0fd1 1D       		.uleb128 0x1d
 6342 0fd2 01       		.byte	0x1
 6343 0fd3 E20F0000 		.4byte	0xfe2
 6344 0fd7 16       		.uleb128 0x16
 6345 0fd8 840A0000 		.4byte	0xa84
 6346 0fdc 16       		.uleb128 0x16
 6347 0fdd BC000000 		.4byte	0xbc
 6348 0fe1 00       		.byte	0
 6349 0fe2 0A       		.uleb128 0xa
 6350 0fe3 04       		.byte	0x4
 6351 0fe4 D10F0000 		.4byte	0xfd1
ARM GAS  C:\Users\EBANO_~1\AppData\Local\Temp\ccJkfoGk.s 			page 141


 6352 0fe8 1D       		.uleb128 0x1d
 6353 0fe9 01       		.byte	0x1
 6354 0fea FE0F0000 		.4byte	0xffe
 6355 0fee 16       		.uleb128 0x16
 6356 0fef ED000000 		.4byte	0xed
 6357 0ff3 16       		.uleb128 0x16
 6358 0ff4 B1000000 		.4byte	0xb1
 6359 0ff8 16       		.uleb128 0x16
 6360 0ff9 D7000000 		.4byte	0xd7
 6361 0ffd 00       		.byte	0
 6362 0ffe 0A       		.uleb128 0xa
 6363 0fff 04       		.byte	0x4
 6364 1000 E80F0000 		.4byte	0xfe8
 6365 1004 15       		.uleb128 0x15
 6366 1005 01       		.byte	0x1
 6367 1006 CC000000 		.4byte	0xcc
 6368 100a 14100000 		.4byte	0x1014
 6369 100e 16       		.uleb128 0x16
 6370 100f D20B0000 		.4byte	0xbd2
 6371 1013 00       		.byte	0
 6372 1014 0A       		.uleb128 0xa
 6373 1015 04       		.byte	0x4
 6374 1016 04100000 		.4byte	0x1004
 6375 101a 1D       		.uleb128 0x1d
 6376 101b 01       		.byte	0x1
 6377 101c 2B100000 		.4byte	0x102b
 6378 1020 16       		.uleb128 0x16
 6379 1021 D7000000 		.4byte	0xd7
 6380 1025 16       		.uleb128 0x16
 6381 1026 BC000000 		.4byte	0xbc
 6382 102a 00       		.byte	0
 6383 102b 0A       		.uleb128 0xa
 6384 102c 04       		.byte	0x4
 6385 102d 1A100000 		.4byte	0x101a
 6386 1031 15       		.uleb128 0x15
 6387 1032 01       		.byte	0x1
 6388 1033 BC000000 		.4byte	0xbc
 6389 1037 41100000 		.4byte	0x1041
 6390 103b 16       		.uleb128 0x16
 6391 103c D7000000 		.4byte	0xd7
 6392 1040 00       		.byte	0
 6393 1041 0A       		.uleb128 0xa
 6394 1042 04       		.byte	0x4
 6395 1043 31100000 		.4byte	0x1031
 6396 1047 1D       		.uleb128 0x1d
 6397 1048 01       		.byte	0x1
 6398 1049 5D100000 		.4byte	0x105d
 6399 104d 16       		.uleb128 0x16
 6400 104e D7000000 		.4byte	0xd7
 6401 1052 16       		.uleb128 0x16
 6402 1053 840A0000 		.4byte	0xa84
 6403 1057 16       		.uleb128 0x16
 6404 1058 BC000000 		.4byte	0xbc
 6405 105c 00       		.byte	0
 6406 105d 0A       		.uleb128 0xa
 6407 105e 04       		.byte	0x4
 6408 105f 47100000 		.4byte	0x1047
ARM GAS  C:\Users\EBANO_~1\AppData\Local\Temp\ccJkfoGk.s 			page 142


 6409 1063 1D       		.uleb128 0x1d
 6410 1064 01       		.byte	0x1
 6411 1065 74100000 		.4byte	0x1074
 6412 1069 16       		.uleb128 0x16
 6413 106a D20B0000 		.4byte	0xbd2
 6414 106e 16       		.uleb128 0x16
 6415 106f BC000000 		.4byte	0xbc
 6416 1073 00       		.byte	0
 6417 1074 0A       		.uleb128 0xa
 6418 1075 04       		.byte	0x4
 6419 1076 63100000 		.4byte	0x1063
 6420 107a 1D       		.uleb128 0x1d
 6421 107b 01       		.byte	0x1
 6422 107c 8B100000 		.4byte	0x108b
 6423 1080 16       		.uleb128 0x16
 6424 1081 ED000000 		.4byte	0xed
 6425 1085 16       		.uleb128 0x16
 6426 1086 ED000000 		.4byte	0xed
 6427 108a 00       		.byte	0
 6428 108b 0A       		.uleb128 0xa
 6429 108c 04       		.byte	0x4
 6430 108d 7A100000 		.4byte	0x107a
 6431 1091 1E       		.uleb128 0x1e
 6432 1092 E6080000 		.4byte	.LASF203
 6433 1096 0D       		.byte	0xd
 6434 1097 8001     		.2byte	0x180
 6435 1099 7D0E0000 		.4byte	0xe7d
 6436 109d 01       		.byte	0x1
 6437 109e 01       		.byte	0x1
 6438 109f 11       		.uleb128 0x11
 6439 10a0 371F0000 		.4byte	.LASF204
 6440 10a4 01       		.byte	0x1
 6441 10a5 0E       		.byte	0xe
 6442 10a6 B4       		.byte	0xb4
 6443 10a7 CE100000 		.4byte	0x10ce
 6444 10ab 24       		.uleb128 0x24
 6445 10ac 4D696E00 		.ascii	"Min\000"
 6446 10b0 0E       		.byte	0xe
 6447 10b1 BD       		.byte	0xbd
 6448 10b2 B1000000 		.4byte	0xb1
 6449 10b6 01       		.byte	0x1
 6450 10b7 04       		.byte	0x4
 6451 10b8 04       		.byte	0x4
 6452 10b9 02       		.byte	0x2
 6453 10ba 23       		.byte	0x23
 6454 10bb 00       		.uleb128 0
 6455 10bc 24       		.uleb128 0x24
 6456 10bd 4D617800 		.ascii	"Max\000"
 6457 10c1 0E       		.byte	0xe
 6458 10c2 C5       		.byte	0xc5
 6459 10c3 B1000000 		.4byte	0xb1
 6460 10c7 01       		.byte	0x1
 6461 10c8 04       		.byte	0x4
 6462 10c9 00       		.byte	0
 6463 10ca 02       		.byte	0x2
 6464 10cb 23       		.byte	0x23
 6465 10cc 00       		.uleb128 0
ARM GAS  C:\Users\EBANO_~1\AppData\Local\Temp\ccJkfoGk.s 			page 143


 6466 10cd 00       		.byte	0
 6467 10ce 1F       		.uleb128 0x1f
 6468 10cf A5080000 		.4byte	.LASF206
 6469 10d3 01       		.byte	0x1
 6470 10d4 0E       		.byte	0xe
 6471 10d5 AB       		.byte	0xab
 6472 10d6 F1100000 		.4byte	0x10f1
 6473 10da 0E       		.uleb128 0xe
 6474 10db 97200000 		.4byte	.LASF145
 6475 10df 0E       		.byte	0xe
 6476 10e0 B0       		.byte	0xb0
 6477 10e1 B1000000 		.4byte	0xb1
 6478 10e5 0E       		.uleb128 0xe
 6479 10e6 0D110000 		.4byte	.LASF144
 6480 10ea 0E       		.byte	0xe
 6481 10eb C6       		.byte	0xc6
 6482 10ec 9F100000 		.4byte	0x109f
 6483 10f0 00       		.byte	0
 6484 10f1 03       		.uleb128 0x3
 6485 10f2 29070000 		.4byte	.LASF207
 6486 10f6 0E       		.byte	0xe
 6487 10f7 C7       		.byte	0xc7
 6488 10f8 CE100000 		.4byte	0x10ce
 6489 10fc 11       		.uleb128 0x11
 6490 10fd 34190000 		.4byte	.LASF208
 6491 1101 0C       		.byte	0xc
 6492 1102 0E       		.byte	0xe
 6493 1103 CC       		.byte	0xcc
 6494 1104 41110000 		.4byte	0x1141
 6495 1108 10       		.uleb128 0x10
 6496 1109 551C0000 		.4byte	.LASF209
 6497 110d 0E       		.byte	0xe
 6498 110e D1       		.byte	0xd1
 6499 110f ED000000 		.4byte	0xed
 6500 1113 02       		.byte	0x2
 6501 1114 23       		.byte	0x23
 6502 1115 00       		.uleb128 0
 6503 1116 10       		.uleb128 0x10
 6504 1117 6F110000 		.4byte	.LASF210
 6505 111b 0E       		.byte	0xe
 6506 111c D5       		.byte	0xd5
 6507 111d ED000000 		.4byte	0xed
 6508 1121 02       		.byte	0x2
 6509 1122 23       		.byte	0x23
 6510 1123 04       		.uleb128 0x4
 6511 1124 10       		.uleb128 0x10
 6512 1125 41050000 		.4byte	.LASF211
 6513 1129 0E       		.byte	0xe
 6514 112a D9       		.byte	0xd9
 6515 112b F1100000 		.4byte	0x10f1
 6516 112f 02       		.byte	0x2
 6517 1130 23       		.byte	0x23
 6518 1131 08       		.uleb128 0x8
 6519 1132 10       		.uleb128 0x10
 6520 1133 AE080000 		.4byte	.LASF212
 6521 1137 0E       		.byte	0xe
 6522 1138 DD       		.byte	0xdd
ARM GAS  C:\Users\EBANO_~1\AppData\Local\Temp\ccJkfoGk.s 			page 144


 6523 1139 BC000000 		.4byte	0xbc
 6524 113d 02       		.byte	0x2
 6525 113e 23       		.byte	0x23
 6526 113f 09       		.uleb128 0x9
 6527 1140 00       		.byte	0
 6528 1141 03       		.uleb128 0x3
 6529 1142 690F0000 		.4byte	.LASF213
 6530 1146 0E       		.byte	0xe
 6531 1147 DE       		.byte	0xde
 6532 1148 FC100000 		.4byte	0x10fc
 6533 114c 25       		.uleb128 0x25
 6534 114d A30B0000 		.4byte	.LASF221
 6535 1151 07       		.byte	0x7
 6536 1152 01       		.byte	0x1
 6537 1153 46000000 		.4byte	0x46
 6538 1157 0E       		.byte	0xe
 6539 1158 F6       		.byte	0xf6
 6540 1159 7C110000 		.4byte	0x117c
 6541 115d 21       		.uleb128 0x21
 6542 115e C9180000 		.4byte	.LASF214
 6543 1162 00       		.byte	0
 6544 1163 21       		.uleb128 0x21
 6545 1164 D7180000 		.4byte	.LASF215
 6546 1168 01       		.byte	0x1
 6547 1169 21       		.uleb128 0x21
 6548 116a 1B000000 		.4byte	.LASF216
 6549 116e 02       		.byte	0x2
 6550 116f 21       		.uleb128 0x21
 6551 1170 ED1F0000 		.4byte	.LASF217
 6552 1174 03       		.byte	0x3
 6553 1175 21       		.uleb128 0x21
 6554 1176 060C0000 		.4byte	.LASF218
 6555 117a 04       		.byte	0x4
 6556 117b 00       		.byte	0
 6557 117c 0C       		.uleb128 0xc
 6558 117d D80E0000 		.4byte	.LASF219
 6559 1181 0E       		.byte	0xe
 6560 1182 0C01     		.2byte	0x10c
 6561 1184 4C110000 		.4byte	0x114c
 6562 1188 02       		.uleb128 0x2
 6563 1189 04       		.byte	0x4
 6564 118a 04       		.byte	0x4
 6565 118b 33070000 		.4byte	.LASF220
 6566 118f 0A       		.uleb128 0xa
 6567 1190 04       		.byte	0x4
 6568 1191 41110000 		.4byte	0x1141
 6569 1195 0A       		.uleb128 0xa
 6570 1196 04       		.byte	0x4
 6571 1197 D7000000 		.4byte	0xd7
 6572 119b 26       		.uleb128 0x26
 6573 119c 27040000 		.4byte	.LASF222
 6574 11a0 07       		.byte	0x7
 6575 11a1 01       		.byte	0x1
 6576 11a2 46000000 		.4byte	0x46
 6577 11a6 0E       		.byte	0xe
 6578 11a7 2508     		.2byte	0x825
 6579 11a9 38120000 		.4byte	0x1238
ARM GAS  C:\Users\EBANO_~1\AppData\Local\Temp\ccJkfoGk.s 			page 145


 6580 11ad 21       		.uleb128 0x21
 6581 11ae 43170000 		.4byte	.LASF223
 6582 11b2 00       		.byte	0
 6583 11b3 21       		.uleb128 0x21
 6584 11b4 790F0000 		.4byte	.LASF224
 6585 11b8 01       		.byte	0x1
 6586 11b9 21       		.uleb128 0x21
 6587 11ba 9D200000 		.4byte	.LASF225
 6588 11be 02       		.byte	0x2
 6589 11bf 21       		.uleb128 0x21
 6590 11c0 38080000 		.4byte	.LASF226
 6591 11c4 03       		.byte	0x3
 6592 11c5 21       		.uleb128 0x21
 6593 11c6 91160000 		.4byte	.LASF227
 6594 11ca 04       		.byte	0x4
 6595 11cb 21       		.uleb128 0x21
 6596 11cc AA1E0000 		.4byte	.LASF228
 6597 11d0 05       		.byte	0x5
 6598 11d1 21       		.uleb128 0x21
 6599 11d2 201E0000 		.4byte	.LASF229
 6600 11d6 06       		.byte	0x6
 6601 11d7 21       		.uleb128 0x21
 6602 11d8 7F010000 		.4byte	.LASF230
 6603 11dc 07       		.byte	0x7
 6604 11dd 21       		.uleb128 0x21
 6605 11de C8060000 		.4byte	.LASF231
 6606 11e2 08       		.byte	0x8
 6607 11e3 21       		.uleb128 0x21
 6608 11e4 B40E0000 		.4byte	.LASF232
 6609 11e8 09       		.byte	0x9
 6610 11e9 21       		.uleb128 0x21
 6611 11ea CD200000 		.4byte	.LASF233
 6612 11ee 0A       		.byte	0xa
 6613 11ef 21       		.uleb128 0x21
 6614 11f0 4D040000 		.4byte	.LASF234
 6615 11f4 0B       		.byte	0xb
 6616 11f5 21       		.uleb128 0x21
 6617 11f6 0A1A0000 		.4byte	.LASF235
 6618 11fa 0C       		.byte	0xc
 6619 11fb 21       		.uleb128 0x21
 6620 11fc 81100000 		.4byte	.LASF236
 6621 1200 0D       		.byte	0xd
 6622 1201 21       		.uleb128 0x21
 6623 1202 C20F0000 		.4byte	.LASF237
 6624 1206 0E       		.byte	0xe
 6625 1207 21       		.uleb128 0x21
 6626 1208 1B200000 		.4byte	.LASF238
 6627 120c 0F       		.byte	0xf
 6628 120d 21       		.uleb128 0x21
 6629 120e 461D0000 		.4byte	.LASF239
 6630 1212 10       		.byte	0x10
 6631 1213 21       		.uleb128 0x21
 6632 1214 0C030000 		.4byte	.LASF240
 6633 1218 11       		.byte	0x11
 6634 1219 21       		.uleb128 0x21
 6635 121a 110A0000 		.4byte	.LASF241
 6636 121e 12       		.byte	0x12
ARM GAS  C:\Users\EBANO_~1\AppData\Local\Temp\ccJkfoGk.s 			page 146


 6637 121f 21       		.uleb128 0x21
 6638 1220 D30C0000 		.4byte	.LASF242
 6639 1224 13       		.byte	0x13
 6640 1225 21       		.uleb128 0x21
 6641 1226 431E0000 		.4byte	.LASF243
 6642 122a 14       		.byte	0x14
 6643 122b 21       		.uleb128 0x21
 6644 122c 1A1C0000 		.4byte	.LASF244
 6645 1230 15       		.byte	0x15
 6646 1231 21       		.uleb128 0x21
 6647 1232 F60E0000 		.4byte	.LASF245
 6648 1236 16       		.byte	0x16
 6649 1237 00       		.byte	0
 6650 1238 0C       		.uleb128 0xc
 6651 1239 DC1D0000 		.4byte	.LASF246
 6652 123d 0E       		.byte	0xe
 6653 123e 8508     		.2byte	0x885
 6654 1240 9B110000 		.4byte	0x119b
 6655 1244 27       		.uleb128 0x27
 6656 1245 831F0000 		.4byte	.LASF431
 6657 1249 0E       		.byte	0xe
 6658 124a 2509     		.2byte	0x925
 6659 124c 1A010000 		.4byte	0x11a
 6660 1250 10       		.byte	0x10
 6661 1251 08       		.byte	0x8
 6662 1252 0A       		.byte	0xa
 6663 1253 0C       		.byte	0xc
 6664 1254 0D       		.byte	0xd
 6665 1255 0E       		.byte	0xe
 6666 1256 10       		.byte	0x10
 6667 1257 12       		.byte	0x12
 6668 1258 14       		.byte	0x14
 6669 1259 15       		.byte	0x15
 6670 125a 18       		.byte	0x18
 6671 125b 1A       		.byte	0x1a
 6672 125c 1B       		.byte	0x1b
 6673 125d 1D       		.byte	0x1d
 6674 125e 1E       		.byte	0x1e
 6675 125f 21       		.byte	0x21
 6676 1260 24       		.byte	0x24
 6677 1261 26       		.uleb128 0x26
 6678 1262 E0070000 		.4byte	.LASF247
 6679 1266 07       		.byte	0x7
 6680 1267 01       		.byte	0x1
 6681 1268 46000000 		.4byte	0x46
 6682 126c 0F       		.byte	0xf
 6683 126d 1202     		.2byte	0x212
 6684 126f B2130000 		.4byte	0x13b2
 6685 1273 21       		.uleb128 0x21
 6686 1274 5E0A0000 		.4byte	.LASF248
 6687 1278 00       		.byte	0
 6688 1279 21       		.uleb128 0x21
 6689 127a 5A0B0000 		.4byte	.LASF249
 6690 127e 01       		.byte	0x1
 6691 127f 21       		.uleb128 0x21
 6692 1280 571B0000 		.4byte	.LASF250
 6693 1284 02       		.byte	0x2
ARM GAS  C:\Users\EBANO_~1\AppData\Local\Temp\ccJkfoGk.s 			page 147


 6694 1285 21       		.uleb128 0x21
 6695 1286 460F0000 		.4byte	.LASF251
 6696 128a 03       		.byte	0x3
 6697 128b 21       		.uleb128 0x21
 6698 128c 281B0000 		.4byte	.LASF252
 6699 1290 04       		.byte	0x4
 6700 1291 21       		.uleb128 0x21
 6701 1292 83160000 		.4byte	.LASF253
 6702 1296 05       		.byte	0x5
 6703 1297 21       		.uleb128 0x21
 6704 1298 18050000 		.4byte	.LASF254
 6705 129c 06       		.byte	0x6
 6706 129d 21       		.uleb128 0x21
 6707 129e 760D0000 		.4byte	.LASF255
 6708 12a2 07       		.byte	0x7
 6709 12a3 21       		.uleb128 0x21
 6710 12a4 E7160000 		.4byte	.LASF256
 6711 12a8 08       		.byte	0x8
 6712 12a9 21       		.uleb128 0x21
 6713 12aa 55170000 		.4byte	.LASF257
 6714 12ae 09       		.byte	0x9
 6715 12af 21       		.uleb128 0x21
 6716 12b0 6A030000 		.4byte	.LASF258
 6717 12b4 0A       		.byte	0xa
 6718 12b5 21       		.uleb128 0x21
 6719 12b6 F40F0000 		.4byte	.LASF259
 6720 12ba 0B       		.byte	0xb
 6721 12bb 21       		.uleb128 0x21
 6722 12bc 890C0000 		.4byte	.LASF260
 6723 12c0 0C       		.byte	0xc
 6724 12c1 21       		.uleb128 0x21
 6725 12c2 571A0000 		.4byte	.LASF261
 6726 12c6 0D       		.byte	0xd
 6727 12c7 21       		.uleb128 0x21
 6728 12c8 C8120000 		.4byte	.LASF262
 6729 12cc 0E       		.byte	0xe
 6730 12cd 21       		.uleb128 0x21
 6731 12ce AC0A0000 		.4byte	.LASF263
 6732 12d2 0F       		.byte	0xf
 6733 12d3 21       		.uleb128 0x21
 6734 12d4 720E0000 		.4byte	.LASF264
 6735 12d8 10       		.byte	0x10
 6736 12d9 21       		.uleb128 0x21
 6737 12da 850E0000 		.4byte	.LASF265
 6738 12de 11       		.byte	0x11
 6739 12df 21       		.uleb128 0x21
 6740 12e0 53000000 		.4byte	.LASF266
 6741 12e4 12       		.byte	0x12
 6742 12e5 21       		.uleb128 0x21
 6743 12e6 6A000000 		.4byte	.LASF267
 6744 12ea 13       		.byte	0x13
 6745 12eb 21       		.uleb128 0x21
 6746 12ec F3170000 		.4byte	.LASF268
 6747 12f0 14       		.byte	0x14
 6748 12f1 21       		.uleb128 0x21
 6749 12f2 C2190000 		.4byte	.LASF269
 6750 12f6 15       		.byte	0x15
ARM GAS  C:\Users\EBANO_~1\AppData\Local\Temp\ccJkfoGk.s 			page 148


 6751 12f7 21       		.uleb128 0x21
 6752 12f8 B2050000 		.4byte	.LASF270
 6753 12fc 16       		.byte	0x16
 6754 12fd 21       		.uleb128 0x21
 6755 12fe AC070000 		.4byte	.LASF271
 6756 1302 17       		.byte	0x17
 6757 1303 21       		.uleb128 0x21
 6758 1304 4B0E0000 		.4byte	.LASF272
 6759 1308 18       		.byte	0x18
 6760 1309 21       		.uleb128 0x21
 6761 130a 3D1C0000 		.4byte	.LASF273
 6762 130e 19       		.byte	0x19
 6763 130f 21       		.uleb128 0x21
 6764 1310 E2050000 		.4byte	.LASF274
 6765 1314 1A       		.byte	0x1a
 6766 1315 21       		.uleb128 0x21
 6767 1316 2A150000 		.4byte	.LASF275
 6768 131a 1B       		.byte	0x1b
 6769 131b 21       		.uleb128 0x21
 6770 131c EB1E0000 		.4byte	.LASF276
 6771 1320 1C       		.byte	0x1c
 6772 1321 21       		.uleb128 0x21
 6773 1322 BE170000 		.4byte	.LASF277
 6774 1326 1D       		.byte	0x1d
 6775 1327 21       		.uleb128 0x21
 6776 1328 BF0D0000 		.4byte	.LASF278
 6777 132c 1E       		.byte	0x1e
 6778 132d 21       		.uleb128 0x21
 6779 132e 68180000 		.4byte	.LASF279
 6780 1332 1F       		.byte	0x1f
 6781 1333 21       		.uleb128 0x21
 6782 1334 D7150000 		.4byte	.LASF280
 6783 1338 20       		.byte	0x20
 6784 1339 21       		.uleb128 0x21
 6785 133a 8D0D0000 		.4byte	.LASF281
 6786 133e 21       		.byte	0x21
 6787 133f 21       		.uleb128 0x21
 6788 1340 93170000 		.4byte	.LASF282
 6789 1344 22       		.byte	0x22
 6790 1345 21       		.uleb128 0x21
 6791 1346 B5010000 		.4byte	.LASF283
 6792 134a 23       		.byte	0x23
 6793 134b 21       		.uleb128 0x21
 6794 134c 78020000 		.4byte	.LASF284
 6795 1350 24       		.byte	0x24
 6796 1351 21       		.uleb128 0x21
 6797 1352 38060000 		.4byte	.LASF285
 6798 1356 25       		.byte	0x25
 6799 1357 21       		.uleb128 0x21
 6800 1358 14110000 		.4byte	.LASF286
 6801 135c 26       		.byte	0x26
 6802 135d 21       		.uleb128 0x21
 6803 135e 390D0000 		.4byte	.LASF287
 6804 1362 27       		.byte	0x27
 6805 1363 21       		.uleb128 0x21
 6806 1364 860B0000 		.4byte	.LASF288
 6807 1368 28       		.byte	0x28
ARM GAS  C:\Users\EBANO_~1\AppData\Local\Temp\ccJkfoGk.s 			page 149


 6808 1369 21       		.uleb128 0x21
 6809 136a E70D0000 		.4byte	.LASF289
 6810 136e 29       		.byte	0x29
 6811 136f 21       		.uleb128 0x21
 6812 1370 110B0000 		.4byte	.LASF290
 6813 1374 2A       		.byte	0x2a
 6814 1375 21       		.uleb128 0x21
 6815 1376 00210000 		.4byte	.LASF291
 6816 137a 2B       		.byte	0x2b
 6817 137b 21       		.uleb128 0x21
 6818 137c 49050000 		.4byte	.LASF292
 6819 1380 2C       		.byte	0x2c
 6820 1381 21       		.uleb128 0x21
 6821 1382 7F1E0000 		.4byte	.LASF293
 6822 1386 2D       		.byte	0x2d
 6823 1387 21       		.uleb128 0x21
 6824 1388 701A0000 		.4byte	.LASF294
 6825 138c 2E       		.byte	0x2e
 6826 138d 21       		.uleb128 0x21
 6827 138e 7B170000 		.4byte	.LASF295
 6828 1392 2F       		.byte	0x2f
 6829 1393 21       		.uleb128 0x21
 6830 1394 E9000000 		.4byte	.LASF296
 6831 1398 30       		.byte	0x30
 6832 1399 21       		.uleb128 0x21
 6833 139a D3100000 		.4byte	.LASF297
 6834 139e 31       		.byte	0x31
 6835 139f 21       		.uleb128 0x21
 6836 13a0 370B0000 		.4byte	.LASF298
 6837 13a4 32       		.byte	0x32
 6838 13a5 21       		.uleb128 0x21
 6839 13a6 84110000 		.4byte	.LASF299
 6840 13aa 33       		.byte	0x33
 6841 13ab 21       		.uleb128 0x21
 6842 13ac 0F1D0000 		.4byte	.LASF300
 6843 13b0 34       		.byte	0x34
 6844 13b1 00       		.byte	0
 6845 13b2 0C       		.uleb128 0xc
 6846 13b3 2D020000 		.4byte	.LASF301
 6847 13b7 0F       		.byte	0xf
 6848 13b8 EE02     		.2byte	0x2ee
 6849 13ba 61120000 		.4byte	0x1261
 6850 13be 26       		.uleb128 0x26
 6851 13bf E5180000 		.4byte	.LASF302
 6852 13c3 07       		.byte	0x7
 6853 13c4 01       		.byte	0x1
 6854 13c5 46000000 		.4byte	0x46
 6855 13c9 0F       		.byte	0xf
 6856 13ca F302     		.2byte	0x2f3
 6857 13cc E3130000 		.4byte	0x13e3
 6858 13d0 21       		.uleb128 0x21
 6859 13d1 670D0000 		.4byte	.LASF303
 6860 13d5 00       		.byte	0
 6861 13d6 21       		.uleb128 0x21
 6862 13d7 BF1C0000 		.4byte	.LASF304
 6863 13db 01       		.byte	0x1
 6864 13dc 21       		.uleb128 0x21
ARM GAS  C:\Users\EBANO_~1\AppData\Local\Temp\ccJkfoGk.s 			page 150


 6865 13dd F21A0000 		.4byte	.LASF305
 6866 13e1 02       		.byte	0x2
 6867 13e2 00       		.byte	0
 6868 13e3 0C       		.uleb128 0xc
 6869 13e4 B3040000 		.4byte	.LASF306
 6870 13e8 0F       		.byte	0xf
 6871 13e9 0203     		.2byte	0x302
 6872 13eb BE130000 		.4byte	0x13be
 6873 13ef 26       		.uleb128 0x26
 6874 13f0 9E150000 		.4byte	.LASF307
 6875 13f4 07       		.byte	0x7
 6876 13f5 01       		.byte	0x1
 6877 13f6 46000000 		.4byte	0x46
 6878 13fa 0F       		.byte	0xf
 6879 13fb 0403     		.2byte	0x304
 6880 13fd 0E140000 		.4byte	0x140e
 6881 1401 21       		.uleb128 0x21
 6882 1402 EA130000 		.4byte	.LASF308
 6883 1406 00       		.byte	0
 6884 1407 21       		.uleb128 0x21
 6885 1408 D8170000 		.4byte	.LASF309
 6886 140c 01       		.byte	0x1
 6887 140d 00       		.byte	0
 6888 140e 0C       		.uleb128 0xc
 6889 140f 68010000 		.4byte	.LASF310
 6890 1413 0F       		.byte	0xf
 6891 1414 0E03     		.2byte	0x30e
 6892 1416 EF130000 		.4byte	0x13ef
 6893 141a 19       		.uleb128 0x19
 6894 141b A7000000 		.4byte	.LASF311
 6895 141f 03       		.byte	0x3
 6896 1420 0F       		.byte	0xf
 6897 1421 1303     		.2byte	0x313
 6898 1423 55140000 		.4byte	0x1455
 6899 1427 18       		.uleb128 0x18
 6900 1428 E5030000 		.4byte	.LASF312
 6901 142c 0F       		.byte	0xf
 6902 142d 1803     		.2byte	0x318
 6903 142f BC000000 		.4byte	0xbc
 6904 1433 02       		.byte	0x2
 6905 1434 23       		.byte	0x23
 6906 1435 00       		.uleb128 0
 6907 1436 18       		.uleb128 0x18
 6908 1437 81000000 		.4byte	.LASF313
 6909 143b 0F       		.byte	0xf
 6910 143c 1C03     		.2byte	0x31c
 6911 143e BC000000 		.4byte	0xbc
 6912 1442 02       		.byte	0x2
 6913 1443 23       		.byte	0x23
 6914 1444 01       		.uleb128 0x1
 6915 1445 18       		.uleb128 0x18
 6916 1446 540F0000 		.4byte	.LASF314
 6917 144a 0F       		.byte	0xf
 6918 144b 2003     		.2byte	0x320
 6919 144d BC000000 		.4byte	0xbc
 6920 1451 02       		.byte	0x2
 6921 1452 23       		.byte	0x23
ARM GAS  C:\Users\EBANO_~1\AppData\Local\Temp\ccJkfoGk.s 			page 151


 6922 1453 02       		.uleb128 0x2
 6923 1454 00       		.byte	0
 6924 1455 0C       		.uleb128 0xc
 6925 1456 95190000 		.4byte	.LASF315
 6926 145a 0F       		.byte	0xf
 6927 145b 2103     		.2byte	0x321
 6928 145d 1A140000 		.4byte	0x141a
 6929 1461 28       		.uleb128 0x28
 6930 1462 18170000 		.4byte	.LASF316
 6931 1466 04       		.byte	0x4
 6932 1467 0F       		.byte	0xf
 6933 1468 2603     		.2byte	0x326
 6934 146a AB140000 		.4byte	0x14ab
 6935 146e 1C       		.uleb128 0x1c
 6936 146f 97200000 		.4byte	.LASF145
 6937 1473 0F       		.byte	0xf
 6938 1474 2B03     		.2byte	0x32b
 6939 1476 ED000000 		.4byte	0xed
 6940 147a 1C       		.uleb128 0x1c
 6941 147b A71A0000 		.4byte	.LASF317
 6942 147f 0F       		.byte	0xf
 6943 1480 2F03     		.2byte	0x32f
 6944 1482 88110000 		.4byte	0x1188
 6945 1486 1C       		.uleb128 0x1c
 6946 1487 FD1C0000 		.4byte	.LASF318
 6947 148b 0F       		.byte	0xf
 6948 148c 3303     		.2byte	0x333
 6949 148e 95110000 		.4byte	0x1195
 6950 1492 1C       		.uleb128 0x1c
 6951 1493 010D0000 		.4byte	.LASF319
 6952 1497 0F       		.byte	0xf
 6953 1498 3703     		.2byte	0x337
 6954 149a 8F110000 		.4byte	0x118f
 6955 149e 1C       		.uleb128 0x1c
 6956 149f 200F0000 		.4byte	.LASF320
 6957 14a3 0F       		.byte	0xf
 6958 14a4 3B03     		.2byte	0x33b
 6959 14a6 55140000 		.4byte	0x1455
 6960 14aa 00       		.byte	0
 6961 14ab 0C       		.uleb128 0xc
 6962 14ac 9C120000 		.4byte	.LASF321
 6963 14b0 0F       		.byte	0xf
 6964 14b1 3C03     		.2byte	0x33c
 6965 14b3 61140000 		.4byte	0x1461
 6966 14b7 19       		.uleb128 0x19
 6967 14b8 C50C0000 		.4byte	.LASF322
 6968 14bc 04       		.byte	0x4
 6969 14bd 0F       		.byte	0xf
 6970 14be 4103     		.2byte	0x341
 6971 14c0 01150000 		.4byte	0x1501
 6972 14c4 18       		.uleb128 0x18
 6973 14c5 D6070000 		.4byte	.LASF323
 6974 14c9 0F       		.byte	0xf
 6975 14ca 4603     		.2byte	0x346
 6976 14cc B2130000 		.4byte	0x13b2
 6977 14d0 02       		.byte	0x2
 6978 14d1 23       		.byte	0x23
ARM GAS  C:\Users\EBANO_~1\AppData\Local\Temp\ccJkfoGk.s 			page 152


 6979 14d2 00       		.uleb128 0
 6980 14d3 18       		.uleb128 0x18
 6981 14d4 281D0000 		.4byte	.LASF324
 6982 14d8 0F       		.byte	0xf
 6983 14d9 4C03     		.2byte	0x34c
 6984 14db B1000000 		.4byte	0xb1
 6985 14df 02       		.byte	0x2
 6986 14e0 23       		.byte	0x23
 6987 14e1 01       		.uleb128 0x1
 6988 14e2 18       		.uleb128 0x18
 6989 14e3 D2190000 		.4byte	.LASF325
 6990 14e7 0F       		.byte	0xf
 6991 14e8 5303     		.2byte	0x353
 6992 14ea BC000000 		.4byte	0xbc
 6993 14ee 02       		.byte	0x2
 6994 14ef 23       		.byte	0x23
 6995 14f0 02       		.uleb128 0x2
 6996 14f1 18       		.uleb128 0x18
 6997 14f2 58120000 		.4byte	.LASF326
 6998 14f6 0F       		.byte	0xf
 6999 14f7 5A03     		.2byte	0x35a
 7000 14f9 BC000000 		.4byte	0xbc
 7001 14fd 02       		.byte	0x2
 7002 14fe 23       		.byte	0x23
 7003 14ff 03       		.uleb128 0x3
 7004 1500 00       		.byte	0
 7005 1501 0C       		.uleb128 0xc
 7006 1502 71040000 		.4byte	.LASF327
 7007 1506 0F       		.byte	0xf
 7008 1507 5B03     		.2byte	0x35b
 7009 1509 B7140000 		.4byte	0x14b7
 7010 150d 19       		.uleb128 0x19
 7011 150e A7120000 		.4byte	.LASF328
 7012 1512 08       		.byte	0x8
 7013 1513 0F       		.byte	0xf
 7014 1514 6003     		.2byte	0x360
 7015 1516 48150000 		.4byte	0x1548
 7016 151a 18       		.uleb128 0x18
 7017 151b 26190000 		.4byte	.LASF329
 7018 151f 0F       		.byte	0xf
 7019 1520 6503     		.2byte	0x365
 7020 1522 BC000000 		.4byte	0xbc
 7021 1526 02       		.byte	0x2
 7022 1527 23       		.byte	0x23
 7023 1528 00       		.uleb128 0
 7024 1529 18       		.uleb128 0x18
 7025 152a 73100000 		.4byte	.LASF330
 7026 152e 0F       		.byte	0xf
 7027 152f 6903     		.2byte	0x369
 7028 1531 150B0000 		.4byte	0xb15
 7029 1535 02       		.byte	0x2
 7030 1536 23       		.byte	0x23
 7031 1537 01       		.uleb128 0x1
 7032 1538 18       		.uleb128 0x18
 7033 1539 D2040000 		.4byte	.LASF152
 7034 153d 0F       		.byte	0xf
 7035 153e 6D03     		.2byte	0x36d
ARM GAS  C:\Users\EBANO_~1\AppData\Local\Temp\ccJkfoGk.s 			page 153


 7036 1540 970A0000 		.4byte	0xa97
 7037 1544 02       		.byte	0x2
 7038 1545 23       		.byte	0x23
 7039 1546 04       		.uleb128 0x4
 7040 1547 00       		.byte	0
 7041 1548 0C       		.uleb128 0xc
 7042 1549 0A0D0000 		.4byte	.LASF331
 7043 154d 0F       		.byte	0xf
 7044 154e 6E03     		.2byte	0x36e
 7045 1550 0D150000 		.4byte	0x150d
 7046 1554 19       		.uleb128 0x19
 7047 1555 04180000 		.4byte	.LASF332
 7048 1559 08       		.byte	0x8
 7049 155a 0F       		.byte	0xf
 7050 155b 7303     		.2byte	0x373
 7051 155d 80150000 		.4byte	0x1580
 7052 1561 18       		.uleb128 0x18
 7053 1562 0A1F0000 		.4byte	.LASF333
 7054 1566 0F       		.byte	0xf
 7055 1567 7803     		.2byte	0x378
 7056 1569 82010000 		.4byte	0x182
 7057 156d 02       		.byte	0x2
 7058 156e 23       		.byte	0x23
 7059 156f 00       		.uleb128 0
 7060 1570 18       		.uleb128 0x18
 7061 1571 8F0A0000 		.4byte	.LASF334
 7062 1575 0F       		.byte	0xf
 7063 1576 7C03     		.2byte	0x37c
 7064 1578 E3130000 		.4byte	0x13e3
 7065 157c 02       		.byte	0x2
 7066 157d 23       		.byte	0x23
 7067 157e 04       		.uleb128 0x4
 7068 157f 00       		.byte	0
 7069 1580 0C       		.uleb128 0xc
 7070 1581 D60B0000 		.4byte	.LASF335
 7071 1585 0F       		.byte	0xf
 7072 1586 7D03     		.2byte	0x37d
 7073 1588 54150000 		.4byte	0x1554
 7074 158c 19       		.uleb128 0x19
 7075 158d 02070000 		.4byte	.LASF336
 7076 1591 04       		.byte	0x4
 7077 1592 0F       		.byte	0xf
 7078 1593 8203     		.2byte	0x382
 7079 1595 A9150000 		.4byte	0x15a9
 7080 1599 18       		.uleb128 0x18
 7081 159a 750A0000 		.4byte	.LASF337
 7082 159e 0F       		.byte	0xf
 7083 159f 8703     		.2byte	0x387
 7084 15a1 70010000 		.4byte	0x170
 7085 15a5 02       		.byte	0x2
 7086 15a6 23       		.byte	0x23
 7087 15a7 00       		.uleb128 0
 7088 15a8 00       		.byte	0
 7089 15a9 0C       		.uleb128 0xc
 7090 15aa D1110000 		.4byte	.LASF338
 7091 15ae 0F       		.byte	0xf
 7092 15af 8803     		.2byte	0x388
ARM GAS  C:\Users\EBANO_~1\AppData\Local\Temp\ccJkfoGk.s 			page 154


 7093 15b1 8C150000 		.4byte	0x158c
 7094 15b5 19       		.uleb128 0x19
 7095 15b6 D2050000 		.4byte	.LASF339
 7096 15ba 03       		.byte	0x3
 7097 15bb 0F       		.byte	0xf
 7098 15bc 9B03     		.2byte	0x39b
 7099 15be F0150000 		.4byte	0x15f0
 7100 15c2 18       		.uleb128 0x18
 7101 15c3 281D0000 		.4byte	.LASF324
 7102 15c7 0F       		.byte	0xf
 7103 15c8 A003     		.2byte	0x3a0
 7104 15ca B1000000 		.4byte	0xb1
 7105 15ce 02       		.byte	0x2
 7106 15cf 23       		.byte	0x23
 7107 15d0 00       		.uleb128 0
 7108 15d1 18       		.uleb128 0x18
 7109 15d2 58120000 		.4byte	.LASF326
 7110 15d6 0F       		.byte	0xf
 7111 15d7 A403     		.2byte	0x3a4
 7112 15d9 BC000000 		.4byte	0xbc
 7113 15dd 02       		.byte	0x2
 7114 15de 23       		.byte	0x23
 7115 15df 01       		.uleb128 0x1
 7116 15e0 18       		.uleb128 0x18
 7117 15e1 D2190000 		.4byte	.LASF325
 7118 15e5 0F       		.byte	0xf
 7119 15e6 A803     		.2byte	0x3a8
 7120 15e8 BC000000 		.4byte	0xbc
 7121 15ec 02       		.byte	0x2
 7122 15ed 23       		.byte	0x23
 7123 15ee 02       		.uleb128 0x2
 7124 15ef 00       		.byte	0
 7125 15f0 28       		.uleb128 0x28
 7126 15f1 0D200000 		.4byte	.LASF340
 7127 15f5 03       		.byte	0x3
 7128 15f6 0F       		.byte	0xf
 7129 15f7 8E03     		.2byte	0x38e
 7130 15f9 22160000 		.4byte	0x1622
 7131 15fd 1C       		.uleb128 0x1c
 7132 15fe 411A0000 		.4byte	.LASF341
 7133 1602 0F       		.byte	0xf
 7134 1603 9303     		.2byte	0x393
 7135 1605 B1000000 		.4byte	0xb1
 7136 1609 1C       		.uleb128 0x1c
 7137 160a 9D1A0000 		.4byte	.LASF342
 7138 160e 0F       		.byte	0xf
 7139 160f 9703     		.2byte	0x397
 7140 1611 150B0000 		.4byte	0xb15
 7141 1615 1C       		.uleb128 0x1c
 7142 1616 89020000 		.4byte	.LASF343
 7143 161a 0F       		.byte	0xf
 7144 161b A903     		.2byte	0x3a9
 7145 161d B5150000 		.4byte	0x15b5
 7146 1621 00       		.byte	0
 7147 1622 0C       		.uleb128 0xc
 7148 1623 5D200000 		.4byte	.LASF344
 7149 1627 0F       		.byte	0xf
ARM GAS  C:\Users\EBANO_~1\AppData\Local\Temp\ccJkfoGk.s 			page 155


 7150 1628 AA03     		.2byte	0x3aa
 7151 162a F0150000 		.4byte	0x15f0
 7152 162e 19       		.uleb128 0x19
 7153 162f AB0C0000 		.4byte	.LASF345
 7154 1633 08       		.byte	0x8
 7155 1634 0F       		.byte	0xf
 7156 1635 AF03     		.2byte	0x3af
 7157 1637 5A160000 		.4byte	0x165a
 7158 163b 18       		.uleb128 0x18
 7159 163c A40A0000 		.4byte	.LASF346
 7160 1640 0F       		.byte	0xf
 7161 1641 B403     		.2byte	0x3b4
 7162 1643 840A0000 		.4byte	0xa84
 7163 1647 02       		.byte	0x2
 7164 1648 23       		.byte	0x23
 7165 1649 00       		.uleb128 0
 7166 164a 18       		.uleb128 0x18
 7167 164b 8D0F0000 		.4byte	.LASF347
 7168 164f 0F       		.byte	0xf
 7169 1650 B803     		.2byte	0x3b8
 7170 1652 BC000000 		.4byte	0xbc
 7171 1656 02       		.byte	0x2
 7172 1657 23       		.byte	0x23
 7173 1658 04       		.uleb128 0x4
 7174 1659 00       		.byte	0
 7175 165a 0C       		.uleb128 0xc
 7176 165b 750C0000 		.4byte	.LASF348
 7177 165f 0F       		.byte	0xf
 7178 1660 B903     		.2byte	0x3b9
 7179 1662 2E160000 		.4byte	0x162e
 7180 1666 19       		.uleb128 0x19
 7181 1667 CA1E0000 		.4byte	.LASF349
 7182 166b 08       		.byte	0x8
 7183 166c 0F       		.byte	0xf
 7184 166d BE03     		.2byte	0x3be
 7185 166f 92160000 		.4byte	0x1692
 7186 1673 18       		.uleb128 0x18
 7187 1674 34170000 		.4byte	.LASF350
 7188 1678 0F       		.byte	0xf
 7189 1679 C303     		.2byte	0x3c3
 7190 167b 95110000 		.4byte	0x1195
 7191 167f 02       		.byte	0x2
 7192 1680 23       		.byte	0x23
 7193 1681 00       		.uleb128 0
 7194 1682 18       		.uleb128 0x18
 7195 1683 70190000 		.4byte	.LASF351
 7196 1687 0F       		.byte	0xf
 7197 1688 C703     		.2byte	0x3c7
 7198 168a 0E140000 		.4byte	0x140e
 7199 168e 02       		.byte	0x2
 7200 168f 23       		.byte	0x23
 7201 1690 04       		.uleb128 0x4
 7202 1691 00       		.byte	0
 7203 1692 0C       		.uleb128 0xc
 7204 1693 A00E0000 		.4byte	.LASF352
 7205 1697 0F       		.byte	0xf
 7206 1698 C803     		.2byte	0x3c8
ARM GAS  C:\Users\EBANO_~1\AppData\Local\Temp\ccJkfoGk.s 			page 156


 7207 169a 66160000 		.4byte	0x1666
 7208 169e 19       		.uleb128 0x19
 7209 169f E9100000 		.4byte	.LASF353
 7210 16a3 14       		.byte	0x14
 7211 16a4 0F       		.byte	0xf
 7212 16a5 CD03     		.2byte	0x3cd
 7213 16a7 51170000 		.4byte	0x1751
 7214 16ab 18       		.uleb128 0x18
 7215 16ac 26190000 		.4byte	.LASF329
 7216 16b0 0F       		.byte	0xf
 7217 16b1 D203     		.2byte	0x3d2
 7218 16b3 BC000000 		.4byte	0xbc
 7219 16b7 02       		.byte	0x2
 7220 16b8 23       		.byte	0x23
 7221 16b9 00       		.uleb128 0
 7222 16ba 18       		.uleb128 0x18
 7223 16bb 281D0000 		.4byte	.LASF324
 7224 16bf 0F       		.byte	0xf
 7225 16c0 D603     		.2byte	0x3d6
 7226 16c2 B1000000 		.4byte	0xb1
 7227 16c6 02       		.byte	0x2
 7228 16c7 23       		.byte	0x23
 7229 16c8 01       		.uleb128 0x1
 7230 16c9 18       		.uleb128 0x18
 7231 16ca 931A0000 		.4byte	.LASF354
 7232 16ce 0F       		.byte	0xf
 7233 16cf DA03     		.2byte	0x3da
 7234 16d1 BC000000 		.4byte	0xbc
 7235 16d5 02       		.byte	0x2
 7236 16d6 23       		.byte	0x23
 7237 16d7 02       		.uleb128 0x2
 7238 16d8 18       		.uleb128 0x18
 7239 16d9 6F020000 		.4byte	.LASF355
 7240 16dd 0F       		.byte	0xf
 7241 16de DE03     		.2byte	0x3de
 7242 16e0 B1000000 		.4byte	0xb1
 7243 16e4 02       		.byte	0x2
 7244 16e5 23       		.byte	0x23
 7245 16e6 03       		.uleb128 0x3
 7246 16e7 18       		.uleb128 0x18
 7247 16e8 551C0000 		.4byte	.LASF209
 7248 16ec 0F       		.byte	0xf
 7249 16ed E203     		.2byte	0x3e2
 7250 16ef ED000000 		.4byte	0xed
 7251 16f3 02       		.byte	0x2
 7252 16f4 23       		.byte	0x23
 7253 16f5 04       		.uleb128 0x4
 7254 16f6 18       		.uleb128 0x18
 7255 16f7 D8080000 		.4byte	.LASF356
 7256 16fb 0F       		.byte	0xf
 7257 16fc E603     		.2byte	0x3e6
 7258 16fe ED000000 		.4byte	0xed
 7259 1702 02       		.byte	0x2
 7260 1703 23       		.byte	0x23
 7261 1704 08       		.uleb128 0x8
 7262 1705 18       		.uleb128 0x18
 7263 1706 2B060000 		.4byte	.LASF357
ARM GAS  C:\Users\EBANO_~1\AppData\Local\Temp\ccJkfoGk.s 			page 157


 7264 170a 0F       		.byte	0xf
 7265 170b EA03     		.2byte	0x3ea
 7266 170d E2000000 		.4byte	0xe2
 7267 1711 02       		.byte	0x2
 7268 1712 23       		.byte	0x23
 7269 1713 0C       		.uleb128 0xc
 7270 1714 18       		.uleb128 0x18
 7271 1715 58120000 		.4byte	.LASF326
 7272 1719 0F       		.byte	0xf
 7273 171a EE03     		.2byte	0x3ee
 7274 171c BC000000 		.4byte	0xbc
 7275 1720 02       		.byte	0x2
 7276 1721 23       		.byte	0x23
 7277 1722 10       		.uleb128 0x10
 7278 1723 18       		.uleb128 0x18
 7279 1724 F60B0000 		.4byte	.LASF358
 7280 1728 0F       		.byte	0xf
 7281 1729 F203     		.2byte	0x3f2
 7282 172b 150B0000 		.4byte	0xb15
 7283 172f 02       		.byte	0x2
 7284 1730 23       		.byte	0x23
 7285 1731 11       		.uleb128 0x11
 7286 1732 18       		.uleb128 0x18
 7287 1733 E51A0000 		.4byte	.LASF359
 7288 1737 0F       		.byte	0xf
 7289 1738 F603     		.2byte	0x3f6
 7290 173a 150B0000 		.4byte	0xb15
 7291 173e 02       		.byte	0x2
 7292 173f 23       		.byte	0x23
 7293 1740 12       		.uleb128 0x12
 7294 1741 18       		.uleb128 0x18
 7295 1742 31080000 		.4byte	.LASF360
 7296 1746 0F       		.byte	0xf
 7297 1747 FA03     		.2byte	0x3fa
 7298 1749 7C110000 		.4byte	0x117c
 7299 174d 02       		.byte	0x2
 7300 174e 23       		.byte	0x23
 7301 174f 13       		.uleb128 0x13
 7302 1750 00       		.byte	0
 7303 1751 0C       		.uleb128 0xc
 7304 1752 B5000000 		.4byte	.LASF361
 7305 1756 0F       		.byte	0xf
 7306 1757 FB03     		.2byte	0x3fb
 7307 1759 9E160000 		.4byte	0x169e
 7308 175d 19       		.uleb128 0x19
 7309 175e 19100000 		.4byte	.LASF362
 7310 1762 10       		.byte	0x10
 7311 1763 0F       		.byte	0xf
 7312 1764 0004     		.2byte	0x400
 7313 1766 C5170000 		.4byte	0x17c5
 7314 176a 18       		.uleb128 0x18
 7315 176b 26190000 		.4byte	.LASF329
 7316 176f 0F       		.byte	0xf
 7317 1770 0504     		.2byte	0x405
 7318 1772 BC000000 		.4byte	0xbc
 7319 1776 02       		.byte	0x2
 7320 1777 23       		.byte	0x23
ARM GAS  C:\Users\EBANO_~1\AppData\Local\Temp\ccJkfoGk.s 			page 158


 7321 1778 00       		.uleb128 0
 7322 1779 18       		.uleb128 0x18
 7323 177a 281D0000 		.4byte	.LASF324
 7324 177e 0F       		.byte	0xf
 7325 177f 0904     		.2byte	0x409
 7326 1781 B1000000 		.4byte	0xb1
 7327 1785 02       		.byte	0x2
 7328 1786 23       		.byte	0x23
 7329 1787 01       		.uleb128 0x1
 7330 1788 18       		.uleb128 0x18
 7331 1789 411A0000 		.4byte	.LASF341
 7332 178d 0F       		.byte	0xf
 7333 178e 0D04     		.2byte	0x40d
 7334 1790 B1000000 		.4byte	0xb1
 7335 1794 02       		.byte	0x2
 7336 1795 23       		.byte	0x23
 7337 1796 02       		.uleb128 0x2
 7338 1797 18       		.uleb128 0x18
 7339 1798 04040000 		.4byte	.LASF363
 7340 179c 0F       		.byte	0xf
 7341 179d 1104     		.2byte	0x411
 7342 179f 88110000 		.4byte	0x1188
 7343 17a3 02       		.byte	0x2
 7344 17a4 23       		.byte	0x23
 7345 17a5 04       		.uleb128 0x4
 7346 17a6 18       		.uleb128 0x18
 7347 17a7 BC120000 		.4byte	.LASF364
 7348 17ab 0F       		.byte	0xf
 7349 17ac 1504     		.2byte	0x415
 7350 17ae 88110000 		.4byte	0x1188
 7351 17b2 02       		.byte	0x2
 7352 17b3 23       		.byte	0x23
 7353 17b4 08       		.uleb128 0x8
 7354 17b5 18       		.uleb128 0x18
 7355 17b6 350F0000 		.4byte	.LASF365
 7356 17ba 0F       		.byte	0xf
 7357 17bb 1904     		.2byte	0x419
 7358 17bd D7000000 		.4byte	0xd7
 7359 17c1 02       		.byte	0x2
 7360 17c2 23       		.byte	0x23
 7361 17c3 0C       		.uleb128 0xc
 7362 17c4 00       		.byte	0
 7363 17c5 0C       		.uleb128 0xc
 7364 17c6 BC200000 		.4byte	.LASF366
 7365 17ca 0F       		.byte	0xf
 7366 17cb 1A04     		.2byte	0x41a
 7367 17cd 5D170000 		.4byte	0x175d
 7368 17d1 19       		.uleb128 0x19
 7369 17d2 C6080000 		.4byte	.LASF367
 7370 17d6 10       		.byte	0x10
 7371 17d7 0F       		.byte	0xf
 7372 17d8 1F04     		.2byte	0x41f
 7373 17da 57180000 		.4byte	0x1857
 7374 17de 18       		.uleb128 0x18
 7375 17df F4070000 		.4byte	.LASF368
 7376 17e3 0F       		.byte	0xf
 7377 17e4 2404     		.2byte	0x424
ARM GAS  C:\Users\EBANO_~1\AppData\Local\Temp\ccJkfoGk.s 			page 159


 7378 17e6 0A0B0000 		.4byte	0xb0a
 7379 17ea 02       		.byte	0x2
 7380 17eb 23       		.byte	0x23
 7381 17ec 00       		.uleb128 0
 7382 17ed 18       		.uleb128 0x18
 7383 17ee A40A0000 		.4byte	.LASF346
 7384 17f2 0F       		.byte	0xf
 7385 17f3 2804     		.2byte	0x428
 7386 17f5 840A0000 		.4byte	0xa84
 7387 17f9 02       		.byte	0x2
 7388 17fa 23       		.byte	0x23
 7389 17fb 04       		.uleb128 0x4
 7390 17fc 18       		.uleb128 0x18
 7391 17fd 5D110000 		.4byte	.LASF369
 7392 1801 0F       		.byte	0xf
 7393 1802 2C04     		.2byte	0x42c
 7394 1804 BC000000 		.4byte	0xbc
 7395 1808 02       		.byte	0x2
 7396 1809 23       		.byte	0x23
 7397 180a 08       		.uleb128 0x8
 7398 180b 18       		.uleb128 0x18
 7399 180c D2190000 		.4byte	.LASF325
 7400 1810 0F       		.byte	0xf
 7401 1811 3004     		.2byte	0x430
 7402 1813 BC000000 		.4byte	0xbc
 7403 1817 02       		.byte	0x2
 7404 1818 23       		.byte	0x23
 7405 1819 09       		.uleb128 0x9
 7406 181a 18       		.uleb128 0x18
 7407 181b AA010000 		.4byte	.LASF370
 7408 181f 0F       		.byte	0xf
 7409 1820 3404     		.2byte	0x434
 7410 1822 150B0000 		.4byte	0xb15
 7411 1826 02       		.byte	0x2
 7412 1827 23       		.byte	0x23
 7413 1828 0A       		.uleb128 0xa
 7414 1829 18       		.uleb128 0x18
 7415 182a 940A0000 		.4byte	.LASF371
 7416 182e 0F       		.byte	0xf
 7417 182f 3804     		.2byte	0x438
 7418 1831 B1000000 		.4byte	0xb1
 7419 1835 02       		.byte	0x2
 7420 1836 23       		.byte	0x23
 7421 1837 0B       		.uleb128 0xb
 7422 1838 18       		.uleb128 0x18
 7423 1839 D5130000 		.4byte	.LASF372
 7424 183d 0F       		.byte	0xf
 7425 183e 3C04     		.2byte	0x43c
 7426 1840 B1000000 		.4byte	0xb1
 7427 1844 02       		.byte	0x2
 7428 1845 23       		.byte	0x23
 7429 1846 0C       		.uleb128 0xc
 7430 1847 18       		.uleb128 0x18
 7431 1848 EC1D0000 		.4byte	.LASF373
 7432 184c 0F       		.byte	0xf
 7433 184d 4004     		.2byte	0x440
 7434 184f BC000000 		.4byte	0xbc
ARM GAS  C:\Users\EBANO_~1\AppData\Local\Temp\ccJkfoGk.s 			page 160


 7435 1853 02       		.byte	0x2
 7436 1854 23       		.byte	0x23
 7437 1855 0D       		.uleb128 0xd
 7438 1856 00       		.byte	0
 7439 1857 0C       		.uleb128 0xc
 7440 1858 AB1F0000 		.4byte	.LASF374
 7441 185c 0F       		.byte	0xf
 7442 185d 4104     		.2byte	0x441
 7443 185f D1170000 		.4byte	0x17d1
 7444 1863 19       		.uleb128 0x19
 7445 1864 32030000 		.4byte	.LASF375
 7446 1868 08       		.byte	0x8
 7447 1869 0F       		.byte	0xf
 7448 186a 4604     		.2byte	0x446
 7449 186c 9E180000 		.4byte	0x189e
 7450 1870 18       		.uleb128 0x18
 7451 1871 281D0000 		.4byte	.LASF324
 7452 1875 0F       		.byte	0xf
 7453 1876 4B04     		.2byte	0x44b
 7454 1878 B1000000 		.4byte	0xb1
 7455 187c 02       		.byte	0x2
 7456 187d 23       		.byte	0x23
 7457 187e 00       		.uleb128 0
 7458 187f 18       		.uleb128 0x18
 7459 1880 6F020000 		.4byte	.LASF355
 7460 1884 0F       		.byte	0xf
 7461 1885 4F04     		.2byte	0x44f
 7462 1887 B1000000 		.4byte	0xb1
 7463 188b 02       		.byte	0x2
 7464 188c 23       		.byte	0x23
 7465 188d 01       		.uleb128 0x1
 7466 188e 18       		.uleb128 0x18
 7467 188f 551C0000 		.4byte	.LASF209
 7468 1893 0F       		.byte	0xf
 7469 1894 5304     		.2byte	0x453
 7470 1896 ED000000 		.4byte	0xed
 7471 189a 02       		.byte	0x2
 7472 189b 23       		.byte	0x23
 7473 189c 04       		.uleb128 0x4
 7474 189d 00       		.byte	0
 7475 189e 0C       		.uleb128 0xc
 7476 189f 90030000 		.4byte	.LASF376
 7477 18a3 0F       		.byte	0xf
 7478 18a4 5404     		.2byte	0x454
 7479 18a6 63180000 		.4byte	0x1863
 7480 18aa 19       		.uleb128 0x19
 7481 18ab C0090000 		.4byte	.LASF377
 7482 18af 08       		.byte	0x8
 7483 18b0 0F       		.byte	0xf
 7484 18b1 5904     		.2byte	0x459
 7485 18b3 D6180000 		.4byte	0x18d6
 7486 18b7 18       		.uleb128 0x18
 7487 18b8 AB1C0000 		.4byte	.LASF378
 7488 18bc 0F       		.byte	0xf
 7489 18bd 5E04     		.2byte	0x45e
 7490 18bf 8F110000 		.4byte	0x118f
 7491 18c3 02       		.byte	0x2
ARM GAS  C:\Users\EBANO_~1\AppData\Local\Temp\ccJkfoGk.s 			page 161


 7492 18c4 23       		.byte	0x23
 7493 18c5 00       		.uleb128 0
 7494 18c6 18       		.uleb128 0x18
 7495 18c7 28030000 		.4byte	.LASF379
 7496 18cb 0F       		.byte	0xf
 7497 18cc 6204     		.2byte	0x462
 7498 18ce B1000000 		.4byte	0xb1
 7499 18d2 02       		.byte	0x2
 7500 18d3 23       		.byte	0x23
 7501 18d4 04       		.uleb128 0x4
 7502 18d5 00       		.byte	0
 7503 18d6 0C       		.uleb128 0xc
 7504 18d7 3A0A0000 		.4byte	.LASF380
 7505 18db 0F       		.byte	0xf
 7506 18dc 6304     		.2byte	0x463
 7507 18de AA180000 		.4byte	0x18aa
 7508 18e2 19       		.uleb128 0x19
 7509 18e3 BA110000 		.4byte	.LASF381
 7510 18e7 03       		.byte	0x3
 7511 18e8 0F       		.byte	0xf
 7512 18e9 6804     		.2byte	0x468
 7513 18eb 1D190000 		.4byte	0x191d
 7514 18ef 18       		.uleb128 0x18
 7515 18f0 D2190000 		.4byte	.LASF325
 7516 18f4 0F       		.byte	0xf
 7517 18f5 6D04     		.2byte	0x46d
 7518 18f7 BC000000 		.4byte	0xbc
 7519 18fb 02       		.byte	0x2
 7520 18fc 23       		.byte	0x23
 7521 18fd 00       		.uleb128 0
 7522 18fe 18       		.uleb128 0x18
 7523 18ff 58120000 		.4byte	.LASF326
 7524 1903 0F       		.byte	0xf
 7525 1904 7104     		.2byte	0x471
 7526 1906 BC000000 		.4byte	0xbc
 7527 190a 02       		.byte	0x2
 7528 190b 23       		.byte	0x23
 7529 190c 01       		.uleb128 0x1
 7530 190d 18       		.uleb128 0x18
 7531 190e 04040000 		.4byte	.LASF363
 7532 1912 0F       		.byte	0xf
 7533 1913 7504     		.2byte	0x475
 7534 1915 BC000000 		.4byte	0xbc
 7535 1919 02       		.byte	0x2
 7536 191a 23       		.byte	0x23
 7537 191b 02       		.uleb128 0x2
 7538 191c 00       		.byte	0
 7539 191d 0C       		.uleb128 0xc
 7540 191e 3E150000 		.4byte	.LASF382
 7541 1922 0F       		.byte	0xf
 7542 1923 7604     		.2byte	0x476
 7543 1925 E2180000 		.4byte	0x18e2
 7544 1929 19       		.uleb128 0x19
 7545 192a 971F0000 		.4byte	.LASF383
 7546 192e 08       		.byte	0x8
 7547 192f 0F       		.byte	0xf
 7548 1930 7B04     		.2byte	0x47b
ARM GAS  C:\Users\EBANO_~1\AppData\Local\Temp\ccJkfoGk.s 			page 162


 7549 1932 55190000 		.4byte	0x1955
 7550 1936 18       		.uleb128 0x18
 7551 1937 28030000 		.4byte	.LASF379
 7552 193b 0F       		.byte	0xf
 7553 193c 8004     		.2byte	0x480
 7554 193e BC000000 		.4byte	0xbc
 7555 1942 02       		.byte	0x2
 7556 1943 23       		.byte	0x23
 7557 1944 00       		.uleb128 0
 7558 1945 18       		.uleb128 0x18
 7559 1946 6F110000 		.4byte	.LASF210
 7560 194a 0F       		.byte	0xf
 7561 194b 8404     		.2byte	0x484
 7562 194d ED000000 		.4byte	0xed
 7563 1951 02       		.byte	0x2
 7564 1952 23       		.byte	0x23
 7565 1953 04       		.uleb128 0x4
 7566 1954 00       		.byte	0
 7567 1955 0C       		.uleb128 0xc
 7568 1956 EA110000 		.4byte	.LASF384
 7569 195a 0F       		.byte	0xf
 7570 195b 8504     		.2byte	0x485
 7571 195d 29190000 		.4byte	0x1929
 7572 1961 26       		.uleb128 0x26
 7573 1962 03080000 		.4byte	.LASF385
 7574 1966 07       		.byte	0x7
 7575 1967 01       		.byte	0x1
 7576 1968 46000000 		.4byte	0x46
 7577 196c 0F       		.byte	0xf
 7578 196d 8A04     		.2byte	0x48a
 7579 196f 80190000 		.4byte	0x1980
 7580 1973 21       		.uleb128 0x21
 7581 1974 CD160000 		.4byte	.LASF386
 7582 1978 00       		.byte	0
 7583 1979 21       		.uleb128 0x21
 7584 197a 0B0F0000 		.4byte	.LASF387
 7585 197e 01       		.byte	0x1
 7586 197f 00       		.byte	0
 7587 1980 0C       		.uleb128 0xc
 7588 1981 3B1B0000 		.4byte	.LASF388
 7589 1985 0F       		.byte	0xf
 7590 1986 9404     		.2byte	0x494
 7591 1988 61190000 		.4byte	0x1961
 7592 198c 19       		.uleb128 0x19
 7593 198d 7F060000 		.4byte	.LASF389
 7594 1991 0C       		.byte	0xc
 7595 1992 0F       		.byte	0xf
 7596 1993 9904     		.2byte	0x499
 7597 1995 F4190000 		.4byte	0x19f4
 7598 1999 18       		.uleb128 0x18
 7599 199a 73100000 		.4byte	.LASF330
 7600 199e 0F       		.byte	0xf
 7601 199f 9E04     		.2byte	0x49e
 7602 19a1 150B0000 		.4byte	0xb15
 7603 19a5 02       		.byte	0x2
 7604 19a6 23       		.byte	0x23
 7605 19a7 00       		.uleb128 0
ARM GAS  C:\Users\EBANO_~1\AppData\Local\Temp\ccJkfoGk.s 			page 163


 7606 19a8 18       		.uleb128 0x18
 7607 19a9 84210000 		.4byte	.LASF390
 7608 19ad 0F       		.byte	0xf
 7609 19ae A204     		.2byte	0x4a2
 7610 19b0 150B0000 		.4byte	0xb15
 7611 19b4 02       		.byte	0x2
 7612 19b5 23       		.byte	0x23
 7613 19b6 01       		.uleb128 0x1
 7614 19b7 18       		.uleb128 0x18
 7615 19b8 12130000 		.4byte	.LASF391
 7616 19bc 0F       		.byte	0xf
 7617 19bd A604     		.2byte	0x4a6
 7618 19bf 150B0000 		.4byte	0xb15
 7619 19c3 02       		.byte	0x2
 7620 19c4 23       		.byte	0x23
 7621 19c5 02       		.uleb128 0x2
 7622 19c6 18       		.uleb128 0x18
 7623 19c7 26190000 		.4byte	.LASF329
 7624 19cb 0F       		.byte	0xf
 7625 19cc AA04     		.2byte	0x4aa
 7626 19ce BC000000 		.4byte	0xbc
 7627 19d2 02       		.byte	0x2
 7628 19d3 23       		.byte	0x23
 7629 19d4 03       		.uleb128 0x3
 7630 19d5 18       		.uleb128 0x18
 7631 19d6 DB0D0000 		.4byte	.LASF392
 7632 19da 0F       		.byte	0xf
 7633 19db AE04     		.2byte	0x4ae
 7634 19dd 970A0000 		.4byte	0xa97
 7635 19e1 02       		.byte	0x2
 7636 19e2 23       		.byte	0x23
 7637 19e3 04       		.uleb128 0x4
 7638 19e4 18       		.uleb128 0x18
 7639 19e5 C9010000 		.4byte	.LASF393
 7640 19e9 0F       		.byte	0xf
 7641 19ea B204     		.2byte	0x4b2
 7642 19ec 970A0000 		.4byte	0xa97
 7643 19f0 02       		.byte	0x2
 7644 19f1 23       		.byte	0x23
 7645 19f2 08       		.uleb128 0x8
 7646 19f3 00       		.byte	0
 7647 19f4 0C       		.uleb128 0xc
 7648 19f5 0B160000 		.4byte	.LASF394
 7649 19f9 0F       		.byte	0xf
 7650 19fa B304     		.2byte	0x4b3
 7651 19fc 8C190000 		.4byte	0x198c
 7652 1a00 19       		.uleb128 0x19
 7653 1a01 731F0000 		.4byte	.LASF395
 7654 1a05 0C       		.byte	0xc
 7655 1a06 0F       		.byte	0xf
 7656 1a07 B804     		.2byte	0x4b8
 7657 1a09 591A0000 		.4byte	0x1a59
 7658 1a0d 18       		.uleb128 0x18
 7659 1a0e BE020000 		.4byte	.LASF396
 7660 1a12 0F       		.byte	0xf
 7661 1a13 BD04     		.2byte	0x4bd
 7662 1a15 970A0000 		.4byte	0xa97
ARM GAS  C:\Users\EBANO_~1\AppData\Local\Temp\ccJkfoGk.s 			page 164


 7663 1a19 02       		.byte	0x2
 7664 1a1a 23       		.byte	0x23
 7665 1a1b 00       		.uleb128 0
 7666 1a1c 18       		.uleb128 0x18
 7667 1a1d 07020000 		.4byte	.LASF397
 7668 1a21 0F       		.byte	0xf
 7669 1a22 C104     		.2byte	0x4c1
 7670 1a24 970A0000 		.4byte	0xa97
 7671 1a28 02       		.byte	0x2
 7672 1a29 23       		.byte	0x23
 7673 1a2a 04       		.uleb128 0x4
 7674 1a2b 18       		.uleb128 0x18
 7675 1a2c 281D0000 		.4byte	.LASF324
 7676 1a30 0F       		.byte	0xf
 7677 1a31 C504     		.2byte	0x4c5
 7678 1a33 B1000000 		.4byte	0xb1
 7679 1a37 02       		.byte	0x2
 7680 1a38 23       		.byte	0x23
 7681 1a39 08       		.uleb128 0x8
 7682 1a3a 18       		.uleb128 0x18
 7683 1a3b 73100000 		.4byte	.LASF330
 7684 1a3f 0F       		.byte	0xf
 7685 1a40 C904     		.2byte	0x4c9
 7686 1a42 150B0000 		.4byte	0xb15
 7687 1a46 02       		.byte	0x2
 7688 1a47 23       		.byte	0x23
 7689 1a48 09       		.uleb128 0x9
 7690 1a49 18       		.uleb128 0x18
 7691 1a4a 12130000 		.4byte	.LASF391
 7692 1a4e 0F       		.byte	0xf
 7693 1a4f CD04     		.2byte	0x4cd
 7694 1a51 150B0000 		.4byte	0xb15
 7695 1a55 02       		.byte	0x2
 7696 1a56 23       		.byte	0x23
 7697 1a57 0A       		.uleb128 0xa
 7698 1a58 00       		.byte	0
 7699 1a59 0C       		.uleb128 0xc
 7700 1a5a 12020000 		.4byte	.LASF398
 7701 1a5e 0F       		.byte	0xf
 7702 1a5f CE04     		.2byte	0x4ce
 7703 1a61 001A0000 		.4byte	0x1a00
 7704 1a65 19       		.uleb128 0x19
 7705 1a66 27050000 		.4byte	.LASF399
 7706 1a6a 08       		.byte	0x8
 7707 1a6b 0F       		.byte	0xf
 7708 1a6c D304     		.2byte	0x4d3
 7709 1a6e 911A0000 		.4byte	0x1a91
 7710 1a72 18       		.uleb128 0x18
 7711 1a73 AB1C0000 		.4byte	.LASF378
 7712 1a77 0F       		.byte	0xf
 7713 1a78 D804     		.2byte	0x4d8
 7714 1a7a 8F110000 		.4byte	0x118f
 7715 1a7e 02       		.byte	0x2
 7716 1a7f 23       		.byte	0x23
 7717 1a80 00       		.uleb128 0
 7718 1a81 18       		.uleb128 0x18
 7719 1a82 28030000 		.4byte	.LASF379
ARM GAS  C:\Users\EBANO_~1\AppData\Local\Temp\ccJkfoGk.s 			page 165


 7720 1a86 0F       		.byte	0xf
 7721 1a87 DC04     		.2byte	0x4dc
 7722 1a89 BC000000 		.4byte	0xbc
 7723 1a8d 02       		.byte	0x2
 7724 1a8e 23       		.byte	0x23
 7725 1a8f 04       		.uleb128 0x4
 7726 1a90 00       		.byte	0
 7727 1a91 0C       		.uleb128 0xc
 7728 1a92 0C120000 		.4byte	.LASF400
 7729 1a96 0F       		.byte	0xf
 7730 1a97 DD04     		.2byte	0x4dd
 7731 1a99 651A0000 		.4byte	0x1a65
 7732 1a9d 19       		.uleb128 0x19
 7733 1a9e EF1B0000 		.4byte	.LASF401
 7734 1aa2 01       		.byte	0x1
 7735 1aa3 0F       		.byte	0xf
 7736 1aa4 E204     		.2byte	0x4e2
 7737 1aa6 BA1A0000 		.4byte	0x1aba
 7738 1aaa 18       		.uleb128 0x18
 7739 1aab 28030000 		.4byte	.LASF379
 7740 1aaf 0F       		.byte	0xf
 7741 1ab0 E704     		.2byte	0x4e7
 7742 1ab2 BC000000 		.4byte	0xbc
 7743 1ab6 02       		.byte	0x2
 7744 1ab7 23       		.byte	0x23
 7745 1ab8 00       		.uleb128 0
 7746 1ab9 00       		.byte	0
 7747 1aba 0C       		.uleb128 0xc
 7748 1abb 65080000 		.4byte	.LASF402
 7749 1abf 0F       		.byte	0xf
 7750 1ac0 E804     		.2byte	0x4e8
 7751 1ac2 9D1A0000 		.4byte	0x1a9d
 7752 1ac6 19       		.uleb128 0x19
 7753 1ac7 041C0000 		.4byte	.LASF403
 7754 1acb 10       		.byte	0x10
 7755 1acc 0F       		.byte	0xf
 7756 1acd ED04     		.2byte	0x4ed
 7757 1acf 2E1B0000 		.4byte	0x1b2e
 7758 1ad3 18       		.uleb128 0x18
 7759 1ad4 26190000 		.4byte	.LASF329
 7760 1ad8 0F       		.byte	0xf
 7761 1ad9 F204     		.2byte	0x4f2
 7762 1adb BC000000 		.4byte	0xbc
 7763 1adf 02       		.byte	0x2
 7764 1ae0 23       		.byte	0x23
 7765 1ae1 00       		.uleb128 0
 7766 1ae2 18       		.uleb128 0x18
 7767 1ae3 281D0000 		.4byte	.LASF324
 7768 1ae7 0F       		.byte	0xf
 7769 1ae8 F604     		.2byte	0x4f6
 7770 1aea B1000000 		.4byte	0xb1
 7771 1aee 02       		.byte	0x2
 7772 1aef 23       		.byte	0x23
 7773 1af0 01       		.uleb128 0x1
 7774 1af1 18       		.uleb128 0x18
 7775 1af2 411A0000 		.4byte	.LASF341
 7776 1af6 0F       		.byte	0xf
ARM GAS  C:\Users\EBANO_~1\AppData\Local\Temp\ccJkfoGk.s 			page 166


 7777 1af7 FA04     		.2byte	0x4fa
 7778 1af9 B1000000 		.4byte	0xb1
 7779 1afd 02       		.byte	0x2
 7780 1afe 23       		.byte	0x23
 7781 1aff 02       		.uleb128 0x2
 7782 1b00 18       		.uleb128 0x18
 7783 1b01 04040000 		.4byte	.LASF363
 7784 1b05 0F       		.byte	0xf
 7785 1b06 FE04     		.2byte	0x4fe
 7786 1b08 88110000 		.4byte	0x1188
 7787 1b0c 02       		.byte	0x2
 7788 1b0d 23       		.byte	0x23
 7789 1b0e 04       		.uleb128 0x4
 7790 1b0f 18       		.uleb128 0x18
 7791 1b10 BC120000 		.4byte	.LASF364
 7792 1b14 0F       		.byte	0xf
 7793 1b15 0205     		.2byte	0x502
 7794 1b17 88110000 		.4byte	0x1188
 7795 1b1b 02       		.byte	0x2
 7796 1b1c 23       		.byte	0x23
 7797 1b1d 08       		.uleb128 0x8
 7798 1b1e 18       		.uleb128 0x18
 7799 1b1f 870A0000 		.4byte	.LASF404
 7800 1b23 0F       		.byte	0xf
 7801 1b24 0605     		.2byte	0x506
 7802 1b26 D7000000 		.4byte	0xd7
 7803 1b2a 02       		.byte	0x2
 7804 1b2b 23       		.byte	0x23
 7805 1b2c 0C       		.uleb128 0xc
 7806 1b2d 00       		.byte	0
 7807 1b2e 0C       		.uleb128 0xc
 7808 1b2f 90140000 		.4byte	.LASF405
 7809 1b33 0F       		.byte	0xf
 7810 1b34 0705     		.2byte	0x507
 7811 1b36 C61A0000 		.4byte	0x1ac6
 7812 1b3a 19       		.uleb128 0x19
 7813 1b3b 16060000 		.4byte	.LASF406
 7814 1b3f 0C       		.byte	0xc
 7815 1b40 0F       		.byte	0xf
 7816 1b41 0C05     		.2byte	0x50c
 7817 1b43 751B0000 		.4byte	0x1b75
 7818 1b47 18       		.uleb128 0x18
 7819 1b48 841C0000 		.4byte	.LASF407
 7820 1b4c 0F       		.byte	0xf
 7821 1b4d 1105     		.2byte	0x511
 7822 1b4f D7000000 		.4byte	0xd7
 7823 1b53 02       		.byte	0x2
 7824 1b54 23       		.byte	0x23
 7825 1b55 00       		.uleb128 0
 7826 1b56 18       		.uleb128 0x18
 7827 1b57 6B0E0000 		.4byte	.LASF408
 7828 1b5b 0F       		.byte	0xf
 7829 1b5c 1505     		.2byte	0x515
 7830 1b5e ED000000 		.4byte	0xed
 7831 1b62 02       		.byte	0x2
 7832 1b63 23       		.byte	0x23
 7833 1b64 04       		.uleb128 0x4
ARM GAS  C:\Users\EBANO_~1\AppData\Local\Temp\ccJkfoGk.s 			page 167


 7834 1b65 18       		.uleb128 0x18
 7835 1b66 551C0000 		.4byte	.LASF209
 7836 1b6a 0F       		.byte	0xf
 7837 1b6b 1905     		.2byte	0x519
 7838 1b6d ED000000 		.4byte	0xed
 7839 1b71 02       		.byte	0x2
 7840 1b72 23       		.byte	0x23
 7841 1b73 08       		.uleb128 0x8
 7842 1b74 00       		.byte	0
 7843 1b75 0C       		.uleb128 0xc
 7844 1b76 271F0000 		.4byte	.LASF409
 7845 1b7a 0F       		.byte	0xf
 7846 1b7b 1A05     		.2byte	0x51a
 7847 1b7d 3A1B0000 		.4byte	0x1b3a
 7848 1b81 11       		.uleb128 0x11
 7849 1b82 BA1A0000 		.4byte	.LASF410
 7850 1b86 06       		.byte	0x6
 7851 1b87 10       		.byte	0x10
 7852 1b88 2B       		.byte	0x2b
 7853 1b89 D41B0000 		.4byte	0x1bd4
 7854 1b8d 10       		.uleb128 0x10
 7855 1b8e 8E040000 		.4byte	.LASF411
 7856 1b92 10       		.byte	0x10
 7857 1b93 30       		.byte	0x30
 7858 1b94 BC000000 		.4byte	0xbc
 7859 1b98 02       		.byte	0x2
 7860 1b99 23       		.byte	0x23
 7861 1b9a 00       		.uleb128 0
 7862 1b9b 10       		.uleb128 0x10
 7863 1b9c 281D0000 		.4byte	.LASF324
 7864 1ba0 10       		.byte	0x10
 7865 1ba1 34       		.byte	0x34
 7866 1ba2 B1000000 		.4byte	0xb1
 7867 1ba6 02       		.byte	0x2
 7868 1ba7 23       		.byte	0x23
 7869 1ba8 01       		.uleb128 0x1
 7870 1ba9 10       		.uleb128 0x10
 7871 1baa 411A0000 		.4byte	.LASF341
 7872 1bae 10       		.byte	0x10
 7873 1baf 38       		.byte	0x38
 7874 1bb0 B1000000 		.4byte	0xb1
 7875 1bb4 02       		.byte	0x2
 7876 1bb5 23       		.byte	0x23
 7877 1bb6 02       		.uleb128 0x2
 7878 1bb7 10       		.uleb128 0x10
 7879 1bb8 14080000 		.4byte	.LASF412
 7880 1bbc 10       		.byte	0x10
 7881 1bbd 3C       		.byte	0x3c
 7882 1bbe BC000000 		.4byte	0xbc
 7883 1bc2 02       		.byte	0x2
 7884 1bc3 23       		.byte	0x23
 7885 1bc4 03       		.uleb128 0x3
 7886 1bc5 10       		.uleb128 0x10
 7887 1bc6 4E0D0000 		.4byte	.LASF413
 7888 1bca 10       		.byte	0x10
 7889 1bcb 40       		.byte	0x40
 7890 1bcc D7000000 		.4byte	0xd7
ARM GAS  C:\Users\EBANO_~1\AppData\Local\Temp\ccJkfoGk.s 			page 168


 7891 1bd0 02       		.byte	0x2
 7892 1bd1 23       		.byte	0x23
 7893 1bd2 04       		.uleb128 0x4
 7894 1bd3 00       		.byte	0
 7895 1bd4 03       		.uleb128 0x3
 7896 1bd5 BA0B0000 		.4byte	.LASF414
 7897 1bd9 10       		.byte	0x10
 7898 1bda 41       		.byte	0x41
 7899 1bdb 811B0000 		.4byte	0x1b81
 7900 1bdf 11       		.uleb128 0x11
 7901 1be0 2F000000 		.4byte	.LASF415
 7902 1be4 20       		.byte	0x20
 7903 1be5 10       		.byte	0x10
 7904 1be6 43       		.byte	0x43
 7905 1be7 CC1C0000 		.4byte	0x1ccc
 7906 1beb 10       		.uleb128 0x10
 7907 1bec F4070000 		.4byte	.LASF368
 7908 1bf0 10       		.byte	0x10
 7909 1bf1 48       		.byte	0x48
 7910 1bf2 0A0B0000 		.4byte	0xb0a
 7911 1bf6 02       		.byte	0x2
 7912 1bf7 23       		.byte	0x23
 7913 1bf8 00       		.uleb128 0
 7914 1bf9 10       		.uleb128 0x10
 7915 1bfa 68140000 		.4byte	.LASF416
 7916 1bfe 10       		.byte	0x10
 7917 1bff 4C       		.byte	0x4c
 7918 1c00 BC000000 		.4byte	0xbc
 7919 1c04 02       		.byte	0x2
 7920 1c05 23       		.byte	0x23
 7921 1c06 04       		.uleb128 0x4
 7922 1c07 10       		.uleb128 0x10
 7923 1c08 AA010000 		.4byte	.LASF370
 7924 1c0c 10       		.byte	0x10
 7925 1c0d 50       		.byte	0x50
 7926 1c0e 150B0000 		.4byte	0xb15
 7927 1c12 02       		.byte	0x2
 7928 1c13 23       		.byte	0x23
 7929 1c14 05       		.uleb128 0x5
 7930 1c15 10       		.uleb128 0x10
 7931 1c16 281D0000 		.4byte	.LASF324
 7932 1c1a 10       		.byte	0x10
 7933 1c1b 54       		.byte	0x54
 7934 1c1c B1000000 		.4byte	0xb1
 7935 1c20 02       		.byte	0x2
 7936 1c21 23       		.byte	0x23
 7937 1c22 06       		.uleb128 0x6
 7938 1c23 10       		.uleb128 0x10
 7939 1c24 411A0000 		.4byte	.LASF341
 7940 1c28 10       		.byte	0x10
 7941 1c29 58       		.byte	0x58
 7942 1c2a B1000000 		.4byte	0xb1
 7943 1c2e 02       		.byte	0x2
 7944 1c2f 23       		.byte	0x23
 7945 1c30 07       		.uleb128 0x7
 7946 1c31 10       		.uleb128 0x10
 7947 1c32 8E040000 		.4byte	.LASF411
ARM GAS  C:\Users\EBANO_~1\AppData\Local\Temp\ccJkfoGk.s 			page 169


 7948 1c36 10       		.byte	0x10
 7949 1c37 5C       		.byte	0x5c
 7950 1c38 BC000000 		.4byte	0xbc
 7951 1c3c 02       		.byte	0x2
 7952 1c3d 23       		.byte	0x23
 7953 1c3e 08       		.uleb128 0x8
 7954 1c3f 10       		.uleb128 0x10
 7955 1c40 940A0000 		.4byte	.LASF371
 7956 1c44 10       		.byte	0x10
 7957 1c45 60       		.byte	0x60
 7958 1c46 B1000000 		.4byte	0xb1
 7959 1c4a 02       		.byte	0x2
 7960 1c4b 23       		.byte	0x23
 7961 1c4c 09       		.uleb128 0x9
 7962 1c4d 10       		.uleb128 0x10
 7963 1c4e D5130000 		.4byte	.LASF372
 7964 1c52 10       		.byte	0x10
 7965 1c53 64       		.byte	0x64
 7966 1c54 B1000000 		.4byte	0xb1
 7967 1c58 02       		.byte	0x2
 7968 1c59 23       		.byte	0x23
 7969 1c5a 0A       		.uleb128 0xa
 7970 1c5b 10       		.uleb128 0x10
 7971 1c5c EC1D0000 		.4byte	.LASF373
 7972 1c60 10       		.byte	0x10
 7973 1c61 68       		.byte	0x68
 7974 1c62 B1000000 		.4byte	0xb1
 7975 1c66 02       		.byte	0x2
 7976 1c67 23       		.byte	0x23
 7977 1c68 0B       		.uleb128 0xb
 7978 1c69 10       		.uleb128 0x10
 7979 1c6a EB0B0000 		.4byte	.LASF417
 7980 1c6e 10       		.byte	0x10
 7981 1c6f 6C       		.byte	0x6c
 7982 1c70 BC000000 		.4byte	0xbc
 7983 1c74 02       		.byte	0x2
 7984 1c75 23       		.byte	0x23
 7985 1c76 0C       		.uleb128 0xc
 7986 1c77 10       		.uleb128 0x10
 7987 1c78 FD1C0000 		.4byte	.LASF318
 7988 1c7c 10       		.byte	0x10
 7989 1c7d 70       		.byte	0x70
 7990 1c7e 95110000 		.4byte	0x1195
 7991 1c82 02       		.byte	0x2
 7992 1c83 23       		.byte	0x23
 7993 1c84 10       		.uleb128 0x10
 7994 1c85 10       		.uleb128 0x10
 7995 1c86 1B040000 		.4byte	.LASF418
 7996 1c8a 10       		.byte	0x10
 7997 1c8b 74       		.byte	0x74
 7998 1c8c B1000000 		.4byte	0xb1
 7999 1c90 02       		.byte	0x2
 8000 1c91 23       		.byte	0x23
 8001 1c92 14       		.uleb128 0x14
 8002 1c93 10       		.uleb128 0x10
 8003 1c94 59080000 		.4byte	.LASF419
 8004 1c98 10       		.byte	0x10
ARM GAS  C:\Users\EBANO_~1\AppData\Local\Temp\ccJkfoGk.s 			page 170


 8005 1c99 78       		.byte	0x78
 8006 1c9a B1000000 		.4byte	0xb1
 8007 1c9e 02       		.byte	0x2
 8008 1c9f 23       		.byte	0x23
 8009 1ca0 15       		.uleb128 0x15
 8010 1ca1 10       		.uleb128 0x10
 8011 1ca2 010D0000 		.4byte	.LASF319
 8012 1ca6 10       		.byte	0x10
 8013 1ca7 7C       		.byte	0x7c
 8014 1ca8 8F110000 		.4byte	0x118f
 8015 1cac 02       		.byte	0x2
 8016 1cad 23       		.byte	0x23
 8017 1cae 18       		.uleb128 0x18
 8018 1caf 10       		.uleb128 0x10
 8019 1cb0 9E020000 		.4byte	.LASF420
 8020 1cb4 10       		.byte	0x10
 8021 1cb5 80       		.byte	0x80
 8022 1cb6 B1000000 		.4byte	0xb1
 8023 1cba 02       		.byte	0x2
 8024 1cbb 23       		.byte	0x23
 8025 1cbc 1C       		.uleb128 0x1c
 8026 1cbd 10       		.uleb128 0x10
 8027 1cbe C7040000 		.4byte	.LASF421
 8028 1cc2 10       		.byte	0x10
 8029 1cc3 84       		.byte	0x84
 8030 1cc4 B1000000 		.4byte	0xb1
 8031 1cc8 02       		.byte	0x2
 8032 1cc9 23       		.byte	0x23
 8033 1cca 1D       		.uleb128 0x1d
 8034 1ccb 00       		.byte	0
 8035 1ccc 03       		.uleb128 0x3
 8036 1ccd B0130000 		.4byte	.LASF422
 8037 1cd1 10       		.byte	0x10
 8038 1cd2 85       		.byte	0x85
 8039 1cd3 DF1B0000 		.4byte	0x1bdf
 8040 1cd7 11       		.uleb128 0x11
 8041 1cd8 18180000 		.4byte	.LASF423
 8042 1cdc 14       		.byte	0x14
 8043 1cdd 10       		.byte	0x10
 8044 1cde 87       		.byte	0x87
 8045 1cdf 541D0000 		.4byte	0x1d54
 8046 1ce3 10       		.uleb128 0x10
 8047 1ce4 010D0000 		.4byte	.LASF319
 8048 1ce8 10       		.byte	0x10
 8049 1ce9 8C       		.byte	0x8c
 8050 1cea 8F110000 		.4byte	0x118f
 8051 1cee 02       		.byte	0x2
 8052 1cef 23       		.byte	0x23
 8053 1cf0 00       		.uleb128 0
 8054 1cf1 10       		.uleb128 0x10
 8055 1cf2 E4130000 		.4byte	.LASF424
 8056 1cf6 10       		.byte	0x10
 8057 1cf7 90       		.byte	0x90
 8058 1cf8 541D0000 		.4byte	0x1d54
 8059 1cfc 02       		.byte	0x2
 8060 1cfd 23       		.byte	0x23
 8061 1cfe 04       		.uleb128 0x4
ARM GAS  C:\Users\EBANO_~1\AppData\Local\Temp\ccJkfoGk.s 			page 171


 8062 1cff 10       		.uleb128 0x10
 8063 1d00 84210000 		.4byte	.LASF390
 8064 1d04 10       		.byte	0x10
 8065 1d05 94       		.byte	0x94
 8066 1d06 150B0000 		.4byte	0xb15
 8067 1d0a 02       		.byte	0x2
 8068 1d0b 23       		.byte	0x23
 8069 1d0c 08       		.uleb128 0x8
 8070 1d0d 10       		.uleb128 0x10
 8071 1d0e 73100000 		.4byte	.LASF330
 8072 1d12 10       		.byte	0x10
 8073 1d13 98       		.byte	0x98
 8074 1d14 150B0000 		.4byte	0xb15
 8075 1d18 02       		.byte	0x2
 8076 1d19 23       		.byte	0x23
 8077 1d1a 09       		.uleb128 0x9
 8078 1d1b 10       		.uleb128 0x10
 8079 1d1c 12130000 		.4byte	.LASF391
 8080 1d20 10       		.byte	0x10
 8081 1d21 9C       		.byte	0x9c
 8082 1d22 150B0000 		.4byte	0xb15
 8083 1d26 02       		.byte	0x2
 8084 1d27 23       		.byte	0x23
 8085 1d28 0A       		.uleb128 0xa
 8086 1d29 10       		.uleb128 0x10
 8087 1d2a 26190000 		.4byte	.LASF329
 8088 1d2e 10       		.byte	0x10
 8089 1d2f A0       		.byte	0xa0
 8090 1d30 BC000000 		.4byte	0xbc
 8091 1d34 02       		.byte	0x2
 8092 1d35 23       		.byte	0x23
 8093 1d36 0B       		.uleb128 0xb
 8094 1d37 10       		.uleb128 0x10
 8095 1d38 DB0D0000 		.4byte	.LASF392
 8096 1d3c 10       		.byte	0x10
 8097 1d3d A4       		.byte	0xa4
 8098 1d3e 970A0000 		.4byte	0xa97
 8099 1d42 02       		.byte	0x2
 8100 1d43 23       		.byte	0x23
 8101 1d44 0C       		.uleb128 0xc
 8102 1d45 10       		.uleb128 0x10
 8103 1d46 C9010000 		.4byte	.LASF393
 8104 1d4a 10       		.byte	0x10
 8105 1d4b A8       		.byte	0xa8
 8106 1d4c 970A0000 		.4byte	0xa97
 8107 1d50 02       		.byte	0x2
 8108 1d51 23       		.byte	0x23
 8109 1d52 10       		.uleb128 0x10
 8110 1d53 00       		.byte	0
 8111 1d54 0A       		.uleb128 0xa
 8112 1d55 04       		.byte	0x4
 8113 1d56 750B0000 		.4byte	0xb75
 8114 1d5a 03       		.uleb128 0x3
 8115 1d5b 081B0000 		.4byte	.LASF425
 8116 1d5f 10       		.byte	0x10
 8117 1d60 A9       		.byte	0xa9
 8118 1d61 D71C0000 		.4byte	0x1cd7
ARM GAS  C:\Users\EBANO_~1\AppData\Local\Temp\ccJkfoGk.s 			page 172


 8119 1d65 11       		.uleb128 0x11
 8120 1d66 C4030000 		.4byte	.LASF426
 8121 1d6a 14       		.byte	0x14
 8122 1d6b 10       		.byte	0x10
 8123 1d6c AB       		.byte	0xab
 8124 1d6d D41D0000 		.4byte	0x1dd4
 8125 1d71 10       		.uleb128 0x10
 8126 1d72 93000000 		.4byte	.LASF427
 8127 1d76 10       		.byte	0x10
 8128 1d77 B0       		.byte	0xb0
 8129 1d78 D41D0000 		.4byte	0x1dd4
 8130 1d7c 02       		.byte	0x2
 8131 1d7d 23       		.byte	0x23
 8132 1d7e 00       		.uleb128 0
 8133 1d7f 10       		.uleb128 0x10
 8134 1d80 551C0000 		.4byte	.LASF209
 8135 1d84 10       		.byte	0x10
 8136 1d85 B4       		.byte	0xb4
 8137 1d86 ED000000 		.4byte	0xed
 8138 1d8a 02       		.byte	0x2
 8139 1d8b 23       		.byte	0x23
 8140 1d8c 04       		.uleb128 0x4
 8141 1d8d 10       		.uleb128 0x10
 8142 1d8e E5030000 		.4byte	.LASF312
 8143 1d92 10       		.byte	0x10
 8144 1d93 B8       		.byte	0xb8
 8145 1d94 BC000000 		.4byte	0xbc
 8146 1d98 02       		.byte	0x2
 8147 1d99 23       		.byte	0x23
 8148 1d9a 08       		.uleb128 0x8
 8149 1d9b 10       		.uleb128 0x10
 8150 1d9c 64060000 		.4byte	.LASF428
 8151 1da0 10       		.byte	0x10
 8152 1da1 BC       		.byte	0xbc
 8153 1da2 BC000000 		.4byte	0xbc
 8154 1da6 02       		.byte	0x2
 8155 1da7 23       		.byte	0x23
 8156 1da8 09       		.uleb128 0x9
 8157 1da9 10       		.uleb128 0x10
 8158 1daa 30120000 		.4byte	.LASF429
 8159 1dae 10       		.byte	0x10
 8160 1daf C0       		.byte	0xc0
 8161 1db0 BC000000 		.4byte	0xbc
 8162 1db4 02       		.byte	0x2
 8163 1db5 23       		.byte	0x23
 8164 1db6 0A       		.uleb128 0xa
 8165 1db7 10       		.uleb128 0x10
 8166 1db8 6B0E0000 		.4byte	.LASF408
 8167 1dbc 10       		.byte	0x10
 8168 1dbd C4       		.byte	0xc4
 8169 1dbe ED000000 		.4byte	0xed
 8170 1dc2 02       		.byte	0x2
 8171 1dc3 23       		.byte	0x23
 8172 1dc4 0C       		.uleb128 0xc
 8173 1dc5 10       		.uleb128 0x10
 8174 1dc6 841C0000 		.4byte	.LASF407
 8175 1dca 10       		.byte	0x10
ARM GAS  C:\Users\EBANO_~1\AppData\Local\Temp\ccJkfoGk.s 			page 173


 8176 1dcb C8       		.byte	0xc8
 8177 1dcc D7000000 		.4byte	0xd7
 8178 1dd0 02       		.byte	0x2
 8179 1dd1 23       		.byte	0x23
 8180 1dd2 10       		.uleb128 0x10
 8181 1dd3 00       		.byte	0
 8182 1dd4 0A       		.uleb128 0xa
 8183 1dd5 04       		.byte	0x4
 8184 1dd6 C7000000 		.4byte	0xc7
 8185 1dda 03       		.uleb128 0x3
 8186 1ddb 3F010000 		.4byte	.LASF430
 8187 1ddf 10       		.byte	0x10
 8188 1de0 C9       		.byte	0xc9
 8189 1de1 651D0000 		.4byte	0x1d65
 8190 1de5 29       		.uleb128 0x29
 8191 1de6 61190000 		.4byte	.LASF432
 8192 1dea 11       		.byte	0x11
 8193 1deb 2201     		.2byte	0x122
 8194 1ded 3C010000 		.4byte	0x13c
 8195 1df1 05       		.byte	0x5
 8196 1df2 03       		.byte	0x3
 8197 1df3 F8000000 		.4byte	DataratesEU868
 8198 1df7 07       		.uleb128 0x7
 8199 1df8 F8000000 		.4byte	0xf8
 8200 1dfc 071E0000 		.4byte	0x1e07
 8201 1e00 08       		.uleb128 0x8
 8202 1e01 AA000000 		.4byte	0xaa
 8203 1e05 07       		.byte	0x7
 8204 1e06 00       		.byte	0
 8205 1e07 05       		.uleb128 0x5
 8206 1e08 F71D0000 		.4byte	0x1df7
 8207 1e0c 29       		.uleb128 0x29
 8208 1e0d D51A0000 		.4byte	.LASF433
 8209 1e11 11       		.byte	0x11
 8210 1e12 2701     		.2byte	0x127
 8211 1e14 071E0000 		.4byte	0x1e07
 8212 1e18 05       		.byte	0x5
 8213 1e19 03       		.byte	0x3
 8214 1e1a D8000000 		.4byte	BandwidthsEU868
 8215 1e1e 29       		.uleb128 0x29
 8216 1e1f F7090000 		.4byte	.LASF434
 8217 1e23 11       		.byte	0x11
 8218 1e24 2C01     		.2byte	0x12c
 8219 1e26 3C010000 		.4byte	0x13c
 8220 1e2a 05       		.byte	0x5
 8221 1e2b 03       		.byte	0x3
 8222 1e2c 00010000 		.4byte	MaxPayloadOfDatarateEU868
 8223 1e30 29       		.uleb128 0x29
 8224 1e31 3C020000 		.4byte	.LASF435
 8225 1e35 11       		.byte	0x11
 8226 1e36 3101     		.2byte	0x131
 8227 1e38 3C010000 		.4byte	0x13c
 8228 1e3c 05       		.byte	0x5
 8229 1e3d 03       		.byte	0x3
 8230 1e3e 08010000 		.4byte	MaxPayloadOfDatarateRepeaterEU868
 8231 1e42 13       		.uleb128 0x13
 8232 1e43 B3080000 		.4byte	.LASF436
ARM GAS  C:\Users\EBANO_~1\AppData\Local\Temp\ccJkfoGk.s 			page 174


 8233 1e47 1401     		.2byte	0x114
 8234 1e49 01       		.byte	0x1
 8235 1e4a 2B       		.byte	0x2b
 8236 1e4b 8B1E0000 		.4byte	0x1e8b
 8237 1e4f 10       		.uleb128 0x10
 8238 1e50 010D0000 		.4byte	.LASF319
 8239 1e54 01       		.byte	0x1
 8240 1e55 30       		.byte	0x30
 8241 1e56 8B1E0000 		.4byte	0x1e8b
 8242 1e5a 02       		.byte	0x2
 8243 1e5b 23       		.byte	0x23
 8244 1e5c 00       		.uleb128 0
 8245 1e5d 10       		.uleb128 0x10
 8246 1e5e E4130000 		.4byte	.LASF424
 8247 1e62 01       		.byte	0x1
 8248 1e63 34       		.byte	0x34
 8249 1e64 9B1E0000 		.4byte	0x1e9b
 8250 1e68 03       		.byte	0x3
 8251 1e69 23       		.byte	0x23
 8252 1e6a C001     		.uleb128 0xc0
 8253 1e6c 10       		.uleb128 0x10
 8254 1e6d FD1C0000 		.4byte	.LASF318
 8255 1e71 01       		.byte	0x1
 8256 1e72 38       		.byte	0x38
 8257 1e73 AB1E0000 		.4byte	0x1eab
 8258 1e77 03       		.byte	0x3
 8259 1e78 23       		.byte	0x23
 8260 1e79 9002     		.uleb128 0x110
 8261 1e7b 10       		.uleb128 0x10
 8262 1e7c 68150000 		.4byte	.LASF437
 8263 1e80 01       		.byte	0x1
 8264 1e81 3C       		.byte	0x3c
 8265 1e82 AB1E0000 		.4byte	0x1eab
 8266 1e86 03       		.byte	0x3
 8267 1e87 23       		.byte	0x23
 8268 1e88 9202     		.uleb128 0x112
 8269 1e8a 00       		.byte	0
 8270 1e8b 07       		.uleb128 0x7
 8271 1e8c 41110000 		.4byte	0x1141
 8272 1e90 9B1E0000 		.4byte	0x1e9b
 8273 1e94 08       		.uleb128 0x8
 8274 1e95 AA000000 		.4byte	0xaa
 8275 1e99 0F       		.byte	0xf
 8276 1e9a 00       		.byte	0
 8277 1e9b 07       		.uleb128 0x7
 8278 1e9c 750B0000 		.4byte	0xb75
 8279 1ea0 AB1E0000 		.4byte	0x1eab
 8280 1ea4 08       		.uleb128 0x8
 8281 1ea5 AA000000 		.4byte	0xaa
 8282 1ea9 04       		.byte	0x4
 8283 1eaa 00       		.byte	0
 8284 1eab 07       		.uleb128 0x7
 8285 1eac D7000000 		.4byte	0xd7
 8286 1eb0 BB1E0000 		.4byte	0x1ebb
 8287 1eb4 08       		.uleb128 0x8
 8288 1eb5 AA000000 		.4byte	0xaa
 8289 1eb9 00       		.byte	0
ARM GAS  C:\Users\EBANO_~1\AppData\Local\Temp\ccJkfoGk.s 			page 175


 8290 1eba 00       		.byte	0
 8291 1ebb 03       		.uleb128 0x3
 8292 1ebc F9100000 		.4byte	.LASF438
 8293 1ec0 01       		.byte	0x1
 8294 1ec1 3D       		.byte	0x3d
 8295 1ec2 421E0000 		.4byte	0x1e42
 8296 1ec6 2A       		.uleb128 0x2a
 8297 1ec7 0A1F0000 		.4byte	.LASF333
 8298 1ecb 01       		.byte	0x1
 8299 1ecc 42       		.byte	0x42
 8300 1ecd BB1E0000 		.4byte	0x1ebb
 8301 1ed1 05       		.byte	0x5
 8302 1ed2 03       		.byte	0x3
 8303 1ed3 00000000 		.4byte	NvmCtx
 8304 1ed7 2B       		.uleb128 0x2b
 8305 1ed8 01       		.byte	0x1
 8306 1ed9 F4160000 		.4byte	.LASF445
 8307 1edd 01       		.byte	0x1
 8308 1ede 0E04     		.2byte	0x40e
 8309 1ee0 01       		.byte	0x1
 8310 1ee1 00000000 		.4byte	.LFB66
 8311 1ee5 38000000 		.4byte	.LFE66
 8312 1ee9 00000000 		.4byte	.LLST129
 8313 1eed 01       		.byte	0x1
 8314 1eee 321F0000 		.4byte	0x1f32
 8315 1ef2 2C       		.uleb128 0x2c
 8316 1ef3 E11B0000 		.4byte	.LASF439
 8317 1ef7 01       		.byte	0x1
 8318 1ef8 0E04     		.2byte	0x40e
 8319 1efa 321F0000 		.4byte	0x1f32
 8320 1efe 2C000000 		.4byte	.LLST130
 8321 1f02 2C       		.uleb128 0x2c
 8322 1f03 870D0000 		.4byte	.LASF440
 8323 1f07 01       		.byte	0x1
 8324 1f08 0E04     		.2byte	0x40e
 8325 1f0a 840A0000 		.4byte	0xa84
 8326 1f0e 4D000000 		.4byte	.LLST131
 8327 1f12 29       		.uleb128 0x29
 8328 1f13 C21D0000 		.4byte	.LASF441
 8329 1f17 01       		.byte	0x1
 8330 1f18 1004     		.2byte	0x410
 8331 1f1a DA1D0000 		.4byte	0x1dda
 8332 1f1e 02       		.byte	0x2
 8333 1f1f 91       		.byte	0x91
 8334 1f20 64       		.sleb128 -28
 8335 1f21 2D       		.uleb128 0x2d
 8336 1f22 28000000 		.4byte	.LVL350
 8337 1f26 B6330000 		.4byte	0x33b6
 8338 1f2a 2E       		.uleb128 0x2e
 8339 1f2b 01       		.byte	0x1
 8340 1f2c 50       		.byte	0x50
 8341 1f2d 02       		.byte	0x2
 8342 1f2e 91       		.byte	0x91
 8343 1f2f 64       		.sleb128 -28
 8344 1f30 00       		.byte	0
 8345 1f31 00       		.byte	0
 8346 1f32 0A       		.uleb128 0xa
ARM GAS  C:\Users\EBANO_~1\AppData\Local\Temp\ccJkfoGk.s 			page 176


 8347 1f33 04       		.byte	0x4
 8348 1f34 751B0000 		.4byte	0x1b75
 8349 1f38 2F       		.uleb128 0x2f
 8350 1f39 01       		.byte	0x1
 8351 1f3a A90F0000 		.4byte	.LASF458
 8352 1f3e 01       		.byte	0x1
 8353 1f3f 0304     		.2byte	0x403
 8354 1f41 01       		.byte	0x1
 8355 1f42 BC000000 		.4byte	0xbc
 8356 1f46 00000000 		.4byte	.LFB65
 8357 1f4a 0E000000 		.4byte	.LFE65
 8358 1f4e 02       		.byte	0x2
 8359 1f4f 7D       		.byte	0x7d
 8360 1f50 00       		.sleb128 0
 8361 1f51 01       		.byte	0x1
 8362 1f52 9E1F0000 		.4byte	0x1f9e
 8363 1f56 2C       		.uleb128 0x2c
 8364 1f57 2A1A0000 		.4byte	.LASF442
 8365 1f5b 01       		.byte	0x1
 8366 1f5c 0304     		.2byte	0x403
 8367 1f5e BC000000 		.4byte	0xbc
 8368 1f62 79000000 		.4byte	.LLST127
 8369 1f66 30       		.uleb128 0x30
 8370 1f67 647200   		.ascii	"dr\000"
 8371 1f6a 01       		.byte	0x1
 8372 1f6b 0304     		.2byte	0x403
 8373 1f6d B1000000 		.4byte	0xb1
 8374 1f71 9A000000 		.4byte	.LLST128
 8375 1f75 31       		.uleb128 0x31
 8376 1f76 ED200000 		.4byte	.LASF443
 8377 1f7a 01       		.byte	0x1
 8378 1f7b 0304     		.2byte	0x403
 8379 1f7d B1000000 		.4byte	0xb1
 8380 1f81 01       		.byte	0x1
 8381 1f82 52       		.byte	0x52
 8382 1f83 29       		.uleb128 0x29
 8383 1f84 BE040000 		.4byte	.LASF444
 8384 1f88 01       		.byte	0x1
 8385 1f89 0504     		.2byte	0x405
 8386 1f8b B1000000 		.4byte	0xb1
 8387 1f8f 0D       		.byte	0xd
 8388 1f90 71       		.byte	0x71
 8389 1f91 00       		.sleb128 0
 8390 1f92 12       		.byte	0x12
 8391 1f93 30       		.byte	0x30
 8392 1f94 16       		.byte	0x16
 8393 1f95 14       		.byte	0x14
 8394 1f96 2B       		.byte	0x2b
 8395 1f97 28       		.byte	0x28
 8396 1f98 0100     		.2byte	0x1
 8397 1f9a 16       		.byte	0x16
 8398 1f9b 13       		.byte	0x13
 8399 1f9c 9F       		.byte	0x9f
 8400 1f9d 00       		.byte	0
 8401 1f9e 2B       		.uleb128 0x2b
 8402 1f9f 01       		.byte	0x1
 8403 1fa0 16140000 		.4byte	.LASF446
ARM GAS  C:\Users\EBANO_~1\AppData\Local\Temp\ccJkfoGk.s 			page 177


 8404 1fa4 01       		.byte	0x1
 8405 1fa5 F703     		.2byte	0x3f7
 8406 1fa7 01       		.byte	0x1
 8407 1fa8 00000000 		.4byte	.LFB64
 8408 1fac 50000000 		.4byte	.LFE64
 8409 1fb0 BB000000 		.4byte	.LLST122
 8410 1fb4 01       		.byte	0x1
 8411 1fb5 4A200000 		.4byte	0x204a
 8412 1fb9 2C       		.uleb128 0x2c
 8413 1fba FC050000 		.4byte	.LASF447
 8414 1fbe 01       		.byte	0x1
 8415 1fbf F703     		.2byte	0x3f7
 8416 1fc1 4A200000 		.4byte	0x204a
 8417 1fc5 E7000000 		.4byte	.LLST123
 8418 1fc9 32       		.uleb128 0x32
 8419 1fca 47130000 		.4byte	.LASF450
 8420 1fce 01       		.byte	0x1
 8421 1fcf F903     		.2byte	0x3f9
 8422 1fd1 B1000000 		.4byte	0xb1
 8423 1fd5 33       		.uleb128 0x33
 8424 1fd6 0B060000 		.4byte	.LASF448
 8425 1fda 01       		.byte	0x1
 8426 1fdb FA03     		.2byte	0x3fa
 8427 1fdd B1000000 		.4byte	0xb1
 8428 1fe1 13010000 		.4byte	.LLST124
 8429 1fe5 33       		.uleb128 0x33
 8430 1fe6 03200000 		.4byte	.LASF449
 8431 1fea 01       		.byte	0x1
 8432 1feb FB03     		.2byte	0x3fb
 8433 1fed ED000000 		.4byte	0xed
 8434 1ff1 32010000 		.4byte	.LLST125
 8435 1ff5 34       		.uleb128 0x34
 8436 1ff6 52310000 		.4byte	0x3152
 8437 1ffa 14000000 		.4byte	.LBB193
 8438 1ffe D8020000 		.4byte	.Ldebug_ranges0+0x2d8
 8439 2002 01       		.byte	0x1
 8440 2003 F903     		.2byte	0x3f9
 8441 2005 34200000 		.4byte	0x2034
 8442 2009 35       		.uleb128 0x35
 8443 200a 79310000 		.4byte	0x3179
 8444 200e 45010000 		.4byte	.LLST126
 8445 2012 36       		.uleb128 0x36
 8446 2013 84310000 		.4byte	0x3184
 8447 2017 06       		.byte	0x6
 8448 2018 03       		.byte	0x3
 8449 2019 10010000 		.4byte	NvmCtx+272
 8450 201d 9F       		.byte	0x9f
 8451 201e 37       		.uleb128 0x37
 8452 201f 6E310000 		.4byte	0x316e
 8453 2023 37       		.uleb128 0x37
 8454 2024 63310000 		.4byte	0x3163
 8455 2028 38       		.uleb128 0x38
 8456 2029 D8020000 		.4byte	.Ldebug_ranges0+0x2d8
 8457 202d 39       		.uleb128 0x39
 8458 202e 8F310000 		.4byte	0x318f
 8459 2032 00       		.byte	0
 8460 2033 00       		.byte	0
ARM GAS  C:\Users\EBANO_~1\AppData\Local\Temp\ccJkfoGk.s 			page 178


 8461 2034 3A       		.uleb128 0x3a
 8462 2035 36000000 		.4byte	.LVL339
 8463 2039 C4330000 		.4byte	0x33c4
 8464 203d 3B       		.uleb128 0x3b
 8465 203e 44000000 		.4byte	.LVL341
 8466 2042 2E       		.uleb128 0x2e
 8467 2043 01       		.byte	0x1
 8468 2044 50       		.byte	0x50
 8469 2045 02       		.byte	0x2
 8470 2046 75       		.byte	0x75
 8471 2047 00       		.sleb128 0
 8472 2048 00       		.byte	0
 8473 2049 00       		.byte	0
 8474 204a 0A       		.uleb128 0xa
 8475 204b 04       		.byte	0x4
 8476 204c 2E1B0000 		.4byte	0x1b2e
 8477 2050 3C       		.uleb128 0x3c
 8478 2051 01       		.byte	0x1
 8479 2052 CC1F0000 		.4byte	.LASF451
 8480 2056 01       		.byte	0x1
 8481 2057 E803     		.2byte	0x3e8
 8482 2059 01       		.byte	0x1
 8483 205a 150B0000 		.4byte	0xb15
 8484 205e 01       		.byte	0x1
 8485 205f 7B200000 		.4byte	0x207b
 8486 2063 3D       		.uleb128 0x3d
 8487 2064 BE1F0000 		.4byte	.LASF453
 8488 2068 01       		.byte	0x1
 8489 2069 E803     		.2byte	0x3e8
 8490 206b 7B200000 		.4byte	0x207b
 8491 206f 3E       		.uleb128 0x3e
 8492 2070 696400   		.ascii	"id\000"
 8493 2073 01       		.byte	0x1
 8494 2074 EA03     		.2byte	0x3ea
 8495 2076 BC000000 		.4byte	0xbc
 8496 207a 00       		.byte	0
 8497 207b 0A       		.uleb128 0xa
 8498 207c 04       		.byte	0x4
 8499 207d BA1A0000 		.4byte	0x1aba
 8500 2081 3C       		.uleb128 0x3c
 8501 2082 01       		.byte	0x1
 8502 2083 111F0000 		.4byte	.LASF452
 8503 2087 01       		.byte	0x1
 8504 2088 AC03     		.2byte	0x3ac
 8505 208a 01       		.byte	0x1
 8506 208b 38120000 		.4byte	0x1238
 8507 208f 01       		.byte	0x1
 8508 2090 D0200000 		.4byte	0x20d0
 8509 2094 3D       		.uleb128 0x3d
 8510 2095 F6120000 		.4byte	.LASF454
 8511 2099 01       		.byte	0x1
 8512 209a AC03     		.2byte	0x3ac
 8513 209c D0200000 		.4byte	0x20d0
 8514 20a0 32       		.uleb128 0x32
 8515 20a1 EE170000 		.4byte	.LASF455
 8516 20a5 01       		.byte	0x1
 8517 20a6 AE03     		.2byte	0x3ae
ARM GAS  C:\Users\EBANO_~1\AppData\Local\Temp\ccJkfoGk.s 			page 179


 8518 20a8 BC000000 		.4byte	0xbc
 8519 20ac 32       		.uleb128 0x32
 8520 20ad 7A210000 		.4byte	.LASF456
 8521 20b1 01       		.byte	0x1
 8522 20b2 AF03     		.2byte	0x3af
 8523 20b4 150B0000 		.4byte	0xb15
 8524 20b8 32       		.uleb128 0x32
 8525 20b9 38210000 		.4byte	.LASF457
 8526 20bd 01       		.byte	0x1
 8527 20be B003     		.2byte	0x3b0
 8528 20c0 150B0000 		.4byte	0xb15
 8529 20c4 3E       		.uleb128 0x3e
 8530 20c5 696400   		.ascii	"id\000"
 8531 20c8 01       		.byte	0x1
 8532 20c9 B103     		.2byte	0x3b1
 8533 20cb BC000000 		.4byte	0xbc
 8534 20cf 00       		.byte	0
 8535 20d0 0A       		.uleb128 0xa
 8536 20d1 04       		.byte	0x4
 8537 20d2 911A0000 		.4byte	0x1a91
 8538 20d6 3F       		.uleb128 0x3f
 8539 20d7 01       		.byte	0x1
 8540 20d8 85120000 		.4byte	.LASF459
 8541 20dc 01       		.byte	0x1
 8542 20dd 7603     		.2byte	0x376
 8543 20df 01       		.byte	0x1
 8544 20e0 38120000 		.4byte	0x1238
 8545 20e4 00000000 		.4byte	.LFB61
 8546 20e8 C8010000 		.4byte	.LFE61
 8547 20ec 65010000 		.4byte	.LLST90
 8548 20f0 01       		.byte	0x1
 8549 20f1 B6220000 		.4byte	0x22b6
 8550 20f5 2C       		.uleb128 0x2c
 8551 20f6 4C180000 		.4byte	.LASF460
 8552 20fa 01       		.byte	0x1
 8553 20fb 7603     		.2byte	0x376
 8554 20fd B6220000 		.4byte	0x22b6
 8555 2101 9E010000 		.4byte	.LLST91
 8556 2105 2C       		.uleb128 0x2c
 8557 2106 2D0F0000 		.4byte	.LASF461
 8558 210a 01       		.byte	0x1
 8559 210b 7603     		.2byte	0x376
 8560 210d 840A0000 		.4byte	0xa84
 8561 2111 FC010000 		.4byte	.LLST92
 8562 2115 2C       		.uleb128 0x2c
 8563 2116 F2090000 		.4byte	.LASF462
 8564 211a 01       		.byte	0x1
 8565 211b 7603     		.2byte	0x376
 8566 211d BC220000 		.4byte	0x22bc
 8567 2121 1B020000 		.4byte	.LLST93
 8568 2125 2C       		.uleb128 0x2c
 8569 2126 200D0000 		.4byte	.LASF463
 8570 212a 01       		.byte	0x1
 8571 212b 7603     		.2byte	0x376
 8572 212d BC220000 		.4byte	0x22bc
 8573 2131 52020000 		.4byte	.LLST94
 8574 2135 33       		.uleb128 0x33
ARM GAS  C:\Users\EBANO_~1\AppData\Local\Temp\ccJkfoGk.s 			page 180


 8575 2136 F9150000 		.4byte	.LASF464
 8576 213a 01       		.byte	0x1
 8577 213b 7803     		.2byte	0x378
 8578 213d BC000000 		.4byte	0xbc
 8579 2141 B0020000 		.4byte	.LLST95
 8580 2145 33       		.uleb128 0x33
 8581 2146 A7060000 		.4byte	.LASF465
 8582 214a 01       		.byte	0x1
 8583 214b 7903     		.2byte	0x379
 8584 214d BC000000 		.4byte	0xbc
 8585 2151 DC020000 		.4byte	.LLST96
 8586 2155 29       		.uleb128 0x29
 8587 2156 F2190000 		.4byte	.LASF466
 8588 215a 01       		.byte	0x1
 8589 215b 7A03     		.2byte	0x37a
 8590 215d C2220000 		.4byte	0x22c2
 8591 2161 02       		.byte	0x2
 8592 2162 91       		.byte	0x91
 8593 2163 48       		.sleb128 -56
 8594 2164 33       		.uleb128 0x33
 8595 2165 B2160000 		.4byte	.LASF467
 8596 2169 01       		.byte	0x1
 8597 216a 7B03     		.2byte	0x37b
 8598 216c 970A0000 		.4byte	0xa97
 8599 2170 22030000 		.4byte	.LLST97
 8600 2174 34       		.uleb128 0x34
 8601 2175 96300000 		.4byte	0x3096
 8602 2179 6C000000 		.4byte	.LBB157
 8603 217d 38020000 		.4byte	.Ldebug_ranges0+0x238
 8604 2181 01       		.byte	0x1
 8605 2182 8B03     		.2byte	0x38b
 8606 2184 39220000 		.4byte	0x2239
 8607 2188 35       		.uleb128 0x35
 8608 2189 BD300000 		.4byte	0x30bd
 8609 218d 7F030000 		.4byte	.LLST98
 8610 2191 35       		.uleb128 0x35
 8611 2192 C8300000 		.4byte	0x30c8
 8612 2196 A7030000 		.4byte	.LLST99
 8613 219a 35       		.uleb128 0x35
 8614 219b D3300000 		.4byte	0x30d3
 8615 219f CF030000 		.4byte	.LLST100
 8616 21a3 35       		.uleb128 0x35
 8617 21a4 E9300000 		.4byte	0x30e9
 8618 21a8 09040000 		.4byte	.LLST101
 8619 21ac 35       		.uleb128 0x35
 8620 21ad DE300000 		.4byte	0x30de
 8621 21b1 31040000 		.4byte	.LLST102
 8622 21b5 35       		.uleb128 0x35
 8623 21b6 B2300000 		.4byte	0x30b2
 8624 21ba 83040000 		.4byte	.LLST103
 8625 21be 35       		.uleb128 0x35
 8626 21bf A7300000 		.4byte	0x30a7
 8627 21c3 A5040000 		.4byte	.LLST104
 8628 21c7 38       		.uleb128 0x38
 8629 21c8 38020000 		.4byte	.Ldebug_ranges0+0x238
 8630 21cc 40       		.uleb128 0x40
 8631 21cd F4300000 		.4byte	0x30f4
ARM GAS  C:\Users\EBANO_~1\AppData\Local\Temp\ccJkfoGk.s 			page 181


 8632 21d1 ED040000 		.4byte	.LLST105
 8633 21d5 40       		.uleb128 0x40
 8634 21d6 FF300000 		.4byte	0x30ff
 8635 21da 65050000 		.4byte	.LLST106
 8636 21de 41       		.uleb128 0x41
 8637 21df 0A310000 		.4byte	0x310a
 8638 21e3 60020000 		.4byte	.Ldebug_ranges0+0x260
 8639 21e7 40       		.uleb128 0x40
 8640 21e8 0B310000 		.4byte	0x310b
 8641 21ec B9050000 		.4byte	.LLST107
 8642 21f0 40       		.uleb128 0x40
 8643 21f1 14310000 		.4byte	0x3114
 8644 21f5 B9050000 		.4byte	.LLST107
 8645 21f9 41       		.uleb128 0x41
 8646 21fa 1D310000 		.4byte	0x311d
 8647 21fe 60020000 		.4byte	.Ldebug_ranges0+0x260
 8648 2202 40       		.uleb128 0x40
 8649 2203 1E310000 		.4byte	0x311e
 8650 2207 D9050000 		.4byte	.LLST109
 8651 220b 42       		.uleb128 0x42
 8652 220c C4000000 		.4byte	.LVL280
 8653 2210 D2330000 		.4byte	0x33d2
 8654 2214 22220000 		.4byte	0x2222
 8655 2218 2E       		.uleb128 0x2e
 8656 2219 01       		.byte	0x1
 8657 221a 50       		.byte	0x50
 8658 221b 05       		.byte	0x5
 8659 221c 91       		.byte	0x91
 8660 221d B47F     		.sleb128 -76
 8661 221f 94       		.byte	0x94
 8662 2220 01       		.byte	0x1
 8663 2221 00       		.byte	0
 8664 2222 2D       		.uleb128 0x2d
 8665 2223 76010000 		.4byte	.LVL295
 8666 2227 D2330000 		.4byte	0x33d2
 8667 222b 2E       		.uleb128 0x2e
 8668 222c 01       		.byte	0x1
 8669 222d 50       		.byte	0x50
 8670 222e 05       		.byte	0x5
 8671 222f 91       		.byte	0x91
 8672 2230 B47F     		.sleb128 -76
 8673 2232 94       		.byte	0x94
 8674 2233 01       		.byte	0x1
 8675 2234 00       		.byte	0
 8676 2235 00       		.byte	0
 8677 2236 00       		.byte	0
 8678 2237 00       		.byte	0
 8679 2238 00       		.byte	0
 8680 2239 42       		.uleb128 0x42
 8681 223a 20000000 		.4byte	.LVL264
 8682 223e DF330000 		.4byte	0x33df
 8683 2242 57220000 		.4byte	0x2257
 8684 2246 2E       		.uleb128 0x2e
 8685 2247 01       		.byte	0x1
 8686 2248 50       		.byte	0x50
 8687 2249 02       		.byte	0x2
 8688 224a 91       		.byte	0x91
ARM GAS  C:\Users\EBANO_~1\AppData\Local\Temp\ccJkfoGk.s 			page 182


 8689 224b 48       		.sleb128 -56
 8690 224c 2E       		.uleb128 0x2e
 8691 224d 01       		.byte	0x1
 8692 224e 51       		.byte	0x51
 8693 224f 01       		.byte	0x1
 8694 2250 30       		.byte	0x30
 8695 2251 2E       		.uleb128 0x2e
 8696 2252 01       		.byte	0x1
 8697 2253 52       		.byte	0x52
 8698 2254 01       		.byte	0x1
 8699 2255 40       		.byte	0x40
 8700 2256 00       		.byte	0
 8701 2257 42       		.uleb128 0x42
 8702 2258 2C000000 		.4byte	.LVL265
 8703 225c F0330000 		.4byte	0x33f0
 8704 2260 75220000 		.4byte	0x2275
 8705 2264 2E       		.uleb128 0x2e
 8706 2265 01       		.byte	0x1
 8707 2266 50       		.byte	0x50
 8708 2267 02       		.byte	0x2
 8709 2268 75       		.byte	0x75
 8710 2269 00       		.sleb128 0
 8711 226a 2E       		.uleb128 0x2e
 8712 226b 01       		.byte	0x1
 8713 226c 51       		.byte	0x51
 8714 226d 01       		.byte	0x1
 8715 226e 30       		.byte	0x30
 8716 226f 2E       		.uleb128 0x2e
 8717 2270 01       		.byte	0x1
 8718 2271 52       		.byte	0x52
 8719 2272 01       		.byte	0x1
 8720 2273 31       		.byte	0x31
 8721 2274 00       		.byte	0
 8722 2275 3A       		.uleb128 0x3a
 8723 2276 48000000 		.4byte	.LVL266
 8724 227a FE330000 		.4byte	0x33fe
 8725 227e 42       		.uleb128 0x42
 8726 227f 5E000000 		.4byte	.LVL267
 8727 2283 0B340000 		.4byte	0x340b
 8728 2287 97220000 		.4byte	0x2297
 8729 228b 2E       		.uleb128 0x2e
 8730 228c 01       		.byte	0x1
 8731 228d 52       		.byte	0x52
 8732 228e 02       		.byte	0x2
 8733 228f 75       		.byte	0x75
 8734 2290 00       		.sleb128 0
 8735 2291 2E       		.uleb128 0x2e
 8736 2292 01       		.byte	0x1
 8737 2293 53       		.byte	0x53
 8738 2294 01       		.byte	0x1
 8739 2295 35       		.byte	0x35
 8740 2296 00       		.byte	0
 8741 2297 3A       		.uleb128 0x3a
 8742 2298 1E010000 		.4byte	.LVL286
 8743 229c FE330000 		.4byte	0x33fe
 8744 22a0 2D       		.uleb128 0x2d
 8745 22a1 AE010000 		.4byte	.LVL301
ARM GAS  C:\Users\EBANO_~1\AppData\Local\Temp\ccJkfoGk.s 			page 183


 8746 22a5 19340000 		.4byte	0x3419
 8747 22a9 2E       		.uleb128 0x2e
 8748 22aa 01       		.byte	0x1
 8749 22ab 50       		.byte	0x50
 8750 22ac 01       		.byte	0x1
 8751 22ad 30       		.byte	0x30
 8752 22ae 2E       		.uleb128 0x2e
 8753 22af 01       		.byte	0x1
 8754 22b0 51       		.byte	0x51
 8755 22b1 02       		.byte	0x2
 8756 22b2 78       		.byte	0x78
 8757 22b3 7F       		.sleb128 -1
 8758 22b4 00       		.byte	0
 8759 22b5 00       		.byte	0
 8760 22b6 0A       		.uleb128 0xa
 8761 22b7 04       		.byte	0x4
 8762 22b8 591A0000 		.4byte	0x1a59
 8763 22bc 0A       		.uleb128 0xa
 8764 22bd 04       		.byte	0x4
 8765 22be 970A0000 		.4byte	0xa97
 8766 22c2 07       		.uleb128 0x7
 8767 22c3 BC000000 		.4byte	0xbc
 8768 22c7 D2220000 		.4byte	0x22d2
 8769 22cb 08       		.uleb128 0x8
 8770 22cc AA000000 		.4byte	0xaa
 8771 22d0 0F       		.byte	0xf
 8772 22d1 00       		.byte	0
 8773 22d2 2B       		.uleb128 0x2b
 8774 22d3 01       		.byte	0x1
 8775 22d4 75130000 		.4byte	.LASF468
 8776 22d8 01       		.byte	0x1
 8777 22d9 6603     		.2byte	0x366
 8778 22db 01       		.byte	0x1
 8779 22dc 00000000 		.4byte	.LFB60
 8780 22e0 34000000 		.4byte	.LFE60
 8781 22e4 4E060000 		.4byte	.LLST88
 8782 22e8 01       		.byte	0x1
 8783 22e9 1D230000 		.4byte	0x231d
 8784 22ed 2C       		.uleb128 0x2c
 8785 22ee 690C0000 		.4byte	.LASF469
 8786 22f2 01       		.byte	0x1
 8787 22f3 6603     		.2byte	0x366
 8788 22f5 1D230000 		.4byte	0x231d
 8789 22f9 7A060000 		.4byte	.LLST89
 8790 22fd 29       		.uleb128 0x29
 8791 22fe F81E0000 		.4byte	.LASF470
 8792 2302 01       		.byte	0x1
 8793 2303 6803     		.2byte	0x368
 8794 2305 5A1D0000 		.4byte	0x1d5a
 8795 2309 02       		.byte	0x2
 8796 230a 91       		.byte	0x91
 8797 230b 64       		.sleb128 -28
 8798 230c 2D       		.uleb128 0x2d
 8799 230d 2C000000 		.4byte	.LVL259
 8800 2311 26340000 		.4byte	0x3426
 8801 2315 2E       		.uleb128 0x2e
 8802 2316 01       		.byte	0x1
ARM GAS  C:\Users\EBANO_~1\AppData\Local\Temp\ccJkfoGk.s 			page 184


 8803 2317 50       		.byte	0x50
 8804 2318 02       		.byte	0x2
 8805 2319 91       		.byte	0x91
 8806 231a 64       		.sleb128 -28
 8807 231b 00       		.byte	0
 8808 231c 00       		.byte	0
 8809 231d 0A       		.uleb128 0xa
 8810 231e 04       		.byte	0x4
 8811 231f F4190000 		.4byte	0x19f4
 8812 2323 2F       		.uleb128 0x2f
 8813 2324 01       		.byte	0x1
 8814 2325 A7170000 		.4byte	.LASF471
 8815 2329 01       		.byte	0x1
 8816 232a 6103     		.2byte	0x361
 8817 232c 01       		.byte	0x1
 8818 232d B1000000 		.4byte	0xb1
 8819 2331 00000000 		.4byte	.LFB59
 8820 2335 02000000 		.4byte	.LFE59
 8821 2339 02       		.byte	0x2
 8822 233a 7D       		.byte	0x7d
 8823 233b 00       		.sleb128 0
 8824 233c 01       		.byte	0x1
 8825 233d 5E230000 		.4byte	0x235e
 8826 2341 31       		.uleb128 0x31
 8827 2342 23130000 		.4byte	.LASF472
 8828 2346 01       		.byte	0x1
 8829 2347 6103     		.2byte	0x361
 8830 2349 B1000000 		.4byte	0xb1
 8831 234d 01       		.byte	0x1
 8832 234e 50       		.byte	0x50
 8833 234f 31       		.uleb128 0x31
 8834 2350 22050000 		.4byte	.LASF473
 8835 2354 01       		.byte	0x1
 8836 2355 6103     		.2byte	0x361
 8837 2357 80190000 		.4byte	0x1980
 8838 235b 01       		.byte	0x1
 8839 235c 51       		.byte	0x51
 8840 235d 00       		.byte	0
 8841 235e 3F       		.uleb128 0x3f
 8842 235f 01       		.byte	0x1
 8843 2360 E1010000 		.4byte	.LASF474
 8844 2364 01       		.byte	0x1
 8845 2365 4703     		.2byte	0x347
 8846 2367 01       		.byte	0x1
 8847 2368 BC000000 		.4byte	0xbc
 8848 236c 00000000 		.4byte	.LFB58
 8849 2370 9C000000 		.4byte	.LFE58
 8850 2374 9B060000 		.4byte	.LLST81
 8851 2378 01       		.byte	0x1
 8852 2379 04240000 		.4byte	0x2404
 8853 237d 2C       		.uleb128 0x2c
 8854 237e 4A110000 		.4byte	.LASF475
 8855 2382 01       		.byte	0x1
 8856 2383 4703     		.2byte	0x347
 8857 2385 04240000 		.4byte	0x2404
 8858 2389 C7060000 		.4byte	.LLST82
 8859 238d 33       		.uleb128 0x33
ARM GAS  C:\Users\EBANO_~1\AppData\Local\Temp\ccJkfoGk.s 			page 185


 8860 238e E3110000 		.4byte	.LASF476
 8861 2392 01       		.byte	0x1
 8862 2393 4903     		.2byte	0x349
 8863 2395 BC000000 		.4byte	0xbc
 8864 2399 F3060000 		.4byte	.LLST83
 8865 239d 33       		.uleb128 0x33
 8866 239e EE170000 		.4byte	.LASF455
 8867 23a2 01       		.byte	0x1
 8868 23a3 4A03     		.2byte	0x34a
 8869 23a5 BC000000 		.4byte	0xbc
 8870 23a9 13070000 		.4byte	.LLST84
 8871 23ad 43       		.uleb128 0x43
 8872 23ae 2A310000 		.4byte	0x312a
 8873 23b2 02000000 		.4byte	.LBB145
 8874 23b6 18020000 		.4byte	.Ldebug_ranges0+0x218
 8875 23ba 01       		.byte	0x1
 8876 23bb 4D03     		.2byte	0x34d
 8877 23bd 36       		.uleb128 0x36
 8878 23be 46310000 		.4byte	0x3146
 8879 23c2 06       		.byte	0x6
 8880 23c3 F2       		.byte	0xf2
 8881 23c4 9D230000 		.4byte	.Ldebug_info0+9117
 8882 23c8 00       		.sleb128 0
 8883 23c9 35       		.uleb128 0x35
 8884 23ca 3B310000 		.4byte	0x313b
 8885 23ce 27070000 		.4byte	.LLST85
 8886 23d2 44       		.uleb128 0x44
 8887 23d3 2A310000 		.4byte	0x312a
 8888 23d7 2A000000 		.4byte	.LBB147
 8889 23db 40000000 		.4byte	.LBE147
 8890 23df F6230000 		.4byte	0x23f6
 8891 23e3 35       		.uleb128 0x35
 8892 23e4 46310000 		.4byte	0x3146
 8893 23e8 4B070000 		.4byte	.LLST86
 8894 23ec 35       		.uleb128 0x35
 8895 23ed 3B310000 		.4byte	0x313b
 8896 23f1 63070000 		.4byte	.LLST87
 8897 23f5 00       		.byte	0
 8898 23f6 3B       		.uleb128 0x3b
 8899 23f7 12000000 		.4byte	.LVL249
 8900 23fb 2E       		.uleb128 0x2e
 8901 23fc 01       		.byte	0x1
 8902 23fd 50       		.byte	0x50
 8903 23fe 02       		.byte	0x2
 8904 23ff 75       		.byte	0x75
 8905 2400 00       		.sleb128 0
 8906 2401 00       		.byte	0
 8907 2402 00       		.byte	0
 8908 2403 00       		.byte	0
 8909 2404 0A       		.uleb128 0xa
 8910 2405 04       		.byte	0x4
 8911 2406 55190000 		.4byte	0x1955
 8912 240a 2F       		.uleb128 0x2f
 8913 240b 01       		.byte	0x1
 8914 240c 00000000 		.4byte	.LASF477
 8915 2410 01       		.byte	0x1
 8916 2411 4203     		.2byte	0x342
ARM GAS  C:\Users\EBANO_~1\AppData\Local\Temp\ccJkfoGk.s 			page 186


 8917 2413 01       		.byte	0x1
 8918 2414 B1000000 		.4byte	0xb1
 8919 2418 00000000 		.4byte	.LFB57
 8920 241c 06000000 		.4byte	.LFE57
 8921 2420 02       		.byte	0x2
 8922 2421 7D       		.byte	0x7d
 8923 2422 00       		.sleb128 0
 8924 2423 01       		.byte	0x1
 8925 2424 39240000 		.4byte	0x2439
 8926 2428 2C       		.uleb128 0x2c
 8927 2429 ED1C0000 		.4byte	.LASF478
 8928 242d 01       		.byte	0x1
 8929 242e 4203     		.2byte	0x342
 8930 2430 39240000 		.4byte	0x2439
 8931 2434 87070000 		.4byte	.LLST80
 8932 2438 00       		.byte	0
 8933 2439 0A       		.uleb128 0xa
 8934 243a 04       		.byte	0x4
 8935 243b 1D190000 		.4byte	0x191d
 8936 243f 3F       		.uleb128 0x3f
 8937 2440 01       		.byte	0x1
 8938 2441 6C200000 		.4byte	.LASF479
 8939 2445 01       		.byte	0x1
 8940 2446 0D03     		.2byte	0x30d
 8941 2448 01       		.byte	0x1
 8942 2449 BC000000 		.4byte	0xbc
 8943 244d 00000000 		.4byte	.LFB56
 8944 2451 90010000 		.4byte	.LFE56
 8945 2455 A8070000 		.4byte	.LLST67
 8946 2459 01       		.byte	0x1
 8947 245a F4250000 		.4byte	0x25f4
 8948 245e 2C       		.uleb128 0x2c
 8949 245f A9020000 		.4byte	.LASF480
 8950 2463 01       		.byte	0x1
 8951 2464 0D03     		.2byte	0x30d
 8952 2466 F4250000 		.4byte	0x25f4
 8953 246a E0070000 		.4byte	.LLST68
 8954 246e 45       		.uleb128 0x45
 8955 246f E3110000 		.4byte	.LASF476
 8956 2473 01       		.byte	0x1
 8957 2474 0F03     		.2byte	0x30f
 8958 2476 BC000000 		.4byte	0xbc
 8959 247a 03       		.byte	0x3
 8960 247b 32       		.uleb128 0x32
 8961 247c F6120000 		.4byte	.LASF454
 8962 2480 01       		.byte	0x1
 8963 2481 1003     		.2byte	0x310
 8964 2483 911A0000 		.4byte	0x1a91
 8965 2487 32       		.uleb128 0x32
 8966 2488 BE1F0000 		.4byte	.LASF453
 8967 248c 01       		.byte	0x1
 8968 248d 1103     		.2byte	0x311
 8969 248f BA1A0000 		.4byte	0x1aba
 8970 2493 34       		.uleb128 0x34
 8971 2494 50200000 		.4byte	0x2050
 8972 2498 12000000 		.4byte	.LBB109
 8973 249c 78010000 		.4byte	.Ldebug_ranges0+0x178
ARM GAS  C:\Users\EBANO_~1\AppData\Local\Temp\ccJkfoGk.s 			page 187


 8974 24a0 01       		.byte	0x1
 8975 24a1 1803     		.2byte	0x318
 8976 24a3 04250000 		.4byte	0x2504
 8977 24a7 35       		.uleb128 0x35
 8978 24a8 63200000 		.4byte	0x2063
 8979 24ac 33080000 		.4byte	.LLST69
 8980 24b0 38       		.uleb128 0x38
 8981 24b1 78010000 		.4byte	.Ldebug_ranges0+0x178
 8982 24b5 40       		.uleb128 0x40
 8983 24b6 6F200000 		.4byte	0x206f
 8984 24ba 5B080000 		.4byte	.LLST70
 8985 24be 42       		.uleb128 0x42
 8986 24bf A6000000 		.4byte	.LVL228
 8987 24c3 DF330000 		.4byte	0x33df
 8988 24c7 E6240000 		.4byte	0x24e6
 8989 24cb 2E       		.uleb128 0x2e
 8990 24cc 01       		.byte	0x1
 8991 24cd 50       		.byte	0x50
 8992 24ce 0C       		.byte	0xc
 8993 24cf 75       		.byte	0x75
 8994 24d0 00       		.sleb128 0
 8995 24d1 31       		.byte	0x31
 8996 24d2 24       		.byte	0x24
 8997 24d3 75       		.byte	0x75
 8998 24d4 00       		.sleb128 0
 8999 24d5 22       		.byte	0x22
 9000 24d6 32       		.byte	0x32
 9001 24d7 24       		.byte	0x24
 9002 24d8 74       		.byte	0x74
 9003 24d9 00       		.sleb128 0
 9004 24da 22       		.byte	0x22
 9005 24db 2E       		.uleb128 0x2e
 9006 24dc 01       		.byte	0x1
 9007 24dd 51       		.byte	0x51
 9008 24de 01       		.byte	0x1
 9009 24df 30       		.byte	0x30
 9010 24e0 2E       		.uleb128 0x2e
 9011 24e1 01       		.byte	0x1
 9012 24e2 52       		.byte	0x52
 9013 24e3 01       		.byte	0x1
 9014 24e4 3C       		.byte	0x3c
 9015 24e5 00       		.byte	0
 9016 24e6 2D       		.uleb128 0x2d
 9017 24e7 B4000000 		.4byte	.LVL229
 9018 24eb 34340000 		.4byte	0x3434
 9019 24ef 2E       		.uleb128 0x2e
 9020 24f0 01       		.byte	0x1
 9021 24f1 50       		.byte	0x50
 9022 24f2 03       		.byte	0x3
 9023 24f3 74       		.byte	0x74
 9024 24f4 9002     		.sleb128 272
 9025 24f6 2E       		.uleb128 0x2e
 9026 24f7 01       		.byte	0x1
 9027 24f8 51       		.byte	0x51
 9028 24f9 02       		.byte	0x2
 9029 24fa 75       		.byte	0x75
 9030 24fb 00       		.sleb128 0
ARM GAS  C:\Users\EBANO_~1\AppData\Local\Temp\ccJkfoGk.s 			page 188


 9031 24fc 2E       		.uleb128 0x2e
 9032 24fd 01       		.byte	0x1
 9033 24fe 52       		.byte	0x52
 9034 24ff 01       		.byte	0x1
 9035 2500 40       		.byte	0x40
 9036 2501 00       		.byte	0
 9037 2502 00       		.byte	0
 9038 2503 00       		.byte	0
 9039 2504 43       		.uleb128 0x43
 9040 2505 81200000 		.4byte	0x2081
 9041 2509 20000000 		.4byte	.LBB112
 9042 250d 90010000 		.4byte	.Ldebug_ranges0+0x190
 9043 2511 01       		.byte	0x1
 9044 2512 2203     		.2byte	0x322
 9045 2514 35       		.uleb128 0x35
 9046 2515 94200000 		.4byte	0x2094
 9047 2519 8A080000 		.4byte	.LLST71
 9048 251d 38       		.uleb128 0x38
 9049 251e 90010000 		.4byte	.Ldebug_ranges0+0x190
 9050 2522 40       		.uleb128 0x40
 9051 2523 A0200000 		.4byte	0x20a0
 9052 2527 C2080000 		.4byte	.LLST72
 9053 252b 40       		.uleb128 0x40
 9054 252c AC200000 		.4byte	0x20ac
 9055 2530 EE080000 		.4byte	.LLST73
 9056 2534 40       		.uleb128 0x40
 9057 2535 B8200000 		.4byte	0x20b8
 9058 2539 35090000 		.4byte	.LLST74
 9059 253d 40       		.uleb128 0x40
 9060 253e C4200000 		.4byte	0x20c4
 9061 2542 6D090000 		.4byte	.LLST75
 9062 2546 34       		.uleb128 0x34
 9063 2547 2A310000 		.4byte	0x312a
 9064 254b 56000000 		.4byte	.LBB114
 9065 254f C8010000 		.4byte	.Ldebug_ranges0+0x1c8
 9066 2553 01       		.byte	0x1
 9067 2554 CE03     		.2byte	0x3ce
 9068 2556 A6250000 		.4byte	0x25a6
 9069 255a 35       		.uleb128 0x35
 9070 255b 46310000 		.4byte	0x3146
 9071 255f 90090000 		.4byte	.LLST76
 9072 2563 35       		.uleb128 0x35
 9073 2564 3B310000 		.4byte	0x313b
 9074 2568 C8090000 		.4byte	.LLST77
 9075 256c 46       		.uleb128 0x46
 9076 256d 2A310000 		.4byte	0x312a
 9077 2571 00020000 		.4byte	.Ldebug_ranges0+0x200
 9078 2575 8C250000 		.4byte	0x258c
 9079 2579 35       		.uleb128 0x35
 9080 257a 46310000 		.4byte	0x3146
 9081 257e FD090000 		.4byte	.LLST78
 9082 2582 35       		.uleb128 0x35
 9083 2583 3B310000 		.4byte	0x313b
 9084 2587 250A0000 		.4byte	.LLST79
 9085 258b 00       		.byte	0
 9086 258c 47       		.uleb128 0x47
 9087 258d 6C000000 		.4byte	.LVL225
ARM GAS  C:\Users\EBANO_~1\AppData\Local\Temp\ccJkfoGk.s 			page 189


 9088 2591 9C250000 		.4byte	0x259c
 9089 2595 2E       		.uleb128 0x2e
 9090 2596 01       		.byte	0x1
 9091 2597 50       		.byte	0x50
 9092 2598 02       		.byte	0x2
 9093 2599 76       		.byte	0x76
 9094 259a 00       		.sleb128 0
 9095 259b 00       		.byte	0
 9096 259c 48       		.uleb128 0x48
 9097 259d C2000000 		.4byte	.LVL232
 9098 25a1 03       		.byte	0x3
 9099 25a2 91       		.byte	0x91
 9100 25a3 64       		.sleb128 -28
 9101 25a4 06       		.byte	0x6
 9102 25a5 00       		.byte	0
 9103 25a6 42       		.uleb128 0x42
 9104 25a7 34000000 		.4byte	.LVL219
 9105 25ab D2330000 		.4byte	0x33d2
 9106 25af BE250000 		.4byte	0x25be
 9107 25b3 2E       		.uleb128 0x2e
 9108 25b4 01       		.byte	0x1
 9109 25b5 51       		.byte	0x51
 9110 25b6 01       		.byte	0x1
 9111 25b7 30       		.byte	0x30
 9112 25b8 2E       		.uleb128 0x2e
 9113 25b9 01       		.byte	0x1
 9114 25ba 52       		.byte	0x52
 9115 25bb 01       		.byte	0x1
 9116 25bc 37       		.byte	0x37
 9117 25bd 00       		.byte	0
 9118 25be 42       		.uleb128 0x42
 9119 25bf 44000000 		.4byte	.LVL221
 9120 25c3 D2330000 		.4byte	0x33d2
 9121 25c7 D6250000 		.4byte	0x25d6
 9122 25cb 2E       		.uleb128 0x2e
 9123 25cc 01       		.byte	0x1
 9124 25cd 51       		.byte	0x51
 9125 25ce 01       		.byte	0x1
 9126 25cf 30       		.byte	0x30
 9127 25d0 2E       		.uleb128 0x2e
 9128 25d1 01       		.byte	0x1
 9129 25d2 52       		.byte	0x52
 9130 25d3 01       		.byte	0x1
 9131 25d4 37       		.byte	0x37
 9132 25d5 00       		.byte	0
 9133 25d6 2D       		.uleb128 0x2d
 9134 25d7 22010000 		.4byte	.LVL237
 9135 25db 42340000 		.4byte	0x3442
 9136 25df 2E       		.uleb128 0x2e
 9137 25e0 01       		.byte	0x1
 9138 25e1 50       		.byte	0x50
 9139 25e2 02       		.byte	0x2
 9140 25e3 76       		.byte	0x76
 9141 25e4 00       		.sleb128 0
 9142 25e5 2E       		.uleb128 0x2e
 9143 25e6 01       		.byte	0x1
 9144 25e7 51       		.byte	0x51
ARM GAS  C:\Users\EBANO_~1\AppData\Local\Temp\ccJkfoGk.s 			page 190


 9145 25e8 02       		.byte	0x2
 9146 25e9 74       		.byte	0x74
 9147 25ea 00       		.sleb128 0
 9148 25eb 2E       		.uleb128 0x2e
 9149 25ec 01       		.byte	0x1
 9150 25ed 52       		.byte	0x52
 9151 25ee 01       		.byte	0x1
 9152 25ef 3C       		.byte	0x3c
 9153 25f0 00       		.byte	0
 9154 25f1 00       		.byte	0
 9155 25f2 00       		.byte	0
 9156 25f3 00       		.byte	0
 9157 25f4 0A       		.uleb128 0xa
 9158 25f5 04       		.byte	0x4
 9159 25f6 D6180000 		.4byte	0x18d6
 9160 25fa 3F       		.uleb128 0x3f
 9161 25fb 01       		.byte	0x1
 9162 25fc 8B1D0000 		.4byte	.LASF481
 9163 2600 01       		.byte	0x1
 9164 2601 F302     		.2byte	0x2f3
 9165 2603 01       		.byte	0x1
 9166 2604 BC000000 		.4byte	0xbc
 9167 2608 00000000 		.4byte	.LFB55
 9168 260c 9C000000 		.4byte	.LFE55
 9169 2610 540A0000 		.4byte	.LLST60
 9170 2614 01       		.byte	0x1
 9171 2615 CC260000 		.4byte	0x26cc
 9172 2619 2C       		.uleb128 0x2c
 9173 261a E9020000 		.4byte	.LASF482
 9174 261e 01       		.byte	0x1
 9175 261f F302     		.2byte	0x2f3
 9176 2621 CC260000 		.4byte	0x26cc
 9177 2625 800A0000 		.4byte	.LLST61
 9178 2629 33       		.uleb128 0x33
 9179 262a E3110000 		.4byte	.LASF476
 9180 262e 01       		.byte	0x1
 9181 262f F502     		.2byte	0x2f5
 9182 2631 BC000000 		.4byte	0xbc
 9183 2635 B70A0000 		.4byte	.LLST62
 9184 2639 33       		.uleb128 0x33
 9185 263a EE170000 		.4byte	.LASF455
 9186 263e 01       		.byte	0x1
 9187 263f F602     		.2byte	0x2f6
 9188 2641 BC000000 		.4byte	0xbc
 9189 2645 ED0A0000 		.4byte	.LLST63
 9190 2649 34       		.uleb128 0x34
 9191 264a 2A310000 		.4byte	0x312a
 9192 264e 02000000 		.4byte	.LBB89
 9193 2652 38010000 		.4byte	.Ldebug_ranges0+0x138
 9194 2656 01       		.byte	0x1
 9195 2657 F902     		.2byte	0x2f9
 9196 2659 9F260000 		.4byte	0x269f
 9197 265d 36       		.uleb128 0x36
 9198 265e 46310000 		.4byte	0x3146
 9199 2662 06       		.byte	0x6
 9200 2663 F2       		.byte	0xf2
 9201 2664 39260000 		.4byte	.Ldebug_info0+9785
ARM GAS  C:\Users\EBANO_~1\AppData\Local\Temp\ccJkfoGk.s 			page 191


 9202 2668 00       		.sleb128 0
 9203 2669 35       		.uleb128 0x35
 9204 266a 3B310000 		.4byte	0x313b
 9205 266e 0D0B0000 		.4byte	.LLST64
 9206 2672 46       		.uleb128 0x46
 9207 2673 2A310000 		.4byte	0x312a
 9208 2677 60010000 		.4byte	.Ldebug_ranges0+0x160
 9209 267b 92260000 		.4byte	0x2692
 9210 267f 35       		.uleb128 0x35
 9211 2680 46310000 		.4byte	0x3146
 9212 2684 310B0000 		.4byte	.LLST65
 9213 2688 35       		.uleb128 0x35
 9214 2689 3B310000 		.4byte	0x313b
 9215 268d 490B0000 		.4byte	.LLST66
 9216 2691 00       		.byte	0
 9217 2692 3B       		.uleb128 0x3b
 9218 2693 12000000 		.4byte	.LVL202
 9219 2697 2E       		.uleb128 0x2e
 9220 2698 01       		.byte	0x1
 9221 2699 50       		.byte	0x50
 9222 269a 02       		.byte	0x2
 9223 269b 75       		.byte	0x75
 9224 269c 00       		.sleb128 0
 9225 269d 00       		.byte	0
 9226 269e 00       		.byte	0
 9227 269f 42       		.uleb128 0x42
 9228 26a0 50000000 		.4byte	.LVL207
 9229 26a4 D2330000 		.4byte	0x33d2
 9230 26a8 B7260000 		.4byte	0x26b7
 9231 26ac 2E       		.uleb128 0x2e
 9232 26ad 01       		.byte	0x1
 9233 26ae 51       		.byte	0x51
 9234 26af 01       		.byte	0x1
 9235 26b0 30       		.byte	0x30
 9236 26b1 2E       		.uleb128 0x2e
 9237 26b2 01       		.byte	0x1
 9238 26b3 52       		.byte	0x52
 9239 26b4 01       		.byte	0x1
 9240 26b5 37       		.byte	0x37
 9241 26b6 00       		.byte	0
 9242 26b7 2D       		.uleb128 0x2d
 9243 26b8 62000000 		.4byte	.LVL209
 9244 26bc D2330000 		.4byte	0x33d2
 9245 26c0 2E       		.uleb128 0x2e
 9246 26c1 01       		.byte	0x1
 9247 26c2 51       		.byte	0x51
 9248 26c3 01       		.byte	0x1
 9249 26c4 30       		.byte	0x30
 9250 26c5 2E       		.uleb128 0x2e
 9251 26c6 01       		.byte	0x1
 9252 26c7 52       		.byte	0x52
 9253 26c8 01       		.byte	0x1
 9254 26c9 35       		.byte	0x35
 9255 26ca 00       		.byte	0
 9256 26cb 00       		.byte	0
 9257 26cc 0A       		.uleb128 0xa
 9258 26cd 04       		.byte	0x4
ARM GAS  C:\Users\EBANO_~1\AppData\Local\Temp\ccJkfoGk.s 			page 192


 9259 26ce 9E180000 		.4byte	0x189e
 9260 26d2 3F       		.uleb128 0x3f
 9261 26d3 01       		.byte	0x1
 9262 26d4 5C210000 		.4byte	.LASF483
 9263 26d8 01       		.byte	0x1
 9264 26d9 8A02     		.2byte	0x28a
 9265 26db 01       		.byte	0x1
 9266 26dc BC000000 		.4byte	0xbc
 9267 26e0 00000000 		.4byte	.LFB54
 9268 26e4 00030000 		.4byte	.LFE54
 9269 26e8 6D0B0000 		.4byte	.LLST51
 9270 26ec 01       		.byte	0x1
 9271 26ed 29280000 		.4byte	0x2829
 9272 26f1 2C       		.uleb128 0x2c
 9273 26f2 68100000 		.4byte	.LASF484
 9274 26f6 01       		.byte	0x1
 9275 26f7 8A02     		.2byte	0x28a
 9276 26f9 29280000 		.4byte	0x2829
 9277 26fd A60B0000 		.4byte	.LLST52
 9278 2701 2C       		.uleb128 0x2c
 9279 2702 B1180000 		.4byte	.LASF485
 9280 2706 01       		.byte	0x1
 9281 2707 8A02     		.2byte	0x28a
 9282 2709 2F280000 		.4byte	0x282f
 9283 270d F60B0000 		.4byte	.LLST53
 9284 2711 2C       		.uleb128 0x2c
 9285 2712 22170000 		.4byte	.LASF486
 9286 2716 01       		.byte	0x1
 9287 2717 8A02     		.2byte	0x28a
 9288 2719 2F280000 		.4byte	0x282f
 9289 271d 2D0C0000 		.4byte	.LLST54
 9290 2721 2C       		.uleb128 0x2c
 9291 2722 EB0F0000 		.4byte	.LASF487
 9292 2726 01       		.byte	0x1
 9293 2727 8A02     		.2byte	0x28a
 9294 2729 840A0000 		.4byte	0xa84
 9295 272d 640C0000 		.4byte	.LLST55
 9296 2731 31       		.uleb128 0x31
 9297 2732 220E0000 		.4byte	.LASF488
 9298 2736 01       		.byte	0x1
 9299 2737 8A02     		.2byte	0x28a
 9300 2739 840A0000 		.4byte	0xa84
 9301 273d 02       		.byte	0x2
 9302 273e 91       		.byte	0x91
 9303 273f 00       		.sleb128 0
 9304 2740 33       		.uleb128 0x33
 9305 2741 E3110000 		.4byte	.LASF476
 9306 2745 01       		.byte	0x1
 9307 2746 8C02     		.2byte	0x28c
 9308 2748 BC000000 		.4byte	0xbc
 9309 274c 840C0000 		.4byte	.LLST56
 9310 2750 29       		.uleb128 0x29
 9311 2751 B41D0000 		.4byte	.LASF489
 9312 2755 01       		.byte	0x1
 9313 2756 8D02     		.2byte	0x28d
 9314 2758 D41B0000 		.4byte	0x1bd4
 9315 275c 03       		.byte	0x3
ARM GAS  C:\Users\EBANO_~1\AppData\Local\Temp\ccJkfoGk.s 			page 193


 9316 275d 91       		.byte	0x91
 9317 275e B07F     		.sleb128 -80
 9318 2760 33       		.uleb128 0x33
 9319 2761 AD090000 		.4byte	.LASF490
 9320 2765 01       		.byte	0x1
 9321 2766 8E02     		.2byte	0x28e
 9322 2768 BC000000 		.4byte	0xbc
 9323 276c E80C0000 		.4byte	.LLST57
 9324 2770 33       		.uleb128 0x33
 9325 2771 300C0000 		.4byte	.LASF491
 9326 2775 01       		.byte	0x1
 9327 2776 8F02     		.2byte	0x28f
 9328 2778 BC000000 		.4byte	0xbc
 9329 277c 070D0000 		.4byte	.LLST58
 9330 2780 29       		.uleb128 0x29
 9331 2781 330A0000 		.4byte	.LASF492
 9332 2785 01       		.byte	0x1
 9333 2786 9002     		.2byte	0x290
 9334 2788 D7000000 		.4byte	0xd7
 9335 278c 03       		.byte	0x3
 9336 278d 91       		.byte	0x91
 9337 278e AE7F     		.sleb128 -82
 9338 2790 32       		.uleb128 0x32
 9339 2791 61180000 		.4byte	.LASF493
 9340 2795 01       		.byte	0x1
 9341 2796 9102     		.2byte	0x291
 9342 2798 01150000 		.4byte	0x1501
 9343 279c 32       		.uleb128 0x32
 9344 279d 36040000 		.4byte	.LASF494
 9345 27a1 01       		.byte	0x1
 9346 27a2 9202     		.2byte	0x292
 9347 27a4 AB140000 		.4byte	0x14ab
 9348 27a8 29       		.uleb128 0x29
 9349 27a9 A61B0000 		.4byte	.LASF495
 9350 27ad 01       		.byte	0x1
 9351 27ae 9302     		.2byte	0x293
 9352 27b0 CC1C0000 		.4byte	0x1ccc
 9353 27b4 03       		.byte	0x3
 9354 27b5 91       		.byte	0x91
 9355 27b6 B87F     		.sleb128 -72
 9356 27b8 49       		.uleb128 0x49
 9357 27b9 10010000 		.4byte	.Ldebug_ranges0+0x110
 9358 27bd D0270000 		.4byte	0x27d0
 9359 27c1 4A       		.uleb128 0x4a
 9360 27c2 6900     		.ascii	"i\000"
 9361 27c4 01       		.byte	0x1
 9362 27c5 B302     		.2byte	0x2b3
 9363 27c7 BC000000 		.4byte	0xbc
 9364 27cb 480D0000 		.4byte	.LLST59
 9365 27cf 00       		.byte	0
 9366 27d0 42       		.uleb128 0x42
 9367 27d1 3A000000 		.4byte	.LVL146
 9368 27d5 4F340000 		.4byte	0x344f
 9369 27d9 E4270000 		.4byte	0x27e4
 9370 27dd 2E       		.uleb128 0x2e
 9371 27de 01       		.byte	0x1
 9372 27df 51       		.byte	0x51
ARM GAS  C:\Users\EBANO_~1\AppData\Local\Temp\ccJkfoGk.s 			page 194


 9373 27e0 02       		.byte	0x2
 9374 27e1 75       		.byte	0x75
 9375 27e2 00       		.sleb128 0
 9376 27e3 00       		.byte	0
 9377 27e4 42       		.uleb128 0x42
 9378 27e5 A6010000 		.4byte	.LVL168
 9379 27e9 5D340000 		.4byte	0x345d
 9380 27ed 0D280000 		.4byte	0x280d
 9381 27f1 2E       		.uleb128 0x2e
 9382 27f2 01       		.byte	0x1
 9383 27f3 50       		.byte	0x50
 9384 27f4 03       		.byte	0x3
 9385 27f5 91       		.byte	0x91
 9386 27f6 B87F     		.sleb128 -72
 9387 27f8 2E       		.uleb128 0x2e
 9388 27f9 01       		.byte	0x1
 9389 27fa 51       		.byte	0x51
 9390 27fb 03       		.byte	0x3
 9391 27fc 91       		.byte	0x91
 9392 27fd B17F     		.sleb128 -79
 9393 27ff 2E       		.uleb128 0x2e
 9394 2800 01       		.byte	0x1
 9395 2801 52       		.byte	0x52
 9396 2802 03       		.byte	0x3
 9397 2803 91       		.byte	0x91
 9398 2804 B27F     		.sleb128 -78
 9399 2806 2E       		.uleb128 0x2e
 9400 2807 01       		.byte	0x1
 9401 2808 53       		.byte	0x53
 9402 2809 02       		.byte	0x2
 9403 280a 75       		.byte	0x75
 9404 280b 00       		.sleb128 0
 9405 280c 00       		.byte	0
 9406 280d 2D       		.uleb128 0x2d
 9407 280e E0020000 		.4byte	.LVL196
 9408 2812 6B340000 		.4byte	0x346b
 9409 2816 2E       		.uleb128 0x2e
 9410 2817 01       		.byte	0x1
 9411 2818 50       		.byte	0x50
 9412 2819 03       		.byte	0x3
 9413 281a 77       		.byte	0x77
 9414 281b 9002     		.sleb128 272
 9415 281d 2E       		.uleb128 0x2e
 9416 281e 01       		.byte	0x1
 9417 281f 51       		.byte	0x51
 9418 2820 01       		.byte	0x1
 9419 2821 30       		.byte	0x30
 9420 2822 2E       		.uleb128 0x2e
 9421 2823 01       		.byte	0x1
 9422 2824 52       		.byte	0x52
 9423 2825 01       		.byte	0x1
 9424 2826 32       		.byte	0x32
 9425 2827 00       		.byte	0
 9426 2828 00       		.byte	0
 9427 2829 0A       		.uleb128 0xa
 9428 282a 04       		.byte	0x4
 9429 282b 57180000 		.4byte	0x1857
ARM GAS  C:\Users\EBANO_~1\AppData\Local\Temp\ccJkfoGk.s 			page 195


 9430 282f 0A       		.uleb128 0xa
 9431 2830 04       		.byte	0x4
 9432 2831 B1000000 		.4byte	0xb1
 9433 2835 3F       		.uleb128 0x3f
 9434 2836 01       		.byte	0x1
 9435 2837 EC080000 		.4byte	.LASF496
 9436 283b 01       		.byte	0x1
 9437 283c 6702     		.2byte	0x267
 9438 283e 01       		.byte	0x1
 9439 283f 150B0000 		.4byte	0xb15
 9440 2843 00000000 		.4byte	.LFB53
 9441 2847 3C010000 		.4byte	.LFE53
 9442 284b 000F0000 		.4byte	.LLST40
 9443 284f 01       		.byte	0x1
 9444 2850 1F2A0000 		.4byte	0x2a1f
 9445 2854 2C       		.uleb128 0x2c
 9446 2855 321B0000 		.4byte	.LASF497
 9447 2859 01       		.byte	0x1
 9448 285a 6702     		.2byte	0x267
 9449 285c 1F2A0000 		.4byte	0x2a1f
 9450 2860 390F0000 		.4byte	.LLST41
 9451 2864 2C       		.uleb128 0x2c
 9452 2865 60100000 		.4byte	.LASF498
 9453 2869 01       		.byte	0x1
 9454 286a 6702     		.2byte	0x267
 9455 286c 2F280000 		.4byte	0x282f
 9456 2870 700F0000 		.4byte	.LLST42
 9457 2874 2C       		.uleb128 0x2c
 9458 2875 E4120000 		.4byte	.LASF499
 9459 2879 01       		.byte	0x1
 9460 287a 6702     		.2byte	0x267
 9461 287c BC220000 		.4byte	0x22bc
 9462 2880 8F0F0000 		.4byte	.LLST43
 9463 2884 33       		.uleb128 0x33
 9464 2885 851D0000 		.4byte	.LASF500
 9465 2889 01       		.byte	0x1
 9466 288a 6902     		.2byte	0x269
 9467 288c D20B0000 		.4byte	0xbd2
 9468 2890 C60F0000 		.4byte	.LLST44
 9469 2894 33       		.uleb128 0x33
 9470 2895 88040000 		.4byte	.LASF501
 9471 2899 01       		.byte	0x1
 9472 289a 6A02     		.2byte	0x26a
 9473 289c B1000000 		.4byte	0xb1
 9474 28a0 F10F0000 		.4byte	.LLST45
 9475 28a4 32       		.uleb128 0x32
 9476 28a5 47130000 		.4byte	.LASF450
 9477 28a9 01       		.byte	0x1
 9478 28aa 6B02     		.2byte	0x26b
 9479 28ac B1000000 		.4byte	0xb1
 9480 28b0 32       		.uleb128 0x32
 9481 28b1 4B190000 		.4byte	.LASF502
 9482 28b5 01       		.byte	0x1
 9483 28b6 6C02     		.2byte	0x26c
 9484 28b8 ED000000 		.4byte	0xed
 9485 28bc 33       		.uleb128 0x33
 9486 28bd 0B060000 		.4byte	.LASF448
ARM GAS  C:\Users\EBANO_~1\AppData\Local\Temp\ccJkfoGk.s 			page 196


 9487 28c1 01       		.byte	0x1
 9488 28c2 6D02     		.2byte	0x26d
 9489 28c4 B1000000 		.4byte	0xb1
 9490 28c8 1B100000 		.4byte	.LLST46
 9491 28cc 34       		.uleb128 0x34
 9492 28cd 52310000 		.4byte	0x3152
 9493 28d1 28000000 		.4byte	.LBB60
 9494 28d5 C0000000 		.4byte	.Ldebug_ranges0+0xc0
 9495 28d9 01       		.byte	0x1
 9496 28da 6B02     		.2byte	0x26b
 9497 28dc 17290000 		.4byte	0x2917
 9498 28e0 35       		.uleb128 0x35
 9499 28e1 79310000 		.4byte	0x3179
 9500 28e5 45100000 		.4byte	.LLST47
 9501 28e9 36       		.uleb128 0x36
 9502 28ea 84310000 		.4byte	0x3184
 9503 28ee 06       		.byte	0x6
 9504 28ef 03       		.byte	0x3
 9505 28f0 10010000 		.4byte	NvmCtx+272
 9506 28f4 9F       		.byte	0x9f
 9507 28f5 35       		.uleb128 0x35
 9508 28f6 6E310000 		.4byte	0x316e
 9509 28fa 7F100000 		.4byte	.LLST48
 9510 28fe 35       		.uleb128 0x35
 9511 28ff 63310000 		.4byte	0x3163
 9512 2903 FA100000 		.4byte	.LLST49
 9513 2907 38       		.uleb128 0x38
 9514 2908 C0000000 		.4byte	.Ldebug_ranges0+0xc0
 9515 290c 40       		.uleb128 0x40
 9516 290d 8F310000 		.4byte	0x318f
 9517 2911 FA100000 		.4byte	.LLST49
 9518 2915 00       		.byte	0
 9519 2916 00       		.byte	0
 9520 2917 34       		.uleb128 0x34
 9521 2918 9B310000 		.4byte	0x319b
 9522 291c 4A000000 		.4byte	.LBB69
 9523 2920 F0000000 		.4byte	.Ldebug_ranges0+0xf0
 9524 2924 01       		.byte	0x1
 9525 2925 6C02     		.2byte	0x26c
 9526 2927 31290000 		.4byte	0x2931
 9527 292b 37       		.uleb128 0x37
 9528 292c AC310000 		.4byte	0x31ac
 9529 2930 00       		.byte	0
 9530 2931 42       		.uleb128 0x42
 9531 2932 6E000000 		.4byte	.LVL124
 9532 2936 C4330000 		.4byte	0x33c4
 9533 293a 45290000 		.4byte	0x2945
 9534 293e 2E       		.uleb128 0x2e
 9535 293f 01       		.byte	0x1
 9536 2940 50       		.byte	0x50
 9537 2941 02       		.byte	0x2
 9538 2942 79       		.byte	0x79
 9539 2943 00       		.sleb128 0
 9540 2944 00       		.byte	0
 9541 2945 48       		.uleb128 0x48
 9542 2946 82000000 		.4byte	.LVL126
 9543 294a 03       		.byte	0x3
ARM GAS  C:\Users\EBANO_~1\AppData\Local\Temp\ccJkfoGk.s 			page 197


 9544 294b 75       		.byte	0x75
 9545 294c 14       		.sleb128 20
 9546 294d 06       		.byte	0x6
 9547 294e 4B       		.uleb128 0x4b
 9548 294f B4000000 		.4byte	.LVL129
 9549 2953 02       		.byte	0x2
 9550 2954 76       		.byte	0x76
 9551 2955 00       		.sleb128 0
 9552 2956 A3290000 		.4byte	0x29a3
 9553 295a 2E       		.uleb128 0x2e
 9554 295b 01       		.byte	0x1
 9555 295c 50       		.byte	0x50
 9556 295d 01       		.byte	0x1
 9557 295e 31       		.byte	0x31
 9558 295f 2E       		.uleb128 0x2e
 9559 2960 01       		.byte	0x1
 9560 2961 51       		.byte	0x51
 9561 2962 02       		.byte	0x2
 9562 2963 7B       		.byte	0x7b
 9563 2964 00       		.sleb128 0
 9564 2965 2E       		.uleb128 0x2e
 9565 2966 01       		.byte	0x1
 9566 2967 52       		.byte	0x52
 9567 2968 01       		.byte	0x1
 9568 2969 30       		.byte	0x30
 9569 296a 2E       		.uleb128 0x2e
 9570 296b 01       		.byte	0x1
 9571 296c 53       		.byte	0x53
 9572 296d 02       		.byte	0x2
 9573 296e 7A       		.byte	0x7a
 9574 296f 00       		.sleb128 0
 9575 2970 2E       		.uleb128 0x2e
 9576 2971 02       		.byte	0x2
 9577 2972 7D       		.byte	0x7d
 9578 2973 04       		.sleb128 4
 9579 2974 01       		.byte	0x1
 9580 2975 31       		.byte	0x31
 9581 2976 2E       		.uleb128 0x2e
 9582 2977 02       		.byte	0x2
 9583 2978 7D       		.byte	0x7d
 9584 2979 08       		.sleb128 8
 9585 297a 01       		.byte	0x1
 9586 297b 38       		.byte	0x38
 9587 297c 2E       		.uleb128 0x2e
 9588 297d 02       		.byte	0x2
 9589 297e 7D       		.byte	0x7d
 9590 297f 0C       		.sleb128 12
 9591 2980 01       		.byte	0x1
 9592 2981 30       		.byte	0x30
 9593 2982 2E       		.uleb128 0x2e
 9594 2983 02       		.byte	0x2
 9595 2984 7D       		.byte	0x7d
 9596 2985 10       		.sleb128 16
 9597 2986 01       		.byte	0x1
 9598 2987 31       		.byte	0x31
 9599 2988 2E       		.uleb128 0x2e
 9600 2989 02       		.byte	0x2
ARM GAS  C:\Users\EBANO_~1\AppData\Local\Temp\ccJkfoGk.s 			page 198


 9601 298a 7D       		.byte	0x7d
 9602 298b 14       		.sleb128 20
 9603 298c 01       		.byte	0x1
 9604 298d 30       		.byte	0x30
 9605 298e 2E       		.uleb128 0x2e
 9606 298f 02       		.byte	0x2
 9607 2990 7D       		.byte	0x7d
 9608 2991 18       		.sleb128 24
 9609 2992 01       		.byte	0x1
 9610 2993 30       		.byte	0x30
 9611 2994 2E       		.uleb128 0x2e
 9612 2995 02       		.byte	0x2
 9613 2996 7D       		.byte	0x7d
 9614 2997 1C       		.sleb128 28
 9615 2998 01       		.byte	0x1
 9616 2999 30       		.byte	0x30
 9617 299a 2E       		.uleb128 0x2e
 9618 299b 02       		.byte	0x2
 9619 299c 7D       		.byte	0x7d
 9620 299d 20       		.sleb128 32
 9621 299e 03       		.byte	0x3
 9622 299f 0A       		.byte	0xa
 9623 29a0 B80B     		.2byte	0xbb8
 9624 29a2 00       		.byte	0
 9625 29a3 4B       		.uleb128 0x4b
 9626 29a4 C0000000 		.4byte	.LVL131
 9627 29a8 03       		.byte	0x3
 9628 29a9 91       		.byte	0x91
 9629 29aa 54       		.sleb128 -44
 9630 29ab 06       		.byte	0x6
 9631 29ac B7290000 		.4byte	0x29b7
 9632 29b0 2E       		.uleb128 0x2e
 9633 29b1 01       		.byte	0x1
 9634 29b2 50       		.byte	0x50
 9635 29b3 02       		.byte	0x2
 9636 29b4 76       		.byte	0x76
 9637 29b5 00       		.sleb128 0
 9638 29b6 00       		.byte	0
 9639 29b7 4B       		.uleb128 0x4b
 9640 29b8 CA000000 		.4byte	.LVL132
 9641 29bc 03       		.byte	0x3
 9642 29bd 91       		.byte	0x91
 9643 29be 54       		.sleb128 -44
 9644 29bf 06       		.byte	0x6
 9645 29c0 CB290000 		.4byte	0x29cb
 9646 29c4 2E       		.uleb128 0x2e
 9647 29c5 01       		.byte	0x1
 9648 29c6 50       		.byte	0x50
 9649 29c7 02       		.byte	0x2
 9650 29c8 76       		.byte	0x76
 9651 29c9 00       		.sleb128 0
 9652 29ca 00       		.byte	0
 9653 29cb 4C       		.uleb128 0x4c
 9654 29cc 1A010000 		.4byte	.LVL141
 9655 29d0 02       		.byte	0x2
 9656 29d1 76       		.byte	0x76
 9657 29d2 00       		.sleb128 0
ARM GAS  C:\Users\EBANO_~1\AppData\Local\Temp\ccJkfoGk.s 			page 199


 9658 29d3 2E       		.uleb128 0x2e
 9659 29d4 01       		.byte	0x1
 9660 29d5 50       		.byte	0x50
 9661 29d6 01       		.byte	0x1
 9662 29d7 30       		.byte	0x30
 9663 29d8 2E       		.uleb128 0x2e
 9664 29d9 01       		.byte	0x1
 9665 29da 51       		.byte	0x51
 9666 29db 02       		.byte	0x2
 9667 29dc 7B       		.byte	0x7b
 9668 29dd 00       		.sleb128 0
 9669 29de 2E       		.uleb128 0x2e
 9670 29df 01       		.byte	0x1
 9671 29e0 52       		.byte	0x52
 9672 29e1 03       		.byte	0x3
 9673 29e2 0A       		.byte	0xa
 9674 29e3 A861     		.2byte	0x61a8
 9675 29e5 2E       		.uleb128 0x2e
 9676 29e6 01       		.byte	0x1
 9677 29e7 53       		.byte	0x53
 9678 29e8 02       		.byte	0x2
 9679 29e9 7A       		.byte	0x7a
 9680 29ea 00       		.sleb128 0
 9681 29eb 2E       		.uleb128 0x2e
 9682 29ec 02       		.byte	0x2
 9683 29ed 7D       		.byte	0x7d
 9684 29ee 04       		.sleb128 4
 9685 29ef 01       		.byte	0x1
 9686 29f0 30       		.byte	0x30
 9687 29f1 2E       		.uleb128 0x2e
 9688 29f2 02       		.byte	0x2
 9689 29f3 7D       		.byte	0x7d
 9690 29f4 08       		.sleb128 8
 9691 29f5 01       		.byte	0x1
 9692 29f6 35       		.byte	0x35
 9693 29f7 2E       		.uleb128 0x2e
 9694 29f8 02       		.byte	0x2
 9695 29f9 7D       		.byte	0x7d
 9696 29fa 0C       		.sleb128 12
 9697 29fb 01       		.byte	0x1
 9698 29fc 30       		.byte	0x30
 9699 29fd 2E       		.uleb128 0x2e
 9700 29fe 02       		.byte	0x2
 9701 29ff 7D       		.byte	0x7d
 9702 2a00 10       		.sleb128 16
 9703 2a01 01       		.byte	0x1
 9704 2a02 31       		.byte	0x31
 9705 2a03 2E       		.uleb128 0x2e
 9706 2a04 02       		.byte	0x2
 9707 2a05 7D       		.byte	0x7d
 9708 2a06 14       		.sleb128 20
 9709 2a07 01       		.byte	0x1
 9710 2a08 30       		.byte	0x30
 9711 2a09 2E       		.uleb128 0x2e
 9712 2a0a 02       		.byte	0x2
 9713 2a0b 7D       		.byte	0x7d
 9714 2a0c 18       		.sleb128 24
ARM GAS  C:\Users\EBANO_~1\AppData\Local\Temp\ccJkfoGk.s 			page 200


 9715 2a0d 01       		.byte	0x1
 9716 2a0e 30       		.byte	0x30
 9717 2a0f 2E       		.uleb128 0x2e
 9718 2a10 02       		.byte	0x2
 9719 2a11 7D       		.byte	0x7d
 9720 2a12 1C       		.sleb128 28
 9721 2a13 01       		.byte	0x1
 9722 2a14 30       		.byte	0x30
 9723 2a15 2E       		.uleb128 0x2e
 9724 2a16 02       		.byte	0x2
 9725 2a17 7D       		.byte	0x7d
 9726 2a18 20       		.sleb128 32
 9727 2a19 03       		.byte	0x3
 9728 2a1a 0A       		.byte	0xa
 9729 2a1b B80B     		.2byte	0xbb8
 9730 2a1d 00       		.byte	0
 9731 2a1e 00       		.byte	0
 9732 2a1f 0A       		.uleb128 0xa
 9733 2a20 04       		.byte	0x4
 9734 2a21 C5170000 		.4byte	0x17c5
 9735 2a25 3F       		.uleb128 0x3f
 9736 2a26 01       		.byte	0x1
 9737 2a27 C2070000 		.4byte	.LASF503
 9738 2a2b 01       		.byte	0x1
 9739 2a2c 2E02     		.2byte	0x22e
 9740 2a2e 01       		.byte	0x1
 9741 2a2f 150B0000 		.4byte	0xb15
 9742 2a33 00000000 		.4byte	.LFB52
 9743 2a37 0C010000 		.4byte	.LFE52
 9744 2a3b 0E110000 		.4byte	.LLST32
 9745 2a3f 01       		.byte	0x1
 9746 2a40 842B0000 		.4byte	0x2b84
 9747 2a44 2C       		.uleb128 0x2c
 9748 2a45 AE190000 		.4byte	.LASF504
 9749 2a49 01       		.byte	0x1
 9750 2a4a 2E02     		.2byte	0x22e
 9751 2a4c 842B0000 		.4byte	0x2b84
 9752 2a50 47110000 		.4byte	.LLST33
 9753 2a54 2C       		.uleb128 0x2c
 9754 2a55 BE040000 		.4byte	.LASF444
 9755 2a59 01       		.byte	0x1
 9756 2a5a 2E02     		.2byte	0x22e
 9757 2a5c 2F280000 		.4byte	0x282f
 9758 2a60 7E110000 		.4byte	.LLST34
 9759 2a64 33       		.uleb128 0x33
 9760 2a65 851D0000 		.4byte	.LASF500
 9761 2a69 01       		.byte	0x1
 9762 2a6a 3002     		.2byte	0x230
 9763 2a6c D20B0000 		.4byte	0xbd2
 9764 2a70 B5110000 		.4byte	.LLST35
 9765 2a74 4A       		.uleb128 0x4a
 9766 2a75 647200   		.ascii	"dr\000"
 9767 2a78 01       		.byte	0x1
 9768 2a79 3102     		.2byte	0x231
 9769 2a7b B1000000 		.4byte	0xb1
 9770 2a7f EB110000 		.4byte	.LLST36
 9771 2a83 33       		.uleb128 0x33
ARM GAS  C:\Users\EBANO_~1\AppData\Local\Temp\ccJkfoGk.s 			page 201


 9772 2a84 6A130000 		.4byte	.LASF505
 9773 2a88 01       		.byte	0x1
 9774 2a89 3202     		.2byte	0x232
 9775 2a8b BC000000 		.4byte	0xbc
 9776 2a8f 09120000 		.4byte	.LLST37
 9777 2a93 33       		.uleb128 0x33
 9778 2a94 88040000 		.4byte	.LASF501
 9779 2a98 01       		.byte	0x1
 9780 2a99 3302     		.2byte	0x233
 9781 2a9b B1000000 		.4byte	0xb1
 9782 2a9f 4B120000 		.4byte	.LLST38
 9783 2aa3 33       		.uleb128 0x33
 9784 2aa4 03200000 		.4byte	.LASF449
 9785 2aa8 01       		.byte	0x1
 9786 2aa9 3402     		.2byte	0x234
 9787 2aab ED000000 		.4byte	0xed
 9788 2aaf 81120000 		.4byte	.LLST39
 9789 2ab3 48       		.uleb128 0x48
 9790 2ab4 20000000 		.4byte	.LVL93
 9791 2ab8 03       		.byte	0x3
 9792 2ab9 75       		.byte	0x75
 9793 2aba 0C       		.sleb128 12
 9794 2abb 06       		.byte	0x6
 9795 2abc 4B       		.uleb128 0x4b
 9796 2abd 54000000 		.4byte	.LVL97
 9797 2ac1 03       		.byte	0x3
 9798 2ac2 91       		.byte	0x91
 9799 2ac3 5C       		.sleb128 -36
 9800 2ac4 06       		.byte	0x6
 9801 2ac5 D02A0000 		.4byte	0x2ad0
 9802 2ac9 2E       		.uleb128 0x2e
 9803 2aca 01       		.byte	0x1
 9804 2acb 50       		.byte	0x50
 9805 2acc 02       		.byte	0x2
 9806 2acd 78       		.byte	0x78
 9807 2ace 00       		.sleb128 0
 9808 2acf 00       		.byte	0
 9809 2ad0 4B       		.uleb128 0x4b
 9810 2ad1 86000000 		.4byte	.LVL99
 9811 2ad5 02       		.byte	0x2
 9812 2ad6 77       		.byte	0x77
 9813 2ad7 00       		.sleb128 0
 9814 2ad8 1D2B0000 		.4byte	0x2b1d
 9815 2adc 2E       		.uleb128 0x2e
 9816 2add 01       		.byte	0x1
 9817 2ade 50       		.byte	0x50
 9818 2adf 01       		.byte	0x1
 9819 2ae0 31       		.byte	0x31
 9820 2ae1 2E       		.uleb128 0x2e
 9821 2ae2 01       		.byte	0x1
 9822 2ae3 52       		.byte	0x52
 9823 2ae4 02       		.byte	0x2
 9824 2ae5 79       		.byte	0x79
 9825 2ae6 00       		.sleb128 0
 9826 2ae7 2E       		.uleb128 0x2e
 9827 2ae8 01       		.byte	0x1
 9828 2ae9 53       		.byte	0x53
ARM GAS  C:\Users\EBANO_~1\AppData\Local\Temp\ccJkfoGk.s 			page 202


 9829 2aea 01       		.byte	0x1
 9830 2aeb 31       		.byte	0x31
 9831 2aec 2E       		.uleb128 0x2e
 9832 2aed 02       		.byte	0x2
 9833 2aee 7D       		.byte	0x7d
 9834 2aef 00       		.sleb128 0
 9835 2af0 01       		.byte	0x1
 9836 2af1 30       		.byte	0x30
 9837 2af2 2E       		.uleb128 0x2e
 9838 2af3 02       		.byte	0x2
 9839 2af4 7D       		.byte	0x7d
 9840 2af5 04       		.sleb128 4
 9841 2af6 01       		.byte	0x1
 9842 2af7 38       		.byte	0x38
 9843 2af8 2E       		.uleb128 0x2e
 9844 2af9 02       		.byte	0x2
 9845 2afa 7D       		.byte	0x7d
 9846 2afb 0C       		.sleb128 12
 9847 2afc 01       		.byte	0x1
 9848 2afd 30       		.byte	0x30
 9849 2afe 2E       		.uleb128 0x2e
 9850 2aff 02       		.byte	0x2
 9851 2b00 7D       		.byte	0x7d
 9852 2b01 10       		.sleb128 16
 9853 2b02 01       		.byte	0x1
 9854 2b03 30       		.byte	0x30
 9855 2b04 2E       		.uleb128 0x2e
 9856 2b05 02       		.byte	0x2
 9857 2b06 7D       		.byte	0x7d
 9858 2b07 14       		.sleb128 20
 9859 2b08 01       		.byte	0x1
 9860 2b09 30       		.byte	0x30
 9861 2b0a 2E       		.uleb128 0x2e
 9862 2b0b 02       		.byte	0x2
 9863 2b0c 7D       		.byte	0x7d
 9864 2b0d 18       		.sleb128 24
 9865 2b0e 01       		.byte	0x1
 9866 2b0f 30       		.byte	0x30
 9867 2b10 2E       		.uleb128 0x2e
 9868 2b11 02       		.byte	0x2
 9869 2b12 7D       		.byte	0x7d
 9870 2b13 1C       		.sleb128 28
 9871 2b14 01       		.byte	0x1
 9872 2b15 30       		.byte	0x30
 9873 2b16 2E       		.uleb128 0x2e
 9874 2b17 02       		.byte	0x2
 9875 2b18 7D       		.byte	0x7d
 9876 2b19 20       		.sleb128 32
 9877 2b1a 01       		.byte	0x1
 9878 2b1b 31       		.byte	0x31
 9879 2b1c 00       		.byte	0
 9880 2b1d 48       		.uleb128 0x48
 9881 2b1e 9E000000 		.4byte	.LVL103
 9882 2b22 03       		.byte	0x3
 9883 2b23 91       		.byte	0x91
 9884 2b24 5C       		.sleb128 -36
 9885 2b25 06       		.byte	0x6
ARM GAS  C:\Users\EBANO_~1\AppData\Local\Temp\ccJkfoGk.s 			page 203


 9886 2b26 3B       		.uleb128 0x3b
 9887 2b27 EC000000 		.4byte	.LVL112
 9888 2b2b 2E       		.uleb128 0x2e
 9889 2b2c 01       		.byte	0x1
 9890 2b2d 50       		.byte	0x50
 9891 2b2e 01       		.byte	0x1
 9892 2b2f 30       		.byte	0x30
 9893 2b30 2E       		.uleb128 0x2e
 9894 2b31 01       		.byte	0x1
 9895 2b32 51       		.byte	0x51
 9896 2b33 03       		.byte	0x3
 9897 2b34 0A       		.byte	0xa
 9898 2b35 50C3     		.2byte	0xc350
 9899 2b37 2E       		.uleb128 0x2e
 9900 2b38 01       		.byte	0x1
 9901 2b39 52       		.byte	0x52
 9902 2b3a 0E       		.byte	0xe
 9903 2b3b 79       		.byte	0x79
 9904 2b3c 00       		.sleb128 0
 9905 2b3d 35       		.byte	0x35
 9906 2b3e 24       		.byte	0x24
 9907 2b3f 79       		.byte	0x79
 9908 2b40 00       		.sleb128 0
 9909 2b41 1C       		.byte	0x1c
 9910 2b42 32       		.byte	0x32
 9911 2b43 24       		.byte	0x24
 9912 2b44 79       		.byte	0x79
 9913 2b45 00       		.sleb128 0
 9914 2b46 22       		.byte	0x22
 9915 2b47 33       		.byte	0x33
 9916 2b48 24       		.byte	0x24
 9917 2b49 2E       		.uleb128 0x2e
 9918 2b4a 01       		.byte	0x1
 9919 2b4b 53       		.byte	0x53
 9920 2b4c 01       		.byte	0x1
 9921 2b4d 30       		.byte	0x30
 9922 2b4e 2E       		.uleb128 0x2e
 9923 2b4f 02       		.byte	0x2
 9924 2b50 7D       		.byte	0x7d
 9925 2b51 00       		.sleb128 0
 9926 2b52 05       		.byte	0x5
 9927 2b53 0C       		.byte	0xc
 9928 2b54 85450100 		.4byte	0x14585
 9929 2b58 2E       		.uleb128 0x2e
 9930 2b59 02       		.byte	0x2
 9931 2b5a 7D       		.byte	0x7d
 9932 2b5b 04       		.sleb128 4
 9933 2b5c 01       		.byte	0x1
 9934 2b5d 35       		.byte	0x35
 9935 2b5e 2E       		.uleb128 0x2e
 9936 2b5f 02       		.byte	0x2
 9937 2b60 7D       		.byte	0x7d
 9938 2b61 0C       		.sleb128 12
 9939 2b62 01       		.byte	0x1
 9940 2b63 30       		.byte	0x30
 9941 2b64 2E       		.uleb128 0x2e
 9942 2b65 02       		.byte	0x2
ARM GAS  C:\Users\EBANO_~1\AppData\Local\Temp\ccJkfoGk.s 			page 204


 9943 2b66 7D       		.byte	0x7d
 9944 2b67 10       		.sleb128 16
 9945 2b68 01       		.byte	0x1
 9946 2b69 30       		.byte	0x30
 9947 2b6a 2E       		.uleb128 0x2e
 9948 2b6b 02       		.byte	0x2
 9949 2b6c 7D       		.byte	0x7d
 9950 2b6d 14       		.sleb128 20
 9951 2b6e 01       		.byte	0x1
 9952 2b6f 31       		.byte	0x31
 9953 2b70 2E       		.uleb128 0x2e
 9954 2b71 02       		.byte	0x2
 9955 2b72 7D       		.byte	0x7d
 9956 2b73 18       		.sleb128 24
 9957 2b74 01       		.byte	0x1
 9958 2b75 30       		.byte	0x30
 9959 2b76 2E       		.uleb128 0x2e
 9960 2b77 02       		.byte	0x2
 9961 2b78 7D       		.byte	0x7d
 9962 2b79 1C       		.sleb128 28
 9963 2b7a 01       		.byte	0x1
 9964 2b7b 30       		.byte	0x30
 9965 2b7c 2E       		.uleb128 0x2e
 9966 2b7d 02       		.byte	0x2
 9967 2b7e 7D       		.byte	0x7d
 9968 2b7f 20       		.sleb128 32
 9969 2b80 01       		.byte	0x1
 9970 2b81 30       		.byte	0x30
 9971 2b82 00       		.byte	0
 9972 2b83 00       		.byte	0
 9973 2b84 0A       		.uleb128 0xa
 9974 2b85 04       		.byte	0x4
 9975 2b86 51170000 		.4byte	0x1751
 9976 2b8a 2B       		.uleb128 0x2b
 9977 2b8b 01       		.byte	0x1
 9978 2b8c AE100000 		.4byte	.LASF506
 9979 2b90 01       		.byte	0x1
 9980 2b91 1A02     		.2byte	0x21a
 9981 2b93 01       		.byte	0x1
 9982 2b94 00000000 		.4byte	.LFB51
 9983 2b98 94000000 		.4byte	.LFE51
 9984 2b9c C0120000 		.4byte	.LLST26
 9985 2ba0 01       		.byte	0x1
 9986 2ba1 782C0000 		.4byte	0x2c78
 9987 2ba5 2C       		.uleb128 0x2c
 9988 2ba6 BE040000 		.4byte	.LASF444
 9989 2baa 01       		.byte	0x1
 9990 2bab 1A02     		.2byte	0x21a
 9991 2bad B1000000 		.4byte	0xb1
 9992 2bb1 F8120000 		.4byte	.LLST27
 9993 2bb5 2C       		.uleb128 0x2c
 9994 2bb6 33140000 		.4byte	.LASF507
 9995 2bba 01       		.byte	0x1
 9996 2bbb 1A02     		.2byte	0x21a
 9997 2bbd BC000000 		.4byte	0xbc
 9998 2bc1 32130000 		.4byte	.LLST28
 9999 2bc5 2C       		.uleb128 0x2c
ARM GAS  C:\Users\EBANO_~1\AppData\Local\Temp\ccJkfoGk.s 			page 205


 10000 2bc6 C1180000 		.4byte	.LASF508
 10001 2bca 01       		.byte	0x1
 10002 2bcb 1A02     		.2byte	0x21a
 10003 2bcd ED000000 		.4byte	0xed
 10004 2bd1 53130000 		.4byte	.LLST29
 10005 2bd5 2C       		.uleb128 0x2c
 10006 2bd6 E3090000 		.4byte	.LASF509
 10007 2bda 01       		.byte	0x1
 10008 2bdb 1A02     		.2byte	0x21a
 10009 2bdd 842B0000 		.4byte	0x2b84
 10010 2be1 8A130000 		.4byte	.LLST30
 10011 2be5 33       		.uleb128 0x33
 10012 2be6 E2190000 		.4byte	.LASF510
 10013 2bea 01       		.byte	0x1
 10014 2beb 1C02     		.2byte	0x21c
 10015 2bed 782C0000 		.4byte	0x2c78
 10016 2bf1 F6130000 		.4byte	.LLST31
 10017 2bf5 34       		.uleb128 0x34
 10018 2bf6 9B310000 		.4byte	0x319b
 10019 2bfa 18000000 		.4byte	.LBB54
 10020 2bfe A0000000 		.4byte	.Ldebug_ranges0+0xa0
 10021 2c02 01       		.byte	0x1
 10022 2c03 2002     		.2byte	0x220
 10023 2c05 0F2C0000 		.4byte	0x2c0f
 10024 2c09 37       		.uleb128 0x37
 10025 2c0a AC310000 		.4byte	0x31ac
 10026 2c0e 00       		.byte	0
 10027 2c0f 42       		.uleb128 0x42
 10028 2c10 44000000 		.4byte	.LVL77
 10029 2c14 78340000 		.4byte	0x3478
 10030 2c18 3A2C0000 		.4byte	0x2c3a
 10031 2c1c 2E       		.uleb128 0x2e
 10032 2c1d 01       		.byte	0x1
 10033 2c1e 50       		.byte	0x50
 10034 2c1f 0A       		.byte	0xa
 10035 2c20 76       		.byte	0x76
 10036 2c21 00       		.sleb128 0
 10037 2c22 03       		.byte	0x3
 10038 2c23 F8000000 		.4byte	.LANCHOR1+32
 10039 2c27 22       		.byte	0x22
 10040 2c28 94       		.byte	0x94
 10041 2c29 01       		.byte	0x1
 10042 2c2a 2E       		.uleb128 0x2e
 10043 2c2b 01       		.byte	0x1
 10044 2c2c 51       		.byte	0x51
 10045 2c2d 0B       		.byte	0xb
 10046 2c2e 76       		.byte	0x76
 10047 2c2f 00       		.sleb128 0
 10048 2c30 32       		.byte	0x32
 10049 2c31 24       		.byte	0x24
 10050 2c32 03       		.byte	0x3
 10051 2c33 D8000000 		.4byte	.LANCHOR1
 10052 2c37 22       		.byte	0x22
 10053 2c38 06       		.byte	0x6
 10054 2c39 00       		.byte	0
 10055 2c3a 4D       		.uleb128 0x4d
 10056 2c3b 50000000 		.4byte	.LVL79
ARM GAS  C:\Users\EBANO_~1\AppData\Local\Temp\ccJkfoGk.s 			page 206


 10057 2c3f 42       		.uleb128 0x42
 10058 2c40 68000000 		.4byte	.LVL83
 10059 2c44 86340000 		.4byte	0x3486
 10060 2c48 672C0000 		.4byte	0x2c67
 10061 2c4c 2E       		.uleb128 0x2e
 10062 2c4d 01       		.byte	0x1
 10063 2c4e 52       		.byte	0x52
 10064 2c4f 02       		.byte	0x2
 10065 2c50 75       		.byte	0x75
 10066 2c51 00       		.sleb128 0
 10067 2c52 2E       		.uleb128 0x2e
 10068 2c53 01       		.byte	0x1
 10069 2c54 53       		.byte	0x53
 10070 2c55 02       		.byte	0x2
 10071 2c56 78       		.byte	0x78
 10072 2c57 00       		.sleb128 0
 10073 2c58 2E       		.uleb128 0x2e
 10074 2c59 02       		.byte	0x2
 10075 2c5a 7D       		.byte	0x7d
 10076 2c5b 04       		.sleb128 4
 10077 2c5c 02       		.byte	0x2
 10078 2c5d 74       		.byte	0x74
 10079 2c5e 00       		.sleb128 0
 10080 2c5f 2E       		.uleb128 0x2e
 10081 2c60 02       		.byte	0x2
 10082 2c61 7D       		.byte	0x7d
 10083 2c62 08       		.sleb128 8
 10084 2c63 02       		.byte	0x2
 10085 2c64 74       		.byte	0x74
 10086 2c65 04       		.sleb128 4
 10087 2c66 00       		.byte	0
 10088 2c67 2D       		.uleb128 0x2d
 10089 2c68 7E000000 		.4byte	.LVL89
 10090 2c6c 94340000 		.4byte	0x3494
 10091 2c70 2E       		.uleb128 0x2e
 10092 2c71 01       		.byte	0x1
 10093 2c72 50       		.byte	0x50
 10094 2c73 02       		.byte	0x2
 10095 2c74 08       		.byte	0x8
 10096 2c75 32       		.byte	0x32
 10097 2c76 00       		.byte	0
 10098 2c77 00       		.byte	0
 10099 2c78 02       		.uleb128 0x2
 10100 2c79 08       		.byte	0x8
 10101 2c7a 04       		.byte	0x4
 10102 2c7b 55190000 		.4byte	.LASF511
 10103 2c7f 3F       		.uleb128 0x3f
 10104 2c80 01       		.byte	0x1
 10105 2c81 53160000 		.4byte	.LASF512
 10106 2c85 01       		.byte	0x1
 10107 2c86 0602     		.2byte	0x206
 10108 2c88 01       		.byte	0x1
 10109 2c89 150B0000 		.4byte	0xb15
 10110 2c8d 00000000 		.4byte	.LFB50
 10111 2c91 34000000 		.4byte	.LFE50
 10112 2c95 46140000 		.4byte	.LLST24
 10113 2c99 01       		.byte	0x1
ARM GAS  C:\Users\EBANO_~1\AppData\Local\Temp\ccJkfoGk.s 			page 207


 10114 2c9a E32C0000 		.4byte	0x2ce3
 10115 2c9e 2C       		.uleb128 0x2c
 10116 2c9f D5000000 		.4byte	.LASF513
 10117 2ca3 01       		.byte	0x1
 10118 2ca4 0602     		.2byte	0x206
 10119 2ca6 E32C0000 		.4byte	0x2ce3
 10120 2caa 66140000 		.4byte	.LLST25
 10121 2cae 42       		.uleb128 0x42
 10122 2caf 1A000000 		.4byte	.LVL67
 10123 2cb3 A2340000 		.4byte	0x34a2
 10124 2cb7 CA2C0000 		.4byte	0x2cca
 10125 2cbb 2E       		.uleb128 0x2e
 10126 2cbc 01       		.byte	0x1
 10127 2cbd 50       		.byte	0x50
 10128 2cbe 05       		.byte	0x5
 10129 2cbf 03       		.byte	0x3
 10130 2cc0 12010000 		.4byte	NvmCtx+274
 10131 2cc4 2E       		.uleb128 0x2e
 10132 2cc5 01       		.byte	0x1
 10133 2cc6 52       		.byte	0x52
 10134 2cc7 01       		.byte	0x1
 10135 2cc8 31       		.byte	0x31
 10136 2cc9 00       		.byte	0
 10137 2cca 2D       		.uleb128 0x2d
 10138 2ccb 28000000 		.4byte	.LVL70
 10139 2ccf A2340000 		.4byte	0x34a2
 10140 2cd3 2E       		.uleb128 0x2e
 10141 2cd4 01       		.byte	0x1
 10142 2cd5 50       		.byte	0x50
 10143 2cd6 05       		.byte	0x5
 10144 2cd7 03       		.byte	0x3
 10145 2cd8 10010000 		.4byte	NvmCtx+272
 10146 2cdc 2E       		.uleb128 0x2e
 10147 2cdd 01       		.byte	0x1
 10148 2cde 52       		.byte	0x52
 10149 2cdf 01       		.byte	0x1
 10150 2ce0 31       		.byte	0x31
 10151 2ce1 00       		.byte	0
 10152 2ce2 00       		.byte	0
 10153 2ce3 0A       		.uleb128 0xa
 10154 2ce4 04       		.byte	0x4
 10155 2ce5 92160000 		.4byte	0x1692
 10156 2ce9 2B       		.uleb128 0x2b
 10157 2cea 01       		.byte	0x1
 10158 2ceb A80D0000 		.4byte	.LASF514
 10159 2cef 01       		.byte	0x1
 10160 2cf0 CB01     		.2byte	0x1cb
 10161 2cf2 01       		.byte	0x1
 10162 2cf3 00000000 		.4byte	.LFB49
 10163 2cf7 B8010000 		.4byte	.LFE49
 10164 2cfb B9140000 		.4byte	.LLST13
 10165 2cff 01       		.byte	0x1
 10166 2d00 C32E0000 		.4byte	0x2ec3
 10167 2d04 2C       		.uleb128 0x2c
 10168 2d05 9B050000 		.4byte	.LASF515
 10169 2d09 01       		.byte	0x1
 10170 2d0a CB01     		.2byte	0x1cb
ARM GAS  C:\Users\EBANO_~1\AppData\Local\Temp\ccJkfoGk.s 			page 208


 10171 2d0c C32E0000 		.4byte	0x2ec3
 10172 2d10 F2140000 		.4byte	.LLST14
 10173 2d14 29       		.uleb128 0x29
 10174 2d15 1B190000 		.4byte	.LASF516
 10175 2d19 01       		.byte	0x1
 10176 2d1a CD01     		.2byte	0x1cd
 10177 2d1c 41110000 		.4byte	0x1141
 10178 2d20 02       		.byte	0x2
 10179 2d21 91       		.byte	0x91
 10180 2d22 4C       		.sleb128 -52
 10181 2d23 32       		.uleb128 0x32
 10182 2d24 F6120000 		.4byte	.LASF454
 10183 2d28 01       		.byte	0x1
 10184 2d29 CE01     		.2byte	0x1ce
 10185 2d2b 911A0000 		.4byte	0x1a91
 10186 2d2f 32       		.uleb128 0x32
 10187 2d30 BE1F0000 		.4byte	.LASF453
 10188 2d34 01       		.byte	0x1
 10189 2d35 CF01     		.2byte	0x1cf
 10190 2d37 BA1A0000 		.4byte	0x1aba
 10191 2d3b 38       		.uleb128 0x38
 10192 2d3c 00000000 		.4byte	.Ldebug_ranges0+0
 10193 2d40 4A       		.uleb128 0x4a
 10194 2d41 6900     		.ascii	"i\000"
 10195 2d43 01       		.byte	0x1
 10196 2d44 E101     		.2byte	0x1e1
 10197 2d46 BC000000 		.4byte	0xbc
 10198 2d4a 34150000 		.4byte	.LLST15
 10199 2d4e 33       		.uleb128 0x33
 10200 2d4f A8030000 		.4byte	.LASF517
 10201 2d53 01       		.byte	0x1
 10202 2d54 E101     		.2byte	0x1e1
 10203 2d56 BC000000 		.4byte	0xbc
 10204 2d5a 63150000 		.4byte	.LLST16
 10205 2d5e 34       		.uleb128 0x34
 10206 2d5f 50200000 		.4byte	0x2050
 10207 2d63 32000000 		.4byte	.LBB28
 10208 2d67 20000000 		.4byte	.Ldebug_ranges0+0x20
 10209 2d6b 01       		.byte	0x1
 10210 2d6c 0102     		.2byte	0x201
 10211 2d6e D12D0000 		.4byte	0x2dd1
 10212 2d72 35       		.uleb128 0x35
 10213 2d73 63200000 		.4byte	0x2063
 10214 2d77 AF150000 		.4byte	.LLST17
 10215 2d7b 38       		.uleb128 0x38
 10216 2d7c 20000000 		.4byte	.Ldebug_ranges0+0x20
 10217 2d80 40       		.uleb128 0x40
 10218 2d81 6F200000 		.4byte	0x206f
 10219 2d85 C7150000 		.4byte	.LLST18
 10220 2d89 42       		.uleb128 0x42
 10221 2d8a 58000000 		.4byte	.LVL42
 10222 2d8e DF330000 		.4byte	0x33df
 10223 2d92 B12D0000 		.4byte	0x2db1
 10224 2d96 2E       		.uleb128 0x2e
 10225 2d97 01       		.byte	0x1
 10226 2d98 50       		.byte	0x50
 10227 2d99 0C       		.byte	0xc
ARM GAS  C:\Users\EBANO_~1\AppData\Local\Temp\ccJkfoGk.s 			page 209


 10228 2d9a 75       		.byte	0x75
 10229 2d9b 00       		.sleb128 0
 10230 2d9c 31       		.byte	0x31
 10231 2d9d 24       		.byte	0x24
 10232 2d9e 75       		.byte	0x75
 10233 2d9f 00       		.sleb128 0
 10234 2da0 22       		.byte	0x22
 10235 2da1 32       		.byte	0x32
 10236 2da2 24       		.byte	0x24
 10237 2da3 7A       		.byte	0x7a
 10238 2da4 00       		.sleb128 0
 10239 2da5 22       		.byte	0x22
 10240 2da6 2E       		.uleb128 0x2e
 10241 2da7 01       		.byte	0x1
 10242 2da8 51       		.byte	0x51
 10243 2da9 01       		.byte	0x1
 10244 2daa 30       		.byte	0x30
 10245 2dab 2E       		.uleb128 0x2e
 10246 2dac 01       		.byte	0x1
 10247 2dad 52       		.byte	0x52
 10248 2dae 01       		.byte	0x1
 10249 2daf 3C       		.byte	0x3c
 10250 2db0 00       		.byte	0
 10251 2db1 2D       		.uleb128 0x2d
 10252 2db2 62000000 		.4byte	.LVL43
 10253 2db6 34340000 		.4byte	0x3434
 10254 2dba 2E       		.uleb128 0x2e
 10255 2dbb 01       		.byte	0x1
 10256 2dbc 50       		.byte	0x50
 10257 2dbd 05       		.byte	0x5
 10258 2dbe 03       		.byte	0x3
 10259 2dbf 10010000 		.4byte	NvmCtx+272
 10260 2dc3 2E       		.uleb128 0x2e
 10261 2dc4 01       		.byte	0x1
 10262 2dc5 51       		.byte	0x51
 10263 2dc6 02       		.byte	0x2
 10264 2dc7 78       		.byte	0x78
 10265 2dc8 00       		.sleb128 0
 10266 2dc9 2E       		.uleb128 0x2e
 10267 2dca 01       		.byte	0x1
 10268 2dcb 52       		.byte	0x52
 10269 2dcc 01       		.byte	0x1
 10270 2dcd 40       		.byte	0x40
 10271 2dce 00       		.byte	0
 10272 2dcf 00       		.byte	0
 10273 2dd0 00       		.byte	0
 10274 2dd1 43       		.uleb128 0x43
 10275 2dd2 81200000 		.4byte	0x2081
 10276 2dd6 38000000 		.4byte	.LBB33
 10277 2dda 40000000 		.4byte	.Ldebug_ranges0+0x40
 10278 2dde 01       		.byte	0x1
 10279 2ddf FB01     		.2byte	0x1fb
 10280 2de1 36       		.uleb128 0x36
 10281 2de2 94200000 		.4byte	0x2094
 10282 2de6 06       		.byte	0x6
 10283 2de7 F2       		.byte	0xf2
 10284 2de8 232D0000 		.4byte	.Ldebug_info0+11555
ARM GAS  C:\Users\EBANO_~1\AppData\Local\Temp\ccJkfoGk.s 			page 210


 10285 2dec 00       		.sleb128 0
 10286 2ded 38       		.uleb128 0x38
 10287 2dee 40000000 		.4byte	.Ldebug_ranges0+0x40
 10288 2df2 4E       		.uleb128 0x4e
 10289 2df3 A0200000 		.4byte	0x20a0
 10290 2df7 00       		.byte	0
 10291 2df8 40       		.uleb128 0x40
 10292 2df9 AC200000 		.4byte	0x20ac
 10293 2dfd DA150000 		.4byte	.LLST19
 10294 2e01 4E       		.uleb128 0x4e
 10295 2e02 B8200000 		.4byte	0x20b8
 10296 2e06 00       		.byte	0
 10297 2e07 40       		.uleb128 0x40
 10298 2e08 C4200000 		.4byte	0x20c4
 10299 2e0c 0A160000 		.4byte	.LLST20
 10300 2e10 34       		.uleb128 0x34
 10301 2e11 2A310000 		.4byte	0x312a
 10302 2e15 38000000 		.4byte	.LBB35
 10303 2e19 60000000 		.4byte	.Ldebug_ranges0+0x60
 10304 2e1d 01       		.byte	0x1
 10305 2e1e CE03     		.2byte	0x3ce
 10306 2e20 6A2E0000 		.4byte	0x2e6a
 10307 2e24 36       		.uleb128 0x36
 10308 2e25 46310000 		.4byte	0x3146
 10309 2e29 06       		.byte	0x6
 10310 2e2a F2       		.byte	0xf2
 10311 2e2b F22D0000 		.4byte	.Ldebug_info0+11762
 10312 2e2f 00       		.sleb128 0
 10313 2e30 35       		.uleb128 0x35
 10314 2e31 3B310000 		.4byte	0x313b
 10315 2e35 28160000 		.4byte	.LLST21
 10316 2e39 46       		.uleb128 0x46
 10317 2e3a 2A310000 		.4byte	0x312a
 10318 2e3e 88000000 		.4byte	.Ldebug_ranges0+0x88
 10319 2e42 592E0000 		.4byte	0x2e59
 10320 2e46 35       		.uleb128 0x35
 10321 2e47 46310000 		.4byte	0x3146
 10322 2e4b 51160000 		.4byte	.LLST22
 10323 2e4f 35       		.uleb128 0x35
 10324 2e50 3B310000 		.4byte	0x313b
 10325 2e54 79160000 		.4byte	.LLST23
 10326 2e58 00       		.byte	0
 10327 2e59 4C       		.uleb128 0x4c
 10328 2e5a E8000000 		.4byte	.LVL56
 10329 2e5e 03       		.byte	0x3
 10330 2e5f 7B       		.byte	0x7b
 10331 2e60 28       		.sleb128 40
 10332 2e61 06       		.byte	0x6
 10333 2e62 2E       		.uleb128 0x2e
 10334 2e63 01       		.byte	0x1
 10335 2e64 50       		.byte	0x50
 10336 2e65 02       		.byte	0x2
 10337 2e66 78       		.byte	0x78
 10338 2e67 00       		.sleb128 0
 10339 2e68 00       		.byte	0
 10340 2e69 00       		.byte	0
 10341 2e6a 42       		.uleb128 0x42
ARM GAS  C:\Users\EBANO_~1\AppData\Local\Temp\ccJkfoGk.s 			page 211


 10342 2e6b A6000000 		.4byte	.LVL49
 10343 2e6f D2330000 		.4byte	0x33d2
 10344 2e73 822E0000 		.4byte	0x2e82
 10345 2e77 2E       		.uleb128 0x2e
 10346 2e78 01       		.byte	0x1
 10347 2e79 51       		.byte	0x51
 10348 2e7a 01       		.byte	0x1
 10349 2e7b 30       		.byte	0x30
 10350 2e7c 2E       		.uleb128 0x2e
 10351 2e7d 01       		.byte	0x1
 10352 2e7e 52       		.byte	0x52
 10353 2e7f 01       		.byte	0x1
 10354 2e80 37       		.byte	0x37
 10355 2e81 00       		.byte	0
 10356 2e82 42       		.uleb128 0x42
 10357 2e83 B6000000 		.4byte	.LVL51
 10358 2e87 D2330000 		.4byte	0x33d2
 10359 2e8b 9A2E0000 		.4byte	0x2e9a
 10360 2e8f 2E       		.uleb128 0x2e
 10361 2e90 01       		.byte	0x1
 10362 2e91 51       		.byte	0x51
 10363 2e92 01       		.byte	0x1
 10364 2e93 30       		.byte	0x30
 10365 2e94 2E       		.uleb128 0x2e
 10366 2e95 01       		.byte	0x1
 10367 2e96 52       		.byte	0x52
 10368 2e97 01       		.byte	0x1
 10369 2e98 37       		.byte	0x37
 10370 2e99 00       		.byte	0
 10371 2e9a 2D       		.uleb128 0x2d
 10372 2e9b 4C010000 		.4byte	.LVL60
 10373 2e9f 42340000 		.4byte	0x3442
 10374 2ea3 2E       		.uleb128 0x2e
 10375 2ea4 01       		.byte	0x1
 10376 2ea5 50       		.byte	0x50
 10377 2ea6 0C       		.byte	0xc
 10378 2ea7 75       		.byte	0x75
 10379 2ea8 00       		.sleb128 0
 10380 2ea9 31       		.byte	0x31
 10381 2eaa 24       		.byte	0x24
 10382 2eab 75       		.byte	0x75
 10383 2eac 00       		.sleb128 0
 10384 2ead 22       		.byte	0x22
 10385 2eae 32       		.byte	0x32
 10386 2eaf 24       		.byte	0x24
 10387 2eb0 78       		.byte	0x78
 10388 2eb1 00       		.sleb128 0
 10389 2eb2 22       		.byte	0x22
 10390 2eb3 2E       		.uleb128 0x2e
 10391 2eb4 01       		.byte	0x1
 10392 2eb5 51       		.byte	0x51
 10393 2eb6 02       		.byte	0x2
 10394 2eb7 74       		.byte	0x74
 10395 2eb8 00       		.sleb128 0
 10396 2eb9 2E       		.uleb128 0x2e
 10397 2eba 01       		.byte	0x1
 10398 2ebb 52       		.byte	0x52
ARM GAS  C:\Users\EBANO_~1\AppData\Local\Temp\ccJkfoGk.s 			page 212


 10399 2ebc 01       		.byte	0x1
 10400 2ebd 3C       		.byte	0x3c
 10401 2ebe 00       		.byte	0
 10402 2ebf 00       		.byte	0
 10403 2ec0 00       		.byte	0
 10404 2ec1 00       		.byte	0
 10405 2ec2 00       		.byte	0
 10406 2ec3 0A       		.uleb128 0xa
 10407 2ec4 04       		.byte	0x4
 10408 2ec5 5A160000 		.4byte	0x165a
 10409 2ec9 3F       		.uleb128 0x3f
 10410 2eca 01       		.byte	0x1
 10411 2ecb D7020000 		.4byte	.LASF518
 10412 2ecf 01       		.byte	0x1
 10413 2ed0 AC01     		.2byte	0x1ac
 10414 2ed2 01       		.byte	0x1
 10415 2ed3 150B0000 		.4byte	0xb15
 10416 2ed7 00000000 		.4byte	.LFB48
 10417 2edb 48000000 		.4byte	.LFE48
 10418 2edf 97160000 		.4byte	.LLST10
 10419 2ee3 01       		.byte	0x1
 10420 2ee4 352F0000 		.4byte	0x2f35
 10421 2ee8 2C       		.uleb128 0x2c
 10422 2ee9 49030000 		.4byte	.LASF519
 10423 2eed 01       		.byte	0x1
 10424 2eee AC01     		.2byte	0x1ac
 10425 2ef0 352F0000 		.4byte	0x2f35
 10426 2ef4 B7160000 		.4byte	.LLST11
 10427 2ef8 2C       		.uleb128 0x2c
 10428 2ef9 52140000 		.4byte	.LASF520
 10429 2efd 01       		.byte	0x1
 10430 2efe AC01     		.2byte	0x1ac
 10431 2f00 B2130000 		.4byte	0x13b2
 10432 2f04 23170000 		.4byte	.LLST12
 10433 2f08 42       		.uleb128 0x42
 10434 2f09 1E000000 		.4byte	.LVL27
 10435 2f0d D2330000 		.4byte	0x33d2
 10436 2f11 202F0000 		.4byte	0x2f20
 10437 2f15 2E       		.uleb128 0x2e
 10438 2f16 01       		.byte	0x1
 10439 2f17 51       		.byte	0x51
 10440 2f18 01       		.byte	0x1
 10441 2f19 30       		.byte	0x30
 10442 2f1a 2E       		.uleb128 0x2e
 10443 2f1b 01       		.byte	0x1
 10444 2f1c 52       		.byte	0x52
 10445 2f1d 01       		.byte	0x1
 10446 2f1e 37       		.byte	0x37
 10447 2f1f 00       		.byte	0
 10448 2f20 2D       		.uleb128 0x2d
 10449 2f21 36000000 		.4byte	.LVL32
 10450 2f25 D2330000 		.4byte	0x33d2
 10451 2f29 2E       		.uleb128 0x2e
 10452 2f2a 01       		.byte	0x1
 10453 2f2b 51       		.byte	0x51
 10454 2f2c 01       		.byte	0x1
 10455 2f2d 30       		.byte	0x30
ARM GAS  C:\Users\EBANO_~1\AppData\Local\Temp\ccJkfoGk.s 			page 213


 10456 2f2e 2E       		.uleb128 0x2e
 10457 2f2f 01       		.byte	0x1
 10458 2f30 52       		.byte	0x52
 10459 2f31 01       		.byte	0x1
 10460 2f32 35       		.byte	0x35
 10461 2f33 00       		.byte	0
 10462 2f34 00       		.byte	0
 10463 2f35 0A       		.uleb128 0xa
 10464 2f36 04       		.byte	0x4
 10465 2f37 22160000 		.4byte	0x1622
 10466 2f3b 2F       		.uleb128 0x2f
 10467 2f3c 01       		.byte	0x1
 10468 2f3d 72050000 		.4byte	.LASF521
 10469 2f41 01       		.byte	0x1
 10470 2f42 A601     		.2byte	0x1a6
 10471 2f44 01       		.byte	0x1
 10472 2f45 82010000 		.4byte	0x182
 10473 2f49 00000000 		.4byte	.LFB47
 10474 2f4d 10000000 		.4byte	.LFE47
 10475 2f51 02       		.byte	0x2
 10476 2f52 7D       		.byte	0x7d
 10477 2f53 00       		.sleb128 0
 10478 2f54 01       		.byte	0x1
 10479 2f55 6A2F0000 		.4byte	0x2f6a
 10480 2f59 2C       		.uleb128 0x2c
 10481 2f5a 300E0000 		.4byte	.LASF522
 10482 2f5e 01       		.byte	0x1
 10483 2f5f A601     		.2byte	0x1a6
 10484 2f61 6A2F0000 		.4byte	0x2f6a
 10485 2f65 44170000 		.4byte	.LLST9
 10486 2f69 00       		.byte	0
 10487 2f6a 0A       		.uleb128 0xa
 10488 2f6b 04       		.byte	0x4
 10489 2f6c A9150000 		.4byte	0x15a9
 10490 2f70 2B       		.uleb128 0x2b
 10491 2f71 01       		.byte	0x1
 10492 2f72 79180000 		.4byte	.LASF523
 10493 2f76 01       		.byte	0x1
 10494 2f77 7401     		.2byte	0x174
 10495 2f79 01       		.byte	0x1
 10496 2f7a 00000000 		.4byte	.LFB46
 10497 2f7e B4000000 		.4byte	.LFE46
 10498 2f82 65170000 		.4byte	.LLST7
 10499 2f86 01       		.byte	0x1
 10500 2f87 26300000 		.4byte	0x3026
 10501 2f8b 2C       		.uleb128 0x2c
 10502 2f8c 300E0000 		.4byte	.LASF522
 10503 2f90 01       		.byte	0x1
 10504 2f91 7401     		.2byte	0x174
 10505 2f93 26300000 		.4byte	0x3026
 10506 2f97 92170000 		.4byte	.LLST8
 10507 2f9b 29       		.uleb128 0x29
 10508 2f9c AF140000 		.4byte	.LASF524
 10509 2fa0 01       		.byte	0x1
 10510 2fa1 7601     		.2byte	0x176
 10511 2fa3 9B1E0000 		.4byte	0x1e9b
 10512 2fa7 03       		.byte	0x3
ARM GAS  C:\Users\EBANO_~1\AppData\Local\Temp\ccJkfoGk.s 			page 214


 10513 2fa8 91       		.byte	0x91
 10514 2fa9 987F     		.sleb128 -104
 10515 2fab 42       		.uleb128 0x42
 10516 2fac 12000000 		.4byte	.LVL15
 10517 2fb0 DF330000 		.4byte	0x33df
 10518 2fb4 CA2F0000 		.4byte	0x2fca
 10519 2fb8 2E       		.uleb128 0x2e
 10520 2fb9 01       		.byte	0x1
 10521 2fba 50       		.byte	0x50
 10522 2fbb 02       		.byte	0x2
 10523 2fbc 7D       		.byte	0x7d
 10524 2fbd 02       		.sleb128 2
 10525 2fbe 2E       		.uleb128 0x2e
 10526 2fbf 01       		.byte	0x1
 10527 2fc0 51       		.byte	0x51
 10528 2fc1 01       		.byte	0x1
 10529 2fc2 30       		.byte	0x30
 10530 2fc3 2E       		.uleb128 0x2e
 10531 2fc4 01       		.byte	0x1
 10532 2fc5 52       		.byte	0x52
 10533 2fc6 02       		.byte	0x2
 10534 2fc7 08       		.byte	0x8
 10535 2fc8 4E       		.byte	0x4e
 10536 2fc9 00       		.byte	0
 10537 2fca 42       		.uleb128 0x42
 10538 2fcb 48000000 		.4byte	.LVL16
 10539 2fcf 42340000 		.4byte	0x3442
 10540 2fd3 E82F0000 		.4byte	0x2fe8
 10541 2fd7 2E       		.uleb128 0x2e
 10542 2fd8 01       		.byte	0x1
 10543 2fd9 50       		.byte	0x50
 10544 2fda 05       		.byte	0x5
 10545 2fdb 03       		.byte	0x3
 10546 2fdc 00000000 		.4byte	NvmCtx
 10547 2fe0 2E       		.uleb128 0x2e
 10548 2fe1 01       		.byte	0x1
 10549 2fe2 52       		.byte	0x52
 10550 2fe3 03       		.byte	0x3
 10551 2fe4 0A       		.byte	0xa
 10552 2fe5 1401     		.2byte	0x114
 10553 2fe7 00       		.byte	0
 10554 2fe8 42       		.uleb128 0x42
 10555 2fe9 58000000 		.4byte	.LVL19
 10556 2fed 42340000 		.4byte	0x3442
 10557 2ff1 08300000 		.4byte	0x3008
 10558 2ff5 2E       		.uleb128 0x2e
 10559 2ff6 01       		.byte	0x1
 10560 2ff7 50       		.byte	0x50
 10561 2ff8 02       		.byte	0x2
 10562 2ff9 74       		.byte	0x74
 10563 2ffa 00       		.sleb128 0
 10564 2ffb 2E       		.uleb128 0x2e
 10565 2ffc 01       		.byte	0x1
 10566 2ffd 51       		.byte	0x51
 10567 2ffe 02       		.byte	0x2
 10568 2fff 7D       		.byte	0x7d
 10569 3000 00       		.sleb128 0
ARM GAS  C:\Users\EBANO_~1\AppData\Local\Temp\ccJkfoGk.s 			page 215


 10570 3001 2E       		.uleb128 0x2e
 10571 3002 01       		.byte	0x1
 10572 3003 52       		.byte	0x52
 10573 3004 02       		.byte	0x2
 10574 3005 08       		.byte	0x8
 10575 3006 50       		.byte	0x50
 10576 3007 00       		.byte	0
 10577 3008 2D       		.uleb128 0x2d
 10578 3009 90000000 		.4byte	.LVL20
 10579 300d A2340000 		.4byte	0x34a2
 10580 3011 2E       		.uleb128 0x2e
 10581 3012 01       		.byte	0x1
 10582 3013 50       		.byte	0x50
 10583 3014 03       		.byte	0x3
 10584 3015 74       		.byte	0x74
 10585 3016 D000     		.sleb128 80
 10586 3018 2E       		.uleb128 0x2e
 10587 3019 01       		.byte	0x1
 10588 301a 51       		.byte	0x51
 10589 301b 03       		.byte	0x3
 10590 301c 74       		.byte	0x74
 10591 301d D200     		.sleb128 82
 10592 301f 2E       		.uleb128 0x2e
 10593 3020 01       		.byte	0x1
 10594 3021 52       		.byte	0x52
 10595 3022 01       		.byte	0x1
 10596 3023 31       		.byte	0x31
 10597 3024 00       		.byte	0
 10598 3025 00       		.byte	0
 10599 3026 0A       		.uleb128 0xa
 10600 3027 04       		.byte	0x4
 10601 3028 80150000 		.4byte	0x1580
 10602 302c 2B       		.uleb128 0x2b
 10603 302d 01       		.byte	0x1
 10604 302e F91D0000 		.4byte	.LASF525
 10605 3032 01       		.byte	0x1
 10606 3033 6F01     		.2byte	0x16f
 10607 3035 01       		.byte	0x1
 10608 3036 00000000 		.4byte	.LFB45
 10609 303a 24000000 		.4byte	.LFE45
 10610 303e E2170000 		.4byte	.LLST5
 10611 3042 01       		.byte	0x1
 10612 3043 61300000 		.4byte	0x3061
 10613 3047 2C       		.uleb128 0x2c
 10614 3048 11050000 		.4byte	.LASF526
 10615 304c 01       		.byte	0x1
 10616 304d 6F01     		.2byte	0x16f
 10617 304f 61300000 		.4byte	0x3061
 10618 3053 02180000 		.4byte	.LLST6
 10619 3057 3A       		.uleb128 0x3a
 10620 3058 1E000000 		.4byte	.LVL12
 10621 305c B0340000 		.4byte	0x34b0
 10622 3060 00       		.byte	0
 10623 3061 0A       		.uleb128 0xa
 10624 3062 04       		.byte	0x4
 10625 3063 48150000 		.4byte	0x1548
 10626 3067 4F       		.uleb128 0x4f
ARM GAS  C:\Users\EBANO_~1\AppData\Local\Temp\ccJkfoGk.s 			page 216


 10627 3068 01       		.byte	0x1
 10628 3069 681E0000 		.4byte	.LASF527
 10629 306d 01       		.byte	0x1
 10630 306e BD       		.byte	0xbd
 10631 306f 01       		.byte	0x1
 10632 3070 AB140000 		.4byte	0x14ab
 10633 3074 01       		.byte	0x1
 10634 3075 90300000 		.4byte	0x3090
 10635 3079 50       		.uleb128 0x50
 10636 307a 61180000 		.4byte	.LASF493
 10637 307e 01       		.byte	0x1
 10638 307f BD       		.byte	0xbd
 10639 3080 90300000 		.4byte	0x3090
 10640 3084 51       		.uleb128 0x51
 10641 3085 36040000 		.4byte	.LASF494
 10642 3089 01       		.byte	0x1
 10643 308a BF       		.byte	0xbf
 10644 308b AB140000 		.4byte	0x14ab
 10645 308f 00       		.byte	0
 10646 3090 0A       		.uleb128 0xa
 10647 3091 04       		.byte	0x4
 10648 3092 01150000 		.4byte	0x1501
 10649 3096 52       		.uleb128 0x52
 10650 3097 82080000 		.4byte	.LASF532
 10651 309b 01       		.byte	0x1
 10652 309c 94       		.byte	0x94
 10653 309d 01       		.byte	0x1
 10654 309e BC000000 		.4byte	0xbc
 10655 30a2 01       		.byte	0x1
 10656 30a3 2A310000 		.4byte	0x312a
 10657 30a7 50       		.uleb128 0x50
 10658 30a8 BE160000 		.4byte	.LASF528
 10659 30ac 01       		.byte	0x1
 10660 30ad 94       		.byte	0x94
 10661 30ae 150B0000 		.4byte	0xb15
 10662 30b2 50       		.uleb128 0x50
 10663 30b3 BE040000 		.4byte	.LASF444
 10664 30b7 01       		.byte	0x1
 10665 30b8 94       		.byte	0x94
 10666 30b9 BC000000 		.4byte	0xbc
 10667 30bd 50       		.uleb128 0x50
 10668 30be 8C130000 		.4byte	.LASF529
 10669 30c2 01       		.byte	0x1
 10670 30c3 94       		.byte	0x94
 10671 30c4 95110000 		.4byte	0x1195
 10672 30c8 50       		.uleb128 0x50
 10673 30c9 B61C0000 		.4byte	.LASF530
 10674 30cd 01       		.byte	0x1
 10675 30ce 94       		.byte	0x94
 10676 30cf 8F110000 		.4byte	0x118f
 10677 30d3 50       		.uleb128 0x50
 10678 30d4 AF140000 		.4byte	.LASF524
 10679 30d8 01       		.byte	0x1
 10680 30d9 94       		.byte	0x94
 10681 30da 541D0000 		.4byte	0x1d54
 10682 30de 50       		.uleb128 0x50
 10683 30df F2190000 		.4byte	.LASF466
ARM GAS  C:\Users\EBANO_~1\AppData\Local\Temp\ccJkfoGk.s 			page 217


 10684 30e3 01       		.byte	0x1
 10685 30e4 94       		.byte	0x94
 10686 30e5 840A0000 		.4byte	0xa84
 10687 30e9 50       		.uleb128 0x50
 10688 30ea A7060000 		.4byte	.LASF465
 10689 30ee 01       		.byte	0x1
 10690 30ef 94       		.byte	0x94
 10691 30f0 840A0000 		.4byte	0xa84
 10692 30f4 51       		.uleb128 0x51
 10693 30f5 F9150000 		.4byte	.LASF464
 10694 30f9 01       		.byte	0x1
 10695 30fa 96       		.byte	0x96
 10696 30fb BC000000 		.4byte	0xbc
 10697 30ff 51       		.uleb128 0x51
 10698 3100 5F1C0000 		.4byte	.LASF531
 10699 3104 01       		.byte	0x1
 10700 3105 97       		.byte	0x97
 10701 3106 BC000000 		.4byte	0xbc
 10702 310a 53       		.uleb128 0x53
 10703 310b 54       		.uleb128 0x54
 10704 310c 6900     		.ascii	"i\000"
 10705 310e 01       		.byte	0x1
 10706 310f 99       		.byte	0x99
 10707 3110 BC000000 		.4byte	0xbc
 10708 3114 54       		.uleb128 0x54
 10709 3115 6B00     		.ascii	"k\000"
 10710 3117 01       		.byte	0x1
 10711 3118 99       		.byte	0x99
 10712 3119 BC000000 		.4byte	0xbc
 10713 311d 53       		.uleb128 0x53
 10714 311e 54       		.uleb128 0x54
 10715 311f 6A00     		.ascii	"j\000"
 10716 3121 01       		.byte	0x1
 10717 3122 9B       		.byte	0x9b
 10718 3123 BC000000 		.4byte	0xbc
 10719 3127 00       		.byte	0
 10720 3128 00       		.byte	0
 10721 3129 00       		.byte	0
 10722 312a 52       		.uleb128 0x52
 10723 312b F8130000 		.4byte	.LASF533
 10724 312f 01       		.byte	0x1
 10725 3130 6C       		.byte	0x6c
 10726 3131 01       		.byte	0x1
 10727 3132 150B0000 		.4byte	0xb15
 10728 3136 01       		.byte	0x1
 10729 3137 52310000 		.4byte	0x3152
 10730 313b 50       		.uleb128 0x50
 10731 313c 0C040000 		.4byte	.LASF534
 10732 3140 01       		.byte	0x1
 10733 3141 6C       		.byte	0x6c
 10734 3142 ED000000 		.4byte	0xed
 10735 3146 50       		.uleb128 0x50
 10736 3147 EE170000 		.4byte	.LASF455
 10737 314b 01       		.byte	0x1
 10738 314c 6C       		.byte	0x6c
 10739 314d 840A0000 		.4byte	0xa84
 10740 3151 00       		.byte	0
ARM GAS  C:\Users\EBANO_~1\AppData\Local\Temp\ccJkfoGk.s 			page 218


 10741 3152 52       		.uleb128 0x52
 10742 3153 FF110000 		.4byte	.LASF535
 10743 3157 01       		.byte	0x1
 10744 3158 62       		.byte	0x62
 10745 3159 01       		.byte	0x1
 10746 315a B1000000 		.4byte	0xb1
 10747 315e 01       		.byte	0x1
 10748 315f 9B310000 		.4byte	0x319b
 10749 3163 50       		.uleb128 0x50
 10750 3164 60100000 		.4byte	.LASF498
 10751 3168 01       		.byte	0x1
 10752 3169 62       		.byte	0x62
 10753 316a B1000000 		.4byte	0xb1
 10754 316e 50       		.uleb128 0x50
 10755 316f 9E090000 		.4byte	.LASF536
 10756 3173 01       		.byte	0x1
 10757 3174 62       		.byte	0x62
 10758 3175 B1000000 		.4byte	0xb1
 10759 3179 50       		.uleb128 0x50
 10760 317a BE040000 		.4byte	.LASF444
 10761 317e 01       		.byte	0x1
 10762 317f 62       		.byte	0x62
 10763 3180 B1000000 		.4byte	0xb1
 10764 3184 50       		.uleb128 0x50
 10765 3185 8C130000 		.4byte	.LASF529
 10766 3189 01       		.byte	0x1
 10767 318a 62       		.byte	0x62
 10768 318b 95110000 		.4byte	0x1195
 10769 318f 51       		.uleb128 0x51
 10770 3190 B6030000 		.4byte	.LASF537
 10771 3194 01       		.byte	0x1
 10772 3195 64       		.byte	0x64
 10773 3196 B1000000 		.4byte	0xb1
 10774 319a 00       		.byte	0
 10775 319b 52       		.uleb128 0x52
 10776 319c DA160000 		.4byte	.LASF538
 10777 31a0 01       		.byte	0x1
 10778 31a1 54       		.byte	0x54
 10779 31a2 01       		.byte	0x1
 10780 31a3 ED000000 		.4byte	0xed
 10781 31a7 01       		.byte	0x1
 10782 31a8 B8310000 		.4byte	0x31b8
 10783 31ac 50       		.uleb128 0x50
 10784 31ad E30A0000 		.4byte	.LASF539
 10785 31b1 01       		.byte	0x1
 10786 31b2 54       		.byte	0x54
 10787 31b3 ED000000 		.4byte	0xed
 10788 31b7 00       		.byte	0
 10789 31b8 52       		.uleb128 0x52
 10790 31b9 5A0E0000 		.4byte	.LASF540
 10791 31bd 01       		.byte	0x1
 10792 31be 45       		.byte	0x45
 10793 31bf 01       		.byte	0x1
 10794 31c0 B1000000 		.4byte	0xb1
 10795 31c4 01       		.byte	0x1
 10796 31c5 EA310000 		.4byte	0x31ea
 10797 31c9 55       		.uleb128 0x55
ARM GAS  C:\Users\EBANO_~1\AppData\Local\Temp\ccJkfoGk.s 			page 219


 10798 31ca 647200   		.ascii	"dr\000"
 10799 31cd 01       		.byte	0x1
 10800 31ce 45       		.byte	0x45
 10801 31cf B1000000 		.4byte	0xb1
 10802 31d3 50       		.uleb128 0x50
 10803 31d4 A20D0000 		.4byte	.LASF541
 10804 31d8 01       		.byte	0x1
 10805 31d9 45       		.byte	0x45
 10806 31da B1000000 		.4byte	0xb1
 10807 31de 51       		.uleb128 0x51
 10808 31df 3A1D0000 		.4byte	.LASF542
 10809 31e3 01       		.byte	0x1
 10810 31e4 47       		.byte	0x47
 10811 31e5 BC000000 		.4byte	0xbc
 10812 31e9 00       		.byte	0
 10813 31ea 56       		.uleb128 0x56
 10814 31eb 67300000 		.4byte	0x3067
 10815 31ef 00000000 		.4byte	.LFB44
 10816 31f3 08010000 		.4byte	.LFE44
 10817 31f7 23180000 		.4byte	.LLST0
 10818 31fb 01       		.byte	0x1
 10819 31fc 63320000 		.4byte	0x3263
 10820 3200 35       		.uleb128 0x35
 10821 3201 79300000 		.4byte	0x3079
 10822 3205 4F180000 		.4byte	.LLST1
 10823 3209 57       		.uleb128 0x57
 10824 320a 84300000 		.4byte	0x3084
 10825 320e 02       		.byte	0x2
 10826 320f 91       		.byte	0x91
 10827 3210 70       		.sleb128 -16
 10828 3211 58       		.uleb128 0x58
 10829 3212 B8310000 		.4byte	0x31b8
 10830 3216 7E000000 		.4byte	.LBB16
 10831 321a 88000000 		.4byte	.LBE16
 10832 321e 01       		.byte	0x1
 10833 321f D4       		.byte	0xd4
 10834 3220 4A320000 		.4byte	0x324a
 10835 3224 35       		.uleb128 0x35
 10836 3225 D3310000 		.4byte	0x31d3
 10837 3229 94180000 		.4byte	.LLST2
 10838 322d 35       		.uleb128 0x35
 10839 322e C9310000 		.4byte	0x31c9
 10840 3232 A8180000 		.4byte	.LLST3
 10841 3236 59       		.uleb128 0x59
 10842 3237 7E000000 		.4byte	.LBB17
 10843 323b 88000000 		.4byte	.LBE17
 10844 323f 40       		.uleb128 0x40
 10845 3240 DE310000 		.4byte	0x31de
 10846 3244 C8180000 		.4byte	.LLST4
 10847 3248 00       		.byte	0
 10848 3249 00       		.byte	0
 10849 324a 2D       		.uleb128 0x2d
 10850 324b A4000000 		.4byte	.LVL8
 10851 324f 19340000 		.4byte	0x3419
 10852 3253 2E       		.uleb128 0x2e
 10853 3254 01       		.byte	0x1
 10854 3255 50       		.byte	0x50
ARM GAS  C:\Users\EBANO_~1\AppData\Local\Temp\ccJkfoGk.s 			page 220


 10855 3256 03       		.byte	0x3
 10856 3257 0B       		.byte	0xb
 10857 3258 18FC     		.2byte	0xfc18
 10858 325a 2E       		.uleb128 0x2e
 10859 325b 01       		.byte	0x1
 10860 325c 51       		.byte	0x51
 10861 325d 03       		.byte	0x3
 10862 325e 0A       		.byte	0xa
 10863 325f E803     		.2byte	0x3e8
 10864 3261 00       		.byte	0
 10865 3262 00       		.byte	0
 10866 3263 56       		.uleb128 0x56
 10867 3264 81200000 		.4byte	0x2081
 10868 3268 00000000 		.4byte	.LFB62
 10869 326c 50010000 		.4byte	.LFE62
 10870 3270 F6180000 		.4byte	.LLST110
 10871 3274 01       		.byte	0x1
 10872 3275 49330000 		.4byte	0x3349
 10873 3279 35       		.uleb128 0x35
 10874 327a 94200000 		.4byte	0x2094
 10875 327e 22190000 		.4byte	.LLST111
 10876 3282 4E       		.uleb128 0x4e
 10877 3283 A0200000 		.4byte	0x20a0
 10878 3287 00       		.byte	0
 10879 3288 40       		.uleb128 0x40
 10880 3289 AC200000 		.4byte	0x20ac
 10881 328d 72190000 		.4byte	.LLST112
 10882 3291 40       		.uleb128 0x40
 10883 3292 B8200000 		.4byte	0x20b8
 10884 3296 D5190000 		.4byte	.LLST113
 10885 329a 40       		.uleb128 0x40
 10886 329b C4200000 		.4byte	0x20c4
 10887 329f 011A0000 		.4byte	.LLST114
 10888 32a3 34       		.uleb128 0x34
 10889 32a4 2A310000 		.4byte	0x312a
 10890 32a8 4E000000 		.4byte	.LBB177
 10891 32ac 88020000 		.4byte	.Ldebug_ranges0+0x288
 10892 32b0 01       		.byte	0x1
 10893 32b1 CE03     		.2byte	0x3ce
 10894 32b3 03330000 		.4byte	0x3303
 10895 32b7 35       		.uleb128 0x35
 10896 32b8 46310000 		.4byte	0x3146
 10897 32bc 1F1A0000 		.4byte	.LLST115
 10898 32c0 35       		.uleb128 0x35
 10899 32c1 3B310000 		.4byte	0x313b
 10900 32c5 571A0000 		.4byte	.LLST116
 10901 32c9 46       		.uleb128 0x46
 10902 32ca 2A310000 		.4byte	0x312a
 10903 32ce C0020000 		.4byte	.Ldebug_ranges0+0x2c0
 10904 32d2 E9320000 		.4byte	0x32e9
 10905 32d6 35       		.uleb128 0x35
 10906 32d7 46310000 		.4byte	0x3146
 10907 32db 791A0000 		.4byte	.LLST117
 10908 32df 35       		.uleb128 0x35
 10909 32e0 3B310000 		.4byte	0x313b
 10910 32e4 A11A0000 		.4byte	.LLST118
 10911 32e8 00       		.byte	0
ARM GAS  C:\Users\EBANO_~1\AppData\Local\Temp\ccJkfoGk.s 			page 221


 10912 32e9 47       		.uleb128 0x47
 10913 32ea 58000000 		.4byte	.LVL310
 10914 32ee F9320000 		.4byte	0x32f9
 10915 32f2 2E       		.uleb128 0x2e
 10916 32f3 01       		.byte	0x1
 10917 32f4 50       		.byte	0x50
 10918 32f5 02       		.byte	0x2
 10919 32f6 76       		.byte	0x76
 10920 32f7 00       		.sleb128 0
 10921 32f8 00       		.byte	0
 10922 32f9 48       		.uleb128 0x48
 10923 32fa AE000000 		.4byte	.LVL319
 10924 32fe 03       		.byte	0x3
 10925 32ff 91       		.byte	0x91
 10926 3300 64       		.sleb128 -28
 10927 3301 06       		.byte	0x6
 10928 3302 00       		.byte	0
 10929 3303 42       		.uleb128 0x42
 10930 3304 22000000 		.4byte	.LVL305
 10931 3308 D2330000 		.4byte	0x33d2
 10932 330c 1B330000 		.4byte	0x331b
 10933 3310 2E       		.uleb128 0x2e
 10934 3311 01       		.byte	0x1
 10935 3312 51       		.byte	0x51
 10936 3313 01       		.byte	0x1
 10937 3314 30       		.byte	0x30
 10938 3315 2E       		.uleb128 0x2e
 10939 3316 01       		.byte	0x1
 10940 3317 52       		.byte	0x52
 10941 3318 01       		.byte	0x1
 10942 3319 37       		.byte	0x37
 10943 331a 00       		.byte	0
 10944 331b 42       		.uleb128 0x42
 10945 331c 34000000 		.4byte	.LVL307
 10946 3320 D2330000 		.4byte	0x33d2
 10947 3324 33330000 		.4byte	0x3333
 10948 3328 2E       		.uleb128 0x2e
 10949 3329 01       		.byte	0x1
 10950 332a 51       		.byte	0x51
 10951 332b 01       		.byte	0x1
 10952 332c 30       		.byte	0x30
 10953 332d 2E       		.uleb128 0x2e
 10954 332e 01       		.byte	0x1
 10955 332f 52       		.byte	0x52
 10956 3330 01       		.byte	0x1
 10957 3331 37       		.byte	0x37
 10958 3332 00       		.byte	0
 10959 3333 2D       		.uleb128 0x2d
 10960 3334 F6000000 		.4byte	.LVL324
 10961 3338 42340000 		.4byte	0x3442
 10962 333c 2E       		.uleb128 0x2e
 10963 333d 01       		.byte	0x1
 10964 333e 50       		.byte	0x50
 10965 333f 02       		.byte	0x2
 10966 3340 74       		.byte	0x74
 10967 3341 00       		.sleb128 0
 10968 3342 2E       		.uleb128 0x2e
ARM GAS  C:\Users\EBANO_~1\AppData\Local\Temp\ccJkfoGk.s 			page 222


 10969 3343 01       		.byte	0x1
 10970 3344 52       		.byte	0x52
 10971 3345 01       		.byte	0x1
 10972 3346 3C       		.byte	0x3c
 10973 3347 00       		.byte	0
 10974 3348 00       		.byte	0
 10975 3349 56       		.uleb128 0x56
 10976 334a 50200000 		.4byte	0x2050
 10977 334e 00000000 		.4byte	.LFB63
 10978 3352 30000000 		.4byte	.LFE63
 10979 3356 E11A0000 		.4byte	.LLST119
 10980 335a 01       		.byte	0x1
 10981 335b B6330000 		.4byte	0x33b6
 10982 335f 35       		.uleb128 0x35
 10983 3360 63200000 		.4byte	0x2063
 10984 3364 011B0000 		.4byte	.LLST120
 10985 3368 40       		.uleb128 0x40
 10986 3369 6F200000 		.4byte	0x206f
 10987 336d 221B0000 		.4byte	.LLST121
 10988 3371 42       		.uleb128 0x42
 10989 3372 1C000000 		.4byte	.LVL332
 10990 3376 DF330000 		.4byte	0x33df
 10991 337a 99330000 		.4byte	0x3399
 10992 337e 2E       		.uleb128 0x2e
 10993 337f 01       		.byte	0x1
 10994 3380 50       		.byte	0x50
 10995 3381 0C       		.byte	0xc
 10996 3382 74       		.byte	0x74
 10997 3383 00       		.sleb128 0
 10998 3384 31       		.byte	0x31
 10999 3385 24       		.byte	0x24
 11000 3386 74       		.byte	0x74
 11001 3387 00       		.sleb128 0
 11002 3388 22       		.byte	0x22
 11003 3389 32       		.byte	0x32
 11004 338a 24       		.byte	0x24
 11005 338b 75       		.byte	0x75
 11006 338c 00       		.sleb128 0
 11007 338d 22       		.byte	0x22
 11008 338e 2E       		.uleb128 0x2e
 11009 338f 01       		.byte	0x1
 11010 3390 51       		.byte	0x51
 11011 3391 01       		.byte	0x1
 11012 3392 30       		.byte	0x30
 11013 3393 2E       		.uleb128 0x2e
 11014 3394 01       		.byte	0x1
 11015 3395 52       		.byte	0x52
 11016 3396 01       		.byte	0x1
 11017 3397 3C       		.byte	0x3c
 11018 3398 00       		.byte	0
 11019 3399 2D       		.uleb128 0x2d
 11020 339a 2A000000 		.4byte	.LVL333
 11021 339e 34340000 		.4byte	0x3434
 11022 33a2 2E       		.uleb128 0x2e
 11023 33a3 01       		.byte	0x1
 11024 33a4 50       		.byte	0x50
 11025 33a5 03       		.byte	0x3
ARM GAS  C:\Users\EBANO_~1\AppData\Local\Temp\ccJkfoGk.s 			page 223


 11026 33a6 75       		.byte	0x75
 11027 33a7 9002     		.sleb128 272
 11028 33a9 2E       		.uleb128 0x2e
 11029 33aa 01       		.byte	0x1
 11030 33ab 51       		.byte	0x51
 11031 33ac 02       		.byte	0x2
 11032 33ad 74       		.byte	0x74
 11033 33ae 00       		.sleb128 0
 11034 33af 2E       		.uleb128 0x2e
 11035 33b0 01       		.byte	0x1
 11036 33b1 52       		.byte	0x52
 11037 33b2 01       		.byte	0x1
 11038 33b3 40       		.byte	0x40
 11039 33b4 00       		.byte	0
 11040 33b5 00       		.byte	0
 11041 33b6 5A       		.uleb128 0x5a
 11042 33b7 01       		.byte	0x1
 11043 33b8 01       		.byte	0x1
 11044 33b9 8C1B0000 		.4byte	.LASF543
 11045 33bd 8C1B0000 		.4byte	.LASF543
 11046 33c1 10       		.byte	0x10
 11047 33c2 9F01     		.2byte	0x19f
 11048 33c4 5A       		.uleb128 0x5a
 11049 33c5 01       		.byte	0x1
 11050 33c6 01       		.byte	0x1
 11051 33c7 38160000 		.4byte	.LASF544
 11052 33cb 38160000 		.4byte	.LASF544
 11053 33cf 10       		.byte	0x10
 11054 33d0 9101     		.2byte	0x191
 11055 33d2 5B       		.uleb128 0x5b
 11056 33d3 01       		.byte	0x1
 11057 33d4 01       		.byte	0x1
 11058 33d5 6A160000 		.4byte	.LASF545
 11059 33d9 6A160000 		.4byte	.LASF545
 11060 33dd 10       		.byte	0x10
 11061 33de E1       		.byte	0xe1
 11062 33df 5C       		.uleb128 0x5c
 11063 33e0 01       		.byte	0x1
 11064 33e1 01       		.byte	0x1
 11065 33e2 36100000 		.4byte	.LASF564
 11066 33e6 50030000 		.4byte	.LASF565
 11067 33ea 13       		.byte	0x13
 11068 33eb 00       		.byte	0
 11069 33ec 36100000 		.4byte	.LASF564
 11070 33f0 5A       		.uleb128 0x5a
 11071 33f1 01       		.byte	0x1
 11072 33f2 01       		.byte	0x1
 11073 33f3 6B1D0000 		.4byte	.LASF546
 11074 33f7 6B1D0000 		.4byte	.LASF546
 11075 33fb 10       		.byte	0x10
 11076 33fc 1201     		.2byte	0x112
 11077 33fe 5B       		.uleb128 0x5b
 11078 33ff 01       		.byte	0x1
 11079 3400 01       		.byte	0x1
 11080 3401 56130000 		.4byte	.LASF547
 11081 3405 56130000 		.4byte	.LASF547
 11082 3409 12       		.byte	0x12
ARM GAS  C:\Users\EBANO_~1\AppData\Local\Temp\ccJkfoGk.s 			page 224


 11083 340a 94       		.byte	0x94
 11084 340b 5A       		.uleb128 0x5a
 11085 340c 01       		.byte	0x1
 11086 340d 01       		.byte	0x1
 11087 340e 680B0000 		.4byte	.LASF548
 11088 3412 680B0000 		.4byte	.LASF548
 11089 3416 10       		.byte	0x10
 11090 3417 3A01     		.2byte	0x13a
 11091 3419 5B       		.uleb128 0x5b
 11092 341a 01       		.byte	0x1
 11093 341b 01       		.byte	0x1
 11094 341c 01020000 		.4byte	.LASF549
 11095 3420 01020000 		.4byte	.LASF549
 11096 3424 0A       		.byte	0xa
 11097 3425 77       		.byte	0x77
 11098 3426 5A       		.uleb128 0x5a
 11099 3427 01       		.byte	0x1
 11100 3428 01       		.byte	0x1
 11101 3429 FB180000 		.4byte	.LASF550
 11102 342d FB180000 		.4byte	.LASF550
 11103 3431 10       		.byte	0x10
 11104 3432 9801     		.2byte	0x198
 11105 3434 5A       		.uleb128 0x5a
 11106 3435 01       		.byte	0x1
 11107 3436 01       		.byte	0x1
 11108 3437 44210000 		.4byte	.LASF551
 11109 343b 44210000 		.4byte	.LASF551
 11110 343f 10       		.byte	0x10
 11111 3440 0401     		.2byte	0x104
 11112 3442 5B       		.uleb128 0x5b
 11113 3443 01       		.byte	0x1
 11114 3444 01       		.byte	0x1
 11115 3445 88030000 		.4byte	.LASF552
 11116 3449 88030000 		.4byte	.LASF552
 11117 344d 0A       		.byte	0xa
 11118 344e 89       		.byte	0x89
 11119 344f 5A       		.uleb128 0x5a
 11120 3450 01       		.byte	0x1
 11121 3451 01       		.byte	0x1
 11122 3452 EB040000 		.4byte	.LASF553
 11123 3456 EB040000 		.4byte	.LASF553
 11124 345a 10       		.byte	0x10
 11125 345b 4801     		.2byte	0x148
 11126 345d 5A       		.uleb128 0x5a
 11127 345e 01       		.byte	0x1
 11128 345f 01       		.byte	0x1
 11129 3460 3D100000 		.4byte	.LASF554
 11130 3464 3D100000 		.4byte	.LASF554
 11131 3468 10       		.byte	0x10
 11132 3469 5801     		.2byte	0x158
 11133 346b 5B       		.uleb128 0x5b
 11134 346c 01       		.byte	0x1
 11135 346d 01       		.byte	0x1
 11136 346e 73170000 		.4byte	.LASF555
 11137 3472 73170000 		.4byte	.LASF555
 11138 3476 0A       		.byte	0xa
 11139 3477 9D       		.byte	0x9d
ARM GAS  C:\Users\EBANO_~1\AppData\Local\Temp\ccJkfoGk.s 			page 225


 11140 3478 5A       		.uleb128 0x5a
 11141 3479 01       		.byte	0x1
 11142 347a 01       		.byte	0x1
 11143 347b 7C150000 		.4byte	.LASF556
 11144 347f 7C150000 		.4byte	.LASF556
 11145 3483 10       		.byte	0x10
 11146 3484 6301     		.2byte	0x163
 11147 3486 5A       		.uleb128 0x5a
 11148 3487 01       		.byte	0x1
 11149 3488 01       		.byte	0x1
 11150 3489 3F1F0000 		.4byte	.LASF557
 11151 348d 3F1F0000 		.4byte	.LASF557
 11152 3491 10       		.byte	0x10
 11153 3492 8001     		.2byte	0x180
 11154 3494 5A       		.uleb128 0x5a
 11155 3495 01       		.byte	0x1
 11156 3496 01       		.byte	0x1
 11157 3497 6F140000 		.4byte	.LASF558
 11158 349b 6F140000 		.4byte	.LASF558
 11159 349f 10       		.byte	0x10
 11160 34a0 6E01     		.2byte	0x16e
 11161 34a2 5A       		.uleb128 0x5a
 11162 34a3 01       		.byte	0x1
 11163 34a4 01       		.byte	0x1
 11164 34a5 AF060000 		.4byte	.LASF559
 11165 34a9 AF060000 		.4byte	.LASF559
 11166 34ad 10       		.byte	0x10
 11167 34ae 1E01     		.2byte	0x11e
 11168 34b0 5A       		.uleb128 0x5a
 11169 34b1 01       		.byte	0x1
 11170 34b2 01       		.byte	0x1
 11171 34b3 2D130000 		.4byte	.LASF560
 11172 34b7 2D130000 		.4byte	.LASF560
 11173 34bb 10       		.byte	0x10
 11174 34bc 2A01     		.2byte	0x12a
 11175 34be 00       		.byte	0
 11176              		.section	.debug_abbrev,"",%progbits
 11177              	.Ldebug_abbrev0:
 11178 0000 01       		.uleb128 0x1
 11179 0001 11       		.uleb128 0x11
 11180 0002 01       		.byte	0x1
 11181 0003 25       		.uleb128 0x25
 11182 0004 0E       		.uleb128 0xe
 11183 0005 13       		.uleb128 0x13
 11184 0006 0B       		.uleb128 0xb
 11185 0007 03       		.uleb128 0x3
 11186 0008 0E       		.uleb128 0xe
 11187 0009 1B       		.uleb128 0x1b
 11188 000a 0E       		.uleb128 0xe
 11189 000b 55       		.uleb128 0x55
 11190 000c 06       		.uleb128 0x6
 11191 000d 11       		.uleb128 0x11
 11192 000e 01       		.uleb128 0x1
 11193 000f 52       		.uleb128 0x52
 11194 0010 01       		.uleb128 0x1
 11195 0011 10       		.uleb128 0x10
 11196 0012 06       		.uleb128 0x6
ARM GAS  C:\Users\EBANO_~1\AppData\Local\Temp\ccJkfoGk.s 			page 226


 11197 0013 00       		.byte	0
 11198 0014 00       		.byte	0
 11199 0015 02       		.uleb128 0x2
 11200 0016 24       		.uleb128 0x24
 11201 0017 00       		.byte	0
 11202 0018 0B       		.uleb128 0xb
 11203 0019 0B       		.uleb128 0xb
 11204 001a 3E       		.uleb128 0x3e
 11205 001b 0B       		.uleb128 0xb
 11206 001c 03       		.uleb128 0x3
 11207 001d 0E       		.uleb128 0xe
 11208 001e 00       		.byte	0
 11209 001f 00       		.byte	0
 11210 0020 03       		.uleb128 0x3
 11211 0021 16       		.uleb128 0x16
 11212 0022 00       		.byte	0
 11213 0023 03       		.uleb128 0x3
 11214 0024 0E       		.uleb128 0xe
 11215 0025 3A       		.uleb128 0x3a
 11216 0026 0B       		.uleb128 0xb
 11217 0027 3B       		.uleb128 0x3b
 11218 0028 0B       		.uleb128 0xb
 11219 0029 49       		.uleb128 0x49
 11220 002a 13       		.uleb128 0x13
 11221 002b 00       		.byte	0
 11222 002c 00       		.byte	0
 11223 002d 04       		.uleb128 0x4
 11224 002e 24       		.uleb128 0x24
 11225 002f 00       		.byte	0
 11226 0030 0B       		.uleb128 0xb
 11227 0031 0B       		.uleb128 0xb
 11228 0032 3E       		.uleb128 0x3e
 11229 0033 0B       		.uleb128 0xb
 11230 0034 03       		.uleb128 0x3
 11231 0035 08       		.uleb128 0x8
 11232 0036 00       		.byte	0
 11233 0037 00       		.byte	0
 11234 0038 05       		.uleb128 0x5
 11235 0039 26       		.uleb128 0x26
 11236 003a 00       		.byte	0
 11237 003b 49       		.uleb128 0x49
 11238 003c 13       		.uleb128 0x13
 11239 003d 00       		.byte	0
 11240 003e 00       		.byte	0
 11241 003f 06       		.uleb128 0x6
 11242 0040 34       		.uleb128 0x34
 11243 0041 00       		.byte	0
 11244 0042 03       		.uleb128 0x3
 11245 0043 0E       		.uleb128 0xe
 11246 0044 3A       		.uleb128 0x3a
 11247 0045 0B       		.uleb128 0xb
 11248 0046 3B       		.uleb128 0x3b
 11249 0047 0B       		.uleb128 0xb
 11250 0048 49       		.uleb128 0x49
 11251 0049 13       		.uleb128 0x13
 11252 004a 3F       		.uleb128 0x3f
 11253 004b 0C       		.uleb128 0xc
ARM GAS  C:\Users\EBANO_~1\AppData\Local\Temp\ccJkfoGk.s 			page 227


 11254 004c 3C       		.uleb128 0x3c
 11255 004d 0C       		.uleb128 0xc
 11256 004e 00       		.byte	0
 11257 004f 00       		.byte	0
 11258 0050 07       		.uleb128 0x7
 11259 0051 01       		.uleb128 0x1
 11260 0052 01       		.byte	0x1
 11261 0053 49       		.uleb128 0x49
 11262 0054 13       		.uleb128 0x13
 11263 0055 01       		.uleb128 0x1
 11264 0056 13       		.uleb128 0x13
 11265 0057 00       		.byte	0
 11266 0058 00       		.byte	0
 11267 0059 08       		.uleb128 0x8
 11268 005a 21       		.uleb128 0x21
 11269 005b 00       		.byte	0
 11270 005c 49       		.uleb128 0x49
 11271 005d 13       		.uleb128 0x13
 11272 005e 2F       		.uleb128 0x2f
 11273 005f 0B       		.uleb128 0xb
 11274 0060 00       		.byte	0
 11275 0061 00       		.byte	0
 11276 0062 09       		.uleb128 0x9
 11277 0063 0F       		.uleb128 0xf
 11278 0064 00       		.byte	0
 11279 0065 0B       		.uleb128 0xb
 11280 0066 0B       		.uleb128 0xb
 11281 0067 00       		.byte	0
 11282 0068 00       		.byte	0
 11283 0069 0A       		.uleb128 0xa
 11284 006a 0F       		.uleb128 0xf
 11285 006b 00       		.byte	0
 11286 006c 0B       		.uleb128 0xb
 11287 006d 0B       		.uleb128 0xb
 11288 006e 49       		.uleb128 0x49
 11289 006f 13       		.uleb128 0x13
 11290 0070 00       		.byte	0
 11291 0071 00       		.byte	0
 11292 0072 0B       		.uleb128 0xb
 11293 0073 13       		.uleb128 0x13
 11294 0074 00       		.byte	0
 11295 0075 03       		.uleb128 0x3
 11296 0076 0E       		.uleb128 0xe
 11297 0077 3C       		.uleb128 0x3c
 11298 0078 0C       		.uleb128 0xc
 11299 0079 00       		.byte	0
 11300 007a 00       		.byte	0
 11301 007b 0C       		.uleb128 0xc
 11302 007c 16       		.uleb128 0x16
 11303 007d 00       		.byte	0
 11304 007e 03       		.uleb128 0x3
 11305 007f 0E       		.uleb128 0xe
 11306 0080 3A       		.uleb128 0x3a
 11307 0081 0B       		.uleb128 0xb
 11308 0082 3B       		.uleb128 0x3b
 11309 0083 05       		.uleb128 0x5
 11310 0084 49       		.uleb128 0x49
ARM GAS  C:\Users\EBANO_~1\AppData\Local\Temp\ccJkfoGk.s 			page 228


 11311 0085 13       		.uleb128 0x13
 11312 0086 00       		.byte	0
 11313 0087 00       		.byte	0
 11314 0088 0D       		.uleb128 0xd
 11315 0089 17       		.uleb128 0x17
 11316 008a 01       		.byte	0x1
 11317 008b 0B       		.uleb128 0xb
 11318 008c 0B       		.uleb128 0xb
 11319 008d 3A       		.uleb128 0x3a
 11320 008e 0B       		.uleb128 0xb
 11321 008f 3B       		.uleb128 0x3b
 11322 0090 0B       		.uleb128 0xb
 11323 0091 01       		.uleb128 0x1
 11324 0092 13       		.uleb128 0x13
 11325 0093 00       		.byte	0
 11326 0094 00       		.byte	0
 11327 0095 0E       		.uleb128 0xe
 11328 0096 0D       		.uleb128 0xd
 11329 0097 00       		.byte	0
 11330 0098 03       		.uleb128 0x3
 11331 0099 0E       		.uleb128 0xe
 11332 009a 3A       		.uleb128 0x3a
 11333 009b 0B       		.uleb128 0xb
 11334 009c 3B       		.uleb128 0x3b
 11335 009d 0B       		.uleb128 0xb
 11336 009e 49       		.uleb128 0x49
 11337 009f 13       		.uleb128 0x13
 11338 00a0 00       		.byte	0
 11339 00a1 00       		.byte	0
 11340 00a2 0F       		.uleb128 0xf
 11341 00a3 13       		.uleb128 0x13
 11342 00a4 01       		.byte	0x1
 11343 00a5 0B       		.uleb128 0xb
 11344 00a6 0B       		.uleb128 0xb
 11345 00a7 3A       		.uleb128 0x3a
 11346 00a8 0B       		.uleb128 0xb
 11347 00a9 3B       		.uleb128 0x3b
 11348 00aa 0B       		.uleb128 0xb
 11349 00ab 01       		.uleb128 0x1
 11350 00ac 13       		.uleb128 0x13
 11351 00ad 00       		.byte	0
 11352 00ae 00       		.byte	0
 11353 00af 10       		.uleb128 0x10
 11354 00b0 0D       		.uleb128 0xd
 11355 00b1 00       		.byte	0
 11356 00b2 03       		.uleb128 0x3
 11357 00b3 0E       		.uleb128 0xe
 11358 00b4 3A       		.uleb128 0x3a
 11359 00b5 0B       		.uleb128 0xb
 11360 00b6 3B       		.uleb128 0x3b
 11361 00b7 0B       		.uleb128 0xb
 11362 00b8 49       		.uleb128 0x49
 11363 00b9 13       		.uleb128 0x13
 11364 00ba 38       		.uleb128 0x38
 11365 00bb 0A       		.uleb128 0xa
 11366 00bc 00       		.byte	0
 11367 00bd 00       		.byte	0
ARM GAS  C:\Users\EBANO_~1\AppData\Local\Temp\ccJkfoGk.s 			page 229


 11368 00be 11       		.uleb128 0x11
 11369 00bf 13       		.uleb128 0x13
 11370 00c0 01       		.byte	0x1
 11371 00c1 03       		.uleb128 0x3
 11372 00c2 0E       		.uleb128 0xe
 11373 00c3 0B       		.uleb128 0xb
 11374 00c4 0B       		.uleb128 0xb
 11375 00c5 3A       		.uleb128 0x3a
 11376 00c6 0B       		.uleb128 0xb
 11377 00c7 3B       		.uleb128 0x3b
 11378 00c8 0B       		.uleb128 0xb
 11379 00c9 01       		.uleb128 0x1
 11380 00ca 13       		.uleb128 0x13
 11381 00cb 00       		.byte	0
 11382 00cc 00       		.byte	0
 11383 00cd 12       		.uleb128 0x12
 11384 00ce 0D       		.uleb128 0xd
 11385 00cf 00       		.byte	0
 11386 00d0 03       		.uleb128 0x3
 11387 00d1 08       		.uleb128 0x8
 11388 00d2 3A       		.uleb128 0x3a
 11389 00d3 0B       		.uleb128 0xb
 11390 00d4 3B       		.uleb128 0x3b
 11391 00d5 0B       		.uleb128 0xb
 11392 00d6 49       		.uleb128 0x49
 11393 00d7 13       		.uleb128 0x13
 11394 00d8 38       		.uleb128 0x38
 11395 00d9 0A       		.uleb128 0xa
 11396 00da 00       		.byte	0
 11397 00db 00       		.byte	0
 11398 00dc 13       		.uleb128 0x13
 11399 00dd 13       		.uleb128 0x13
 11400 00de 01       		.byte	0x1
 11401 00df 03       		.uleb128 0x3
 11402 00e0 0E       		.uleb128 0xe
 11403 00e1 0B       		.uleb128 0xb
 11404 00e2 05       		.uleb128 0x5
 11405 00e3 3A       		.uleb128 0x3a
 11406 00e4 0B       		.uleb128 0xb
 11407 00e5 3B       		.uleb128 0x3b
 11408 00e6 0B       		.uleb128 0xb
 11409 00e7 01       		.uleb128 0x1
 11410 00e8 13       		.uleb128 0x13
 11411 00e9 00       		.byte	0
 11412 00ea 00       		.byte	0
 11413 00eb 14       		.uleb128 0x14
 11414 00ec 15       		.uleb128 0x15
 11415 00ed 00       		.byte	0
 11416 00ee 27       		.uleb128 0x27
 11417 00ef 0C       		.uleb128 0xc
 11418 00f0 00       		.byte	0
 11419 00f1 00       		.byte	0
 11420 00f2 15       		.uleb128 0x15
 11421 00f3 15       		.uleb128 0x15
 11422 00f4 01       		.byte	0x1
 11423 00f5 27       		.uleb128 0x27
 11424 00f6 0C       		.uleb128 0xc
ARM GAS  C:\Users\EBANO_~1\AppData\Local\Temp\ccJkfoGk.s 			page 230


 11425 00f7 49       		.uleb128 0x49
 11426 00f8 13       		.uleb128 0x13
 11427 00f9 01       		.uleb128 0x1
 11428 00fa 13       		.uleb128 0x13
 11429 00fb 00       		.byte	0
 11430 00fc 00       		.byte	0
 11431 00fd 16       		.uleb128 0x16
 11432 00fe 05       		.uleb128 0x5
 11433 00ff 00       		.byte	0
 11434 0100 49       		.uleb128 0x49
 11435 0101 13       		.uleb128 0x13
 11436 0102 00       		.byte	0
 11437 0103 00       		.byte	0
 11438 0104 17       		.uleb128 0x17
 11439 0105 13       		.uleb128 0x13
 11440 0106 01       		.byte	0x1
 11441 0107 03       		.uleb128 0x3
 11442 0108 0E       		.uleb128 0xe
 11443 0109 0B       		.uleb128 0xb
 11444 010a 05       		.uleb128 0x5
 11445 010b 3A       		.uleb128 0x3a
 11446 010c 0B       		.uleb128 0xb
 11447 010d 3B       		.uleb128 0x3b
 11448 010e 05       		.uleb128 0x5
 11449 010f 01       		.uleb128 0x1
 11450 0110 13       		.uleb128 0x13
 11451 0111 00       		.byte	0
 11452 0112 00       		.byte	0
 11453 0113 18       		.uleb128 0x18
 11454 0114 0D       		.uleb128 0xd
 11455 0115 00       		.byte	0
 11456 0116 03       		.uleb128 0x3
 11457 0117 0E       		.uleb128 0xe
 11458 0118 3A       		.uleb128 0x3a
 11459 0119 0B       		.uleb128 0xb
 11460 011a 3B       		.uleb128 0x3b
 11461 011b 05       		.uleb128 0x5
 11462 011c 49       		.uleb128 0x49
 11463 011d 13       		.uleb128 0x13
 11464 011e 38       		.uleb128 0x38
 11465 011f 0A       		.uleb128 0xa
 11466 0120 00       		.byte	0
 11467 0121 00       		.byte	0
 11468 0122 19       		.uleb128 0x19
 11469 0123 13       		.uleb128 0x13
 11470 0124 01       		.byte	0x1
 11471 0125 03       		.uleb128 0x3
 11472 0126 0E       		.uleb128 0xe
 11473 0127 0B       		.uleb128 0xb
 11474 0128 0B       		.uleb128 0xb
 11475 0129 3A       		.uleb128 0x3a
 11476 012a 0B       		.uleb128 0xb
 11477 012b 3B       		.uleb128 0x3b
 11478 012c 05       		.uleb128 0x5
 11479 012d 01       		.uleb128 0x1
 11480 012e 13       		.uleb128 0x13
 11481 012f 00       		.byte	0
ARM GAS  C:\Users\EBANO_~1\AppData\Local\Temp\ccJkfoGk.s 			page 231


 11482 0130 00       		.byte	0
 11483 0131 1A       		.uleb128 0x1a
 11484 0132 13       		.uleb128 0x13
 11485 0133 01       		.byte	0x1
 11486 0134 0B       		.uleb128 0xb
 11487 0135 0B       		.uleb128 0xb
 11488 0136 3A       		.uleb128 0x3a
 11489 0137 0B       		.uleb128 0xb
 11490 0138 3B       		.uleb128 0x3b
 11491 0139 05       		.uleb128 0x5
 11492 013a 01       		.uleb128 0x1
 11493 013b 13       		.uleb128 0x13
 11494 013c 00       		.byte	0
 11495 013d 00       		.byte	0
 11496 013e 1B       		.uleb128 0x1b
 11497 013f 17       		.uleb128 0x17
 11498 0140 01       		.byte	0x1
 11499 0141 0B       		.uleb128 0xb
 11500 0142 0B       		.uleb128 0xb
 11501 0143 3A       		.uleb128 0x3a
 11502 0144 0B       		.uleb128 0xb
 11503 0145 3B       		.uleb128 0x3b
 11504 0146 05       		.uleb128 0x5
 11505 0147 01       		.uleb128 0x1
 11506 0148 13       		.uleb128 0x13
 11507 0149 00       		.byte	0
 11508 014a 00       		.byte	0
 11509 014b 1C       		.uleb128 0x1c
 11510 014c 0D       		.uleb128 0xd
 11511 014d 00       		.byte	0
 11512 014e 03       		.uleb128 0x3
 11513 014f 0E       		.uleb128 0xe
 11514 0150 3A       		.uleb128 0x3a
 11515 0151 0B       		.uleb128 0xb
 11516 0152 3B       		.uleb128 0x3b
 11517 0153 05       		.uleb128 0x5
 11518 0154 49       		.uleb128 0x49
 11519 0155 13       		.uleb128 0x13
 11520 0156 00       		.byte	0
 11521 0157 00       		.byte	0
 11522 0158 1D       		.uleb128 0x1d
 11523 0159 15       		.uleb128 0x15
 11524 015a 01       		.byte	0x1
 11525 015b 27       		.uleb128 0x27
 11526 015c 0C       		.uleb128 0xc
 11527 015d 01       		.uleb128 0x1
 11528 015e 13       		.uleb128 0x13
 11529 015f 00       		.byte	0
 11530 0160 00       		.byte	0
 11531 0161 1E       		.uleb128 0x1e
 11532 0162 34       		.uleb128 0x34
 11533 0163 00       		.byte	0
 11534 0164 03       		.uleb128 0x3
 11535 0165 0E       		.uleb128 0xe
 11536 0166 3A       		.uleb128 0x3a
 11537 0167 0B       		.uleb128 0xb
 11538 0168 3B       		.uleb128 0x3b
ARM GAS  C:\Users\EBANO_~1\AppData\Local\Temp\ccJkfoGk.s 			page 232


 11539 0169 05       		.uleb128 0x5
 11540 016a 49       		.uleb128 0x49
 11541 016b 13       		.uleb128 0x13
 11542 016c 3F       		.uleb128 0x3f
 11543 016d 0C       		.uleb128 0xc
 11544 016e 3C       		.uleb128 0x3c
 11545 016f 0C       		.uleb128 0xc
 11546 0170 00       		.byte	0
 11547 0171 00       		.byte	0
 11548 0172 1F       		.uleb128 0x1f
 11549 0173 17       		.uleb128 0x17
 11550 0174 01       		.byte	0x1
 11551 0175 03       		.uleb128 0x3
 11552 0176 0E       		.uleb128 0xe
 11553 0177 0B       		.uleb128 0xb
 11554 0178 0B       		.uleb128 0xb
 11555 0179 3A       		.uleb128 0x3a
 11556 017a 0B       		.uleb128 0xb
 11557 017b 3B       		.uleb128 0x3b
 11558 017c 0B       		.uleb128 0xb
 11559 017d 01       		.uleb128 0x1
 11560 017e 13       		.uleb128 0x13
 11561 017f 00       		.byte	0
 11562 0180 00       		.byte	0
 11563 0181 20       		.uleb128 0x20
 11564 0182 04       		.uleb128 0x4
 11565 0183 01       		.byte	0x1
 11566 0184 3E       		.uleb128 0x3e
 11567 0185 0B       		.uleb128 0xb
 11568 0186 0B       		.uleb128 0xb
 11569 0187 0B       		.uleb128 0xb
 11570 0188 49       		.uleb128 0x49
 11571 0189 13       		.uleb128 0x13
 11572 018a 3A       		.uleb128 0x3a
 11573 018b 0B       		.uleb128 0xb
 11574 018c 3B       		.uleb128 0x3b
 11575 018d 0B       		.uleb128 0xb
 11576 018e 01       		.uleb128 0x1
 11577 018f 13       		.uleb128 0x13
 11578 0190 00       		.byte	0
 11579 0191 00       		.byte	0
 11580 0192 21       		.uleb128 0x21
 11581 0193 28       		.uleb128 0x28
 11582 0194 00       		.byte	0
 11583 0195 03       		.uleb128 0x3
 11584 0196 0E       		.uleb128 0xe
 11585 0197 1C       		.uleb128 0x1c
 11586 0198 0B       		.uleb128 0xb
 11587 0199 00       		.byte	0
 11588 019a 00       		.byte	0
 11589 019b 22       		.uleb128 0x22
 11590 019c 0D       		.uleb128 0xd
 11591 019d 00       		.byte	0
 11592 019e 03       		.uleb128 0x3
 11593 019f 08       		.uleb128 0x8
 11594 01a0 3A       		.uleb128 0x3a
 11595 01a1 0B       		.uleb128 0xb
ARM GAS  C:\Users\EBANO_~1\AppData\Local\Temp\ccJkfoGk.s 			page 233


 11596 01a2 3B       		.uleb128 0x3b
 11597 01a3 05       		.uleb128 0x5
 11598 01a4 49       		.uleb128 0x49
 11599 01a5 13       		.uleb128 0x13
 11600 01a6 38       		.uleb128 0x38
 11601 01a7 0A       		.uleb128 0xa
 11602 01a8 00       		.byte	0
 11603 01a9 00       		.byte	0
 11604 01aa 23       		.uleb128 0x23
 11605 01ab 15       		.uleb128 0x15
 11606 01ac 00       		.byte	0
 11607 01ad 27       		.uleb128 0x27
 11608 01ae 0C       		.uleb128 0xc
 11609 01af 49       		.uleb128 0x49
 11610 01b0 13       		.uleb128 0x13
 11611 01b1 00       		.byte	0
 11612 01b2 00       		.byte	0
 11613 01b3 24       		.uleb128 0x24
 11614 01b4 0D       		.uleb128 0xd
 11615 01b5 00       		.byte	0
 11616 01b6 03       		.uleb128 0x3
 11617 01b7 08       		.uleb128 0x8
 11618 01b8 3A       		.uleb128 0x3a
 11619 01b9 0B       		.uleb128 0xb
 11620 01ba 3B       		.uleb128 0x3b
 11621 01bb 0B       		.uleb128 0xb
 11622 01bc 49       		.uleb128 0x49
 11623 01bd 13       		.uleb128 0x13
 11624 01be 0B       		.uleb128 0xb
 11625 01bf 0B       		.uleb128 0xb
 11626 01c0 0D       		.uleb128 0xd
 11627 01c1 0B       		.uleb128 0xb
 11628 01c2 0C       		.uleb128 0xc
 11629 01c3 0B       		.uleb128 0xb
 11630 01c4 38       		.uleb128 0x38
 11631 01c5 0A       		.uleb128 0xa
 11632 01c6 00       		.byte	0
 11633 01c7 00       		.byte	0
 11634 01c8 25       		.uleb128 0x25
 11635 01c9 04       		.uleb128 0x4
 11636 01ca 01       		.byte	0x1
 11637 01cb 03       		.uleb128 0x3
 11638 01cc 0E       		.uleb128 0xe
 11639 01cd 3E       		.uleb128 0x3e
 11640 01ce 0B       		.uleb128 0xb
 11641 01cf 0B       		.uleb128 0xb
 11642 01d0 0B       		.uleb128 0xb
 11643 01d1 49       		.uleb128 0x49
 11644 01d2 13       		.uleb128 0x13
 11645 01d3 3A       		.uleb128 0x3a
 11646 01d4 0B       		.uleb128 0xb
 11647 01d5 3B       		.uleb128 0x3b
 11648 01d6 0B       		.uleb128 0xb
 11649 01d7 01       		.uleb128 0x1
 11650 01d8 13       		.uleb128 0x13
 11651 01d9 00       		.byte	0
 11652 01da 00       		.byte	0
ARM GAS  C:\Users\EBANO_~1\AppData\Local\Temp\ccJkfoGk.s 			page 234


 11653 01db 26       		.uleb128 0x26
 11654 01dc 04       		.uleb128 0x4
 11655 01dd 01       		.byte	0x1
 11656 01de 03       		.uleb128 0x3
 11657 01df 0E       		.uleb128 0xe
 11658 01e0 3E       		.uleb128 0x3e
 11659 01e1 0B       		.uleb128 0xb
 11660 01e2 0B       		.uleb128 0xb
 11661 01e3 0B       		.uleb128 0xb
 11662 01e4 49       		.uleb128 0x49
 11663 01e5 13       		.uleb128 0x13
 11664 01e6 3A       		.uleb128 0x3a
 11665 01e7 0B       		.uleb128 0xb
 11666 01e8 3B       		.uleb128 0x3b
 11667 01e9 05       		.uleb128 0x5
 11668 01ea 01       		.uleb128 0x1
 11669 01eb 13       		.uleb128 0x13
 11670 01ec 00       		.byte	0
 11671 01ed 00       		.byte	0
 11672 01ee 27       		.uleb128 0x27
 11673 01ef 34       		.uleb128 0x34
 11674 01f0 00       		.byte	0
 11675 01f1 03       		.uleb128 0x3
 11676 01f2 0E       		.uleb128 0xe
 11677 01f3 3A       		.uleb128 0x3a
 11678 01f4 0B       		.uleb128 0xb
 11679 01f5 3B       		.uleb128 0x3b
 11680 01f6 05       		.uleb128 0x5
 11681 01f7 49       		.uleb128 0x49
 11682 01f8 13       		.uleb128 0x13
 11683 01f9 1C       		.uleb128 0x1c
 11684 01fa 0A       		.uleb128 0xa
 11685 01fb 00       		.byte	0
 11686 01fc 00       		.byte	0
 11687 01fd 28       		.uleb128 0x28
 11688 01fe 17       		.uleb128 0x17
 11689 01ff 01       		.byte	0x1
 11690 0200 03       		.uleb128 0x3
 11691 0201 0E       		.uleb128 0xe
 11692 0202 0B       		.uleb128 0xb
 11693 0203 0B       		.uleb128 0xb
 11694 0204 3A       		.uleb128 0x3a
 11695 0205 0B       		.uleb128 0xb
 11696 0206 3B       		.uleb128 0x3b
 11697 0207 05       		.uleb128 0x5
 11698 0208 01       		.uleb128 0x1
 11699 0209 13       		.uleb128 0x13
 11700 020a 00       		.byte	0
 11701 020b 00       		.byte	0
 11702 020c 29       		.uleb128 0x29
 11703 020d 34       		.uleb128 0x34
 11704 020e 00       		.byte	0
 11705 020f 03       		.uleb128 0x3
 11706 0210 0E       		.uleb128 0xe
 11707 0211 3A       		.uleb128 0x3a
 11708 0212 0B       		.uleb128 0xb
 11709 0213 3B       		.uleb128 0x3b
ARM GAS  C:\Users\EBANO_~1\AppData\Local\Temp\ccJkfoGk.s 			page 235


 11710 0214 05       		.uleb128 0x5
 11711 0215 49       		.uleb128 0x49
 11712 0216 13       		.uleb128 0x13
 11713 0217 02       		.uleb128 0x2
 11714 0218 0A       		.uleb128 0xa
 11715 0219 00       		.byte	0
 11716 021a 00       		.byte	0
 11717 021b 2A       		.uleb128 0x2a
 11718 021c 34       		.uleb128 0x34
 11719 021d 00       		.byte	0
 11720 021e 03       		.uleb128 0x3
 11721 021f 0E       		.uleb128 0xe
 11722 0220 3A       		.uleb128 0x3a
 11723 0221 0B       		.uleb128 0xb
 11724 0222 3B       		.uleb128 0x3b
 11725 0223 0B       		.uleb128 0xb
 11726 0224 49       		.uleb128 0x49
 11727 0225 13       		.uleb128 0x13
 11728 0226 02       		.uleb128 0x2
 11729 0227 0A       		.uleb128 0xa
 11730 0228 00       		.byte	0
 11731 0229 00       		.byte	0
 11732 022a 2B       		.uleb128 0x2b
 11733 022b 2E       		.uleb128 0x2e
 11734 022c 01       		.byte	0x1
 11735 022d 3F       		.uleb128 0x3f
 11736 022e 0C       		.uleb128 0xc
 11737 022f 03       		.uleb128 0x3
 11738 0230 0E       		.uleb128 0xe
 11739 0231 3A       		.uleb128 0x3a
 11740 0232 0B       		.uleb128 0xb
 11741 0233 3B       		.uleb128 0x3b
 11742 0234 05       		.uleb128 0x5
 11743 0235 27       		.uleb128 0x27
 11744 0236 0C       		.uleb128 0xc
 11745 0237 11       		.uleb128 0x11
 11746 0238 01       		.uleb128 0x1
 11747 0239 12       		.uleb128 0x12
 11748 023a 01       		.uleb128 0x1
 11749 023b 40       		.uleb128 0x40
 11750 023c 06       		.uleb128 0x6
 11751 023d 9742     		.uleb128 0x2117
 11752 023f 0C       		.uleb128 0xc
 11753 0240 01       		.uleb128 0x1
 11754 0241 13       		.uleb128 0x13
 11755 0242 00       		.byte	0
 11756 0243 00       		.byte	0
 11757 0244 2C       		.uleb128 0x2c
 11758 0245 05       		.uleb128 0x5
 11759 0246 00       		.byte	0
 11760 0247 03       		.uleb128 0x3
 11761 0248 0E       		.uleb128 0xe
 11762 0249 3A       		.uleb128 0x3a
 11763 024a 0B       		.uleb128 0xb
 11764 024b 3B       		.uleb128 0x3b
 11765 024c 05       		.uleb128 0x5
 11766 024d 49       		.uleb128 0x49
ARM GAS  C:\Users\EBANO_~1\AppData\Local\Temp\ccJkfoGk.s 			page 236


 11767 024e 13       		.uleb128 0x13
 11768 024f 02       		.uleb128 0x2
 11769 0250 06       		.uleb128 0x6
 11770 0251 00       		.byte	0
 11771 0252 00       		.byte	0
 11772 0253 2D       		.uleb128 0x2d
 11773 0254 898201   		.uleb128 0x4109
 11774 0257 01       		.byte	0x1
 11775 0258 11       		.uleb128 0x11
 11776 0259 01       		.uleb128 0x1
 11777 025a 31       		.uleb128 0x31
 11778 025b 13       		.uleb128 0x13
 11779 025c 00       		.byte	0
 11780 025d 00       		.byte	0
 11781 025e 2E       		.uleb128 0x2e
 11782 025f 8A8201   		.uleb128 0x410a
 11783 0262 00       		.byte	0
 11784 0263 02       		.uleb128 0x2
 11785 0264 0A       		.uleb128 0xa
 11786 0265 9142     		.uleb128 0x2111
 11787 0267 0A       		.uleb128 0xa
 11788 0268 00       		.byte	0
 11789 0269 00       		.byte	0
 11790 026a 2F       		.uleb128 0x2f
 11791 026b 2E       		.uleb128 0x2e
 11792 026c 01       		.byte	0x1
 11793 026d 3F       		.uleb128 0x3f
 11794 026e 0C       		.uleb128 0xc
 11795 026f 03       		.uleb128 0x3
 11796 0270 0E       		.uleb128 0xe
 11797 0271 3A       		.uleb128 0x3a
 11798 0272 0B       		.uleb128 0xb
 11799 0273 3B       		.uleb128 0x3b
 11800 0274 05       		.uleb128 0x5
 11801 0275 27       		.uleb128 0x27
 11802 0276 0C       		.uleb128 0xc
 11803 0277 49       		.uleb128 0x49
 11804 0278 13       		.uleb128 0x13
 11805 0279 11       		.uleb128 0x11
 11806 027a 01       		.uleb128 0x1
 11807 027b 12       		.uleb128 0x12
 11808 027c 01       		.uleb128 0x1
 11809 027d 40       		.uleb128 0x40
 11810 027e 0A       		.uleb128 0xa
 11811 027f 9742     		.uleb128 0x2117
 11812 0281 0C       		.uleb128 0xc
 11813 0282 01       		.uleb128 0x1
 11814 0283 13       		.uleb128 0x13
 11815 0284 00       		.byte	0
 11816 0285 00       		.byte	0
 11817 0286 30       		.uleb128 0x30
 11818 0287 05       		.uleb128 0x5
 11819 0288 00       		.byte	0
 11820 0289 03       		.uleb128 0x3
 11821 028a 08       		.uleb128 0x8
 11822 028b 3A       		.uleb128 0x3a
 11823 028c 0B       		.uleb128 0xb
ARM GAS  C:\Users\EBANO_~1\AppData\Local\Temp\ccJkfoGk.s 			page 237


 11824 028d 3B       		.uleb128 0x3b
 11825 028e 05       		.uleb128 0x5
 11826 028f 49       		.uleb128 0x49
 11827 0290 13       		.uleb128 0x13
 11828 0291 02       		.uleb128 0x2
 11829 0292 06       		.uleb128 0x6
 11830 0293 00       		.byte	0
 11831 0294 00       		.byte	0
 11832 0295 31       		.uleb128 0x31
 11833 0296 05       		.uleb128 0x5
 11834 0297 00       		.byte	0
 11835 0298 03       		.uleb128 0x3
 11836 0299 0E       		.uleb128 0xe
 11837 029a 3A       		.uleb128 0x3a
 11838 029b 0B       		.uleb128 0xb
 11839 029c 3B       		.uleb128 0x3b
 11840 029d 05       		.uleb128 0x5
 11841 029e 49       		.uleb128 0x49
 11842 029f 13       		.uleb128 0x13
 11843 02a0 02       		.uleb128 0x2
 11844 02a1 0A       		.uleb128 0xa
 11845 02a2 00       		.byte	0
 11846 02a3 00       		.byte	0
 11847 02a4 32       		.uleb128 0x32
 11848 02a5 34       		.uleb128 0x34
 11849 02a6 00       		.byte	0
 11850 02a7 03       		.uleb128 0x3
 11851 02a8 0E       		.uleb128 0xe
 11852 02a9 3A       		.uleb128 0x3a
 11853 02aa 0B       		.uleb128 0xb
 11854 02ab 3B       		.uleb128 0x3b
 11855 02ac 05       		.uleb128 0x5
 11856 02ad 49       		.uleb128 0x49
 11857 02ae 13       		.uleb128 0x13
 11858 02af 00       		.byte	0
 11859 02b0 00       		.byte	0
 11860 02b1 33       		.uleb128 0x33
 11861 02b2 34       		.uleb128 0x34
 11862 02b3 00       		.byte	0
 11863 02b4 03       		.uleb128 0x3
 11864 02b5 0E       		.uleb128 0xe
 11865 02b6 3A       		.uleb128 0x3a
 11866 02b7 0B       		.uleb128 0xb
 11867 02b8 3B       		.uleb128 0x3b
 11868 02b9 05       		.uleb128 0x5
 11869 02ba 49       		.uleb128 0x49
 11870 02bb 13       		.uleb128 0x13
 11871 02bc 02       		.uleb128 0x2
 11872 02bd 06       		.uleb128 0x6
 11873 02be 00       		.byte	0
 11874 02bf 00       		.byte	0
 11875 02c0 34       		.uleb128 0x34
 11876 02c1 1D       		.uleb128 0x1d
 11877 02c2 01       		.byte	0x1
 11878 02c3 31       		.uleb128 0x31
 11879 02c4 13       		.uleb128 0x13
 11880 02c5 52       		.uleb128 0x52
ARM GAS  C:\Users\EBANO_~1\AppData\Local\Temp\ccJkfoGk.s 			page 238


 11881 02c6 01       		.uleb128 0x1
 11882 02c7 55       		.uleb128 0x55
 11883 02c8 06       		.uleb128 0x6
 11884 02c9 58       		.uleb128 0x58
 11885 02ca 0B       		.uleb128 0xb
 11886 02cb 59       		.uleb128 0x59
 11887 02cc 05       		.uleb128 0x5
 11888 02cd 01       		.uleb128 0x1
 11889 02ce 13       		.uleb128 0x13
 11890 02cf 00       		.byte	0
 11891 02d0 00       		.byte	0
 11892 02d1 35       		.uleb128 0x35
 11893 02d2 05       		.uleb128 0x5
 11894 02d3 00       		.byte	0
 11895 02d4 31       		.uleb128 0x31
 11896 02d5 13       		.uleb128 0x13
 11897 02d6 02       		.uleb128 0x2
 11898 02d7 06       		.uleb128 0x6
 11899 02d8 00       		.byte	0
 11900 02d9 00       		.byte	0
 11901 02da 36       		.uleb128 0x36
 11902 02db 05       		.uleb128 0x5
 11903 02dc 00       		.byte	0
 11904 02dd 31       		.uleb128 0x31
 11905 02de 13       		.uleb128 0x13
 11906 02df 02       		.uleb128 0x2
 11907 02e0 0A       		.uleb128 0xa
 11908 02e1 00       		.byte	0
 11909 02e2 00       		.byte	0
 11910 02e3 37       		.uleb128 0x37
 11911 02e4 05       		.uleb128 0x5
 11912 02e5 00       		.byte	0
 11913 02e6 31       		.uleb128 0x31
 11914 02e7 13       		.uleb128 0x13
 11915 02e8 00       		.byte	0
 11916 02e9 00       		.byte	0
 11917 02ea 38       		.uleb128 0x38
 11918 02eb 0B       		.uleb128 0xb
 11919 02ec 01       		.byte	0x1
 11920 02ed 55       		.uleb128 0x55
 11921 02ee 06       		.uleb128 0x6
 11922 02ef 00       		.byte	0
 11923 02f0 00       		.byte	0
 11924 02f1 39       		.uleb128 0x39
 11925 02f2 34       		.uleb128 0x34
 11926 02f3 00       		.byte	0
 11927 02f4 31       		.uleb128 0x31
 11928 02f5 13       		.uleb128 0x13
 11929 02f6 00       		.byte	0
 11930 02f7 00       		.byte	0
 11931 02f8 3A       		.uleb128 0x3a
 11932 02f9 898201   		.uleb128 0x4109
 11933 02fc 00       		.byte	0
 11934 02fd 11       		.uleb128 0x11
 11935 02fe 01       		.uleb128 0x1
 11936 02ff 31       		.uleb128 0x31
 11937 0300 13       		.uleb128 0x13
ARM GAS  C:\Users\EBANO_~1\AppData\Local\Temp\ccJkfoGk.s 			page 239


 11938 0301 00       		.byte	0
 11939 0302 00       		.byte	0
 11940 0303 3B       		.uleb128 0x3b
 11941 0304 898201   		.uleb128 0x4109
 11942 0307 01       		.byte	0x1
 11943 0308 11       		.uleb128 0x11
 11944 0309 01       		.uleb128 0x1
 11945 030a 00       		.byte	0
 11946 030b 00       		.byte	0
 11947 030c 3C       		.uleb128 0x3c
 11948 030d 2E       		.uleb128 0x2e
 11949 030e 01       		.byte	0x1
 11950 030f 3F       		.uleb128 0x3f
 11951 0310 0C       		.uleb128 0xc
 11952 0311 03       		.uleb128 0x3
 11953 0312 0E       		.uleb128 0xe
 11954 0313 3A       		.uleb128 0x3a
 11955 0314 0B       		.uleb128 0xb
 11956 0315 3B       		.uleb128 0x3b
 11957 0316 05       		.uleb128 0x5
 11958 0317 27       		.uleb128 0x27
 11959 0318 0C       		.uleb128 0xc
 11960 0319 49       		.uleb128 0x49
 11961 031a 13       		.uleb128 0x13
 11962 031b 20       		.uleb128 0x20
 11963 031c 0B       		.uleb128 0xb
 11964 031d 01       		.uleb128 0x1
 11965 031e 13       		.uleb128 0x13
 11966 031f 00       		.byte	0
 11967 0320 00       		.byte	0
 11968 0321 3D       		.uleb128 0x3d
 11969 0322 05       		.uleb128 0x5
 11970 0323 00       		.byte	0
 11971 0324 03       		.uleb128 0x3
 11972 0325 0E       		.uleb128 0xe
 11973 0326 3A       		.uleb128 0x3a
 11974 0327 0B       		.uleb128 0xb
 11975 0328 3B       		.uleb128 0x3b
 11976 0329 05       		.uleb128 0x5
 11977 032a 49       		.uleb128 0x49
 11978 032b 13       		.uleb128 0x13
 11979 032c 00       		.byte	0
 11980 032d 00       		.byte	0
 11981 032e 3E       		.uleb128 0x3e
 11982 032f 34       		.uleb128 0x34
 11983 0330 00       		.byte	0
 11984 0331 03       		.uleb128 0x3
 11985 0332 08       		.uleb128 0x8
 11986 0333 3A       		.uleb128 0x3a
 11987 0334 0B       		.uleb128 0xb
 11988 0335 3B       		.uleb128 0x3b
 11989 0336 05       		.uleb128 0x5
 11990 0337 49       		.uleb128 0x49
 11991 0338 13       		.uleb128 0x13
 11992 0339 00       		.byte	0
 11993 033a 00       		.byte	0
 11994 033b 3F       		.uleb128 0x3f
ARM GAS  C:\Users\EBANO_~1\AppData\Local\Temp\ccJkfoGk.s 			page 240


 11995 033c 2E       		.uleb128 0x2e
 11996 033d 01       		.byte	0x1
 11997 033e 3F       		.uleb128 0x3f
 11998 033f 0C       		.uleb128 0xc
 11999 0340 03       		.uleb128 0x3
 12000 0341 0E       		.uleb128 0xe
 12001 0342 3A       		.uleb128 0x3a
 12002 0343 0B       		.uleb128 0xb
 12003 0344 3B       		.uleb128 0x3b
 12004 0345 05       		.uleb128 0x5
 12005 0346 27       		.uleb128 0x27
 12006 0347 0C       		.uleb128 0xc
 12007 0348 49       		.uleb128 0x49
 12008 0349 13       		.uleb128 0x13
 12009 034a 11       		.uleb128 0x11
 12010 034b 01       		.uleb128 0x1
 12011 034c 12       		.uleb128 0x12
 12012 034d 01       		.uleb128 0x1
 12013 034e 40       		.uleb128 0x40
 12014 034f 06       		.uleb128 0x6
 12015 0350 9742     		.uleb128 0x2117
 12016 0352 0C       		.uleb128 0xc
 12017 0353 01       		.uleb128 0x1
 12018 0354 13       		.uleb128 0x13
 12019 0355 00       		.byte	0
 12020 0356 00       		.byte	0
 12021 0357 40       		.uleb128 0x40
 12022 0358 34       		.uleb128 0x34
 12023 0359 00       		.byte	0
 12024 035a 31       		.uleb128 0x31
 12025 035b 13       		.uleb128 0x13
 12026 035c 02       		.uleb128 0x2
 12027 035d 06       		.uleb128 0x6
 12028 035e 00       		.byte	0
 12029 035f 00       		.byte	0
 12030 0360 41       		.uleb128 0x41
 12031 0361 0B       		.uleb128 0xb
 12032 0362 01       		.byte	0x1
 12033 0363 31       		.uleb128 0x31
 12034 0364 13       		.uleb128 0x13
 12035 0365 55       		.uleb128 0x55
 12036 0366 06       		.uleb128 0x6
 12037 0367 00       		.byte	0
 12038 0368 00       		.byte	0
 12039 0369 42       		.uleb128 0x42
 12040 036a 898201   		.uleb128 0x4109
 12041 036d 01       		.byte	0x1
 12042 036e 11       		.uleb128 0x11
 12043 036f 01       		.uleb128 0x1
 12044 0370 31       		.uleb128 0x31
 12045 0371 13       		.uleb128 0x13
 12046 0372 01       		.uleb128 0x1
 12047 0373 13       		.uleb128 0x13
 12048 0374 00       		.byte	0
 12049 0375 00       		.byte	0
 12050 0376 43       		.uleb128 0x43
 12051 0377 1D       		.uleb128 0x1d
ARM GAS  C:\Users\EBANO_~1\AppData\Local\Temp\ccJkfoGk.s 			page 241


 12052 0378 01       		.byte	0x1
 12053 0379 31       		.uleb128 0x31
 12054 037a 13       		.uleb128 0x13
 12055 037b 52       		.uleb128 0x52
 12056 037c 01       		.uleb128 0x1
 12057 037d 55       		.uleb128 0x55
 12058 037e 06       		.uleb128 0x6
 12059 037f 58       		.uleb128 0x58
 12060 0380 0B       		.uleb128 0xb
 12061 0381 59       		.uleb128 0x59
 12062 0382 05       		.uleb128 0x5
 12063 0383 00       		.byte	0
 12064 0384 00       		.byte	0
 12065 0385 44       		.uleb128 0x44
 12066 0386 0B       		.uleb128 0xb
 12067 0387 01       		.byte	0x1
 12068 0388 31       		.uleb128 0x31
 12069 0389 13       		.uleb128 0x13
 12070 038a 11       		.uleb128 0x11
 12071 038b 01       		.uleb128 0x1
 12072 038c 12       		.uleb128 0x12
 12073 038d 01       		.uleb128 0x1
 12074 038e 01       		.uleb128 0x1
 12075 038f 13       		.uleb128 0x13
 12076 0390 00       		.byte	0
 12077 0391 00       		.byte	0
 12078 0392 45       		.uleb128 0x45
 12079 0393 34       		.uleb128 0x34
 12080 0394 00       		.byte	0
 12081 0395 03       		.uleb128 0x3
 12082 0396 0E       		.uleb128 0xe
 12083 0397 3A       		.uleb128 0x3a
 12084 0398 0B       		.uleb128 0xb
 12085 0399 3B       		.uleb128 0x3b
 12086 039a 05       		.uleb128 0x5
 12087 039b 49       		.uleb128 0x49
 12088 039c 13       		.uleb128 0x13
 12089 039d 1C       		.uleb128 0x1c
 12090 039e 0B       		.uleb128 0xb
 12091 039f 00       		.byte	0
 12092 03a0 00       		.byte	0
 12093 03a1 46       		.uleb128 0x46
 12094 03a2 0B       		.uleb128 0xb
 12095 03a3 01       		.byte	0x1
 12096 03a4 31       		.uleb128 0x31
 12097 03a5 13       		.uleb128 0x13
 12098 03a6 55       		.uleb128 0x55
 12099 03a7 06       		.uleb128 0x6
 12100 03a8 01       		.uleb128 0x1
 12101 03a9 13       		.uleb128 0x13
 12102 03aa 00       		.byte	0
 12103 03ab 00       		.byte	0
 12104 03ac 47       		.uleb128 0x47
 12105 03ad 898201   		.uleb128 0x4109
 12106 03b0 01       		.byte	0x1
 12107 03b1 11       		.uleb128 0x11
 12108 03b2 01       		.uleb128 0x1
ARM GAS  C:\Users\EBANO_~1\AppData\Local\Temp\ccJkfoGk.s 			page 242


 12109 03b3 01       		.uleb128 0x1
 12110 03b4 13       		.uleb128 0x13
 12111 03b5 00       		.byte	0
 12112 03b6 00       		.byte	0
 12113 03b7 48       		.uleb128 0x48
 12114 03b8 898201   		.uleb128 0x4109
 12115 03bb 00       		.byte	0
 12116 03bc 11       		.uleb128 0x11
 12117 03bd 01       		.uleb128 0x1
 12118 03be 9342     		.uleb128 0x2113
 12119 03c0 0A       		.uleb128 0xa
 12120 03c1 00       		.byte	0
 12121 03c2 00       		.byte	0
 12122 03c3 49       		.uleb128 0x49
 12123 03c4 0B       		.uleb128 0xb
 12124 03c5 01       		.byte	0x1
 12125 03c6 55       		.uleb128 0x55
 12126 03c7 06       		.uleb128 0x6
 12127 03c8 01       		.uleb128 0x1
 12128 03c9 13       		.uleb128 0x13
 12129 03ca 00       		.byte	0
 12130 03cb 00       		.byte	0
 12131 03cc 4A       		.uleb128 0x4a
 12132 03cd 34       		.uleb128 0x34
 12133 03ce 00       		.byte	0
 12134 03cf 03       		.uleb128 0x3
 12135 03d0 08       		.uleb128 0x8
 12136 03d1 3A       		.uleb128 0x3a
 12137 03d2 0B       		.uleb128 0xb
 12138 03d3 3B       		.uleb128 0x3b
 12139 03d4 05       		.uleb128 0x5
 12140 03d5 49       		.uleb128 0x49
 12141 03d6 13       		.uleb128 0x13
 12142 03d7 02       		.uleb128 0x2
 12143 03d8 06       		.uleb128 0x6
 12144 03d9 00       		.byte	0
 12145 03da 00       		.byte	0
 12146 03db 4B       		.uleb128 0x4b
 12147 03dc 898201   		.uleb128 0x4109
 12148 03df 01       		.byte	0x1
 12149 03e0 11       		.uleb128 0x11
 12150 03e1 01       		.uleb128 0x1
 12151 03e2 9342     		.uleb128 0x2113
 12152 03e4 0A       		.uleb128 0xa
 12153 03e5 01       		.uleb128 0x1
 12154 03e6 13       		.uleb128 0x13
 12155 03e7 00       		.byte	0
 12156 03e8 00       		.byte	0
 12157 03e9 4C       		.uleb128 0x4c
 12158 03ea 898201   		.uleb128 0x4109
 12159 03ed 01       		.byte	0x1
 12160 03ee 11       		.uleb128 0x11
 12161 03ef 01       		.uleb128 0x1
 12162 03f0 9342     		.uleb128 0x2113
 12163 03f2 0A       		.uleb128 0xa
 12164 03f3 00       		.byte	0
 12165 03f4 00       		.byte	0
ARM GAS  C:\Users\EBANO_~1\AppData\Local\Temp\ccJkfoGk.s 			page 243


 12166 03f5 4D       		.uleb128 0x4d
 12167 03f6 898201   		.uleb128 0x4109
 12168 03f9 00       		.byte	0
 12169 03fa 11       		.uleb128 0x11
 12170 03fb 01       		.uleb128 0x1
 12171 03fc 00       		.byte	0
 12172 03fd 00       		.byte	0
 12173 03fe 4E       		.uleb128 0x4e
 12174 03ff 34       		.uleb128 0x34
 12175 0400 00       		.byte	0
 12176 0401 31       		.uleb128 0x31
 12177 0402 13       		.uleb128 0x13
 12178 0403 1C       		.uleb128 0x1c
 12179 0404 0B       		.uleb128 0xb
 12180 0405 00       		.byte	0
 12181 0406 00       		.byte	0
 12182 0407 4F       		.uleb128 0x4f
 12183 0408 2E       		.uleb128 0x2e
 12184 0409 01       		.byte	0x1
 12185 040a 3F       		.uleb128 0x3f
 12186 040b 0C       		.uleb128 0xc
 12187 040c 03       		.uleb128 0x3
 12188 040d 0E       		.uleb128 0xe
 12189 040e 3A       		.uleb128 0x3a
 12190 040f 0B       		.uleb128 0xb
 12191 0410 3B       		.uleb128 0x3b
 12192 0411 0B       		.uleb128 0xb
 12193 0412 27       		.uleb128 0x27
 12194 0413 0C       		.uleb128 0xc
 12195 0414 49       		.uleb128 0x49
 12196 0415 13       		.uleb128 0x13
 12197 0416 20       		.uleb128 0x20
 12198 0417 0B       		.uleb128 0xb
 12199 0418 01       		.uleb128 0x1
 12200 0419 13       		.uleb128 0x13
 12201 041a 00       		.byte	0
 12202 041b 00       		.byte	0
 12203 041c 50       		.uleb128 0x50
 12204 041d 05       		.uleb128 0x5
 12205 041e 00       		.byte	0
 12206 041f 03       		.uleb128 0x3
 12207 0420 0E       		.uleb128 0xe
 12208 0421 3A       		.uleb128 0x3a
 12209 0422 0B       		.uleb128 0xb
 12210 0423 3B       		.uleb128 0x3b
 12211 0424 0B       		.uleb128 0xb
 12212 0425 49       		.uleb128 0x49
 12213 0426 13       		.uleb128 0x13
 12214 0427 00       		.byte	0
 12215 0428 00       		.byte	0
 12216 0429 51       		.uleb128 0x51
 12217 042a 34       		.uleb128 0x34
 12218 042b 00       		.byte	0
 12219 042c 03       		.uleb128 0x3
 12220 042d 0E       		.uleb128 0xe
 12221 042e 3A       		.uleb128 0x3a
 12222 042f 0B       		.uleb128 0xb
ARM GAS  C:\Users\EBANO_~1\AppData\Local\Temp\ccJkfoGk.s 			page 244


 12223 0430 3B       		.uleb128 0x3b
 12224 0431 0B       		.uleb128 0xb
 12225 0432 49       		.uleb128 0x49
 12226 0433 13       		.uleb128 0x13
 12227 0434 00       		.byte	0
 12228 0435 00       		.byte	0
 12229 0436 52       		.uleb128 0x52
 12230 0437 2E       		.uleb128 0x2e
 12231 0438 01       		.byte	0x1
 12232 0439 03       		.uleb128 0x3
 12233 043a 0E       		.uleb128 0xe
 12234 043b 3A       		.uleb128 0x3a
 12235 043c 0B       		.uleb128 0xb
 12236 043d 3B       		.uleb128 0x3b
 12237 043e 0B       		.uleb128 0xb
 12238 043f 27       		.uleb128 0x27
 12239 0440 0C       		.uleb128 0xc
 12240 0441 49       		.uleb128 0x49
 12241 0442 13       		.uleb128 0x13
 12242 0443 20       		.uleb128 0x20
 12243 0444 0B       		.uleb128 0xb
 12244 0445 01       		.uleb128 0x1
 12245 0446 13       		.uleb128 0x13
 12246 0447 00       		.byte	0
 12247 0448 00       		.byte	0
 12248 0449 53       		.uleb128 0x53
 12249 044a 0B       		.uleb128 0xb
 12250 044b 01       		.byte	0x1
 12251 044c 00       		.byte	0
 12252 044d 00       		.byte	0
 12253 044e 54       		.uleb128 0x54
 12254 044f 34       		.uleb128 0x34
 12255 0450 00       		.byte	0
 12256 0451 03       		.uleb128 0x3
 12257 0452 08       		.uleb128 0x8
 12258 0453 3A       		.uleb128 0x3a
 12259 0454 0B       		.uleb128 0xb
 12260 0455 3B       		.uleb128 0x3b
 12261 0456 0B       		.uleb128 0xb
 12262 0457 49       		.uleb128 0x49
 12263 0458 13       		.uleb128 0x13
 12264 0459 00       		.byte	0
 12265 045a 00       		.byte	0
 12266 045b 55       		.uleb128 0x55
 12267 045c 05       		.uleb128 0x5
 12268 045d 00       		.byte	0
 12269 045e 03       		.uleb128 0x3
 12270 045f 08       		.uleb128 0x8
 12271 0460 3A       		.uleb128 0x3a
 12272 0461 0B       		.uleb128 0xb
 12273 0462 3B       		.uleb128 0x3b
 12274 0463 0B       		.uleb128 0xb
 12275 0464 49       		.uleb128 0x49
 12276 0465 13       		.uleb128 0x13
 12277 0466 00       		.byte	0
 12278 0467 00       		.byte	0
 12279 0468 56       		.uleb128 0x56
ARM GAS  C:\Users\EBANO_~1\AppData\Local\Temp\ccJkfoGk.s 			page 245


 12280 0469 2E       		.uleb128 0x2e
 12281 046a 01       		.byte	0x1
 12282 046b 31       		.uleb128 0x31
 12283 046c 13       		.uleb128 0x13
 12284 046d 11       		.uleb128 0x11
 12285 046e 01       		.uleb128 0x1
 12286 046f 12       		.uleb128 0x12
 12287 0470 01       		.uleb128 0x1
 12288 0471 40       		.uleb128 0x40
 12289 0472 06       		.uleb128 0x6
 12290 0473 9742     		.uleb128 0x2117
 12291 0475 0C       		.uleb128 0xc
 12292 0476 01       		.uleb128 0x1
 12293 0477 13       		.uleb128 0x13
 12294 0478 00       		.byte	0
 12295 0479 00       		.byte	0
 12296 047a 57       		.uleb128 0x57
 12297 047b 34       		.uleb128 0x34
 12298 047c 00       		.byte	0
 12299 047d 31       		.uleb128 0x31
 12300 047e 13       		.uleb128 0x13
 12301 047f 02       		.uleb128 0x2
 12302 0480 0A       		.uleb128 0xa
 12303 0481 00       		.byte	0
 12304 0482 00       		.byte	0
 12305 0483 58       		.uleb128 0x58
 12306 0484 1D       		.uleb128 0x1d
 12307 0485 01       		.byte	0x1
 12308 0486 31       		.uleb128 0x31
 12309 0487 13       		.uleb128 0x13
 12310 0488 11       		.uleb128 0x11
 12311 0489 01       		.uleb128 0x1
 12312 048a 12       		.uleb128 0x12
 12313 048b 01       		.uleb128 0x1
 12314 048c 58       		.uleb128 0x58
 12315 048d 0B       		.uleb128 0xb
 12316 048e 59       		.uleb128 0x59
 12317 048f 0B       		.uleb128 0xb
 12318 0490 01       		.uleb128 0x1
 12319 0491 13       		.uleb128 0x13
 12320 0492 00       		.byte	0
 12321 0493 00       		.byte	0
 12322 0494 59       		.uleb128 0x59
 12323 0495 0B       		.uleb128 0xb
 12324 0496 01       		.byte	0x1
 12325 0497 11       		.uleb128 0x11
 12326 0498 01       		.uleb128 0x1
 12327 0499 12       		.uleb128 0x12
 12328 049a 01       		.uleb128 0x1
 12329 049b 00       		.byte	0
 12330 049c 00       		.byte	0
 12331 049d 5A       		.uleb128 0x5a
 12332 049e 2E       		.uleb128 0x2e
 12333 049f 00       		.byte	0
 12334 04a0 3F       		.uleb128 0x3f
 12335 04a1 0C       		.uleb128 0xc
 12336 04a2 3C       		.uleb128 0x3c
ARM GAS  C:\Users\EBANO_~1\AppData\Local\Temp\ccJkfoGk.s 			page 246


 12337 04a3 0C       		.uleb128 0xc
 12338 04a4 8740     		.uleb128 0x2007
 12339 04a6 0E       		.uleb128 0xe
 12340 04a7 03       		.uleb128 0x3
 12341 04a8 0E       		.uleb128 0xe
 12342 04a9 3A       		.uleb128 0x3a
 12343 04aa 0B       		.uleb128 0xb
 12344 04ab 3B       		.uleb128 0x3b
 12345 04ac 05       		.uleb128 0x5
 12346 04ad 00       		.byte	0
 12347 04ae 00       		.byte	0
 12348 04af 5B       		.uleb128 0x5b
 12349 04b0 2E       		.uleb128 0x2e
 12350 04b1 00       		.byte	0
 12351 04b2 3F       		.uleb128 0x3f
 12352 04b3 0C       		.uleb128 0xc
 12353 04b4 3C       		.uleb128 0x3c
 12354 04b5 0C       		.uleb128 0xc
 12355 04b6 8740     		.uleb128 0x2007
 12356 04b8 0E       		.uleb128 0xe
 12357 04b9 03       		.uleb128 0x3
 12358 04ba 0E       		.uleb128 0xe
 12359 04bb 3A       		.uleb128 0x3a
 12360 04bc 0B       		.uleb128 0xb
 12361 04bd 3B       		.uleb128 0x3b
 12362 04be 0B       		.uleb128 0xb
 12363 04bf 00       		.byte	0
 12364 04c0 00       		.byte	0
 12365 04c1 5C       		.uleb128 0x5c
 12366 04c2 2E       		.uleb128 0x2e
 12367 04c3 00       		.byte	0
 12368 04c4 3F       		.uleb128 0x3f
 12369 04c5 0C       		.uleb128 0xc
 12370 04c6 3C       		.uleb128 0x3c
 12371 04c7 0C       		.uleb128 0xc
 12372 04c8 8740     		.uleb128 0x2007
 12373 04ca 0E       		.uleb128 0xe
 12374 04cb 03       		.uleb128 0x3
 12375 04cc 0E       		.uleb128 0xe
 12376 04cd 3A       		.uleb128 0x3a
 12377 04ce 0B       		.uleb128 0xb
 12378 04cf 3B       		.uleb128 0x3b
 12379 04d0 0B       		.uleb128 0xb
 12380 04d1 8740     		.uleb128 0x2007
 12381 04d3 0E       		.uleb128 0xe
 12382 04d4 00       		.byte	0
 12383 04d5 00       		.byte	0
 12384 04d6 00       		.byte	0
 12385              		.section	.debug_loc,"",%progbits
 12386              	.Ldebug_loc0:
 12387              	.LLST129:
 12388 0000 00000000 		.4byte	.LFB66
 12389 0004 02000000 		.4byte	.LCFI39
 12390 0008 0200     		.2byte	0x2
 12391 000a 7D       		.byte	0x7d
 12392 000b 00       		.sleb128 0
 12393 000c 02000000 		.4byte	.LCFI39
ARM GAS  C:\Users\EBANO_~1\AppData\Local\Temp\ccJkfoGk.s 			page 247


 12394 0010 06000000 		.4byte	.LCFI40
 12395 0014 0200     		.2byte	0x2
 12396 0016 7D       		.byte	0x7d
 12397 0017 08       		.sleb128 8
 12398 0018 06000000 		.4byte	.LCFI40
 12399 001c 38000000 		.4byte	.LFE66
 12400 0020 0200     		.2byte	0x2
 12401 0022 7D       		.byte	0x7d
 12402 0023 20       		.sleb128 32
 12403 0024 00000000 		.4byte	0
 12404 0028 00000000 		.4byte	0
 12405              	.LLST130:
 12406 002c 00000000 		.4byte	.LVL348
 12407 0030 22000000 		.4byte	.LVL349
 12408 0034 0100     		.2byte	0x1
 12409 0036 50       		.byte	0x50
 12410 0037 22000000 		.4byte	.LVL349
 12411 003b 38000000 		.4byte	.LFE66
 12412 003f 0400     		.2byte	0x4
 12413 0041 F3       		.byte	0xf3
 12414 0042 01       		.uleb128 0x1
 12415 0043 50       		.byte	0x50
 12416 0044 9F       		.byte	0x9f
 12417 0045 00000000 		.4byte	0
 12418 0049 00000000 		.4byte	0
 12419              	.LLST131:
 12420 004d 00000000 		.4byte	.LVL348
 12421 0051 27000000 		.4byte	.LVL350-1
 12422 0055 0100     		.2byte	0x1
 12423 0057 51       		.byte	0x51
 12424 0058 27000000 		.4byte	.LVL350-1
 12425 005c 2E000000 		.4byte	.LVL351
 12426 0060 0100     		.2byte	0x1
 12427 0062 54       		.byte	0x54
 12428 0063 2E000000 		.4byte	.LVL351
 12429 0067 38000000 		.4byte	.LFE66
 12430 006b 0400     		.2byte	0x4
 12431 006d F3       		.byte	0xf3
 12432 006e 01       		.uleb128 0x1
 12433 006f 51       		.byte	0x51
 12434 0070 9F       		.byte	0x9f
 12435 0071 00000000 		.4byte	0
 12436 0075 00000000 		.4byte	0
 12437              	.LLST127:
 12438 0079 00000000 		.4byte	.LVL344
 12439 007d 06000000 		.4byte	.LVL347
 12440 0081 0100     		.2byte	0x1
 12441 0083 50       		.byte	0x50
 12442 0084 06000000 		.4byte	.LVL347
 12443 0088 0E000000 		.4byte	.LFE65
 12444 008c 0400     		.2byte	0x4
 12445 008e F3       		.byte	0xf3
 12446 008f 01       		.uleb128 0x1
 12447 0090 50       		.byte	0x50
 12448 0091 9F       		.byte	0x9f
 12449 0092 00000000 		.4byte	0
 12450 0096 00000000 		.4byte	0
ARM GAS  C:\Users\EBANO_~1\AppData\Local\Temp\ccJkfoGk.s 			page 248


 12451              	.LLST128:
 12452 009a 00000000 		.4byte	.LVL344
 12453 009e 02000000 		.4byte	.LVL345
 12454 00a2 0100     		.2byte	0x1
 12455 00a4 51       		.byte	0x51
 12456 00a5 02000000 		.4byte	.LVL345
 12457 00a9 0E000000 		.4byte	.LFE65
 12458 00ad 0400     		.2byte	0x4
 12459 00af F3       		.byte	0xf3
 12460 00b0 01       		.uleb128 0x1
 12461 00b1 51       		.byte	0x51
 12462 00b2 9F       		.byte	0x9f
 12463 00b3 00000000 		.4byte	0
 12464 00b7 00000000 		.4byte	0
 12465              	.LLST122:
 12466 00bb 00000000 		.4byte	.LFB64
 12467 00bf 02000000 		.4byte	.LCFI37
 12468 00c3 0200     		.2byte	0x2
 12469 00c5 7D       		.byte	0x7d
 12470 00c6 00       		.sleb128 0
 12471 00c7 02000000 		.4byte	.LCFI37
 12472 00cb 26000000 		.4byte	.LCFI38
 12473 00cf 0200     		.2byte	0x2
 12474 00d1 7D       		.byte	0x7d
 12475 00d2 14       		.sleb128 20
 12476 00d3 26000000 		.4byte	.LCFI38
 12477 00d7 50000000 		.4byte	.LFE64
 12478 00db 0200     		.2byte	0x2
 12479 00dd 7D       		.byte	0x7d
 12480 00de 20       		.sleb128 32
 12481 00df 00000000 		.4byte	0
 12482 00e3 00000000 		.4byte	0
 12483              	.LLST123:
 12484 00e7 00000000 		.4byte	.LVL335
 12485 00eb 08000000 		.4byte	.LVL337
 12486 00ef 0100     		.2byte	0x1
 12487 00f1 50       		.byte	0x50
 12488 00f2 08000000 		.4byte	.LVL337
 12489 00f6 46000000 		.4byte	.LVL342
 12490 00fa 0100     		.2byte	0x1
 12491 00fc 54       		.byte	0x54
 12492 00fd 46000000 		.4byte	.LVL342
 12493 0101 50000000 		.4byte	.LFE64
 12494 0105 0400     		.2byte	0x4
 12495 0107 F3       		.byte	0xf3
 12496 0108 01       		.uleb128 0x1
 12497 0109 50       		.byte	0x50
 12498 010a 9F       		.byte	0x9f
 12499 010b 00000000 		.4byte	0
 12500 010f 00000000 		.4byte	0
 12501              	.LLST124:
 12502 0113 06000000 		.4byte	.LVL336
 12503 0117 3A000000 		.4byte	.LVL340
 12504 011b 0200     		.2byte	0x2
 12505 011d 30       		.byte	0x30
 12506 011e 9F       		.byte	0x9f
 12507 011f 3A000000 		.4byte	.LVL340
ARM GAS  C:\Users\EBANO_~1\AppData\Local\Temp\ccJkfoGk.s 			page 249


 12508 0123 43000000 		.4byte	.LVL341-1
 12509 0127 0100     		.2byte	0x1
 12510 0129 51       		.byte	0x51
 12511 012a 00000000 		.4byte	0
 12512 012e 00000000 		.4byte	0
 12513              	.LLST125:
 12514 0132 10000000 		.4byte	.LVL338
 12515 0136 46000000 		.4byte	.LVL343
 12516 013a 0100     		.2byte	0x1
 12517 013c 55       		.byte	0x55
 12518 013d 00000000 		.4byte	0
 12519 0141 00000000 		.4byte	0
 12520              	.LLST126:
 12521 0145 06000000 		.4byte	.LVL336
 12522 0149 08000000 		.4byte	.LVL337
 12523 014d 0200     		.2byte	0x2
 12524 014f 70       		.byte	0x70
 12525 0150 01       		.sleb128 1
 12526 0151 08000000 		.4byte	.LVL337
 12527 0155 35000000 		.4byte	.LVL339-1
 12528 0159 0200     		.2byte	0x2
 12529 015b 74       		.byte	0x74
 12530 015c 01       		.sleb128 1
 12531 015d 00000000 		.4byte	0
 12532 0161 00000000 		.4byte	0
 12533              	.LLST90:
 12534 0165 00000000 		.4byte	.LFB61
 12535 0169 02000000 		.4byte	.LCFI31
 12536 016d 0200     		.2byte	0x2
 12537 016f 7D       		.byte	0x7d
 12538 0170 00       		.sleb128 0
 12539 0171 02000000 		.4byte	.LCFI31
 12540 0175 0C000000 		.4byte	.LCFI32
 12541 0179 0200     		.2byte	0x2
 12542 017b 7D       		.byte	0x7d
 12543 017c 14       		.sleb128 20
 12544 017d 0C000000 		.4byte	.LCFI32
 12545 0181 0E000000 		.4byte	.LCFI33
 12546 0185 0200     		.2byte	0x2
 12547 0187 7D       		.byte	0x7d
 12548 0188 24       		.sleb128 36
 12549 0189 0E000000 		.4byte	.LCFI33
 12550 018d C8010000 		.4byte	.LFE61
 12551 0191 0300     		.2byte	0x3
 12552 0193 7D       		.byte	0x7d
 12553 0194 D000     		.sleb128 80
 12554 0196 00000000 		.4byte	0
 12555 019a 00000000 		.4byte	0
 12556              	.LLST91:
 12557 019e 00000000 		.4byte	.LVL260
 12558 01a2 18000000 		.4byte	.LVL262
 12559 01a6 0100     		.2byte	0x1
 12560 01a8 50       		.byte	0x50
 12561 01a9 18000000 		.4byte	.LVL262
 12562 01ad 78000000 		.4byte	.LVL271
 12563 01b1 0100     		.2byte	0x1
 12564 01b3 54       		.byte	0x54
ARM GAS  C:\Users\EBANO_~1\AppData\Local\Temp\ccJkfoGk.s 			page 250


 12565 01b4 78000000 		.4byte	.LVL271
 12566 01b8 16010000 		.4byte	.LVL285
 12567 01bc 0400     		.2byte	0x4
 12568 01be F3       		.byte	0xf3
 12569 01bf 01       		.uleb128 0x1
 12570 01c0 50       		.byte	0x50
 12571 01c1 9F       		.byte	0x9f
 12572 01c2 16010000 		.4byte	.LVL285
 12573 01c6 22010000 		.4byte	.LVL287
 12574 01ca 0100     		.2byte	0x1
 12575 01cc 54       		.byte	0x54
 12576 01cd 22010000 		.4byte	.LVL287
 12577 01d1 2C010000 		.4byte	.LVL288
 12578 01d5 0400     		.2byte	0x4
 12579 01d7 F3       		.byte	0xf3
 12580 01d8 01       		.uleb128 0x1
 12581 01d9 50       		.byte	0x50
 12582 01da 9F       		.byte	0x9f
 12583 01db 2C010000 		.4byte	.LVL288
 12584 01df 42010000 		.4byte	.LVL289
 12585 01e3 0100     		.2byte	0x1
 12586 01e5 54       		.byte	0x54
 12587 01e6 42010000 		.4byte	.LVL289
 12588 01ea C8010000 		.4byte	.LFE61
 12589 01ee 0400     		.2byte	0x4
 12590 01f0 F3       		.byte	0xf3
 12591 01f1 01       		.uleb128 0x1
 12592 01f2 50       		.byte	0x50
 12593 01f3 9F       		.byte	0x9f
 12594 01f4 00000000 		.4byte	0
 12595 01f8 00000000 		.4byte	0
 12596              	.LLST92:
 12597 01fc 00000000 		.4byte	.LVL260
 12598 0200 14000000 		.4byte	.LVL261
 12599 0204 0100     		.2byte	0x1
 12600 0206 51       		.byte	0x51
 12601 0207 14000000 		.4byte	.LVL261
 12602 020b C8010000 		.4byte	.LFE61
 12603 020f 0200     		.2byte	0x2
 12604 0211 91       		.byte	0x91
 12605 0212 40       		.sleb128 -64
 12606 0213 00000000 		.4byte	0
 12607 0217 00000000 		.4byte	0
 12608              	.LLST93:
 12609 021b 00000000 		.4byte	.LVL260
 12610 021f 1A000000 		.4byte	.LVL263
 12611 0223 0100     		.2byte	0x1
 12612 0225 52       		.byte	0x52
 12613 0226 1A000000 		.4byte	.LVL263
 12614 022a 0A010000 		.4byte	.LVL284
 12615 022e 0100     		.2byte	0x1
 12616 0230 5B       		.byte	0x5b
 12617 0231 0A010000 		.4byte	.LVL284
 12618 0235 16010000 		.4byte	.LVL285
 12619 0239 0400     		.2byte	0x4
 12620 023b F3       		.byte	0xf3
 12621 023c 01       		.uleb128 0x1
ARM GAS  C:\Users\EBANO_~1\AppData\Local\Temp\ccJkfoGk.s 			page 251


 12622 023d 52       		.byte	0x52
 12623 023e 9F       		.byte	0x9f
 12624 023f 16010000 		.4byte	.LVL285
 12625 0243 C8010000 		.4byte	.LFE61
 12626 0247 0100     		.2byte	0x1
 12627 0249 5B       		.byte	0x5b
 12628 024a 00000000 		.4byte	0
 12629 024e 00000000 		.4byte	0
 12630              	.LLST94:
 12631 0252 00000000 		.4byte	.LVL260
 12632 0256 1F000000 		.4byte	.LVL264-1
 12633 025a 0100     		.2byte	0x1
 12634 025c 53       		.byte	0x53
 12635 025d 1F000000 		.4byte	.LVL264-1
 12636 0261 7A000000 		.4byte	.LVL272
 12637 0265 0100     		.2byte	0x1
 12638 0267 56       		.byte	0x56
 12639 0268 7A000000 		.4byte	.LVL272
 12640 026c 16010000 		.4byte	.LVL285
 12641 0270 0400     		.2byte	0x4
 12642 0272 F3       		.byte	0xf3
 12643 0273 01       		.uleb128 0x1
 12644 0274 53       		.byte	0x53
 12645 0275 9F       		.byte	0x9f
 12646 0276 16010000 		.4byte	.LVL285
 12647 027a 22010000 		.4byte	.LVL287
 12648 027e 0100     		.2byte	0x1
 12649 0280 56       		.byte	0x56
 12650 0281 22010000 		.4byte	.LVL287
 12651 0285 2C010000 		.4byte	.LVL288
 12652 0289 0400     		.2byte	0x4
 12653 028b F3       		.byte	0xf3
 12654 028c 01       		.uleb128 0x1
 12655 028d 53       		.byte	0x53
 12656 028e 9F       		.byte	0x9f
 12657 028f 2C010000 		.4byte	.LVL288
 12658 0293 44010000 		.4byte	.LVL290
 12659 0297 0100     		.2byte	0x1
 12660 0299 56       		.byte	0x56
 12661 029a 44010000 		.4byte	.LVL290
 12662 029e C8010000 		.4byte	.LFE61
 12663 02a2 0400     		.2byte	0x4
 12664 02a4 F3       		.byte	0xf3
 12665 02a5 01       		.uleb128 0x1
 12666 02a6 53       		.byte	0x53
 12667 02a7 9F       		.byte	0x9f
 12668 02a8 00000000 		.4byte	0
 12669 02ac 00000000 		.4byte	0
 12670              	.LLST95:
 12671 02b0 00000000 		.4byte	.LVL260
 12672 02b4 E8000000 		.4byte	.LVL282
 12673 02b8 0200     		.2byte	0x2
 12674 02ba 30       		.byte	0x30
 12675 02bb 9F       		.byte	0x9f
 12676 02bc 16010000 		.4byte	.LVL285
 12677 02c0 22010000 		.4byte	.LVL287
 12678 02c4 0200     		.2byte	0x2
ARM GAS  C:\Users\EBANO_~1\AppData\Local\Temp\ccJkfoGk.s 			page 252


 12679 02c6 30       		.byte	0x30
 12680 02c7 9F       		.byte	0x9f
 12681 02c8 2C010000 		.4byte	.LVL288
 12682 02cc A4010000 		.4byte	.LVL300
 12683 02d0 0200     		.2byte	0x2
 12684 02d2 30       		.byte	0x30
 12685 02d3 9F       		.byte	0x9f
 12686 02d4 00000000 		.4byte	0
 12687 02d8 00000000 		.4byte	0
 12688              	.LLST96:
 12689 02dc 00000000 		.4byte	.LVL260
 12690 02e0 E8000000 		.4byte	.LVL282
 12691 02e4 0200     		.2byte	0x2
 12692 02e6 30       		.byte	0x30
 12693 02e7 9F       		.byte	0x9f
 12694 02e8 E8000000 		.4byte	.LVL282
 12695 02ec 08010000 		.4byte	.LVL283
 12696 02f0 0300     		.2byte	0x3
 12697 02f2 91       		.byte	0x91
 12698 02f3 B87F     		.sleb128 -72
 12699 02f5 16010000 		.4byte	.LVL285
 12700 02f9 22010000 		.4byte	.LVL287
 12701 02fd 0200     		.2byte	0x2
 12702 02ff 31       		.byte	0x31
 12703 0300 9F       		.byte	0x9f
 12704 0301 2C010000 		.4byte	.LVL288
 12705 0305 A4010000 		.4byte	.LVL300
 12706 0309 0200     		.2byte	0x2
 12707 030b 30       		.byte	0x30
 12708 030c 9F       		.byte	0x9f
 12709 030d A4010000 		.4byte	.LVL300
 12710 0311 C8010000 		.4byte	.LFE61
 12711 0315 0300     		.2byte	0x3
 12712 0317 91       		.byte	0x91
 12713 0318 B87F     		.sleb128 -72
 12714 031a 00000000 		.4byte	0
 12715 031e 00000000 		.4byte	0
 12716              	.LLST97:
 12717 0322 20000000 		.4byte	.LVL264
 12718 0326 62000000 		.4byte	.LVL268
 12719 032a 0200     		.2byte	0x2
 12720 032c 30       		.byte	0x30
 12721 032d 9F       		.byte	0x9f
 12722 032e 62000000 		.4byte	.LVL268
 12723 0332 80000000 		.4byte	.LVL273
 12724 0336 0100     		.2byte	0x1
 12725 0338 50       		.byte	0x50
 12726 0339 80000000 		.4byte	.LVL273
 12727 033d 16010000 		.4byte	.LVL285
 12728 0341 0300     		.2byte	0x3
 12729 0343 91       		.byte	0x91
 12730 0344 BC7F     		.sleb128 -68
 12731 0346 16010000 		.4byte	.LVL285
 12732 034a 22010000 		.4byte	.LVL287
 12733 034e 0200     		.2byte	0x2
 12734 0350 30       		.byte	0x30
 12735 0351 9F       		.byte	0x9f
ARM GAS  C:\Users\EBANO_~1\AppData\Local\Temp\ccJkfoGk.s 			page 253


 12736 0352 22010000 		.4byte	.LVL287
 12737 0356 2C010000 		.4byte	.LVL288
 12738 035a 0300     		.2byte	0x3
 12739 035c 91       		.byte	0x91
 12740 035d BC7F     		.sleb128 -68
 12741 035f 2C010000 		.4byte	.LVL288
 12742 0363 4A010000 		.4byte	.LVL291
 12743 0367 0100     		.2byte	0x1
 12744 0369 50       		.byte	0x50
 12745 036a 4A010000 		.4byte	.LVL291
 12746 036e C8010000 		.4byte	.LFE61
 12747 0372 0300     		.2byte	0x3
 12748 0374 91       		.byte	0x91
 12749 0375 BC7F     		.sleb128 -68
 12750 0377 00000000 		.4byte	0
 12751 037b 00000000 		.4byte	0
 12752              	.LLST98:
 12753 037f 66000000 		.4byte	.LVL269
 12754 0383 E8000000 		.4byte	.LVL282
 12755 0387 0600     		.2byte	0x6
 12756 0389 03       		.byte	0x3
 12757 038a 10010000 		.4byte	NvmCtx+272
 12758 038e 9F       		.byte	0x9f
 12759 038f 2C010000 		.4byte	.LVL288
 12760 0393 A4010000 		.4byte	.LVL300
 12761 0397 0600     		.2byte	0x6
 12762 0399 03       		.byte	0x3
 12763 039a 10010000 		.4byte	NvmCtx+272
 12764 039e 9F       		.byte	0x9f
 12765 039f 00000000 		.4byte	0
 12766 03a3 00000000 		.4byte	0
 12767              	.LLST99:
 12768 03a7 66000000 		.4byte	.LVL269
 12769 03ab E8000000 		.4byte	.LVL282
 12770 03af 0600     		.2byte	0x6
 12771 03b1 03       		.byte	0x3
 12772 03b2 00000000 		.4byte	NvmCtx
 12773 03b6 9F       		.byte	0x9f
 12774 03b7 2C010000 		.4byte	.LVL288
 12775 03bb A4010000 		.4byte	.LVL300
 12776 03bf 0600     		.2byte	0x6
 12777 03c1 03       		.byte	0x3
 12778 03c2 00000000 		.4byte	NvmCtx
 12779 03c6 9F       		.byte	0x9f
 12780 03c7 00000000 		.4byte	0
 12781 03cb 00000000 		.4byte	0
 12782              	.LLST100:
 12783 03cf 66000000 		.4byte	.LVL269
 12784 03d3 74000000 		.4byte	.LVL270
 12785 03d7 0100     		.2byte	0x1
 12786 03d9 55       		.byte	0x55
 12787 03da 74000000 		.4byte	.LVL270
 12788 03de E8000000 		.4byte	.LVL282
 12789 03e2 0600     		.2byte	0x6
 12790 03e4 03       		.byte	0x3
 12791 03e5 C0000000 		.4byte	NvmCtx+192
 12792 03e9 9F       		.byte	0x9f
ARM GAS  C:\Users\EBANO_~1\AppData\Local\Temp\ccJkfoGk.s 			page 254


 12793 03ea 2C010000 		.4byte	.LVL288
 12794 03ee 4A010000 		.4byte	.LVL291
 12795 03f2 0100     		.2byte	0x1
 12796 03f4 55       		.byte	0x55
 12797 03f5 4A010000 		.4byte	.LVL291
 12798 03f9 A4010000 		.4byte	.LVL300
 12799 03fd 0200     		.2byte	0x2
 12800 03ff 91       		.byte	0x91
 12801 0400 44       		.sleb128 -60
 12802 0401 00000000 		.4byte	0
 12803 0405 00000000 		.4byte	0
 12804              	.LLST101:
 12805 0409 66000000 		.4byte	.LVL269
 12806 040d E8000000 		.4byte	.LVL282
 12807 0411 0600     		.2byte	0x6
 12808 0413 F2       		.byte	0xf2
 12809 0414 45210000 		.4byte	.Ldebug_info0+8517
 12810 0418 00       		.sleb128 0
 12811 0419 2C010000 		.4byte	.LVL288
 12812 041d A4010000 		.4byte	.LVL300
 12813 0421 0600     		.2byte	0x6
 12814 0423 F2       		.byte	0xf2
 12815 0424 45210000 		.4byte	.Ldebug_info0+8517
 12816 0428 00       		.sleb128 0
 12817 0429 00000000 		.4byte	0
 12818 042d 00000000 		.4byte	0
 12819              	.LLST102:
 12820 0431 66000000 		.4byte	.LVL269
 12821 0435 8E000000 		.4byte	.LVL275
 12822 0439 0300     		.2byte	0x3
 12823 043b 91       		.byte	0x91
 12824 043c 48       		.sleb128 -56
 12825 043d 9F       		.byte	0x9f
 12826 043e 8E000000 		.4byte	.LVL275
 12827 0442 90000000 		.4byte	.LVL276
 12828 0446 0100     		.2byte	0x1
 12829 0448 52       		.byte	0x52
 12830 0449 90000000 		.4byte	.LVL276
 12831 044d E8000000 		.4byte	.LVL282
 12832 0451 0300     		.2byte	0x3
 12833 0453 91       		.byte	0x91
 12834 0454 48       		.sleb128 -56
 12835 0455 9F       		.byte	0x9f
 12836 0456 2C010000 		.4byte	.LVL288
 12837 045a 92010000 		.4byte	.LVL297
 12838 045e 0300     		.2byte	0x3
 12839 0460 91       		.byte	0x91
 12840 0461 48       		.sleb128 -56
 12841 0462 9F       		.byte	0x9f
 12842 0463 92010000 		.4byte	.LVL297
 12843 0467 9A010000 		.4byte	.LVL298
 12844 046b 0100     		.2byte	0x1
 12845 046d 52       		.byte	0x52
 12846 046e 9A010000 		.4byte	.LVL298
 12847 0472 A4010000 		.4byte	.LVL300
 12848 0476 0300     		.2byte	0x3
 12849 0478 91       		.byte	0x91
ARM GAS  C:\Users\EBANO_~1\AppData\Local\Temp\ccJkfoGk.s 			page 255


 12850 0479 48       		.sleb128 -56
 12851 047a 9F       		.byte	0x9f
 12852 047b 00000000 		.4byte	0
 12853 047f 00000000 		.4byte	0
 12854              	.LLST103:
 12855 0483 66000000 		.4byte	.LVL269
 12856 0487 E8000000 		.4byte	.LVL282
 12857 048b 0300     		.2byte	0x3
 12858 048d 91       		.byte	0x91
 12859 048e B47F     		.sleb128 -76
 12860 0490 2C010000 		.4byte	.LVL288
 12861 0494 A4010000 		.4byte	.LVL300
 12862 0498 0300     		.2byte	0x3
 12863 049a 91       		.byte	0x91
 12864 049b B47F     		.sleb128 -76
 12865 049d 00000000 		.4byte	0
 12866 04a1 00000000 		.4byte	0
 12867              	.LLST104:
 12868 04a5 66000000 		.4byte	.LVL269
 12869 04a9 78000000 		.4byte	.LVL271
 12870 04ad 0200     		.2byte	0x2
 12871 04af 74       		.byte	0x74
 12872 04b0 09       		.sleb128 9
 12873 04b1 78000000 		.4byte	.LVL271
 12874 04b5 80000000 		.4byte	.LVL273
 12875 04b9 0100     		.2byte	0x1
 12876 04bb 58       		.byte	0x58
 12877 04bc 80000000 		.4byte	.LVL273
 12878 04c0 E8000000 		.4byte	.LVL282
 12879 04c4 0400     		.2byte	0x4
 12880 04c6 7A       		.byte	0x7a
 12881 04c7 F07D     		.sleb128 -272
 12882 04c9 9F       		.byte	0x9f
 12883 04ca 2C010000 		.4byte	.LVL288
 12884 04ce 42010000 		.4byte	.LVL289
 12885 04d2 0200     		.2byte	0x2
 12886 04d4 74       		.byte	0x74
 12887 04d5 09       		.sleb128 9
 12888 04d6 42010000 		.4byte	.LVL289
 12889 04da 4A010000 		.4byte	.LVL291
 12890 04de 0500     		.2byte	0x5
 12891 04e0 F3       		.byte	0xf3
 12892 04e1 01       		.uleb128 0x1
 12893 04e2 50       		.byte	0x50
 12894 04e3 23       		.byte	0x23
 12895 04e4 09       		.uleb128 0x9
 12896 04e5 00000000 		.4byte	0
 12897 04e9 00000000 		.4byte	0
 12898              	.LLST105:
 12899 04ed 66000000 		.4byte	.LVL269
 12900 04f1 80000000 		.4byte	.LVL273
 12901 04f5 0200     		.2byte	0x2
 12902 04f7 30       		.byte	0x30
 12903 04f8 9F       		.byte	0x9f
 12904 04f9 80000000 		.4byte	.LVL273
 12905 04fd 84000000 		.4byte	.LVL274
 12906 0501 0100     		.2byte	0x1
ARM GAS  C:\Users\EBANO_~1\AppData\Local\Temp\ccJkfoGk.s 			page 256


 12907 0503 58       		.byte	0x58
 12908 0504 84000000 		.4byte	.LVL274
 12909 0508 90000000 		.4byte	.LVL276
 12910 050c 0100     		.2byte	0x1
 12911 050e 53       		.byte	0x53
 12912 050f 90000000 		.4byte	.LVL276
 12913 0513 98000000 		.4byte	.LVL278
 12914 0517 0100     		.2byte	0x1
 12915 0519 58       		.byte	0x58
 12916 051a 9C000000 		.4byte	.LVL279
 12917 051e E8000000 		.4byte	.LVL282
 12918 0522 0100     		.2byte	0x1
 12919 0524 58       		.byte	0x58
 12920 0525 2C010000 		.4byte	.LVL288
 12921 0529 4A010000 		.4byte	.LVL291
 12922 052d 0200     		.2byte	0x2
 12923 052f 30       		.byte	0x30
 12924 0530 9F       		.byte	0x9f
 12925 0531 4A010000 		.4byte	.LVL291
 12926 0535 52010000 		.4byte	.LVL293
 12927 0539 0100     		.2byte	0x1
 12928 053b 58       		.byte	0x58
 12929 053c 5C010000 		.4byte	.LVL294
 12930 0540 90010000 		.4byte	.LVL296
 12931 0544 0100     		.2byte	0x1
 12932 0546 58       		.byte	0x58
 12933 0547 90010000 		.4byte	.LVL296
 12934 054b 9A010000 		.4byte	.LVL298
 12935 054f 0100     		.2byte	0x1
 12936 0551 53       		.byte	0x53
 12937 0552 9A010000 		.4byte	.LVL298
 12938 0556 A4010000 		.4byte	.LVL300
 12939 055a 0100     		.2byte	0x1
 12940 055c 58       		.byte	0x58
 12941 055d 00000000 		.4byte	0
 12942 0561 00000000 		.4byte	0
 12943              	.LLST106:
 12944 0565 66000000 		.4byte	.LVL269
 12945 0569 80000000 		.4byte	.LVL273
 12946 056d 0200     		.2byte	0x2
 12947 056f 30       		.byte	0x30
 12948 0570 9F       		.byte	0x9f
 12949 0571 80000000 		.4byte	.LVL273
 12950 0575 98000000 		.4byte	.LVL278
 12951 0579 0300     		.2byte	0x3
 12952 057b 91       		.byte	0x91
 12953 057c B87F     		.sleb128 -72
 12954 057e 9C000000 		.4byte	.LVL279
 12955 0582 E8000000 		.4byte	.LVL282
 12956 0586 0300     		.2byte	0x3
 12957 0588 91       		.byte	0x91
 12958 0589 B87F     		.sleb128 -72
 12959 058b 2C010000 		.4byte	.LVL288
 12960 058f 4A010000 		.4byte	.LVL291
 12961 0593 0200     		.2byte	0x2
 12962 0595 30       		.byte	0x30
 12963 0596 9F       		.byte	0x9f
ARM GAS  C:\Users\EBANO_~1\AppData\Local\Temp\ccJkfoGk.s 			page 257


 12964 0597 4A010000 		.4byte	.LVL291
 12965 059b 52010000 		.4byte	.LVL293
 12966 059f 0300     		.2byte	0x3
 12967 05a1 91       		.byte	0x91
 12968 05a2 B87F     		.sleb128 -72
 12969 05a4 5C010000 		.4byte	.LVL294
 12970 05a8 A4010000 		.4byte	.LVL300
 12971 05ac 0300     		.2byte	0x3
 12972 05ae 91       		.byte	0x91
 12973 05af B87F     		.sleb128 -72
 12974 05b1 00000000 		.4byte	0
 12975 05b5 00000000 		.4byte	0
 12976              	.LLST107:
 12977 05b9 66000000 		.4byte	.LVL269
 12978 05bd E8000000 		.4byte	.LVL282
 12979 05c1 0200     		.2byte	0x2
 12980 05c3 30       		.byte	0x30
 12981 05c4 9F       		.byte	0x9f
 12982 05c5 2C010000 		.4byte	.LVL288
 12983 05c9 A4010000 		.4byte	.LVL300
 12984 05cd 0200     		.2byte	0x2
 12985 05cf 30       		.byte	0x30
 12986 05d0 9F       		.byte	0x9f
 12987 05d1 00000000 		.4byte	0
 12988 05d5 00000000 		.4byte	0
 12989              	.LLST109:
 12990 05d9 66000000 		.4byte	.LVL269
 12991 05dd 80000000 		.4byte	.LVL273
 12992 05e1 0200     		.2byte	0x2
 12993 05e3 30       		.byte	0x30
 12994 05e4 9F       		.byte	0x9f
 12995 05e5 80000000 		.4byte	.LVL273
 12996 05e9 90000000 		.4byte	.LVL276
 12997 05ed 0100     		.2byte	0x1
 12998 05ef 59       		.byte	0x59
 12999 05f0 90000000 		.4byte	.LVL276
 13000 05f4 92000000 		.4byte	.LVL277
 13001 05f8 0300     		.2byte	0x3
 13002 05fa 74       		.byte	0x74
 13003 05fb 01       		.sleb128 1
 13004 05fc 9F       		.byte	0x9f
 13005 05fd 92000000 		.4byte	.LVL277
 13006 0601 98000000 		.4byte	.LVL278
 13007 0605 0300     		.2byte	0x3
 13008 0607 79       		.byte	0x79
 13009 0608 01       		.sleb128 1
 13010 0609 9F       		.byte	0x9f
 13011 060a 9C000000 		.4byte	.LVL279
 13012 060e E2000000 		.4byte	.LVL281
 13013 0612 0100     		.2byte	0x1
 13014 0614 59       		.byte	0x59
 13015 0615 2C010000 		.4byte	.LVL288
 13016 0619 4A010000 		.4byte	.LVL291
 13017 061d 0200     		.2byte	0x2
 13018 061f 30       		.byte	0x30
 13019 0620 9F       		.byte	0x9f
 13020 0621 4A010000 		.4byte	.LVL291
ARM GAS  C:\Users\EBANO_~1\AppData\Local\Temp\ccJkfoGk.s 			page 258


 13021 0625 4C010000 		.4byte	.LVL292
 13022 0629 0300     		.2byte	0x3
 13023 062b 74       		.byte	0x74
 13024 062c 01       		.sleb128 1
 13025 062d 9F       		.byte	0x9f
 13026 062e 4C010000 		.4byte	.LVL292
 13027 0632 52010000 		.4byte	.LVL293
 13028 0636 0300     		.2byte	0x3
 13029 0638 75       		.byte	0x75
 13030 0639 01       		.sleb128 1
 13031 063a 9F       		.byte	0x9f
 13032 063b 5C010000 		.4byte	.LVL294
 13033 063f A4010000 		.4byte	.LVL300
 13034 0643 0100     		.2byte	0x1
 13035 0645 55       		.byte	0x55
 13036 0646 00000000 		.4byte	0
 13037 064a 00000000 		.4byte	0
 13038              	.LLST88:
 13039 064e 00000000 		.4byte	.LFB60
 13040 0652 02000000 		.4byte	.LCFI29
 13041 0656 0200     		.2byte	0x2
 13042 0658 7D       		.byte	0x7d
 13043 0659 00       		.sleb128 0
 13044 065a 02000000 		.4byte	.LCFI29
 13045 065e 06000000 		.4byte	.LCFI30
 13046 0662 0200     		.2byte	0x2
 13047 0664 7D       		.byte	0x7d
 13048 0665 04       		.sleb128 4
 13049 0666 06000000 		.4byte	.LCFI30
 13050 066a 34000000 		.4byte	.LFE60
 13051 066e 0200     		.2byte	0x2
 13052 0670 7D       		.byte	0x7d
 13053 0671 20       		.sleb128 32
 13054 0672 00000000 		.4byte	0
 13055 0676 00000000 		.4byte	0
 13056              	.LLST89:
 13057 067a 00000000 		.4byte	.LVL257
 13058 067e 26000000 		.4byte	.LVL258
 13059 0682 0100     		.2byte	0x1
 13060 0684 50       		.byte	0x50
 13061 0685 26000000 		.4byte	.LVL258
 13062 0689 34000000 		.4byte	.LFE60
 13063 068d 0400     		.2byte	0x4
 13064 068f F3       		.byte	0xf3
 13065 0690 01       		.uleb128 0x1
 13066 0691 50       		.byte	0x50
 13067 0692 9F       		.byte	0x9f
 13068 0693 00000000 		.4byte	0
 13069 0697 00000000 		.4byte	0
 13070              	.LLST81:
 13071 069b 00000000 		.4byte	.LFB58
 13072 069f 02000000 		.4byte	.LCFI27
 13073 06a3 0200     		.2byte	0x2
 13074 06a5 7D       		.byte	0x7d
 13075 06a6 00       		.sleb128 0
 13076 06a7 02000000 		.4byte	.LCFI27
 13077 06ab 0A000000 		.4byte	.LCFI28
ARM GAS  C:\Users\EBANO_~1\AppData\Local\Temp\ccJkfoGk.s 			page 259


 13078 06af 0200     		.2byte	0x2
 13079 06b1 7D       		.byte	0x7d
 13080 06b2 0C       		.sleb128 12
 13081 06b3 0A000000 		.4byte	.LCFI28
 13082 06b7 9C000000 		.4byte	.LFE58
 13083 06bb 0200     		.2byte	0x2
 13084 06bd 7D       		.byte	0x7d
 13085 06be 18       		.sleb128 24
 13086 06bf 00000000 		.4byte	0
 13087 06c3 00000000 		.4byte	0
 13088              	.LLST82:
 13089 06c7 00000000 		.4byte	.LVL246
 13090 06cb 0E000000 		.4byte	.LVL248
 13091 06cf 0100     		.2byte	0x1
 13092 06d1 50       		.byte	0x50
 13093 06d2 0E000000 		.4byte	.LVL248
 13094 06d6 70000000 		.4byte	.LVL255
 13095 06da 0100     		.2byte	0x1
 13096 06dc 54       		.byte	0x54
 13097 06dd 70000000 		.4byte	.LVL255
 13098 06e1 9C000000 		.4byte	.LFE58
 13099 06e5 0400     		.2byte	0x4
 13100 06e7 F3       		.byte	0xf3
 13101 06e8 01       		.uleb128 0x1
 13102 06e9 50       		.byte	0x50
 13103 06ea 9F       		.byte	0x9f
 13104 06eb 00000000 		.4byte	0
 13105 06ef 00000000 		.4byte	0
 13106              	.LLST83:
 13107 06f3 00000000 		.4byte	.LVL246
 13108 06f7 5C000000 		.4byte	.LVL253
 13109 06fb 0200     		.2byte	0x2
 13110 06fd 33       		.byte	0x33
 13111 06fe 9F       		.byte	0x9f
 13112 06ff 5C000000 		.4byte	.LVL253
 13113 0703 6E000000 		.4byte	.LVL254
 13114 0707 0200     		.2byte	0x2
 13115 0709 32       		.byte	0x32
 13116 070a 9F       		.byte	0x9f
 13117 070b 00000000 		.4byte	0
 13118 070f 00000000 		.4byte	0
 13119              	.LLST84:
 13120 0713 00000000 		.4byte	.LVL246
 13121 0717 6E000000 		.4byte	.LVL254
 13122 071b 0200     		.2byte	0x2
 13123 071d 30       		.byte	0x30
 13124 071e 9F       		.byte	0x9f
 13125 071f 00000000 		.4byte	0
 13126 0723 00000000 		.4byte	0
 13127              	.LLST85:
 13128 0727 06000000 		.4byte	.LVL247
 13129 072b 3C000000 		.4byte	.LVL251
 13130 072f 0100     		.2byte	0x1
 13131 0731 55       		.byte	0x55
 13132 0732 3C000000 		.4byte	.LVL251
 13133 0736 40000000 		.4byte	.LVL252
 13134 073a 0700     		.2byte	0x7
ARM GAS  C:\Users\EBANO_~1\AppData\Local\Temp\ccJkfoGk.s 			page 260


 13135 073c 75       		.byte	0x75
 13136 073d A0A3DA9E 		.sleb128 869700000
 13136      03
 13137 0742 9F       		.byte	0x9f
 13138 0743 00000000 		.4byte	0
 13139 0747 00000000 		.4byte	0
 13140              	.LLST86:
 13141 074b 2A000000 		.4byte	.LVL250
 13142 074f 40000000 		.4byte	.LVL252
 13143 0753 0600     		.2byte	0x6
 13144 0755 F2       		.byte	0xf2
 13145 0756 9D230000 		.4byte	.Ldebug_info0+9117
 13146 075a 00       		.sleb128 0
 13147 075b 00000000 		.4byte	0
 13148 075f 00000000 		.4byte	0
 13149              	.LLST87:
 13150 0763 2A000000 		.4byte	.LVL250
 13151 0767 3C000000 		.4byte	.LVL251
 13152 076b 0100     		.2byte	0x1
 13153 076d 55       		.byte	0x55
 13154 076e 3C000000 		.4byte	.LVL251
 13155 0772 40000000 		.4byte	.LVL252
 13156 0776 0700     		.2byte	0x7
 13157 0778 75       		.byte	0x75
 13158 0779 A0A3DA9E 		.sleb128 869700000
 13158      03
 13159 077e 9F       		.byte	0x9f
 13160 077f 00000000 		.4byte	0
 13161 0783 00000000 		.4byte	0
 13162              	.LLST80:
 13163 0787 00000000 		.4byte	.LVL244
 13164 078b 02000000 		.4byte	.LVL245
 13165 078f 0100     		.2byte	0x1
 13166 0791 50       		.byte	0x50
 13167 0792 02000000 		.4byte	.LVL245
 13168 0796 06000000 		.4byte	.LFE57
 13169 079a 0400     		.2byte	0x4
 13170 079c F3       		.byte	0xf3
 13171 079d 01       		.uleb128 0x1
 13172 079e 50       		.byte	0x50
 13173 079f 9F       		.byte	0x9f
 13174 07a0 00000000 		.4byte	0
 13175 07a4 00000000 		.4byte	0
 13176              	.LLST67:
 13177 07a8 00000000 		.4byte	.LFB56
 13178 07ac 02000000 		.4byte	.LCFI24
 13179 07b0 0200     		.2byte	0x2
 13180 07b2 7D       		.byte	0x7d
 13181 07b3 00       		.sleb128 0
 13182 07b4 02000000 		.4byte	.LCFI24
 13183 07b8 06000000 		.4byte	.LCFI25
 13184 07bc 0200     		.2byte	0x2
 13185 07be 7D       		.byte	0x7d
 13186 07bf 14       		.sleb128 20
 13187 07c0 06000000 		.4byte	.LCFI25
 13188 07c4 0A000000 		.4byte	.LCFI26
 13189 07c8 0200     		.2byte	0x2
ARM GAS  C:\Users\EBANO_~1\AppData\Local\Temp\ccJkfoGk.s 			page 261


 13190 07ca 7D       		.byte	0x7d
 13191 07cb 18       		.sleb128 24
 13192 07cc 0A000000 		.4byte	.LCFI26
 13193 07d0 90010000 		.4byte	.LFE56
 13194 07d4 0200     		.2byte	0x2
 13195 07d6 7D       		.byte	0x7d
 13196 07d7 20       		.sleb128 32
 13197 07d8 00000000 		.4byte	0
 13198 07dc 00000000 		.4byte	0
 13199              	.LLST68:
 13200 07e0 00000000 		.4byte	.LVL214
 13201 07e4 16000000 		.4byte	.LVL216
 13202 07e8 0100     		.2byte	0x1
 13203 07ea 50       		.byte	0x50
 13204 07eb 16000000 		.4byte	.LVL216
 13205 07ef 20000000 		.4byte	.LVL217
 13206 07f3 0400     		.2byte	0x4
 13207 07f5 F3       		.byte	0xf3
 13208 07f6 01       		.uleb128 0x1
 13209 07f7 50       		.byte	0x50
 13210 07f8 9F       		.byte	0x9f
 13211 07f9 20000000 		.4byte	.LVL217
 13212 07fd 28000000 		.4byte	.LVL218
 13213 0801 0100     		.2byte	0x1
 13214 0803 50       		.byte	0x50
 13215 0804 28000000 		.4byte	.LVL218
 13216 0808 94000000 		.4byte	.LVL226
 13217 080c 0400     		.2byte	0x4
 13218 080e F3       		.byte	0xf3
 13219 080f 01       		.uleb128 0x1
 13220 0810 50       		.byte	0x50
 13221 0811 9F       		.byte	0x9f
 13222 0812 94000000 		.4byte	.LVL226
 13223 0816 96000000 		.4byte	.LVL227
 13224 081a 0100     		.2byte	0x1
 13225 081c 50       		.byte	0x50
 13226 081d 96000000 		.4byte	.LVL227
 13227 0821 90010000 		.4byte	.LFE56
 13228 0825 0400     		.2byte	0x4
 13229 0827 F3       		.byte	0xf3
 13230 0828 01       		.uleb128 0x1
 13231 0829 50       		.byte	0x50
 13232 082a 9F       		.byte	0x9f
 13233 082b 00000000 		.4byte	0
 13234 082f 00000000 		.4byte	0
 13235              	.LLST69:
 13236 0833 12000000 		.4byte	.LVL215
 13237 0837 16000000 		.4byte	.LVL216
 13238 083b 0600     		.2byte	0x6
 13239 083d F2       		.byte	0xf2
 13240 083e 87240000 		.4byte	.Ldebug_info0+9351
 13241 0842 00       		.sleb128 0
 13242 0843 94000000 		.4byte	.LVL226
 13243 0847 B6000000 		.4byte	.LVL230
 13244 084b 0600     		.2byte	0x6
 13245 084d F2       		.byte	0xf2
 13246 084e 87240000 		.4byte	.Ldebug_info0+9351
ARM GAS  C:\Users\EBANO_~1\AppData\Local\Temp\ccJkfoGk.s 			page 262


 13247 0852 00       		.sleb128 0
 13248 0853 00000000 		.4byte	0
 13249 0857 00000000 		.4byte	0
 13250              	.LLST70:
 13251 085b 12000000 		.4byte	.LVL215
 13252 085f 16000000 		.4byte	.LVL216
 13253 0863 0200     		.2byte	0x2
 13254 0865 70       		.byte	0x70
 13255 0866 04       		.sleb128 4
 13256 0867 94000000 		.4byte	.LVL226
 13257 086b 96000000 		.4byte	.LVL227
 13258 086f 0200     		.2byte	0x2
 13259 0871 70       		.byte	0x70
 13260 0872 04       		.sleb128 4
 13261 0873 96000000 		.4byte	.LVL227
 13262 0877 A5000000 		.4byte	.LVL228-1
 13263 087b 0500     		.2byte	0x5
 13264 087d F3       		.byte	0xf3
 13265 087e 01       		.uleb128 0x1
 13266 087f 50       		.byte	0x50
 13267 0880 23       		.byte	0x23
 13268 0881 04       		.uleb128 0x4
 13269 0882 00000000 		.4byte	0
 13270 0886 00000000 		.4byte	0
 13271              	.LLST71:
 13272 088a 20000000 		.4byte	.LVL217
 13273 088e 94000000 		.4byte	.LVL226
 13274 0892 0600     		.2byte	0x6
 13275 0894 F2       		.byte	0xf2
 13276 0895 7B240000 		.4byte	.Ldebug_info0+9339
 13277 0899 00       		.sleb128 0
 13278 089a BE000000 		.4byte	.LVL231
 13279 089e 36010000 		.4byte	.LVL238
 13280 08a2 0600     		.2byte	0x6
 13281 08a4 F2       		.byte	0xf2
 13282 08a5 7B240000 		.4byte	.Ldebug_info0+9339
 13283 08a9 00       		.sleb128 0
 13284 08aa 38010000 		.4byte	.LVL239
 13285 08ae 90010000 		.4byte	.LFE56
 13286 08b2 0600     		.2byte	0x6
 13287 08b4 F2       		.byte	0xf2
 13288 08b5 7B240000 		.4byte	.Ldebug_info0+9339
 13289 08b9 00       		.sleb128 0
 13290 08ba 00000000 		.4byte	0
 13291 08be 00000000 		.4byte	0
 13292              	.LLST72:
 13293 08c2 20000000 		.4byte	.LVL217
 13294 08c6 94000000 		.4byte	.LVL226
 13295 08ca 0200     		.2byte	0x2
 13296 08cc 30       		.byte	0x30
 13297 08cd 9F       		.byte	0x9f
 13298 08ce BE000000 		.4byte	.LVL231
 13299 08d2 36010000 		.4byte	.LVL238
 13300 08d6 0200     		.2byte	0x2
 13301 08d8 30       		.byte	0x30
 13302 08d9 9F       		.byte	0x9f
 13303 08da 38010000 		.4byte	.LVL239
ARM GAS  C:\Users\EBANO_~1\AppData\Local\Temp\ccJkfoGk.s 			page 263


 13304 08de 90010000 		.4byte	.LFE56
 13305 08e2 0200     		.2byte	0x2
 13306 08e4 30       		.byte	0x30
 13307 08e5 9F       		.byte	0x9f
 13308 08e6 00000000 		.4byte	0
 13309 08ea 00000000 		.4byte	0
 13310              	.LLST73:
 13311 08ee 20000000 		.4byte	.LVL217
 13312 08f2 36000000 		.4byte	.LVL220
 13313 08f6 0200     		.2byte	0x2
 13314 08f8 30       		.byte	0x30
 13315 08f9 9F       		.byte	0x9f
 13316 08fa 36000000 		.4byte	.LVL220
 13317 08fe 4E000000 		.4byte	.LVL222
 13318 0902 0700     		.2byte	0x7
 13319 0904 76       		.byte	0x76
 13320 0905 00       		.sleb128 0
 13321 0906 48       		.byte	0x48
 13322 0907 24       		.byte	0x24
 13323 0908 30       		.byte	0x30
 13324 0909 29       		.byte	0x29
 13325 090a 9F       		.byte	0x9f
 13326 090b 50000000 		.4byte	.LVL223
 13327 090f 94000000 		.4byte	.LVL226
 13328 0913 0100     		.2byte	0x1
 13329 0915 57       		.byte	0x57
 13330 0916 BE000000 		.4byte	.LVL231
 13331 091a E6000000 		.4byte	.LVL233
 13332 091e 0200     		.2byte	0x2
 13333 0920 31       		.byte	0x31
 13334 0921 9F       		.byte	0x9f
 13335 0922 48010000 		.4byte	.LVL241
 13336 0926 4E010000 		.4byte	.LVL242
 13337 092a 0100     		.2byte	0x1
 13338 092c 57       		.byte	0x57
 13339 092d 00000000 		.4byte	0
 13340 0931 00000000 		.4byte	0
 13341              	.LLST74:
 13342 0935 20000000 		.4byte	.LVL217
 13343 0939 94000000 		.4byte	.LVL226
 13344 093d 0200     		.2byte	0x2
 13345 093f 30       		.byte	0x30
 13346 0940 9F       		.byte	0x9f
 13347 0941 BE000000 		.4byte	.LVL231
 13348 0945 36010000 		.4byte	.LVL238
 13349 0949 0200     		.2byte	0x2
 13350 094b 30       		.byte	0x30
 13351 094c 9F       		.byte	0x9f
 13352 094d 38010000 		.4byte	.LVL239
 13353 0951 42010000 		.4byte	.LVL240
 13354 0955 0200     		.2byte	0x2
 13355 0957 31       		.byte	0x31
 13356 0958 9F       		.byte	0x9f
 13357 0959 42010000 		.4byte	.LVL240
 13358 095d 90010000 		.4byte	.LFE56
 13359 0961 0200     		.2byte	0x2
 13360 0963 30       		.byte	0x30
ARM GAS  C:\Users\EBANO_~1\AppData\Local\Temp\ccJkfoGk.s 			page 264


 13361 0964 9F       		.byte	0x9f
 13362 0965 00000000 		.4byte	0
 13363 0969 00000000 		.4byte	0
 13364              	.LLST75:
 13365 096d 20000000 		.4byte	.LVL217
 13366 0971 28000000 		.4byte	.LVL218
 13367 0975 0200     		.2byte	0x2
 13368 0977 70       		.byte	0x70
 13369 0978 04       		.sleb128 4
 13370 0979 28000000 		.4byte	.LVL218
 13371 097d 33000000 		.4byte	.LVL219-1
 13372 0981 0500     		.2byte	0x5
 13373 0983 F3       		.byte	0xf3
 13374 0984 01       		.uleb128 0x1
 13375 0985 50       		.byte	0x50
 13376 0986 23       		.byte	0x23
 13377 0987 04       		.uleb128 0x4
 13378 0988 00000000 		.4byte	0
 13379 098c 00000000 		.4byte	0
 13380              	.LLST76:
 13381 0990 68000000 		.4byte	.LVL224
 13382 0994 94000000 		.4byte	.LVL226
 13383 0998 0600     		.2byte	0x6
 13384 099a F2       		.byte	0xf2
 13385 099b 22250000 		.4byte	.Ldebug_info0+9506
 13386 099f 00       		.sleb128 0
 13387 09a0 BE000000 		.4byte	.LVL231
 13388 09a4 38010000 		.4byte	.LVL239
 13389 09a8 0600     		.2byte	0x6
 13390 09aa F2       		.byte	0xf2
 13391 09ab 22250000 		.4byte	.Ldebug_info0+9506
 13392 09af 00       		.sleb128 0
 13393 09b0 42010000 		.4byte	.LVL240
 13394 09b4 90010000 		.4byte	.LFE56
 13395 09b8 0600     		.2byte	0x6
 13396 09ba F2       		.byte	0xf2
 13397 09bb 22250000 		.4byte	.Ldebug_info0+9506
 13398 09bf 00       		.sleb128 0
 13399 09c0 00000000 		.4byte	0
 13400 09c4 00000000 		.4byte	0
 13401              	.LLST77:
 13402 09c8 68000000 		.4byte	.LVL224
 13403 09cc 6B000000 		.4byte	.LVL225-1
 13404 09d0 0100     		.2byte	0x1
 13405 09d2 50       		.byte	0x50
 13406 09d3 6B000000 		.4byte	.LVL225-1
 13407 09d7 94000000 		.4byte	.LVL226
 13408 09db 0100     		.2byte	0x1
 13409 09dd 56       		.byte	0x56
 13410 09de BE000000 		.4byte	.LVL231
 13411 09e2 C1000000 		.4byte	.LVL232-1
 13412 09e6 0200     		.2byte	0x2
 13413 09e8 74       		.byte	0x74
 13414 09e9 00       		.sleb128 0
 13415 09ea 48010000 		.4byte	.LVL241
 13416 09ee 4E010000 		.4byte	.LVL242
 13417 09f2 0100     		.2byte	0x1
ARM GAS  C:\Users\EBANO_~1\AppData\Local\Temp\ccJkfoGk.s 			page 265


 13418 09f4 56       		.byte	0x56
 13419 09f5 00000000 		.4byte	0
 13420 09f9 00000000 		.4byte	0
 13421              	.LLST78:
 13422 09fd F0000000 		.4byte	.LVL234
 13423 0a01 0A010000 		.4byte	.LVL236
 13424 0a05 0600     		.2byte	0x6
 13425 0a07 F2       		.byte	0xf2
 13426 0a08 22250000 		.4byte	.Ldebug_info0+9506
 13427 0a0c 00       		.sleb128 0
 13428 0a0d 52010000 		.4byte	.LVL243
 13429 0a11 90010000 		.4byte	.LFE56
 13430 0a15 0600     		.2byte	0x6
 13431 0a17 F2       		.byte	0xf2
 13432 0a18 22250000 		.4byte	.Ldebug_info0+9506
 13433 0a1c 00       		.sleb128 0
 13434 0a1d 00000000 		.4byte	0
 13435 0a21 00000000 		.4byte	0
 13436              	.LLST79:
 13437 0a25 F0000000 		.4byte	.LVL234
 13438 0a29 04010000 		.4byte	.LVL235
 13439 0a2d 0100     		.2byte	0x1
 13440 0a2f 56       		.byte	0x56
 13441 0a30 04010000 		.4byte	.LVL235
 13442 0a34 0A010000 		.4byte	.LVL236
 13443 0a38 0700     		.2byte	0x7
 13444 0a3a 76       		.byte	0x76
 13445 0a3b A0A3DA9E 		.sleb128 869700000
 13445      03
 13446 0a40 9F       		.byte	0x9f
 13447 0a41 52010000 		.4byte	.LVL243
 13448 0a45 90010000 		.4byte	.LFE56
 13449 0a49 0100     		.2byte	0x1
 13450 0a4b 56       		.byte	0x56
 13451 0a4c 00000000 		.4byte	0
 13452 0a50 00000000 		.4byte	0
 13453              	.LLST60:
 13454 0a54 00000000 		.4byte	.LFB55
 13455 0a58 02000000 		.4byte	.LCFI22
 13456 0a5c 0200     		.2byte	0x2
 13457 0a5e 7D       		.byte	0x7d
 13458 0a5f 00       		.sleb128 0
 13459 0a60 02000000 		.4byte	.LCFI22
 13460 0a64 0A000000 		.4byte	.LCFI23
 13461 0a68 0200     		.2byte	0x2
 13462 0a6a 7D       		.byte	0x7d
 13463 0a6b 10       		.sleb128 16
 13464 0a6c 0A000000 		.4byte	.LCFI23
 13465 0a70 9C000000 		.4byte	.LFE55
 13466 0a74 0200     		.2byte	0x2
 13467 0a76 7D       		.byte	0x7d
 13468 0a77 18       		.sleb128 24
 13469 0a78 00000000 		.4byte	0
 13470 0a7c 00000000 		.4byte	0
 13471              	.LLST61:
 13472 0a80 00000000 		.4byte	.LVL199
 13473 0a84 0E000000 		.4byte	.LVL201
ARM GAS  C:\Users\EBANO_~1\AppData\Local\Temp\ccJkfoGk.s 			page 266


 13474 0a88 0100     		.2byte	0x1
 13475 0a8a 50       		.byte	0x50
 13476 0a8b 0E000000 		.4byte	.LVL201
 13477 0a8f 6E000000 		.4byte	.LVL211
 13478 0a93 0100     		.2byte	0x1
 13479 0a95 54       		.byte	0x54
 13480 0a96 6E000000 		.4byte	.LVL211
 13481 0a9a 70000000 		.4byte	.LVL213
 13482 0a9e 0400     		.2byte	0x4
 13483 0aa0 F3       		.byte	0xf3
 13484 0aa1 01       		.uleb128 0x1
 13485 0aa2 50       		.byte	0x50
 13486 0aa3 9F       		.byte	0x9f
 13487 0aa4 70000000 		.4byte	.LVL213
 13488 0aa8 9C000000 		.4byte	.LFE55
 13489 0aac 0100     		.2byte	0x1
 13490 0aae 54       		.byte	0x54
 13491 0aaf 00000000 		.4byte	0
 13492 0ab3 00000000 		.4byte	0
 13493              	.LLST62:
 13494 0ab7 00000000 		.4byte	.LVL199
 13495 0abb 44000000 		.4byte	.LVL206
 13496 0abf 0200     		.2byte	0x2
 13497 0ac1 37       		.byte	0x37
 13498 0ac2 9F       		.byte	0x9f
 13499 0ac3 44000000 		.4byte	.LVL206
 13500 0ac7 56000000 		.4byte	.LVL208
 13501 0acb 0100     		.2byte	0x1
 13502 0acd 56       		.byte	0x56
 13503 0ace 56000000 		.4byte	.LVL208
 13504 0ad2 6E000000 		.4byte	.LVL212
 13505 0ad6 0100     		.2byte	0x1
 13506 0ad8 55       		.byte	0x55
 13507 0ad9 70000000 		.4byte	.LVL213
 13508 0add 9C000000 		.4byte	.LFE55
 13509 0ae1 0200     		.2byte	0x2
 13510 0ae3 37       		.byte	0x37
 13511 0ae4 9F       		.byte	0x9f
 13512 0ae5 00000000 		.4byte	0
 13513 0ae9 00000000 		.4byte	0
 13514              	.LLST63:
 13515 0aed 00000000 		.4byte	.LVL199
 13516 0af1 6A000000 		.4byte	.LVL210
 13517 0af5 0200     		.2byte	0x2
 13518 0af7 30       		.byte	0x30
 13519 0af8 9F       		.byte	0x9f
 13520 0af9 70000000 		.4byte	.LVL213
 13521 0afd 9C000000 		.4byte	.LFE55
 13522 0b01 0200     		.2byte	0x2
 13523 0b03 30       		.byte	0x30
 13524 0b04 9F       		.byte	0x9f
 13525 0b05 00000000 		.4byte	0
 13526 0b09 00000000 		.4byte	0
 13527              	.LLST64:
 13528 0b0d 06000000 		.4byte	.LVL200
 13529 0b11 3C000000 		.4byte	.LVL204
 13530 0b15 0100     		.2byte	0x1
ARM GAS  C:\Users\EBANO_~1\AppData\Local\Temp\ccJkfoGk.s 			page 267


 13531 0b17 55       		.byte	0x55
 13532 0b18 3C000000 		.4byte	.LVL204
 13533 0b1c 40000000 		.4byte	.LVL205
 13534 0b20 0700     		.2byte	0x7
 13535 0b22 75       		.byte	0x75
 13536 0b23 A0A3DA9E 		.sleb128 869700000
 13536      03
 13537 0b28 9F       		.byte	0x9f
 13538 0b29 00000000 		.4byte	0
 13539 0b2d 00000000 		.4byte	0
 13540              	.LLST65:
 13541 0b31 2A000000 		.4byte	.LVL203
 13542 0b35 40000000 		.4byte	.LVL205
 13543 0b39 0600     		.2byte	0x6
 13544 0b3b F2       		.byte	0xf2
 13545 0b3c 39260000 		.4byte	.Ldebug_info0+9785
 13546 0b40 00       		.sleb128 0
 13547 0b41 00000000 		.4byte	0
 13548 0b45 00000000 		.4byte	0
 13549              	.LLST66:
 13550 0b49 2A000000 		.4byte	.LVL203
 13551 0b4d 3C000000 		.4byte	.LVL204
 13552 0b51 0100     		.2byte	0x1
 13553 0b53 55       		.byte	0x55
 13554 0b54 3C000000 		.4byte	.LVL204
 13555 0b58 40000000 		.4byte	.LVL205
 13556 0b5c 0700     		.2byte	0x7
 13557 0b5e 75       		.byte	0x75
 13558 0b5f A0A3DA9E 		.sleb128 869700000
 13558      03
 13559 0b64 9F       		.byte	0x9f
 13560 0b65 00000000 		.4byte	0
 13561 0b69 00000000 		.4byte	0
 13562              	.LLST51:
 13563 0b6d 00000000 		.4byte	.LFB54
 13564 0b71 02000000 		.4byte	.LCFI19
 13565 0b75 0200     		.2byte	0x2
 13566 0b77 7D       		.byte	0x7d
 13567 0b78 00       		.sleb128 0
 13568 0b79 02000000 		.4byte	.LCFI19
 13569 0b7d 0C000000 		.4byte	.LCFI20
 13570 0b81 0200     		.2byte	0x2
 13571 0b83 7D       		.byte	0x7d
 13572 0b84 14       		.sleb128 20
 13573 0b85 0C000000 		.4byte	.LCFI20
 13574 0b89 0E000000 		.4byte	.LCFI21
 13575 0b8d 0200     		.2byte	0x2
 13576 0b8f 7D       		.byte	0x7d
 13577 0b90 24       		.sleb128 36
 13578 0b91 0E000000 		.4byte	.LCFI21
 13579 0b95 00030000 		.4byte	.LFE54
 13580 0b99 0300     		.2byte	0x3
 13581 0b9b 7D       		.byte	0x7d
 13582 0b9c E000     		.sleb128 96
 13583 0b9e 00000000 		.4byte	0
 13584 0ba2 00000000 		.4byte	0
 13585              	.LLST52:
ARM GAS  C:\Users\EBANO_~1\AppData\Local\Temp\ccJkfoGk.s 			page 268


 13586 0ba6 00000000 		.4byte	.LVL142
 13587 0baa 28000000 		.4byte	.LVL145
 13588 0bae 0100     		.2byte	0x1
 13589 0bb0 50       		.byte	0x50
 13590 0bb1 28000000 		.4byte	.LVL145
 13591 0bb5 A8010000 		.4byte	.LVL169
 13592 0bb9 0100     		.2byte	0x1
 13593 0bbb 56       		.byte	0x56
 13594 0bbc A8010000 		.4byte	.LVL169
 13595 0bc0 D4010000 		.4byte	.LVL174
 13596 0bc4 0400     		.2byte	0x4
 13597 0bc6 F3       		.byte	0xf3
 13598 0bc7 01       		.uleb128 0x1
 13599 0bc8 50       		.byte	0x50
 13600 0bc9 9F       		.byte	0x9f
 13601 0bca D4010000 		.4byte	.LVL174
 13602 0bce D2020000 		.4byte	.LVL194
 13603 0bd2 0100     		.2byte	0x1
 13604 0bd4 56       		.byte	0x56
 13605 0bd5 D2020000 		.4byte	.LVL194
 13606 0bd9 EC020000 		.4byte	.LVL197
 13607 0bdd 0400     		.2byte	0x4
 13608 0bdf F3       		.byte	0xf3
 13609 0be0 01       		.uleb128 0x1
 13610 0be1 50       		.byte	0x50
 13611 0be2 9F       		.byte	0x9f
 13612 0be3 EC020000 		.4byte	.LVL197
 13613 0be7 00030000 		.4byte	.LFE54
 13614 0beb 0100     		.2byte	0x1
 13615 0bed 56       		.byte	0x56
 13616 0bee 00000000 		.4byte	0
 13617 0bf2 00000000 		.4byte	0
 13618              	.LLST53:
 13619 0bf6 00000000 		.4byte	.LVL142
 13620 0bfa 28000000 		.4byte	.LVL145
 13621 0bfe 0100     		.2byte	0x1
 13622 0c00 51       		.byte	0x51
 13623 0c01 28000000 		.4byte	.LVL145
 13624 0c05 C8010000 		.4byte	.LVL173
 13625 0c09 0100     		.2byte	0x1
 13626 0c0b 5B       		.byte	0x5b
 13627 0c0c C8010000 		.4byte	.LVL173
 13628 0c10 D4010000 		.4byte	.LVL174
 13629 0c14 0400     		.2byte	0x4
 13630 0c16 F3       		.byte	0xf3
 13631 0c17 01       		.uleb128 0x1
 13632 0c18 51       		.byte	0x51
 13633 0c19 9F       		.byte	0x9f
 13634 0c1a D4010000 		.4byte	.LVL174
 13635 0c1e 00030000 		.4byte	.LFE54
 13636 0c22 0100     		.2byte	0x1
 13637 0c24 5B       		.byte	0x5b
 13638 0c25 00000000 		.4byte	0
 13639 0c29 00000000 		.4byte	0
 13640              	.LLST54:
 13641 0c2d 00000000 		.4byte	.LVL142
 13642 0c31 16000000 		.4byte	.LVL144
ARM GAS  C:\Users\EBANO_~1\AppData\Local\Temp\ccJkfoGk.s 			page 269


 13643 0c35 0100     		.2byte	0x1
 13644 0c37 52       		.byte	0x52
 13645 0c38 16000000 		.4byte	.LVL144
 13646 0c3c C8010000 		.4byte	.LVL172
 13647 0c40 0100     		.2byte	0x1
 13648 0c42 5A       		.byte	0x5a
 13649 0c43 C8010000 		.4byte	.LVL172
 13650 0c47 D4010000 		.4byte	.LVL174
 13651 0c4b 0400     		.2byte	0x4
 13652 0c4d F3       		.byte	0xf3
 13653 0c4e 01       		.uleb128 0x1
 13654 0c4f 52       		.byte	0x52
 13655 0c50 9F       		.byte	0x9f
 13656 0c51 D4010000 		.4byte	.LVL174
 13657 0c55 00030000 		.4byte	.LFE54
 13658 0c59 0100     		.2byte	0x1
 13659 0c5b 5A       		.byte	0x5a
 13660 0c5c 00000000 		.4byte	0
 13661 0c60 00000000 		.4byte	0
 13662              	.LLST55:
 13663 0c64 00000000 		.4byte	.LVL142
 13664 0c68 12000000 		.4byte	.LVL143
 13665 0c6c 0100     		.2byte	0x1
 13666 0c6e 53       		.byte	0x53
 13667 0c6f 12000000 		.4byte	.LVL143
 13668 0c73 00030000 		.4byte	.LFE54
 13669 0c77 0300     		.2byte	0x3
 13670 0c79 91       		.byte	0x91
 13671 0c7a A47F     		.sleb128 -92
 13672 0c7c 00000000 		.4byte	0
 13673 0c80 00000000 		.4byte	0
 13674              	.LLST56:
 13675 0c84 00000000 		.4byte	.LVL142
 13676 0c88 28000000 		.4byte	.LVL145
 13677 0c8c 0200     		.2byte	0x2
 13678 0c8e 37       		.byte	0x37
 13679 0c8f 9F       		.byte	0x9f
 13680 0c90 28000000 		.4byte	.LVL145
 13681 0c94 4C000000 		.4byte	.LVL148
 13682 0c98 0100     		.2byte	0x1
 13683 0c9a 59       		.byte	0x59
 13684 0c9b 4C000000 		.4byte	.LVL148
 13685 0c9f 6E000000 		.4byte	.LVL151
 13686 0ca3 0200     		.2byte	0x2
 13687 0ca5 37       		.byte	0x37
 13688 0ca6 9F       		.byte	0x9f
 13689 0ca7 6E000000 		.4byte	.LVL151
 13690 0cab A8010000 		.4byte	.LVL169
 13691 0caf 0100     		.2byte	0x1
 13692 0cb1 59       		.byte	0x59
 13693 0cb2 A8010000 		.4byte	.LVL169
 13694 0cb6 AE010000 		.4byte	.LVL170
 13695 0cba 0100     		.2byte	0x1
 13696 0cbc 50       		.byte	0x50
 13697 0cbd D4010000 		.4byte	.LVL174
 13698 0cc1 D2020000 		.4byte	.LVL194
 13699 0cc5 0200     		.2byte	0x2
ARM GAS  C:\Users\EBANO_~1\AppData\Local\Temp\ccJkfoGk.s 			page 270


 13700 0cc7 37       		.byte	0x37
 13701 0cc8 9F       		.byte	0x9f
 13702 0cc9 D2020000 		.4byte	.LVL194
 13703 0ccd D4020000 		.4byte	.LVL195
 13704 0cd1 0100     		.2byte	0x1
 13705 0cd3 50       		.byte	0x50
 13706 0cd4 EC020000 		.4byte	.LVL197
 13707 0cd8 00030000 		.4byte	.LFE54
 13708 0cdc 0200     		.2byte	0x2
 13709 0cde 37       		.byte	0x37
 13710 0cdf 9F       		.byte	0x9f
 13711 0ce0 00000000 		.4byte	0
 13712 0ce4 00000000 		.4byte	0
 13713              	.LLST57:
 13714 0ce8 00000000 		.4byte	.LVL142
 13715 0cec 28000000 		.4byte	.LVL145
 13716 0cf0 0200     		.2byte	0x2
 13717 0cf2 30       		.byte	0x30
 13718 0cf3 9F       		.byte	0x9f
 13719 0cf4 3A000000 		.4byte	.LVL146
 13720 0cf8 4E000000 		.4byte	.LVL149
 13721 0cfc 0100     		.2byte	0x1
 13722 0cfe 50       		.byte	0x50
 13723 0cff 00000000 		.4byte	0
 13724 0d03 00000000 		.4byte	0
 13725              	.LLST58:
 13726 0d07 00000000 		.4byte	.LVL142
 13727 0d0b 28000000 		.4byte	.LVL145
 13728 0d0f 0200     		.2byte	0x2
 13729 0d11 30       		.byte	0x30
 13730 0d12 9F       		.byte	0x9f
 13731 0d13 28000000 		.4byte	.LVL145
 13732 0d17 4A000000 		.4byte	.LVL147
 13733 0d1b 0100     		.2byte	0x1
 13734 0d1d 54       		.byte	0x54
 13735 0d1e 4C000000 		.4byte	.LVL148
 13736 0d22 C8010000 		.4byte	.LVL171
 13737 0d26 0100     		.2byte	0x1
 13738 0d28 54       		.byte	0x54
 13739 0d29 C8010000 		.4byte	.LVL171
 13740 0d2d D4010000 		.4byte	.LVL174
 13741 0d31 0200     		.2byte	0x2
 13742 0d33 73       		.byte	0x73
 13743 0d34 00       		.sleb128 0
 13744 0d35 D4010000 		.4byte	.LVL174
 13745 0d39 00030000 		.4byte	.LFE54
 13746 0d3d 0100     		.2byte	0x1
 13747 0d3f 54       		.byte	0x54
 13748 0d40 00000000 		.4byte	0
 13749 0d44 00000000 		.4byte	0
 13750              	.LLST59:
 13751 0d48 5C000000 		.4byte	.LVL150
 13752 0d4c 6E000000 		.4byte	.LVL151
 13753 0d50 0200     		.2byte	0x2
 13754 0d52 30       		.byte	0x30
 13755 0d53 9F       		.byte	0x9f
 13756 0d54 6E000000 		.4byte	.LVL151
ARM GAS  C:\Users\EBANO_~1\AppData\Local\Temp\ccJkfoGk.s 			page 271


 13757 0d58 7C000000 		.4byte	.LVL152
 13758 0d5c 0200     		.2byte	0x2
 13759 0d5e 31       		.byte	0x31
 13760 0d5f 9F       		.byte	0x9f
 13761 0d60 7C000000 		.4byte	.LVL152
 13762 0d64 8A000000 		.4byte	.LVL153
 13763 0d68 0200     		.2byte	0x2
 13764 0d6a 32       		.byte	0x32
 13765 0d6b 9F       		.byte	0x9f
 13766 0d6c 8A000000 		.4byte	.LVL153
 13767 0d70 98000000 		.4byte	.LVL154
 13768 0d74 0200     		.2byte	0x2
 13769 0d76 33       		.byte	0x33
 13770 0d77 9F       		.byte	0x9f
 13771 0d78 98000000 		.4byte	.LVL154
 13772 0d7c A6000000 		.4byte	.LVL155
 13773 0d80 0200     		.2byte	0x2
 13774 0d82 34       		.byte	0x34
 13775 0d83 9F       		.byte	0x9f
 13776 0d84 A6000000 		.4byte	.LVL155
 13777 0d88 B4000000 		.4byte	.LVL156
 13778 0d8c 0200     		.2byte	0x2
 13779 0d8e 35       		.byte	0x35
 13780 0d8f 9F       		.byte	0x9f
 13781 0d90 B4000000 		.4byte	.LVL156
 13782 0d94 C2000000 		.4byte	.LVL157
 13783 0d98 0200     		.2byte	0x2
 13784 0d9a 36       		.byte	0x36
 13785 0d9b 9F       		.byte	0x9f
 13786 0d9c C2000000 		.4byte	.LVL157
 13787 0da0 D0000000 		.4byte	.LVL158
 13788 0da4 0200     		.2byte	0x2
 13789 0da6 37       		.byte	0x37
 13790 0da7 9F       		.byte	0x9f
 13791 0da8 D0000000 		.4byte	.LVL158
 13792 0dac DE000000 		.4byte	.LVL159
 13793 0db0 0200     		.2byte	0x2
 13794 0db2 38       		.byte	0x38
 13795 0db3 9F       		.byte	0x9f
 13796 0db4 DE000000 		.4byte	.LVL159
 13797 0db8 EC000000 		.4byte	.LVL160
 13798 0dbc 0200     		.2byte	0x2
 13799 0dbe 39       		.byte	0x39
 13800 0dbf 9F       		.byte	0x9f
 13801 0dc0 EC000000 		.4byte	.LVL160
 13802 0dc4 FA000000 		.4byte	.LVL161
 13803 0dc8 0200     		.2byte	0x2
 13804 0dca 3A       		.byte	0x3a
 13805 0dcb 9F       		.byte	0x9f
 13806 0dcc FA000000 		.4byte	.LVL161
 13807 0dd0 0A010000 		.4byte	.LVL162
 13808 0dd4 0200     		.2byte	0x2
 13809 0dd6 3B       		.byte	0x3b
 13810 0dd7 9F       		.byte	0x9f
 13811 0dd8 0A010000 		.4byte	.LVL162
 13812 0ddc 1A010000 		.4byte	.LVL163
 13813 0de0 0200     		.2byte	0x2
ARM GAS  C:\Users\EBANO_~1\AppData\Local\Temp\ccJkfoGk.s 			page 272


 13814 0de2 3C       		.byte	0x3c
 13815 0de3 9F       		.byte	0x9f
 13816 0de4 1A010000 		.4byte	.LVL163
 13817 0de8 2A010000 		.4byte	.LVL164
 13818 0dec 0200     		.2byte	0x2
 13819 0dee 3D       		.byte	0x3d
 13820 0def 9F       		.byte	0x9f
 13821 0df0 2A010000 		.4byte	.LVL164
 13822 0df4 3A010000 		.4byte	.LVL165
 13823 0df8 0200     		.2byte	0x2
 13824 0dfa 3E       		.byte	0x3e
 13825 0dfb 9F       		.byte	0x9f
 13826 0dfc 3A010000 		.4byte	.LVL165
 13827 0e00 58010000 		.4byte	.LVL167
 13828 0e04 0200     		.2byte	0x2
 13829 0e06 3F       		.byte	0x3f
 13830 0e07 9F       		.byte	0x9f
 13831 0e08 E6010000 		.4byte	.LVL175
 13832 0e0c F4010000 		.4byte	.LVL176
 13833 0e10 0200     		.2byte	0x2
 13834 0e12 30       		.byte	0x30
 13835 0e13 9F       		.byte	0x9f
 13836 0e14 F4010000 		.4byte	.LVL176
 13837 0e18 00020000 		.4byte	.LVL177
 13838 0e1c 0200     		.2byte	0x2
 13839 0e1e 31       		.byte	0x31
 13840 0e1f 9F       		.byte	0x9f
 13841 0e20 00020000 		.4byte	.LVL177
 13842 0e24 0C020000 		.4byte	.LVL178
 13843 0e28 0200     		.2byte	0x2
 13844 0e2a 32       		.byte	0x32
 13845 0e2b 9F       		.byte	0x9f
 13846 0e2c 0C020000 		.4byte	.LVL178
 13847 0e30 18020000 		.4byte	.LVL179
 13848 0e34 0200     		.2byte	0x2
 13849 0e36 33       		.byte	0x33
 13850 0e37 9F       		.byte	0x9f
 13851 0e38 18020000 		.4byte	.LVL179
 13852 0e3c 24020000 		.4byte	.LVL180
 13853 0e40 0200     		.2byte	0x2
 13854 0e42 34       		.byte	0x34
 13855 0e43 9F       		.byte	0x9f
 13856 0e44 24020000 		.4byte	.LVL180
 13857 0e48 30020000 		.4byte	.LVL181
 13858 0e4c 0200     		.2byte	0x2
 13859 0e4e 35       		.byte	0x35
 13860 0e4f 9F       		.byte	0x9f
 13861 0e50 30020000 		.4byte	.LVL181
 13862 0e54 3C020000 		.4byte	.LVL182
 13863 0e58 0200     		.2byte	0x2
 13864 0e5a 36       		.byte	0x36
 13865 0e5b 9F       		.byte	0x9f
 13866 0e5c 3C020000 		.4byte	.LVL182
 13867 0e60 48020000 		.4byte	.LVL183
 13868 0e64 0200     		.2byte	0x2
 13869 0e66 37       		.byte	0x37
 13870 0e67 9F       		.byte	0x9f
ARM GAS  C:\Users\EBANO_~1\AppData\Local\Temp\ccJkfoGk.s 			page 273


 13871 0e68 48020000 		.4byte	.LVL183
 13872 0e6c 56020000 		.4byte	.LVL184
 13873 0e70 0200     		.2byte	0x2
 13874 0e72 38       		.byte	0x38
 13875 0e73 9F       		.byte	0x9f
 13876 0e74 56020000 		.4byte	.LVL184
 13877 0e78 64020000 		.4byte	.LVL185
 13878 0e7c 0200     		.2byte	0x2
 13879 0e7e 39       		.byte	0x39
 13880 0e7f 9F       		.byte	0x9f
 13881 0e80 64020000 		.4byte	.LVL185
 13882 0e84 72020000 		.4byte	.LVL186
 13883 0e88 0200     		.2byte	0x2
 13884 0e8a 3A       		.byte	0x3a
 13885 0e8b 9F       		.byte	0x9f
 13886 0e8c 72020000 		.4byte	.LVL186
 13887 0e90 82020000 		.4byte	.LVL187
 13888 0e94 0200     		.2byte	0x2
 13889 0e96 3B       		.byte	0x3b
 13890 0e97 9F       		.byte	0x9f
 13891 0e98 82020000 		.4byte	.LVL187
 13892 0e9c 92020000 		.4byte	.LVL188
 13893 0ea0 0200     		.2byte	0x2
 13894 0ea2 3C       		.byte	0x3c
 13895 0ea3 9F       		.byte	0x9f
 13896 0ea4 92020000 		.4byte	.LVL188
 13897 0ea8 9A020000 		.4byte	.LVL189
 13898 0eac 0200     		.2byte	0x2
 13899 0eae 3D       		.byte	0x3d
 13900 0eaf 9F       		.byte	0x9f
 13901 0eb0 9A020000 		.4byte	.LVL189
 13902 0eb4 A8020000 		.4byte	.LVL190
 13903 0eb8 0200     		.2byte	0x2
 13904 0eba 3E       		.byte	0x3e
 13905 0ebb 9F       		.byte	0x9f
 13906 0ebc A8020000 		.4byte	.LVL190
 13907 0ec0 B6020000 		.4byte	.LVL191
 13908 0ec4 0200     		.2byte	0x2
 13909 0ec6 3F       		.byte	0x3f
 13910 0ec7 9F       		.byte	0x9f
 13911 0ec8 BE020000 		.4byte	.LVL192
 13912 0ecc C6020000 		.4byte	.LVL193
 13913 0ed0 0200     		.2byte	0x2
 13914 0ed2 3F       		.byte	0x3f
 13915 0ed3 9F       		.byte	0x9f
 13916 0ed4 C6020000 		.4byte	.LVL193
 13917 0ed8 D2020000 		.4byte	.LVL194
 13918 0edc 0200     		.2byte	0x2
 13919 0ede 40       		.byte	0x40
 13920 0edf 9F       		.byte	0x9f
 13921 0ee0 EC020000 		.4byte	.LVL197
 13922 0ee4 F2020000 		.4byte	.LVL198
 13923 0ee8 0200     		.2byte	0x2
 13924 0eea 3D       		.byte	0x3d
 13925 0eeb 9F       		.byte	0x9f
 13926 0eec F2020000 		.4byte	.LVL198
 13927 0ef0 00030000 		.4byte	.LFE54
ARM GAS  C:\Users\EBANO_~1\AppData\Local\Temp\ccJkfoGk.s 			page 274


 13928 0ef4 0200     		.2byte	0x2
 13929 0ef6 3E       		.byte	0x3e
 13930 0ef7 9F       		.byte	0x9f
 13931 0ef8 00000000 		.4byte	0
 13932 0efc 00000000 		.4byte	0
 13933              	.LLST40:
 13934 0f00 00000000 		.4byte	.LFB53
 13935 0f04 02000000 		.4byte	.LCFI16
 13936 0f08 0200     		.2byte	0x2
 13937 0f0a 7D       		.byte	0x7d
 13938 0f0b 00       		.sleb128 0
 13939 0f0c 02000000 		.4byte	.LCFI16
 13940 0f10 14000000 		.4byte	.LCFI17
 13941 0f14 0200     		.2byte	0x2
 13942 0f16 7D       		.byte	0x7d
 13943 0f17 14       		.sleb128 20
 13944 0f18 14000000 		.4byte	.LCFI17
 13945 0f1c 16000000 		.4byte	.LCFI18
 13946 0f20 0200     		.2byte	0x2
 13947 0f22 7D       		.byte	0x7d
 13948 0f23 24       		.sleb128 36
 13949 0f24 16000000 		.4byte	.LCFI18
 13950 0f28 3C010000 		.4byte	.LFE53
 13951 0f2c 0300     		.2byte	0x3
 13952 0f2e 7D       		.byte	0x7d
 13953 0f2f D800     		.sleb128 88
 13954 0f31 00000000 		.4byte	0
 13955 0f35 00000000 		.4byte	0
 13956              	.LLST41:
 13957 0f39 00000000 		.4byte	.LVL114
 13958 0f3d 20000000 		.4byte	.LVL117
 13959 0f41 0100     		.2byte	0x1
 13960 0f43 50       		.byte	0x50
 13961 0f44 20000000 		.4byte	.LVL117
 13962 0f48 D8000000 		.4byte	.LVL133
 13963 0f4c 0100     		.2byte	0x1
 13964 0f4e 54       		.byte	0x54
 13965 0f4f D8000000 		.4byte	.LVL133
 13966 0f53 E4000000 		.4byte	.LVL137
 13967 0f57 0400     		.2byte	0x4
 13968 0f59 F3       		.byte	0xf3
 13969 0f5a 01       		.uleb128 0x1
 13970 0f5b 50       		.byte	0x50
 13971 0f5c 9F       		.byte	0x9f
 13972 0f5d E4000000 		.4byte	.LVL137
 13973 0f61 3C010000 		.4byte	.LFE53
 13974 0f65 0100     		.2byte	0x1
 13975 0f67 54       		.byte	0x54
 13976 0f68 00000000 		.4byte	0
 13977 0f6c 00000000 		.4byte	0
 13978              	.LLST42:
 13979 0f70 00000000 		.4byte	.LVL114
 13980 0f74 1C000000 		.4byte	.LVL116
 13981 0f78 0100     		.2byte	0x1
 13982 0f7a 51       		.byte	0x51
 13983 0f7b 1C000000 		.4byte	.LVL116
 13984 0f7f 3C010000 		.4byte	.LFE53
ARM GAS  C:\Users\EBANO_~1\AppData\Local\Temp\ccJkfoGk.s 			page 275


 13985 0f83 0200     		.2byte	0x2
 13986 0f85 91       		.byte	0x91
 13987 0f86 50       		.sleb128 -48
 13988 0f87 00000000 		.4byte	0
 13989 0f8b 00000000 		.4byte	0
 13990              	.LLST43:
 13991 0f8f 00000000 		.4byte	.LVL114
 13992 0f93 0E000000 		.4byte	.LVL115
 13993 0f97 0100     		.2byte	0x1
 13994 0f99 52       		.byte	0x52
 13995 0f9a 0E000000 		.4byte	.LVL115
 13996 0f9e D8000000 		.4byte	.LVL135
 13997 0fa2 0100     		.2byte	0x1
 13998 0fa4 58       		.byte	0x58
 13999 0fa5 D8000000 		.4byte	.LVL135
 14000 0fa9 E4000000 		.4byte	.LVL137
 14001 0fad 0400     		.2byte	0x4
 14002 0faf F3       		.byte	0xf3
 14003 0fb0 01       		.uleb128 0x1
 14004 0fb1 52       		.byte	0x52
 14005 0fb2 9F       		.byte	0x9f
 14006 0fb3 E4000000 		.4byte	.LVL137
 14007 0fb7 3C010000 		.4byte	.LFE53
 14008 0fbb 0100     		.2byte	0x1
 14009 0fbd 58       		.byte	0x58
 14010 0fbe 00000000 		.4byte	0
 14011 0fc2 00000000 		.4byte	0
 14012              	.LLST44:
 14013 0fc6 8E000000 		.4byte	.LVL127
 14014 0fca B6000000 		.4byte	.LVL130
 14015 0fce 0200     		.2byte	0x2
 14016 0fd0 31       		.byte	0x31
 14017 0fd1 9F       		.byte	0x9f
 14018 0fd2 B6000000 		.4byte	.LVL130
 14019 0fd6 D8000000 		.4byte	.LVL134
 14020 0fda 0100     		.2byte	0x1
 14021 0fdc 56       		.byte	0x56
 14022 0fdd EA000000 		.4byte	.LVL139
 14023 0fe1 3C010000 		.4byte	.LFE53
 14024 0fe5 0200     		.2byte	0x2
 14025 0fe7 30       		.byte	0x30
 14026 0fe8 9F       		.byte	0x9f
 14027 0fe9 00000000 		.4byte	0
 14028 0fed 00000000 		.4byte	0
 14029              	.LLST45:
 14030 0ff1 22000000 		.4byte	.LVL118
 14031 0ff5 AC000000 		.4byte	.LVL128
 14032 0ff9 0100     		.2byte	0x1
 14033 0ffb 56       		.byte	0x56
 14034 0ffc AC000000 		.4byte	.LVL128
 14035 1000 B3000000 		.4byte	.LVL129-1
 14036 1004 0200     		.2byte	0x2
 14037 1006 7D       		.byte	0x7d
 14038 1007 00       		.sleb128 0
 14039 1008 E4000000 		.4byte	.LVL137
 14040 100c 04010000 		.4byte	.LVL140
 14041 1010 0100     		.2byte	0x1
ARM GAS  C:\Users\EBANO_~1\AppData\Local\Temp\ccJkfoGk.s 			page 276


 14042 1012 56       		.byte	0x56
 14043 1013 00000000 		.4byte	0
 14044 1017 00000000 		.4byte	0
 14045              	.LLST46:
 14046 101b 64000000 		.4byte	.LVL123
 14047 101f 72000000 		.4byte	.LVL125
 14048 1023 0200     		.2byte	0x2
 14049 1025 30       		.byte	0x30
 14050 1026 9F       		.byte	0x9f
 14051 1027 72000000 		.4byte	.LVL125
 14052 102b D8000000 		.4byte	.LVL136
 14053 102f 0100     		.2byte	0x1
 14054 1031 5B       		.byte	0x5b
 14055 1032 EA000000 		.4byte	.LVL139
 14056 1036 3C010000 		.4byte	.LFE53
 14057 103a 0100     		.2byte	0x1
 14058 103c 5B       		.byte	0x5b
 14059 103d 00000000 		.4byte	0
 14060 1041 00000000 		.4byte	0
 14061              	.LLST47:
 14062 1045 22000000 		.4byte	.LVL118
 14063 1049 4C000000 		.4byte	.LVL121
 14064 104d 0100     		.2byte	0x1
 14065 104f 52       		.byte	0x52
 14066 1050 4C000000 		.4byte	.LVL121
 14067 1054 6D000000 		.4byte	.LVL124-1
 14068 1058 0200     		.2byte	0x2
 14069 105a 74       		.byte	0x74
 14070 105b 01       		.sleb128 1
 14071 105c E4000000 		.4byte	.LVL137
 14072 1060 E6000000 		.4byte	.LVL138
 14073 1064 0200     		.2byte	0x2
 14074 1066 74       		.byte	0x74
 14075 1067 01       		.sleb128 1
 14076 1068 E6000000 		.4byte	.LVL138
 14077 106c EA000000 		.4byte	.LVL139
 14078 1070 0500     		.2byte	0x5
 14079 1072 74       		.byte	0x74
 14080 1073 00       		.sleb128 0
 14081 1074 73       		.byte	0x73
 14082 1075 00       		.sleb128 0
 14083 1076 22       		.byte	0x22
 14084 1077 00000000 		.4byte	0
 14085 107b 00000000 		.4byte	0
 14086              	.LLST48:
 14087 107f 22000000 		.4byte	.LVL118
 14088 1083 24000000 		.4byte	.LVL119
 14089 1087 1E00     		.2byte	0x1e
 14090 1089 74       		.byte	0x74
 14091 108a 00       		.sleb128 0
 14092 108b 94       		.byte	0x94
 14093 108c 01       		.byte	0x1
 14094 108d 08       		.byte	0x8
 14095 108e FF       		.byte	0xff
 14096 108f 1A       		.byte	0x1a
 14097 1090 3C       		.byte	0x3c
 14098 1091 1E       		.byte	0x1e
ARM GAS  C:\Users\EBANO_~1\AppData\Local\Temp\ccJkfoGk.s 			page 277


 14099 1092 03       		.byte	0x3
 14100 1093 09000000 		.4byte	NvmCtx+9
 14101 1097 22       		.byte	0x22
 14102 1098 94       		.byte	0x94
 14103 1099 01       		.byte	0x1
 14104 109a 08       		.byte	0x8
 14105 109b FF       		.byte	0xff
 14106 109c 1A       		.byte	0x1a
 14107 109d 23       		.byte	0x23
 14108 109e 0C       		.uleb128 0xc
 14109 109f 34       		.byte	0x34
 14110 10a0 24       		.byte	0x24
 14111 10a1 03       		.byte	0x3
 14112 10a2 02000000 		.4byte	NvmCtx+2
 14113 10a6 22       		.byte	0x22
 14114 10a7 24000000 		.4byte	.LVL119
 14115 10ab 2A000000 		.4byte	.LVL120
 14116 10af 1900     		.2byte	0x19
 14117 10b1 70       		.byte	0x70
 14118 10b2 00       		.sleb128 0
 14119 10b3 3C       		.byte	0x3c
 14120 10b4 1E       		.byte	0x1e
 14121 10b5 03       		.byte	0x3
 14122 10b6 09000000 		.4byte	NvmCtx+9
 14123 10ba 22       		.byte	0x22
 14124 10bb 94       		.byte	0x94
 14125 10bc 01       		.byte	0x1
 14126 10bd 08       		.byte	0x8
 14127 10be FF       		.byte	0xff
 14128 10bf 1A       		.byte	0x1a
 14129 10c0 23       		.byte	0x23
 14130 10c1 0C       		.uleb128 0xc
 14131 10c2 34       		.byte	0x34
 14132 10c3 24       		.byte	0x24
 14133 10c4 03       		.byte	0x3
 14134 10c5 02000000 		.4byte	NvmCtx+2
 14135 10c9 22       		.byte	0x22
 14136 10ca 2A000000 		.4byte	.LVL120
 14137 10ce 4E000000 		.4byte	.LVL122
 14138 10d2 1E00     		.2byte	0x1e
 14139 10d4 74       		.byte	0x74
 14140 10d5 00       		.sleb128 0
 14141 10d6 94       		.byte	0x94
 14142 10d7 01       		.byte	0x1
 14143 10d8 08       		.byte	0x8
 14144 10d9 FF       		.byte	0xff
 14145 10da 1A       		.byte	0x1a
 14146 10db 3C       		.byte	0x3c
 14147 10dc 1E       		.byte	0x1e
 14148 10dd 03       		.byte	0x3
 14149 10de 09000000 		.4byte	NvmCtx+9
 14150 10e2 22       		.byte	0x22
 14151 10e3 94       		.byte	0x94
 14152 10e4 01       		.byte	0x1
 14153 10e5 08       		.byte	0x8
 14154 10e6 FF       		.byte	0xff
 14155 10e7 1A       		.byte	0x1a
ARM GAS  C:\Users\EBANO_~1\AppData\Local\Temp\ccJkfoGk.s 			page 278


 14156 10e8 23       		.byte	0x23
 14157 10e9 0C       		.uleb128 0xc
 14158 10ea 34       		.byte	0x34
 14159 10eb 24       		.byte	0x24
 14160 10ec 03       		.byte	0x3
 14161 10ed 02000000 		.4byte	NvmCtx+2
 14162 10f1 22       		.byte	0x22
 14163 10f2 00000000 		.4byte	0
 14164 10f6 00000000 		.4byte	0
 14165              	.LLST49:
 14166 10fa 22000000 		.4byte	.LVL118
 14167 10fe 4E000000 		.4byte	.LVL122
 14168 1102 0200     		.2byte	0x2
 14169 1104 74       		.byte	0x74
 14170 1105 02       		.sleb128 2
 14171 1106 00000000 		.4byte	0
 14172 110a 00000000 		.4byte	0
 14173              	.LLST32:
 14174 110e 00000000 		.4byte	.LFB52
 14175 1112 02000000 		.4byte	.LCFI13
 14176 1116 0200     		.2byte	0x2
 14177 1118 7D       		.byte	0x7d
 14178 1119 00       		.sleb128 0
 14179 111a 02000000 		.4byte	.LCFI13
 14180 111e 0A000000 		.4byte	.LCFI14
 14181 1122 0200     		.2byte	0x2
 14182 1124 7D       		.byte	0x7d
 14183 1125 14       		.sleb128 20
 14184 1126 0A000000 		.4byte	.LCFI14
 14185 112a 16000000 		.4byte	.LCFI15
 14186 112e 0200     		.2byte	0x2
 14187 1130 7D       		.byte	0x7d
 14188 1131 20       		.sleb128 32
 14189 1132 16000000 		.4byte	.LCFI15
 14190 1136 0C010000 		.4byte	.LFE52
 14191 113a 0300     		.2byte	0x3
 14192 113c 7D       		.byte	0x7d
 14193 113d D000     		.sleb128 80
 14194 113f 00000000 		.4byte	0
 14195 1143 00000000 		.4byte	0
 14196              	.LLST33:
 14197 1147 00000000 		.4byte	.LVL91
 14198 114b 1F000000 		.4byte	.LVL93-1
 14199 114f 0100     		.2byte	0x1
 14200 1151 50       		.byte	0x50
 14201 1152 1F000000 		.4byte	.LVL93-1
 14202 1156 A8000000 		.4byte	.LVL105
 14203 115a 0100     		.2byte	0x1
 14204 115c 54       		.byte	0x54
 14205 115d A8000000 		.4byte	.LVL105
 14206 1161 B2000000 		.4byte	.LVL109
 14207 1165 0400     		.2byte	0x4
 14208 1167 F3       		.byte	0xf3
 14209 1168 01       		.uleb128 0x1
 14210 1169 50       		.byte	0x50
 14211 116a 9F       		.byte	0x9f
 14212 116b B2000000 		.4byte	.LVL109
ARM GAS  C:\Users\EBANO_~1\AppData\Local\Temp\ccJkfoGk.s 			page 279


 14213 116f 0C010000 		.4byte	.LFE52
 14214 1173 0100     		.2byte	0x1
 14215 1175 54       		.byte	0x54
 14216 1176 00000000 		.4byte	0
 14217 117a 00000000 		.4byte	0
 14218              	.LLST34:
 14219 117e 00000000 		.4byte	.LVL91
 14220 1182 1F000000 		.4byte	.LVL93-1
 14221 1186 0100     		.2byte	0x1
 14222 1188 51       		.byte	0x51
 14223 1189 1F000000 		.4byte	.LVL93-1
 14224 118d A8000000 		.4byte	.LVL108
 14225 1191 0100     		.2byte	0x1
 14226 1193 5A       		.byte	0x5a
 14227 1194 A8000000 		.4byte	.LVL108
 14228 1198 B2000000 		.4byte	.LVL109
 14229 119c 0400     		.2byte	0x4
 14230 119e F3       		.byte	0xf3
 14231 119f 01       		.uleb128 0x1
 14232 11a0 51       		.byte	0x51
 14233 11a1 9F       		.byte	0x9f
 14234 11a2 B2000000 		.4byte	.LVL109
 14235 11a6 0C010000 		.4byte	.LFE52
 14236 11aa 0100     		.2byte	0x1
 14237 11ac 5A       		.byte	0x5a
 14238 11ad 00000000 		.4byte	0
 14239 11b1 00000000 		.4byte	0
 14240              	.LLST35:
 14241 11b5 5E000000 		.4byte	.LVL98
 14242 11b9 88000000 		.4byte	.LVL100
 14243 11bd 0200     		.2byte	0x2
 14244 11bf 31       		.byte	0x31
 14245 11c0 9F       		.byte	0x9f
 14246 11c1 88000000 		.4byte	.LVL100
 14247 11c5 9D000000 		.4byte	.LVL103-1
 14248 11c9 0100     		.2byte	0x1
 14249 11cb 50       		.byte	0x50
 14250 11cc B2000000 		.4byte	.LVL109
 14251 11d0 B8000000 		.4byte	.LVL111
 14252 11d4 0100     		.2byte	0x1
 14253 11d6 50       		.byte	0x50
 14254 11d7 B8000000 		.4byte	.LVL111
 14255 11db F0000000 		.4byte	.LVL113
 14256 11df 0200     		.2byte	0x2
 14257 11e1 30       		.byte	0x30
 14258 11e2 9F       		.byte	0x9f
 14259 11e3 00000000 		.4byte	0
 14260 11e7 00000000 		.4byte	0
 14261              	.LLST36:
 14262 11eb 18000000 		.4byte	.LVL92
 14263 11ef A8000000 		.4byte	.LVL106
 14264 11f3 0100     		.2byte	0x1
 14265 11f5 56       		.byte	0x56
 14266 11f6 B2000000 		.4byte	.LVL109
 14267 11fa 0C010000 		.4byte	.LFE52
 14268 11fe 0100     		.2byte	0x1
 14269 1200 56       		.byte	0x56
ARM GAS  C:\Users\EBANO_~1\AppData\Local\Temp\ccJkfoGk.s 			page 280


 14270 1201 00000000 		.4byte	0
 14271 1205 00000000 		.4byte	0
 14272              	.LLST37:
 14273 1209 18000000 		.4byte	.LVL92
 14274 120d 94000000 		.4byte	.LVL101
 14275 1211 0200     		.2byte	0x2
 14276 1213 30       		.byte	0x30
 14277 1214 9F       		.byte	0x9f
 14278 1215 94000000 		.4byte	.LVL101
 14279 1219 98000000 		.4byte	.LVL102
 14280 121d 0100     		.2byte	0x1
 14281 121f 51       		.byte	0x51
 14282 1220 B2000000 		.4byte	.LVL109
 14283 1224 B6000000 		.4byte	.LVL110
 14284 1228 0200     		.2byte	0x2
 14285 122a 30       		.byte	0x30
 14286 122b 9F       		.byte	0x9f
 14287 122c B6000000 		.4byte	.LVL110
 14288 1230 B8000000 		.4byte	.LVL111
 14289 1234 0100     		.2byte	0x1
 14290 1236 51       		.byte	0x51
 14291 1237 B8000000 		.4byte	.LVL111
 14292 123b 0C010000 		.4byte	.LFE52
 14293 123f 0200     		.2byte	0x2
 14294 1241 30       		.byte	0x30
 14295 1242 9F       		.byte	0x9f
 14296 1243 00000000 		.4byte	0
 14297 1247 00000000 		.4byte	0
 14298              	.LLST38:
 14299 124b 18000000 		.4byte	.LVL92
 14300 124f 4E000000 		.4byte	.LVL96
 14301 1253 0200     		.2byte	0x2
 14302 1255 30       		.byte	0x30
 14303 1256 9F       		.byte	0x9f
 14304 1257 4E000000 		.4byte	.LVL96
 14305 125b A4000000 		.4byte	.LVL104
 14306 125f 0100     		.2byte	0x1
 14307 1261 59       		.byte	0x59
 14308 1262 B2000000 		.4byte	.LVL109
 14309 1266 F0000000 		.4byte	.LVL113
 14310 126a 0100     		.2byte	0x1
 14311 126c 59       		.byte	0x59
 14312 126d F0000000 		.4byte	.LVL113
 14313 1271 0C010000 		.4byte	.LFE52
 14314 1275 0200     		.2byte	0x2
 14315 1277 30       		.byte	0x30
 14316 1278 9F       		.byte	0x9f
 14317 1279 00000000 		.4byte	0
 14318 127d 00000000 		.4byte	0
 14319              	.LLST39:
 14320 1281 18000000 		.4byte	.LVL92
 14321 1285 38000000 		.4byte	.LVL94
 14322 1289 0100     		.2byte	0x1
 14323 128b 58       		.byte	0x58
 14324 128c 38000000 		.4byte	.LVL94
 14325 1290 42000000 		.4byte	.LVL95
 14326 1294 0100     		.2byte	0x1
ARM GAS  C:\Users\EBANO_~1\AppData\Local\Temp\ccJkfoGk.s 			page 281


 14327 1296 51       		.byte	0x51
 14328 1297 42000000 		.4byte	.LVL95
 14329 129b A8000000 		.4byte	.LVL107
 14330 129f 0100     		.2byte	0x1
 14331 12a1 58       		.byte	0x58
 14332 12a2 B2000000 		.4byte	.LVL109
 14333 12a6 F0000000 		.4byte	.LVL113
 14334 12aa 0100     		.2byte	0x1
 14335 12ac 58       		.byte	0x58
 14336 12ad F0000000 		.4byte	.LVL113
 14337 12b1 0C010000 		.4byte	.LFE52
 14338 12b5 0100     		.2byte	0x1
 14339 12b7 51       		.byte	0x51
 14340 12b8 00000000 		.4byte	0
 14341 12bc 00000000 		.4byte	0
 14342              	.LLST26:
 14343 12c0 00000000 		.4byte	.LFB51
 14344 12c4 02000000 		.4byte	.LCFI10
 14345 12c8 0200     		.2byte	0x2
 14346 12ca 7D       		.byte	0x7d
 14347 12cb 00       		.sleb128 0
 14348 12cc 02000000 		.4byte	.LCFI10
 14349 12d0 06000000 		.4byte	.LCFI11
 14350 12d4 0200     		.2byte	0x2
 14351 12d6 7D       		.byte	0x7d
 14352 12d7 14       		.sleb128 20
 14353 12d8 06000000 		.4byte	.LCFI11
 14354 12dc 0A000000 		.4byte	.LCFI12
 14355 12e0 0200     		.2byte	0x2
 14356 12e2 7D       		.byte	0x7d
 14357 12e3 18       		.sleb128 24
 14358 12e4 0A000000 		.4byte	.LCFI12
 14359 12e8 94000000 		.4byte	.LFE51
 14360 12ec 0200     		.2byte	0x2
 14361 12ee 7D       		.byte	0x7d
 14362 12ef 30       		.sleb128 48
 14363 12f0 00000000 		.4byte	0
 14364 12f4 00000000 		.4byte	0
 14365              	.LLST27:
 14366 12f8 00000000 		.4byte	.LVL71
 14367 12fc 40000000 		.4byte	.LVL76
 14368 1300 0100     		.2byte	0x1
 14369 1302 50       		.byte	0x50
 14370 1303 40000000 		.4byte	.LVL76
 14371 1307 70000000 		.4byte	.LVL87
 14372 130b 0400     		.2byte	0x4
 14373 130d F3       		.byte	0xf3
 14374 130e 01       		.uleb128 0x1
 14375 130f 50       		.byte	0x50
 14376 1310 9F       		.byte	0x9f
 14377 1311 70000000 		.4byte	.LVL87
 14378 1315 7A000000 		.4byte	.LVL88
 14379 1319 0100     		.2byte	0x1
 14380 131b 50       		.byte	0x50
 14381 131c 7A000000 		.4byte	.LVL88
 14382 1320 94000000 		.4byte	.LFE51
 14383 1324 0400     		.2byte	0x4
ARM GAS  C:\Users\EBANO_~1\AppData\Local\Temp\ccJkfoGk.s 			page 282


 14384 1326 F3       		.byte	0xf3
 14385 1327 01       		.uleb128 0x1
 14386 1328 50       		.byte	0x50
 14387 1329 9F       		.byte	0x9f
 14388 132a 00000000 		.4byte	0
 14389 132e 00000000 		.4byte	0
 14390              	.LLST28:
 14391 1332 00000000 		.4byte	.LVL71
 14392 1336 1C000000 		.4byte	.LVL74
 14393 133a 0100     		.2byte	0x1
 14394 133c 51       		.byte	0x51
 14395 133d 1C000000 		.4byte	.LVL74
 14396 1341 94000000 		.4byte	.LFE51
 14397 1345 0400     		.2byte	0x4
 14398 1347 F3       		.byte	0xf3
 14399 1348 01       		.uleb128 0x1
 14400 1349 51       		.byte	0x51
 14401 134a 9F       		.byte	0x9f
 14402 134b 00000000 		.4byte	0
 14403 134f 00000000 		.4byte	0
 14404              	.LLST29:
 14405 1353 00000000 		.4byte	.LVL71
 14406 1357 1A000000 		.4byte	.LVL73
 14407 135b 0100     		.2byte	0x1
 14408 135d 52       		.byte	0x52
 14409 135e 1A000000 		.4byte	.LVL73
 14410 1362 6A000000 		.4byte	.LVL86
 14411 1366 0100     		.2byte	0x1
 14412 1368 58       		.byte	0x58
 14413 1369 6A000000 		.4byte	.LVL86
 14414 136d 70000000 		.4byte	.LVL87
 14415 1371 0400     		.2byte	0x4
 14416 1373 F3       		.byte	0xf3
 14417 1374 01       		.uleb128 0x1
 14418 1375 52       		.byte	0x52
 14419 1376 9F       		.byte	0x9f
 14420 1377 70000000 		.4byte	.LVL87
 14421 137b 94000000 		.4byte	.LFE51
 14422 137f 0100     		.2byte	0x1
 14423 1381 58       		.byte	0x58
 14424 1382 00000000 		.4byte	0
 14425 1386 00000000 		.4byte	0
 14426              	.LLST30:
 14427 138a 00000000 		.4byte	.LVL71
 14428 138e 10000000 		.4byte	.LVL72
 14429 1392 0100     		.2byte	0x1
 14430 1394 53       		.byte	0x53
 14431 1395 10000000 		.4byte	.LVL72
 14432 1399 54000000 		.4byte	.LVL80
 14433 139d 0100     		.2byte	0x1
 14434 139f 54       		.byte	0x54
 14435 13a0 54000000 		.4byte	.LVL80
 14436 13a4 56000000 		.4byte	.LVL81
 14437 13a8 0100     		.2byte	0x1
 14438 13aa 53       		.byte	0x53
 14439 13ab 56000000 		.4byte	.LVL81
 14440 13af 5E000000 		.4byte	.LVL82
ARM GAS  C:\Users\EBANO_~1\AppData\Local\Temp\ccJkfoGk.s 			page 283


 14441 13b3 0300     		.2byte	0x3
 14442 13b5 73       		.byte	0x73
 14443 13b6 74       		.sleb128 -12
 14444 13b7 9F       		.byte	0x9f
 14445 13b8 5E000000 		.4byte	.LVL82
 14446 13bc 67000000 		.4byte	.LVL83-1
 14447 13c0 0600     		.2byte	0x6
 14448 13c2 91       		.byte	0x91
 14449 13c3 58       		.sleb128 -40
 14450 13c4 06       		.byte	0x6
 14451 13c5 3C       		.byte	0x3c
 14452 13c6 1C       		.byte	0x1c
 14453 13c7 9F       		.byte	0x9f
 14454 13c8 67000000 		.4byte	.LVL83-1
 14455 13cc 6A000000 		.4byte	.LVL84
 14456 13d0 0300     		.2byte	0x3
 14457 13d2 74       		.byte	0x74
 14458 13d3 78       		.sleb128 -8
 14459 13d4 9F       		.byte	0x9f
 14460 13d5 6A000000 		.4byte	.LVL84
 14461 13d9 70000000 		.4byte	.LVL87
 14462 13dd 0400     		.2byte	0x4
 14463 13df F3       		.byte	0xf3
 14464 13e0 01       		.uleb128 0x1
 14465 13e1 53       		.byte	0x53
 14466 13e2 9F       		.byte	0x9f
 14467 13e3 70000000 		.4byte	.LVL87
 14468 13e7 94000000 		.4byte	.LFE51
 14469 13eb 0100     		.2byte	0x1
 14470 13ed 54       		.byte	0x54
 14471 13ee 00000000 		.4byte	0
 14472 13f2 00000000 		.4byte	0
 14473              	.LLST31:
 14474 13f6 00000000 		.4byte	.LVL71
 14475 13fa 48000000 		.4byte	.LVL78
 14476 13fe 0A00     		.2byte	0xa
 14477 1400 9E       		.byte	0x9e
 14478 1401 08       		.uleb128 0x8
 14479 1402 00000000 		.4byte	0
 14480 1406 00000000 		.4byte	0
 14481 140a 48000000 		.4byte	.LVL78
 14482 140e 6A000000 		.4byte	.LVL85
 14483 1412 0600     		.2byte	0x6
 14484 1414 56       		.byte	0x56
 14485 1415 93       		.byte	0x93
 14486 1416 04       		.uleb128 0x4
 14487 1417 57       		.byte	0x57
 14488 1418 93       		.byte	0x93
 14489 1419 04       		.uleb128 0x4
 14490 141a 70000000 		.4byte	.LVL87
 14491 141e 82000000 		.4byte	.LVL90
 14492 1422 0A00     		.2byte	0xa
 14493 1424 9E       		.byte	0x9e
 14494 1425 08       		.uleb128 0x8
 14495 1426 00000000 		.4byte	0
 14496 142a 00000000 		.4byte	0
 14497 142e 82000000 		.4byte	.LVL90
ARM GAS  C:\Users\EBANO_~1\AppData\Local\Temp\ccJkfoGk.s 			page 284


 14498 1432 94000000 		.4byte	.LFE51
 14499 1436 0600     		.2byte	0x6
 14500 1438 56       		.byte	0x56
 14501 1439 93       		.byte	0x93
 14502 143a 04       		.uleb128 0x4
 14503 143b 57       		.byte	0x57
 14504 143c 93       		.byte	0x93
 14505 143d 04       		.uleb128 0x4
 14506 143e 00000000 		.4byte	0
 14507 1442 00000000 		.4byte	0
 14508              	.LLST24:
 14509 1446 00000000 		.4byte	.LFB50
 14510 144a 02000000 		.4byte	.LCFI9
 14511 144e 0200     		.2byte	0x2
 14512 1450 7D       		.byte	0x7d
 14513 1451 00       		.sleb128 0
 14514 1452 02000000 		.4byte	.LCFI9
 14515 1456 34000000 		.4byte	.LFE50
 14516 145a 0200     		.2byte	0x2
 14517 145c 7D       		.byte	0x7d
 14518 145d 08       		.sleb128 8
 14519 145e 00000000 		.4byte	0
 14520 1462 00000000 		.4byte	0
 14521              	.LLST25:
 14522 1466 00000000 		.4byte	.LVL63
 14523 146a 0E000000 		.4byte	.LVL64
 14524 146e 0100     		.2byte	0x1
 14525 1470 50       		.byte	0x50
 14526 1471 0E000000 		.4byte	.LVL64
 14527 1475 10000000 		.4byte	.LVL65
 14528 1479 0400     		.2byte	0x4
 14529 147b F3       		.byte	0xf3
 14530 147c 01       		.uleb128 0x1
 14531 147d 50       		.byte	0x50
 14532 147e 9F       		.byte	0x9f
 14533 147f 10000000 		.4byte	.LVL65
 14534 1483 16000000 		.4byte	.LVL66
 14535 1487 0100     		.2byte	0x1
 14536 1489 50       		.byte	0x50
 14537 148a 16000000 		.4byte	.LVL66
 14538 148e 1E000000 		.4byte	.LVL68
 14539 1492 0400     		.2byte	0x4
 14540 1494 F3       		.byte	0xf3
 14541 1495 01       		.uleb128 0x1
 14542 1496 50       		.byte	0x50
 14543 1497 9F       		.byte	0x9f
 14544 1498 1E000000 		.4byte	.LVL68
 14545 149c 24000000 		.4byte	.LVL69
 14546 14a0 0100     		.2byte	0x1
 14547 14a2 50       		.byte	0x50
 14548 14a3 24000000 		.4byte	.LVL69
 14549 14a7 34000000 		.4byte	.LFE50
 14550 14ab 0400     		.2byte	0x4
 14551 14ad F3       		.byte	0xf3
 14552 14ae 01       		.uleb128 0x1
 14553 14af 50       		.byte	0x50
 14554 14b0 9F       		.byte	0x9f
ARM GAS  C:\Users\EBANO_~1\AppData\Local\Temp\ccJkfoGk.s 			page 285


 14555 14b1 00000000 		.4byte	0
 14556 14b5 00000000 		.4byte	0
 14557              	.LLST13:
 14558 14b9 00000000 		.4byte	.LFB49
 14559 14bd 02000000 		.4byte	.LCFI6
 14560 14c1 0200     		.2byte	0x2
 14561 14c3 7D       		.byte	0x7d
 14562 14c4 00       		.sleb128 0
 14563 14c5 02000000 		.4byte	.LCFI6
 14564 14c9 0E000000 		.4byte	.LCFI7
 14565 14cd 0200     		.2byte	0x2
 14566 14cf 7D       		.byte	0x7d
 14567 14d0 14       		.sleb128 20
 14568 14d1 0E000000 		.4byte	.LCFI7
 14569 14d5 10000000 		.4byte	.LCFI8
 14570 14d9 0200     		.2byte	0x2
 14571 14db 7D       		.byte	0x7d
 14572 14dc 24       		.sleb128 36
 14573 14dd 10000000 		.4byte	.LCFI8
 14574 14e1 B8010000 		.4byte	.LFE49
 14575 14e5 0300     		.2byte	0x3
 14576 14e7 7D       		.byte	0x7d
 14577 14e8 C000     		.sleb128 64
 14578 14ea 00000000 		.4byte	0
 14579 14ee 00000000 		.4byte	0
 14580              	.LLST14:
 14581 14f2 00000000 		.4byte	.LVL35
 14582 14f6 1C000000 		.4byte	.LVL36
 14583 14fa 0100     		.2byte	0x1
 14584 14fc 50       		.byte	0x50
 14585 14fd 1C000000 		.4byte	.LVL36
 14586 1501 1E000000 		.4byte	.LVL37
 14587 1505 0100     		.2byte	0x1
 14588 1507 57       		.byte	0x57
 14589 1508 1E000000 		.4byte	.LVL37
 14590 150c 2A000000 		.4byte	.LVL38
 14591 1510 0400     		.2byte	0x4
 14592 1512 F3       		.byte	0xf3
 14593 1513 01       		.uleb128 0x1
 14594 1514 50       		.byte	0x50
 14595 1515 9F       		.byte	0x9f
 14596 1516 2A000000 		.4byte	.LVL38
 14597 151a 40000000 		.4byte	.LVL39
 14598 151e 0100     		.2byte	0x1
 14599 1520 50       		.byte	0x50
 14600 1521 40000000 		.4byte	.LVL39
 14601 1525 B8010000 		.4byte	.LFE49
 14602 1529 0100     		.2byte	0x1
 14603 152b 57       		.byte	0x57
 14604 152c 00000000 		.4byte	0
 14605 1530 00000000 		.4byte	0
 14606              	.LLST15:
 14607 1534 40000000 		.4byte	.LVL39
 14608 1538 62000000 		.4byte	.LVL43
 14609 153c 0300     		.2byte	0x3
 14610 153e 76       		.byte	0x76
 14611 153f 7F       		.sleb128 -1
ARM GAS  C:\Users\EBANO_~1\AppData\Local\Temp\ccJkfoGk.s 			page 286


 14612 1540 9F       		.byte	0x9f
 14613 1541 62000000 		.4byte	.LVL43
 14614 1545 64000000 		.4byte	.LVL44
 14615 1549 0300     		.2byte	0x3
 14616 154b 76       		.byte	0x76
 14617 154c 02       		.sleb128 2
 14618 154d 9F       		.byte	0x9f
 14619 154e 6E000000 		.4byte	.LVL46
 14620 1552 B8010000 		.4byte	.LFE49
 14621 1556 0300     		.2byte	0x3
 14622 1558 76       		.byte	0x76
 14623 1559 7F       		.sleb128 -1
 14624 155a 9F       		.byte	0x9f
 14625 155b 00000000 		.4byte	0
 14626 155f 00000000 		.4byte	0
 14627              	.LLST16:
 14628 1563 40000000 		.4byte	.LVL39
 14629 1567 42000000 		.4byte	.LVL40
 14630 156b 0100     		.2byte	0x1
 14631 156d 53       		.byte	0x53
 14632 156e 42000000 		.4byte	.LVL40
 14633 1572 62000000 		.4byte	.LVL43
 14634 1576 0100     		.2byte	0x1
 14635 1578 58       		.byte	0x58
 14636 1579 62000000 		.4byte	.LVL43
 14637 157d 66000000 		.4byte	.LVL45
 14638 1581 0300     		.2byte	0x3
 14639 1583 75       		.byte	0x75
 14640 1584 01       		.sleb128 1
 14641 1585 9F       		.byte	0x9f
 14642 1586 6E000000 		.4byte	.LVL46
 14643 158a 74000000 		.4byte	.LVL47
 14644 158e 0100     		.2byte	0x1
 14645 1590 53       		.byte	0x53
 14646 1591 74000000 		.4byte	.LVL47
 14647 1595 A8000000 		.4byte	.LVL50
 14648 1599 0100     		.2byte	0x1
 14649 159b 58       		.byte	0x58
 14650 159c A8000000 		.4byte	.LVL50
 14651 15a0 B8010000 		.4byte	.LFE49
 14652 15a4 0100     		.2byte	0x1
 14653 15a6 55       		.byte	0x55
 14654 15a7 00000000 		.4byte	0
 14655 15ab 00000000 		.4byte	0
 14656              	.LLST17:
 14657 15af 48000000 		.4byte	.LVL41
 14658 15b3 62000000 		.4byte	.LVL43
 14659 15b7 0600     		.2byte	0x6
 14660 15b9 F2       		.byte	0xf2
 14661 15ba 2F2D0000 		.4byte	.Ldebug_info0+11567
 14662 15be 00       		.sleb128 0
 14663 15bf 00000000 		.4byte	0
 14664 15c3 00000000 		.4byte	0
 14665              	.LLST18:
 14666 15c7 48000000 		.4byte	.LVL41
 14667 15cb 62000000 		.4byte	.LVL43
 14668 15cf 0100     		.2byte	0x1
ARM GAS  C:\Users\EBANO_~1\AppData\Local\Temp\ccJkfoGk.s 			page 287


 14669 15d1 58       		.byte	0x58
 14670 15d2 00000000 		.4byte	0
 14671 15d6 00000000 		.4byte	0
 14672              	.LLST19:
 14673 15da 98000000 		.4byte	.LVL48
 14674 15de A8000000 		.4byte	.LVL50
 14675 15e2 0200     		.2byte	0x2
 14676 15e4 30       		.byte	0x30
 14677 15e5 9F       		.byte	0x9f
 14678 15e6 A8000000 		.4byte	.LVL50
 14679 15ea C8000000 		.4byte	.LVL52
 14680 15ee 0700     		.2byte	0x7
 14681 15f0 78       		.byte	0x78
 14682 15f1 00       		.sleb128 0
 14683 15f2 48       		.byte	0x48
 14684 15f3 24       		.byte	0x24
 14685 15f4 30       		.byte	0x30
 14686 15f5 29       		.byte	0x29
 14687 15f6 9F       		.byte	0x9f
 14688 15f7 C8000000 		.4byte	.LVL52
 14689 15fb B8010000 		.4byte	.LFE49
 14690 15ff 0100     		.2byte	0x1
 14691 1601 59       		.byte	0x59
 14692 1602 00000000 		.4byte	0
 14693 1606 00000000 		.4byte	0
 14694              	.LLST20:
 14695 160a 98000000 		.4byte	.LVL48
 14696 160e A8000000 		.4byte	.LVL50
 14697 1612 0100     		.2byte	0x1
 14698 1614 58       		.byte	0x58
 14699 1615 A8000000 		.4byte	.LVL50
 14700 1619 B8010000 		.4byte	.LFE49
 14701 161d 0100     		.2byte	0x1
 14702 161f 55       		.byte	0x55
 14703 1620 00000000 		.4byte	0
 14704 1624 00000000 		.4byte	0
 14705              	.LLST21:
 14706 1628 DE000000 		.4byte	.LVL54
 14707 162c E0000000 		.4byte	.LVL55
 14708 1630 0100     		.2byte	0x1
 14709 1632 53       		.byte	0x53
 14710 1633 E0000000 		.4byte	.LVL55
 14711 1637 3E010000 		.4byte	.LVL59
 14712 163b 0100     		.2byte	0x1
 14713 163d 58       		.byte	0x58
 14714 163e 6A010000 		.4byte	.LVL61
 14715 1642 B8010000 		.4byte	.LFE49
 14716 1646 0100     		.2byte	0x1
 14717 1648 58       		.byte	0x58
 14718 1649 00000000 		.4byte	0
 14719 164d 00000000 		.4byte	0
 14720              	.LLST22:
 14721 1651 14010000 		.4byte	.LVL57
 14722 1655 2E010000 		.4byte	.LVL58
 14723 1659 0600     		.2byte	0x6
 14724 165b F2       		.byte	0xf2
 14725 165c F22D0000 		.4byte	.Ldebug_info0+11762
ARM GAS  C:\Users\EBANO_~1\AppData\Local\Temp\ccJkfoGk.s 			page 288


 14726 1660 00       		.sleb128 0
 14727 1661 76010000 		.4byte	.LVL62
 14728 1665 B8010000 		.4byte	.LFE49
 14729 1669 0600     		.2byte	0x6
 14730 166b F2       		.byte	0xf2
 14731 166c F22D0000 		.4byte	.Ldebug_info0+11762
 14732 1670 00       		.sleb128 0
 14733 1671 00000000 		.4byte	0
 14734 1675 00000000 		.4byte	0
 14735              	.LLST23:
 14736 1679 14010000 		.4byte	.LVL57
 14737 167d 2E010000 		.4byte	.LVL58
 14738 1681 0100     		.2byte	0x1
 14739 1683 58       		.byte	0x58
 14740 1684 76010000 		.4byte	.LVL62
 14741 1688 B8010000 		.4byte	.LFE49
 14742 168c 0100     		.2byte	0x1
 14743 168e 58       		.byte	0x58
 14744 168f 00000000 		.4byte	0
 14745 1693 00000000 		.4byte	0
 14746              	.LLST10:
 14747 1697 00000000 		.4byte	.LFB48
 14748 169b 06000000 		.4byte	.LCFI5
 14749 169f 0200     		.2byte	0x2
 14750 16a1 7D       		.byte	0x7d
 14751 16a2 00       		.sleb128 0
 14752 16a3 06000000 		.4byte	.LCFI5
 14753 16a7 48000000 		.4byte	.LFE48
 14754 16ab 0200     		.2byte	0x2
 14755 16ad 7D       		.byte	0x7d
 14756 16ae 08       		.sleb128 8
 14757 16af 00000000 		.4byte	0
 14758 16b3 00000000 		.4byte	0
 14759              	.LLST11:
 14760 16b7 00000000 		.4byte	.LVL24
 14761 16bb 14000000 		.4byte	.LVL26
 14762 16bf 0100     		.2byte	0x1
 14763 16c1 50       		.byte	0x50
 14764 16c2 14000000 		.4byte	.LVL26
 14765 16c6 26000000 		.4byte	.LVL28
 14766 16ca 0400     		.2byte	0x4
 14767 16cc F3       		.byte	0xf3
 14768 16cd 01       		.uleb128 0x1
 14769 16ce 50       		.byte	0x50
 14770 16cf 9F       		.byte	0x9f
 14771 16d0 26000000 		.4byte	.LVL28
 14772 16d4 28000000 		.4byte	.LVL29
 14773 16d8 0100     		.2byte	0x1
 14774 16da 50       		.byte	0x50
 14775 16db 28000000 		.4byte	.LVL29
 14776 16df 2A000000 		.4byte	.LVL30
 14777 16e3 0400     		.2byte	0x4
 14778 16e5 F3       		.byte	0xf3
 14779 16e6 01       		.uleb128 0x1
 14780 16e7 50       		.byte	0x50
 14781 16e8 9F       		.byte	0x9f
 14782 16e9 2A000000 		.4byte	.LVL30
ARM GAS  C:\Users\EBANO_~1\AppData\Local\Temp\ccJkfoGk.s 			page 289


 14783 16ed 2C000000 		.4byte	.LVL31
 14784 16f1 0100     		.2byte	0x1
 14785 16f3 50       		.byte	0x50
 14786 16f4 2C000000 		.4byte	.LVL31
 14787 16f8 3E000000 		.4byte	.LVL33
 14788 16fc 0400     		.2byte	0x4
 14789 16fe F3       		.byte	0xf3
 14790 16ff 01       		.uleb128 0x1
 14791 1700 50       		.byte	0x50
 14792 1701 9F       		.byte	0x9f
 14793 1702 3E000000 		.4byte	.LVL33
 14794 1706 40000000 		.4byte	.LVL34
 14795 170a 0100     		.2byte	0x1
 14796 170c 50       		.byte	0x50
 14797 170d 40000000 		.4byte	.LVL34
 14798 1711 48000000 		.4byte	.LFE48
 14799 1715 0400     		.2byte	0x4
 14800 1717 F3       		.byte	0xf3
 14801 1718 01       		.uleb128 0x1
 14802 1719 50       		.byte	0x50
 14803 171a 9F       		.byte	0x9f
 14804 171b 00000000 		.4byte	0
 14805 171f 00000000 		.4byte	0
 14806              	.LLST12:
 14807 1723 00000000 		.4byte	.LVL24
 14808 1727 02000000 		.4byte	.LVL25
 14809 172b 0100     		.2byte	0x1
 14810 172d 51       		.byte	0x51
 14811 172e 02000000 		.4byte	.LVL25
 14812 1732 48000000 		.4byte	.LFE48
 14813 1736 0400     		.2byte	0x4
 14814 1738 F3       		.byte	0xf3
 14815 1739 01       		.uleb128 0x1
 14816 173a 51       		.byte	0x51
 14817 173b 9F       		.byte	0x9f
 14818 173c 00000000 		.4byte	0
 14819 1740 00000000 		.4byte	0
 14820              	.LLST9:
 14821 1744 00000000 		.4byte	.LVL22
 14822 1748 08000000 		.4byte	.LVL23
 14823 174c 0100     		.2byte	0x1
 14824 174e 50       		.byte	0x50
 14825 174f 08000000 		.4byte	.LVL23
 14826 1753 10000000 		.4byte	.LFE47
 14827 1757 0400     		.2byte	0x4
 14828 1759 F3       		.byte	0xf3
 14829 175a 01       		.uleb128 0x1
 14830 175b 50       		.byte	0x50
 14831 175c 9F       		.byte	0x9f
 14832 175d 00000000 		.4byte	0
 14833 1761 00000000 		.4byte	0
 14834              	.LLST7:
 14835 1765 00000000 		.4byte	.LFB46
 14836 1769 02000000 		.4byte	.LCFI3
 14837 176d 0200     		.2byte	0x2
 14838 176f 7D       		.byte	0x7d
 14839 1770 00       		.sleb128 0
ARM GAS  C:\Users\EBANO_~1\AppData\Local\Temp\ccJkfoGk.s 			page 290


 14840 1771 02000000 		.4byte	.LCFI3
 14841 1775 04000000 		.4byte	.LCFI4
 14842 1779 0200     		.2byte	0x2
 14843 177b 7D       		.byte	0x7d
 14844 177c 14       		.sleb128 20
 14845 177d 04000000 		.4byte	.LCFI4
 14846 1781 B4000000 		.4byte	.LFE46
 14847 1785 0300     		.2byte	0x3
 14848 1787 7D       		.byte	0x7d
 14849 1788 E800     		.sleb128 104
 14850 178a 00000000 		.4byte	0
 14851 178e 00000000 		.4byte	0
 14852              	.LLST8:
 14853 1792 00000000 		.4byte	.LVL13
 14854 1796 0E000000 		.4byte	.LVL14
 14855 179a 0100     		.2byte	0x1
 14856 179c 50       		.byte	0x50
 14857 179d 0E000000 		.4byte	.LVL14
 14858 17a1 48000000 		.4byte	.LVL16
 14859 17a5 0100     		.2byte	0x1
 14860 17a7 54       		.byte	0x54
 14861 17a8 48000000 		.4byte	.LVL16
 14862 17ac 4C000000 		.4byte	.LVL17
 14863 17b0 0400     		.2byte	0x4
 14864 17b2 F3       		.byte	0xf3
 14865 17b3 01       		.uleb128 0x1
 14866 17b4 50       		.byte	0x50
 14867 17b5 9F       		.byte	0x9f
 14868 17b6 4C000000 		.4byte	.LVL17
 14869 17ba 4E000000 		.4byte	.LVL18
 14870 17be 0100     		.2byte	0x1
 14871 17c0 54       		.byte	0x54
 14872 17c1 4E000000 		.4byte	.LVL18
 14873 17c5 92000000 		.4byte	.LVL21
 14874 17c9 0400     		.2byte	0x4
 14875 17cb F3       		.byte	0xf3
 14876 17cc 01       		.uleb128 0x1
 14877 17cd 50       		.byte	0x50
 14878 17ce 9F       		.byte	0x9f
 14879 17cf 92000000 		.4byte	.LVL21
 14880 17d3 B4000000 		.4byte	.LFE46
 14881 17d7 0100     		.2byte	0x1
 14882 17d9 54       		.byte	0x54
 14883 17da 00000000 		.4byte	0
 14884 17de 00000000 		.4byte	0
 14885              	.LLST5:
 14886 17e2 00000000 		.4byte	.LFB45
 14887 17e6 04000000 		.4byte	.LCFI2
 14888 17ea 0200     		.2byte	0x2
 14889 17ec 7D       		.byte	0x7d
 14890 17ed 00       		.sleb128 0
 14891 17ee 04000000 		.4byte	.LCFI2
 14892 17f2 24000000 		.4byte	.LFE45
 14893 17f6 0200     		.2byte	0x2
 14894 17f8 7D       		.byte	0x7d
 14895 17f9 08       		.sleb128 8
 14896 17fa 00000000 		.4byte	0
ARM GAS  C:\Users\EBANO_~1\AppData\Local\Temp\ccJkfoGk.s 			page 291


 14897 17fe 00000000 		.4byte	0
 14898              	.LLST6:
 14899 1802 00000000 		.4byte	.LVL10
 14900 1806 1A000000 		.4byte	.LVL11
 14901 180a 0100     		.2byte	0x1
 14902 180c 50       		.byte	0x50
 14903 180d 1A000000 		.4byte	.LVL11
 14904 1811 24000000 		.4byte	.LFE45
 14905 1815 0400     		.2byte	0x4
 14906 1817 F3       		.byte	0xf3
 14907 1818 01       		.uleb128 0x1
 14908 1819 50       		.byte	0x50
 14909 181a 9F       		.byte	0x9f
 14910 181b 00000000 		.4byte	0
 14911 181f 00000000 		.4byte	0
 14912              	.LLST0:
 14913 1823 00000000 		.4byte	.LFB44
 14914 1827 04000000 		.4byte	.LCFI0
 14915 182b 0200     		.2byte	0x2
 14916 182d 7D       		.byte	0x7d
 14917 182e 00       		.sleb128 0
 14918 182f 04000000 		.4byte	.LCFI0
 14919 1833 06000000 		.4byte	.LCFI1
 14920 1837 0200     		.2byte	0x2
 14921 1839 7D       		.byte	0x7d
 14922 183a 04       		.sleb128 4
 14923 183b 06000000 		.4byte	.LCFI1
 14924 183f 08010000 		.4byte	.LFE44
 14925 1843 0200     		.2byte	0x2
 14926 1845 7D       		.byte	0x7d
 14927 1846 10       		.sleb128 16
 14928 1847 00000000 		.4byte	0
 14929 184b 00000000 		.4byte	0
 14930              	.LLST1:
 14931 184f 00000000 		.4byte	.LVL0
 14932 1853 1E000000 		.4byte	.LVL1
 14933 1857 0100     		.2byte	0x1
 14934 1859 50       		.byte	0x50
 14935 185a 1E000000 		.4byte	.LVL1
 14936 185e 24000000 		.4byte	.LVL2
 14937 1862 0400     		.2byte	0x4
 14938 1864 F3       		.byte	0xf3
 14939 1865 01       		.uleb128 0x1
 14940 1866 50       		.byte	0x50
 14941 1867 9F       		.byte	0x9f
 14942 1868 24000000 		.4byte	.LVL2
 14943 186c 9E000000 		.4byte	.LVL7
 14944 1870 0100     		.2byte	0x1
 14945 1872 50       		.byte	0x50
 14946 1873 9E000000 		.4byte	.LVL7
 14947 1877 B0000000 		.4byte	.LVL9
 14948 187b 0400     		.2byte	0x4
 14949 187d F3       		.byte	0xf3
 14950 187e 01       		.uleb128 0x1
 14951 187f 50       		.byte	0x50
 14952 1880 9F       		.byte	0x9f
 14953 1881 B0000000 		.4byte	.LVL9
ARM GAS  C:\Users\EBANO_~1\AppData\Local\Temp\ccJkfoGk.s 			page 292


 14954 1885 08010000 		.4byte	.LFE44
 14955 1889 0100     		.2byte	0x1
 14956 188b 50       		.byte	0x50
 14957 188c 00000000 		.4byte	0
 14958 1890 00000000 		.4byte	0
 14959              	.LLST2:
 14960 1894 7E000000 		.4byte	.LVL3
 14961 1898 88000000 		.4byte	.LVL6
 14962 189c 0200     		.2byte	0x2
 14963 189e 30       		.byte	0x30
 14964 189f 9F       		.byte	0x9f
 14965 18a0 00000000 		.4byte	0
 14966 18a4 00000000 		.4byte	0
 14967              	.LLST3:
 14968 18a8 7E000000 		.4byte	.LVL3
 14969 18ac 86000000 		.4byte	.LVL5
 14970 18b0 0100     		.2byte	0x1
 14971 18b2 53       		.byte	0x53
 14972 18b3 86000000 		.4byte	.LVL5
 14973 18b7 88000000 		.4byte	.LVL6
 14974 18bb 0300     		.2byte	0x3
 14975 18bd 73       		.byte	0x73
 14976 18be 01       		.sleb128 1
 14977 18bf 9F       		.byte	0x9f
 14978 18c0 00000000 		.4byte	0
 14979 18c4 00000000 		.4byte	0
 14980              	.LLST4:
 14981 18c8 7E000000 		.4byte	.LVL3
 14982 18cc 84000000 		.4byte	.LVL4
 14983 18d0 0200     		.2byte	0x2
 14984 18d2 30       		.byte	0x30
 14985 18d3 9F       		.byte	0x9f
 14986 18d4 84000000 		.4byte	.LVL4
 14987 18d8 86000000 		.4byte	.LVL5
 14988 18dc 0300     		.2byte	0x3
 14989 18de 73       		.byte	0x73
 14990 18df 7F       		.sleb128 -1
 14991 18e0 9F       		.byte	0x9f
 14992 18e1 86000000 		.4byte	.LVL5
 14993 18e5 88000000 		.4byte	.LVL6
 14994 18e9 0300     		.2byte	0x3
 14995 18eb 73       		.byte	0x73
 14996 18ec 00       		.sleb128 0
 14997 18ed 9F       		.byte	0x9f
 14998 18ee 00000000 		.4byte	0
 14999 18f2 00000000 		.4byte	0
 15000              	.LLST110:
 15001 18f6 00000000 		.4byte	.LFB62
 15002 18fa 02000000 		.4byte	.LCFI34
 15003 18fe 0200     		.2byte	0x2
 15004 1900 7D       		.byte	0x7d
 15005 1901 00       		.sleb128 0
 15006 1902 02000000 		.4byte	.LCFI34
 15007 1906 06000000 		.4byte	.LCFI35
 15008 190a 0200     		.2byte	0x2
 15009 190c 7D       		.byte	0x7d
 15010 190d 14       		.sleb128 20
ARM GAS  C:\Users\EBANO_~1\AppData\Local\Temp\ccJkfoGk.s 			page 293


 15011 190e 06000000 		.4byte	.LCFI35
 15012 1912 50010000 		.4byte	.LFE62
 15013 1916 0200     		.2byte	0x2
 15014 1918 7D       		.byte	0x7d
 15015 1919 20       		.sleb128 32
 15016 191a 00000000 		.4byte	0
 15017 191e 00000000 		.4byte	0
 15018              	.LLST111:
 15019 1922 00000000 		.4byte	.LVL302
 15020 1926 0E000000 		.4byte	.LVL304
 15021 192a 0100     		.2byte	0x1
 15022 192c 50       		.byte	0x50
 15023 192d 0E000000 		.4byte	.LVL304
 15024 1931 A2000000 		.4byte	.LVL315
 15025 1935 0100     		.2byte	0x1
 15026 1937 54       		.byte	0x54
 15027 1938 A2000000 		.4byte	.LVL315
 15028 193c A6000000 		.4byte	.LVL317
 15029 1940 0400     		.2byte	0x4
 15030 1942 F3       		.byte	0xf3
 15031 1943 01       		.uleb128 0x1
 15032 1944 50       		.byte	0x50
 15033 1945 9F       		.byte	0x9f
 15034 1946 A6000000 		.4byte	.LVL317
 15035 194a E6000000 		.4byte	.LVL323
 15036 194e 0100     		.2byte	0x1
 15037 1950 54       		.byte	0x54
 15038 1951 E6000000 		.4byte	.LVL323
 15039 1955 0A010000 		.4byte	.LVL325
 15040 1959 0400     		.2byte	0x4
 15041 195b F3       		.byte	0xf3
 15042 195c 01       		.uleb128 0x1
 15043 195d 50       		.byte	0x50
 15044 195e 9F       		.byte	0x9f
 15045 195f 0A010000 		.4byte	.LVL325
 15046 1963 50010000 		.4byte	.LFE62
 15047 1967 0100     		.2byte	0x1
 15048 1969 54       		.byte	0x54
 15049 196a 00000000 		.4byte	0
 15050 196e 00000000 		.4byte	0
 15051              	.LLST112:
 15052 1972 00000000 		.4byte	.LVL302
 15053 1976 24000000 		.4byte	.LVL306
 15054 197a 0200     		.2byte	0x2
 15055 197c 30       		.byte	0x30
 15056 197d 9F       		.byte	0x9f
 15057 197e 24000000 		.4byte	.LVL306
 15058 1982 3A000000 		.4byte	.LVL308
 15059 1986 0700     		.2byte	0x7
 15060 1988 76       		.byte	0x76
 15061 1989 00       		.sleb128 0
 15062 198a 48       		.byte	0x48
 15063 198b 24       		.byte	0x24
 15064 198c 30       		.byte	0x30
 15065 198d 29       		.byte	0x29
 15066 198e 9F       		.byte	0x9f
 15067 198f 3A000000 		.4byte	.LVL308
ARM GAS  C:\Users\EBANO_~1\AppData\Local\Temp\ccJkfoGk.s 			page 294


 15068 1993 54000000 		.4byte	.LVL309
 15069 1997 0100     		.2byte	0x1
 15070 1999 57       		.byte	0x57
 15071 199a 54000000 		.4byte	.LVL309
 15072 199e 7C000000 		.4byte	.LVL311
 15073 19a2 0200     		.2byte	0x2
 15074 19a4 31       		.byte	0x31
 15075 19a5 9F       		.byte	0x9f
 15076 19a6 AA000000 		.4byte	.LVL318
 15077 19aa D4000000 		.4byte	.LVL320
 15078 19ae 0100     		.2byte	0x1
 15079 19b0 57       		.byte	0x57
 15080 19b1 D4000000 		.4byte	.LVL320
 15081 19b5 D8000000 		.4byte	.LVL321
 15082 19b9 0700     		.2byte	0x7
 15083 19bb 76       		.byte	0x76
 15084 19bc 00       		.sleb128 0
 15085 19bd 48       		.byte	0x48
 15086 19be 24       		.byte	0x24
 15087 19bf 30       		.byte	0x30
 15088 19c0 29       		.byte	0x29
 15089 19c1 9F       		.byte	0x9f
 15090 19c2 0A010000 		.4byte	.LVL325
 15091 19c6 0E010000 		.4byte	.LVL326
 15092 19ca 0100     		.2byte	0x1
 15093 19cc 57       		.byte	0x57
 15094 19cd 00000000 		.4byte	0
 15095 19d1 00000000 		.4byte	0
 15096              	.LLST113:
 15097 19d5 00000000 		.4byte	.LVL302
 15098 19d9 9C000000 		.4byte	.LVL314
 15099 19dd 0200     		.2byte	0x2
 15100 19df 30       		.byte	0x30
 15101 19e0 9F       		.byte	0x9f
 15102 19e1 9C000000 		.4byte	.LVL314
 15103 19e5 A2000000 		.4byte	.LVL315
 15104 19e9 0200     		.2byte	0x2
 15105 19eb 31       		.byte	0x31
 15106 19ec 9F       		.byte	0x9f
 15107 19ed AA000000 		.4byte	.LVL318
 15108 19f1 50010000 		.4byte	.LFE62
 15109 19f5 0200     		.2byte	0x2
 15110 19f7 30       		.byte	0x30
 15111 19f8 9F       		.byte	0x9f
 15112 19f9 00000000 		.4byte	0
 15113 19fd 00000000 		.4byte	0
 15114              	.LLST114:
 15115 1a01 04000000 		.4byte	.LVL303
 15116 1a05 A4000000 		.4byte	.LVL316
 15117 1a09 0100     		.2byte	0x1
 15118 1a0b 55       		.byte	0x55
 15119 1a0c A6000000 		.4byte	.LVL317
 15120 1a10 50010000 		.4byte	.LFE62
 15121 1a14 0100     		.2byte	0x1
 15122 1a16 55       		.byte	0x55
 15123 1a17 00000000 		.4byte	0
 15124 1a1b 00000000 		.4byte	0
ARM GAS  C:\Users\EBANO_~1\AppData\Local\Temp\ccJkfoGk.s 			page 295


 15125              	.LLST115:
 15126 1a1f 54000000 		.4byte	.LVL309
 15127 1a23 9C000000 		.4byte	.LVL314
 15128 1a27 0600     		.2byte	0x6
 15129 1a29 F2       		.byte	0xf2
 15130 1a2a 82320000 		.4byte	.Ldebug_info0+12930
 15131 1a2e 00       		.sleb128 0
 15132 1a2f AA000000 		.4byte	.LVL318
 15133 1a33 D4000000 		.4byte	.LVL320
 15134 1a37 0600     		.2byte	0x6
 15135 1a39 F2       		.byte	0xf2
 15136 1a3a 82320000 		.4byte	.Ldebug_info0+12930
 15137 1a3e 00       		.sleb128 0
 15138 1a3f DC000000 		.4byte	.LVL322
 15139 1a43 50010000 		.4byte	.LFE62
 15140 1a47 0600     		.2byte	0x6
 15141 1a49 F2       		.byte	0xf2
 15142 1a4a 82320000 		.4byte	.Ldebug_info0+12930
 15143 1a4e 00       		.sleb128 0
 15144 1a4f 00000000 		.4byte	0
 15145 1a53 00000000 		.4byte	0
 15146              	.LLST116:
 15147 1a57 54000000 		.4byte	.LVL309
 15148 1a5b 57000000 		.4byte	.LVL310-1
 15149 1a5f 0300     		.2byte	0x3
 15150 1a61 74       		.byte	0x74
 15151 1a62 00       		.sleb128 0
 15152 1a63 06       		.byte	0x6
 15153 1a64 AA000000 		.4byte	.LVL318
 15154 1a68 AD000000 		.4byte	.LVL319-1
 15155 1a6c 0300     		.2byte	0x3
 15156 1a6e 74       		.byte	0x74
 15157 1a6f 00       		.sleb128 0
 15158 1a70 06       		.byte	0x6
 15159 1a71 00000000 		.4byte	0
 15160 1a75 00000000 		.4byte	0
 15161              	.LLST117:
 15162 1a79 86000000 		.4byte	.LVL312
 15163 1a7d 9C000000 		.4byte	.LVL314
 15164 1a81 0600     		.2byte	0x6
 15165 1a83 F2       		.byte	0xf2
 15166 1a84 82320000 		.4byte	.Ldebug_info0+12930
 15167 1a88 00       		.sleb128 0
 15168 1a89 0E010000 		.4byte	.LVL326
 15169 1a8d 12010000 		.4byte	.LVL328
 15170 1a91 0600     		.2byte	0x6
 15171 1a93 F2       		.byte	0xf2
 15172 1a94 82320000 		.4byte	.Ldebug_info0+12930
 15173 1a98 00       		.sleb128 0
 15174 1a99 00000000 		.4byte	0
 15175 1a9d 00000000 		.4byte	0
 15176              	.LLST118:
 15177 1aa1 86000000 		.4byte	.LVL312
 15178 1aa5 98000000 		.4byte	.LVL313
 15179 1aa9 0100     		.2byte	0x1
 15180 1aab 56       		.byte	0x56
 15181 1aac 98000000 		.4byte	.LVL313
ARM GAS  C:\Users\EBANO_~1\AppData\Local\Temp\ccJkfoGk.s 			page 296


 15182 1ab0 9C000000 		.4byte	.LVL314
 15183 1ab4 0700     		.2byte	0x7
 15184 1ab6 72       		.byte	0x72
 15185 1ab7 A0A3DA9E 		.sleb128 869700000
 15185      03
 15186 1abc 9F       		.byte	0x9f
 15187 1abd 0E010000 		.4byte	.LVL326
 15188 1ac1 10010000 		.4byte	.LVL327
 15189 1ac5 0100     		.2byte	0x1
 15190 1ac7 56       		.byte	0x56
 15191 1ac8 10010000 		.4byte	.LVL327
 15192 1acc 12010000 		.4byte	.LVL328
 15193 1ad0 0700     		.2byte	0x7
 15194 1ad2 73       		.byte	0x73
 15195 1ad3 C0FBC79E 		.sleb128 869400000
 15195      03
 15196 1ad8 9F       		.byte	0x9f
 15197 1ad9 00000000 		.4byte	0
 15198 1add 00000000 		.4byte	0
 15199              	.LLST119:
 15200 1ae1 00000000 		.4byte	.LFB63
 15201 1ae5 02000000 		.4byte	.LCFI36
 15202 1ae9 0200     		.2byte	0x2
 15203 1aeb 7D       		.byte	0x7d
 15204 1aec 00       		.sleb128 0
 15205 1aed 02000000 		.4byte	.LCFI36
 15206 1af1 30000000 		.4byte	.LFE63
 15207 1af5 0200     		.2byte	0x2
 15208 1af7 7D       		.byte	0x7d
 15209 1af8 10       		.sleb128 16
 15210 1af9 00000000 		.4byte	0
 15211 1afd 00000000 		.4byte	0
 15212              	.LLST120:
 15213 1b01 00000000 		.4byte	.LVL329
 15214 1b05 06000000 		.4byte	.LVL331
 15215 1b09 0100     		.2byte	0x1
 15216 1b0b 50       		.byte	0x50
 15217 1b0c 06000000 		.4byte	.LVL331
 15218 1b10 30000000 		.4byte	.LFE63
 15219 1b14 0400     		.2byte	0x4
 15220 1b16 F3       		.byte	0xf3
 15221 1b17 01       		.uleb128 0x1
 15222 1b18 50       		.byte	0x50
 15223 1b19 9F       		.byte	0x9f
 15224 1b1a 00000000 		.4byte	0
 15225 1b1e 00000000 		.4byte	0
 15226              	.LLST121:
 15227 1b22 04000000 		.4byte	.LVL330
 15228 1b26 2A000000 		.4byte	.LVL334
 15229 1b2a 0100     		.2byte	0x1
 15230 1b2c 54       		.byte	0x54
 15231 1b2d 00000000 		.4byte	0
 15232 1b31 00000000 		.4byte	0
 15233              		.section	.debug_aranges,"",%progbits
 15234 0000 CC000000 		.4byte	0xcc
 15235 0004 0200     		.2byte	0x2
 15236 0006 00000000 		.4byte	.Ldebug_info0
ARM GAS  C:\Users\EBANO_~1\AppData\Local\Temp\ccJkfoGk.s 			page 297


 15237 000a 04       		.byte	0x4
 15238 000b 00       		.byte	0
 15239 000c 0000     		.2byte	0
 15240 000e 0000     		.2byte	0
 15241 0010 00000000 		.4byte	.LFB44
 15242 0014 08010000 		.4byte	.LFE44-.LFB44
 15243 0018 00000000 		.4byte	.LFB45
 15244 001c 24000000 		.4byte	.LFE45-.LFB45
 15245 0020 00000000 		.4byte	.LFB46
 15246 0024 B4000000 		.4byte	.LFE46-.LFB46
 15247 0028 00000000 		.4byte	.LFB47
 15248 002c 10000000 		.4byte	.LFE47-.LFB47
 15249 0030 00000000 		.4byte	.LFB48
 15250 0034 48000000 		.4byte	.LFE48-.LFB48
 15251 0038 00000000 		.4byte	.LFB49
 15252 003c B8010000 		.4byte	.LFE49-.LFB49
 15253 0040 00000000 		.4byte	.LFB50
 15254 0044 34000000 		.4byte	.LFE50-.LFB50
 15255 0048 00000000 		.4byte	.LFB51
 15256 004c 94000000 		.4byte	.LFE51-.LFB51
 15257 0050 00000000 		.4byte	.LFB52
 15258 0054 0C010000 		.4byte	.LFE52-.LFB52
 15259 0058 00000000 		.4byte	.LFB53
 15260 005c 3C010000 		.4byte	.LFE53-.LFB53
 15261 0060 00000000 		.4byte	.LFB54
 15262 0064 00030000 		.4byte	.LFE54-.LFB54
 15263 0068 00000000 		.4byte	.LFB55
 15264 006c 9C000000 		.4byte	.LFE55-.LFB55
 15265 0070 00000000 		.4byte	.LFB56
 15266 0074 90010000 		.4byte	.LFE56-.LFB56
 15267 0078 00000000 		.4byte	.LFB57
 15268 007c 06000000 		.4byte	.LFE57-.LFB57
 15269 0080 00000000 		.4byte	.LFB58
 15270 0084 9C000000 		.4byte	.LFE58-.LFB58
 15271 0088 00000000 		.4byte	.LFB59
 15272 008c 02000000 		.4byte	.LFE59-.LFB59
 15273 0090 00000000 		.4byte	.LFB60
 15274 0094 34000000 		.4byte	.LFE60-.LFB60
 15275 0098 00000000 		.4byte	.LFB61
 15276 009c C8010000 		.4byte	.LFE61-.LFB61
 15277 00a0 00000000 		.4byte	.LFB62
 15278 00a4 50010000 		.4byte	.LFE62-.LFB62
 15279 00a8 00000000 		.4byte	.LFB63
 15280 00ac 30000000 		.4byte	.LFE63-.LFB63
 15281 00b0 00000000 		.4byte	.LFB64
 15282 00b4 50000000 		.4byte	.LFE64-.LFB64
 15283 00b8 00000000 		.4byte	.LFB65
 15284 00bc 0E000000 		.4byte	.LFE65-.LFB65
 15285 00c0 00000000 		.4byte	.LFB66
 15286 00c4 38000000 		.4byte	.LFE66-.LFB66
 15287 00c8 00000000 		.4byte	0
 15288 00cc 00000000 		.4byte	0
 15289              		.section	.debug_ranges,"",%progbits
 15290              	.Ldebug_ranges0:
 15291 0000 32000000 		.4byte	.LBB27
 15292 0004 34000000 		.4byte	.LBE27
 15293 0008 36000000 		.4byte	.LBB52
ARM GAS  C:\Users\EBANO_~1\AppData\Local\Temp\ccJkfoGk.s 			page 298


 15294 000c 3A000000 		.4byte	.LBE52
 15295 0010 3C000000 		.4byte	.LBB53
 15296 0014 B8010000 		.4byte	.LBE53
 15297 0018 00000000 		.4byte	0
 15298 001c 00000000 		.4byte	0
 15299 0020 32000000 		.4byte	.LBB28
 15300 0024 34000000 		.4byte	.LBE28
 15301 0028 36000000 		.4byte	.LBB32
 15302 002c 38000000 		.4byte	.LBE32
 15303 0030 48000000 		.4byte	.LBB50
 15304 0034 66000000 		.4byte	.LBE50
 15305 0038 00000000 		.4byte	0
 15306 003c 00000000 		.4byte	0
 15307 0040 38000000 		.4byte	.LBB33
 15308 0044 3A000000 		.4byte	.LBE33
 15309 0048 3C000000 		.4byte	.LBB49
 15310 004c 40000000 		.4byte	.LBE49
 15311 0050 98000000 		.4byte	.LBB51
 15312 0054 B8010000 		.4byte	.LBE51
 15313 0058 00000000 		.4byte	0
 15314 005c 00000000 		.4byte	0
 15315 0060 38000000 		.4byte	.LBB35
 15316 0064 3A000000 		.4byte	.LBE35
 15317 0068 3C000000 		.4byte	.LBB44
 15318 006c 40000000 		.4byte	.LBE44
 15319 0070 DE000000 		.4byte	.LBB45
 15320 0074 32010000 		.4byte	.LBE45
 15321 0078 6A010000 		.4byte	.LBB46
 15322 007c B8010000 		.4byte	.LBE46
 15323 0080 00000000 		.4byte	0
 15324 0084 00000000 		.4byte	0
 15325 0088 14010000 		.4byte	.LBB37
 15326 008c 2E010000 		.4byte	.LBE37
 15327 0090 76010000 		.4byte	.LBB40
 15328 0094 B8010000 		.4byte	.LBE40
 15329 0098 00000000 		.4byte	0
 15330 009c 00000000 		.4byte	0
 15331 00a0 18000000 		.4byte	.LBB54
 15332 00a4 1C000000 		.4byte	.LBE54
 15333 00a8 1E000000 		.4byte	.LBB58
 15334 00ac 32000000 		.4byte	.LBE58
 15335 00b0 70000000 		.4byte	.LBB59
 15336 00b4 72000000 		.4byte	.LBE59
 15337 00b8 00000000 		.4byte	0
 15338 00bc 00000000 		.4byte	0
 15339 00c0 28000000 		.4byte	.LBB60
 15340 00c4 2A000000 		.4byte	.LBE60
 15341 00c8 2C000000 		.4byte	.LBB66
 15342 00cc 30000000 		.4byte	.LBE66
 15343 00d0 34000000 		.4byte	.LBB67
 15344 00d4 36000000 		.4byte	.LBE67
 15345 00d8 3C000000 		.4byte	.LBB68
 15346 00dc 4A000000 		.4byte	.LBE68
 15347 00e0 4C000000 		.4byte	.LBB73
 15348 00e4 4E000000 		.4byte	.LBE73
 15349 00e8 00000000 		.4byte	0
 15350 00ec 00000000 		.4byte	0
ARM GAS  C:\Users\EBANO_~1\AppData\Local\Temp\ccJkfoGk.s 			page 299


 15351 00f0 4A000000 		.4byte	.LBB69
 15352 00f4 4C000000 		.4byte	.LBE69
 15353 00f8 4E000000 		.4byte	.LBB74
 15354 00fc 64000000 		.4byte	.LBE74
 15355 0100 E4000000 		.4byte	.LBB75
 15356 0104 EA000000 		.4byte	.LBE75
 15357 0108 00000000 		.4byte	0
 15358 010c 00000000 		.4byte	0
 15359 0110 22000000 		.4byte	.LBB81
 15360 0114 28000000 		.4byte	.LBE81
 15361 0118 5C000000 		.4byte	.LBB82
 15362 011c 50010000 		.4byte	.LBE82
 15363 0120 E6010000 		.4byte	.LBB83
 15364 0124 D2020000 		.4byte	.LBE83
 15365 0128 EC020000 		.4byte	.LBB84
 15366 012c 00030000 		.4byte	.LBE84
 15367 0130 00000000 		.4byte	0
 15368 0134 00000000 		.4byte	0
 15369 0138 02000000 		.4byte	.LBB89
 15370 013c 04000000 		.4byte	.LBE89
 15371 0140 06000000 		.4byte	.LBB98
 15372 0144 08000000 		.4byte	.LBE98
 15373 0148 0C000000 		.4byte	.LBB99
 15374 014c 42000000 		.4byte	.LBE99
 15375 0150 70000000 		.4byte	.LBB100
 15376 0154 72000000 		.4byte	.LBE100
 15377 0158 00000000 		.4byte	0
 15378 015c 00000000 		.4byte	0
 15379 0160 2A000000 		.4byte	.LBB91
 15380 0164 42000000 		.4byte	.LBE91
 15381 0168 70000000 		.4byte	.LBB94
 15382 016c 72000000 		.4byte	.LBE94
 15383 0170 00000000 		.4byte	0
 15384 0174 00000000 		.4byte	0
 15385 0178 12000000 		.4byte	.LBB109
 15386 017c 16000000 		.4byte	.LBE109
 15387 0180 94000000 		.4byte	.LBB135
 15388 0184 B6000000 		.4byte	.LBE135
 15389 0188 00000000 		.4byte	0
 15390 018c 00000000 		.4byte	0
 15391 0190 20000000 		.4byte	.LBB112
 15392 0194 94000000 		.4byte	.LBE112
 15393 0198 BE000000 		.4byte	.LBB136
 15394 019c CC000000 		.4byte	.LBE136
 15395 01a0 CE000000 		.4byte	.LBB137
 15396 01a4 30010000 		.4byte	.LBE137
 15397 01a8 32010000 		.4byte	.LBB138
 15398 01ac 3E010000 		.4byte	.LBE138
 15399 01b0 42010000 		.4byte	.LBB139
 15400 01b4 4E010000 		.4byte	.LBE139
 15401 01b8 52010000 		.4byte	.LBB140
 15402 01bc 90010000 		.4byte	.LBE140
 15403 01c0 00000000 		.4byte	0
 15404 01c4 00000000 		.4byte	0
 15405 01c8 56000000 		.4byte	.LBB114
 15406 01cc 5A000000 		.4byte	.LBE114
 15407 01d0 68000000 		.4byte	.LBB125
ARM GAS  C:\Users\EBANO_~1\AppData\Local\Temp\ccJkfoGk.s 			page 300


 15408 01d4 94000000 		.4byte	.LBE125
 15409 01d8 BE000000 		.4byte	.LBB126
 15410 01dc CC000000 		.4byte	.LBE126
 15411 01e0 CE000000 		.4byte	.LBB127
 15412 01e4 0A010000 		.4byte	.LBE127
 15413 01e8 42010000 		.4byte	.LBB128
 15414 01ec 4E010000 		.4byte	.LBE128
 15415 01f0 52010000 		.4byte	.LBB129
 15416 01f4 90010000 		.4byte	.LBE129
 15417 01f8 00000000 		.4byte	0
 15418 01fc 00000000 		.4byte	0
 15419 0200 F0000000 		.4byte	.LBB116
 15420 0204 0A010000 		.4byte	.LBE116
 15421 0208 52010000 		.4byte	.LBB119
 15422 020c 90010000 		.4byte	.LBE119
 15423 0210 00000000 		.4byte	0
 15424 0214 00000000 		.4byte	0
 15425 0218 02000000 		.4byte	.LBB145
 15426 021c 04000000 		.4byte	.LBE145
 15427 0220 06000000 		.4byte	.LBB151
 15428 0224 08000000 		.4byte	.LBE151
 15429 0228 0C000000 		.4byte	.LBB152
 15430 022c 40000000 		.4byte	.LBE152
 15431 0230 00000000 		.4byte	0
 15432 0234 00000000 		.4byte	0
 15433 0238 6C000000 		.4byte	.LBB157
 15434 023c 76000000 		.4byte	.LBE157
 15435 0240 7A000000 		.4byte	.LBB170
 15436 0244 E8000000 		.4byte	.LBE170
 15437 0248 2C010000 		.4byte	.LBB171
 15438 024c 40010000 		.4byte	.LBE171
 15439 0250 44010000 		.4byte	.LBB172
 15440 0254 A4010000 		.4byte	.LBE172
 15441 0258 00000000 		.4byte	0
 15442 025c 00000000 		.4byte	0
 15443 0260 70000000 		.4byte	.LBB159
 15444 0264 76000000 		.4byte	.LBE159
 15445 0268 7A000000 		.4byte	.LBB164
 15446 026c E8000000 		.4byte	.LBE164
 15447 0270 34010000 		.4byte	.LBB165
 15448 0274 40010000 		.4byte	.LBE165
 15449 0278 44010000 		.4byte	.LBB166
 15450 027c A4010000 		.4byte	.LBE166
 15451 0280 00000000 		.4byte	0
 15452 0284 00000000 		.4byte	0
 15453 0288 4E000000 		.4byte	.LBB177
 15454 028c 50000000 		.4byte	.LBE177
 15455 0290 54000000 		.4byte	.LBB188
 15456 0294 62000000 		.4byte	.LBE188
 15457 0298 64000000 		.4byte	.LBB189
 15458 029c 9C000000 		.4byte	.LBE189
 15459 02a0 AA000000 		.4byte	.LBB190
 15460 02a4 D4000000 		.4byte	.LBE190
 15461 02a8 DC000000 		.4byte	.LBB191
 15462 02ac DE000000 		.4byte	.LBE191
 15463 02b0 0A010000 		.4byte	.LBB192
 15464 02b4 12010000 		.4byte	.LBE192
ARM GAS  C:\Users\EBANO_~1\AppData\Local\Temp\ccJkfoGk.s 			page 301


 15465 02b8 00000000 		.4byte	0
 15466 02bc 00000000 		.4byte	0
 15467 02c0 86000000 		.4byte	.LBB179
 15468 02c4 9C000000 		.4byte	.LBE179
 15469 02c8 0E010000 		.4byte	.LBB182
 15470 02cc 12010000 		.4byte	.LBE182
 15471 02d0 00000000 		.4byte	0
 15472 02d4 00000000 		.4byte	0
 15473 02d8 14000000 		.4byte	.LBB193
 15474 02dc 16000000 		.4byte	.LBE193
 15475 02e0 1C000000 		.4byte	.LBB197
 15476 02e4 24000000 		.4byte	.LBE197
 15477 02e8 2A000000 		.4byte	.LBB198
 15478 02ec 30000000 		.4byte	.LBE198
 15479 02f0 00000000 		.4byte	0
 15480 02f4 00000000 		.4byte	0
 15481 02f8 00000000 		.4byte	.LFB44
 15482 02fc 08010000 		.4byte	.LFE44
 15483 0300 00000000 		.4byte	.LFB45
 15484 0304 24000000 		.4byte	.LFE45
 15485 0308 00000000 		.4byte	.LFB46
 15486 030c B4000000 		.4byte	.LFE46
 15487 0310 00000000 		.4byte	.LFB47
 15488 0314 10000000 		.4byte	.LFE47
 15489 0318 00000000 		.4byte	.LFB48
 15490 031c 48000000 		.4byte	.LFE48
 15491 0320 00000000 		.4byte	.LFB49
 15492 0324 B8010000 		.4byte	.LFE49
 15493 0328 00000000 		.4byte	.LFB50
 15494 032c 34000000 		.4byte	.LFE50
 15495 0330 00000000 		.4byte	.LFB51
 15496 0334 94000000 		.4byte	.LFE51
 15497 0338 00000000 		.4byte	.LFB52
 15498 033c 0C010000 		.4byte	.LFE52
 15499 0340 00000000 		.4byte	.LFB53
 15500 0344 3C010000 		.4byte	.LFE53
 15501 0348 00000000 		.4byte	.LFB54
 15502 034c 00030000 		.4byte	.LFE54
 15503 0350 00000000 		.4byte	.LFB55
 15504 0354 9C000000 		.4byte	.LFE55
 15505 0358 00000000 		.4byte	.LFB56
 15506 035c 90010000 		.4byte	.LFE56
 15507 0360 00000000 		.4byte	.LFB57
 15508 0364 06000000 		.4byte	.LFE57
 15509 0368 00000000 		.4byte	.LFB58
 15510 036c 9C000000 		.4byte	.LFE58
 15511 0370 00000000 		.4byte	.LFB59
 15512 0374 02000000 		.4byte	.LFE59
 15513 0378 00000000 		.4byte	.LFB60
 15514 037c 34000000 		.4byte	.LFE60
 15515 0380 00000000 		.4byte	.LFB61
 15516 0384 C8010000 		.4byte	.LFE61
 15517 0388 00000000 		.4byte	.LFB62
 15518 038c 50010000 		.4byte	.LFE62
 15519 0390 00000000 		.4byte	.LFB63
 15520 0394 30000000 		.4byte	.LFE63
 15521 0398 00000000 		.4byte	.LFB64
ARM GAS  C:\Users\EBANO_~1\AppData\Local\Temp\ccJkfoGk.s 			page 302


 15522 039c 50000000 		.4byte	.LFE64
 15523 03a0 00000000 		.4byte	.LFB65
 15524 03a4 0E000000 		.4byte	.LFE65
 15525 03a8 00000000 		.4byte	.LFB66
 15526 03ac 38000000 		.4byte	.LFE66
 15527 03b0 00000000 		.4byte	0
 15528 03b4 00000000 		.4byte	0
 15529              		.section	.debug_line,"",%progbits
 15530              	.Ldebug_line0:
 15531 0000 77090000 		.section	.debug_str,"MS",%progbits,1
 15531      0200B303 
 15531      00000201 
 15531      FB0E0D00 
 15531      01010101 
 15532              	.LASF477:
 15533 0000 52656769 		.ascii	"RegionEU868TxParamSetupReq\000"
 15533      6F6E4555 
 15533      38363854 
 15533      78506172 
 15533      616D5365 
 15534              	.LASF216:
 15535 001b 52585F53 		.ascii	"RX_SLOT_WIN_CLASS_C\000"
 15535      4C4F545F 
 15535      57494E5F 
 15535      434C4153 
 15535      535F4300 
 15536              	.LASF415:
 15537 002f 73526567 		.ascii	"sRegionCommonLinkAdrReqVerifyParams\000"
 15537      696F6E43 
 15537      6F6D6D6F 
 15537      6E4C696E 
 15537      6B416472 
 15538              	.LASF266:
 15539 0053 5048595F 		.ascii	"PHY_JOIN_ACCEPT_DELAY1\000"
 15539      4A4F494E 
 15539      5F414343 
 15539      4550545F 
 15539      44454C41 
 15540              	.LASF267:
 15541 006a 5048595F 		.ascii	"PHY_JOIN_ACCEPT_DELAY2\000"
 15541      4A4F494E 
 15541      5F414343 
 15541      4550545F 
 15541      44454C41 
 15542              	.LASF313:
 15543 0081 52667531 		.ascii	"Rfu1Size\000"
 15543      53697A65 
 15543      00
 15544              	.LASF141:
 15545 008a 52657669 		.ascii	"Revision\000"
 15545      73696F6E 
 15545      00
 15546              	.LASF427:
 15547 0093 44617461 		.ascii	"Datarates\000"
 15547      72617465 
 15547      7300
 15548              	.LASF1:
ARM GAS  C:\Users\EBANO_~1\AppData\Local\Temp\ccJkfoGk.s 			page 303


 15549 009d 5F5F7569 		.ascii	"__uint8_t\000"
 15549      6E74385F 
 15549      7400
 15550              	.LASF311:
 15551 00a7 73426561 		.ascii	"sBeaconFormat\000"
 15551      636F6E46 
 15551      6F726D61 
 15551      7400
 15552              	.LASF361:
 15553 00b5 5278436F 		.ascii	"RxConfigParams_t\000"
 15553      6E666967 
 15553      50617261 
 15553      6D735F74 
 15553      00
 15554              	.LASF147:
 15555 00c6 5F426F6F 		.ascii	"_Bool\000"
 15555      6C00
 15556              	.LASF79:
 15557 00cc 5F6D6273 		.ascii	"_mbstate\000"
 15557      74617465 
 15557      00
 15558              	.LASF513:
 15559 00d5 6368616E 		.ascii	"chanMaskSet\000"
 15559      4D61736B 
 15559      53657400 
 15560              	.LASF58:
 15561 00e1 5F617465 		.ascii	"_atexit\000"
 15561      78697400 
 15562              	.LASF296:
 15563 00e9 5048595F 		.ascii	"PHY_BEACON_FORMAT\000"
 15563      42454143 
 15563      4F4E5F46 
 15563      4F524D41 
 15563      5400
 15564              	.LASF48:
 15565 00fb 5F5F746D 		.ascii	"__tm_mon\000"
 15565      5F6D6F6E 
 15565      00
 15566              	.LASF56:
 15567 0104 5F666E74 		.ascii	"_fntypes\000"
 15567      79706573 
 15567      00
 15568              	.LASF86:
 15569 010d 5F696E63 		.ascii	"_inc\000"
 15569      00
 15570              	.LASF59:
 15571 0112 5F696E64 		.ascii	"_ind\000"
 15571      00
 15572              	.LASF195:
 15573 0117 57726974 		.ascii	"WriteBuffer\000"
 15573      65427566 
 15573      66657200 
 15574              	.LASF170:
 15575 0123 52784572 		.ascii	"RxError\000"
 15575      726F7200 
 15576              	.LASF18:
 15577 012b 75696E74 		.ascii	"uint16_t\000"
ARM GAS  C:\Users\EBANO_~1\AppData\Local\Temp\ccJkfoGk.s 			page 304


 15577      31365F74 
 15577      00
 15578              	.LASF196:
 15579 0134 52656164 		.ascii	"ReadBuffer\000"
 15579      42756666 
 15579      657200
 15580              	.LASF430:
 15581 013f 52656769 		.ascii	"RegionCommonRxBeaconSetupParams_t\000"
 15581      6F6E436F 
 15581      6D6D6F6E 
 15581      52784265 
 15581      61636F6E 
 15582              	.LASF65:
 15583 0161 5F666C61 		.ascii	"_flags\000"
 15583      677300
 15584              	.LASF310:
 15585 0168 4368616E 		.ascii	"ChannelsMask_t\000"
 15585      6E656C73 
 15585      4D61736B 
 15585      5F7400
 15586              	.LASF96:
 15587 0177 5F637674 		.ascii	"_cvtlen\000"
 15587      6C656E00 
 15588              	.LASF230:
 15589 017f 4C4F5241 		.ascii	"LORAMAC_STATUS_NO_NETWORK_JOINED\000"
 15589      4D41435F 
 15589      53544154 
 15589      55535F4E 
 15589      4F5F4E45 
 15590              	.LASF100:
 15591 01a0 5F736967 		.ascii	"_sig_func\000"
 15591      5F66756E 
 15591      6300
 15592              	.LASF370:
 15593 01aa 41647245 		.ascii	"AdrEnabled\000"
 15593      6E61626C 
 15593      656400
 15594              	.LASF283:
 15595 01b5 5048595F 		.ascii	"PHY_BEACON_RESERVED\000"
 15595      42454143 
 15595      4F4E5F52 
 15595      45534552 
 15595      56454400 
 15596              	.LASF393:
 15597 01c9 54785469 		.ascii	"TxTimeOnAir\000"
 15597      6D654F6E 
 15597      41697200 
 15598              	.LASF78:
 15599 01d5 5F6C6F63 		.ascii	"_lock\000"
 15599      6B00
 15600              	.LASF74:
 15601 01db 5F6E6275 		.ascii	"_nbuf\000"
 15601      6600
 15602              	.LASF474:
 15603 01e1 52656769 		.ascii	"RegionEU868DlChannelReq\000"
 15603      6F6E4555 
 15603      38363844 
ARM GAS  C:\Users\EBANO_~1\AppData\Local\Temp\ccJkfoGk.s 			page 305


 15603      6C436861 
 15603      6E6E656C 
 15604              	.LASF133:
 15605 01f9 5F756E75 		.ascii	"_unused\000"
 15605      73656400 
 15606              	.LASF549:
 15607 0201 72616E64 		.ascii	"randr\000"
 15607      7200
 15608              	.LASF397:
 15609 0207 4C617374 		.ascii	"LastAggrTx\000"
 15609      41676772 
 15609      547800
 15610              	.LASF398:
 15611 0212 4E657874 		.ascii	"NextChanParams_t\000"
 15611      4368616E 
 15611      50617261 
 15611      6D735F74 
 15611      00
 15612              	.LASF169:
 15613 0223 52785469 		.ascii	"RxTimeout\000"
 15613      6D656F75 
 15613      7400
 15614              	.LASF301:
 15615 022d 50687941 		.ascii	"PhyAttribute_t\000"
 15615      74747269 
 15615      62757465 
 15615      5F7400
 15616              	.LASF435:
 15617 023c 4D617850 		.ascii	"MaxPayloadOfDatarateRepeaterEU868\000"
 15617      61796C6F 
 15617      61644F66 
 15617      44617461 
 15617      72617465 
 15618              	.LASF167:
 15619 025e 54785469 		.ascii	"TxTimeout\000"
 15619      6D656F75 
 15619      7400
 15620              	.LASF149:
 15621 0268 44437963 		.ascii	"DCycle\000"
 15621      6C6500
 15622              	.LASF355:
 15623 026f 44724F66 		.ascii	"DrOffset\000"
 15623      66736574 
 15623      00
 15624              	.LASF284:
 15625 0278 5048595F 		.ascii	"PHY_BEACON_GUARD\000"
 15625      42454143 
 15625      4F4E5F47 
 15625      55415244 
 15625      00
 15626              	.LASF343:
 15627 0289 44617461 		.ascii	"DatarateParams\000"
 15627      72617465 
 15627      50617261 
 15627      6D7300
 15628              	.LASF142:
 15629 0298 4D696E6F 		.ascii	"Minor\000"
ARM GAS  C:\Users\EBANO_~1\AppData\Local\Temp\ccJkfoGk.s 			page 306


 15629      7200
 15630              	.LASF420:
 15631 029e 4D696E54 		.ascii	"MinTxPower\000"
 15631      78506F77 
 15631      657200
 15632              	.LASF480:
 15633 02a9 6E657743 		.ascii	"newChannelReq\000"
 15633      68616E6E 
 15633      656C5265 
 15633      7100
 15634              	.LASF154:
 15635 02b7 42616E64 		.ascii	"Band_t\000"
 15635      5F7400
 15636              	.LASF396:
 15637 02be 41676772 		.ascii	"AggrTimeOff\000"
 15637      54696D65 
 15637      4F666600 
 15638              	.LASF19:
 15639 02ca 696E7433 		.ascii	"int32_t\000"
 15639      325F7400 
 15640              	.LASF111:
 15641 02d2 5F616464 		.ascii	"_add\000"
 15641      00
 15642              	.LASF518:
 15643 02d7 52656769 		.ascii	"RegionEU868Verify\000"
 15643      6F6E4555 
 15643      38363856 
 15643      65726966 
 15643      7900
 15644              	.LASF482:
 15645 02e9 72785061 		.ascii	"rxParamSetupReq\000"
 15645      72616D53 
 15645      65747570 
 15645      52657100 
 15646              	.LASF161:
 15647 02f9 52465F49 		.ascii	"RF_IDLE\000"
 15647      444C4500 
 15648              	.LASF150:
 15649 0301 54784D61 		.ascii	"TxMaxPower\000"
 15649      78506F77 
 15649      657200
 15650              	.LASF240:
 15651 030c 4C4F5241 		.ascii	"LORAMAC_STATUS_CRYPTO_ERROR\000"
 15651      4D41435F 
 15651      53544154 
 15651      55535F43 
 15651      52595054 
 15652              	.LASF379:
 15653 0328 4368616E 		.ascii	"ChannelId\000"
 15653      6E656C49 
 15653      6400
 15654              	.LASF375:
 15655 0332 73527850 		.ascii	"sRxParamSetupReqParams\000"
 15655      6172616D 
 15655      53657475 
 15655      70526571 
 15655      50617261 
ARM GAS  C:\Users\EBANO_~1\AppData\Local\Temp\ccJkfoGk.s 			page 307


 15656              	.LASF519:
 15657 0349 76657269 		.ascii	"verify\000"
 15657      667900
 15658              	.LASF565:
 15659 0350 5F5F6275 		.ascii	"__builtin_memset\000"
 15659      696C7469 
 15659      6E5F6D65 
 15659      6D736574 
 15659      00
 15660              	.LASF67:
 15661 0361 5F6C6266 		.ascii	"_lbfsize\000"
 15661      73697A65 
 15661      00
 15662              	.LASF258:
 15663 036a 5048595F 		.ascii	"PHY_DEF_ADR_ACK_LIMIT\000"
 15663      4445465F 
 15663      4144525F 
 15663      41434B5F 
 15663      4C494D49 
 15664              	.LASF174:
 15665 0380 52616469 		.ascii	"Radio_s\000"
 15665      6F5F7300 
 15666              	.LASF552:
 15667 0388 6D656D63 		.ascii	"memcpy1\000"
 15667      70793100 
 15668              	.LASF376:
 15669 0390 52785061 		.ascii	"RxParamSetupReqParams_t\000"
 15669      72616D53 
 15669      65747570 
 15669      52657150 
 15669      6172616D 
 15670              	.LASF517:
 15671 03a8 6368616E 		.ascii	"chanIdx\000"
 15671      49647800 
 15672              	.LASF77:
 15673 03b0 5F646174 		.ascii	"_data\000"
 15673      6100
 15674              	.LASF537:
 15675 03b6 7478506F 		.ascii	"txPowerResult\000"
 15675      77657252 
 15675      6573756C 
 15675      7400
 15676              	.LASF426:
 15677 03c4 73526567 		.ascii	"sRegionCommonRxBeaconSetupParams\000"
 15677      696F6E43 
 15677      6F6D6D6F 
 15677      6E527842 
 15677      6561636F 
 15678              	.LASF312:
 15679 03e5 42656163 		.ascii	"BeaconSize\000"
 15679      6F6E5369 
 15679      7A6500
 15680              	.LASF197:
 15681 03f0 5365744D 		.ascii	"SetMaxPayloadLength\000"
 15681      61785061 
 15681      796C6F61 
 15681      644C656E 
ARM GAS  C:\Users\EBANO_~1\AppData\Local\Temp\ccJkfoGk.s 			page 308


 15681      67746800 
 15682              	.LASF363:
 15683 0404 4D617845 		.ascii	"MaxEirp\000"
 15683      69727000 
 15684              	.LASF534:
 15685 040c 66726571 		.ascii	"freq\000"
 15685      00
 15686              	.LASF156:
 15687 0411 5F646179 		.ascii	"_daylight\000"
 15687      6C696768 
 15687      7400
 15688              	.LASF418:
 15689 041b 4D696E44 		.ascii	"MinDatarate\000"
 15689      61746172 
 15689      61746500 
 15690              	.LASF222:
 15691 0427 654C6F52 		.ascii	"eLoRaMacStatus\000"
 15691      614D6163 
 15691      53746174 
 15691      757300
 15692              	.LASF494:
 15693 0436 70687950 		.ascii	"phyParam\000"
 15693      6172616D 
 15693      00
 15694              	.LASF134:
 15695 043f 5F5F6C6F 		.ascii	"__lock\000"
 15695      636B00
 15696              	.LASF81:
 15697 0446 5F726565 		.ascii	"_reent\000"
 15697      6E7400
 15698              	.LASF234:
 15699 044d 4C4F5241 		.ascii	"LORAMAC_STATUS_DUTYCYCLE_RESTRICTED\000"
 15699      4D41435F 
 15699      53544154 
 15699      55535F44 
 15699      55545943 
 15700              	.LASF327:
 15701 0471 47657450 		.ascii	"GetPhyParams_t\000"
 15701      68795061 
 15701      72616D73 
 15701      5F7400
 15702              	.LASF189:
 15703 0480 5374616E 		.ascii	"Standby\000"
 15703      64627900 
 15704              	.LASF501:
 15705 0488 70687944 		.ascii	"phyDr\000"
 15705      7200
 15706              	.LASF411:
 15707 048e 4E625265 		.ascii	"NbRep\000"
 15707      7000
 15708              	.LASF102:
 15709 0494 5F5F7366 		.ascii	"__sf\000"
 15709      00
 15710              	.LASF62:
 15711 0499 5F626173 		.ascii	"_base\000"
 15711      6500
 15712              	.LASF193:
ARM GAS  C:\Users\EBANO_~1\AppData\Local\Temp\ccJkfoGk.s 			page 309


 15713 049f 57726974 		.ascii	"Write\000"
 15713      6500
 15714              	.LASF120:
 15715 04a5 5F6D6274 		.ascii	"_mbtowc_state\000"
 15715      6F77635F 
 15715      73746174 
 15715      6500
 15716              	.LASF306:
 15717 04b3 496E6974 		.ascii	"InitType_t\000"
 15717      54797065 
 15717      5F7400
 15718              	.LASF444:
 15719 04be 64617461 		.ascii	"datarate\000"
 15719      72617465 
 15719      00
 15720              	.LASF421:
 15721 04c7 4D617854 		.ascii	"MaxTxPower\000"
 15721      78506F77 
 15721      657200
 15722              	.LASF152:
 15723 04d2 4C617374 		.ascii	"LastTxDoneTime\000"
 15723      5478446F 
 15723      6E655469 
 15723      6D6500
 15724              	.LASF194:
 15725 04e1 52656164 		.ascii	"Read\000"
 15725      00
 15726              	.LASF43:
 15727 04e6 5F5F746D 		.ascii	"__tm\000"
 15727      00
 15728              	.LASF553:
 15729 04eb 52656769 		.ascii	"RegionCommonParseLinkAdrReq\000"
 15729      6F6E436F 
 15729      6D6D6F6E 
 15729      50617273 
 15729      654C696E 
 15730              	.LASF51:
 15731 0507 5F5F746D 		.ascii	"__tm_yday\000"
 15731      5F796461 
 15731      7900
 15732              	.LASF526:
 15733 0511 7478446F 		.ascii	"txDone\000"
 15733      6E6500
 15734              	.LASF254:
 15735 0518 5048595F 		.ascii	"PHY_RX_DR\000"
 15735      52585F44 
 15735      5200
 15736              	.LASF473:
 15737 0522 74797065 		.ascii	"type\000"
 15737      00
 15738              	.LASF399:
 15739 0527 73436861 		.ascii	"sChannelAddParams\000"
 15739      6E6E656C 
 15739      41646450 
 15739      6172616D 
 15739      7300
 15740              	.LASF27:
ARM GAS  C:\Users\EBANO_~1\AppData\Local\Temp\ccJkfoGk.s 			page 310


 15741 0539 5F4C4F43 		.ascii	"_LOCK_T\000"
 15741      4B5F5400 
 15742              	.LASF211:
 15743 0541 44725261 		.ascii	"DrRange\000"
 15743      6E676500 
 15744              	.LASF292:
 15745 0549 5048595F 		.ascii	"PHY_PING_SLOT_SYMBOL_TO_EXPANSION_FACTOR\000"
 15745      50494E47 
 15745      5F534C4F 
 15745      545F5359 
 15745      4D424F4C 
 15746              	.LASF521:
 15747 0572 52656769 		.ascii	"RegionEU868GetNvmCtx\000"
 15747      6F6E4555 
 15747      38363847 
 15747      65744E76 
 15747      6D437478 
 15748              	.LASF201:
 15749 0587 5278426F 		.ascii	"RxBoosted\000"
 15749      6F737465 
 15749      6400
 15750              	.LASF4:
 15751 0591 5F5F696E 		.ascii	"__int16_t\000"
 15751      7431365F 
 15751      7400
 15752              	.LASF515:
 15753 059b 6170706C 		.ascii	"applyCFList\000"
 15753      7943464C 
 15753      69737400 
 15754              	.LASF6:
 15755 05a7 5F5F7569 		.ascii	"__uint16_t\000"
 15755      6E743136 
 15755      5F7400
 15756              	.LASF270:
 15757 05b2 5048595F 		.ascii	"PHY_DEF_DR1_OFFSET\000"
 15757      4445465F 
 15757      4452315F 
 15757      4F464653 
 15757      455400
 15758              	.LASF112:
 15759 05c5 5F756E75 		.ascii	"_unused_rand\000"
 15759      7365645F 
 15759      72616E64 
 15759      00
 15760              	.LASF339:
 15761 05d2 73446174 		.ascii	"sDatarateParams\000"
 15761      61726174 
 15761      65506172 
 15761      616D7300 
 15762              	.LASF274:
 15763 05e2 5048595F 		.ascii	"PHY_CHANNELS_DEFAULT_MASK\000"
 15763      4348414E 
 15763      4E454C53 
 15763      5F444546 
 15763      41554C54 
 15764              	.LASF447:
 15765 05fc 636F6E74 		.ascii	"continuousWave\000"
ARM GAS  C:\Users\EBANO_~1\AppData\Local\Temp\ccJkfoGk.s 			page 311


 15765      696E756F 
 15765      75735761 
 15765      766500
 15766              	.LASF448:
 15767 060b 70687954 		.ascii	"phyTxPower\000"
 15767      78506F77 
 15767      657200
 15768              	.LASF406:
 15769 0616 73527842 		.ascii	"sRxBeaconSetupParams\000"
 15769      6561636F 
 15769      6E536574 
 15769      75705061 
 15769      72616D73 
 15770              	.LASF357:
 15771 062b 57696E64 		.ascii	"WindowOffset\000"
 15771      6F774F66 
 15771      66736574 
 15771      00
 15772              	.LASF285:
 15773 0638 5048595F 		.ascii	"PHY_BEACON_WINDOW\000"
 15773      42454143 
 15773      4F4E5F57 
 15773      494E444F 
 15773      5700
 15774              	.LASF93:
 15775 064a 5F726573 		.ascii	"_result_k\000"
 15775      756C745F 
 15775      6B00
 15776              	.LASF85:
 15777 0654 5F737464 		.ascii	"_stderr\000"
 15777      65727200 
 15778              	.LASF92:
 15779 065c 5F726573 		.ascii	"_result\000"
 15779      756C7400 
 15780              	.LASF428:
 15781 0664 42656163 		.ascii	"BeaconDatarate\000"
 15781      6F6E4461 
 15781      74617261 
 15781      746500
 15782              	.LASF55:
 15783 0673 5F64736F 		.ascii	"_dso_handle\000"
 15783      5F68616E 
 15783      646C6500 
 15784              	.LASF389:
 15785 067f 7343616C 		.ascii	"sCalcBackOffParams\000"
 15785      63426163 
 15785      6B4F6666 
 15785      50617261 
 15785      6D7300
 15786              	.LASF50:
 15787 0692 5F5F746D 		.ascii	"__tm_wday\000"
 15787      5F776461 
 15787      7900
 15788              	.LASF52:
 15789 069c 5F5F746D 		.ascii	"__tm_isdst\000"
 15789      5F697364 
 15789      737400
ARM GAS  C:\Users\EBANO_~1\AppData\Local\Temp\ccJkfoGk.s 			page 312


 15790              	.LASF465:
 15791 06a7 64656C61 		.ascii	"delayTx\000"
 15791      79547800 
 15792              	.LASF559:
 15793 06af 52656769 		.ascii	"RegionCommonChanMaskCopy\000"
 15793      6F6E436F 
 15793      6D6D6F6E 
 15793      4368616E 
 15793      4D61736B 
 15794              	.LASF231:
 15795 06c8 4C4F5241 		.ascii	"LORAMAC_STATUS_LENGTH_ERROR\000"
 15795      4D41435F 
 15795      53544154 
 15795      55535F4C 
 15795      454E4754 
 15796              	.LASF153:
 15797 06e4 54696D65 		.ascii	"TimeOff\000"
 15797      4F666600 
 15798              	.LASF3:
 15799 06ec 756E7369 		.ascii	"unsigned char\000"
 15799      676E6564 
 15799      20636861 
 15799      7200
 15800              	.LASF84:
 15801 06fa 5F737464 		.ascii	"_stdout\000"
 15801      6F757400 
 15802              	.LASF336:
 15803 0702 73476574 		.ascii	"sGetNvmCtxParams\000"
 15803      4E766D43 
 15803      74785061 
 15803      72616D73 
 15803      00
 15804              	.LASF127:
 15805 0713 5F6D6273 		.ascii	"_mbsrtowcs_state\000"
 15805      72746F77 
 15805      63735F73 
 15805      74617465 
 15805      00
 15806              	.LASF41:
 15807 0724 5F776473 		.ascii	"_wds\000"
 15807      00
 15808              	.LASF207:
 15809 0729 44725261 		.ascii	"DrRange_t\000"
 15809      6E67655F 
 15809      7400
 15810              	.LASF220:
 15811 0733 666C6F61 		.ascii	"float\000"
 15811      7400
 15812              	.LASF563:
 15813 0739 443A5C67 		.ascii	"D:\\git_pessoal\\keil_gcc\\STM32CubeExpansion_LRWAN"
 15813      69745F70 
 15813      6573736F 
 15813      616C5C6B 
 15813      65696C5F 
 15814 0769 5F56312E 		.ascii	"_V1.2.1\\Projects\\B-L072Z-LRWAN1\\Applications\\Lo"
 15814      322E315C 
 15814      50726F6A 
ARM GAS  C:\Users\EBANO_~1\AppData\Local\Temp\ccJkfoGk.s 			page 313


 15814      65637473 
 15814      5C422D4C 
 15815 0798 52615C45 		.ascii	"Ra\\End_Node\\MDK-ARM\000"
 15815      6E645F4E 
 15815      6F64655C 
 15815      4D444B2D 
 15815      41524D00 
 15816              	.LASF271:
 15817 07ac 5048595F 		.ascii	"PHY_DEF_RX2_FREQUENCY\000"
 15817      4445465F 
 15817      5258325F 
 15817      46524551 
 15817      55454E43 
 15818              	.LASF503:
 15819 07c2 52656769 		.ascii	"RegionEU868RxConfig\000"
 15819      6F6E4555 
 15819      38363852 
 15819      78436F6E 
 15819      66696700 
 15820              	.LASF323:
 15821 07d6 41747472 		.ascii	"Attribute\000"
 15821      69627574 
 15821      6500
 15822              	.LASF247:
 15823 07e0 65506879 		.ascii	"ePhyAttribute\000"
 15823      41747472 
 15823      69627574 
 15823      6500
 15824              	.LASF63:
 15825 07ee 5F73697A 		.ascii	"_size\000"
 15825      6500
 15826              	.LASF368:
 15827 07f4 56657273 		.ascii	"Version\000"
 15827      696F6E00 
 15828              	.LASF70:
 15829 07fc 5F777269 		.ascii	"_write\000"
 15829      746500
 15830              	.LASF385:
 15831 0803 65416C74 		.ascii	"eAlternateDrType\000"
 15831      65726E61 
 15831      74654472 
 15831      54797065 
 15831      00
 15832              	.LASF412:
 15833 0814 43684D61 		.ascii	"ChMaskCtrl\000"
 15833      736B4374 
 15833      726C00
 15834              	.LASF176:
 15835 081f 496F4465 		.ascii	"IoDeInit\000"
 15835      496E6974 
 15835      00
 15836              	.LASF179:
 15837 0828 5365744D 		.ascii	"SetModem\000"
 15837      6F64656D 
 15837      00
 15838              	.LASF360:
 15839 0831 5278536C 		.ascii	"RxSlot\000"
ARM GAS  C:\Users\EBANO_~1\AppData\Local\Temp\ccJkfoGk.s 			page 314


 15839      6F7400
 15840              	.LASF226:
 15841 0838 4C4F5241 		.ascii	"LORAMAC_STATUS_PARAMETER_INVALID\000"
 15841      4D41435F 
 15841      53544154 
 15841      55535F50 
 15841      4152414D 
 15842              	.LASF419:
 15843 0859 4D617844 		.ascii	"MaxDatarate\000"
 15843      61746172 
 15843      61746500 
 15844              	.LASF402:
 15845 0865 4368616E 		.ascii	"ChannelRemoveParams_t\000"
 15845      6E656C52 
 15845      656D6F76 
 15845      65506172 
 15845      616D735F 
 15846              	.LASF166:
 15847 087b 5478446F 		.ascii	"TxDone\000"
 15847      6E6500
 15848              	.LASF532:
 15849 0882 436F756E 		.ascii	"CountNbOfEnabledChannels\000"
 15849      744E624F 
 15849      66456E61 
 15849      626C6564 
 15849      4368616E 
 15850              	.LASF49:
 15851 089b 5F5F746D 		.ascii	"__tm_year\000"
 15851      5F796561 
 15851      7200
 15852              	.LASF206:
 15853 08a5 75447252 		.ascii	"uDrRange\000"
 15853      616E6765 
 15853      00
 15854              	.LASF212:
 15855 08ae 42616E64 		.ascii	"Band\000"
 15855      00
 15856              	.LASF436:
 15857 08b3 73526567 		.ascii	"sRegionEU868NvmCtx\000"
 15857      696F6E45 
 15857      55383638 
 15857      4E766D43 
 15857      747800
 15858              	.LASF367:
 15859 08c6 734C696E 		.ascii	"sLinkAdrReqParams\000"
 15859      6B416472 
 15859      52657150 
 15859      6172616D 
 15859      7300
 15860              	.LASF356:
 15861 08d8 57696E64 		.ascii	"WindowTimeout\000"
 15861      6F775469 
 15861      6D656F75 
 15861      7400
 15862              	.LASF203:
 15863 08e6 52616469 		.ascii	"Radio\000"
 15863      6F00
ARM GAS  C:\Users\EBANO_~1\AppData\Local\Temp\ccJkfoGk.s 			page 315


 15864              	.LASF496:
 15865 08ec 52656769 		.ascii	"RegionEU868TxConfig\000"
 15865      6F6E4555 
 15865      38363854 
 15865      78436F6E 
 15865      66696700 
 15866              	.LASF561:
 15867 0900 474E5520 		.ascii	"GNU C11 7.3.1 20180622 (release) [ARM/embedded-7-br"
 15867      43313120 
 15867      372E332E 
 15867      31203230 
 15867      31383036 
 15868 0933 616E6368 		.ascii	"anch revision 261907] -mcpu=cortex-m0plus -mthumb -"
 15868      20726576 
 15868      6973696F 
 15868      6E203236 
 15868      31393037 
 15869 0966 6D666C6F 		.ascii	"mfloat-abi=soft -gdwarf-2 -O3 -ffunction-sections\000"
 15869      61742D61 
 15869      62693D73 
 15869      6F667420 
 15869      2D676477 
 15870              	.LASF110:
 15871 0998 5F6D756C 		.ascii	"_mult\000"
 15871      7400
 15872              	.LASF536:
 15873 099e 6D617842 		.ascii	"maxBandTxPower\000"
 15873      616E6454 
 15873      78506F77 
 15873      657200
 15874              	.LASF490:
 15875 09ad 6E657874 		.ascii	"nextIndex\000"
 15875      496E6465 
 15875      7800
 15876              	.LASF190:
 15877 09b7 53746172 		.ascii	"StartCad\000"
 15877      74436164 
 15877      00
 15878              	.LASF377:
 15879 09c0 734E6577 		.ascii	"sNewChannelReqParams\000"
 15879      4368616E 
 15879      6E656C52 
 15879      65715061 
 15879      72616D73 
 15880              	.LASF125:
 15881 09d5 5F6D6272 		.ascii	"_mbrlen_state\000"
 15881      6C656E5F 
 15881      73746174 
 15881      6500
 15882              	.LASF509:
 15883 09e3 7278436F 		.ascii	"rxConfigParams\000"
 15883      6E666967 
 15883      50617261 
 15883      6D7300
 15884              	.LASF462:
 15885 09f2 74696D65 		.ascii	"time\000"
 15885      00
ARM GAS  C:\Users\EBANO_~1\AppData\Local\Temp\ccJkfoGk.s 			page 316


 15886              	.LASF434:
 15887 09f7 4D617850 		.ascii	"MaxPayloadOfDatarateEU868\000"
 15887      61796C6F 
 15887      61644F66 
 15887      44617461 
 15887      72617465 
 15888              	.LASF241:
 15889 0a11 4C4F5241 		.ascii	"LORAMAC_STATUS_FCNT_HANDLER_ERROR\000"
 15889      4D41435F 
 15889      53544154 
 15889      55535F46 
 15889      434E545F 
 15890              	.LASF492:
 15891 0a33 63684D61 		.ascii	"chMask\000"
 15891      736B00
 15892              	.LASF380:
 15893 0a3a 4E657743 		.ascii	"NewChannelReqParams_t\000"
 15893      68616E6E 
 15893      656C5265 
 15893      71506172 
 15893      616D735F 
 15894              	.LASF168:
 15895 0a50 5278446F 		.ascii	"RxDone\000"
 15895      6E6500
 15896              	.LASF83:
 15897 0a57 5F737464 		.ascii	"_stdin\000"
 15897      696E00
 15898              	.LASF248:
 15899 0a5e 5048595F 		.ascii	"PHY_MIN_RX_DR\000"
 15899      4D494E5F 
 15899      52585F44 
 15899      5200
 15900              	.LASF132:
 15901 0a6c 5F6E6D61 		.ascii	"_nmalloc\000"
 15901      6C6C6F63 
 15901      00
 15902              	.LASF337:
 15903 0a75 6E766D43 		.ascii	"nvmCtxSize\000"
 15903      74785369 
 15903      7A6500
 15904              	.LASF182:
 15905 0a80 52616E64 		.ascii	"Random\000"
 15905      6F6D00
 15906              	.LASF404:
 15907 0a87 54696D65 		.ascii	"Timeout\000"
 15907      6F757400 
 15908              	.LASF334:
 15909 0a8f 54797065 		.ascii	"Type\000"
 15909      00
 15910              	.LASF371:
 15911 0a94 43757272 		.ascii	"CurrentDatarate\000"
 15911      656E7444 
 15911      61746172 
 15911      61746500 
 15912              	.LASF346:
 15913 0aa4 5061796C 		.ascii	"Payload\000"
 15913      6F616400 
ARM GAS  C:\Users\EBANO_~1\AppData\Local\Temp\ccJkfoGk.s 			page 317


 15914              	.LASF263:
 15915 0aac 5048595F 		.ascii	"PHY_MAX_RX_WINDOW\000"
 15915      4D41585F 
 15915      52585F57 
 15915      494E444F 
 15915      5700
 15916              	.LASF28:
 15917 0abe 5F6F6666 		.ascii	"_off_t\000"
 15917      5F7400
 15918              	.LASF140:
 15919 0ac5 56657273 		.ascii	"Version_s\000"
 15919      696F6E5F 
 15919      7300
 15920              	.LASF146:
 15921 0acf 56657273 		.ascii	"Version_t\000"
 15921      696F6E5F 
 15921      7400
 15922              	.LASF205:
 15923 0ad9 56657273 		.ascii	"Version_u\000"
 15923      696F6E5F 
 15923      7500
 15924              	.LASF539:
 15925 0ae3 6472496E 		.ascii	"drIndex\000"
 15925      64657800 
 15926              	.LASF25:
 15927 0aeb 73697A65 		.ascii	"size_t\000"
 15927      5F7400
 15928              	.LASF115:
 15929 0af2 5F6C6F63 		.ascii	"_localtime_buf\000"
 15929      616C7469 
 15929      6D655F62 
 15929      756600
 15930              	.LASF33:
 15931 0b01 5F5F636F 		.ascii	"__count\000"
 15931      756E7400 
 15932              	.LASF16:
 15933 0b09 75696E74 		.ascii	"uint8_t\000"
 15933      385F7400 
 15934              	.LASF290:
 15935 0b11 5048595F 		.ascii	"PHY_PING_SLOT_SYMBOL_TO_EXPANSION_MAX\000"
 15935      50494E47 
 15935      5F534C4F 
 15935      545F5359 
 15935      4D424F4C 
 15936              	.LASF298:
 15937 0b37 5048595F 		.ascii	"PHY_BEACON_CHANNEL_STEPWIDTH\000"
 15937      42454143 
 15937      4F4E5F43 
 15937      48414E4E 
 15937      454C5F53 
 15938              	.LASF148:
 15939 0b54 7342616E 		.ascii	"sBand\000"
 15939      6400
 15940              	.LASF249:
 15941 0b5a 5048595F 		.ascii	"PHY_MIN_TX_DR\000"
 15941      4D494E5F 
 15941      54585F44 
ARM GAS  C:\Users\EBANO_~1\AppData\Local\Temp\ccJkfoGk.s 			page 318


 15941      5200
 15942              	.LASF548:
 15943 0b68 52656769 		.ascii	"RegionCommonUpdateBandTimeOff\000"
 15943      6F6E436F 
 15943      6D6D6F6E 
 15943      55706461 
 15943      74654261 
 15944              	.LASF288:
 15945 0b86 5048595F 		.ascii	"PHY_BEACON_SYMBOL_TO_DEFAULT\000"
 15945      42454143 
 15945      4F4E5F53 
 15945      594D424F 
 15945      4C5F544F 
 15946              	.LASF221:
 15947 0ba3 654C6F52 		.ascii	"eLoRaMacRxSlot\000"
 15947      614D6163 
 15947      5278536C 
 15947      6F7400
 15948              	.LASF97:
 15949 0bb2 5F637674 		.ascii	"_cvtbuf\000"
 15949      62756600 
 15950              	.LASF414:
 15951 0bba 52656769 		.ascii	"RegionCommonLinkAdrParams_t\000"
 15951      6F6E436F 
 15951      6D6D6F6E 
 15951      4C696E6B 
 15951      41647250 
 15952              	.LASF335:
 15953 0bd6 496E6974 		.ascii	"InitDefaultsParams_t\000"
 15953      44656661 
 15953      756C7473 
 15953      50617261 
 15953      6D735F74 
 15954              	.LASF417:
 15955 0beb 4E624368 		.ascii	"NbChannels\000"
 15955      616E6E65 
 15955      6C7300
 15956              	.LASF358:
 15957 0bf6 52657065 		.ascii	"RepeaterSupport\000"
 15957      61746572 
 15957      53757070 
 15957      6F727400 
 15958              	.LASF218:
 15959 0c06 52585F53 		.ascii	"RX_SLOT_WIN_MULTICAST_SLOT\000"
 15959      4C4F545F 
 15959      57494E5F 
 15959      4D554C54 
 15959      49434153 
 15960              	.LASF202:
 15961 0c21 53657452 		.ascii	"SetRxDutyCycle\000"
 15961      78447574 
 15961      79437963 
 15961      6C6500
 15962              	.LASF491:
 15963 0c30 62797465 		.ascii	"bytesProcessed\000"
 15963      7350726F 
 15963      63657373 
ARM GAS  C:\Users\EBANO_~1\AppData\Local\Temp\ccJkfoGk.s 			page 319


 15963      656400
 15964              	.LASF32:
 15965 0c3f 5F5F7763 		.ascii	"__wchb\000"
 15965      686200
 15966              	.LASF126:
 15967 0c46 5F6D6272 		.ascii	"_mbrtowc_state\000"
 15967      746F7763 
 15967      5F737461 
 15967      746500
 15968              	.LASF46:
 15969 0c55 5F5F746D 		.ascii	"__tm_hour\000"
 15969      5F686F75 
 15969      7200
 15970              	.LASF158:
 15971 0c5f 4D4F4445 		.ascii	"MODEM_FSK\000"
 15971      4D5F4653 
 15971      4B00
 15972              	.LASF469:
 15973 0c69 63616C63 		.ascii	"calcBackOff\000"
 15973      4261636B 
 15973      4F666600 
 15974              	.LASF348:
 15975 0c75 4170706C 		.ascii	"ApplyCFListParams_t\000"
 15975      7943464C 
 15975      69737450 
 15975      6172616D 
 15975      735F7400 
 15976              	.LASF260:
 15977 0c89 5048595F 		.ascii	"PHY_MAX_PAYLOAD\000"
 15977      4D41585F 
 15977      5041594C 
 15977      4F414400 
 15978              	.LASF30:
 15979 0c99 77696E74 		.ascii	"wint_t\000"
 15979      5F7400
 15980              	.LASF98:
 15981 0ca0 5F6E6577 		.ascii	"_new\000"
 15981      00
 15982              	.LASF188:
 15983 0ca5 536C6565 		.ascii	"Sleep\000"
 15983      7000
 15984              	.LASF345:
 15985 0cab 73417070 		.ascii	"sApplyCFListParams\000"
 15985      6C794346 
 15985      4C697374 
 15985      50617261 
 15985      6D7300
 15986              	.LASF106:
 15987 0cbe 5F6E696F 		.ascii	"_niobs\000"
 15987      627300
 15988              	.LASF322:
 15989 0cc5 73476574 		.ascii	"sGetPhyParams\000"
 15989      50687950 
 15989      6172616D 
 15989      7300
 15990              	.LASF242:
 15991 0cd3 4C4F5241 		.ascii	"LORAMAC_STATUS_MAC_COMMAD_ERROR\000"
ARM GAS  C:\Users\EBANO_~1\AppData\Local\Temp\ccJkfoGk.s 			page 320


 15991      4D41435F 
 15991      53544154 
 15991      55535F4D 
 15991      41435F43 
 15992              	.LASF160:
 15993 0cf3 52616469 		.ascii	"RadioModems_t\000"
 15993      6F4D6F64 
 15993      656D735F 
 15993      7400
 15994              	.LASF319:
 15995 0d01 4368616E 		.ascii	"Channels\000"
 15995      6E656C73 
 15995      00
 15996              	.LASF331:
 15997 0d0a 53657442 		.ascii	"SetBandTxDoneParams_t\000"
 15997      616E6454 
 15997      78446F6E 
 15997      65506172 
 15997      616D735F 
 15998              	.LASF463:
 15999 0d20 61676772 		.ascii	"aggregatedTimeOff\000"
 15999      65676174 
 15999      65645469 
 15999      6D654F66 
 15999      6600
 16000              	.LASF82:
 16001 0d32 5F657272 		.ascii	"_errno\000"
 16001      6E6F00
 16002              	.LASF287:
 16003 0d39 5048595F 		.ascii	"PHY_PING_SLOT_WINDOW\000"
 16003      50494E47 
 16003      5F534C4F 
 16003      545F5749 
 16003      4E444F57 
 16004              	.LASF413:
 16005 0d4e 43684D61 		.ascii	"ChMask\000"
 16005      736B00
 16006              	.LASF47:
 16007 0d55 5F5F746D 		.ascii	"__tm_mday\000"
 16007      5F6D6461 
 16007      7900
 16008              	.LASF54:
 16009 0d5f 5F666E61 		.ascii	"_fnargs\000"
 16009      72677300 
 16010              	.LASF303:
 16011 0d67 494E4954 		.ascii	"INIT_TYPE_INIT\000"
 16011      5F545950 
 16011      455F494E 
 16011      495400
 16012              	.LASF255:
 16013 0d76 5048595F 		.ascii	"PHY_MAX_TX_POWER\000"
 16013      4D41585F 
 16013      54585F50 
 16013      4F574552 
 16013      00
 16014              	.LASF440:
 16015 0d87 6F757444 		.ascii	"outDr\000"
ARM GAS  C:\Users\EBANO_~1\AppData\Local\Temp\ccJkfoGk.s 			page 321


 16015      7200
 16016              	.LASF281:
 16017 0d8d 5048595F 		.ascii	"PHY_NEXT_LOWER_TX_DR\000"
 16017      4E455854 
 16017      5F4C4F57 
 16017      45525F54 
 16017      585F4452 
 16018              	.LASF541:
 16019 0da2 6D696E44 		.ascii	"minDr\000"
 16019      7200
 16020              	.LASF514:
 16021 0da8 52656769 		.ascii	"RegionEU868ApplyCFList\000"
 16021      6F6E4555 
 16021      38363841 
 16021      70706C79 
 16021      43464C69 
 16022              	.LASF278:
 16023 0dbf 5048595F 		.ascii	"PHY_DEF_DOWNLINK_DWELL_TIME\000"
 16023      4445465F 
 16023      444F574E 
 16023      4C494E4B 
 16023      5F445745 
 16024              	.LASF392:
 16025 0ddb 456C6170 		.ascii	"ElapsedTime\000"
 16025      73656454 
 16025      696D6500 
 16026              	.LASF289:
 16027 0de7 5048595F 		.ascii	"PHY_BEACON_SYMBOL_TO_EXPANSION_MAX\000"
 16027      42454143 
 16027      4F4E5F53 
 16027      594D424F 
 16027      4C5F544F 
 16028              	.LASF38:
 16029 0e0a 5F6E6578 		.ascii	"_next\000"
 16029      7400
 16030              	.LASF171:
 16031 0e10 46687373 		.ascii	"FhssChangeChannel\000"
 16031      4368616E 
 16031      67654368 
 16031      616E6E65 
 16031      6C00
 16032              	.LASF488:
 16033 0e22 6E624279 		.ascii	"nbBytesParsed\000"
 16033      74657350 
 16033      61727365 
 16033      6400
 16034              	.LASF522:
 16035 0e30 70617261 		.ascii	"params\000"
 16035      6D7300
 16036              	.LASF123:
 16037 0e37 5F736967 		.ascii	"_signal_buf\000"
 16037      6E616C5F 
 16037      62756600 
 16038              	.LASF68:
 16039 0e43 5F636F6F 		.ascii	"_cookie\000"
 16039      6B696500 
 16040              	.LASF272:
ARM GAS  C:\Users\EBANO_~1\AppData\Local\Temp\ccJkfoGk.s 			page 322


 16041 0e4b 5048595F 		.ascii	"PHY_DEF_RX2_DR\000"
 16041      4445465F 
 16041      5258325F 
 16041      445200
 16042              	.LASF540:
 16043 0e5a 4765744E 		.ascii	"GetNextLowerTxDr\000"
 16043      6578744C 
 16043      6F776572 
 16043      54784472 
 16043      00
 16044              	.LASF408:
 16045 0e6b 52785469 		.ascii	"RxTime\000"
 16045      6D6500
 16046              	.LASF264:
 16047 0e72 5048595F 		.ascii	"PHY_RECEIVE_DELAY1\000"
 16047      52454345 
 16047      4956455F 
 16047      44454C41 
 16047      593100
 16048              	.LASF265:
 16049 0e85 5048595F 		.ascii	"PHY_RECEIVE_DELAY2\000"
 16049      52454345 
 16049      4956455F 
 16049      44454C41 
 16049      593200
 16050              	.LASF157:
 16051 0e98 5F747A6E 		.ascii	"_tzname\000"
 16051      616D6500 
 16052              	.LASF352:
 16053 0ea0 4368616E 		.ascii	"ChanMaskSetParams_t\000"
 16053      4D61736B 
 16053      53657450 
 16053      6172616D 
 16053      735F7400 
 16054              	.LASF232:
 16055 0eb4 4C4F5241 		.ascii	"LORAMAC_STATUS_REGION_NOT_SUPPORTED\000"
 16055      4D41435F 
 16055      53544154 
 16055      55535F52 
 16055      4547494F 
 16056              	.LASF219:
 16057 0ed8 4C6F5261 		.ascii	"LoRaMacRxSlot_t\000"
 16057      4D616352 
 16057      78536C6F 
 16057      745F7400 
 16058              	.LASF162:
 16059 0ee8 52465F52 		.ascii	"RF_RX_RUNNING\000"
 16059      585F5255 
 16059      4E4E494E 
 16059      4700
 16060              	.LASF245:
 16061 0ef6 4C4F5241 		.ascii	"LORAMAC_STATUS_ERROR\000"
 16061      4D41435F 
 16061      53544154 
 16061      55535F45 
 16061      52524F52 
 16062              	.LASF387:
ARM GAS  C:\Users\EBANO_~1\AppData\Local\Temp\ccJkfoGk.s 			page 323


 16063 0f0b 414C5445 		.ascii	"ALTERNATE_DR_RESTORE\000"
 16063      524E4154 
 16063      455F4452 
 16063      5F524553 
 16063      544F5245 
 16064              	.LASF320:
 16065 0f20 42656163 		.ascii	"BeaconFormat\000"
 16065      6F6E466F 
 16065      726D6174 
 16065      00
 16066              	.LASF461:
 16067 0f2d 6368616E 		.ascii	"channel\000"
 16067      6E656C00 
 16068              	.LASF365:
 16069 0f35 506B744C 		.ascii	"PktLen\000"
 16069      656E00
 16070              	.LASF178:
 16071 0f3c 47657453 		.ascii	"GetStatus\000"
 16071      74617475 
 16071      7300
 16072              	.LASF251:
 16073 0f46 5048595F 		.ascii	"PHY_MAX_TX_DR\000"
 16073      4D41585F 
 16073      54585F44 
 16073      5200
 16074              	.LASF314:
 16075 0f54 52667532 		.ascii	"Rfu2Size\000"
 16075      53697A65 
 16075      00
 16076              	.LASF184:
 16077 0f5d 53657454 		.ascii	"SetTxConfig\000"
 16077      78436F6E 
 16077      66696700 
 16078              	.LASF213:
 16079 0f69 4368616E 		.ascii	"ChannelParams_t\000"
 16079      6E656C50 
 16079      6172616D 
 16079      735F7400 
 16080              	.LASF224:
 16081 0f79 4C4F5241 		.ascii	"LORAMAC_STATUS_BUSY\000"
 16081      4D41435F 
 16081      53544154 
 16081      55535F42 
 16081      55535900 
 16082              	.LASF347:
 16083 0f8d 53697A65 		.ascii	"Size\000"
 16083      00
 16084              	.LASF44:
 16085 0f92 5F5F746D 		.ascii	"__tm_sec\000"
 16085      5F736563 
 16085      00
 16086              	.LASF53:
 16087 0f9b 5F6F6E5F 		.ascii	"_on_exit_args\000"
 16087      65786974 
 16087      5F617267 
 16087      7300
 16088              	.LASF458:
ARM GAS  C:\Users\EBANO_~1\AppData\Local\Temp\ccJkfoGk.s 			page 324


 16089 0fa9 52656769 		.ascii	"RegionEU868ApplyDrOffset\000"
 16089      6F6E4555 
 16089      38363841 
 16089      70706C79 
 16089      44724F66 
 16090              	.LASF237:
 16091 0fc2 4C4F5241 		.ascii	"LORAMAC_STATUS_BUSY_BEACON_RESERVED_TIME\000"
 16091      4D41435F 
 16091      53544154 
 16091      55535F42 
 16091      5553595F 
 16092              	.LASF487:
 16093 0feb 6E625265 		.ascii	"nbRepOut\000"
 16093      704F7574 
 16093      00
 16094              	.LASF259:
 16095 0ff4 5048595F 		.ascii	"PHY_DEF_ADR_ACK_DELAY\000"
 16095      4445465F 
 16095      4144525F 
 16095      41434B5F 
 16095      44454C41 
 16096              	.LASF128:
 16097 100a 5F776372 		.ascii	"_wcrtomb_state\000"
 16097      746F6D62 
 16097      5F737461 
 16097      746500
 16098              	.LASF362:
 16099 1019 73547843 		.ascii	"sTxConfigParams\000"
 16099      6F6E6669 
 16099      67506172 
 16099      616D7300 
 16100              	.LASF165:
 16101 1029 52616469 		.ascii	"RadioState_t\000"
 16101      6F537461 
 16101      74655F74 
 16101      00
 16102              	.LASF564:
 16103 1036 6D656D73 		.ascii	"memset\000"
 16103      657400
 16104              	.LASF554:
 16105 103d 52656769 		.ascii	"RegionCommonLinkAdrReqVerifyParams\000"
 16105      6F6E436F 
 16105      6D6D6F6E 
 16105      4C696E6B 
 16105      41647252 
 16106              	.LASF498:
 16107 1060 7478506F 		.ascii	"txPower\000"
 16107      77657200 
 16108              	.LASF484:
 16109 1068 6C696E6B 		.ascii	"linkAdrReq\000"
 16109      41647252 
 16109      657100
 16110              	.LASF330:
 16111 1073 4A6F696E 		.ascii	"Joined\000"
 16111      656400
 16112              	.LASF15:
 16113 107a 696E7438 		.ascii	"int8_t\000"
ARM GAS  C:\Users\EBANO_~1\AppData\Local\Temp\ccJkfoGk.s 			page 325


 16113      5F7400
 16114              	.LASF236:
 16115 1081 4C4F5241 		.ascii	"LORAMAC_STATUS_NO_FREE_CHANNEL_FOUND\000"
 16115      4D41435F 
 16115      53544154 
 16115      55535F4E 
 16115      4F5F4652 
 16116              	.LASF37:
 16117 10a6 5F5F554C 		.ascii	"__ULong\000"
 16117      6F6E6700 
 16118              	.LASF506:
 16119 10ae 52656769 		.ascii	"RegionEU868ComputeRxWindowParameters\000"
 16119      6F6E4555 
 16119      38363843 
 16119      6F6D7075 
 16119      74655278 
 16120              	.LASF297:
 16121 10d3 5048595F 		.ascii	"PHY_BEACON_CHANNEL_DR\000"
 16121      42454143 
 16121      4F4E5F43 
 16121      48414E4E 
 16121      454C5F44 
 16122              	.LASF353:
 16123 10e9 73527843 		.ascii	"sRxConfigParams\000"
 16123      6F6E6669 
 16123      67506172 
 16123      616D7300 
 16124              	.LASF438:
 16125 10f9 52656769 		.ascii	"RegionEU868NvmCtx_t\000"
 16125      6F6E4555 
 16125      3836384E 
 16125      766D4374 
 16125      785F7400 
 16126              	.LASF144:
 16127 110d 4669656C 		.ascii	"Fields\000"
 16127      647300
 16128              	.LASF286:
 16129 1114 5048595F 		.ascii	"PHY_BEACON_WINDOW_SLOTS\000"
 16129      42454143 
 16129      4F4E5F57 
 16129      494E444F 
 16129      575F534C 
 16130              	.LASF113:
 16131 112c 5F737472 		.ascii	"_strtok_last\000"
 16131      746F6B5F 
 16131      6C617374 
 16131      00
 16132              	.LASF185:
 16133 1139 43686563 		.ascii	"CheckRfFrequency\000"
 16133      6B526646 
 16133      72657175 
 16133      656E6379 
 16133      00
 16134              	.LASF475:
 16135 114a 646C4368 		.ascii	"dlChannelReq\000"
 16135      616E6E65 
 16135      6C526571 
ARM GAS  C:\Users\EBANO_~1\AppData\Local\Temp\ccJkfoGk.s 			page 326


 16135      00
 16136              	.LASF109:
 16137 1157 5F736565 		.ascii	"_seed\000"
 16137      6400
 16138              	.LASF369:
 16139 115d 5061796C 		.ascii	"PayloadSize\000"
 16139      6F616453 
 16139      697A6500 
 16140              	.LASF71:
 16141 1169 5F736565 		.ascii	"_seek\000"
 16141      6B00
 16142              	.LASF210:
 16143 116f 52783146 		.ascii	"Rx1Frequency\000"
 16143      72657175 
 16143      656E6379 
 16143      00
 16144              	.LASF17:
 16145 117c 696E7431 		.ascii	"int16_t\000"
 16145      365F7400 
 16146              	.LASF299:
 16147 1184 5048595F 		.ascii	"PHY_BEACON_NB_CHANNELS\000"
 16147      42454143 
 16147      4F4E5F4E 
 16147      425F4348 
 16147      414E4E45 
 16148              	.LASF7:
 16149 119b 73686F72 		.ascii	"short unsigned int\000"
 16149      7420756E 
 16149      7369676E 
 16149      65642069 
 16149      6E7400
 16150              	.LASF2:
 16151 11ae 7369676E 		.ascii	"signed char\000"
 16151      65642063 
 16151      68617200 
 16152              	.LASF381:
 16153 11ba 73547850 		.ascii	"sTxParamSetupReqParams\000"
 16153      6172616D 
 16153      53657475 
 16153      70526571 
 16153      50617261 
 16154              	.LASF338:
 16155 11d1 4765744E 		.ascii	"GetNvmCtxParams_t\000"
 16155      766D4374 
 16155      78506172 
 16155      616D735F 
 16155      7400
 16156              	.LASF476:
 16157 11e3 73746174 		.ascii	"status\000"
 16157      757300
 16158              	.LASF384:
 16159 11ea 446C4368 		.ascii	"DlChannelReqParams_t\000"
 16159      616E6E65 
 16159      6C526571 
 16159      50617261 
 16159      6D735F74 
 16160              	.LASF535:
ARM GAS  C:\Users\EBANO_~1\AppData\Local\Temp\ccJkfoGk.s 			page 327


 16161 11ff 4C696D69 		.ascii	"LimitTxPower\000"
 16161      74547850 
 16161      6F776572 
 16161      00
 16162              	.LASF400:
 16163 120c 4368616E 		.ascii	"ChannelAddParams_t\000"
 16163      6E656C41 
 16163      64645061 
 16163      72616D73 
 16163      5F7400
 16164              	.LASF175:
 16165 121f 496F496E 		.ascii	"IoInit\000"
 16165      697400
 16166              	.LASF95:
 16167 1226 5F667265 		.ascii	"_freelist\000"
 16167      656C6973 
 16167      7400
 16168              	.LASF429:
 16169 1230 42656163 		.ascii	"BeaconChannelBW\000"
 16169      6F6E4368 
 16169      616E6E65 
 16169      6C425700 
 16170              	.LASF76:
 16171 1240 5F6F6666 		.ascii	"_offset\000"
 16171      73657400 
 16172              	.LASF21:
 16173 1248 53797374 		.ascii	"SystemCoreClock\000"
 16173      656D436F 
 16173      7265436C 
 16173      6F636B00 
 16174              	.LASF326:
 16175 1258 446F776E 		.ascii	"DownlinkDwellTime\000"
 16175      6C696E6B 
 16175      4477656C 
 16175      6C54696D 
 16175      6500
 16176              	.LASF186:
 16177 126a 54696D65 		.ascii	"TimeOnAir\000"
 16177      4F6E4169 
 16177      7200
 16178              	.LASF61:
 16179 1274 5F5F7362 		.ascii	"__sbuf\000"
 16179      756600
 16180              	.LASF122:
 16181 127b 5F6C3634 		.ascii	"_l64a_buf\000"
 16181      615F6275 
 16181      6600
 16182              	.LASF459:
 16183 1285 52656769 		.ascii	"RegionEU868NextChannel\000"
 16183      6F6E4555 
 16183      3836384E 
 16183      65787443 
 16183      68616E6E 
 16184              	.LASF321:
 16185 129c 50687950 		.ascii	"PhyParam_t\000"
 16185      6172616D 
 16185      5F7400
ARM GAS  C:\Users\EBANO_~1\AppData\Local\Temp\ccJkfoGk.s 			page 328


 16186              	.LASF328:
 16187 12a7 73536574 		.ascii	"sSetBandTxDoneParams\000"
 16187      42616E64 
 16187      5478446F 
 16187      6E655061 
 16187      72616D73 
 16188              	.LASF364:
 16189 12bc 416E7465 		.ascii	"AntennaGain\000"
 16189      6E6E6147 
 16189      61696E00 
 16190              	.LASF262:
 16191 12c8 5048595F 		.ascii	"PHY_DUTY_CYCLE\000"
 16191      44555459 
 16191      5F435943 
 16191      4C4500
 16192              	.LASF114:
 16193 12d7 5F617363 		.ascii	"_asctime_buf\000"
 16193      74696D65 
 16193      5F627566 
 16193      00
 16194              	.LASF499:
 16195 12e4 74785469 		.ascii	"txTimeOnAir\000"
 16195      6D654F6E 
 16195      41697200 
 16196              	.LASF31:
 16197 12f0 5F5F7763 		.ascii	"__wch\000"
 16197      6800
 16198              	.LASF454:
 16199 12f6 6368616E 		.ascii	"channelAdd\000"
 16199      6E656C41 
 16199      646400
 16200              	.LASF129:
 16201 1301 5F776373 		.ascii	"_wcsrtombs_state\000"
 16201      72746F6D 
 16201      62735F73 
 16201      74617465 
 16201      00
 16202              	.LASF391:
 16203 1312 44757479 		.ascii	"DutyCycleEnabled\000"
 16203      4379636C 
 16203      65456E61 
 16203      626C6564 
 16203      00
 16204              	.LASF472:
 16205 1323 63757272 		.ascii	"currentDr\000"
 16205      656E7444 
 16205      7200
 16206              	.LASF560:
 16207 132d 52656769 		.ascii	"RegionCommonSetBandTxDone\000"
 16207      6F6E436F 
 16207      6D6D6F6E 
 16207      53657442 
 16207      616E6454 
 16208              	.LASF450:
 16209 1347 7478506F 		.ascii	"txPowerLimited\000"
 16209      7765724C 
 16209      696D6974 
ARM GAS  C:\Users\EBANO_~1\AppData\Local\Temp\ccJkfoGk.s 			page 329


 16209      656400
 16210              	.LASF547:
 16211 1356 54696D65 		.ascii	"TimerGetElapsedTime\000"
 16211      72476574 
 16211      456C6170 
 16211      73656454 
 16211      696D6500 
 16212              	.LASF505:
 16213 136a 6D617850 		.ascii	"maxPayload\000"
 16213      61796C6F 
 16213      616400
 16214              	.LASF468:
 16215 1375 52656769 		.ascii	"RegionEU868CalcBackOff\000"
 16215      6F6E4555 
 16215      38363843 
 16215      616C6342 
 16215      61636B4F 
 16216              	.LASF529:
 16217 138c 6368616E 		.ascii	"channelsMask\000"
 16217      6E656C73 
 16217      4D61736B 
 16217      00
 16218              	.LASF9:
 16219 1399 6C6F6E67 		.ascii	"long int\000"
 16219      20696E74 
 16219      00
 16220              	.LASF121:
 16221 13a2 5F776374 		.ascii	"_wctomb_state\000"
 16221      6F6D625F 
 16221      73746174 
 16221      6500
 16222              	.LASF422:
 16223 13b0 52656769 		.ascii	"RegionCommonLinkAdrReqVerifyParams_t\000"
 16223      6F6E436F 
 16223      6D6D6F6E 
 16223      4C696E6B 
 16223      41647252 
 16224              	.LASF372:
 16225 13d5 43757272 		.ascii	"CurrentTxPower\000"
 16225      656E7454 
 16225      78506F77 
 16225      657200
 16226              	.LASF424:
 16227 13e4 42616E64 		.ascii	"Bands\000"
 16227      7300
 16228              	.LASF308:
 16229 13ea 4348414E 		.ascii	"CHANNELS_MASK\000"
 16229      4E454C53 
 16229      5F4D4153 
 16229      4B00
 16230              	.LASF533:
 16231 13f8 56657269 		.ascii	"VerifyRfFreq\000"
 16231      66795266 
 16231      46726571 
 16231      00
 16232              	.LASF107:
 16233 1405 5F696F62 		.ascii	"_iobs\000"
ARM GAS  C:\Users\EBANO_~1\AppData\Local\Temp\ccJkfoGk.s 			page 330


 16233      7300
 16234              	.LASF87:
 16235 140b 5F656D65 		.ascii	"_emergency\000"
 16235      7267656E 
 16235      637900
 16236              	.LASF446:
 16237 1416 52656769 		.ascii	"RegionEU868SetContinuousWave\000"
 16237      6F6E4555 
 16237      38363853 
 16237      6574436F 
 16237      6E74696E 
 16238              	.LASF507:
 16239 1433 6D696E52 		.ascii	"minRxSymbols\000"
 16239      7853796D 
 16239      626F6C73 
 16239      00
 16240              	.LASF131:
 16241 1440 5F6E6578 		.ascii	"_nextf\000"
 16241      746600
 16242              	.LASF117:
 16243 1447 5F72616E 		.ascii	"_rand_next\000"
 16243      645F6E65 
 16243      787400
 16244              	.LASF520:
 16245 1452 70687941 		.ascii	"phyAttribute\000"
 16245      74747269 
 16245      62757465 
 16245      00
 16246              	.LASF20:
 16247 145f 75696E74 		.ascii	"uint32_t\000"
 16247      33325F74 
 16247      00
 16248              	.LASF416:
 16249 1468 53746174 		.ascii	"Status\000"
 16249      757300
 16250              	.LASF558:
 16251 146f 52656769 		.ascii	"RegionCommonComputeSymbolTimeFsk\000"
 16251      6F6E436F 
 16251      6D6D6F6E 
 16251      436F6D70 
 16251      75746553 
 16252              	.LASF405:
 16253 1490 436F6E74 		.ascii	"ContinuousWaveParams_t\000"
 16253      696E756F 
 16253      75735761 
 16253      76655061 
 16253      72616D73 
 16254              	.LASF39:
 16255 14a7 5F6D6178 		.ascii	"_maxwds\000"
 16255      77647300 
 16256              	.LASF524:
 16257 14af 62616E64 		.ascii	"bands\000"
 16257      7300
 16258              	.LASF191:
 16259 14b5 53657454 		.ascii	"SetTxContinuousWave\000"
 16259      78436F6E 
 16259      74696E75 
ARM GAS  C:\Users\EBANO_~1\AppData\Local\Temp\ccJkfoGk.s 			page 331


 16259      6F757357 
 16259      61766500 
 16260              	.LASF26:
 16261 14c9 6C6F6E67 		.ascii	"long double\000"
 16261      20646F75 
 16261      626C6500 
 16262              	.LASF138:
 16263 14d5 7375626F 		.ascii	"suboptarg\000"
 16263      70746172 
 16263      6700
 16264              	.LASF562:
 16265 14df 2E2E2F2E 		.ascii	"../../../../../../Middlewares/Third_Party/LoRaWAN/M"
 16265      2E2F2E2E 
 16265      2F2E2E2F 
 16265      2E2E2F2E 
 16265      2E2F4D69 
 16266 1512 61632F72 		.ascii	"ac/region/RegionEU868.c\000"
 16266      6567696F 
 16266      6E2F5265 
 16266      67696F6E 
 16266      45553836 
 16267              	.LASF275:
 16268 152a 5048595F 		.ascii	"PHY_MAX_NB_CHANNELS\000"
 16268      4D41585F 
 16268      4E425F43 
 16268      48414E4E 
 16268      454C5300 
 16269              	.LASF382:
 16270 153e 54785061 		.ascii	"TxParamSetupReqParams_t\000"
 16270      72616D53 
 16270      65747570 
 16270      52657150 
 16270      6172616D 
 16271              	.LASF11:
 16272 1556 6C6F6E67 		.ascii	"long unsigned int\000"
 16272      20756E73 
 16272      69676E65 
 16272      6420696E 
 16272      7400
 16273              	.LASF437:
 16274 1568 4368616E 		.ascii	"ChannelsDefaultMask\000"
 16274      6E656C73 
 16274      44656661 
 16274      756C744D 
 16274      61736B00 
 16275              	.LASF556:
 16276 157c 52656769 		.ascii	"RegionCommonComputeSymbolTimeLoRa\000"
 16276      6F6E436F 
 16276      6D6D6F6E 
 16276      436F6D70 
 16276      75746553 
 16277              	.LASF307:
 16278 159e 65436861 		.ascii	"eChannelsMask\000"
 16278      6E6E656C 
 16278      734D6173 
 16278      6B00
 16279              	.LASF181:
ARM GAS  C:\Users\EBANO_~1\AppData\Local\Temp\ccJkfoGk.s 			page 332


 16280 15ac 49734368 		.ascii	"IsChannelFree\000"
 16280      616E6E65 
 16280      6C467265 
 16280      6500
 16281              	.LASF72:
 16282 15ba 5F636C6F 		.ascii	"_close\000"
 16282      736500
 16283              	.LASF198:
 16284 15c1 53657450 		.ascii	"SetPublicNetwork\000"
 16284      75626C69 
 16284      634E6574 
 16284      776F726B 
 16284      00
 16285              	.LASF103:
 16286 15d2 63686172 		.ascii	"char\000"
 16286      00
 16287              	.LASF280:
 16288 15d7 5048595F 		.ascii	"PHY_DEF_ANTENNA_GAIN\000"
 16288      4445465F 
 16288      414E5445 
 16288      4E4E415F 
 16288      4741494E 
 16289              	.LASF164:
 16290 15ec 52465F43 		.ascii	"RF_CAD\000"
 16290      414400
 16291              	.LASF105:
 16292 15f3 5F676C75 		.ascii	"_glue\000"
 16292      6500
 16293              	.LASF464:
 16294 15f9 6E62456E 		.ascii	"nbEnabledChannels\000"
 16294      61626C65 
 16294      64436861 
 16294      6E6E656C 
 16294      7300
 16295              	.LASF394:
 16296 160b 43616C63 		.ascii	"CalcBackOffParams_t\000"
 16296      4261636B 
 16296      4F666650 
 16296      6172616D 
 16296      735F7400 
 16297              	.LASF23:
 16298 161f 41504250 		.ascii	"APBPrescTable\000"
 16298      72657363 
 16298      5461626C 
 16298      6500
 16299              	.LASF200:
 16300 162d 49727150 		.ascii	"IrqProcess\000"
 16300      726F6365 
 16300      737300
 16301              	.LASF544:
 16302 1638 52656769 		.ascii	"RegionCommonComputeTxPower\000"
 16302      6F6E436F 
 16302      6D6D6F6E 
 16302      436F6D70 
 16302      75746554 
 16303              	.LASF512:
 16304 1653 52656769 		.ascii	"RegionEU868ChanMaskSet\000"
ARM GAS  C:\Users\EBANO_~1\AppData\Local\Temp\ccJkfoGk.s 			page 333


 16304      6F6E4555 
 16304      38363843 
 16304      68616E4D 
 16304      61736B53 
 16305              	.LASF545:
 16306 166a 52656769 		.ascii	"RegionCommonValueInRange\000"
 16306      6F6E436F 
 16306      6D6D6F6E 
 16306      56616C75 
 16306      65496E52 
 16307              	.LASF253:
 16308 1683 5048595F 		.ascii	"PHY_DEF_TX_DR\000"
 16308      4445465F 
 16308      54585F44 
 16308      5200
 16309              	.LASF227:
 16310 1691 4C4F5241 		.ascii	"LORAMAC_STATUS_FREQUENCY_INVALID\000"
 16310      4D41435F 
 16310      53544154 
 16310      55535F46 
 16310      52455155 
 16311              	.LASF467:
 16312 16b2 6E657874 		.ascii	"nextTxDelay\000"
 16312      54784465 
 16312      6C617900 
 16313              	.LASF528:
 16314 16be 6A6F696E 		.ascii	"joined\000"
 16314      656400
 16315              	.LASF42:
 16316 16c5 5F426967 		.ascii	"_Bigint\000"
 16316      696E7400 
 16317              	.LASF386:
 16318 16cd 414C5445 		.ascii	"ALTERNATE_DR\000"
 16318      524E4154 
 16318      455F4452 
 16318      00
 16319              	.LASF538:
 16320 16da 47657442 		.ascii	"GetBandwidth\000"
 16320      616E6477 
 16320      69647468 
 16320      00
 16321              	.LASF256:
 16322 16e7 5048595F 		.ascii	"PHY_TX_POWER\000"
 16322      54585F50 
 16322      4F574552 
 16322      00
 16323              	.LASF445:
 16324 16f4 52656769 		.ascii	"RegionEU868RxBeaconSetup\000"
 16324      6F6E4555 
 16324      38363852 
 16324      78426561 
 16324      636F6E53 
 16325              	.LASF180:
 16326 170d 53657443 		.ascii	"SetChannel\000"
 16326      68616E6E 
 16326      656C00
 16327              	.LASF316:
ARM GAS  C:\Users\EBANO_~1\AppData\Local\Temp\ccJkfoGk.s 			page 334


 16328 1718 75506879 		.ascii	"uPhyParam\000"
 16328      50617261 
 16328      6D00
 16329              	.LASF486:
 16330 1722 7478506F 		.ascii	"txPowOut\000"
 16330      774F7574 
 16330      00
 16331              	.LASF99:
 16332 172b 5F617465 		.ascii	"_atexit0\000"
 16332      78697430 
 16332      00
 16333              	.LASF350:
 16334 1734 4368616E 		.ascii	"ChannelsMaskIn\000"
 16334      6E656C73 
 16334      4D61736B 
 16334      496E00
 16335              	.LASF223:
 16336 1743 4C4F5241 		.ascii	"LORAMAC_STATUS_OK\000"
 16336      4D41435F 
 16336      53544154 
 16336      55535F4F 
 16336      4B00
 16337              	.LASF257:
 16338 1755 5048595F 		.ascii	"PHY_DEF_TX_POWER\000"
 16338      4445465F 
 16338      54585F50 
 16338      4F574552 
 16338      00
 16339              	.LASF124:
 16340 1766 5F676574 		.ascii	"_getdate_err\000"
 16340      64617465 
 16340      5F657272 
 16340      00
 16341              	.LASF555:
 16342 1773 6D656D73 		.ascii	"memset1\000"
 16342      65743100 
 16343              	.LASF295:
 16344 177b 5048595F 		.ascii	"PHY_BEACON_CHANNEL_FREQ\000"
 16344      42454143 
 16344      4F4E5F43 
 16344      48414E4E 
 16344      454C5F46 
 16345              	.LASF282:
 16346 1793 5048595F 		.ascii	"PHY_BEACON_INTERVAL\000"
 16346      42454143 
 16346      4F4E5F49 
 16346      4E544552 
 16346      56414C00 
 16347              	.LASF471:
 16348 17a7 52656769 		.ascii	"RegionEU868AlternateDr\000"
 16348      6F6E4555 
 16348      38363841 
 16348      6C746572 
 16348      6E617465 
 16349              	.LASF277:
 16350 17be 5048595F 		.ascii	"PHY_DEF_UPLINK_DWELL_TIME\000"
 16350      4445465F 
ARM GAS  C:\Users\EBANO_~1\AppData\Local\Temp\ccJkfoGk.s 			page 335


 16350      55504C49 
 16350      4E4B5F44 
 16350      57454C4C 
 16351              	.LASF309:
 16352 17d8 4348414E 		.ascii	"CHANNELS_DEFAULT_MASK\000"
 16352      4E454C53 
 16352      5F444546 
 16352      41554C54 
 16352      5F4D4153 
 16353              	.LASF455:
 16354 17ee 62616E64 		.ascii	"band\000"
 16354      00
 16355              	.LASF268:
 16356 17f3 5048595F 		.ascii	"PHY_MAX_FCNT_GAP\000"
 16356      4D41585F 
 16356      46434E54 
 16356      5F474150 
 16356      00
 16357              	.LASF332:
 16358 1804 73496E69 		.ascii	"sInitDefaultsParams\000"
 16358      74446566 
 16358      61756C74 
 16358      73506172 
 16358      616D7300 
 16359              	.LASF423:
 16360 1818 73526567 		.ascii	"sRegionCommonCalcBackOffParams\000"
 16360      696F6E43 
 16360      6F6D6D6F 
 16360      6E43616C 
 16360      63426163 
 16361              	.LASF136:
 16362 1837 5F696D70 		.ascii	"_impure_ptr\000"
 16362      7572655F 
 16362      70747200 
 16363              	.LASF75:
 16364 1843 5F626C6B 		.ascii	"_blksize\000"
 16364      73697A65 
 16364      00
 16365              	.LASF460:
 16366 184c 6E657874 		.ascii	"nextChanParams\000"
 16366      4368616E 
 16366      50617261 
 16366      6D7300
 16367              	.LASF73:
 16368 185b 5F756275 		.ascii	"_ubuf\000"
 16368      6600
 16369              	.LASF493:
 16370 1861 67657450 		.ascii	"getPhy\000"
 16370      687900
 16371              	.LASF279:
 16372 1868 5048595F 		.ascii	"PHY_DEF_MAX_EIRP\000"
 16372      4445465F 
 16372      4D41585F 
 16372      45495250 
 16372      00
 16373              	.LASF523:
 16374 1879 52656769 		.ascii	"RegionEU868InitDefaults\000"
ARM GAS  C:\Users\EBANO_~1\AppData\Local\Temp\ccJkfoGk.s 			page 336


 16374      6F6E4555 
 16374      38363849 
 16374      6E697444 
 16374      65666175 
 16375              	.LASF119:
 16376 1891 5F6D626C 		.ascii	"_mblen_state\000"
 16376      656E5F73 
 16376      74617465 
 16376      00
 16377              	.LASF101:
 16378 189e 5F5F7367 		.ascii	"__sglue\000"
 16378      6C756500 
 16379              	.LASF135:
 16380 18a6 5F5F6C6F 		.ascii	"__locale_t\000"
 16380      63616C65 
 16380      5F7400
 16381              	.LASF485:
 16382 18b1 64724F75 		.ascii	"drOut\000"
 16382      7400
 16383              	.LASF91:
 16384 18b7 5F5F636C 		.ascii	"__cleanup\000"
 16384      65616E75 
 16384      7000
 16385              	.LASF508:
 16386 18c1 72784572 		.ascii	"rxError\000"
 16386      726F7200 
 16387              	.LASF214:
 16388 18c9 52585F53 		.ascii	"RX_SLOT_WIN_1\000"
 16388      4C4F545F 
 16388      57494E5F 
 16388      3100
 16389              	.LASF215:
 16390 18d7 52585F53 		.ascii	"RX_SLOT_WIN_2\000"
 16390      4C4F545F 
 16390      57494E5F 
 16390      3200
 16391              	.LASF302:
 16392 18e5 65496E69 		.ascii	"eInitType\000"
 16392      74547970 
 16392      6500
 16393              	.LASF24:
 16394 18ef 504C4C4D 		.ascii	"PLLMulTable\000"
 16394      756C5461 
 16394      626C6500 
 16395              	.LASF550:
 16396 18fb 52656769 		.ascii	"RegionCommonCalcBackOff\000"
 16396      6F6E436F 
 16396      6D6D6F6E 
 16396      43616C63 
 16396      4261636B 
 16397              	.LASF29:
 16398 1913 5F66706F 		.ascii	"_fpos_t\000"
 16398      735F7400 
 16399              	.LASF516:
 16400 191b 6E657743 		.ascii	"newChannel\000"
 16400      68616E6E 
 16400      656C00
ARM GAS  C:\Users\EBANO_~1\AppData\Local\Temp\ccJkfoGk.s 			page 337


 16401              	.LASF329:
 16402 1926 4368616E 		.ascii	"Channel\000"
 16402      6E656C00 
 16403              	.LASF66:
 16404 192e 5F66696C 		.ascii	"_file\000"
 16404      6500
 16405              	.LASF208:
 16406 1934 73436861 		.ascii	"sChannelParams\000"
 16406      6E6E656C 
 16406      50617261 
 16406      6D7300
 16407              	.LASF64:
 16408 1943 5F5F7346 		.ascii	"__sFILE\000"
 16408      494C4500 
 16409              	.LASF502:
 16410 194b 62616E64 		.ascii	"bandwidth\000"
 16410      77696474 
 16410      6800
 16411              	.LASF511:
 16412 1955 646F7562 		.ascii	"double\000"
 16412      6C6500
 16413              	.LASF60:
 16414 195c 5F666E73 		.ascii	"_fns\000"
 16414      00
 16415              	.LASF432:
 16416 1961 44617461 		.ascii	"DataratesEU868\000"
 16416      72617465 
 16416      73455538 
 16416      363800
 16417              	.LASF351:
 16418 1970 4368616E 		.ascii	"ChannelsMaskType\000"
 16418      6E656C73 
 16418      4D61736B 
 16418      54797065 
 16418      00
 16419              	.LASF35:
 16420 1981 5F6D6273 		.ascii	"_mbstate_t\000"
 16420      74617465 
 16420      5F7400
 16421              	.LASF130:
 16422 198c 5F685F65 		.ascii	"_h_errno\000"
 16422      72726E6F 
 16422      00
 16423              	.LASF315:
 16424 1995 42656163 		.ascii	"BeaconFormat_t\000"
 16424      6F6E466F 
 16424      726D6174 
 16424      5F7400
 16425              	.LASF8:
 16426 19a4 5F5F696E 		.ascii	"__int32_t\000"
 16426      7433325F 
 16426      7400
 16427              	.LASF504:
 16428 19ae 7278436F 		.ascii	"rxConfig\000"
 16428      6E666967 
 16428      00
 16429              	.LASF10:
ARM GAS  C:\Users\EBANO_~1\AppData\Local\Temp\ccJkfoGk.s 			page 338


 16430 19b7 5F5F7569 		.ascii	"__uint32_t\000"
 16430      6E743332 
 16430      5F7400
 16431              	.LASF269:
 16432 19c2 5048595F 		.ascii	"PHY_ACK_TIMEOUT\000"
 16432      41434B5F 
 16432      54494D45 
 16432      4F555400 
 16433              	.LASF325:
 16434 19d2 55706C69 		.ascii	"UplinkDwellTime\000"
 16434      6E6B4477 
 16434      656C6C54 
 16434      696D6500 
 16435              	.LASF510:
 16436 19e2 7453796D 		.ascii	"tSymbol\000"
 16436      626F6C00 
 16437              	.LASF34:
 16438 19ea 5F5F7661 		.ascii	"__value\000"
 16438      6C756500 
 16439              	.LASF466:
 16440 19f2 656E6162 		.ascii	"enabledChannels\000"
 16440      6C656443 
 16440      68616E6E 
 16440      656C7300 
 16441              	.LASF57:
 16442 1a02 5F69735F 		.ascii	"_is_cxa\000"
 16442      63786100 
 16443              	.LASF235:
 16444 1a0a 4C4F5241 		.ascii	"LORAMAC_STATUS_NO_CHANNEL_FOUND\000"
 16444      4D41435F 
 16444      53544154 
 16444      55535F4E 
 16444      4F5F4348 
 16445              	.LASF442:
 16446 1a2a 646F776E 		.ascii	"downlinkDwellTime\000"
 16446      6C696E6B 
 16446      4477656C 
 16446      6C54696D 
 16446      6500
 16447              	.LASF94:
 16448 1a3c 5F703573 		.ascii	"_p5s\000"
 16448      00
 16449              	.LASF341:
 16450 1a41 5478506F 		.ascii	"TxPower\000"
 16450      77657200 
 16451              	.LASF163:
 16452 1a49 52465F54 		.ascii	"RF_TX_RUNNING\000"
 16452      585F5255 
 16452      4E4E494E 
 16452      4700
 16453              	.LASF261:
 16454 1a57 5048595F 		.ascii	"PHY_MAX_PAYLOAD_REPEATER\000"
 16454      4D41585F 
 16454      5041594C 
 16454      4F41445F 
 16454      52455045 
 16455              	.LASF294:
ARM GAS  C:\Users\EBANO_~1\AppData\Local\Temp\ccJkfoGk.s 			page 339


 16456 1a70 5048595F 		.ascii	"PHY_BEACON_DELAY_BEACON_TIMING_ANS\000"
 16456      42454143 
 16456      4F4E5F44 
 16456      454C4159 
 16456      5F424541 
 16457              	.LASF354:
 16458 1a93 42616E64 		.ascii	"Bandwidth\000"
 16458      77696474 
 16458      6800
 16459              	.LASF342:
 16460 1a9d 44757479 		.ascii	"DutyCycle\000"
 16460      4379636C 
 16460      6500
 16461              	.LASF317:
 16462 1aa7 6656616C 		.ascii	"fValue\000"
 16462      756500
 16463              	.LASF139:
 16464 1aae 54696D65 		.ascii	"TimerTime_t\000"
 16464      7254696D 
 16464      655F7400 
 16465              	.LASF410:
 16466 1aba 73526567 		.ascii	"sRegionCommonLinkAdrParams\000"
 16466      696F6E43 
 16466      6F6D6D6F 
 16466      6E4C696E 
 16466      6B416472 
 16467              	.LASF433:
 16468 1ad5 42616E64 		.ascii	"BandwidthsEU868\000"
 16468      77696474 
 16468      68734555 
 16468      38363800 
 16469              	.LASF359:
 16470 1ae5 5278436F 		.ascii	"RxContinuous\000"
 16470      6E74696E 
 16470      756F7573 
 16470      00
 16471              	.LASF305:
 16472 1af2 494E4954 		.ascii	"INIT_TYPE_RESTORE_CTX\000"
 16472      5F545950 
 16472      455F5245 
 16472      53544F52 
 16472      455F4354 
 16473              	.LASF425:
 16474 1b08 52656769 		.ascii	"RegionCommonCalcBackOffParams_t\000"
 16474      6F6E436F 
 16474      6D6D6F6E 
 16474      43616C63 
 16474      4261636B 
 16475              	.LASF252:
 16476 1b28 5048595F 		.ascii	"PHY_TX_DR\000"
 16476      54585F44 
 16476      5200
 16477              	.LASF497:
 16478 1b32 7478436F 		.ascii	"txConfig\000"
 16478      6E666967 
 16478      00
 16479              	.LASF388:
ARM GAS  C:\Users\EBANO_~1\AppData\Local\Temp\ccJkfoGk.s 			page 340


 16480 1b3b 416C7465 		.ascii	"AlternateDrType_t\000"
 16480      726E6174 
 16480      65447254 
 16480      7970655F 
 16480      7400
 16481              	.LASF155:
 16482 1b4d 5F74696D 		.ascii	"_timezone\000"
 16482      657A6F6E 
 16482      6500
 16483              	.LASF250:
 16484 1b57 5048595F 		.ascii	"PHY_MAX_RX_DR\000"
 16484      4D41585F 
 16484      52585F44 
 16484      5200
 16485              	.LASF192:
 16486 1b65 52737369 		.ascii	"Rssi\000"
 16486      00
 16487              	.LASF159:
 16488 1b6a 4D4F4445 		.ascii	"MODEM_LORA\000"
 16488      4D5F4C4F 
 16488      524100
 16489              	.LASF13:
 16490 1b75 6C6F6E67 		.ascii	"long long unsigned int\000"
 16490      206C6F6E 
 16490      6720756E 
 16490      7369676E 
 16490      65642069 
 16491              	.LASF543:
 16492 1b8c 52656769 		.ascii	"RegionCommonRxBeaconSetup\000"
 16492      6F6E436F 
 16492      6D6D6F6E 
 16492      52784265 
 16492      61636F6E 
 16493              	.LASF495:
 16494 1ba6 6C696E6B 		.ascii	"linkAdrVerifyParams\000"
 16494      41647256 
 16494      65726966 
 16494      79506172 
 16494      616D7300 
 16495              	.LASF116:
 16496 1bba 5F67616D 		.ascii	"_gamma_signgam\000"
 16496      6D615F73 
 16496      69676E67 
 16496      616D00
 16497              	.LASF151:
 16498 1bc9 4C617374 		.ascii	"LastJoinTxDoneTime\000"
 16498      4A6F696E 
 16498      5478446F 
 16498      6E655469 
 16498      6D6500
 16499              	.LASF177:
 16500 1bdc 496E6974 		.ascii	"Init\000"
 16500      00
 16501              	.LASF439:
 16502 1be1 72784265 		.ascii	"rxBeaconSetup\000"
 16502      61636F6E 
 16502      53657475 
ARM GAS  C:\Users\EBANO_~1\AppData\Local\Temp\ccJkfoGk.s 			page 341


 16502      7000
 16503              	.LASF401:
 16504 1bef 73436861 		.ascii	"sChannelRemoveParams\000"
 16504      6E6E656C 
 16504      52656D6F 
 16504      76655061 
 16504      72616D73 
 16505              	.LASF403:
 16506 1c04 73436F6E 		.ascii	"sContinuousWaveParams\000"
 16506      74696E75 
 16506      6F757357 
 16506      61766550 
 16506      6172616D 
 16507              	.LASF244:
 16508 1c1a 4C4F5241 		.ascii	"LORAMAC_STATUS_CONFIRM_QUEUE_ERROR\000"
 16508      4D41435F 
 16508      53544154 
 16508      55535F43 
 16508      4F4E4649 
 16509              	.LASF273:
 16510 1c3d 5048595F 		.ascii	"PHY_CHANNELS_MASK\000"
 16510      4348414E 
 16510      4E454C53 
 16510      5F4D4153 
 16510      4B00
 16511              	.LASF143:
 16512 1c4f 4D616A6F 		.ascii	"Major\000"
 16512      7200
 16513              	.LASF209:
 16514 1c55 46726571 		.ascii	"Frequency\000"
 16514      75656E63 
 16514      7900
 16515              	.LASF531:
 16516 1c5f 64656C61 		.ascii	"delayTransmission\000"
 16516      79547261 
 16516      6E736D69 
 16516      7373696F 
 16516      6E00
 16517              	.LASF137:
 16518 1c71 5F676C6F 		.ascii	"_global_impure_ptr\000"
 16518      62616C5F 
 16518      696D7075 
 16518      72655F70 
 16518      747200
 16519              	.LASF407:
 16520 1c84 53796D62 		.ascii	"SymbolTimeout\000"
 16520      6F6C5469 
 16520      6D656F75 
 16520      7400
 16521              	.LASF88:
 16522 1c92 5F756E73 		.ascii	"_unspecified_locale_info\000"
 16522      70656369 
 16522      66696564 
 16522      5F6C6F63 
 16522      616C655F 
 16523              	.LASF378:
 16524 1cab 4E657743 		.ascii	"NewChannel\000"
ARM GAS  C:\Users\EBANO_~1\AppData\Local\Temp\ccJkfoGk.s 			page 342


 16524      68616E6E 
 16524      656C00
 16525              	.LASF530:
 16526 1cb6 6368616E 		.ascii	"channels\000"
 16526      6E656C73 
 16526      00
 16527              	.LASF304:
 16528 1cbf 494E4954 		.ascii	"INIT_TYPE_RESTORE_DEFAULT_CHANNELS\000"
 16528      5F545950 
 16528      455F5245 
 16528      53544F52 
 16528      455F4445 
 16529              	.LASF90:
 16530 1ce2 5F5F7364 		.ascii	"__sdidinit\000"
 16530      6964696E 
 16530      697400
 16531              	.LASF478:
 16532 1ced 74785061 		.ascii	"txParamSetupReq\000"
 16532      72616D53 
 16532      65747570 
 16532      52657100 
 16533              	.LASF318:
 16534 1cfd 4368616E 		.ascii	"ChannelsMask\000"
 16534      6E656C73 
 16534      4D61736B 
 16534      00
 16535              	.LASF187:
 16536 1d0a 53656E64 		.ascii	"Send\000"
 16536      00
 16537              	.LASF300:
 16538 1d0f 5048595F 		.ascii	"PHY_PING_SLOT_CHANNEL_DR\000"
 16538      50494E47 
 16538      5F534C4F 
 16538      545F4348 
 16538      414E4E45 
 16539              	.LASF324:
 16540 1d28 44617461 		.ascii	"Datarate\000"
 16540      72617465 
 16540      00
 16541              	.LASF36:
 16542 1d31 5F666C6F 		.ascii	"_flock_t\000"
 16542      636B5F74 
 16542      00
 16543              	.LASF542:
 16544 1d3a 6E657874 		.ascii	"nextLowerDr\000"
 16544      4C6F7765 
 16544      72447200 
 16545              	.LASF239:
 16546 1d46 4C4F5241 		.ascii	"LORAMAC_STATUS_BUSY_UPLINK_COLLISION\000"
 16546      4D41435F 
 16546      53544154 
 16546      55535F42 
 16546      5553595F 
 16547              	.LASF546:
 16548 1d6b 52656769 		.ascii	"RegionCommonCountChannels\000"
 16548      6F6E436F 
 16548      6D6D6F6E 
ARM GAS  C:\Users\EBANO_~1\AppData\Local\Temp\ccJkfoGk.s 			page 343


 16548      436F756E 
 16548      74436861 
 16549              	.LASF500:
 16550 1d85 6D6F6465 		.ascii	"modem\000"
 16550      6D00
 16551              	.LASF481:
 16552 1d8b 52656769 		.ascii	"RegionEU868RxParamSetupReq\000"
 16552      6F6E4555 
 16552      38363852 
 16552      78506172 
 16552      616D5365 
 16553              	.LASF173:
 16554 1da6 52616469 		.ascii	"RadioEvents_t\000"
 16554      6F457665 
 16554      6E74735F 
 16554      7400
 16555              	.LASF489:
 16556 1db4 6C696E6B 		.ascii	"linkAdrParams\000"
 16556      41647250 
 16556      6172616D 
 16556      7300
 16557              	.LASF441:
 16558 1dc2 72656769 		.ascii	"regionCommonRxBeaconSetup\000"
 16558      6F6E436F 
 16558      6D6D6F6E 
 16558      52784265 
 16558      61636F6E 
 16559              	.LASF246:
 16560 1ddc 4C6F5261 		.ascii	"LoRaMacStatus_t\000"
 16560      4D616353 
 16560      74617475 
 16560      735F7400 
 16561              	.LASF373:
 16562 1dec 43757272 		.ascii	"CurrentNbRep\000"
 16562      656E744E 
 16562      62526570 
 16562      00
 16563              	.LASF525:
 16564 1df9 52656769 		.ascii	"RegionEU868SetBandTxDone\000"
 16564      6F6E4555 
 16564      38363853 
 16564      65744261 
 16564      6E645478 
 16565              	.LASF12:
 16566 1e12 6C6F6E67 		.ascii	"long long int\000"
 16566      206C6F6E 
 16566      6720696E 
 16566      7400
 16567              	.LASF229:
 16568 1e20 4C4F5241 		.ascii	"LORAMAC_STATUS_FREQ_AND_DR_INVALID\000"
 16568      4D41435F 
 16568      53544154 
 16568      55535F46 
 16568      5245515F 
 16569              	.LASF243:
 16570 1e43 4C4F5241 		.ascii	"LORAMAC_STATUS_CLASS_B_ERROR\000"
 16570      4D41435F 
ARM GAS  C:\Users\EBANO_~1\AppData\Local\Temp\ccJkfoGk.s 			page 344


 16570      53544154 
 16570      55535F43 
 16570      4C415353 
 16571              	.LASF80:
 16572 1e60 5F666C61 		.ascii	"_flags2\000"
 16572      67733200 
 16573              	.LASF527:
 16574 1e68 52656769 		.ascii	"RegionEU868GetPhyParam\000"
 16574      6F6E4555 
 16574      38363847 
 16574      65745068 
 16574      79506172 
 16575              	.LASF293:
 16576 1e7f 5048595F 		.ascii	"PHY_MAX_BEACON_LESS_PERIOD\000"
 16576      4D41585F 
 16576      42454143 
 16576      4F4E5F4C 
 16576      4553535F 
 16577              	.LASF172:
 16578 1e9a 43616444 		.ascii	"CadDone\000"
 16578      6F6E6500 
 16579              	.LASF89:
 16580 1ea2 5F6C6F63 		.ascii	"_locale\000"
 16580      616C6500 
 16581              	.LASF228:
 16582 1eaa 4C4F5241 		.ascii	"LORAMAC_STATUS_DATARATE_INVALID\000"
 16582      4D41435F 
 16582      53544154 
 16582      55535F44 
 16582      41544152 
 16583              	.LASF349:
 16584 1eca 73436861 		.ascii	"sChanMaskSetParams\000"
 16584      6E4D6173 
 16584      6B536574 
 16584      50617261 
 16584      6D7300
 16585              	.LASF22:
 16586 1edd 41484250 		.ascii	"AHBPrescTable\000"
 16586      72657363 
 16586      5461626C 
 16586      6500
 16587              	.LASF276:
 16588 1eeb 5048595F 		.ascii	"PHY_CHANNELS\000"
 16588      4348414E 
 16588      4E454C53 
 16588      00
 16589              	.LASF470:
 16590 1ef8 63616C63 		.ascii	"calcBackOffParams\000"
 16590      4261636B 
 16590      4F666650 
 16590      6172616D 
 16590      7300
 16591              	.LASF333:
 16592 1f0a 4E766D43 		.ascii	"NvmCtx\000"
 16592      747800
 16593              	.LASF452:
 16594 1f11 52656769 		.ascii	"RegionEU868ChannelAdd\000"
ARM GAS  C:\Users\EBANO_~1\AppData\Local\Temp\ccJkfoGk.s 			page 345


 16594      6F6E4555 
 16594      38363843 
 16594      68616E6E 
 16594      656C4164 
 16595              	.LASF409:
 16596 1f27 52784265 		.ascii	"RxBeaconSetup_t\000"
 16596      61636F6E 
 16596      53657475 
 16596      705F7400 
 16597              	.LASF204:
 16598 1f37 73466965 		.ascii	"sFields\000"
 16598      6C647300 
 16599              	.LASF557:
 16600 1f3f 52656769 		.ascii	"RegionCommonComputeRxWindowParameters\000"
 16600      6F6E436F 
 16600      6D6D6F6E 
 16600      436F6D70 
 16600      75746552 
 16601              	.LASF199:
 16602 1f65 47657457 		.ascii	"GetWakeupTime\000"
 16602      616B6575 
 16602      7054696D 
 16602      6500
 16603              	.LASF395:
 16604 1f73 734E6578 		.ascii	"sNextChanParams\000"
 16604      74436861 
 16604      6E506172 
 16604      616D7300 
 16605              	.LASF431:
 16606 1f83 4C6F5261 		.ascii	"LoRaMacMaxEirpTable\000"
 16606      4D61634D 
 16606      61784569 
 16606      72705461 
 16606      626C6500 
 16607              	.LASF383:
 16608 1f97 73446C43 		.ascii	"sDlChannelReqParams\000"
 16608      68616E6E 
 16608      656C5265 
 16608      71506172 
 16608      616D7300 
 16609              	.LASF374:
 16610 1fab 4C696E6B 		.ascii	"LinkAdrReqParams_t\000"
 16610      41647252 
 16610      65715061 
 16610      72616D73 
 16610      5F7400
 16611              	.LASF453:
 16612 1fbe 6368616E 		.ascii	"channelRemove\000"
 16612      6E656C52 
 16612      656D6F76 
 16612      6500
 16613              	.LASF451:
 16614 1fcc 52656769 		.ascii	"RegionEU868ChannelsRemove\000"
 16614      6F6E4555 
 16614      38363843 
 16614      68616E6E 
 16614      656C7352 
ARM GAS  C:\Users\EBANO_~1\AppData\Local\Temp\ccJkfoGk.s 			page 346


 16615              	.LASF104:
 16616 1fe6 5F5F4649 		.ascii	"__FILE\000"
 16616      4C4500
 16617              	.LASF217:
 16618 1fed 52585F53 		.ascii	"RX_SLOT_WIN_PING_SLOT\000"
 16618      4C4F545F 
 16618      57494E5F 
 16618      50494E47 
 16618      5F534C4F 
 16619              	.LASF449:
 16620 2003 66726571 		.ascii	"frequency\000"
 16620      75656E63 
 16620      7900
 16621              	.LASF340:
 16622 200d 75566572 		.ascii	"uVerifyParams\000"
 16622      69667950 
 16622      6172616D 
 16622      7300
 16623              	.LASF238:
 16624 201b 4C4F5241 		.ascii	"LORAMAC_STATUS_BUSY_PING_SLOT_WINDOW_TIME\000"
 16624      4D41435F 
 16624      53544154 
 16624      55535F42 
 16624      5553595F 
 16625              	.LASF40:
 16626 2045 5F736967 		.ascii	"_sign\000"
 16626      6E00
 16627              	.LASF0:
 16628 204b 5F5F696E 		.ascii	"__int8_t\000"
 16628      74385F74 
 16628      00
 16629              	.LASF45:
 16630 2054 5F5F746D 		.ascii	"__tm_min\000"
 16630      5F6D696E 
 16630      00
 16631              	.LASF344:
 16632 205d 56657269 		.ascii	"VerifyParams_t\000"
 16632      66795061 
 16632      72616D73 
 16632      5F7400
 16633              	.LASF479:
 16634 206c 52656769 		.ascii	"RegionEU868NewChannelReq\000"
 16634      6F6E4555 
 16634      3836384E 
 16634      65774368 
 16634      616E6E65 
 16635              	.LASF14:
 16636 2085 756E7369 		.ascii	"unsigned int\000"
 16636      676E6564 
 16636      20696E74 
 16636      00
 16637              	.LASF118:
 16638 2092 5F723438 		.ascii	"_r48\000"
 16638      00
 16639              	.LASF145:
 16640 2097 56616C75 		.ascii	"Value\000"
 16640      6500
ARM GAS  C:\Users\EBANO_~1\AppData\Local\Temp\ccJkfoGk.s 			page 347


 16641              	.LASF225:
 16642 209d 4C4F5241 		.ascii	"LORAMAC_STATUS_SERVICE_UNKNOWN\000"
 16642      4D41435F 
 16642      53544154 
 16642      55535F53 
 16642      45525649 
 16643              	.LASF366:
 16644 20bc 5478436F 		.ascii	"TxConfigParams_t\000"
 16644      6E666967 
 16644      50617261 
 16644      6D735F74 
 16644      00
 16645              	.LASF233:
 16646 20cd 4C4F5241 		.ascii	"LORAMAC_STATUS_SKIPPED_APP_DATA\000"
 16646      4D41435F 
 16646      53544154 
 16646      55535F53 
 16646      4B495050 
 16647              	.LASF443:
 16648 20ed 64724F66 		.ascii	"drOffset\000"
 16648      66736574 
 16648      00
 16649              	.LASF5:
 16650 20f6 73686F72 		.ascii	"short int\000"
 16650      7420696E 
 16650      7400
 16651              	.LASF291:
 16652 2100 5048595F 		.ascii	"PHY_BEACON_SYMBOL_TO_EXPANSION_FACTOR\000"
 16652      42454143 
 16652      4F4E5F53 
 16652      594D424F 
 16652      4C5F544F 
 16653              	.LASF183:
 16654 2126 53657452 		.ascii	"SetRxConfig\000"
 16654      78436F6E 
 16654      66696700 
 16655              	.LASF69:
 16656 2132 5F726561 		.ascii	"_read\000"
 16656      6400
 16657              	.LASF457:
 16658 2138 66726571 		.ascii	"freqInvalid\000"
 16658      496E7661 
 16658      6C696400 
 16659              	.LASF551:
 16660 2144 52656769 		.ascii	"RegionCommonChanDisable\000"
 16660      6F6E436F 
 16660      6D6D6F6E 
 16660      4368616E 
 16660      44697361 
 16661              	.LASF483:
 16662 215c 52656769 		.ascii	"RegionEU868LinkAdrReq\000"
 16662      6F6E4555 
 16662      3836384C 
 16662      696E6B41 
 16662      64725265 
 16663              	.LASF108:
 16664 2172 5F72616E 		.ascii	"_rand48\000"
ARM GAS  C:\Users\EBANO_~1\AppData\Local\Temp\ccJkfoGk.s 			page 348


 16664      64343800 
 16665              	.LASF456:
 16666 217a 6472496E 		.ascii	"drInvalid\000"
 16666      76616C69 
 16666      6400
 16667              	.LASF390:
 16668 2184 4C617374 		.ascii	"LastTxIsJoinRequest\000"
 16668      54784973 
 16668      4A6F696E 
 16668      52657175 
 16668      65737400 
 16669              		.ident	"GCC: (GNU Tools for Arm Embedded Processors 7-2018-q2-update) 7.3.1 20180622 (release) [AR
ARM GAS  C:\Users\EBANO_~1\AppData\Local\Temp\ccJkfoGk.s 			page 349


DEFINED SYMBOLS
                            *ABS*:00000000 RegionEU868.c
C:\Users\EBANO_~1\AppData\Local\Temp\ccJkfoGk.s:16     .text.RegionEU868GetPhyParam:00000000 $t
C:\Users\EBANO_~1\AppData\Local\Temp\ccJkfoGk.s:24     .text.RegionEU868GetPhyParam:00000000 RegionEU868GetPhyParam
C:\Users\EBANO_~1\AppData\Local\Temp\ccJkfoGk.s:55     .rodata:00000000 $d
C:\Users\EBANO_~1\AppData\Local\Temp\ccJkfoGk.s:282    .text.RegionEU868GetPhyParam:000000d8 $d
C:\Users\EBANO_~1\AppData\Local\Temp\ccJkfoGk.s:4175   .bss:00000000 NvmCtx
C:\Users\EBANO_~1\AppData\Local\Temp\ccJkfoGk.s:298    .text.RegionEU868SetBandTxDone:00000000 $t
C:\Users\EBANO_~1\AppData\Local\Temp\ccJkfoGk.s:306    .text.RegionEU868SetBandTxDone:00000000 RegionEU868SetBandTxDone
C:\Users\EBANO_~1\AppData\Local\Temp\ccJkfoGk.s:342    .text.RegionEU868SetBandTxDone:00000020 $d
C:\Users\EBANO_~1\AppData\Local\Temp\ccJkfoGk.s:347    .text.RegionEU868InitDefaults:00000000 $t
C:\Users\EBANO_~1\AppData\Local\Temp\ccJkfoGk.s:355    .text.RegionEU868InitDefaults:00000000 RegionEU868InitDefaults
C:\Users\EBANO_~1\AppData\Local\Temp\ccJkfoGk.s:481    .text.RegionEU868InitDefaults:000000a8 $d
C:\Users\EBANO_~1\AppData\Local\Temp\ccJkfoGk.s:488    .text.RegionEU868GetNvmCtx:00000000 $t
C:\Users\EBANO_~1\AppData\Local\Temp\ccJkfoGk.s:496    .text.RegionEU868GetNvmCtx:00000000 RegionEU868GetNvmCtx
C:\Users\EBANO_~1\AppData\Local\Temp\ccJkfoGk.s:516    .text.RegionEU868GetNvmCtx:0000000c $d
C:\Users\EBANO_~1\AppData\Local\Temp\ccJkfoGk.s:521    .text.RegionEU868Verify:00000000 $t
C:\Users\EBANO_~1\AppData\Local\Temp\ccJkfoGk.s:529    .text.RegionEU868Verify:00000000 RegionEU868Verify
C:\Users\EBANO_~1\AppData\Local\Temp\ccJkfoGk.s:613    .text.RegionEU868Verify:00000044 $d
C:\Users\EBANO_~1\AppData\Local\Temp\ccJkfoGk.s:618    .text.RegionEU868ApplyCFList:00000000 $t
C:\Users\EBANO_~1\AppData\Local\Temp\ccJkfoGk.s:626    .text.RegionEU868ApplyCFList:00000000 RegionEU868ApplyCFList
C:\Users\EBANO_~1\AppData\Local\Temp\ccJkfoGk.s:975    .text.RegionEU868ApplyCFList:0000017c $d
C:\Users\EBANO_~1\AppData\Local\Temp\ccJkfoGk.s:1001   .text.RegionEU868ChanMaskSet:00000000 $t
C:\Users\EBANO_~1\AppData\Local\Temp\ccJkfoGk.s:1009   .text.RegionEU868ChanMaskSet:00000000 RegionEU868ChanMaskSet
C:\Users\EBANO_~1\AppData\Local\Temp\ccJkfoGk.s:1063   .text.RegionEU868ChanMaskSet:0000002c $d
C:\Users\EBANO_~1\AppData\Local\Temp\ccJkfoGk.s:1069   .text.RegionEU868ComputeRxWindowParameters:00000000 $t
C:\Users\EBANO_~1\AppData\Local\Temp\ccJkfoGk.s:1077   .text.RegionEU868ComputeRxWindowParameters:00000000 RegionEU868ComputeRxWindowParameters
C:\Users\EBANO_~1\AppData\Local\Temp\ccJkfoGk.s:1213   .text.RegionEU868ComputeRxWindowParameters:00000084 $d
C:\Users\EBANO_~1\AppData\Local\Temp\ccJkfoGk.s:1221   .text.RegionEU868RxConfig:00000000 $t
C:\Users\EBANO_~1\AppData\Local\Temp\ccJkfoGk.s:1229   .text.RegionEU868RxConfig:00000000 RegionEU868RxConfig
C:\Users\EBANO_~1\AppData\Local\Temp\ccJkfoGk.s:1438   .text.RegionEU868RxConfig:000000f4 $d
C:\Users\EBANO_~1\AppData\Local\Temp\ccJkfoGk.s:1448   .text.RegionEU868TxConfig:00000000 $t
C:\Users\EBANO_~1\AppData\Local\Temp\ccJkfoGk.s:1456   .text.RegionEU868TxConfig:00000000 RegionEU868TxConfig
C:\Users\EBANO_~1\AppData\Local\Temp\ccJkfoGk.s:1724   .text.RegionEU868TxConfig:00000120 $d
C:\Users\EBANO_~1\AppData\Local\Temp\ccJkfoGk.s:1735   .text.RegionEU868LinkAdrReq:00000000 $t
C:\Users\EBANO_~1\AppData\Local\Temp\ccJkfoGk.s:1743   .text.RegionEU868LinkAdrReq:00000000 RegionEU868LinkAdrReq
C:\Users\EBANO_~1\AppData\Local\Temp\ccJkfoGk.s:2395   .text.RegionEU868LinkAdrReq:000002fc $d
C:\Users\EBANO_~1\AppData\Local\Temp\ccJkfoGk.s:2401   .text.RegionEU868RxParamSetupReq:00000000 $t
C:\Users\EBANO_~1\AppData\Local\Temp\ccJkfoGk.s:2409   .text.RegionEU868RxParamSetupReq:00000000 RegionEU868RxParamSetupReq
C:\Users\EBANO_~1\AppData\Local\Temp\ccJkfoGk.s:2546   .text.RegionEU868RxParamSetupReq:00000078 $d
C:\Users\EBANO_~1\AppData\Local\Temp\ccJkfoGk.s:2559   .text.RegionEU868NewChannelReq:00000000 $t
C:\Users\EBANO_~1\AppData\Local\Temp\ccJkfoGk.s:2567   .text.RegionEU868NewChannelReq:00000000 RegionEU868NewChannelReq
C:\Users\EBANO_~1\AppData\Local\Temp\ccJkfoGk.s:2909   .text.RegionEU868NewChannelReq:00000158 $d
C:\Users\EBANO_~1\AppData\Local\Temp\ccJkfoGk.s:2933   .text.RegionEU868TxParamSetupReq:00000000 $t
C:\Users\EBANO_~1\AppData\Local\Temp\ccJkfoGk.s:2941   .text.RegionEU868TxParamSetupReq:00000000 RegionEU868TxParamSetupReq
C:\Users\EBANO_~1\AppData\Local\Temp\ccJkfoGk.s:2960   .text.RegionEU868DlChannelReq:00000000 $t
C:\Users\EBANO_~1\AppData\Local\Temp\ccJkfoGk.s:2968   .text.RegionEU868DlChannelReq:00000000 RegionEU868DlChannelReq
C:\Users\EBANO_~1\AppData\Local\Temp\ccJkfoGk.s:3085   .text.RegionEU868DlChannelReq:00000074 $d
C:\Users\EBANO_~1\AppData\Local\Temp\ccJkfoGk.s:3099   .text.RegionEU868AlternateDr:00000000 $t
C:\Users\EBANO_~1\AppData\Local\Temp\ccJkfoGk.s:3107   .text.RegionEU868AlternateDr:00000000 RegionEU868AlternateDr
C:\Users\EBANO_~1\AppData\Local\Temp\ccJkfoGk.s:3122   .text.RegionEU868CalcBackOff:00000000 $t
C:\Users\EBANO_~1\AppData\Local\Temp\ccJkfoGk.s:3130   .text.RegionEU868CalcBackOff:00000000 RegionEU868CalcBackOff
C:\Users\EBANO_~1\AppData\Local\Temp\ccJkfoGk.s:3187   .text.RegionEU868CalcBackOff:00000030 $d
C:\Users\EBANO_~1\AppData\Local\Temp\ccJkfoGk.s:3192   .text.RegionEU868NextChannel:00000000 $t
C:\Users\EBANO_~1\AppData\Local\Temp\ccJkfoGk.s:3200   .text.RegionEU868NextChannel:00000000 RegionEU868NextChannel
C:\Users\EBANO_~1\AppData\Local\Temp\ccJkfoGk.s:3594   .text.RegionEU868NextChannel:000001c0 $d
C:\Users\EBANO_~1\AppData\Local\Temp\ccJkfoGk.s:3600   .text.RegionEU868ChannelAdd:00000000 $t
ARM GAS  C:\Users\EBANO_~1\AppData\Local\Temp\ccJkfoGk.s 			page 350


C:\Users\EBANO_~1\AppData\Local\Temp\ccJkfoGk.s:3608   .text.RegionEU868ChannelAdd:00000000 RegionEU868ChannelAdd
C:\Users\EBANO_~1\AppData\Local\Temp\ccJkfoGk.s:3880   .text.RegionEU868ChannelAdd:00000118 $d
C:\Users\EBANO_~1\AppData\Local\Temp\ccJkfoGk.s:3898   .text.RegionEU868ChannelsRemove:00000000 $t
C:\Users\EBANO_~1\AppData\Local\Temp\ccJkfoGk.s:3906   .text.RegionEU868ChannelsRemove:00000000 RegionEU868ChannelsRemove
C:\Users\EBANO_~1\AppData\Local\Temp\ccJkfoGk.s:3955   .text.RegionEU868ChannelsRemove:0000002c $d
C:\Users\EBANO_~1\AppData\Local\Temp\ccJkfoGk.s:3960   .text.RegionEU868SetContinuousWave:00000000 $t
C:\Users\EBANO_~1\AppData\Local\Temp\ccJkfoGk.s:3968   .text.RegionEU868SetContinuousWave:00000000 RegionEU868SetContinuousWave
C:\Users\EBANO_~1\AppData\Local\Temp\ccJkfoGk.s:4058   .text.RegionEU868SetContinuousWave:00000048 $d
C:\Users\EBANO_~1\AppData\Local\Temp\ccJkfoGk.s:4064   .text.RegionEU868ApplyDrOffset:00000000 $t
C:\Users\EBANO_~1\AppData\Local\Temp\ccJkfoGk.s:4072   .text.RegionEU868ApplyDrOffset:00000000 RegionEU868ApplyDrOffset
C:\Users\EBANO_~1\AppData\Local\Temp\ccJkfoGk.s:4098   .text.RegionEU868RxBeaconSetup:00000000 $t
C:\Users\EBANO_~1\AppData\Local\Temp\ccJkfoGk.s:4106   .text.RegionEU868RxBeaconSetup:00000000 RegionEU868RxBeaconSetup
C:\Users\EBANO_~1\AppData\Local\Temp\ccJkfoGk.s:4166   .text.RegionEU868RxBeaconSetup:00000030 $d
C:\Users\EBANO_~1\AppData\Local\Temp\ccJkfoGk.s:4172   .bss:00000000 $d
C:\Users\EBANO_~1\AppData\Local\Temp\ccJkfoGk.s:4182   .rodata:000000d8 BandwidthsEU868
C:\Users\EBANO_~1\AppData\Local\Temp\ccJkfoGk.s:4193   .rodata:000000f8 DataratesEU868
C:\Users\EBANO_~1\AppData\Local\Temp\ccJkfoGk.s:4206   .rodata:00000100 MaxPayloadOfDatarateEU868
C:\Users\EBANO_~1\AppData\Local\Temp\ccJkfoGk.s:4217   .rodata:00000108 MaxPayloadOfDatarateRepeaterEU868

UNDEFINED SYMBOLS
randr
RegionCommonSetBandTxDone
memset
memcpy1
RegionCommonChanMaskCopy
RegionCommonValueInRange
RegionCommonChanDisable
Radio
RegionCommonComputeSymbolTimeLoRa
RegionCommonComputeRxWindowParameters
RegionCommonComputeSymbolTimeFsk
RegionCommonComputeTxPower
RegionCommonParseLinkAdrReq
RegionCommonLinkAdrReqVerifyParams
memset1
RegionCommonCalcBackOff
RegionCommonCountChannels
TimerGetElapsedTime
RegionCommonUpdateBandTimeOff
RegionCommonRxBeaconSetup
