ARM GAS  C:\Users\EBANO_~1\AppData\Local\Temp\ccizkeXa.s 			page 1


   1              		.cpu cortex-m0plus
   2              		.eabi_attribute 20, 1
   3              		.eabi_attribute 21, 1
   4              		.eabi_attribute 23, 3
   5              		.eabi_attribute 24, 1
   6              		.eabi_attribute 25, 1
   7              		.eabi_attribute 26, 1
   8              		.eabi_attribute 30, 2
   9              		.eabi_attribute 34, 0
  10              		.eabi_attribute 18, 4
  11              		.file	"RegionCommon.c"
  12              		.text
  13              	.Ltext0:
  14              		.cfi_sections	.debug_frame
  15              		.section	.text.RegionCommonGetJoinDc,"ax",%progbits
  16              		.align	1
  17              		.p2align 2,,3
  18              		.global	RegionCommonGetJoinDc
  19              		.syntax unified
  20              		.code	16
  21              		.thumb_func
  22              		.fpu softvfp
  23              		.type	RegionCommonGetJoinDc, %function
  24              	RegionCommonGetJoinDc:
  25              	.LFB40:
  26              		.file 1 "../../../../../../Middlewares/Third_Party/LoRaWAN/Mac/region/RegionCommon.c"
   1:../../../../../../Middlewares/Third_Party/LoRaWAN/Mac/region/RegionCommon.c **** /*!
   2:../../../../../../Middlewares/Third_Party/LoRaWAN/Mac/region/RegionCommon.c ****  * \file      RegionCommon.c
   3:../../../../../../Middlewares/Third_Party/LoRaWAN/Mac/region/RegionCommon.c ****  *
   4:../../../../../../Middlewares/Third_Party/LoRaWAN/Mac/region/RegionCommon.c ****  * \brief     LoRa MAC common region implementation
   5:../../../../../../Middlewares/Third_Party/LoRaWAN/Mac/region/RegionCommon.c ****  *
   6:../../../../../../Middlewares/Third_Party/LoRaWAN/Mac/region/RegionCommon.c ****  * \copyright Revised BSD License, see section \ref LICENSE.
   7:../../../../../../Middlewares/Third_Party/LoRaWAN/Mac/region/RegionCommon.c ****  *
   8:../../../../../../Middlewares/Third_Party/LoRaWAN/Mac/region/RegionCommon.c ****  * \code
   9:../../../../../../Middlewares/Third_Party/LoRaWAN/Mac/region/RegionCommon.c ****  *                ______                              _
  10:../../../../../../Middlewares/Third_Party/LoRaWAN/Mac/region/RegionCommon.c ****  *               / _____)             _              | |
  11:../../../../../../Middlewares/Third_Party/LoRaWAN/Mac/region/RegionCommon.c ****  *              ( (____  _____ ____ _| |_ _____  ____| |__
  12:../../../../../../Middlewares/Third_Party/LoRaWAN/Mac/region/RegionCommon.c ****  *               \____ \| ___ |    (_   _) ___ |/ ___)  _ \
  13:../../../../../../Middlewares/Third_Party/LoRaWAN/Mac/region/RegionCommon.c ****  *               _____) ) ____| | | || |_| ____( (___| | | |
  14:../../../../../../Middlewares/Third_Party/LoRaWAN/Mac/region/RegionCommon.c ****  *              (______/|_____)_|_|_| \__)_____)\____)_| |_|
  15:../../../../../../Middlewares/Third_Party/LoRaWAN/Mac/region/RegionCommon.c ****  *              (C)2013-2017 Semtech
  16:../../../../../../Middlewares/Third_Party/LoRaWAN/Mac/region/RegionCommon.c ****  *
  17:../../../../../../Middlewares/Third_Party/LoRaWAN/Mac/region/RegionCommon.c ****  *               ___ _____ _   ___ _  _____ ___  ___  ___ ___
  18:../../../../../../Middlewares/Third_Party/LoRaWAN/Mac/region/RegionCommon.c ****  *              / __|_   _/_\ / __| |/ / __/ _ \| _ \/ __| __|
  19:../../../../../../Middlewares/Third_Party/LoRaWAN/Mac/region/RegionCommon.c ****  *              \__ \ | |/ _ \ (__| ' <| _| (_) |   / (__| _|
  20:../../../../../../Middlewares/Third_Party/LoRaWAN/Mac/region/RegionCommon.c ****  *              |___/ |_/_/ \_\___|_|\_\_| \___/|_|_\\___|___|
  21:../../../../../../Middlewares/Third_Party/LoRaWAN/Mac/region/RegionCommon.c ****  *              embedded.connectivity.solutions===============
  22:../../../../../../Middlewares/Third_Party/LoRaWAN/Mac/region/RegionCommon.c ****  *
  23:../../../../../../Middlewares/Third_Party/LoRaWAN/Mac/region/RegionCommon.c ****  * \endcode
  24:../../../../../../Middlewares/Third_Party/LoRaWAN/Mac/region/RegionCommon.c ****  *
  25:../../../../../../Middlewares/Third_Party/LoRaWAN/Mac/region/RegionCommon.c ****  * \author    Miguel Luis ( Semtech )
  26:../../../../../../Middlewares/Third_Party/LoRaWAN/Mac/region/RegionCommon.c ****  *
  27:../../../../../../Middlewares/Third_Party/LoRaWAN/Mac/region/RegionCommon.c ****  * \author    Gregory Cristian ( Semtech )
  28:../../../../../../Middlewares/Third_Party/LoRaWAN/Mac/region/RegionCommon.c ****  *
  29:../../../../../../Middlewares/Third_Party/LoRaWAN/Mac/region/RegionCommon.c ****  * \author    Daniel Jaeckle ( STACKFORCE )
  30:../../../../../../Middlewares/Third_Party/LoRaWAN/Mac/region/RegionCommon.c ****  */
  31:../../../../../../Middlewares/Third_Party/LoRaWAN/Mac/region/RegionCommon.c **** #include <math.h>
ARM GAS  C:\Users\EBANO_~1\AppData\Local\Temp\ccizkeXa.s 			page 2


  32:../../../../../../Middlewares/Third_Party/LoRaWAN/Mac/region/RegionCommon.c **** #include "radio.h"
  33:../../../../../../Middlewares/Third_Party/LoRaWAN/Mac/region/RegionCommon.c **** #include "utilities.h"
  34:../../../../../../Middlewares/Third_Party/LoRaWAN/Mac/region/RegionCommon.c **** #include "RegionCommon.h"
  35:../../../../../../Middlewares/Third_Party/LoRaWAN/Mac/region/RegionCommon.c **** 
  36:../../../../../../Middlewares/Third_Party/LoRaWAN/Mac/region/RegionCommon.c **** #define BACKOFF_DC_1_HOUR       100
  37:../../../../../../Middlewares/Third_Party/LoRaWAN/Mac/region/RegionCommon.c **** #define BACKOFF_DC_10_HOURS     1000
  38:../../../../../../Middlewares/Third_Party/LoRaWAN/Mac/region/RegionCommon.c **** #define BACKOFF_DC_24_HOURS     10000
  39:../../../../../../Middlewares/Third_Party/LoRaWAN/Mac/region/RegionCommon.c **** 
  40:../../../../../../Middlewares/Third_Party/LoRaWAN/Mac/region/RegionCommon.c **** static uint8_t CountChannels( uint16_t mask, uint8_t nbBits )
  41:../../../../../../Middlewares/Third_Party/LoRaWAN/Mac/region/RegionCommon.c **** {
  42:../../../../../../Middlewares/Third_Party/LoRaWAN/Mac/region/RegionCommon.c ****     uint8_t nbActiveBits = 0;
  43:../../../../../../Middlewares/Third_Party/LoRaWAN/Mac/region/RegionCommon.c **** 
  44:../../../../../../Middlewares/Third_Party/LoRaWAN/Mac/region/RegionCommon.c ****     for( uint8_t j = 0; j < nbBits; j++ )
  45:../../../../../../Middlewares/Third_Party/LoRaWAN/Mac/region/RegionCommon.c ****     {
  46:../../../../../../Middlewares/Third_Party/LoRaWAN/Mac/region/RegionCommon.c ****         if( ( mask & ( 1 << j ) ) == ( 1 << j ) )
  47:../../../../../../Middlewares/Third_Party/LoRaWAN/Mac/region/RegionCommon.c ****         {
  48:../../../../../../Middlewares/Third_Party/LoRaWAN/Mac/region/RegionCommon.c ****             nbActiveBits++;
  49:../../../../../../Middlewares/Third_Party/LoRaWAN/Mac/region/RegionCommon.c ****         }
  50:../../../../../../Middlewares/Third_Party/LoRaWAN/Mac/region/RegionCommon.c ****     }
  51:../../../../../../Middlewares/Third_Party/LoRaWAN/Mac/region/RegionCommon.c ****     return nbActiveBits;
  52:../../../../../../Middlewares/Third_Party/LoRaWAN/Mac/region/RegionCommon.c **** }
  53:../../../../../../Middlewares/Third_Party/LoRaWAN/Mac/region/RegionCommon.c **** 
  54:../../../../../../Middlewares/Third_Party/LoRaWAN/Mac/region/RegionCommon.c **** uint16_t RegionCommonGetJoinDc( TimerTime_t elapsedTime )
  55:../../../../../../Middlewares/Third_Party/LoRaWAN/Mac/region/RegionCommon.c **** {
  27              		.loc 1 55 0
  28              		.cfi_startproc
  29              		@ args = 0, pretend = 0, frame = 0
  30              		@ frame_needed = 0, uses_anonymous_args = 0
  31              		@ link register save eliminated.
  32              	.LVL0:
  56:../../../../../../Middlewares/Third_Party/LoRaWAN/Mac/region/RegionCommon.c ****     uint16_t dutyCycle = 0;
  57:../../../../../../Middlewares/Third_Party/LoRaWAN/Mac/region/RegionCommon.c **** 
  58:../../../../../../Middlewares/Third_Party/LoRaWAN/Mac/region/RegionCommon.c ****     if( elapsedTime < 3600000 )
  33              		.loc 1 58 0
  34 0000 074B     		ldr	r3, .L6
  55:../../../../../../Middlewares/Third_Party/LoRaWAN/Mac/region/RegionCommon.c ****     uint16_t dutyCycle = 0;
  35              		.loc 1 55 0
  36 0002 0200     		movs	r2, r0
  59:../../../../../../Middlewares/Third_Party/LoRaWAN/Mac/region/RegionCommon.c ****     {
  60:../../../../../../Middlewares/Third_Party/LoRaWAN/Mac/region/RegionCommon.c ****         dutyCycle = BACKOFF_DC_1_HOUR;
  37              		.loc 1 60 0
  38 0004 6420     		movs	r0, #100
  39              	.LVL1:
  58:../../../../../../Middlewares/Third_Party/LoRaWAN/Mac/region/RegionCommon.c ****     {
  40              		.loc 1 58 0
  41 0006 9A42     		cmp	r2, r3
  42 0008 09D9     		bls	.L2
  61:../../../../../../Middlewares/Third_Party/LoRaWAN/Mac/region/RegionCommon.c ****     }
  62:../../../../../../Middlewares/Third_Party/LoRaWAN/Mac/region/RegionCommon.c ****     else if( elapsedTime < ( 3600000 + 36000000 ) )
  63:../../../../../../Middlewares/Third_Party/LoRaWAN/Mac/region/RegionCommon.c ****     {
  64:../../../../../../Middlewares/Third_Party/LoRaWAN/Mac/region/RegionCommon.c ****         dutyCycle = BACKOFF_DC_10_HOURS;
  65:../../../../../../Middlewares/Third_Party/LoRaWAN/Mac/region/RegionCommon.c ****     }
  66:../../../../../../Middlewares/Third_Party/LoRaWAN/Mac/region/RegionCommon.c ****     else
  67:../../../../../../Middlewares/Third_Party/LoRaWAN/Mac/region/RegionCommon.c ****     {
  68:../../../../../../Middlewares/Third_Party/LoRaWAN/Mac/region/RegionCommon.c ****         dutyCycle = BACKOFF_DC_24_HOURS;
  43              		.loc 1 68 0
  44 000a 0023     		movs	r3, #0
ARM GAS  C:\Users\EBANO_~1\AppData\Local\Temp\ccizkeXa.s 			page 3


  45 000c 0549     		ldr	r1, .L6+4
  46 000e 9142     		cmp	r1, r2
  47 0010 5B41     		adcs	r3, r3, r3
  48 0012 5842     		rsbs	r0, r3, #0
  49 0014 044B     		ldr	r3, .L6+8
  50 0016 1840     		ands	r0, r3
  51 0018 044B     		ldr	r3, .L6+12
  52 001a 9C46     		mov	ip, r3
  53 001c 6044     		add	r0, r0, ip
  54              	.L2:
  55              	.LVL2:
  69:../../../../../../Middlewares/Third_Party/LoRaWAN/Mac/region/RegionCommon.c ****     }
  70:../../../../../../Middlewares/Third_Party/LoRaWAN/Mac/region/RegionCommon.c ****     return dutyCycle;
  71:../../../../../../Middlewares/Third_Party/LoRaWAN/Mac/region/RegionCommon.c **** }
  56              		.loc 1 71 0
  57              		@ sp needed
  58 001e 7047     		bx	lr
  59              	.L7:
  60              		.align	2
  61              	.L6:
  62 0020 7FEE3600 		.word	3599999
  63 0024 7F3F5C02 		.word	39599999
  64 0028 D8DCFFFF 		.word	-9000
  65 002c 10270000 		.word	10000
  66              		.cfi_endproc
  67              	.LFE40:
  68              		.size	RegionCommonGetJoinDc, .-RegionCommonGetJoinDc
  69              		.section	.text.RegionCommonChanVerifyDr,"ax",%progbits
  70              		.align	1
  71              		.p2align 2,,3
  72              		.global	RegionCommonChanVerifyDr
  73              		.syntax unified
  74              		.code	16
  75              		.thumb_func
  76              		.fpu softvfp
  77              		.type	RegionCommonChanVerifyDr, %function
  78              	RegionCommonChanVerifyDr:
  79              	.LFB41:
  72:../../../../../../Middlewares/Third_Party/LoRaWAN/Mac/region/RegionCommon.c **** 
  73:../../../../../../Middlewares/Third_Party/LoRaWAN/Mac/region/RegionCommon.c **** bool RegionCommonChanVerifyDr( uint8_t nbChannels, uint16_t* channelsMask, int8_t dr, int8_t minDr,
  74:../../../../../../Middlewares/Third_Party/LoRaWAN/Mac/region/RegionCommon.c **** {
  80              		.loc 1 74 0
  81              		.cfi_startproc
  82              		@ args = 8, pretend = 0, frame = 0
  83              		@ frame_needed = 0, uses_anonymous_args = 0
  84              	.LVL3:
  85 0000 F0B5     		push	{r4, r5, r6, r7, lr}
  86              	.LCFI0:
  87              		.cfi_def_cfa_offset 20
  88              		.cfi_offset 4, -20
  89              		.cfi_offset 5, -16
  90              		.cfi_offset 6, -12
  91              		.cfi_offset 7, -8
  92              		.cfi_offset 14, -4
  93 0002 4546     		mov	r5, r8
  94 0004 DE46     		mov	lr, fp
  95 0006 5746     		mov	r7, r10
ARM GAS  C:\Users\EBANO_~1\AppData\Local\Temp\ccizkeXa.s 			page 4


  96 0008 4E46     		mov	r6, r9
  97 000a E0B5     		push	{r5, r6, r7, lr}
  98              	.LCFI1:
  99              		.cfi_def_cfa_offset 36
 100              		.cfi_offset 8, -36
 101              		.cfi_offset 9, -32
 102              		.cfi_offset 10, -28
 103              		.cfi_offset 11, -24
 104              		.loc 1 74 0
 105 000c 8846     		mov	r8, r1
 106 000e 1100     		movs	r1, r2
 107              	.LVL4:
 108 0010 09AA     		add	r2, sp, #36
 109              	.LVL5:
 110 0012 1278     		ldrb	r2, [r2]
 111              	.LVL6:
 112 0014 8446     		mov	ip, r0
 113 0016 52B2     		sxtb	r2, r2
 114              	.LVL7:
  75:../../../../../../Middlewares/Third_Party/LoRaWAN/Mac/region/RegionCommon.c ****     if( RegionCommonValueInRange( dr, minDr, maxDr ) == 0 )
  76:../../../../../../Middlewares/Third_Party/LoRaWAN/Mac/region/RegionCommon.c ****     {
  77:../../../../../../Middlewares/Third_Party/LoRaWAN/Mac/region/RegionCommon.c ****         return false;
 115              		.loc 1 77 0
 116 0018 0020     		movs	r0, #0
 117              	.LVL8:
 118              	.LBB36:
 119              	.LBB37:
  78:../../../../../../Middlewares/Third_Party/LoRaWAN/Mac/region/RegionCommon.c ****     }
  79:../../../../../../Middlewares/Third_Party/LoRaWAN/Mac/region/RegionCommon.c **** 
  80:../../../../../../Middlewares/Third_Party/LoRaWAN/Mac/region/RegionCommon.c ****     for( uint8_t i = 0, k = 0; i < nbChannels; i += 16, k++ )
  81:../../../../../../Middlewares/Third_Party/LoRaWAN/Mac/region/RegionCommon.c ****     {
  82:../../../../../../Middlewares/Third_Party/LoRaWAN/Mac/region/RegionCommon.c ****         for( uint8_t j = 0; j < 16; j++ )
  83:../../../../../../Middlewares/Third_Party/LoRaWAN/Mac/region/RegionCommon.c ****         {
  84:../../../../../../Middlewares/Third_Party/LoRaWAN/Mac/region/RegionCommon.c ****             if( ( ( channelsMask[k] & ( 1 << j ) ) != 0 ) )
  85:../../../../../../Middlewares/Third_Party/LoRaWAN/Mac/region/RegionCommon.c ****             {// Check datarate validity for enabled channels
  86:../../../../../../Middlewares/Third_Party/LoRaWAN/Mac/region/RegionCommon.c ****                 if( RegionCommonValueInRange( dr, ( channels[i + j].DrRange.Fields.Min & 0x0F ),
  87:../../../../../../Middlewares/Third_Party/LoRaWAN/Mac/region/RegionCommon.c ****                                                   ( channels[i + j].DrRange.Fields.Max & 0x0F ) ) =
  88:../../../../../../Middlewares/Third_Party/LoRaWAN/Mac/region/RegionCommon.c ****                 {
  89:../../../../../../Middlewares/Third_Party/LoRaWAN/Mac/region/RegionCommon.c ****                     // At least 1 channel has been found we can return OK.
  90:../../../../../../Middlewares/Third_Party/LoRaWAN/Mac/region/RegionCommon.c ****                     return true;
  91:../../../../../../Middlewares/Third_Party/LoRaWAN/Mac/region/RegionCommon.c ****                 }
  92:../../../../../../Middlewares/Third_Party/LoRaWAN/Mac/region/RegionCommon.c ****             }
  93:../../../../../../Middlewares/Third_Party/LoRaWAN/Mac/region/RegionCommon.c ****         }
  94:../../../../../../Middlewares/Third_Party/LoRaWAN/Mac/region/RegionCommon.c ****     }
  95:../../../../../../Middlewares/Third_Party/LoRaWAN/Mac/region/RegionCommon.c ****     return false;
  96:../../../../../../Middlewares/Third_Party/LoRaWAN/Mac/region/RegionCommon.c **** }
  97:../../../../../../Middlewares/Third_Party/LoRaWAN/Mac/region/RegionCommon.c **** 
  98:../../../../../../Middlewares/Third_Party/LoRaWAN/Mac/region/RegionCommon.c **** uint8_t RegionCommonValueInRange( int8_t value, int8_t min, int8_t max )
  99:../../../../../../Middlewares/Third_Party/LoRaWAN/Mac/region/RegionCommon.c **** {
 100:../../../../../../Middlewares/Third_Party/LoRaWAN/Mac/region/RegionCommon.c ****     if( ( value >= min ) && ( value <= max ) )
 120              		.loc 1 100 0
 121 001a 9942     		cmp	r1, r3
 122 001c 33DB     		blt	.L9
 123 001e 9142     		cmp	r1, r2
 124 0020 31DC     		bgt	.L9
 125              	.LVL9:
 126              	.LBE37:
ARM GAS  C:\Users\EBANO_~1\AppData\Local\Temp\ccizkeXa.s 			page 5


 127              	.LBE36:
 128              	.LBB38:
 129              	.LBB39:
  80:../../../../../../Middlewares/Third_Party/LoRaWAN/Mac/region/RegionCommon.c ****     {
 130              		.loc 1 80 0
 131 0022 6346     		mov	r3, ip
 132              	.LVL10:
 133 0024 002B     		cmp	r3, #0
 134 0026 2ED0     		beq	.L9
 135 0028 0023     		movs	r3, #0
 136              	.LBB40:
  84:../../../../../../Middlewares/Third_Party/LoRaWAN/Mac/region/RegionCommon.c ****             {// Check datarate validity for enabled channels
 137              		.loc 1 84 0
 138 002a 0122     		movs	r2, #1
 139              	.LVL11:
 140              	.LBE40:
  80:../../../../../../Middlewares/Third_Party/LoRaWAN/Mac/region/RegionCommon.c ****     {
 141              		.loc 1 80 0
 142 002c 9946     		mov	r9, r3
 143 002e 9A46     		mov	r10, r3
 144              	.LBB43:
  86:../../../../../../Middlewares/Third_Party/LoRaWAN/Mac/region/RegionCommon.c ****                                                   ( channels[i + j].DrRange.Fields.Max & 0x0F ) ) =
 145              		.loc 1 86 0
 146 0030 0F30     		adds	r0, r0, #15
 147              	.LVL12:
 148              	.L12:
  84:../../../../../../Middlewares/Third_Party/LoRaWAN/Mac/region/RegionCommon.c ****             {// Check datarate validity for enabled channels
 149              		.loc 1 84 0
 150 0032 5346     		mov	r3, r10
 151 0034 4446     		mov	r4, r8
 152 0036 5B00     		lsls	r3, r3, #1
 153 0038 1F5B     		ldrh	r7, [r3, r4]
 154 003a 4B46     		mov	r3, r9
 155 003c 5D00     		lsls	r5, r3, #1
 156 003e 0A9B     		ldr	r3, [sp, #40]
 157 0040 0024     		movs	r4, #0
 158 0042 9B46     		mov	fp, r3
 159 0044 4D44     		add	r5, r5, r9
 160 0046 AD00     		lsls	r5, r5, #2
 161 0048 5D44     		add	r5, r5, fp
 162              	.L11:
 163              	.LVL13:
 164 004a 3B00     		movs	r3, r7
 165 004c 2341     		asrs	r3, r3, r4
 166 004e 1A42     		tst	r2, r3
 167 0050 0AD0     		beq	.L10
  87:../../../../../../Middlewares/Third_Party/LoRaWAN/Mac/region/RegionCommon.c ****                 {
 168              		.loc 1 87 0
 169 0052 2B7A     		ldrb	r3, [r5, #8]
 170 0054 5EB2     		sxtb	r6, r3
  86:../../../../../../Middlewares/Third_Party/LoRaWAN/Mac/region/RegionCommon.c ****                                                   ( channels[i + j].DrRange.Fields.Max & 0x0F ) ) =
 171              		.loc 1 86 0
 172 0056 1B07     		lsls	r3, r3, #28
 173 0058 1B17     		asrs	r3, r3, #28
  87:../../../../../../Middlewares/Third_Party/LoRaWAN/Mac/region/RegionCommon.c ****                 {
 174              		.loc 1 87 0
 175 005a 3611     		asrs	r6, r6, #4
ARM GAS  C:\Users\EBANO_~1\AppData\Local\Temp\ccizkeXa.s 			page 6


 176              	.LVL14:
 177              	.LBB41:
 178              	.LBB42:
 179              		.loc 1 100 0
 180 005c 0340     		ands	r3, r0
 181 005e 9942     		cmp	r1, r3
 182 0060 02DB     		blt	.L10
 183 0062 0640     		ands	r6, r0
 184              	.LVL15:
 185 0064 B142     		cmp	r1, r6
 186 0066 14DD     		ble	.L16
 187              	.LVL16:
 188              	.L10:
 189 0068 0134     		adds	r4, r4, #1
 190              	.LVL17:
 191 006a 0C35     		adds	r5, r5, #12
 192              	.LBE42:
 193              	.LBE41:
  82:../../../../../../Middlewares/Third_Party/LoRaWAN/Mac/region/RegionCommon.c ****         {
 194              		.loc 1 82 0
 195 006c 102C     		cmp	r4, #16
 196 006e ECD1     		bne	.L11
 197              	.LBE43:
  80:../../../../../../Middlewares/Third_Party/LoRaWAN/Mac/region/RegionCommon.c ****     {
 198              		.loc 1 80 0
 199 0070 4B46     		mov	r3, r9
 200 0072 1033     		adds	r3, r3, #16
 201 0074 DBB2     		uxtb	r3, r3
 202 0076 9946     		mov	r9, r3
 203              	.LVL18:
 204 0078 5346     		mov	r3, r10
 205 007a 0133     		adds	r3, r3, #1
 206 007c DBB2     		uxtb	r3, r3
 207 007e 9A46     		mov	r10, r3
 208              	.LVL19:
 209 0080 CC45     		cmp	ip, r9
 210 0082 D6D8     		bhi	.L12
 211              	.LBE39:
 212              	.LBE38:
  77:../../../../../../Middlewares/Third_Party/LoRaWAN/Mac/region/RegionCommon.c ****     }
 213              		.loc 1 77 0
 214 0084 0020     		movs	r0, #0
 215              	.LVL20:
 216              	.L9:
  96:../../../../../../Middlewares/Third_Party/LoRaWAN/Mac/region/RegionCommon.c **** 
 217              		.loc 1 96 0
 218              		@ sp needed
 219              	.LVL21:
 220 0086 3CBC     		pop	{r2, r3, r4, r5}
 221 0088 9046     		mov	r8, r2
 222 008a 9946     		mov	r9, r3
 223 008c A246     		mov	r10, r4
 224 008e AB46     		mov	fp, r5
 225 0090 F0BD     		pop	{r4, r5, r6, r7, pc}
 226              	.LVL22:
 227              	.L16:
 228              	.LBB46:
ARM GAS  C:\Users\EBANO_~1\AppData\Local\Temp\ccizkeXa.s 			page 7


 229              	.LBB45:
 230              	.LBB44:
  90:../../../../../../Middlewares/Third_Party/LoRaWAN/Mac/region/RegionCommon.c ****                 }
 231              		.loc 1 90 0
 232 0092 0120     		movs	r0, #1
 233 0094 F7E7     		b	.L9
 234              	.LBE44:
 235              	.LBE45:
 236              	.LBE46:
 237              		.cfi_endproc
 238              	.LFE41:
 239              		.size	RegionCommonChanVerifyDr, .-RegionCommonChanVerifyDr
 240 0096 C046     		.section	.text.RegionCommonValueInRange,"ax",%progbits
 241              		.align	1
 242              		.p2align 2,,3
 243              		.global	RegionCommonValueInRange
 244              		.syntax unified
 245              		.code	16
 246              		.thumb_func
 247              		.fpu softvfp
 248              		.type	RegionCommonValueInRange, %function
 249              	RegionCommonValueInRange:
 250              	.LFB42:
  99:../../../../../../Middlewares/Third_Party/LoRaWAN/Mac/region/RegionCommon.c ****     if( ( value >= min ) && ( value <= max ) )
 251              		.loc 1 99 0
 252              		.cfi_startproc
 253              		@ args = 0, pretend = 0, frame = 0
 254              		@ frame_needed = 0, uses_anonymous_args = 0
 255              		@ link register save eliminated.
 256              	.LVL23:
 101:../../../../../../Middlewares/Third_Party/LoRaWAN/Mac/region/RegionCommon.c ****     {
 102:../../../../../../Middlewares/Third_Party/LoRaWAN/Mac/region/RegionCommon.c ****         return 1;
 103:../../../../../../Middlewares/Third_Party/LoRaWAN/Mac/region/RegionCommon.c ****     }
 104:../../../../../../Middlewares/Third_Party/LoRaWAN/Mac/region/RegionCommon.c ****     return 0;
 257              		.loc 1 104 0
 258 0000 0023     		movs	r3, #0
 100:../../../../../../Middlewares/Third_Party/LoRaWAN/Mac/region/RegionCommon.c ****     {
 259              		.loc 1 100 0
 260 0002 8842     		cmp	r0, r1
 261 0004 04DB     		blt	.L23
 100:../../../../../../Middlewares/Third_Party/LoRaWAN/Mac/region/RegionCommon.c ****     {
 262              		.loc 1 100 0 is_stmt 0 discriminator 1
 263 0006 C30F     		lsrs	r3, r0, #31
 264 0008 D117     		asrs	r1, r2, #31
 265              	.LVL24:
 266 000a 8242     		cmp	r2, r0
 267 000c 4B41     		adcs	r3, r3, r1
 102:../../../../../../Middlewares/Third_Party/LoRaWAN/Mac/region/RegionCommon.c ****     }
 268              		.loc 1 102 0 is_stmt 1 discriminator 1
 269 000e DBB2     		uxtb	r3, r3
 270              	.L23:
 105:../../../../../../Middlewares/Third_Party/LoRaWAN/Mac/region/RegionCommon.c **** }
 271              		.loc 1 105 0
 272 0010 1800     		movs	r0, r3
 273              	.LVL25:
 274              		@ sp needed
 275 0012 7047     		bx	lr
ARM GAS  C:\Users\EBANO_~1\AppData\Local\Temp\ccizkeXa.s 			page 8


 276              		.cfi_endproc
 277              	.LFE42:
 278              		.size	RegionCommonValueInRange, .-RegionCommonValueInRange
 279              		.section	.text.RegionCommonChanDisable,"ax",%progbits
 280              		.align	1
 281              		.p2align 2,,3
 282              		.global	RegionCommonChanDisable
 283              		.syntax unified
 284              		.code	16
 285              		.thumb_func
 286              		.fpu softvfp
 287              		.type	RegionCommonChanDisable, %function
 288              	RegionCommonChanDisable:
 289              	.LFB43:
 106:../../../../../../Middlewares/Third_Party/LoRaWAN/Mac/region/RegionCommon.c **** 
 107:../../../../../../Middlewares/Third_Party/LoRaWAN/Mac/region/RegionCommon.c **** bool RegionCommonChanDisable( uint16_t* channelsMask, uint8_t id, uint8_t maxChannels )
 108:../../../../../../Middlewares/Third_Party/LoRaWAN/Mac/region/RegionCommon.c **** {
 290              		.loc 1 108 0
 291              		.cfi_startproc
 292              		@ args = 0, pretend = 0, frame = 0
 293              		@ frame_needed = 0, uses_anonymous_args = 0
 294              	.LVL26:
 295 0000 30B5     		push	{r4, r5, lr}
 296              	.LCFI2:
 297              		.cfi_def_cfa_offset 12
 298              		.cfi_offset 4, -12
 299              		.cfi_offset 5, -8
 300              		.cfi_offset 14, -4
 109:../../../../../../Middlewares/Third_Party/LoRaWAN/Mac/region/RegionCommon.c ****     uint8_t index = id / 16;
 301              		.loc 1 109 0
 302 0002 0B09     		lsrs	r3, r1, #4
 303              	.LVL27:
 110:../../../../../../Middlewares/Third_Party/LoRaWAN/Mac/region/RegionCommon.c **** 
 111:../../../../../../Middlewares/Third_Party/LoRaWAN/Mac/region/RegionCommon.c ****     if( ( index > ( maxChannels / 16 ) ) || ( id >= maxChannels ) )
 304              		.loc 1 111 0
 305 0004 1509     		lsrs	r5, r2, #4
 112:../../../../../../Middlewares/Third_Party/LoRaWAN/Mac/region/RegionCommon.c ****     {
 113:../../../../../../Middlewares/Third_Party/LoRaWAN/Mac/region/RegionCommon.c ****         return false;
 306              		.loc 1 113 0
 307 0006 0024     		movs	r4, #0
 111:../../../../../../Middlewares/Third_Party/LoRaWAN/Mac/region/RegionCommon.c ****     {
 308              		.loc 1 111 0
 309 0008 9D42     		cmp	r5, r3
 310 000a 0BD3     		bcc	.L26
 111:../../../../../../Middlewares/Third_Party/LoRaWAN/Mac/region/RegionCommon.c ****     {
 311              		.loc 1 111 0 is_stmt 0 discriminator 1
 312 000c 9142     		cmp	r1, r2
 313 000e 09D2     		bcs	.L26
 114:../../../../../../Middlewares/Third_Party/LoRaWAN/Mac/region/RegionCommon.c ****     }
 115:../../../../../../Middlewares/Third_Party/LoRaWAN/Mac/region/RegionCommon.c **** 
 116:../../../../../../Middlewares/Third_Party/LoRaWAN/Mac/region/RegionCommon.c ****     // Deactivate channel
 117:../../../../../../Middlewares/Third_Party/LoRaWAN/Mac/region/RegionCommon.c ****     channelsMask[index] &= ~( 1 << ( id % 16 ) );
 314              		.loc 1 117 0 is_stmt 1
 315 0010 0F22     		movs	r2, #15
 316              	.LVL28:
 317 0012 0A40     		ands	r2, r1
 318 0014 0121     		movs	r1, #1
ARM GAS  C:\Users\EBANO_~1\AppData\Local\Temp\ccizkeXa.s 			page 9


 319              	.LVL29:
 320 0016 9140     		lsls	r1, r1, r2
 321 0018 5B00     		lsls	r3, r3, #1
 322              	.LVL30:
 323 001a C318     		adds	r3, r0, r3
 324 001c 1A88     		ldrh	r2, [r3]
 118:../../../../../../Middlewares/Third_Party/LoRaWAN/Mac/region/RegionCommon.c **** 
 119:../../../../../../Middlewares/Third_Party/LoRaWAN/Mac/region/RegionCommon.c ****     return true;
 325              		.loc 1 119 0
 326 001e 0134     		adds	r4, r4, #1
 117:../../../../../../Middlewares/Third_Party/LoRaWAN/Mac/region/RegionCommon.c **** 
 327              		.loc 1 117 0
 328 0020 8A43     		bics	r2, r1
 329 0022 1A80     		strh	r2, [r3]
 330              	.L26:
 120:../../../../../../Middlewares/Third_Party/LoRaWAN/Mac/region/RegionCommon.c **** }
 331              		.loc 1 120 0
 332 0024 2000     		movs	r0, r4
 333              	.LVL31:
 334              		@ sp needed
 335 0026 30BD     		pop	{r4, r5, pc}
 336              		.cfi_endproc
 337              	.LFE43:
 338              		.size	RegionCommonChanDisable, .-RegionCommonChanDisable
 339              		.section	.text.RegionCommonCountChannels,"ax",%progbits
 340              		.align	1
 341              		.p2align 2,,3
 342              		.global	RegionCommonCountChannels
 343              		.syntax unified
 344              		.code	16
 345              		.thumb_func
 346              		.fpu softvfp
 347              		.type	RegionCommonCountChannels, %function
 348              	RegionCommonCountChannels:
 349              	.LFB44:
 121:../../../../../../Middlewares/Third_Party/LoRaWAN/Mac/region/RegionCommon.c **** 
 122:../../../../../../Middlewares/Third_Party/LoRaWAN/Mac/region/RegionCommon.c **** uint8_t RegionCommonCountChannels( uint16_t* channelsMask, uint8_t startIdx, uint8_t stopIdx )
 123:../../../../../../Middlewares/Third_Party/LoRaWAN/Mac/region/RegionCommon.c **** {
 350              		.loc 1 123 0
 351              		.cfi_startproc
 352              		@ args = 0, pretend = 0, frame = 0
 353              		@ frame_needed = 0, uses_anonymous_args = 0
 354              	.LVL32:
 355 0000 F0B5     		push	{r4, r5, r6, r7, lr}
 356              	.LCFI3:
 357              		.cfi_def_cfa_offset 20
 358              		.cfi_offset 4, -20
 359              		.cfi_offset 5, -16
 360              		.cfi_offset 6, -12
 361              		.cfi_offset 7, -8
 362              		.cfi_offset 14, -4
 363 0002 DE46     		mov	lr, fp
 364 0004 5746     		mov	r7, r10
 365 0006 4E46     		mov	r6, r9
 366 0008 4546     		mov	r5, r8
 367 000a E0B5     		push	{r5, r6, r7, lr}
 368              	.LCFI4:
ARM GAS  C:\Users\EBANO_~1\AppData\Local\Temp\ccizkeXa.s 			page 10


 369              		.cfi_def_cfa_offset 36
 370              		.cfi_offset 8, -36
 371              		.cfi_offset 9, -32
 372              		.cfi_offset 10, -28
 373              		.cfi_offset 11, -24
 124:../../../../../../Middlewares/Third_Party/LoRaWAN/Mac/region/RegionCommon.c ****     uint8_t nbChannels = 0;
 125:../../../../../../Middlewares/Third_Party/LoRaWAN/Mac/region/RegionCommon.c **** 
 126:../../../../../../Middlewares/Third_Party/LoRaWAN/Mac/region/RegionCommon.c ****     if( channelsMask == NULL )
 374              		.loc 1 126 0
 375 000c 0028     		cmp	r0, #0
 376 000e 6BD0     		beq	.L50
 377              	.LVL33:
 378              	.LBB47:
 127:../../../../../../Middlewares/Third_Party/LoRaWAN/Mac/region/RegionCommon.c ****     {
 128:../../../../../../Middlewares/Third_Party/LoRaWAN/Mac/region/RegionCommon.c ****         return 0;
 129:../../../../../../Middlewares/Third_Party/LoRaWAN/Mac/region/RegionCommon.c ****     }
 130:../../../../../../Middlewares/Third_Party/LoRaWAN/Mac/region/RegionCommon.c **** 
 131:../../../../../../Middlewares/Third_Party/LoRaWAN/Mac/region/RegionCommon.c ****     for( uint8_t i = startIdx; i < stopIdx; i++ )
 379              		.loc 1 131 0
 380 0010 9142     		cmp	r1, r2
 381 0012 69D2     		bcs	.L50
 382 0014 013A     		subs	r2, r2, #1
 383              	.LVL34:
 384 0016 531A     		subs	r3, r2, r1
 385 0018 DBB2     		uxtb	r3, r3
 386 001a 4C00     		lsls	r4, r1, #1
 387 001c 5918     		adds	r1, r3, r1
 388              	.LVL35:
 389              	.LBB48:
 390              	.LBB49:
  42:../../../../../../Middlewares/Third_Party/LoRaWAN/Mac/region/RegionCommon.c **** 
 391              		.loc 1 42 0
 392 001e 0123     		movs	r3, #1
 393 0020 9B46     		mov	fp, r3
 394              	.LBB50:
  46:../../../../../../Middlewares/Third_Party/LoRaWAN/Mac/region/RegionCommon.c ****         {
 395              		.loc 1 46 0
 396 0022 0133     		adds	r3, r3, #1
 397 0024 9A46     		mov	r10, r3
 398 0026 0233     		adds	r3, r3, #2
 399 0028 9946     		mov	r9, r3
 400 002a 0433     		adds	r3, r3, #4
 401 002c 0419     		adds	r4, r0, r4
 402 002e 4900     		lsls	r1, r1, #1
 403 0030 0230     		adds	r0, r0, #2
 404              	.LVL36:
 405 0032 9846     		mov	r8, r3
 406 0034 0833     		adds	r3, r3, #8
 407 0036 0918     		adds	r1, r1, r0
 408 0038 9C46     		mov	ip, r3
 409              	.LBE50:
 410              	.LBE49:
 411              	.LBE48:
 412              	.LBE47:
 124:../../../../../../Middlewares/Third_Party/LoRaWAN/Mac/region/RegionCommon.c **** 
 413              		.loc 1 124 0
 414 003a 0020     		movs	r0, #0
ARM GAS  C:\Users\EBANO_~1\AppData\Local\Temp\ccizkeXa.s 			page 11


 415              	.LVL37:
 416              	.LBB61:
 417              	.LBB58:
 418              	.LBB55:
 419              	.LBB51:
  46:../../../../../../Middlewares/Third_Party/LoRaWAN/Mac/region/RegionCommon.c ****         {
 420              		.loc 1 46 0
 421 003c 2027     		movs	r7, #32
 422 003e 4026     		movs	r6, #64
 423              	.LVL38:
 424              	.L31:
 425              	.LBE51:
  42:../../../../../../Middlewares/Third_Party/LoRaWAN/Mac/region/RegionCommon.c **** 
 426              		.loc 1 42 0
 427 0040 5B46     		mov	r3, fp
 428              	.LBB52:
  46:../../../../../../Middlewares/Third_Party/LoRaWAN/Mac/region/RegionCommon.c ****         {
 429              		.loc 1 46 0
 430 0042 5546     		mov	r5, r10
 431              	.LBE52:
 432              	.LBE55:
 433              	.LBE58:
 132:../../../../../../Middlewares/Third_Party/LoRaWAN/Mac/region/RegionCommon.c ****     {
 133:../../../../../../Middlewares/Third_Party/LoRaWAN/Mac/region/RegionCommon.c ****         nbChannels += CountChannels( channelsMask[i], 16 );
 434              		.loc 1 133 0
 435 0044 2288     		ldrh	r2, [r4]
 436              	.LVL39:
 437              	.LBB59:
 438              	.LBB56:
  42:../../../../../../Middlewares/Third_Party/LoRaWAN/Mac/region/RegionCommon.c **** 
 439              		.loc 1 42 0
 440 0046 1340     		ands	r3, r2
 441              	.LVL40:
 442              	.LBB53:
  46:../../../../../../Middlewares/Third_Party/LoRaWAN/Mac/region/RegionCommon.c ****         {
 443              		.loc 1 46 0
 444 0048 1542     		tst	r5, r2
 445 004a 00D0     		beq	.L32
  48:../../../../../../Middlewares/Third_Party/LoRaWAN/Mac/region/RegionCommon.c ****         }
 446              		.loc 1 48 0
 447 004c 0133     		adds	r3, r3, #1
 448              	.LVL41:
 449              	.L32:
  46:../../../../../../Middlewares/Third_Party/LoRaWAN/Mac/region/RegionCommon.c ****         {
 450              		.loc 1 46 0
 451 004e 4D46     		mov	r5, r9
 452 0050 1542     		tst	r5, r2
 453 0052 01D0     		beq	.L33
  48:../../../../../../Middlewares/Third_Party/LoRaWAN/Mac/region/RegionCommon.c ****         }
 454              		.loc 1 48 0
 455 0054 0133     		adds	r3, r3, #1
 456              	.LVL42:
 457 0056 DBB2     		uxtb	r3, r3
 458              	.LVL43:
 459              	.L33:
  46:../../../../../../Middlewares/Third_Party/LoRaWAN/Mac/region/RegionCommon.c ****         {
 460              		.loc 1 46 0
ARM GAS  C:\Users\EBANO_~1\AppData\Local\Temp\ccizkeXa.s 			page 12


 461 0058 4546     		mov	r5, r8
 462 005a 1542     		tst	r5, r2
 463 005c 01D0     		beq	.L34
  48:../../../../../../Middlewares/Third_Party/LoRaWAN/Mac/region/RegionCommon.c ****         }
 464              		.loc 1 48 0
 465 005e 0133     		adds	r3, r3, #1
 466              	.LVL44:
 467 0060 DBB2     		uxtb	r3, r3
 468              	.LVL45:
 469              	.L34:
  46:../../../../../../Middlewares/Third_Party/LoRaWAN/Mac/region/RegionCommon.c ****         {
 470              		.loc 1 46 0
 471 0062 6546     		mov	r5, ip
 472 0064 1542     		tst	r5, r2
 473 0066 01D0     		beq	.L35
  48:../../../../../../Middlewares/Third_Party/LoRaWAN/Mac/region/RegionCommon.c ****         }
 474              		.loc 1 48 0
 475 0068 0133     		adds	r3, r3, #1
 476              	.LVL46:
 477 006a DBB2     		uxtb	r3, r3
 478              	.LVL47:
 479              	.L35:
  46:../../../../../../Middlewares/Third_Party/LoRaWAN/Mac/region/RegionCommon.c ****         {
 480              		.loc 1 46 0
 481 006c 1742     		tst	r7, r2
 482 006e 01D0     		beq	.L36
  48:../../../../../../Middlewares/Third_Party/LoRaWAN/Mac/region/RegionCommon.c ****         }
 483              		.loc 1 48 0
 484 0070 0133     		adds	r3, r3, #1
 485              	.LVL48:
 486 0072 DBB2     		uxtb	r3, r3
 487              	.LVL49:
 488              	.L36:
  46:../../../../../../Middlewares/Third_Party/LoRaWAN/Mac/region/RegionCommon.c ****         {
 489              		.loc 1 46 0
 490 0074 1642     		tst	r6, r2
 491 0076 01D0     		beq	.L37
  48:../../../../../../Middlewares/Third_Party/LoRaWAN/Mac/region/RegionCommon.c ****         }
 492              		.loc 1 48 0
 493 0078 0133     		adds	r3, r3, #1
 494              	.LVL50:
 495 007a DBB2     		uxtb	r3, r3
 496              	.LVL51:
 497              	.L37:
  46:../../../../../../Middlewares/Third_Party/LoRaWAN/Mac/region/RegionCommon.c ****         {
 498              		.loc 1 46 0
 499 007c 8025     		movs	r5, #128
 500 007e 1542     		tst	r5, r2
 501 0080 01D0     		beq	.L38
  48:../../../../../../Middlewares/Third_Party/LoRaWAN/Mac/region/RegionCommon.c ****         }
 502              		.loc 1 48 0
 503 0082 0133     		adds	r3, r3, #1
 504              	.LVL52:
 505 0084 DBB2     		uxtb	r3, r3
 506              	.LVL53:
 507              	.L38:
  46:../../../../../../Middlewares/Third_Party/LoRaWAN/Mac/region/RegionCommon.c ****         {
ARM GAS  C:\Users\EBANO_~1\AppData\Local\Temp\ccizkeXa.s 			page 13


 508              		.loc 1 46 0
 509 0086 D505     		lsls	r5, r2, #23
 510 0088 01D5     		bpl	.L39
  48:../../../../../../Middlewares/Third_Party/LoRaWAN/Mac/region/RegionCommon.c ****         }
 511              		.loc 1 48 0
 512 008a 0133     		adds	r3, r3, #1
 513              	.LVL54:
 514 008c DBB2     		uxtb	r3, r3
 515              	.LVL55:
 516              	.L39:
  46:../../../../../../Middlewares/Third_Party/LoRaWAN/Mac/region/RegionCommon.c ****         {
 517              		.loc 1 46 0
 518 008e 9505     		lsls	r5, r2, #22
 519 0090 01D5     		bpl	.L40
  48:../../../../../../Middlewares/Third_Party/LoRaWAN/Mac/region/RegionCommon.c ****         }
 520              		.loc 1 48 0
 521 0092 0133     		adds	r3, r3, #1
 522              	.LVL56:
 523 0094 DBB2     		uxtb	r3, r3
 524              	.LVL57:
 525              	.L40:
  46:../../../../../../Middlewares/Third_Party/LoRaWAN/Mac/region/RegionCommon.c ****         {
 526              		.loc 1 46 0
 527 0096 5505     		lsls	r5, r2, #21
 528 0098 01D5     		bpl	.L41
  48:../../../../../../Middlewares/Third_Party/LoRaWAN/Mac/region/RegionCommon.c ****         }
 529              		.loc 1 48 0
 530 009a 0133     		adds	r3, r3, #1
 531              	.LVL58:
 532 009c DBB2     		uxtb	r3, r3
 533              	.LVL59:
 534              	.L41:
  46:../../../../../../Middlewares/Third_Party/LoRaWAN/Mac/region/RegionCommon.c ****         {
 535              		.loc 1 46 0
 536 009e 1505     		lsls	r5, r2, #20
 537 00a0 01D5     		bpl	.L42
  48:../../../../../../Middlewares/Third_Party/LoRaWAN/Mac/region/RegionCommon.c ****         }
 538              		.loc 1 48 0
 539 00a2 0133     		adds	r3, r3, #1
 540              	.LVL60:
 541 00a4 DBB2     		uxtb	r3, r3
 542              	.LVL61:
 543              	.L42:
  46:../../../../../../Middlewares/Third_Party/LoRaWAN/Mac/region/RegionCommon.c ****         {
 544              		.loc 1 46 0
 545 00a6 D504     		lsls	r5, r2, #19
 546 00a8 01D5     		bpl	.L43
  48:../../../../../../Middlewares/Third_Party/LoRaWAN/Mac/region/RegionCommon.c ****         }
 547              		.loc 1 48 0
 548 00aa 0133     		adds	r3, r3, #1
 549              	.LVL62:
 550 00ac DBB2     		uxtb	r3, r3
 551              	.LVL63:
 552              	.L43:
  46:../../../../../../Middlewares/Third_Party/LoRaWAN/Mac/region/RegionCommon.c ****         {
 553              		.loc 1 46 0
 554 00ae 9504     		lsls	r5, r2, #18
ARM GAS  C:\Users\EBANO_~1\AppData\Local\Temp\ccizkeXa.s 			page 14


 555 00b0 01D5     		bpl	.L44
  48:../../../../../../Middlewares/Third_Party/LoRaWAN/Mac/region/RegionCommon.c ****         }
 556              		.loc 1 48 0
 557 00b2 0133     		adds	r3, r3, #1
 558              	.LVL64:
 559 00b4 DBB2     		uxtb	r3, r3
 560              	.LVL65:
 561              	.L44:
  46:../../../../../../Middlewares/Third_Party/LoRaWAN/Mac/region/RegionCommon.c ****         {
 562              		.loc 1 46 0
 563 00b6 5504     		lsls	r5, r2, #17
 564 00b8 01D5     		bpl	.L45
  48:../../../../../../Middlewares/Third_Party/LoRaWAN/Mac/region/RegionCommon.c ****         }
 565              		.loc 1 48 0
 566 00ba 0133     		adds	r3, r3, #1
 567              	.LVL66:
 568 00bc DBB2     		uxtb	r3, r3
 569              	.LVL67:
 570              	.L45:
  46:../../../../../../Middlewares/Third_Party/LoRaWAN/Mac/region/RegionCommon.c ****         {
 571              		.loc 1 46 0
 572 00be 12B2     		sxth	r2, r2
 573 00c0 002A     		cmp	r2, #0
 574 00c2 0ADB     		blt	.L93
 575              	.LVL68:
 576              	.LBE53:
 577              	.LBE56:
 578              	.LBE59:
 579              		.loc 1 133 0
 580 00c4 C018     		adds	r0, r0, r3
 581              	.LVL69:
 582 00c6 0234     		adds	r4, r4, #2
 583 00c8 C0B2     		uxtb	r0, r0
 584              	.LVL70:
 131:../../../../../../Middlewares/Third_Party/LoRaWAN/Mac/region/RegionCommon.c ****     {
 585              		.loc 1 131 0
 586 00ca A142     		cmp	r1, r4
 587 00cc B8D1     		bne	.L31
 588              	.LVL71:
 589              	.L30:
 590              	.LBE61:
 134:../../../../../../Middlewares/Third_Party/LoRaWAN/Mac/region/RegionCommon.c ****     }
 135:../../../../../../Middlewares/Third_Party/LoRaWAN/Mac/region/RegionCommon.c **** 
 136:../../../../../../Middlewares/Third_Party/LoRaWAN/Mac/region/RegionCommon.c ****     return nbChannels;
 137:../../../../../../Middlewares/Third_Party/LoRaWAN/Mac/region/RegionCommon.c **** }
 591              		.loc 1 137 0
 592              		@ sp needed
 593 00ce 3CBC     		pop	{r2, r3, r4, r5}
 594 00d0 9046     		mov	r8, r2
 595 00d2 9946     		mov	r9, r3
 596 00d4 A246     		mov	r10, r4
 597 00d6 AB46     		mov	fp, r5
 598 00d8 F0BD     		pop	{r4, r5, r6, r7, pc}
 599              	.LVL72:
 600              	.L93:
 601              	.LBB62:
 602              	.LBB60:
ARM GAS  C:\Users\EBANO_~1\AppData\Local\Temp\ccizkeXa.s 			page 15


 603              	.LBB57:
 604              	.LBB54:
  48:../../../../../../Middlewares/Third_Party/LoRaWAN/Mac/region/RegionCommon.c ****         }
 605              		.loc 1 48 0
 606 00da 0133     		adds	r3, r3, #1
 607              	.LBE54:
 608              	.LBE57:
 609              	.LBE60:
 133:../../../../../../Middlewares/Third_Party/LoRaWAN/Mac/region/RegionCommon.c ****     }
 610              		.loc 1 133 0
 611 00dc C018     		adds	r0, r0, r3
 612              	.LVL73:
 613 00de 0234     		adds	r4, r4, #2
 614 00e0 C0B2     		uxtb	r0, r0
 615              	.LVL74:
 131:../../../../../../Middlewares/Third_Party/LoRaWAN/Mac/region/RegionCommon.c ****     {
 616              		.loc 1 131 0
 617 00e2 A142     		cmp	r1, r4
 618 00e4 ACD1     		bne	.L31
 619 00e6 F2E7     		b	.L30
 620              	.LVL75:
 621              	.L50:
 622              	.LBE62:
 128:../../../../../../Middlewares/Third_Party/LoRaWAN/Mac/region/RegionCommon.c ****     }
 623              		.loc 1 128 0
 624 00e8 0020     		movs	r0, #0
 625              	.LVL76:
 626 00ea F0E7     		b	.L30
 627              		.cfi_endproc
 628              	.LFE44:
 629              		.size	RegionCommonCountChannels, .-RegionCommonCountChannels
 630              		.section	.text.RegionCommonChanMaskCopy,"ax",%progbits
 631              		.align	1
 632              		.p2align 2,,3
 633              		.global	RegionCommonChanMaskCopy
 634              		.syntax unified
 635              		.code	16
 636              		.thumb_func
 637              		.fpu softvfp
 638              		.type	RegionCommonChanMaskCopy, %function
 639              	RegionCommonChanMaskCopy:
 640              	.LFB45:
 138:../../../../../../Middlewares/Third_Party/LoRaWAN/Mac/region/RegionCommon.c **** 
 139:../../../../../../Middlewares/Third_Party/LoRaWAN/Mac/region/RegionCommon.c **** void RegionCommonChanMaskCopy( uint16_t* channelsMaskDest, uint16_t* channelsMaskSrc, uint8_t len )
 140:../../../../../../Middlewares/Third_Party/LoRaWAN/Mac/region/RegionCommon.c **** {
 641              		.loc 1 140 0
 642              		.cfi_startproc
 643              		@ args = 0, pretend = 0, frame = 0
 644              		@ frame_needed = 0, uses_anonymous_args = 0
 645              	.LVL77:
 646 0000 70B5     		push	{r4, r5, r6, lr}
 647              	.LCFI5:
 648              		.cfi_def_cfa_offset 16
 649              		.cfi_offset 4, -16
 650              		.cfi_offset 5, -12
 651              		.cfi_offset 6, -8
 652              		.cfi_offset 14, -4
ARM GAS  C:\Users\EBANO_~1\AppData\Local\Temp\ccizkeXa.s 			page 16


 141:../../../../../../Middlewares/Third_Party/LoRaWAN/Mac/region/RegionCommon.c ****     if( ( channelsMaskDest != NULL ) && ( channelsMaskSrc != NULL ) )
 653              		.loc 1 141 0
 654 0002 0028     		cmp	r0, #0
 655 0004 29D0     		beq	.L94
 656              		.loc 1 141 0 is_stmt 0 discriminator 1
 657 0006 0029     		cmp	r1, #0
 658 0008 27D0     		beq	.L94
 659              	.LVL78:
 660              	.LBB63:
 142:../../../../../../Middlewares/Third_Party/LoRaWAN/Mac/region/RegionCommon.c ****     {
 143:../../../../../../Middlewares/Third_Party/LoRaWAN/Mac/region/RegionCommon.c ****         for( uint8_t i = 0; i < len; i++ )
 661              		.loc 1 143 0 is_stmt 1
 662 000a 002A     		cmp	r2, #0
 663 000c 25D0     		beq	.L94
 664 000e 0023     		movs	r3, #0
 665 0010 1D00     		movs	r5, r3
 666 0012 041D     		adds	r4, r0, #4
 667 0014 A142     		cmp	r1, r4
 668 0016 5D41     		adcs	r5, r5, r3
 669 0018 2C00     		movs	r4, r5
 670 001a 0D1D     		adds	r5, r1, #4
 671 001c A842     		cmp	r0, r5
 672 001e 5B41     		adcs	r3, r3, r3
 673 0020 2343     		orrs	r3, r4
 674 0022 0C24     		movs	r4, #12
 675 0024 9442     		cmp	r4, r2
 676 0026 A441     		sbcs	r4, r4, r4
 677 0028 6442     		rsbs	r4, r4, #0
 678 002a 1C42     		tst	r4, r3
 679 002c 16D0     		beq	.L96
 680 002e 0300     		movs	r3, r0
 681 0030 0B43     		orrs	r3, r1
 682 0032 9B07     		lsls	r3, r3, #30
 683 0034 12D1     		bne	.L96
 684 0036 0023     		movs	r3, #0
 685 0038 0024     		movs	r4, #0
 686 003a 5608     		lsrs	r6, r2, #1
 687              	.LVL79:
 688              	.L97:
 144:../../../../../../Middlewares/Third_Party/LoRaWAN/Mac/region/RegionCommon.c ****         {
 145:../../../../../../Middlewares/Third_Party/LoRaWAN/Mac/region/RegionCommon.c ****             channelsMaskDest[i] = channelsMaskSrc[i];
 689              		.loc 1 145 0 discriminator 3
 690 003c CD58     		ldr	r5, [r1, r3]
 691 003e 0134     		adds	r4, r4, #1
 692 0040 C550     		str	r5, [r0, r3]
 693 0042 E5B2     		uxtb	r5, r4
 694 0044 0433     		adds	r3, r3, #4
 695 0046 B542     		cmp	r5, r6
 696 0048 F8D3     		bcc	.L97
 697 004a 0123     		movs	r3, #1
 698 004c 1400     		movs	r4, r2
 699 004e 9C43     		bics	r4, r3
 700 0050 A242     		cmp	r2, r4
 701 0052 02D0     		beq	.L94
 702              	.LVL80:
 703              		.loc 1 145 0 is_stmt 0
 704 0054 6300     		lsls	r3, r4, #1
ARM GAS  C:\Users\EBANO_~1\AppData\Local\Temp\ccizkeXa.s 			page 17


 705 0056 CA5A     		ldrh	r2, [r1, r3]
 706              	.LVL81:
 707 0058 C252     		strh	r2, [r0, r3]
 708              	.L94:
 709              	.LBE63:
 146:../../../../../../Middlewares/Third_Party/LoRaWAN/Mac/region/RegionCommon.c ****         }
 147:../../../../../../Middlewares/Third_Party/LoRaWAN/Mac/region/RegionCommon.c ****     }
 148:../../../../../../Middlewares/Third_Party/LoRaWAN/Mac/region/RegionCommon.c **** }
 710              		.loc 1 148 0 is_stmt 1
 711              		@ sp needed
 712 005a 70BD     		pop	{r4, r5, r6, pc}
 713              	.LVL82:
 714              	.L96:
 715              	.LBB64:
 143:../../../../../../Middlewares/Third_Party/LoRaWAN/Mac/region/RegionCommon.c ****         {
 716              		.loc 1 143 0
 717 005c 0023     		movs	r3, #0
 718 005e 013A     		subs	r2, r2, #1
 719              	.LVL83:
 720 0060 D2B2     		uxtb	r2, r2
 721 0062 0132     		adds	r2, r2, #1
 722 0064 5200     		lsls	r2, r2, #1
 723              	.LVL84:
 724              	.L99:
 145:../../../../../../Middlewares/Third_Party/LoRaWAN/Mac/region/RegionCommon.c ****         }
 725              		.loc 1 145 0
 726 0066 CC5A     		ldrh	r4, [r1, r3]
 727 0068 C452     		strh	r4, [r0, r3]
 728 006a 0233     		adds	r3, r3, #2
 143:../../../../../../Middlewares/Third_Party/LoRaWAN/Mac/region/RegionCommon.c ****         {
 729              		.loc 1 143 0
 730 006c 9A42     		cmp	r2, r3
 731 006e FAD1     		bne	.L99
 732 0070 F3E7     		b	.L94
 733              	.LBE64:
 734              		.cfi_endproc
 735              	.LFE45:
 736              		.size	RegionCommonChanMaskCopy, .-RegionCommonChanMaskCopy
 737 0072 C046     		.section	.text.RegionCommonSetBandTxDone,"ax",%progbits
 738              		.align	1
 739              		.p2align 2,,3
 740              		.global	RegionCommonSetBandTxDone
 741              		.syntax unified
 742              		.code	16
 743              		.thumb_func
 744              		.fpu softvfp
 745              		.type	RegionCommonSetBandTxDone, %function
 746              	RegionCommonSetBandTxDone:
 747              	.LFB46:
 149:../../../../../../Middlewares/Third_Party/LoRaWAN/Mac/region/RegionCommon.c **** 
 150:../../../../../../Middlewares/Third_Party/LoRaWAN/Mac/region/RegionCommon.c **** void RegionCommonSetBandTxDone( bool joined, Band_t* band, TimerTime_t lastTxDone )
 151:../../../../../../Middlewares/Third_Party/LoRaWAN/Mac/region/RegionCommon.c **** {
 748              		.loc 1 151 0
 749              		.cfi_startproc
 750              		@ args = 0, pretend = 0, frame = 0
 751              		@ frame_needed = 0, uses_anonymous_args = 0
 752              		@ link register save eliminated.
ARM GAS  C:\Users\EBANO_~1\AppData\Local\Temp\ccizkeXa.s 			page 18


 753              	.LVL85:
 152:../../../../../../Middlewares/Third_Party/LoRaWAN/Mac/region/RegionCommon.c ****     if( joined == true )
 754              		.loc 1 152 0
 755 0000 0028     		cmp	r0, #0
 756 0002 00D1     		bne	.L119
 153:../../../../../../Middlewares/Third_Party/LoRaWAN/Mac/region/RegionCommon.c ****     {
 154:../../../../../../Middlewares/Third_Party/LoRaWAN/Mac/region/RegionCommon.c ****         band->LastTxDoneTime = lastTxDone;
 155:../../../../../../Middlewares/Third_Party/LoRaWAN/Mac/region/RegionCommon.c ****     }
 156:../../../../../../Middlewares/Third_Party/LoRaWAN/Mac/region/RegionCommon.c ****     else
 157:../../../../../../Middlewares/Third_Party/LoRaWAN/Mac/region/RegionCommon.c ****     {
 158:../../../../../../Middlewares/Third_Party/LoRaWAN/Mac/region/RegionCommon.c ****         band->LastTxDoneTime = lastTxDone;
 159:../../../../../../Middlewares/Third_Party/LoRaWAN/Mac/region/RegionCommon.c ****         band->LastJoinTxDoneTime = lastTxDone;
 757              		.loc 1 159 0
 758 0004 4A60     		str	r2, [r1, #4]
 759              	.L119:
 760 0006 8A60     		str	r2, [r1, #8]
 160:../../../../../../Middlewares/Third_Party/LoRaWAN/Mac/region/RegionCommon.c ****     }
 161:../../../../../../Middlewares/Third_Party/LoRaWAN/Mac/region/RegionCommon.c **** }
 761              		.loc 1 161 0
 762              		@ sp needed
 763 0008 7047     		bx	lr
 764              		.cfi_endproc
 765              	.LFE46:
 766              		.size	RegionCommonSetBandTxDone, .-RegionCommonSetBandTxDone
 767 000a C046     		.section	.text.RegionCommonUpdateBandTimeOff,"ax",%progbits
 768              		.align	1
 769              		.p2align 2,,3
 770              		.global	RegionCommonUpdateBandTimeOff
 771              		.syntax unified
 772              		.code	16
 773              		.thumb_func
 774              		.fpu softvfp
 775              		.type	RegionCommonUpdateBandTimeOff, %function
 776              	RegionCommonUpdateBandTimeOff:
 777              	.LFB47:
 162:../../../../../../Middlewares/Third_Party/LoRaWAN/Mac/region/RegionCommon.c **** 
 163:../../../../../../Middlewares/Third_Party/LoRaWAN/Mac/region/RegionCommon.c **** TimerTime_t RegionCommonUpdateBandTimeOff( bool joined, bool dutyCycle, Band_t* bands, uint8_t nbBa
 164:../../../../../../Middlewares/Third_Party/LoRaWAN/Mac/region/RegionCommon.c **** {
 778              		.loc 1 164 0
 779              		.cfi_startproc
 780              		@ args = 0, pretend = 0, frame = 0
 781              		@ frame_needed = 0, uses_anonymous_args = 0
 782              	.LVL86:
 783 0000 F0B5     		push	{r4, r5, r6, r7, lr}
 784              	.LCFI6:
 785              		.cfi_def_cfa_offset 20
 786              		.cfi_offset 4, -20
 787              		.cfi_offset 5, -16
 788              		.cfi_offset 6, -12
 789              		.cfi_offset 7, -8
 790              		.cfi_offset 14, -4
 791 0002 4F46     		mov	r7, r9
 792 0004 4646     		mov	r6, r8
 793 0006 D646     		mov	lr, r10
 794 0008 C0B5     		push	{r6, r7, lr}
 795              	.LCFI7:
 796              		.cfi_def_cfa_offset 32
ARM GAS  C:\Users\EBANO_~1\AppData\Local\Temp\ccizkeXa.s 			page 19


 797              		.cfi_offset 8, -32
 798              		.cfi_offset 9, -28
 799              		.cfi_offset 10, -24
 800              		.loc 1 164 0
 801 000a 0700     		movs	r7, r0
 802 000c 0E00     		movs	r6, r1
 803              	.LBB65:
 165:../../../../../../Middlewares/Third_Party/LoRaWAN/Mac/region/RegionCommon.c ****     TimerTime_t nextTxDelay = ( TimerTime_t )( -1 );
 166:../../../../../../Middlewares/Third_Party/LoRaWAN/Mac/region/RegionCommon.c **** 
 167:../../../../../../Middlewares/Third_Party/LoRaWAN/Mac/region/RegionCommon.c ****     // Update bands Time OFF
 168:../../../../../../Middlewares/Third_Party/LoRaWAN/Mac/region/RegionCommon.c ****     for( uint8_t i = 0; i < nbBands; i++ )
 804              		.loc 1 168 0
 805 000e 002B     		cmp	r3, #0
 806 0010 5DD0     		beq	.L133
 807 0012 013B     		subs	r3, r3, #1
 808              	.LVL87:
 809 0014 DDB2     		uxtb	r5, r3
 810              	.LBE65:
 165:../../../../../../Middlewares/Third_Party/LoRaWAN/Mac/region/RegionCommon.c ****     TimerTime_t nextTxDelay = ( TimerTime_t )( -1 );
 811              		.loc 1 165 0
 812 0016 0123     		movs	r3, #1
 813 0018 5B42     		rsbs	r3, r3, #0
 814 001a 9846     		mov	r8, r3
 815              	.LBB68:
 169:../../../../../../Middlewares/Third_Party/LoRaWAN/Mac/region/RegionCommon.c ****     {
 170:../../../../../../Middlewares/Third_Party/LoRaWAN/Mac/region/RegionCommon.c ****         if( joined == false )
 171:../../../../../../Middlewares/Third_Party/LoRaWAN/Mac/region/RegionCommon.c ****         {
 172:../../../../../../Middlewares/Third_Party/LoRaWAN/Mac/region/RegionCommon.c ****             TimerTime_t txDoneTime =  MAX( TimerGetElapsedTime( bands[i].LastJoinTxDoneTime ),
 173:../../../../../../Middlewares/Third_Party/LoRaWAN/Mac/region/RegionCommon.c ****                                         ( dutyCycle == true ) ? TimerGetElapsedTime( bands[i].LastT
 174:../../../../../../Middlewares/Third_Party/LoRaWAN/Mac/region/RegionCommon.c **** 
 175:../../../../../../Middlewares/Third_Party/LoRaWAN/Mac/region/RegionCommon.c ****             if( bands[i].TimeOff <= txDoneTime )
 176:../../../../../../Middlewares/Third_Party/LoRaWAN/Mac/region/RegionCommon.c ****             {
 177:../../../../../../Middlewares/Third_Party/LoRaWAN/Mac/region/RegionCommon.c ****                 bands[i].TimeOff = 0;
 178:../../../../../../Middlewares/Third_Party/LoRaWAN/Mac/region/RegionCommon.c ****             }
 179:../../../../../../Middlewares/Third_Party/LoRaWAN/Mac/region/RegionCommon.c ****             if( bands[i].TimeOff != 0 )
 180:../../../../../../Middlewares/Third_Party/LoRaWAN/Mac/region/RegionCommon.c ****             {
 181:../../../../../../Middlewares/Third_Party/LoRaWAN/Mac/region/RegionCommon.c ****                 nextTxDelay = MIN( bands[i].TimeOff - txDoneTime, nextTxDelay );
 182:../../../../../../Middlewares/Third_Party/LoRaWAN/Mac/region/RegionCommon.c ****             }
 183:../../../../../../Middlewares/Third_Party/LoRaWAN/Mac/region/RegionCommon.c ****         }
 184:../../../../../../Middlewares/Third_Party/LoRaWAN/Mac/region/RegionCommon.c ****         else
 185:../../../../../../Middlewares/Third_Party/LoRaWAN/Mac/region/RegionCommon.c ****         {
 186:../../../../../../Middlewares/Third_Party/LoRaWAN/Mac/region/RegionCommon.c ****             if( dutyCycle == true )
 187:../../../../../../Middlewares/Third_Party/LoRaWAN/Mac/region/RegionCommon.c ****             {
 188:../../../../../../Middlewares/Third_Party/LoRaWAN/Mac/region/RegionCommon.c ****                 if( bands[i].TimeOff <= TimerGetElapsedTime( bands[i].LastTxDoneTime ) )
 189:../../../../../../Middlewares/Third_Party/LoRaWAN/Mac/region/RegionCommon.c ****                 {
 190:../../../../../../Middlewares/Third_Party/LoRaWAN/Mac/region/RegionCommon.c ****                     bands[i].TimeOff = 0;
 191:../../../../../../Middlewares/Third_Party/LoRaWAN/Mac/region/RegionCommon.c ****                 }
 192:../../../../../../Middlewares/Third_Party/LoRaWAN/Mac/region/RegionCommon.c ****                 if( bands[i].TimeOff != 0 )
 193:../../../../../../Middlewares/Third_Party/LoRaWAN/Mac/region/RegionCommon.c ****                 {
 194:../../../../../../Middlewares/Third_Party/LoRaWAN/Mac/region/RegionCommon.c ****                     nextTxDelay = MIN( bands[i].TimeOff - TimerGetElapsedTime( bands[i].LastTxDoneT
 195:../../../../../../Middlewares/Third_Party/LoRaWAN/Mac/region/RegionCommon.c ****                                        nextTxDelay );
 196:../../../../../../Middlewares/Third_Party/LoRaWAN/Mac/region/RegionCommon.c ****                 }
 197:../../../../../../Middlewares/Third_Party/LoRaWAN/Mac/region/RegionCommon.c ****             }
 198:../../../../../../Middlewares/Third_Party/LoRaWAN/Mac/region/RegionCommon.c ****             else
 199:../../../../../../Middlewares/Third_Party/LoRaWAN/Mac/region/RegionCommon.c ****             {
 200:../../../../../../Middlewares/Third_Party/LoRaWAN/Mac/region/RegionCommon.c ****                 nextTxDelay = 0;
 816              		.loc 1 200 0
ARM GAS  C:\Users\EBANO_~1\AppData\Local\Temp\ccizkeXa.s 			page 20


 817 001c 0023     		movs	r3, #0
 818 001e 141D     		adds	r4, r2, #4
 819 0020 2D01     		lsls	r5, r5, #4
 820 0022 1432     		adds	r2, r2, #20
 821              	.LVL88:
 822 0024 AD18     		adds	r5, r5, r2
 823 0026 9946     		mov	r9, r3
 824 0028 07E0     		b	.L131
 825              	.LVL89:
 826              	.L122:
 186:../../../../../../Middlewares/Third_Party/LoRaWAN/Mac/region/RegionCommon.c ****             {
 827              		.loc 1 186 0
 828 002a 002E     		cmp	r6, #0
 829 002c 25D1     		bne	.L142
 830              	.LVL90:
 831              		.loc 1 200 0
 832 002e 0023     		movs	r3, #0
 833 0030 9846     		mov	r8, r3
 201:../../../../../../Middlewares/Third_Party/LoRaWAN/Mac/region/RegionCommon.c ****                 bands[i].TimeOff = 0;
 834              		.loc 1 201 0
 835 0032 A660     		str	r6, [r4, #8]
 836              	.LVL91:
 837              	.L127:
 838 0034 1034     		adds	r4, r4, #16
 168:../../../../../../Middlewares/Third_Party/LoRaWAN/Mac/region/RegionCommon.c ****     {
 839              		.loc 1 168 0 discriminator 2
 840 0036 A542     		cmp	r5, r4
 841 0038 16D0     		beq	.L120
 842              	.LVL92:
 843              	.L131:
 170:../../../../../../Middlewares/Third_Party/LoRaWAN/Mac/region/RegionCommon.c ****         {
 844              		.loc 1 170 0
 845 003a 002F     		cmp	r7, #0
 846 003c F5D1     		bne	.L122
 847              	.LBB66:
 172:../../../../../../Middlewares/Third_Party/LoRaWAN/Mac/region/RegionCommon.c ****                                         ( dutyCycle == true ) ? TimerGetElapsedTime( bands[i].LastT
 848              		.loc 1 172 0
 849 003e 2068     		ldr	r0, [r4]
 850 0040 FFF7FEFF 		bl	TimerGetElapsedTime
 851              	.LVL93:
 852 0044 8246     		mov	r10, r0
 853 0046 002E     		cmp	r6, #0
 854 0048 32D1     		bne	.L143
 855 004a 0028     		cmp	r0, #0
 856 004c 35D1     		bne	.L132
 857              	.L125:
 858              	.LVL94:
 175:../../../../../../Middlewares/Third_Party/LoRaWAN/Mac/region/RegionCommon.c ****             {
 859              		.loc 1 175 0 discriminator 12
 860 004e A068     		ldr	r0, [r4, #8]
 861 0050 5045     		cmp	r0, r10
 862 0052 0FD9     		bls	.L141
 179:../../../../../../Middlewares/Third_Party/LoRaWAN/Mac/region/RegionCommon.c ****             {
 863              		.loc 1 179 0
 864 0054 0028     		cmp	r0, #0
 865 0056 EDD0     		beq	.L127
 181:../../../../../../Middlewares/Third_Party/LoRaWAN/Mac/region/RegionCommon.c ****             }
ARM GAS  C:\Users\EBANO_~1\AppData\Local\Temp\ccizkeXa.s 			page 21


 866              		.loc 1 181 0
 867 0058 5346     		mov	r3, r10
 868 005a C01A     		subs	r0, r0, r3
 869 005c 8045     		cmp	r8, r0
 870 005e E9D9     		bls	.L127
 871 0060 1034     		adds	r4, r4, #16
 872 0062 8046     		mov	r8, r0
 873              	.LVL95:
 874              	.LBE66:
 168:../../../../../../Middlewares/Third_Party/LoRaWAN/Mac/region/RegionCommon.c ****     {
 875              		.loc 1 168 0
 876 0064 A542     		cmp	r5, r4
 877 0066 E8D1     		bne	.L131
 878              	.LVL96:
 879              	.L120:
 880              	.LBE68:
 202:../../../../../../Middlewares/Third_Party/LoRaWAN/Mac/region/RegionCommon.c ****             }
 203:../../../../../../Middlewares/Third_Party/LoRaWAN/Mac/region/RegionCommon.c ****         }
 204:../../../../../../Middlewares/Third_Party/LoRaWAN/Mac/region/RegionCommon.c ****     }
 205:../../../../../../Middlewares/Third_Party/LoRaWAN/Mac/region/RegionCommon.c ****     return nextTxDelay;
 206:../../../../../../Middlewares/Third_Party/LoRaWAN/Mac/region/RegionCommon.c **** }
 881              		.loc 1 206 0
 882 0068 4046     		mov	r0, r8
 883              		@ sp needed
 884 006a 1CBC     		pop	{r2, r3, r4}
 885 006c 9046     		mov	r8, r2
 886 006e 9946     		mov	r9, r3
 887 0070 A246     		mov	r10, r4
 888 0072 F0BD     		pop	{r4, r5, r6, r7, pc}
 889              	.LVL97:
 890              	.L141:
 891              	.LBB69:
 190:../../../../../../Middlewares/Third_Party/LoRaWAN/Mac/region/RegionCommon.c ****                 }
 892              		.loc 1 190 0
 893 0074 4B46     		mov	r3, r9
 894 0076 A360     		str	r3, [r4, #8]
 895 0078 DCE7     		b	.L127
 896              	.L142:
 188:../../../../../../Middlewares/Third_Party/LoRaWAN/Mac/region/RegionCommon.c ****                 {
 897              		.loc 1 188 0
 898 007a A368     		ldr	r3, [r4, #8]
 899 007c 6068     		ldr	r0, [r4, #4]
 900 007e 9A46     		mov	r10, r3
 901 0080 FFF7FEFF 		bl	TimerGetElapsedTime
 902              	.LVL98:
 903 0084 8245     		cmp	r10, r0
 904 0086 F5D9     		bls	.L141
 192:../../../../../../Middlewares/Third_Party/LoRaWAN/Mac/region/RegionCommon.c ****                 {
 905              		.loc 1 192 0
 906 0088 A368     		ldr	r3, [r4, #8]
 907 008a 9A46     		mov	r10, r3
 908 008c 002B     		cmp	r3, #0
 909 008e D1D0     		beq	.L127
 194:../../../../../../Middlewares/Third_Party/LoRaWAN/Mac/region/RegionCommon.c ****                                        nextTxDelay );
 910              		.loc 1 194 0
 911 0090 6068     		ldr	r0, [r4, #4]
 912 0092 FFF7FEFF 		bl	TimerGetElapsedTime
ARM GAS  C:\Users\EBANO_~1\AppData\Local\Temp\ccizkeXa.s 			page 22


 913              	.LVL99:
 914 0096 5346     		mov	r3, r10
 915 0098 181A     		subs	r0, r3, r0
 916 009a 4045     		cmp	r0, r8
 917 009c CAD2     		bcs	.L127
 194:../../../../../../Middlewares/Third_Party/LoRaWAN/Mac/region/RegionCommon.c ****                                        nextTxDelay );
 918              		.loc 1 194 0 is_stmt 0 discriminator 1
 919 009e A368     		ldr	r3, [r4, #8]
 920 00a0 6068     		ldr	r0, [r4, #4]
 921 00a2 9846     		mov	r8, r3
 922              	.LVL100:
 923 00a4 FFF7FEFF 		bl	TimerGetElapsedTime
 924              	.LVL101:
 925 00a8 4346     		mov	r3, r8
 926 00aa 1B1A     		subs	r3, r3, r0
 927 00ac 9846     		mov	r8, r3
 928 00ae C1E7     		b	.L127
 929              	.LVL102:
 930              	.L143:
 931              	.LBB67:
 172:../../../../../../Middlewares/Third_Party/LoRaWAN/Mac/region/RegionCommon.c ****                                         ( dutyCycle == true ) ? TimerGetElapsedTime( bands[i].LastT
 932              		.loc 1 172 0 is_stmt 1 discriminator 1
 933 00b0 6068     		ldr	r0, [r4, #4]
 934 00b2 FFF7FEFF 		bl	TimerGetElapsedTime
 935              	.LVL103:
 936 00b6 8245     		cmp	r10, r0
 937 00b8 04D9     		bls	.L124
 938              	.L132:
 172:../../../../../../Middlewares/Third_Party/LoRaWAN/Mac/region/RegionCommon.c ****                                         ( dutyCycle == true ) ? TimerGetElapsedTime( bands[i].LastT
 939              		.loc 1 172 0 is_stmt 0
 940 00ba 2068     		ldr	r0, [r4]
 941 00bc FFF7FEFF 		bl	TimerGetElapsedTime
 942              	.LVL104:
 943 00c0 8246     		mov	r10, r0
 944 00c2 C4E7     		b	.L125
 945              	.L124:
 172:../../../../../../Middlewares/Third_Party/LoRaWAN/Mac/region/RegionCommon.c ****                                         ( dutyCycle == true ) ? TimerGetElapsedTime( bands[i].LastT
 946              		.loc 1 172 0 discriminator 8
 947 00c4 6068     		ldr	r0, [r4, #4]
 948 00c6 FFF7FEFF 		bl	TimerGetElapsedTime
 949              	.LVL105:
 950 00ca 8246     		mov	r10, r0
 951 00cc BFE7     		b	.L125
 952              	.LVL106:
 953              	.L133:
 954              	.LBE67:
 955              	.LBE69:
 165:../../../../../../Middlewares/Third_Party/LoRaWAN/Mac/region/RegionCommon.c **** 
 956              		.loc 1 165 0 is_stmt 1
 957 00ce 0123     		movs	r3, #1
 958              	.LVL107:
 959 00d0 5B42     		rsbs	r3, r3, #0
 960 00d2 9846     		mov	r8, r3
 205:../../../../../../Middlewares/Third_Party/LoRaWAN/Mac/region/RegionCommon.c **** }
 961              		.loc 1 205 0
 962 00d4 C8E7     		b	.L120
 963              		.cfi_endproc
ARM GAS  C:\Users\EBANO_~1\AppData\Local\Temp\ccizkeXa.s 			page 23


 964              	.LFE47:
 965              		.size	RegionCommonUpdateBandTimeOff, .-RegionCommonUpdateBandTimeOff
 966 00d6 C046     		.section	.text.RegionCommonParseLinkAdrReq,"ax",%progbits
 967              		.align	1
 968              		.p2align 2,,3
 969              		.global	RegionCommonParseLinkAdrReq
 970              		.syntax unified
 971              		.code	16
 972              		.thumb_func
 973              		.fpu softvfp
 974              		.type	RegionCommonParseLinkAdrReq, %function
 975              	RegionCommonParseLinkAdrReq:
 976              	.LFB48:
 207:../../../../../../Middlewares/Third_Party/LoRaWAN/Mac/region/RegionCommon.c **** 
 208:../../../../../../Middlewares/Third_Party/LoRaWAN/Mac/region/RegionCommon.c **** uint8_t RegionCommonParseLinkAdrReq( uint8_t* payload, RegionCommonLinkAdrParams_t* linkAdrParams )
 209:../../../../../../Middlewares/Third_Party/LoRaWAN/Mac/region/RegionCommon.c **** {
 977              		.loc 1 209 0
 978              		.cfi_startproc
 979              		@ args = 0, pretend = 0, frame = 0
 980              		@ frame_needed = 0, uses_anonymous_args = 0
 981              	.LVL108:
 982 0000 10B5     		push	{r4, lr}
 983              	.LCFI8:
 984              		.cfi_def_cfa_offset 8
 985              		.cfi_offset 4, -8
 986              		.cfi_offset 14, -4
 210:../../../../../../Middlewares/Third_Party/LoRaWAN/Mac/region/RegionCommon.c ****     uint8_t retIndex = 0;
 211:../../../../../../Middlewares/Third_Party/LoRaWAN/Mac/region/RegionCommon.c **** 
 212:../../../../../../Middlewares/Third_Party/LoRaWAN/Mac/region/RegionCommon.c ****     if( payload[0] == SRV_MAC_LINK_ADR_REQ )
 987              		.loc 1 212 0
 988 0002 0278     		ldrb	r2, [r0]
 209:../../../../../../Middlewares/Third_Party/LoRaWAN/Mac/region/RegionCommon.c ****     uint8_t retIndex = 0;
 989              		.loc 1 209 0
 990 0004 0300     		movs	r3, r0
 210:../../../../../../Middlewares/Third_Party/LoRaWAN/Mac/region/RegionCommon.c ****     uint8_t retIndex = 0;
 991              		.loc 1 210 0
 992 0006 0020     		movs	r0, #0
 993              	.LVL109:
 994              		.loc 1 212 0
 995 0008 032A     		cmp	r2, #3
 996 000a 00D0     		beq	.L147
 997              	.LVL110:
 998              	.L145:
 213:../../../../../../Middlewares/Third_Party/LoRaWAN/Mac/region/RegionCommon.c ****     {
 214:../../../../../../Middlewares/Third_Party/LoRaWAN/Mac/region/RegionCommon.c ****         // Parse datarate and tx power
 215:../../../../../../Middlewares/Third_Party/LoRaWAN/Mac/region/RegionCommon.c ****         linkAdrParams->Datarate = payload[1];
 216:../../../../../../Middlewares/Third_Party/LoRaWAN/Mac/region/RegionCommon.c ****         linkAdrParams->TxPower = linkAdrParams->Datarate & 0x0F;
 217:../../../../../../Middlewares/Third_Party/LoRaWAN/Mac/region/RegionCommon.c ****         linkAdrParams->Datarate = ( linkAdrParams->Datarate >> 4 ) & 0x0F;
 218:../../../../../../Middlewares/Third_Party/LoRaWAN/Mac/region/RegionCommon.c ****         // Parse ChMask
 219:../../../../../../Middlewares/Third_Party/LoRaWAN/Mac/region/RegionCommon.c ****         linkAdrParams->ChMask = ( uint16_t )payload[2];
 220:../../../../../../Middlewares/Third_Party/LoRaWAN/Mac/region/RegionCommon.c ****         linkAdrParams->ChMask |= ( uint16_t )payload[3] << 8;
 221:../../../../../../Middlewares/Third_Party/LoRaWAN/Mac/region/RegionCommon.c ****         // Parse ChMaskCtrl and nbRep
 222:../../../../../../Middlewares/Third_Party/LoRaWAN/Mac/region/RegionCommon.c ****         linkAdrParams->NbRep = payload[4];
 223:../../../../../../Middlewares/Third_Party/LoRaWAN/Mac/region/RegionCommon.c ****         linkAdrParams->ChMaskCtrl = ( linkAdrParams->NbRep >> 4 ) & 0x07;
 224:../../../../../../Middlewares/Third_Party/LoRaWAN/Mac/region/RegionCommon.c ****         linkAdrParams->NbRep &= 0x0F;
 225:../../../../../../Middlewares/Third_Party/LoRaWAN/Mac/region/RegionCommon.c **** 
 226:../../../../../../Middlewares/Third_Party/LoRaWAN/Mac/region/RegionCommon.c ****         // LinkAdrReq has 4 bytes length + 1 byte CMD
ARM GAS  C:\Users\EBANO_~1\AppData\Local\Temp\ccizkeXa.s 			page 24


 227:../../../../../../Middlewares/Third_Party/LoRaWAN/Mac/region/RegionCommon.c ****         retIndex = 5;
 228:../../../../../../Middlewares/Third_Party/LoRaWAN/Mac/region/RegionCommon.c ****     }
 229:../../../../../../Middlewares/Third_Party/LoRaWAN/Mac/region/RegionCommon.c ****     return retIndex;
 230:../../../../../../Middlewares/Third_Party/LoRaWAN/Mac/region/RegionCommon.c **** }
 999              		.loc 1 230 0
 1000              		@ sp needed
 1001 000c 10BD     		pop	{r4, pc}
 1002              	.LVL111:
 1003              	.L147:
 216:../../../../../../Middlewares/Third_Party/LoRaWAN/Mac/region/RegionCommon.c ****         linkAdrParams->Datarate = ( linkAdrParams->Datarate >> 4 ) & 0x0F;
 1004              		.loc 1 216 0
 1005 000e 0C32     		adds	r2, r2, #12
 1006 0010 1400     		movs	r4, r2
 215:../../../../../../Middlewares/Third_Party/LoRaWAN/Mac/region/RegionCommon.c ****         linkAdrParams->TxPower = linkAdrParams->Datarate & 0x0F;
 1007              		.loc 1 215 0
 1008 0012 5878     		ldrb	r0, [r3, #1]
 216:../../../../../../Middlewares/Third_Party/LoRaWAN/Mac/region/RegionCommon.c ****         linkAdrParams->Datarate = ( linkAdrParams->Datarate >> 4 ) & 0x0F;
 1009              		.loc 1 216 0
 1010 0014 0440     		ands	r4, r0
 217:../../../../../../Middlewares/Third_Party/LoRaWAN/Mac/region/RegionCommon.c ****         // Parse ChMask
 1011              		.loc 1 217 0
 1012 0016 0009     		lsrs	r0, r0, #4
 216:../../../../../../Middlewares/Third_Party/LoRaWAN/Mac/region/RegionCommon.c ****         linkAdrParams->Datarate = ( linkAdrParams->Datarate >> 4 ) & 0x0F;
 1013              		.loc 1 216 0
 1014 0018 8C70     		strb	r4, [r1, #2]
 217:../../../../../../Middlewares/Third_Party/LoRaWAN/Mac/region/RegionCommon.c ****         // Parse ChMask
 1015              		.loc 1 217 0
 1016 001a 4870     		strb	r0, [r1, #1]
 219:../../../../../../Middlewares/Third_Party/LoRaWAN/Mac/region/RegionCommon.c ****         linkAdrParams->ChMask |= ( uint16_t )payload[3] << 8;
 1017              		.loc 1 219 0
 1018 001c 9878     		ldrb	r0, [r3, #2]
 1019 001e 8880     		strh	r0, [r1, #4]
 220:../../../../../../Middlewares/Third_Party/LoRaWAN/Mac/region/RegionCommon.c ****         // Parse ChMaskCtrl and nbRep
 1020              		.loc 1 220 0
 1021 0020 DC78     		ldrb	r4, [r3, #3]
 1022 0022 2402     		lsls	r4, r4, #8
 1023 0024 2043     		orrs	r0, r4
 1024 0026 8880     		strh	r0, [r1, #4]
 222:../../../../../../Middlewares/Third_Party/LoRaWAN/Mac/region/RegionCommon.c ****         linkAdrParams->ChMaskCtrl = ( linkAdrParams->NbRep >> 4 ) & 0x07;
 1025              		.loc 1 222 0
 1026 0028 1879     		ldrb	r0, [r3, #4]
 223:../../../../../../Middlewares/Third_Party/LoRaWAN/Mac/region/RegionCommon.c ****         linkAdrParams->NbRep &= 0x0F;
 1027              		.loc 1 223 0
 1028 002a 4306     		lsls	r3, r0, #25
 1029              	.LVL112:
 224:../../../../../../Middlewares/Third_Party/LoRaWAN/Mac/region/RegionCommon.c **** 
 1030              		.loc 1 224 0
 1031 002c 0240     		ands	r2, r0
 223:../../../../../../Middlewares/Third_Party/LoRaWAN/Mac/region/RegionCommon.c ****         linkAdrParams->NbRep &= 0x0F;
 1032              		.loc 1 223 0
 1033 002e 5B0F     		lsrs	r3, r3, #29
 1034 0030 CB70     		strb	r3, [r1, #3]
 224:../../../../../../Middlewares/Third_Party/LoRaWAN/Mac/region/RegionCommon.c **** 
 1035              		.loc 1 224 0
 1036 0032 0A70     		strb	r2, [r1]
 1037              	.LVL113:
 227:../../../../../../Middlewares/Third_Party/LoRaWAN/Mac/region/RegionCommon.c ****     }
ARM GAS  C:\Users\EBANO_~1\AppData\Local\Temp\ccizkeXa.s 			page 25


 1038              		.loc 1 227 0
 1039 0034 0520     		movs	r0, #5
 1040 0036 E9E7     		b	.L145
 1041              		.cfi_endproc
 1042              	.LFE48:
 1043              		.size	RegionCommonParseLinkAdrReq, .-RegionCommonParseLinkAdrReq
 1044              		.section	.text.RegionCommonLinkAdrReqVerifyParams,"ax",%progbits
 1045              		.align	1
 1046              		.p2align 2,,3
 1047              		.global	RegionCommonLinkAdrReqVerifyParams
 1048              		.syntax unified
 1049              		.code	16
 1050              		.thumb_func
 1051              		.fpu softvfp
 1052              		.type	RegionCommonLinkAdrReqVerifyParams, %function
 1053              	RegionCommonLinkAdrReqVerifyParams:
 1054              	.LFB49:
 231:../../../../../../Middlewares/Third_Party/LoRaWAN/Mac/region/RegionCommon.c **** 
 232:../../../../../../Middlewares/Third_Party/LoRaWAN/Mac/region/RegionCommon.c **** uint8_t RegionCommonLinkAdrReqVerifyParams( RegionCommonLinkAdrReqVerifyParams_t* verifyParams, int
 233:../../../../../../Middlewares/Third_Party/LoRaWAN/Mac/region/RegionCommon.c **** {
 1055              		.loc 1 233 0
 1056              		.cfi_startproc
 1057              		@ args = 0, pretend = 0, frame = 32
 1058              		@ frame_needed = 0, uses_anonymous_args = 0
 1059              	.LVL114:
 1060 0000 F0B5     		push	{r4, r5, r6, r7, lr}
 1061              	.LCFI9:
 1062              		.cfi_def_cfa_offset 20
 1063              		.cfi_offset 4, -20
 1064              		.cfi_offset 5, -16
 1065              		.cfi_offset 6, -12
 1066              		.cfi_offset 7, -8
 1067              		.cfi_offset 14, -4
 1068 0002 DE46     		mov	lr, fp
 1069 0004 4546     		mov	r5, r8
 1070 0006 5746     		mov	r7, r10
 1071 0008 4E46     		mov	r6, r9
 1072 000a E0B5     		push	{r5, r6, r7, lr}
 1073              	.LCFI10:
 1074              		.cfi_def_cfa_offset 36
 1075              		.cfi_offset 8, -36
 1076              		.cfi_offset 9, -32
 1077              		.cfi_offset 10, -28
 1078              		.cfi_offset 11, -24
 1079 000c 89B0     		sub	sp, sp, #36
 1080              	.LCFI11:
 1081              		.cfi_def_cfa_offset 72
 1082              		.loc 1 233 0
 1083 000e 0091     		str	r1, [sp]
 234:../../../../../../Middlewares/Third_Party/LoRaWAN/Mac/region/RegionCommon.c ****     uint8_t status = verifyParams->Status;
 235:../../../../../../Middlewares/Third_Party/LoRaWAN/Mac/region/RegionCommon.c ****     int8_t datarate = verifyParams->Datarate;
 236:../../../../../../Middlewares/Third_Party/LoRaWAN/Mac/region/RegionCommon.c ****     int8_t txPower = verifyParams->TxPower;
 1084              		.loc 1 236 0
 1085 0010 0721     		movs	r1, #7
 1086              	.LVL115:
 233:../../../../../../Middlewares/Third_Party/LoRaWAN/Mac/region/RegionCommon.c ****     uint8_t status = verifyParams->Status;
 1087              		.loc 1 233 0
ARM GAS  C:\Users\EBANO_~1\AppData\Local\Temp\ccizkeXa.s 			page 26


 1088 0012 9B46     		mov	fp, r3
 235:../../../../../../Middlewares/Third_Party/LoRaWAN/Mac/region/RegionCommon.c ****     int8_t txPower = verifyParams->TxPower;
 1089              		.loc 1 235 0
 1090 0014 0623     		movs	r3, #6
 1091              	.LVL116:
 233:../../../../../../Middlewares/Third_Party/LoRaWAN/Mac/region/RegionCommon.c ****     uint8_t status = verifyParams->Status;
 1092              		.loc 1 233 0
 1093 0016 0192     		str	r2, [sp, #4]
 1094              		.loc 1 236 0
 1095 0018 4156     		ldrsb	r1, [r0, r1]
 234:../../../../../../Middlewares/Third_Party/LoRaWAN/Mac/region/RegionCommon.c ****     uint8_t status = verifyParams->Status;
 1096              		.loc 1 234 0
 1097 001a 0279     		ldrb	r2, [r0, #4]
 1098              	.LVL117:
 1099              		.loc 1 236 0
 1100 001c 8846     		mov	r8, r1
 237:../../../../../../Middlewares/Third_Party/LoRaWAN/Mac/region/RegionCommon.c ****     int8_t nbRepetitions = verifyParams->NbRep;
 238:../../../../../../Middlewares/Third_Party/LoRaWAN/Mac/region/RegionCommon.c **** 
 239:../../../../../../Middlewares/Third_Party/LoRaWAN/Mac/region/RegionCommon.c ****     // Handle the case when ADR is off.
 240:../../../../../../Middlewares/Third_Party/LoRaWAN/Mac/region/RegionCommon.c ****     if( verifyParams->AdrEnabled == false )
 1101              		.loc 1 240 0
 1102 001e 4179     		ldrb	r1, [r0, #5]
 235:../../../../../../Middlewares/Third_Party/LoRaWAN/Mac/region/RegionCommon.c ****     int8_t txPower = verifyParams->TxPower;
 1103              		.loc 1 235 0
 1104 0020 C356     		ldrsb	r3, [r0, r3]
 1105              	.LVL118:
 237:../../../../../../Middlewares/Third_Party/LoRaWAN/Mac/region/RegionCommon.c ****     int8_t nbRepetitions = verifyParams->NbRep;
 1106              		.loc 1 237 0
 1107 0022 047A     		ldrb	r4, [r0, #8]
 1108              	.LVL119:
 1109              		.loc 1 240 0
 1110 0024 0029     		cmp	r1, #0
 1111 0026 14D0     		beq	.L149
 237:../../../../../../Middlewares/Third_Party/LoRaWAN/Mac/region/RegionCommon.c ****     int8_t nbRepetitions = verifyParams->NbRep;
 1112              		.loc 1 237 0
 1113 0028 61B2     		sxtb	r1, r4
 1114 002a 8946     		mov	r9, r1
 1115              	.LVL120:
 241:../../../../../../Middlewares/Third_Party/LoRaWAN/Mac/region/RegionCommon.c ****     {
 242:../../../../../../Middlewares/Third_Party/LoRaWAN/Mac/region/RegionCommon.c ****         // When ADR is off, we are allowed to change the channels mask
 243:../../../../../../Middlewares/Third_Party/LoRaWAN/Mac/region/RegionCommon.c ****         nbRepetitions = verifyParams->CurrentNbRep;
 244:../../../../../../Middlewares/Third_Party/LoRaWAN/Mac/region/RegionCommon.c ****         datarate =  verifyParams->CurrentDatarate;
 245:../../../../../../Middlewares/Third_Party/LoRaWAN/Mac/region/RegionCommon.c ****         txPower =  verifyParams->CurrentTxPower;
 246:../../../../../../Middlewares/Third_Party/LoRaWAN/Mac/region/RegionCommon.c ****     }
 247:../../../../../../Middlewares/Third_Party/LoRaWAN/Mac/region/RegionCommon.c **** 
 248:../../../../../../Middlewares/Third_Party/LoRaWAN/Mac/region/RegionCommon.c ****     if( status != 0 )
 1116              		.loc 1 248 0
 1117 002c 002A     		cmp	r2, #0
 1118 002e 1AD1     		bne	.L151
 1119              	.L173:
 1120 0030 4946     		mov	r1, r9
 1121 0032 C8B2     		uxtb	r0, r1
 1122              	.LVL121:
 1123 0034 4146     		mov	r1, r8
 1124              	.LVL122:
 1125              	.L152:
 249:../../../../../../Middlewares/Third_Party/LoRaWAN/Mac/region/RegionCommon.c ****     {
ARM GAS  C:\Users\EBANO_~1\AppData\Local\Temp\ccizkeXa.s 			page 27


 250:../../../../../../Middlewares/Third_Party/LoRaWAN/Mac/region/RegionCommon.c ****         // Verify datarate. The variable phyParam. Value contains the minimum allowed datarate.
 251:../../../../../../Middlewares/Third_Party/LoRaWAN/Mac/region/RegionCommon.c ****         if( RegionCommonChanVerifyDr( verifyParams->NbChannels, verifyParams->ChannelsMask, datarat
 252:../../../../../../Middlewares/Third_Party/LoRaWAN/Mac/region/RegionCommon.c ****                                       verifyParams->MinDatarate, verifyParams->MaxDatarate, verifyP
 253:../../../../../../Middlewares/Third_Party/LoRaWAN/Mac/region/RegionCommon.c ****         {
 254:../../../../../../Middlewares/Third_Party/LoRaWAN/Mac/region/RegionCommon.c ****             status &= 0xFD; // Datarate KO
 255:../../../../../../Middlewares/Third_Party/LoRaWAN/Mac/region/RegionCommon.c ****         }
 256:../../../../../../Middlewares/Third_Party/LoRaWAN/Mac/region/RegionCommon.c **** 
 257:../../../../../../Middlewares/Third_Party/LoRaWAN/Mac/region/RegionCommon.c ****         // Verify tx power
 258:../../../../../../Middlewares/Third_Party/LoRaWAN/Mac/region/RegionCommon.c ****         if( RegionCommonValueInRange( txPower, verifyParams->MaxTxPower, verifyParams->MinTxPower )
 259:../../../../../../Middlewares/Third_Party/LoRaWAN/Mac/region/RegionCommon.c ****         {
 260:../../../../../../Middlewares/Third_Party/LoRaWAN/Mac/region/RegionCommon.c ****             // Verify if the maximum TX power is exceeded
 261:../../../../../../Middlewares/Third_Party/LoRaWAN/Mac/region/RegionCommon.c ****             if( verifyParams->MaxTxPower > txPower )
 262:../../../../../../Middlewares/Third_Party/LoRaWAN/Mac/region/RegionCommon.c ****             { // Apply maximum TX power. Accept TX power.
 263:../../../../../../Middlewares/Third_Party/LoRaWAN/Mac/region/RegionCommon.c ****                 txPower = verifyParams->MaxTxPower;
 264:../../../../../../Middlewares/Third_Party/LoRaWAN/Mac/region/RegionCommon.c ****             }
 265:../../../../../../Middlewares/Third_Party/LoRaWAN/Mac/region/RegionCommon.c ****             else
 266:../../../../../../Middlewares/Third_Party/LoRaWAN/Mac/region/RegionCommon.c ****             {
 267:../../../../../../Middlewares/Third_Party/LoRaWAN/Mac/region/RegionCommon.c ****                 status &= 0xFB; // TxPower KO
 268:../../../../../../Middlewares/Third_Party/LoRaWAN/Mac/region/RegionCommon.c ****             }
 269:../../../../../../Middlewares/Third_Party/LoRaWAN/Mac/region/RegionCommon.c ****         }
 270:../../../../../../Middlewares/Third_Party/LoRaWAN/Mac/region/RegionCommon.c ****     }
 271:../../../../../../Middlewares/Third_Party/LoRaWAN/Mac/region/RegionCommon.c **** 
 272:../../../../../../Middlewares/Third_Party/LoRaWAN/Mac/region/RegionCommon.c ****     // If the status is ok, verify the NbRep
 273:../../../../../../Middlewares/Third_Party/LoRaWAN/Mac/region/RegionCommon.c ****     if( status == 0x07 )
 274:../../../../../../Middlewares/Third_Party/LoRaWAN/Mac/region/RegionCommon.c ****     {
 275:../../../../../../Middlewares/Third_Party/LoRaWAN/Mac/region/RegionCommon.c ****         if( nbRepetitions == 0 )
 276:../../../../../../Middlewares/Third_Party/LoRaWAN/Mac/region/RegionCommon.c ****         { // Restore the default value according to the LoRaWAN specification
 277:../../../../../../Middlewares/Third_Party/LoRaWAN/Mac/region/RegionCommon.c ****             nbRepetitions = 1;
 278:../../../../../../Middlewares/Third_Party/LoRaWAN/Mac/region/RegionCommon.c ****         }
 279:../../../../../../Middlewares/Third_Party/LoRaWAN/Mac/region/RegionCommon.c ****     }
 280:../../../../../../Middlewares/Third_Party/LoRaWAN/Mac/region/RegionCommon.c **** 
 281:../../../../../../Middlewares/Third_Party/LoRaWAN/Mac/region/RegionCommon.c ****     // Apply changes
 282:../../../../../../Middlewares/Third_Party/LoRaWAN/Mac/region/RegionCommon.c ****     *dr = datarate;
 1126              		.loc 1 282 0
 1127 0036 009C     		ldr	r4, [sp]
 1128 0038 2370     		strb	r3, [r4]
 283:../../../../../../Middlewares/Third_Party/LoRaWAN/Mac/region/RegionCommon.c ****     *txPow = txPower;
 1129              		.loc 1 283 0
 1130 003a 019B     		ldr	r3, [sp, #4]
 1131              	.LVL123:
 1132 003c 1970     		strb	r1, [r3]
 1133              	.LVL124:
 284:../../../../../../Middlewares/Third_Party/LoRaWAN/Mac/region/RegionCommon.c ****     *nbRep = nbRepetitions;
 1134              		.loc 1 284 0
 1135 003e 5B46     		mov	r3, fp
 1136 0040 1870     		strb	r0, [r3]
 285:../../../../../../Middlewares/Third_Party/LoRaWAN/Mac/region/RegionCommon.c **** 
 286:../../../../../../Middlewares/Third_Party/LoRaWAN/Mac/region/RegionCommon.c ****     return status;
 287:../../../../../../Middlewares/Third_Party/LoRaWAN/Mac/region/RegionCommon.c **** }
 1137              		.loc 1 287 0
 1138 0042 1000     		movs	r0, r2
 1139 0044 09B0     		add	sp, sp, #36
 1140              	.LVL125:
 1141              		@ sp needed
 1142              	.LVL126:
 1143 0046 3CBC     		pop	{r2, r3, r4, r5}
 1144 0048 9046     		mov	r8, r2
ARM GAS  C:\Users\EBANO_~1\AppData\Local\Temp\ccizkeXa.s 			page 28


 1145 004a 9946     		mov	r9, r3
 1146 004c A246     		mov	r10, r4
 1147 004e AB46     		mov	fp, r5
 1148 0050 F0BD     		pop	{r4, r5, r6, r7, pc}
 1149              	.LVL127:
 1150              	.L149:
 243:../../../../../../Middlewares/Third_Party/LoRaWAN/Mac/region/RegionCommon.c ****         datarate =  verifyParams->CurrentDatarate;
 1151              		.loc 1 243 0
 1152 0052 0B23     		movs	r3, #11
 1153              	.LVL128:
 245:../../../../../../Middlewares/Third_Party/LoRaWAN/Mac/region/RegionCommon.c ****     }
 1154              		.loc 1 245 0
 1155 0054 0A21     		movs	r1, #10
 243:../../../../../../Middlewares/Third_Party/LoRaWAN/Mac/region/RegionCommon.c ****         datarate =  verifyParams->CurrentDatarate;
 1156              		.loc 1 243 0
 1157 0056 C356     		ldrsb	r3, [r0, r3]
 245:../../../../../../Middlewares/Third_Party/LoRaWAN/Mac/region/RegionCommon.c ****     }
 1158              		.loc 1 245 0
 1159 0058 4156     		ldrsb	r1, [r0, r1]
 243:../../../../../../Middlewares/Third_Party/LoRaWAN/Mac/region/RegionCommon.c ****         datarate =  verifyParams->CurrentDatarate;
 1160              		.loc 1 243 0
 1161 005a 9946     		mov	r9, r3
 1162              	.LVL129:
 244:../../../../../../Middlewares/Third_Party/LoRaWAN/Mac/region/RegionCommon.c ****         txPower =  verifyParams->CurrentTxPower;
 1163              		.loc 1 244 0
 1164 005c 0923     		movs	r3, #9
 245:../../../../../../Middlewares/Third_Party/LoRaWAN/Mac/region/RegionCommon.c ****     }
 1165              		.loc 1 245 0
 1166 005e 8846     		mov	r8, r1
 1167              	.LVL130:
 244:../../../../../../Middlewares/Third_Party/LoRaWAN/Mac/region/RegionCommon.c ****         txPower =  verifyParams->CurrentTxPower;
 1168              		.loc 1 244 0
 1169 0060 C356     		ldrsb	r3, [r0, r3]
 1170              	.LVL131:
 248:../../../../../../Middlewares/Third_Party/LoRaWAN/Mac/region/RegionCommon.c ****     {
 1171              		.loc 1 248 0
 1172 0062 002A     		cmp	r2, #0
 1173 0064 E4D0     		beq	.L173
 1174              	.L151:
 1175              	.LVL132:
 1176              	.LBB84:
 1177              	.LBB85:
 1178              	.LBB86:
 100:../../../../../../Middlewares/Third_Party/LoRaWAN/Mac/region/RegionCommon.c ****     {
 1179              		.loc 1 100 0
 1180 0066 1421     		movs	r1, #20
 1181 0068 4156     		ldrsb	r1, [r0, r1]
 1182 006a 9942     		cmp	r1, r3
 1183 006c 13DD     		ble	.L174
 1184              	.LVL133:
 1185              	.L153:
 1186              	.LBE86:
 1187              	.LBE85:
 1188              	.LBE84:
 254:../../../../../../Middlewares/Third_Party/LoRaWAN/Mac/region/RegionCommon.c ****         }
 1189              		.loc 1 254 0
 1190 006e 0221     		movs	r1, #2
ARM GAS  C:\Users\EBANO_~1\AppData\Local\Temp\ccizkeXa.s 			page 29


 1191 0070 8A43     		bics	r2, r1
 1192              	.LVL134:
 1193              	.L155:
 258:../../../../../../Middlewares/Third_Party/LoRaWAN/Mac/region/RegionCommon.c ****         {
 1194              		.loc 1 258 0
 1195 0072 1D21     		movs	r1, #29
 1196 0074 4156     		ldrsb	r1, [r0, r1]
 1197 0076 007F     		ldrb	r0, [r0, #28]
 1198 0078 40B2     		sxtb	r0, r0
 1199              	.LVL135:
 1200              	.LBB103:
 1201              	.LBB104:
 100:../../../../../../Middlewares/Third_Party/LoRaWAN/Mac/region/RegionCommon.c ****     {
 1202              		.loc 1 100 0
 1203 007a 4145     		cmp	r1, r8
 1204 007c 02DC     		bgt	.L158
 1205 007e 4146     		mov	r1, r8
 1206              	.LVL136:
 1207 0080 4045     		cmp	r0, r8
 1208 0082 4FDB     		blt	.L175
 1209              	.LVL137:
 1210              	.L158:
 1211              	.LBE104:
 1212              	.LBE103:
 273:../../../../../../Middlewares/Third_Party/LoRaWAN/Mac/region/RegionCommon.c ****     {
 1213              		.loc 1 273 0
 1214 0084 072A     		cmp	r2, #7
 1215 0086 03D1     		bne	.L172
 275:../../../../../../Middlewares/Third_Party/LoRaWAN/Mac/region/RegionCommon.c ****         { // Restore the default value according to the LoRaWAN specification
 1216              		.loc 1 275 0
 1217 0088 4C46     		mov	r4, r9
 1218 008a 0120     		movs	r0, #1
 1219 008c 002C     		cmp	r4, #0
 1220 008e D2D0     		beq	.L152
 1221              	.L172:
 1222 0090 4846     		mov	r0, r9
 1223 0092 C0B2     		uxtb	r0, r0
 1224 0094 CFE7     		b	.L152
 1225              	.LVL138:
 1226              	.L174:
 1227              	.LBB105:
 1228              	.LBB88:
 1229              	.LBB87:
 100:../../../../../../Middlewares/Third_Party/LoRaWAN/Mac/region/RegionCommon.c ****     {
 1230              		.loc 1 100 0
 1231 0096 1521     		movs	r1, #21
 1232 0098 4156     		ldrsb	r1, [r0, r1]
 1233 009a 9942     		cmp	r1, r3
 1234 009c E7DB     		blt	.L153
 1235              	.LBE87:
 1236              	.LBE88:
 1237              	.LBE105:
 251:../../../../../../Middlewares/Third_Party/LoRaWAN/Mac/region/RegionCommon.c ****                                       verifyParams->MinDatarate, verifyParams->MaxDatarate, verifyP
 1238              		.loc 1 251 0
 1239 009e 017B     		ldrb	r1, [r0, #12]
 1240 00a0 0591     		str	r1, [sp, #20]
 1241              	.LVL139:
ARM GAS  C:\Users\EBANO_~1\AppData\Local\Temp\ccizkeXa.s 			page 30


 1242              	.LBB106:
 1243              	.LBB89:
 1244              	.LBB90:
  80:../../../../../../Middlewares/Third_Party/LoRaWAN/Mac/region/RegionCommon.c ****     {
 1245              		.loc 1 80 0
 1246 00a2 0029     		cmp	r1, #0
 1247 00a4 E3D0     		beq	.L153
 1248              	.LBE90:
 1249              	.LBE89:
 1250              	.LBE106:
 251:../../../../../../Middlewares/Third_Party/LoRaWAN/Mac/region/RegionCommon.c ****                                       verifyParams->MinDatarate, verifyParams->MaxDatarate, verifyP
 1251              		.loc 1 251 0
 1252 00a6 0169     		ldr	r1, [r0, #16]
 1253              	.LBB107:
 1254              	.LBB100:
 1255              	.LBB97:
 1256              	.LBB91:
  84:../../../../../../Middlewares/Third_Party/LoRaWAN/Mac/region/RegionCommon.c ****             {// Check datarate validity for enabled channels
 1257              		.loc 1 84 0
 1258 00a8 0125     		movs	r5, #1
 1259              	.LBE91:
 1260              	.LBE97:
 1261              	.LBE100:
 1262              	.LBE107:
 251:../../../../../../Middlewares/Third_Party/LoRaWAN/Mac/region/RegionCommon.c ****                                       verifyParams->MinDatarate, verifyParams->MaxDatarate, verifyP
 1263              		.loc 1 251 0
 1264 00aa 0391     		str	r1, [sp, #12]
 1265 00ac 8169     		ldr	r1, [r0, #24]
 1266              	.LBB108:
 1267              	.LBB101:
 1268              	.LBB98:
  80:../../../../../../Middlewares/Third_Party/LoRaWAN/Mac/region/RegionCommon.c ****     {
 1269              		.loc 1 80 0
 1270 00ae 0024     		movs	r4, #0
 1271              	.LBE98:
 1272              	.LBE101:
 1273              	.LBE108:
 251:../../../../../../Middlewares/Third_Party/LoRaWAN/Mac/region/RegionCommon.c ****                                       verifyParams->MinDatarate, verifyParams->MaxDatarate, verifyP
 1274              		.loc 1 251 0
 1275 00b0 0491     		str	r1, [sp, #16]
 1276              	.LBB109:
 1277              	.LBB102:
 1278              	.LBB99:
  80:../../../../../../Middlewares/Third_Party/LoRaWAN/Mac/region/RegionCommon.c ****     {
 1279              		.loc 1 80 0
 1280 00b2 0021     		movs	r1, #0
 1281              	.LBB96:
  84:../../../../../../Middlewares/Third_Party/LoRaWAN/Mac/region/RegionCommon.c ****             {// Check datarate validity for enabled channels
 1282              		.loc 1 84 0
 1283 00b4 AC46     		mov	ip, r5
  86:../../../../../../Middlewares/Third_Party/LoRaWAN/Mac/region/RegionCommon.c ****                                                   ( channels[i + j].DrRange.Fields.Max & 0x0F ) ) =
 1284              		.loc 1 86 0
 1285 00b6 0E35     		adds	r5, r5, #14
 1286 00b8 AA46     		mov	r10, r5
 1287 00ba 4546     		mov	r5, r8
 1288 00bc 1600     		movs	r6, r2
 1289 00be 0790     		str	r0, [sp, #28]
ARM GAS  C:\Users\EBANO_~1\AppData\Local\Temp\ccizkeXa.s 			page 31


 1290 00c0 0A00     		movs	r2, r1
 1291              	.LVL140:
 1292 00c2 2000     		movs	r0, r4
 1293              	.LVL141:
 1294 00c4 0695     		str	r5, [sp, #24]
 1295              	.LVL142:
 1296              	.L157:
  84:../../../../../../Middlewares/Third_Party/LoRaWAN/Mac/region/RegionCommon.c ****             {// Check datarate validity for enabled channels
 1297              		.loc 1 84 0
 1298 00c6 039C     		ldr	r4, [sp, #12]
 1299 00c8 4100     		lsls	r1, r0, #1
 1300 00ca 0F5B     		ldrh	r7, [r1, r4]
 1301 00cc 0499     		ldr	r1, [sp, #16]
 1302 00ce 5500     		lsls	r5, r2, #1
 1303 00d0 8846     		mov	r8, r1
 1304 00d2 AD18     		adds	r5, r5, r2
 1305 00d4 AD00     		lsls	r5, r5, #2
 1306 00d6 4544     		add	r5, r5, r8
 1307 00d8 0024     		movs	r4, #0
 1308 00da B046     		mov	r8, r6
 1309 00dc 0292     		str	r2, [sp, #8]
 1310              	.LVL143:
 1311              	.L156:
 1312 00de 3900     		movs	r1, r7
 1313 00e0 6646     		mov	r6, ip
 1314 00e2 2141     		asrs	r1, r1, r4
 1315 00e4 0E42     		tst	r6, r1
 1316 00e6 0BD0     		beq	.L154
 1317              	.LBB92:
 1318              	.LBB93:
 100:../../../../../../Middlewares/Third_Party/LoRaWAN/Mac/region/RegionCommon.c ****     {
 1319              		.loc 1 100 0
 1320 00e8 5246     		mov	r2, r10
 1321              	.LBE93:
 1322              	.LBE92:
  87:../../../../../../Middlewares/Third_Party/LoRaWAN/Mac/region/RegionCommon.c ****                 {
 1323              		.loc 1 87 0
 1324 00ea 297A     		ldrb	r1, [r5, #8]
 1325 00ec 4EB2     		sxtb	r6, r1
  86:../../../../../../Middlewares/Third_Party/LoRaWAN/Mac/region/RegionCommon.c ****                                                   ( channels[i + j].DrRange.Fields.Max & 0x0F ) ) =
 1326              		.loc 1 86 0
 1327 00ee 0907     		lsls	r1, r1, #28
 1328 00f0 0917     		asrs	r1, r1, #28
  87:../../../../../../Middlewares/Third_Party/LoRaWAN/Mac/region/RegionCommon.c ****                 {
 1329              		.loc 1 87 0
 1330 00f2 3611     		asrs	r6, r6, #4
 1331              	.LVL144:
 1332              	.LBB95:
 1333              	.LBB94:
 100:../../../../../../Middlewares/Third_Party/LoRaWAN/Mac/region/RegionCommon.c ****     {
 1334              		.loc 1 100 0
 1335 00f4 1140     		ands	r1, r2
 1336 00f6 8B42     		cmp	r3, r1
 1337 00f8 02DB     		blt	.L154
 1338 00fa 1640     		ands	r6, r2
 1339              	.LVL145:
 1340 00fc B342     		cmp	r3, r6
ARM GAS  C:\Users\EBANO_~1\AppData\Local\Temp\ccizkeXa.s 			page 32


 1341 00fe 14DD     		ble	.L171
 1342              	.LVL146:
 1343              	.L154:
 1344 0100 0134     		adds	r4, r4, #1
 1345              	.LVL147:
 1346 0102 0C35     		adds	r5, r5, #12
 1347              	.LBE94:
 1348              	.LBE95:
  82:../../../../../../Middlewares/Third_Party/LoRaWAN/Mac/region/RegionCommon.c ****         {
 1349              		.loc 1 82 0
 1350 0104 102C     		cmp	r4, #16
 1351 0106 EAD1     		bne	.L156
 1352 0108 029A     		ldr	r2, [sp, #8]
 1353              	.LBE96:
  80:../../../../../../Middlewares/Third_Party/LoRaWAN/Mac/region/RegionCommon.c ****     {
 1354              		.loc 1 80 0
 1355 010a 0599     		ldr	r1, [sp, #20]
 1356 010c 1032     		adds	r2, r2, #16
 1357 010e 0130     		adds	r0, r0, #1
 1358              	.LVL148:
 1359 0110 D2B2     		uxtb	r2, r2
 1360              	.LVL149:
 1361 0112 4646     		mov	r6, r8
 1362 0114 C0B2     		uxtb	r0, r0
 1363              	.LVL150:
 1364 0116 9142     		cmp	r1, r2
 1365 0118 D5D8     		bhi	.L157
 1366              	.LVL151:
 1367 011a 0699     		ldr	r1, [sp, #24]
 1368 011c 4246     		mov	r2, r8
 1369              	.LVL152:
 1370 011e 0798     		ldr	r0, [sp, #28]
 1371              	.LVL153:
 1372 0120 8846     		mov	r8, r1
 1373 0122 A4E7     		b	.L153
 1374              	.LVL154:
 1375              	.L175:
 1376              	.LBE99:
 1377              	.LBE102:
 1378              	.LBE109:
 267:../../../../../../Middlewares/Third_Party/LoRaWAN/Mac/region/RegionCommon.c ****             }
 1379              		.loc 1 267 0
 1380 0124 0420     		movs	r0, #4
 1381 0126 8243     		bics	r2, r0
 1382              	.LVL155:
 1383 0128 ACE7     		b	.L158
 1384              	.LVL156:
 1385              	.L171:
 1386 012a 0699     		ldr	r1, [sp, #24]
 1387 012c 4246     		mov	r2, r8
 1388 012e 0798     		ldr	r0, [sp, #28]
 1389              	.LVL157:
 1390 0130 8846     		mov	r8, r1
 1391              	.LVL158:
 1392 0132 9EE7     		b	.L155
 1393              		.cfi_endproc
 1394              	.LFE49:
ARM GAS  C:\Users\EBANO_~1\AppData\Local\Temp\ccizkeXa.s 			page 33


 1395              		.size	RegionCommonLinkAdrReqVerifyParams, .-RegionCommonLinkAdrReqVerifyParams
 1396              		.global	__aeabi_i2d
 1397              		.global	__aeabi_ui2d
 1398              		.global	__aeabi_ddiv
 1399              		.global	__aeabi_dmul
 1400              		.section	.text.RegionCommonComputeSymbolTimeLoRa,"ax",%progbits
 1401              		.align	1
 1402              		.p2align 2,,3
 1403              		.global	RegionCommonComputeSymbolTimeLoRa
 1404              		.syntax unified
 1405              		.code	16
 1406              		.thumb_func
 1407              		.fpu softvfp
 1408              		.type	RegionCommonComputeSymbolTimeLoRa, %function
 1409              	RegionCommonComputeSymbolTimeLoRa:
 1410              	.LFB50:
 288:../../../../../../Middlewares/Third_Party/LoRaWAN/Mac/region/RegionCommon.c **** 
 289:../../../../../../Middlewares/Third_Party/LoRaWAN/Mac/region/RegionCommon.c **** double RegionCommonComputeSymbolTimeLoRa( uint8_t phyDr, uint32_t bandwidth )
 290:../../../../../../Middlewares/Third_Party/LoRaWAN/Mac/region/RegionCommon.c **** {
 1411              		.loc 1 290 0
 1412              		.cfi_startproc
 1413              		@ args = 0, pretend = 0, frame = 0
 1414              		@ frame_needed = 0, uses_anonymous_args = 0
 1415              	.LVL159:
 291:../../../../../../Middlewares/Third_Party/LoRaWAN/Mac/region/RegionCommon.c ****     return ( ( double )( 1 << phyDr ) / ( double )bandwidth ) * 1000;
 1416              		.loc 1 291 0
 1417 0000 0123     		movs	r3, #1
 1418 0002 8340     		lsls	r3, r3, r0
 290:../../../../../../Middlewares/Third_Party/LoRaWAN/Mac/region/RegionCommon.c ****     return ( ( double )( 1 << phyDr ) / ( double )bandwidth ) * 1000;
 1419              		.loc 1 290 0
 1420 0004 70B5     		push	{r4, r5, r6, lr}
 1421              	.LCFI12:
 1422              		.cfi_def_cfa_offset 16
 1423              		.cfi_offset 4, -16
 1424              		.cfi_offset 5, -12
 1425              		.cfi_offset 6, -8
 1426              		.cfi_offset 14, -4
 1427              		.loc 1 291 0
 1428 0006 1800     		movs	r0, r3
 1429              	.LVL160:
 290:../../../../../../Middlewares/Third_Party/LoRaWAN/Mac/region/RegionCommon.c ****     return ( ( double )( 1 << phyDr ) / ( double )bandwidth ) * 1000;
 1430              		.loc 1 290 0
 1431 0008 0E00     		movs	r6, r1
 1432              		.loc 1 291 0
 1433 000a FFF7FEFF 		bl	__aeabi_i2d
 1434              	.LVL161:
 1435 000e 0400     		movs	r4, r0
 1436 0010 3000     		movs	r0, r6
 1437 0012 0D00     		movs	r5, r1
 1438 0014 FFF7FEFF 		bl	__aeabi_ui2d
 1439              	.LVL162:
 1440 0018 0200     		movs	r2, r0
 1441 001a 0B00     		movs	r3, r1
 1442 001c 2000     		movs	r0, r4
 1443 001e 2900     		movs	r1, r5
 1444 0020 FFF7FEFF 		bl	__aeabi_ddiv
 1445              	.LVL163:
ARM GAS  C:\Users\EBANO_~1\AppData\Local\Temp\ccizkeXa.s 			page 34


 1446 0024 0022     		movs	r2, #0
 1447 0026 024B     		ldr	r3, .L177
 1448 0028 FFF7FEFF 		bl	__aeabi_dmul
 1449              	.LVL164:
 292:../../../../../../Middlewares/Third_Party/LoRaWAN/Mac/region/RegionCommon.c **** }
 1450              		.loc 1 292 0
 1451              		@ sp needed
 1452              	.LVL165:
 1453 002c 70BD     		pop	{r4, r5, r6, pc}
 1454              	.L178:
 1455 002e C046     		.align	2
 1456              	.L177:
 1457 0030 00408F40 		.word	1083129856
 1458              		.cfi_endproc
 1459              	.LFE50:
 1460              		.size	RegionCommonComputeSymbolTimeLoRa, .-RegionCommonComputeSymbolTimeLoRa
 1461              		.section	.text.RegionCommonComputeSymbolTimeFsk,"ax",%progbits
 1462              		.align	1
 1463              		.p2align 2,,3
 1464              		.global	RegionCommonComputeSymbolTimeFsk
 1465              		.syntax unified
 1466              		.code	16
 1467              		.thumb_func
 1468              		.fpu softvfp
 1469              		.type	RegionCommonComputeSymbolTimeFsk, %function
 1470              	RegionCommonComputeSymbolTimeFsk:
 1471              	.LFB51:
 293:../../../../../../Middlewares/Third_Party/LoRaWAN/Mac/region/RegionCommon.c **** 
 294:../../../../../../Middlewares/Third_Party/LoRaWAN/Mac/region/RegionCommon.c **** double RegionCommonComputeSymbolTimeFsk( uint8_t phyDr )
 295:../../../../../../Middlewares/Third_Party/LoRaWAN/Mac/region/RegionCommon.c **** {
 1472              		.loc 1 295 0
 1473              		.cfi_startproc
 1474              		@ args = 0, pretend = 0, frame = 0
 1475              		@ frame_needed = 0, uses_anonymous_args = 0
 1476              	.LVL166:
 1477 0000 10B5     		push	{r4, lr}
 1478              	.LCFI13:
 1479              		.cfi_def_cfa_offset 8
 1480              		.cfi_offset 4, -8
 1481              		.cfi_offset 14, -4
 296:../../../../../../Middlewares/Third_Party/LoRaWAN/Mac/region/RegionCommon.c ****     return ( 8.0 / ( double )phyDr ); // 1 symbol equals 1 byte
 1482              		.loc 1 296 0
 1483 0002 FFF7FEFF 		bl	__aeabi_ui2d
 1484              	.LVL167:
 1485 0006 0200     		movs	r2, r0
 1486 0008 0B00     		movs	r3, r1
 1487 000a 0020     		movs	r0, #0
 1488 000c 0149     		ldr	r1, .L180
 1489 000e FFF7FEFF 		bl	__aeabi_ddiv
 1490              	.LVL168:
 297:../../../../../../Middlewares/Third_Party/LoRaWAN/Mac/region/RegionCommon.c **** }
 1491              		.loc 1 297 0
 1492              		@ sp needed
 1493 0012 10BD     		pop	{r4, pc}
 1494              	.L181:
 1495              		.align	2
 1496              	.L180:
ARM GAS  C:\Users\EBANO_~1\AppData\Local\Temp\ccizkeXa.s 			page 35


 1497 0014 00002040 		.word	1075838976
 1498              		.cfi_endproc
 1499              	.LFE51:
 1500              		.size	RegionCommonComputeSymbolTimeFsk, .-RegionCommonComputeSymbolTimeFsk
 1501              		.global	__aeabi_dadd
 1502              		.global	__aeabi_d2uiz
 1503              		.global	__aeabi_dsub
 1504              		.global	__aeabi_d2iz
 1505              		.section	.text.RegionCommonComputeRxWindowParameters,"ax",%progbits
 1506              		.align	1
 1507              		.p2align 2,,3
 1508              		.global	RegionCommonComputeRxWindowParameters
 1509              		.syntax unified
 1510              		.code	16
 1511              		.thumb_func
 1512              		.fpu softvfp
 1513              		.type	RegionCommonComputeRxWindowParameters, %function
 1514              	RegionCommonComputeRxWindowParameters:
 1515              	.LFB52:
 298:../../../../../../Middlewares/Third_Party/LoRaWAN/Mac/region/RegionCommon.c **** 
 299:../../../../../../Middlewares/Third_Party/LoRaWAN/Mac/region/RegionCommon.c **** void RegionCommonComputeRxWindowParameters( double tSymbol, uint8_t minRxSymbols, uint32_t rxError,
 300:../../../../../../Middlewares/Third_Party/LoRaWAN/Mac/region/RegionCommon.c **** {
 1516              		.loc 1 300 0
 1517              		.cfi_startproc
 1518              		@ args = 12, pretend = 0, frame = 0
 1519              		@ frame_needed = 0, uses_anonymous_args = 0
 1520              	.LVL169:
 1521 0000 F8B5     		push	{r3, r4, r5, r6, r7, lr}
 1522              	.LCFI14:
 1523              		.cfi_def_cfa_offset 24
 1524              		.cfi_offset 3, -24
 1525              		.cfi_offset 4, -20
 1526              		.cfi_offset 5, -16
 1527              		.cfi_offset 6, -12
 1528              		.cfi_offset 7, -8
 1529              		.cfi_offset 14, -4
 1530 0002 CE46     		mov	lr, r9
 1531 0004 4746     		mov	r7, r8
 1532 0006 0400     		movs	r4, r0
 1533 0008 0D00     		movs	r5, r1
 1534 000a 9846     		mov	r8, r3
 301:../../../../../../Middlewares/Third_Party/LoRaWAN/Mac/region/RegionCommon.c ****     *windowTimeout = MAX( ( uint32_t )ceil( ( ( 2 * minRxSymbols - 8 ) * tSymbol + 2 * rxError ) / 
 1535              		.loc 1 301 0
 1536 000c 101F     		subs	r0, r2, #4
 1537              	.LVL170:
 300:../../../../../../Middlewares/Third_Party/LoRaWAN/Mac/region/RegionCommon.c ****     *windowTimeout = MAX( ( uint32_t )ceil( ( ( 2 * minRxSymbols - 8 ) * tSymbol + 2 * rxError ) / 
 1538              		.loc 1 300 0
 1539 000e 80B5     		push	{r7, lr}
 1540              	.LCFI15:
 1541              		.cfi_def_cfa_offset 32
 1542              		.cfi_offset 8, -32
 1543              		.cfi_offset 9, -28
 1544              		.loc 1 301 0
 1545 0010 4000     		lsls	r0, r0, #1
 300:../../../../../../Middlewares/Third_Party/LoRaWAN/Mac/region/RegionCommon.c ****     *windowTimeout = MAX( ( uint32_t )ceil( ( ( 2 * minRxSymbols - 8 ) * tSymbol + 2 * rxError ) / 
 1546              		.loc 1 300 0
 1547 0012 9146     		mov	r9, r2
ARM GAS  C:\Users\EBANO_~1\AppData\Local\Temp\ccizkeXa.s 			page 36


 1548              		.loc 1 301 0
 1549 0014 FFF7FEFF 		bl	__aeabi_i2d
 1550              	.LVL171:
 1551 0018 2200     		movs	r2, r4
 1552 001a 2B00     		movs	r3, r5
 1553 001c FFF7FEFF 		bl	__aeabi_dmul
 1554              	.LVL172:
 1555 0020 4346     		mov	r3, r8
 1556 0022 0600     		movs	r6, r0
 1557 0024 5800     		lsls	r0, r3, #1
 1558 0026 0F00     		movs	r7, r1
 1559 0028 FFF7FEFF 		bl	__aeabi_ui2d
 1560              	.LVL173:
 1561 002c 0200     		movs	r2, r0
 1562 002e 0B00     		movs	r3, r1
 1563 0030 3000     		movs	r0, r6
 1564 0032 3900     		movs	r1, r7
 1565 0034 FFF7FEFF 		bl	__aeabi_dadd
 1566              	.LVL174:
 1567 0038 2200     		movs	r2, r4
 1568 003a 2B00     		movs	r3, r5
 1569 003c FFF7FEFF 		bl	__aeabi_ddiv
 1570              	.LVL175:
 1571 0040 FFF7FEFF 		bl	ceil
 1572              	.LVL176:
 1573 0044 FFF7FEFF 		bl	__aeabi_d2uiz
 1574              	.LVL177:
 1575 0048 8046     		mov	r8, r0
 1576              	.LVL178:
 1577 004a 4845     		cmp	r0, r9
 1578 004c 00D2     		bcs	.L183
 1579 004e C846     		mov	r8, r9
 1580              	.L183:
 1581 0050 4246     		mov	r2, r8
 1582 0052 099B     		ldr	r3, [sp, #36]
 302:../../../../../../Middlewares/Third_Party/LoRaWAN/Mac/region/RegionCommon.c ****     *windowOffset = ( int32_t )ceil( ( 4.0 * tSymbol ) - ( ( *windowTimeout * tSymbol ) / 2.0 ) - w
 1583              		.loc 1 302 0
 1584 0054 2000     		movs	r0, r4
 301:../../../../../../Middlewares/Third_Party/LoRaWAN/Mac/region/RegionCommon.c ****     *windowTimeout = MAX( ( uint32_t )ceil( ( ( 2 * minRxSymbols - 8 ) * tSymbol + 2 * rxError ) / 
 1585              		.loc 1 301 0
 1586 0056 1A60     		str	r2, [r3]
 1587              		.loc 1 302 0
 1588 0058 2900     		movs	r1, r5
 1589 005a 0022     		movs	r2, #0
 1590 005c 154B     		ldr	r3, .L184
 1591 005e FFF7FEFF 		bl	__aeabi_dmul
 1592              	.LVL179:
 1593 0062 0600     		movs	r6, r0
 1594 0064 4046     		mov	r0, r8
 1595 0066 0F00     		movs	r7, r1
 1596 0068 FFF7FEFF 		bl	__aeabi_ui2d
 1597              	.LVL180:
 1598 006c 2200     		movs	r2, r4
 1599 006e 2B00     		movs	r3, r5
 1600 0070 FFF7FEFF 		bl	__aeabi_dmul
 1601              	.LVL181:
 1602 0074 0022     		movs	r2, #0
ARM GAS  C:\Users\EBANO_~1\AppData\Local\Temp\ccizkeXa.s 			page 37


 1603 0076 104B     		ldr	r3, .L184+4
 1604 0078 FFF7FEFF 		bl	__aeabi_dmul
 1605              	.LVL182:
 1606 007c 0200     		movs	r2, r0
 1607 007e 0B00     		movs	r3, r1
 1608 0080 3000     		movs	r0, r6
 1609 0082 3900     		movs	r1, r7
 1610 0084 FFF7FEFF 		bl	__aeabi_dsub
 1611              	.LVL183:
 1612 0088 0400     		movs	r4, r0
 1613 008a 0898     		ldr	r0, [sp, #32]
 1614 008c 0D00     		movs	r5, r1
 1615 008e FFF7FEFF 		bl	__aeabi_ui2d
 1616              	.LVL184:
 1617 0092 0200     		movs	r2, r0
 1618 0094 0B00     		movs	r3, r1
 1619 0096 2000     		movs	r0, r4
 1620 0098 2900     		movs	r1, r5
 1621 009a FFF7FEFF 		bl	__aeabi_dsub
 1622              	.LVL185:
 1623 009e FFF7FEFF 		bl	ceil
 1624              	.LVL186:
 1625 00a2 FFF7FEFF 		bl	__aeabi_d2iz
 1626              	.LVL187:
 1627 00a6 0A9B     		ldr	r3, [sp, #40]
 303:../../../../../../Middlewares/Third_Party/LoRaWAN/Mac/region/RegionCommon.c **** }
 1628              		.loc 1 303 0
 1629              		@ sp needed
 302:../../../../../../Middlewares/Third_Party/LoRaWAN/Mac/region/RegionCommon.c ****     *windowOffset = ( int32_t )ceil( ( 4.0 * tSymbol ) - ( ( *windowTimeout * tSymbol ) / 2.0 ) - w
 1630              		.loc 1 302 0
 1631 00a8 1860     		str	r0, [r3]
 1632              		.loc 1 303 0
 1633 00aa 0CBC     		pop	{r2, r3}
 1634 00ac 9046     		mov	r8, r2
 1635 00ae 9946     		mov	r9, r3
 1636 00b0 F8BD     		pop	{r3, r4, r5, r6, r7, pc}
 1637              	.L185:
 1638 00b2 C046     		.align	2
 1639              	.L184:
 1640 00b4 00001040 		.word	1074790400
 1641 00b8 0000E03F 		.word	1071644672
 1642              		.cfi_endproc
 1643              	.LFE52:
 1644              		.size	RegionCommonComputeRxWindowParameters, .-RegionCommonComputeRxWindowParameters
 1645              		.global	__aeabi_ui2f
 1646              		.global	__aeabi_fsub
 1647              		.global	__aeabi_f2d
 1648              		.section	.text.RegionCommonComputeTxPower,"ax",%progbits
 1649              		.align	1
 1650              		.p2align 2,,3
 1651              		.global	RegionCommonComputeTxPower
 1652              		.syntax unified
 1653              		.code	16
 1654              		.thumb_func
 1655              		.fpu softvfp
 1656              		.type	RegionCommonComputeTxPower, %function
 1657              	RegionCommonComputeTxPower:
ARM GAS  C:\Users\EBANO_~1\AppData\Local\Temp\ccizkeXa.s 			page 38


 1658              	.LFB53:
 304:../../../../../../Middlewares/Third_Party/LoRaWAN/Mac/region/RegionCommon.c **** 
 305:../../../../../../Middlewares/Third_Party/LoRaWAN/Mac/region/RegionCommon.c **** int8_t RegionCommonComputeTxPower( int8_t txPowerIndex, float maxEirp, float antennaGain )
 306:../../../../../../Middlewares/Third_Party/LoRaWAN/Mac/region/RegionCommon.c **** {
 1659              		.loc 1 306 0
 1660              		.cfi_startproc
 1661              		@ args = 0, pretend = 0, frame = 0
 1662              		@ frame_needed = 0, uses_anonymous_args = 0
 1663              	.LVL188:
 1664 0000 70B5     		push	{r4, r5, r6, lr}
 1665              	.LCFI16:
 1666              		.cfi_def_cfa_offset 16
 1667              		.cfi_offset 4, -16
 1668              		.cfi_offset 5, -12
 1669              		.cfi_offset 6, -8
 1670              		.cfi_offset 14, -4
 307:../../../../../../Middlewares/Third_Party/LoRaWAN/Mac/region/RegionCommon.c ****     int8_t phyTxPower = 0;
 308:../../../../../../Middlewares/Third_Party/LoRaWAN/Mac/region/RegionCommon.c **** 
 309:../../../../../../Middlewares/Third_Party/LoRaWAN/Mac/region/RegionCommon.c ****     phyTxPower = ( int8_t )floor( ( maxEirp - ( txPowerIndex * 2U ) ) - antennaGain );
 1671              		.loc 1 309 0
 1672 0002 4000     		lsls	r0, r0, #1
 1673              	.LVL189:
 306:../../../../../../Middlewares/Third_Party/LoRaWAN/Mac/region/RegionCommon.c ****     int8_t phyTxPower = 0;
 1674              		.loc 1 306 0
 1675 0004 141C     		adds	r4, r2, #0
 1676 0006 0D1C     		adds	r5, r1, #0
 1677              		.loc 1 309 0
 1678 0008 FFF7FEFF 		bl	__aeabi_ui2f
 1679              	.LVL190:
 1680 000c 011C     		adds	r1, r0, #0
 1681 000e 281C     		adds	r0, r5, #0
 1682 0010 FFF7FEFF 		bl	__aeabi_fsub
 1683              	.LVL191:
 1684 0014 211C     		adds	r1, r4, #0
 1685 0016 FFF7FEFF 		bl	__aeabi_fsub
 1686              	.LVL192:
 1687 001a FFF7FEFF 		bl	__aeabi_f2d
 1688              	.LVL193:
 1689 001e FFF7FEFF 		bl	floor
 1690              	.LVL194:
 1691 0022 FFF7FEFF 		bl	__aeabi_d2iz
 1692              	.LVL195:
 310:../../../../../../Middlewares/Third_Party/LoRaWAN/Mac/region/RegionCommon.c **** 
 311:../../../../../../Middlewares/Third_Party/LoRaWAN/Mac/region/RegionCommon.c ****     return phyTxPower;
 312:../../../../../../Middlewares/Third_Party/LoRaWAN/Mac/region/RegionCommon.c **** }
 1693              		.loc 1 312 0
 1694              		@ sp needed
 311:../../../../../../Middlewares/Third_Party/LoRaWAN/Mac/region/RegionCommon.c **** }
 1695              		.loc 1 311 0
 1696 0026 40B2     		sxtb	r0, r0
 1697              	.LVL196:
 1698              	.LVL197:
 1699              		.loc 1 312 0
 1700 0028 70BD     		pop	{r4, r5, r6, pc}
 1701              		.cfi_endproc
 1702              	.LFE53:
 1703              		.size	RegionCommonComputeTxPower, .-RegionCommonComputeTxPower
ARM GAS  C:\Users\EBANO_~1\AppData\Local\Temp\ccizkeXa.s 			page 39


 1704 002a C046     		.section	.text.RegionCommonCalcBackOff,"ax",%progbits
 1705              		.align	1
 1706              		.p2align 2,,3
 1707              		.global	RegionCommonCalcBackOff
 1708              		.syntax unified
 1709              		.code	16
 1710              		.thumb_func
 1711              		.fpu softvfp
 1712              		.type	RegionCommonCalcBackOff, %function
 1713              	RegionCommonCalcBackOff:
 1714              	.LFB54:
 313:../../../../../../Middlewares/Third_Party/LoRaWAN/Mac/region/RegionCommon.c **** 
 314:../../../../../../Middlewares/Third_Party/LoRaWAN/Mac/region/RegionCommon.c **** void RegionCommonCalcBackOff( RegionCommonCalcBackOffParams_t* calcBackOffParams )
 315:../../../../../../Middlewares/Third_Party/LoRaWAN/Mac/region/RegionCommon.c **** {
 1715              		.loc 1 315 0
 1716              		.cfi_startproc
 1717              		@ args = 0, pretend = 0, frame = 0
 1718              		@ frame_needed = 0, uses_anonymous_args = 0
 1719              	.LVL198:
 316:../../../../../../Middlewares/Third_Party/LoRaWAN/Mac/region/RegionCommon.c ****     uint8_t bandIdx = calcBackOffParams->Channels[calcBackOffParams->Channel].Band;
 1720              		.loc 1 316 0
 1721 0000 C27A     		ldrb	r2, [r0, #11]
 1722              	.LVL199:
 315:../../../../../../Middlewares/Third_Party/LoRaWAN/Mac/region/RegionCommon.c ****     uint8_t bandIdx = calcBackOffParams->Channels[calcBackOffParams->Channel].Band;
 1723              		.loc 1 315 0
 1724 0002 70B5     		push	{r4, r5, r6, lr}
 1725              	.LCFI17:
 1726              		.cfi_def_cfa_offset 16
 1727              		.cfi_offset 4, -16
 1728              		.cfi_offset 5, -12
 1729              		.cfi_offset 6, -8
 1730              		.cfi_offset 14, -4
 1731              		.loc 1 316 0
 1732 0004 5300     		lsls	r3, r2, #1
 1733 0006 9B18     		adds	r3, r3, r2
 1734 0008 0268     		ldr	r2, [r0]
 1735              	.LVL200:
 1736 000a 9B00     		lsls	r3, r3, #2
 1737 000c 9446     		mov	ip, r2
 317:../../../../../../Middlewares/Third_Party/LoRaWAN/Mac/region/RegionCommon.c ****     uint16_t dutyCycle = calcBackOffParams->Bands[bandIdx].DCycle;
 1738              		.loc 1 317 0
 1739 000e 4268     		ldr	r2, [r0, #4]
 316:../../../../../../Middlewares/Third_Party/LoRaWAN/Mac/region/RegionCommon.c ****     uint8_t bandIdx = calcBackOffParams->Channels[calcBackOffParams->Channel].Band;
 1740              		.loc 1 316 0
 1741 0010 6344     		add	r3, r3, ip
 1742              		.loc 1 317 0
 1743 0012 9446     		mov	ip, r2
 318:../../../../../../Middlewares/Third_Party/LoRaWAN/Mac/region/RegionCommon.c ****     uint16_t joinDutyCycle = 0;
 319:../../../../../../Middlewares/Third_Party/LoRaWAN/Mac/region/RegionCommon.c **** 
 320:../../../../../../Middlewares/Third_Party/LoRaWAN/Mac/region/RegionCommon.c ****     // Reset time-off to initial value.
 321:../../../../../../Middlewares/Third_Party/LoRaWAN/Mac/region/RegionCommon.c ****     calcBackOffParams->Bands[bandIdx].TimeOff = 0;
 1744              		.loc 1 321 0
 1745 0014 0022     		movs	r2, #0
 317:../../../../../../Middlewares/Third_Party/LoRaWAN/Mac/region/RegionCommon.c ****     uint16_t dutyCycle = calcBackOffParams->Bands[bandIdx].DCycle;
 1746              		.loc 1 317 0
 1747 0016 5B7A     		ldrb	r3, [r3, #9]
 1748 0018 1B01     		lsls	r3, r3, #4
ARM GAS  C:\Users\EBANO_~1\AppData\Local\Temp\ccizkeXa.s 			page 40


 1749 001a 6344     		add	r3, r3, ip
 1750              		.loc 1 321 0
 1751 001c DA60     		str	r2, [r3, #12]
 1752              	.LVL201:
 322:../../../../../../Middlewares/Third_Party/LoRaWAN/Mac/region/RegionCommon.c **** 
 323:../../../../../../Middlewares/Third_Party/LoRaWAN/Mac/region/RegionCommon.c ****     if( calcBackOffParams->Joined == false )
 1753              		.loc 1 323 0
 1754 001e 427A     		ldrb	r2, [r0, #9]
 317:../../../../../../Middlewares/Third_Party/LoRaWAN/Mac/region/RegionCommon.c ****     uint16_t joinDutyCycle = 0;
 1755              		.loc 1 317 0
 1756 0020 1988     		ldrh	r1, [r3]
 1757              	.LVL202:
 1758 0022 847A     		ldrb	r4, [r0, #10]
 1759              		.loc 1 323 0
 1760 0024 002A     		cmp	r2, #0
 1761 0026 0AD1     		bne	.L188
 324:../../../../../../Middlewares/Third_Party/LoRaWAN/Mac/region/RegionCommon.c ****     {
 325:../../../../../../Middlewares/Third_Party/LoRaWAN/Mac/region/RegionCommon.c ****         // Get the join duty cycle
 326:../../../../../../Middlewares/Third_Party/LoRaWAN/Mac/region/RegionCommon.c ****         joinDutyCycle = RegionCommonGetJoinDc( calcBackOffParams->ElapsedTime );
 1762              		.loc 1 326 0
 1763 0028 C568     		ldr	r5, [r0, #12]
 1764              	.LVL203:
 1765              	.LBB110:
 1766              	.LBB111:
  58:../../../../../../Middlewares/Third_Party/LoRaWAN/Mac/region/RegionCommon.c ****     {
 1767              		.loc 1 58 0
 1768 002a 164E     		ldr	r6, .L204
  60:../../../../../../Middlewares/Third_Party/LoRaWAN/Mac/region/RegionCommon.c ****     }
 1769              		.loc 1 60 0
 1770 002c 6432     		adds	r2, r2, #100
  58:../../../../../../Middlewares/Third_Party/LoRaWAN/Mac/region/RegionCommon.c ****     {
 1771              		.loc 1 58 0
 1772 002e B542     		cmp	r5, r6
 1773 0030 0CD8     		bhi	.L201
 1774              	.LVL204:
 1775              	.LBE111:
 1776              	.LBE110:
 327:../../../../../../Middlewares/Third_Party/LoRaWAN/Mac/region/RegionCommon.c ****         // Apply the most restricting duty cycle
 328:../../../../../../Middlewares/Third_Party/LoRaWAN/Mac/region/RegionCommon.c ****         dutyCycle = MAX( dutyCycle, joinDutyCycle );
 329:../../../../../../Middlewares/Third_Party/LoRaWAN/Mac/region/RegionCommon.c ****         // Reset the timeoff if the last frame was not a join request and when the duty cycle is no
 330:../../../../../../Middlewares/Third_Party/LoRaWAN/Mac/region/RegionCommon.c ****         if( ( calcBackOffParams->DutyCycleEnabled == false ) && ( calcBackOffParams->LastTxIsJoinRe
 1777              		.loc 1 330 0
 1778 0032 002C     		cmp	r4, #0
 1779 0034 15D1     		bne	.L190
 1780              	.LVL205:
 1781              	.L202:
 1782              		.loc 1 330 0 is_stmt 0 discriminator 1
 1783 0036 047A     		ldrb	r4, [r0, #8]
 1784 0038 002C     		cmp	r4, #0
 1785 003a 12D1     		bne	.L190
 1786              	.L187:
 331:../../../../../../Middlewares/Third_Party/LoRaWAN/Mac/region/RegionCommon.c ****         {
 332:../../../../../../Middlewares/Third_Party/LoRaWAN/Mac/region/RegionCommon.c ****             // This is the case when the duty cycle is off and the last uplink frame was not a join
 333:../../../../../../Middlewares/Third_Party/LoRaWAN/Mac/region/RegionCommon.c ****             // This could happen in case of a rejoin, e.g. in compliance test mode.
 334:../../../../../../Middlewares/Third_Party/LoRaWAN/Mac/region/RegionCommon.c ****             // In this special case we have to set the time off to 0, since the join duty cycle sha
 335:../../../../../../Middlewares/Third_Party/LoRaWAN/Mac/region/RegionCommon.c ****             // be applied after the first join request.
 336:../../../../../../Middlewares/Third_Party/LoRaWAN/Mac/region/RegionCommon.c ****             calcBackOffParams->Bands[bandIdx].TimeOff = 0;
ARM GAS  C:\Users\EBANO_~1\AppData\Local\Temp\ccizkeXa.s 			page 41


 337:../../../../../../Middlewares/Third_Party/LoRaWAN/Mac/region/RegionCommon.c ****         }
 338:../../../../../../Middlewares/Third_Party/LoRaWAN/Mac/region/RegionCommon.c ****         else
 339:../../../../../../Middlewares/Third_Party/LoRaWAN/Mac/region/RegionCommon.c ****         {
 340:../../../../../../Middlewares/Third_Party/LoRaWAN/Mac/region/RegionCommon.c ****             // Apply band time-off.
 341:../../../../../../Middlewares/Third_Party/LoRaWAN/Mac/region/RegionCommon.c ****             calcBackOffParams->Bands[bandIdx].TimeOff = calcBackOffParams->TxTimeOnAir * dutyCycle 
 342:../../../../../../Middlewares/Third_Party/LoRaWAN/Mac/region/RegionCommon.c ****         }
 343:../../../../../../Middlewares/Third_Party/LoRaWAN/Mac/region/RegionCommon.c ****     }
 344:../../../../../../Middlewares/Third_Party/LoRaWAN/Mac/region/RegionCommon.c ****     else
 345:../../../../../../Middlewares/Third_Party/LoRaWAN/Mac/region/RegionCommon.c ****     {
 346:../../../../../../Middlewares/Third_Party/LoRaWAN/Mac/region/RegionCommon.c ****         if( calcBackOffParams->DutyCycleEnabled == true )
 347:../../../../../../Middlewares/Third_Party/LoRaWAN/Mac/region/RegionCommon.c ****         {
 348:../../../../../../Middlewares/Third_Party/LoRaWAN/Mac/region/RegionCommon.c ****             calcBackOffParams->Bands[bandIdx].TimeOff = calcBackOffParams->TxTimeOnAir * dutyCycle 
 349:../../../../../../Middlewares/Third_Party/LoRaWAN/Mac/region/RegionCommon.c ****         }
 350:../../../../../../Middlewares/Third_Party/LoRaWAN/Mac/region/RegionCommon.c ****         else
 351:../../../../../../Middlewares/Third_Party/LoRaWAN/Mac/region/RegionCommon.c ****         {
 352:../../../../../../Middlewares/Third_Party/LoRaWAN/Mac/region/RegionCommon.c ****             calcBackOffParams->Bands[bandIdx].TimeOff = 0;
 353:../../../../../../Middlewares/Third_Party/LoRaWAN/Mac/region/RegionCommon.c ****         }
 354:../../../../../../Middlewares/Third_Party/LoRaWAN/Mac/region/RegionCommon.c ****     }
 355:../../../../../../Middlewares/Third_Party/LoRaWAN/Mac/region/RegionCommon.c **** }
 1787              		.loc 1 355 0 is_stmt 1
 1788              		@ sp needed
 1789 003c 70BD     		pop	{r4, r5, r6, pc}
 1790              	.LVL206:
 1791              	.L188:
 346:../../../../../../Middlewares/Third_Party/LoRaWAN/Mac/region/RegionCommon.c ****         {
 1792              		.loc 1 346 0
 1793 003e 002C     		cmp	r4, #0
 1794 0040 FCD0     		beq	.L187
 348:../../../../../../Middlewares/Third_Party/LoRaWAN/Mac/region/RegionCommon.c ****         }
 1795              		.loc 1 348 0
 1796 0042 0269     		ldr	r2, [r0, #16]
 1797 0044 0139     		subs	r1, r1, #1
 1798              	.LVL207:
 1799 0046 5143     		muls	r1, r2
 1800              	.LVL208:
 1801 0048 D960     		str	r1, [r3, #12]
 1802              		.loc 1 355 0
 1803 004a F7E7     		b	.L187
 1804              	.LVL209:
 1805              	.L201:
 1806              	.LBB113:
 1807              	.LBB112:
  64:../../../../../../Middlewares/Third_Party/LoRaWAN/Mac/region/RegionCommon.c ****     }
 1808              		.loc 1 64 0
 1809 004c 0E4A     		ldr	r2, .L204+4
 1810 004e AA42     		cmp	r2, r5
 1811 0050 9241     		sbcs	r2, r2, r2
 1812 0052 0E4D     		ldr	r5, .L204+8
 1813              	.LVL210:
 1814 0054 2A40     		ands	r2, r5
 1815 0056 FA25     		movs	r5, #250
 1816 0058 AD00     		lsls	r5, r5, #2
 1817 005a AC46     		mov	ip, r5
 1818 005c 6244     		add	r2, r2, ip
 1819              	.LVL211:
 1820              	.LBE112:
 1821              	.LBE113:
ARM GAS  C:\Users\EBANO_~1\AppData\Local\Temp\ccizkeXa.s 			page 42


 330:../../../../../../Middlewares/Third_Party/LoRaWAN/Mac/region/RegionCommon.c ****         {
 1822              		.loc 1 330 0
 1823 005e 002C     		cmp	r4, #0
 1824 0060 E9D0     		beq	.L202
 1825              	.LVL212:
 1826              	.L190:
 328:../../../../../../Middlewares/Third_Party/LoRaWAN/Mac/region/RegionCommon.c ****         // Reset the timeoff if the last frame was not a join request and when the duty cycle is no
 1827              		.loc 1 328 0
 1828 0062 0C1C     		adds	r4, r1, #0
 1829 0064 9142     		cmp	r1, r2
 1830 0066 05D3     		bcc	.L203
 341:../../../../../../Middlewares/Third_Party/LoRaWAN/Mac/region/RegionCommon.c ****         }
 1831              		.loc 1 341 0
 1832 0068 0269     		ldr	r2, [r0, #16]
 1833 006a A4B2     		uxth	r4, r4
 1834 006c 013C     		subs	r4, r4, #1
 1835 006e 5443     		muls	r4, r2
 1836 0070 DC60     		str	r4, [r3, #12]
 1837 0072 E3E7     		b	.L187
 1838              	.L203:
 328:../../../../../../Middlewares/Third_Party/LoRaWAN/Mac/region/RegionCommon.c ****         // Reset the timeoff if the last frame was not a join request and when the duty cycle is no
 1839              		.loc 1 328 0
 1840 0074 141C     		adds	r4, r2, #0
 341:../../../../../../Middlewares/Third_Party/LoRaWAN/Mac/region/RegionCommon.c ****         }
 1841              		.loc 1 341 0
 1842 0076 A4B2     		uxth	r4, r4
 1843 0078 0269     		ldr	r2, [r0, #16]
 1844 007a 013C     		subs	r4, r4, #1
 1845 007c 5443     		muls	r4, r2
 1846 007e DC60     		str	r4, [r3, #12]
 1847 0080 DCE7     		b	.L187
 1848              	.L205:
 1849 0082 C046     		.align	2
 1850              	.L204:
 1851 0084 7FEE3600 		.word	3599999
 1852 0088 7F3F5C02 		.word	39599999
 1853 008c 28230000 		.word	9000
 1854              		.cfi_endproc
 1855              	.LFE54:
 1856              		.size	RegionCommonCalcBackOff, .-RegionCommonCalcBackOff
 1857              		.section	.text.RegionCommonRxBeaconSetup,"ax",%progbits
 1858              		.align	1
 1859              		.p2align 2,,3
 1860              		.global	RegionCommonRxBeaconSetup
 1861              		.syntax unified
 1862              		.code	16
 1863              		.thumb_func
 1864              		.fpu softvfp
 1865              		.type	RegionCommonRxBeaconSetup, %function
 1866              	RegionCommonRxBeaconSetup:
 1867              	.LFB55:
 356:../../../../../../Middlewares/Third_Party/LoRaWAN/Mac/region/RegionCommon.c **** 
 357:../../../../../../Middlewares/Third_Party/LoRaWAN/Mac/region/RegionCommon.c **** 
 358:../../../../../../Middlewares/Third_Party/LoRaWAN/Mac/region/RegionCommon.c **** void RegionCommonRxBeaconSetup( RegionCommonRxBeaconSetupParams_t* rxBeaconSetupParams )
 359:../../../../../../Middlewares/Third_Party/LoRaWAN/Mac/region/RegionCommon.c **** {
 1868              		.loc 1 359 0
 1869              		.cfi_startproc
ARM GAS  C:\Users\EBANO_~1\AppData\Local\Temp\ccizkeXa.s 			page 43


 1870              		@ args = 0, pretend = 0, frame = 0
 1871              		@ frame_needed = 0, uses_anonymous_args = 0
 1872              	.LVL213:
 1873 0000 70B5     		push	{r4, r5, r6, lr}
 1874              	.LCFI18:
 1875              		.cfi_def_cfa_offset 16
 1876              		.cfi_offset 4, -16
 1877              		.cfi_offset 5, -12
 1878              		.cfi_offset 6, -8
 1879              		.cfi_offset 14, -4
 1880 0002 0400     		movs	r4, r0
 360:../../../../../../Middlewares/Third_Party/LoRaWAN/Mac/region/RegionCommon.c ****     bool rxContinuous = true;
 361:../../../../../../Middlewares/Third_Party/LoRaWAN/Mac/region/RegionCommon.c ****     uint8_t datarate;
 362:../../../../../../Middlewares/Third_Party/LoRaWAN/Mac/region/RegionCommon.c **** 
 363:../../../../../../Middlewares/Third_Party/LoRaWAN/Mac/region/RegionCommon.c ****     // Set the radio into sleep mode
 364:../../../../../../Middlewares/Third_Party/LoRaWAN/Mac/region/RegionCommon.c ****     Radio.Sleep( );
 1881              		.loc 1 364 0
 1882 0004 144D     		ldr	r5, .L207
 359:../../../../../../Middlewares/Third_Party/LoRaWAN/Mac/region/RegionCommon.c ****     bool rxContinuous = true;
 1883              		.loc 1 359 0
 1884 0006 8AB0     		sub	sp, sp, #40
 1885              	.LCFI19:
 1886              		.cfi_def_cfa_offset 56
 1887              		.loc 1 364 0
 1888 0008 6B6B     		ldr	r3, [r5, #52]
 1889 000a 9847     		blx	r3
 1890              	.LVL214:
 365:../../../../../../Middlewares/Third_Party/LoRaWAN/Mac/region/RegionCommon.c **** 
 366:../../../../../../Middlewares/Third_Party/LoRaWAN/Mac/region/RegionCommon.c ****     // Setup frequency and payload length
 367:../../../../../../Middlewares/Third_Party/LoRaWAN/Mac/region/RegionCommon.c ****     Radio.SetChannel( rxBeaconSetupParams->Frequency );
 1891              		.loc 1 367 0
 1892 000c 6068     		ldr	r0, [r4, #4]
 1893 000e 6B69     		ldr	r3, [r5, #20]
 1894 0010 9847     		blx	r3
 1895              	.LVL215:
 368:../../../../../../Middlewares/Third_Party/LoRaWAN/Mac/region/RegionCommon.c ****     Radio.SetMaxPayloadLength( MODEM_LORA, rxBeaconSetupParams->BeaconSize );
 1896              		.loc 1 368 0
 1897 0012 217A     		ldrb	r1, [r4, #8]
 1898 0014 0120     		movs	r0, #1
 1899 0016 EB6D     		ldr	r3, [r5, #92]
 1900 0018 9847     		blx	r3
 1901              	.LVL216:
 369:../../../../../../Middlewares/Third_Party/LoRaWAN/Mac/region/RegionCommon.c **** 
 370:../../../../../../Middlewares/Third_Party/LoRaWAN/Mac/region/RegionCommon.c ****     // Check the RX continuous mode
 371:../../../../../../Middlewares/Third_Party/LoRaWAN/Mac/region/RegionCommon.c ****     if( rxBeaconSetupParams->RxTime != 0 )
 372:../../../../../../Middlewares/Third_Party/LoRaWAN/Mac/region/RegionCommon.c ****     {
 373:../../../../../../Middlewares/Third_Party/LoRaWAN/Mac/region/RegionCommon.c ****         rxContinuous = false;
 374:../../../../../../Middlewares/Third_Party/LoRaWAN/Mac/region/RegionCommon.c ****     }
 375:../../../../../../Middlewares/Third_Party/LoRaWAN/Mac/region/RegionCommon.c **** 
 376:../../../../../../Middlewares/Third_Party/LoRaWAN/Mac/region/RegionCommon.c ****     // Get region specific datarate
 377:../../../../../../Middlewares/Third_Party/LoRaWAN/Mac/region/RegionCommon.c ****     datarate = rxBeaconSetupParams->Datarates[rxBeaconSetupParams->BeaconDatarate];
 1902              		.loc 1 377 0
 1903 001a 637A     		ldrb	r3, [r4, #9]
 378:../../../../../../Middlewares/Third_Party/LoRaWAN/Mac/region/RegionCommon.c **** 
 379:../../../../../../Middlewares/Third_Party/LoRaWAN/Mac/region/RegionCommon.c ****     // Setup radio
 380:../../../../../../Middlewares/Third_Party/LoRaWAN/Mac/region/RegionCommon.c ****     Radio.SetRxConfig( MODEM_LORA, rxBeaconSetupParams->BeaconChannelBW, datarate,
 1904              		.loc 1 380 0
ARM GAS  C:\Users\EBANO_~1\AppData\Local\Temp\ccizkeXa.s 			page 44


 1905 001c 2268     		ldr	r2, [r4]
 1906 001e A17A     		ldrb	r1, [r4, #10]
 1907 0020 D25C     		ldrb	r2, [r2, r3]
 371:../../../../../../Middlewares/Third_Party/LoRaWAN/Mac/region/RegionCommon.c ****     {
 1908              		.loc 1 371 0
 1909 0022 E368     		ldr	r3, [r4, #12]
 1910              		.loc 1 380 0
 1911 0024 2E6A     		ldr	r6, [r5, #32]
 371:../../../../../../Middlewares/Third_Party/LoRaWAN/Mac/region/RegionCommon.c ****     {
 1912              		.loc 1 371 0
 1913 0026 5842     		rsbs	r0, r3, #0
 1914 0028 4341     		adcs	r3, r3, r0
 1915              		.loc 1 380 0
 1916 002a 207A     		ldrb	r0, [r4, #8]
 1917 002c 0993     		str	r3, [sp, #36]
 1918              	.LVL217:
 1919 002e 0490     		str	r0, [sp, #16]
 1920 0030 0120     		movs	r0, #1
 1921 0032 0390     		str	r0, [sp, #12]
 1922 0034 208A     		ldrh	r0, [r4, #16]
 1923 0036 0023     		movs	r3, #0
 1924 0038 0290     		str	r0, [sp, #8]
 1925 003a 0A20     		movs	r0, #10
 1926 003c 0893     		str	r3, [sp, #32]
 1927 003e 0793     		str	r3, [sp, #28]
 1928 0040 0693     		str	r3, [sp, #24]
 1929 0042 0593     		str	r3, [sp, #20]
 1930 0044 0190     		str	r0, [sp, #4]
 1931 0046 0093     		str	r3, [sp]
 1932 0048 0938     		subs	r0, r0, #9
 1933 004a 0133     		adds	r3, r3, #1
 1934 004c B047     		blx	r6
 1935              	.LVL218:
 381:../../../../../../Middlewares/Third_Party/LoRaWAN/Mac/region/RegionCommon.c ****                        1, 0, 10, rxBeaconSetupParams->SymbolTimeout, true, rxBeaconSetupParams->Bea
 382:../../../../../../Middlewares/Third_Party/LoRaWAN/Mac/region/RegionCommon.c **** 
 383:../../../../../../Middlewares/Third_Party/LoRaWAN/Mac/region/RegionCommon.c ****     Radio.Rx( rxBeaconSetupParams->RxTime );
 1936              		.loc 1 383 0
 1937 004e E068     		ldr	r0, [r4, #12]
 1938 0050 EB6B     		ldr	r3, [r5, #60]
 1939 0052 9847     		blx	r3
 1940              	.LVL219:
 384:../../../../../../Middlewares/Third_Party/LoRaWAN/Mac/region/RegionCommon.c **** }
 1941              		.loc 1 384 0
 1942 0054 0AB0     		add	sp, sp, #40
 1943              		@ sp needed
 1944              	.LVL220:
 1945 0056 70BD     		pop	{r4, r5, r6, pc}
 1946              	.L208:
 1947              		.align	2
 1948              	.L207:
 1949 0058 00000000 		.word	Radio
 1950              		.cfi_endproc
 1951              	.LFE55:
 1952              		.size	RegionCommonRxBeaconSetup, .-RegionCommonRxBeaconSetup
 1953              		.text
 1954              	.Letext0:
 1955              		.file 2 "c:\\program files (x86)\\gnu tools arm embedded\\7 2018-q2-update\\arm-none-eabi\\include
ARM GAS  C:\Users\EBANO_~1\AppData\Local\Temp\ccizkeXa.s 			page 45


 1956              		.file 3 "c:\\program files (x86)\\gnu tools arm embedded\\7 2018-q2-update\\arm-none-eabi\\include
 1957              		.file 4 "c:\\program files (x86)\\gnu tools arm embedded\\7 2018-q2-update\\arm-none-eabi\\include
 1958              		.file 5 "c:\\program files (x86)\\gnu tools arm embedded\\7 2018-q2-update\\lib\\gcc\\arm-none-eab
 1959              		.file 6 "c:\\program files (x86)\\gnu tools arm embedded\\7 2018-q2-update\\arm-none-eabi\\include
 1960              		.file 7 "c:\\program files (x86)\\gnu tools arm embedded\\7 2018-q2-update\\arm-none-eabi\\include
 1961              		.file 8 "c:\\program files (x86)\\gnu tools arm embedded\\7 2018-q2-update\\arm-none-eabi\\include
 1962              		.file 9 "../../../../../../Middlewares/Third_Party/LoRaWAN/Phy/radio.h"
 1963              		.file 10 "../../../../../../Drivers/CMSIS/Device/ST/STM32L0xx/Include/system_stm32l0xx.h"
 1964              		.file 11 "c:\\program files (x86)\\gnu tools arm embedded\\7 2018-q2-update\\arm-none-eabi\\includ
 1965              		.file 12 "../../../../../../Middlewares/Third_Party/LoRaWAN/Utilities/utilities.h"
 1966              		.file 13 "../../../../../../Middlewares/Third_Party/LoRaWAN/Mac/LoRaMacTypes.h"
 1967              		.file 14 "c:\\program files (x86)\\gnu tools arm embedded\\7 2018-q2-update\\arm-none-eabi\\includ
 1968              		.file 15 "../../../../../../Middlewares/Third_Party/LoRaWAN/Mac/LoRaMac.h"
 1969              		.file 16 "../../../../../../Middlewares/Third_Party/LoRaWAN/Mac/region/RegionCommon.h"
 1970              		.file 17 "../../../../../../Middlewares/Third_Party/LoRaWAN/Utilities/timeServer.h"
 1971              		.section	.debug_info,"",%progbits
 1972              	.Ldebug_info0:
 1973 0000 471E0000 		.4byte	0x1e47
 1974 0004 0200     		.2byte	0x2
 1975 0006 00000000 		.4byte	.Ldebug_abbrev0
 1976 000a 04       		.byte	0x4
 1977 000b 01       		.uleb128 0x1
 1978 000c 0D0B0000 		.4byte	.LASF347
 1979 0010 0C       		.byte	0xc
 1980 0011 6C070000 		.4byte	.LASF348
 1981 0015 0B030000 		.4byte	.LASF349
 1982 0019 98010000 		.4byte	.Ldebug_ranges0+0x198
 1983 001d 00000000 		.4byte	0
 1984 0021 00000000 		.4byte	0
 1985 0025 00000000 		.4byte	.Ldebug_line0
 1986 0029 02       		.uleb128 0x2
 1987 002a 08       		.byte	0x8
 1988 002b 04       		.byte	0x4
 1989 002c 9F100000 		.4byte	.LASF0
 1990 0030 02       		.uleb128 0x2
 1991 0031 04       		.byte	0x4
 1992 0032 04       		.byte	0x4
 1993 0033 86030000 		.4byte	.LASF1
 1994 0037 02       		.uleb128 0x2
 1995 0038 01       		.byte	0x1
 1996 0039 06       		.byte	0x6
 1997 003a 43100000 		.4byte	.LASF2
 1998 003e 03       		.uleb128 0x3
 1999 003f 04       		.byte	0x4
 2000 0040 05       		.byte	0x5
 2001 0041 696E7400 		.ascii	"int\000"
 2002 0045 02       		.uleb128 0x2
 2003 0046 04       		.byte	0x4
 2004 0047 07       		.byte	0x7
 2005 0048 46010000 		.4byte	.LASF3
 2006 004c 02       		.uleb128 0x2
 2007 004d 08       		.byte	0x8
 2008 004e 05       		.byte	0x5
 2009 004f 82080000 		.4byte	.LASF4
 2010 0053 02       		.uleb128 0x2
 2011 0054 08       		.byte	0x8
 2012 0055 04       		.byte	0x4
ARM GAS  C:\Users\EBANO_~1\AppData\Local\Temp\ccizkeXa.s 			page 46


 2013 0056 AF0A0000 		.4byte	.LASF5
 2014 005a 04       		.uleb128 0x4
 2015 005b 700A0000 		.4byte	.LASF6
 2016 005f 02       		.byte	0x2
 2017 0060 29       		.byte	0x29
 2018 0061 37000000 		.4byte	0x37
 2019 0065 04       		.uleb128 0x4
 2020 0066 A40F0000 		.4byte	.LASF7
 2021 006a 02       		.byte	0x2
 2022 006b 2B       		.byte	0x2b
 2023 006c 70000000 		.4byte	0x70
 2024 0070 02       		.uleb128 0x2
 2025 0071 01       		.byte	0x1
 2026 0072 08       		.byte	0x8
 2027 0073 6E0E0000 		.4byte	.LASF8
 2028 0077 04       		.uleb128 0x4
 2029 0078 34090000 		.4byte	.LASF9
 2030 007c 02       		.byte	0x2
 2031 007d 37       		.byte	0x37
 2032 007e 82000000 		.4byte	0x82
 2033 0082 02       		.uleb128 0x2
 2034 0083 02       		.byte	0x2
 2035 0084 05       		.byte	0x5
 2036 0085 C60B0000 		.4byte	.LASF10
 2037 0089 04       		.uleb128 0x4
 2038 008a CC040000 		.4byte	.LASF11
 2039 008e 02       		.byte	0x2
 2040 008f 39       		.byte	0x39
 2041 0090 94000000 		.4byte	0x94
 2042 0094 02       		.uleb128 0x2
 2043 0095 02       		.byte	0x2
 2044 0096 07       		.byte	0x7
 2045 0097 56100000 		.4byte	.LASF12
 2046 009b 04       		.uleb128 0x4
 2047 009c 17070000 		.4byte	.LASF13
 2048 00a0 02       		.byte	0x2
 2049 00a1 4D       		.byte	0x4d
 2050 00a2 A6000000 		.4byte	0xa6
 2051 00a6 02       		.uleb128 0x2
 2052 00a7 04       		.byte	0x4
 2053 00a8 05       		.byte	0x5
 2054 00a9 110C0000 		.4byte	.LASF14
 2055 00ad 04       		.uleb128 0x4
 2056 00ae BB040000 		.4byte	.LASF15
 2057 00b2 02       		.byte	0x2
 2058 00b3 4F       		.byte	0x4f
 2059 00b4 B8000000 		.4byte	0xb8
 2060 00b8 02       		.uleb128 0x2
 2061 00b9 04       		.byte	0x4
 2062 00ba 07       		.byte	0x7
 2063 00bb 6D0D0000 		.4byte	.LASF16
 2064 00bf 02       		.uleb128 0x2
 2065 00c0 08       		.byte	0x8
 2066 00c1 07       		.byte	0x7
 2067 00c2 3C040000 		.4byte	.LASF17
 2068 00c6 04       		.uleb128 0x4
 2069 00c7 91020000 		.4byte	.LASF18
ARM GAS  C:\Users\EBANO_~1\AppData\Local\Temp\ccizkeXa.s 			page 47


 2070 00cb 03       		.byte	0x3
 2071 00cc 22       		.byte	0x22
 2072 00cd D1000000 		.4byte	0xd1
 2073 00d1 05       		.uleb128 0x5
 2074 00d2 04       		.byte	0x4
 2075 00d3 D7000000 		.4byte	0xd7
 2076 00d7 06       		.uleb128 0x6
 2077 00d8 FA0D0000 		.4byte	.LASF125
 2078 00dc 01       		.byte	0x1
 2079 00dd 04       		.uleb128 0x4
 2080 00de CB100000 		.4byte	.LASF19
 2081 00e2 04       		.byte	0x4
 2082 00e3 2C       		.byte	0x2c
 2083 00e4 A6000000 		.4byte	0xa6
 2084 00e8 04       		.uleb128 0x4
 2085 00e9 56020000 		.4byte	.LASF20
 2086 00ed 04       		.byte	0x4
 2087 00ee 72       		.byte	0x72
 2088 00ef A6000000 		.4byte	0xa6
 2089 00f3 07       		.uleb128 0x7
 2090 00f4 970D0000 		.4byte	.LASF21
 2091 00f8 05       		.byte	0x5
 2092 00f9 6501     		.2byte	0x165
 2093 00fb 45000000 		.4byte	0x45
 2094 00ff 08       		.uleb128 0x8
 2095 0100 04       		.byte	0x4
 2096 0101 04       		.byte	0x4
 2097 0102 A6       		.byte	0xa6
 2098 0103 1E010000 		.4byte	0x11e
 2099 0107 09       		.uleb128 0x9
 2100 0108 E8070000 		.4byte	.LASF22
 2101 010c 04       		.byte	0x4
 2102 010d A8       		.byte	0xa8
 2103 010e F3000000 		.4byte	0xf3
 2104 0112 09       		.uleb128 0x9
 2105 0113 480C0000 		.4byte	.LASF23
 2106 0117 04       		.byte	0x4
 2107 0118 A9       		.byte	0xa9
 2108 0119 1E010000 		.4byte	0x11e
 2109 011d 00       		.byte	0
 2110 011e 0A       		.uleb128 0xa
 2111 011f 70000000 		.4byte	0x70
 2112 0123 2E010000 		.4byte	0x12e
 2113 0127 0B       		.uleb128 0xb
 2114 0128 45000000 		.4byte	0x45
 2115 012c 03       		.byte	0x3
 2116 012d 00       		.byte	0
 2117 012e 0C       		.uleb128 0xc
 2118 012f 08       		.byte	0x8
 2119 0130 04       		.byte	0x4
 2120 0131 A3       		.byte	0xa3
 2121 0132 53010000 		.4byte	0x153
 2122 0136 0D       		.uleb128 0xd
 2123 0137 7E030000 		.4byte	.LASF24
 2124 013b 04       		.byte	0x4
 2125 013c A5       		.byte	0xa5
 2126 013d 3E000000 		.4byte	0x3e
ARM GAS  C:\Users\EBANO_~1\AppData\Local\Temp\ccizkeXa.s 			page 48


 2127 0141 02       		.byte	0x2
 2128 0142 23       		.byte	0x23
 2129 0143 00       		.uleb128 0
 2130 0144 0D       		.uleb128 0xd
 2131 0145 AC060000 		.4byte	.LASF25
 2132 0149 04       		.byte	0x4
 2133 014a AA       		.byte	0xaa
 2134 014b FF000000 		.4byte	0xff
 2135 014f 02       		.byte	0x2
 2136 0150 23       		.byte	0x23
 2137 0151 04       		.uleb128 0x4
 2138 0152 00       		.byte	0
 2139 0153 04       		.uleb128 0x4
 2140 0154 9A090000 		.4byte	.LASF26
 2141 0158 04       		.byte	0x4
 2142 0159 AB       		.byte	0xab
 2143 015a 2E010000 		.4byte	0x12e
 2144 015e 04       		.uleb128 0x4
 2145 015f 06000000 		.4byte	.LASF27
 2146 0163 04       		.byte	0x4
 2147 0164 AF       		.byte	0xaf
 2148 0165 C6000000 		.4byte	0xc6
 2149 0169 0E       		.uleb128 0xe
 2150 016a 04       		.byte	0x4
 2151 016b 05       		.uleb128 0x5
 2152 016c 04       		.byte	0x4
 2153 016d 71010000 		.4byte	0x171
 2154 0171 02       		.uleb128 0x2
 2155 0172 01       		.byte	0x1
 2156 0173 08       		.byte	0x8
 2157 0174 000B0000 		.4byte	.LASF28
 2158 0178 0F       		.uleb128 0xf
 2159 0179 71010000 		.4byte	0x171
 2160 017d 04       		.uleb128 0x4
 2161 017e 13020000 		.4byte	.LASF29
 2162 0182 06       		.byte	0x6
 2163 0183 16       		.byte	0x16
 2164 0184 B8000000 		.4byte	0xb8
 2165 0188 10       		.uleb128 0x10
 2166 0189 99020000 		.4byte	.LASF34
 2167 018d 18       		.byte	0x18
 2168 018e 06       		.byte	0x6
 2169 018f 2F       		.byte	0x2f
 2170 0190 E7010000 		.4byte	0x1e7
 2171 0194 0D       		.uleb128 0xd
 2172 0195 52060000 		.4byte	.LASF30
 2173 0199 06       		.byte	0x6
 2174 019a 31       		.byte	0x31
 2175 019b E7010000 		.4byte	0x1e7
 2176 019f 02       		.byte	0x2
 2177 01a0 23       		.byte	0x23
 2178 01a1 00       		.uleb128 0
 2179 01a2 11       		.uleb128 0x11
 2180 01a3 5F6B00   		.ascii	"_k\000"
 2181 01a6 06       		.byte	0x6
 2182 01a7 32       		.byte	0x32
 2183 01a8 3E000000 		.4byte	0x3e
ARM GAS  C:\Users\EBANO_~1\AppData\Local\Temp\ccizkeXa.s 			page 49


 2184 01ac 02       		.byte	0x2
 2185 01ad 23       		.byte	0x23
 2186 01ae 04       		.uleb128 0x4
 2187 01af 0D       		.uleb128 0xd
 2188 01b0 070D0000 		.4byte	.LASF31
 2189 01b4 06       		.byte	0x6
 2190 01b5 32       		.byte	0x32
 2191 01b6 3E000000 		.4byte	0x3e
 2192 01ba 02       		.byte	0x2
 2193 01bb 23       		.byte	0x23
 2194 01bc 08       		.uleb128 0x8
 2195 01bd 0D       		.uleb128 0xd
 2196 01be 3C0C0000 		.4byte	.LASF32
 2197 01c2 06       		.byte	0x6
 2198 01c3 32       		.byte	0x32
 2199 01c4 3E000000 		.4byte	0x3e
 2200 01c8 02       		.byte	0x2
 2201 01c9 23       		.byte	0x23
 2202 01ca 0C       		.uleb128 0xc
 2203 01cb 0D       		.uleb128 0xd
 2204 01cc 87040000 		.4byte	.LASF33
 2205 01d0 06       		.byte	0x6
 2206 01d1 32       		.byte	0x32
 2207 01d2 3E000000 		.4byte	0x3e
 2208 01d6 02       		.byte	0x2
 2209 01d7 23       		.byte	0x23
 2210 01d8 10       		.uleb128 0x10
 2211 01d9 11       		.uleb128 0x11
 2212 01da 5F7800   		.ascii	"_x\000"
 2213 01dd 06       		.byte	0x6
 2214 01de 33       		.byte	0x33
 2215 01df ED010000 		.4byte	0x1ed
 2216 01e3 02       		.byte	0x2
 2217 01e4 23       		.byte	0x23
 2218 01e5 14       		.uleb128 0x14
 2219 01e6 00       		.byte	0
 2220 01e7 05       		.uleb128 0x5
 2221 01e8 04       		.byte	0x4
 2222 01e9 88010000 		.4byte	0x188
 2223 01ed 0A       		.uleb128 0xa
 2224 01ee 7D010000 		.4byte	0x17d
 2225 01f2 FD010000 		.4byte	0x1fd
 2226 01f6 0B       		.uleb128 0xb
 2227 01f7 45000000 		.4byte	0x45
 2228 01fb 00       		.byte	0
 2229 01fc 00       		.byte	0
 2230 01fd 10       		.uleb128 0x10
 2231 01fe 5C0D0000 		.4byte	.LASF35
 2232 0202 24       		.byte	0x24
 2233 0203 06       		.byte	0x6
 2234 0204 37       		.byte	0x37
 2235 0205 88020000 		.4byte	0x288
 2236 0209 0D       		.uleb128 0xd
 2237 020a DD050000 		.4byte	.LASF36
 2238 020e 06       		.byte	0x6
 2239 020f 39       		.byte	0x39
 2240 0210 3E000000 		.4byte	0x3e
ARM GAS  C:\Users\EBANO_~1\AppData\Local\Temp\ccizkeXa.s 			page 50


 2241 0214 02       		.byte	0x2
 2242 0215 23       		.byte	0x23
 2243 0216 00       		.uleb128 0
 2244 0217 0D       		.uleb128 0xd
 2245 0218 CE0D0000 		.4byte	.LASF37
 2246 021c 06       		.byte	0x6
 2247 021d 3A       		.byte	0x3a
 2248 021e 3E000000 		.4byte	0x3e
 2249 0222 02       		.byte	0x2
 2250 0223 23       		.byte	0x23
 2251 0224 04       		.uleb128 0x4
 2252 0225 0D       		.uleb128 0xd
 2253 0226 EC020000 		.4byte	.LASF38
 2254 022a 06       		.byte	0x6
 2255 022b 3B       		.byte	0x3b
 2256 022c 3E000000 		.4byte	0x3e
 2257 0230 02       		.byte	0x2
 2258 0231 23       		.byte	0x23
 2259 0232 08       		.uleb128 0x8
 2260 0233 0D       		.uleb128 0xd
 2261 0234 30010000 		.4byte	.LASF39
 2262 0238 06       		.byte	0x6
 2263 0239 3C       		.byte	0x3c
 2264 023a 3E000000 		.4byte	0x3e
 2265 023e 02       		.byte	0x2
 2266 023f 23       		.byte	0x23
 2267 0240 0C       		.uleb128 0xc
 2268 0241 0D       		.uleb128 0xd
 2269 0242 800A0000 		.4byte	.LASF40
 2270 0246 06       		.byte	0x6
 2271 0247 3D       		.byte	0x3d
 2272 0248 3E000000 		.4byte	0x3e
 2273 024c 02       		.byte	0x2
 2274 024d 23       		.byte	0x23
 2275 024e 10       		.uleb128 0x10
 2276 024f 0D       		.uleb128 0xd
 2277 0250 780C0000 		.4byte	.LASF41
 2278 0254 06       		.byte	0x6
 2279 0255 3E       		.byte	0x3e
 2280 0256 3E000000 		.4byte	0x3e
 2281 025a 02       		.byte	0x2
 2282 025b 23       		.byte	0x23
 2283 025c 14       		.uleb128 0x14
 2284 025d 0D       		.uleb128 0xd
 2285 025e AF020000 		.4byte	.LASF42
 2286 0262 06       		.byte	0x6
 2287 0263 3F       		.byte	0x3f
 2288 0264 3E000000 		.4byte	0x3e
 2289 0268 02       		.byte	0x2
 2290 0269 23       		.byte	0x23
 2291 026a 18       		.uleb128 0x18
 2292 026b 0D       		.uleb128 0xd
 2293 026c 04060000 		.4byte	.LASF43
 2294 0270 06       		.byte	0x6
 2295 0271 40       		.byte	0x40
 2296 0272 3E000000 		.4byte	0x3e
 2297 0276 02       		.byte	0x2
ARM GAS  C:\Users\EBANO_~1\AppData\Local\Temp\ccizkeXa.s 			page 51


 2298 0277 23       		.byte	0x23
 2299 0278 1C       		.uleb128 0x1c
 2300 0279 0D       		.uleb128 0xd
 2301 027a CA090000 		.4byte	.LASF44
 2302 027e 06       		.byte	0x6
 2303 027f 41       		.byte	0x41
 2304 0280 3E000000 		.4byte	0x3e
 2305 0284 02       		.byte	0x2
 2306 0285 23       		.byte	0x23
 2307 0286 20       		.uleb128 0x20
 2308 0287 00       		.byte	0
 2309 0288 12       		.uleb128 0x12
 2310 0289 89000000 		.4byte	.LASF45
 2311 028d 0801     		.2byte	0x108
 2312 028f 06       		.byte	0x6
 2313 0290 4A       		.byte	0x4a
 2314 0291 D1020000 		.4byte	0x2d1
 2315 0295 0D       		.uleb128 0xd
 2316 0296 3B100000 		.4byte	.LASF46
 2317 029a 06       		.byte	0x6
 2318 029b 4B       		.byte	0x4b
 2319 029c D1020000 		.4byte	0x2d1
 2320 02a0 02       		.byte	0x2
 2321 02a1 23       		.byte	0x23
 2322 02a2 00       		.uleb128 0
 2323 02a3 0D       		.uleb128 0xd
 2324 02a4 010E0000 		.4byte	.LASF47
 2325 02a8 06       		.byte	0x6
 2326 02a9 4C       		.byte	0x4c
 2327 02aa D1020000 		.4byte	0x2d1
 2328 02ae 03       		.byte	0x3
 2329 02af 23       		.byte	0x23
 2330 02b0 8001     		.uleb128 0x80
 2331 02b2 0D       		.uleb128 0xd
 2332 02b3 89100000 		.4byte	.LASF48
 2333 02b7 06       		.byte	0x6
 2334 02b8 4E       		.byte	0x4e
 2335 02b9 7D010000 		.4byte	0x17d
 2336 02bd 03       		.byte	0x3
 2337 02be 23       		.byte	0x23
 2338 02bf 8002     		.uleb128 0x100
 2339 02c1 0D       		.uleb128 0xd
 2340 02c2 56110000 		.4byte	.LASF49
 2341 02c6 06       		.byte	0x6
 2342 02c7 51       		.byte	0x51
 2343 02c8 7D010000 		.4byte	0x17d
 2344 02cc 03       		.byte	0x3
 2345 02cd 23       		.byte	0x23
 2346 02ce 8402     		.uleb128 0x104
 2347 02d0 00       		.byte	0
 2348 02d1 0A       		.uleb128 0xa
 2349 02d2 69010000 		.4byte	0x169
 2350 02d6 E1020000 		.4byte	0x2e1
 2351 02da 0B       		.uleb128 0xb
 2352 02db 45000000 		.4byte	0x45
 2353 02df 1F       		.byte	0x1f
 2354 02e0 00       		.byte	0
ARM GAS  C:\Users\EBANO_~1\AppData\Local\Temp\ccizkeXa.s 			page 52


 2355 02e1 12       		.uleb128 0x12
 2356 02e2 050B0000 		.4byte	.LASF50
 2357 02e6 9001     		.2byte	0x190
 2358 02e8 06       		.byte	0x6
 2359 02e9 5D       		.byte	0x5d
 2360 02ea 28030000 		.4byte	0x328
 2361 02ee 0D       		.uleb128 0xd
 2362 02ef 52060000 		.4byte	.LASF30
 2363 02f3 06       		.byte	0x6
 2364 02f4 5E       		.byte	0x5e
 2365 02f5 28030000 		.4byte	0x328
 2366 02f9 02       		.byte	0x2
 2367 02fa 23       		.byte	0x23
 2368 02fb 00       		.uleb128 0
 2369 02fc 0D       		.uleb128 0xd
 2370 02fd 0D0A0000 		.4byte	.LASF51
 2371 0301 06       		.byte	0x6
 2372 0302 5F       		.byte	0x5f
 2373 0303 3E000000 		.4byte	0x3e
 2374 0307 02       		.byte	0x2
 2375 0308 23       		.byte	0x23
 2376 0309 04       		.uleb128 0x4
 2377 030a 0D       		.uleb128 0xd
 2378 030b 5E020000 		.4byte	.LASF52
 2379 030f 06       		.byte	0x6
 2380 0310 61       		.byte	0x61
 2381 0311 2E030000 		.4byte	0x32e
 2382 0315 02       		.byte	0x2
 2383 0316 23       		.byte	0x23
 2384 0317 08       		.uleb128 0x8
 2385 0318 0D       		.uleb128 0xd
 2386 0319 89000000 		.4byte	.LASF45
 2387 031d 06       		.byte	0x6
 2388 031e 62       		.byte	0x62
 2389 031f 88020000 		.4byte	0x288
 2390 0323 03       		.byte	0x3
 2391 0324 23       		.byte	0x23
 2392 0325 8801     		.uleb128 0x88
 2393 0327 00       		.byte	0
 2394 0328 05       		.uleb128 0x5
 2395 0329 04       		.byte	0x4
 2396 032a E1020000 		.4byte	0x2e1
 2397 032e 0A       		.uleb128 0xa
 2398 032f 3E030000 		.4byte	0x33e
 2399 0333 3E030000 		.4byte	0x33e
 2400 0337 0B       		.uleb128 0xb
 2401 0338 45000000 		.4byte	0x45
 2402 033c 1F       		.byte	0x1f
 2403 033d 00       		.byte	0
 2404 033e 05       		.uleb128 0x5
 2405 033f 04       		.byte	0x4
 2406 0340 44030000 		.4byte	0x344
 2407 0344 13       		.uleb128 0x13
 2408 0345 01       		.byte	0x1
 2409 0346 10       		.uleb128 0x10
 2410 0347 600F0000 		.4byte	.LASF53
 2411 034b 08       		.byte	0x8
ARM GAS  C:\Users\EBANO_~1\AppData\Local\Temp\ccizkeXa.s 			page 53


 2412 034c 06       		.byte	0x6
 2413 034d 75       		.byte	0x75
 2414 034e 6F030000 		.4byte	0x36f
 2415 0352 0D       		.uleb128 0xd
 2416 0353 BF080000 		.4byte	.LASF54
 2417 0357 06       		.byte	0x6
 2418 0358 76       		.byte	0x76
 2419 0359 6F030000 		.4byte	0x36f
 2420 035d 02       		.byte	0x2
 2421 035e 23       		.byte	0x23
 2422 035f 00       		.uleb128 0
 2423 0360 0D       		.uleb128 0xd
 2424 0361 99100000 		.4byte	.LASF55
 2425 0365 06       		.byte	0x6
 2426 0366 77       		.byte	0x77
 2427 0367 3E000000 		.4byte	0x3e
 2428 036b 02       		.byte	0x2
 2429 036c 23       		.byte	0x23
 2430 036d 04       		.uleb128 0x4
 2431 036e 00       		.byte	0
 2432 036f 05       		.uleb128 0x5
 2433 0370 04       		.byte	0x4
 2434 0371 70000000 		.4byte	0x70
 2435 0375 10       		.uleb128 0x10
 2436 0376 7F040000 		.4byte	.LASF56
 2437 037a 68       		.byte	0x68
 2438 037b 06       		.byte	0x6
 2439 037c B5       		.byte	0xb5
 2440 037d CF040000 		.4byte	0x4cf
 2441 0381 11       		.uleb128 0x11
 2442 0382 5F7000   		.ascii	"_p\000"
 2443 0385 06       		.byte	0x6
 2444 0386 B6       		.byte	0xb6
 2445 0387 6F030000 		.4byte	0x36f
 2446 038b 02       		.byte	0x2
 2447 038c 23       		.byte	0x23
 2448 038d 00       		.uleb128 0
 2449 038e 11       		.uleb128 0x11
 2450 038f 5F7200   		.ascii	"_r\000"
 2451 0392 06       		.byte	0x6
 2452 0393 B7       		.byte	0xb7
 2453 0394 3E000000 		.4byte	0x3e
 2454 0398 02       		.byte	0x2
 2455 0399 23       		.byte	0x23
 2456 039a 04       		.uleb128 0x4
 2457 039b 11       		.uleb128 0x11
 2458 039c 5F7700   		.ascii	"_w\000"
 2459 039f 06       		.byte	0x6
 2460 03a0 B8       		.byte	0xb8
 2461 03a1 3E000000 		.4byte	0x3e
 2462 03a5 02       		.byte	0x2
 2463 03a6 23       		.byte	0x23
 2464 03a7 08       		.uleb128 0x8
 2465 03a8 0D       		.uleb128 0xd
 2466 03a9 63010000 		.4byte	.LASF57
 2467 03ad 06       		.byte	0x6
 2468 03ae B9       		.byte	0xb9
ARM GAS  C:\Users\EBANO_~1\AppData\Local\Temp\ccizkeXa.s 			page 54


 2469 03af 82000000 		.4byte	0x82
 2470 03b3 02       		.byte	0x2
 2471 03b4 23       		.byte	0x23
 2472 03b5 0C       		.uleb128 0xc
 2473 03b6 0D       		.uleb128 0xd
 2474 03b7 08090000 		.4byte	.LASF58
 2475 03bb 06       		.byte	0x6
 2476 03bc BA       		.byte	0xba
 2477 03bd 82000000 		.4byte	0x82
 2478 03c1 02       		.byte	0x2
 2479 03c2 23       		.byte	0x23
 2480 03c3 0E       		.uleb128 0xe
 2481 03c4 11       		.uleb128 0x11
 2482 03c5 5F626600 		.ascii	"_bf\000"
 2483 03c9 06       		.byte	0x6
 2484 03ca BB       		.byte	0xbb
 2485 03cb 46030000 		.4byte	0x346
 2486 03cf 02       		.byte	0x2
 2487 03d0 23       		.byte	0x23
 2488 03d1 10       		.uleb128 0x10
 2489 03d2 0D       		.uleb128 0xd
 2490 03d3 5A010000 		.4byte	.LASF59
 2491 03d7 06       		.byte	0x6
 2492 03d8 BC       		.byte	0xbc
 2493 03d9 3E000000 		.4byte	0x3e
 2494 03dd 02       		.byte	0x2
 2495 03de 23       		.byte	0x23
 2496 03df 18       		.uleb128 0x18
 2497 03e0 0D       		.uleb128 0xd
 2498 03e1 81000000 		.4byte	.LASF60
 2499 03e5 06       		.byte	0x6
 2500 03e6 C3       		.byte	0xc3
 2501 03e7 69010000 		.4byte	0x169
 2502 03eb 02       		.byte	0x2
 2503 03ec 23       		.byte	0x23
 2504 03ed 1C       		.uleb128 0x1c
 2505 03ee 0D       		.uleb128 0xd
 2506 03ef 3E0F0000 		.4byte	.LASF61
 2507 03f3 06       		.byte	0x6
 2508 03f4 C5       		.byte	0xc5
 2509 03f5 57060000 		.4byte	0x657
 2510 03f9 02       		.byte	0x2
 2511 03fa 23       		.byte	0x23
 2512 03fb 20       		.uleb128 0x20
 2513 03fc 0D       		.uleb128 0xd
 2514 03fd D40A0000 		.4byte	.LASF62
 2515 0401 06       		.byte	0x6
 2516 0402 C7       		.byte	0xc7
 2517 0403 82060000 		.4byte	0x682
 2518 0407 02       		.byte	0x2
 2519 0408 23       		.byte	0x23
 2520 0409 24       		.uleb128 0x24
 2521 040a 0D       		.uleb128 0xd
 2522 040b 77110000 		.4byte	.LASF63
 2523 040f 06       		.byte	0x6
 2524 0410 CA       		.byte	0xca
 2525 0411 A7060000 		.4byte	0x6a7
ARM GAS  C:\Users\EBANO_~1\AppData\Local\Temp\ccizkeXa.s 			page 55


 2526 0415 02       		.byte	0x2
 2527 0416 23       		.byte	0x23
 2528 0417 28       		.uleb128 0x28
 2529 0418 0D       		.uleb128 0xd
 2530 0419 03080000 		.4byte	.LASF64
 2531 041d 06       		.byte	0x6
 2532 041e CB       		.byte	0xcb
 2533 041f C2060000 		.4byte	0x6c2
 2534 0423 02       		.byte	0x2
 2535 0424 23       		.byte	0x23
 2536 0425 2C       		.uleb128 0x2c
 2537 0426 11       		.uleb128 0x11
 2538 0427 5F756200 		.ascii	"_ub\000"
 2539 042b 06       		.byte	0x6
 2540 042c CE       		.byte	0xce
 2541 042d 46030000 		.4byte	0x346
 2542 0431 02       		.byte	0x2
 2543 0432 23       		.byte	0x23
 2544 0433 30       		.uleb128 0x30
 2545 0434 11       		.uleb128 0x11
 2546 0435 5F757000 		.ascii	"_up\000"
 2547 0439 06       		.byte	0x6
 2548 043a CF       		.byte	0xcf
 2549 043b 6F030000 		.4byte	0x36f
 2550 043f 02       		.byte	0x2
 2551 0440 23       		.byte	0x23
 2552 0441 38       		.uleb128 0x38
 2553 0442 11       		.uleb128 0x11
 2554 0443 5F757200 		.ascii	"_ur\000"
 2555 0447 06       		.byte	0x6
 2556 0448 D0       		.byte	0xd0
 2557 0449 3E000000 		.4byte	0x3e
 2558 044d 02       		.byte	0x2
 2559 044e 23       		.byte	0x23
 2560 044f 3C       		.uleb128 0x3c
 2561 0450 0D       		.uleb128 0xd
 2562 0451 12050000 		.4byte	.LASF65
 2563 0455 06       		.byte	0x6
 2564 0456 D3       		.byte	0xd3
 2565 0457 C8060000 		.4byte	0x6c8
 2566 045b 02       		.byte	0x2
 2567 045c 23       		.byte	0x23
 2568 045d 40       		.uleb128 0x40
 2569 045e 0D       		.uleb128 0xd
 2570 045f DC100000 		.4byte	.LASF66
 2571 0463 06       		.byte	0x6
 2572 0464 D4       		.byte	0xd4
 2573 0465 D8060000 		.4byte	0x6d8
 2574 0469 02       		.byte	0x2
 2575 046a 23       		.byte	0x23
 2576 046b 43       		.uleb128 0x43
 2577 046c 11       		.uleb128 0x11
 2578 046d 5F6C6200 		.ascii	"_lb\000"
 2579 0471 06       		.byte	0x6
 2580 0472 D7       		.byte	0xd7
 2581 0473 46030000 		.4byte	0x346
 2582 0477 02       		.byte	0x2
ARM GAS  C:\Users\EBANO_~1\AppData\Local\Temp\ccizkeXa.s 			page 56


 2583 0478 23       		.byte	0x23
 2584 0479 44       		.uleb128 0x44
 2585 047a 0D       		.uleb128 0xd
 2586 047b 530D0000 		.4byte	.LASF67
 2587 047f 06       		.byte	0x6
 2588 0480 DA       		.byte	0xda
 2589 0481 3E000000 		.4byte	0x3e
 2590 0485 02       		.byte	0x2
 2591 0486 23       		.byte	0x23
 2592 0487 4C       		.uleb128 0x4c
 2593 0488 0D       		.uleb128 0xd
 2594 0489 0A050000 		.4byte	.LASF68
 2595 048d 06       		.byte	0x6
 2596 048e DB       		.byte	0xdb
 2597 048f DD000000 		.4byte	0xdd
 2598 0493 02       		.byte	0x2
 2599 0494 23       		.byte	0x23
 2600 0495 50       		.uleb128 0x50
 2601 0496 0D       		.uleb128 0xd
 2602 0497 420C0000 		.4byte	.LASF69
 2603 049b 06       		.byte	0x6
 2604 049c DE       		.byte	0xde
 2605 049d EE040000 		.4byte	0x4ee
 2606 04a1 02       		.byte	0x2
 2607 04a2 23       		.byte	0x23
 2608 04a3 54       		.uleb128 0x54
 2609 04a4 0D       		.uleb128 0xd
 2610 04a5 670D0000 		.4byte	.LASF70
 2611 04a9 06       		.byte	0x6
 2612 04aa E2       		.byte	0xe2
 2613 04ab 5E010000 		.4byte	0x15e
 2614 04af 02       		.byte	0x2
 2615 04b0 23       		.byte	0x23
 2616 04b1 58       		.uleb128 0x58
 2617 04b2 0D       		.uleb128 0xd
 2618 04b3 D9010000 		.4byte	.LASF71
 2619 04b7 06       		.byte	0x6
 2620 04b8 E4       		.byte	0xe4
 2621 04b9 53010000 		.4byte	0x153
 2622 04bd 02       		.byte	0x2
 2623 04be 23       		.byte	0x23
 2624 04bf 5C       		.uleb128 0x5c
 2625 04c0 0D       		.uleb128 0xd
 2626 04c1 95010000 		.4byte	.LASF72
 2627 04c5 06       		.byte	0x6
 2628 04c6 E5       		.byte	0xe5
 2629 04c7 3E000000 		.4byte	0x3e
 2630 04cb 02       		.byte	0x2
 2631 04cc 23       		.byte	0x23
 2632 04cd 64       		.uleb128 0x64
 2633 04ce 00       		.byte	0
 2634 04cf 14       		.uleb128 0x14
 2635 04d0 01       		.byte	0x1
 2636 04d1 3E000000 		.4byte	0x3e
 2637 04d5 EE040000 		.4byte	0x4ee
 2638 04d9 15       		.uleb128 0x15
 2639 04da EE040000 		.4byte	0x4ee
ARM GAS  C:\Users\EBANO_~1\AppData\Local\Temp\ccizkeXa.s 			page 57


 2640 04de 15       		.uleb128 0x15
 2641 04df 69010000 		.4byte	0x169
 2642 04e3 15       		.uleb128 0x15
 2643 04e4 6B010000 		.4byte	0x16b
 2644 04e8 15       		.uleb128 0x15
 2645 04e9 3E000000 		.4byte	0x3e
 2646 04ed 00       		.byte	0
 2647 04ee 05       		.uleb128 0x5
 2648 04ef 04       		.byte	0x4
 2649 04f0 F9040000 		.4byte	0x4f9
 2650 04f4 0F       		.uleb128 0xf
 2651 04f5 EE040000 		.4byte	0x4ee
 2652 04f9 16       		.uleb128 0x16
 2653 04fa 4F100000 		.4byte	.LASF73
 2654 04fe 2804     		.2byte	0x428
 2655 0500 06       		.byte	0x6
 2656 0501 6002     		.2byte	0x260
 2657 0503 57060000 		.4byte	0x657
 2658 0507 17       		.uleb128 0x17
 2659 0508 8E010000 		.4byte	.LASF74
 2660 050c 06       		.byte	0x6
 2661 050d 6202     		.2byte	0x262
 2662 050f 3E000000 		.4byte	0x3e
 2663 0513 02       		.byte	0x2
 2664 0514 23       		.byte	0x23
 2665 0515 00       		.uleb128 0
 2666 0516 17       		.uleb128 0x17
 2667 0517 5D080000 		.4byte	.LASF75
 2668 051b 06       		.byte	0x6
 2669 051c 6702     		.2byte	0x267
 2670 051e 35070000 		.4byte	0x735
 2671 0522 02       		.byte	0x2
 2672 0523 23       		.byte	0x23
 2673 0524 04       		.uleb128 0x4
 2674 0525 17       		.uleb128 0x17
 2675 0526 4E020000 		.4byte	.LASF76
 2676 052a 06       		.byte	0x6
 2677 052b 6702     		.2byte	0x267
 2678 052d 35070000 		.4byte	0x735
 2679 0531 02       		.byte	0x2
 2680 0532 23       		.byte	0x23
 2681 0533 08       		.uleb128 0x8
 2682 0534 17       		.uleb128 0x17
 2683 0535 9F110000 		.4byte	.LASF77
 2684 0539 06       		.byte	0x6
 2685 053a 6702     		.2byte	0x267
 2686 053c 35070000 		.4byte	0x735
 2687 0540 02       		.byte	0x2
 2688 0541 23       		.byte	0x23
 2689 0542 0C       		.uleb128 0xc
 2690 0543 17       		.uleb128 0x17
 2691 0544 0E060000 		.4byte	.LASF78
 2692 0548 06       		.byte	0x6
 2693 0549 6902     		.2byte	0x269
 2694 054b 3E000000 		.4byte	0x3e
 2695 054f 02       		.byte	0x2
 2696 0550 23       		.byte	0x23
ARM GAS  C:\Users\EBANO_~1\AppData\Local\Temp\ccizkeXa.s 			page 58


 2697 0551 10       		.uleb128 0x10
 2698 0552 17       		.uleb128 0x17
 2699 0553 55050000 		.4byte	.LASF79
 2700 0557 06       		.byte	0x6
 2701 0558 6A02     		.2byte	0x26a
 2702 055a 50090000 		.4byte	0x950
 2703 055e 02       		.byte	0x2
 2704 055f 23       		.byte	0x23
 2705 0560 14       		.uleb128 0x14
 2706 0561 17       		.uleb128 0x17
 2707 0562 EE010000 		.4byte	.LASF80
 2708 0566 06       		.byte	0x6
 2709 0567 6D02     		.2byte	0x26d
 2710 0569 3E000000 		.4byte	0x3e
 2711 056d 02       		.byte	0x2
 2712 056e 23       		.byte	0x23
 2713 056f 30       		.uleb128 0x30
 2714 0570 17       		.uleb128 0x17
 2715 0571 24100000 		.4byte	.LASF81
 2716 0575 06       		.byte	0x6
 2717 0576 6E02     		.2byte	0x26e
 2718 0578 66090000 		.4byte	0x966
 2719 057c 02       		.byte	0x2
 2720 057d 23       		.byte	0x23
 2721 057e 34       		.uleb128 0x34
 2722 057f 17       		.uleb128 0x17
 2723 0580 0A080000 		.4byte	.LASF82
 2724 0584 06       		.byte	0x6
 2725 0585 7002     		.2byte	0x270
 2726 0587 3E000000 		.4byte	0x3e
 2727 058b 02       		.byte	0x2
 2728 058c 23       		.byte	0x23
 2729 058d 38       		.uleb128 0x38
 2730 058e 17       		.uleb128 0x17
 2731 058f 80090000 		.4byte	.LASF83
 2732 0593 06       		.byte	0x6
 2733 0594 7202     		.2byte	0x272
 2734 0596 78090000 		.4byte	0x978
 2735 059a 02       		.byte	0x2
 2736 059b 23       		.byte	0x23
 2737 059c 3C       		.uleb128 0x3c
 2738 059d 17       		.uleb128 0x17
 2739 059e B9020000 		.4byte	.LASF84
 2740 05a2 06       		.byte	0x6
 2741 05a3 7502     		.2byte	0x275
 2742 05a5 E7010000 		.4byte	0x1e7
 2743 05a9 02       		.byte	0x2
 2744 05aa 23       		.byte	0x23
 2745 05ab 40       		.uleb128 0x40
 2746 05ac 17       		.uleb128 0x17
 2747 05ad C6070000 		.4byte	.LASF85
 2748 05b1 06       		.byte	0x6
 2749 05b2 7602     		.2byte	0x276
 2750 05b4 3E000000 		.4byte	0x3e
 2751 05b8 02       		.byte	0x2
 2752 05b9 23       		.byte	0x23
 2753 05ba 44       		.uleb128 0x44
ARM GAS  C:\Users\EBANO_~1\AppData\Local\Temp\ccizkeXa.s 			page 59


 2754 05bb 17       		.uleb128 0x17
 2755 05bc B4060000 		.4byte	.LASF86
 2756 05c0 06       		.byte	0x6
 2757 05c1 7702     		.2byte	0x277
 2758 05c3 E7010000 		.4byte	0x1e7
 2759 05c7 02       		.byte	0x2
 2760 05c8 23       		.byte	0x23
 2761 05c9 48       		.uleb128 0x48
 2762 05ca 17       		.uleb128 0x17
 2763 05cb C5080000 		.4byte	.LASF87
 2764 05cf 06       		.byte	0x6
 2765 05d0 7802     		.2byte	0x278
 2766 05d2 7E090000 		.4byte	0x97e
 2767 05d6 02       		.byte	0x2
 2768 05d7 23       		.byte	0x23
 2769 05d8 4C       		.uleb128 0x4c
 2770 05d9 17       		.uleb128 0x17
 2771 05da FF0C0000 		.4byte	.LASF88
 2772 05de 06       		.byte	0x6
 2773 05df 7B02     		.2byte	0x27b
 2774 05e1 3E000000 		.4byte	0x3e
 2775 05e5 02       		.byte	0x2
 2776 05e6 23       		.byte	0x23
 2777 05e7 50       		.uleb128 0x50
 2778 05e8 17       		.uleb128 0x17
 2779 05e9 610E0000 		.4byte	.LASF89
 2780 05ed 06       		.byte	0x6
 2781 05ee 7C02     		.2byte	0x27c
 2782 05f0 6B010000 		.4byte	0x16b
 2783 05f4 02       		.byte	0x2
 2784 05f5 23       		.byte	0x23
 2785 05f6 54       		.uleb128 0x54
 2786 05f7 17       		.uleb128 0x17
 2787 05f8 FA0C0000 		.4byte	.LASF90
 2788 05fc 06       		.byte	0x6
 2789 05fd 9F02     		.2byte	0x29f
 2790 05ff 2E090000 		.4byte	0x92e
 2791 0603 02       		.byte	0x2
 2792 0604 23       		.byte	0x23
 2793 0605 58       		.uleb128 0x58
 2794 0606 17       		.uleb128 0x17
 2795 0607 050B0000 		.4byte	.LASF50
 2796 060b 06       		.byte	0x6
 2797 060c A302     		.2byte	0x2a3
 2798 060e 28030000 		.4byte	0x328
 2799 0612 03       		.byte	0x3
 2800 0613 23       		.byte	0x23
 2801 0614 C802     		.uleb128 0x148
 2802 0616 17       		.uleb128 0x17
 2803 0617 0E070000 		.4byte	.LASF91
 2804 061b 06       		.byte	0x6
 2805 061c A402     		.2byte	0x2a4
 2806 061e E1020000 		.4byte	0x2e1
 2807 0622 03       		.byte	0x3
 2808 0623 23       		.byte	0x23
 2809 0624 CC02     		.uleb128 0x14c
 2810 0626 17       		.uleb128 0x17
ARM GAS  C:\Users\EBANO_~1\AppData\Local\Temp\ccizkeXa.s 			page 60


 2811 0627 F5060000 		.4byte	.LASF92
 2812 062b 06       		.byte	0x6
 2813 062c A802     		.2byte	0x2a8
 2814 062e 90090000 		.4byte	0x990
 2815 0632 03       		.byte	0x3
 2816 0633 23       		.byte	0x23
 2817 0634 DC05     		.uleb128 0x2dc
 2818 0636 17       		.uleb128 0x17
 2819 0637 DC0F0000 		.4byte	.LASF93
 2820 063b 06       		.byte	0x6
 2821 063c AD02     		.2byte	0x2ad
 2822 063e F4060000 		.4byte	0x6f4
 2823 0642 03       		.byte	0x3
 2824 0643 23       		.byte	0x23
 2825 0644 E005     		.uleb128 0x2e0
 2826 0646 17       		.uleb128 0x17
 2827 0647 370C0000 		.4byte	.LASF94
 2828 064b 06       		.byte	0x6
 2829 064c AF02     		.2byte	0x2af
 2830 064e 9C090000 		.4byte	0x99c
 2831 0652 03       		.byte	0x3
 2832 0653 23       		.byte	0x23
 2833 0654 EC05     		.uleb128 0x2ec
 2834 0656 00       		.byte	0
 2835 0657 05       		.uleb128 0x5
 2836 0658 04       		.byte	0x4
 2837 0659 CF040000 		.4byte	0x4cf
 2838 065d 14       		.uleb128 0x14
 2839 065e 01       		.byte	0x1
 2840 065f 3E000000 		.4byte	0x3e
 2841 0663 7C060000 		.4byte	0x67c
 2842 0667 15       		.uleb128 0x15
 2843 0668 EE040000 		.4byte	0x4ee
 2844 066c 15       		.uleb128 0x15
 2845 066d 69010000 		.4byte	0x169
 2846 0671 15       		.uleb128 0x15
 2847 0672 7C060000 		.4byte	0x67c
 2848 0676 15       		.uleb128 0x15
 2849 0677 3E000000 		.4byte	0x3e
 2850 067b 00       		.byte	0
 2851 067c 05       		.uleb128 0x5
 2852 067d 04       		.byte	0x4
 2853 067e 78010000 		.4byte	0x178
 2854 0682 05       		.uleb128 0x5
 2855 0683 04       		.byte	0x4
 2856 0684 5D060000 		.4byte	0x65d
 2857 0688 14       		.uleb128 0x14
 2858 0689 01       		.byte	0x1
 2859 068a E8000000 		.4byte	0xe8
 2860 068e A7060000 		.4byte	0x6a7
 2861 0692 15       		.uleb128 0x15
 2862 0693 EE040000 		.4byte	0x4ee
 2863 0697 15       		.uleb128 0x15
 2864 0698 69010000 		.4byte	0x169
 2865 069c 15       		.uleb128 0x15
 2866 069d E8000000 		.4byte	0xe8
 2867 06a1 15       		.uleb128 0x15
ARM GAS  C:\Users\EBANO_~1\AppData\Local\Temp\ccizkeXa.s 			page 61


 2868 06a2 3E000000 		.4byte	0x3e
 2869 06a6 00       		.byte	0
 2870 06a7 05       		.uleb128 0x5
 2871 06a8 04       		.byte	0x4
 2872 06a9 88060000 		.4byte	0x688
 2873 06ad 14       		.uleb128 0x14
 2874 06ae 01       		.byte	0x1
 2875 06af 3E000000 		.4byte	0x3e
 2876 06b3 C2060000 		.4byte	0x6c2
 2877 06b7 15       		.uleb128 0x15
 2878 06b8 EE040000 		.4byte	0x4ee
 2879 06bc 15       		.uleb128 0x15
 2880 06bd 69010000 		.4byte	0x169
 2881 06c1 00       		.byte	0
 2882 06c2 05       		.uleb128 0x5
 2883 06c3 04       		.byte	0x4
 2884 06c4 AD060000 		.4byte	0x6ad
 2885 06c8 0A       		.uleb128 0xa
 2886 06c9 70000000 		.4byte	0x70
 2887 06cd D8060000 		.4byte	0x6d8
 2888 06d1 0B       		.uleb128 0xb
 2889 06d2 45000000 		.4byte	0x45
 2890 06d6 02       		.byte	0x2
 2891 06d7 00       		.byte	0
 2892 06d8 0A       		.uleb128 0xa
 2893 06d9 70000000 		.4byte	0x70
 2894 06dd E8060000 		.4byte	0x6e8
 2895 06e1 0B       		.uleb128 0xb
 2896 06e2 45000000 		.4byte	0x45
 2897 06e6 00       		.byte	0
 2898 06e7 00       		.byte	0
 2899 06e8 07       		.uleb128 0x7
 2900 06e9 EB040000 		.4byte	.LASF95
 2901 06ed 06       		.byte	0x6
 2902 06ee 1F01     		.2byte	0x11f
 2903 06f0 75030000 		.4byte	0x375
 2904 06f4 18       		.uleb128 0x18
 2905 06f5 8D0F0000 		.4byte	.LASF96
 2906 06f9 0C       		.byte	0xc
 2907 06fa 06       		.byte	0x6
 2908 06fb 2301     		.2byte	0x123
 2909 06fd 2F070000 		.4byte	0x72f
 2910 0701 17       		.uleb128 0x17
 2911 0702 52060000 		.4byte	.LASF30
 2912 0706 06       		.byte	0x6
 2913 0707 2501     		.2byte	0x125
 2914 0709 2F070000 		.4byte	0x72f
 2915 070d 02       		.byte	0x2
 2916 070e 23       		.byte	0x23
 2917 070f 00       		.uleb128 0
 2918 0710 17       		.uleb128 0x17
 2919 0711 900D0000 		.4byte	.LASF97
 2920 0715 06       		.byte	0x6
 2921 0716 2601     		.2byte	0x126
 2922 0718 3E000000 		.4byte	0x3e
 2923 071c 02       		.byte	0x2
 2924 071d 23       		.byte	0x23
ARM GAS  C:\Users\EBANO_~1\AppData\Local\Temp\ccizkeXa.s 			page 62


 2925 071e 04       		.uleb128 0x4
 2926 071f 17       		.uleb128 0x17
 2927 0720 EE070000 		.4byte	.LASF98
 2928 0724 06       		.byte	0x6
 2929 0725 2701     		.2byte	0x127
 2930 0727 35070000 		.4byte	0x735
 2931 072b 02       		.byte	0x2
 2932 072c 23       		.byte	0x23
 2933 072d 08       		.uleb128 0x8
 2934 072e 00       		.byte	0
 2935 072f 05       		.uleb128 0x5
 2936 0730 04       		.byte	0x4
 2937 0731 F4060000 		.4byte	0x6f4
 2938 0735 05       		.uleb128 0x5
 2939 0736 04       		.byte	0x4
 2940 0737 E8060000 		.4byte	0x6e8
 2941 073b 18       		.uleb128 0x18
 2942 073c 6F040000 		.4byte	.LASF99
 2943 0740 0E       		.byte	0xe
 2944 0741 06       		.byte	0x6
 2945 0742 3F01     		.2byte	0x13f
 2946 0744 76070000 		.4byte	0x776
 2947 0748 17       		.uleb128 0x17
 2948 0749 5E110000 		.4byte	.LASF100
 2949 074d 06       		.byte	0x6
 2950 074e 4001     		.2byte	0x140
 2951 0750 76070000 		.4byte	0x776
 2952 0754 02       		.byte	0x2
 2953 0755 23       		.byte	0x23
 2954 0756 00       		.uleb128 0
 2955 0757 17       		.uleb128 0x17
 2956 0758 CF080000 		.4byte	.LASF101
 2957 075c 06       		.byte	0x6
 2958 075d 4101     		.2byte	0x141
 2959 075f 76070000 		.4byte	0x776
 2960 0763 02       		.byte	0x2
 2961 0764 23       		.byte	0x23
 2962 0765 06       		.uleb128 0x6
 2963 0766 17       		.uleb128 0x17
 2964 0767 D5080000 		.4byte	.LASF102
 2965 076b 06       		.byte	0x6
 2966 076c 4201     		.2byte	0x142
 2967 076e 94000000 		.4byte	0x94
 2968 0772 02       		.byte	0x2
 2969 0773 23       		.byte	0x23
 2970 0774 0C       		.uleb128 0xc
 2971 0775 00       		.byte	0
 2972 0776 0A       		.uleb128 0xa
 2973 0777 94000000 		.4byte	0x94
 2974 077b 86070000 		.4byte	0x786
 2975 077f 0B       		.uleb128 0xb
 2976 0780 45000000 		.4byte	0x45
 2977 0784 02       		.byte	0x2
 2978 0785 00       		.byte	0
 2979 0786 19       		.uleb128 0x19
 2980 0787 D0       		.byte	0xd0
 2981 0788 06       		.byte	0x6
ARM GAS  C:\Users\EBANO_~1\AppData\Local\Temp\ccizkeXa.s 			page 63


 2982 0789 8002     		.2byte	0x280
 2983 078b B6080000 		.4byte	0x8b6
 2984 078f 17       		.uleb128 0x17
 2985 0790 E2100000 		.4byte	.LASF103
 2986 0794 06       		.byte	0x6
 2987 0795 8202     		.2byte	0x282
 2988 0797 45000000 		.4byte	0x45
 2989 079b 02       		.byte	0x2
 2990 079c 23       		.byte	0x23
 2991 079d 00       		.uleb128 0
 2992 079e 17       		.uleb128 0x17
 2993 079f F20F0000 		.4byte	.LASF104
 2994 07a3 06       		.byte	0x6
 2995 07a4 8302     		.2byte	0x283
 2996 07a6 6B010000 		.4byte	0x16b
 2997 07aa 02       		.byte	0x2
 2998 07ab 23       		.byte	0x23
 2999 07ac 04       		.uleb128 0x4
 3000 07ad 17       		.uleb128 0x17
 3001 07ae 62040000 		.4byte	.LASF105
 3002 07b2 06       		.byte	0x6
 3003 07b3 8402     		.2byte	0x284
 3004 07b5 B6080000 		.4byte	0x8b6
 3005 07b9 02       		.byte	0x2
 3006 07ba 23       		.byte	0x23
 3007 07bb 08       		.uleb128 0x8
 3008 07bc 17       		.uleb128 0x17
 3009 07bd B40C0000 		.4byte	.LASF106
 3010 07c1 06       		.byte	0x6
 3011 07c2 8502     		.2byte	0x285
 3012 07c4 FD010000 		.4byte	0x1fd
 3013 07c8 02       		.byte	0x2
 3014 07c9 23       		.byte	0x23
 3015 07ca 24       		.uleb128 0x24
 3016 07cb 17       		.uleb128 0x17
 3017 07cc 64080000 		.4byte	.LASF107
 3018 07d0 06       		.byte	0x6
 3019 07d1 8602     		.2byte	0x286
 3020 07d3 3E000000 		.4byte	0x3e
 3021 07d7 02       		.byte	0x2
 3022 07d8 23       		.byte	0x23
 3023 07d9 48       		.uleb128 0x48
 3024 07da 17       		.uleb128 0x17
 3025 07db 64110000 		.4byte	.LASF108
 3026 07df 06       		.byte	0x6
 3027 07e0 8702     		.2byte	0x287
 3028 07e2 BF000000 		.4byte	0xbf
 3029 07e6 02       		.byte	0x2
 3030 07e7 23       		.byte	0x23
 3031 07e8 50       		.uleb128 0x50
 3032 07e9 17       		.uleb128 0x17
 3033 07ea 0E020000 		.4byte	.LASF109
 3034 07ee 06       		.byte	0x6
 3035 07ef 8802     		.2byte	0x288
 3036 07f1 3B070000 		.4byte	0x73b
 3037 07f5 02       		.byte	0x2
 3038 07f6 23       		.byte	0x23
ARM GAS  C:\Users\EBANO_~1\AppData\Local\Temp\ccizkeXa.s 			page 64


 3039 07f7 58       		.uleb128 0x58
 3040 07f8 17       		.uleb128 0x17
 3041 07f9 CF060000 		.4byte	.LASF110
 3042 07fd 06       		.byte	0x6
 3043 07fe 8902     		.2byte	0x289
 3044 0800 53010000 		.4byte	0x153
 3045 0804 02       		.byte	0x2
 3046 0805 23       		.byte	0x23
 3047 0806 68       		.uleb128 0x68
 3048 0807 17       		.uleb128 0x17
 3049 0808 FF0F0000 		.4byte	.LASF111
 3050 080c 06       		.byte	0x6
 3051 080d 8A02     		.2byte	0x28a
 3052 080f 53010000 		.4byte	0x153
 3053 0813 02       		.byte	0x2
 3054 0814 23       		.byte	0x23
 3055 0815 70       		.uleb128 0x70
 3056 0816 17       		.uleb128 0x17
 3057 0817 D1000000 		.4byte	.LASF112
 3058 081b 06       		.byte	0x6
 3059 081c 8B02     		.2byte	0x28b
 3060 081e 53010000 		.4byte	0x153
 3061 0822 02       		.byte	0x2
 3062 0823 23       		.byte	0x23
 3063 0824 78       		.uleb128 0x78
 3064 0825 17       		.uleb128 0x17
 3065 0826 0F0D0000 		.4byte	.LASF113
 3066 082a 06       		.byte	0x6
 3067 082b 8C02     		.2byte	0x28c
 3068 082d C6080000 		.4byte	0x8c6
 3069 0831 03       		.byte	0x3
 3070 0832 23       		.byte	0x23
 3071 0833 8001     		.uleb128 0x80
 3072 0835 17       		.uleb128 0x17
 3073 0836 3A010000 		.4byte	.LASF114
 3074 083a 06       		.byte	0x6
 3075 083b 8D02     		.2byte	0x28d
 3076 083d D6080000 		.4byte	0x8d6
 3077 0841 03       		.byte	0x3
 3078 0842 23       		.byte	0x23
 3079 0843 8801     		.uleb128 0x88
 3080 0845 17       		.uleb128 0x17
 3081 0846 090F0000 		.4byte	.LASF115
 3082 084a 06       		.byte	0x6
 3083 084b 8E02     		.2byte	0x28e
 3084 084d 3E000000 		.4byte	0x3e
 3085 0851 03       		.byte	0x3
 3086 0852 23       		.byte	0x23
 3087 0853 A001     		.uleb128 0xa0
 3088 0855 17       		.uleb128 0x17
 3089 0856 47050000 		.4byte	.LASF116
 3090 085a 06       		.byte	0x6
 3091 085b 8F02     		.2byte	0x28f
 3092 085d 53010000 		.4byte	0x153
 3093 0861 03       		.byte	0x3
 3094 0862 23       		.byte	0x23
 3095 0863 A401     		.uleb128 0xa4
ARM GAS  C:\Users\EBANO_~1\AppData\Local\Temp\ccizkeXa.s 			page 65


 3096 0865 17       		.uleb128 0x17
 3097 0866 FF060000 		.4byte	.LASF117
 3098 086a 06       		.byte	0x6
 3099 086b 9002     		.2byte	0x290
 3100 086d 53010000 		.4byte	0x153
 3101 0871 03       		.byte	0x3
 3102 0872 23       		.byte	0x23
 3103 0873 AC01     		.uleb128 0xac
 3104 0875 17       		.uleb128 0x17
 3105 0876 08040000 		.4byte	.LASF118
 3106 087a 06       		.byte	0x6
 3107 087b 9102     		.2byte	0x291
 3108 087d 53010000 		.4byte	0x153
 3109 0881 03       		.byte	0x3
 3110 0882 23       		.byte	0x23
 3111 0883 B401     		.uleb128 0xb4
 3112 0885 17       		.uleb128 0x17
 3113 0886 F3080000 		.4byte	.LASF119
 3114 088a 06       		.byte	0x6
 3115 088b 9202     		.2byte	0x292
 3116 088d 53010000 		.4byte	0x153
 3117 0891 03       		.byte	0x3
 3118 0892 23       		.byte	0x23
 3119 0893 BC01     		.uleb128 0xbc
 3120 0895 17       		.uleb128 0x17
 3121 0896 BE060000 		.4byte	.LASF120
 3122 089a 06       		.byte	0x6
 3123 089b 9302     		.2byte	0x293
 3124 089d 53010000 		.4byte	0x153
 3125 08a1 03       		.byte	0x3
 3126 08a2 23       		.byte	0x23
 3127 08a3 C401     		.uleb128 0xc4
 3128 08a5 17       		.uleb128 0x17
 3129 08a6 F2040000 		.4byte	.LASF121
 3130 08aa 06       		.byte	0x6
 3131 08ab 9402     		.2byte	0x294
 3132 08ad 3E000000 		.4byte	0x3e
 3133 08b1 03       		.byte	0x3
 3134 08b2 23       		.byte	0x23
 3135 08b3 CC01     		.uleb128 0xcc
 3136 08b5 00       		.byte	0
 3137 08b6 0A       		.uleb128 0xa
 3138 08b7 71010000 		.4byte	0x171
 3139 08bb C6080000 		.4byte	0x8c6
 3140 08bf 0B       		.uleb128 0xb
 3141 08c0 45000000 		.4byte	0x45
 3142 08c4 19       		.byte	0x19
 3143 08c5 00       		.byte	0
 3144 08c6 0A       		.uleb128 0xa
 3145 08c7 71010000 		.4byte	0x171
 3146 08cb D6080000 		.4byte	0x8d6
 3147 08cf 0B       		.uleb128 0xb
 3148 08d0 45000000 		.4byte	0x45
 3149 08d4 07       		.byte	0x7
 3150 08d5 00       		.byte	0
 3151 08d6 0A       		.uleb128 0xa
 3152 08d7 71010000 		.4byte	0x171
ARM GAS  C:\Users\EBANO_~1\AppData\Local\Temp\ccizkeXa.s 			page 66


 3153 08db E6080000 		.4byte	0x8e6
 3154 08df 0B       		.uleb128 0xb
 3155 08e0 45000000 		.4byte	0x45
 3156 08e4 17       		.byte	0x17
 3157 08e5 00       		.byte	0
 3158 08e6 19       		.uleb128 0x19
 3159 08e7 F0       		.byte	0xf0
 3160 08e8 06       		.byte	0x6
 3161 08e9 9902     		.2byte	0x299
 3162 08eb 0E090000 		.4byte	0x90e
 3163 08ef 17       		.uleb128 0x17
 3164 08f0 D4030000 		.4byte	.LASF122
 3165 08f4 06       		.byte	0x6
 3166 08f5 9C02     		.2byte	0x29c
 3167 08f7 0E090000 		.4byte	0x90e
 3168 08fb 02       		.byte	0x2
 3169 08fc 23       		.byte	0x23
 3170 08fd 00       		.uleb128 0
 3171 08fe 17       		.uleb128 0x17
 3172 08ff A7110000 		.4byte	.LASF123
 3173 0903 06       		.byte	0x6
 3174 0904 9D02     		.2byte	0x29d
 3175 0906 1E090000 		.4byte	0x91e
 3176 090a 02       		.byte	0x2
 3177 090b 23       		.byte	0x23
 3178 090c 78       		.uleb128 0x78
 3179 090d 00       		.byte	0
 3180 090e 0A       		.uleb128 0xa
 3181 090f 6F030000 		.4byte	0x36f
 3182 0913 1E090000 		.4byte	0x91e
 3183 0917 0B       		.uleb128 0xb
 3184 0918 45000000 		.4byte	0x45
 3185 091c 1D       		.byte	0x1d
 3186 091d 00       		.byte	0
 3187 091e 0A       		.uleb128 0xa
 3188 091f 45000000 		.4byte	0x45
 3189 0923 2E090000 		.4byte	0x92e
 3190 0927 0B       		.uleb128 0xb
 3191 0928 45000000 		.4byte	0x45
 3192 092c 1D       		.byte	0x1d
 3193 092d 00       		.byte	0
 3194 092e 1A       		.uleb128 0x1a
 3195 092f F0       		.byte	0xf0
 3196 0930 06       		.byte	0x6
 3197 0931 7E02     		.2byte	0x27e
 3198 0933 50090000 		.4byte	0x950
 3199 0937 1B       		.uleb128 0x1b
 3200 0938 4F100000 		.4byte	.LASF73
 3201 093c 06       		.byte	0x6
 3202 093d 9502     		.2byte	0x295
 3203 093f 86070000 		.4byte	0x786
 3204 0943 1B       		.uleb128 0x1b
 3205 0944 E90C0000 		.4byte	.LASF124
 3206 0948 06       		.byte	0x6
 3207 0949 9E02     		.2byte	0x29e
 3208 094b E6080000 		.4byte	0x8e6
 3209 094f 00       		.byte	0
ARM GAS  C:\Users\EBANO_~1\AppData\Local\Temp\ccizkeXa.s 			page 67


 3210 0950 0A       		.uleb128 0xa
 3211 0951 71010000 		.4byte	0x171
 3212 0955 60090000 		.4byte	0x960
 3213 0959 0B       		.uleb128 0xb
 3214 095a 45000000 		.4byte	0x45
 3215 095e 18       		.byte	0x18
 3216 095f 00       		.byte	0
 3217 0960 06       		.uleb128 0x6
 3218 0961 CE010000 		.4byte	.LASF126
 3219 0965 01       		.byte	0x1
 3220 0966 05       		.uleb128 0x5
 3221 0967 04       		.byte	0x4
 3222 0968 60090000 		.4byte	0x960
 3223 096c 1C       		.uleb128 0x1c
 3224 096d 01       		.byte	0x1
 3225 096e 78090000 		.4byte	0x978
 3226 0972 15       		.uleb128 0x15
 3227 0973 EE040000 		.4byte	0x4ee
 3228 0977 00       		.byte	0
 3229 0978 05       		.uleb128 0x5
 3230 0979 04       		.byte	0x4
 3231 097a 6C090000 		.4byte	0x96c
 3232 097e 05       		.uleb128 0x5
 3233 097f 04       		.byte	0x4
 3234 0980 E7010000 		.4byte	0x1e7
 3235 0984 1C       		.uleb128 0x1c
 3236 0985 01       		.byte	0x1
 3237 0986 90090000 		.4byte	0x990
 3238 098a 15       		.uleb128 0x15
 3239 098b 3E000000 		.4byte	0x3e
 3240 098f 00       		.byte	0
 3241 0990 05       		.uleb128 0x5
 3242 0991 04       		.byte	0x4
 3243 0992 96090000 		.4byte	0x996
 3244 0996 05       		.uleb128 0x5
 3245 0997 04       		.byte	0x4
 3246 0998 84090000 		.4byte	0x984
 3247 099c 0A       		.uleb128 0xa
 3248 099d E8060000 		.4byte	0x6e8
 3249 09a1 AC090000 		.4byte	0x9ac
 3250 09a5 0B       		.uleb128 0xb
 3251 09a6 45000000 		.4byte	0x45
 3252 09aa 02       		.byte	0x2
 3253 09ab 00       		.byte	0
 3254 09ac 1D       		.uleb128 0x1d
 3255 09ad C8030000 		.4byte	.LASF127
 3256 09b1 06       		.byte	0x6
 3257 09b2 2E03     		.2byte	0x32e
 3258 09b4 EE040000 		.4byte	0x4ee
 3259 09b8 01       		.byte	0x1
 3260 09b9 01       		.byte	0x1
 3261 09ba 1D       		.uleb128 0x1d
 3262 09bb 890A0000 		.4byte	.LASF128
 3263 09bf 06       		.byte	0x6
 3264 09c0 2F03     		.2byte	0x32f
 3265 09c2 F4040000 		.4byte	0x4f4
 3266 09c6 01       		.byte	0x1
ARM GAS  C:\Users\EBANO_~1\AppData\Local\Temp\ccizkeXa.s 			page 68


 3267 09c7 01       		.byte	0x1
 3268 09c8 1E       		.uleb128 0x1e
 3269 09c9 930F0000 		.4byte	.LASF200
 3270 09cd 05       		.byte	0x5
 3271 09ce 01       		.byte	0x1
 3272 09cf 37000000 		.4byte	0x37
 3273 09d3 07       		.byte	0x7
 3274 09d4 8202     		.2byte	0x282
 3275 09d6 F3090000 		.4byte	0x9f3
 3276 09da 1F       		.uleb128 0x1f
 3277 09db 8D0C0000 		.4byte	.LASF129
 3278 09df 7F       		.sleb128 -1
 3279 09e0 20       		.uleb128 0x20
 3280 09e1 DA080000 		.4byte	.LASF130
 3281 09e5 00       		.byte	0
 3282 09e6 20       		.uleb128 0x20
 3283 09e7 4A000000 		.4byte	.LASF131
 3284 09eb 01       		.byte	0x1
 3285 09ec 20       		.uleb128 0x20
 3286 09ed FB040000 		.4byte	.LASF132
 3287 09f1 02       		.byte	0x2
 3288 09f2 00       		.byte	0
 3289 09f3 1D       		.uleb128 0x1d
 3290 09f4 8A090000 		.4byte	.LASF133
 3291 09f8 07       		.byte	0x7
 3292 09f9 8D02     		.2byte	0x28d
 3293 09fb C8090000 		.4byte	0x9c8
 3294 09ff 01       		.byte	0x1
 3295 0a00 01       		.byte	0x1
 3296 0a01 04       		.uleb128 0x4
 3297 0a02 E5020000 		.4byte	.LASF134
 3298 0a06 08       		.byte	0x8
 3299 0a07 14       		.byte	0x14
 3300 0a08 5A000000 		.4byte	0x5a
 3301 0a0c 04       		.uleb128 0x4
 3302 0a0d F4070000 		.4byte	.LASF135
 3303 0a11 08       		.byte	0x8
 3304 0a12 18       		.byte	0x18
 3305 0a13 65000000 		.4byte	0x65
 3306 0a17 0F       		.uleb128 0xf
 3307 0a18 0C0A0000 		.4byte	0xa0c
 3308 0a1c 04       		.uleb128 0x4
 3309 0a1d 00040000 		.4byte	.LASF136
 3310 0a21 08       		.byte	0x8
 3311 0a22 20       		.byte	0x20
 3312 0a23 77000000 		.4byte	0x77
 3313 0a27 04       		.uleb128 0x4
 3314 0a28 C50A0000 		.4byte	.LASF137
 3315 0a2c 08       		.byte	0x8
 3316 0a2d 24       		.byte	0x24
 3317 0a2e 89000000 		.4byte	0x89
 3318 0a32 04       		.uleb128 0x4
 3319 0a33 BE0D0000 		.4byte	.LASF138
 3320 0a37 08       		.byte	0x8
 3321 0a38 2C       		.byte	0x2c
 3322 0a39 9B000000 		.4byte	0x9b
 3323 0a3d 04       		.uleb128 0x4
ARM GAS  C:\Users\EBANO_~1\AppData\Local\Temp\ccizkeXa.s 			page 69


 3324 0a3e DC020000 		.4byte	.LASF139
 3325 0a42 08       		.byte	0x8
 3326 0a43 30       		.byte	0x30
 3327 0a44 AD000000 		.4byte	0xad
 3328 0a48 21       		.uleb128 0x21
 3329 0a49 07       		.byte	0x7
 3330 0a4a 01       		.byte	0x1
 3331 0a4b 70000000 		.4byte	0x70
 3332 0a4f 09       		.byte	0x9
 3333 0a50 21       		.byte	0x21
 3334 0a51 620A0000 		.4byte	0xa62
 3335 0a55 20       		.uleb128 0x20
 3336 0a56 190D0000 		.4byte	.LASF140
 3337 0a5a 00       		.byte	0
 3338 0a5b 20       		.uleb128 0x20
 3339 0a5c 47090000 		.4byte	.LASF141
 3340 0a60 01       		.byte	0x1
 3341 0a61 00       		.byte	0
 3342 0a62 04       		.uleb128 0x4
 3343 0a63 21070000 		.4byte	.LASF142
 3344 0a67 09       		.byte	0x9
 3345 0a68 24       		.byte	0x24
 3346 0a69 480A0000 		.4byte	0xa48
 3347 0a6d 21       		.uleb128 0x21
 3348 0a6e 07       		.byte	0x7
 3349 0a6f 01       		.byte	0x1
 3350 0a70 70000000 		.4byte	0x70
 3351 0a74 09       		.byte	0x9
 3352 0a75 2A       		.byte	0x2a
 3353 0a76 930A0000 		.4byte	0xa93
 3354 0a7a 20       		.uleb128 0x20
 3355 0a7b A70A0000 		.4byte	.LASF143
 3356 0a7f 00       		.byte	0
 3357 0a80 20       		.uleb128 0x20
 3358 0a81 B8070000 		.4byte	.LASF144
 3359 0a85 01       		.byte	0x1
 3360 0a86 20       		.uleb128 0x20
 3361 0a87 E40F0000 		.4byte	.LASF145
 3362 0a8b 02       		.byte	0x2
 3363 0a8c 20       		.uleb128 0x20
 3364 0a8d 3D070000 		.4byte	.LASF146
 3365 0a91 03       		.byte	0x3
 3366 0a92 00       		.byte	0
 3367 0a93 04       		.uleb128 0x4
 3368 0a94 88050000 		.4byte	.LASF147
 3369 0a98 09       		.byte	0x9
 3370 0a99 2F       		.byte	0x2f
 3371 0a9a 6D0A0000 		.4byte	0xa6d
 3372 0a9e 0C       		.uleb128 0xc
 3373 0a9f 1C       		.byte	0x1c
 3374 0aa0 09       		.byte	0x9
 3375 0aa1 34       		.byte	0x34
 3376 0aa2 090B0000 		.4byte	0xb09
 3377 0aa6 0D       		.uleb128 0xd
 3378 0aa7 07020000 		.4byte	.LASF148
 3379 0aab 09       		.byte	0x9
 3380 0aac 39       		.byte	0x39
ARM GAS  C:\Users\EBANO_~1\AppData\Local\Temp\ccizkeXa.s 			page 70


 3381 0aad 3E030000 		.4byte	0x33e
 3382 0ab1 02       		.byte	0x2
 3383 0ab2 23       		.byte	0x23
 3384 0ab3 00       		.uleb128 0
 3385 0ab4 0D       		.uleb128 0xd
 3386 0ab5 F6020000 		.4byte	.LASF149
 3387 0ab9 09       		.byte	0x9
 3388 0aba 3D       		.byte	0x3d
 3389 0abb 3E030000 		.4byte	0x33e
 3390 0abf 02       		.byte	0x2
 3391 0ac0 23       		.byte	0x23
 3392 0ac1 04       		.uleb128 0x4
 3393 0ac2 0D       		.uleb128 0xd
 3394 0ac3 F3050000 		.4byte	.LASF150
 3395 0ac7 09       		.byte	0x9
 3396 0ac8 48       		.byte	0x48
 3397 0ac9 2A0B0000 		.4byte	0xb2a
 3398 0acd 02       		.byte	0x2
 3399 0ace 23       		.byte	0x23
 3400 0acf 08       		.uleb128 0x8
 3401 0ad0 0D       		.uleb128 0xd
 3402 0ad1 BB0A0000 		.4byte	.LASF151
 3403 0ad5 09       		.byte	0x9
 3404 0ad6 4C       		.byte	0x4c
 3405 0ad7 3E030000 		.4byte	0x33e
 3406 0adb 02       		.byte	0x2
 3407 0adc 23       		.byte	0x23
 3408 0add 0C       		.uleb128 0xc
 3409 0ade 0D       		.uleb128 0xd
 3410 0adf 7B020000 		.4byte	.LASF152
 3411 0ae3 09       		.byte	0x9
 3412 0ae4 50       		.byte	0x50
 3413 0ae5 3E030000 		.4byte	0x33e
 3414 0ae9 02       		.byte	0x2
 3415 0aea 23       		.byte	0x23
 3416 0aeb 10       		.uleb128 0x10
 3417 0aec 0D       		.uleb128 0xd
 3418 0aed 7C010000 		.4byte	.LASF153
 3419 0af1 09       		.byte	0x9
 3420 0af2 56       		.byte	0x56
 3421 0af3 3C0B0000 		.4byte	0xb3c
 3422 0af7 02       		.byte	0x2
 3423 0af8 23       		.byte	0x23
 3424 0af9 14       		.uleb128 0x14
 3425 0afa 0D       		.uleb128 0xd
 3426 0afb 77040000 		.4byte	.LASF154
 3427 0aff 09       		.byte	0x9
 3428 0b00 5D       		.byte	0x5d
 3429 0b01 550B0000 		.4byte	0xb55
 3430 0b05 02       		.byte	0x2
 3431 0b06 23       		.byte	0x23
 3432 0b07 18       		.uleb128 0x18
 3433 0b08 00       		.byte	0
 3434 0b09 1C       		.uleb128 0x1c
 3435 0b0a 01       		.byte	0x1
 3436 0b0b 240B0000 		.4byte	0xb24
 3437 0b0f 15       		.uleb128 0x15
ARM GAS  C:\Users\EBANO_~1\AppData\Local\Temp\ccizkeXa.s 			page 71


 3438 0b10 240B0000 		.4byte	0xb24
 3439 0b14 15       		.uleb128 0x15
 3440 0b15 270A0000 		.4byte	0xa27
 3441 0b19 15       		.uleb128 0x15
 3442 0b1a 1C0A0000 		.4byte	0xa1c
 3443 0b1e 15       		.uleb128 0x15
 3444 0b1f 010A0000 		.4byte	0xa01
 3445 0b23 00       		.byte	0
 3446 0b24 05       		.uleb128 0x5
 3447 0b25 04       		.byte	0x4
 3448 0b26 0C0A0000 		.4byte	0xa0c
 3449 0b2a 05       		.uleb128 0x5
 3450 0b2b 04       		.byte	0x4
 3451 0b2c 090B0000 		.4byte	0xb09
 3452 0b30 1C       		.uleb128 0x1c
 3453 0b31 01       		.byte	0x1
 3454 0b32 3C0B0000 		.4byte	0xb3c
 3455 0b36 15       		.uleb128 0x15
 3456 0b37 0C0A0000 		.4byte	0xa0c
 3457 0b3b 00       		.byte	0
 3458 0b3c 05       		.uleb128 0x5
 3459 0b3d 04       		.byte	0x4
 3460 0b3e 300B0000 		.4byte	0xb30
 3461 0b42 1C       		.uleb128 0x1c
 3462 0b43 01       		.byte	0x1
 3463 0b44 4E0B0000 		.4byte	0xb4e
 3464 0b48 15       		.uleb128 0x15
 3465 0b49 4E0B0000 		.4byte	0xb4e
 3466 0b4d 00       		.byte	0
 3467 0b4e 02       		.uleb128 0x2
 3468 0b4f 01       		.byte	0x1
 3469 0b50 02       		.byte	0x2
 3470 0b51 13060000 		.4byte	.LASF155
 3471 0b55 05       		.uleb128 0x5
 3472 0b56 04       		.byte	0x4
 3473 0b57 420B0000 		.4byte	0xb42
 3474 0b5b 04       		.uleb128 0x4
 3475 0b5c 26020000 		.4byte	.LASF156
 3476 0b60 09       		.byte	0x9
 3477 0b61 5E       		.byte	0x5e
 3478 0b62 9E0A0000 		.4byte	0xa9e
 3479 0b66 10       		.uleb128 0x10
 3480 0b67 6F110000 		.4byte	.LASF157
 3481 0b6b 74       		.byte	0x74
 3482 0b6c 09       		.byte	0x9
 3483 0b6d 63       		.byte	0x63
 3484 0b6e 1A0D0000 		.4byte	0xd1a
 3485 0b72 0D       		.uleb128 0xd
 3486 0b73 AD0C0000 		.4byte	.LASF158
 3487 0b77 09       		.byte	0x9
 3488 0b78 68       		.byte	0x68
 3489 0b79 3E030000 		.4byte	0x33e
 3490 0b7d 02       		.byte	0x2
 3491 0b7e 23       		.byte	0x23
 3492 0b7f 00       		.uleb128 0
 3493 0b80 0D       		.uleb128 0xd
 3494 0b81 E40A0000 		.4byte	.LASF159
ARM GAS  C:\Users\EBANO_~1\AppData\Local\Temp\ccizkeXa.s 			page 72


 3495 0b85 09       		.byte	0x9
 3496 0b86 6C       		.byte	0x6c
 3497 0b87 3E030000 		.4byte	0x33e
 3498 0b8b 02       		.byte	0x2
 3499 0b8c 23       		.byte	0x23
 3500 0b8d 04       		.uleb128 0x4
 3501 0b8e 0D       		.uleb128 0xd
 3502 0b8f AE050000 		.4byte	.LASF160
 3503 0b93 09       		.byte	0x9
 3504 0b94 73       		.byte	0x73
 3505 0b95 350D0000 		.4byte	0xd35
 3506 0b99 02       		.byte	0x2
 3507 0b9a 23       		.byte	0x23
 3508 0b9b 08       		.uleb128 0x8
 3509 0b9c 0D       		.uleb128 0xd
 3510 0b9d B3050000 		.4byte	.LASF161
 3511 0ba1 09       		.byte	0x9
 3512 0ba2 79       		.byte	0x79
 3513 0ba3 410D0000 		.4byte	0xd41
 3514 0ba7 02       		.byte	0x2
 3515 0ba8 23       		.byte	0x23
 3516 0ba9 0C       		.uleb128 0xc
 3517 0baa 0D       		.uleb128 0xd
 3518 0bab 410D0000 		.4byte	.LASF162
 3519 0baf 09       		.byte	0x9
 3520 0bb0 7F       		.byte	0x7f
 3521 0bb1 530D0000 		.4byte	0xd53
 3522 0bb5 02       		.byte	0x2
 3523 0bb6 23       		.byte	0x23
 3524 0bb7 10       		.uleb128 0x10
 3525 0bb8 0D       		.uleb128 0xd
 3526 0bb9 47060000 		.4byte	.LASF163
 3527 0bbd 09       		.byte	0x9
 3528 0bbe 85       		.byte	0x85
 3529 0bbf 650D0000 		.4byte	0xd65
 3530 0bc3 02       		.byte	0x2
 3531 0bc4 23       		.byte	0x23
 3532 0bc5 14       		.uleb128 0x14
 3533 0bc6 0D       		.uleb128 0xd
 3534 0bc7 250F0000 		.4byte	.LASF164
 3535 0bcb 09       		.byte	0x9
 3536 0bcc 90       		.byte	0x90
 3537 0bcd 8A0D0000 		.4byte	0xd8a
 3538 0bd1 02       		.byte	0x2
 3539 0bd2 23       		.byte	0x23
 3540 0bd3 18       		.uleb128 0x18
 3541 0bd4 0D       		.uleb128 0xd
 3542 0bd5 45080000 		.4byte	.LASF165
 3543 0bd9 09       		.byte	0x9
 3544 0bda 9B       		.byte	0x9b
 3545 0bdb 960D0000 		.4byte	0xd96
 3546 0bdf 02       		.byte	0x2
 3547 0be0 23       		.byte	0x23
 3548 0be1 1C       		.uleb128 0x1c
 3549 0be2 0D       		.uleb128 0xd
 3550 0be3 AE0F0000 		.4byte	.LASF166
 3551 0be7 09       		.byte	0x9
ARM GAS  C:\Users\EBANO_~1\AppData\Local\Temp\ccizkeXa.s 			page 73


 3552 0be8 C3       		.byte	0xc3
 3553 0be9 E90D0000 		.4byte	0xde9
 3554 0bed 02       		.byte	0x2
 3555 0bee 23       		.byte	0x23
 3556 0bef 20       		.uleb128 0x20
 3557 0bf0 0D       		.uleb128 0xd
 3558 0bf1 810F0000 		.4byte	.LASF167
 3559 0bf5 09       		.byte	0x9
 3560 0bf6 ED       		.byte	0xed
 3561 0bf7 370E0000 		.4byte	0xe37
 3562 0bfb 02       		.byte	0x2
 3563 0bfc 23       		.byte	0x23
 3564 0bfd 24       		.uleb128 0x24
 3565 0bfe 0D       		.uleb128 0xd
 3566 0bff 9D050000 		.4byte	.LASF168
 3567 0c03 09       		.byte	0x9
 3568 0c04 F8       		.byte	0xf8
 3569 0c05 4D0E0000 		.4byte	0xe4d
 3570 0c09 02       		.byte	0x2
 3571 0c0a 23       		.byte	0x23
 3572 0c0b 28       		.uleb128 0x28
 3573 0c0c 17       		.uleb128 0x17
 3574 0c0d D2100000 		.4byte	.LASF169
 3575 0c11 09       		.byte	0x9
 3576 0c12 0301     		.2byte	0x103
 3577 0c14 680E0000 		.4byte	0xe68
 3578 0c18 02       		.byte	0x2
 3579 0c19 23       		.byte	0x23
 3580 0c1a 2C       		.uleb128 0x2c
 3581 0c1b 17       		.uleb128 0x17
 3582 0c1c 690E0000 		.4byte	.LASF170
 3583 0c20 09       		.byte	0x9
 3584 0c21 0B01     		.2byte	0x10b
 3585 0c23 7F0E0000 		.4byte	0xe7f
 3586 0c27 02       		.byte	0x2
 3587 0c28 23       		.byte	0x23
 3588 0c29 30       		.uleb128 0x30
 3589 0c2a 17       		.uleb128 0x17
 3590 0c2b E8010000 		.4byte	.LASF171
 3591 0c2f 09       		.byte	0x9
 3592 0c30 0F01     		.2byte	0x10f
 3593 0c32 3E030000 		.4byte	0x33e
 3594 0c36 02       		.byte	0x2
 3595 0c37 23       		.byte	0x23
 3596 0c38 34       		.uleb128 0x34
 3597 0c39 17       		.uleb128 0x17
 3598 0c3a F20D0000 		.4byte	.LASF172
 3599 0c3e 09       		.byte	0x9
 3600 0c3f 1301     		.2byte	0x113
 3601 0c41 3E030000 		.4byte	0x33e
 3602 0c45 02       		.byte	0x2
 3603 0c46 23       		.byte	0x23
 3604 0c47 38       		.uleb128 0x38
 3605 0c48 22       		.uleb128 0x22
 3606 0c49 527800   		.ascii	"Rx\000"
 3607 0c4c 09       		.byte	0x9
 3608 0c4d 1901     		.2byte	0x119
ARM GAS  C:\Users\EBANO_~1\AppData\Local\Temp\ccizkeXa.s 			page 74


 3609 0c4f 650D0000 		.4byte	0xd65
 3610 0c53 02       		.byte	0x2
 3611 0c54 23       		.byte	0x23
 3612 0c55 3C       		.uleb128 0x3c
 3613 0c56 17       		.uleb128 0x17
 3614 0c57 59040000 		.4byte	.LASF173
 3615 0c5b 09       		.byte	0x9
 3616 0c5c 1D01     		.2byte	0x11d
 3617 0c5e 3E030000 		.4byte	0x33e
 3618 0c62 02       		.byte	0x2
 3619 0c63 23       		.byte	0x23
 3620 0c64 40       		.uleb128 0x40
 3621 0c65 17       		.uleb128 0x17
 3622 0c66 52090000 		.4byte	.LASF174
 3623 0c6a 09       		.byte	0x9
 3624 0c6b 2501     		.2byte	0x125
 3625 0c6d 9B0E0000 		.4byte	0xe9b
 3626 0c71 02       		.byte	0x2
 3627 0c72 23       		.byte	0x23
 3628 0c73 44       		.uleb128 0x44
 3629 0c74 17       		.uleb128 0x17
 3630 0c75 9F060000 		.4byte	.LASF175
 3631 0c79 09       		.byte	0x9
 3632 0c7a 2B01     		.2byte	0x12b
 3633 0c7c B10E0000 		.4byte	0xeb1
 3634 0c80 02       		.byte	0x2
 3635 0c81 23       		.byte	0x23
 3636 0c82 48       		.uleb128 0x48
 3637 0c83 17       		.uleb128 0x17
 3638 0c84 53040000 		.4byte	.LASF176
 3639 0c88 09       		.byte	0x9
 3640 0c89 3201     		.2byte	0x132
 3641 0c8b C80E0000 		.4byte	0xec8
 3642 0c8f 02       		.byte	0x2
 3643 0c90 23       		.byte	0x23
 3644 0c91 4C       		.uleb128 0x4c
 3645 0c92 17       		.uleb128 0x17
 3646 0c93 B9060000 		.4byte	.LASF177
 3647 0c97 09       		.byte	0x9
 3648 0c98 3901     		.2byte	0x139
 3649 0c9a DE0E0000 		.4byte	0xede
 3650 0c9e 02       		.byte	0x2
 3651 0c9f 23       		.byte	0x23
 3652 0ca0 50       		.uleb128 0x50
 3653 0ca1 17       		.uleb128 0x17
 3654 0ca2 120A0000 		.4byte	.LASF178
 3655 0ca6 09       		.byte	0x9
 3656 0ca7 4101     		.2byte	0x141
 3657 0ca9 FA0E0000 		.4byte	0xefa
 3658 0cad 02       		.byte	0x2
 3659 0cae 23       		.byte	0x23
 3660 0caf 54       		.uleb128 0x54
 3661 0cb0 17       		.uleb128 0x17
 3662 0cb1 440F0000 		.4byte	.LASF179
 3663 0cb5 09       		.byte	0x9
 3664 0cb6 4901     		.2byte	0x149
 3665 0cb8 FA0E0000 		.4byte	0xefa
ARM GAS  C:\Users\EBANO_~1\AppData\Local\Temp\ccizkeXa.s 			page 75


 3666 0cbc 02       		.byte	0x2
 3667 0cbd 23       		.byte	0x23
 3668 0cbe 58       		.uleb128 0x58
 3669 0cbf 17       		.uleb128 0x17
 3670 0cc0 230D0000 		.4byte	.LASF180
 3671 0cc4 09       		.byte	0x9
 3672 0cc5 5001     		.2byte	0x150
 3673 0cc7 110F0000 		.4byte	0xf11
 3674 0ccb 02       		.byte	0x2
 3675 0ccc 23       		.byte	0x23
 3676 0ccd 5C       		.uleb128 0x5c
 3677 0cce 17       		.uleb128 0x17
 3678 0ccf 4F0F0000 		.4byte	.LASF181
 3679 0cd3 09       		.byte	0x9
 3680 0cd4 5801     		.2byte	0x158
 3681 0cd6 550B0000 		.4byte	0xb55
 3682 0cda 02       		.byte	0x2
 3683 0cdb 23       		.byte	0x23
 3684 0cdc 60       		.uleb128 0x60
 3685 0cdd 17       		.uleb128 0x17
 3686 0cde 40020000 		.4byte	.LASF182
 3687 0ce2 09       		.byte	0x9
 3688 0ce3 5E01     		.2byte	0x15e
 3689 0ce5 960D0000 		.4byte	0xd96
 3690 0ce9 02       		.byte	0x2
 3691 0cea 23       		.byte	0x23
 3692 0ceb 64       		.uleb128 0x64
 3693 0cec 17       		.uleb128 0x17
 3694 0ced 9D010000 		.4byte	.LASF183
 3695 0cf1 09       		.byte	0x9
 3696 0cf2 6201     		.2byte	0x162
 3697 0cf4 3E030000 		.4byte	0x33e
 3698 0cf8 02       		.byte	0x2
 3699 0cf9 23       		.byte	0x23
 3700 0cfa 68       		.uleb128 0x68
 3701 0cfb 17       		.uleb128 0x17
 3702 0cfc 90080000 		.4byte	.LASF184
 3703 0d00 09       		.byte	0x9
 3704 0d01 6E01     		.2byte	0x16e
 3705 0d03 650D0000 		.4byte	0xd65
 3706 0d07 02       		.byte	0x2
 3707 0d08 23       		.byte	0x23
 3708 0d09 6C       		.uleb128 0x6c
 3709 0d0a 17       		.uleb128 0x17
 3710 0d0b 73080000 		.4byte	.LASF185
 3711 0d0f 09       		.byte	0x9
 3712 0d10 7701     		.2byte	0x177
 3713 0d12 280F0000 		.4byte	0xf28
 3714 0d16 02       		.byte	0x2
 3715 0d17 23       		.byte	0x23
 3716 0d18 70       		.uleb128 0x70
 3717 0d19 00       		.byte	0
 3718 0d1a 0F       		.uleb128 0xf
 3719 0d1b 660B0000 		.4byte	0xb66
 3720 0d1f 14       		.uleb128 0x14
 3721 0d20 01       		.byte	0x1
 3722 0d21 3D0A0000 		.4byte	0xa3d
ARM GAS  C:\Users\EBANO_~1\AppData\Local\Temp\ccizkeXa.s 			page 76


 3723 0d25 2F0D0000 		.4byte	0xd2f
 3724 0d29 15       		.uleb128 0x15
 3725 0d2a 2F0D0000 		.4byte	0xd2f
 3726 0d2e 00       		.byte	0
 3727 0d2f 05       		.uleb128 0x5
 3728 0d30 04       		.byte	0x4
 3729 0d31 5B0B0000 		.4byte	0xb5b
 3730 0d35 05       		.uleb128 0x5
 3731 0d36 04       		.byte	0x4
 3732 0d37 1F0D0000 		.4byte	0xd1f
 3733 0d3b 23       		.uleb128 0x23
 3734 0d3c 01       		.byte	0x1
 3735 0d3d 930A0000 		.4byte	0xa93
 3736 0d41 05       		.uleb128 0x5
 3737 0d42 04       		.byte	0x4
 3738 0d43 3B0D0000 		.4byte	0xd3b
 3739 0d47 1C       		.uleb128 0x1c
 3740 0d48 01       		.byte	0x1
 3741 0d49 530D0000 		.4byte	0xd53
 3742 0d4d 15       		.uleb128 0x15
 3743 0d4e 620A0000 		.4byte	0xa62
 3744 0d52 00       		.byte	0
 3745 0d53 05       		.uleb128 0x5
 3746 0d54 04       		.byte	0x4
 3747 0d55 470D0000 		.4byte	0xd47
 3748 0d59 1C       		.uleb128 0x1c
 3749 0d5a 01       		.byte	0x1
 3750 0d5b 650D0000 		.4byte	0xd65
 3751 0d5f 15       		.uleb128 0x15
 3752 0d60 3D0A0000 		.4byte	0xa3d
 3753 0d64 00       		.byte	0
 3754 0d65 05       		.uleb128 0x5
 3755 0d66 04       		.byte	0x4
 3756 0d67 590D0000 		.4byte	0xd59
 3757 0d6b 14       		.uleb128 0x14
 3758 0d6c 01       		.byte	0x1
 3759 0d6d 4E0B0000 		.4byte	0xb4e
 3760 0d71 8A0D0000 		.4byte	0xd8a
 3761 0d75 15       		.uleb128 0x15
 3762 0d76 620A0000 		.4byte	0xa62
 3763 0d7a 15       		.uleb128 0x15
 3764 0d7b 3D0A0000 		.4byte	0xa3d
 3765 0d7f 15       		.uleb128 0x15
 3766 0d80 1C0A0000 		.4byte	0xa1c
 3767 0d84 15       		.uleb128 0x15
 3768 0d85 3D0A0000 		.4byte	0xa3d
 3769 0d89 00       		.byte	0
 3770 0d8a 05       		.uleb128 0x5
 3771 0d8b 04       		.byte	0x4
 3772 0d8c 6B0D0000 		.4byte	0xd6b
 3773 0d90 23       		.uleb128 0x23
 3774 0d91 01       		.byte	0x1
 3775 0d92 3D0A0000 		.4byte	0xa3d
 3776 0d96 05       		.uleb128 0x5
 3777 0d97 04       		.byte	0x4
 3778 0d98 900D0000 		.4byte	0xd90
 3779 0d9c 1C       		.uleb128 0x1c
ARM GAS  C:\Users\EBANO_~1\AppData\Local\Temp\ccizkeXa.s 			page 77


 3780 0d9d 01       		.byte	0x1
 3781 0d9e E90D0000 		.4byte	0xde9
 3782 0da2 15       		.uleb128 0x15
 3783 0da3 620A0000 		.4byte	0xa62
 3784 0da7 15       		.uleb128 0x15
 3785 0da8 3D0A0000 		.4byte	0xa3d
 3786 0dac 15       		.uleb128 0x15
 3787 0dad 3D0A0000 		.4byte	0xa3d
 3788 0db1 15       		.uleb128 0x15
 3789 0db2 0C0A0000 		.4byte	0xa0c
 3790 0db6 15       		.uleb128 0x15
 3791 0db7 3D0A0000 		.4byte	0xa3d
 3792 0dbb 15       		.uleb128 0x15
 3793 0dbc 270A0000 		.4byte	0xa27
 3794 0dc0 15       		.uleb128 0x15
 3795 0dc1 270A0000 		.4byte	0xa27
 3796 0dc5 15       		.uleb128 0x15
 3797 0dc6 4E0B0000 		.4byte	0xb4e
 3798 0dca 15       		.uleb128 0x15
 3799 0dcb 0C0A0000 		.4byte	0xa0c
 3800 0dcf 15       		.uleb128 0x15
 3801 0dd0 4E0B0000 		.4byte	0xb4e
 3802 0dd4 15       		.uleb128 0x15
 3803 0dd5 4E0B0000 		.4byte	0xb4e
 3804 0dd9 15       		.uleb128 0x15
 3805 0dda 0C0A0000 		.4byte	0xa0c
 3806 0dde 15       		.uleb128 0x15
 3807 0ddf 4E0B0000 		.4byte	0xb4e
 3808 0de3 15       		.uleb128 0x15
 3809 0de4 4E0B0000 		.4byte	0xb4e
 3810 0de8 00       		.byte	0
 3811 0de9 05       		.uleb128 0x5
 3812 0dea 04       		.byte	0x4
 3813 0deb 9C0D0000 		.4byte	0xd9c
 3814 0def 1C       		.uleb128 0x1c
 3815 0df0 01       		.byte	0x1
 3816 0df1 370E0000 		.4byte	0xe37
 3817 0df5 15       		.uleb128 0x15
 3818 0df6 620A0000 		.4byte	0xa62
 3819 0dfa 15       		.uleb128 0x15
 3820 0dfb 010A0000 		.4byte	0xa01
 3821 0dff 15       		.uleb128 0x15
 3822 0e00 3D0A0000 		.4byte	0xa3d
 3823 0e04 15       		.uleb128 0x15
 3824 0e05 3D0A0000 		.4byte	0xa3d
 3825 0e09 15       		.uleb128 0x15
 3826 0e0a 3D0A0000 		.4byte	0xa3d
 3827 0e0e 15       		.uleb128 0x15
 3828 0e0f 0C0A0000 		.4byte	0xa0c
 3829 0e13 15       		.uleb128 0x15
 3830 0e14 270A0000 		.4byte	0xa27
 3831 0e18 15       		.uleb128 0x15
 3832 0e19 4E0B0000 		.4byte	0xb4e
 3833 0e1d 15       		.uleb128 0x15
 3834 0e1e 4E0B0000 		.4byte	0xb4e
 3835 0e22 15       		.uleb128 0x15
 3836 0e23 4E0B0000 		.4byte	0xb4e
ARM GAS  C:\Users\EBANO_~1\AppData\Local\Temp\ccizkeXa.s 			page 78


 3837 0e27 15       		.uleb128 0x15
 3838 0e28 0C0A0000 		.4byte	0xa0c
 3839 0e2c 15       		.uleb128 0x15
 3840 0e2d 4E0B0000 		.4byte	0xb4e
 3841 0e31 15       		.uleb128 0x15
 3842 0e32 3D0A0000 		.4byte	0xa3d
 3843 0e36 00       		.byte	0
 3844 0e37 05       		.uleb128 0x5
 3845 0e38 04       		.byte	0x4
 3846 0e39 EF0D0000 		.4byte	0xdef
 3847 0e3d 14       		.uleb128 0x14
 3848 0e3e 01       		.byte	0x1
 3849 0e3f 4E0B0000 		.4byte	0xb4e
 3850 0e43 4D0E0000 		.4byte	0xe4d
 3851 0e47 15       		.uleb128 0x15
 3852 0e48 3D0A0000 		.4byte	0xa3d
 3853 0e4c 00       		.byte	0
 3854 0e4d 05       		.uleb128 0x5
 3855 0e4e 04       		.byte	0x4
 3856 0e4f 3D0E0000 		.4byte	0xe3d
 3857 0e53 14       		.uleb128 0x14
 3858 0e54 01       		.byte	0x1
 3859 0e55 3D0A0000 		.4byte	0xa3d
 3860 0e59 680E0000 		.4byte	0xe68
 3861 0e5d 15       		.uleb128 0x15
 3862 0e5e 620A0000 		.4byte	0xa62
 3863 0e62 15       		.uleb128 0x15
 3864 0e63 0C0A0000 		.4byte	0xa0c
 3865 0e67 00       		.byte	0
 3866 0e68 05       		.uleb128 0x5
 3867 0e69 04       		.byte	0x4
 3868 0e6a 530E0000 		.4byte	0xe53
 3869 0e6e 1C       		.uleb128 0x1c
 3870 0e6f 01       		.byte	0x1
 3871 0e70 7F0E0000 		.4byte	0xe7f
 3872 0e74 15       		.uleb128 0x15
 3873 0e75 240B0000 		.4byte	0xb24
 3874 0e79 15       		.uleb128 0x15
 3875 0e7a 0C0A0000 		.4byte	0xa0c
 3876 0e7e 00       		.byte	0
 3877 0e7f 05       		.uleb128 0x5
 3878 0e80 04       		.byte	0x4
 3879 0e81 6E0E0000 		.4byte	0xe6e
 3880 0e85 1C       		.uleb128 0x1c
 3881 0e86 01       		.byte	0x1
 3882 0e87 9B0E0000 		.4byte	0xe9b
 3883 0e8b 15       		.uleb128 0x15
 3884 0e8c 3D0A0000 		.4byte	0xa3d
 3885 0e90 15       		.uleb128 0x15
 3886 0e91 010A0000 		.4byte	0xa01
 3887 0e95 15       		.uleb128 0x15
 3888 0e96 270A0000 		.4byte	0xa27
 3889 0e9a 00       		.byte	0
 3890 0e9b 05       		.uleb128 0x5
 3891 0e9c 04       		.byte	0x4
 3892 0e9d 850E0000 		.4byte	0xe85
 3893 0ea1 14       		.uleb128 0x14
ARM GAS  C:\Users\EBANO_~1\AppData\Local\Temp\ccizkeXa.s 			page 79


 3894 0ea2 01       		.byte	0x1
 3895 0ea3 1C0A0000 		.4byte	0xa1c
 3896 0ea7 B10E0000 		.4byte	0xeb1
 3897 0eab 15       		.uleb128 0x15
 3898 0eac 620A0000 		.4byte	0xa62
 3899 0eb0 00       		.byte	0
 3900 0eb1 05       		.uleb128 0x5
 3901 0eb2 04       		.byte	0x4
 3902 0eb3 A10E0000 		.4byte	0xea1
 3903 0eb7 1C       		.uleb128 0x1c
 3904 0eb8 01       		.byte	0x1
 3905 0eb9 C80E0000 		.4byte	0xec8
 3906 0ebd 15       		.uleb128 0x15
 3907 0ebe 270A0000 		.4byte	0xa27
 3908 0ec2 15       		.uleb128 0x15
 3909 0ec3 0C0A0000 		.4byte	0xa0c
 3910 0ec7 00       		.byte	0
 3911 0ec8 05       		.uleb128 0x5
 3912 0ec9 04       		.byte	0x4
 3913 0eca B70E0000 		.4byte	0xeb7
 3914 0ece 14       		.uleb128 0x14
 3915 0ecf 01       		.byte	0x1
 3916 0ed0 0C0A0000 		.4byte	0xa0c
 3917 0ed4 DE0E0000 		.4byte	0xede
 3918 0ed8 15       		.uleb128 0x15
 3919 0ed9 270A0000 		.4byte	0xa27
 3920 0edd 00       		.byte	0
 3921 0ede 05       		.uleb128 0x5
 3922 0edf 04       		.byte	0x4
 3923 0ee0 CE0E0000 		.4byte	0xece
 3924 0ee4 1C       		.uleb128 0x1c
 3925 0ee5 01       		.byte	0x1
 3926 0ee6 FA0E0000 		.4byte	0xefa
 3927 0eea 15       		.uleb128 0x15
 3928 0eeb 270A0000 		.4byte	0xa27
 3929 0eef 15       		.uleb128 0x15
 3930 0ef0 240B0000 		.4byte	0xb24
 3931 0ef4 15       		.uleb128 0x15
 3932 0ef5 0C0A0000 		.4byte	0xa0c
 3933 0ef9 00       		.byte	0
 3934 0efa 05       		.uleb128 0x5
 3935 0efb 04       		.byte	0x4
 3936 0efc E40E0000 		.4byte	0xee4
 3937 0f00 1C       		.uleb128 0x1c
 3938 0f01 01       		.byte	0x1
 3939 0f02 110F0000 		.4byte	0xf11
 3940 0f06 15       		.uleb128 0x15
 3941 0f07 620A0000 		.4byte	0xa62
 3942 0f0b 15       		.uleb128 0x15
 3943 0f0c 0C0A0000 		.4byte	0xa0c
 3944 0f10 00       		.byte	0
 3945 0f11 05       		.uleb128 0x5
 3946 0f12 04       		.byte	0x4
 3947 0f13 000F0000 		.4byte	0xf00
 3948 0f17 1C       		.uleb128 0x1c
 3949 0f18 01       		.byte	0x1
 3950 0f19 280F0000 		.4byte	0xf28
ARM GAS  C:\Users\EBANO_~1\AppData\Local\Temp\ccizkeXa.s 			page 80


 3951 0f1d 15       		.uleb128 0x15
 3952 0f1e 3D0A0000 		.4byte	0xa3d
 3953 0f22 15       		.uleb128 0x15
 3954 0f23 3D0A0000 		.4byte	0xa3d
 3955 0f27 00       		.byte	0
 3956 0f28 05       		.uleb128 0x5
 3957 0f29 04       		.byte	0x4
 3958 0f2a 170F0000 		.4byte	0xf17
 3959 0f2e 1D       		.uleb128 0x1d
 3960 0f2f 00000000 		.4byte	.LASF186
 3961 0f33 09       		.byte	0x9
 3962 0f34 8001     		.2byte	0x180
 3963 0f36 1A0D0000 		.4byte	0xd1a
 3964 0f3a 01       		.byte	0x1
 3965 0f3b 01       		.byte	0x1
 3966 0f3c 24       		.uleb128 0x24
 3967 0f3d 3A000000 		.4byte	.LASF187
 3968 0f41 0A       		.byte	0xa
 3969 0f42 4A       		.byte	0x4a
 3970 0f43 3D0A0000 		.4byte	0xa3d
 3971 0f47 01       		.byte	0x1
 3972 0f48 01       		.byte	0x1
 3973 0f49 0A       		.uleb128 0xa
 3974 0f4a 170A0000 		.4byte	0xa17
 3975 0f4e 590F0000 		.4byte	0xf59
 3976 0f52 0B       		.uleb128 0xb
 3977 0f53 45000000 		.4byte	0x45
 3978 0f57 0F       		.byte	0xf
 3979 0f58 00       		.byte	0
 3980 0f59 0F       		.uleb128 0xf
 3981 0f5a 490F0000 		.4byte	0xf49
 3982 0f5e 24       		.uleb128 0x24
 3983 0f5f E0090000 		.4byte	.LASF188
 3984 0f63 0A       		.byte	0xa
 3985 0f64 4D       		.byte	0x4d
 3986 0f65 590F0000 		.4byte	0xf59
 3987 0f69 01       		.byte	0x1
 3988 0f6a 01       		.byte	0x1
 3989 0f6b 0A       		.uleb128 0xa
 3990 0f6c 170A0000 		.4byte	0xa17
 3991 0f70 7B0F0000 		.4byte	0xf7b
 3992 0f74 0B       		.uleb128 0xb
 3993 0f75 45000000 		.4byte	0x45
 3994 0f79 07       		.byte	0x7
 3995 0f7a 00       		.byte	0
 3996 0f7b 0F       		.uleb128 0xf
 3997 0f7c 6B0F0000 		.4byte	0xf6b
 3998 0f80 24       		.uleb128 0x24
 3999 0f81 77060000 		.4byte	.LASF189
 4000 0f85 0A       		.byte	0xa
 4001 0f86 4E       		.byte	0x4e
 4002 0f87 7B0F0000 		.4byte	0xf7b
 4003 0f8b 01       		.byte	0x1
 4004 0f8c 01       		.byte	0x1
 4005 0f8d 0A       		.uleb128 0xa
 4006 0f8e 170A0000 		.4byte	0xa17
 4007 0f92 9D0F0000 		.4byte	0xf9d
ARM GAS  C:\Users\EBANO_~1\AppData\Local\Temp\ccizkeXa.s 			page 81


 4008 0f96 0B       		.uleb128 0xb
 4009 0f97 45000000 		.4byte	0x45
 4010 0f9b 08       		.byte	0x8
 4011 0f9c 00       		.byte	0
 4012 0f9d 0F       		.uleb128 0xf
 4013 0f9e 8D0F0000 		.4byte	0xf8d
 4014 0fa2 24       		.uleb128 0x24
 4015 0fa3 74090000 		.4byte	.LASF190
 4016 0fa7 0A       		.byte	0xa
 4017 0fa8 4F       		.byte	0x4f
 4018 0fa9 9D0F0000 		.4byte	0xf9d
 4019 0fad 01       		.byte	0x1
 4020 0fae 01       		.byte	0x1
 4021 0faf 24       		.uleb128 0x24
 4022 0fb0 FA050000 		.4byte	.LASF191
 4023 0fb4 0B       		.byte	0xb
 4024 0fb5 63       		.byte	0x63
 4025 0fb6 6B010000 		.4byte	0x16b
 4026 0fba 01       		.byte	0x1
 4027 0fbb 01       		.byte	0x1
 4028 0fbc 04       		.uleb128 0x4
 4029 0fbd B6030000 		.4byte	.LASF192
 4030 0fc1 0C       		.byte	0xc
 4031 0fc2 3D       		.byte	0x3d
 4032 0fc3 3D0A0000 		.4byte	0xa3d
 4033 0fc7 10       		.uleb128 0x10
 4034 0fc8 22110000 		.4byte	.LASF193
 4035 0fcc 04       		.byte	0x4
 4036 0fcd 0C       		.byte	0xc
 4037 0fce 5F       		.byte	0x5f
 4038 0fcf 0C100000 		.4byte	0x100c
 4039 0fd3 11       		.uleb128 0x11
 4040 0fd4 52667500 		.ascii	"Rfu\000"
 4041 0fd8 0C       		.byte	0xc
 4042 0fd9 61       		.byte	0x61
 4043 0fda 0C0A0000 		.4byte	0xa0c
 4044 0fde 02       		.byte	0x2
 4045 0fdf 23       		.byte	0x23
 4046 0fe0 00       		.uleb128 0
 4047 0fe1 0D       		.uleb128 0xd
 4048 0fe2 F10C0000 		.4byte	.LASF194
 4049 0fe6 0C       		.byte	0xc
 4050 0fe7 62       		.byte	0x62
 4051 0fe8 0C0A0000 		.4byte	0xa0c
 4052 0fec 02       		.byte	0x2
 4053 0fed 23       		.byte	0x23
 4054 0fee 01       		.uleb128 0x1
 4055 0fef 0D       		.uleb128 0xd
 4056 0ff0 720C0000 		.4byte	.LASF195
 4057 0ff4 0C       		.byte	0xc
 4058 0ff5 63       		.byte	0x63
 4059 0ff6 0C0A0000 		.4byte	0xa0c
 4060 0ffa 02       		.byte	0x2
 4061 0ffb 23       		.byte	0x23
 4062 0ffc 02       		.uleb128 0x2
 4063 0ffd 0D       		.uleb128 0xd
 4064 0ffe 02090000 		.4byte	.LASF196
ARM GAS  C:\Users\EBANO_~1\AppData\Local\Temp\ccizkeXa.s 			page 82


 4065 1002 0C       		.byte	0xc
 4066 1003 64       		.byte	0x64
 4067 1004 0C0A0000 		.4byte	0xa0c
 4068 1008 02       		.byte	0x2
 4069 1009 23       		.byte	0x23
 4070 100a 03       		.uleb128 0x3
 4071 100b 00       		.byte	0
 4072 100c 25       		.uleb128 0x25
 4073 100d 36110000 		.4byte	.LASF228
 4074 1011 04       		.byte	0x4
 4075 1012 0C       		.byte	0xc
 4076 1013 5D       		.byte	0x5d
 4077 1014 2F100000 		.4byte	0x102f
 4078 1018 09       		.uleb128 0x9
 4079 1019 DF000000 		.4byte	.LASF197
 4080 101d 0C       		.byte	0xc
 4081 101e 65       		.byte	0x65
 4082 101f C70F0000 		.4byte	0xfc7
 4083 1023 09       		.uleb128 0x9
 4084 1024 A5090000 		.4byte	.LASF198
 4085 1028 0C       		.byte	0xc
 4086 1029 66       		.byte	0x66
 4087 102a 3D0A0000 		.4byte	0xa3d
 4088 102e 00       		.byte	0
 4089 102f 04       		.uleb128 0x4
 4090 1030 2C110000 		.4byte	.LASF199
 4091 1034 0C       		.byte	0xc
 4092 1035 67       		.byte	0x67
 4093 1036 0C100000 		.4byte	0x100c
 4094 103a 05       		.uleb128 0x5
 4095 103b 04       		.byte	0x4
 4096 103c 3D0A0000 		.4byte	0xa3d
 4097 1040 1E       		.uleb128 0x1e
 4098 1041 1B0E0000 		.4byte	.LASF201
 4099 1045 07       		.byte	0x7
 4100 1046 01       		.byte	0x1
 4101 1047 70000000 		.4byte	0x70
 4102 104b 0D       		.byte	0xd
 4103 104c 9001     		.2byte	0x190
 4104 104e AD100000 		.4byte	0x10ad
 4105 1052 20       		.uleb128 0x20
 4106 1053 EE090000 		.4byte	.LASF202
 4107 1057 01       		.byte	0x1
 4108 1058 20       		.uleb128 0x20
 4109 1059 E9030000 		.4byte	.LASF203
 4110 105d 02       		.byte	0x2
 4111 105e 20       		.uleb128 0x20
 4112 105f 25000000 		.4byte	.LASF204
 4113 1063 03       		.byte	0x3
 4114 1064 20       		.uleb128 0x20
 4115 1065 EE0B0000 		.4byte	.LASF205
 4116 1069 04       		.byte	0x4
 4117 106a 20       		.uleb128 0x20
 4118 106b C30C0000 		.4byte	.LASF206
 4119 106f 05       		.byte	0x5
 4120 1070 20       		.uleb128 0x20
 4121 1071 9E0D0000 		.4byte	.LASF207
ARM GAS  C:\Users\EBANO_~1\AppData\Local\Temp\ccizkeXa.s 			page 83


 4122 1075 06       		.byte	0x6
 4123 1076 20       		.uleb128 0x20
 4124 1077 B2090000 		.4byte	.LASF208
 4125 107b 07       		.byte	0x7
 4126 107c 20       		.uleb128 0x20
 4127 107d A6100000 		.4byte	.LASF209
 4128 1081 08       		.byte	0x8
 4129 1082 20       		.uleb128 0x20
 4130 1083 D70D0000 		.4byte	.LASF210
 4131 1087 09       		.byte	0x9
 4132 1088 20       		.uleb128 0x20
 4133 1089 28060000 		.4byte	.LASF211
 4134 108d 0A       		.byte	0xa
 4135 108e 20       		.uleb128 0x20
 4136 108f 58060000 		.4byte	.LASF212
 4137 1093 0D       		.byte	0xd
 4138 1094 20       		.uleb128 0x20
 4139 1095 2A0E0000 		.4byte	.LASF213
 4140 1099 10       		.byte	0x10
 4141 109a 20       		.uleb128 0x20
 4142 109b D00B0000 		.4byte	.LASF214
 4143 109f 11       		.byte	0x11
 4144 10a0 20       		.uleb128 0x20
 4145 10a1 670F0000 		.4byte	.LASF215
 4146 10a5 12       		.byte	0x12
 4147 10a6 20       		.uleb128 0x20
 4148 10a7 63020000 		.4byte	.LASF216
 4149 10ab 13       		.byte	0x13
 4150 10ac 00       		.byte	0
 4151 10ad 18       		.uleb128 0x18
 4152 10ae CE0A0000 		.4byte	.LASF217
 4153 10b2 10       		.byte	0x10
 4154 10b3 0D       		.byte	0xd
 4155 10b4 D301     		.2byte	0x1d3
 4156 10b6 06110000 		.4byte	0x1106
 4157 10ba 17       		.uleb128 0x17
 4158 10bb 790A0000 		.4byte	.LASF218
 4159 10bf 0D       		.byte	0xd
 4160 10c0 D801     		.2byte	0x1d8
 4161 10c2 270A0000 		.4byte	0xa27
 4162 10c6 02       		.byte	0x2
 4163 10c7 23       		.byte	0x23
 4164 10c8 00       		.uleb128 0
 4165 10c9 17       		.uleb128 0x17
 4166 10ca E4060000 		.4byte	.LASF219
 4167 10ce 0D       		.byte	0xd
 4168 10cf DC01     		.2byte	0x1dc
 4169 10d1 010A0000 		.4byte	0xa01
 4170 10d5 02       		.byte	0x2
 4171 10d6 23       		.byte	0x23
 4172 10d7 02       		.uleb128 0x2
 4173 10d8 17       		.uleb128 0x17
 4174 10d9 69100000 		.4byte	.LASF220
 4175 10dd 0D       		.byte	0xd
 4176 10de E001     		.2byte	0x1e0
 4177 10e0 BC0F0000 		.4byte	0xfbc
 4178 10e4 02       		.byte	0x2
ARM GAS  C:\Users\EBANO_~1\AppData\Local\Temp\ccizkeXa.s 			page 84


 4179 10e5 23       		.byte	0x23
 4180 10e6 04       		.uleb128 0x4
 4181 10e7 17       		.uleb128 0x17
 4182 10e8 160F0000 		.4byte	.LASF221
 4183 10ec 0D       		.byte	0xd
 4184 10ed E401     		.2byte	0x1e4
 4185 10ef BC0F0000 		.4byte	0xfbc
 4186 10f3 02       		.byte	0x2
 4187 10f4 23       		.byte	0x23
 4188 10f5 08       		.uleb128 0x8
 4189 10f6 17       		.uleb128 0x17
 4190 10f7 95050000 		.4byte	.LASF222
 4191 10fb 0D       		.byte	0xd
 4192 10fc E801     		.2byte	0x1e8
 4193 10fe BC0F0000 		.4byte	0xfbc
 4194 1102 02       		.byte	0x2
 4195 1103 23       		.byte	0x23
 4196 1104 0C       		.uleb128 0xc
 4197 1105 00       		.byte	0
 4198 1106 07       		.uleb128 0x7
 4199 1107 53010000 		.4byte	.LASF223
 4200 110b 0D       		.byte	0xd
 4201 110c E901     		.2byte	0x1e9
 4202 110e AD100000 		.4byte	0x10ad
 4203 1112 24       		.uleb128 0x24
 4204 1113 33080000 		.4byte	.LASF224
 4205 1117 0E       		.byte	0xe
 4206 1118 9A       		.byte	0x9a
 4207 1119 A6000000 		.4byte	0xa6
 4208 111d 01       		.byte	0x1
 4209 111e 01       		.byte	0x1
 4210 111f 24       		.uleb128 0x24
 4211 1120 4F0C0000 		.4byte	.LASF225
 4212 1124 0E       		.byte	0xe
 4213 1125 9B       		.byte	0x9b
 4214 1126 3E000000 		.4byte	0x3e
 4215 112a 01       		.byte	0x1
 4216 112b 01       		.byte	0x1
 4217 112c 0A       		.uleb128 0xa
 4218 112d 6B010000 		.4byte	0x16b
 4219 1131 3C110000 		.4byte	0x113c
 4220 1135 0B       		.uleb128 0xb
 4221 1136 45000000 		.4byte	0x45
 4222 113a 01       		.byte	0x1
 4223 113b 00       		.byte	0
 4224 113c 24       		.uleb128 0x24
 4225 113d A4060000 		.4byte	.LASF226
 4226 1141 0E       		.byte	0xe
 4227 1142 9E       		.byte	0x9e
 4228 1143 2C110000 		.4byte	0x112c
 4229 1147 01       		.byte	0x1
 4230 1148 01       		.byte	0x1
 4231 1149 10       		.uleb128 0x10
 4232 114a 97110000 		.4byte	.LASF227
 4233 114e 01       		.byte	0x1
 4234 114f 0F       		.byte	0xf
 4235 1150 B4       		.byte	0xb4
ARM GAS  C:\Users\EBANO_~1\AppData\Local\Temp\ccizkeXa.s 			page 85


 4236 1151 78110000 		.4byte	0x1178
 4237 1155 26       		.uleb128 0x26
 4238 1156 4D696E00 		.ascii	"Min\000"
 4239 115a 0F       		.byte	0xf
 4240 115b BD       		.byte	0xbd
 4241 115c 010A0000 		.4byte	0xa01
 4242 1160 01       		.byte	0x1
 4243 1161 04       		.byte	0x4
 4244 1162 04       		.byte	0x4
 4245 1163 02       		.byte	0x2
 4246 1164 23       		.byte	0x23
 4247 1165 00       		.uleb128 0
 4248 1166 26       		.uleb128 0x26
 4249 1167 4D617800 		.ascii	"Max\000"
 4250 116b 0F       		.byte	0xf
 4251 116c C5       		.byte	0xc5
 4252 116d 010A0000 		.4byte	0xa01
 4253 1171 01       		.byte	0x1
 4254 1172 04       		.byte	0x4
 4255 1173 00       		.byte	0
 4256 1174 02       		.byte	0x2
 4257 1175 23       		.byte	0x23
 4258 1176 00       		.uleb128 0
 4259 1177 00       		.byte	0
 4260 1178 25       		.uleb128 0x25
 4261 1179 870D0000 		.4byte	.LASF229
 4262 117d 01       		.byte	0x1
 4263 117e 0F       		.byte	0xf
 4264 117f AB       		.byte	0xab
 4265 1180 9B110000 		.4byte	0x119b
 4266 1184 09       		.uleb128 0x9
 4267 1185 A5090000 		.4byte	.LASF198
 4268 1189 0F       		.byte	0xf
 4269 118a B0       		.byte	0xb0
 4270 118b 010A0000 		.4byte	0xa01
 4271 118f 09       		.uleb128 0x9
 4272 1190 DF000000 		.4byte	.LASF197
 4273 1194 0F       		.byte	0xf
 4274 1195 C6       		.byte	0xc6
 4275 1196 49110000 		.4byte	0x1149
 4276 119a 00       		.byte	0
 4277 119b 04       		.uleb128 0x4
 4278 119c 7C0E0000 		.4byte	.LASF230
 4279 11a0 0F       		.byte	0xf
 4280 11a1 C7       		.byte	0xc7
 4281 11a2 78110000 		.4byte	0x1178
 4282 11a6 10       		.uleb128 0x10
 4283 11a7 CB0E0000 		.4byte	.LASF231
 4284 11ab 0C       		.byte	0xc
 4285 11ac 0F       		.byte	0xf
 4286 11ad CC       		.byte	0xcc
 4287 11ae EB110000 		.4byte	0x11eb
 4288 11b2 0D       		.uleb128 0xd
 4289 11b3 8A060000 		.4byte	.LASF232
 4290 11b7 0F       		.byte	0xf
 4291 11b8 D1       		.byte	0xd1
 4292 11b9 3D0A0000 		.4byte	0xa3d
ARM GAS  C:\Users\EBANO_~1\AppData\Local\Temp\ccizkeXa.s 			page 86


 4293 11bd 02       		.byte	0x2
 4294 11be 23       		.byte	0x23
 4295 11bf 00       		.uleb128 0
 4296 11c0 0D       		.uleb128 0xd
 4297 11c1 A00C0000 		.4byte	.LASF233
 4298 11c5 0F       		.byte	0xf
 4299 11c6 D5       		.byte	0xd5
 4300 11c7 3D0A0000 		.4byte	0xa3d
 4301 11cb 02       		.byte	0x2
 4302 11cc 23       		.byte	0x23
 4303 11cd 04       		.uleb128 0x4
 4304 11ce 0D       		.uleb128 0xd
 4305 11cf 39050000 		.4byte	.LASF234
 4306 11d3 0F       		.byte	0xf
 4307 11d4 D9       		.byte	0xd9
 4308 11d5 9B110000 		.4byte	0x119b
 4309 11d9 02       		.byte	0x2
 4310 11da 23       		.byte	0x23
 4311 11db 08       		.uleb128 0x8
 4312 11dc 0D       		.uleb128 0xd
 4313 11dd 60070000 		.4byte	.LASF235
 4314 11e1 0F       		.byte	0xf
 4315 11e2 DD       		.byte	0xdd
 4316 11e3 0C0A0000 		.4byte	0xa0c
 4317 11e7 02       		.byte	0x2
 4318 11e8 23       		.byte	0x23
 4319 11e9 09       		.uleb128 0x9
 4320 11ea 00       		.byte	0
 4321 11eb 04       		.uleb128 0x4
 4322 11ec 1A0C0000 		.4byte	.LASF236
 4323 11f0 0F       		.byte	0xf
 4324 11f1 DE       		.byte	0xde
 4325 11f2 A6110000 		.4byte	0x11a6
 4326 11f6 05       		.uleb128 0x5
 4327 11f7 04       		.byte	0x4
 4328 11f8 EB110000 		.4byte	0x11eb
 4329 11fc 05       		.uleb128 0x5
 4330 11fd 04       		.byte	0x4
 4331 11fe 270A0000 		.4byte	0xa27
 4332 1202 27       		.uleb128 0x27
 4333 1203 60050000 		.4byte	.LASF276
 4334 1207 0F       		.byte	0xf
 4335 1208 2509     		.2byte	0x925
 4336 120a 590F0000 		.4byte	0xf59
 4337 120e 10       		.byte	0x10
 4338 120f 08       		.byte	0x8
 4339 1210 0A       		.byte	0xa
 4340 1211 0C       		.byte	0xc
 4341 1212 0D       		.byte	0xd
 4342 1213 0E       		.byte	0xe
 4343 1214 10       		.byte	0x10
 4344 1215 12       		.byte	0x12
 4345 1216 14       		.byte	0x14
 4346 1217 15       		.byte	0x15
 4347 1218 18       		.byte	0x18
 4348 1219 1A       		.byte	0x1a
 4349 121a 1B       		.byte	0x1b
ARM GAS  C:\Users\EBANO_~1\AppData\Local\Temp\ccizkeXa.s 			page 87


 4350 121b 1D       		.byte	0x1d
 4351 121c 1E       		.byte	0x1e
 4352 121d 21       		.byte	0x21
 4353 121e 24       		.byte	0x24
 4354 121f 10       		.uleb128 0x10
 4355 1220 1E0A0000 		.4byte	.LASF237
 4356 1224 06       		.byte	0x6
 4357 1225 10       		.byte	0x10
 4358 1226 2B       		.byte	0x2b
 4359 1227 72120000 		.4byte	0x1272
 4360 122b 0D       		.uleb128 0xd
 4361 122c D5090000 		.4byte	.LASF238
 4362 1230 10       		.byte	0x10
 4363 1231 30       		.byte	0x30
 4364 1232 0C0A0000 		.4byte	0xa0c
 4365 1236 02       		.byte	0x2
 4366 1237 23       		.byte	0x23
 4367 1238 00       		.uleb128 0
 4368 1239 0D       		.uleb128 0xd
 4369 123a DB0A0000 		.4byte	.LASF239
 4370 123e 10       		.byte	0x10
 4371 123f 34       		.byte	0x34
 4372 1240 010A0000 		.4byte	0xa01
 4373 1244 02       		.byte	0x2
 4374 1245 23       		.byte	0x23
 4375 1246 01       		.uleb128 0x1
 4376 1247 0D       		.uleb128 0xd
 4377 1248 E6000000 		.4byte	.LASF240
 4378 124c 10       		.byte	0x10
 4379 124d 38       		.byte	0x38
 4380 124e 010A0000 		.4byte	0xa01
 4381 1252 02       		.byte	0x2
 4382 1253 23       		.byte	0x23
 4383 1254 02       		.uleb128 0x2
 4384 1255 0D       		.uleb128 0xd
 4385 1256 9C0A0000 		.4byte	.LASF241
 4386 125a 10       		.byte	0x10
 4387 125b 3C       		.byte	0x3c
 4388 125c 0C0A0000 		.4byte	0xa0c
 4389 1260 02       		.byte	0x2
 4390 1261 23       		.byte	0x23
 4391 1262 03       		.uleb128 0x3
 4392 1263 0D       		.uleb128 0xd
 4393 1264 70060000 		.4byte	.LASF242
 4394 1268 10       		.byte	0x10
 4395 1269 40       		.byte	0x40
 4396 126a 270A0000 		.4byte	0xa27
 4397 126e 02       		.byte	0x2
 4398 126f 23       		.byte	0x23
 4399 1270 04       		.uleb128 0x4
 4400 1271 00       		.byte	0
 4401 1272 04       		.uleb128 0x4
 4402 1273 A8010000 		.4byte	.LASF243
 4403 1277 10       		.byte	0x10
 4404 1278 41       		.byte	0x41
 4405 1279 1F120000 		.4byte	0x121f
 4406 127d 10       		.uleb128 0x10
ARM GAS  C:\Users\EBANO_~1\AppData\Local\Temp\ccizkeXa.s 			page 88


 4407 127e E50E0000 		.4byte	.LASF244
 4408 1282 20       		.byte	0x20
 4409 1283 10       		.byte	0x10
 4410 1284 43       		.byte	0x43
 4411 1285 6A130000 		.4byte	0x136a
 4412 1289 0D       		.uleb128 0xd
 4413 128a 19040000 		.4byte	.LASF245
 4414 128e 10       		.byte	0x10
 4415 128f 48       		.byte	0x48
 4416 1290 2F100000 		.4byte	0x102f
 4417 1294 02       		.byte	0x2
 4418 1295 23       		.byte	0x23
 4419 1296 00       		.uleb128 0
 4420 1297 0D       		.uleb128 0xd
 4421 1298 7A000000 		.4byte	.LASF246
 4422 129c 10       		.byte	0x10
 4423 129d 4C       		.byte	0x4c
 4424 129e 0C0A0000 		.4byte	0xa0c
 4425 12a2 02       		.byte	0x2
 4426 12a3 23       		.byte	0x23
 4427 12a4 04       		.uleb128 0x4
 4428 12a5 0D       		.uleb128 0xd
 4429 12a6 1B020000 		.4byte	.LASF247
 4430 12aa 10       		.byte	0x10
 4431 12ab 50       		.byte	0x50
 4432 12ac 4E0B0000 		.4byte	0xb4e
 4433 12b0 02       		.byte	0x2
 4434 12b1 23       		.byte	0x23
 4435 12b2 05       		.uleb128 0x5
 4436 12b3 0D       		.uleb128 0xd
 4437 12b4 DB0A0000 		.4byte	.LASF239
 4438 12b8 10       		.byte	0x10
 4439 12b9 54       		.byte	0x54
 4440 12ba 010A0000 		.4byte	0xa01
 4441 12be 02       		.byte	0x2
 4442 12bf 23       		.byte	0x23
 4443 12c0 06       		.uleb128 0x6
 4444 12c1 0D       		.uleb128 0xd
 4445 12c2 E6000000 		.4byte	.LASF240
 4446 12c6 10       		.byte	0x10
 4447 12c7 58       		.byte	0x58
 4448 12c8 010A0000 		.4byte	0xa01
 4449 12cc 02       		.byte	0x2
 4450 12cd 23       		.byte	0x23
 4451 12ce 07       		.uleb128 0x7
 4452 12cf 0D       		.uleb128 0xd
 4453 12d0 D5090000 		.4byte	.LASF238
 4454 12d4 10       		.byte	0x10
 4455 12d5 5C       		.byte	0x5c
 4456 12d6 0C0A0000 		.4byte	0xa0c
 4457 12da 02       		.byte	0x2
 4458 12db 23       		.byte	0x23
 4459 12dc 08       		.uleb128 0x8
 4460 12dd 0D       		.uleb128 0xd
 4461 12de 21040000 		.4byte	.LASF248
 4462 12e2 10       		.byte	0x10
 4463 12e3 60       		.byte	0x60
ARM GAS  C:\Users\EBANO_~1\AppData\Local\Temp\ccizkeXa.s 			page 89


 4464 12e4 010A0000 		.4byte	0xa01
 4465 12e8 02       		.byte	0x2
 4466 12e9 23       		.byte	0x23
 4467 12ea 09       		.uleb128 0x9
 4468 12eb 0D       		.uleb128 0xd
 4469 12ec 19060000 		.4byte	.LASF249
 4470 12f0 10       		.byte	0x10
 4471 12f1 64       		.byte	0x64
 4472 12f2 010A0000 		.4byte	0xa01
 4473 12f6 02       		.byte	0x2
 4474 12f7 23       		.byte	0x23
 4475 12f8 0A       		.uleb128 0xa
 4476 12f9 0D       		.uleb128 0xd
 4477 12fa 9F0E0000 		.4byte	.LASF250
 4478 12fe 10       		.byte	0x10
 4479 12ff 68       		.byte	0x68
 4480 1300 010A0000 		.4byte	0xa01
 4481 1304 02       		.byte	0x2
 4482 1305 23       		.byte	0x23
 4483 1306 0B       		.uleb128 0xb
 4484 1307 0D       		.uleb128 0xd
 4485 1308 94060000 		.4byte	.LASF251
 4486 130c 10       		.byte	0x10
 4487 130d 6C       		.byte	0x6c
 4488 130e 0C0A0000 		.4byte	0xa0c
 4489 1312 02       		.byte	0x2
 4490 1313 23       		.byte	0x23
 4491 1314 0C       		.uleb128 0xc
 4492 1315 0D       		.uleb128 0xd
 4493 1316 E6050000 		.4byte	.LASF252
 4494 131a 10       		.byte	0x10
 4495 131b 70       		.byte	0x70
 4496 131c FC110000 		.4byte	0x11fc
 4497 1320 02       		.byte	0x2
 4498 1321 23       		.byte	0x23
 4499 1322 10       		.uleb128 0x10
 4500 1323 0D       		.uleb128 0xd
 4501 1324 6A010000 		.4byte	.LASF253
 4502 1328 10       		.byte	0x10
 4503 1329 74       		.byte	0x74
 4504 132a 010A0000 		.4byte	0xa01
 4505 132e 02       		.byte	0x2
 4506 132f 23       		.byte	0x23
 4507 1330 14       		.uleb128 0x14
 4508 1331 0D       		.uleb128 0xd
 4509 1332 34020000 		.4byte	.LASF254
 4510 1336 10       		.byte	0x10
 4511 1337 78       		.byte	0x78
 4512 1338 010A0000 		.4byte	0xa01
 4513 133c 02       		.byte	0x2
 4514 133d 23       		.byte	0x23
 4515 133e 15       		.uleb128 0x15
 4516 133f 0D       		.uleb128 0xd
 4517 1340 C2100000 		.4byte	.LASF255
 4518 1344 10       		.byte	0x10
 4519 1345 7C       		.byte	0x7c
 4520 1346 F6110000 		.4byte	0x11f6
ARM GAS  C:\Users\EBANO_~1\AppData\Local\Temp\ccizkeXa.s 			page 90


 4521 134a 02       		.byte	0x2
 4522 134b 23       		.byte	0x23
 4523 134c 18       		.uleb128 0x18
 4524 134d 0D       		.uleb128 0xd
 4525 134e 31040000 		.4byte	.LASF256
 4526 1352 10       		.byte	0x10
 4527 1353 80       		.byte	0x80
 4528 1354 010A0000 		.4byte	0xa01
 4529 1358 02       		.byte	0x2
 4530 1359 23       		.byte	0x23
 4531 135a 1C       		.uleb128 0x1c
 4532 135b 0D       		.uleb128 0xd
 4533 135c 52080000 		.4byte	.LASF257
 4534 1360 10       		.byte	0x10
 4535 1361 84       		.byte	0x84
 4536 1362 010A0000 		.4byte	0xa01
 4537 1366 02       		.byte	0x2
 4538 1367 23       		.byte	0x23
 4539 1368 1D       		.uleb128 0x1d
 4540 1369 00       		.byte	0
 4541 136a 04       		.uleb128 0x4
 4542 136b 9A080000 		.4byte	.LASF258
 4543 136f 10       		.byte	0x10
 4544 1370 85       		.byte	0x85
 4545 1371 7D120000 		.4byte	0x127d
 4546 1375 10       		.uleb128 0x10
 4547 1376 AC0E0000 		.4byte	.LASF259
 4548 137a 14       		.byte	0x14
 4549 137b 10       		.byte	0x10
 4550 137c 87       		.byte	0x87
 4551 137d F2130000 		.4byte	0x13f2
 4552 1381 0D       		.uleb128 0xd
 4553 1382 C2100000 		.4byte	.LASF255
 4554 1386 10       		.byte	0x10
 4555 1387 8C       		.byte	0x8c
 4556 1388 F6110000 		.4byte	0x11f6
 4557 138c 02       		.byte	0x2
 4558 138d 23       		.byte	0x23
 4559 138e 00       		.uleb128 0
 4560 138f 0D       		.uleb128 0xd
 4561 1390 C2030000 		.4byte	.LASF260
 4562 1394 10       		.byte	0x10
 4563 1395 90       		.byte	0x90
 4564 1396 F2130000 		.4byte	0x13f2
 4565 139a 02       		.byte	0x2
 4566 139b 23       		.byte	0x23
 4567 139c 04       		.uleb128 0x4
 4568 139d 0D       		.uleb128 0xd
 4569 139e 25050000 		.4byte	.LASF261
 4570 13a2 10       		.byte	0x10
 4571 13a3 94       		.byte	0x94
 4572 13a4 4E0B0000 		.4byte	0xb4e
 4573 13a8 02       		.byte	0x2
 4574 13a9 23       		.byte	0x23
 4575 13aa 08       		.uleb128 0x8
 4576 13ab 0D       		.uleb128 0xd
 4577 13ac AB090000 		.4byte	.LASF262
ARM GAS  C:\Users\EBANO_~1\AppData\Local\Temp\ccizkeXa.s 			page 91


 4578 13b0 10       		.byte	0x10
 4579 13b1 98       		.byte	0x98
 4580 13b2 4E0B0000 		.4byte	0xb4e
 4581 13b6 02       		.byte	0x2
 4582 13b7 23       		.byte	0x23
 4583 13b8 09       		.uleb128 0x9
 4584 13b9 0D       		.uleb128 0xd
 4585 13ba EF100000 		.4byte	.LASF263
 4586 13be 10       		.byte	0x10
 4587 13bf 9C       		.byte	0x9c
 4588 13c0 4E0B0000 		.4byte	0xb4e
 4589 13c4 02       		.byte	0x2
 4590 13c5 23       		.byte	0x23
 4591 13c6 0A       		.uleb128 0xa
 4592 13c7 0D       		.uleb128 0xd
 4593 13c8 C60D0000 		.4byte	.LASF264
 4594 13cc 10       		.byte	0x10
 4595 13cd A0       		.byte	0xa0
 4596 13ce 0C0A0000 		.4byte	0xa0c
 4597 13d2 02       		.byte	0x2
 4598 13d3 23       		.byte	0x23
 4599 13d4 0B       		.uleb128 0xb
 4600 13d5 0D       		.uleb128 0xd
 4601 13d6 550E0000 		.4byte	.LASF265
 4602 13da 10       		.byte	0x10
 4603 13db A4       		.byte	0xa4
 4604 13dc BC0F0000 		.4byte	0xfbc
 4605 13e0 02       		.byte	0x2
 4606 13e1 23       		.byte	0x23
 4607 13e2 0C       		.uleb128 0xc
 4608 13e3 0D       		.uleb128 0xd
 4609 13e4 010A0000 		.4byte	.LASF266
 4610 13e8 10       		.byte	0x10
 4611 13e9 A8       		.byte	0xa8
 4612 13ea BC0F0000 		.4byte	0xfbc
 4613 13ee 02       		.byte	0x2
 4614 13ef 23       		.byte	0x23
 4615 13f0 10       		.uleb128 0x10
 4616 13f1 00       		.byte	0
 4617 13f2 05       		.uleb128 0x5
 4618 13f3 04       		.byte	0x4
 4619 13f4 06110000 		.4byte	0x1106
 4620 13f8 04       		.uleb128 0x4
 4621 13f9 B1000000 		.4byte	.LASF267
 4622 13fd 10       		.byte	0x10
 4623 13fe A9       		.byte	0xa9
 4624 13ff 75130000 		.4byte	0x1375
 4625 1403 10       		.uleb128 0x10
 4626 1404 95030000 		.4byte	.LASF268
 4627 1408 14       		.byte	0x14
 4628 1409 10       		.byte	0x10
 4629 140a AB       		.byte	0xab
 4630 140b 72140000 		.4byte	0x1472
 4631 140f 0D       		.uleb128 0xd
 4632 1410 C4010000 		.4byte	.LASF269
 4633 1414 10       		.byte	0x10
 4634 1415 B0       		.byte	0xb0
ARM GAS  C:\Users\EBANO_~1\AppData\Local\Temp\ccizkeXa.s 			page 92


 4635 1416 72140000 		.4byte	0x1472
 4636 141a 02       		.byte	0x2
 4637 141b 23       		.byte	0x23
 4638 141c 00       		.uleb128 0
 4639 141d 0D       		.uleb128 0xd
 4640 141e 8A060000 		.4byte	.LASF232
 4641 1422 10       		.byte	0x10
 4642 1423 B4       		.byte	0xb4
 4643 1424 3D0A0000 		.4byte	0xa3d
 4644 1428 02       		.byte	0x2
 4645 1429 23       		.byte	0x23
 4646 142a 04       		.uleb128 0x4
 4647 142b 0D       		.uleb128 0xd
 4648 142c DA0E0000 		.4byte	.LASF270
 4649 1430 10       		.byte	0x10
 4650 1431 B8       		.byte	0xb8
 4651 1432 0C0A0000 		.4byte	0xa0c
 4652 1436 02       		.byte	0x2
 4653 1437 23       		.byte	0x23
 4654 1438 08       		.uleb128 0x8
 4655 1439 0D       		.uleb128 0xd
 4656 143a 2C100000 		.4byte	.LASF271
 4657 143e 10       		.byte	0x10
 4658 143f BC       		.byte	0xbc
 4659 1440 0C0A0000 		.4byte	0xa0c
 4660 1444 02       		.byte	0x2
 4661 1445 23       		.byte	0x23
 4662 1446 09       		.uleb128 0x9
 4663 1447 0D       		.uleb128 0xd
 4664 1448 450E0000 		.4byte	.LASF272
 4665 144c 10       		.byte	0x10
 4666 144d C0       		.byte	0xc0
 4667 144e 0C0A0000 		.4byte	0xa0c
 4668 1452 02       		.byte	0x2
 4669 1453 23       		.byte	0x23
 4670 1454 0A       		.uleb128 0xa
 4671 1455 0D       		.uleb128 0xd
 4672 1456 ED0A0000 		.4byte	.LASF273
 4673 145a 10       		.byte	0x10
 4674 145b C4       		.byte	0xc4
 4675 145c 3D0A0000 		.4byte	0xa3d
 4676 1460 02       		.byte	0x2
 4677 1461 23       		.byte	0x23
 4678 1462 0C       		.uleb128 0xc
 4679 1463 0D       		.uleb128 0xd
 4680 1464 0D0E0000 		.4byte	.LASF274
 4681 1468 10       		.byte	0x10
 4682 1469 C8       		.byte	0xc8
 4683 146a 270A0000 		.4byte	0xa27
 4684 146e 02       		.byte	0x2
 4685 146f 23       		.byte	0x23
 4686 1470 10       		.uleb128 0x10
 4687 1471 00       		.byte	0
 4688 1472 05       		.uleb128 0x5
 4689 1473 04       		.byte	0x4
 4690 1474 170A0000 		.4byte	0xa17
 4691 1478 04       		.uleb128 0x4
ARM GAS  C:\Users\EBANO_~1\AppData\Local\Temp\ccizkeXa.s 			page 93


 4692 1479 00110000 		.4byte	.LASF275
 4693 147d 10       		.byte	0x10
 4694 147e C9       		.byte	0xc9
 4695 147f 03140000 		.4byte	0x1403
 4696 1483 28       		.uleb128 0x28
 4697 1484 01       		.byte	0x1
 4698 1485 7D110000 		.4byte	.LASF279
 4699 1489 01       		.byte	0x1
 4700 148a 6601     		.2byte	0x166
 4701 148c 01       		.byte	0x1
 4702 148d 00000000 		.4byte	.LFB55
 4703 1491 5C000000 		.4byte	.LFE55
 4704 1495 00000000 		.4byte	.LLST92
 4705 1499 01       		.byte	0x1
 4706 149a 3F150000 		.4byte	0x153f
 4707 149e 29       		.uleb128 0x29
 4708 149f B20B0000 		.4byte	.LASF281
 4709 14a3 01       		.byte	0x1
 4710 14a4 6601     		.2byte	0x166
 4711 14a6 3F150000 		.4byte	0x153f
 4712 14aa 2C000000 		.4byte	.LLST93
 4713 14ae 2A       		.uleb128 0x2a
 4714 14af 18050000 		.4byte	.LASF277
 4715 14b3 01       		.byte	0x1
 4716 14b4 6801     		.2byte	0x168
 4717 14b6 4E0B0000 		.4byte	0xb4e
 4718 14ba 58000000 		.4byte	.LLST94
 4719 14be 2A       		.uleb128 0x2a
 4720 14bf 8C030000 		.4byte	.LASF278
 4721 14c3 01       		.byte	0x1
 4722 14c4 6901     		.2byte	0x169
 4723 14c6 0C0A0000 		.4byte	0xa0c
 4724 14ca 7C000000 		.4byte	.LLST95
 4725 14ce 2B       		.uleb128 0x2b
 4726 14cf 0C000000 		.4byte	.LVL214
 4727 14d3 03       		.byte	0x3
 4728 14d4 75       		.byte	0x75
 4729 14d5 34       		.sleb128 52
 4730 14d6 06       		.byte	0x6
 4731 14d7 2B       		.uleb128 0x2b
 4732 14d8 12000000 		.4byte	.LVL215
 4733 14dc 03       		.byte	0x3
 4734 14dd 75       		.byte	0x75
 4735 14de 14       		.sleb128 20
 4736 14df 06       		.byte	0x6
 4737 14e0 2C       		.uleb128 0x2c
 4738 14e1 1A000000 		.4byte	.LVL216
 4739 14e5 04       		.byte	0x4
 4740 14e6 75       		.byte	0x75
 4741 14e7 DC00     		.sleb128 92
 4742 14e9 06       		.byte	0x6
 4743 14ea F4140000 		.4byte	0x14f4
 4744 14ee 2D       		.uleb128 0x2d
 4745 14ef 01       		.byte	0x1
 4746 14f0 50       		.byte	0x50
 4747 14f1 01       		.byte	0x1
 4748 14f2 31       		.byte	0x31
ARM GAS  C:\Users\EBANO_~1\AppData\Local\Temp\ccizkeXa.s 			page 94


 4749 14f3 00       		.byte	0
 4750 14f4 2C       		.uleb128 0x2c
 4751 14f5 4E000000 		.4byte	.LVL218
 4752 14f9 02       		.byte	0x2
 4753 14fa 76       		.byte	0x76
 4754 14fb 00       		.sleb128 0
 4755 14fc 35150000 		.4byte	0x1535
 4756 1500 2D       		.uleb128 0x2d
 4757 1501 01       		.byte	0x1
 4758 1502 50       		.byte	0x50
 4759 1503 01       		.byte	0x1
 4760 1504 31       		.byte	0x31
 4761 1505 2D       		.uleb128 0x2d
 4762 1506 01       		.byte	0x1
 4763 1507 53       		.byte	0x53
 4764 1508 01       		.byte	0x1
 4765 1509 31       		.byte	0x31
 4766 150a 2D       		.uleb128 0x2d
 4767 150b 02       		.byte	0x2
 4768 150c 7D       		.byte	0x7d
 4769 150d 00       		.sleb128 0
 4770 150e 01       		.byte	0x1
 4771 150f 30       		.byte	0x30
 4772 1510 2D       		.uleb128 0x2d
 4773 1511 02       		.byte	0x2
 4774 1512 7D       		.byte	0x7d
 4775 1513 04       		.sleb128 4
 4776 1514 01       		.byte	0x1
 4777 1515 3A       		.byte	0x3a
 4778 1516 2D       		.uleb128 0x2d
 4779 1517 02       		.byte	0x2
 4780 1518 7D       		.byte	0x7d
 4781 1519 0C       		.sleb128 12
 4782 151a 01       		.byte	0x1
 4783 151b 31       		.byte	0x31
 4784 151c 2D       		.uleb128 0x2d
 4785 151d 02       		.byte	0x2
 4786 151e 7D       		.byte	0x7d
 4787 151f 14       		.sleb128 20
 4788 1520 01       		.byte	0x1
 4789 1521 30       		.byte	0x30
 4790 1522 2D       		.uleb128 0x2d
 4791 1523 02       		.byte	0x2
 4792 1524 7D       		.byte	0x7d
 4793 1525 18       		.sleb128 24
 4794 1526 01       		.byte	0x1
 4795 1527 30       		.byte	0x30
 4796 1528 2D       		.uleb128 0x2d
 4797 1529 02       		.byte	0x2
 4798 152a 7D       		.byte	0x7d
 4799 152b 1C       		.sleb128 28
 4800 152c 01       		.byte	0x1
 4801 152d 30       		.byte	0x30
 4802 152e 2D       		.uleb128 0x2d
 4803 152f 02       		.byte	0x2
 4804 1530 7D       		.byte	0x7d
 4805 1531 20       		.sleb128 32
ARM GAS  C:\Users\EBANO_~1\AppData\Local\Temp\ccizkeXa.s 			page 95


 4806 1532 01       		.byte	0x1
 4807 1533 30       		.byte	0x30
 4808 1534 00       		.byte	0
 4809 1535 2B       		.uleb128 0x2b
 4810 1536 54000000 		.4byte	.LVL219
 4811 153a 03       		.byte	0x3
 4812 153b 75       		.byte	0x75
 4813 153c 3C       		.sleb128 60
 4814 153d 06       		.byte	0x6
 4815 153e 00       		.byte	0
 4816 153f 05       		.uleb128 0x5
 4817 1540 04       		.byte	0x4
 4818 1541 78140000 		.4byte	0x1478
 4819 1545 28       		.uleb128 0x28
 4820 1546 01       		.byte	0x1
 4821 1547 D0070000 		.4byte	.LASF280
 4822 154b 01       		.byte	0x1
 4823 154c 3A01     		.2byte	0x13a
 4824 154e 01       		.byte	0x1
 4825 154f 00000000 		.4byte	.LFB54
 4826 1553 90000000 		.4byte	.LFE54
 4827 1557 99000000 		.4byte	.LLST87
 4828 155b 01       		.byte	0x1
 4829 155c C4150000 		.4byte	0x15c4
 4830 1560 2E       		.uleb128 0x2e
 4831 1561 EE000000 		.4byte	.LASF282
 4832 1565 01       		.byte	0x1
 4833 1566 3A01     		.2byte	0x13a
 4834 1568 C4150000 		.4byte	0x15c4
 4835 156c 01       		.byte	0x1
 4836 156d 50       		.byte	0x50
 4837 156e 2A       		.uleb128 0x2a
 4838 156f 7F0D0000 		.4byte	.LASF283
 4839 1573 01       		.byte	0x1
 4840 1574 3C01     		.2byte	0x13c
 4841 1576 0C0A0000 		.4byte	0xa0c
 4842 157a B9000000 		.4byte	.LLST88
 4843 157e 2A       		.uleb128 0x2a
 4844 157f 0D100000 		.4byte	.LASF284
 4845 1583 01       		.byte	0x1
 4846 1584 3D01     		.2byte	0x13d
 4847 1586 270A0000 		.4byte	0xa27
 4848 158a 07010000 		.4byte	.LLST89
 4849 158e 2A       		.uleb128 0x2a
 4850 158f A1020000 		.4byte	.LASF285
 4851 1593 01       		.byte	0x1
 4852 1594 3E01     		.2byte	0x13e
 4853 1596 270A0000 		.4byte	0xa27
 4854 159a 89010000 		.4byte	.LLST90
 4855 159e 2F       		.uleb128 0x2f
 4856 159f 691C0000 		.4byte	0x1c69
 4857 15a3 2A000000 		.4byte	.LBB110
 4858 15a7 80010000 		.4byte	.Ldebug_ranges0+0x180
 4859 15ab 01       		.byte	0x1
 4860 15ac 4601     		.2byte	0x146
 4861 15ae 30       		.uleb128 0x30
 4862 15af 7B1C0000 		.4byte	0x1c7b
ARM GAS  C:\Users\EBANO_~1\AppData\Local\Temp\ccizkeXa.s 			page 96


 4863 15b3 A9010000 		.4byte	.LLST91
 4864 15b7 31       		.uleb128 0x31
 4865 15b8 80010000 		.4byte	.Ldebug_ranges0+0x180
 4866 15bc 32       		.uleb128 0x32
 4867 15bd EE1C0000 		.4byte	0x1cee
 4868 15c1 00       		.byte	0
 4869 15c2 00       		.byte	0
 4870 15c3 00       		.byte	0
 4871 15c4 05       		.uleb128 0x5
 4872 15c5 04       		.byte	0x4
 4873 15c6 F8130000 		.4byte	0x13f8
 4874 15ca 33       		.uleb128 0x33
 4875 15cb 01       		.byte	0x1
 4876 15cc C1020000 		.4byte	.LASF297
 4877 15d0 01       		.byte	0x1
 4878 15d1 3101     		.2byte	0x131
 4879 15d3 01       		.byte	0x1
 4880 15d4 010A0000 		.4byte	0xa01
 4881 15d8 00000000 		.4byte	.LFB53
 4882 15dc 2A000000 		.4byte	.LFE53
 4883 15e0 D3010000 		.4byte	.LLST82
 4884 15e4 01       		.byte	0x1
 4885 15e5 33160000 		.4byte	0x1633
 4886 15e9 29       		.uleb128 0x29
 4887 15ea 17100000 		.4byte	.LASF286
 4888 15ee 01       		.byte	0x1
 4889 15ef 3101     		.2byte	0x131
 4890 15f1 010A0000 		.4byte	0xa01
 4891 15f5 F3010000 		.4byte	.LLST83
 4892 15f9 29       		.uleb128 0x29
 4893 15fa E1030000 		.4byte	.LASF287
 4894 15fe 01       		.byte	0x1
 4895 15ff 3101     		.2byte	0x131
 4896 1601 30000000 		.4byte	0x30
 4897 1605 14020000 		.4byte	.LLST84
 4898 1609 29       		.uleb128 0x29
 4899 160a F40A0000 		.4byte	.LASF288
 4900 160e 01       		.byte	0x1
 4901 160f 3101     		.2byte	0x131
 4902 1611 30000000 		.4byte	0x30
 4903 1615 42020000 		.4byte	.LLST85
 4904 1619 2A       		.uleb128 0x2a
 4905 161a 820C0000 		.4byte	.LASF289
 4906 161e 01       		.byte	0x1
 4907 161f 3301     		.2byte	0x133
 4908 1621 010A0000 		.4byte	0xa01
 4909 1625 70020000 		.4byte	.LLST86
 4910 1629 34       		.uleb128 0x34
 4911 162a 22000000 		.4byte	.LVL194
 4912 162e 231E0000 		.4byte	0x1e23
 4913 1632 00       		.byte	0
 4914 1633 35       		.uleb128 0x35
 4915 1634 01       		.byte	0x1
 4916 1635 0E090000 		.4byte	.LASF290
 4917 1639 01       		.byte	0x1
 4918 163a 2B01     		.2byte	0x12b
 4919 163c 01       		.byte	0x1
ARM GAS  C:\Users\EBANO_~1\AppData\Local\Temp\ccizkeXa.s 			page 97


 4920 163d 00000000 		.4byte	.LFB52
 4921 1641 BC000000 		.4byte	.LFE52
 4922 1645 96020000 		.4byte	.LLST78
 4923 1649 01       		.byte	0x1
 4924 164a BE160000 		.4byte	0x16be
 4925 164e 29       		.uleb128 0x29
 4926 164f DC060000 		.4byte	.LASF291
 4927 1653 01       		.byte	0x1
 4928 1654 2B01     		.2byte	0x12b
 4929 1656 29000000 		.4byte	0x29
 4930 165a C2020000 		.4byte	.LLST79
 4931 165e 29       		.uleb128 0x29
 4932 165f A50B0000 		.4byte	.LASF292
 4933 1663 01       		.byte	0x1
 4934 1664 2B01     		.2byte	0x12b
 4935 1666 0C0A0000 		.4byte	0xa0c
 4936 166a EA020000 		.4byte	.LLST80
 4937 166e 29       		.uleb128 0x29
 4938 166f 0F000000 		.4byte	.LASF293
 4939 1673 01       		.byte	0x1
 4940 1674 2B01     		.2byte	0x12b
 4941 1676 3D0A0000 		.4byte	0xa3d
 4942 167a 0B030000 		.4byte	.LLST81
 4943 167e 2E       		.uleb128 0x2e
 4944 167f 00030000 		.4byte	.LASF294
 4945 1683 01       		.byte	0x1
 4946 1684 2B01     		.2byte	0x12b
 4947 1686 3D0A0000 		.4byte	0xa3d
 4948 168a 02       		.byte	0x2
 4949 168b 91       		.byte	0x91
 4950 168c 00       		.sleb128 0
 4951 168d 2E       		.uleb128 0x2e
 4952 168e 83020000 		.4byte	.LASF295
 4953 1692 01       		.byte	0x1
 4954 1693 2B01     		.2byte	0x12b
 4955 1695 3A100000 		.4byte	0x103a
 4956 1699 02       		.byte	0x2
 4957 169a 91       		.byte	0x91
 4958 169b 04       		.sleb128 4
 4959 169c 2E       		.uleb128 0x2e
 4960 169d 2A0C0000 		.4byte	.LASF296
 4961 16a1 01       		.byte	0x1
 4962 16a2 2B01     		.2byte	0x12b
 4963 16a4 BE160000 		.4byte	0x16be
 4964 16a8 02       		.byte	0x2
 4965 16a9 91       		.byte	0x91
 4966 16aa 08       		.sleb128 8
 4967 16ab 34       		.uleb128 0x34
 4968 16ac 44000000 		.4byte	.LVL176
 4969 16b0 301E0000 		.4byte	0x1e30
 4970 16b4 34       		.uleb128 0x34
 4971 16b5 A2000000 		.4byte	.LVL186
 4972 16b9 301E0000 		.4byte	0x1e30
 4973 16bd 00       		.byte	0
 4974 16be 05       		.uleb128 0x5
 4975 16bf 04       		.byte	0x4
 4976 16c0 320A0000 		.4byte	0xa32
ARM GAS  C:\Users\EBANO_~1\AppData\Local\Temp\ccizkeXa.s 			page 98


 4977 16c4 33       		.uleb128 0x33
 4978 16c5 01       		.byte	0x1
 4979 16c6 59000000 		.4byte	.LASF298
 4980 16ca 01       		.byte	0x1
 4981 16cb 2601     		.2byte	0x126
 4982 16cd 01       		.byte	0x1
 4983 16ce 29000000 		.4byte	0x29
 4984 16d2 00000000 		.4byte	.LFB51
 4985 16d6 18000000 		.4byte	.LFE51
 4986 16da 37030000 		.4byte	.LLST76
 4987 16de 01       		.byte	0x1
 4988 16df F4160000 		.4byte	0x16f4
 4989 16e3 29       		.uleb128 0x29
 4990 16e4 4C080000 		.4byte	.LASF299
 4991 16e8 01       		.byte	0x1
 4992 16e9 2601     		.2byte	0x126
 4993 16eb 0C0A0000 		.4byte	0xa0c
 4994 16ef 57030000 		.4byte	.LLST77
 4995 16f3 00       		.byte	0
 4996 16f4 33       		.uleb128 0x33
 4997 16f5 01       		.byte	0x1
 4998 16f6 BA0F0000 		.4byte	.LASF300
 4999 16fa 01       		.byte	0x1
 5000 16fb 2101     		.2byte	0x121
 5001 16fd 01       		.byte	0x1
 5002 16fe 29000000 		.4byte	0x29
 5003 1702 00000000 		.4byte	.LFB50
 5004 1706 34000000 		.4byte	.LFE50
 5005 170a 78030000 		.4byte	.LLST73
 5006 170e 01       		.byte	0x1
 5007 170f 34170000 		.4byte	0x1734
 5008 1713 29       		.uleb128 0x29
 5009 1714 4C080000 		.4byte	.LASF299
 5010 1718 01       		.byte	0x1
 5011 1719 2101     		.2byte	0x121
 5012 171b 0C0A0000 		.4byte	0xa0c
 5013 171f 98030000 		.4byte	.LLST74
 5014 1723 29       		.uleb128 0x29
 5015 1724 370D0000 		.4byte	.LASF301
 5016 1728 01       		.byte	0x1
 5017 1729 2101     		.2byte	0x121
 5018 172b 3D0A0000 		.4byte	0xa3d
 5019 172f B9030000 		.4byte	.LLST75
 5020 1733 00       		.byte	0
 5021 1734 36       		.uleb128 0x36
 5022 1735 01       		.byte	0x1
 5023 1736 8C040000 		.4byte	.LASF302
 5024 173a 01       		.byte	0x1
 5025 173b E8       		.byte	0xe8
 5026 173c 01       		.byte	0x1
 5027 173d 0C0A0000 		.4byte	0xa0c
 5028 1741 00000000 		.4byte	.LFB49
 5029 1745 34010000 		.4byte	.LFE49
 5030 1749 E5030000 		.4byte	.LLST48
 5031 174d 01       		.byte	0x1
 5032 174e ED180000 		.4byte	0x18ed
 5033 1752 37       		.uleb128 0x37
ARM GAS  C:\Users\EBANO_~1\AppData\Local\Temp\ccizkeXa.s 			page 99


 5034 1753 7C100000 		.4byte	.LASF303
 5035 1757 01       		.byte	0x1
 5036 1758 E8       		.byte	0xe8
 5037 1759 ED180000 		.4byte	0x18ed
 5038 175d 1E040000 		.4byte	.LLST49
 5039 1761 38       		.uleb128 0x38
 5040 1762 647200   		.ascii	"dr\000"
 5041 1765 01       		.byte	0x1
 5042 1766 E8       		.byte	0xe8
 5043 1767 F3180000 		.4byte	0x18f3
 5044 176b 89040000 		.4byte	.LLST50
 5045 176f 37       		.uleb128 0x37
 5046 1770 610D0000 		.4byte	.LASF304
 5047 1774 01       		.byte	0x1
 5048 1775 E8       		.byte	0xe8
 5049 1776 F3180000 		.4byte	0x18f3
 5050 177a C1040000 		.4byte	.LLST51
 5051 177e 37       		.uleb128 0x37
 5052 177f EF060000 		.4byte	.LASF305
 5053 1783 01       		.byte	0x1
 5054 1784 E8       		.byte	0xe8
 5055 1785 240B0000 		.4byte	0xb24
 5056 1789 E1040000 		.4byte	.LLST52
 5057 178d 39       		.uleb128 0x39
 5058 178e FC070000 		.4byte	.LASF306
 5059 1792 01       		.byte	0x1
 5060 1793 EA       		.byte	0xea
 5061 1794 0C0A0000 		.4byte	0xa0c
 5062 1798 15050000 		.4byte	.LLST53
 5063 179c 39       		.uleb128 0x39
 5064 179d 8C030000 		.4byte	.LASF278
 5065 17a1 01       		.byte	0x1
 5066 17a2 EB       		.byte	0xeb
 5067 17a3 010A0000 		.4byte	0xa01
 5068 17a7 6A050000 		.4byte	.LLST54
 5069 17ab 39       		.uleb128 0x39
 5070 17ac E3040000 		.4byte	.LASF307
 5071 17b0 01       		.byte	0x1
 5072 17b1 EC       		.byte	0xec
 5073 17b2 010A0000 		.4byte	0xa01
 5074 17b6 AB050000 		.4byte	.LLST55
 5075 17ba 39       		.uleb128 0x39
 5076 17bb 2F070000 		.4byte	.LASF308
 5077 17bf 01       		.byte	0x1
 5078 17c0 ED       		.byte	0xed
 5079 17c1 010A0000 		.4byte	0xa01
 5080 17c5 F6050000 		.4byte	.LLST56
 5081 17c9 3A       		.uleb128 0x3a
 5082 17ca F61B0000 		.4byte	0x1bf6
 5083 17ce 66000000 		.4byte	.LBB84
 5084 17d2 00010000 		.4byte	.Ldebug_ranges0+0x100
 5085 17d6 01       		.byte	0x1
 5086 17d7 FB       		.byte	0xfb
 5087 17d8 C0180000 		.4byte	0x18c0
 5088 17dc 30       		.uleb128 0x30
 5089 17dd 3E1C0000 		.4byte	0x1c3e
 5090 17e1 2A060000 		.4byte	.LLST57
ARM GAS  C:\Users\EBANO_~1\AppData\Local\Temp\ccizkeXa.s 			page 100


 5091 17e5 30       		.uleb128 0x30
 5092 17e6 331C0000 		.4byte	0x1c33
 5093 17ea 86060000 		.4byte	.LLST58
 5094 17ee 30       		.uleb128 0x30
 5095 17ef 281C0000 		.4byte	0x1c28
 5096 17f3 E2060000 		.4byte	.LLST59
 5097 17f7 3B       		.uleb128 0x3b
 5098 17f8 1E1C0000 		.4byte	0x1c1e
 5099 17fc 01       		.byte	0x1
 5100 17fd 53       		.byte	0x53
 5101 17fe 30       		.uleb128 0x30
 5102 17ff 131C0000 		.4byte	0x1c13
 5103 1803 3E070000 		.4byte	.LLST60
 5104 1807 30       		.uleb128 0x30
 5105 1808 081C0000 		.4byte	0x1c08
 5106 180c 9A070000 		.4byte	.LLST61
 5107 1810 3A       		.uleb128 0x3a
 5108 1811 C21B0000 		.4byte	0x1bc2
 5109 1815 66000000 		.4byte	.LBB85
 5110 1819 38010000 		.4byte	.Ldebug_ranges0+0x138
 5111 181d 01       		.byte	0x1
 5112 181e 4B       		.byte	0x4b
 5113 181f 3D180000 		.4byte	0x183d
 5114 1823 30       		.uleb128 0x30
 5115 1824 EA1B0000 		.4byte	0x1bea
 5116 1828 F6070000 		.4byte	.LLST62
 5117 182c 30       		.uleb128 0x30
 5118 182d DF1B0000 		.4byte	0x1bdf
 5119 1831 52080000 		.4byte	.LLST63
 5120 1835 3B       		.uleb128 0x3b
 5121 1836 D41B0000 		.4byte	0x1bd4
 5122 183a 01       		.byte	0x1
 5123 183b 53       		.byte	0x53
 5124 183c 00       		.byte	0
 5125 183d 3C       		.uleb128 0x3c
 5126 183e F61B0000 		.4byte	0x1bf6
 5127 1842 10010000 		.4byte	.Ldebug_ranges0+0x110
 5128 1846 3D       		.uleb128 0x3d
 5129 1847 281C0000 		.4byte	0x1c28
 5130 184b 3D       		.uleb128 0x3d
 5131 184c 331C0000 		.4byte	0x1c33
 5132 1850 3D       		.uleb128 0x3d
 5133 1851 3E1C0000 		.4byte	0x1c3e
 5134 1855 3D       		.uleb128 0x3d
 5135 1856 1E1C0000 		.4byte	0x1c1e
 5136 185a 3D       		.uleb128 0x3d
 5137 185b 131C0000 		.4byte	0x1c13
 5138 185f 3D       		.uleb128 0x3d
 5139 1860 081C0000 		.4byte	0x1c08
 5140 1864 3C       		.uleb128 0x3c
 5141 1865 491C0000 		.4byte	0x1c49
 5142 1869 10010000 		.4byte	.Ldebug_ranges0+0x110
 5143 186d 3E       		.uleb128 0x3e
 5144 186e 4A1C0000 		.4byte	0x1c4a
 5145 1872 AE080000 		.4byte	.LLST64
 5146 1876 3E       		.uleb128 0x3e
 5147 1877 531C0000 		.4byte	0x1c53
ARM GAS  C:\Users\EBANO_~1\AppData\Local\Temp\ccizkeXa.s 			page 101


 5148 187b E8080000 		.4byte	.LLST65
 5149 187f 3C       		.uleb128 0x3c
 5150 1880 5C1C0000 		.4byte	0x1c5c
 5151 1884 50010000 		.4byte	.Ldebug_ranges0+0x150
 5152 1888 3E       		.uleb128 0x3e
 5153 1889 5D1C0000 		.4byte	0x1c5d
 5154 188d 1D090000 		.4byte	.LLST66
 5155 1891 3F       		.uleb128 0x3f
 5156 1892 C21B0000 		.4byte	0x1bc2
 5157 1896 E8000000 		.4byte	.LBB92
 5158 189a 68010000 		.4byte	.Ldebug_ranges0+0x168
 5159 189e 01       		.byte	0x1
 5160 189f 56       		.byte	0x56
 5161 18a0 30       		.uleb128 0x30
 5162 18a1 EA1B0000 		.4byte	0x1bea
 5163 18a5 48090000 		.4byte	.LLST67
 5164 18a9 30       		.uleb128 0x30
 5165 18aa DF1B0000 		.4byte	0x1bdf
 5166 18ae 85090000 		.4byte	.LLST68
 5167 18b2 30       		.uleb128 0x30
 5168 18b3 D41B0000 		.4byte	0x1bd4
 5169 18b7 AF090000 		.4byte	.LLST69
 5170 18bb 00       		.byte	0
 5171 18bc 00       		.byte	0
 5172 18bd 00       		.byte	0
 5173 18be 00       		.byte	0
 5174 18bf 00       		.byte	0
 5175 18c0 40       		.uleb128 0x40
 5176 18c1 C21B0000 		.4byte	0x1bc2
 5177 18c5 7A000000 		.4byte	.LBB103
 5178 18c9 84000000 		.4byte	.LBE103
 5179 18cd 01       		.byte	0x1
 5180 18ce 0201     		.2byte	0x102
 5181 18d0 30       		.uleb128 0x30
 5182 18d1 EA1B0000 		.4byte	0x1bea
 5183 18d5 CD090000 		.4byte	.LLST70
 5184 18d9 30       		.uleb128 0x30
 5185 18da DF1B0000 		.4byte	0x1bdf
 5186 18de E0090000 		.4byte	.LLST71
 5187 18e2 30       		.uleb128 0x30
 5188 18e3 D41B0000 		.4byte	0x1bd4
 5189 18e7 F3090000 		.4byte	.LLST72
 5190 18eb 00       		.byte	0
 5191 18ec 00       		.byte	0
 5192 18ed 05       		.uleb128 0x5
 5193 18ee 04       		.byte	0x4
 5194 18ef 6A130000 		.4byte	0x136a
 5195 18f3 05       		.uleb128 0x5
 5196 18f4 04       		.byte	0x4
 5197 18f5 010A0000 		.4byte	0xa01
 5198 18f9 36       		.uleb128 0x36
 5199 18fa 01       		.byte	0x1
 5200 18fb 44070000 		.4byte	.LASF309
 5201 18ff 01       		.byte	0x1
 5202 1900 D0       		.byte	0xd0
 5203 1901 01       		.byte	0x1
 5204 1902 0C0A0000 		.4byte	0xa0c
ARM GAS  C:\Users\EBANO_~1\AppData\Local\Temp\ccizkeXa.s 			page 102


 5205 1906 00000000 		.4byte	.LFB48
 5206 190a 38000000 		.4byte	.LFE48
 5207 190e 060A0000 		.4byte	.LLST45
 5208 1912 01       		.byte	0x1
 5209 1913 43190000 		.4byte	0x1943
 5210 1917 37       		.uleb128 0x37
 5211 1918 BD050000 		.4byte	.LASF310
 5212 191c 01       		.byte	0x1
 5213 191d D0       		.byte	0xd0
 5214 191e 240B0000 		.4byte	0xb24
 5215 1922 260A0000 		.4byte	.LLST46
 5216 1926 41       		.uleb128 0x41
 5217 1927 66090000 		.4byte	.LASF311
 5218 192b 01       		.byte	0x1
 5219 192c D0       		.byte	0xd0
 5220 192d 43190000 		.4byte	0x1943
 5221 1931 01       		.byte	0x1
 5222 1932 51       		.byte	0x51
 5223 1933 39       		.uleb128 0x39
 5224 1934 B50D0000 		.4byte	.LASF312
 5225 1938 01       		.byte	0x1
 5226 1939 D2       		.byte	0xd2
 5227 193a 0C0A0000 		.4byte	0xa0c
 5228 193e 6B0A0000 		.4byte	.LLST47
 5229 1942 00       		.byte	0
 5230 1943 05       		.uleb128 0x5
 5231 1944 04       		.byte	0x4
 5232 1945 72120000 		.4byte	0x1272
 5233 1949 36       		.uleb128 0x36
 5234 194a 01       		.byte	0x1
 5235 194b 15080000 		.4byte	.LASF313
 5236 194f 01       		.byte	0x1
 5237 1950 A3       		.byte	0xa3
 5238 1951 01       		.byte	0x1
 5239 1952 BC0F0000 		.4byte	0xfbc
 5240 1956 00000000 		.4byte	.LFB47
 5241 195a D6000000 		.4byte	.LFE47
 5242 195e A20A0000 		.4byte	.LLST37
 5243 1962 01       		.byte	0x1
 5244 1963 1E1A0000 		.4byte	0x1a1e
 5245 1967 37       		.uleb128 0x37
 5246 1968 92100000 		.4byte	.LASF314
 5247 196c 01       		.byte	0x1
 5248 196d A3       		.byte	0xa3
 5249 196e 4E0B0000 		.4byte	0xb4e
 5250 1972 CE0A0000 		.4byte	.LLST38
 5251 1976 37       		.uleb128 0x37
 5252 1977 0D100000 		.4byte	.LASF284
 5253 197b 01       		.byte	0x1
 5254 197c A3       		.byte	0xa3
 5255 197d 4E0B0000 		.4byte	0xb4e
 5256 1981 FA0A0000 		.4byte	.LLST39
 5257 1985 37       		.uleb128 0x37
 5258 1986 19010000 		.4byte	.LASF315
 5259 198a 01       		.byte	0x1
 5260 198b A3       		.byte	0xa3
 5261 198c F2130000 		.4byte	0x13f2
ARM GAS  C:\Users\EBANO_~1\AppData\Local\Temp\ccizkeXa.s 			page 103


 5262 1990 260B0000 		.4byte	.LLST40
 5263 1994 37       		.uleb128 0x37
 5264 1995 3D080000 		.4byte	.LASF316
 5265 1999 01       		.byte	0x1
 5266 199a A3       		.byte	0xa3
 5267 199b 0C0A0000 		.4byte	0xa0c
 5268 199f 5F0B0000 		.4byte	.LLST41
 5269 19a3 39       		.uleb128 0x39
 5270 19a4 050C0000 		.4byte	.LASF317
 5271 19a8 01       		.byte	0x1
 5272 19a9 A5       		.byte	0xa5
 5273 19aa BC0F0000 		.4byte	0xfbc
 5274 19ae 990B0000 		.4byte	.LLST42
 5275 19b2 31       		.uleb128 0x31
 5276 19b3 C8000000 		.4byte	.Ldebug_ranges0+0xc8
 5277 19b7 42       		.uleb128 0x42
 5278 19b8 6900     		.ascii	"i\000"
 5279 19ba 01       		.byte	0x1
 5280 19bb A8       		.byte	0xa8
 5281 19bc 0C0A0000 		.4byte	0xa0c
 5282 19c0 FE0B0000 		.4byte	.LLST43
 5283 19c4 43       		.uleb128 0x43
 5284 19c5 E8000000 		.4byte	.Ldebug_ranges0+0xe8
 5285 19c9 011A0000 		.4byte	0x1a01
 5286 19cd 39       		.uleb128 0x39
 5287 19ce E8080000 		.4byte	.LASF318
 5288 19d2 01       		.byte	0x1
 5289 19d3 AC       		.byte	0xac
 5290 19d4 BC0F0000 		.4byte	0xfbc
 5291 19d8 1E0C0000 		.4byte	.LLST44
 5292 19dc 34       		.uleb128 0x34
 5293 19dd 44000000 		.4byte	.LVL93
 5294 19e1 3D1E0000 		.4byte	0x1e3d
 5295 19e5 34       		.uleb128 0x34
 5296 19e6 B6000000 		.4byte	.LVL103
 5297 19ea 3D1E0000 		.4byte	0x1e3d
 5298 19ee 34       		.uleb128 0x34
 5299 19ef C0000000 		.4byte	.LVL104
 5300 19f3 3D1E0000 		.4byte	0x1e3d
 5301 19f7 34       		.uleb128 0x34
 5302 19f8 CA000000 		.4byte	.LVL105
 5303 19fc 3D1E0000 		.4byte	0x1e3d
 5304 1a00 00       		.byte	0
 5305 1a01 34       		.uleb128 0x34
 5306 1a02 84000000 		.4byte	.LVL98
 5307 1a06 3D1E0000 		.4byte	0x1e3d
 5308 1a0a 34       		.uleb128 0x34
 5309 1a0b 96000000 		.4byte	.LVL99
 5310 1a0f 3D1E0000 		.4byte	0x1e3d
 5311 1a13 34       		.uleb128 0x34
 5312 1a14 A8000000 		.4byte	.LVL101
 5313 1a18 3D1E0000 		.4byte	0x1e3d
 5314 1a1c 00       		.byte	0
 5315 1a1d 00       		.byte	0
 5316 1a1e 44       		.uleb128 0x44
 5317 1a1f 01       		.byte	0x1
 5318 1a20 390A0000 		.4byte	.LASF319
ARM GAS  C:\Users\EBANO_~1\AppData\Local\Temp\ccizkeXa.s 			page 104


 5319 1a24 01       		.byte	0x1
 5320 1a25 96       		.byte	0x96
 5321 1a26 01       		.byte	0x1
 5322 1a27 00000000 		.4byte	.LFB46
 5323 1a2b 0A000000 		.4byte	.LFE46
 5324 1a2f 02       		.byte	0x2
 5325 1a30 7D       		.byte	0x7d
 5326 1a31 00       		.sleb128 0
 5327 1a32 01       		.byte	0x1
 5328 1a33 5F1A0000 		.4byte	0x1a5f
 5329 1a37 41       		.uleb128 0x41
 5330 1a38 92100000 		.4byte	.LASF314
 5331 1a3c 01       		.byte	0x1
 5332 1a3d 96       		.byte	0x96
 5333 1a3e 4E0B0000 		.4byte	0xb4e
 5334 1a42 01       		.byte	0x1
 5335 1a43 50       		.byte	0x50
 5336 1a44 41       		.uleb128 0x41
 5337 1a45 85060000 		.4byte	.LASF320
 5338 1a49 01       		.byte	0x1
 5339 1a4a 96       		.byte	0x96
 5340 1a4b F2130000 		.4byte	0x13f2
 5341 1a4f 01       		.byte	0x1
 5342 1a50 51       		.byte	0x51
 5343 1a51 41       		.uleb128 0x41
 5344 1a52 DE0C0000 		.4byte	.LASF321
 5345 1a56 01       		.byte	0x1
 5346 1a57 96       		.byte	0x96
 5347 1a58 BC0F0000 		.4byte	0xfbc
 5348 1a5c 01       		.byte	0x1
 5349 1a5d 52       		.byte	0x52
 5350 1a5e 00       		.byte	0
 5351 1a5f 45       		.uleb128 0x45
 5352 1a60 01       		.byte	0x1
 5353 1a61 00010000 		.4byte	.LASF322
 5354 1a65 01       		.byte	0x1
 5355 1a66 8B       		.byte	0x8b
 5356 1a67 01       		.byte	0x1
 5357 1a68 00000000 		.4byte	.LFB45
 5358 1a6c 72000000 		.4byte	.LFE45
 5359 1a70 310C0000 		.4byte	.LLST34
 5360 1a74 01       		.byte	0x1
 5361 1a75 B61A0000 		.4byte	0x1ab6
 5362 1a79 41       		.uleb128 0x41
 5363 1a7a 1F010000 		.4byte	.LASF323
 5364 1a7e 01       		.byte	0x1
 5365 1a7f 8B       		.byte	0x8b
 5366 1a80 FC110000 		.4byte	0x11fc
 5367 1a84 01       		.byte	0x1
 5368 1a85 50       		.byte	0x50
 5369 1a86 41       		.uleb128 0x41
 5370 1a87 600A0000 		.4byte	.LASF324
 5371 1a8b 01       		.byte	0x1
 5372 1a8c 8B       		.byte	0x8b
 5373 1a8d FC110000 		.4byte	0x11fc
 5374 1a91 01       		.byte	0x1
 5375 1a92 51       		.byte	0x51
ARM GAS  C:\Users\EBANO_~1\AppData\Local\Temp\ccizkeXa.s 			page 105


 5376 1a93 38       		.uleb128 0x38
 5377 1a94 6C656E00 		.ascii	"len\000"
 5378 1a98 01       		.byte	0x1
 5379 1a99 8B       		.byte	0x8b
 5380 1a9a 0C0A0000 		.4byte	0xa0c
 5381 1a9e 510C0000 		.4byte	.LLST35
 5382 1aa2 31       		.uleb128 0x31
 5383 1aa3 B0000000 		.4byte	.Ldebug_ranges0+0xb0
 5384 1aa7 42       		.uleb128 0x42
 5385 1aa8 6900     		.ascii	"i\000"
 5386 1aaa 01       		.byte	0x1
 5387 1aab 8F       		.byte	0x8f
 5388 1aac 0C0A0000 		.4byte	0xa0c
 5389 1ab0 8B0C0000 		.4byte	.LLST36
 5390 1ab4 00       		.byte	0
 5391 1ab5 00       		.byte	0
 5392 1ab6 36       		.uleb128 0x36
 5393 1ab7 01       		.byte	0x1
 5394 1ab8 97000000 		.4byte	.LASF325
 5395 1abc 01       		.byte	0x1
 5396 1abd 7A       		.byte	0x7a
 5397 1abe 01       		.byte	0x1
 5398 1abf 0C0A0000 		.4byte	0xa0c
 5399 1ac3 00000000 		.4byte	.LFB44
 5400 1ac7 EC000000 		.4byte	.LFE44
 5401 1acb BB0C0000 		.4byte	.LLST24
 5402 1acf 01       		.byte	0x1
 5403 1ad0 681B0000 		.4byte	0x1b68
 5404 1ad4 37       		.uleb128 0x37
 5405 1ad5 530A0000 		.4byte	.LASF326
 5406 1ad9 01       		.byte	0x1
 5407 1ada 7A       		.byte	0x7a
 5408 1adb FC110000 		.4byte	0x11fc
 5409 1adf E70C0000 		.4byte	.LLST25
 5410 1ae3 37       		.uleb128 0x37
 5411 1ae4 4A0D0000 		.4byte	.LASF327
 5412 1ae8 01       		.byte	0x1
 5413 1ae9 7A       		.byte	0x7a
 5414 1aea 0C0A0000 		.4byte	0xa0c
 5415 1aee 2E0D0000 		.4byte	.LLST26
 5416 1af2 37       		.uleb128 0x37
 5417 1af3 3F060000 		.4byte	.LASF328
 5418 1af7 01       		.byte	0x1
 5419 1af8 7A       		.byte	0x7a
 5420 1af9 0C0A0000 		.4byte	0xa0c
 5421 1afd 5A0D0000 		.4byte	.LLST27
 5422 1b01 39       		.uleb128 0x39
 5423 1b02 330F0000 		.4byte	.LASF329
 5424 1b06 01       		.byte	0x1
 5425 1b07 7C       		.byte	0x7c
 5426 1b08 0C0A0000 		.4byte	0xa0c
 5427 1b0c 860D0000 		.4byte	.LLST28
 5428 1b10 31       		.uleb128 0x31
 5429 1b11 38000000 		.4byte	.Ldebug_ranges0+0x38
 5430 1b15 42       		.uleb128 0x42
 5431 1b16 6900     		.ascii	"i\000"
 5432 1b18 01       		.byte	0x1
ARM GAS  C:\Users\EBANO_~1\AppData\Local\Temp\ccizkeXa.s 			page 106


 5433 1b19 83       		.byte	0x83
 5434 1b1a 0C0A0000 		.4byte	0xa0c
 5435 1b1e D20D0000 		.4byte	.LLST29
 5436 1b22 3F       		.uleb128 0x3f
 5437 1b23 921C0000 		.4byte	0x1c92
 5438 1b27 1E000000 		.4byte	.LBB48
 5439 1b2b 58000000 		.4byte	.Ldebug_ranges0+0x58
 5440 1b2f 01       		.byte	0x1
 5441 1b30 85       		.byte	0x85
 5442 1b31 30       		.uleb128 0x30
 5443 1b32 AE1C0000 		.4byte	0x1cae
 5444 1b36 F30D0000 		.4byte	.LLST30
 5445 1b3a 30       		.uleb128 0x30
 5446 1b3b A31C0000 		.4byte	0x1ca3
 5447 1b3f 070E0000 		.4byte	.LLST31
 5448 1b43 31       		.uleb128 0x31
 5449 1b44 58000000 		.4byte	.Ldebug_ranges0+0x58
 5450 1b48 3E       		.uleb128 0x3e
 5451 1b49 B91C0000 		.4byte	0x1cb9
 5452 1b4d 1A0E0000 		.4byte	.LLST32
 5453 1b51 3C       		.uleb128 0x3c
 5454 1b52 C41C0000 		.4byte	0x1cc4
 5455 1b56 80000000 		.4byte	.Ldebug_ranges0+0x80
 5456 1b5a 3E       		.uleb128 0x3e
 5457 1b5b C51C0000 		.4byte	0x1cc5
 5458 1b5f C80E0000 		.4byte	.LLST33
 5459 1b63 00       		.byte	0
 5460 1b64 00       		.byte	0
 5461 1b65 00       		.byte	0
 5462 1b66 00       		.byte	0
 5463 1b67 00       		.byte	0
 5464 1b68 36       		.uleb128 0x36
 5465 1b69 01       		.byte	0x1
 5466 1b6a C5050000 		.4byte	.LASF330
 5467 1b6e 01       		.byte	0x1
 5468 1b6f 6B       		.byte	0x6b
 5469 1b70 01       		.byte	0x1
 5470 1b71 4E0B0000 		.4byte	0xb4e
 5471 1b75 00000000 		.4byte	.LFB43
 5472 1b79 28000000 		.4byte	.LFE43
 5473 1b7d 900F0000 		.4byte	.LLST19
 5474 1b81 01       		.byte	0x1
 5475 1b82 C21B0000 		.4byte	0x1bc2
 5476 1b86 37       		.uleb128 0x37
 5477 1b87 530A0000 		.4byte	.LASF326
 5478 1b8b 01       		.byte	0x1
 5479 1b8c 6B       		.byte	0x6b
 5480 1b8d FC110000 		.4byte	0x11fc
 5481 1b91 B00F0000 		.4byte	.LLST20
 5482 1b95 38       		.uleb128 0x38
 5483 1b96 696400   		.ascii	"id\000"
 5484 1b99 01       		.byte	0x1
 5485 1b9a 6B       		.byte	0x6b
 5486 1b9b 0C0A0000 		.4byte	0xa0c
 5487 1b9f D10F0000 		.4byte	.LLST21
 5488 1ba3 37       		.uleb128 0x37
 5489 1ba4 D7040000 		.4byte	.LASF331
ARM GAS  C:\Users\EBANO_~1\AppData\Local\Temp\ccizkeXa.s 			page 107


 5490 1ba8 01       		.byte	0x1
 5491 1ba9 6B       		.byte	0x6b
 5492 1baa 0C0A0000 		.4byte	0xa0c
 5493 1bae F20F0000 		.4byte	.LLST22
 5494 1bb2 39       		.uleb128 0x39
 5495 1bb3 DB030000 		.4byte	.LASF332
 5496 1bb7 01       		.byte	0x1
 5497 1bb8 6D       		.byte	0x6d
 5498 1bb9 0C0A0000 		.4byte	0xa0c
 5499 1bbd 13100000 		.4byte	.LLST23
 5500 1bc1 00       		.byte	0
 5501 1bc2 46       		.uleb128 0x46
 5502 1bc3 01       		.byte	0x1
 5503 1bc4 860E0000 		.4byte	.LASF334
 5504 1bc8 01       		.byte	0x1
 5505 1bc9 62       		.byte	0x62
 5506 1bca 01       		.byte	0x1
 5507 1bcb 0C0A0000 		.4byte	0xa0c
 5508 1bcf 01       		.byte	0x1
 5509 1bd0 F61B0000 		.4byte	0x1bf6
 5510 1bd4 47       		.uleb128 0x47
 5511 1bd5 41050000 		.4byte	.LASF333
 5512 1bd9 01       		.byte	0x1
 5513 1bda 62       		.byte	0x62
 5514 1bdb 010A0000 		.4byte	0xa01
 5515 1bdf 48       		.uleb128 0x48
 5516 1be0 6D696E00 		.ascii	"min\000"
 5517 1be4 01       		.byte	0x1
 5518 1be5 62       		.byte	0x62
 5519 1be6 010A0000 		.4byte	0xa01
 5520 1bea 48       		.uleb128 0x48
 5521 1beb 6D617800 		.ascii	"max\000"
 5522 1bef 01       		.byte	0x1
 5523 1bf0 62       		.byte	0x62
 5524 1bf1 010A0000 		.4byte	0xa01
 5525 1bf5 00       		.byte	0
 5526 1bf6 46       		.uleb128 0x46
 5527 1bf7 01       		.byte	0x1
 5528 1bf8 590C0000 		.4byte	.LASF335
 5529 1bfc 01       		.byte	0x1
 5530 1bfd 49       		.byte	0x49
 5531 1bfe 01       		.byte	0x1
 5532 1bff 4E0B0000 		.4byte	0xb4e
 5533 1c03 01       		.byte	0x1
 5534 1c04 691C0000 		.4byte	0x1c69
 5535 1c08 47       		.uleb128 0x47
 5536 1c09 330F0000 		.4byte	.LASF329
 5537 1c0d 01       		.byte	0x1
 5538 1c0e 49       		.byte	0x49
 5539 1c0f 0C0A0000 		.4byte	0xa0c
 5540 1c13 47       		.uleb128 0x47
 5541 1c14 530A0000 		.4byte	.LASF326
 5542 1c18 01       		.byte	0x1
 5543 1c19 49       		.byte	0x49
 5544 1c1a FC110000 		.4byte	0x11fc
 5545 1c1e 48       		.uleb128 0x48
 5546 1c1f 647200   		.ascii	"dr\000"
ARM GAS  C:\Users\EBANO_~1\AppData\Local\Temp\ccizkeXa.s 			page 108


 5547 1c22 01       		.byte	0x1
 5548 1c23 49       		.byte	0x49
 5549 1c24 010A0000 		.4byte	0xa01
 5550 1c28 47       		.uleb128 0x47
 5551 1c29 C6040000 		.4byte	.LASF336
 5552 1c2d 01       		.byte	0x1
 5553 1c2e 49       		.byte	0x49
 5554 1c2f 010A0000 		.4byte	0xa01
 5555 1c33 47       		.uleb128 0x47
 5556 1c34 76010000 		.4byte	.LASF337
 5557 1c38 01       		.byte	0x1
 5558 1c39 49       		.byte	0x49
 5559 1c3a 010A0000 		.4byte	0xa01
 5560 1c3e 47       		.uleb128 0x47
 5561 1c3f 3E090000 		.4byte	.LASF338
 5562 1c43 01       		.byte	0x1
 5563 1c44 49       		.byte	0x49
 5564 1c45 F6110000 		.4byte	0x11f6
 5565 1c49 49       		.uleb128 0x49
 5566 1c4a 4A       		.uleb128 0x4a
 5567 1c4b 6900     		.ascii	"i\000"
 5568 1c4d 01       		.byte	0x1
 5569 1c4e 50       		.byte	0x50
 5570 1c4f 0C0A0000 		.4byte	0xa0c
 5571 1c53 4A       		.uleb128 0x4a
 5572 1c54 6B00     		.ascii	"k\000"
 5573 1c56 01       		.byte	0x1
 5574 1c57 50       		.byte	0x50
 5575 1c58 0C0A0000 		.4byte	0xa0c
 5576 1c5c 49       		.uleb128 0x49
 5577 1c5d 4A       		.uleb128 0x4a
 5578 1c5e 6A00     		.ascii	"j\000"
 5579 1c60 01       		.byte	0x1
 5580 1c61 52       		.byte	0x52
 5581 1c62 0C0A0000 		.4byte	0xa0c
 5582 1c66 00       		.byte	0
 5583 1c67 00       		.byte	0
 5584 1c68 00       		.byte	0
 5585 1c69 46       		.uleb128 0x46
 5586 1c6a 01       		.byte	0x1
 5587 1c6b 40110000 		.4byte	.LASF339
 5588 1c6f 01       		.byte	0x1
 5589 1c70 36       		.byte	0x36
 5590 1c71 01       		.byte	0x1
 5591 1c72 270A0000 		.4byte	0xa27
 5592 1c76 01       		.byte	0x1
 5593 1c77 921C0000 		.4byte	0x1c92
 5594 1c7b 47       		.uleb128 0x47
 5595 1c7c AF040000 		.4byte	.LASF340
 5596 1c80 01       		.byte	0x1
 5597 1c81 36       		.byte	0x36
 5598 1c82 BC0F0000 		.4byte	0xfbc
 5599 1c86 4B       		.uleb128 0x4b
 5600 1c87 0D100000 		.4byte	.LASF284
 5601 1c8b 01       		.byte	0x1
 5602 1c8c 38       		.byte	0x38
 5603 1c8d 270A0000 		.4byte	0xa27
ARM GAS  C:\Users\EBANO_~1\AppData\Local\Temp\ccizkeXa.s 			page 109


 5604 1c91 00       		.byte	0
 5605 1c92 4C       		.uleb128 0x4c
 5606 1c93 17000000 		.4byte	.LASF350
 5607 1c97 01       		.byte	0x1
 5608 1c98 28       		.byte	0x28
 5609 1c99 01       		.byte	0x1
 5610 1c9a 0C0A0000 		.4byte	0xa0c
 5611 1c9e 01       		.byte	0x1
 5612 1c9f D01C0000 		.4byte	0x1cd0
 5613 1ca3 47       		.uleb128 0x47
 5614 1ca4 DB090000 		.4byte	.LASF341
 5615 1ca8 01       		.byte	0x1
 5616 1ca9 28       		.byte	0x28
 5617 1caa 270A0000 		.4byte	0xa27
 5618 1cae 47       		.uleb128 0x47
 5619 1caf 65070000 		.4byte	.LASF342
 5620 1cb3 01       		.byte	0x1
 5621 1cb4 28       		.byte	0x28
 5622 1cb5 0C0A0000 		.4byte	0xa0c
 5623 1cb9 4B       		.uleb128 0x4b
 5624 1cba B0110000 		.4byte	.LASF343
 5625 1cbe 01       		.byte	0x1
 5626 1cbf 2A       		.byte	0x2a
 5627 1cc0 0C0A0000 		.4byte	0xa0c
 5628 1cc4 49       		.uleb128 0x49
 5629 1cc5 4A       		.uleb128 0x4a
 5630 1cc6 6A00     		.ascii	"j\000"
 5631 1cc8 01       		.byte	0x1
 5632 1cc9 2C       		.byte	0x2c
 5633 1cca 0C0A0000 		.4byte	0xa0c
 5634 1cce 00       		.byte	0
 5635 1ccf 00       		.byte	0
 5636 1cd0 4D       		.uleb128 0x4d
 5637 1cd1 691C0000 		.4byte	0x1c69
 5638 1cd5 00000000 		.4byte	.LFB40
 5639 1cd9 30000000 		.4byte	.LFE40
 5640 1cdd 02       		.byte	0x2
 5641 1cde 7D       		.byte	0x7d
 5642 1cdf 00       		.sleb128 0
 5643 1ce0 01       		.byte	0x1
 5644 1ce1 F81C0000 		.4byte	0x1cf8
 5645 1ce5 30       		.uleb128 0x30
 5646 1ce6 7B1C0000 		.4byte	0x1c7b
 5647 1cea 26100000 		.4byte	.LLST0
 5648 1cee 3E       		.uleb128 0x3e
 5649 1cef 861C0000 		.4byte	0x1c86
 5650 1cf3 44100000 		.4byte	.LLST1
 5651 1cf7 00       		.byte	0
 5652 1cf8 4E       		.uleb128 0x4e
 5653 1cf9 F61B0000 		.4byte	0x1bf6
 5654 1cfd 00000000 		.4byte	.LFB41
 5655 1d01 96000000 		.4byte	.LFE41
 5656 1d05 63100000 		.4byte	.LLST2
 5657 1d09 01       		.byte	0x1
 5658 1d0a F41D0000 		.4byte	0x1df4
 5659 1d0e 30       		.uleb128 0x30
 5660 1d0f 081C0000 		.4byte	0x1c08
ARM GAS  C:\Users\EBANO_~1\AppData\Local\Temp\ccizkeXa.s 			page 110


 5661 1d13 8F100000 		.4byte	.LLST3
 5662 1d17 30       		.uleb128 0x30
 5663 1d18 131C0000 		.4byte	0x1c13
 5664 1d1c B0100000 		.4byte	.LLST4
 5665 1d20 30       		.uleb128 0x30
 5666 1d21 1E1C0000 		.4byte	0x1c1e
 5667 1d25 E7100000 		.4byte	.LLST5
 5668 1d29 30       		.uleb128 0x30
 5669 1d2a 281C0000 		.4byte	0x1c28
 5670 1d2e 08110000 		.4byte	.LLST6
 5671 1d32 30       		.uleb128 0x30
 5672 1d33 331C0000 		.4byte	0x1c33
 5673 1d37 29110000 		.4byte	.LLST7
 5674 1d3b 30       		.uleb128 0x30
 5675 1d3c 3E1C0000 		.4byte	0x1c3e
 5676 1d40 55110000 		.4byte	.LLST8
 5677 1d44 4F       		.uleb128 0x4f
 5678 1d45 C21B0000 		.4byte	0x1bc2
 5679 1d49 1A000000 		.4byte	.LBB36
 5680 1d4d 22000000 		.4byte	.LBE36
 5681 1d51 01       		.byte	0x1
 5682 1d52 4B       		.byte	0x4b
 5683 1d53 711D0000 		.4byte	0x1d71
 5684 1d57 30       		.uleb128 0x30
 5685 1d58 EA1B0000 		.4byte	0x1bea
 5686 1d5c 81110000 		.4byte	.LLST9
 5687 1d60 30       		.uleb128 0x30
 5688 1d61 DF1B0000 		.4byte	0x1bdf
 5689 1d65 A0110000 		.4byte	.LLST10
 5690 1d69 3B       		.uleb128 0x3b
 5691 1d6a D41B0000 		.4byte	0x1bd4
 5692 1d6e 01       		.byte	0x1
 5693 1d6f 51       		.byte	0x51
 5694 1d70 00       		.byte	0
 5695 1d71 3C       		.uleb128 0x3c
 5696 1d72 F61B0000 		.4byte	0x1bf6
 5697 1d76 00000000 		.4byte	.Ldebug_ranges0+0
 5698 1d7a 3D       		.uleb128 0x3d
 5699 1d7b 281C0000 		.4byte	0x1c28
 5700 1d7f 3D       		.uleb128 0x3d
 5701 1d80 331C0000 		.4byte	0x1c33
 5702 1d84 3D       		.uleb128 0x3d
 5703 1d85 3E1C0000 		.4byte	0x1c3e
 5704 1d89 3D       		.uleb128 0x3d
 5705 1d8a 1E1C0000 		.4byte	0x1c1e
 5706 1d8e 3D       		.uleb128 0x3d
 5707 1d8f 131C0000 		.4byte	0x1c13
 5708 1d93 3D       		.uleb128 0x3d
 5709 1d94 081C0000 		.4byte	0x1c08
 5710 1d98 3C       		.uleb128 0x3c
 5711 1d99 491C0000 		.4byte	0x1c49
 5712 1d9d 00000000 		.4byte	.Ldebug_ranges0+0
 5713 1da1 3E       		.uleb128 0x3e
 5714 1da2 4A1C0000 		.4byte	0x1c4a
 5715 1da6 C1110000 		.4byte	.LLST11
 5716 1daa 3E       		.uleb128 0x3e
 5717 1dab 531C0000 		.4byte	0x1c53
ARM GAS  C:\Users\EBANO_~1\AppData\Local\Temp\ccizkeXa.s 			page 111


 5718 1daf EB110000 		.4byte	.LLST12
 5719 1db3 3C       		.uleb128 0x3c
 5720 1db4 5C1C0000 		.4byte	0x1c5c
 5721 1db8 18000000 		.4byte	.Ldebug_ranges0+0x18
 5722 1dbc 3E       		.uleb128 0x3e
 5723 1dbd 5D1C0000 		.4byte	0x1c5d
 5724 1dc1 15120000 		.4byte	.LLST13
 5725 1dc5 50       		.uleb128 0x50
 5726 1dc6 C21B0000 		.4byte	0x1bc2
 5727 1dca 5C000000 		.4byte	.LBB41
 5728 1dce 6C000000 		.4byte	.LBE41
 5729 1dd2 01       		.byte	0x1
 5730 1dd3 56       		.byte	0x56
 5731 1dd4 30       		.uleb128 0x30
 5732 1dd5 EA1B0000 		.4byte	0x1bea
 5733 1dd9 40120000 		.4byte	.LLST14
 5734 1ddd 30       		.uleb128 0x30
 5735 1dde DF1B0000 		.4byte	0x1bdf
 5736 1de2 7D120000 		.4byte	.LLST15
 5737 1de6 30       		.uleb128 0x30
 5738 1de7 D41B0000 		.4byte	0x1bd4
 5739 1deb A7120000 		.4byte	.LLST16
 5740 1def 00       		.byte	0
 5741 1df0 00       		.byte	0
 5742 1df1 00       		.byte	0
 5743 1df2 00       		.byte	0
 5744 1df3 00       		.byte	0
 5745 1df4 4D       		.uleb128 0x4d
 5746 1df5 C21B0000 		.4byte	0x1bc2
 5747 1df9 00000000 		.4byte	.LFB42
 5748 1dfd 14000000 		.4byte	.LFE42
 5749 1e01 02       		.byte	0x2
 5750 1e02 7D       		.byte	0x7d
 5751 1e03 00       		.sleb128 0
 5752 1e04 01       		.byte	0x1
 5753 1e05 231E0000 		.4byte	0x1e23
 5754 1e09 30       		.uleb128 0x30
 5755 1e0a D41B0000 		.4byte	0x1bd4
 5756 1e0e C5120000 		.4byte	.LLST17
 5757 1e12 30       		.uleb128 0x30
 5758 1e13 DF1B0000 		.4byte	0x1bdf
 5759 1e17 E6120000 		.4byte	.LLST18
 5760 1e1b 3B       		.uleb128 0x3b
 5761 1e1c EA1B0000 		.4byte	0x1bea
 5762 1e20 01       		.byte	0x1
 5763 1e21 52       		.byte	0x52
 5764 1e22 00       		.byte	0
 5765 1e23 51       		.uleb128 0x51
 5766 1e24 01       		.byte	0x1
 5767 1e25 01       		.byte	0x1
 5768 1e26 E2010000 		.4byte	.LASF344
 5769 1e2a E2010000 		.4byte	.LASF344
 5770 1e2e 07       		.byte	0x7
 5771 1e2f 5F       		.byte	0x5f
 5772 1e30 51       		.uleb128 0x51
 5773 1e31 01       		.byte	0x1
 5774 1e32 01       		.byte	0x1
ARM GAS  C:\Users\EBANO_~1\AppData\Local\Temp\ccizkeXa.s 			page 112


 5775 1e33 9B0C0000 		.4byte	.LASF345
 5776 1e37 9B0C0000 		.4byte	.LASF345
 5777 1e3b 07       		.byte	0x7
 5778 1e3c 5D       		.byte	0x5d
 5779 1e3d 51       		.uleb128 0x51
 5780 1e3e 01       		.byte	0x1
 5781 1e3f 01       		.byte	0x1
 5782 1e40 74050000 		.4byte	.LASF346
 5783 1e44 74050000 		.4byte	.LASF346
 5784 1e48 11       		.byte	0x11
 5785 1e49 94       		.byte	0x94
 5786 1e4a 00       		.byte	0
 5787              		.section	.debug_abbrev,"",%progbits
 5788              	.Ldebug_abbrev0:
 5789 0000 01       		.uleb128 0x1
 5790 0001 11       		.uleb128 0x11
 5791 0002 01       		.byte	0x1
 5792 0003 25       		.uleb128 0x25
 5793 0004 0E       		.uleb128 0xe
 5794 0005 13       		.uleb128 0x13
 5795 0006 0B       		.uleb128 0xb
 5796 0007 03       		.uleb128 0x3
 5797 0008 0E       		.uleb128 0xe
 5798 0009 1B       		.uleb128 0x1b
 5799 000a 0E       		.uleb128 0xe
 5800 000b 55       		.uleb128 0x55
 5801 000c 06       		.uleb128 0x6
 5802 000d 11       		.uleb128 0x11
 5803 000e 01       		.uleb128 0x1
 5804 000f 52       		.uleb128 0x52
 5805 0010 01       		.uleb128 0x1
 5806 0011 10       		.uleb128 0x10
 5807 0012 06       		.uleb128 0x6
 5808 0013 00       		.byte	0
 5809 0014 00       		.byte	0
 5810 0015 02       		.uleb128 0x2
 5811 0016 24       		.uleb128 0x24
 5812 0017 00       		.byte	0
 5813 0018 0B       		.uleb128 0xb
 5814 0019 0B       		.uleb128 0xb
 5815 001a 3E       		.uleb128 0x3e
 5816 001b 0B       		.uleb128 0xb
 5817 001c 03       		.uleb128 0x3
 5818 001d 0E       		.uleb128 0xe
 5819 001e 00       		.byte	0
 5820 001f 00       		.byte	0
 5821 0020 03       		.uleb128 0x3
 5822 0021 24       		.uleb128 0x24
 5823 0022 00       		.byte	0
 5824 0023 0B       		.uleb128 0xb
 5825 0024 0B       		.uleb128 0xb
 5826 0025 3E       		.uleb128 0x3e
 5827 0026 0B       		.uleb128 0xb
 5828 0027 03       		.uleb128 0x3
 5829 0028 08       		.uleb128 0x8
 5830 0029 00       		.byte	0
 5831 002a 00       		.byte	0
ARM GAS  C:\Users\EBANO_~1\AppData\Local\Temp\ccizkeXa.s 			page 113


 5832 002b 04       		.uleb128 0x4
 5833 002c 16       		.uleb128 0x16
 5834 002d 00       		.byte	0
 5835 002e 03       		.uleb128 0x3
 5836 002f 0E       		.uleb128 0xe
 5837 0030 3A       		.uleb128 0x3a
 5838 0031 0B       		.uleb128 0xb
 5839 0032 3B       		.uleb128 0x3b
 5840 0033 0B       		.uleb128 0xb
 5841 0034 49       		.uleb128 0x49
 5842 0035 13       		.uleb128 0x13
 5843 0036 00       		.byte	0
 5844 0037 00       		.byte	0
 5845 0038 05       		.uleb128 0x5
 5846 0039 0F       		.uleb128 0xf
 5847 003a 00       		.byte	0
 5848 003b 0B       		.uleb128 0xb
 5849 003c 0B       		.uleb128 0xb
 5850 003d 49       		.uleb128 0x49
 5851 003e 13       		.uleb128 0x13
 5852 003f 00       		.byte	0
 5853 0040 00       		.byte	0
 5854 0041 06       		.uleb128 0x6
 5855 0042 13       		.uleb128 0x13
 5856 0043 00       		.byte	0
 5857 0044 03       		.uleb128 0x3
 5858 0045 0E       		.uleb128 0xe
 5859 0046 3C       		.uleb128 0x3c
 5860 0047 0C       		.uleb128 0xc
 5861 0048 00       		.byte	0
 5862 0049 00       		.byte	0
 5863 004a 07       		.uleb128 0x7
 5864 004b 16       		.uleb128 0x16
 5865 004c 00       		.byte	0
 5866 004d 03       		.uleb128 0x3
 5867 004e 0E       		.uleb128 0xe
 5868 004f 3A       		.uleb128 0x3a
 5869 0050 0B       		.uleb128 0xb
 5870 0051 3B       		.uleb128 0x3b
 5871 0052 05       		.uleb128 0x5
 5872 0053 49       		.uleb128 0x49
 5873 0054 13       		.uleb128 0x13
 5874 0055 00       		.byte	0
 5875 0056 00       		.byte	0
 5876 0057 08       		.uleb128 0x8
 5877 0058 17       		.uleb128 0x17
 5878 0059 01       		.byte	0x1
 5879 005a 0B       		.uleb128 0xb
 5880 005b 0B       		.uleb128 0xb
 5881 005c 3A       		.uleb128 0x3a
 5882 005d 0B       		.uleb128 0xb
 5883 005e 3B       		.uleb128 0x3b
 5884 005f 0B       		.uleb128 0xb
 5885 0060 01       		.uleb128 0x1
 5886 0061 13       		.uleb128 0x13
 5887 0062 00       		.byte	0
 5888 0063 00       		.byte	0
ARM GAS  C:\Users\EBANO_~1\AppData\Local\Temp\ccizkeXa.s 			page 114


 5889 0064 09       		.uleb128 0x9
 5890 0065 0D       		.uleb128 0xd
 5891 0066 00       		.byte	0
 5892 0067 03       		.uleb128 0x3
 5893 0068 0E       		.uleb128 0xe
 5894 0069 3A       		.uleb128 0x3a
 5895 006a 0B       		.uleb128 0xb
 5896 006b 3B       		.uleb128 0x3b
 5897 006c 0B       		.uleb128 0xb
 5898 006d 49       		.uleb128 0x49
 5899 006e 13       		.uleb128 0x13
 5900 006f 00       		.byte	0
 5901 0070 00       		.byte	0
 5902 0071 0A       		.uleb128 0xa
 5903 0072 01       		.uleb128 0x1
 5904 0073 01       		.byte	0x1
 5905 0074 49       		.uleb128 0x49
 5906 0075 13       		.uleb128 0x13
 5907 0076 01       		.uleb128 0x1
 5908 0077 13       		.uleb128 0x13
 5909 0078 00       		.byte	0
 5910 0079 00       		.byte	0
 5911 007a 0B       		.uleb128 0xb
 5912 007b 21       		.uleb128 0x21
 5913 007c 00       		.byte	0
 5914 007d 49       		.uleb128 0x49
 5915 007e 13       		.uleb128 0x13
 5916 007f 2F       		.uleb128 0x2f
 5917 0080 0B       		.uleb128 0xb
 5918 0081 00       		.byte	0
 5919 0082 00       		.byte	0
 5920 0083 0C       		.uleb128 0xc
 5921 0084 13       		.uleb128 0x13
 5922 0085 01       		.byte	0x1
 5923 0086 0B       		.uleb128 0xb
 5924 0087 0B       		.uleb128 0xb
 5925 0088 3A       		.uleb128 0x3a
 5926 0089 0B       		.uleb128 0xb
 5927 008a 3B       		.uleb128 0x3b
 5928 008b 0B       		.uleb128 0xb
 5929 008c 01       		.uleb128 0x1
 5930 008d 13       		.uleb128 0x13
 5931 008e 00       		.byte	0
 5932 008f 00       		.byte	0
 5933 0090 0D       		.uleb128 0xd
 5934 0091 0D       		.uleb128 0xd
 5935 0092 00       		.byte	0
 5936 0093 03       		.uleb128 0x3
 5937 0094 0E       		.uleb128 0xe
 5938 0095 3A       		.uleb128 0x3a
 5939 0096 0B       		.uleb128 0xb
 5940 0097 3B       		.uleb128 0x3b
 5941 0098 0B       		.uleb128 0xb
 5942 0099 49       		.uleb128 0x49
 5943 009a 13       		.uleb128 0x13
 5944 009b 38       		.uleb128 0x38
 5945 009c 0A       		.uleb128 0xa
ARM GAS  C:\Users\EBANO_~1\AppData\Local\Temp\ccizkeXa.s 			page 115


 5946 009d 00       		.byte	0
 5947 009e 00       		.byte	0
 5948 009f 0E       		.uleb128 0xe
 5949 00a0 0F       		.uleb128 0xf
 5950 00a1 00       		.byte	0
 5951 00a2 0B       		.uleb128 0xb
 5952 00a3 0B       		.uleb128 0xb
 5953 00a4 00       		.byte	0
 5954 00a5 00       		.byte	0
 5955 00a6 0F       		.uleb128 0xf
 5956 00a7 26       		.uleb128 0x26
 5957 00a8 00       		.byte	0
 5958 00a9 49       		.uleb128 0x49
 5959 00aa 13       		.uleb128 0x13
 5960 00ab 00       		.byte	0
 5961 00ac 00       		.byte	0
 5962 00ad 10       		.uleb128 0x10
 5963 00ae 13       		.uleb128 0x13
 5964 00af 01       		.byte	0x1
 5965 00b0 03       		.uleb128 0x3
 5966 00b1 0E       		.uleb128 0xe
 5967 00b2 0B       		.uleb128 0xb
 5968 00b3 0B       		.uleb128 0xb
 5969 00b4 3A       		.uleb128 0x3a
 5970 00b5 0B       		.uleb128 0xb
 5971 00b6 3B       		.uleb128 0x3b
 5972 00b7 0B       		.uleb128 0xb
 5973 00b8 01       		.uleb128 0x1
 5974 00b9 13       		.uleb128 0x13
 5975 00ba 00       		.byte	0
 5976 00bb 00       		.byte	0
 5977 00bc 11       		.uleb128 0x11
 5978 00bd 0D       		.uleb128 0xd
 5979 00be 00       		.byte	0
 5980 00bf 03       		.uleb128 0x3
 5981 00c0 08       		.uleb128 0x8
 5982 00c1 3A       		.uleb128 0x3a
 5983 00c2 0B       		.uleb128 0xb
 5984 00c3 3B       		.uleb128 0x3b
 5985 00c4 0B       		.uleb128 0xb
 5986 00c5 49       		.uleb128 0x49
 5987 00c6 13       		.uleb128 0x13
 5988 00c7 38       		.uleb128 0x38
 5989 00c8 0A       		.uleb128 0xa
 5990 00c9 00       		.byte	0
 5991 00ca 00       		.byte	0
 5992 00cb 12       		.uleb128 0x12
 5993 00cc 13       		.uleb128 0x13
 5994 00cd 01       		.byte	0x1
 5995 00ce 03       		.uleb128 0x3
 5996 00cf 0E       		.uleb128 0xe
 5997 00d0 0B       		.uleb128 0xb
 5998 00d1 05       		.uleb128 0x5
 5999 00d2 3A       		.uleb128 0x3a
 6000 00d3 0B       		.uleb128 0xb
 6001 00d4 3B       		.uleb128 0x3b
 6002 00d5 0B       		.uleb128 0xb
ARM GAS  C:\Users\EBANO_~1\AppData\Local\Temp\ccizkeXa.s 			page 116


 6003 00d6 01       		.uleb128 0x1
 6004 00d7 13       		.uleb128 0x13
 6005 00d8 00       		.byte	0
 6006 00d9 00       		.byte	0
 6007 00da 13       		.uleb128 0x13
 6008 00db 15       		.uleb128 0x15
 6009 00dc 00       		.byte	0
 6010 00dd 27       		.uleb128 0x27
 6011 00de 0C       		.uleb128 0xc
 6012 00df 00       		.byte	0
 6013 00e0 00       		.byte	0
 6014 00e1 14       		.uleb128 0x14
 6015 00e2 15       		.uleb128 0x15
 6016 00e3 01       		.byte	0x1
 6017 00e4 27       		.uleb128 0x27
 6018 00e5 0C       		.uleb128 0xc
 6019 00e6 49       		.uleb128 0x49
 6020 00e7 13       		.uleb128 0x13
 6021 00e8 01       		.uleb128 0x1
 6022 00e9 13       		.uleb128 0x13
 6023 00ea 00       		.byte	0
 6024 00eb 00       		.byte	0
 6025 00ec 15       		.uleb128 0x15
 6026 00ed 05       		.uleb128 0x5
 6027 00ee 00       		.byte	0
 6028 00ef 49       		.uleb128 0x49
 6029 00f0 13       		.uleb128 0x13
 6030 00f1 00       		.byte	0
 6031 00f2 00       		.byte	0
 6032 00f3 16       		.uleb128 0x16
 6033 00f4 13       		.uleb128 0x13
 6034 00f5 01       		.byte	0x1
 6035 00f6 03       		.uleb128 0x3
 6036 00f7 0E       		.uleb128 0xe
 6037 00f8 0B       		.uleb128 0xb
 6038 00f9 05       		.uleb128 0x5
 6039 00fa 3A       		.uleb128 0x3a
 6040 00fb 0B       		.uleb128 0xb
 6041 00fc 3B       		.uleb128 0x3b
 6042 00fd 05       		.uleb128 0x5
 6043 00fe 01       		.uleb128 0x1
 6044 00ff 13       		.uleb128 0x13
 6045 0100 00       		.byte	0
 6046 0101 00       		.byte	0
 6047 0102 17       		.uleb128 0x17
 6048 0103 0D       		.uleb128 0xd
 6049 0104 00       		.byte	0
 6050 0105 03       		.uleb128 0x3
 6051 0106 0E       		.uleb128 0xe
 6052 0107 3A       		.uleb128 0x3a
 6053 0108 0B       		.uleb128 0xb
 6054 0109 3B       		.uleb128 0x3b
 6055 010a 05       		.uleb128 0x5
 6056 010b 49       		.uleb128 0x49
 6057 010c 13       		.uleb128 0x13
 6058 010d 38       		.uleb128 0x38
 6059 010e 0A       		.uleb128 0xa
ARM GAS  C:\Users\EBANO_~1\AppData\Local\Temp\ccizkeXa.s 			page 117


 6060 010f 00       		.byte	0
 6061 0110 00       		.byte	0
 6062 0111 18       		.uleb128 0x18
 6063 0112 13       		.uleb128 0x13
 6064 0113 01       		.byte	0x1
 6065 0114 03       		.uleb128 0x3
 6066 0115 0E       		.uleb128 0xe
 6067 0116 0B       		.uleb128 0xb
 6068 0117 0B       		.uleb128 0xb
 6069 0118 3A       		.uleb128 0x3a
 6070 0119 0B       		.uleb128 0xb
 6071 011a 3B       		.uleb128 0x3b
 6072 011b 05       		.uleb128 0x5
 6073 011c 01       		.uleb128 0x1
 6074 011d 13       		.uleb128 0x13
 6075 011e 00       		.byte	0
 6076 011f 00       		.byte	0
 6077 0120 19       		.uleb128 0x19
 6078 0121 13       		.uleb128 0x13
 6079 0122 01       		.byte	0x1
 6080 0123 0B       		.uleb128 0xb
 6081 0124 0B       		.uleb128 0xb
 6082 0125 3A       		.uleb128 0x3a
 6083 0126 0B       		.uleb128 0xb
 6084 0127 3B       		.uleb128 0x3b
 6085 0128 05       		.uleb128 0x5
 6086 0129 01       		.uleb128 0x1
 6087 012a 13       		.uleb128 0x13
 6088 012b 00       		.byte	0
 6089 012c 00       		.byte	0
 6090 012d 1A       		.uleb128 0x1a
 6091 012e 17       		.uleb128 0x17
 6092 012f 01       		.byte	0x1
 6093 0130 0B       		.uleb128 0xb
 6094 0131 0B       		.uleb128 0xb
 6095 0132 3A       		.uleb128 0x3a
 6096 0133 0B       		.uleb128 0xb
 6097 0134 3B       		.uleb128 0x3b
 6098 0135 05       		.uleb128 0x5
 6099 0136 01       		.uleb128 0x1
 6100 0137 13       		.uleb128 0x13
 6101 0138 00       		.byte	0
 6102 0139 00       		.byte	0
 6103 013a 1B       		.uleb128 0x1b
 6104 013b 0D       		.uleb128 0xd
 6105 013c 00       		.byte	0
 6106 013d 03       		.uleb128 0x3
 6107 013e 0E       		.uleb128 0xe
 6108 013f 3A       		.uleb128 0x3a
 6109 0140 0B       		.uleb128 0xb
 6110 0141 3B       		.uleb128 0x3b
 6111 0142 05       		.uleb128 0x5
 6112 0143 49       		.uleb128 0x49
 6113 0144 13       		.uleb128 0x13
 6114 0145 00       		.byte	0
 6115 0146 00       		.byte	0
 6116 0147 1C       		.uleb128 0x1c
ARM GAS  C:\Users\EBANO_~1\AppData\Local\Temp\ccizkeXa.s 			page 118


 6117 0148 15       		.uleb128 0x15
 6118 0149 01       		.byte	0x1
 6119 014a 27       		.uleb128 0x27
 6120 014b 0C       		.uleb128 0xc
 6121 014c 01       		.uleb128 0x1
 6122 014d 13       		.uleb128 0x13
 6123 014e 00       		.byte	0
 6124 014f 00       		.byte	0
 6125 0150 1D       		.uleb128 0x1d
 6126 0151 34       		.uleb128 0x34
 6127 0152 00       		.byte	0
 6128 0153 03       		.uleb128 0x3
 6129 0154 0E       		.uleb128 0xe
 6130 0155 3A       		.uleb128 0x3a
 6131 0156 0B       		.uleb128 0xb
 6132 0157 3B       		.uleb128 0x3b
 6133 0158 05       		.uleb128 0x5
 6134 0159 49       		.uleb128 0x49
 6135 015a 13       		.uleb128 0x13
 6136 015b 3F       		.uleb128 0x3f
 6137 015c 0C       		.uleb128 0xc
 6138 015d 3C       		.uleb128 0x3c
 6139 015e 0C       		.uleb128 0xc
 6140 015f 00       		.byte	0
 6141 0160 00       		.byte	0
 6142 0161 1E       		.uleb128 0x1e
 6143 0162 04       		.uleb128 0x4
 6144 0163 01       		.byte	0x1
 6145 0164 03       		.uleb128 0x3
 6146 0165 0E       		.uleb128 0xe
 6147 0166 3E       		.uleb128 0x3e
 6148 0167 0B       		.uleb128 0xb
 6149 0168 0B       		.uleb128 0xb
 6150 0169 0B       		.uleb128 0xb
 6151 016a 49       		.uleb128 0x49
 6152 016b 13       		.uleb128 0x13
 6153 016c 3A       		.uleb128 0x3a
 6154 016d 0B       		.uleb128 0xb
 6155 016e 3B       		.uleb128 0x3b
 6156 016f 05       		.uleb128 0x5
 6157 0170 01       		.uleb128 0x1
 6158 0171 13       		.uleb128 0x13
 6159 0172 00       		.byte	0
 6160 0173 00       		.byte	0
 6161 0174 1F       		.uleb128 0x1f
 6162 0175 28       		.uleb128 0x28
 6163 0176 00       		.byte	0
 6164 0177 03       		.uleb128 0x3
 6165 0178 0E       		.uleb128 0xe
 6166 0179 1C       		.uleb128 0x1c
 6167 017a 0D       		.uleb128 0xd
 6168 017b 00       		.byte	0
 6169 017c 00       		.byte	0
 6170 017d 20       		.uleb128 0x20
 6171 017e 28       		.uleb128 0x28
 6172 017f 00       		.byte	0
 6173 0180 03       		.uleb128 0x3
ARM GAS  C:\Users\EBANO_~1\AppData\Local\Temp\ccizkeXa.s 			page 119


 6174 0181 0E       		.uleb128 0xe
 6175 0182 1C       		.uleb128 0x1c
 6176 0183 0B       		.uleb128 0xb
 6177 0184 00       		.byte	0
 6178 0185 00       		.byte	0
 6179 0186 21       		.uleb128 0x21
 6180 0187 04       		.uleb128 0x4
 6181 0188 01       		.byte	0x1
 6182 0189 3E       		.uleb128 0x3e
 6183 018a 0B       		.uleb128 0xb
 6184 018b 0B       		.uleb128 0xb
 6185 018c 0B       		.uleb128 0xb
 6186 018d 49       		.uleb128 0x49
 6187 018e 13       		.uleb128 0x13
 6188 018f 3A       		.uleb128 0x3a
 6189 0190 0B       		.uleb128 0xb
 6190 0191 3B       		.uleb128 0x3b
 6191 0192 0B       		.uleb128 0xb
 6192 0193 01       		.uleb128 0x1
 6193 0194 13       		.uleb128 0x13
 6194 0195 00       		.byte	0
 6195 0196 00       		.byte	0
 6196 0197 22       		.uleb128 0x22
 6197 0198 0D       		.uleb128 0xd
 6198 0199 00       		.byte	0
 6199 019a 03       		.uleb128 0x3
 6200 019b 08       		.uleb128 0x8
 6201 019c 3A       		.uleb128 0x3a
 6202 019d 0B       		.uleb128 0xb
 6203 019e 3B       		.uleb128 0x3b
 6204 019f 05       		.uleb128 0x5
 6205 01a0 49       		.uleb128 0x49
 6206 01a1 13       		.uleb128 0x13
 6207 01a2 38       		.uleb128 0x38
 6208 01a3 0A       		.uleb128 0xa
 6209 01a4 00       		.byte	0
 6210 01a5 00       		.byte	0
 6211 01a6 23       		.uleb128 0x23
 6212 01a7 15       		.uleb128 0x15
 6213 01a8 00       		.byte	0
 6214 01a9 27       		.uleb128 0x27
 6215 01aa 0C       		.uleb128 0xc
 6216 01ab 49       		.uleb128 0x49
 6217 01ac 13       		.uleb128 0x13
 6218 01ad 00       		.byte	0
 6219 01ae 00       		.byte	0
 6220 01af 24       		.uleb128 0x24
 6221 01b0 34       		.uleb128 0x34
 6222 01b1 00       		.byte	0
 6223 01b2 03       		.uleb128 0x3
 6224 01b3 0E       		.uleb128 0xe
 6225 01b4 3A       		.uleb128 0x3a
 6226 01b5 0B       		.uleb128 0xb
 6227 01b6 3B       		.uleb128 0x3b
 6228 01b7 0B       		.uleb128 0xb
 6229 01b8 49       		.uleb128 0x49
 6230 01b9 13       		.uleb128 0x13
ARM GAS  C:\Users\EBANO_~1\AppData\Local\Temp\ccizkeXa.s 			page 120


 6231 01ba 3F       		.uleb128 0x3f
 6232 01bb 0C       		.uleb128 0xc
 6233 01bc 3C       		.uleb128 0x3c
 6234 01bd 0C       		.uleb128 0xc
 6235 01be 00       		.byte	0
 6236 01bf 00       		.byte	0
 6237 01c0 25       		.uleb128 0x25
 6238 01c1 17       		.uleb128 0x17
 6239 01c2 01       		.byte	0x1
 6240 01c3 03       		.uleb128 0x3
 6241 01c4 0E       		.uleb128 0xe
 6242 01c5 0B       		.uleb128 0xb
 6243 01c6 0B       		.uleb128 0xb
 6244 01c7 3A       		.uleb128 0x3a
 6245 01c8 0B       		.uleb128 0xb
 6246 01c9 3B       		.uleb128 0x3b
 6247 01ca 0B       		.uleb128 0xb
 6248 01cb 01       		.uleb128 0x1
 6249 01cc 13       		.uleb128 0x13
 6250 01cd 00       		.byte	0
 6251 01ce 00       		.byte	0
 6252 01cf 26       		.uleb128 0x26
 6253 01d0 0D       		.uleb128 0xd
 6254 01d1 00       		.byte	0
 6255 01d2 03       		.uleb128 0x3
 6256 01d3 08       		.uleb128 0x8
 6257 01d4 3A       		.uleb128 0x3a
 6258 01d5 0B       		.uleb128 0xb
 6259 01d6 3B       		.uleb128 0x3b
 6260 01d7 0B       		.uleb128 0xb
 6261 01d8 49       		.uleb128 0x49
 6262 01d9 13       		.uleb128 0x13
 6263 01da 0B       		.uleb128 0xb
 6264 01db 0B       		.uleb128 0xb
 6265 01dc 0D       		.uleb128 0xd
 6266 01dd 0B       		.uleb128 0xb
 6267 01de 0C       		.uleb128 0xc
 6268 01df 0B       		.uleb128 0xb
 6269 01e0 38       		.uleb128 0x38
 6270 01e1 0A       		.uleb128 0xa
 6271 01e2 00       		.byte	0
 6272 01e3 00       		.byte	0
 6273 01e4 27       		.uleb128 0x27
 6274 01e5 34       		.uleb128 0x34
 6275 01e6 00       		.byte	0
 6276 01e7 03       		.uleb128 0x3
 6277 01e8 0E       		.uleb128 0xe
 6278 01e9 3A       		.uleb128 0x3a
 6279 01ea 0B       		.uleb128 0xb
 6280 01eb 3B       		.uleb128 0x3b
 6281 01ec 05       		.uleb128 0x5
 6282 01ed 49       		.uleb128 0x49
 6283 01ee 13       		.uleb128 0x13
 6284 01ef 1C       		.uleb128 0x1c
 6285 01f0 0A       		.uleb128 0xa
 6286 01f1 00       		.byte	0
 6287 01f2 00       		.byte	0
ARM GAS  C:\Users\EBANO_~1\AppData\Local\Temp\ccizkeXa.s 			page 121


 6288 01f3 28       		.uleb128 0x28
 6289 01f4 2E       		.uleb128 0x2e
 6290 01f5 01       		.byte	0x1
 6291 01f6 3F       		.uleb128 0x3f
 6292 01f7 0C       		.uleb128 0xc
 6293 01f8 03       		.uleb128 0x3
 6294 01f9 0E       		.uleb128 0xe
 6295 01fa 3A       		.uleb128 0x3a
 6296 01fb 0B       		.uleb128 0xb
 6297 01fc 3B       		.uleb128 0x3b
 6298 01fd 05       		.uleb128 0x5
 6299 01fe 27       		.uleb128 0x27
 6300 01ff 0C       		.uleb128 0xc
 6301 0200 11       		.uleb128 0x11
 6302 0201 01       		.uleb128 0x1
 6303 0202 12       		.uleb128 0x12
 6304 0203 01       		.uleb128 0x1
 6305 0204 40       		.uleb128 0x40
 6306 0205 06       		.uleb128 0x6
 6307 0206 9742     		.uleb128 0x2117
 6308 0208 0C       		.uleb128 0xc
 6309 0209 01       		.uleb128 0x1
 6310 020a 13       		.uleb128 0x13
 6311 020b 00       		.byte	0
 6312 020c 00       		.byte	0
 6313 020d 29       		.uleb128 0x29
 6314 020e 05       		.uleb128 0x5
 6315 020f 00       		.byte	0
 6316 0210 03       		.uleb128 0x3
 6317 0211 0E       		.uleb128 0xe
 6318 0212 3A       		.uleb128 0x3a
 6319 0213 0B       		.uleb128 0xb
 6320 0214 3B       		.uleb128 0x3b
 6321 0215 05       		.uleb128 0x5
 6322 0216 49       		.uleb128 0x49
 6323 0217 13       		.uleb128 0x13
 6324 0218 02       		.uleb128 0x2
 6325 0219 06       		.uleb128 0x6
 6326 021a 00       		.byte	0
 6327 021b 00       		.byte	0
 6328 021c 2A       		.uleb128 0x2a
 6329 021d 34       		.uleb128 0x34
 6330 021e 00       		.byte	0
 6331 021f 03       		.uleb128 0x3
 6332 0220 0E       		.uleb128 0xe
 6333 0221 3A       		.uleb128 0x3a
 6334 0222 0B       		.uleb128 0xb
 6335 0223 3B       		.uleb128 0x3b
 6336 0224 05       		.uleb128 0x5
 6337 0225 49       		.uleb128 0x49
 6338 0226 13       		.uleb128 0x13
 6339 0227 02       		.uleb128 0x2
 6340 0228 06       		.uleb128 0x6
 6341 0229 00       		.byte	0
 6342 022a 00       		.byte	0
 6343 022b 2B       		.uleb128 0x2b
 6344 022c 898201   		.uleb128 0x4109
ARM GAS  C:\Users\EBANO_~1\AppData\Local\Temp\ccizkeXa.s 			page 122


 6345 022f 00       		.byte	0
 6346 0230 11       		.uleb128 0x11
 6347 0231 01       		.uleb128 0x1
 6348 0232 9342     		.uleb128 0x2113
 6349 0234 0A       		.uleb128 0xa
 6350 0235 00       		.byte	0
 6351 0236 00       		.byte	0
 6352 0237 2C       		.uleb128 0x2c
 6353 0238 898201   		.uleb128 0x4109
 6354 023b 01       		.byte	0x1
 6355 023c 11       		.uleb128 0x11
 6356 023d 01       		.uleb128 0x1
 6357 023e 9342     		.uleb128 0x2113
 6358 0240 0A       		.uleb128 0xa
 6359 0241 01       		.uleb128 0x1
 6360 0242 13       		.uleb128 0x13
 6361 0243 00       		.byte	0
 6362 0244 00       		.byte	0
 6363 0245 2D       		.uleb128 0x2d
 6364 0246 8A8201   		.uleb128 0x410a
 6365 0249 00       		.byte	0
 6366 024a 02       		.uleb128 0x2
 6367 024b 0A       		.uleb128 0xa
 6368 024c 9142     		.uleb128 0x2111
 6369 024e 0A       		.uleb128 0xa
 6370 024f 00       		.byte	0
 6371 0250 00       		.byte	0
 6372 0251 2E       		.uleb128 0x2e
 6373 0252 05       		.uleb128 0x5
 6374 0253 00       		.byte	0
 6375 0254 03       		.uleb128 0x3
 6376 0255 0E       		.uleb128 0xe
 6377 0256 3A       		.uleb128 0x3a
 6378 0257 0B       		.uleb128 0xb
 6379 0258 3B       		.uleb128 0x3b
 6380 0259 05       		.uleb128 0x5
 6381 025a 49       		.uleb128 0x49
 6382 025b 13       		.uleb128 0x13
 6383 025c 02       		.uleb128 0x2
 6384 025d 0A       		.uleb128 0xa
 6385 025e 00       		.byte	0
 6386 025f 00       		.byte	0
 6387 0260 2F       		.uleb128 0x2f
 6388 0261 1D       		.uleb128 0x1d
 6389 0262 01       		.byte	0x1
 6390 0263 31       		.uleb128 0x31
 6391 0264 13       		.uleb128 0x13
 6392 0265 52       		.uleb128 0x52
 6393 0266 01       		.uleb128 0x1
 6394 0267 55       		.uleb128 0x55
 6395 0268 06       		.uleb128 0x6
 6396 0269 58       		.uleb128 0x58
 6397 026a 0B       		.uleb128 0xb
 6398 026b 59       		.uleb128 0x59
 6399 026c 05       		.uleb128 0x5
 6400 026d 00       		.byte	0
 6401 026e 00       		.byte	0
ARM GAS  C:\Users\EBANO_~1\AppData\Local\Temp\ccizkeXa.s 			page 123


 6402 026f 30       		.uleb128 0x30
 6403 0270 05       		.uleb128 0x5
 6404 0271 00       		.byte	0
 6405 0272 31       		.uleb128 0x31
 6406 0273 13       		.uleb128 0x13
 6407 0274 02       		.uleb128 0x2
 6408 0275 06       		.uleb128 0x6
 6409 0276 00       		.byte	0
 6410 0277 00       		.byte	0
 6411 0278 31       		.uleb128 0x31
 6412 0279 0B       		.uleb128 0xb
 6413 027a 01       		.byte	0x1
 6414 027b 55       		.uleb128 0x55
 6415 027c 06       		.uleb128 0x6
 6416 027d 00       		.byte	0
 6417 027e 00       		.byte	0
 6418 027f 32       		.uleb128 0x32
 6419 0280 34       		.uleb128 0x34
 6420 0281 00       		.byte	0
 6421 0282 31       		.uleb128 0x31
 6422 0283 13       		.uleb128 0x13
 6423 0284 00       		.byte	0
 6424 0285 00       		.byte	0
 6425 0286 33       		.uleb128 0x33
 6426 0287 2E       		.uleb128 0x2e
 6427 0288 01       		.byte	0x1
 6428 0289 3F       		.uleb128 0x3f
 6429 028a 0C       		.uleb128 0xc
 6430 028b 03       		.uleb128 0x3
 6431 028c 0E       		.uleb128 0xe
 6432 028d 3A       		.uleb128 0x3a
 6433 028e 0B       		.uleb128 0xb
 6434 028f 3B       		.uleb128 0x3b
 6435 0290 05       		.uleb128 0x5
 6436 0291 27       		.uleb128 0x27
 6437 0292 0C       		.uleb128 0xc
 6438 0293 49       		.uleb128 0x49
 6439 0294 13       		.uleb128 0x13
 6440 0295 11       		.uleb128 0x11
 6441 0296 01       		.uleb128 0x1
 6442 0297 12       		.uleb128 0x12
 6443 0298 01       		.uleb128 0x1
 6444 0299 40       		.uleb128 0x40
 6445 029a 06       		.uleb128 0x6
 6446 029b 9642     		.uleb128 0x2116
 6447 029d 0C       		.uleb128 0xc
 6448 029e 01       		.uleb128 0x1
 6449 029f 13       		.uleb128 0x13
 6450 02a0 00       		.byte	0
 6451 02a1 00       		.byte	0
 6452 02a2 34       		.uleb128 0x34
 6453 02a3 898201   		.uleb128 0x4109
 6454 02a6 00       		.byte	0
 6455 02a7 11       		.uleb128 0x11
 6456 02a8 01       		.uleb128 0x1
 6457 02a9 31       		.uleb128 0x31
 6458 02aa 13       		.uleb128 0x13
ARM GAS  C:\Users\EBANO_~1\AppData\Local\Temp\ccizkeXa.s 			page 124


 6459 02ab 00       		.byte	0
 6460 02ac 00       		.byte	0
 6461 02ad 35       		.uleb128 0x35
 6462 02ae 2E       		.uleb128 0x2e
 6463 02af 01       		.byte	0x1
 6464 02b0 3F       		.uleb128 0x3f
 6465 02b1 0C       		.uleb128 0xc
 6466 02b2 03       		.uleb128 0x3
 6467 02b3 0E       		.uleb128 0xe
 6468 02b4 3A       		.uleb128 0x3a
 6469 02b5 0B       		.uleb128 0xb
 6470 02b6 3B       		.uleb128 0x3b
 6471 02b7 05       		.uleb128 0x5
 6472 02b8 27       		.uleb128 0x27
 6473 02b9 0C       		.uleb128 0xc
 6474 02ba 11       		.uleb128 0x11
 6475 02bb 01       		.uleb128 0x1
 6476 02bc 12       		.uleb128 0x12
 6477 02bd 01       		.uleb128 0x1
 6478 02be 40       		.uleb128 0x40
 6479 02bf 06       		.uleb128 0x6
 6480 02c0 9642     		.uleb128 0x2116
 6481 02c2 0C       		.uleb128 0xc
 6482 02c3 01       		.uleb128 0x1
 6483 02c4 13       		.uleb128 0x13
 6484 02c5 00       		.byte	0
 6485 02c6 00       		.byte	0
 6486 02c7 36       		.uleb128 0x36
 6487 02c8 2E       		.uleb128 0x2e
 6488 02c9 01       		.byte	0x1
 6489 02ca 3F       		.uleb128 0x3f
 6490 02cb 0C       		.uleb128 0xc
 6491 02cc 03       		.uleb128 0x3
 6492 02cd 0E       		.uleb128 0xe
 6493 02ce 3A       		.uleb128 0x3a
 6494 02cf 0B       		.uleb128 0xb
 6495 02d0 3B       		.uleb128 0x3b
 6496 02d1 0B       		.uleb128 0xb
 6497 02d2 27       		.uleb128 0x27
 6498 02d3 0C       		.uleb128 0xc
 6499 02d4 49       		.uleb128 0x49
 6500 02d5 13       		.uleb128 0x13
 6501 02d6 11       		.uleb128 0x11
 6502 02d7 01       		.uleb128 0x1
 6503 02d8 12       		.uleb128 0x12
 6504 02d9 01       		.uleb128 0x1
 6505 02da 40       		.uleb128 0x40
 6506 02db 06       		.uleb128 0x6
 6507 02dc 9742     		.uleb128 0x2117
 6508 02de 0C       		.uleb128 0xc
 6509 02df 01       		.uleb128 0x1
 6510 02e0 13       		.uleb128 0x13
 6511 02e1 00       		.byte	0
 6512 02e2 00       		.byte	0
 6513 02e3 37       		.uleb128 0x37
 6514 02e4 05       		.uleb128 0x5
 6515 02e5 00       		.byte	0
ARM GAS  C:\Users\EBANO_~1\AppData\Local\Temp\ccizkeXa.s 			page 125


 6516 02e6 03       		.uleb128 0x3
 6517 02e7 0E       		.uleb128 0xe
 6518 02e8 3A       		.uleb128 0x3a
 6519 02e9 0B       		.uleb128 0xb
 6520 02ea 3B       		.uleb128 0x3b
 6521 02eb 0B       		.uleb128 0xb
 6522 02ec 49       		.uleb128 0x49
 6523 02ed 13       		.uleb128 0x13
 6524 02ee 02       		.uleb128 0x2
 6525 02ef 06       		.uleb128 0x6
 6526 02f0 00       		.byte	0
 6527 02f1 00       		.byte	0
 6528 02f2 38       		.uleb128 0x38
 6529 02f3 05       		.uleb128 0x5
 6530 02f4 00       		.byte	0
 6531 02f5 03       		.uleb128 0x3
 6532 02f6 08       		.uleb128 0x8
 6533 02f7 3A       		.uleb128 0x3a
 6534 02f8 0B       		.uleb128 0xb
 6535 02f9 3B       		.uleb128 0x3b
 6536 02fa 0B       		.uleb128 0xb
 6537 02fb 49       		.uleb128 0x49
 6538 02fc 13       		.uleb128 0x13
 6539 02fd 02       		.uleb128 0x2
 6540 02fe 06       		.uleb128 0x6
 6541 02ff 00       		.byte	0
 6542 0300 00       		.byte	0
 6543 0301 39       		.uleb128 0x39
 6544 0302 34       		.uleb128 0x34
 6545 0303 00       		.byte	0
 6546 0304 03       		.uleb128 0x3
 6547 0305 0E       		.uleb128 0xe
 6548 0306 3A       		.uleb128 0x3a
 6549 0307 0B       		.uleb128 0xb
 6550 0308 3B       		.uleb128 0x3b
 6551 0309 0B       		.uleb128 0xb
 6552 030a 49       		.uleb128 0x49
 6553 030b 13       		.uleb128 0x13
 6554 030c 02       		.uleb128 0x2
 6555 030d 06       		.uleb128 0x6
 6556 030e 00       		.byte	0
 6557 030f 00       		.byte	0
 6558 0310 3A       		.uleb128 0x3a
 6559 0311 1D       		.uleb128 0x1d
 6560 0312 01       		.byte	0x1
 6561 0313 31       		.uleb128 0x31
 6562 0314 13       		.uleb128 0x13
 6563 0315 52       		.uleb128 0x52
 6564 0316 01       		.uleb128 0x1
 6565 0317 55       		.uleb128 0x55
 6566 0318 06       		.uleb128 0x6
 6567 0319 58       		.uleb128 0x58
 6568 031a 0B       		.uleb128 0xb
 6569 031b 59       		.uleb128 0x59
 6570 031c 0B       		.uleb128 0xb
 6571 031d 01       		.uleb128 0x1
 6572 031e 13       		.uleb128 0x13
ARM GAS  C:\Users\EBANO_~1\AppData\Local\Temp\ccizkeXa.s 			page 126


 6573 031f 00       		.byte	0
 6574 0320 00       		.byte	0
 6575 0321 3B       		.uleb128 0x3b
 6576 0322 05       		.uleb128 0x5
 6577 0323 00       		.byte	0
 6578 0324 31       		.uleb128 0x31
 6579 0325 13       		.uleb128 0x13
 6580 0326 02       		.uleb128 0x2
 6581 0327 0A       		.uleb128 0xa
 6582 0328 00       		.byte	0
 6583 0329 00       		.byte	0
 6584 032a 3C       		.uleb128 0x3c
 6585 032b 0B       		.uleb128 0xb
 6586 032c 01       		.byte	0x1
 6587 032d 31       		.uleb128 0x31
 6588 032e 13       		.uleb128 0x13
 6589 032f 55       		.uleb128 0x55
 6590 0330 06       		.uleb128 0x6
 6591 0331 00       		.byte	0
 6592 0332 00       		.byte	0
 6593 0333 3D       		.uleb128 0x3d
 6594 0334 05       		.uleb128 0x5
 6595 0335 00       		.byte	0
 6596 0336 31       		.uleb128 0x31
 6597 0337 13       		.uleb128 0x13
 6598 0338 00       		.byte	0
 6599 0339 00       		.byte	0
 6600 033a 3E       		.uleb128 0x3e
 6601 033b 34       		.uleb128 0x34
 6602 033c 00       		.byte	0
 6603 033d 31       		.uleb128 0x31
 6604 033e 13       		.uleb128 0x13
 6605 033f 02       		.uleb128 0x2
 6606 0340 06       		.uleb128 0x6
 6607 0341 00       		.byte	0
 6608 0342 00       		.byte	0
 6609 0343 3F       		.uleb128 0x3f
 6610 0344 1D       		.uleb128 0x1d
 6611 0345 01       		.byte	0x1
 6612 0346 31       		.uleb128 0x31
 6613 0347 13       		.uleb128 0x13
 6614 0348 52       		.uleb128 0x52
 6615 0349 01       		.uleb128 0x1
 6616 034a 55       		.uleb128 0x55
 6617 034b 06       		.uleb128 0x6
 6618 034c 58       		.uleb128 0x58
 6619 034d 0B       		.uleb128 0xb
 6620 034e 59       		.uleb128 0x59
 6621 034f 0B       		.uleb128 0xb
 6622 0350 00       		.byte	0
 6623 0351 00       		.byte	0
 6624 0352 40       		.uleb128 0x40
 6625 0353 1D       		.uleb128 0x1d
 6626 0354 01       		.byte	0x1
 6627 0355 31       		.uleb128 0x31
 6628 0356 13       		.uleb128 0x13
 6629 0357 11       		.uleb128 0x11
ARM GAS  C:\Users\EBANO_~1\AppData\Local\Temp\ccizkeXa.s 			page 127


 6630 0358 01       		.uleb128 0x1
 6631 0359 12       		.uleb128 0x12
 6632 035a 01       		.uleb128 0x1
 6633 035b 58       		.uleb128 0x58
 6634 035c 0B       		.uleb128 0xb
 6635 035d 59       		.uleb128 0x59
 6636 035e 05       		.uleb128 0x5
 6637 035f 00       		.byte	0
 6638 0360 00       		.byte	0
 6639 0361 41       		.uleb128 0x41
 6640 0362 05       		.uleb128 0x5
 6641 0363 00       		.byte	0
 6642 0364 03       		.uleb128 0x3
 6643 0365 0E       		.uleb128 0xe
 6644 0366 3A       		.uleb128 0x3a
 6645 0367 0B       		.uleb128 0xb
 6646 0368 3B       		.uleb128 0x3b
 6647 0369 0B       		.uleb128 0xb
 6648 036a 49       		.uleb128 0x49
 6649 036b 13       		.uleb128 0x13
 6650 036c 02       		.uleb128 0x2
 6651 036d 0A       		.uleb128 0xa
 6652 036e 00       		.byte	0
 6653 036f 00       		.byte	0
 6654 0370 42       		.uleb128 0x42
 6655 0371 34       		.uleb128 0x34
 6656 0372 00       		.byte	0
 6657 0373 03       		.uleb128 0x3
 6658 0374 08       		.uleb128 0x8
 6659 0375 3A       		.uleb128 0x3a
 6660 0376 0B       		.uleb128 0xb
 6661 0377 3B       		.uleb128 0x3b
 6662 0378 0B       		.uleb128 0xb
 6663 0379 49       		.uleb128 0x49
 6664 037a 13       		.uleb128 0x13
 6665 037b 02       		.uleb128 0x2
 6666 037c 06       		.uleb128 0x6
 6667 037d 00       		.byte	0
 6668 037e 00       		.byte	0
 6669 037f 43       		.uleb128 0x43
 6670 0380 0B       		.uleb128 0xb
 6671 0381 01       		.byte	0x1
 6672 0382 55       		.uleb128 0x55
 6673 0383 06       		.uleb128 0x6
 6674 0384 01       		.uleb128 0x1
 6675 0385 13       		.uleb128 0x13
 6676 0386 00       		.byte	0
 6677 0387 00       		.byte	0
 6678 0388 44       		.uleb128 0x44
 6679 0389 2E       		.uleb128 0x2e
 6680 038a 01       		.byte	0x1
 6681 038b 3F       		.uleb128 0x3f
 6682 038c 0C       		.uleb128 0xc
 6683 038d 03       		.uleb128 0x3
 6684 038e 0E       		.uleb128 0xe
 6685 038f 3A       		.uleb128 0x3a
 6686 0390 0B       		.uleb128 0xb
ARM GAS  C:\Users\EBANO_~1\AppData\Local\Temp\ccizkeXa.s 			page 128


 6687 0391 3B       		.uleb128 0x3b
 6688 0392 0B       		.uleb128 0xb
 6689 0393 27       		.uleb128 0x27
 6690 0394 0C       		.uleb128 0xc
 6691 0395 11       		.uleb128 0x11
 6692 0396 01       		.uleb128 0x1
 6693 0397 12       		.uleb128 0x12
 6694 0398 01       		.uleb128 0x1
 6695 0399 40       		.uleb128 0x40
 6696 039a 0A       		.uleb128 0xa
 6697 039b 9742     		.uleb128 0x2117
 6698 039d 0C       		.uleb128 0xc
 6699 039e 01       		.uleb128 0x1
 6700 039f 13       		.uleb128 0x13
 6701 03a0 00       		.byte	0
 6702 03a1 00       		.byte	0
 6703 03a2 45       		.uleb128 0x45
 6704 03a3 2E       		.uleb128 0x2e
 6705 03a4 01       		.byte	0x1
 6706 03a5 3F       		.uleb128 0x3f
 6707 03a6 0C       		.uleb128 0xc
 6708 03a7 03       		.uleb128 0x3
 6709 03a8 0E       		.uleb128 0xe
 6710 03a9 3A       		.uleb128 0x3a
 6711 03aa 0B       		.uleb128 0xb
 6712 03ab 3B       		.uleb128 0x3b
 6713 03ac 0B       		.uleb128 0xb
 6714 03ad 27       		.uleb128 0x27
 6715 03ae 0C       		.uleb128 0xc
 6716 03af 11       		.uleb128 0x11
 6717 03b0 01       		.uleb128 0x1
 6718 03b1 12       		.uleb128 0x12
 6719 03b2 01       		.uleb128 0x1
 6720 03b3 40       		.uleb128 0x40
 6721 03b4 06       		.uleb128 0x6
 6722 03b5 9742     		.uleb128 0x2117
 6723 03b7 0C       		.uleb128 0xc
 6724 03b8 01       		.uleb128 0x1
 6725 03b9 13       		.uleb128 0x13
 6726 03ba 00       		.byte	0
 6727 03bb 00       		.byte	0
 6728 03bc 46       		.uleb128 0x46
 6729 03bd 2E       		.uleb128 0x2e
 6730 03be 01       		.byte	0x1
 6731 03bf 3F       		.uleb128 0x3f
 6732 03c0 0C       		.uleb128 0xc
 6733 03c1 03       		.uleb128 0x3
 6734 03c2 0E       		.uleb128 0xe
 6735 03c3 3A       		.uleb128 0x3a
 6736 03c4 0B       		.uleb128 0xb
 6737 03c5 3B       		.uleb128 0x3b
 6738 03c6 0B       		.uleb128 0xb
 6739 03c7 27       		.uleb128 0x27
 6740 03c8 0C       		.uleb128 0xc
 6741 03c9 49       		.uleb128 0x49
 6742 03ca 13       		.uleb128 0x13
 6743 03cb 20       		.uleb128 0x20
ARM GAS  C:\Users\EBANO_~1\AppData\Local\Temp\ccizkeXa.s 			page 129


 6744 03cc 0B       		.uleb128 0xb
 6745 03cd 01       		.uleb128 0x1
 6746 03ce 13       		.uleb128 0x13
 6747 03cf 00       		.byte	0
 6748 03d0 00       		.byte	0
 6749 03d1 47       		.uleb128 0x47
 6750 03d2 05       		.uleb128 0x5
 6751 03d3 00       		.byte	0
 6752 03d4 03       		.uleb128 0x3
 6753 03d5 0E       		.uleb128 0xe
 6754 03d6 3A       		.uleb128 0x3a
 6755 03d7 0B       		.uleb128 0xb
 6756 03d8 3B       		.uleb128 0x3b
 6757 03d9 0B       		.uleb128 0xb
 6758 03da 49       		.uleb128 0x49
 6759 03db 13       		.uleb128 0x13
 6760 03dc 00       		.byte	0
 6761 03dd 00       		.byte	0
 6762 03de 48       		.uleb128 0x48
 6763 03df 05       		.uleb128 0x5
 6764 03e0 00       		.byte	0
 6765 03e1 03       		.uleb128 0x3
 6766 03e2 08       		.uleb128 0x8
 6767 03e3 3A       		.uleb128 0x3a
 6768 03e4 0B       		.uleb128 0xb
 6769 03e5 3B       		.uleb128 0x3b
 6770 03e6 0B       		.uleb128 0xb
 6771 03e7 49       		.uleb128 0x49
 6772 03e8 13       		.uleb128 0x13
 6773 03e9 00       		.byte	0
 6774 03ea 00       		.byte	0
 6775 03eb 49       		.uleb128 0x49
 6776 03ec 0B       		.uleb128 0xb
 6777 03ed 01       		.byte	0x1
 6778 03ee 00       		.byte	0
 6779 03ef 00       		.byte	0
 6780 03f0 4A       		.uleb128 0x4a
 6781 03f1 34       		.uleb128 0x34
 6782 03f2 00       		.byte	0
 6783 03f3 03       		.uleb128 0x3
 6784 03f4 08       		.uleb128 0x8
 6785 03f5 3A       		.uleb128 0x3a
 6786 03f6 0B       		.uleb128 0xb
 6787 03f7 3B       		.uleb128 0x3b
 6788 03f8 0B       		.uleb128 0xb
 6789 03f9 49       		.uleb128 0x49
 6790 03fa 13       		.uleb128 0x13
 6791 03fb 00       		.byte	0
 6792 03fc 00       		.byte	0
 6793 03fd 4B       		.uleb128 0x4b
 6794 03fe 34       		.uleb128 0x34
 6795 03ff 00       		.byte	0
 6796 0400 03       		.uleb128 0x3
 6797 0401 0E       		.uleb128 0xe
 6798 0402 3A       		.uleb128 0x3a
 6799 0403 0B       		.uleb128 0xb
 6800 0404 3B       		.uleb128 0x3b
ARM GAS  C:\Users\EBANO_~1\AppData\Local\Temp\ccizkeXa.s 			page 130


 6801 0405 0B       		.uleb128 0xb
 6802 0406 49       		.uleb128 0x49
 6803 0407 13       		.uleb128 0x13
 6804 0408 00       		.byte	0
 6805 0409 00       		.byte	0
 6806 040a 4C       		.uleb128 0x4c
 6807 040b 2E       		.uleb128 0x2e
 6808 040c 01       		.byte	0x1
 6809 040d 03       		.uleb128 0x3
 6810 040e 0E       		.uleb128 0xe
 6811 040f 3A       		.uleb128 0x3a
 6812 0410 0B       		.uleb128 0xb
 6813 0411 3B       		.uleb128 0x3b
 6814 0412 0B       		.uleb128 0xb
 6815 0413 27       		.uleb128 0x27
 6816 0414 0C       		.uleb128 0xc
 6817 0415 49       		.uleb128 0x49
 6818 0416 13       		.uleb128 0x13
 6819 0417 20       		.uleb128 0x20
 6820 0418 0B       		.uleb128 0xb
 6821 0419 01       		.uleb128 0x1
 6822 041a 13       		.uleb128 0x13
 6823 041b 00       		.byte	0
 6824 041c 00       		.byte	0
 6825 041d 4D       		.uleb128 0x4d
 6826 041e 2E       		.uleb128 0x2e
 6827 041f 01       		.byte	0x1
 6828 0420 31       		.uleb128 0x31
 6829 0421 13       		.uleb128 0x13
 6830 0422 11       		.uleb128 0x11
 6831 0423 01       		.uleb128 0x1
 6832 0424 12       		.uleb128 0x12
 6833 0425 01       		.uleb128 0x1
 6834 0426 40       		.uleb128 0x40
 6835 0427 0A       		.uleb128 0xa
 6836 0428 9742     		.uleb128 0x2117
 6837 042a 0C       		.uleb128 0xc
 6838 042b 01       		.uleb128 0x1
 6839 042c 13       		.uleb128 0x13
 6840 042d 00       		.byte	0
 6841 042e 00       		.byte	0
 6842 042f 4E       		.uleb128 0x4e
 6843 0430 2E       		.uleb128 0x2e
 6844 0431 01       		.byte	0x1
 6845 0432 31       		.uleb128 0x31
 6846 0433 13       		.uleb128 0x13
 6847 0434 11       		.uleb128 0x11
 6848 0435 01       		.uleb128 0x1
 6849 0436 12       		.uleb128 0x12
 6850 0437 01       		.uleb128 0x1
 6851 0438 40       		.uleb128 0x40
 6852 0439 06       		.uleb128 0x6
 6853 043a 9742     		.uleb128 0x2117
 6854 043c 0C       		.uleb128 0xc
 6855 043d 01       		.uleb128 0x1
 6856 043e 13       		.uleb128 0x13
 6857 043f 00       		.byte	0
ARM GAS  C:\Users\EBANO_~1\AppData\Local\Temp\ccizkeXa.s 			page 131


 6858 0440 00       		.byte	0
 6859 0441 4F       		.uleb128 0x4f
 6860 0442 1D       		.uleb128 0x1d
 6861 0443 01       		.byte	0x1
 6862 0444 31       		.uleb128 0x31
 6863 0445 13       		.uleb128 0x13
 6864 0446 11       		.uleb128 0x11
 6865 0447 01       		.uleb128 0x1
 6866 0448 12       		.uleb128 0x12
 6867 0449 01       		.uleb128 0x1
 6868 044a 58       		.uleb128 0x58
 6869 044b 0B       		.uleb128 0xb
 6870 044c 59       		.uleb128 0x59
 6871 044d 0B       		.uleb128 0xb
 6872 044e 01       		.uleb128 0x1
 6873 044f 13       		.uleb128 0x13
 6874 0450 00       		.byte	0
 6875 0451 00       		.byte	0
 6876 0452 50       		.uleb128 0x50
 6877 0453 1D       		.uleb128 0x1d
 6878 0454 01       		.byte	0x1
 6879 0455 31       		.uleb128 0x31
 6880 0456 13       		.uleb128 0x13
 6881 0457 11       		.uleb128 0x11
 6882 0458 01       		.uleb128 0x1
 6883 0459 12       		.uleb128 0x12
 6884 045a 01       		.uleb128 0x1
 6885 045b 58       		.uleb128 0x58
 6886 045c 0B       		.uleb128 0xb
 6887 045d 59       		.uleb128 0x59
 6888 045e 0B       		.uleb128 0xb
 6889 045f 00       		.byte	0
 6890 0460 00       		.byte	0
 6891 0461 51       		.uleb128 0x51
 6892 0462 2E       		.uleb128 0x2e
 6893 0463 00       		.byte	0
 6894 0464 3F       		.uleb128 0x3f
 6895 0465 0C       		.uleb128 0xc
 6896 0466 3C       		.uleb128 0x3c
 6897 0467 0C       		.uleb128 0xc
 6898 0468 8740     		.uleb128 0x2007
 6899 046a 0E       		.uleb128 0xe
 6900 046b 03       		.uleb128 0x3
 6901 046c 0E       		.uleb128 0xe
 6902 046d 3A       		.uleb128 0x3a
 6903 046e 0B       		.uleb128 0xb
 6904 046f 3B       		.uleb128 0x3b
 6905 0470 0B       		.uleb128 0xb
 6906 0471 00       		.byte	0
 6907 0472 00       		.byte	0
 6908 0473 00       		.byte	0
 6909              		.section	.debug_loc,"",%progbits
 6910              	.Ldebug_loc0:
 6911              	.LLST92:
 6912 0000 00000000 		.4byte	.LFB55
 6913 0004 02000000 		.4byte	.LCFI18
 6914 0008 0200     		.2byte	0x2
ARM GAS  C:\Users\EBANO_~1\AppData\Local\Temp\ccizkeXa.s 			page 132


 6915 000a 7D       		.byte	0x7d
 6916 000b 00       		.sleb128 0
 6917 000c 02000000 		.4byte	.LCFI18
 6918 0010 08000000 		.4byte	.LCFI19
 6919 0014 0200     		.2byte	0x2
 6920 0016 7D       		.byte	0x7d
 6921 0017 10       		.sleb128 16
 6922 0018 08000000 		.4byte	.LCFI19
 6923 001c 5C000000 		.4byte	.LFE55
 6924 0020 0200     		.2byte	0x2
 6925 0022 7D       		.byte	0x7d
 6926 0023 38       		.sleb128 56
 6927 0024 00000000 		.4byte	0
 6928 0028 00000000 		.4byte	0
 6929              	.LLST93:
 6930 002c 00000000 		.4byte	.LVL213
 6931 0030 0B000000 		.4byte	.LVL214-1
 6932 0034 0100     		.2byte	0x1
 6933 0036 50       		.byte	0x50
 6934 0037 0B000000 		.4byte	.LVL214-1
 6935 003b 56000000 		.4byte	.LVL220
 6936 003f 0100     		.2byte	0x1
 6937 0041 54       		.byte	0x54
 6938 0042 56000000 		.4byte	.LVL220
 6939 0046 5C000000 		.4byte	.LFE55
 6940 004a 0400     		.2byte	0x4
 6941 004c F3       		.byte	0xf3
 6942 004d 01       		.uleb128 0x1
 6943 004e 50       		.byte	0x50
 6944 004f 9F       		.byte	0x9f
 6945 0050 00000000 		.4byte	0
 6946 0054 00000000 		.4byte	0
 6947              	.LLST94:
 6948 0058 00000000 		.4byte	.LVL213
 6949 005c 1A000000 		.4byte	.LVL216
 6950 0060 0200     		.2byte	0x2
 6951 0062 31       		.byte	0x31
 6952 0063 9F       		.byte	0x9f
 6953 0064 1A000000 		.4byte	.LVL216
 6954 0068 2E000000 		.4byte	.LVL217
 6955 006c 0600     		.2byte	0x6
 6956 006e 74       		.byte	0x74
 6957 006f 0C       		.sleb128 12
 6958 0070 06       		.byte	0x6
 6959 0071 30       		.byte	0x30
 6960 0072 29       		.byte	0x29
 6961 0073 9F       		.byte	0x9f
 6962 0074 00000000 		.4byte	0
 6963 0078 00000000 		.4byte	0
 6964              	.LLST95:
 6965 007c 1A000000 		.4byte	.LVL216
 6966 0080 2E000000 		.4byte	.LVL217
 6967 0084 0B00     		.2byte	0xb
 6968 0086 74       		.byte	0x74
 6969 0087 09       		.sleb128 9
 6970 0088 94       		.byte	0x94
 6971 0089 01       		.byte	0x1
ARM GAS  C:\Users\EBANO_~1\AppData\Local\Temp\ccizkeXa.s 			page 133


 6972 008a 08       		.byte	0x8
 6973 008b FF       		.byte	0xff
 6974 008c 1A       		.byte	0x1a
 6975 008d 74       		.byte	0x74
 6976 008e 00       		.sleb128 0
 6977 008f 06       		.byte	0x6
 6978 0090 22       		.byte	0x22
 6979 0091 00000000 		.4byte	0
 6980 0095 00000000 		.4byte	0
 6981              	.LLST87:
 6982 0099 00000000 		.4byte	.LFB54
 6983 009d 04000000 		.4byte	.LCFI17
 6984 00a1 0200     		.2byte	0x2
 6985 00a3 7D       		.byte	0x7d
 6986 00a4 00       		.sleb128 0
 6987 00a5 04000000 		.4byte	.LCFI17
 6988 00a9 90000000 		.4byte	.LFE54
 6989 00ad 0200     		.2byte	0x2
 6990 00af 7D       		.byte	0x7d
 6991 00b0 10       		.sleb128 16
 6992 00b1 00000000 		.4byte	0
 6993 00b5 00000000 		.4byte	0
 6994              	.LLST88:
 6995 00b9 00000000 		.4byte	.LVL198
 6996 00bd 02000000 		.4byte	.LVL199
 6997 00c1 0F00     		.2byte	0xf
 6998 00c3 70       		.byte	0x70
 6999 00c4 0B       		.sleb128 11
 7000 00c5 94       		.byte	0x94
 7001 00c6 01       		.byte	0x1
 7002 00c7 08       		.byte	0x8
 7003 00c8 FF       		.byte	0xff
 7004 00c9 1A       		.byte	0x1a
 7005 00ca 3C       		.byte	0x3c
 7006 00cb 1E       		.byte	0x1e
 7007 00cc 70       		.byte	0x70
 7008 00cd 00       		.sleb128 0
 7009 00ce 06       		.byte	0x6
 7010 00cf 22       		.byte	0x22
 7011 00d0 23       		.byte	0x23
 7012 00d1 09       		.uleb128 0x9
 7013 00d2 02000000 		.4byte	.LVL199
 7014 00d6 0A000000 		.4byte	.LVL200
 7015 00da 0A00     		.2byte	0xa
 7016 00dc 72       		.byte	0x72
 7017 00dd 00       		.sleb128 0
 7018 00de 3C       		.byte	0x3c
 7019 00df 1E       		.byte	0x1e
 7020 00e0 70       		.byte	0x70
 7021 00e1 00       		.sleb128 0
 7022 00e2 06       		.byte	0x6
 7023 00e3 22       		.byte	0x22
 7024 00e4 23       		.byte	0x23
 7025 00e5 09       		.uleb128 0x9
 7026 00e6 0A000000 		.4byte	.LVL200
 7027 00ea 1E000000 		.4byte	.LVL201
 7028 00ee 0F00     		.2byte	0xf
ARM GAS  C:\Users\EBANO_~1\AppData\Local\Temp\ccizkeXa.s 			page 134


 7029 00f0 70       		.byte	0x70
 7030 00f1 0B       		.sleb128 11
 7031 00f2 94       		.byte	0x94
 7032 00f3 01       		.byte	0x1
 7033 00f4 08       		.byte	0x8
 7034 00f5 FF       		.byte	0xff
 7035 00f6 1A       		.byte	0x1a
 7036 00f7 3C       		.byte	0x3c
 7037 00f8 1E       		.byte	0x1e
 7038 00f9 70       		.byte	0x70
 7039 00fa 00       		.sleb128 0
 7040 00fb 06       		.byte	0x6
 7041 00fc 22       		.byte	0x22
 7042 00fd 23       		.byte	0x23
 7043 00fe 09       		.uleb128 0x9
 7044 00ff 00000000 		.4byte	0
 7045 0103 00000000 		.4byte	0
 7046              	.LLST89:
 7047 0107 22000000 		.4byte	.LVL202
 7048 010b 32000000 		.4byte	.LVL204
 7049 010f 0100     		.2byte	0x1
 7050 0111 51       		.byte	0x51
 7051 0112 32000000 		.4byte	.LVL204
 7052 0116 36000000 		.4byte	.LVL205
 7053 011a 1600     		.2byte	0x16
 7054 011c 71       		.byte	0x71
 7055 011d 00       		.sleb128 0
 7056 011e 12       		.byte	0x12
 7057 011f 0A       		.byte	0xa
 7058 0120 FFFF     		.2byte	0xffff
 7059 0122 1A       		.byte	0x1a
 7060 0123 72       		.byte	0x72
 7061 0124 00       		.sleb128 0
 7062 0125 16       		.byte	0x16
 7063 0126 14       		.byte	0x14
 7064 0127 0A       		.byte	0xa
 7065 0128 FFFF     		.2byte	0xffff
 7066 012a 1A       		.byte	0x1a
 7067 012b 2B       		.byte	0x2b
 7068 012c 28       		.byte	0x28
 7069 012d 0100     		.2byte	0x1
 7070 012f 16       		.byte	0x16
 7071 0130 13       		.byte	0x13
 7072 0131 9F       		.byte	0x9f
 7073 0132 3E000000 		.4byte	.LVL206
 7074 0136 46000000 		.4byte	.LVL207
 7075 013a 0100     		.2byte	0x1
 7076 013c 51       		.byte	0x51
 7077 013d 46000000 		.4byte	.LVL207
 7078 0141 48000000 		.4byte	.LVL208
 7079 0145 0300     		.2byte	0x3
 7080 0147 71       		.byte	0x71
 7081 0148 01       		.sleb128 1
 7082 0149 9F       		.byte	0x9f
 7083 014a 48000000 		.4byte	.LVL208
 7084 014e 4C000000 		.4byte	.LVL209
 7085 0152 0200     		.2byte	0x2
ARM GAS  C:\Users\EBANO_~1\AppData\Local\Temp\ccizkeXa.s 			page 135


 7086 0154 73       		.byte	0x73
 7087 0155 00       		.sleb128 0
 7088 0156 4C000000 		.4byte	.LVL209
 7089 015a 5E000000 		.4byte	.LVL211
 7090 015e 0100     		.2byte	0x1
 7091 0160 51       		.byte	0x51
 7092 0161 5E000000 		.4byte	.LVL211
 7093 0165 62000000 		.4byte	.LVL212
 7094 0169 1600     		.2byte	0x16
 7095 016b 71       		.byte	0x71
 7096 016c 00       		.sleb128 0
 7097 016d 12       		.byte	0x12
 7098 016e 0A       		.byte	0xa
 7099 016f FFFF     		.2byte	0xffff
 7100 0171 1A       		.byte	0x1a
 7101 0172 72       		.byte	0x72
 7102 0173 00       		.sleb128 0
 7103 0174 16       		.byte	0x16
 7104 0175 14       		.byte	0x14
 7105 0176 0A       		.byte	0xa
 7106 0177 FFFF     		.2byte	0xffff
 7107 0179 1A       		.byte	0x1a
 7108 017a 2B       		.byte	0x2b
 7109 017b 28       		.byte	0x28
 7110 017c 0100     		.2byte	0x1
 7111 017e 16       		.byte	0x16
 7112 017f 13       		.byte	0x13
 7113 0180 9F       		.byte	0x9f
 7114 0181 00000000 		.4byte	0
 7115 0185 00000000 		.4byte	0
 7116              	.LLST90:
 7117 0189 22000000 		.4byte	.LVL202
 7118 018d 32000000 		.4byte	.LVL204
 7119 0191 0200     		.2byte	0x2
 7120 0193 30       		.byte	0x30
 7121 0194 9F       		.byte	0x9f
 7122 0195 3E000000 		.4byte	.LVL206
 7123 0199 5E000000 		.4byte	.LVL211
 7124 019d 0200     		.2byte	0x2
 7125 019f 30       		.byte	0x30
 7126 01a0 9F       		.byte	0x9f
 7127 01a1 00000000 		.4byte	0
 7128 01a5 00000000 		.4byte	0
 7129              	.LLST91:
 7130 01a9 2A000000 		.4byte	.LVL203
 7131 01ad 32000000 		.4byte	.LVL204
 7132 01b1 0100     		.2byte	0x1
 7133 01b3 55       		.byte	0x55
 7134 01b4 4C000000 		.4byte	.LVL209
 7135 01b8 54000000 		.4byte	.LVL210
 7136 01bc 0100     		.2byte	0x1
 7137 01be 55       		.byte	0x55
 7138 01bf 54000000 		.4byte	.LVL210
 7139 01c3 5E000000 		.4byte	.LVL211
 7140 01c7 0200     		.2byte	0x2
 7141 01c9 70       		.byte	0x70
 7142 01ca 0C       		.sleb128 12
ARM GAS  C:\Users\EBANO_~1\AppData\Local\Temp\ccizkeXa.s 			page 136


 7143 01cb 00000000 		.4byte	0
 7144 01cf 00000000 		.4byte	0
 7145              	.LLST82:
 7146 01d3 00000000 		.4byte	.LFB53
 7147 01d7 02000000 		.4byte	.LCFI16
 7148 01db 0200     		.2byte	0x2
 7149 01dd 7D       		.byte	0x7d
 7150 01de 00       		.sleb128 0
 7151 01df 02000000 		.4byte	.LCFI16
 7152 01e3 2A000000 		.4byte	.LFE53
 7153 01e7 0200     		.2byte	0x2
 7154 01e9 7D       		.byte	0x7d
 7155 01ea 10       		.sleb128 16
 7156 01eb 00000000 		.4byte	0
 7157 01ef 00000000 		.4byte	0
 7158              	.LLST83:
 7159 01f3 00000000 		.4byte	.LVL188
 7160 01f7 04000000 		.4byte	.LVL189
 7161 01fb 0100     		.2byte	0x1
 7162 01fd 50       		.byte	0x50
 7163 01fe 04000000 		.4byte	.LVL189
 7164 0202 2A000000 		.4byte	.LFE53
 7165 0206 0400     		.2byte	0x4
 7166 0208 F3       		.byte	0xf3
 7167 0209 01       		.uleb128 0x1
 7168 020a 50       		.byte	0x50
 7169 020b 9F       		.byte	0x9f
 7170 020c 00000000 		.4byte	0
 7171 0210 00000000 		.4byte	0
 7172              	.LLST84:
 7173 0214 00000000 		.4byte	.LVL188
 7174 0218 0B000000 		.4byte	.LVL190-1
 7175 021c 0100     		.2byte	0x1
 7176 021e 51       		.byte	0x51
 7177 021f 0B000000 		.4byte	.LVL190-1
 7178 0223 28000000 		.4byte	.LVL197
 7179 0227 0100     		.2byte	0x1
 7180 0229 55       		.byte	0x55
 7181 022a 28000000 		.4byte	.LVL197
 7182 022e 2A000000 		.4byte	.LFE53
 7183 0232 0600     		.2byte	0x6
 7184 0234 F3       		.byte	0xf3
 7185 0235 03       		.uleb128 0x3
 7186 0236 F5       		.byte	0xf5
 7187 0237 01       		.uleb128 0x1
 7188 0238 30       		.uleb128 0x30
 7189 0239 9F       		.byte	0x9f
 7190 023a 00000000 		.4byte	0
 7191 023e 00000000 		.4byte	0
 7192              	.LLST85:
 7193 0242 00000000 		.4byte	.LVL188
 7194 0246 0B000000 		.4byte	.LVL190-1
 7195 024a 0100     		.2byte	0x1
 7196 024c 52       		.byte	0x52
 7197 024d 0B000000 		.4byte	.LVL190-1
 7198 0251 28000000 		.4byte	.LVL196
 7199 0255 0100     		.2byte	0x1
ARM GAS  C:\Users\EBANO_~1\AppData\Local\Temp\ccizkeXa.s 			page 137


 7200 0257 54       		.byte	0x54
 7201 0258 28000000 		.4byte	.LVL196
 7202 025c 2A000000 		.4byte	.LFE53
 7203 0260 0600     		.2byte	0x6
 7204 0262 F3       		.byte	0xf3
 7205 0263 03       		.uleb128 0x3
 7206 0264 F5       		.byte	0xf5
 7207 0265 02       		.uleb128 0x2
 7208 0266 30       		.uleb128 0x30
 7209 0267 9F       		.byte	0x9f
 7210 0268 00000000 		.4byte	0
 7211 026c 00000000 		.4byte	0
 7212              	.LLST86:
 7213 0270 00000000 		.4byte	.LVL188
 7214 0274 22000000 		.4byte	.LVL194
 7215 0278 0200     		.2byte	0x2
 7216 027a 30       		.byte	0x30
 7217 027b 9F       		.byte	0x9f
 7218 027c 22000000 		.4byte	.LVL194
 7219 0280 25000000 		.4byte	.LVL195-1
 7220 0284 0800     		.2byte	0x8
 7221 0286 F5       		.byte	0xf5
 7222 0287 00       		.uleb128 0
 7223 0288 29       		.uleb128 0x29
 7224 0289 F7       		.byte	0xf7
 7225 028a 37       		.uleb128 0x37
 7226 028b F7       		.byte	0xf7
 7227 028c 00       		.uleb128 0
 7228 028d 9F       		.byte	0x9f
 7229 028e 00000000 		.4byte	0
 7230 0292 00000000 		.4byte	0
 7231              	.LLST78:
 7232 0296 00000000 		.4byte	.LFB52
 7233 029a 02000000 		.4byte	.LCFI14
 7234 029e 0200     		.2byte	0x2
 7235 02a0 7D       		.byte	0x7d
 7236 02a1 00       		.sleb128 0
 7237 02a2 02000000 		.4byte	.LCFI14
 7238 02a6 10000000 		.4byte	.LCFI15
 7239 02aa 0200     		.2byte	0x2
 7240 02ac 7D       		.byte	0x7d
 7241 02ad 18       		.sleb128 24
 7242 02ae 10000000 		.4byte	.LCFI15
 7243 02b2 BC000000 		.4byte	.LFE52
 7244 02b6 0200     		.2byte	0x2
 7245 02b8 7D       		.byte	0x7d
 7246 02b9 20       		.sleb128 32
 7247 02ba 00000000 		.4byte	0
 7248 02be 00000000 		.4byte	0
 7249              	.LLST79:
 7250 02c2 00000000 		.4byte	.LVL169
 7251 02c6 0E000000 		.4byte	.LVL170
 7252 02ca 0600     		.2byte	0x6
 7253 02cc 50       		.byte	0x50
 7254 02cd 93       		.byte	0x93
 7255 02ce 04       		.uleb128 0x4
 7256 02cf 51       		.byte	0x51
ARM GAS  C:\Users\EBANO_~1\AppData\Local\Temp\ccizkeXa.s 			page 138


 7257 02d0 93       		.byte	0x93
 7258 02d1 04       		.uleb128 0x4
 7259 02d2 0E000000 		.4byte	.LVL170
 7260 02d6 BC000000 		.4byte	.LFE52
 7261 02da 0600     		.2byte	0x6
 7262 02dc F3       		.byte	0xf3
 7263 02dd 03       		.uleb128 0x3
 7264 02de F5       		.byte	0xf5
 7265 02df 00       		.uleb128 0
 7266 02e0 29       		.uleb128 0x29
 7267 02e1 9F       		.byte	0x9f
 7268 02e2 00000000 		.4byte	0
 7269 02e6 00000000 		.4byte	0
 7270              	.LLST80:
 7271 02ea 00000000 		.4byte	.LVL169
 7272 02ee 17000000 		.4byte	.LVL171-1
 7273 02f2 0100     		.2byte	0x1
 7274 02f4 52       		.byte	0x52
 7275 02f5 17000000 		.4byte	.LVL171-1
 7276 02f9 BC000000 		.4byte	.LFE52
 7277 02fd 0400     		.2byte	0x4
 7278 02ff F3       		.byte	0xf3
 7279 0300 01       		.uleb128 0x1
 7280 0301 52       		.byte	0x52
 7281 0302 9F       		.byte	0x9f
 7282 0303 00000000 		.4byte	0
 7283 0307 00000000 		.4byte	0
 7284              	.LLST81:
 7285 030b 00000000 		.4byte	.LVL169
 7286 030f 17000000 		.4byte	.LVL171-1
 7287 0313 0100     		.2byte	0x1
 7288 0315 53       		.byte	0x53
 7289 0316 17000000 		.4byte	.LVL171-1
 7290 031a 4A000000 		.4byte	.LVL178
 7291 031e 0100     		.2byte	0x1
 7292 0320 58       		.byte	0x58
 7293 0321 4A000000 		.4byte	.LVL178
 7294 0325 BC000000 		.4byte	.LFE52
 7295 0329 0400     		.2byte	0x4
 7296 032b F3       		.byte	0xf3
 7297 032c 01       		.uleb128 0x1
 7298 032d 53       		.byte	0x53
 7299 032e 9F       		.byte	0x9f
 7300 032f 00000000 		.4byte	0
 7301 0333 00000000 		.4byte	0
 7302              	.LLST76:
 7303 0337 00000000 		.4byte	.LFB51
 7304 033b 02000000 		.4byte	.LCFI13
 7305 033f 0200     		.2byte	0x2
 7306 0341 7D       		.byte	0x7d
 7307 0342 00       		.sleb128 0
 7308 0343 02000000 		.4byte	.LCFI13
 7309 0347 18000000 		.4byte	.LFE51
 7310 034b 0200     		.2byte	0x2
 7311 034d 7D       		.byte	0x7d
 7312 034e 08       		.sleb128 8
 7313 034f 00000000 		.4byte	0
ARM GAS  C:\Users\EBANO_~1\AppData\Local\Temp\ccizkeXa.s 			page 139


 7314 0353 00000000 		.4byte	0
 7315              	.LLST77:
 7316 0357 00000000 		.4byte	.LVL166
 7317 035b 05000000 		.4byte	.LVL167-1
 7318 035f 0100     		.2byte	0x1
 7319 0361 50       		.byte	0x50
 7320 0362 05000000 		.4byte	.LVL167-1
 7321 0366 18000000 		.4byte	.LFE51
 7322 036a 0400     		.2byte	0x4
 7323 036c F3       		.byte	0xf3
 7324 036d 01       		.uleb128 0x1
 7325 036e 50       		.byte	0x50
 7326 036f 9F       		.byte	0x9f
 7327 0370 00000000 		.4byte	0
 7328 0374 00000000 		.4byte	0
 7329              	.LLST73:
 7330 0378 00000000 		.4byte	.LFB50
 7331 037c 06000000 		.4byte	.LCFI12
 7332 0380 0200     		.2byte	0x2
 7333 0382 7D       		.byte	0x7d
 7334 0383 00       		.sleb128 0
 7335 0384 06000000 		.4byte	.LCFI12
 7336 0388 34000000 		.4byte	.LFE50
 7337 038c 0200     		.2byte	0x2
 7338 038e 7D       		.byte	0x7d
 7339 038f 10       		.sleb128 16
 7340 0390 00000000 		.4byte	0
 7341 0394 00000000 		.4byte	0
 7342              	.LLST74:
 7343 0398 00000000 		.4byte	.LVL159
 7344 039c 08000000 		.4byte	.LVL160
 7345 03a0 0100     		.2byte	0x1
 7346 03a2 50       		.byte	0x50
 7347 03a3 08000000 		.4byte	.LVL160
 7348 03a7 34000000 		.4byte	.LFE50
 7349 03ab 0400     		.2byte	0x4
 7350 03ad F3       		.byte	0xf3
 7351 03ae 01       		.uleb128 0x1
 7352 03af 50       		.byte	0x50
 7353 03b0 9F       		.byte	0x9f
 7354 03b1 00000000 		.4byte	0
 7355 03b5 00000000 		.4byte	0
 7356              	.LLST75:
 7357 03b9 00000000 		.4byte	.LVL159
 7358 03bd 0D000000 		.4byte	.LVL161-1
 7359 03c1 0100     		.2byte	0x1
 7360 03c3 51       		.byte	0x51
 7361 03c4 0D000000 		.4byte	.LVL161-1
 7362 03c8 2C000000 		.4byte	.LVL165
 7363 03cc 0100     		.2byte	0x1
 7364 03ce 56       		.byte	0x56
 7365 03cf 2C000000 		.4byte	.LVL165
 7366 03d3 34000000 		.4byte	.LFE50
 7367 03d7 0400     		.2byte	0x4
 7368 03d9 F3       		.byte	0xf3
 7369 03da 01       		.uleb128 0x1
 7370 03db 51       		.byte	0x51
ARM GAS  C:\Users\EBANO_~1\AppData\Local\Temp\ccizkeXa.s 			page 140


 7371 03dc 9F       		.byte	0x9f
 7372 03dd 00000000 		.4byte	0
 7373 03e1 00000000 		.4byte	0
 7374              	.LLST48:
 7375 03e5 00000000 		.4byte	.LFB49
 7376 03e9 02000000 		.4byte	.LCFI9
 7377 03ed 0200     		.2byte	0x2
 7378 03ef 7D       		.byte	0x7d
 7379 03f0 00       		.sleb128 0
 7380 03f1 02000000 		.4byte	.LCFI9
 7381 03f5 0C000000 		.4byte	.LCFI10
 7382 03f9 0200     		.2byte	0x2
 7383 03fb 7D       		.byte	0x7d
 7384 03fc 14       		.sleb128 20
 7385 03fd 0C000000 		.4byte	.LCFI10
 7386 0401 0E000000 		.4byte	.LCFI11
 7387 0405 0200     		.2byte	0x2
 7388 0407 7D       		.byte	0x7d
 7389 0408 24       		.sleb128 36
 7390 0409 0E000000 		.4byte	.LCFI11
 7391 040d 34010000 		.4byte	.LFE49
 7392 0411 0300     		.2byte	0x3
 7393 0413 7D       		.byte	0x7d
 7394 0414 C800     		.sleb128 72
 7395 0416 00000000 		.4byte	0
 7396 041a 00000000 		.4byte	0
 7397              	.LLST49:
 7398 041e 00000000 		.4byte	.LVL114
 7399 0422 34000000 		.4byte	.LVL121
 7400 0426 0100     		.2byte	0x1
 7401 0428 50       		.byte	0x50
 7402 0429 34000000 		.4byte	.LVL121
 7403 042d 52000000 		.4byte	.LVL127
 7404 0431 0400     		.2byte	0x4
 7405 0433 F3       		.byte	0xf3
 7406 0434 01       		.uleb128 0x1
 7407 0435 50       		.byte	0x50
 7408 0436 9F       		.byte	0x9f
 7409 0437 52000000 		.4byte	.LVL127
 7410 043b 6E000000 		.4byte	.LVL133
 7411 043f 0100     		.2byte	0x1
 7412 0441 50       		.byte	0x50
 7413 0442 6E000000 		.4byte	.LVL133
 7414 0446 96000000 		.4byte	.LVL138
 7415 044a 0400     		.2byte	0x4
 7416 044c F3       		.byte	0xf3
 7417 044d 01       		.uleb128 0x1
 7418 044e 50       		.byte	0x50
 7419 044f 9F       		.byte	0x9f
 7420 0450 96000000 		.4byte	.LVL138
 7421 0454 C4000000 		.4byte	.LVL141
 7422 0458 0100     		.2byte	0x1
 7423 045a 50       		.byte	0x50
 7424 045b C4000000 		.4byte	.LVL141
 7425 045f 24010000 		.4byte	.LVL154
 7426 0463 0200     		.2byte	0x2
 7427 0465 91       		.byte	0x91
ARM GAS  C:\Users\EBANO_~1\AppData\Local\Temp\ccizkeXa.s 			page 141


 7428 0466 54       		.sleb128 -44
 7429 0467 24010000 		.4byte	.LVL154
 7430 046b 2A010000 		.4byte	.LVL156
 7431 046f 0400     		.2byte	0x4
 7432 0471 F3       		.byte	0xf3
 7433 0472 01       		.uleb128 0x1
 7434 0473 50       		.byte	0x50
 7435 0474 9F       		.byte	0x9f
 7436 0475 2A010000 		.4byte	.LVL156
 7437 0479 34010000 		.4byte	.LFE49
 7438 047d 0200     		.2byte	0x2
 7439 047f 91       		.byte	0x91
 7440 0480 54       		.sleb128 -44
 7441 0481 00000000 		.4byte	0
 7442 0485 00000000 		.4byte	0
 7443              	.LLST50:
 7444 0489 00000000 		.4byte	.LVL114
 7445 048d 12000000 		.4byte	.LVL115
 7446 0491 0100     		.2byte	0x1
 7447 0493 51       		.byte	0x51
 7448 0494 12000000 		.4byte	.LVL115
 7449 0498 46000000 		.4byte	.LVL125
 7450 049c 0200     		.2byte	0x2
 7451 049e 7D       		.byte	0x7d
 7452 049f 00       		.sleb128 0
 7453 04a0 46000000 		.4byte	.LVL125
 7454 04a4 52000000 		.4byte	.LVL127
 7455 04a8 0300     		.2byte	0x3
 7456 04aa 91       		.byte	0x91
 7457 04ab B87F     		.sleb128 -72
 7458 04ad 52000000 		.4byte	.LVL127
 7459 04b1 34010000 		.4byte	.LFE49
 7460 04b5 0200     		.2byte	0x2
 7461 04b7 7D       		.byte	0x7d
 7462 04b8 00       		.sleb128 0
 7463 04b9 00000000 		.4byte	0
 7464 04bd 00000000 		.4byte	0
 7465              	.LLST51:
 7466 04c1 00000000 		.4byte	.LVL114
 7467 04c5 1C000000 		.4byte	.LVL117
 7468 04c9 0100     		.2byte	0x1
 7469 04cb 52       		.byte	0x52
 7470 04cc 1C000000 		.4byte	.LVL117
 7471 04d0 34010000 		.4byte	.LFE49
 7472 04d4 0300     		.2byte	0x3
 7473 04d6 91       		.byte	0x91
 7474 04d7 BC7F     		.sleb128 -68
 7475 04d9 00000000 		.4byte	0
 7476 04dd 00000000 		.4byte	0
 7477              	.LLST52:
 7478 04e1 00000000 		.4byte	.LVL114
 7479 04e5 16000000 		.4byte	.LVL116
 7480 04e9 0100     		.2byte	0x1
 7481 04eb 53       		.byte	0x53
 7482 04ec 16000000 		.4byte	.LVL116
 7483 04f0 46000000 		.4byte	.LVL126
 7484 04f4 0100     		.2byte	0x1
ARM GAS  C:\Users\EBANO_~1\AppData\Local\Temp\ccizkeXa.s 			page 142


 7485 04f6 5B       		.byte	0x5b
 7486 04f7 46000000 		.4byte	.LVL126
 7487 04fb 52000000 		.4byte	.LVL127
 7488 04ff 0100     		.2byte	0x1
 7489 0501 53       		.byte	0x53
 7490 0502 52000000 		.4byte	.LVL127
 7491 0506 34010000 		.4byte	.LFE49
 7492 050a 0100     		.2byte	0x1
 7493 050c 5B       		.byte	0x5b
 7494 050d 00000000 		.4byte	0
 7495 0511 00000000 		.4byte	0
 7496              	.LLST53:
 7497 0515 1C000000 		.4byte	.LVL117
 7498 0519 C2000000 		.4byte	.LVL140
 7499 051d 0100     		.2byte	0x1
 7500 051f 52       		.byte	0x52
 7501 0520 C2000000 		.4byte	.LVL140
 7502 0524 DE000000 		.4byte	.LVL143
 7503 0528 0100     		.2byte	0x1
 7504 052a 56       		.byte	0x56
 7505 052b DE000000 		.4byte	.LVL143
 7506 052f 1A010000 		.4byte	.LVL151
 7507 0533 0100     		.2byte	0x1
 7508 0535 58       		.byte	0x58
 7509 0536 1A010000 		.4byte	.LVL151
 7510 053a 24010000 		.4byte	.LVL154
 7511 053e 0100     		.2byte	0x1
 7512 0540 56       		.byte	0x56
 7513 0541 24010000 		.4byte	.LVL154
 7514 0545 2A010000 		.4byte	.LVL156
 7515 0549 0100     		.2byte	0x1
 7516 054b 52       		.byte	0x52
 7517 054c 2A010000 		.4byte	.LVL156
 7518 0550 32010000 		.4byte	.LVL158
 7519 0554 0100     		.2byte	0x1
 7520 0556 58       		.byte	0x58
 7521 0557 32010000 		.4byte	.LVL158
 7522 055b 34010000 		.4byte	.LFE49
 7523 055f 0100     		.2byte	0x1
 7524 0561 52       		.byte	0x52
 7525 0562 00000000 		.4byte	0
 7526 0566 00000000 		.4byte	0
 7527              	.LLST54:
 7528 056a 22000000 		.4byte	.LVL118
 7529 056e 3C000000 		.4byte	.LVL123
 7530 0572 0100     		.2byte	0x1
 7531 0574 53       		.byte	0x53
 7532 0575 3C000000 		.4byte	.LVL123
 7533 0579 3E000000 		.4byte	.LVL124
 7534 057d 0200     		.2byte	0x2
 7535 057f 74       		.byte	0x74
 7536 0580 00       		.sleb128 0
 7537 0581 52000000 		.4byte	.LVL127
 7538 0585 54000000 		.4byte	.LVL128
 7539 0589 0100     		.2byte	0x1
 7540 058b 53       		.byte	0x53
 7541 058c 54000000 		.4byte	.LVL128
ARM GAS  C:\Users\EBANO_~1\AppData\Local\Temp\ccizkeXa.s 			page 143


 7542 0590 62000000 		.4byte	.LVL131
 7543 0594 0200     		.2byte	0x2
 7544 0596 70       		.byte	0x70
 7545 0597 06       		.sleb128 6
 7546 0598 62000000 		.4byte	.LVL131
 7547 059c 34010000 		.4byte	.LFE49
 7548 05a0 0100     		.2byte	0x1
 7549 05a2 53       		.byte	0x53
 7550 05a3 00000000 		.4byte	0
 7551 05a7 00000000 		.4byte	0
 7552              	.LLST55:
 7553 05ab 22000000 		.4byte	.LVL118
 7554 05af 36000000 		.4byte	.LVL122
 7555 05b3 0100     		.2byte	0x1
 7556 05b5 58       		.byte	0x58
 7557 05b6 52000000 		.4byte	.LVL127
 7558 05ba 60000000 		.4byte	.LVL130
 7559 05be 0100     		.2byte	0x1
 7560 05c0 58       		.byte	0x58
 7561 05c1 60000000 		.4byte	.LVL130
 7562 05c5 62000000 		.4byte	.LVL131
 7563 05c9 0200     		.2byte	0x2
 7564 05cb 70       		.byte	0x70
 7565 05cc 07       		.sleb128 7
 7566 05cd 62000000 		.4byte	.LVL131
 7567 05d1 6E000000 		.4byte	.LVL133
 7568 05d5 0100     		.2byte	0x1
 7569 05d7 58       		.byte	0x58
 7570 05d8 84000000 		.4byte	.LVL137
 7571 05dc 96000000 		.4byte	.LVL138
 7572 05e0 0100     		.2byte	0x1
 7573 05e2 51       		.byte	0x51
 7574 05e3 96000000 		.4byte	.LVL138
 7575 05e7 C6000000 		.4byte	.LVL142
 7576 05eb 0100     		.2byte	0x1
 7577 05ed 58       		.byte	0x58
 7578 05ee 00000000 		.4byte	0
 7579 05f2 00000000 		.4byte	0
 7580              	.LLST56:
 7581 05f6 24000000 		.4byte	.LVL119
 7582 05fa 2C000000 		.4byte	.LVL120
 7583 05fe 0100     		.2byte	0x1
 7584 0600 54       		.byte	0x54
 7585 0601 2C000000 		.4byte	.LVL120
 7586 0605 36000000 		.4byte	.LVL122
 7587 0609 0100     		.2byte	0x1
 7588 060b 59       		.byte	0x59
 7589 060c 52000000 		.4byte	.LVL127
 7590 0610 5C000000 		.4byte	.LVL129
 7591 0614 0100     		.2byte	0x1
 7592 0616 54       		.byte	0x54
 7593 0617 5C000000 		.4byte	.LVL129
 7594 061b 34010000 		.4byte	.LFE49
 7595 061f 0100     		.2byte	0x1
 7596 0621 59       		.byte	0x59
 7597 0622 00000000 		.4byte	0
 7598 0626 00000000 		.4byte	0
ARM GAS  C:\Users\EBANO_~1\AppData\Local\Temp\ccizkeXa.s 			page 144


 7599              	.LLST57:
 7600 062a 66000000 		.4byte	.LVL132
 7601 062e 6E000000 		.4byte	.LVL133
 7602 0632 0200     		.2byte	0x2
 7603 0634 70       		.byte	0x70
 7604 0635 18       		.sleb128 24
 7605 0636 6E000000 		.4byte	.LVL133
 7606 063a 96000000 		.4byte	.LVL138
 7607 063e 0500     		.2byte	0x5
 7608 0640 F3       		.byte	0xf3
 7609 0641 01       		.uleb128 0x1
 7610 0642 50       		.byte	0x50
 7611 0643 23       		.byte	0x23
 7612 0644 18       		.uleb128 0x18
 7613 0645 96000000 		.4byte	.LVL138
 7614 0649 C4000000 		.4byte	.LVL141
 7615 064d 0200     		.2byte	0x2
 7616 064f 70       		.byte	0x70
 7617 0650 18       		.sleb128 24
 7618 0651 C4000000 		.4byte	.LVL141
 7619 0655 24010000 		.4byte	.LVL154
 7620 0659 0500     		.2byte	0x5
 7621 065b 91       		.byte	0x91
 7622 065c 54       		.sleb128 -44
 7623 065d 06       		.byte	0x6
 7624 065e 23       		.byte	0x23
 7625 065f 18       		.uleb128 0x18
 7626 0660 24010000 		.4byte	.LVL154
 7627 0664 2A010000 		.4byte	.LVL156
 7628 0668 0500     		.2byte	0x5
 7629 066a F3       		.byte	0xf3
 7630 066b 01       		.uleb128 0x1
 7631 066c 50       		.byte	0x50
 7632 066d 23       		.byte	0x23
 7633 066e 18       		.uleb128 0x18
 7634 066f 2A010000 		.4byte	.LVL156
 7635 0673 34010000 		.4byte	.LFE49
 7636 0677 0500     		.2byte	0x5
 7637 0679 91       		.byte	0x91
 7638 067a 54       		.sleb128 -44
 7639 067b 06       		.byte	0x6
 7640 067c 23       		.byte	0x23
 7641 067d 18       		.uleb128 0x18
 7642 067e 00000000 		.4byte	0
 7643 0682 00000000 		.4byte	0
 7644              	.LLST58:
 7645 0686 66000000 		.4byte	.LVL132
 7646 068a 6E000000 		.4byte	.LVL133
 7647 068e 0200     		.2byte	0x2
 7648 0690 70       		.byte	0x70
 7649 0691 15       		.sleb128 21
 7650 0692 6E000000 		.4byte	.LVL133
 7651 0696 96000000 		.4byte	.LVL138
 7652 069a 0500     		.2byte	0x5
 7653 069c F3       		.byte	0xf3
 7654 069d 01       		.uleb128 0x1
 7655 069e 50       		.byte	0x50
ARM GAS  C:\Users\EBANO_~1\AppData\Local\Temp\ccizkeXa.s 			page 145


 7656 069f 23       		.byte	0x23
 7657 06a0 15       		.uleb128 0x15
 7658 06a1 96000000 		.4byte	.LVL138
 7659 06a5 C4000000 		.4byte	.LVL141
 7660 06a9 0200     		.2byte	0x2
 7661 06ab 70       		.byte	0x70
 7662 06ac 15       		.sleb128 21
 7663 06ad C4000000 		.4byte	.LVL141
 7664 06b1 24010000 		.4byte	.LVL154
 7665 06b5 0500     		.2byte	0x5
 7666 06b7 91       		.byte	0x91
 7667 06b8 54       		.sleb128 -44
 7668 06b9 06       		.byte	0x6
 7669 06ba 23       		.byte	0x23
 7670 06bb 15       		.uleb128 0x15
 7671 06bc 24010000 		.4byte	.LVL154
 7672 06c0 2A010000 		.4byte	.LVL156
 7673 06c4 0500     		.2byte	0x5
 7674 06c6 F3       		.byte	0xf3
 7675 06c7 01       		.uleb128 0x1
 7676 06c8 50       		.byte	0x50
 7677 06c9 23       		.byte	0x23
 7678 06ca 15       		.uleb128 0x15
 7679 06cb 2A010000 		.4byte	.LVL156
 7680 06cf 34010000 		.4byte	.LFE49
 7681 06d3 0500     		.2byte	0x5
 7682 06d5 91       		.byte	0x91
 7683 06d6 54       		.sleb128 -44
 7684 06d7 06       		.byte	0x6
 7685 06d8 23       		.byte	0x23
 7686 06d9 15       		.uleb128 0x15
 7687 06da 00000000 		.4byte	0
 7688 06de 00000000 		.4byte	0
 7689              	.LLST59:
 7690 06e2 66000000 		.4byte	.LVL132
 7691 06e6 6E000000 		.4byte	.LVL133
 7692 06ea 0200     		.2byte	0x2
 7693 06ec 70       		.byte	0x70
 7694 06ed 14       		.sleb128 20
 7695 06ee 6E000000 		.4byte	.LVL133
 7696 06f2 96000000 		.4byte	.LVL138
 7697 06f6 0500     		.2byte	0x5
 7698 06f8 F3       		.byte	0xf3
 7699 06f9 01       		.uleb128 0x1
 7700 06fa 50       		.byte	0x50
 7701 06fb 23       		.byte	0x23
 7702 06fc 14       		.uleb128 0x14
 7703 06fd 96000000 		.4byte	.LVL138
 7704 0701 C4000000 		.4byte	.LVL141
 7705 0705 0200     		.2byte	0x2
 7706 0707 70       		.byte	0x70
 7707 0708 14       		.sleb128 20
 7708 0709 C4000000 		.4byte	.LVL141
 7709 070d 24010000 		.4byte	.LVL154
 7710 0711 0500     		.2byte	0x5
 7711 0713 91       		.byte	0x91
 7712 0714 54       		.sleb128 -44
ARM GAS  C:\Users\EBANO_~1\AppData\Local\Temp\ccizkeXa.s 			page 146


 7713 0715 06       		.byte	0x6
 7714 0716 23       		.byte	0x23
 7715 0717 14       		.uleb128 0x14
 7716 0718 24010000 		.4byte	.LVL154
 7717 071c 2A010000 		.4byte	.LVL156
 7718 0720 0500     		.2byte	0x5
 7719 0722 F3       		.byte	0xf3
 7720 0723 01       		.uleb128 0x1
 7721 0724 50       		.byte	0x50
 7722 0725 23       		.byte	0x23
 7723 0726 14       		.uleb128 0x14
 7724 0727 2A010000 		.4byte	.LVL156
 7725 072b 34010000 		.4byte	.LFE49
 7726 072f 0500     		.2byte	0x5
 7727 0731 91       		.byte	0x91
 7728 0732 54       		.sleb128 -44
 7729 0733 06       		.byte	0x6
 7730 0734 23       		.byte	0x23
 7731 0735 14       		.uleb128 0x14
 7732 0736 00000000 		.4byte	0
 7733 073a 00000000 		.4byte	0
 7734              	.LLST60:
 7735 073e 66000000 		.4byte	.LVL132
 7736 0742 6E000000 		.4byte	.LVL133
 7737 0746 0200     		.2byte	0x2
 7738 0748 70       		.byte	0x70
 7739 0749 10       		.sleb128 16
 7740 074a 6E000000 		.4byte	.LVL133
 7741 074e 96000000 		.4byte	.LVL138
 7742 0752 0500     		.2byte	0x5
 7743 0754 F3       		.byte	0xf3
 7744 0755 01       		.uleb128 0x1
 7745 0756 50       		.byte	0x50
 7746 0757 23       		.byte	0x23
 7747 0758 10       		.uleb128 0x10
 7748 0759 96000000 		.4byte	.LVL138
 7749 075d C4000000 		.4byte	.LVL141
 7750 0761 0200     		.2byte	0x2
 7751 0763 70       		.byte	0x70
 7752 0764 10       		.sleb128 16
 7753 0765 C4000000 		.4byte	.LVL141
 7754 0769 24010000 		.4byte	.LVL154
 7755 076d 0500     		.2byte	0x5
 7756 076f 91       		.byte	0x91
 7757 0770 54       		.sleb128 -44
 7758 0771 06       		.byte	0x6
 7759 0772 23       		.byte	0x23
 7760 0773 10       		.uleb128 0x10
 7761 0774 24010000 		.4byte	.LVL154
 7762 0778 2A010000 		.4byte	.LVL156
 7763 077c 0500     		.2byte	0x5
 7764 077e F3       		.byte	0xf3
 7765 077f 01       		.uleb128 0x1
 7766 0780 50       		.byte	0x50
 7767 0781 23       		.byte	0x23
 7768 0782 10       		.uleb128 0x10
 7769 0783 2A010000 		.4byte	.LVL156
ARM GAS  C:\Users\EBANO_~1\AppData\Local\Temp\ccizkeXa.s 			page 147


 7770 0787 34010000 		.4byte	.LFE49
 7771 078b 0500     		.2byte	0x5
 7772 078d 91       		.byte	0x91
 7773 078e 54       		.sleb128 -44
 7774 078f 06       		.byte	0x6
 7775 0790 23       		.byte	0x23
 7776 0791 10       		.uleb128 0x10
 7777 0792 00000000 		.4byte	0
 7778 0796 00000000 		.4byte	0
 7779              	.LLST61:
 7780 079a 66000000 		.4byte	.LVL132
 7781 079e 6E000000 		.4byte	.LVL133
 7782 07a2 0200     		.2byte	0x2
 7783 07a4 70       		.byte	0x70
 7784 07a5 0C       		.sleb128 12
 7785 07a6 6E000000 		.4byte	.LVL133
 7786 07aa 96000000 		.4byte	.LVL138
 7787 07ae 0500     		.2byte	0x5
 7788 07b0 F3       		.byte	0xf3
 7789 07b1 01       		.uleb128 0x1
 7790 07b2 50       		.byte	0x50
 7791 07b3 23       		.byte	0x23
 7792 07b4 0C       		.uleb128 0xc
 7793 07b5 96000000 		.4byte	.LVL138
 7794 07b9 C4000000 		.4byte	.LVL141
 7795 07bd 0200     		.2byte	0x2
 7796 07bf 70       		.byte	0x70
 7797 07c0 0C       		.sleb128 12
 7798 07c1 C4000000 		.4byte	.LVL141
 7799 07c5 24010000 		.4byte	.LVL154
 7800 07c9 0500     		.2byte	0x5
 7801 07cb 91       		.byte	0x91
 7802 07cc 54       		.sleb128 -44
 7803 07cd 06       		.byte	0x6
 7804 07ce 23       		.byte	0x23
 7805 07cf 0C       		.uleb128 0xc
 7806 07d0 24010000 		.4byte	.LVL154
 7807 07d4 2A010000 		.4byte	.LVL156
 7808 07d8 0500     		.2byte	0x5
 7809 07da F3       		.byte	0xf3
 7810 07db 01       		.uleb128 0x1
 7811 07dc 50       		.byte	0x50
 7812 07dd 23       		.byte	0x23
 7813 07de 0C       		.uleb128 0xc
 7814 07df 2A010000 		.4byte	.LVL156
 7815 07e3 34010000 		.4byte	.LFE49
 7816 07e7 0500     		.2byte	0x5
 7817 07e9 91       		.byte	0x91
 7818 07ea 54       		.sleb128 -44
 7819 07eb 06       		.byte	0x6
 7820 07ec 23       		.byte	0x23
 7821 07ed 0C       		.uleb128 0xc
 7822 07ee 00000000 		.4byte	0
 7823 07f2 00000000 		.4byte	0
 7824              	.LLST62:
 7825 07f6 66000000 		.4byte	.LVL132
 7826 07fa 6E000000 		.4byte	.LVL133
ARM GAS  C:\Users\EBANO_~1\AppData\Local\Temp\ccizkeXa.s 			page 148


 7827 07fe 0200     		.2byte	0x2
 7828 0800 70       		.byte	0x70
 7829 0801 15       		.sleb128 21
 7830 0802 6E000000 		.4byte	.LVL133
 7831 0806 96000000 		.4byte	.LVL138
 7832 080a 0500     		.2byte	0x5
 7833 080c F3       		.byte	0xf3
 7834 080d 01       		.uleb128 0x1
 7835 080e 50       		.byte	0x50
 7836 080f 23       		.byte	0x23
 7837 0810 15       		.uleb128 0x15
 7838 0811 96000000 		.4byte	.LVL138
 7839 0815 C4000000 		.4byte	.LVL141
 7840 0819 0200     		.2byte	0x2
 7841 081b 70       		.byte	0x70
 7842 081c 15       		.sleb128 21
 7843 081d C4000000 		.4byte	.LVL141
 7844 0821 24010000 		.4byte	.LVL154
 7845 0825 0500     		.2byte	0x5
 7846 0827 91       		.byte	0x91
 7847 0828 54       		.sleb128 -44
 7848 0829 06       		.byte	0x6
 7849 082a 23       		.byte	0x23
 7850 082b 15       		.uleb128 0x15
 7851 082c 24010000 		.4byte	.LVL154
 7852 0830 2A010000 		.4byte	.LVL156
 7853 0834 0500     		.2byte	0x5
 7854 0836 F3       		.byte	0xf3
 7855 0837 01       		.uleb128 0x1
 7856 0838 50       		.byte	0x50
 7857 0839 23       		.byte	0x23
 7858 083a 15       		.uleb128 0x15
 7859 083b 2A010000 		.4byte	.LVL156
 7860 083f 34010000 		.4byte	.LFE49
 7861 0843 0500     		.2byte	0x5
 7862 0845 91       		.byte	0x91
 7863 0846 54       		.sleb128 -44
 7864 0847 06       		.byte	0x6
 7865 0848 23       		.byte	0x23
 7866 0849 15       		.uleb128 0x15
 7867 084a 00000000 		.4byte	0
 7868 084e 00000000 		.4byte	0
 7869              	.LLST63:
 7870 0852 66000000 		.4byte	.LVL132
 7871 0856 6E000000 		.4byte	.LVL133
 7872 085a 0200     		.2byte	0x2
 7873 085c 70       		.byte	0x70
 7874 085d 14       		.sleb128 20
 7875 085e 6E000000 		.4byte	.LVL133
 7876 0862 96000000 		.4byte	.LVL138
 7877 0866 0500     		.2byte	0x5
 7878 0868 F3       		.byte	0xf3
 7879 0869 01       		.uleb128 0x1
 7880 086a 50       		.byte	0x50
 7881 086b 23       		.byte	0x23
 7882 086c 14       		.uleb128 0x14
 7883 086d 96000000 		.4byte	.LVL138
ARM GAS  C:\Users\EBANO_~1\AppData\Local\Temp\ccizkeXa.s 			page 149


 7884 0871 C4000000 		.4byte	.LVL141
 7885 0875 0200     		.2byte	0x2
 7886 0877 70       		.byte	0x70
 7887 0878 14       		.sleb128 20
 7888 0879 C4000000 		.4byte	.LVL141
 7889 087d 24010000 		.4byte	.LVL154
 7890 0881 0500     		.2byte	0x5
 7891 0883 91       		.byte	0x91
 7892 0884 54       		.sleb128 -44
 7893 0885 06       		.byte	0x6
 7894 0886 23       		.byte	0x23
 7895 0887 14       		.uleb128 0x14
 7896 0888 24010000 		.4byte	.LVL154
 7897 088c 2A010000 		.4byte	.LVL156
 7898 0890 0500     		.2byte	0x5
 7899 0892 F3       		.byte	0xf3
 7900 0893 01       		.uleb128 0x1
 7901 0894 50       		.byte	0x50
 7902 0895 23       		.byte	0x23
 7903 0896 14       		.uleb128 0x14
 7904 0897 2A010000 		.4byte	.LVL156
 7905 089b 34010000 		.4byte	.LFE49
 7906 089f 0500     		.2byte	0x5
 7907 08a1 91       		.byte	0x91
 7908 08a2 54       		.sleb128 -44
 7909 08a3 06       		.byte	0x6
 7910 08a4 23       		.byte	0x23
 7911 08a5 14       		.uleb128 0x14
 7912 08a6 00000000 		.4byte	0
 7913 08aa 00000000 		.4byte	0
 7914              	.LLST64:
 7915 08ae A2000000 		.4byte	.LVL139
 7916 08b2 C6000000 		.4byte	.LVL142
 7917 08b6 0200     		.2byte	0x2
 7918 08b8 30       		.byte	0x30
 7919 08b9 9F       		.byte	0x9f
 7920 08ba C6000000 		.4byte	.LVL142
 7921 08be DE000000 		.4byte	.LVL143
 7922 08c2 0100     		.2byte	0x1
 7923 08c4 52       		.byte	0x52
 7924 08c5 12010000 		.4byte	.LVL149
 7925 08c9 1E010000 		.4byte	.LVL152
 7926 08cd 0100     		.2byte	0x1
 7927 08cf 52       		.byte	0x52
 7928 08d0 1E010000 		.4byte	.LVL152
 7929 08d4 24010000 		.4byte	.LVL154
 7930 08d8 0600     		.2byte	0x6
 7931 08da 91       		.byte	0x91
 7932 08db 40       		.sleb128 -64
 7933 08dc 06       		.byte	0x6
 7934 08dd 23       		.byte	0x23
 7935 08de 10       		.uleb128 0x10
 7936 08df 9F       		.byte	0x9f
 7937 08e0 00000000 		.4byte	0
 7938 08e4 00000000 		.4byte	0
 7939              	.LLST65:
 7940 08e8 A2000000 		.4byte	.LVL139
ARM GAS  C:\Users\EBANO_~1\AppData\Local\Temp\ccizkeXa.s 			page 150


 7941 08ec C6000000 		.4byte	.LVL142
 7942 08f0 0200     		.2byte	0x2
 7943 08f2 30       		.byte	0x30
 7944 08f3 9F       		.byte	0x9f
 7945 08f4 C6000000 		.4byte	.LVL142
 7946 08f8 10010000 		.4byte	.LVL148
 7947 08fc 0100     		.2byte	0x1
 7948 08fe 50       		.byte	0x50
 7949 08ff 16010000 		.4byte	.LVL150
 7950 0903 20010000 		.4byte	.LVL153
 7951 0907 0100     		.2byte	0x1
 7952 0909 50       		.byte	0x50
 7953 090a 2A010000 		.4byte	.LVL156
 7954 090e 30010000 		.4byte	.LVL157
 7955 0912 0100     		.2byte	0x1
 7956 0914 50       		.byte	0x50
 7957 0915 00000000 		.4byte	0
 7958 0919 00000000 		.4byte	0
 7959              	.LLST66:
 7960 091d DE000000 		.4byte	.LVL143
 7961 0921 00010000 		.4byte	.LVL146
 7962 0925 0100     		.2byte	0x1
 7963 0927 54       		.byte	0x54
 7964 0928 00010000 		.4byte	.LVL146
 7965 092c 02010000 		.4byte	.LVL147
 7966 0930 0300     		.2byte	0x3
 7967 0932 74       		.byte	0x74
 7968 0933 01       		.sleb128 1
 7969 0934 9F       		.byte	0x9f
 7970 0935 2A010000 		.4byte	.LVL156
 7971 0939 34010000 		.4byte	.LFE49
 7972 093d 0100     		.2byte	0x1
 7973 093f 54       		.byte	0x54
 7974 0940 00000000 		.4byte	0
 7975 0944 00000000 		.4byte	0
 7976              	.LLST67:
 7977 0948 F4000000 		.4byte	.LVL144
 7978 094c FC000000 		.4byte	.LVL145
 7979 0950 0500     		.2byte	0x5
 7980 0952 76       		.byte	0x76
 7981 0953 00       		.sleb128 0
 7982 0954 3F       		.byte	0x3f
 7983 0955 1A       		.byte	0x1a
 7984 0956 9F       		.byte	0x9f
 7985 0957 FC000000 		.4byte	.LVL145
 7986 095b 00010000 		.4byte	.LVL146
 7987 095f 0900     		.2byte	0x9
 7988 0961 75       		.byte	0x75
 7989 0962 08       		.sleb128 8
 7990 0963 94       		.byte	0x94
 7991 0964 01       		.byte	0x1
 7992 0965 34       		.byte	0x34
 7993 0966 26       		.byte	0x26
 7994 0967 3F       		.byte	0x3f
 7995 0968 1A       		.byte	0x1a
 7996 0969 9F       		.byte	0x9f
 7997 096a 2A010000 		.4byte	.LVL156
ARM GAS  C:\Users\EBANO_~1\AppData\Local\Temp\ccizkeXa.s 			page 151


 7998 096e 34010000 		.4byte	.LFE49
 7999 0972 0900     		.2byte	0x9
 8000 0974 75       		.byte	0x75
 8001 0975 08       		.sleb128 8
 8002 0976 94       		.byte	0x94
 8003 0977 01       		.byte	0x1
 8004 0978 34       		.byte	0x34
 8005 0979 26       		.byte	0x26
 8006 097a 3F       		.byte	0x3f
 8007 097b 1A       		.byte	0x1a
 8008 097c 9F       		.byte	0x9f
 8009 097d 00000000 		.4byte	0
 8010 0981 00000000 		.4byte	0
 8011              	.LLST68:
 8012 0985 F4000000 		.4byte	.LVL144
 8013 0989 00010000 		.4byte	.LVL146
 8014 098d 0700     		.2byte	0x7
 8015 098f 75       		.byte	0x75
 8016 0990 08       		.sleb128 8
 8017 0991 94       		.byte	0x94
 8018 0992 01       		.byte	0x1
 8019 0993 3F       		.byte	0x3f
 8020 0994 1A       		.byte	0x1a
 8021 0995 9F       		.byte	0x9f
 8022 0996 2A010000 		.4byte	.LVL156
 8023 099a 34010000 		.4byte	.LFE49
 8024 099e 0700     		.2byte	0x7
 8025 09a0 75       		.byte	0x75
 8026 09a1 08       		.sleb128 8
 8027 09a2 94       		.byte	0x94
 8028 09a3 01       		.byte	0x1
 8029 09a4 3F       		.byte	0x3f
 8030 09a5 1A       		.byte	0x1a
 8031 09a6 9F       		.byte	0x9f
 8032 09a7 00000000 		.4byte	0
 8033 09ab 00000000 		.4byte	0
 8034              	.LLST69:
 8035 09af F4000000 		.4byte	.LVL144
 8036 09b3 00010000 		.4byte	.LVL146
 8037 09b7 0100     		.2byte	0x1
 8038 09b9 53       		.byte	0x53
 8039 09ba 2A010000 		.4byte	.LVL156
 8040 09be 34010000 		.4byte	.LFE49
 8041 09c2 0100     		.2byte	0x1
 8042 09c4 53       		.byte	0x53
 8043 09c5 00000000 		.4byte	0
 8044 09c9 00000000 		.4byte	0
 8045              	.LLST70:
 8046 09cd 7A000000 		.4byte	.LVL135
 8047 09d1 84000000 		.4byte	.LVL137
 8048 09d5 0100     		.2byte	0x1
 8049 09d7 50       		.byte	0x50
 8050 09d8 00000000 		.4byte	0
 8051 09dc 00000000 		.4byte	0
 8052              	.LLST71:
 8053 09e0 7A000000 		.4byte	.LVL135
 8054 09e4 80000000 		.4byte	.LVL136
ARM GAS  C:\Users\EBANO_~1\AppData\Local\Temp\ccizkeXa.s 			page 152


 8055 09e8 0100     		.2byte	0x1
 8056 09ea 51       		.byte	0x51
 8057 09eb 00000000 		.4byte	0
 8058 09ef 00000000 		.4byte	0
 8059              	.LLST72:
 8060 09f3 7A000000 		.4byte	.LVL135
 8061 09f7 84000000 		.4byte	.LVL137
 8062 09fb 0100     		.2byte	0x1
 8063 09fd 58       		.byte	0x58
 8064 09fe 00000000 		.4byte	0
 8065 0a02 00000000 		.4byte	0
 8066              	.LLST45:
 8067 0a06 00000000 		.4byte	.LFB48
 8068 0a0a 02000000 		.4byte	.LCFI8
 8069 0a0e 0200     		.2byte	0x2
 8070 0a10 7D       		.byte	0x7d
 8071 0a11 00       		.sleb128 0
 8072 0a12 02000000 		.4byte	.LCFI8
 8073 0a16 38000000 		.4byte	.LFE48
 8074 0a1a 0200     		.2byte	0x2
 8075 0a1c 7D       		.byte	0x7d
 8076 0a1d 08       		.sleb128 8
 8077 0a1e 00000000 		.4byte	0
 8078 0a22 00000000 		.4byte	0
 8079              	.LLST46:
 8080 0a26 00000000 		.4byte	.LVL108
 8081 0a2a 08000000 		.4byte	.LVL109
 8082 0a2e 0100     		.2byte	0x1
 8083 0a30 50       		.byte	0x50
 8084 0a31 08000000 		.4byte	.LVL109
 8085 0a35 0C000000 		.4byte	.LVL110
 8086 0a39 0100     		.2byte	0x1
 8087 0a3b 53       		.byte	0x53
 8088 0a3c 0C000000 		.4byte	.LVL110
 8089 0a40 0E000000 		.4byte	.LVL111
 8090 0a44 0400     		.2byte	0x4
 8091 0a46 F3       		.byte	0xf3
 8092 0a47 01       		.uleb128 0x1
 8093 0a48 50       		.byte	0x50
 8094 0a49 9F       		.byte	0x9f
 8095 0a4a 0E000000 		.4byte	.LVL111
 8096 0a4e 2C000000 		.4byte	.LVL112
 8097 0a52 0100     		.2byte	0x1
 8098 0a54 53       		.byte	0x53
 8099 0a55 2C000000 		.4byte	.LVL112
 8100 0a59 38000000 		.4byte	.LFE48
 8101 0a5d 0400     		.2byte	0x4
 8102 0a5f F3       		.byte	0xf3
 8103 0a60 01       		.uleb128 0x1
 8104 0a61 50       		.byte	0x50
 8105 0a62 9F       		.byte	0x9f
 8106 0a63 00000000 		.4byte	0
 8107 0a67 00000000 		.4byte	0
 8108              	.LLST47:
 8109 0a6b 00000000 		.4byte	.LVL108
 8110 0a6f 0C000000 		.4byte	.LVL110
 8111 0a73 0200     		.2byte	0x2
ARM GAS  C:\Users\EBANO_~1\AppData\Local\Temp\ccizkeXa.s 			page 153


 8112 0a75 30       		.byte	0x30
 8113 0a76 9F       		.byte	0x9f
 8114 0a77 0C000000 		.4byte	.LVL110
 8115 0a7b 0E000000 		.4byte	.LVL111
 8116 0a7f 0100     		.2byte	0x1
 8117 0a81 50       		.byte	0x50
 8118 0a82 0E000000 		.4byte	.LVL111
 8119 0a86 34000000 		.4byte	.LVL113
 8120 0a8a 0200     		.2byte	0x2
 8121 0a8c 30       		.byte	0x30
 8122 0a8d 9F       		.byte	0x9f
 8123 0a8e 34000000 		.4byte	.LVL113
 8124 0a92 38000000 		.4byte	.LFE48
 8125 0a96 0200     		.2byte	0x2
 8126 0a98 35       		.byte	0x35
 8127 0a99 9F       		.byte	0x9f
 8128 0a9a 00000000 		.4byte	0
 8129 0a9e 00000000 		.4byte	0
 8130              	.LLST37:
 8131 0aa2 00000000 		.4byte	.LFB47
 8132 0aa6 02000000 		.4byte	.LCFI6
 8133 0aaa 0200     		.2byte	0x2
 8134 0aac 7D       		.byte	0x7d
 8135 0aad 00       		.sleb128 0
 8136 0aae 02000000 		.4byte	.LCFI6
 8137 0ab2 0A000000 		.4byte	.LCFI7
 8138 0ab6 0200     		.2byte	0x2
 8139 0ab8 7D       		.byte	0x7d
 8140 0ab9 14       		.sleb128 20
 8141 0aba 0A000000 		.4byte	.LCFI7
 8142 0abe D6000000 		.4byte	.LFE47
 8143 0ac2 0200     		.2byte	0x2
 8144 0ac4 7D       		.byte	0x7d
 8145 0ac5 20       		.sleb128 32
 8146 0ac6 00000000 		.4byte	0
 8147 0aca 00000000 		.4byte	0
 8148              	.LLST38:
 8149 0ace 00000000 		.4byte	.LVL86
 8150 0ad2 2A000000 		.4byte	.LVL89
 8151 0ad6 0100     		.2byte	0x1
 8152 0ad8 50       		.byte	0x50
 8153 0ad9 2A000000 		.4byte	.LVL89
 8154 0add CE000000 		.4byte	.LVL106
 8155 0ae1 0400     		.2byte	0x4
 8156 0ae3 F3       		.byte	0xf3
 8157 0ae4 01       		.uleb128 0x1
 8158 0ae5 50       		.byte	0x50
 8159 0ae6 9F       		.byte	0x9f
 8160 0ae7 CE000000 		.4byte	.LVL106
 8161 0aeb D6000000 		.4byte	.LFE47
 8162 0aef 0100     		.2byte	0x1
 8163 0af1 50       		.byte	0x50
 8164 0af2 00000000 		.4byte	0
 8165 0af6 00000000 		.4byte	0
 8166              	.LLST39:
 8167 0afa 00000000 		.4byte	.LVL86
 8168 0afe 2A000000 		.4byte	.LVL89
ARM GAS  C:\Users\EBANO_~1\AppData\Local\Temp\ccizkeXa.s 			page 154


 8169 0b02 0100     		.2byte	0x1
 8170 0b04 51       		.byte	0x51
 8171 0b05 2A000000 		.4byte	.LVL89
 8172 0b09 CE000000 		.4byte	.LVL106
 8173 0b0d 0400     		.2byte	0x4
 8174 0b0f F3       		.byte	0xf3
 8175 0b10 01       		.uleb128 0x1
 8176 0b11 51       		.byte	0x51
 8177 0b12 9F       		.byte	0x9f
 8178 0b13 CE000000 		.4byte	.LVL106
 8179 0b17 D6000000 		.4byte	.LFE47
 8180 0b1b 0100     		.2byte	0x1
 8181 0b1d 51       		.byte	0x51
 8182 0b1e 00000000 		.4byte	0
 8183 0b22 00000000 		.4byte	0
 8184              	.LLST40:
 8185 0b26 00000000 		.4byte	.LVL86
 8186 0b2a 24000000 		.4byte	.LVL88
 8187 0b2e 0100     		.2byte	0x1
 8188 0b30 52       		.byte	0x52
 8189 0b31 24000000 		.4byte	.LVL88
 8190 0b35 2A000000 		.4byte	.LVL89
 8191 0b39 0300     		.2byte	0x3
 8192 0b3b 72       		.byte	0x72
 8193 0b3c 6C       		.sleb128 -20
 8194 0b3d 9F       		.byte	0x9f
 8195 0b3e 2A000000 		.4byte	.LVL89
 8196 0b42 CE000000 		.4byte	.LVL106
 8197 0b46 0400     		.2byte	0x4
 8198 0b48 F3       		.byte	0xf3
 8199 0b49 01       		.uleb128 0x1
 8200 0b4a 52       		.byte	0x52
 8201 0b4b 9F       		.byte	0x9f
 8202 0b4c CE000000 		.4byte	.LVL106
 8203 0b50 D6000000 		.4byte	.LFE47
 8204 0b54 0100     		.2byte	0x1
 8205 0b56 52       		.byte	0x52
 8206 0b57 00000000 		.4byte	0
 8207 0b5b 00000000 		.4byte	0
 8208              	.LLST41:
 8209 0b5f 00000000 		.4byte	.LVL86
 8210 0b63 14000000 		.4byte	.LVL87
 8211 0b67 0100     		.2byte	0x1
 8212 0b69 53       		.byte	0x53
 8213 0b6a 14000000 		.4byte	.LVL87
 8214 0b6e CE000000 		.4byte	.LVL106
 8215 0b72 0400     		.2byte	0x4
 8216 0b74 F3       		.byte	0xf3
 8217 0b75 01       		.uleb128 0x1
 8218 0b76 53       		.byte	0x53
 8219 0b77 9F       		.byte	0x9f
 8220 0b78 CE000000 		.4byte	.LVL106
 8221 0b7c D0000000 		.4byte	.LVL107
 8222 0b80 0100     		.2byte	0x1
 8223 0b82 53       		.byte	0x53
 8224 0b83 D0000000 		.4byte	.LVL107
 8225 0b87 D6000000 		.4byte	.LFE47
ARM GAS  C:\Users\EBANO_~1\AppData\Local\Temp\ccizkeXa.s 			page 155


 8226 0b8b 0400     		.2byte	0x4
 8227 0b8d F3       		.byte	0xf3
 8228 0b8e 01       		.uleb128 0x1
 8229 0b8f 53       		.byte	0x53
 8230 0b90 9F       		.byte	0x9f
 8231 0b91 00000000 		.4byte	0
 8232 0b95 00000000 		.4byte	0
 8233              	.LLST42:
 8234 0b99 00000000 		.4byte	.LVL86
 8235 0b9d 2A000000 		.4byte	.LVL89
 8236 0ba1 0300     		.2byte	0x3
 8237 0ba3 09       		.byte	0x9
 8238 0ba4 FF       		.byte	0xff
 8239 0ba5 9F       		.byte	0x9f
 8240 0ba6 2A000000 		.4byte	.LVL89
 8241 0baa 2E000000 		.4byte	.LVL90
 8242 0bae 0100     		.2byte	0x1
 8243 0bb0 58       		.byte	0x58
 8244 0bb1 2E000000 		.4byte	.LVL90
 8245 0bb5 34000000 		.4byte	.LVL91
 8246 0bb9 0200     		.2byte	0x2
 8247 0bbb 30       		.byte	0x30
 8248 0bbc 9F       		.byte	0x9f
 8249 0bbd 34000000 		.4byte	.LVL91
 8250 0bc1 64000000 		.4byte	.LVL95
 8251 0bc5 0100     		.2byte	0x1
 8252 0bc7 58       		.byte	0x58
 8253 0bc8 64000000 		.4byte	.LVL95
 8254 0bcc 68000000 		.4byte	.LVL96
 8255 0bd0 0100     		.2byte	0x1
 8256 0bd2 50       		.byte	0x50
 8257 0bd3 74000000 		.4byte	.LVL97
 8258 0bd7 A4000000 		.4byte	.LVL100
 8259 0bdb 0100     		.2byte	0x1
 8260 0bdd 58       		.byte	0x58
 8261 0bde B0000000 		.4byte	.LVL102
 8262 0be2 CE000000 		.4byte	.LVL106
 8263 0be6 0100     		.2byte	0x1
 8264 0be8 58       		.byte	0x58
 8265 0be9 CE000000 		.4byte	.LVL106
 8266 0bed D6000000 		.4byte	.LFE47
 8267 0bf1 0300     		.2byte	0x3
 8268 0bf3 09       		.byte	0x9
 8269 0bf4 FF       		.byte	0xff
 8270 0bf5 9F       		.byte	0x9f
 8271 0bf6 00000000 		.4byte	0
 8272 0bfa 00000000 		.4byte	0
 8273              	.LLST43:
 8274 0bfe 00000000 		.4byte	.LVL86
 8275 0c02 2A000000 		.4byte	.LVL89
 8276 0c06 0200     		.2byte	0x2
 8277 0c08 30       		.byte	0x30
 8278 0c09 9F       		.byte	0x9f
 8279 0c0a CE000000 		.4byte	.LVL106
 8280 0c0e D6000000 		.4byte	.LFE47
 8281 0c12 0200     		.2byte	0x2
 8282 0c14 30       		.byte	0x30
ARM GAS  C:\Users\EBANO_~1\AppData\Local\Temp\ccizkeXa.s 			page 156


 8283 0c15 9F       		.byte	0x9f
 8284 0c16 00000000 		.4byte	0
 8285 0c1a 00000000 		.4byte	0
 8286              	.LLST44:
 8287 0c1e 4E000000 		.4byte	.LVL94
 8288 0c22 68000000 		.4byte	.LVL96
 8289 0c26 0100     		.2byte	0x1
 8290 0c28 5A       		.byte	0x5a
 8291 0c29 00000000 		.4byte	0
 8292 0c2d 00000000 		.4byte	0
 8293              	.LLST34:
 8294 0c31 00000000 		.4byte	.LFB45
 8295 0c35 02000000 		.4byte	.LCFI5
 8296 0c39 0200     		.2byte	0x2
 8297 0c3b 7D       		.byte	0x7d
 8298 0c3c 00       		.sleb128 0
 8299 0c3d 02000000 		.4byte	.LCFI5
 8300 0c41 72000000 		.4byte	.LFE45
 8301 0c45 0200     		.2byte	0x2
 8302 0c47 7D       		.byte	0x7d
 8303 0c48 10       		.sleb128 16
 8304 0c49 00000000 		.4byte	0
 8305 0c4d 00000000 		.4byte	0
 8306              	.LLST35:
 8307 0c51 00000000 		.4byte	.LVL77
 8308 0c55 58000000 		.4byte	.LVL81
 8309 0c59 0100     		.2byte	0x1
 8310 0c5b 52       		.byte	0x52
 8311 0c5c 58000000 		.4byte	.LVL81
 8312 0c60 5C000000 		.4byte	.LVL82
 8313 0c64 0400     		.2byte	0x4
 8314 0c66 F3       		.byte	0xf3
 8315 0c67 01       		.uleb128 0x1
 8316 0c68 52       		.byte	0x52
 8317 0c69 9F       		.byte	0x9f
 8318 0c6a 5C000000 		.4byte	.LVL82
 8319 0c6e 60000000 		.4byte	.LVL83
 8320 0c72 0100     		.2byte	0x1
 8321 0c74 52       		.byte	0x52
 8322 0c75 60000000 		.4byte	.LVL83
 8323 0c79 72000000 		.4byte	.LFE45
 8324 0c7d 0400     		.2byte	0x4
 8325 0c7f F3       		.byte	0xf3
 8326 0c80 01       		.uleb128 0x1
 8327 0c81 52       		.byte	0x52
 8328 0c82 9F       		.byte	0x9f
 8329 0c83 00000000 		.4byte	0
 8330 0c87 00000000 		.4byte	0
 8331              	.LLST36:
 8332 0c8b 0A000000 		.4byte	.LVL78
 8333 0c8f 3C000000 		.4byte	.LVL79
 8334 0c93 0200     		.2byte	0x2
 8335 0c95 30       		.byte	0x30
 8336 0c96 9F       		.byte	0x9f
 8337 0c97 54000000 		.4byte	.LVL80
 8338 0c9b 58000000 		.4byte	.LVL81
 8339 0c9f 0600     		.2byte	0x6
ARM GAS  C:\Users\EBANO_~1\AppData\Local\Temp\ccizkeXa.s 			page 157


 8340 0ca1 72       		.byte	0x72
 8341 0ca2 00       		.sleb128 0
 8342 0ca3 09       		.byte	0x9
 8343 0ca4 FE       		.byte	0xfe
 8344 0ca5 1A       		.byte	0x1a
 8345 0ca6 9F       		.byte	0x9f
 8346 0ca7 5C000000 		.4byte	.LVL82
 8347 0cab 66000000 		.4byte	.LVL84
 8348 0caf 0200     		.2byte	0x2
 8349 0cb1 30       		.byte	0x30
 8350 0cb2 9F       		.byte	0x9f
 8351 0cb3 00000000 		.4byte	0
 8352 0cb7 00000000 		.4byte	0
 8353              	.LLST24:
 8354 0cbb 00000000 		.4byte	.LFB44
 8355 0cbf 02000000 		.4byte	.LCFI3
 8356 0cc3 0200     		.2byte	0x2
 8357 0cc5 7D       		.byte	0x7d
 8358 0cc6 00       		.sleb128 0
 8359 0cc7 02000000 		.4byte	.LCFI3
 8360 0ccb 0C000000 		.4byte	.LCFI4
 8361 0ccf 0200     		.2byte	0x2
 8362 0cd1 7D       		.byte	0x7d
 8363 0cd2 14       		.sleb128 20
 8364 0cd3 0C000000 		.4byte	.LCFI4
 8365 0cd7 EC000000 		.4byte	.LFE44
 8366 0cdb 0200     		.2byte	0x2
 8367 0cdd 7D       		.byte	0x7d
 8368 0cde 24       		.sleb128 36
 8369 0cdf 00000000 		.4byte	0
 8370 0ce3 00000000 		.4byte	0
 8371              	.LLST25:
 8372 0ce7 00000000 		.4byte	.LVL32
 8373 0ceb 32000000 		.4byte	.LVL36
 8374 0cef 0100     		.2byte	0x1
 8375 0cf1 50       		.byte	0x50
 8376 0cf2 32000000 		.4byte	.LVL36
 8377 0cf6 3C000000 		.4byte	.LVL37
 8378 0cfa 0300     		.2byte	0x3
 8379 0cfc 70       		.byte	0x70
 8380 0cfd 7E       		.sleb128 -2
 8381 0cfe 9F       		.byte	0x9f
 8382 0cff 3C000000 		.4byte	.LVL37
 8383 0d03 E8000000 		.4byte	.LVL75
 8384 0d07 0400     		.2byte	0x4
 8385 0d09 F3       		.byte	0xf3
 8386 0d0a 01       		.uleb128 0x1
 8387 0d0b 50       		.byte	0x50
 8388 0d0c 9F       		.byte	0x9f
 8389 0d0d E8000000 		.4byte	.LVL75
 8390 0d11 EA000000 		.4byte	.LVL76
 8391 0d15 0100     		.2byte	0x1
 8392 0d17 50       		.byte	0x50
 8393 0d18 EA000000 		.4byte	.LVL76
 8394 0d1c EC000000 		.4byte	.LFE44
 8395 0d20 0400     		.2byte	0x4
 8396 0d22 F3       		.byte	0xf3
ARM GAS  C:\Users\EBANO_~1\AppData\Local\Temp\ccizkeXa.s 			page 158


 8397 0d23 01       		.uleb128 0x1
 8398 0d24 50       		.byte	0x50
 8399 0d25 9F       		.byte	0x9f
 8400 0d26 00000000 		.4byte	0
 8401 0d2a 00000000 		.4byte	0
 8402              	.LLST26:
 8403 0d2e 00000000 		.4byte	.LVL32
 8404 0d32 1E000000 		.4byte	.LVL35
 8405 0d36 0100     		.2byte	0x1
 8406 0d38 51       		.byte	0x51
 8407 0d39 1E000000 		.4byte	.LVL35
 8408 0d3d E8000000 		.4byte	.LVL75
 8409 0d41 0400     		.2byte	0x4
 8410 0d43 F3       		.byte	0xf3
 8411 0d44 01       		.uleb128 0x1
 8412 0d45 51       		.byte	0x51
 8413 0d46 9F       		.byte	0x9f
 8414 0d47 E8000000 		.4byte	.LVL75
 8415 0d4b EC000000 		.4byte	.LFE44
 8416 0d4f 0100     		.2byte	0x1
 8417 0d51 51       		.byte	0x51
 8418 0d52 00000000 		.4byte	0
 8419 0d56 00000000 		.4byte	0
 8420              	.LLST27:
 8421 0d5a 00000000 		.4byte	.LVL32
 8422 0d5e 16000000 		.4byte	.LVL34
 8423 0d62 0100     		.2byte	0x1
 8424 0d64 52       		.byte	0x52
 8425 0d65 16000000 		.4byte	.LVL34
 8426 0d69 E8000000 		.4byte	.LVL75
 8427 0d6d 0400     		.2byte	0x4
 8428 0d6f F3       		.byte	0xf3
 8429 0d70 01       		.uleb128 0x1
 8430 0d71 52       		.byte	0x52
 8431 0d72 9F       		.byte	0x9f
 8432 0d73 E8000000 		.4byte	.LVL75
 8433 0d77 EC000000 		.4byte	.LFE44
 8434 0d7b 0100     		.2byte	0x1
 8435 0d7d 52       		.byte	0x52
 8436 0d7e 00000000 		.4byte	0
 8437 0d82 00000000 		.4byte	0
 8438              	.LLST28:
 8439 0d86 00000000 		.4byte	.LVL32
 8440 0d8a 40000000 		.4byte	.LVL38
 8441 0d8e 0200     		.2byte	0x2
 8442 0d90 30       		.byte	0x30
 8443 0d91 9F       		.byte	0x9f
 8444 0d92 40000000 		.4byte	.LVL38
 8445 0d96 C6000000 		.4byte	.LVL69
 8446 0d9a 0100     		.2byte	0x1
 8447 0d9c 50       		.byte	0x50
 8448 0d9d CA000000 		.4byte	.LVL70
 8449 0da1 CE000000 		.4byte	.LVL71
 8450 0da5 0100     		.2byte	0x1
 8451 0da7 50       		.byte	0x50
 8452 0da8 DA000000 		.4byte	.LVL72
 8453 0dac DE000000 		.4byte	.LVL73
ARM GAS  C:\Users\EBANO_~1\AppData\Local\Temp\ccizkeXa.s 			page 159


 8454 0db0 0100     		.2byte	0x1
 8455 0db2 50       		.byte	0x50
 8456 0db3 E2000000 		.4byte	.LVL74
 8457 0db7 E8000000 		.4byte	.LVL75
 8458 0dbb 0100     		.2byte	0x1
 8459 0dbd 50       		.byte	0x50
 8460 0dbe E8000000 		.4byte	.LVL75
 8461 0dc2 EC000000 		.4byte	.LFE44
 8462 0dc6 0200     		.2byte	0x2
 8463 0dc8 30       		.byte	0x30
 8464 0dc9 9F       		.byte	0x9f
 8465 0dca 00000000 		.4byte	0
 8466 0dce 00000000 		.4byte	0
 8467              	.LLST29:
 8468 0dd2 10000000 		.4byte	.LVL33
 8469 0dd6 1E000000 		.4byte	.LVL35
 8470 0dda 0100     		.2byte	0x1
 8471 0ddc 51       		.byte	0x51
 8472 0ddd 1E000000 		.4byte	.LVL35
 8473 0de1 40000000 		.4byte	.LVL38
 8474 0de5 0400     		.2byte	0x4
 8475 0de7 F3       		.byte	0xf3
 8476 0de8 01       		.uleb128 0x1
 8477 0de9 51       		.byte	0x51
 8478 0dea 9F       		.byte	0x9f
 8479 0deb 00000000 		.4byte	0
 8480 0def 00000000 		.4byte	0
 8481              	.LLST30:
 8482 0df3 46000000 		.4byte	.LVL39
 8483 0df7 C4000000 		.4byte	.LVL68
 8484 0dfb 0200     		.2byte	0x2
 8485 0dfd 40       		.byte	0x40
 8486 0dfe 9F       		.byte	0x9f
 8487 0dff 00000000 		.4byte	0
 8488 0e03 00000000 		.4byte	0
 8489              	.LLST31:
 8490 0e07 46000000 		.4byte	.LVL39
 8491 0e0b C4000000 		.4byte	.LVL68
 8492 0e0f 0100     		.2byte	0x1
 8493 0e11 52       		.byte	0x52
 8494 0e12 00000000 		.4byte	0
 8495 0e16 00000000 		.4byte	0
 8496              	.LLST32:
 8497 0e1a 46000000 		.4byte	.LVL39
 8498 0e1e 48000000 		.4byte	.LVL40
 8499 0e22 0200     		.2byte	0x2
 8500 0e24 30       		.byte	0x30
 8501 0e25 9F       		.byte	0x9f
 8502 0e26 48000000 		.4byte	.LVL40
 8503 0e2a 56000000 		.4byte	.LVL42
 8504 0e2e 0100     		.2byte	0x1
 8505 0e30 53       		.byte	0x53
 8506 0e31 58000000 		.4byte	.LVL43
 8507 0e35 60000000 		.4byte	.LVL44
 8508 0e39 0100     		.2byte	0x1
 8509 0e3b 53       		.byte	0x53
 8510 0e3c 62000000 		.4byte	.LVL45
ARM GAS  C:\Users\EBANO_~1\AppData\Local\Temp\ccizkeXa.s 			page 160


 8511 0e40 6A000000 		.4byte	.LVL46
 8512 0e44 0100     		.2byte	0x1
 8513 0e46 53       		.byte	0x53
 8514 0e47 6C000000 		.4byte	.LVL47
 8515 0e4b 72000000 		.4byte	.LVL48
 8516 0e4f 0100     		.2byte	0x1
 8517 0e51 53       		.byte	0x53
 8518 0e52 74000000 		.4byte	.LVL49
 8519 0e56 7A000000 		.4byte	.LVL50
 8520 0e5a 0100     		.2byte	0x1
 8521 0e5c 53       		.byte	0x53
 8522 0e5d 7C000000 		.4byte	.LVL51
 8523 0e61 84000000 		.4byte	.LVL52
 8524 0e65 0100     		.2byte	0x1
 8525 0e67 53       		.byte	0x53
 8526 0e68 86000000 		.4byte	.LVL53
 8527 0e6c 8C000000 		.4byte	.LVL54
 8528 0e70 0100     		.2byte	0x1
 8529 0e72 53       		.byte	0x53
 8530 0e73 8E000000 		.4byte	.LVL55
 8531 0e77 94000000 		.4byte	.LVL56
 8532 0e7b 0100     		.2byte	0x1
 8533 0e7d 53       		.byte	0x53
 8534 0e7e 96000000 		.4byte	.LVL57
 8535 0e82 9C000000 		.4byte	.LVL58
 8536 0e86 0100     		.2byte	0x1
 8537 0e88 53       		.byte	0x53
 8538 0e89 9E000000 		.4byte	.LVL59
 8539 0e8d A4000000 		.4byte	.LVL60
 8540 0e91 0100     		.2byte	0x1
 8541 0e93 53       		.byte	0x53
 8542 0e94 A6000000 		.4byte	.LVL61
 8543 0e98 AC000000 		.4byte	.LVL62
 8544 0e9c 0100     		.2byte	0x1
 8545 0e9e 53       		.byte	0x53
 8546 0e9f AE000000 		.4byte	.LVL63
 8547 0ea3 B4000000 		.4byte	.LVL64
 8548 0ea7 0100     		.2byte	0x1
 8549 0ea9 53       		.byte	0x53
 8550 0eaa B6000000 		.4byte	.LVL65
 8551 0eae BC000000 		.4byte	.LVL66
 8552 0eb2 0100     		.2byte	0x1
 8553 0eb4 53       		.byte	0x53
 8554 0eb5 BE000000 		.4byte	.LVL67
 8555 0eb9 C4000000 		.4byte	.LVL68
 8556 0ebd 0100     		.2byte	0x1
 8557 0ebf 53       		.byte	0x53
 8558 0ec0 00000000 		.4byte	0
 8559 0ec4 00000000 		.4byte	0
 8560              	.LLST33:
 8561 0ec8 46000000 		.4byte	.LVL39
 8562 0ecc 48000000 		.4byte	.LVL40
 8563 0ed0 0200     		.2byte	0x2
 8564 0ed2 30       		.byte	0x30
 8565 0ed3 9F       		.byte	0x9f
 8566 0ed4 48000000 		.4byte	.LVL40
 8567 0ed8 4E000000 		.4byte	.LVL41
ARM GAS  C:\Users\EBANO_~1\AppData\Local\Temp\ccizkeXa.s 			page 161


 8568 0edc 0200     		.2byte	0x2
 8569 0ede 31       		.byte	0x31
 8570 0edf 9F       		.byte	0x9f
 8571 0ee0 4E000000 		.4byte	.LVL41
 8572 0ee4 58000000 		.4byte	.LVL43
 8573 0ee8 0200     		.2byte	0x2
 8574 0eea 32       		.byte	0x32
 8575 0eeb 9F       		.byte	0x9f
 8576 0eec 58000000 		.4byte	.LVL43
 8577 0ef0 62000000 		.4byte	.LVL45
 8578 0ef4 0200     		.2byte	0x2
 8579 0ef6 33       		.byte	0x33
 8580 0ef7 9F       		.byte	0x9f
 8581 0ef8 62000000 		.4byte	.LVL45
 8582 0efc 6C000000 		.4byte	.LVL47
 8583 0f00 0200     		.2byte	0x2
 8584 0f02 34       		.byte	0x34
 8585 0f03 9F       		.byte	0x9f
 8586 0f04 6C000000 		.4byte	.LVL47
 8587 0f08 74000000 		.4byte	.LVL49
 8588 0f0c 0200     		.2byte	0x2
 8589 0f0e 35       		.byte	0x35
 8590 0f0f 9F       		.byte	0x9f
 8591 0f10 74000000 		.4byte	.LVL49
 8592 0f14 7C000000 		.4byte	.LVL51
 8593 0f18 0200     		.2byte	0x2
 8594 0f1a 36       		.byte	0x36
 8595 0f1b 9F       		.byte	0x9f
 8596 0f1c 7C000000 		.4byte	.LVL51
 8597 0f20 86000000 		.4byte	.LVL53
 8598 0f24 0200     		.2byte	0x2
 8599 0f26 37       		.byte	0x37
 8600 0f27 9F       		.byte	0x9f
 8601 0f28 86000000 		.4byte	.LVL53
 8602 0f2c 8E000000 		.4byte	.LVL55
 8603 0f30 0200     		.2byte	0x2
 8604 0f32 38       		.byte	0x38
 8605 0f33 9F       		.byte	0x9f
 8606 0f34 8E000000 		.4byte	.LVL55
 8607 0f38 96000000 		.4byte	.LVL57
 8608 0f3c 0200     		.2byte	0x2
 8609 0f3e 39       		.byte	0x39
 8610 0f3f 9F       		.byte	0x9f
 8611 0f40 96000000 		.4byte	.LVL57
 8612 0f44 9E000000 		.4byte	.LVL59
 8613 0f48 0200     		.2byte	0x2
 8614 0f4a 3A       		.byte	0x3a
 8615 0f4b 9F       		.byte	0x9f
 8616 0f4c 9E000000 		.4byte	.LVL59
 8617 0f50 A6000000 		.4byte	.LVL61
 8618 0f54 0200     		.2byte	0x2
 8619 0f56 3B       		.byte	0x3b
 8620 0f57 9F       		.byte	0x9f
 8621 0f58 A6000000 		.4byte	.LVL61
 8622 0f5c AE000000 		.4byte	.LVL63
 8623 0f60 0200     		.2byte	0x2
 8624 0f62 3C       		.byte	0x3c
ARM GAS  C:\Users\EBANO_~1\AppData\Local\Temp\ccizkeXa.s 			page 162


 8625 0f63 9F       		.byte	0x9f
 8626 0f64 AE000000 		.4byte	.LVL63
 8627 0f68 B6000000 		.4byte	.LVL65
 8628 0f6c 0200     		.2byte	0x2
 8629 0f6e 3D       		.byte	0x3d
 8630 0f6f 9F       		.byte	0x9f
 8631 0f70 B6000000 		.4byte	.LVL65
 8632 0f74 BE000000 		.4byte	.LVL67
 8633 0f78 0200     		.2byte	0x2
 8634 0f7a 3E       		.byte	0x3e
 8635 0f7b 9F       		.byte	0x9f
 8636 0f7c BE000000 		.4byte	.LVL67
 8637 0f80 C4000000 		.4byte	.LVL68
 8638 0f84 0200     		.2byte	0x2
 8639 0f86 3F       		.byte	0x3f
 8640 0f87 9F       		.byte	0x9f
 8641 0f88 00000000 		.4byte	0
 8642 0f8c 00000000 		.4byte	0
 8643              	.LLST19:
 8644 0f90 00000000 		.4byte	.LFB43
 8645 0f94 02000000 		.4byte	.LCFI2
 8646 0f98 0200     		.2byte	0x2
 8647 0f9a 7D       		.byte	0x7d
 8648 0f9b 00       		.sleb128 0
 8649 0f9c 02000000 		.4byte	.LCFI2
 8650 0fa0 28000000 		.4byte	.LFE43
 8651 0fa4 0200     		.2byte	0x2
 8652 0fa6 7D       		.byte	0x7d
 8653 0fa7 0C       		.sleb128 12
 8654 0fa8 00000000 		.4byte	0
 8655 0fac 00000000 		.4byte	0
 8656              	.LLST20:
 8657 0fb0 00000000 		.4byte	.LVL26
 8658 0fb4 26000000 		.4byte	.LVL31
 8659 0fb8 0100     		.2byte	0x1
 8660 0fba 50       		.byte	0x50
 8661 0fbb 26000000 		.4byte	.LVL31
 8662 0fbf 28000000 		.4byte	.LFE43
 8663 0fc3 0400     		.2byte	0x4
 8664 0fc5 F3       		.byte	0xf3
 8665 0fc6 01       		.uleb128 0x1
 8666 0fc7 50       		.byte	0x50
 8667 0fc8 9F       		.byte	0x9f
 8668 0fc9 00000000 		.4byte	0
 8669 0fcd 00000000 		.4byte	0
 8670              	.LLST21:
 8671 0fd1 00000000 		.4byte	.LVL26
 8672 0fd5 16000000 		.4byte	.LVL29
 8673 0fd9 0100     		.2byte	0x1
 8674 0fdb 51       		.byte	0x51
 8675 0fdc 16000000 		.4byte	.LVL29
 8676 0fe0 28000000 		.4byte	.LFE43
 8677 0fe4 0400     		.2byte	0x4
 8678 0fe6 F3       		.byte	0xf3
 8679 0fe7 01       		.uleb128 0x1
 8680 0fe8 51       		.byte	0x51
 8681 0fe9 9F       		.byte	0x9f
ARM GAS  C:\Users\EBANO_~1\AppData\Local\Temp\ccizkeXa.s 			page 163


 8682 0fea 00000000 		.4byte	0
 8683 0fee 00000000 		.4byte	0
 8684              	.LLST22:
 8685 0ff2 00000000 		.4byte	.LVL26
 8686 0ff6 12000000 		.4byte	.LVL28
 8687 0ffa 0100     		.2byte	0x1
 8688 0ffc 52       		.byte	0x52
 8689 0ffd 12000000 		.4byte	.LVL28
 8690 1001 28000000 		.4byte	.LFE43
 8691 1005 0400     		.2byte	0x4
 8692 1007 F3       		.byte	0xf3
 8693 1008 01       		.uleb128 0x1
 8694 1009 52       		.byte	0x52
 8695 100a 9F       		.byte	0x9f
 8696 100b 00000000 		.4byte	0
 8697 100f 00000000 		.4byte	0
 8698              	.LLST23:
 8699 1013 04000000 		.4byte	.LVL27
 8700 1017 1A000000 		.4byte	.LVL30
 8701 101b 0100     		.2byte	0x1
 8702 101d 53       		.byte	0x53
 8703 101e 00000000 		.4byte	0
 8704 1022 00000000 		.4byte	0
 8705              	.LLST0:
 8706 1026 00000000 		.4byte	.LVL0
 8707 102a 06000000 		.4byte	.LVL1
 8708 102e 0100     		.2byte	0x1
 8709 1030 50       		.byte	0x50
 8710 1031 06000000 		.4byte	.LVL1
 8711 1035 30000000 		.4byte	.LFE40
 8712 1039 0100     		.2byte	0x1
 8713 103b 52       		.byte	0x52
 8714 103c 00000000 		.4byte	0
 8715 1040 00000000 		.4byte	0
 8716              	.LLST1:
 8717 1044 00000000 		.4byte	.LVL0
 8718 1048 1E000000 		.4byte	.LVL2
 8719 104c 0200     		.2byte	0x2
 8720 104e 30       		.byte	0x30
 8721 104f 9F       		.byte	0x9f
 8722 1050 1E000000 		.4byte	.LVL2
 8723 1054 30000000 		.4byte	.LFE40
 8724 1058 0100     		.2byte	0x1
 8725 105a 50       		.byte	0x50
 8726 105b 00000000 		.4byte	0
 8727 105f 00000000 		.4byte	0
 8728              	.LLST2:
 8729 1063 00000000 		.4byte	.LFB41
 8730 1067 02000000 		.4byte	.LCFI0
 8731 106b 0200     		.2byte	0x2
 8732 106d 7D       		.byte	0x7d
 8733 106e 00       		.sleb128 0
 8734 106f 02000000 		.4byte	.LCFI0
 8735 1073 0C000000 		.4byte	.LCFI1
 8736 1077 0200     		.2byte	0x2
 8737 1079 7D       		.byte	0x7d
 8738 107a 14       		.sleb128 20
ARM GAS  C:\Users\EBANO_~1\AppData\Local\Temp\ccizkeXa.s 			page 164


 8739 107b 0C000000 		.4byte	.LCFI1
 8740 107f 96000000 		.4byte	.LFE41
 8741 1083 0200     		.2byte	0x2
 8742 1085 7D       		.byte	0x7d
 8743 1086 24       		.sleb128 36
 8744 1087 00000000 		.4byte	0
 8745 108b 00000000 		.4byte	0
 8746              	.LLST3:
 8747 108f 00000000 		.4byte	.LVL3
 8748 1093 1A000000 		.4byte	.LVL8
 8749 1097 0100     		.2byte	0x1
 8750 1099 50       		.byte	0x50
 8751 109a 1A000000 		.4byte	.LVL8
 8752 109e 96000000 		.4byte	.LFE41
 8753 10a2 0400     		.2byte	0x4
 8754 10a4 F3       		.byte	0xf3
 8755 10a5 01       		.uleb128 0x1
 8756 10a6 50       		.byte	0x50
 8757 10a7 9F       		.byte	0x9f
 8758 10a8 00000000 		.4byte	0
 8759 10ac 00000000 		.4byte	0
 8760              	.LLST4:
 8761 10b0 00000000 		.4byte	.LVL3
 8762 10b4 10000000 		.4byte	.LVL4
 8763 10b8 0100     		.2byte	0x1
 8764 10ba 51       		.byte	0x51
 8765 10bb 10000000 		.4byte	.LVL4
 8766 10bf 86000000 		.4byte	.LVL21
 8767 10c3 0100     		.2byte	0x1
 8768 10c5 58       		.byte	0x58
 8769 10c6 86000000 		.4byte	.LVL21
 8770 10ca 92000000 		.4byte	.LVL22
 8771 10ce 0400     		.2byte	0x4
 8772 10d0 F3       		.byte	0xf3
 8773 10d1 01       		.uleb128 0x1
 8774 10d2 51       		.byte	0x51
 8775 10d3 9F       		.byte	0x9f
 8776 10d4 92000000 		.4byte	.LVL22
 8777 10d8 96000000 		.4byte	.LFE41
 8778 10dc 0100     		.2byte	0x1
 8779 10de 58       		.byte	0x58
 8780 10df 00000000 		.4byte	0
 8781 10e3 00000000 		.4byte	0
 8782              	.LLST5:
 8783 10e7 00000000 		.4byte	.LVL3
 8784 10eb 12000000 		.4byte	.LVL5
 8785 10ef 0100     		.2byte	0x1
 8786 10f1 52       		.byte	0x52
 8787 10f2 12000000 		.4byte	.LVL5
 8788 10f6 96000000 		.4byte	.LFE41
 8789 10fa 0400     		.2byte	0x4
 8790 10fc F3       		.byte	0xf3
 8791 10fd 01       		.uleb128 0x1
 8792 10fe 52       		.byte	0x52
 8793 10ff 9F       		.byte	0x9f
 8794 1100 00000000 		.4byte	0
 8795 1104 00000000 		.4byte	0
ARM GAS  C:\Users\EBANO_~1\AppData\Local\Temp\ccizkeXa.s 			page 165


 8796              	.LLST6:
 8797 1108 00000000 		.4byte	.LVL3
 8798 110c 24000000 		.4byte	.LVL10
 8799 1110 0100     		.2byte	0x1
 8800 1112 53       		.byte	0x53
 8801 1113 24000000 		.4byte	.LVL10
 8802 1117 96000000 		.4byte	.LFE41
 8803 111b 0400     		.2byte	0x4
 8804 111d F3       		.byte	0xf3
 8805 111e 01       		.uleb128 0x1
 8806 111f 53       		.byte	0x53
 8807 1120 9F       		.byte	0x9f
 8808 1121 00000000 		.4byte	0
 8809 1125 00000000 		.4byte	0
 8810              	.LLST7:
 8811 1129 00000000 		.4byte	.LVL3
 8812 112d 12000000 		.4byte	.LVL5
 8813 1131 0200     		.2byte	0x2
 8814 1133 91       		.byte	0x91
 8815 1134 00       		.sleb128 0
 8816 1135 12000000 		.4byte	.LVL5
 8817 1139 14000000 		.4byte	.LVL6
 8818 113d 0200     		.2byte	0x2
 8819 113f 72       		.byte	0x72
 8820 1140 00       		.sleb128 0
 8821 1141 14000000 		.4byte	.LVL6
 8822 1145 96000000 		.4byte	.LFE41
 8823 1149 0200     		.2byte	0x2
 8824 114b 91       		.byte	0x91
 8825 114c 00       		.sleb128 0
 8826 114d 00000000 		.4byte	0
 8827 1151 00000000 		.4byte	0
 8828              	.LLST8:
 8829 1155 00000000 		.4byte	.LVL3
 8830 1159 12000000 		.4byte	.LVL5
 8831 115d 0200     		.2byte	0x2
 8832 115f 91       		.byte	0x91
 8833 1160 04       		.sleb128 4
 8834 1161 12000000 		.4byte	.LVL5
 8835 1165 14000000 		.4byte	.LVL6
 8836 1169 0200     		.2byte	0x2
 8837 116b 72       		.byte	0x72
 8838 116c 04       		.sleb128 4
 8839 116d 14000000 		.4byte	.LVL6
 8840 1171 96000000 		.4byte	.LFE41
 8841 1175 0200     		.2byte	0x2
 8842 1177 91       		.byte	0x91
 8843 1178 04       		.sleb128 4
 8844 1179 00000000 		.4byte	0
 8845 117d 00000000 		.4byte	0
 8846              	.LLST9:
 8847 1181 18000000 		.4byte	.LVL7
 8848 1185 2C000000 		.4byte	.LVL11
 8849 1189 0100     		.2byte	0x1
 8850 118b 52       		.byte	0x52
 8851 118c 2C000000 		.4byte	.LVL11
 8852 1190 96000000 		.4byte	.LFE41
ARM GAS  C:\Users\EBANO_~1\AppData\Local\Temp\ccizkeXa.s 			page 166


 8853 1194 0200     		.2byte	0x2
 8854 1196 91       		.byte	0x91
 8855 1197 00       		.sleb128 0
 8856 1198 00000000 		.4byte	0
 8857 119c 00000000 		.4byte	0
 8858              	.LLST10:
 8859 11a0 10000000 		.4byte	.LVL4
 8860 11a4 24000000 		.4byte	.LVL10
 8861 11a8 0100     		.2byte	0x1
 8862 11aa 53       		.byte	0x53
 8863 11ab 24000000 		.4byte	.LVL10
 8864 11af 96000000 		.4byte	.LFE41
 8865 11b3 0400     		.2byte	0x4
 8866 11b5 F3       		.byte	0xf3
 8867 11b6 01       		.uleb128 0x1
 8868 11b7 53       		.byte	0x53
 8869 11b8 9F       		.byte	0x9f
 8870 11b9 00000000 		.4byte	0
 8871 11bd 00000000 		.4byte	0
 8872              	.LLST11:
 8873 11c1 22000000 		.4byte	.LVL9
 8874 11c5 32000000 		.4byte	.LVL12
 8875 11c9 0200     		.2byte	0x2
 8876 11cb 30       		.byte	0x30
 8877 11cc 9F       		.byte	0x9f
 8878 11cd 32000000 		.4byte	.LVL12
 8879 11d1 86000000 		.4byte	.LVL20
 8880 11d5 0100     		.2byte	0x1
 8881 11d7 59       		.byte	0x59
 8882 11d8 92000000 		.4byte	.LVL22
 8883 11dc 96000000 		.4byte	.LFE41
 8884 11e0 0100     		.2byte	0x1
 8885 11e2 59       		.byte	0x59
 8886 11e3 00000000 		.4byte	0
 8887 11e7 00000000 		.4byte	0
 8888              	.LLST12:
 8889 11eb 22000000 		.4byte	.LVL9
 8890 11ef 32000000 		.4byte	.LVL12
 8891 11f3 0200     		.2byte	0x2
 8892 11f5 30       		.byte	0x30
 8893 11f6 9F       		.byte	0x9f
 8894 11f7 32000000 		.4byte	.LVL12
 8895 11fb 86000000 		.4byte	.LVL20
 8896 11ff 0100     		.2byte	0x1
 8897 1201 5A       		.byte	0x5a
 8898 1202 92000000 		.4byte	.LVL22
 8899 1206 96000000 		.4byte	.LFE41
 8900 120a 0100     		.2byte	0x1
 8901 120c 5A       		.byte	0x5a
 8902 120d 00000000 		.4byte	0
 8903 1211 00000000 		.4byte	0
 8904              	.LLST13:
 8905 1215 4A000000 		.4byte	.LVL13
 8906 1219 68000000 		.4byte	.LVL16
 8907 121d 0100     		.2byte	0x1
 8908 121f 54       		.byte	0x54
 8909 1220 68000000 		.4byte	.LVL16
ARM GAS  C:\Users\EBANO_~1\AppData\Local\Temp\ccizkeXa.s 			page 167


 8910 1224 6A000000 		.4byte	.LVL17
 8911 1228 0300     		.2byte	0x3
 8912 122a 74       		.byte	0x74
 8913 122b 01       		.sleb128 1
 8914 122c 9F       		.byte	0x9f
 8915 122d 92000000 		.4byte	.LVL22
 8916 1231 96000000 		.4byte	.LFE41
 8917 1235 0100     		.2byte	0x1
 8918 1237 54       		.byte	0x54
 8919 1238 00000000 		.4byte	0
 8920 123c 00000000 		.4byte	0
 8921              	.LLST14:
 8922 1240 5C000000 		.4byte	.LVL14
 8923 1244 64000000 		.4byte	.LVL15
 8924 1248 0500     		.2byte	0x5
 8925 124a 76       		.byte	0x76
 8926 124b 00       		.sleb128 0
 8927 124c 3F       		.byte	0x3f
 8928 124d 1A       		.byte	0x1a
 8929 124e 9F       		.byte	0x9f
 8930 124f 64000000 		.4byte	.LVL15
 8931 1253 68000000 		.4byte	.LVL16
 8932 1257 0900     		.2byte	0x9
 8933 1259 75       		.byte	0x75
 8934 125a 08       		.sleb128 8
 8935 125b 94       		.byte	0x94
 8936 125c 01       		.byte	0x1
 8937 125d 34       		.byte	0x34
 8938 125e 26       		.byte	0x26
 8939 125f 3F       		.byte	0x3f
 8940 1260 1A       		.byte	0x1a
 8941 1261 9F       		.byte	0x9f
 8942 1262 92000000 		.4byte	.LVL22
 8943 1266 96000000 		.4byte	.LFE41
 8944 126a 0900     		.2byte	0x9
 8945 126c 75       		.byte	0x75
 8946 126d 08       		.sleb128 8
 8947 126e 94       		.byte	0x94
 8948 126f 01       		.byte	0x1
 8949 1270 34       		.byte	0x34
 8950 1271 26       		.byte	0x26
 8951 1272 3F       		.byte	0x3f
 8952 1273 1A       		.byte	0x1a
 8953 1274 9F       		.byte	0x9f
 8954 1275 00000000 		.4byte	0
 8955 1279 00000000 		.4byte	0
 8956              	.LLST15:
 8957 127d 5C000000 		.4byte	.LVL14
 8958 1281 68000000 		.4byte	.LVL16
 8959 1285 0700     		.2byte	0x7
 8960 1287 75       		.byte	0x75
 8961 1288 08       		.sleb128 8
 8962 1289 94       		.byte	0x94
 8963 128a 01       		.byte	0x1
 8964 128b 3F       		.byte	0x3f
 8965 128c 1A       		.byte	0x1a
 8966 128d 9F       		.byte	0x9f
ARM GAS  C:\Users\EBANO_~1\AppData\Local\Temp\ccizkeXa.s 			page 168


 8967 128e 92000000 		.4byte	.LVL22
 8968 1292 96000000 		.4byte	.LFE41
 8969 1296 0700     		.2byte	0x7
 8970 1298 75       		.byte	0x75
 8971 1299 08       		.sleb128 8
 8972 129a 94       		.byte	0x94
 8973 129b 01       		.byte	0x1
 8974 129c 3F       		.byte	0x3f
 8975 129d 1A       		.byte	0x1a
 8976 129e 9F       		.byte	0x9f
 8977 129f 00000000 		.4byte	0
 8978 12a3 00000000 		.4byte	0
 8979              	.LLST16:
 8980 12a7 5C000000 		.4byte	.LVL14
 8981 12ab 68000000 		.4byte	.LVL16
 8982 12af 0100     		.2byte	0x1
 8983 12b1 51       		.byte	0x51
 8984 12b2 92000000 		.4byte	.LVL22
 8985 12b6 96000000 		.4byte	.LFE41
 8986 12ba 0100     		.2byte	0x1
 8987 12bc 51       		.byte	0x51
 8988 12bd 00000000 		.4byte	0
 8989 12c1 00000000 		.4byte	0
 8990              	.LLST17:
 8991 12c5 00000000 		.4byte	.LVL23
 8992 12c9 12000000 		.4byte	.LVL25
 8993 12cd 0100     		.2byte	0x1
 8994 12cf 50       		.byte	0x50
 8995 12d0 12000000 		.4byte	.LVL25
 8996 12d4 14000000 		.4byte	.LFE42
 8997 12d8 0400     		.2byte	0x4
 8998 12da F3       		.byte	0xf3
 8999 12db 01       		.uleb128 0x1
 9000 12dc 50       		.byte	0x50
 9001 12dd 9F       		.byte	0x9f
 9002 12de 00000000 		.4byte	0
 9003 12e2 00000000 		.4byte	0
 9004              	.LLST18:
 9005 12e6 00000000 		.4byte	.LVL23
 9006 12ea 0A000000 		.4byte	.LVL24
 9007 12ee 0100     		.2byte	0x1
 9008 12f0 51       		.byte	0x51
 9009 12f1 0A000000 		.4byte	.LVL24
 9010 12f5 14000000 		.4byte	.LFE42
 9011 12f9 0400     		.2byte	0x4
 9012 12fb F3       		.byte	0xf3
 9013 12fc 01       		.uleb128 0x1
 9014 12fd 51       		.byte	0x51
 9015 12fe 9F       		.byte	0x9f
 9016 12ff 00000000 		.4byte	0
 9017 1303 00000000 		.4byte	0
 9018              		.section	.debug_aranges,"",%progbits
 9019 0000 94000000 		.4byte	0x94
 9020 0004 0200     		.2byte	0x2
 9021 0006 00000000 		.4byte	.Ldebug_info0
 9022 000a 04       		.byte	0x4
 9023 000b 00       		.byte	0
ARM GAS  C:\Users\EBANO_~1\AppData\Local\Temp\ccizkeXa.s 			page 169


 9024 000c 0000     		.2byte	0
 9025 000e 0000     		.2byte	0
 9026 0010 00000000 		.4byte	.LFB40
 9027 0014 30000000 		.4byte	.LFE40-.LFB40
 9028 0018 00000000 		.4byte	.LFB41
 9029 001c 96000000 		.4byte	.LFE41-.LFB41
 9030 0020 00000000 		.4byte	.LFB42
 9031 0024 14000000 		.4byte	.LFE42-.LFB42
 9032 0028 00000000 		.4byte	.LFB43
 9033 002c 28000000 		.4byte	.LFE43-.LFB43
 9034 0030 00000000 		.4byte	.LFB44
 9035 0034 EC000000 		.4byte	.LFE44-.LFB44
 9036 0038 00000000 		.4byte	.LFB45
 9037 003c 72000000 		.4byte	.LFE45-.LFB45
 9038 0040 00000000 		.4byte	.LFB46
 9039 0044 0A000000 		.4byte	.LFE46-.LFB46
 9040 0048 00000000 		.4byte	.LFB47
 9041 004c D6000000 		.4byte	.LFE47-.LFB47
 9042 0050 00000000 		.4byte	.LFB48
 9043 0054 38000000 		.4byte	.LFE48-.LFB48
 9044 0058 00000000 		.4byte	.LFB49
 9045 005c 34010000 		.4byte	.LFE49-.LFB49
 9046 0060 00000000 		.4byte	.LFB50
 9047 0064 34000000 		.4byte	.LFE50-.LFB50
 9048 0068 00000000 		.4byte	.LFB51
 9049 006c 18000000 		.4byte	.LFE51-.LFB51
 9050 0070 00000000 		.4byte	.LFB52
 9051 0074 BC000000 		.4byte	.LFE52-.LFB52
 9052 0078 00000000 		.4byte	.LFB53
 9053 007c 2A000000 		.4byte	.LFE53-.LFB53
 9054 0080 00000000 		.4byte	.LFB54
 9055 0084 90000000 		.4byte	.LFE54-.LFB54
 9056 0088 00000000 		.4byte	.LFB55
 9057 008c 5C000000 		.4byte	.LFE55-.LFB55
 9058 0090 00000000 		.4byte	0
 9059 0094 00000000 		.4byte	0
 9060              		.section	.debug_ranges,"",%progbits
 9061              	.Ldebug_ranges0:
 9062 0000 22000000 		.4byte	.LBB38
 9063 0004 84000000 		.4byte	.LBE38
 9064 0008 92000000 		.4byte	.LBB46
 9065 000c 96000000 		.4byte	.LBE46
 9066 0010 00000000 		.4byte	0
 9067 0014 00000000 		.4byte	0
 9068 0018 2A000000 		.4byte	.LBB40
 9069 001c 2C000000 		.4byte	.LBE40
 9070 0020 30000000 		.4byte	.LBB43
 9071 0024 70000000 		.4byte	.LBE43
 9072 0028 92000000 		.4byte	.LBB44
 9073 002c 96000000 		.4byte	.LBE44
 9074 0030 00000000 		.4byte	0
 9075 0034 00000000 		.4byte	0
 9076 0038 10000000 		.4byte	.LBB47
 9077 003c 3A000000 		.4byte	.LBE47
 9078 0040 3C000000 		.4byte	.LBB61
 9079 0044 CE000000 		.4byte	.LBE61
 9080 0048 DA000000 		.4byte	.LBB62
ARM GAS  C:\Users\EBANO_~1\AppData\Local\Temp\ccizkeXa.s 			page 170


 9081 004c E8000000 		.4byte	.LBE62
 9082 0050 00000000 		.4byte	0
 9083 0054 00000000 		.4byte	0
 9084 0058 1E000000 		.4byte	.LBB48
 9085 005c 3A000000 		.4byte	.LBE48
 9086 0060 3C000000 		.4byte	.LBB58
 9087 0064 44000000 		.4byte	.LBE58
 9088 0068 46000000 		.4byte	.LBB59
 9089 006c C4000000 		.4byte	.LBE59
 9090 0070 DA000000 		.4byte	.LBB60
 9091 0074 DC000000 		.4byte	.LBE60
 9092 0078 00000000 		.4byte	0
 9093 007c 00000000 		.4byte	0
 9094 0080 22000000 		.4byte	.LBB50
 9095 0084 3A000000 		.4byte	.LBE50
 9096 0088 3C000000 		.4byte	.LBB51
 9097 008c 40000000 		.4byte	.LBE51
 9098 0090 42000000 		.4byte	.LBB52
 9099 0094 44000000 		.4byte	.LBE52
 9100 0098 48000000 		.4byte	.LBB53
 9101 009c C4000000 		.4byte	.LBE53
 9102 00a0 DA000000 		.4byte	.LBB54
 9103 00a4 DC000000 		.4byte	.LBE54
 9104 00a8 00000000 		.4byte	0
 9105 00ac 00000000 		.4byte	0
 9106 00b0 0A000000 		.4byte	.LBB63
 9107 00b4 5A000000 		.4byte	.LBE63
 9108 00b8 5C000000 		.4byte	.LBB64
 9109 00bc 72000000 		.4byte	.LBE64
 9110 00c0 00000000 		.4byte	0
 9111 00c4 00000000 		.4byte	0
 9112 00c8 0E000000 		.4byte	.LBB65
 9113 00cc 16000000 		.4byte	.LBE65
 9114 00d0 1C000000 		.4byte	.LBB68
 9115 00d4 68000000 		.4byte	.LBE68
 9116 00d8 74000000 		.4byte	.LBB69
 9117 00dc CE000000 		.4byte	.LBE69
 9118 00e0 00000000 		.4byte	0
 9119 00e4 00000000 		.4byte	0
 9120 00e8 3E000000 		.4byte	.LBB66
 9121 00ec 64000000 		.4byte	.LBE66
 9122 00f0 B0000000 		.4byte	.LBB67
 9123 00f4 CE000000 		.4byte	.LBE67
 9124 00f8 00000000 		.4byte	0
 9125 00fc 00000000 		.4byte	0
 9126 0100 66000000 		.4byte	.LBB84
 9127 0104 6E000000 		.4byte	.LBE84
 9128 0108 96000000 		.4byte	.LBB105
 9129 010c 9E000000 		.4byte	.LBE105
 9130 0110 A2000000 		.4byte	.LBB106
 9131 0114 A6000000 		.4byte	.LBE106
 9132 0118 A8000000 		.4byte	.LBB107
 9133 011c AA000000 		.4byte	.LBE107
 9134 0120 AE000000 		.4byte	.LBB108
 9135 0124 B0000000 		.4byte	.LBE108
 9136 0128 B2000000 		.4byte	.LBB109
 9137 012c 24010000 		.4byte	.LBE109
ARM GAS  C:\Users\EBANO_~1\AppData\Local\Temp\ccizkeXa.s 			page 171


 9138 0130 00000000 		.4byte	0
 9139 0134 00000000 		.4byte	0
 9140 0138 66000000 		.4byte	.LBB85
 9141 013c 6E000000 		.4byte	.LBE85
 9142 0140 96000000 		.4byte	.LBB88
 9143 0144 9E000000 		.4byte	.LBE88
 9144 0148 00000000 		.4byte	0
 9145 014c 00000000 		.4byte	0
 9146 0150 A8000000 		.4byte	.LBB91
 9147 0154 AA000000 		.4byte	.LBE91
 9148 0158 B4000000 		.4byte	.LBB96
 9149 015c 0A010000 		.4byte	.LBE96
 9150 0160 00000000 		.4byte	0
 9151 0164 00000000 		.4byte	0
 9152 0168 E8000000 		.4byte	.LBB92
 9153 016c EA000000 		.4byte	.LBE92
 9154 0170 F4000000 		.4byte	.LBB95
 9155 0174 04010000 		.4byte	.LBE95
 9156 0178 00000000 		.4byte	0
 9157 017c 00000000 		.4byte	0
 9158 0180 2A000000 		.4byte	.LBB110
 9159 0184 32000000 		.4byte	.LBE110
 9160 0188 4C000000 		.4byte	.LBB113
 9161 018c 5E000000 		.4byte	.LBE113
 9162 0190 00000000 		.4byte	0
 9163 0194 00000000 		.4byte	0
 9164 0198 00000000 		.4byte	.LFB40
 9165 019c 30000000 		.4byte	.LFE40
 9166 01a0 00000000 		.4byte	.LFB41
 9167 01a4 96000000 		.4byte	.LFE41
 9168 01a8 00000000 		.4byte	.LFB42
 9169 01ac 14000000 		.4byte	.LFE42
 9170 01b0 00000000 		.4byte	.LFB43
 9171 01b4 28000000 		.4byte	.LFE43
 9172 01b8 00000000 		.4byte	.LFB44
 9173 01bc EC000000 		.4byte	.LFE44
 9174 01c0 00000000 		.4byte	.LFB45
 9175 01c4 72000000 		.4byte	.LFE45
 9176 01c8 00000000 		.4byte	.LFB46
 9177 01cc 0A000000 		.4byte	.LFE46
 9178 01d0 00000000 		.4byte	.LFB47
 9179 01d4 D6000000 		.4byte	.LFE47
 9180 01d8 00000000 		.4byte	.LFB48
 9181 01dc 38000000 		.4byte	.LFE48
 9182 01e0 00000000 		.4byte	.LFB49
 9183 01e4 34010000 		.4byte	.LFE49
 9184 01e8 00000000 		.4byte	.LFB50
 9185 01ec 34000000 		.4byte	.LFE50
 9186 01f0 00000000 		.4byte	.LFB51
 9187 01f4 18000000 		.4byte	.LFE51
 9188 01f8 00000000 		.4byte	.LFB52
 9189 01fc BC000000 		.4byte	.LFE52
 9190 0200 00000000 		.4byte	.LFB53
 9191 0204 2A000000 		.4byte	.LFE53
 9192 0208 00000000 		.4byte	.LFB54
 9193 020c 90000000 		.4byte	.LFE54
 9194 0210 00000000 		.4byte	.LFB55
ARM GAS  C:\Users\EBANO_~1\AppData\Local\Temp\ccizkeXa.s 			page 172


 9195 0214 5C000000 		.4byte	.LFE55
 9196 0218 00000000 		.4byte	0
 9197 021c 00000000 		.4byte	0
 9198              		.section	.debug_line,"",%progbits
 9199              	.Ldebug_line0:
 9200 0000 73060000 		.section	.debug_str,"MS",%progbits,1
 9200      02009303 
 9200      00000201 
 9200      FB0E0D00 
 9200      01010101 
 9201              	.LASF186:
 9202 0000 52616469 		.ascii	"Radio\000"
 9202      6F00
 9203              	.LASF27:
 9204 0006 5F666C6F 		.ascii	"_flock_t\000"
 9204      636B5F74 
 9204      00
 9205              	.LASF293:
 9206 000f 72784572 		.ascii	"rxError\000"
 9206      726F7200 
 9207              	.LASF350:
 9208 0017 436F756E 		.ascii	"CountChannels\000"
 9208      74436861 
 9208      6E6E656C 
 9208      7300
 9209              	.LASF204:
 9210 0025 5352565F 		.ascii	"SRV_MAC_LINK_ADR_REQ\000"
 9210      4D41435F 
 9210      4C494E4B 
 9210      5F414452 
 9210      5F524551 
 9211              	.LASF187:
 9212 003a 53797374 		.ascii	"SystemCoreClock\000"
 9212      656D436F 
 9212      7265436C 
 9212      6F636B00 
 9213              	.LASF131:
 9214 004a 5F5F6664 		.ascii	"__fdlibm_xopen\000"
 9214      6C69626D 
 9214      5F786F70 
 9214      656E00
 9215              	.LASF298:
 9216 0059 52656769 		.ascii	"RegionCommonComputeSymbolTimeFsk\000"
 9216      6F6E436F 
 9216      6D6D6F6E 
 9216      436F6D70 
 9216      75746553 
 9217              	.LASF246:
 9218 007a 53746174 		.ascii	"Status\000"
 9218      757300
 9219              	.LASF60:
 9220 0081 5F636F6F 		.ascii	"_cookie\000"
 9220      6B696500 
 9221              	.LASF45:
 9222 0089 5F6F6E5F 		.ascii	"_on_exit_args\000"
 9222      65786974 
 9222      5F617267 
ARM GAS  C:\Users\EBANO_~1\AppData\Local\Temp\ccizkeXa.s 			page 173


 9222      7300
 9223              	.LASF325:
 9224 0097 52656769 		.ascii	"RegionCommonCountChannels\000"
 9224      6F6E436F 
 9224      6D6D6F6E 
 9224      436F756E 
 9224      74436861 
 9225              	.LASF267:
 9226 00b1 52656769 		.ascii	"RegionCommonCalcBackOffParams_t\000"
 9226      6F6E436F 
 9226      6D6D6F6E 
 9226      43616C63 
 9226      4261636B 
 9227              	.LASF112:
 9228 00d1 5F776374 		.ascii	"_wctomb_state\000"
 9228      6F6D625F 
 9228      73746174 
 9228      6500
 9229              	.LASF197:
 9230 00df 4669656C 		.ascii	"Fields\000"
 9230      647300
 9231              	.LASF240:
 9232 00e6 5478506F 		.ascii	"TxPower\000"
 9232      77657200 
 9233              	.LASF282:
 9234 00ee 63616C63 		.ascii	"calcBackOffParams\000"
 9234      4261636B 
 9234      4F666650 
 9234      6172616D 
 9234      7300
 9235              	.LASF322:
 9236 0100 52656769 		.ascii	"RegionCommonChanMaskCopy\000"
 9236      6F6E436F 
 9236      6D6D6F6E 
 9236      4368616E 
 9236      4D61736B 
 9237              	.LASF315:
 9238 0119 62616E64 		.ascii	"bands\000"
 9238      7300
 9239              	.LASF323:
 9240 011f 6368616E 		.ascii	"channelsMaskDest\000"
 9240      6E656C73 
 9240      4D61736B 
 9240      44657374 
 9240      00
 9241              	.LASF39:
 9242 0130 5F5F746D 		.ascii	"__tm_mday\000"
 9242      5F6D6461 
 9242      7900
 9243              	.LASF114:
 9244 013a 5F736967 		.ascii	"_signal_buf\000"
 9244      6E616C5F 
 9244      62756600 
 9245              	.LASF3:
 9246 0146 756E7369 		.ascii	"unsigned int\000"
 9246      676E6564 
 9246      20696E74 
ARM GAS  C:\Users\EBANO_~1\AppData\Local\Temp\ccizkeXa.s 			page 174


 9246      00
 9247              	.LASF223:
 9248 0153 42616E64 		.ascii	"Band_t\000"
 9248      5F7400
 9249              	.LASF59:
 9250 015a 5F6C6266 		.ascii	"_lbfsize\000"
 9250      73697A65 
 9250      00
 9251              	.LASF57:
 9252 0163 5F666C61 		.ascii	"_flags\000"
 9252      677300
 9253              	.LASF253:
 9254 016a 4D696E44 		.ascii	"MinDatarate\000"
 9254      61746172 
 9254      61746500 
 9255              	.LASF337:
 9256 0176 6D617844 		.ascii	"maxDr\000"
 9256      7200
 9257              	.LASF153:
 9258 017c 46687373 		.ascii	"FhssChangeChannel\000"
 9258      4368616E 
 9258      67654368 
 9258      616E6E65 
 9258      6C00
 9259              	.LASF74:
 9260 018e 5F657272 		.ascii	"_errno\000"
 9260      6E6F00
 9261              	.LASF72:
 9262 0195 5F666C61 		.ascii	"_flags2\000"
 9262      67733200 
 9263              	.LASF183:
 9264 019d 49727150 		.ascii	"IrqProcess\000"
 9264      726F6365 
 9264      737300
 9265              	.LASF243:
 9266 01a8 52656769 		.ascii	"RegionCommonLinkAdrParams_t\000"
 9266      6F6E436F 
 9266      6D6D6F6E 
 9266      4C696E6B 
 9266      41647250 
 9267              	.LASF269:
 9268 01c4 44617461 		.ascii	"Datarates\000"
 9268      72617465 
 9268      7300
 9269              	.LASF126:
 9270 01ce 5F5F6C6F 		.ascii	"__locale_t\000"
 9270      63616C65 
 9270      5F7400
 9271              	.LASF71:
 9272 01d9 5F6D6273 		.ascii	"_mbstate\000"
 9272      74617465 
 9272      00
 9273              	.LASF344:
 9274 01e2 666C6F6F 		.ascii	"floor\000"
 9274      7200
 9275              	.LASF171:
 9276 01e8 536C6565 		.ascii	"Sleep\000"
ARM GAS  C:\Users\EBANO_~1\AppData\Local\Temp\ccizkeXa.s 			page 175


 9276      7000
 9277              	.LASF80:
 9278 01ee 5F756E73 		.ascii	"_unspecified_locale_info\000"
 9278      70656369 
 9278      66696564 
 9278      5F6C6F63 
 9278      616C655F 
 9279              	.LASF148:
 9280 0207 5478446F 		.ascii	"TxDone\000"
 9280      6E6500
 9281              	.LASF109:
 9282 020e 5F723438 		.ascii	"_r48\000"
 9282      00
 9283              	.LASF29:
 9284 0213 5F5F554C 		.ascii	"__ULong\000"
 9284      6F6E6700 
 9285              	.LASF247:
 9286 021b 41647245 		.ascii	"AdrEnabled\000"
 9286      6E61626C 
 9286      656400
 9287              	.LASF156:
 9288 0226 52616469 		.ascii	"RadioEvents_t\000"
 9288      6F457665 
 9288      6E74735F 
 9288      7400
 9289              	.LASF254:
 9290 0234 4D617844 		.ascii	"MaxDatarate\000"
 9290      61746172 
 9290      61746500 
 9291              	.LASF182:
 9292 0240 47657457 		.ascii	"GetWakeupTime\000"
 9292      616B6575 
 9292      7054696D 
 9292      6500
 9293              	.LASF76:
 9294 024e 5F737464 		.ascii	"_stdout\000"
 9294      6F757400 
 9295              	.LASF20:
 9296 0256 5F66706F 		.ascii	"_fpos_t\000"
 9296      735F7400 
 9297              	.LASF52:
 9298 025e 5F666E73 		.ascii	"_fns\000"
 9298      00
 9299              	.LASF216:
 9300 0263 5352565F 		.ascii	"SRV_MAC_BEACON_FREQ_REQ\000"
 9300      4D41435F 
 9300      42454143 
 9300      4F4E5F46 
 9300      5245515F 
 9301              	.LASF152:
 9302 027b 52784572 		.ascii	"RxError\000"
 9302      726F7200 
 9303              	.LASF295:
 9304 0283 77696E64 		.ascii	"windowTimeout\000"
 9304      6F775469 
 9304      6D656F75 
 9304      7400
ARM GAS  C:\Users\EBANO_~1\AppData\Local\Temp\ccizkeXa.s 			page 176


 9305              	.LASF18:
 9306 0291 5F4C4F43 		.ascii	"_LOCK_T\000"
 9306      4B5F5400 
 9307              	.LASF34:
 9308 0299 5F426967 		.ascii	"_Bigint\000"
 9308      696E7400 
 9309              	.LASF285:
 9310 02a1 6A6F696E 		.ascii	"joinDutyCycle\000"
 9310      44757479 
 9310      4379636C 
 9310      6500
 9311              	.LASF42:
 9312 02af 5F5F746D 		.ascii	"__tm_wday\000"
 9312      5F776461 
 9312      7900
 9313              	.LASF84:
 9314 02b9 5F726573 		.ascii	"_result\000"
 9314      756C7400 
 9315              	.LASF297:
 9316 02c1 52656769 		.ascii	"RegionCommonComputeTxPower\000"
 9316      6F6E436F 
 9316      6D6D6F6E 
 9316      436F6D70 
 9316      75746554 
 9317              	.LASF139:
 9318 02dc 75696E74 		.ascii	"uint32_t\000"
 9318      33325F74 
 9318      00
 9319              	.LASF134:
 9320 02e5 696E7438 		.ascii	"int8_t\000"
 9320      5F7400
 9321              	.LASF38:
 9322 02ec 5F5F746D 		.ascii	"__tm_hour\000"
 9322      5F686F75 
 9322      7200
 9323              	.LASF149:
 9324 02f6 54785469 		.ascii	"TxTimeout\000"
 9324      6D656F75 
 9324      7400
 9325              	.LASF294:
 9326 0300 77616B65 		.ascii	"wakeUpTime\000"
 9326      55705469 
 9326      6D6500
 9327              	.LASF349:
 9328 030b 443A5C67 		.ascii	"D:\\git_pessoal\\keil_gcc\\STM32CubeExpansion_LRWAN"
 9328      69745F70 
 9328      6573736F 
 9328      616C5C6B 
 9328      65696C5F 
 9329 033b 5F56312E 		.ascii	"_V1.2.1\\Projects\\B-L072Z-LRWAN1\\Applications\\Lo"
 9329      322E315C 
 9329      50726F6A 
 9329      65637473 
 9329      5C422D4C 
 9330 036a 52615C45 		.ascii	"Ra\\End_Node\\MDK-ARM\000"
 9330      6E645F4E 
 9330      6F64655C 
ARM GAS  C:\Users\EBANO_~1\AppData\Local\Temp\ccizkeXa.s 			page 177


 9330      4D444B2D 
 9330      41524D00 
 9331              	.LASF24:
 9332 037e 5F5F636F 		.ascii	"__count\000"
 9332      756E7400 
 9333              	.LASF1:
 9334 0386 666C6F61 		.ascii	"float\000"
 9334      7400
 9335              	.LASF278:
 9336 038c 64617461 		.ascii	"datarate\000"
 9336      72617465 
 9336      00
 9337              	.LASF268:
 9338 0395 73526567 		.ascii	"sRegionCommonRxBeaconSetupParams\000"
 9338      696F6E43 
 9338      6F6D6D6F 
 9338      6E527842 
 9338      6561636F 
 9339              	.LASF192:
 9340 03b6 54696D65 		.ascii	"TimerTime_t\000"
 9340      7254696D 
 9340      655F7400 
 9341              	.LASF260:
 9342 03c2 42616E64 		.ascii	"Bands\000"
 9342      7300
 9343              	.LASF127:
 9344 03c8 5F696D70 		.ascii	"_impure_ptr\000"
 9344      7572655F 
 9344      70747200 
 9345              	.LASF122:
 9346 03d4 5F6E6578 		.ascii	"_nextf\000"
 9346      746600
 9347              	.LASF332:
 9348 03db 696E6465 		.ascii	"index\000"
 9348      7800
 9349              	.LASF287:
 9350 03e1 6D617845 		.ascii	"maxEirp\000"
 9350      69727000 
 9351              	.LASF203:
 9352 03e9 5352565F 		.ascii	"SRV_MAC_LINK_CHECK_ANS\000"
 9352      4D41435F 
 9352      4C494E4B 
 9352      5F434845 
 9352      434B5F41 
 9353              	.LASF136:
 9354 0400 696E7431 		.ascii	"int16_t\000"
 9354      365F7400 
 9355              	.LASF118:
 9356 0408 5F6D6273 		.ascii	"_mbsrtowcs_state\000"
 9356      72746F77 
 9356      63735F73 
 9356      74617465 
 9356      00
 9357              	.LASF245:
 9358 0419 56657273 		.ascii	"Version\000"
 9358      696F6E00 
 9359              	.LASF248:
ARM GAS  C:\Users\EBANO_~1\AppData\Local\Temp\ccizkeXa.s 			page 178


 9360 0421 43757272 		.ascii	"CurrentDatarate\000"
 9360      656E7444 
 9360      61746172 
 9360      61746500 
 9361              	.LASF256:
 9362 0431 4D696E54 		.ascii	"MinTxPower\000"
 9362      78506F77 
 9362      657200
 9363              	.LASF17:
 9364 043c 6C6F6E67 		.ascii	"long long unsigned int\000"
 9364      206C6F6E 
 9364      6720756E 
 9364      7369676E 
 9364      65642069 
 9365              	.LASF176:
 9366 0453 57726974 		.ascii	"Write\000"
 9366      6500
 9367              	.LASF173:
 9368 0459 53746172 		.ascii	"StartCad\000"
 9368      74436164 
 9368      00
 9369              	.LASF105:
 9370 0462 5F617363 		.ascii	"_asctime_buf\000"
 9370      74696D65 
 9370      5F627566 
 9370      00
 9371              	.LASF99:
 9372 046f 5F72616E 		.ascii	"_rand48\000"
 9372      64343800 
 9373              	.LASF154:
 9374 0477 43616444 		.ascii	"CadDone\000"
 9374      6F6E6500 
 9375              	.LASF56:
 9376 047f 5F5F7346 		.ascii	"__sFILE\000"
 9376      494C4500 
 9377              	.LASF33:
 9378 0487 5F776473 		.ascii	"_wds\000"
 9378      00
 9379              	.LASF302:
 9380 048c 52656769 		.ascii	"RegionCommonLinkAdrReqVerifyParams\000"
 9380      6F6E436F 
 9380      6D6D6F6E 
 9380      4C696E6B 
 9380      41647252 
 9381              	.LASF340:
 9382 04af 656C6170 		.ascii	"elapsedTime\000"
 9382      73656454 
 9382      696D6500 
 9383              	.LASF15:
 9384 04bb 5F5F7569 		.ascii	"__uint32_t\000"
 9384      6E743332 
 9384      5F7400
 9385              	.LASF336:
 9386 04c6 6D696E44 		.ascii	"minDr\000"
 9386      7200
 9387              	.LASF11:
 9388 04cc 5F5F7569 		.ascii	"__uint16_t\000"
ARM GAS  C:\Users\EBANO_~1\AppData\Local\Temp\ccizkeXa.s 			page 179


 9388      6E743136 
 9388      5F7400
 9389              	.LASF331:
 9390 04d7 6D617843 		.ascii	"maxChannels\000"
 9390      68616E6E 
 9390      656C7300 
 9391              	.LASF307:
 9392 04e3 7478506F 		.ascii	"txPower\000"
 9392      77657200 
 9393              	.LASF95:
 9394 04eb 5F5F4649 		.ascii	"__FILE\000"
 9394      4C4500
 9395              	.LASF121:
 9396 04f2 5F685F65 		.ascii	"_h_errno\000"
 9396      72726E6F 
 9396      00
 9397              	.LASF132:
 9398 04fb 5F5F6664 		.ascii	"__fdlibm_posix\000"
 9398      6C69626D 
 9398      5F706F73 
 9398      697800
 9399              	.LASF68:
 9400 050a 5F6F6666 		.ascii	"_offset\000"
 9400      73657400 
 9401              	.LASF65:
 9402 0512 5F756275 		.ascii	"_ubuf\000"
 9402      6600
 9403              	.LASF277:
 9404 0518 7278436F 		.ascii	"rxContinuous\000"
 9404      6E74696E 
 9404      756F7573 
 9404      00
 9405              	.LASF261:
 9406 0525 4C617374 		.ascii	"LastTxIsJoinRequest\000"
 9406      54784973 
 9406      4A6F696E 
 9406      52657175 
 9406      65737400 
 9407              	.LASF234:
 9408 0539 44725261 		.ascii	"DrRange\000"
 9408      6E676500 
 9409              	.LASF333:
 9410 0541 76616C75 		.ascii	"value\000"
 9410      6500
 9411              	.LASF116:
 9412 0547 5F6D6272 		.ascii	"_mbrlen_state\000"
 9412      6C656E5F 
 9412      73746174 
 9412      6500
 9413              	.LASF79:
 9414 0555 5F656D65 		.ascii	"_emergency\000"
 9414      7267656E 
 9414      637900
 9415              	.LASF276:
 9416 0560 4C6F5261 		.ascii	"LoRaMacMaxEirpTable\000"
 9416      4D61634D 
 9416      61784569 
ARM GAS  C:\Users\EBANO_~1\AppData\Local\Temp\ccizkeXa.s 			page 180


 9416      72705461 
 9416      626C6500 
 9417              	.LASF346:
 9418 0574 54696D65 		.ascii	"TimerGetElapsedTime\000"
 9418      72476574 
 9418      456C6170 
 9418      73656454 
 9418      696D6500 
 9419              	.LASF147:
 9420 0588 52616469 		.ascii	"RadioState_t\000"
 9420      6F537461 
 9420      74655F74 
 9420      00
 9421              	.LASF222:
 9422 0595 54696D65 		.ascii	"TimeOff\000"
 9422      4F666600 
 9423              	.LASF168:
 9424 059d 43686563 		.ascii	"CheckRfFrequency\000"
 9424      6B526646 
 9424      72657175 
 9424      656E6379 
 9424      00
 9425              	.LASF160:
 9426 05ae 496E6974 		.ascii	"Init\000"
 9426      00
 9427              	.LASF161:
 9428 05b3 47657453 		.ascii	"GetStatus\000"
 9428      74617475 
 9428      7300
 9429              	.LASF310:
 9430 05bd 7061796C 		.ascii	"payload\000"
 9430      6F616400 
 9431              	.LASF330:
 9432 05c5 52656769 		.ascii	"RegionCommonChanDisable\000"
 9432      6F6E436F 
 9432      6D6D6F6E 
 9432      4368616E 
 9432      44697361 
 9433              	.LASF36:
 9434 05dd 5F5F746D 		.ascii	"__tm_sec\000"
 9434      5F736563 
 9434      00
 9435              	.LASF252:
 9436 05e6 4368616E 		.ascii	"ChannelsMask\000"
 9436      6E656C73 
 9436      4D61736B 
 9436      00
 9437              	.LASF150:
 9438 05f3 5278446F 		.ascii	"RxDone\000"
 9438      6E6500
 9439              	.LASF191:
 9440 05fa 7375626F 		.ascii	"suboptarg\000"
 9440      70746172 
 9440      6700
 9441              	.LASF43:
 9442 0604 5F5F746D 		.ascii	"__tm_yday\000"
 9442      5F796461 
ARM GAS  C:\Users\EBANO_~1\AppData\Local\Temp\ccizkeXa.s 			page 181


 9442      7900
 9443              	.LASF78:
 9444 060e 5F696E63 		.ascii	"_inc\000"
 9444      00
 9445              	.LASF155:
 9446 0613 5F426F6F 		.ascii	"_Bool\000"
 9446      6C00
 9447              	.LASF249:
 9448 0619 43757272 		.ascii	"CurrentTxPower\000"
 9448      656E7454 
 9448      78506F77 
 9448      657200
 9449              	.LASF211:
 9450 0628 5352565F 		.ascii	"SRV_MAC_DL_CHANNEL_REQ\000"
 9450      4D41435F 
 9450      444C5F43 
 9450      48414E4E 
 9450      454C5F52 
 9451              	.LASF328:
 9452 063f 73746F70 		.ascii	"stopIdx\000"
 9452      49647800 
 9453              	.LASF163:
 9454 0647 53657443 		.ascii	"SetChannel\000"
 9454      68616E6E 
 9454      656C00
 9455              	.LASF30:
 9456 0652 5F6E6578 		.ascii	"_next\000"
 9456      7400
 9457              	.LASF212:
 9458 0658 5352565F 		.ascii	"SRV_MAC_DEVICE_TIME_ANS\000"
 9458      4D41435F 
 9458      44455649 
 9458      43455F54 
 9458      494D455F 
 9459              	.LASF242:
 9460 0670 43684D61 		.ascii	"ChMask\000"
 9460      736B00
 9461              	.LASF189:
 9462 0677 41504250 		.ascii	"APBPrescTable\000"
 9462      72657363 
 9462      5461626C 
 9462      6500
 9463              	.LASF320:
 9464 0685 62616E64 		.ascii	"band\000"
 9464      00
 9465              	.LASF232:
 9466 068a 46726571 		.ascii	"Frequency\000"
 9466      75656E63 
 9466      7900
 9467              	.LASF251:
 9468 0694 4E624368 		.ascii	"NbChannels\000"
 9468      616E6E65 
 9468      6C7300
 9469              	.LASF175:
 9470 069f 52737369 		.ascii	"Rssi\000"
 9470      00
 9471              	.LASF226:
ARM GAS  C:\Users\EBANO_~1\AppData\Local\Temp\ccizkeXa.s 			page 182


 9472 06a4 5F747A6E 		.ascii	"_tzname\000"
 9472      616D6500 
 9473              	.LASF25:
 9474 06ac 5F5F7661 		.ascii	"__value\000"
 9474      6C756500 
 9475              	.LASF86:
 9476 06b4 5F703573 		.ascii	"_p5s\000"
 9476      00
 9477              	.LASF177:
 9478 06b9 52656164 		.ascii	"Read\000"
 9478      00
 9479              	.LASF120:
 9480 06be 5F776373 		.ascii	"_wcsrtombs_state\000"
 9480      72746F6D 
 9480      62735F73 
 9480      74617465 
 9480      00
 9481              	.LASF110:
 9482 06cf 5F6D626C 		.ascii	"_mblen_state\000"
 9482      656E5F73 
 9482      74617465 
 9482      00
 9483              	.LASF291:
 9484 06dc 7453796D 		.ascii	"tSymbol\000"
 9484      626F6C00 
 9485              	.LASF219:
 9486 06e4 54784D61 		.ascii	"TxMaxPower\000"
 9486      78506F77 
 9486      657200
 9487              	.LASF305:
 9488 06ef 6E625265 		.ascii	"nbRep\000"
 9488      7000
 9489              	.LASF92:
 9490 06f5 5F736967 		.ascii	"_sig_func\000"
 9490      5F66756E 
 9490      6300
 9491              	.LASF117:
 9492 06ff 5F6D6272 		.ascii	"_mbrtowc_state\000"
 9492      746F7763 
 9492      5F737461 
 9492      746500
 9493              	.LASF91:
 9494 070e 5F617465 		.ascii	"_atexit0\000"
 9494      78697430 
 9494      00
 9495              	.LASF13:
 9496 0717 5F5F696E 		.ascii	"__int32_t\000"
 9496      7433325F 
 9496      7400
 9497              	.LASF142:
 9498 0721 52616469 		.ascii	"RadioModems_t\000"
 9498      6F4D6F64 
 9498      656D735F 
 9498      7400
 9499              	.LASF308:
 9500 072f 6E625265 		.ascii	"nbRepetitions\000"
 9500      70657469 
ARM GAS  C:\Users\EBANO_~1\AppData\Local\Temp\ccizkeXa.s 			page 183


 9500      74696F6E 
 9500      7300
 9501              	.LASF146:
 9502 073d 52465F43 		.ascii	"RF_CAD\000"
 9502      414400
 9503              	.LASF309:
 9504 0744 52656769 		.ascii	"RegionCommonParseLinkAdrReq\000"
 9504      6F6E436F 
 9504      6D6D6F6E 
 9504      50617273 
 9504      654C696E 
 9505              	.LASF235:
 9506 0760 42616E64 		.ascii	"Band\000"
 9506      00
 9507              	.LASF342:
 9508 0765 6E624269 		.ascii	"nbBits\000"
 9508      747300
 9509              	.LASF348:
 9510 076c 2E2E2F2E 		.ascii	"../../../../../../Middlewares/Third_Party/LoRaWAN/M"
 9510      2E2F2E2E 
 9510      2F2E2E2F 
 9510      2E2E2F2E 
 9510      2E2F4D69 
 9511 079f 61632F72 		.ascii	"ac/region/RegionCommon.c\000"
 9511      6567696F 
 9511      6E2F5265 
 9511      67696F6E 
 9511      436F6D6D 
 9512              	.LASF144:
 9513 07b8 52465F52 		.ascii	"RF_RX_RUNNING\000"
 9513      585F5255 
 9513      4E4E494E 
 9513      4700
 9514              	.LASF85:
 9515 07c6 5F726573 		.ascii	"_result_k\000"
 9515      756C745F 
 9515      6B00
 9516              	.LASF280:
 9517 07d0 52656769 		.ascii	"RegionCommonCalcBackOff\000"
 9517      6F6E436F 
 9517      6D6D6F6E 
 9517      43616C63 
 9517      4261636B 
 9518              	.LASF22:
 9519 07e8 5F5F7763 		.ascii	"__wch\000"
 9519      6800
 9520              	.LASF98:
 9521 07ee 5F696F62 		.ascii	"_iobs\000"
 9521      7300
 9522              	.LASF135:
 9523 07f4 75696E74 		.ascii	"uint8_t\000"
 9523      385F7400 
 9524              	.LASF306:
 9525 07fc 73746174 		.ascii	"status\000"
 9525      757300
 9526              	.LASF64:
 9527 0803 5F636C6F 		.ascii	"_close\000"
ARM GAS  C:\Users\EBANO_~1\AppData\Local\Temp\ccizkeXa.s 			page 184


 9527      736500
 9528              	.LASF82:
 9529 080a 5F5F7364 		.ascii	"__sdidinit\000"
 9529      6964696E 
 9529      697400
 9530              	.LASF313:
 9531 0815 52656769 		.ascii	"RegionCommonUpdateBandTimeOff\000"
 9531      6F6E436F 
 9531      6D6D6F6E 
 9531      55706461 
 9531      74654261 
 9532              	.LASF224:
 9533 0833 5F74696D 		.ascii	"_timezone\000"
 9533      657A6F6E 
 9533      6500
 9534              	.LASF316:
 9535 083d 6E624261 		.ascii	"nbBands\000"
 9535      6E647300 
 9536              	.LASF165:
 9537 0845 52616E64 		.ascii	"Random\000"
 9537      6F6D00
 9538              	.LASF299:
 9539 084c 70687944 		.ascii	"phyDr\000"
 9539      7200
 9540              	.LASF257:
 9541 0852 4D617854 		.ascii	"MaxTxPower\000"
 9541      78506F77 
 9541      657200
 9542              	.LASF75:
 9543 085d 5F737464 		.ascii	"_stdin\000"
 9543      696E00
 9544              	.LASF107:
 9545 0864 5F67616D 		.ascii	"_gamma_signgam\000"
 9545      6D615F73 
 9545      69676E67 
 9545      616D00
 9546              	.LASF185:
 9547 0873 53657452 		.ascii	"SetRxDutyCycle\000"
 9547      78447574 
 9547      79437963 
 9547      6C6500
 9548              	.LASF4:
 9549 0882 6C6F6E67 		.ascii	"long long int\000"
 9549      206C6F6E 
 9549      6720696E 
 9549      7400
 9550              	.LASF184:
 9551 0890 5278426F 		.ascii	"RxBoosted\000"
 9551      6F737465 
 9551      6400
 9552              	.LASF258:
 9553 089a 52656769 		.ascii	"RegionCommonLinkAdrReqVerifyParams_t\000"
 9553      6F6E436F 
 9553      6D6D6F6E 
 9553      4C696E6B 
 9553      41647252 
 9554              	.LASF54:
ARM GAS  C:\Users\EBANO_~1\AppData\Local\Temp\ccizkeXa.s 			page 185


 9555 08bf 5F626173 		.ascii	"_base\000"
 9555      6500
 9556              	.LASF87:
 9557 08c5 5F667265 		.ascii	"_freelist\000"
 9557      656C6973 
 9557      7400
 9558              	.LASF101:
 9559 08cf 5F6D756C 		.ascii	"_mult\000"
 9559      7400
 9560              	.LASF102:
 9561 08d5 5F616464 		.ascii	"_add\000"
 9561      00
 9562              	.LASF130:
 9563 08da 5F5F6664 		.ascii	"__fdlibm_svid\000"
 9563      6C69626D 
 9563      5F737669 
 9563      6400
 9564              	.LASF318:
 9565 08e8 7478446F 		.ascii	"txDoneTime\000"
 9565      6E655469 
 9565      6D6500
 9566              	.LASF119:
 9567 08f3 5F776372 		.ascii	"_wcrtomb_state\000"
 9567      746F6D62 
 9567      5F737461 
 9567      746500
 9568              	.LASF196:
 9569 0902 4D616A6F 		.ascii	"Major\000"
 9569      7200
 9570              	.LASF58:
 9571 0908 5F66696C 		.ascii	"_file\000"
 9571      6500
 9572              	.LASF290:
 9573 090e 52656769 		.ascii	"RegionCommonComputeRxWindowParameters\000"
 9573      6F6E436F 
 9573      6D6D6F6E 
 9573      436F6D70 
 9573      75746552 
 9574              	.LASF9:
 9575 0934 5F5F696E 		.ascii	"__int16_t\000"
 9575      7431365F 
 9575      7400
 9576              	.LASF338:
 9577 093e 6368616E 		.ascii	"channels\000"
 9577      6E656C73 
 9577      00
 9578              	.LASF141:
 9579 0947 4D4F4445 		.ascii	"MODEM_LORA\000"
 9579      4D5F4C4F 
 9579      524100
 9580              	.LASF174:
 9581 0952 53657454 		.ascii	"SetTxContinuousWave\000"
 9581      78436F6E 
 9581      74696E75 
 9581      6F757357 
 9581      61766500 
 9582              	.LASF311:
ARM GAS  C:\Users\EBANO_~1\AppData\Local\Temp\ccizkeXa.s 			page 186


 9583 0966 6C696E6B 		.ascii	"linkAdrParams\000"
 9583      41647250 
 9583      6172616D 
 9583      7300
 9584              	.LASF190:
 9585 0974 504C4C4D 		.ascii	"PLLMulTable\000"
 9585      756C5461 
 9585      626C6500 
 9586              	.LASF83:
 9587 0980 5F5F636C 		.ascii	"__cleanup\000"
 9587      65616E75 
 9587      7000
 9588              	.LASF133:
 9589 098a 5F5F6664 		.ascii	"__fdlib_version\000"
 9589      6C69625F 
 9589      76657273 
 9589      696F6E00 
 9590              	.LASF26:
 9591 099a 5F6D6273 		.ascii	"_mbstate_t\000"
 9591      74617465 
 9591      5F7400
 9592              	.LASF198:
 9593 09a5 56616C75 		.ascii	"Value\000"
 9593      6500
 9594              	.LASF262:
 9595 09ab 4A6F696E 		.ascii	"Joined\000"
 9595      656400
 9596              	.LASF208:
 9597 09b2 5352565F 		.ascii	"SRV_MAC_NEW_CHANNEL_REQ\000"
 9597      4D41435F 
 9597      4E45575F 
 9597      4348414E 
 9597      4E454C5F 
 9598              	.LASF44:
 9599 09ca 5F5F746D 		.ascii	"__tm_isdst\000"
 9599      5F697364 
 9599      737400
 9600              	.LASF238:
 9601 09d5 4E625265 		.ascii	"NbRep\000"
 9601      7000
 9602              	.LASF341:
 9603 09db 6D61736B 		.ascii	"mask\000"
 9603      00
 9604              	.LASF188:
 9605 09e0 41484250 		.ascii	"AHBPrescTable\000"
 9605      72657363 
 9605      5461626C 
 9605      6500
 9606              	.LASF202:
 9607 09ee 5352565F 		.ascii	"SRV_MAC_RESET_CONF\000"
 9607      4D41435F 
 9607      52455345 
 9607      545F434F 
 9607      4E4600
 9608              	.LASF266:
 9609 0a01 54785469 		.ascii	"TxTimeOnAir\000"
 9609      6D654F6E 
ARM GAS  C:\Users\EBANO_~1\AppData\Local\Temp\ccizkeXa.s 			page 187


 9609      41697200 
 9610              	.LASF51:
 9611 0a0d 5F696E64 		.ascii	"_ind\000"
 9611      00
 9612              	.LASF178:
 9613 0a12 57726974 		.ascii	"WriteBuffer\000"
 9613      65427566 
 9613      66657200 
 9614              	.LASF237:
 9615 0a1e 73526567 		.ascii	"sRegionCommonLinkAdrParams\000"
 9615      696F6E43 
 9615      6F6D6D6F 
 9615      6E4C696E 
 9615      6B416472 
 9616              	.LASF319:
 9617 0a39 52656769 		.ascii	"RegionCommonSetBandTxDone\000"
 9617      6F6E436F 
 9617      6D6D6F6E 
 9617      53657442 
 9617      616E6454 
 9618              	.LASF326:
 9619 0a53 6368616E 		.ascii	"channelsMask\000"
 9619      6E656C73 
 9619      4D61736B 
 9619      00
 9620              	.LASF324:
 9621 0a60 6368616E 		.ascii	"channelsMaskSrc\000"
 9621      6E656C73 
 9621      4D61736B 
 9621      53726300 
 9622              	.LASF6:
 9623 0a70 5F5F696E 		.ascii	"__int8_t\000"
 9623      74385F74 
 9623      00
 9624              	.LASF218:
 9625 0a79 44437963 		.ascii	"DCycle\000"
 9625      6C6500
 9626              	.LASF40:
 9627 0a80 5F5F746D 		.ascii	"__tm_mon\000"
 9627      5F6D6F6E 
 9627      00
 9628              	.LASF128:
 9629 0a89 5F676C6F 		.ascii	"_global_impure_ptr\000"
 9629      62616C5F 
 9629      696D7075 
 9629      72655F70 
 9629      747200
 9630              	.LASF241:
 9631 0a9c 43684D61 		.ascii	"ChMaskCtrl\000"
 9631      736B4374 
 9631      726C00
 9632              	.LASF143:
 9633 0aa7 52465F49 		.ascii	"RF_IDLE\000"
 9633      444C4500 
 9634              	.LASF5:
 9635 0aaf 6C6F6E67 		.ascii	"long double\000"
 9635      20646F75 
ARM GAS  C:\Users\EBANO_~1\AppData\Local\Temp\ccizkeXa.s 			page 188


 9635      626C6500 
 9636              	.LASF151:
 9637 0abb 52785469 		.ascii	"RxTimeout\000"
 9637      6D656F75 
 9637      7400
 9638              	.LASF137:
 9639 0ac5 75696E74 		.ascii	"uint16_t\000"
 9639      31365F74 
 9639      00
 9640              	.LASF217:
 9641 0ace 7342616E 		.ascii	"sBand\000"
 9641      6400
 9642              	.LASF62:
 9643 0ad4 5F777269 		.ascii	"_write\000"
 9643      746500
 9644              	.LASF239:
 9645 0adb 44617461 		.ascii	"Datarate\000"
 9645      72617465 
 9645      00
 9646              	.LASF159:
 9647 0ae4 496F4465 		.ascii	"IoDeInit\000"
 9647      496E6974 
 9647      00
 9648              	.LASF273:
 9649 0aed 52785469 		.ascii	"RxTime\000"
 9649      6D6500
 9650              	.LASF288:
 9651 0af4 616E7465 		.ascii	"antennaGain\000"
 9651      6E6E6147 
 9651      61696E00 
 9652              	.LASF28:
 9653 0b00 63686172 		.ascii	"char\000"
 9653      00
 9654              	.LASF50:
 9655 0b05 5F617465 		.ascii	"_atexit\000"
 9655      78697400 
 9656              	.LASF347:
 9657 0b0d 474E5520 		.ascii	"GNU C11 7.3.1 20180622 (release) [ARM/embedded-7-br"
 9657      43313120 
 9657      372E332E 
 9657      31203230 
 9657      31383036 
 9658 0b40 616E6368 		.ascii	"anch revision 261907] -mcpu=cortex-m0plus -mthumb -"
 9658      20726576 
 9658      6973696F 
 9658      6E203236 
 9658      31393037 
 9659 0b73 6D666C6F 		.ascii	"mfloat-abi=soft -gdwarf-2 -O3 -ffunction-sections\000"
 9659      61742D61 
 9659      62693D73 
 9659      6F667420 
 9659      2D676477 
 9660              	.LASF292:
 9661 0ba5 6D696E52 		.ascii	"minRxSymbols\000"
 9661      7853796D 
 9661      626F6C73 
 9661      00
ARM GAS  C:\Users\EBANO_~1\AppData\Local\Temp\ccizkeXa.s 			page 189


 9662              	.LASF281:
 9663 0bb2 72784265 		.ascii	"rxBeaconSetupParams\000"
 9663      61636F6E 
 9663      53657475 
 9663      70506172 
 9663      616D7300 
 9664              	.LASF10:
 9665 0bc6 73686F72 		.ascii	"short int\000"
 9665      7420696E 
 9665      7400
 9666              	.LASF214:
 9667 0bd0 5352565F 		.ascii	"SRV_MAC_PING_SLOT_CHANNEL_REQ\000"
 9667      4D41435F 
 9667      50494E47 
 9667      5F534C4F 
 9667      545F4348 
 9668              	.LASF205:
 9669 0bee 5352565F 		.ascii	"SRV_MAC_DUTY_CYCLE_REQ\000"
 9669      4D41435F 
 9669      44555459 
 9669      5F435943 
 9669      4C455F52 
 9670              	.LASF317:
 9671 0c05 6E657874 		.ascii	"nextTxDelay\000"
 9671      54784465 
 9671      6C617900 
 9672              	.LASF14:
 9673 0c11 6C6F6E67 		.ascii	"long int\000"
 9673      20696E74 
 9673      00
 9674              	.LASF236:
 9675 0c1a 4368616E 		.ascii	"ChannelParams_t\000"
 9675      6E656C50 
 9675      6172616D 
 9675      735F7400 
 9676              	.LASF296:
 9677 0c2a 77696E64 		.ascii	"windowOffset\000"
 9677      6F774F66 
 9677      66736574 
 9677      00
 9678              	.LASF94:
 9679 0c37 5F5F7366 		.ascii	"__sf\000"
 9679      00
 9680              	.LASF32:
 9681 0c3c 5F736967 		.ascii	"_sign\000"
 9681      6E00
 9682              	.LASF69:
 9683 0c42 5F646174 		.ascii	"_data\000"
 9683      6100
 9684              	.LASF23:
 9685 0c48 5F5F7763 		.ascii	"__wchb\000"
 9685      686200
 9686              	.LASF225:
 9687 0c4f 5F646179 		.ascii	"_daylight\000"
 9687      6C696768 
 9687      7400
 9688              	.LASF335:
ARM GAS  C:\Users\EBANO_~1\AppData\Local\Temp\ccizkeXa.s 			page 190


 9689 0c59 52656769 		.ascii	"RegionCommonChanVerifyDr\000"
 9689      6F6E436F 
 9689      6D6D6F6E 
 9689      4368616E 
 9689      56657269 
 9690              	.LASF195:
 9691 0c72 4D696E6F 		.ascii	"Minor\000"
 9691      7200
 9692              	.LASF41:
 9693 0c78 5F5F746D 		.ascii	"__tm_year\000"
 9693      5F796561 
 9693      7200
 9694              	.LASF289:
 9695 0c82 70687954 		.ascii	"phyTxPower\000"
 9695      78506F77 
 9695      657200
 9696              	.LASF129:
 9697 0c8d 5F5F6664 		.ascii	"__fdlibm_ieee\000"
 9697      6C69626D 
 9697      5F696565 
 9697      6500
 9698              	.LASF345:
 9699 0c9b 6365696C 		.ascii	"ceil\000"
 9699      00
 9700              	.LASF233:
 9701 0ca0 52783146 		.ascii	"Rx1Frequency\000"
 9701      72657175 
 9701      656E6379 
 9701      00
 9702              	.LASF158:
 9703 0cad 496F496E 		.ascii	"IoInit\000"
 9703      697400
 9704              	.LASF106:
 9705 0cb4 5F6C6F63 		.ascii	"_localtime_buf\000"
 9705      616C7469 
 9705      6D655F62 
 9705      756600
 9706              	.LASF206:
 9707 0cc3 5352565F 		.ascii	"SRV_MAC_RX_PARAM_SETUP_REQ\000"
 9707      4D41435F 
 9707      52585F50 
 9707      4152414D 
 9707      5F534554 
 9708              	.LASF321:
 9709 0cde 6C617374 		.ascii	"lastTxDone\000"
 9709      5478446F 
 9709      6E6500
 9710              	.LASF124:
 9711 0ce9 5F756E75 		.ascii	"_unused\000"
 9711      73656400 
 9712              	.LASF194:
 9713 0cf1 52657669 		.ascii	"Revision\000"
 9713      73696F6E 
 9713      00
 9714              	.LASF90:
 9715 0cfa 5F6E6577 		.ascii	"_new\000"
 9715      00
ARM GAS  C:\Users\EBANO_~1\AppData\Local\Temp\ccizkeXa.s 			page 191


 9716              	.LASF88:
 9717 0cff 5F637674 		.ascii	"_cvtlen\000"
 9717      6C656E00 
 9718              	.LASF31:
 9719 0d07 5F6D6178 		.ascii	"_maxwds\000"
 9719      77647300 
 9720              	.LASF113:
 9721 0d0f 5F6C3634 		.ascii	"_l64a_buf\000"
 9721      615F6275 
 9721      6600
 9722              	.LASF140:
 9723 0d19 4D4F4445 		.ascii	"MODEM_FSK\000"
 9723      4D5F4653 
 9723      4B00
 9724              	.LASF180:
 9725 0d23 5365744D 		.ascii	"SetMaxPayloadLength\000"
 9725      61785061 
 9725      796C6F61 
 9725      644C656E 
 9725      67746800 
 9726              	.LASF301:
 9727 0d37 62616E64 		.ascii	"bandwidth\000"
 9727      77696474 
 9727      6800
 9728              	.LASF162:
 9729 0d41 5365744D 		.ascii	"SetModem\000"
 9729      6F64656D 
 9729      00
 9730              	.LASF327:
 9731 0d4a 73746172 		.ascii	"startIdx\000"
 9731      74496478 
 9731      00
 9732              	.LASF67:
 9733 0d53 5F626C6B 		.ascii	"_blksize\000"
 9733      73697A65 
 9733      00
 9734              	.LASF35:
 9735 0d5c 5F5F746D 		.ascii	"__tm\000"
 9735      00
 9736              	.LASF304:
 9737 0d61 7478506F 		.ascii	"txPow\000"
 9737      7700
 9738              	.LASF70:
 9739 0d67 5F6C6F63 		.ascii	"_lock\000"
 9739      6B00
 9740              	.LASF16:
 9741 0d6d 6C6F6E67 		.ascii	"long unsigned int\000"
 9741      20756E73 
 9741      69676E65 
 9741      6420696E 
 9741      7400
 9742              	.LASF283:
 9743 0d7f 62616E64 		.ascii	"bandIdx\000"
 9743      49647800 
 9744              	.LASF229:
 9745 0d87 75447252 		.ascii	"uDrRange\000"
 9745      616E6765 
ARM GAS  C:\Users\EBANO_~1\AppData\Local\Temp\ccizkeXa.s 			page 192


 9745      00
 9746              	.LASF97:
 9747 0d90 5F6E696F 		.ascii	"_niobs\000"
 9747      627300
 9748              	.LASF21:
 9749 0d97 77696E74 		.ascii	"wint_t\000"
 9749      5F7400
 9750              	.LASF207:
 9751 0d9e 5352565F 		.ascii	"SRV_MAC_DEV_STATUS_REQ\000"
 9751      4D41435F 
 9751      4445565F 
 9751      53544154 
 9751      55535F52 
 9752              	.LASF312:
 9753 0db5 72657449 		.ascii	"retIndex\000"
 9753      6E646578 
 9753      00
 9754              	.LASF138:
 9755 0dbe 696E7433 		.ascii	"int32_t\000"
 9755      325F7400 
 9756              	.LASF264:
 9757 0dc6 4368616E 		.ascii	"Channel\000"
 9757      6E656C00 
 9758              	.LASF37:
 9759 0dce 5F5F746D 		.ascii	"__tm_min\000"
 9759      5F6D696E 
 9759      00
 9760              	.LASF210:
 9761 0dd7 5352565F 		.ascii	"SRV_MAC_TX_PARAM_SETUP_REQ\000"
 9761      4D41435F 
 9761      54585F50 
 9761      4152414D 
 9761      5F534554 
 9762              	.LASF172:
 9763 0df2 5374616E 		.ascii	"Standby\000"
 9763      64627900 
 9764              	.LASF125:
 9765 0dfa 5F5F6C6F 		.ascii	"__lock\000"
 9765      636B00
 9766              	.LASF47:
 9767 0e01 5F64736F 		.ascii	"_dso_handle\000"
 9767      5F68616E 
 9767      646C6500 
 9768              	.LASF274:
 9769 0e0d 53796D62 		.ascii	"SymbolTimeout\000"
 9769      6F6C5469 
 9769      6D656F75 
 9769      7400
 9770              	.LASF201:
 9771 0e1b 654C6F52 		.ascii	"eLoRaMacSrvCmd\000"
 9771      614D6163 
 9771      53727643 
 9771      6D6400
 9772              	.LASF213:
 9773 0e2a 5352565F 		.ascii	"SRV_MAC_PING_SLOT_INFO_ANS\000"
 9773      4D41435F 
 9773      50494E47 
ARM GAS  C:\Users\EBANO_~1\AppData\Local\Temp\ccizkeXa.s 			page 193


 9773      5F534C4F 
 9773      545F494E 
 9774              	.LASF272:
 9775 0e45 42656163 		.ascii	"BeaconChannelBW\000"
 9775      6F6E4368 
 9775      616E6E65 
 9775      6C425700 
 9776              	.LASF265:
 9777 0e55 456C6170 		.ascii	"ElapsedTime\000"
 9777      73656454 
 9777      696D6500 
 9778              	.LASF89:
 9779 0e61 5F637674 		.ascii	"_cvtbuf\000"
 9779      62756600 
 9780              	.LASF170:
 9781 0e69 53656E64 		.ascii	"Send\000"
 9781      00
 9782              	.LASF8:
 9783 0e6e 756E7369 		.ascii	"unsigned char\000"
 9783      676E6564 
 9783      20636861 
 9783      7200
 9784              	.LASF230:
 9785 0e7c 44725261 		.ascii	"DrRange_t\000"
 9785      6E67655F 
 9785      7400
 9786              	.LASF334:
 9787 0e86 52656769 		.ascii	"RegionCommonValueInRange\000"
 9787      6F6E436F 
 9787      6D6D6F6E 
 9787      56616C75 
 9787      65496E52 
 9788              	.LASF250:
 9789 0e9f 43757272 		.ascii	"CurrentNbRep\000"
 9789      656E744E 
 9789      62526570 
 9789      00
 9790              	.LASF259:
 9791 0eac 73526567 		.ascii	"sRegionCommonCalcBackOffParams\000"
 9791      696F6E43 
 9791      6F6D6D6F 
 9791      6E43616C 
 9791      63426163 
 9792              	.LASF231:
 9793 0ecb 73436861 		.ascii	"sChannelParams\000"
 9793      6E6E656C 
 9793      50617261 
 9793      6D7300
 9794              	.LASF270:
 9795 0eda 42656163 		.ascii	"BeaconSize\000"
 9795      6F6E5369 
 9795      7A6500
 9796              	.LASF244:
 9797 0ee5 73526567 		.ascii	"sRegionCommonLinkAdrReqVerifyParams\000"
 9797      696F6E43 
 9797      6F6D6D6F 
 9797      6E4C696E 
ARM GAS  C:\Users\EBANO_~1\AppData\Local\Temp\ccizkeXa.s 			page 194


 9797      6B416472 
 9798              	.LASF115:
 9799 0f09 5F676574 		.ascii	"_getdate_err\000"
 9799      64617465 
 9799      5F657272 
 9799      00
 9800              	.LASF221:
 9801 0f16 4C617374 		.ascii	"LastTxDoneTime\000"
 9801      5478446F 
 9801      6E655469 
 9801      6D6500
 9802              	.LASF164:
 9803 0f25 49734368 		.ascii	"IsChannelFree\000"
 9803      616E6E65 
 9803      6C467265 
 9803      6500
 9804              	.LASF329:
 9805 0f33 6E624368 		.ascii	"nbChannels\000"
 9805      616E6E65 
 9805      6C7300
 9806              	.LASF61:
 9807 0f3e 5F726561 		.ascii	"_read\000"
 9807      6400
 9808              	.LASF179:
 9809 0f44 52656164 		.ascii	"ReadBuffer\000"
 9809      42756666 
 9809      657200
 9810              	.LASF181:
 9811 0f4f 53657450 		.ascii	"SetPublicNetwork\000"
 9811      75626C69 
 9811      634E6574 
 9811      776F726B 
 9811      00
 9812              	.LASF53:
 9813 0f60 5F5F7362 		.ascii	"__sbuf\000"
 9813      756600
 9814              	.LASF215:
 9815 0f67 5352565F 		.ascii	"SRV_MAC_BEACON_TIMING_ANS\000"
 9815      4D41435F 
 9815      42454143 
 9815      4F4E5F54 
 9815      494D494E 
 9816              	.LASF167:
 9817 0f81 53657454 		.ascii	"SetTxConfig\000"
 9817      78436F6E 
 9817      66696700 
 9818              	.LASF96:
 9819 0f8d 5F676C75 		.ascii	"_glue\000"
 9819      6500
 9820              	.LASF200:
 9821 0f93 5F5F6664 		.ascii	"__fdlibm_version\000"
 9821      6C69626D 
 9821      5F766572 
 9821      73696F6E 
 9821      00
 9822              	.LASF7:
 9823 0fa4 5F5F7569 		.ascii	"__uint8_t\000"
ARM GAS  C:\Users\EBANO_~1\AppData\Local\Temp\ccizkeXa.s 			page 195


 9823      6E74385F 
 9823      7400
 9824              	.LASF166:
 9825 0fae 53657452 		.ascii	"SetRxConfig\000"
 9825      78436F6E 
 9825      66696700 
 9826              	.LASF300:
 9827 0fba 52656769 		.ascii	"RegionCommonComputeSymbolTimeLoRa\000"
 9827      6F6E436F 
 9827      6D6D6F6E 
 9827      436F6D70 
 9827      75746553 
 9828              	.LASF93:
 9829 0fdc 5F5F7367 		.ascii	"__sglue\000"
 9829      6C756500 
 9830              	.LASF145:
 9831 0fe4 52465F54 		.ascii	"RF_TX_RUNNING\000"
 9831      585F5255 
 9831      4E4E494E 
 9831      4700
 9832              	.LASF104:
 9833 0ff2 5F737472 		.ascii	"_strtok_last\000"
 9833      746F6B5F 
 9833      6C617374 
 9833      00
 9834              	.LASF111:
 9835 0fff 5F6D6274 		.ascii	"_mbtowc_state\000"
 9835      6F77635F 
 9835      73746174 
 9835      6500
 9836              	.LASF284:
 9837 100d 64757479 		.ascii	"dutyCycle\000"
 9837      4379636C 
 9837      6500
 9838              	.LASF286:
 9839 1017 7478506F 		.ascii	"txPowerIndex\000"
 9839      77657249 
 9839      6E646578 
 9839      00
 9840              	.LASF81:
 9841 1024 5F6C6F63 		.ascii	"_locale\000"
 9841      616C6500 
 9842              	.LASF271:
 9843 102c 42656163 		.ascii	"BeaconDatarate\000"
 9843      6F6E4461 
 9843      74617261 
 9843      746500
 9844              	.LASF46:
 9845 103b 5F666E61 		.ascii	"_fnargs\000"
 9845      72677300 
 9846              	.LASF2:
 9847 1043 7369676E 		.ascii	"signed char\000"
 9847      65642063 
 9847      68617200 
 9848              	.LASF73:
 9849 104f 5F726565 		.ascii	"_reent\000"
 9849      6E7400
ARM GAS  C:\Users\EBANO_~1\AppData\Local\Temp\ccizkeXa.s 			page 196


 9850              	.LASF12:
 9851 1056 73686F72 		.ascii	"short unsigned int\000"
 9851      7420756E 
 9851      7369676E 
 9851      65642069 
 9851      6E7400
 9852              	.LASF220:
 9853 1069 4C617374 		.ascii	"LastJoinTxDoneTime\000"
 9853      4A6F696E 
 9853      5478446F 
 9853      6E655469 
 9853      6D6500
 9854              	.LASF303:
 9855 107c 76657269 		.ascii	"verifyParams\000"
 9855      66795061 
 9855      72616D73 
 9855      00
 9856              	.LASF48:
 9857 1089 5F666E74 		.ascii	"_fntypes\000"
 9857      79706573 
 9857      00
 9858              	.LASF314:
 9859 1092 6A6F696E 		.ascii	"joined\000"
 9859      656400
 9860              	.LASF55:
 9861 1099 5F73697A 		.ascii	"_size\000"
 9861      6500
 9862              	.LASF0:
 9863 109f 646F7562 		.ascii	"double\000"
 9863      6C6500
 9864              	.LASF209:
 9865 10a6 5352565F 		.ascii	"SRV_MAC_RX_TIMING_SETUP_REQ\000"
 9865      4D41435F 
 9865      52585F54 
 9865      494D494E 
 9865      475F5345 
 9866              	.LASF255:
 9867 10c2 4368616E 		.ascii	"Channels\000"
 9867      6E656C73 
 9867      00
 9868              	.LASF19:
 9869 10cb 5F6F6666 		.ascii	"_off_t\000"
 9869      5F7400
 9870              	.LASF169:
 9871 10d2 54696D65 		.ascii	"TimeOnAir\000"
 9871      4F6E4169 
 9871      7200
 9872              	.LASF66:
 9873 10dc 5F6E6275 		.ascii	"_nbuf\000"
 9873      6600
 9874              	.LASF103:
 9875 10e2 5F756E75 		.ascii	"_unused_rand\000"
 9875      7365645F 
 9875      72616E64 
 9875      00
 9876              	.LASF263:
 9877 10ef 44757479 		.ascii	"DutyCycleEnabled\000"
ARM GAS  C:\Users\EBANO_~1\AppData\Local\Temp\ccizkeXa.s 			page 197


 9877      4379636C 
 9877      65456E61 
 9877      626C6564 
 9877      00
 9878              	.LASF275:
 9879 1100 52656769 		.ascii	"RegionCommonRxBeaconSetupParams_t\000"
 9879      6F6E436F 
 9879      6D6D6F6E 
 9879      52784265 
 9879      61636F6E 
 9880              	.LASF193:
 9881 1122 56657273 		.ascii	"Version_s\000"
 9881      696F6E5F 
 9881      7300
 9882              	.LASF199:
 9883 112c 56657273 		.ascii	"Version_t\000"
 9883      696F6E5F 
 9883      7400
 9884              	.LASF228:
 9885 1136 56657273 		.ascii	"Version_u\000"
 9885      696F6E5F 
 9885      7500
 9886              	.LASF339:
 9887 1140 52656769 		.ascii	"RegionCommonGetJoinDc\000"
 9887      6F6E436F 
 9887      6D6D6F6E 
 9887      4765744A 
 9887      6F696E44 
 9888              	.LASF49:
 9889 1156 5F69735F 		.ascii	"_is_cxa\000"
 9889      63786100 
 9890              	.LASF100:
 9891 115e 5F736565 		.ascii	"_seed\000"
 9891      6400
 9892              	.LASF108:
 9893 1164 5F72616E 		.ascii	"_rand_next\000"
 9893      645F6E65 
 9893      787400
 9894              	.LASF157:
 9895 116f 52616469 		.ascii	"Radio_s\000"
 9895      6F5F7300 
 9896              	.LASF63:
 9897 1177 5F736565 		.ascii	"_seek\000"
 9897      6B00
 9898              	.LASF279:
 9899 117d 52656769 		.ascii	"RegionCommonRxBeaconSetup\000"
 9899      6F6E436F 
 9899      6D6D6F6E 
 9899      52784265 
 9899      61636F6E 
 9900              	.LASF227:
 9901 1197 73466965 		.ascii	"sFields\000"
 9901      6C647300 
 9902              	.LASF77:
 9903 119f 5F737464 		.ascii	"_stderr\000"
 9903      65727200 
 9904              	.LASF123:
ARM GAS  C:\Users\EBANO_~1\AppData\Local\Temp\ccizkeXa.s 			page 198


 9905 11a7 5F6E6D61 		.ascii	"_nmalloc\000"
 9905      6C6C6F63 
 9905      00
 9906              	.LASF343:
 9907 11b0 6E624163 		.ascii	"nbActiveBits\000"
 9907      74697665 
 9907      42697473 
 9907      00
 9908              		.ident	"GCC: (GNU Tools for Arm Embedded Processors 7-2018-q2-update) 7.3.1 20180622 (release) [AR
ARM GAS  C:\Users\EBANO_~1\AppData\Local\Temp\ccizkeXa.s 			page 199


DEFINED SYMBOLS
                            *ABS*:00000000 RegionCommon.c
C:\Users\EBANO_~1\AppData\Local\Temp\ccizkeXa.s:16     .text.RegionCommonGetJoinDc:00000000 $t
C:\Users\EBANO_~1\AppData\Local\Temp\ccizkeXa.s:24     .text.RegionCommonGetJoinDc:00000000 RegionCommonGetJoinDc
C:\Users\EBANO_~1\AppData\Local\Temp\ccizkeXa.s:62     .text.RegionCommonGetJoinDc:00000020 $d
C:\Users\EBANO_~1\AppData\Local\Temp\ccizkeXa.s:70     .text.RegionCommonChanVerifyDr:00000000 $t
C:\Users\EBANO_~1\AppData\Local\Temp\ccizkeXa.s:78     .text.RegionCommonChanVerifyDr:00000000 RegionCommonChanVerifyDr
C:\Users\EBANO_~1\AppData\Local\Temp\ccizkeXa.s:241    .text.RegionCommonValueInRange:00000000 $t
C:\Users\EBANO_~1\AppData\Local\Temp\ccizkeXa.s:249    .text.RegionCommonValueInRange:00000000 RegionCommonValueInRange
C:\Users\EBANO_~1\AppData\Local\Temp\ccizkeXa.s:280    .text.RegionCommonChanDisable:00000000 $t
C:\Users\EBANO_~1\AppData\Local\Temp\ccizkeXa.s:288    .text.RegionCommonChanDisable:00000000 RegionCommonChanDisable
C:\Users\EBANO_~1\AppData\Local\Temp\ccizkeXa.s:340    .text.RegionCommonCountChannels:00000000 $t
C:\Users\EBANO_~1\AppData\Local\Temp\ccizkeXa.s:348    .text.RegionCommonCountChannels:00000000 RegionCommonCountChannels
C:\Users\EBANO_~1\AppData\Local\Temp\ccizkeXa.s:631    .text.RegionCommonChanMaskCopy:00000000 $t
C:\Users\EBANO_~1\AppData\Local\Temp\ccizkeXa.s:639    .text.RegionCommonChanMaskCopy:00000000 RegionCommonChanMaskCopy
C:\Users\EBANO_~1\AppData\Local\Temp\ccizkeXa.s:738    .text.RegionCommonSetBandTxDone:00000000 $t
C:\Users\EBANO_~1\AppData\Local\Temp\ccizkeXa.s:746    .text.RegionCommonSetBandTxDone:00000000 RegionCommonSetBandTxDone
C:\Users\EBANO_~1\AppData\Local\Temp\ccizkeXa.s:768    .text.RegionCommonUpdateBandTimeOff:00000000 $t
C:\Users\EBANO_~1\AppData\Local\Temp\ccizkeXa.s:776    .text.RegionCommonUpdateBandTimeOff:00000000 RegionCommonUpdateBandTimeOff
C:\Users\EBANO_~1\AppData\Local\Temp\ccizkeXa.s:967    .text.RegionCommonParseLinkAdrReq:00000000 $t
C:\Users\EBANO_~1\AppData\Local\Temp\ccizkeXa.s:975    .text.RegionCommonParseLinkAdrReq:00000000 RegionCommonParseLinkAdrReq
C:\Users\EBANO_~1\AppData\Local\Temp\ccizkeXa.s:1045   .text.RegionCommonLinkAdrReqVerifyParams:00000000 $t
C:\Users\EBANO_~1\AppData\Local\Temp\ccizkeXa.s:1053   .text.RegionCommonLinkAdrReqVerifyParams:00000000 RegionCommonLinkAdrReqVerifyParams
C:\Users\EBANO_~1\AppData\Local\Temp\ccizkeXa.s:1401   .text.RegionCommonComputeSymbolTimeLoRa:00000000 $t
C:\Users\EBANO_~1\AppData\Local\Temp\ccizkeXa.s:1409   .text.RegionCommonComputeSymbolTimeLoRa:00000000 RegionCommonComputeSymbolTimeLoRa
C:\Users\EBANO_~1\AppData\Local\Temp\ccizkeXa.s:1457   .text.RegionCommonComputeSymbolTimeLoRa:00000030 $d
C:\Users\EBANO_~1\AppData\Local\Temp\ccizkeXa.s:1462   .text.RegionCommonComputeSymbolTimeFsk:00000000 $t
C:\Users\EBANO_~1\AppData\Local\Temp\ccizkeXa.s:1470   .text.RegionCommonComputeSymbolTimeFsk:00000000 RegionCommonComputeSymbolTimeFsk
C:\Users\EBANO_~1\AppData\Local\Temp\ccizkeXa.s:1497   .text.RegionCommonComputeSymbolTimeFsk:00000014 $d
C:\Users\EBANO_~1\AppData\Local\Temp\ccizkeXa.s:1506   .text.RegionCommonComputeRxWindowParameters:00000000 $t
C:\Users\EBANO_~1\AppData\Local\Temp\ccizkeXa.s:1514   .text.RegionCommonComputeRxWindowParameters:00000000 RegionCommonComputeRxWindowParameters
C:\Users\EBANO_~1\AppData\Local\Temp\ccizkeXa.s:1640   .text.RegionCommonComputeRxWindowParameters:000000b4 $d
C:\Users\EBANO_~1\AppData\Local\Temp\ccizkeXa.s:1649   .text.RegionCommonComputeTxPower:00000000 $t
C:\Users\EBANO_~1\AppData\Local\Temp\ccizkeXa.s:1657   .text.RegionCommonComputeTxPower:00000000 RegionCommonComputeTxPower
C:\Users\EBANO_~1\AppData\Local\Temp\ccizkeXa.s:1705   .text.RegionCommonCalcBackOff:00000000 $t
C:\Users\EBANO_~1\AppData\Local\Temp\ccizkeXa.s:1713   .text.RegionCommonCalcBackOff:00000000 RegionCommonCalcBackOff
C:\Users\EBANO_~1\AppData\Local\Temp\ccizkeXa.s:1851   .text.RegionCommonCalcBackOff:00000084 $d
C:\Users\EBANO_~1\AppData\Local\Temp\ccizkeXa.s:1858   .text.RegionCommonRxBeaconSetup:00000000 $t
C:\Users\EBANO_~1\AppData\Local\Temp\ccizkeXa.s:1866   .text.RegionCommonRxBeaconSetup:00000000 RegionCommonRxBeaconSetup
C:\Users\EBANO_~1\AppData\Local\Temp\ccizkeXa.s:1949   .text.RegionCommonRxBeaconSetup:00000058 $d

UNDEFINED SYMBOLS
TimerGetElapsedTime
__aeabi_i2d
__aeabi_ui2d
__aeabi_ddiv
__aeabi_dmul
__aeabi_dadd
__aeabi_d2uiz
__aeabi_dsub
__aeabi_d2iz
ceil
__aeabi_ui2f
__aeabi_fsub
__aeabi_f2d
floor
Radio
ARM GAS  C:\Users\EBANO_~1\AppData\Local\Temp\ccizkeXa.s 			page 200


