ARM GAS  C:\Users\EBANO_~1\AppData\Local\Temp\cc2nkIni.s 			page 1


   1              		.cpu cortex-m0plus
   2              		.eabi_attribute 20, 1
   3              		.eabi_attribute 21, 1
   4              		.eabi_attribute 23, 3
   5              		.eabi_attribute 24, 1
   6              		.eabi_attribute 25, 1
   7              		.eabi_attribute 26, 1
   8              		.eabi_attribute 30, 2
   9              		.eabi_attribute 34, 0
  10              		.eabi_attribute 18, 4
  11              		.file	"RegionAS923.c"
  12              		.text
  13              	.Ltext0:
  14              		.cfi_sections	.debug_frame
  15              		.section	.text.RegionAS923GetPhyParam,"ax",%progbits
  16              		.align	1
  17              		.p2align 2,,3
  18              		.global	RegionAS923GetPhyParam
  19              		.syntax unified
  20              		.code	16
  21              		.thumb_func
  22              		.fpu softvfp
  23              		.type	RegionAS923GetPhyParam, %function
  24              	RegionAS923GetPhyParam:
  25              	.LFB44:
  26              		.file 1 "../../../../../../Middlewares/Third_Party/LoRaWAN/Mac/region/RegionAS923.c"
   1:../../../../../../Middlewares/Third_Party/LoRaWAN/Mac/region/RegionAS923.c **** /*!
   2:../../../../../../Middlewares/Third_Party/LoRaWAN/Mac/region/RegionAS923.c ****  * \file      RegionAS923.c
   3:../../../../../../Middlewares/Third_Party/LoRaWAN/Mac/region/RegionAS923.c ****  *
   4:../../../../../../Middlewares/Third_Party/LoRaWAN/Mac/region/RegionAS923.c ****  * \brief     Region implementation for AS923
   5:../../../../../../Middlewares/Third_Party/LoRaWAN/Mac/region/RegionAS923.c ****  *
   6:../../../../../../Middlewares/Third_Party/LoRaWAN/Mac/region/RegionAS923.c ****  * \copyright Revised BSD License, see section \ref LICENSE.
   7:../../../../../../Middlewares/Third_Party/LoRaWAN/Mac/region/RegionAS923.c ****  *
   8:../../../../../../Middlewares/Third_Party/LoRaWAN/Mac/region/RegionAS923.c ****  * \code
   9:../../../../../../Middlewares/Third_Party/LoRaWAN/Mac/region/RegionAS923.c ****  *                ______                              _
  10:../../../../../../Middlewares/Third_Party/LoRaWAN/Mac/region/RegionAS923.c ****  *               / _____)             _              | |
  11:../../../../../../Middlewares/Third_Party/LoRaWAN/Mac/region/RegionAS923.c ****  *              ( (____  _____ ____ _| |_ _____  ____| |__
  12:../../../../../../Middlewares/Third_Party/LoRaWAN/Mac/region/RegionAS923.c ****  *               \____ \| ___ |    (_   _) ___ |/ ___)  _ \
  13:../../../../../../Middlewares/Third_Party/LoRaWAN/Mac/region/RegionAS923.c ****  *               _____) ) ____| | | || |_| ____( (___| | | |
  14:../../../../../../Middlewares/Third_Party/LoRaWAN/Mac/region/RegionAS923.c ****  *              (______/|_____)_|_|_| \__)_____)\____)_| |_|
  15:../../../../../../Middlewares/Third_Party/LoRaWAN/Mac/region/RegionAS923.c ****  *              (C)2013-2017 Semtech
  16:../../../../../../Middlewares/Third_Party/LoRaWAN/Mac/region/RegionAS923.c ****  *
  17:../../../../../../Middlewares/Third_Party/LoRaWAN/Mac/region/RegionAS923.c ****  *               ___ _____ _   ___ _  _____ ___  ___  ___ ___
  18:../../../../../../Middlewares/Third_Party/LoRaWAN/Mac/region/RegionAS923.c ****  *              / __|_   _/_\ / __| |/ / __/ _ \| _ \/ __| __|
  19:../../../../../../Middlewares/Third_Party/LoRaWAN/Mac/region/RegionAS923.c ****  *              \__ \ | |/ _ \ (__| ' <| _| (_) |   / (__| _|
  20:../../../../../../Middlewares/Third_Party/LoRaWAN/Mac/region/RegionAS923.c ****  *              |___/ |_/_/ \_\___|_|\_\_| \___/|_|_\\___|___|
  21:../../../../../../Middlewares/Third_Party/LoRaWAN/Mac/region/RegionAS923.c ****  *              embedded.connectivity.solutions===============
  22:../../../../../../Middlewares/Third_Party/LoRaWAN/Mac/region/RegionAS923.c ****  *
  23:../../../../../../Middlewares/Third_Party/LoRaWAN/Mac/region/RegionAS923.c ****  * \endcode
  24:../../../../../../Middlewares/Third_Party/LoRaWAN/Mac/region/RegionAS923.c ****  *
  25:../../../../../../Middlewares/Third_Party/LoRaWAN/Mac/region/RegionAS923.c ****  * \author    Miguel Luis ( Semtech )
  26:../../../../../../Middlewares/Third_Party/LoRaWAN/Mac/region/RegionAS923.c ****  *
  27:../../../../../../Middlewares/Third_Party/LoRaWAN/Mac/region/RegionAS923.c ****  * \author    Gregory Cristian ( Semtech )
  28:../../../../../../Middlewares/Third_Party/LoRaWAN/Mac/region/RegionAS923.c ****  *
  29:../../../../../../Middlewares/Third_Party/LoRaWAN/Mac/region/RegionAS923.c ****  * \author    Daniel Jaeckle ( STACKFORCE )
  30:../../../../../../Middlewares/Third_Party/LoRaWAN/Mac/region/RegionAS923.c **** */
  31:../../../../../../Middlewares/Third_Party/LoRaWAN/Mac/region/RegionAS923.c **** #include "utilities.h"
ARM GAS  C:\Users\EBANO_~1\AppData\Local\Temp\cc2nkIni.s 			page 2


  32:../../../../../../Middlewares/Third_Party/LoRaWAN/Mac/region/RegionAS923.c **** 
  33:../../../../../../Middlewares/Third_Party/LoRaWAN/Mac/region/RegionAS923.c **** #include "RegionCommon.h"
  34:../../../../../../Middlewares/Third_Party/LoRaWAN/Mac/region/RegionAS923.c **** #include "RegionAS923.h"
  35:../../../../../../Middlewares/Third_Party/LoRaWAN/Mac/region/RegionAS923.c **** #include "util_console.h"
  36:../../../../../../Middlewares/Third_Party/LoRaWAN/Mac/region/RegionAS923.c **** 
  37:../../../../../../Middlewares/Third_Party/LoRaWAN/Mac/region/RegionAS923.c **** // Definitions
  38:../../../../../../Middlewares/Third_Party/LoRaWAN/Mac/region/RegionAS923.c **** #define CHANNELS_MASK_SIZE              1
  39:../../../../../../Middlewares/Third_Party/LoRaWAN/Mac/region/RegionAS923.c **** 
  40:../../../../../../Middlewares/Third_Party/LoRaWAN/Mac/region/RegionAS923.c **** /*!
  41:../../../../../../Middlewares/Third_Party/LoRaWAN/Mac/region/RegionAS923.c ****  * Region specific context
  42:../../../../../../Middlewares/Third_Party/LoRaWAN/Mac/region/RegionAS923.c ****  */
  43:../../../../../../Middlewares/Third_Party/LoRaWAN/Mac/region/RegionAS923.c **** typedef struct sRegionAS923NvmCtx
  44:../../../../../../Middlewares/Third_Party/LoRaWAN/Mac/region/RegionAS923.c **** {
  45:../../../../../../Middlewares/Third_Party/LoRaWAN/Mac/region/RegionAS923.c ****     /*!
  46:../../../../../../Middlewares/Third_Party/LoRaWAN/Mac/region/RegionAS923.c ****      * LoRaMAC channels
  47:../../../../../../Middlewares/Third_Party/LoRaWAN/Mac/region/RegionAS923.c ****      */
  48:../../../../../../Middlewares/Third_Party/LoRaWAN/Mac/region/RegionAS923.c ****     ChannelParams_t Channels[ AS923_MAX_NB_CHANNELS ];
  49:../../../../../../Middlewares/Third_Party/LoRaWAN/Mac/region/RegionAS923.c ****     /*!
  50:../../../../../../Middlewares/Third_Party/LoRaWAN/Mac/region/RegionAS923.c ****      * LoRaMac bands
  51:../../../../../../Middlewares/Third_Party/LoRaWAN/Mac/region/RegionAS923.c ****      */
  52:../../../../../../Middlewares/Third_Party/LoRaWAN/Mac/region/RegionAS923.c ****     Band_t Bands[ AS923_MAX_NB_BANDS ];
  53:../../../../../../Middlewares/Third_Party/LoRaWAN/Mac/region/RegionAS923.c ****     /*!
  54:../../../../../../Middlewares/Third_Party/LoRaWAN/Mac/region/RegionAS923.c ****      * LoRaMac channels mask
  55:../../../../../../Middlewares/Third_Party/LoRaWAN/Mac/region/RegionAS923.c ****      */
  56:../../../../../../Middlewares/Third_Party/LoRaWAN/Mac/region/RegionAS923.c ****     uint16_t ChannelsMask[ CHANNELS_MASK_SIZE ];
  57:../../../../../../Middlewares/Third_Party/LoRaWAN/Mac/region/RegionAS923.c ****     /*!
  58:../../../../../../Middlewares/Third_Party/LoRaWAN/Mac/region/RegionAS923.c ****      * LoRaMac channels default mask
  59:../../../../../../Middlewares/Third_Party/LoRaWAN/Mac/region/RegionAS923.c ****      */
  60:../../../../../../Middlewares/Third_Party/LoRaWAN/Mac/region/RegionAS923.c ****     uint16_t ChannelsDefaultMask[ CHANNELS_MASK_SIZE ];
  61:../../../../../../Middlewares/Third_Party/LoRaWAN/Mac/region/RegionAS923.c **** }RegionAS923NvmCtx_t;
  62:../../../../../../Middlewares/Third_Party/LoRaWAN/Mac/region/RegionAS923.c **** 
  63:../../../../../../Middlewares/Third_Party/LoRaWAN/Mac/region/RegionAS923.c **** /*
  64:../../../../../../Middlewares/Third_Party/LoRaWAN/Mac/region/RegionAS923.c ****  * Non-volatile module context.
  65:../../../../../../Middlewares/Third_Party/LoRaWAN/Mac/region/RegionAS923.c ****  */
  66:../../../../../../Middlewares/Third_Party/LoRaWAN/Mac/region/RegionAS923.c **** static RegionAS923NvmCtx_t NvmCtx;
  67:../../../../../../Middlewares/Third_Party/LoRaWAN/Mac/region/RegionAS923.c **** 
  68:../../../../../../Middlewares/Third_Party/LoRaWAN/Mac/region/RegionAS923.c **** // Static functions
  69:../../../../../../Middlewares/Third_Party/LoRaWAN/Mac/region/RegionAS923.c **** static int8_t GetNextLowerTxDr( int8_t dr, int8_t minDr )
  70:../../../../../../Middlewares/Third_Party/LoRaWAN/Mac/region/RegionAS923.c **** {
  71:../../../../../../Middlewares/Third_Party/LoRaWAN/Mac/region/RegionAS923.c ****     uint8_t nextLowerDr = 0;
  72:../../../../../../Middlewares/Third_Party/LoRaWAN/Mac/region/RegionAS923.c **** 
  73:../../../../../../Middlewares/Third_Party/LoRaWAN/Mac/region/RegionAS923.c ****     if( dr == minDr )
  74:../../../../../../Middlewares/Third_Party/LoRaWAN/Mac/region/RegionAS923.c ****     {
  75:../../../../../../Middlewares/Third_Party/LoRaWAN/Mac/region/RegionAS923.c ****         nextLowerDr = minDr;
  76:../../../../../../Middlewares/Third_Party/LoRaWAN/Mac/region/RegionAS923.c ****     }
  77:../../../../../../Middlewares/Third_Party/LoRaWAN/Mac/region/RegionAS923.c ****     else
  78:../../../../../../Middlewares/Third_Party/LoRaWAN/Mac/region/RegionAS923.c ****     {
  79:../../../../../../Middlewares/Third_Party/LoRaWAN/Mac/region/RegionAS923.c ****         nextLowerDr = dr - 1;
  80:../../../../../../Middlewares/Third_Party/LoRaWAN/Mac/region/RegionAS923.c ****     }
  81:../../../../../../Middlewares/Third_Party/LoRaWAN/Mac/region/RegionAS923.c ****     return nextLowerDr;
  82:../../../../../../Middlewares/Third_Party/LoRaWAN/Mac/region/RegionAS923.c **** }
  83:../../../../../../Middlewares/Third_Party/LoRaWAN/Mac/region/RegionAS923.c **** 
  84:../../../../../../Middlewares/Third_Party/LoRaWAN/Mac/region/RegionAS923.c **** static uint32_t GetBandwidth( uint32_t drIndex )
  85:../../../../../../Middlewares/Third_Party/LoRaWAN/Mac/region/RegionAS923.c **** {
  86:../../../../../../Middlewares/Third_Party/LoRaWAN/Mac/region/RegionAS923.c ****     switch( BandwidthsAS923[drIndex] )
  87:../../../../../../Middlewares/Third_Party/LoRaWAN/Mac/region/RegionAS923.c ****     {
  88:../../../../../../Middlewares/Third_Party/LoRaWAN/Mac/region/RegionAS923.c ****         default:
ARM GAS  C:\Users\EBANO_~1\AppData\Local\Temp\cc2nkIni.s 			page 3


  89:../../../../../../Middlewares/Third_Party/LoRaWAN/Mac/region/RegionAS923.c ****         case 125000:
  90:../../../../../../Middlewares/Third_Party/LoRaWAN/Mac/region/RegionAS923.c ****             return 0;
  91:../../../../../../Middlewares/Third_Party/LoRaWAN/Mac/region/RegionAS923.c ****         case 250000:
  92:../../../../../../Middlewares/Third_Party/LoRaWAN/Mac/region/RegionAS923.c ****             return 1;
  93:../../../../../../Middlewares/Third_Party/LoRaWAN/Mac/region/RegionAS923.c ****         case 500000:
  94:../../../../../../Middlewares/Third_Party/LoRaWAN/Mac/region/RegionAS923.c ****             return 2;
  95:../../../../../../Middlewares/Third_Party/LoRaWAN/Mac/region/RegionAS923.c ****     }
  96:../../../../../../Middlewares/Third_Party/LoRaWAN/Mac/region/RegionAS923.c **** }
  97:../../../../../../Middlewares/Third_Party/LoRaWAN/Mac/region/RegionAS923.c **** 
  98:../../../../../../Middlewares/Third_Party/LoRaWAN/Mac/region/RegionAS923.c **** static int8_t LimitTxPower( int8_t txPower, int8_t maxBandTxPower, int8_t datarate, uint16_t* chann
  99:../../../../../../Middlewares/Third_Party/LoRaWAN/Mac/region/RegionAS923.c **** {
 100:../../../../../../Middlewares/Third_Party/LoRaWAN/Mac/region/RegionAS923.c ****     int8_t txPowerResult = txPower;
 101:../../../../../../Middlewares/Third_Party/LoRaWAN/Mac/region/RegionAS923.c **** 
 102:../../../../../../Middlewares/Third_Party/LoRaWAN/Mac/region/RegionAS923.c ****     // Limit tx power to the band max
 103:../../../../../../Middlewares/Third_Party/LoRaWAN/Mac/region/RegionAS923.c ****     txPowerResult =  MAX( txPower, maxBandTxPower );
 104:../../../../../../Middlewares/Third_Party/LoRaWAN/Mac/region/RegionAS923.c **** 
 105:../../../../../../Middlewares/Third_Party/LoRaWAN/Mac/region/RegionAS923.c ****     return txPowerResult;
 106:../../../../../../Middlewares/Third_Party/LoRaWAN/Mac/region/RegionAS923.c **** }
 107:../../../../../../Middlewares/Third_Party/LoRaWAN/Mac/region/RegionAS923.c **** 
 108:../../../../../../Middlewares/Third_Party/LoRaWAN/Mac/region/RegionAS923.c **** static bool VerifyRfFreq( uint32_t freq )
 109:../../../../../../Middlewares/Third_Party/LoRaWAN/Mac/region/RegionAS923.c **** {
 110:../../../../../../Middlewares/Third_Party/LoRaWAN/Mac/region/RegionAS923.c ****     // Check radio driver support
 111:../../../../../../Middlewares/Third_Party/LoRaWAN/Mac/region/RegionAS923.c ****     if( Radio.CheckRfFrequency( freq ) == false )
 112:../../../../../../Middlewares/Third_Party/LoRaWAN/Mac/region/RegionAS923.c ****     {
 113:../../../../../../Middlewares/Third_Party/LoRaWAN/Mac/region/RegionAS923.c ****         return false;
 114:../../../../../../Middlewares/Third_Party/LoRaWAN/Mac/region/RegionAS923.c ****     }
 115:../../../../../../Middlewares/Third_Party/LoRaWAN/Mac/region/RegionAS923.c **** 
 116:../../../../../../Middlewares/Third_Party/LoRaWAN/Mac/region/RegionAS923.c ****     if( ( freq < 915000000 ) || ( freq > 928000000 ) )
 117:../../../../../../Middlewares/Third_Party/LoRaWAN/Mac/region/RegionAS923.c ****     {
 118:../../../../../../Middlewares/Third_Party/LoRaWAN/Mac/region/RegionAS923.c ****         return false;
 119:../../../../../../Middlewares/Third_Party/LoRaWAN/Mac/region/RegionAS923.c ****     }
 120:../../../../../../Middlewares/Third_Party/LoRaWAN/Mac/region/RegionAS923.c ****     return true;
 121:../../../../../../Middlewares/Third_Party/LoRaWAN/Mac/region/RegionAS923.c **** }
 122:../../../../../../Middlewares/Third_Party/LoRaWAN/Mac/region/RegionAS923.c **** 
 123:../../../../../../Middlewares/Third_Party/LoRaWAN/Mac/region/RegionAS923.c **** static uint8_t CountNbOfEnabledChannels( bool joined, uint8_t datarate, uint16_t* channelsMask, Cha
 124:../../../../../../Middlewares/Third_Party/LoRaWAN/Mac/region/RegionAS923.c **** {
 125:../../../../../../Middlewares/Third_Party/LoRaWAN/Mac/region/RegionAS923.c ****     uint8_t nbEnabledChannels = 0;
 126:../../../../../../Middlewares/Third_Party/LoRaWAN/Mac/region/RegionAS923.c ****     uint8_t delayTransmission = 0;
 127:../../../../../../Middlewares/Third_Party/LoRaWAN/Mac/region/RegionAS923.c **** 
 128:../../../../../../Middlewares/Third_Party/LoRaWAN/Mac/region/RegionAS923.c ****     for( uint8_t i = 0, k = 0; i < AS923_MAX_NB_CHANNELS; i += 16, k++ )
 129:../../../../../../Middlewares/Third_Party/LoRaWAN/Mac/region/RegionAS923.c ****     {
 130:../../../../../../Middlewares/Third_Party/LoRaWAN/Mac/region/RegionAS923.c ****         for( uint8_t j = 0; j < 16; j++ )
 131:../../../../../../Middlewares/Third_Party/LoRaWAN/Mac/region/RegionAS923.c ****         {
 132:../../../../../../Middlewares/Third_Party/LoRaWAN/Mac/region/RegionAS923.c ****             if( ( channelsMask[k] & ( 1 << j ) ) != 0 )
 133:../../../../../../Middlewares/Third_Party/LoRaWAN/Mac/region/RegionAS923.c ****             {
 134:../../../../../../Middlewares/Third_Party/LoRaWAN/Mac/region/RegionAS923.c ****                 if( channels[i + j].Frequency == 0 )
 135:../../../../../../Middlewares/Third_Party/LoRaWAN/Mac/region/RegionAS923.c ****                 { // Check if the channel is enabled
 136:../../../../../../Middlewares/Third_Party/LoRaWAN/Mac/region/RegionAS923.c ****                     continue;
 137:../../../../../../Middlewares/Third_Party/LoRaWAN/Mac/region/RegionAS923.c ****                 }
 138:../../../../../../Middlewares/Third_Party/LoRaWAN/Mac/region/RegionAS923.c ****                 if( joined == false )
 139:../../../../../../Middlewares/Third_Party/LoRaWAN/Mac/region/RegionAS923.c ****                 {
 140:../../../../../../Middlewares/Third_Party/LoRaWAN/Mac/region/RegionAS923.c ****                     if( ( AS923_JOIN_CHANNELS & ( 1 << j ) ) == 0 )
 141:../../../../../../Middlewares/Third_Party/LoRaWAN/Mac/region/RegionAS923.c ****                     {
 142:../../../../../../Middlewares/Third_Party/LoRaWAN/Mac/region/RegionAS923.c ****                         continue;
 143:../../../../../../Middlewares/Third_Party/LoRaWAN/Mac/region/RegionAS923.c ****                     }
 144:../../../../../../Middlewares/Third_Party/LoRaWAN/Mac/region/RegionAS923.c ****                 }
 145:../../../../../../Middlewares/Third_Party/LoRaWAN/Mac/region/RegionAS923.c ****                 if( RegionCommonValueInRange( datarate, channels[i + j].DrRange.Fields.Min,
ARM GAS  C:\Users\EBANO_~1\AppData\Local\Temp\cc2nkIni.s 			page 4


 146:../../../../../../Middlewares/Third_Party/LoRaWAN/Mac/region/RegionAS923.c ****                                               channels[i + j].DrRange.Fields.Max ) == false )
 147:../../../../../../Middlewares/Third_Party/LoRaWAN/Mac/region/RegionAS923.c ****                 { // Check if the current channel selection supports the given datarate
 148:../../../../../../Middlewares/Third_Party/LoRaWAN/Mac/region/RegionAS923.c ****                     continue;
 149:../../../../../../Middlewares/Third_Party/LoRaWAN/Mac/region/RegionAS923.c ****                 }
 150:../../../../../../Middlewares/Third_Party/LoRaWAN/Mac/region/RegionAS923.c ****                 if( bands[channels[i + j].Band].TimeOff > 0 )
 151:../../../../../../Middlewares/Third_Party/LoRaWAN/Mac/region/RegionAS923.c ****                 { // Check if the band is available for transmission
 152:../../../../../../Middlewares/Third_Party/LoRaWAN/Mac/region/RegionAS923.c ****                     delayTransmission++;
 153:../../../../../../Middlewares/Third_Party/LoRaWAN/Mac/region/RegionAS923.c ****                     continue;
 154:../../../../../../Middlewares/Third_Party/LoRaWAN/Mac/region/RegionAS923.c ****                 }
 155:../../../../../../Middlewares/Third_Party/LoRaWAN/Mac/region/RegionAS923.c ****                 enabledChannels[nbEnabledChannels++] = i + j;
 156:../../../../../../Middlewares/Third_Party/LoRaWAN/Mac/region/RegionAS923.c ****             }
 157:../../../../../../Middlewares/Third_Party/LoRaWAN/Mac/region/RegionAS923.c ****         }
 158:../../../../../../Middlewares/Third_Party/LoRaWAN/Mac/region/RegionAS923.c ****     }
 159:../../../../../../Middlewares/Third_Party/LoRaWAN/Mac/region/RegionAS923.c **** 
 160:../../../../../../Middlewares/Third_Party/LoRaWAN/Mac/region/RegionAS923.c ****     *delayTx = delayTransmission;
 161:../../../../../../Middlewares/Third_Party/LoRaWAN/Mac/region/RegionAS923.c ****     return nbEnabledChannels;
 162:../../../../../../Middlewares/Third_Party/LoRaWAN/Mac/region/RegionAS923.c **** }
 163:../../../../../../Middlewares/Third_Party/LoRaWAN/Mac/region/RegionAS923.c **** 
 164:../../../../../../Middlewares/Third_Party/LoRaWAN/Mac/region/RegionAS923.c **** PhyParam_t RegionAS923GetPhyParam( GetPhyParams_t* getPhy )
 165:../../../../../../Middlewares/Third_Party/LoRaWAN/Mac/region/RegionAS923.c **** {
  27              		.loc 1 165 0
  28              		.cfi_startproc
  29              		@ args = 0, pretend = 0, frame = 8
  30              		@ frame_needed = 0, uses_anonymous_args = 0
  31              	.LVL0:
 166:../../../../../../Middlewares/Third_Party/LoRaWAN/Mac/region/RegionAS923.c ****     PhyParam_t phyParam = { 0 };
  32              		.loc 1 166 0
  33 0000 0023     		movs	r3, #0
 165:../../../../../../Middlewares/Third_Party/LoRaWAN/Mac/region/RegionAS923.c ****     PhyParam_t phyParam = { 0 };
  34              		.loc 1 165 0
  35 0002 00B5     		push	{lr}
  36              	.LCFI0:
  37              		.cfi_def_cfa_offset 4
  38              		.cfi_offset 14, -4
  39 0004 83B0     		sub	sp, sp, #12
  40              	.LCFI1:
  41              		.cfi_def_cfa_offset 16
  42              		.loc 1 166 0
  43 0006 0093     		str	r3, [sp]
 167:../../../../../../Middlewares/Third_Party/LoRaWAN/Mac/region/RegionAS923.c **** 
 168:../../../../../../Middlewares/Third_Party/LoRaWAN/Mac/region/RegionAS923.c ****     switch( getPhy->Attribute )
  44              		.loc 1 168 0
  45 0008 0378     		ldrb	r3, [r0]
  46 000a 342B     		cmp	r3, #52
  47 000c 0CD8     		bhi	.L2
  48 000e 434A     		ldr	r2, .L47
  49 0010 9B00     		lsls	r3, r3, #2
  50 0012 D358     		ldr	r3, [r2, r3]
  51 0014 9F46     		mov	pc, r3
  52              		.section	.rodata
  53              		.align	2
  54              	.L4:
  55 0000 FC000000 		.word	.L3
  56 0004 F0000000 		.word	.L5
  57 0008 28000000 		.word	.L2
  58 000c 28000000 		.word	.L2
  59 0010 28000000 		.word	.L2
ARM GAS  C:\Users\EBANO_~1\AppData\Local\Temp\cc2nkIni.s 			page 5


  60 0014 34000000 		.word	.L6
  61 0018 28000000 		.word	.L2
  62 001c 28000000 		.word	.L2
  63 0020 28000000 		.word	.L2
  64 0024 28000000 		.word	.L2
  65 0028 40000000 		.word	.L7
  66 002c EA000000 		.word	.L8
  67 0030 16000000 		.word	.L9
  68 0034 C2000000 		.word	.L10
  69 0038 28000000 		.word	.L2
  70 003c B4000000 		.word	.L11
  71 0040 AC000000 		.word	.L12
  72 0044 A4000000 		.word	.L13
  73 0048 9E000000 		.word	.L14
  74 004c 98000000 		.word	.L15
  75 0050 90000000 		.word	.L16
  76 0054 7A000000 		.word	.L17
  77 0058 28000000 		.word	.L2
  78 005c 6E000000 		.word	.L18
  79 0060 34000000 		.word	.L6
  80 0064 52000000 		.word	.L19
  81 0068 4C000000 		.word	.L20
  82 006c 46000000 		.word	.L21
  83 0070 DC000000 		.word	.L22
  84 0074 2E000000 		.word	.L23
  85 0078 2E000000 		.word	.L23
  86 007c E2000000 		.word	.L24
  87 0080 D6000000 		.word	.L25
  88 0084 58000000 		.word	.L26
  89 0088 28000000 		.word	.L2
  90 008c 28000000 		.word	.L2
  91 0090 28000000 		.word	.L2
  92 0094 28000000 		.word	.L2
  93 0098 28000000 		.word	.L2
  94 009c 28000000 		.word	.L2
  95 00a0 28000000 		.word	.L2
  96 00a4 28000000 		.word	.L2
  97 00a8 28000000 		.word	.L2
  98 00ac 28000000 		.word	.L2
  99 00b0 28000000 		.word	.L2
 100 00b4 28000000 		.word	.L2
 101 00b8 28000000 		.word	.L2
 102 00bc 74000000 		.word	.L27
 103 00c0 BA000000 		.word	.L28
 104 00c4 3A000000 		.word	.L29
 105 00c8 28000000 		.word	.L2
 106 00cc 28000000 		.word	.L2
 107 00d0 3A000000 		.word	.L29
 108              		.section	.text.RegionAS923GetPhyParam
 109              	.L9:
 110 0016 0122     		movs	r2, #1
 169:../../../../../../Middlewares/Third_Party/LoRaWAN/Mac/region/RegionAS923.c ****     {
 170:../../../../../../Middlewares/Third_Party/LoRaWAN/Mac/region/RegionAS923.c ****         case PHY_MIN_RX_DR:
 171:../../../../../../Middlewares/Third_Party/LoRaWAN/Mac/region/RegionAS923.c ****         {
 172:../../../../../../Middlewares/Third_Party/LoRaWAN/Mac/region/RegionAS923.c ****             if( getPhy->DownlinkDwellTime == 0 )
 173:../../../../../../Middlewares/Third_Party/LoRaWAN/Mac/region/RegionAS923.c ****             {
 174:../../../../../../Middlewares/Third_Party/LoRaWAN/Mac/region/RegionAS923.c ****                 phyParam.Value = AS923_RX_MIN_DATARATE;
ARM GAS  C:\Users\EBANO_~1\AppData\Local\Temp\cc2nkIni.s 			page 6


 175:../../../../../../Middlewares/Third_Party/LoRaWAN/Mac/region/RegionAS923.c ****             }
 176:../../../../../../Middlewares/Third_Party/LoRaWAN/Mac/region/RegionAS923.c ****             else
 177:../../../../../../Middlewares/Third_Party/LoRaWAN/Mac/region/RegionAS923.c ****             {
 178:../../../../../../Middlewares/Third_Party/LoRaWAN/Mac/region/RegionAS923.c ****                 phyParam.Value = AS923_DWELL_LIMIT_DATARATE;
 179:../../../../../../Middlewares/Third_Party/LoRaWAN/Mac/region/RegionAS923.c ****             }
 180:../../../../../../Middlewares/Third_Party/LoRaWAN/Mac/region/RegionAS923.c ****             break;
 181:../../../../../../Middlewares/Third_Party/LoRaWAN/Mac/region/RegionAS923.c ****         }
 182:../../../../../../Middlewares/Third_Party/LoRaWAN/Mac/region/RegionAS923.c ****         case PHY_MIN_TX_DR:
 183:../../../../../../Middlewares/Third_Party/LoRaWAN/Mac/region/RegionAS923.c ****         {
 184:../../../../../../Middlewares/Third_Party/LoRaWAN/Mac/region/RegionAS923.c ****             if( getPhy->UplinkDwellTime == 0 )
 185:../../../../../../Middlewares/Third_Party/LoRaWAN/Mac/region/RegionAS923.c ****             {
 186:../../../../../../Middlewares/Third_Party/LoRaWAN/Mac/region/RegionAS923.c ****                 phyParam.Value = AS923_TX_MIN_DATARATE;
 187:../../../../../../Middlewares/Third_Party/LoRaWAN/Mac/region/RegionAS923.c ****             }
 188:../../../../../../Middlewares/Third_Party/LoRaWAN/Mac/region/RegionAS923.c ****             else
 189:../../../../../../Middlewares/Third_Party/LoRaWAN/Mac/region/RegionAS923.c ****             {
 190:../../../../../../Middlewares/Third_Party/LoRaWAN/Mac/region/RegionAS923.c ****                 phyParam.Value = AS923_DWELL_LIMIT_DATARATE;
 191:../../../../../../Middlewares/Third_Party/LoRaWAN/Mac/region/RegionAS923.c ****             }
 192:../../../../../../Middlewares/Third_Party/LoRaWAN/Mac/region/RegionAS923.c ****             break;
 193:../../../../../../Middlewares/Third_Party/LoRaWAN/Mac/region/RegionAS923.c ****         }
 194:../../../../../../Middlewares/Third_Party/LoRaWAN/Mac/region/RegionAS923.c ****         case PHY_DEF_TX_DR:
 195:../../../../../../Middlewares/Third_Party/LoRaWAN/Mac/region/RegionAS923.c ****         {
 196:../../../../../../Middlewares/Third_Party/LoRaWAN/Mac/region/RegionAS923.c ****             phyParam.Value = AS923_DEFAULT_DATARATE;
 197:../../../../../../Middlewares/Third_Party/LoRaWAN/Mac/region/RegionAS923.c ****             break;
 198:../../../../../../Middlewares/Third_Party/LoRaWAN/Mac/region/RegionAS923.c ****         }
 199:../../../../../../Middlewares/Third_Party/LoRaWAN/Mac/region/RegionAS923.c ****         case PHY_NEXT_LOWER_TX_DR:
 200:../../../../../../Middlewares/Third_Party/LoRaWAN/Mac/region/RegionAS923.c ****         {
 201:../../../../../../Middlewares/Third_Party/LoRaWAN/Mac/region/RegionAS923.c ****             if( getPhy->UplinkDwellTime == 0 )
 202:../../../../../../Middlewares/Third_Party/LoRaWAN/Mac/region/RegionAS923.c ****             {
 203:../../../../../../Middlewares/Third_Party/LoRaWAN/Mac/region/RegionAS923.c ****                 phyParam.Value = GetNextLowerTxDr( getPhy->Datarate, AS923_TX_MIN_DATARATE );
 204:../../../../../../Middlewares/Third_Party/LoRaWAN/Mac/region/RegionAS923.c ****             }
 205:../../../../../../Middlewares/Third_Party/LoRaWAN/Mac/region/RegionAS923.c ****             else
 206:../../../../../../Middlewares/Third_Party/LoRaWAN/Mac/region/RegionAS923.c ****             {
 207:../../../../../../Middlewares/Third_Party/LoRaWAN/Mac/region/RegionAS923.c ****                 phyParam.Value = GetNextLowerTxDr( getPhy->Datarate, AS923_DWELL_LIMIT_DATARATE );
 208:../../../../../../Middlewares/Third_Party/LoRaWAN/Mac/region/RegionAS923.c ****             }
 209:../../../../../../Middlewares/Third_Party/LoRaWAN/Mac/region/RegionAS923.c ****             break;
 210:../../../../../../Middlewares/Third_Party/LoRaWAN/Mac/region/RegionAS923.c ****         }
 211:../../../../../../Middlewares/Third_Party/LoRaWAN/Mac/region/RegionAS923.c ****         case PHY_MAX_TX_POWER:
 212:../../../../../../Middlewares/Third_Party/LoRaWAN/Mac/region/RegionAS923.c ****         {
 213:../../../../../../Middlewares/Third_Party/LoRaWAN/Mac/region/RegionAS923.c ****             phyParam.Value = AS923_MAX_TX_POWER;
 214:../../../../../../Middlewares/Third_Party/LoRaWAN/Mac/region/RegionAS923.c ****             break;
 215:../../../../../../Middlewares/Third_Party/LoRaWAN/Mac/region/RegionAS923.c ****         }
 216:../../../../../../Middlewares/Third_Party/LoRaWAN/Mac/region/RegionAS923.c ****         case PHY_DEF_TX_POWER:
 217:../../../../../../Middlewares/Third_Party/LoRaWAN/Mac/region/RegionAS923.c ****         {
 218:../../../../../../Middlewares/Third_Party/LoRaWAN/Mac/region/RegionAS923.c ****             phyParam.Value = AS923_DEFAULT_TX_POWER;
 219:../../../../../../Middlewares/Third_Party/LoRaWAN/Mac/region/RegionAS923.c ****             break;
 220:../../../../../../Middlewares/Third_Party/LoRaWAN/Mac/region/RegionAS923.c ****         }
 221:../../../../../../Middlewares/Third_Party/LoRaWAN/Mac/region/RegionAS923.c ****         case PHY_DEF_ADR_ACK_LIMIT:
 222:../../../../../../Middlewares/Third_Party/LoRaWAN/Mac/region/RegionAS923.c ****         {
 223:../../../../../../Middlewares/Third_Party/LoRaWAN/Mac/region/RegionAS923.c ****             phyParam.Value = AS923_ADR_ACK_LIMIT;
 224:../../../../../../Middlewares/Third_Party/LoRaWAN/Mac/region/RegionAS923.c ****             break;
 225:../../../../../../Middlewares/Third_Party/LoRaWAN/Mac/region/RegionAS923.c ****         }
 226:../../../../../../Middlewares/Third_Party/LoRaWAN/Mac/region/RegionAS923.c ****         case PHY_DEF_ADR_ACK_DELAY:
 227:../../../../../../Middlewares/Third_Party/LoRaWAN/Mac/region/RegionAS923.c ****         {
 228:../../../../../../Middlewares/Third_Party/LoRaWAN/Mac/region/RegionAS923.c ****             phyParam.Value = AS923_ADR_ACK_DELAY;
 229:../../../../../../Middlewares/Third_Party/LoRaWAN/Mac/region/RegionAS923.c ****             break;
 230:../../../../../../Middlewares/Third_Party/LoRaWAN/Mac/region/RegionAS923.c ****         }
 231:../../../../../../Middlewares/Third_Party/LoRaWAN/Mac/region/RegionAS923.c ****         case PHY_MAX_PAYLOAD:
ARM GAS  C:\Users\EBANO_~1\AppData\Local\Temp\cc2nkIni.s 			page 7


 232:../../../../../../Middlewares/Third_Party/LoRaWAN/Mac/region/RegionAS923.c ****         {
 233:../../../../../../Middlewares/Third_Party/LoRaWAN/Mac/region/RegionAS923.c ****             if( getPhy->UplinkDwellTime == 0 )
 111              		.loc 1 233 0
 112 0018 8378     		ldrb	r3, [r0, #2]
 113 001a 8256     		ldrsb	r2, [r0, r2]
 114 001c 002B     		cmp	r3, #0
 115 001e 00D0     		beq	.LCB32
 116 0020 71E0     		b	.L35	@long jump
 117              	.LCB32:
 234:../../../../../../Middlewares/Third_Party/LoRaWAN/Mac/region/RegionAS923.c ****             {
 235:../../../../../../Middlewares/Third_Party/LoRaWAN/Mac/region/RegionAS923.c ****                 phyParam.Value = MaxPayloadOfDatarateDwell0AS923[getPhy->Datarate];
 118              		.loc 1 235 0
 119 0022 3F4B     		ldr	r3, .L47+4
 120 0024 9B5C     		ldrb	r3, [r3, r2]
 121 0026 0093     		str	r3, [sp]
 122              	.LVL1:
 123              	.L2:
 236:../../../../../../Middlewares/Third_Party/LoRaWAN/Mac/region/RegionAS923.c ****             }
 237:../../../../../../Middlewares/Third_Party/LoRaWAN/Mac/region/RegionAS923.c ****             else
 238:../../../../../../Middlewares/Third_Party/LoRaWAN/Mac/region/RegionAS923.c ****             {
 239:../../../../../../Middlewares/Third_Party/LoRaWAN/Mac/region/RegionAS923.c ****                 phyParam.Value = MaxPayloadOfDatarateDwell1UpAS923[getPhy->Datarate];
 240:../../../../../../Middlewares/Third_Party/LoRaWAN/Mac/region/RegionAS923.c ****             }
 241:../../../../../../Middlewares/Third_Party/LoRaWAN/Mac/region/RegionAS923.c ****             break;
 242:../../../../../../Middlewares/Third_Party/LoRaWAN/Mac/region/RegionAS923.c ****         }
 243:../../../../../../Middlewares/Third_Party/LoRaWAN/Mac/region/RegionAS923.c ****         case PHY_MAX_PAYLOAD_REPEATER:
 244:../../../../../../Middlewares/Third_Party/LoRaWAN/Mac/region/RegionAS923.c ****         {
 245:../../../../../../Middlewares/Third_Party/LoRaWAN/Mac/region/RegionAS923.c ****             if( getPhy->UplinkDwellTime == 0 )
 246:../../../../../../Middlewares/Third_Party/LoRaWAN/Mac/region/RegionAS923.c ****             {
 247:../../../../../../Middlewares/Third_Party/LoRaWAN/Mac/region/RegionAS923.c ****                 phyParam.Value = MaxPayloadOfDatarateRepeaterDwell0AS923[getPhy->Datarate];
 248:../../../../../../Middlewares/Third_Party/LoRaWAN/Mac/region/RegionAS923.c ****             }
 249:../../../../../../Middlewares/Third_Party/LoRaWAN/Mac/region/RegionAS923.c ****             else
 250:../../../../../../Middlewares/Third_Party/LoRaWAN/Mac/region/RegionAS923.c ****             {
 251:../../../../../../Middlewares/Third_Party/LoRaWAN/Mac/region/RegionAS923.c ****                 phyParam.Value = MaxPayloadOfDatarateDwell1UpAS923[getPhy->Datarate];
 252:../../../../../../Middlewares/Third_Party/LoRaWAN/Mac/region/RegionAS923.c ****             }
 253:../../../../../../Middlewares/Third_Party/LoRaWAN/Mac/region/RegionAS923.c ****             break;
 254:../../../../../../Middlewares/Third_Party/LoRaWAN/Mac/region/RegionAS923.c ****         }
 255:../../../../../../Middlewares/Third_Party/LoRaWAN/Mac/region/RegionAS923.c ****         case PHY_DUTY_CYCLE:
 256:../../../../../../Middlewares/Third_Party/LoRaWAN/Mac/region/RegionAS923.c ****         {
 257:../../../../../../Middlewares/Third_Party/LoRaWAN/Mac/region/RegionAS923.c ****             phyParam.Value = AS923_DUTY_CYCLE_ENABLED;
 258:../../../../../../Middlewares/Third_Party/LoRaWAN/Mac/region/RegionAS923.c ****             break;
 259:../../../../../../Middlewares/Third_Party/LoRaWAN/Mac/region/RegionAS923.c ****         }
 260:../../../../../../Middlewares/Third_Party/LoRaWAN/Mac/region/RegionAS923.c ****         case PHY_MAX_RX_WINDOW:
 261:../../../../../../Middlewares/Third_Party/LoRaWAN/Mac/region/RegionAS923.c ****         {
 262:../../../../../../Middlewares/Third_Party/LoRaWAN/Mac/region/RegionAS923.c ****             phyParam.Value = AS923_MAX_RX_WINDOW;
 263:../../../../../../Middlewares/Third_Party/LoRaWAN/Mac/region/RegionAS923.c ****             break;
 264:../../../../../../Middlewares/Third_Party/LoRaWAN/Mac/region/RegionAS923.c ****         }
 265:../../../../../../Middlewares/Third_Party/LoRaWAN/Mac/region/RegionAS923.c ****         case PHY_RECEIVE_DELAY1:
 266:../../../../../../Middlewares/Third_Party/LoRaWAN/Mac/region/RegionAS923.c ****         {
 267:../../../../../../Middlewares/Third_Party/LoRaWAN/Mac/region/RegionAS923.c ****             phyParam.Value = AS923_RECEIVE_DELAY1;
 268:../../../../../../Middlewares/Third_Party/LoRaWAN/Mac/region/RegionAS923.c ****             break;
 269:../../../../../../Middlewares/Third_Party/LoRaWAN/Mac/region/RegionAS923.c ****         }
 270:../../../../../../Middlewares/Third_Party/LoRaWAN/Mac/region/RegionAS923.c ****         case PHY_RECEIVE_DELAY2:
 271:../../../../../../Middlewares/Third_Party/LoRaWAN/Mac/region/RegionAS923.c ****         {
 272:../../../../../../Middlewares/Third_Party/LoRaWAN/Mac/region/RegionAS923.c ****             phyParam.Value = AS923_RECEIVE_DELAY2;
 273:../../../../../../Middlewares/Third_Party/LoRaWAN/Mac/region/RegionAS923.c ****             break;
 274:../../../../../../Middlewares/Third_Party/LoRaWAN/Mac/region/RegionAS923.c ****         }
 275:../../../../../../Middlewares/Third_Party/LoRaWAN/Mac/region/RegionAS923.c ****         case PHY_JOIN_ACCEPT_DELAY1:
ARM GAS  C:\Users\EBANO_~1\AppData\Local\Temp\cc2nkIni.s 			page 8


 276:../../../../../../Middlewares/Third_Party/LoRaWAN/Mac/region/RegionAS923.c ****         {
 277:../../../../../../Middlewares/Third_Party/LoRaWAN/Mac/region/RegionAS923.c ****             phyParam.Value = AS923_JOIN_ACCEPT_DELAY1;
 278:../../../../../../Middlewares/Third_Party/LoRaWAN/Mac/region/RegionAS923.c ****             break;
 279:../../../../../../Middlewares/Third_Party/LoRaWAN/Mac/region/RegionAS923.c ****         }
 280:../../../../../../Middlewares/Third_Party/LoRaWAN/Mac/region/RegionAS923.c ****         case PHY_JOIN_ACCEPT_DELAY2:
 281:../../../../../../Middlewares/Third_Party/LoRaWAN/Mac/region/RegionAS923.c ****         {
 282:../../../../../../Middlewares/Third_Party/LoRaWAN/Mac/region/RegionAS923.c ****             phyParam.Value = AS923_JOIN_ACCEPT_DELAY2;
 283:../../../../../../Middlewares/Third_Party/LoRaWAN/Mac/region/RegionAS923.c ****             break;
 284:../../../../../../Middlewares/Third_Party/LoRaWAN/Mac/region/RegionAS923.c ****         }
 285:../../../../../../Middlewares/Third_Party/LoRaWAN/Mac/region/RegionAS923.c ****         case PHY_MAX_FCNT_GAP:
 286:../../../../../../Middlewares/Third_Party/LoRaWAN/Mac/region/RegionAS923.c ****         {
 287:../../../../../../Middlewares/Third_Party/LoRaWAN/Mac/region/RegionAS923.c ****             phyParam.Value = AS923_MAX_FCNT_GAP;
 288:../../../../../../Middlewares/Third_Party/LoRaWAN/Mac/region/RegionAS923.c ****             break;
 289:../../../../../../Middlewares/Third_Party/LoRaWAN/Mac/region/RegionAS923.c ****         }
 290:../../../../../../Middlewares/Third_Party/LoRaWAN/Mac/region/RegionAS923.c ****         case PHY_ACK_TIMEOUT:
 291:../../../../../../Middlewares/Third_Party/LoRaWAN/Mac/region/RegionAS923.c ****         {
 292:../../../../../../Middlewares/Third_Party/LoRaWAN/Mac/region/RegionAS923.c ****             phyParam.Value = ( AS923_ACKTIMEOUT + randr( -AS923_ACK_TIMEOUT_RND, AS923_ACK_TIMEOUT_
 293:../../../../../../Middlewares/Third_Party/LoRaWAN/Mac/region/RegionAS923.c ****             break;
 294:../../../../../../Middlewares/Third_Party/LoRaWAN/Mac/region/RegionAS923.c ****         }
 295:../../../../../../Middlewares/Third_Party/LoRaWAN/Mac/region/RegionAS923.c ****         case PHY_DEF_DR1_OFFSET:
 296:../../../../../../Middlewares/Third_Party/LoRaWAN/Mac/region/RegionAS923.c ****         {
 297:../../../../../../Middlewares/Third_Party/LoRaWAN/Mac/region/RegionAS923.c ****             phyParam.Value = AS923_DEFAULT_RX1_DR_OFFSET;
 298:../../../../../../Middlewares/Third_Party/LoRaWAN/Mac/region/RegionAS923.c ****             break;
 299:../../../../../../Middlewares/Third_Party/LoRaWAN/Mac/region/RegionAS923.c ****         }
 300:../../../../../../Middlewares/Third_Party/LoRaWAN/Mac/region/RegionAS923.c ****         case PHY_DEF_RX2_FREQUENCY:
 301:../../../../../../Middlewares/Third_Party/LoRaWAN/Mac/region/RegionAS923.c ****         {
 302:../../../../../../Middlewares/Third_Party/LoRaWAN/Mac/region/RegionAS923.c ****             phyParam.Value = AS923_RX_WND_2_FREQ;
 303:../../../../../../Middlewares/Third_Party/LoRaWAN/Mac/region/RegionAS923.c ****             break;
 304:../../../../../../Middlewares/Third_Party/LoRaWAN/Mac/region/RegionAS923.c ****         }
 305:../../../../../../Middlewares/Third_Party/LoRaWAN/Mac/region/RegionAS923.c ****         case PHY_DEF_RX2_DR:
 306:../../../../../../Middlewares/Third_Party/LoRaWAN/Mac/region/RegionAS923.c ****         {
 307:../../../../../../Middlewares/Third_Party/LoRaWAN/Mac/region/RegionAS923.c ****             phyParam.Value = AS923_RX_WND_2_DR;
 308:../../../../../../Middlewares/Third_Party/LoRaWAN/Mac/region/RegionAS923.c ****             break;
 309:../../../../../../Middlewares/Third_Party/LoRaWAN/Mac/region/RegionAS923.c ****         }
 310:../../../../../../Middlewares/Third_Party/LoRaWAN/Mac/region/RegionAS923.c ****         case PHY_CHANNELS_MASK:
 311:../../../../../../Middlewares/Third_Party/LoRaWAN/Mac/region/RegionAS923.c ****         {
 312:../../../../../../Middlewares/Third_Party/LoRaWAN/Mac/region/RegionAS923.c ****             phyParam.ChannelsMask = NvmCtx.ChannelsMask;
 313:../../../../../../Middlewares/Third_Party/LoRaWAN/Mac/region/RegionAS923.c ****             break;
 314:../../../../../../Middlewares/Third_Party/LoRaWAN/Mac/region/RegionAS923.c ****         }
 315:../../../../../../Middlewares/Third_Party/LoRaWAN/Mac/region/RegionAS923.c ****         case PHY_CHANNELS_DEFAULT_MASK:
 316:../../../../../../Middlewares/Third_Party/LoRaWAN/Mac/region/RegionAS923.c ****         {
 317:../../../../../../Middlewares/Third_Party/LoRaWAN/Mac/region/RegionAS923.c ****             phyParam.ChannelsMask = NvmCtx.ChannelsDefaultMask;
 318:../../../../../../Middlewares/Third_Party/LoRaWAN/Mac/region/RegionAS923.c ****             break;
 319:../../../../../../Middlewares/Third_Party/LoRaWAN/Mac/region/RegionAS923.c ****         }
 320:../../../../../../Middlewares/Third_Party/LoRaWAN/Mac/region/RegionAS923.c ****         case PHY_MAX_NB_CHANNELS:
 321:../../../../../../Middlewares/Third_Party/LoRaWAN/Mac/region/RegionAS923.c ****         {
 322:../../../../../../Middlewares/Third_Party/LoRaWAN/Mac/region/RegionAS923.c ****             phyParam.Value = AS923_MAX_NB_CHANNELS;
 323:../../../../../../Middlewares/Third_Party/LoRaWAN/Mac/region/RegionAS923.c ****             break;
 324:../../../../../../Middlewares/Third_Party/LoRaWAN/Mac/region/RegionAS923.c ****         }
 325:../../../../../../Middlewares/Third_Party/LoRaWAN/Mac/region/RegionAS923.c ****         case PHY_CHANNELS:
 326:../../../../../../Middlewares/Third_Party/LoRaWAN/Mac/region/RegionAS923.c ****         {
 327:../../../../../../Middlewares/Third_Party/LoRaWAN/Mac/region/RegionAS923.c ****             phyParam.Channels = NvmCtx.Channels;
 328:../../../../../../Middlewares/Third_Party/LoRaWAN/Mac/region/RegionAS923.c ****             break;
 329:../../../../../../Middlewares/Third_Party/LoRaWAN/Mac/region/RegionAS923.c ****         }
 330:../../../../../../Middlewares/Third_Party/LoRaWAN/Mac/region/RegionAS923.c ****         case PHY_DEF_UPLINK_DWELL_TIME:
 331:../../../../../../Middlewares/Third_Party/LoRaWAN/Mac/region/RegionAS923.c ****         {
 332:../../../../../../Middlewares/Third_Party/LoRaWAN/Mac/region/RegionAS923.c ****             phyParam.Value = AS923_DEFAULT_UPLINK_DWELL_TIME;
ARM GAS  C:\Users\EBANO_~1\AppData\Local\Temp\cc2nkIni.s 			page 9


 333:../../../../../../Middlewares/Third_Party/LoRaWAN/Mac/region/RegionAS923.c ****             break;
 334:../../../../../../Middlewares/Third_Party/LoRaWAN/Mac/region/RegionAS923.c ****         }
 335:../../../../../../Middlewares/Third_Party/LoRaWAN/Mac/region/RegionAS923.c ****         case PHY_DEF_DOWNLINK_DWELL_TIME:
 336:../../../../../../Middlewares/Third_Party/LoRaWAN/Mac/region/RegionAS923.c ****         {
 337:../../../../../../Middlewares/Third_Party/LoRaWAN/Mac/region/RegionAS923.c ****             phyParam.Value = AS923_DEFAULT_DOWNLINK_DWELL_TIME;
 338:../../../../../../Middlewares/Third_Party/LoRaWAN/Mac/region/RegionAS923.c ****             break;
 339:../../../../../../Middlewares/Third_Party/LoRaWAN/Mac/region/RegionAS923.c ****         }
 340:../../../../../../Middlewares/Third_Party/LoRaWAN/Mac/region/RegionAS923.c ****         case PHY_DEF_MAX_EIRP:
 341:../../../../../../Middlewares/Third_Party/LoRaWAN/Mac/region/RegionAS923.c ****         {
 342:../../../../../../Middlewares/Third_Party/LoRaWAN/Mac/region/RegionAS923.c ****             phyParam.fValue = AS923_DEFAULT_MAX_EIRP;
 343:../../../../../../Middlewares/Third_Party/LoRaWAN/Mac/region/RegionAS923.c ****             break;
 344:../../../../../../Middlewares/Third_Party/LoRaWAN/Mac/region/RegionAS923.c ****         }
 345:../../../../../../Middlewares/Third_Party/LoRaWAN/Mac/region/RegionAS923.c ****         case PHY_DEF_ANTENNA_GAIN:
 346:../../../../../../Middlewares/Third_Party/LoRaWAN/Mac/region/RegionAS923.c ****         {
 347:../../../../../../Middlewares/Third_Party/LoRaWAN/Mac/region/RegionAS923.c ****             phyParam.fValue = AS923_DEFAULT_ANTENNA_GAIN;
 348:../../../../../../Middlewares/Third_Party/LoRaWAN/Mac/region/RegionAS923.c ****             break;
 349:../../../../../../Middlewares/Third_Party/LoRaWAN/Mac/region/RegionAS923.c ****         }
 350:../../../../../../Middlewares/Third_Party/LoRaWAN/Mac/region/RegionAS923.c ****         case PHY_BEACON_CHANNEL_FREQ:
 351:../../../../../../Middlewares/Third_Party/LoRaWAN/Mac/region/RegionAS923.c ****         {
 352:../../../../../../Middlewares/Third_Party/LoRaWAN/Mac/region/RegionAS923.c ****             phyParam.Value = AS923_BEACON_CHANNEL_FREQ;
 353:../../../../../../Middlewares/Third_Party/LoRaWAN/Mac/region/RegionAS923.c ****             break;
 354:../../../../../../Middlewares/Third_Party/LoRaWAN/Mac/region/RegionAS923.c ****         }
 355:../../../../../../Middlewares/Third_Party/LoRaWAN/Mac/region/RegionAS923.c ****         case PHY_BEACON_FORMAT:
 356:../../../../../../Middlewares/Third_Party/LoRaWAN/Mac/region/RegionAS923.c ****         {
 357:../../../../../../Middlewares/Third_Party/LoRaWAN/Mac/region/RegionAS923.c ****             phyParam.BeaconFormat.BeaconSize = AS923_BEACON_SIZE;
 358:../../../../../../Middlewares/Third_Party/LoRaWAN/Mac/region/RegionAS923.c ****             phyParam.BeaconFormat.Rfu1Size = AS923_RFU1_SIZE;
 359:../../../../../../Middlewares/Third_Party/LoRaWAN/Mac/region/RegionAS923.c ****             phyParam.BeaconFormat.Rfu2Size = AS923_RFU2_SIZE;
 360:../../../../../../Middlewares/Third_Party/LoRaWAN/Mac/region/RegionAS923.c ****             break;
 361:../../../../../../Middlewares/Third_Party/LoRaWAN/Mac/region/RegionAS923.c ****         }
 362:../../../../../../Middlewares/Third_Party/LoRaWAN/Mac/region/RegionAS923.c ****         case PHY_BEACON_CHANNEL_DR:
 363:../../../../../../Middlewares/Third_Party/LoRaWAN/Mac/region/RegionAS923.c ****         {
 364:../../../../../../Middlewares/Third_Party/LoRaWAN/Mac/region/RegionAS923.c ****             phyParam.Value = AS923_BEACON_CHANNEL_DR;
 365:../../../../../../Middlewares/Third_Party/LoRaWAN/Mac/region/RegionAS923.c ****             break;
 366:../../../../../../Middlewares/Third_Party/LoRaWAN/Mac/region/RegionAS923.c ****         }
 367:../../../../../../Middlewares/Third_Party/LoRaWAN/Mac/region/RegionAS923.c ****         case PHY_PING_SLOT_CHANNEL_DR:
 368:../../../../../../Middlewares/Third_Party/LoRaWAN/Mac/region/RegionAS923.c ****         {
 369:../../../../../../Middlewares/Third_Party/LoRaWAN/Mac/region/RegionAS923.c ****             phyParam.Value = AS923_PING_SLOT_CHANNEL_DR;
 370:../../../../../../Middlewares/Third_Party/LoRaWAN/Mac/region/RegionAS923.c ****             break;
 371:../../../../../../Middlewares/Third_Party/LoRaWAN/Mac/region/RegionAS923.c ****         }
 372:../../../../../../Middlewares/Third_Party/LoRaWAN/Mac/region/RegionAS923.c ****         default:
 373:../../../../../../Middlewares/Third_Party/LoRaWAN/Mac/region/RegionAS923.c ****         {
 374:../../../../../../Middlewares/Third_Party/LoRaWAN/Mac/region/RegionAS923.c ****             break;
 375:../../../../../../Middlewares/Third_Party/LoRaWAN/Mac/region/RegionAS923.c ****         }
 376:../../../../../../Middlewares/Third_Party/LoRaWAN/Mac/region/RegionAS923.c ****     }
 377:../../../../../../Middlewares/Third_Party/LoRaWAN/Mac/region/RegionAS923.c **** 
 378:../../../../../../Middlewares/Third_Party/LoRaWAN/Mac/region/RegionAS923.c ****     return phyParam;
 379:../../../../../../Middlewares/Third_Party/LoRaWAN/Mac/region/RegionAS923.c **** }
 124              		.loc 1 379 0
 125 0028 0098     		ldr	r0, [sp]
 126 002a 03B0     		add	sp, sp, #12
 127              		@ sp needed
 128 002c 00BD     		pop	{pc}
 129              	.LVL2:
 130              	.L23:
 332:../../../../../../Middlewares/Third_Party/LoRaWAN/Mac/region/RegionAS923.c ****             break;
 131              		.loc 1 332 0
 132 002e 0123     		movs	r3, #1
ARM GAS  C:\Users\EBANO_~1\AppData\Local\Temp\cc2nkIni.s 			page 10


 133 0030 0093     		str	r3, [sp]
 333:../../../../../../Middlewares/Third_Party/LoRaWAN/Mac/region/RegionAS923.c ****         }
 134              		.loc 1 333 0
 135 0032 F9E7     		b	.L2
 136              	.L6:
 196:../../../../../../Middlewares/Third_Party/LoRaWAN/Mac/region/RegionAS923.c ****             break;
 137              		.loc 1 196 0
 138 0034 0223     		movs	r3, #2
 139 0036 0093     		str	r3, [sp]
 197:../../../../../../Middlewares/Third_Party/LoRaWAN/Mac/region/RegionAS923.c ****         }
 140              		.loc 1 197 0
 141 0038 F6E7     		b	.L2
 142              	.L29:
 364:../../../../../../Middlewares/Third_Party/LoRaWAN/Mac/region/RegionAS923.c ****             break;
 143              		.loc 1 364 0
 144 003a 0323     		movs	r3, #3
 145 003c 0093     		str	r3, [sp]
 365:../../../../../../Middlewares/Third_Party/LoRaWAN/Mac/region/RegionAS923.c ****         }
 146              		.loc 1 365 0
 147 003e F3E7     		b	.L2
 148              	.L7:
 223:../../../../../../Middlewares/Third_Party/LoRaWAN/Mac/region/RegionAS923.c ****             break;
 149              		.loc 1 223 0
 150 0040 4023     		movs	r3, #64
 151 0042 0093     		str	r3, [sp]
 224:../../../../../../Middlewares/Third_Party/LoRaWAN/Mac/region/RegionAS923.c ****         }
 152              		.loc 1 224 0
 153 0044 F0E7     		b	.L2
 154              	.L21:
 322:../../../../../../Middlewares/Third_Party/LoRaWAN/Mac/region/RegionAS923.c ****             break;
 155              		.loc 1 322 0
 156 0046 1023     		movs	r3, #16
 157 0048 0093     		str	r3, [sp]
 323:../../../../../../Middlewares/Third_Party/LoRaWAN/Mac/region/RegionAS923.c ****         }
 158              		.loc 1 323 0
 159 004a EDE7     		b	.L2
 160              	.L20:
 317:../../../../../../Middlewares/Third_Party/LoRaWAN/Mac/region/RegionAS923.c ****             break;
 161              		.loc 1 317 0
 162 004c 354B     		ldr	r3, .L47+8
 163 004e 0093     		str	r3, [sp]
 318:../../../../../../Middlewares/Third_Party/LoRaWAN/Mac/region/RegionAS923.c ****         }
 164              		.loc 1 318 0
 165 0050 EAE7     		b	.L2
 166              	.L19:
 312:../../../../../../Middlewares/Third_Party/LoRaWAN/Mac/region/RegionAS923.c ****             break;
 167              		.loc 1 312 0
 168 0052 354B     		ldr	r3, .L47+12
 169 0054 0093     		str	r3, [sp]
 313:../../../../../../Middlewares/Third_Party/LoRaWAN/Mac/region/RegionAS923.c ****         }
 170              		.loc 1 313 0
 171 0056 E7E7     		b	.L2
 172              	.L26:
 173 0058 0123     		movs	r3, #1
 201:../../../../../../Middlewares/Third_Party/LoRaWAN/Mac/region/RegionAS923.c ****             {
 174              		.loc 1 201 0
 175 005a 8278     		ldrb	r2, [r0, #2]
ARM GAS  C:\Users\EBANO_~1\AppData\Local\Temp\cc2nkIni.s 			page 11


 176 005c C356     		ldrsb	r3, [r0, r3]
 177 005e 002A     		cmp	r2, #0
 178 0060 56D1     		bne	.L31
 179              	.LVL3:
 180              	.LBB22:
 181              	.LBB23:
  73:../../../../../../Middlewares/Third_Party/LoRaWAN/Mac/region/RegionAS923.c ****     {
 182              		.loc 1 73 0
 183 0062 002B     		cmp	r3, #0
 184 0064 01D0     		beq	.L32
 185              	.LVL4:
  79:../../../../../../Middlewares/Third_Party/LoRaWAN/Mac/region/RegionAS923.c ****     }
 186              		.loc 1 79 0
 187 0066 013B     		subs	r3, r3, #1
 188              	.LVL5:
 189 0068 5AB2     		sxtb	r2, r3
 190              	.LVL6:
 191              	.L32:
 192              	.LBE23:
 193              	.LBE22:
 203:../../../../../../Middlewares/Third_Party/LoRaWAN/Mac/region/RegionAS923.c ****             }
 194              		.loc 1 203 0
 195 006a 0092     		str	r2, [sp]
 196 006c DCE7     		b	.L2
 197              	.L18:
 302:../../../../../../Middlewares/Third_Party/LoRaWAN/Mac/region/RegionAS923.c ****             break;
 198              		.loc 1 302 0
 199 006e 2F4B     		ldr	r3, .L47+16
 200 0070 0093     		str	r3, [sp]
 303:../../../../../../Middlewares/Third_Party/LoRaWAN/Mac/region/RegionAS923.c ****         }
 201              		.loc 1 303 0
 202 0072 D9E7     		b	.L2
 203              	.L27:
 352:../../../../../../Middlewares/Third_Party/LoRaWAN/Mac/region/RegionAS923.c ****             break;
 204              		.loc 1 352 0
 205 0074 2E4B     		ldr	r3, .L47+20
 206 0076 0093     		str	r3, [sp]
 353:../../../../../../Middlewares/Third_Party/LoRaWAN/Mac/region/RegionAS923.c ****         }
 207              		.loc 1 353 0
 208 0078 D6E7     		b	.L2
 209              	.L17:
 292:../../../../../../Middlewares/Third_Party/LoRaWAN/Mac/region/RegionAS923.c ****             break;
 210              		.loc 1 292 0
 211 007a FA21     		movs	r1, #250
 212 007c 2D48     		ldr	r0, .L47+24
 213              	.LVL7:
 214 007e 8900     		lsls	r1, r1, #2
 215 0080 FFF7FEFF 		bl	randr
 216              	.LVL8:
 217 0084 FA23     		movs	r3, #250
 218 0086 DB00     		lsls	r3, r3, #3
 219 0088 9C46     		mov	ip, r3
 220 008a 6044     		add	r0, r0, ip
 221 008c 0090     		str	r0, [sp]
 293:../../../../../../Middlewares/Third_Party/LoRaWAN/Mac/region/RegionAS923.c ****         }
 222              		.loc 1 293 0
 223 008e CBE7     		b	.L2
ARM GAS  C:\Users\EBANO_~1\AppData\Local\Temp\cc2nkIni.s 			page 12


 224              	.LVL9:
 225              	.L16:
 287:../../../../../../Middlewares/Third_Party/LoRaWAN/Mac/region/RegionAS923.c ****             break;
 226              		.loc 1 287 0
 227 0090 8023     		movs	r3, #128
 228 0092 DB01     		lsls	r3, r3, #7
 229 0094 0093     		str	r3, [sp]
 288:../../../../../../Middlewares/Third_Party/LoRaWAN/Mac/region/RegionAS923.c ****         }
 230              		.loc 1 288 0
 231 0096 C7E7     		b	.L2
 232              	.L15:
 282:../../../../../../Middlewares/Third_Party/LoRaWAN/Mac/region/RegionAS923.c ****             break;
 233              		.loc 1 282 0
 234 0098 274B     		ldr	r3, .L47+28
 235 009a 0093     		str	r3, [sp]
 283:../../../../../../Middlewares/Third_Party/LoRaWAN/Mac/region/RegionAS923.c ****         }
 236              		.loc 1 283 0
 237 009c C4E7     		b	.L2
 238              	.L14:
 277:../../../../../../Middlewares/Third_Party/LoRaWAN/Mac/region/RegionAS923.c ****             break;
 239              		.loc 1 277 0
 240 009e 274B     		ldr	r3, .L47+32
 241 00a0 0093     		str	r3, [sp]
 278:../../../../../../Middlewares/Third_Party/LoRaWAN/Mac/region/RegionAS923.c ****         }
 242              		.loc 1 278 0
 243 00a2 C1E7     		b	.L2
 244              	.L13:
 272:../../../../../../Middlewares/Third_Party/LoRaWAN/Mac/region/RegionAS923.c ****             break;
 245              		.loc 1 272 0
 246 00a4 FA23     		movs	r3, #250
 247 00a6 DB00     		lsls	r3, r3, #3
 248 00a8 0093     		str	r3, [sp]
 273:../../../../../../Middlewares/Third_Party/LoRaWAN/Mac/region/RegionAS923.c ****         }
 249              		.loc 1 273 0
 250 00aa BDE7     		b	.L2
 251              	.L12:
 267:../../../../../../Middlewares/Third_Party/LoRaWAN/Mac/region/RegionAS923.c ****             break;
 252              		.loc 1 267 0
 253 00ac FA23     		movs	r3, #250
 254 00ae 9B00     		lsls	r3, r3, #2
 255 00b0 0093     		str	r3, [sp]
 268:../../../../../../Middlewares/Third_Party/LoRaWAN/Mac/region/RegionAS923.c ****         }
 256              		.loc 1 268 0
 257 00b2 B9E7     		b	.L2
 258              	.L11:
 262:../../../../../../Middlewares/Third_Party/LoRaWAN/Mac/region/RegionAS923.c ****             break;
 259              		.loc 1 262 0
 260 00b4 224B     		ldr	r3, .L47+36
 261 00b6 0093     		str	r3, [sp]
 263:../../../../../../Middlewares/Third_Party/LoRaWAN/Mac/region/RegionAS923.c ****         }
 262              		.loc 1 263 0
 263 00b8 B6E7     		b	.L2
 264              	.L28:
 357:../../../../../../Middlewares/Third_Party/LoRaWAN/Mac/region/RegionAS923.c ****             phyParam.BeaconFormat.Rfu1Size = AS923_RFU1_SIZE;
 265              		.loc 1 357 0
 266 00ba 6A46     		mov	r2, sp
 267 00bc 214B     		ldr	r3, .L47+40
ARM GAS  C:\Users\EBANO_~1\AppData\Local\Temp\cc2nkIni.s 			page 13


 268 00be 1380     		strh	r3, [r2]
 360:../../../../../../Middlewares/Third_Party/LoRaWAN/Mac/region/RegionAS923.c ****         }
 269              		.loc 1 360 0
 270 00c0 B2E7     		b	.L2
 271              	.L10:
 272 00c2 0122     		movs	r2, #1
 245:../../../../../../Middlewares/Third_Party/LoRaWAN/Mac/region/RegionAS923.c ****             {
 273              		.loc 1 245 0
 274 00c4 8378     		ldrb	r3, [r0, #2]
 275 00c6 8256     		ldrsb	r2, [r0, r2]
 276 00c8 002B     		cmp	r3, #0
 277 00ca 1CD1     		bne	.L35
 247:../../../../../../Middlewares/Third_Party/LoRaWAN/Mac/region/RegionAS923.c ****             }
 278              		.loc 1 247 0
 279 00cc 144B     		ldr	r3, .L47+4
 280 00ce 9A18     		adds	r2, r3, r2
 281 00d0 137C     		ldrb	r3, [r2, #16]
 282 00d2 0093     		str	r3, [sp]
 283 00d4 A8E7     		b	.L2
 284              	.L25:
 347:../../../../../../Middlewares/Third_Party/LoRaWAN/Mac/region/RegionAS923.c ****             break;
 285              		.loc 1 347 0
 286 00d6 1C4B     		ldr	r3, .L47+44
 287 00d8 0093     		str	r3, [sp]
 348:../../../../../../Middlewares/Third_Party/LoRaWAN/Mac/region/RegionAS923.c ****         }
 288              		.loc 1 348 0
 289 00da A5E7     		b	.L2
 290              	.L22:
 327:../../../../../../Middlewares/Third_Party/LoRaWAN/Mac/region/RegionAS923.c ****             break;
 291              		.loc 1 327 0
 292 00dc 1B4B     		ldr	r3, .L47+48
 293 00de 0093     		str	r3, [sp]
 328:../../../../../../Middlewares/Third_Party/LoRaWAN/Mac/region/RegionAS923.c ****         }
 294              		.loc 1 328 0
 295 00e0 A2E7     		b	.L2
 296              	.L24:
 342:../../../../../../Middlewares/Third_Party/LoRaWAN/Mac/region/RegionAS923.c ****             break;
 297              		.loc 1 342 0
 298 00e2 8323     		movs	r3, #131
 299 00e4 DB05     		lsls	r3, r3, #23
 300 00e6 0093     		str	r3, [sp]
 343:../../../../../../Middlewares/Third_Party/LoRaWAN/Mac/region/RegionAS923.c ****         }
 301              		.loc 1 343 0
 302 00e8 9EE7     		b	.L2
 303              	.L8:
 228:../../../../../../Middlewares/Third_Party/LoRaWAN/Mac/region/RegionAS923.c ****             break;
 304              		.loc 1 228 0
 305 00ea 2023     		movs	r3, #32
 306 00ec 0093     		str	r3, [sp]
 229:../../../../../../Middlewares/Third_Party/LoRaWAN/Mac/region/RegionAS923.c ****         }
 307              		.loc 1 229 0
 308 00ee 9BE7     		b	.L2
 309              	.L5:
 184:../../../../../../Middlewares/Third_Party/LoRaWAN/Mac/region/RegionAS923.c ****             {
 310              		.loc 1 184 0
 311 00f0 8378     		ldrb	r3, [r0, #2]
 312 00f2 002B     		cmp	r3, #0
ARM GAS  C:\Users\EBANO_~1\AppData\Local\Temp\cc2nkIni.s 			page 14


 313 00f4 98D0     		beq	.L2
 314              	.L37:
 315              	.LBB24:
 316              	.LBB25:
  73:../../../../../../Middlewares/Third_Party/LoRaWAN/Mac/region/RegionAS923.c ****     {
 317              		.loc 1 73 0
 318 00f6 0223     		movs	r3, #2
 319              	.LBE25:
 320              	.LBE24:
 364:../../../../../../Middlewares/Third_Party/LoRaWAN/Mac/region/RegionAS923.c ****             break;
 321              		.loc 1 364 0
 322 00f8 0093     		str	r3, [sp]
 323 00fa 95E7     		b	.L2
 324              	.L3:
 172:../../../../../../Middlewares/Third_Party/LoRaWAN/Mac/region/RegionAS923.c ****             {
 325              		.loc 1 172 0
 326 00fc C378     		ldrb	r3, [r0, #3]
 327 00fe 002B     		cmp	r3, #0
 328 0100 00D1     		bne	.LCB252
 329 0102 91E7     		b	.L2	@long jump
 330              	.LCB252:
 331 0104 F7E7     		b	.L37
 332              	.L35:
 251:../../../../../../Middlewares/Third_Party/LoRaWAN/Mac/region/RegionAS923.c ****             }
 333              		.loc 1 251 0
 334 0106 064B     		ldr	r3, .L47+4
 335 0108 9A18     		adds	r2, r3, r2
 336 010a 137A     		ldrb	r3, [r2, #8]
 337 010c 0093     		str	r3, [sp]
 338 010e 8BE7     		b	.L2
 339              	.L31:
 340              	.LVL10:
 341              	.LBB27:
 342              	.LBB26:
  73:../../../../../../Middlewares/Third_Party/LoRaWAN/Mac/region/RegionAS923.c ****     {
 343              		.loc 1 73 0
 344 0110 022B     		cmp	r3, #2
 345 0112 F0D0     		beq	.L37
 346              	.LVL11:
  79:../../../../../../Middlewares/Third_Party/LoRaWAN/Mac/region/RegionAS923.c ****     }
 347              		.loc 1 79 0
 348 0114 013B     		subs	r3, r3, #1
 349              	.LVL12:
 350 0116 5BB2     		sxtb	r3, r3
 351              	.LBE26:
 352              	.LBE27:
 364:../../../../../../Middlewares/Third_Party/LoRaWAN/Mac/region/RegionAS923.c ****             break;
 353              		.loc 1 364 0
 354 0118 0093     		str	r3, [sp]
 355              	.LVL13:
 356 011a 85E7     		b	.L2
 357              	.L48:
 358              		.align	2
 359              	.L47:
 360 011c 00000000 		.word	.L4
 361 0120 1C010000 		.word	.LANCHOR0
 362 0124 D2000000 		.word	NvmCtx+210
ARM GAS  C:\Users\EBANO_~1\AppData\Local\Temp\cc2nkIni.s 			page 15


 363 0128 D0000000 		.word	NvmCtx+208
 364 012c 00EA0637 		.word	923200000
 365 0130 40F70937 		.word	923400000
 366 0134 18FCFFFF 		.word	-1000
 367 0138 70170000 		.word	6000
 368 013c 88130000 		.word	5000
 369 0140 B80B0000 		.word	3000
 370 0144 11020000 		.word	529
 371 0148 9A990940 		.word	1074370970
 372 014c 00000000 		.word	NvmCtx
 373              		.cfi_endproc
 374              	.LFE44:
 375              		.size	RegionAS923GetPhyParam, .-RegionAS923GetPhyParam
 376              		.section	.text.RegionAS923SetBandTxDone,"ax",%progbits
 377              		.align	1
 378              		.p2align 2,,3
 379              		.global	RegionAS923SetBandTxDone
 380              		.syntax unified
 381              		.code	16
 382              		.thumb_func
 383              		.fpu softvfp
 384              		.type	RegionAS923SetBandTxDone, %function
 385              	RegionAS923SetBandTxDone:
 386              	.LFB45:
 380:../../../../../../Middlewares/Third_Party/LoRaWAN/Mac/region/RegionAS923.c **** 
 381:../../../../../../Middlewares/Third_Party/LoRaWAN/Mac/region/RegionAS923.c **** void RegionAS923SetBandTxDone( SetBandTxDoneParams_t* txDone )
 382:../../../../../../Middlewares/Third_Party/LoRaWAN/Mac/region/RegionAS923.c **** {
 387              		.loc 1 382 0
 388              		.cfi_startproc
 389              		@ args = 0, pretend = 0, frame = 0
 390              		@ frame_needed = 0, uses_anonymous_args = 0
 391              	.LVL14:
 383:../../../../../../Middlewares/Third_Party/LoRaWAN/Mac/region/RegionAS923.c ****     RegionCommonSetBandTxDone( txDone->Joined, &NvmCtx.Bands[NvmCtx.Channels[txDone->Channel].Band]
 392              		.loc 1 383 0
 393 0000 0178     		ldrb	r1, [r0]
 382:../../../../../../Middlewares/Third_Party/LoRaWAN/Mac/region/RegionAS923.c ****     RegionCommonSetBandTxDone( txDone->Joined, &NvmCtx.Bands[NvmCtx.Channels[txDone->Channel].Band]
 394              		.loc 1 382 0
 395 0002 10B5     		push	{r4, lr}
 396              	.LCFI2:
 397              		.cfi_def_cfa_offset 8
 398              		.cfi_offset 4, -8
 399              		.cfi_offset 14, -4
 400              		.loc 1 383 0
 401 0004 4B00     		lsls	r3, r1, #1
 402 0006 064C     		ldr	r4, .L50
 403 0008 5B18     		adds	r3, r3, r1
 404 000a 9B00     		lsls	r3, r3, #2
 405 000c E318     		adds	r3, r4, r3
 406 000e 597A     		ldrb	r1, [r3, #9]
 407 0010 4268     		ldr	r2, [r0, #4]
 408 0012 0C31     		adds	r1, r1, #12
 409 0014 0901     		lsls	r1, r1, #4
 410 0016 0919     		adds	r1, r1, r4
 411 0018 4078     		ldrb	r0, [r0, #1]
 412              	.LVL15:
 413 001a FFF7FEFF 		bl	RegionCommonSetBandTxDone
 414              	.LVL16:
ARM GAS  C:\Users\EBANO_~1\AppData\Local\Temp\cc2nkIni.s 			page 16


 384:../../../../../../Middlewares/Third_Party/LoRaWAN/Mac/region/RegionAS923.c **** }
 415              		.loc 1 384 0
 416              		@ sp needed
 417 001e 10BD     		pop	{r4, pc}
 418              	.L51:
 419              		.align	2
 420              	.L50:
 421 0020 00000000 		.word	NvmCtx
 422              		.cfi_endproc
 423              	.LFE45:
 424              		.size	RegionAS923SetBandTxDone, .-RegionAS923SetBandTxDone
 425              		.section	.text.RegionAS923InitDefaults,"ax",%progbits
 426              		.align	1
 427              		.p2align 2,,3
 428              		.global	RegionAS923InitDefaults
 429              		.syntax unified
 430              		.code	16
 431              		.thumb_func
 432              		.fpu softvfp
 433              		.type	RegionAS923InitDefaults, %function
 434              	RegionAS923InitDefaults:
 435              	.LFB46:
 385:../../../../../../Middlewares/Third_Party/LoRaWAN/Mac/region/RegionAS923.c **** 
 386:../../../../../../Middlewares/Third_Party/LoRaWAN/Mac/region/RegionAS923.c **** void RegionAS923InitDefaults( InitDefaultsParams_t* params )
 387:../../../../../../Middlewares/Third_Party/LoRaWAN/Mac/region/RegionAS923.c **** {
 436              		.loc 1 387 0
 437              		.cfi_startproc
 438              		@ args = 0, pretend = 0, frame = 16
 439              		@ frame_needed = 0, uses_anonymous_args = 0
 440              	.LVL17:
 441 0000 F0B5     		push	{r4, r5, r6, r7, lr}
 442              	.LCFI3:
 443              		.cfi_def_cfa_offset 20
 444              		.cfi_offset 4, -20
 445              		.cfi_offset 5, -16
 446              		.cfi_offset 6, -12
 447              		.cfi_offset 7, -8
 448              		.cfi_offset 14, -4
 449 0002 85B0     		sub	sp, sp, #20
 450              	.LCFI4:
 451              		.cfi_def_cfa_offset 40
 388:../../../../../../Middlewares/Third_Party/LoRaWAN/Mac/region/RegionAS923.c ****     Band_t bands[AS923_MAX_NB_BANDS] =
 452              		.loc 1 388 0
 453 0004 6423     		movs	r3, #100
 454 0006 6A46     		mov	r2, sp
 455 0008 1380     		strh	r3, [r2]
 456 000a 0023     		movs	r3, #0
 457 000c 9370     		strb	r3, [r2, #2]
 458 000e 0193     		str	r3, [sp, #4]
 459 0010 0293     		str	r3, [sp, #8]
 460 0012 0393     		str	r3, [sp, #12]
 389:../../../../../../Middlewares/Third_Party/LoRaWAN/Mac/region/RegionAS923.c ****     {
 390:../../../../../../Middlewares/Third_Party/LoRaWAN/Mac/region/RegionAS923.c ****         AS923_BAND0
 391:../../../../../../Middlewares/Third_Party/LoRaWAN/Mac/region/RegionAS923.c ****     };
 392:../../../../../../Middlewares/Third_Party/LoRaWAN/Mac/region/RegionAS923.c **** 
 393:../../../../../../Middlewares/Third_Party/LoRaWAN/Mac/region/RegionAS923.c ****     switch( params->Type )
 461              		.loc 1 393 0
ARM GAS  C:\Users\EBANO_~1\AppData\Local\Temp\cc2nkIni.s 			page 17


 462 0014 0379     		ldrb	r3, [r0, #4]
 463 0016 012B     		cmp	r3, #1
 464 0018 28D0     		beq	.L54
 465 001a 002B     		cmp	r3, #0
 466 001c 0AD0     		beq	.L55
 467 001e 022B     		cmp	r3, #2
 468 0020 06D1     		bne	.L52
 394:../../../../../../Middlewares/Third_Party/LoRaWAN/Mac/region/RegionAS923.c ****     {
 395:../../../../../../Middlewares/Third_Party/LoRaWAN/Mac/region/RegionAS923.c ****         case INIT_TYPE_INIT:
 396:../../../../../../Middlewares/Third_Party/LoRaWAN/Mac/region/RegionAS923.c ****         {
 397:../../../../../../Middlewares/Third_Party/LoRaWAN/Mac/region/RegionAS923.c ****             // Initialize bands
 398:../../../../../../Middlewares/Third_Party/LoRaWAN/Mac/region/RegionAS923.c ****             memcpy1( ( uint8_t* )NvmCtx.Bands, ( uint8_t* )bands, sizeof( Band_t ) * AS923_MAX_NB_B
 399:../../../../../../Middlewares/Third_Party/LoRaWAN/Mac/region/RegionAS923.c **** 
 400:../../../../../../Middlewares/Third_Party/LoRaWAN/Mac/region/RegionAS923.c ****             // Channels
 401:../../../../../../Middlewares/Third_Party/LoRaWAN/Mac/region/RegionAS923.c ****             NvmCtx.Channels[0] = ( ChannelParams_t ) AS923_LC1;
 402:../../../../../../Middlewares/Third_Party/LoRaWAN/Mac/region/RegionAS923.c ****             NvmCtx.Channels[1] = ( ChannelParams_t ) AS923_LC2;
 403:../../../../../../Middlewares/Third_Party/LoRaWAN/Mac/region/RegionAS923.c **** 
 404:../../../../../../Middlewares/Third_Party/LoRaWAN/Mac/region/RegionAS923.c ****             // Initialize the channels default mask
 405:../../../../../../Middlewares/Third_Party/LoRaWAN/Mac/region/RegionAS923.c ****             NvmCtx.ChannelsDefaultMask[0] = LC( 1 ) + LC( 2 );
 406:../../../../../../Middlewares/Third_Party/LoRaWAN/Mac/region/RegionAS923.c ****             // Update the channels mask
 407:../../../../../../Middlewares/Third_Party/LoRaWAN/Mac/region/RegionAS923.c ****             RegionCommonChanMaskCopy( NvmCtx.ChannelsMask, NvmCtx.ChannelsDefaultMask, 1 );
 408:../../../../../../Middlewares/Third_Party/LoRaWAN/Mac/region/RegionAS923.c ****             break;
 409:../../../../../../Middlewares/Third_Party/LoRaWAN/Mac/region/RegionAS923.c ****         }
 410:../../../../../../Middlewares/Third_Party/LoRaWAN/Mac/region/RegionAS923.c ****         case INIT_TYPE_RESTORE_CTX:
 411:../../../../../../Middlewares/Third_Party/LoRaWAN/Mac/region/RegionAS923.c ****         {
 412:../../../../../../Middlewares/Third_Party/LoRaWAN/Mac/region/RegionAS923.c ****             if( params->NvmCtx != 0 )
 469              		.loc 1 412 0
 470 0022 0168     		ldr	r1, [r0]
 471 0024 0029     		cmp	r1, #0
 472 0026 03D0     		beq	.L52
 413:../../../../../../Middlewares/Third_Party/LoRaWAN/Mac/region/RegionAS923.c ****             {
 414:../../../../../../Middlewares/Third_Party/LoRaWAN/Mac/region/RegionAS923.c ****                 memcpy1( (uint8_t*) &NvmCtx, (uint8_t*) params->NvmCtx, sizeof( NvmCtx ) );
 473              		.loc 1 414 0
 474 0028 D422     		movs	r2, #212
 475 002a 1448     		ldr	r0, .L60
 476              	.LVL18:
 477 002c FFF7FEFF 		bl	memcpy1
 478              	.LVL19:
 479              	.L52:
 415:../../../../../../Middlewares/Third_Party/LoRaWAN/Mac/region/RegionAS923.c ****             }
 416:../../../../../../Middlewares/Third_Party/LoRaWAN/Mac/region/RegionAS923.c ****             break;
 417:../../../../../../Middlewares/Third_Party/LoRaWAN/Mac/region/RegionAS923.c ****         }
 418:../../../../../../Middlewares/Third_Party/LoRaWAN/Mac/region/RegionAS923.c ****         case INIT_TYPE_RESTORE_DEFAULT_CHANNELS:
 419:../../../../../../Middlewares/Third_Party/LoRaWAN/Mac/region/RegionAS923.c ****         {
 420:../../../../../../Middlewares/Third_Party/LoRaWAN/Mac/region/RegionAS923.c ****             // Restore channels default mask
 421:../../../../../../Middlewares/Third_Party/LoRaWAN/Mac/region/RegionAS923.c ****             NvmCtx.ChannelsMask[0] |= NvmCtx.ChannelsDefaultMask[0];
 422:../../../../../../Middlewares/Third_Party/LoRaWAN/Mac/region/RegionAS923.c ****             break;
 423:../../../../../../Middlewares/Third_Party/LoRaWAN/Mac/region/RegionAS923.c ****         }
 424:../../../../../../Middlewares/Third_Party/LoRaWAN/Mac/region/RegionAS923.c ****         default:
 425:../../../../../../Middlewares/Third_Party/LoRaWAN/Mac/region/RegionAS923.c ****         {
 426:../../../../../../Middlewares/Third_Party/LoRaWAN/Mac/region/RegionAS923.c ****             break;
 427:../../../../../../Middlewares/Third_Party/LoRaWAN/Mac/region/RegionAS923.c ****         }
 428:../../../../../../Middlewares/Third_Party/LoRaWAN/Mac/region/RegionAS923.c ****     }
 429:../../../../../../Middlewares/Third_Party/LoRaWAN/Mac/region/RegionAS923.c **** }
 480              		.loc 1 429 0
 481 0030 05B0     		add	sp, sp, #20
 482              		@ sp needed
ARM GAS  C:\Users\EBANO_~1\AppData\Local\Temp\cc2nkIni.s 			page 18


 483 0032 F0BD     		pop	{r4, r5, r6, r7, pc}
 484              	.LVL20:
 485              	.L55:
 398:../../../../../../Middlewares/Third_Party/LoRaWAN/Mac/region/RegionAS923.c **** 
 486              		.loc 1 398 0
 487 0034 124C     		ldr	r4, .L60+4
 488 0036 6946     		mov	r1, sp
 489 0038 2000     		movs	r0, r4
 490              	.LVL21:
 491 003a 1022     		movs	r2, #16
 492 003c FFF7FEFF 		bl	memcpy1
 493              	.LVL22:
 401:../../../../../../Middlewares/Third_Party/LoRaWAN/Mac/region/RegionAS923.c ****             NvmCtx.Channels[1] = ( ChannelParams_t ) AS923_LC2;
 494              		.loc 1 401 0
 495 0040 2200     		movs	r2, r4
 496 0042 104B     		ldr	r3, .L60+8
 497 0044 C03A     		subs	r2, r2, #192
 498 0046 1900     		movs	r1, r3
 499 0048 1000     		movs	r0, r2
 500 004a 1831     		adds	r1, r1, #24
 501 004c E0C9     		ldmia	r1!, {r5, r6, r7}
 502 004e E0C0     		stmia	r0!, {r5, r6, r7}
 402:../../../../../../Middlewares/Third_Party/LoRaWAN/Mac/region/RegionAS923.c **** 
 503              		.loc 1 402 0
 504 0050 2433     		adds	r3, r3, #36
 505 0052 62CB     		ldmia	r3!, {r1, r5, r6}
 506 0054 62C0     		stmia	r0!, {r1, r5, r6}
 405:../../../../../../Middlewares/Third_Party/LoRaWAN/Mac/region/RegionAS923.c ****             // Update the channels mask
 507              		.loc 1 405 0
 508 0056 D223     		movs	r3, #210
 509 0058 0321     		movs	r1, #3
 407:../../../../../../Middlewares/Third_Party/LoRaWAN/Mac/region/RegionAS923.c ****             break;
 510              		.loc 1 407 0
 511 005a 2000     		movs	r0, r4
 405:../../../../../../Middlewares/Third_Party/LoRaWAN/Mac/region/RegionAS923.c ****             // Update the channels mask
 512              		.loc 1 405 0
 513 005c D152     		strh	r1, [r2, r3]
 407:../../../../../../Middlewares/Third_Party/LoRaWAN/Mac/region/RegionAS923.c ****             break;
 514              		.loc 1 407 0
 515 005e 2100     		movs	r1, r4
 516 0060 1030     		adds	r0, r0, #16
 517 0062 1231     		adds	r1, r1, #18
 518 0064 0122     		movs	r2, #1
 519 0066 FFF7FEFF 		bl	RegionCommonChanMaskCopy
 520              	.LVL23:
 408:../../../../../../Middlewares/Third_Party/LoRaWAN/Mac/region/RegionAS923.c ****         }
 521              		.loc 1 408 0
 522 006a E1E7     		b	.L52
 523              	.LVL24:
 524              	.L54:
 421:../../../../../../Middlewares/Third_Party/LoRaWAN/Mac/region/RegionAS923.c ****             break;
 525              		.loc 1 421 0
 526 006c D021     		movs	r1, #208
 527 006e D220     		movs	r0, #210
 528              	.LVL25:
 529 0070 024B     		ldr	r3, .L60
 530 0072 5A5A     		ldrh	r2, [r3, r1]
ARM GAS  C:\Users\EBANO_~1\AppData\Local\Temp\cc2nkIni.s 			page 19


 531 0074 185A     		ldrh	r0, [r3, r0]
 532 0076 0243     		orrs	r2, r0
 533 0078 5A52     		strh	r2, [r3, r1]
 534              		.loc 1 429 0
 535 007a D9E7     		b	.L52
 536              	.L61:
 537              		.align	2
 538              	.L60:
 539 007c 00000000 		.word	NvmCtx
 540 0080 C0000000 		.word	NvmCtx+192
 541 0084 1C010000 		.word	.LANCHOR0
 542              		.cfi_endproc
 543              	.LFE46:
 544              		.size	RegionAS923InitDefaults, .-RegionAS923InitDefaults
 545              		.section	.text.RegionAS923GetNvmCtx,"ax",%progbits
 546              		.align	1
 547              		.p2align 2,,3
 548              		.global	RegionAS923GetNvmCtx
 549              		.syntax unified
 550              		.code	16
 551              		.thumb_func
 552              		.fpu softvfp
 553              		.type	RegionAS923GetNvmCtx, %function
 554              	RegionAS923GetNvmCtx:
 555              	.LFB47:
 430:../../../../../../Middlewares/Third_Party/LoRaWAN/Mac/region/RegionAS923.c **** 
 431:../../../../../../Middlewares/Third_Party/LoRaWAN/Mac/region/RegionAS923.c **** void* RegionAS923GetNvmCtx( GetNvmCtxParams_t* params )
 432:../../../../../../Middlewares/Third_Party/LoRaWAN/Mac/region/RegionAS923.c **** {
 556              		.loc 1 432 0
 557              		.cfi_startproc
 558              		@ args = 0, pretend = 0, frame = 0
 559              		@ frame_needed = 0, uses_anonymous_args = 0
 560              		@ link register save eliminated.
 561              	.LVL26:
 433:../../../../../../Middlewares/Third_Party/LoRaWAN/Mac/region/RegionAS923.c ****     params->nvmCtxSize = sizeof( RegionAS923NvmCtx_t );
 562              		.loc 1 433 0
 563 0000 D423     		movs	r3, #212
 434:../../../../../../Middlewares/Third_Party/LoRaWAN/Mac/region/RegionAS923.c ****     return &NvmCtx;
 435:../../../../../../Middlewares/Third_Party/LoRaWAN/Mac/region/RegionAS923.c **** }
 564              		.loc 1 435 0
 565              		@ sp needed
 433:../../../../../../Middlewares/Third_Party/LoRaWAN/Mac/region/RegionAS923.c ****     params->nvmCtxSize = sizeof( RegionAS923NvmCtx_t );
 566              		.loc 1 433 0
 567 0002 0360     		str	r3, [r0]
 568              		.loc 1 435 0
 569 0004 0048     		ldr	r0, .L63
 570              	.LVL27:
 571 0006 7047     		bx	lr
 572              	.L64:
 573              		.align	2
 574              	.L63:
 575 0008 00000000 		.word	NvmCtx
 576              		.cfi_endproc
 577              	.LFE47:
 578              		.size	RegionAS923GetNvmCtx, .-RegionAS923GetNvmCtx
 579              		.section	.text.RegionAS923Verify,"ax",%progbits
 580              		.align	1
ARM GAS  C:\Users\EBANO_~1\AppData\Local\Temp\cc2nkIni.s 			page 20


 581              		.p2align 2,,3
 582              		.global	RegionAS923Verify
 583              		.syntax unified
 584              		.code	16
 585              		.thumb_func
 586              		.fpu softvfp
 587              		.type	RegionAS923Verify, %function
 588              	RegionAS923Verify:
 589              	.LFB48:
 436:../../../../../../Middlewares/Third_Party/LoRaWAN/Mac/region/RegionAS923.c **** 
 437:../../../../../../Middlewares/Third_Party/LoRaWAN/Mac/region/RegionAS923.c **** bool RegionAS923Verify( VerifyParams_t* verify, PhyAttribute_t phyAttribute )
 438:../../../../../../Middlewares/Third_Party/LoRaWAN/Mac/region/RegionAS923.c **** {
 590              		.loc 1 438 0
 591              		.cfi_startproc
 592              		@ args = 0, pretend = 0, frame = 0
 593              		@ frame_needed = 0, uses_anonymous_args = 0
 594              	.LVL28:
 439:../../../../../../Middlewares/Third_Party/LoRaWAN/Mac/region/RegionAS923.c ****     switch( phyAttribute )
 595              		.loc 1 439 0
 596 0000 0439     		subs	r1, r1, #4
 597              	.LVL29:
 598 0002 C9B2     		uxtb	r1, r1
 438:../../../../../../Middlewares/Third_Party/LoRaWAN/Mac/region/RegionAS923.c ****     switch( phyAttribute )
 599              		.loc 1 438 0
 600 0004 10B5     		push	{r4, lr}
 601              	.LCFI5:
 602              		.cfi_def_cfa_offset 8
 603              		.cfi_offset 4, -8
 604              		.cfi_offset 14, -4
 605              		.loc 1 439 0
 606 0006 0529     		cmp	r1, #5
 607 0008 33D8     		bhi	.L74
 608 000a 1B4B     		ldr	r3, .L76
 609 000c 8900     		lsls	r1, r1, #2
 610 000e 5B58     		ldr	r3, [r3, r1]
 611 0010 9F46     		mov	pc, r3
 612              		.section	.rodata
 613              		.align	2
 614              	.L68:
 615 00d4 56000000 		.word	.L67
 616 00d8 42000000 		.word	.L69
 617 00dc 26000000 		.word	.L70
 618 00e0 72000000 		.word	.L74
 619 00e4 12000000 		.word	.L71
 620 00e8 12000000 		.word	.L71
 621              		.section	.text.RegionAS923Verify
 622              	.L71:
 440:../../../../../../Middlewares/Third_Party/LoRaWAN/Mac/region/RegionAS923.c ****     {
 441:../../../../../../Middlewares/Third_Party/LoRaWAN/Mac/region/RegionAS923.c ****         case PHY_TX_DR:
 442:../../../../../../Middlewares/Third_Party/LoRaWAN/Mac/region/RegionAS923.c ****         {
 443:../../../../../../Middlewares/Third_Party/LoRaWAN/Mac/region/RegionAS923.c ****             if( verify->DatarateParams.UplinkDwellTime == 0 )
 444:../../../../../../Middlewares/Third_Party/LoRaWAN/Mac/region/RegionAS923.c ****             {
 445:../../../../../../Middlewares/Third_Party/LoRaWAN/Mac/region/RegionAS923.c ****                 return RegionCommonValueInRange( verify->DatarateParams.Datarate, AS923_TX_MIN_DATA
 446:../../../../../../Middlewares/Third_Party/LoRaWAN/Mac/region/RegionAS923.c ****             }
 447:../../../../../../Middlewares/Third_Party/LoRaWAN/Mac/region/RegionAS923.c ****             else
 448:../../../../../../Middlewares/Third_Party/LoRaWAN/Mac/region/RegionAS923.c ****             {
 449:../../../../../../Middlewares/Third_Party/LoRaWAN/Mac/region/RegionAS923.c ****                 return RegionCommonValueInRange( verify->DatarateParams.Datarate, AS923_DWELL_LIMIT
ARM GAS  C:\Users\EBANO_~1\AppData\Local\Temp\cc2nkIni.s 			page 21


 450:../../../../../../Middlewares/Third_Party/LoRaWAN/Mac/region/RegionAS923.c ****             }
 451:../../../../../../Middlewares/Third_Party/LoRaWAN/Mac/region/RegionAS923.c ****         }
 452:../../../../../../Middlewares/Third_Party/LoRaWAN/Mac/region/RegionAS923.c ****         case PHY_DEF_TX_DR:
 453:../../../../../../Middlewares/Third_Party/LoRaWAN/Mac/region/RegionAS923.c ****         {
 454:../../../../../../Middlewares/Third_Party/LoRaWAN/Mac/region/RegionAS923.c ****             return RegionCommonValueInRange( verify->DatarateParams.Datarate, DR_0, DR_5 );
 455:../../../../../../Middlewares/Third_Party/LoRaWAN/Mac/region/RegionAS923.c ****         }
 456:../../../../../../Middlewares/Third_Party/LoRaWAN/Mac/region/RegionAS923.c ****         case PHY_RX_DR:
 457:../../../../../../Middlewares/Third_Party/LoRaWAN/Mac/region/RegionAS923.c ****         {
 458:../../../../../../Middlewares/Third_Party/LoRaWAN/Mac/region/RegionAS923.c ****             if( verify->DatarateParams.DownlinkDwellTime == 0 )
 459:../../../../../../Middlewares/Third_Party/LoRaWAN/Mac/region/RegionAS923.c ****             {
 460:../../../../../../Middlewares/Third_Party/LoRaWAN/Mac/region/RegionAS923.c ****                 return RegionCommonValueInRange( verify->DatarateParams.Datarate, AS923_RX_MIN_DATA
 461:../../../../../../Middlewares/Third_Party/LoRaWAN/Mac/region/RegionAS923.c ****             }
 462:../../../../../../Middlewares/Third_Party/LoRaWAN/Mac/region/RegionAS923.c ****             else
 463:../../../../../../Middlewares/Third_Party/LoRaWAN/Mac/region/RegionAS923.c ****             {
 464:../../../../../../Middlewares/Third_Party/LoRaWAN/Mac/region/RegionAS923.c ****                 return RegionCommonValueInRange( verify->DatarateParams.Datarate, AS923_DWELL_LIMIT
 465:../../../../../../Middlewares/Third_Party/LoRaWAN/Mac/region/RegionAS923.c ****             }
 466:../../../../../../Middlewares/Third_Party/LoRaWAN/Mac/region/RegionAS923.c ****         }
 467:../../../../../../Middlewares/Third_Party/LoRaWAN/Mac/region/RegionAS923.c ****         case PHY_DEF_TX_POWER:
 468:../../../../../../Middlewares/Third_Party/LoRaWAN/Mac/region/RegionAS923.c ****         case PHY_TX_POWER:
 469:../../../../../../Middlewares/Third_Party/LoRaWAN/Mac/region/RegionAS923.c ****         {
 470:../../../../../../Middlewares/Third_Party/LoRaWAN/Mac/region/RegionAS923.c ****             // Remark: switched min and max!
 471:../../../../../../Middlewares/Third_Party/LoRaWAN/Mac/region/RegionAS923.c ****             return RegionCommonValueInRange( verify->TxPower, AS923_MAX_TX_POWER, AS923_MIN_TX_POWE
 623              		.loc 1 471 0
 624 0012 0078     		ldrb	r0, [r0]
 625              	.LVL30:
 626 0014 0722     		movs	r2, #7
 627 0016 40B2     		sxtb	r0, r0
 628 0018 0021     		movs	r1, #0
 629 001a FFF7FEFF 		bl	RegionCommonValueInRange
 630              	.LVL31:
 631 001e 431E     		subs	r3, r0, #1
 632 0020 9841     		sbcs	r0, r0, r3
 633 0022 C0B2     		uxtb	r0, r0
 634              	.L66:
 472:../../../../../../Middlewares/Third_Party/LoRaWAN/Mac/region/RegionAS923.c ****         }
 473:../../../../../../Middlewares/Third_Party/LoRaWAN/Mac/region/RegionAS923.c ****         case PHY_DUTY_CYCLE:
 474:../../../../../../Middlewares/Third_Party/LoRaWAN/Mac/region/RegionAS923.c ****         {
 475:../../../../../../Middlewares/Third_Party/LoRaWAN/Mac/region/RegionAS923.c ****             return AS923_DUTY_CYCLE_ENABLED;
 476:../../../../../../Middlewares/Third_Party/LoRaWAN/Mac/region/RegionAS923.c ****         }
 477:../../../../../../Middlewares/Third_Party/LoRaWAN/Mac/region/RegionAS923.c ****         default:
 478:../../../../../../Middlewares/Third_Party/LoRaWAN/Mac/region/RegionAS923.c ****             return false;
 479:../../../../../../Middlewares/Third_Party/LoRaWAN/Mac/region/RegionAS923.c ****     }
 480:../../../../../../Middlewares/Third_Party/LoRaWAN/Mac/region/RegionAS923.c **** }
 635              		.loc 1 480 0
 636              		@ sp needed
 637 0024 10BD     		pop	{r4, pc}
 638              	.LVL32:
 639              	.L70:
 640 0026 0023     		movs	r3, #0
 458:../../../../../../Middlewares/Third_Party/LoRaWAN/Mac/region/RegionAS923.c ****             {
 641              		.loc 1 458 0
 642 0028 4278     		ldrb	r2, [r0, #1]
 643 002a C356     		ldrsb	r3, [r0, r3]
 644 002c 002A     		cmp	r2, #0
 645 002e 17D1     		bne	.L73
 646              	.L75:
 460:../../../../../../Middlewares/Third_Party/LoRaWAN/Mac/region/RegionAS923.c ****             }
ARM GAS  C:\Users\EBANO_~1\AppData\Local\Temp\cc2nkIni.s 			page 22


 647              		.loc 1 460 0
 648 0030 1800     		movs	r0, r3
 649              	.LVL33:
 650 0032 0732     		adds	r2, r2, #7
 651 0034 0021     		movs	r1, #0
 652 0036 FFF7FEFF 		bl	RegionCommonValueInRange
 653              	.LVL34:
 654 003a 431E     		subs	r3, r0, #1
 655 003c 9841     		sbcs	r0, r0, r3
 656 003e C0B2     		uxtb	r0, r0
 657 0040 F0E7     		b	.L66
 658              	.LVL35:
 659              	.L69:
 454:../../../../../../Middlewares/Third_Party/LoRaWAN/Mac/region/RegionAS923.c ****         }
 660              		.loc 1 454 0
 661 0042 0078     		ldrb	r0, [r0]
 662              	.LVL36:
 663 0044 0522     		movs	r2, #5
 664 0046 40B2     		sxtb	r0, r0
 665 0048 0021     		movs	r1, #0
 666 004a FFF7FEFF 		bl	RegionCommonValueInRange
 667              	.LVL37:
 668 004e 431E     		subs	r3, r0, #1
 669 0050 9841     		sbcs	r0, r0, r3
 670 0052 C0B2     		uxtb	r0, r0
 671 0054 E6E7     		b	.L66
 672              	.LVL38:
 673              	.L67:
 674 0056 0023     		movs	r3, #0
 443:../../../../../../Middlewares/Third_Party/LoRaWAN/Mac/region/RegionAS923.c ****             {
 675              		.loc 1 443 0
 676 0058 8278     		ldrb	r2, [r0, #2]
 677 005a C356     		ldrsb	r3, [r0, r3]
 678 005c 002A     		cmp	r2, #0
 679 005e E7D0     		beq	.L75
 680              	.L73:
 464:../../../../../../Middlewares/Third_Party/LoRaWAN/Mac/region/RegionAS923.c ****             }
 681              		.loc 1 464 0
 682 0060 1800     		movs	r0, r3
 683              	.LVL39:
 684 0062 0722     		movs	r2, #7
 685 0064 0221     		movs	r1, #2
 686 0066 FFF7FEFF 		bl	RegionCommonValueInRange
 687              	.LVL40:
 688 006a 431E     		subs	r3, r0, #1
 689 006c 9841     		sbcs	r0, r0, r3
 690 006e C0B2     		uxtb	r0, r0
 691 0070 D8E7     		b	.L66
 692              	.LVL41:
 693              	.L74:
 475:../../../../../../Middlewares/Third_Party/LoRaWAN/Mac/region/RegionAS923.c ****         }
 694              		.loc 1 475 0
 695 0072 0020     		movs	r0, #0
 696              	.LVL42:
 697 0074 D6E7     		b	.L66
 698              	.L77:
 699 0076 C046     		.align	2
ARM GAS  C:\Users\EBANO_~1\AppData\Local\Temp\cc2nkIni.s 			page 23


 700              	.L76:
 701 0078 D4000000 		.word	.L68
 702              		.cfi_endproc
 703              	.LFE48:
 704              		.size	RegionAS923Verify, .-RegionAS923Verify
 705              		.section	.text.RegionAS923ApplyCFList,"ax",%progbits
 706              		.align	1
 707              		.p2align 2,,3
 708              		.global	RegionAS923ApplyCFList
 709              		.syntax unified
 710              		.code	16
 711              		.thumb_func
 712              		.fpu softvfp
 713              		.type	RegionAS923ApplyCFList, %function
 714              	RegionAS923ApplyCFList:
 715              	.LFB49:
 481:../../../../../../Middlewares/Third_Party/LoRaWAN/Mac/region/RegionAS923.c **** 
 482:../../../../../../Middlewares/Third_Party/LoRaWAN/Mac/region/RegionAS923.c **** void RegionAS923ApplyCFList( ApplyCFListParams_t* applyCFList )
 483:../../../../../../Middlewares/Third_Party/LoRaWAN/Mac/region/RegionAS923.c **** {
 716              		.loc 1 483 0
 717              		.cfi_startproc
 718              		@ args = 0, pretend = 0, frame = 24
 719              		@ frame_needed = 0, uses_anonymous_args = 0
 720              	.LVL43:
 721 0000 F0B5     		push	{r4, r5, r6, r7, lr}
 722              	.LCFI6:
 723              		.cfi_def_cfa_offset 20
 724              		.cfi_offset 4, -20
 725              		.cfi_offset 5, -16
 726              		.cfi_offset 6, -12
 727              		.cfi_offset 7, -8
 728              		.cfi_offset 14, -4
 729 0002 5746     		mov	r7, r10
 730 0004 4546     		mov	r5, r8
 731 0006 DE46     		mov	lr, fp
 732 0008 4E46     		mov	r6, r9
 484:../../../../../../Middlewares/Third_Party/LoRaWAN/Mac/region/RegionAS923.c ****     ChannelParams_t newChannel;
 485:../../../../../../Middlewares/Third_Party/LoRaWAN/Mac/region/RegionAS923.c ****     ChannelAddParams_t channelAdd;
 486:../../../../../../Middlewares/Third_Party/LoRaWAN/Mac/region/RegionAS923.c ****     ChannelRemoveParams_t channelRemove;
 487:../../../../../../Middlewares/Third_Party/LoRaWAN/Mac/region/RegionAS923.c **** 
 488:../../../../../../Middlewares/Third_Party/LoRaWAN/Mac/region/RegionAS923.c ****     // Setup default datarate range
 489:../../../../../../Middlewares/Third_Party/LoRaWAN/Mac/region/RegionAS923.c ****     newChannel.DrRange.Value = ( DR_5 << 4 ) | DR_0;
 733              		.loc 1 489 0
 734 000a 5023     		movs	r3, #80
 483:../../../../../../Middlewares/Third_Party/LoRaWAN/Mac/region/RegionAS923.c ****     ChannelParams_t newChannel;
 735              		.loc 1 483 0
 736 000c E0B5     		push	{r5, r6, r7, lr}
 737              	.LCFI7:
 738              		.cfi_def_cfa_offset 36
 739              		.cfi_offset 8, -36
 740              		.cfi_offset 9, -32
 741              		.cfi_offset 10, -28
 742              		.cfi_offset 11, -24
 743 000e 87B0     		sub	sp, sp, #28
 744              	.LCFI8:
 745              		.cfi_def_cfa_offset 64
 746              		.loc 1 489 0
ARM GAS  C:\Users\EBANO_~1\AppData\Local\Temp\cc2nkIni.s 			page 24


 747 0010 03AD     		add	r5, sp, #12
 748 0012 2B72     		strb	r3, [r5, #8]
 490:../../../../../../Middlewares/Third_Party/LoRaWAN/Mac/region/RegionAS923.c **** 
 491:../../../../../../Middlewares/Third_Party/LoRaWAN/Mac/region/RegionAS923.c ****     // Size of the optional CF list
 492:../../../../../../Middlewares/Third_Party/LoRaWAN/Mac/region/RegionAS923.c ****     if( applyCFList->Size != 16 )
 749              		.loc 1 492 0
 750 0014 0379     		ldrb	r3, [r0, #4]
 483:../../../../../../Middlewares/Third_Party/LoRaWAN/Mac/region/RegionAS923.c ****     ChannelParams_t newChannel;
 751              		.loc 1 483 0
 752 0016 0700     		movs	r7, r0
 753              		.loc 1 492 0
 754 0018 102B     		cmp	r3, #16
 755 001a 06D0     		beq	.L95
 756              	.LVL44:
 757              	.L78:
 493:../../../../../../Middlewares/Third_Party/LoRaWAN/Mac/region/RegionAS923.c ****     {
 494:../../../../../../Middlewares/Third_Party/LoRaWAN/Mac/region/RegionAS923.c ****         return;
 495:../../../../../../Middlewares/Third_Party/LoRaWAN/Mac/region/RegionAS923.c ****     }
 496:../../../../../../Middlewares/Third_Party/LoRaWAN/Mac/region/RegionAS923.c **** 
 497:../../../../../../Middlewares/Third_Party/LoRaWAN/Mac/region/RegionAS923.c ****     // Last byte CFListType must be 0 to indicate the CFList contains a list of frequencies
 498:../../../../../../Middlewares/Third_Party/LoRaWAN/Mac/region/RegionAS923.c ****     if( applyCFList->Payload[15] != 0 )
 499:../../../../../../Middlewares/Third_Party/LoRaWAN/Mac/region/RegionAS923.c ****     {
 500:../../../../../../Middlewares/Third_Party/LoRaWAN/Mac/region/RegionAS923.c ****         return;
 501:../../../../../../Middlewares/Third_Party/LoRaWAN/Mac/region/RegionAS923.c ****     }
 502:../../../../../../Middlewares/Third_Party/LoRaWAN/Mac/region/RegionAS923.c **** 
 503:../../../../../../Middlewares/Third_Party/LoRaWAN/Mac/region/RegionAS923.c ****     // Last byte is RFU, don't take it into account
 504:../../../../../../Middlewares/Third_Party/LoRaWAN/Mac/region/RegionAS923.c ****     for( uint8_t i = 0, chanIdx = AS923_NUMB_DEFAULT_CHANNELS; chanIdx < AS923_MAX_NB_CHANNELS; i+=
 505:../../../../../../Middlewares/Third_Party/LoRaWAN/Mac/region/RegionAS923.c ****     {
 506:../../../../../../Middlewares/Third_Party/LoRaWAN/Mac/region/RegionAS923.c ****         if( chanIdx < ( AS923_NUMB_CHANNELS_CF_LIST + AS923_NUMB_DEFAULT_CHANNELS ) )
 507:../../../../../../Middlewares/Third_Party/LoRaWAN/Mac/region/RegionAS923.c ****         {
 508:../../../../../../Middlewares/Third_Party/LoRaWAN/Mac/region/RegionAS923.c ****             // Channel frequency
 509:../../../../../../Middlewares/Third_Party/LoRaWAN/Mac/region/RegionAS923.c ****             newChannel.Frequency = (uint32_t) applyCFList->Payload[i];
 510:../../../../../../Middlewares/Third_Party/LoRaWAN/Mac/region/RegionAS923.c ****             newChannel.Frequency |= ( (uint32_t) applyCFList->Payload[i + 1] << 8 );
 511:../../../../../../Middlewares/Third_Party/LoRaWAN/Mac/region/RegionAS923.c ****             newChannel.Frequency |= ( (uint32_t) applyCFList->Payload[i + 2] << 16 );
 512:../../../../../../Middlewares/Third_Party/LoRaWAN/Mac/region/RegionAS923.c ****             newChannel.Frequency *= 100;
 513:../../../../../../Middlewares/Third_Party/LoRaWAN/Mac/region/RegionAS923.c **** 
 514:../../../../../../Middlewares/Third_Party/LoRaWAN/Mac/region/RegionAS923.c ****             // Initialize alternative frequency to 0
 515:../../../../../../Middlewares/Third_Party/LoRaWAN/Mac/region/RegionAS923.c ****             newChannel.Rx1Frequency = 0;
 516:../../../../../../Middlewares/Third_Party/LoRaWAN/Mac/region/RegionAS923.c ****         }
 517:../../../../../../Middlewares/Third_Party/LoRaWAN/Mac/region/RegionAS923.c ****         else
 518:../../../../../../Middlewares/Third_Party/LoRaWAN/Mac/region/RegionAS923.c ****         {
 519:../../../../../../Middlewares/Third_Party/LoRaWAN/Mac/region/RegionAS923.c ****             newChannel.Frequency = 0;
 520:../../../../../../Middlewares/Third_Party/LoRaWAN/Mac/region/RegionAS923.c ****             newChannel.DrRange.Value = 0;
 521:../../../../../../Middlewares/Third_Party/LoRaWAN/Mac/region/RegionAS923.c ****             newChannel.Rx1Frequency = 0;
 522:../../../../../../Middlewares/Third_Party/LoRaWAN/Mac/region/RegionAS923.c ****         }
 523:../../../../../../Middlewares/Third_Party/LoRaWAN/Mac/region/RegionAS923.c **** 
 524:../../../../../../Middlewares/Third_Party/LoRaWAN/Mac/region/RegionAS923.c ****         if( newChannel.Frequency != 0 )
 525:../../../../../../Middlewares/Third_Party/LoRaWAN/Mac/region/RegionAS923.c ****         {
 526:../../../../../../Middlewares/Third_Party/LoRaWAN/Mac/region/RegionAS923.c ****             channelAdd.NewChannel = &newChannel;
 527:../../../../../../Middlewares/Third_Party/LoRaWAN/Mac/region/RegionAS923.c ****             channelAdd.ChannelId = chanIdx;
 528:../../../../../../Middlewares/Third_Party/LoRaWAN/Mac/region/RegionAS923.c **** 
 529:../../../../../../Middlewares/Third_Party/LoRaWAN/Mac/region/RegionAS923.c ****             // Try to add all channels
 530:../../../../../../Middlewares/Third_Party/LoRaWAN/Mac/region/RegionAS923.c ****             RegionAS923ChannelAdd( &channelAdd );
 531:../../../../../../Middlewares/Third_Party/LoRaWAN/Mac/region/RegionAS923.c ****         }
 532:../../../../../../Middlewares/Third_Party/LoRaWAN/Mac/region/RegionAS923.c ****         else
 533:../../../../../../Middlewares/Third_Party/LoRaWAN/Mac/region/RegionAS923.c ****         {
 534:../../../../../../Middlewares/Third_Party/LoRaWAN/Mac/region/RegionAS923.c ****             channelRemove.ChannelId = chanIdx;
ARM GAS  C:\Users\EBANO_~1\AppData\Local\Temp\cc2nkIni.s 			page 25


 535:../../../../../../Middlewares/Third_Party/LoRaWAN/Mac/region/RegionAS923.c **** 
 536:../../../../../../Middlewares/Third_Party/LoRaWAN/Mac/region/RegionAS923.c ****             RegionAS923ChannelsRemove( &channelRemove );
 537:../../../../../../Middlewares/Third_Party/LoRaWAN/Mac/region/RegionAS923.c ****         }
 538:../../../../../../Middlewares/Third_Party/LoRaWAN/Mac/region/RegionAS923.c ****     }
 539:../../../../../../Middlewares/Third_Party/LoRaWAN/Mac/region/RegionAS923.c **** }
 758              		.loc 1 539 0
 759 001c 07B0     		add	sp, sp, #28
 760              		@ sp needed
 761              	.LVL45:
 762 001e 3CBC     		pop	{r2, r3, r4, r5}
 763 0020 9046     		mov	r8, r2
 764 0022 9946     		mov	r9, r3
 765 0024 A246     		mov	r10, r4
 766 0026 AB46     		mov	fp, r5
 767 0028 F0BD     		pop	{r4, r5, r6, r7, pc}
 768              	.LVL46:
 769              	.L95:
 498:../../../../../../Middlewares/Third_Party/LoRaWAN/Mac/region/RegionAS923.c ****     {
 770              		.loc 1 498 0
 771 002a 0368     		ldr	r3, [r0]
 772 002c DB7B     		ldrb	r3, [r3, #15]
 773 002e 002B     		cmp	r3, #0
 774 0030 F4D1     		bne	.L78
 775              	.LBB35:
 776              	.LBB36:
 777              	.LBB37:
 540:../../../../../../Middlewares/Third_Party/LoRaWAN/Mac/region/RegionAS923.c **** 
 541:../../../../../../Middlewares/Third_Party/LoRaWAN/Mac/region/RegionAS923.c **** bool RegionAS923ChanMaskSet( ChanMaskSetParams_t* chanMaskSet )
 542:../../../../../../Middlewares/Third_Party/LoRaWAN/Mac/region/RegionAS923.c **** {
 543:../../../../../../Middlewares/Third_Party/LoRaWAN/Mac/region/RegionAS923.c ****     switch( chanMaskSet->ChannelsMaskType )
 544:../../../../../../Middlewares/Third_Party/LoRaWAN/Mac/region/RegionAS923.c ****     {
 545:../../../../../../Middlewares/Third_Party/LoRaWAN/Mac/region/RegionAS923.c ****         case CHANNELS_MASK:
 546:../../../../../../Middlewares/Third_Party/LoRaWAN/Mac/region/RegionAS923.c ****         {
 547:../../../../../../Middlewares/Third_Party/LoRaWAN/Mac/region/RegionAS923.c ****             RegionCommonChanMaskCopy( NvmCtx.ChannelsMask, chanMaskSet->ChannelsMaskIn, 1 );
 548:../../../../../../Middlewares/Third_Party/LoRaWAN/Mac/region/RegionAS923.c ****             break;
 549:../../../../../../Middlewares/Third_Party/LoRaWAN/Mac/region/RegionAS923.c ****         }
 550:../../../../../../Middlewares/Third_Party/LoRaWAN/Mac/region/RegionAS923.c ****         case CHANNELS_DEFAULT_MASK:
 551:../../../../../../Middlewares/Third_Party/LoRaWAN/Mac/region/RegionAS923.c ****         {
 552:../../../../../../Middlewares/Third_Party/LoRaWAN/Mac/region/RegionAS923.c ****             RegionCommonChanMaskCopy( NvmCtx.ChannelsDefaultMask, chanMaskSet->ChannelsMaskIn, 1 );
 553:../../../../../../Middlewares/Third_Party/LoRaWAN/Mac/region/RegionAS923.c ****             break;
 554:../../../../../../Middlewares/Third_Party/LoRaWAN/Mac/region/RegionAS923.c ****         }
 555:../../../../../../Middlewares/Third_Party/LoRaWAN/Mac/region/RegionAS923.c ****         default:
 556:../../../../../../Middlewares/Third_Party/LoRaWAN/Mac/region/RegionAS923.c ****             return false;
 557:../../../../../../Middlewares/Third_Party/LoRaWAN/Mac/region/RegionAS923.c ****     }
 558:../../../../../../Middlewares/Third_Party/LoRaWAN/Mac/region/RegionAS923.c ****     return true;
 559:../../../../../../Middlewares/Third_Party/LoRaWAN/Mac/region/RegionAS923.c **** }
 560:../../../../../../Middlewares/Third_Party/LoRaWAN/Mac/region/RegionAS923.c **** 
 561:../../../../../../Middlewares/Third_Party/LoRaWAN/Mac/region/RegionAS923.c **** void RegionAS923ComputeRxWindowParameters( int8_t datarate, uint8_t minRxSymbols, uint32_t rxError,
 562:../../../../../../Middlewares/Third_Party/LoRaWAN/Mac/region/RegionAS923.c **** {
 563:../../../../../../Middlewares/Third_Party/LoRaWAN/Mac/region/RegionAS923.c ****     double tSymbol = 0.0;
 564:../../../../../../Middlewares/Third_Party/LoRaWAN/Mac/region/RegionAS923.c **** 
 565:../../../../../../Middlewares/Third_Party/LoRaWAN/Mac/region/RegionAS923.c ****     // Get the datarate, perform a boundary check
 566:../../../../../../Middlewares/Third_Party/LoRaWAN/Mac/region/RegionAS923.c ****     rxConfigParams->Datarate = MIN( datarate, AS923_RX_MAX_DATARATE );
 567:../../../../../../Middlewares/Third_Party/LoRaWAN/Mac/region/RegionAS923.c ****     rxConfigParams->Bandwidth = GetBandwidth( rxConfigParams->Datarate );
 568:../../../../../../Middlewares/Third_Party/LoRaWAN/Mac/region/RegionAS923.c **** 
 569:../../../../../../Middlewares/Third_Party/LoRaWAN/Mac/region/RegionAS923.c ****     if( rxConfigParams->Datarate == DR_7 )
 570:../../../../../../Middlewares/Third_Party/LoRaWAN/Mac/region/RegionAS923.c ****     { // FSK
ARM GAS  C:\Users\EBANO_~1\AppData\Local\Temp\cc2nkIni.s 			page 26


 571:../../../../../../Middlewares/Third_Party/LoRaWAN/Mac/region/RegionAS923.c ****         tSymbol = RegionCommonComputeSymbolTimeFsk( DataratesAS923[rxConfigParams->Datarate] );
 572:../../../../../../Middlewares/Third_Party/LoRaWAN/Mac/region/RegionAS923.c ****     }
 573:../../../../../../Middlewares/Third_Party/LoRaWAN/Mac/region/RegionAS923.c ****     else
 574:../../../../../../Middlewares/Third_Party/LoRaWAN/Mac/region/RegionAS923.c ****     { // LoRa
 575:../../../../../../Middlewares/Third_Party/LoRaWAN/Mac/region/RegionAS923.c ****         tSymbol = RegionCommonComputeSymbolTimeLoRa( DataratesAS923[rxConfigParams->Datarate], Band
 576:../../../../../../Middlewares/Third_Party/LoRaWAN/Mac/region/RegionAS923.c ****     }
 577:../../../../../../Middlewares/Third_Party/LoRaWAN/Mac/region/RegionAS923.c **** 
 578:../../../../../../Middlewares/Third_Party/LoRaWAN/Mac/region/RegionAS923.c ****     RegionCommonComputeRxWindowParameters( tSymbol, minRxSymbols, rxError, Radio.GetWakeupTime( ), 
 579:../../../../../../Middlewares/Third_Party/LoRaWAN/Mac/region/RegionAS923.c **** }
 580:../../../../../../Middlewares/Third_Party/LoRaWAN/Mac/region/RegionAS923.c **** 
 581:../../../../../../Middlewares/Third_Party/LoRaWAN/Mac/region/RegionAS923.c **** bool RegionAS923RxConfig( RxConfigParams_t* rxConfig, int8_t* datarate )
 582:../../../../../../Middlewares/Third_Party/LoRaWAN/Mac/region/RegionAS923.c **** {
 583:../../../../../../Middlewares/Third_Party/LoRaWAN/Mac/region/RegionAS923.c ****     RadioModems_t modem;
 584:../../../../../../Middlewares/Third_Party/LoRaWAN/Mac/region/RegionAS923.c ****     int8_t dr = rxConfig->Datarate;
 585:../../../../../../Middlewares/Third_Party/LoRaWAN/Mac/region/RegionAS923.c ****     uint8_t maxPayload = 0;
 586:../../../../../../Middlewares/Third_Party/LoRaWAN/Mac/region/RegionAS923.c ****     int8_t phyDr = 0;
 587:../../../../../../Middlewares/Third_Party/LoRaWAN/Mac/region/RegionAS923.c ****     uint32_t frequency = rxConfig->Frequency;
 588:../../../../../../Middlewares/Third_Party/LoRaWAN/Mac/region/RegionAS923.c **** 
 589:../../../../../../Middlewares/Third_Party/LoRaWAN/Mac/region/RegionAS923.c ****     if( Radio.GetStatus( ) != RF_IDLE )
 590:../../../../../../Middlewares/Third_Party/LoRaWAN/Mac/region/RegionAS923.c ****     {
 591:../../../../../../Middlewares/Third_Party/LoRaWAN/Mac/region/RegionAS923.c ****         return false;
 592:../../../../../../Middlewares/Third_Party/LoRaWAN/Mac/region/RegionAS923.c ****     }
 593:../../../../../../Middlewares/Third_Party/LoRaWAN/Mac/region/RegionAS923.c **** 
 594:../../../../../../Middlewares/Third_Party/LoRaWAN/Mac/region/RegionAS923.c ****     if( rxConfig->RxSlot == RX_SLOT_WIN_1 )
 595:../../../../../../Middlewares/Third_Party/LoRaWAN/Mac/region/RegionAS923.c ****     {
 596:../../../../../../Middlewares/Third_Party/LoRaWAN/Mac/region/RegionAS923.c ****         // Apply window 1 frequency
 597:../../../../../../Middlewares/Third_Party/LoRaWAN/Mac/region/RegionAS923.c ****         frequency = NvmCtx.Channels[rxConfig->Channel].Frequency;
 598:../../../../../../Middlewares/Third_Party/LoRaWAN/Mac/region/RegionAS923.c ****         // Apply the alternative RX 1 window frequency, if it is available
 599:../../../../../../Middlewares/Third_Party/LoRaWAN/Mac/region/RegionAS923.c ****         if( NvmCtx.Channels[rxConfig->Channel].Rx1Frequency != 0 )
 600:../../../../../../Middlewares/Third_Party/LoRaWAN/Mac/region/RegionAS923.c ****         {
 601:../../../../../../Middlewares/Third_Party/LoRaWAN/Mac/region/RegionAS923.c ****             frequency = NvmCtx.Channels[rxConfig->Channel].Rx1Frequency;
 602:../../../../../../Middlewares/Third_Party/LoRaWAN/Mac/region/RegionAS923.c ****         }
 603:../../../../../../Middlewares/Third_Party/LoRaWAN/Mac/region/RegionAS923.c ****     }
 604:../../../../../../Middlewares/Third_Party/LoRaWAN/Mac/region/RegionAS923.c **** 
 605:../../../../../../Middlewares/Third_Party/LoRaWAN/Mac/region/RegionAS923.c ****     // Read the physical datarate from the datarates table
 606:../../../../../../Middlewares/Third_Party/LoRaWAN/Mac/region/RegionAS923.c ****     phyDr = DataratesAS923[dr];
 607:../../../../../../Middlewares/Third_Party/LoRaWAN/Mac/region/RegionAS923.c **** 
 608:../../../../../../Middlewares/Third_Party/LoRaWAN/Mac/region/RegionAS923.c ****     Radio.SetChannel( frequency );
 609:../../../../../../Middlewares/Third_Party/LoRaWAN/Mac/region/RegionAS923.c **** 
 610:../../../../../../Middlewares/Third_Party/LoRaWAN/Mac/region/RegionAS923.c ****     // Radio configuration
 611:../../../../../../Middlewares/Third_Party/LoRaWAN/Mac/region/RegionAS923.c ****     if( dr == DR_7 )
 612:../../../../../../Middlewares/Third_Party/LoRaWAN/Mac/region/RegionAS923.c ****     {
 613:../../../../../../Middlewares/Third_Party/LoRaWAN/Mac/region/RegionAS923.c ****         modem = MODEM_FSK;
 614:../../../../../../Middlewares/Third_Party/LoRaWAN/Mac/region/RegionAS923.c ****         Radio.SetRxConfig( modem, 50000, phyDr * 1000, 0, 83333, 5, rxConfig->WindowTimeout, false,
 615:../../../../../../Middlewares/Third_Party/LoRaWAN/Mac/region/RegionAS923.c ****     }
 616:../../../../../../Middlewares/Third_Party/LoRaWAN/Mac/region/RegionAS923.c ****     else
 617:../../../../../../Middlewares/Third_Party/LoRaWAN/Mac/region/RegionAS923.c ****     {
 618:../../../../../../Middlewares/Third_Party/LoRaWAN/Mac/region/RegionAS923.c ****         modem = MODEM_LORA;
 619:../../../../../../Middlewares/Third_Party/LoRaWAN/Mac/region/RegionAS923.c ****         Radio.SetRxConfig( modem, rxConfig->Bandwidth, phyDr, 1, 0, 8, rxConfig->WindowTimeout, fal
 620:../../../../../../Middlewares/Third_Party/LoRaWAN/Mac/region/RegionAS923.c ****     }
 621:../../../../../../Middlewares/Third_Party/LoRaWAN/Mac/region/RegionAS923.c **** 
 622:../../../../../../Middlewares/Third_Party/LoRaWAN/Mac/region/RegionAS923.c ****     // Check for repeater support
 623:../../../../../../Middlewares/Third_Party/LoRaWAN/Mac/region/RegionAS923.c ****     if( rxConfig->RepeaterSupport == true )
 624:../../../../../../Middlewares/Third_Party/LoRaWAN/Mac/region/RegionAS923.c ****     {
 625:../../../../../../Middlewares/Third_Party/LoRaWAN/Mac/region/RegionAS923.c ****         maxPayload = MaxPayloadOfDatarateRepeaterDwell0AS923[dr];
 626:../../../../../../Middlewares/Third_Party/LoRaWAN/Mac/region/RegionAS923.c ****     }
 627:../../../../../../Middlewares/Third_Party/LoRaWAN/Mac/region/RegionAS923.c ****     else
ARM GAS  C:\Users\EBANO_~1\AppData\Local\Temp\cc2nkIni.s 			page 27


 628:../../../../../../Middlewares/Third_Party/LoRaWAN/Mac/region/RegionAS923.c ****     {
 629:../../../../../../Middlewares/Third_Party/LoRaWAN/Mac/region/RegionAS923.c ****         maxPayload = MaxPayloadOfDatarateDwell0AS923[dr];
 630:../../../../../../Middlewares/Third_Party/LoRaWAN/Mac/region/RegionAS923.c ****     }
 631:../../../../../../Middlewares/Third_Party/LoRaWAN/Mac/region/RegionAS923.c **** 
 632:../../../../../../Middlewares/Third_Party/LoRaWAN/Mac/region/RegionAS923.c ****     Radio.SetMaxPayloadLength( modem, maxPayload + LORA_MAC_FRMPAYLOAD_OVERHEAD );
 633:../../../../../../Middlewares/Third_Party/LoRaWAN/Mac/region/RegionAS923.c ****     TVL1( PRINTF( "RX on freq %d Hz at DR %d\n\r", frequency, dr );)
 634:../../../../../../Middlewares/Third_Party/LoRaWAN/Mac/region/RegionAS923.c **** 
 635:../../../../../../Middlewares/Third_Party/LoRaWAN/Mac/region/RegionAS923.c ****     *datarate = (uint8_t) dr;
 636:../../../../../../Middlewares/Third_Party/LoRaWAN/Mac/region/RegionAS923.c ****     return true;
 637:../../../../../../Middlewares/Third_Party/LoRaWAN/Mac/region/RegionAS923.c **** }
 638:../../../../../../Middlewares/Third_Party/LoRaWAN/Mac/region/RegionAS923.c **** 
 639:../../../../../../Middlewares/Third_Party/LoRaWAN/Mac/region/RegionAS923.c **** bool RegionAS923TxConfig( TxConfigParams_t* txConfig, int8_t* txPower, TimerTime_t* txTimeOnAir )
 640:../../../../../../Middlewares/Third_Party/LoRaWAN/Mac/region/RegionAS923.c **** {
 641:../../../../../../Middlewares/Third_Party/LoRaWAN/Mac/region/RegionAS923.c ****     RadioModems_t modem;
 642:../../../../../../Middlewares/Third_Party/LoRaWAN/Mac/region/RegionAS923.c ****     int8_t phyDr = DataratesAS923[txConfig->Datarate];
 643:../../../../../../Middlewares/Third_Party/LoRaWAN/Mac/region/RegionAS923.c ****     int8_t txPowerLimited = LimitTxPower( txConfig->TxPower, NvmCtx.Bands[NvmCtx.Channels[txConfig-
 644:../../../../../../Middlewares/Third_Party/LoRaWAN/Mac/region/RegionAS923.c ****     uint32_t bandwidth = GetBandwidth( txConfig->Datarate );
 645:../../../../../../Middlewares/Third_Party/LoRaWAN/Mac/region/RegionAS923.c ****     int8_t phyTxPower = 0;
 646:../../../../../../Middlewares/Third_Party/LoRaWAN/Mac/region/RegionAS923.c **** 
 647:../../../../../../Middlewares/Third_Party/LoRaWAN/Mac/region/RegionAS923.c ****     // Calculate physical TX power
 648:../../../../../../Middlewares/Third_Party/LoRaWAN/Mac/region/RegionAS923.c ****     phyTxPower = RegionCommonComputeTxPower( txPowerLimited, txConfig->MaxEirp, txConfig->AntennaGa
 649:../../../../../../Middlewares/Third_Party/LoRaWAN/Mac/region/RegionAS923.c **** 
 650:../../../../../../Middlewares/Third_Party/LoRaWAN/Mac/region/RegionAS923.c ****     // Setup the radio frequency
 651:../../../../../../Middlewares/Third_Party/LoRaWAN/Mac/region/RegionAS923.c ****     Radio.SetChannel( NvmCtx.Channels[txConfig->Channel].Frequency );
 652:../../../../../../Middlewares/Third_Party/LoRaWAN/Mac/region/RegionAS923.c **** 
 653:../../../../../../Middlewares/Third_Party/LoRaWAN/Mac/region/RegionAS923.c ****     if( txConfig->Datarate == DR_7 )
 654:../../../../../../Middlewares/Third_Party/LoRaWAN/Mac/region/RegionAS923.c ****     { // High Speed FSK channel
 655:../../../../../../Middlewares/Third_Party/LoRaWAN/Mac/region/RegionAS923.c ****         modem = MODEM_FSK;
 656:../../../../../../Middlewares/Third_Party/LoRaWAN/Mac/region/RegionAS923.c ****         Radio.SetTxConfig( modem, phyTxPower, 25000, bandwidth, phyDr * 1000, 0, 5, false, true, 0,
 657:../../../../../../Middlewares/Third_Party/LoRaWAN/Mac/region/RegionAS923.c ****     }
 658:../../../../../../Middlewares/Third_Party/LoRaWAN/Mac/region/RegionAS923.c ****     else
 659:../../../../../../Middlewares/Third_Party/LoRaWAN/Mac/region/RegionAS923.c ****     {
 660:../../../../../../Middlewares/Third_Party/LoRaWAN/Mac/region/RegionAS923.c ****         modem = MODEM_LORA;
 661:../../../../../../Middlewares/Third_Party/LoRaWAN/Mac/region/RegionAS923.c ****         Radio.SetTxConfig( modem, phyTxPower, 0, bandwidth, phyDr, 1, 8, false, true, 0, 0, false, 
 662:../../../../../../Middlewares/Third_Party/LoRaWAN/Mac/region/RegionAS923.c ****     }
 663:../../../../../../Middlewares/Third_Party/LoRaWAN/Mac/region/RegionAS923.c ****     TVL1( PRINTF( "TX on freq %d Hz at DR %d\n\r", NvmCtx.Channels[txConfig->Channel].Frequency, tx
 664:../../../../../../Middlewares/Third_Party/LoRaWAN/Mac/region/RegionAS923.c ****     // Setup maximum payload lenght of the radio driver
 665:../../../../../../Middlewares/Third_Party/LoRaWAN/Mac/region/RegionAS923.c ****     Radio.SetMaxPayloadLength( modem, txConfig->PktLen );
 666:../../../../../../Middlewares/Third_Party/LoRaWAN/Mac/region/RegionAS923.c ****     // Get the time-on-air of the next tx frame
 667:../../../../../../Middlewares/Third_Party/LoRaWAN/Mac/region/RegionAS923.c ****     *txTimeOnAir = Radio.TimeOnAir( modem, txConfig->PktLen );
 668:../../../../../../Middlewares/Third_Party/LoRaWAN/Mac/region/RegionAS923.c **** 
 669:../../../../../../Middlewares/Third_Party/LoRaWAN/Mac/region/RegionAS923.c ****     *txPower = txPowerLimited;
 670:../../../../../../Middlewares/Third_Party/LoRaWAN/Mac/region/RegionAS923.c ****     return true;
 671:../../../../../../Middlewares/Third_Party/LoRaWAN/Mac/region/RegionAS923.c **** }
 672:../../../../../../Middlewares/Third_Party/LoRaWAN/Mac/region/RegionAS923.c **** 
 673:../../../../../../Middlewares/Third_Party/LoRaWAN/Mac/region/RegionAS923.c **** uint8_t RegionAS923LinkAdrReq( LinkAdrReqParams_t* linkAdrReq, int8_t* drOut, int8_t* txPowOut, uin
 674:../../../../../../Middlewares/Third_Party/LoRaWAN/Mac/region/RegionAS923.c **** {
 675:../../../../../../Middlewares/Third_Party/LoRaWAN/Mac/region/RegionAS923.c ****     uint8_t status = 0x07;
 676:../../../../../../Middlewares/Third_Party/LoRaWAN/Mac/region/RegionAS923.c ****     RegionCommonLinkAdrParams_t linkAdrParams;
 677:../../../../../../Middlewares/Third_Party/LoRaWAN/Mac/region/RegionAS923.c ****     uint8_t nextIndex = 0;
 678:../../../../../../Middlewares/Third_Party/LoRaWAN/Mac/region/RegionAS923.c ****     uint8_t bytesProcessed = 0;
 679:../../../../../../Middlewares/Third_Party/LoRaWAN/Mac/region/RegionAS923.c ****     uint16_t chMask = 0;
 680:../../../../../../Middlewares/Third_Party/LoRaWAN/Mac/region/RegionAS923.c ****     GetPhyParams_t getPhy;
 681:../../../../../../Middlewares/Third_Party/LoRaWAN/Mac/region/RegionAS923.c ****     PhyParam_t phyParam;
 682:../../../../../../Middlewares/Third_Party/LoRaWAN/Mac/region/RegionAS923.c ****     RegionCommonLinkAdrReqVerifyParams_t linkAdrVerifyParams;
 683:../../../../../../Middlewares/Third_Party/LoRaWAN/Mac/region/RegionAS923.c **** 
 684:../../../../../../Middlewares/Third_Party/LoRaWAN/Mac/region/RegionAS923.c ****     while( bytesProcessed < linkAdrReq->PayloadSize )
ARM GAS  C:\Users\EBANO_~1\AppData\Local\Temp\cc2nkIni.s 			page 28


 685:../../../../../../Middlewares/Third_Party/LoRaWAN/Mac/region/RegionAS923.c ****     {
 686:../../../../../../Middlewares/Third_Party/LoRaWAN/Mac/region/RegionAS923.c ****         // Get ADR request parameters
 687:../../../../../../Middlewares/Third_Party/LoRaWAN/Mac/region/RegionAS923.c ****         nextIndex = RegionCommonParseLinkAdrReq( &( linkAdrReq->Payload[bytesProcessed] ), &linkAdr
 688:../../../../../../Middlewares/Third_Party/LoRaWAN/Mac/region/RegionAS923.c **** 
 689:../../../../../../Middlewares/Third_Party/LoRaWAN/Mac/region/RegionAS923.c ****         if( nextIndex == 0 )
 690:../../../../../../Middlewares/Third_Party/LoRaWAN/Mac/region/RegionAS923.c ****             break; // break loop, since no more request has been found
 691:../../../../../../Middlewares/Third_Party/LoRaWAN/Mac/region/RegionAS923.c **** 
 692:../../../../../../Middlewares/Third_Party/LoRaWAN/Mac/region/RegionAS923.c ****         // Update bytes processed
 693:../../../../../../Middlewares/Third_Party/LoRaWAN/Mac/region/RegionAS923.c ****         bytesProcessed += nextIndex;
 694:../../../../../../Middlewares/Third_Party/LoRaWAN/Mac/region/RegionAS923.c **** 
 695:../../../../../../Middlewares/Third_Party/LoRaWAN/Mac/region/RegionAS923.c ****         // Revert status, as we only check the last ADR request for the channel mask KO
 696:../../../../../../Middlewares/Third_Party/LoRaWAN/Mac/region/RegionAS923.c ****         status = 0x07;
 697:../../../../../../Middlewares/Third_Party/LoRaWAN/Mac/region/RegionAS923.c **** 
 698:../../../../../../Middlewares/Third_Party/LoRaWAN/Mac/region/RegionAS923.c ****         // Setup temporary channels mask
 699:../../../../../../Middlewares/Third_Party/LoRaWAN/Mac/region/RegionAS923.c ****         chMask = linkAdrParams.ChMask;
 700:../../../../../../Middlewares/Third_Party/LoRaWAN/Mac/region/RegionAS923.c **** 
 701:../../../../../../Middlewares/Third_Party/LoRaWAN/Mac/region/RegionAS923.c ****         // Verify channels mask
 702:../../../../../../Middlewares/Third_Party/LoRaWAN/Mac/region/RegionAS923.c ****         if( ( linkAdrParams.ChMaskCtrl == 0 ) && ( chMask == 0 ) )
 703:../../../../../../Middlewares/Third_Party/LoRaWAN/Mac/region/RegionAS923.c ****         {
 704:../../../../../../Middlewares/Third_Party/LoRaWAN/Mac/region/RegionAS923.c ****             status &= 0xFE; // Channel mask KO
 705:../../../../../../Middlewares/Third_Party/LoRaWAN/Mac/region/RegionAS923.c ****         }
 706:../../../../../../Middlewares/Third_Party/LoRaWAN/Mac/region/RegionAS923.c ****         else if( ( ( linkAdrParams.ChMaskCtrl >= 1 ) && ( linkAdrParams.ChMaskCtrl <= 5 )) ||
 707:../../../../../../Middlewares/Third_Party/LoRaWAN/Mac/region/RegionAS923.c ****                 ( linkAdrParams.ChMaskCtrl >= 7 ) )
 708:../../../../../../Middlewares/Third_Party/LoRaWAN/Mac/region/RegionAS923.c ****         {
 709:../../../../../../Middlewares/Third_Party/LoRaWAN/Mac/region/RegionAS923.c ****             // RFU
 710:../../../../../../Middlewares/Third_Party/LoRaWAN/Mac/region/RegionAS923.c ****             status &= 0xFE; // Channel mask KO
 711:../../../../../../Middlewares/Third_Party/LoRaWAN/Mac/region/RegionAS923.c ****         }
 712:../../../../../../Middlewares/Third_Party/LoRaWAN/Mac/region/RegionAS923.c ****         else
 713:../../../../../../Middlewares/Third_Party/LoRaWAN/Mac/region/RegionAS923.c ****         {
 714:../../../../../../Middlewares/Third_Party/LoRaWAN/Mac/region/RegionAS923.c ****             for( uint8_t i = 0; i < AS923_MAX_NB_CHANNELS; i++ )
 715:../../../../../../Middlewares/Third_Party/LoRaWAN/Mac/region/RegionAS923.c ****             {
 716:../../../../../../Middlewares/Third_Party/LoRaWAN/Mac/region/RegionAS923.c ****                 if( linkAdrParams.ChMaskCtrl == 6 )
 717:../../../../../../Middlewares/Third_Party/LoRaWAN/Mac/region/RegionAS923.c ****                 {
 718:../../../../../../Middlewares/Third_Party/LoRaWAN/Mac/region/RegionAS923.c ****                     if( NvmCtx.Channels[i].Frequency != 0 )
 719:../../../../../../Middlewares/Third_Party/LoRaWAN/Mac/region/RegionAS923.c ****                     {
 720:../../../../../../Middlewares/Third_Party/LoRaWAN/Mac/region/RegionAS923.c ****                         chMask |= 1 << i;
 721:../../../../../../Middlewares/Third_Party/LoRaWAN/Mac/region/RegionAS923.c ****                     }
 722:../../../../../../Middlewares/Third_Party/LoRaWAN/Mac/region/RegionAS923.c ****                 }
 723:../../../../../../Middlewares/Third_Party/LoRaWAN/Mac/region/RegionAS923.c ****                 else
 724:../../../../../../Middlewares/Third_Party/LoRaWAN/Mac/region/RegionAS923.c ****                 {
 725:../../../../../../Middlewares/Third_Party/LoRaWAN/Mac/region/RegionAS923.c ****                     if( ( ( chMask & ( 1 << i ) ) != 0 ) &&
 726:../../../../../../Middlewares/Third_Party/LoRaWAN/Mac/region/RegionAS923.c ****                         ( NvmCtx.Channels[i].Frequency == 0 ) )
 727:../../../../../../Middlewares/Third_Party/LoRaWAN/Mac/region/RegionAS923.c ****                     {// Trying to enable an undefined channel
 728:../../../../../../Middlewares/Third_Party/LoRaWAN/Mac/region/RegionAS923.c ****                         status &= 0xFE; // Channel mask KO
 729:../../../../../../Middlewares/Third_Party/LoRaWAN/Mac/region/RegionAS923.c ****                     }
 730:../../../../../../Middlewares/Third_Party/LoRaWAN/Mac/region/RegionAS923.c ****                 }
 731:../../../../../../Middlewares/Third_Party/LoRaWAN/Mac/region/RegionAS923.c ****             }
 732:../../../../../../Middlewares/Third_Party/LoRaWAN/Mac/region/RegionAS923.c ****         }
 733:../../../../../../Middlewares/Third_Party/LoRaWAN/Mac/region/RegionAS923.c ****     }
 734:../../../../../../Middlewares/Third_Party/LoRaWAN/Mac/region/RegionAS923.c **** 
 735:../../../../../../Middlewares/Third_Party/LoRaWAN/Mac/region/RegionAS923.c ****     // Get the minimum possible datarate
 736:../../../../../../Middlewares/Third_Party/LoRaWAN/Mac/region/RegionAS923.c ****     getPhy.Attribute = PHY_MIN_TX_DR;
 737:../../../../../../Middlewares/Third_Party/LoRaWAN/Mac/region/RegionAS923.c ****     getPhy.UplinkDwellTime = linkAdrReq->UplinkDwellTime;
 738:../../../../../../Middlewares/Third_Party/LoRaWAN/Mac/region/RegionAS923.c ****     phyParam = RegionAS923GetPhyParam( &getPhy );
 739:../../../../../../Middlewares/Third_Party/LoRaWAN/Mac/region/RegionAS923.c **** 
 740:../../../../../../Middlewares/Third_Party/LoRaWAN/Mac/region/RegionAS923.c ****     linkAdrVerifyParams.Status = status;
 741:../../../../../../Middlewares/Third_Party/LoRaWAN/Mac/region/RegionAS923.c ****     linkAdrVerifyParams.AdrEnabled = linkAdrReq->AdrEnabled;
ARM GAS  C:\Users\EBANO_~1\AppData\Local\Temp\cc2nkIni.s 			page 29


 742:../../../../../../Middlewares/Third_Party/LoRaWAN/Mac/region/RegionAS923.c ****     linkAdrVerifyParams.Datarate = linkAdrParams.Datarate;
 743:../../../../../../Middlewares/Third_Party/LoRaWAN/Mac/region/RegionAS923.c ****     linkAdrVerifyParams.TxPower = linkAdrParams.TxPower;
 744:../../../../../../Middlewares/Third_Party/LoRaWAN/Mac/region/RegionAS923.c ****     linkAdrVerifyParams.NbRep = linkAdrParams.NbRep;
 745:../../../../../../Middlewares/Third_Party/LoRaWAN/Mac/region/RegionAS923.c ****     linkAdrVerifyParams.CurrentDatarate = linkAdrReq->CurrentDatarate;
 746:../../../../../../Middlewares/Third_Party/LoRaWAN/Mac/region/RegionAS923.c ****     linkAdrVerifyParams.CurrentTxPower = linkAdrReq->CurrentTxPower;
 747:../../../../../../Middlewares/Third_Party/LoRaWAN/Mac/region/RegionAS923.c ****     linkAdrVerifyParams.CurrentNbRep = linkAdrReq->CurrentNbRep;
 748:../../../../../../Middlewares/Third_Party/LoRaWAN/Mac/region/RegionAS923.c ****     linkAdrVerifyParams.NbChannels = AS923_MAX_NB_CHANNELS;
 749:../../../../../../Middlewares/Third_Party/LoRaWAN/Mac/region/RegionAS923.c ****     linkAdrVerifyParams.ChannelsMask = &chMask;
 750:../../../../../../Middlewares/Third_Party/LoRaWAN/Mac/region/RegionAS923.c ****     linkAdrVerifyParams.MinDatarate = ( int8_t )phyParam.Value;
 751:../../../../../../Middlewares/Third_Party/LoRaWAN/Mac/region/RegionAS923.c ****     linkAdrVerifyParams.MaxDatarate = AS923_TX_MAX_DATARATE;
 752:../../../../../../Middlewares/Third_Party/LoRaWAN/Mac/region/RegionAS923.c ****     linkAdrVerifyParams.Channels = NvmCtx.Channels;
 753:../../../../../../Middlewares/Third_Party/LoRaWAN/Mac/region/RegionAS923.c ****     linkAdrVerifyParams.MinTxPower = AS923_MIN_TX_POWER;
 754:../../../../../../Middlewares/Third_Party/LoRaWAN/Mac/region/RegionAS923.c ****     linkAdrVerifyParams.MaxTxPower = AS923_MAX_TX_POWER;
 755:../../../../../../Middlewares/Third_Party/LoRaWAN/Mac/region/RegionAS923.c ****     linkAdrVerifyParams.Version = linkAdrReq->Version;
 756:../../../../../../Middlewares/Third_Party/LoRaWAN/Mac/region/RegionAS923.c **** 
 757:../../../../../../Middlewares/Third_Party/LoRaWAN/Mac/region/RegionAS923.c ****     // Verify the parameters and update, if necessary
 758:../../../../../../Middlewares/Third_Party/LoRaWAN/Mac/region/RegionAS923.c ****     status = RegionCommonLinkAdrReqVerifyParams( &linkAdrVerifyParams, &linkAdrParams.Datarate, &li
 759:../../../../../../Middlewares/Third_Party/LoRaWAN/Mac/region/RegionAS923.c **** 
 760:../../../../../../Middlewares/Third_Party/LoRaWAN/Mac/region/RegionAS923.c ****     // Update channelsMask if everything is correct
 761:../../../../../../Middlewares/Third_Party/LoRaWAN/Mac/region/RegionAS923.c ****     if( status == 0x07 )
 762:../../../../../../Middlewares/Third_Party/LoRaWAN/Mac/region/RegionAS923.c ****     {
 763:../../../../../../Middlewares/Third_Party/LoRaWAN/Mac/region/RegionAS923.c ****         // Set the channels mask to a default value
 764:../../../../../../Middlewares/Third_Party/LoRaWAN/Mac/region/RegionAS923.c ****         memset1( ( uint8_t* ) NvmCtx.ChannelsMask, 0, sizeof( NvmCtx.ChannelsMask ) );
 765:../../../../../../Middlewares/Third_Party/LoRaWAN/Mac/region/RegionAS923.c ****         // Update the channels mask
 766:../../../../../../Middlewares/Third_Party/LoRaWAN/Mac/region/RegionAS923.c ****         NvmCtx.ChannelsMask[0] = chMask;
 767:../../../../../../Middlewares/Third_Party/LoRaWAN/Mac/region/RegionAS923.c ****     }
 768:../../../../../../Middlewares/Third_Party/LoRaWAN/Mac/region/RegionAS923.c **** 
 769:../../../../../../Middlewares/Third_Party/LoRaWAN/Mac/region/RegionAS923.c ****     // Update status variables
 770:../../../../../../Middlewares/Third_Party/LoRaWAN/Mac/region/RegionAS923.c ****     *drOut = linkAdrParams.Datarate;
 771:../../../../../../Middlewares/Third_Party/LoRaWAN/Mac/region/RegionAS923.c ****     *txPowOut = linkAdrParams.TxPower;
 772:../../../../../../Middlewares/Third_Party/LoRaWAN/Mac/region/RegionAS923.c ****     *nbRepOut = linkAdrParams.NbRep;
 773:../../../../../../Middlewares/Third_Party/LoRaWAN/Mac/region/RegionAS923.c ****     *nbBytesParsed = bytesProcessed;
 774:../../../../../../Middlewares/Third_Party/LoRaWAN/Mac/region/RegionAS923.c **** 
 775:../../../../../../Middlewares/Third_Party/LoRaWAN/Mac/region/RegionAS923.c ****     return status;
 776:../../../../../../Middlewares/Third_Party/LoRaWAN/Mac/region/RegionAS923.c **** }
 777:../../../../../../Middlewares/Third_Party/LoRaWAN/Mac/region/RegionAS923.c **** 
 778:../../../../../../Middlewares/Third_Party/LoRaWAN/Mac/region/RegionAS923.c **** uint8_t RegionAS923RxParamSetupReq( RxParamSetupReqParams_t* rxParamSetupReq )
 779:../../../../../../Middlewares/Third_Party/LoRaWAN/Mac/region/RegionAS923.c **** {
 780:../../../../../../Middlewares/Third_Party/LoRaWAN/Mac/region/RegionAS923.c ****     uint8_t status = 0x07;
 781:../../../../../../Middlewares/Third_Party/LoRaWAN/Mac/region/RegionAS923.c **** 
 782:../../../../../../Middlewares/Third_Party/LoRaWAN/Mac/region/RegionAS923.c ****     // Verify radio frequency
 783:../../../../../../Middlewares/Third_Party/LoRaWAN/Mac/region/RegionAS923.c ****     if( VerifyRfFreq( rxParamSetupReq->Frequency ) == false )
 784:../../../../../../Middlewares/Third_Party/LoRaWAN/Mac/region/RegionAS923.c ****     {
 785:../../../../../../Middlewares/Third_Party/LoRaWAN/Mac/region/RegionAS923.c ****         status &= 0xFE; // Channel frequency KO
 786:../../../../../../Middlewares/Third_Party/LoRaWAN/Mac/region/RegionAS923.c ****     }
 787:../../../../../../Middlewares/Third_Party/LoRaWAN/Mac/region/RegionAS923.c **** 
 788:../../../../../../Middlewares/Third_Party/LoRaWAN/Mac/region/RegionAS923.c ****     // Verify datarate
 789:../../../../../../Middlewares/Third_Party/LoRaWAN/Mac/region/RegionAS923.c ****     if( RegionCommonValueInRange( rxParamSetupReq->Datarate, AS923_RX_MIN_DATARATE, AS923_RX_MAX_DA
 790:../../../../../../Middlewares/Third_Party/LoRaWAN/Mac/region/RegionAS923.c ****     {
 791:../../../../../../Middlewares/Third_Party/LoRaWAN/Mac/region/RegionAS923.c ****         status &= 0xFD; // Datarate KO
 792:../../../../../../Middlewares/Third_Party/LoRaWAN/Mac/region/RegionAS923.c ****     }
 793:../../../../../../Middlewares/Third_Party/LoRaWAN/Mac/region/RegionAS923.c **** 
 794:../../../../../../Middlewares/Third_Party/LoRaWAN/Mac/region/RegionAS923.c ****     // Verify datarate offset
 795:../../../../../../Middlewares/Third_Party/LoRaWAN/Mac/region/RegionAS923.c ****     if( RegionCommonValueInRange( rxParamSetupReq->DrOffset, AS923_MIN_RX1_DR_OFFSET, AS923_MAX_RX1
 796:../../../../../../Middlewares/Third_Party/LoRaWAN/Mac/region/RegionAS923.c ****     {
 797:../../../../../../Middlewares/Third_Party/LoRaWAN/Mac/region/RegionAS923.c ****         status &= 0xFB; // Rx1DrOffset range KO
 798:../../../../../../Middlewares/Third_Party/LoRaWAN/Mac/region/RegionAS923.c ****     }
ARM GAS  C:\Users\EBANO_~1\AppData\Local\Temp\cc2nkIni.s 			page 30


 799:../../../../../../Middlewares/Third_Party/LoRaWAN/Mac/region/RegionAS923.c **** 
 800:../../../../../../Middlewares/Third_Party/LoRaWAN/Mac/region/RegionAS923.c ****     return status;
 801:../../../../../../Middlewares/Third_Party/LoRaWAN/Mac/region/RegionAS923.c **** }
 802:../../../../../../Middlewares/Third_Party/LoRaWAN/Mac/region/RegionAS923.c **** 
 803:../../../../../../Middlewares/Third_Party/LoRaWAN/Mac/region/RegionAS923.c **** uint8_t RegionAS923NewChannelReq( NewChannelReqParams_t* newChannelReq )
 804:../../../../../../Middlewares/Third_Party/LoRaWAN/Mac/region/RegionAS923.c **** {
 805:../../../../../../Middlewares/Third_Party/LoRaWAN/Mac/region/RegionAS923.c ****     uint8_t status = 0x03;
 806:../../../../../../Middlewares/Third_Party/LoRaWAN/Mac/region/RegionAS923.c ****     ChannelAddParams_t channelAdd;
 807:../../../../../../Middlewares/Third_Party/LoRaWAN/Mac/region/RegionAS923.c ****     ChannelRemoveParams_t channelRemove;
 808:../../../../../../Middlewares/Third_Party/LoRaWAN/Mac/region/RegionAS923.c **** 
 809:../../../../../../Middlewares/Third_Party/LoRaWAN/Mac/region/RegionAS923.c ****     if( newChannelReq->NewChannel->Frequency == 0 )
 810:../../../../../../Middlewares/Third_Party/LoRaWAN/Mac/region/RegionAS923.c ****     {
 811:../../../../../../Middlewares/Third_Party/LoRaWAN/Mac/region/RegionAS923.c ****         channelRemove.ChannelId = newChannelReq->ChannelId;
 812:../../../../../../Middlewares/Third_Party/LoRaWAN/Mac/region/RegionAS923.c **** 
 813:../../../../../../Middlewares/Third_Party/LoRaWAN/Mac/region/RegionAS923.c ****         // Remove
 814:../../../../../../Middlewares/Third_Party/LoRaWAN/Mac/region/RegionAS923.c ****         if( RegionAS923ChannelsRemove( &channelRemove ) == false )
 815:../../../../../../Middlewares/Third_Party/LoRaWAN/Mac/region/RegionAS923.c ****         {
 816:../../../../../../Middlewares/Third_Party/LoRaWAN/Mac/region/RegionAS923.c ****             status &= 0xFC;
 817:../../../../../../Middlewares/Third_Party/LoRaWAN/Mac/region/RegionAS923.c ****         }
 818:../../../../../../Middlewares/Third_Party/LoRaWAN/Mac/region/RegionAS923.c ****     }
 819:../../../../../../Middlewares/Third_Party/LoRaWAN/Mac/region/RegionAS923.c ****     else
 820:../../../../../../Middlewares/Third_Party/LoRaWAN/Mac/region/RegionAS923.c ****     {
 821:../../../../../../Middlewares/Third_Party/LoRaWAN/Mac/region/RegionAS923.c ****         channelAdd.NewChannel = newChannelReq->NewChannel;
 822:../../../../../../Middlewares/Third_Party/LoRaWAN/Mac/region/RegionAS923.c ****         channelAdd.ChannelId = newChannelReq->ChannelId;
 823:../../../../../../Middlewares/Third_Party/LoRaWAN/Mac/region/RegionAS923.c **** 
 824:../../../../../../Middlewares/Third_Party/LoRaWAN/Mac/region/RegionAS923.c ****         switch( RegionAS923ChannelAdd( &channelAdd ) )
 825:../../../../../../Middlewares/Third_Party/LoRaWAN/Mac/region/RegionAS923.c ****         {
 826:../../../../../../Middlewares/Third_Party/LoRaWAN/Mac/region/RegionAS923.c ****             case LORAMAC_STATUS_OK:
 827:../../../../../../Middlewares/Third_Party/LoRaWAN/Mac/region/RegionAS923.c ****             {
 828:../../../../../../Middlewares/Third_Party/LoRaWAN/Mac/region/RegionAS923.c ****                 break;
 829:../../../../../../Middlewares/Third_Party/LoRaWAN/Mac/region/RegionAS923.c ****             }
 830:../../../../../../Middlewares/Third_Party/LoRaWAN/Mac/region/RegionAS923.c ****             case LORAMAC_STATUS_FREQUENCY_INVALID:
 831:../../../../../../Middlewares/Third_Party/LoRaWAN/Mac/region/RegionAS923.c ****             {
 832:../../../../../../Middlewares/Third_Party/LoRaWAN/Mac/region/RegionAS923.c ****                 status &= 0xFE;
 833:../../../../../../Middlewares/Third_Party/LoRaWAN/Mac/region/RegionAS923.c ****                 break;
 834:../../../../../../Middlewares/Third_Party/LoRaWAN/Mac/region/RegionAS923.c ****             }
 835:../../../../../../Middlewares/Third_Party/LoRaWAN/Mac/region/RegionAS923.c ****             case LORAMAC_STATUS_DATARATE_INVALID:
 836:../../../../../../Middlewares/Third_Party/LoRaWAN/Mac/region/RegionAS923.c ****             {
 837:../../../../../../Middlewares/Third_Party/LoRaWAN/Mac/region/RegionAS923.c ****                 status &= 0xFD;
 838:../../../../../../Middlewares/Third_Party/LoRaWAN/Mac/region/RegionAS923.c ****                 break;
 839:../../../../../../Middlewares/Third_Party/LoRaWAN/Mac/region/RegionAS923.c ****             }
 840:../../../../../../Middlewares/Third_Party/LoRaWAN/Mac/region/RegionAS923.c ****             case LORAMAC_STATUS_FREQ_AND_DR_INVALID:
 841:../../../../../../Middlewares/Third_Party/LoRaWAN/Mac/region/RegionAS923.c ****             {
 842:../../../../../../Middlewares/Third_Party/LoRaWAN/Mac/region/RegionAS923.c ****                 status &= 0xFC;
 843:../../../../../../Middlewares/Third_Party/LoRaWAN/Mac/region/RegionAS923.c ****                 break;
 844:../../../../../../Middlewares/Third_Party/LoRaWAN/Mac/region/RegionAS923.c ****             }
 845:../../../../../../Middlewares/Third_Party/LoRaWAN/Mac/region/RegionAS923.c ****             default:
 846:../../../../../../Middlewares/Third_Party/LoRaWAN/Mac/region/RegionAS923.c ****             {
 847:../../../../../../Middlewares/Third_Party/LoRaWAN/Mac/region/RegionAS923.c ****                 status &= 0xFC;
 848:../../../../../../Middlewares/Third_Party/LoRaWAN/Mac/region/RegionAS923.c ****                 break;
 849:../../../../../../Middlewares/Third_Party/LoRaWAN/Mac/region/RegionAS923.c ****             }
 850:../../../../../../Middlewares/Third_Party/LoRaWAN/Mac/region/RegionAS923.c ****         }
 851:../../../../../../Middlewares/Third_Party/LoRaWAN/Mac/region/RegionAS923.c ****     }
 852:../../../../../../Middlewares/Third_Party/LoRaWAN/Mac/region/RegionAS923.c **** 
 853:../../../../../../Middlewares/Third_Party/LoRaWAN/Mac/region/RegionAS923.c ****     return status;
 854:../../../../../../Middlewares/Third_Party/LoRaWAN/Mac/region/RegionAS923.c **** }
 855:../../../../../../Middlewares/Third_Party/LoRaWAN/Mac/region/RegionAS923.c **** 
ARM GAS  C:\Users\EBANO_~1\AppData\Local\Temp\cc2nkIni.s 			page 31


 856:../../../../../../Middlewares/Third_Party/LoRaWAN/Mac/region/RegionAS923.c **** int8_t RegionAS923TxParamSetupReq( TxParamSetupReqParams_t* txParamSetupReq )
 857:../../../../../../Middlewares/Third_Party/LoRaWAN/Mac/region/RegionAS923.c **** {
 858:../../../../../../Middlewares/Third_Party/LoRaWAN/Mac/region/RegionAS923.c ****     // Accept the request
 859:../../../../../../Middlewares/Third_Party/LoRaWAN/Mac/region/RegionAS923.c ****     return 0;
 860:../../../../../../Middlewares/Third_Party/LoRaWAN/Mac/region/RegionAS923.c **** }
 861:../../../../../../Middlewares/Third_Party/LoRaWAN/Mac/region/RegionAS923.c **** 
 862:../../../../../../Middlewares/Third_Party/LoRaWAN/Mac/region/RegionAS923.c **** uint8_t RegionAS923DlChannelReq( DlChannelReqParams_t* dlChannelReq )
 863:../../../../../../Middlewares/Third_Party/LoRaWAN/Mac/region/RegionAS923.c **** {
 864:../../../../../../Middlewares/Third_Party/LoRaWAN/Mac/region/RegionAS923.c ****     uint8_t status = 0x03;
 865:../../../../../../Middlewares/Third_Party/LoRaWAN/Mac/region/RegionAS923.c **** 
 866:../../../../../../Middlewares/Third_Party/LoRaWAN/Mac/region/RegionAS923.c ****     // Verify if the frequency is supported
 867:../../../../../../Middlewares/Third_Party/LoRaWAN/Mac/region/RegionAS923.c ****     if( VerifyRfFreq( dlChannelReq->Rx1Frequency ) == false )
 868:../../../../../../Middlewares/Third_Party/LoRaWAN/Mac/region/RegionAS923.c ****     {
 869:../../../../../../Middlewares/Third_Party/LoRaWAN/Mac/region/RegionAS923.c ****         status &= 0xFE;
 870:../../../../../../Middlewares/Third_Party/LoRaWAN/Mac/region/RegionAS923.c ****     }
 871:../../../../../../Middlewares/Third_Party/LoRaWAN/Mac/region/RegionAS923.c **** 
 872:../../../../../../Middlewares/Third_Party/LoRaWAN/Mac/region/RegionAS923.c ****     // Verify if an uplink frequency exists
 873:../../../../../../Middlewares/Third_Party/LoRaWAN/Mac/region/RegionAS923.c ****     if( NvmCtx.Channels[dlChannelReq->ChannelId].Frequency == 0 )
 874:../../../../../../Middlewares/Third_Party/LoRaWAN/Mac/region/RegionAS923.c ****     {
 875:../../../../../../Middlewares/Third_Party/LoRaWAN/Mac/region/RegionAS923.c ****         status &= 0xFD;
 876:../../../../../../Middlewares/Third_Party/LoRaWAN/Mac/region/RegionAS923.c ****     }
 877:../../../../../../Middlewares/Third_Party/LoRaWAN/Mac/region/RegionAS923.c **** 
 878:../../../../../../Middlewares/Third_Party/LoRaWAN/Mac/region/RegionAS923.c ****     // Apply Rx1 frequency, if the status is OK
 879:../../../../../../Middlewares/Third_Party/LoRaWAN/Mac/region/RegionAS923.c ****     if( status == 0x03 )
 880:../../../../../../Middlewares/Third_Party/LoRaWAN/Mac/region/RegionAS923.c ****     {
 881:../../../../../../Middlewares/Third_Party/LoRaWAN/Mac/region/RegionAS923.c ****         NvmCtx.Channels[dlChannelReq->ChannelId].Rx1Frequency = dlChannelReq->Rx1Frequency;
 882:../../../../../../Middlewares/Third_Party/LoRaWAN/Mac/region/RegionAS923.c ****     }
 883:../../../../../../Middlewares/Third_Party/LoRaWAN/Mac/region/RegionAS923.c **** 
 884:../../../../../../Middlewares/Third_Party/LoRaWAN/Mac/region/RegionAS923.c ****     return status;
 885:../../../../../../Middlewares/Third_Party/LoRaWAN/Mac/region/RegionAS923.c **** }
 886:../../../../../../Middlewares/Third_Party/LoRaWAN/Mac/region/RegionAS923.c **** 
 887:../../../../../../Middlewares/Third_Party/LoRaWAN/Mac/region/RegionAS923.c **** int8_t RegionAS923AlternateDr( int8_t currentDr, AlternateDrType_t type )
 888:../../../../../../Middlewares/Third_Party/LoRaWAN/Mac/region/RegionAS923.c **** {
 889:../../../../../../Middlewares/Third_Party/LoRaWAN/Mac/region/RegionAS923.c ****     // Only AS923_DWELL_LIMIT_DATARATE is supported
 890:../../../../../../Middlewares/Third_Party/LoRaWAN/Mac/region/RegionAS923.c ****     return AS923_DWELL_LIMIT_DATARATE;
 891:../../../../../../Middlewares/Third_Party/LoRaWAN/Mac/region/RegionAS923.c **** }
 892:../../../../../../Middlewares/Third_Party/LoRaWAN/Mac/region/RegionAS923.c **** 
 893:../../../../../../Middlewares/Third_Party/LoRaWAN/Mac/region/RegionAS923.c **** void RegionAS923CalcBackOff( CalcBackOffParams_t* calcBackOff )
 894:../../../../../../Middlewares/Third_Party/LoRaWAN/Mac/region/RegionAS923.c **** {
 895:../../../../../../Middlewares/Third_Party/LoRaWAN/Mac/region/RegionAS923.c ****     RegionCommonCalcBackOffParams_t calcBackOffParams;
 896:../../../../../../Middlewares/Third_Party/LoRaWAN/Mac/region/RegionAS923.c **** 
 897:../../../../../../Middlewares/Third_Party/LoRaWAN/Mac/region/RegionAS923.c ****     calcBackOffParams.Channels = NvmCtx.Channels;
 898:../../../../../../Middlewares/Third_Party/LoRaWAN/Mac/region/RegionAS923.c ****     calcBackOffParams.Bands = NvmCtx.Bands;
 899:../../../../../../Middlewares/Third_Party/LoRaWAN/Mac/region/RegionAS923.c ****     calcBackOffParams.LastTxIsJoinRequest = calcBackOff->LastTxIsJoinRequest;
 900:../../../../../../Middlewares/Third_Party/LoRaWAN/Mac/region/RegionAS923.c ****     calcBackOffParams.Joined = calcBackOff->Joined;
 901:../../../../../../Middlewares/Third_Party/LoRaWAN/Mac/region/RegionAS923.c ****     calcBackOffParams.DutyCycleEnabled = calcBackOff->DutyCycleEnabled;
 902:../../../../../../Middlewares/Third_Party/LoRaWAN/Mac/region/RegionAS923.c ****     calcBackOffParams.Channel = calcBackOff->Channel;
 903:../../../../../../Middlewares/Third_Party/LoRaWAN/Mac/region/RegionAS923.c ****     calcBackOffParams.ElapsedTime = calcBackOff->ElapsedTime;
 904:../../../../../../Middlewares/Third_Party/LoRaWAN/Mac/region/RegionAS923.c ****     calcBackOffParams.TxTimeOnAir = calcBackOff->TxTimeOnAir;
 905:../../../../../../Middlewares/Third_Party/LoRaWAN/Mac/region/RegionAS923.c **** 
 906:../../../../../../Middlewares/Third_Party/LoRaWAN/Mac/region/RegionAS923.c ****     RegionCommonCalcBackOff( &calcBackOffParams );
 907:../../../../../../Middlewares/Third_Party/LoRaWAN/Mac/region/RegionAS923.c **** }
 908:../../../../../../Middlewares/Third_Party/LoRaWAN/Mac/region/RegionAS923.c **** 
 909:../../../../../../Middlewares/Third_Party/LoRaWAN/Mac/region/RegionAS923.c **** LoRaMacStatus_t RegionAS923NextChannel( NextChanParams_t* nextChanParams, uint8_t* channel, TimerTi
 910:../../../../../../Middlewares/Third_Party/LoRaWAN/Mac/region/RegionAS923.c **** {
 911:../../../../../../Middlewares/Third_Party/LoRaWAN/Mac/region/RegionAS923.c ****     uint8_t channelNext = 0;
 912:../../../../../../Middlewares/Third_Party/LoRaWAN/Mac/region/RegionAS923.c ****     uint8_t nbEnabledChannels = 0;
ARM GAS  C:\Users\EBANO_~1\AppData\Local\Temp\cc2nkIni.s 			page 32


 913:../../../../../../Middlewares/Third_Party/LoRaWAN/Mac/region/RegionAS923.c ****     uint8_t delayTx = 0;
 914:../../../../../../Middlewares/Third_Party/LoRaWAN/Mac/region/RegionAS923.c ****     uint8_t enabledChannels[AS923_MAX_NB_CHANNELS] = { 0 };
 915:../../../../../../Middlewares/Third_Party/LoRaWAN/Mac/region/RegionAS923.c ****     TimerTime_t nextTxDelay = 0;
 916:../../../../../../Middlewares/Third_Party/LoRaWAN/Mac/region/RegionAS923.c **** 
 917:../../../../../../Middlewares/Third_Party/LoRaWAN/Mac/region/RegionAS923.c ****     if( RegionCommonCountChannels( NvmCtx.ChannelsMask, 0, 1 ) == 0 )
 918:../../../../../../Middlewares/Third_Party/LoRaWAN/Mac/region/RegionAS923.c ****     { // Reactivate default channels
 919:../../../../../../Middlewares/Third_Party/LoRaWAN/Mac/region/RegionAS923.c ****         NvmCtx.ChannelsMask[0] |= LC( 1 ) + LC( 2 );
 920:../../../../../../Middlewares/Third_Party/LoRaWAN/Mac/region/RegionAS923.c ****     }
 921:../../../../../../Middlewares/Third_Party/LoRaWAN/Mac/region/RegionAS923.c **** 
 922:../../../../../../Middlewares/Third_Party/LoRaWAN/Mac/region/RegionAS923.c ****     if( nextChanParams->AggrTimeOff <= TimerGetElapsedTime( nextChanParams->LastAggrTx ) )
 923:../../../../../../Middlewares/Third_Party/LoRaWAN/Mac/region/RegionAS923.c ****     {
 924:../../../../../../Middlewares/Third_Party/LoRaWAN/Mac/region/RegionAS923.c ****         // Reset Aggregated time off
 925:../../../../../../Middlewares/Third_Party/LoRaWAN/Mac/region/RegionAS923.c ****         *aggregatedTimeOff = 0;
 926:../../../../../../Middlewares/Third_Party/LoRaWAN/Mac/region/RegionAS923.c **** 
 927:../../../../../../Middlewares/Third_Party/LoRaWAN/Mac/region/RegionAS923.c ****         // Update bands Time OFF
 928:../../../../../../Middlewares/Third_Party/LoRaWAN/Mac/region/RegionAS923.c ****         nextTxDelay = RegionCommonUpdateBandTimeOff( nextChanParams->Joined, nextChanParams->DutyCy
 929:../../../../../../Middlewares/Third_Party/LoRaWAN/Mac/region/RegionAS923.c **** 
 930:../../../../../../Middlewares/Third_Party/LoRaWAN/Mac/region/RegionAS923.c ****         // Search how many channels are enabled
 931:../../../../../../Middlewares/Third_Party/LoRaWAN/Mac/region/RegionAS923.c ****         nbEnabledChannels = CountNbOfEnabledChannels( nextChanParams->Joined, nextChanParams->Datar
 932:../../../../../../Middlewares/Third_Party/LoRaWAN/Mac/region/RegionAS923.c ****                                                       NvmCtx.ChannelsMask, NvmCtx.Channels,
 933:../../../../../../Middlewares/Third_Party/LoRaWAN/Mac/region/RegionAS923.c ****                                                       NvmCtx.Bands, enabledChannels, &delayTx );
 934:../../../../../../Middlewares/Third_Party/LoRaWAN/Mac/region/RegionAS923.c ****     }
 935:../../../../../../Middlewares/Third_Party/LoRaWAN/Mac/region/RegionAS923.c ****     else
 936:../../../../../../Middlewares/Third_Party/LoRaWAN/Mac/region/RegionAS923.c ****     {
 937:../../../../../../Middlewares/Third_Party/LoRaWAN/Mac/region/RegionAS923.c ****         delayTx++;
 938:../../../../../../Middlewares/Third_Party/LoRaWAN/Mac/region/RegionAS923.c ****         nextTxDelay = nextChanParams->AggrTimeOff - TimerGetElapsedTime( nextChanParams->LastAggrTx
 939:../../../../../../Middlewares/Third_Party/LoRaWAN/Mac/region/RegionAS923.c ****     }
 940:../../../../../../Middlewares/Third_Party/LoRaWAN/Mac/region/RegionAS923.c **** 
 941:../../../../../../Middlewares/Third_Party/LoRaWAN/Mac/region/RegionAS923.c ****     if( nbEnabledChannels > 0 )
 942:../../../../../../Middlewares/Third_Party/LoRaWAN/Mac/region/RegionAS923.c ****     {
 943:../../../../../../Middlewares/Third_Party/LoRaWAN/Mac/region/RegionAS923.c ****         for( uint8_t  i = 0, j = randr( 0, nbEnabledChannels - 1 ); i < AS923_MAX_NB_CHANNELS; i++ 
 944:../../../../../../Middlewares/Third_Party/LoRaWAN/Mac/region/RegionAS923.c ****         {
 945:../../../../../../Middlewares/Third_Party/LoRaWAN/Mac/region/RegionAS923.c ****             channelNext = enabledChannels[j];
 946:../../../../../../Middlewares/Third_Party/LoRaWAN/Mac/region/RegionAS923.c ****             j = ( j + 1 ) % nbEnabledChannels;
 947:../../../../../../Middlewares/Third_Party/LoRaWAN/Mac/region/RegionAS923.c **** 
 948:../../../../../../Middlewares/Third_Party/LoRaWAN/Mac/region/RegionAS923.c ****             // Perform carrier sense for AS923_CARRIER_SENSE_TIME
 949:../../../../../../Middlewares/Third_Party/LoRaWAN/Mac/region/RegionAS923.c ****             // If the channel is free, we can stop the LBT mechanism
 950:../../../../../../Middlewares/Third_Party/LoRaWAN/Mac/region/RegionAS923.c ****             if( Radio.IsChannelFree( MODEM_LORA, NvmCtx.Channels[channelNext].Frequency, AS923_RSSI
 951:../../../../../../Middlewares/Third_Party/LoRaWAN/Mac/region/RegionAS923.c ****             {
 952:../../../../../../Middlewares/Third_Party/LoRaWAN/Mac/region/RegionAS923.c ****                 // Free channel found
 953:../../../../../../Middlewares/Third_Party/LoRaWAN/Mac/region/RegionAS923.c ****                 *channel = channelNext;
 954:../../../../../../Middlewares/Third_Party/LoRaWAN/Mac/region/RegionAS923.c ****                 *time = 0;
 955:../../../../../../Middlewares/Third_Party/LoRaWAN/Mac/region/RegionAS923.c ****                 return LORAMAC_STATUS_OK;
 956:../../../../../../Middlewares/Third_Party/LoRaWAN/Mac/region/RegionAS923.c ****             }
 957:../../../../../../Middlewares/Third_Party/LoRaWAN/Mac/region/RegionAS923.c ****         }
 958:../../../../../../Middlewares/Third_Party/LoRaWAN/Mac/region/RegionAS923.c ****         return LORAMAC_STATUS_NO_FREE_CHANNEL_FOUND;
 959:../../../../../../Middlewares/Third_Party/LoRaWAN/Mac/region/RegionAS923.c ****     }
 960:../../../../../../Middlewares/Third_Party/LoRaWAN/Mac/region/RegionAS923.c ****     else
 961:../../../../../../Middlewares/Third_Party/LoRaWAN/Mac/region/RegionAS923.c ****     {
 962:../../../../../../Middlewares/Third_Party/LoRaWAN/Mac/region/RegionAS923.c ****         if( delayTx > 0 )
 963:../../../../../../Middlewares/Third_Party/LoRaWAN/Mac/region/RegionAS923.c ****         {
 964:../../../../../../Middlewares/Third_Party/LoRaWAN/Mac/region/RegionAS923.c ****             // Delay transmission due to AggregatedTimeOff or to a band time off
 965:../../../../../../Middlewares/Third_Party/LoRaWAN/Mac/region/RegionAS923.c ****             *time = nextTxDelay;
 966:../../../../../../Middlewares/Third_Party/LoRaWAN/Mac/region/RegionAS923.c ****             return LORAMAC_STATUS_DUTYCYCLE_RESTRICTED;
 967:../../../../../../Middlewares/Third_Party/LoRaWAN/Mac/region/RegionAS923.c ****         }
 968:../../../../../../Middlewares/Third_Party/LoRaWAN/Mac/region/RegionAS923.c ****         // Datarate not supported by any channel, restore defaults
 969:../../../../../../Middlewares/Third_Party/LoRaWAN/Mac/region/RegionAS923.c ****         NvmCtx.ChannelsMask[0] |= LC( 1 ) + LC( 2 );
ARM GAS  C:\Users\EBANO_~1\AppData\Local\Temp\cc2nkIni.s 			page 33


 970:../../../../../../Middlewares/Third_Party/LoRaWAN/Mac/region/RegionAS923.c ****         *time = 0;
 971:../../../../../../Middlewares/Third_Party/LoRaWAN/Mac/region/RegionAS923.c ****         return LORAMAC_STATUS_NO_CHANNEL_FOUND;
 972:../../../../../../Middlewares/Third_Party/LoRaWAN/Mac/region/RegionAS923.c ****     }
 973:../../../../../../Middlewares/Third_Party/LoRaWAN/Mac/region/RegionAS923.c **** }
 974:../../../../../../Middlewares/Third_Party/LoRaWAN/Mac/region/RegionAS923.c **** 
 975:../../../../../../Middlewares/Third_Party/LoRaWAN/Mac/region/RegionAS923.c **** LoRaMacStatus_t RegionAS923ChannelAdd( ChannelAddParams_t* channelAdd )
 976:../../../../../../Middlewares/Third_Party/LoRaWAN/Mac/region/RegionAS923.c **** {
 977:../../../../../../Middlewares/Third_Party/LoRaWAN/Mac/region/RegionAS923.c ****     bool drInvalid = false;
 978:../../../../../../Middlewares/Third_Party/LoRaWAN/Mac/region/RegionAS923.c ****     bool freqInvalid = false;
 979:../../../../../../Middlewares/Third_Party/LoRaWAN/Mac/region/RegionAS923.c ****     uint8_t id = channelAdd->ChannelId;
 980:../../../../../../Middlewares/Third_Party/LoRaWAN/Mac/region/RegionAS923.c **** 
 981:../../../../../../Middlewares/Third_Party/LoRaWAN/Mac/region/RegionAS923.c ****     if( id < AS923_NUMB_DEFAULT_CHANNELS )
 982:../../../../../../Middlewares/Third_Party/LoRaWAN/Mac/region/RegionAS923.c ****     {
 983:../../../../../../Middlewares/Third_Party/LoRaWAN/Mac/region/RegionAS923.c ****         return LORAMAC_STATUS_FREQ_AND_DR_INVALID;
 984:../../../../../../Middlewares/Third_Party/LoRaWAN/Mac/region/RegionAS923.c ****     }
 985:../../../../../../Middlewares/Third_Party/LoRaWAN/Mac/region/RegionAS923.c **** 
 986:../../../../../../Middlewares/Third_Party/LoRaWAN/Mac/region/RegionAS923.c ****     if( id >= AS923_MAX_NB_CHANNELS )
 987:../../../../../../Middlewares/Third_Party/LoRaWAN/Mac/region/RegionAS923.c ****     {
 988:../../../../../../Middlewares/Third_Party/LoRaWAN/Mac/region/RegionAS923.c ****         return LORAMAC_STATUS_PARAMETER_INVALID;
 989:../../../../../../Middlewares/Third_Party/LoRaWAN/Mac/region/RegionAS923.c ****     }
 990:../../../../../../Middlewares/Third_Party/LoRaWAN/Mac/region/RegionAS923.c **** 
 991:../../../../../../Middlewares/Third_Party/LoRaWAN/Mac/region/RegionAS923.c ****     // Validate the datarate range
 992:../../../../../../Middlewares/Third_Party/LoRaWAN/Mac/region/RegionAS923.c ****     if( RegionCommonValueInRange( channelAdd->NewChannel->DrRange.Fields.Min, AS923_TX_MIN_DATARATE
 993:../../../../../../Middlewares/Third_Party/LoRaWAN/Mac/region/RegionAS923.c ****     {
 994:../../../../../../Middlewares/Third_Party/LoRaWAN/Mac/region/RegionAS923.c ****         drInvalid = true;
 995:../../../../../../Middlewares/Third_Party/LoRaWAN/Mac/region/RegionAS923.c ****     }
 996:../../../../../../Middlewares/Third_Party/LoRaWAN/Mac/region/RegionAS923.c ****     if( RegionCommonValueInRange( channelAdd->NewChannel->DrRange.Fields.Max, AS923_TX_MIN_DATARATE
 997:../../../../../../Middlewares/Third_Party/LoRaWAN/Mac/region/RegionAS923.c ****     {
 998:../../../../../../Middlewares/Third_Party/LoRaWAN/Mac/region/RegionAS923.c ****         drInvalid = true;
 999:../../../../../../Middlewares/Third_Party/LoRaWAN/Mac/region/RegionAS923.c ****     }
1000:../../../../../../Middlewares/Third_Party/LoRaWAN/Mac/region/RegionAS923.c ****     if( channelAdd->NewChannel->DrRange.Fields.Min > channelAdd->NewChannel->DrRange.Fields.Max )
1001:../../../../../../Middlewares/Third_Party/LoRaWAN/Mac/region/RegionAS923.c ****     {
1002:../../../../../../Middlewares/Third_Party/LoRaWAN/Mac/region/RegionAS923.c ****         drInvalid = true;
1003:../../../../../../Middlewares/Third_Party/LoRaWAN/Mac/region/RegionAS923.c ****     }
1004:../../../../../../Middlewares/Third_Party/LoRaWAN/Mac/region/RegionAS923.c **** 
1005:../../../../../../Middlewares/Third_Party/LoRaWAN/Mac/region/RegionAS923.c ****     // Check frequency
1006:../../../../../../Middlewares/Third_Party/LoRaWAN/Mac/region/RegionAS923.c ****     if( freqInvalid == false )
1007:../../../../../../Middlewares/Third_Party/LoRaWAN/Mac/region/RegionAS923.c ****     {
1008:../../../../../../Middlewares/Third_Party/LoRaWAN/Mac/region/RegionAS923.c ****         if( VerifyRfFreq( channelAdd->NewChannel->Frequency ) == false )
1009:../../../../../../Middlewares/Third_Party/LoRaWAN/Mac/region/RegionAS923.c ****         {
1010:../../../../../../Middlewares/Third_Party/LoRaWAN/Mac/region/RegionAS923.c ****             freqInvalid = true;
1011:../../../../../../Middlewares/Third_Party/LoRaWAN/Mac/region/RegionAS923.c ****         }
1012:../../../../../../Middlewares/Third_Party/LoRaWAN/Mac/region/RegionAS923.c ****     }
1013:../../../../../../Middlewares/Third_Party/LoRaWAN/Mac/region/RegionAS923.c **** 
1014:../../../../../../Middlewares/Third_Party/LoRaWAN/Mac/region/RegionAS923.c ****     // Check status
1015:../../../../../../Middlewares/Third_Party/LoRaWAN/Mac/region/RegionAS923.c ****     if( ( drInvalid == true ) && ( freqInvalid == true ) )
1016:../../../../../../Middlewares/Third_Party/LoRaWAN/Mac/region/RegionAS923.c ****     {
1017:../../../../../../Middlewares/Third_Party/LoRaWAN/Mac/region/RegionAS923.c ****         return LORAMAC_STATUS_FREQ_AND_DR_INVALID;
1018:../../../../../../Middlewares/Third_Party/LoRaWAN/Mac/region/RegionAS923.c ****     }
1019:../../../../../../Middlewares/Third_Party/LoRaWAN/Mac/region/RegionAS923.c ****     if( drInvalid == true )
1020:../../../../../../Middlewares/Third_Party/LoRaWAN/Mac/region/RegionAS923.c ****     {
1021:../../../../../../Middlewares/Third_Party/LoRaWAN/Mac/region/RegionAS923.c ****         return LORAMAC_STATUS_DATARATE_INVALID;
1022:../../../../../../Middlewares/Third_Party/LoRaWAN/Mac/region/RegionAS923.c ****     }
1023:../../../../../../Middlewares/Third_Party/LoRaWAN/Mac/region/RegionAS923.c ****     if( freqInvalid == true )
1024:../../../../../../Middlewares/Third_Party/LoRaWAN/Mac/region/RegionAS923.c ****     {
1025:../../../../../../Middlewares/Third_Party/LoRaWAN/Mac/region/RegionAS923.c ****         return LORAMAC_STATUS_FREQUENCY_INVALID;
1026:../../../../../../Middlewares/Third_Party/LoRaWAN/Mac/region/RegionAS923.c ****     }
ARM GAS  C:\Users\EBANO_~1\AppData\Local\Temp\cc2nkIni.s 			page 34


1027:../../../../../../Middlewares/Third_Party/LoRaWAN/Mac/region/RegionAS923.c **** 
1028:../../../../../../Middlewares/Third_Party/LoRaWAN/Mac/region/RegionAS923.c ****     memcpy1( ( uint8_t* ) &(NvmCtx.Channels[id]), ( uint8_t* ) channelAdd->NewChannel, sizeof( NvmC
1029:../../../../../../Middlewares/Third_Party/LoRaWAN/Mac/region/RegionAS923.c ****     NvmCtx.Channels[id].Band = 0;
1030:../../../../../../Middlewares/Third_Party/LoRaWAN/Mac/region/RegionAS923.c ****     NvmCtx.ChannelsMask[0] |= ( 1 << id );
1031:../../../../../../Middlewares/Third_Party/LoRaWAN/Mac/region/RegionAS923.c ****     return LORAMAC_STATUS_OK;
1032:../../../../../../Middlewares/Third_Party/LoRaWAN/Mac/region/RegionAS923.c **** }
1033:../../../../../../Middlewares/Third_Party/LoRaWAN/Mac/region/RegionAS923.c **** 
1034:../../../../../../Middlewares/Third_Party/LoRaWAN/Mac/region/RegionAS923.c **** bool RegionAS923ChannelsRemove( ChannelRemoveParams_t* channelRemove  )
1035:../../../../../../Middlewares/Third_Party/LoRaWAN/Mac/region/RegionAS923.c **** {
1036:../../../../../../Middlewares/Third_Party/LoRaWAN/Mac/region/RegionAS923.c ****     uint8_t id = channelRemove->ChannelId;
1037:../../../../../../Middlewares/Third_Party/LoRaWAN/Mac/region/RegionAS923.c **** 
1038:../../../../../../Middlewares/Third_Party/LoRaWAN/Mac/region/RegionAS923.c ****     if( id < AS923_NUMB_DEFAULT_CHANNELS )
1039:../../../../../../Middlewares/Third_Party/LoRaWAN/Mac/region/RegionAS923.c ****     {
1040:../../../../../../Middlewares/Third_Party/LoRaWAN/Mac/region/RegionAS923.c ****         return false;
1041:../../../../../../Middlewares/Third_Party/LoRaWAN/Mac/region/RegionAS923.c ****     }
1042:../../../../../../Middlewares/Third_Party/LoRaWAN/Mac/region/RegionAS923.c **** 
1043:../../../../../../Middlewares/Third_Party/LoRaWAN/Mac/region/RegionAS923.c ****     // Remove the channel from the list of channels
1044:../../../../../../Middlewares/Third_Party/LoRaWAN/Mac/region/RegionAS923.c ****     NvmCtx.Channels[id] = ( ChannelParams_t ){ 0, 0, { 0 }, 0 };
 778              		.loc 1 1044 0
 779 0032 3F4B     		ldr	r3, .L96
 780              	.LBE37:
 781              	.LBE36:
 782              	.LBE35:
 783 0034 0224     		movs	r4, #2
 784              	.LBB50:
 785              	.LBB40:
 786              	.LBB38:
 787 0036 9A46     		mov	r10, r3
 788 0038 3E4B     		ldr	r3, .L96+4
 789 003a 9B46     		mov	fp, r3
 790 003c 13E0     		b	.L86
 791              	.LVL47:
 792              	.L80:
 793              	.LBE38:
 794              	.LBE40:
 519:../../../../../../Middlewares/Third_Party/LoRaWAN/Mac/region/RegionAS923.c ****             newChannel.DrRange.Value = 0;
 795              		.loc 1 519 0
 796 003e 0023     		movs	r3, #0
 797              	.LVL48:
 798 0040 6600     		lsls	r6, r4, #1
 799 0042 2B60     		str	r3, [r5]
 520:../../../../../../Middlewares/Third_Party/LoRaWAN/Mac/region/RegionAS923.c ****             newChannel.Rx1Frequency = 0;
 800              		.loc 1 520 0
 801 0044 2B72     		strb	r3, [r5, #8]
 521:../../../../../../Middlewares/Third_Party/LoRaWAN/Mac/region/RegionAS923.c ****         }
 802              		.loc 1 521 0
 803 0046 6B60     		str	r3, [r5, #4]
 804              	.L82:
 805              	.LVL49:
 806              	.LBB41:
 807              	.LBB39:
 808              		.loc 1 1044 0
 809 0048 3019     		adds	r0, r6, r4
 810 004a 8000     		lsls	r0, r0, #2
 811 004c 0C22     		movs	r2, #12
 812 004e 0021     		movs	r1, #0
 813 0050 5044     		add	r0, r0, r10
ARM GAS  C:\Users\EBANO_~1\AppData\Local\Temp\cc2nkIni.s 			page 35


 814 0052 FFF7FEFF 		bl	memset
 815              	.LVL50:
1045:../../../../../../Middlewares/Third_Party/LoRaWAN/Mac/region/RegionAS923.c **** 
1046:../../../../../../Middlewares/Third_Party/LoRaWAN/Mac/region/RegionAS923.c ****     return RegionCommonChanDisable( NvmCtx.ChannelsMask, id, AS923_MAX_NB_CHANNELS );
 816              		.loc 1 1046 0
 817 0056 1022     		movs	r2, #16
 818 0058 4146     		mov	r1, r8
 819 005a 3748     		ldr	r0, .L96+8
 820 005c FFF7FEFF 		bl	RegionCommonChanDisable
 821              	.LVL51:
 822              	.L84:
 823 0060 0134     		adds	r4, r4, #1
 824              	.LVL52:
 825              	.LBE39:
 826              	.LBE41:
 504:../../../../../../Middlewares/Third_Party/LoRaWAN/Mac/region/RegionAS923.c ****     {
 827              		.loc 1 504 0 discriminator 2
 828 0062 102C     		cmp	r4, #16
 829 0064 DAD0     		beq	.L78
 830              	.L86:
 831 0066 E3B2     		uxtb	r3, r4
 832 0068 9846     		mov	r8, r3
 833              	.LVL53:
 506:../../../../../../Middlewares/Third_Party/LoRaWAN/Mac/region/RegionAS923.c ****         {
 834              		.loc 1 506 0
 835 006a 062C     		cmp	r4, #6
 836 006c E7D8     		bhi	.L80
 509:../../../../../../Middlewares/Third_Party/LoRaWAN/Mac/region/RegionAS923.c ****             newChannel.Frequency |= ( (uint32_t) applyCFList->Payload[i + 1] << 8 );
 837              		.loc 1 509 0
 838 006e 3A68     		ldr	r2, [r7]
 839 0070 6600     		lsls	r6, r4, #1
 840 0072 9446     		mov	ip, r2
 841 0074 3319     		adds	r3, r6, r4
 842              	.LVL54:
 843 0076 6344     		add	r3, r3, ip
 844 0078 9A1F     		subs	r2, r3, #6
 845 007a 1178     		ldrb	r1, [r2]
 510:../../../../../../Middlewares/Third_Party/LoRaWAN/Mac/region/RegionAS923.c ****             newChannel.Frequency |= ( (uint32_t) applyCFList->Payload[i + 2] << 16 );
 846              		.loc 1 510 0
 847 007c 5A1F     		subs	r2, r3, #5
 509:../../../../../../Middlewares/Third_Party/LoRaWAN/Mac/region/RegionAS923.c ****             newChannel.Frequency |= ( (uint32_t) applyCFList->Payload[i + 1] << 8 );
 848              		.loc 1 509 0
 849 007e 2960     		str	r1, [r5]
 510:../../../../../../Middlewares/Third_Party/LoRaWAN/Mac/region/RegionAS923.c ****             newChannel.Frequency |= ( (uint32_t) applyCFList->Payload[i + 2] << 16 );
 850              		.loc 1 510 0
 851 0080 1278     		ldrb	r2, [r2]
 511:../../../../../../Middlewares/Third_Party/LoRaWAN/Mac/region/RegionAS923.c ****             newChannel.Frequency *= 100;
 852              		.loc 1 511 0
 853 0082 043B     		subs	r3, r3, #4
 510:../../../../../../Middlewares/Third_Party/LoRaWAN/Mac/region/RegionAS923.c ****             newChannel.Frequency |= ( (uint32_t) applyCFList->Payload[i + 2] << 16 );
 854              		.loc 1 510 0
 855 0084 1202     		lsls	r2, r2, #8
 856 0086 0A43     		orrs	r2, r1
 857 0088 2A60     		str	r2, [r5]
 511:../../../../../../Middlewares/Third_Party/LoRaWAN/Mac/region/RegionAS923.c ****             newChannel.Frequency *= 100;
 858              		.loc 1 511 0
 859 008a 1B78     		ldrb	r3, [r3]
ARM GAS  C:\Users\EBANO_~1\AppData\Local\Temp\cc2nkIni.s 			page 36


 860 008c 1B04     		lsls	r3, r3, #16
 861 008e 1A43     		orrs	r2, r3
 512:../../../../../../Middlewares/Third_Party/LoRaWAN/Mac/region/RegionAS923.c **** 
 862              		.loc 1 512 0
 863 0090 6423     		movs	r3, #100
 864 0092 5A43     		muls	r2, r3
 515:../../../../../../Middlewares/Third_Party/LoRaWAN/Mac/region/RegionAS923.c ****         }
 865              		.loc 1 515 0
 866 0094 0023     		movs	r3, #0
 512:../../../../../../Middlewares/Third_Party/LoRaWAN/Mac/region/RegionAS923.c **** 
 867              		.loc 1 512 0
 868 0096 2A60     		str	r2, [r5]
 515:../../../../../../Middlewares/Third_Party/LoRaWAN/Mac/region/RegionAS923.c ****         }
 869              		.loc 1 515 0
 870 0098 6B60     		str	r3, [r5, #4]
 524:../../../../../../Middlewares/Third_Party/LoRaWAN/Mac/region/RegionAS923.c ****         {
 871              		.loc 1 524 0
 872 009a 002A     		cmp	r2, #0
 873 009c D4D0     		beq	.L82
 874              	.LVL55:
 875              	.LBB42:
 876              	.LBB43:
 992:../../../../../../Middlewares/Third_Party/LoRaWAN/Mac/region/RegionAS923.c ****     {
 877              		.loc 1 992 0
 878 009e 287A     		ldrb	r0, [r5, #8]
 879 00a0 0722     		movs	r2, #7
 880 00a2 0007     		lsls	r0, r0, #28
 881 00a4 0021     		movs	r1, #0
 882 00a6 0017     		asrs	r0, r0, #28
 883 00a8 FFF7FEFF 		bl	RegionCommonValueInRange
 884              	.LVL56:
 885 00ac 8046     		mov	r8, r0
 886              	.LVL57:
 996:../../../../../../Middlewares/Third_Party/LoRaWAN/Mac/region/RegionAS923.c ****     {
 887              		.loc 1 996 0
 888 00ae 0820     		movs	r0, #8
 889 00b0 2856     		ldrsb	r0, [r5, r0]
 890 00b2 0722     		movs	r2, #7
 891 00b4 0011     		asrs	r0, r0, #4
 892 00b6 0021     		movs	r1, #0
 893 00b8 FFF7FEFF 		bl	RegionCommonValueInRange
 894              	.LVL58:
 998:../../../../../../Middlewares/Third_Party/LoRaWAN/Mac/region/RegionAS923.c ****     }
 895              		.loc 1 998 0
 896 00bc 0123     		movs	r3, #1
 897 00be 9946     		mov	r9, r3
 996:../../../../../../Middlewares/Third_Party/LoRaWAN/Mac/region/RegionAS923.c ****     {
 898              		.loc 1 996 0
 899 00c0 0028     		cmp	r0, #0
 900 00c2 04D0     		beq	.L87
 992:../../../../../../Middlewares/Third_Party/LoRaWAN/Mac/region/RegionAS923.c ****     {
 901              		.loc 1 992 0
 902 00c4 4346     		mov	r3, r8
 903 00c6 5A42     		rsbs	r2, r3, #0
 904 00c8 5341     		adcs	r3, r3, r2
 905 00ca DBB2     		uxtb	r3, r3
 906 00cc 9946     		mov	r9, r3
ARM GAS  C:\Users\EBANO_~1\AppData\Local\Temp\cc2nkIni.s 			page 37


 907              	.L87:
 908              	.LVL59:
 909 00ce 2B68     		ldr	r3, [r5]
 910 00d0 9846     		mov	r8, r3
 911 00d2 5B46     		mov	r3, fp
 912 00d4 9B6A     		ldr	r3, [r3, #40]
 913              	.LBB44:
 914              	.LBB45:
 111:../../../../../../Middlewares/Third_Party/LoRaWAN/Mac/region/RegionAS923.c ****     {
 915              		.loc 1 111 0
 916 00d6 4046     		mov	r0, r8
 917 00d8 0193     		str	r3, [sp, #4]
 918              	.LBE45:
 919              	.LBE44:
1000:../../../../../../Middlewares/Third_Party/LoRaWAN/Mac/region/RegionAS923.c ****     {
 920              		.loc 1 1000 0
 921 00da 2B7A     		ldrb	r3, [r5, #8]
 922 00dc 1A07     		lsls	r2, r3, #28
 923 00de 5BB2     		sxtb	r3, r3
 924 00e0 1217     		asrs	r2, r2, #28
 925 00e2 1B11     		asrs	r3, r3, #4
 926 00e4 9A42     		cmp	r2, r3
 927 00e6 20DC     		bgt	.L83
 928              	.LVL60:
 929              	.LBB48:
 930              	.LBB46:
 111:../../../../../../Middlewares/Third_Party/LoRaWAN/Mac/region/RegionAS923.c ****     {
 931              		.loc 1 111 0
 932 00e8 019B     		ldr	r3, [sp, #4]
 933 00ea 9847     		blx	r3
 934              	.LVL61:
 935 00ec 0028     		cmp	r0, #0
 936 00ee B7D0     		beq	.L84
 116:../../../../../../Middlewares/Third_Party/LoRaWAN/Mac/region/RegionAS923.c ****     {
 937              		.loc 1 116 0
 938 00f0 124A     		ldr	r2, .L96+12
 939 00f2 134B     		ldr	r3, .L96+16
 940 00f4 4244     		add	r2, r2, r8
 941 00f6 9A42     		cmp	r2, r3
 942 00f8 B2D8     		bhi	.L84
 943              	.LBE46:
 944              	.LBE48:
1015:../../../../../../Middlewares/Third_Party/LoRaWAN/Mac/region/RegionAS923.c ****     {
 945              		.loc 1 1015 0
 946 00fa 4B46     		mov	r3, r9
 947 00fc 002B     		cmp	r3, #0
 948 00fe AFD1     		bne	.L84
1028:../../../../../../Middlewares/Third_Party/LoRaWAN/Mac/region/RegionAS923.c ****     NvmCtx.Channels[id].Band = 0;
 949              		.loc 1 1028 0
 950 0100 0B4B     		ldr	r3, .L96
 951 0102 3619     		adds	r6, r6, r4
 952 0104 9846     		mov	r8, r3
 953 0106 B600     		lsls	r6, r6, #2
 954 0108 4644     		add	r6, r6, r8
 955 010a 0C22     		movs	r2, #12
 956 010c 2900     		movs	r1, r5
 957 010e 3000     		movs	r0, r6
ARM GAS  C:\Users\EBANO_~1\AppData\Local\Temp\cc2nkIni.s 			page 38


 958 0110 FFF7FEFF 		bl	memcpy1
 959              	.LVL62:
1029:../../../../../../Middlewares/Third_Party/LoRaWAN/Mac/region/RegionAS923.c ****     NvmCtx.ChannelsMask[0] |= ( 1 << id );
 960              		.loc 1 1029 0
 961 0114 4B46     		mov	r3, r9
1030:../../../../../../Middlewares/Third_Party/LoRaWAN/Mac/region/RegionAS923.c ****     return LORAMAC_STATUS_OK;
 962              		.loc 1 1030 0
 963 0116 0122     		movs	r2, #1
1029:../../../../../../Middlewares/Third_Party/LoRaWAN/Mac/region/RegionAS923.c ****     NvmCtx.ChannelsMask[0] |= ( 1 << id );
 964              		.loc 1 1029 0
 965 0118 7372     		strb	r3, [r6, #9]
1030:../../../../../../Middlewares/Third_Party/LoRaWAN/Mac/region/RegionAS923.c ****     return LORAMAC_STATUS_OK;
 966              		.loc 1 1030 0
 967 011a D021     		movs	r1, #208
 968 011c 4346     		mov	r3, r8
 969 011e A240     		lsls	r2, r2, r4
 970 0120 5B5A     		ldrh	r3, [r3, r1]
 971 0122 1343     		orrs	r3, r2
 972 0124 4246     		mov	r2, r8
 973 0126 5352     		strh	r3, [r2, r1]
 974 0128 9AE7     		b	.L84
 975              	.L83:
 976              	.LVL63:
 977              	.LBB49:
 978              	.LBB47:
 111:../../../../../../Middlewares/Third_Party/LoRaWAN/Mac/region/RegionAS923.c ****     {
 979              		.loc 1 111 0
 980 012a 019B     		ldr	r3, [sp, #4]
 981 012c 9847     		blx	r3
 982              	.LVL64:
 983 012e 97E7     		b	.L84
 984              	.L97:
 985              		.align	2
 986              	.L96:
 987 0130 00000000 		.word	NvmCtx
 988 0134 00000000 		.word	Radio
 989 0138 D0000000 		.word	NvmCtx+208
 990 013c 403576C9 		.word	-915000000
 991 0140 405DC600 		.word	13000000
 992              	.LBE47:
 993              	.LBE49:
 994              	.LBE43:
 995              	.LBE42:
 996              	.LBE50:
 997              		.cfi_endproc
 998              	.LFE49:
 999              		.size	RegionAS923ApplyCFList, .-RegionAS923ApplyCFList
 1000              		.section	.text.RegionAS923ChanMaskSet,"ax",%progbits
 1001              		.align	1
 1002              		.p2align 2,,3
 1003              		.global	RegionAS923ChanMaskSet
 1004              		.syntax unified
 1005              		.code	16
 1006              		.thumb_func
 1007              		.fpu softvfp
 1008              		.type	RegionAS923ChanMaskSet, %function
 1009              	RegionAS923ChanMaskSet:
ARM GAS  C:\Users\EBANO_~1\AppData\Local\Temp\cc2nkIni.s 			page 39


 1010              	.LFB50:
 542:../../../../../../Middlewares/Third_Party/LoRaWAN/Mac/region/RegionAS923.c ****     switch( chanMaskSet->ChannelsMaskType )
 1011              		.loc 1 542 0
 1012              		.cfi_startproc
 1013              		@ args = 0, pretend = 0, frame = 0
 1014              		@ frame_needed = 0, uses_anonymous_args = 0
 1015              	.LVL65:
 1016 0000 10B5     		push	{r4, lr}
 1017              	.LCFI9:
 1018              		.cfi_def_cfa_offset 8
 1019              		.cfi_offset 4, -8
 1020              		.cfi_offset 14, -4
 543:../../../../../../Middlewares/Third_Party/LoRaWAN/Mac/region/RegionAS923.c ****     {
 1021              		.loc 1 543 0
 1022 0002 0379     		ldrb	r3, [r0, #4]
 1023 0004 002B     		cmp	r3, #0
 1024 0006 0AD0     		beq	.L100
 1025 0008 012B     		cmp	r3, #1
 1026 000a 01D0     		beq	.L101
 556:../../../../../../Middlewares/Third_Party/LoRaWAN/Mac/region/RegionAS923.c ****     }
 1027              		.loc 1 556 0
 1028 000c 0020     		movs	r0, #0
 1029              	.LVL66:
 1030              	.L99:
 559:../../../../../../Middlewares/Third_Party/LoRaWAN/Mac/region/RegionAS923.c **** 
 1031              		.loc 1 559 0
 1032              		@ sp needed
 1033 000e 10BD     		pop	{r4, pc}
 1034              	.LVL67:
 1035              	.L101:
 552:../../../../../../Middlewares/Third_Party/LoRaWAN/Mac/region/RegionAS923.c ****             break;
 1036              		.loc 1 552 0
 1037 0010 0168     		ldr	r1, [r0]
 1038 0012 0122     		movs	r2, #1
 1039 0014 0548     		ldr	r0, .L104
 1040              	.LVL68:
 1041 0016 FFF7FEFF 		bl	RegionCommonChanMaskCopy
 1042              	.LVL69:
 558:../../../../../../Middlewares/Third_Party/LoRaWAN/Mac/region/RegionAS923.c **** }
 1043              		.loc 1 558 0
 1044 001a 0120     		movs	r0, #1
 553:../../../../../../Middlewares/Third_Party/LoRaWAN/Mac/region/RegionAS923.c ****         }
 1045              		.loc 1 553 0
 1046 001c F7E7     		b	.L99
 1047              	.LVL70:
 1048              	.L100:
 547:../../../../../../Middlewares/Third_Party/LoRaWAN/Mac/region/RegionAS923.c ****             break;
 1049              		.loc 1 547 0
 1050 001e 0168     		ldr	r1, [r0]
 1051 0020 0122     		movs	r2, #1
 1052 0022 0348     		ldr	r0, .L104+4
 1053              	.LVL71:
 1054 0024 FFF7FEFF 		bl	RegionCommonChanMaskCopy
 1055              	.LVL72:
 558:../../../../../../Middlewares/Third_Party/LoRaWAN/Mac/region/RegionAS923.c **** }
 1056              		.loc 1 558 0
 1057 0028 0120     		movs	r0, #1
ARM GAS  C:\Users\EBANO_~1\AppData\Local\Temp\cc2nkIni.s 			page 40


 548:../../../../../../Middlewares/Third_Party/LoRaWAN/Mac/region/RegionAS923.c ****         }
 1058              		.loc 1 548 0
 1059 002a F0E7     		b	.L99
 1060              	.L105:
 1061              		.align	2
 1062              	.L104:
 1063 002c D2000000 		.word	NvmCtx+210
 1064 0030 D0000000 		.word	NvmCtx+208
 1065              		.cfi_endproc
 1066              	.LFE50:
 1067              		.size	RegionAS923ChanMaskSet, .-RegionAS923ChanMaskSet
 1068              		.section	.text.RegionAS923ComputeRxWindowParameters,"ax",%progbits
 1069              		.align	1
 1070              		.p2align 2,,3
 1071              		.global	RegionAS923ComputeRxWindowParameters
 1072              		.syntax unified
 1073              		.code	16
 1074              		.thumb_func
 1075              		.fpu softvfp
 1076              		.type	RegionAS923ComputeRxWindowParameters, %function
 1077              	RegionAS923ComputeRxWindowParameters:
 1078              	.LFB51:
 562:../../../../../../Middlewares/Third_Party/LoRaWAN/Mac/region/RegionAS923.c ****     double tSymbol = 0.0;
 1079              		.loc 1 562 0
 1080              		.cfi_startproc
 1081              		@ args = 0, pretend = 0, frame = 8
 1082              		@ frame_needed = 0, uses_anonymous_args = 0
 1083              	.LVL73:
 1084 0000 F0B5     		push	{r4, r5, r6, r7, lr}
 1085              	.LCFI10:
 1086              		.cfi_def_cfa_offset 20
 1087              		.cfi_offset 4, -20
 1088              		.cfi_offset 5, -16
 1089              		.cfi_offset 6, -12
 1090              		.cfi_offset 7, -8
 1091              		.cfi_offset 14, -4
 1092 0002 C646     		mov	lr, r8
 1093 0004 00B5     		push	{lr}
 1094              	.LCFI11:
 1095              		.cfi_def_cfa_offset 24
 1096              		.cfi_offset 8, -24
 1097 0006 1C00     		movs	r4, r3
 1098 0008 86B0     		sub	sp, sp, #24
 1099              	.LCFI12:
 1100              		.cfi_def_cfa_offset 48
 562:../../../../../../Middlewares/Third_Party/LoRaWAN/Mac/region/RegionAS923.c ****     double tSymbol = 0.0;
 1101              		.loc 1 562 0
 1102 000a 0D00     		movs	r5, r1
 1103 000c 9046     		mov	r8, r2
 566:../../../../../../Middlewares/Third_Party/LoRaWAN/Mac/region/RegionAS923.c ****     rxConfigParams->Bandwidth = GetBandwidth( rxConfigParams->Datarate );
 1104              		.loc 1 566 0
 1105 000e 031C     		adds	r3, r0, #0
 1106              	.LVL74:
 1107 0010 0728     		cmp	r0, #7
 1108 0012 00DD     		ble	.L107
 1109 0014 0723     		movs	r3, #7
 1110              	.L107:
ARM GAS  C:\Users\EBANO_~1\AppData\Local\Temp\cc2nkIni.s 			page 41


 1111 0016 5EB2     		sxtb	r6, r3
 1112              	.LBB51:
 1113              	.LBB52:
  86:../../../../../../Middlewares/Third_Party/LoRaWAN/Mac/region/RegionAS923.c ****     {
 1114              		.loc 1 86 0
 1115 0018 1A4A     		ldr	r2, .L115
 1116              	.LVL75:
 1117 001a B100     		lsls	r1, r6, #2
 1118              	.LVL76:
 1119              	.LBE52:
 1120              	.LBE51:
 566:../../../../../../Middlewares/Third_Party/LoRaWAN/Mac/region/RegionAS923.c ****     rxConfigParams->Bandwidth = GetBandwidth( rxConfigParams->Datarate );
 1121              		.loc 1 566 0
 1122 001c 6370     		strb	r3, [r4, #1]
 1123              	.LVL77:
 1124              	.LBB55:
 1125              	.LBB53:
  86:../../../../../../Middlewares/Third_Party/LoRaWAN/Mac/region/RegionAS923.c ****     {
 1126              		.loc 1 86 0
 1127 001e 1A4F     		ldr	r7, .L115+4
 1128 0020 5358     		ldr	r3, [r2, r1]
 1129 0022 BB42     		cmp	r3, r7
 1130 0024 24D0     		beq	.L113
 1131 0026 194F     		ldr	r7, .L115+8
 1132 0028 BC46     		mov	ip, r7
 1133 002a 6344     		add	r3, r3, ip
 1134 002c 5F42     		rsbs	r7, r3, #0
 1135 002e 7B41     		adcs	r3, r3, r7
 1136 0030 5B00     		lsls	r3, r3, #1
 1137              	.LBE53:
 1138              	.LBE55:
 567:../../../../../../Middlewares/Third_Party/LoRaWAN/Mac/region/RegionAS923.c **** 
 1139              		.loc 1 567 0
 1140 0032 A370     		strb	r3, [r4, #2]
 569:../../../../../../Middlewares/Third_Party/LoRaWAN/Mac/region/RegionAS923.c ****     { // FSK
 1141              		.loc 1 569 0
 1142 0034 0628     		cmp	r0, #6
 1143 0036 1FDC     		bgt	.L114
 1144              	.L111:
 575:../../../../../../Middlewares/Third_Party/LoRaWAN/Mac/region/RegionAS923.c ****     }
 1145              		.loc 1 575 0
 1146 0038 2023     		movs	r3, #32
 1147 003a 5158     		ldr	r1, [r2, r1]
 1148 003c 9219     		adds	r2, r2, r6
 1149 003e D05C     		ldrb	r0, [r2, r3]
 1150              	.LVL78:
 1151 0040 FFF7FEFF 		bl	RegionCommonComputeSymbolTimeLoRa
 1152              	.LVL79:
 1153 0044 0600     		movs	r6, r0
 1154 0046 0F00     		movs	r7, r1
 1155              	.LVL80:
 1156              	.L112:
 578:../../../../../../Middlewares/Third_Party/LoRaWAN/Mac/region/RegionAS923.c **** }
 1157              		.loc 1 578 0
 1158 0048 114B     		ldr	r3, .L115+12
 1159 004a 5B6E     		ldr	r3, [r3, #100]
 1160 004c 0593     		str	r3, [sp, #20]
ARM GAS  C:\Users\EBANO_~1\AppData\Local\Temp\cc2nkIni.s 			page 42


 1161 004e 9847     		blx	r3
 1162              	.LVL81:
 1163 0050 2300     		movs	r3, r4
 1164 0052 0834     		adds	r4, r4, #8
 1165              	.LVL82:
 1166 0054 0C33     		adds	r3, r3, #12
 1167              	.LVL83:
 1168 0056 0293     		str	r3, [sp, #8]
 1169 0058 0090     		str	r0, [sp]
 1170 005a 0194     		str	r4, [sp, #4]
 1171 005c 4346     		mov	r3, r8
 1172              	.LVL84:
 1173 005e 2A00     		movs	r2, r5
 1174 0060 3000     		movs	r0, r6
 1175 0062 3900     		movs	r1, r7
 1176 0064 FFF7FEFF 		bl	RegionCommonComputeRxWindowParameters
 1177              	.LVL85:
 579:../../../../../../Middlewares/Third_Party/LoRaWAN/Mac/region/RegionAS923.c **** 
 1178              		.loc 1 579 0
 1179 0068 06B0     		add	sp, sp, #24
 1180              		@ sp needed
 1181              	.LVL86:
 1182              	.LVL87:
 1183              	.LVL88:
 1184 006a 04BC     		pop	{r2}
 1185 006c 9046     		mov	r8, r2
 1186 006e F0BD     		pop	{r4, r5, r6, r7, pc}
 1187              	.LVL89:
 1188              	.L113:
 1189              	.LBB56:
 1190              	.LBB54:
  86:../../../../../../Middlewares/Third_Party/LoRaWAN/Mac/region/RegionAS923.c ****     {
 1191              		.loc 1 86 0
 1192 0070 0123     		movs	r3, #1
 1193              	.LBE54:
 1194              	.LBE56:
 567:../../../../../../Middlewares/Third_Party/LoRaWAN/Mac/region/RegionAS923.c **** 
 1195              		.loc 1 567 0
 1196 0072 A370     		strb	r3, [r4, #2]
 569:../../../../../../Middlewares/Third_Party/LoRaWAN/Mac/region/RegionAS923.c ****     { // FSK
 1197              		.loc 1 569 0
 1198 0074 0628     		cmp	r0, #6
 1199 0076 DFDD     		ble	.L111
 1200              	.L114:
 571:../../../../../../Middlewares/Third_Party/LoRaWAN/Mac/region/RegionAS923.c ****     }
 1201              		.loc 1 571 0
 1202 0078 3220     		movs	r0, #50
 1203              	.LVL90:
 1204 007a FFF7FEFF 		bl	RegionCommonComputeSymbolTimeFsk
 1205              	.LVL91:
 1206 007e 0600     		movs	r6, r0
 1207 0080 0F00     		movs	r7, r1
 1208              	.LVL92:
 1209 0082 E1E7     		b	.L112
 1210              	.L116:
 1211              		.align	2
 1212              	.L115:
ARM GAS  C:\Users\EBANO_~1\AppData\Local\Temp\cc2nkIni.s 			page 43


 1213 0084 EC000000 		.word	.LANCHOR1
 1214 0088 90D00300 		.word	250000
 1215 008c E05EF8FF 		.word	-500000
 1216 0090 00000000 		.word	Radio
 1217              		.cfi_endproc
 1218              	.LFE51:
 1219              		.size	RegionAS923ComputeRxWindowParameters, .-RegionAS923ComputeRxWindowParameters
 1220              		.section	.text.RegionAS923RxConfig,"ax",%progbits
 1221              		.align	1
 1222              		.p2align 2,,3
 1223              		.global	RegionAS923RxConfig
 1224              		.syntax unified
 1225              		.code	16
 1226              		.thumb_func
 1227              		.fpu softvfp
 1228              		.type	RegionAS923RxConfig, %function
 1229              	RegionAS923RxConfig:
 1230              	.LFB52:
 582:../../../../../../Middlewares/Third_Party/LoRaWAN/Mac/region/RegionAS923.c ****     RadioModems_t modem;
 1231              		.loc 1 582 0
 1232              		.cfi_startproc
 1233              		@ args = 0, pretend = 0, frame = 8
 1234              		@ frame_needed = 0, uses_anonymous_args = 0
 1235              	.LVL93:
 1236 0000 F0B5     		push	{r4, r5, r6, r7, lr}
 1237              	.LCFI13:
 1238              		.cfi_def_cfa_offset 20
 1239              		.cfi_offset 4, -20
 1240              		.cfi_offset 5, -16
 1241              		.cfi_offset 6, -12
 1242              		.cfi_offset 7, -8
 1243              		.cfi_offset 14, -4
 1244 0002 D646     		mov	lr, r10
 1245 0004 4646     		mov	r6, r8
 1246 0006 4F46     		mov	r7, r9
 1247 0008 C0B5     		push	{r6, r7, lr}
 1248              	.LCFI14:
 1249              		.cfi_def_cfa_offset 32
 1250              		.cfi_offset 8, -32
 1251              		.cfi_offset 9, -28
 1252              		.cfi_offset 10, -24
 584:../../../../../../Middlewares/Third_Party/LoRaWAN/Mac/region/RegionAS923.c ****     uint8_t maxPayload = 0;
 1253              		.loc 1 584 0
 1254 000a 0126     		movs	r6, #1
 587:../../../../../../Middlewares/Third_Party/LoRaWAN/Mac/region/RegionAS923.c **** 
 1255              		.loc 1 587 0
 1256 000c 4368     		ldr	r3, [r0, #4]
 589:../../../../../../Middlewares/Third_Party/LoRaWAN/Mac/region/RegionAS923.c ****     {
 1257              		.loc 1 589 0
 1258 000e 394D     		ldr	r5, .L127
 587:../../../../../../Middlewares/Third_Party/LoRaWAN/Mac/region/RegionAS923.c **** 
 1259              		.loc 1 587 0
 1260 0010 9846     		mov	r8, r3
 589:../../../../../../Middlewares/Third_Party/LoRaWAN/Mac/region/RegionAS923.c ****     {
 1261              		.loc 1 589 0
 1262 0012 EB68     		ldr	r3, [r5, #12]
 582:../../../../../../Middlewares/Third_Party/LoRaWAN/Mac/region/RegionAS923.c ****     RadioModems_t modem;
ARM GAS  C:\Users\EBANO_~1\AppData\Local\Temp\cc2nkIni.s 			page 44


 1263              		.loc 1 582 0
 1264 0014 8CB0     		sub	sp, sp, #48
 1265              	.LCFI15:
 1266              		.cfi_def_cfa_offset 80
 584:../../../../../../Middlewares/Third_Party/LoRaWAN/Mac/region/RegionAS923.c ****     uint8_t maxPayload = 0;
 1267              		.loc 1 584 0
 1268 0016 8657     		ldrsb	r6, [r0, r6]
 1269              	.LVL94:
 582:../../../../../../Middlewares/Third_Party/LoRaWAN/Mac/region/RegionAS923.c ****     RadioModems_t modem;
 1270              		.loc 1 582 0
 1271 0018 0400     		movs	r4, r0
 589:../../../../../../Middlewares/Third_Party/LoRaWAN/Mac/region/RegionAS923.c ****     {
 1272              		.loc 1 589 0
 1273 001a 0B93     		str	r3, [sp, #44]
 582:../../../../../../Middlewares/Third_Party/LoRaWAN/Mac/region/RegionAS923.c ****     RadioModems_t modem;
 1274              		.loc 1 582 0
 1275 001c 8A46     		mov	r10, r1
 589:../../../../../../Middlewares/Third_Party/LoRaWAN/Mac/region/RegionAS923.c ****     {
 1276              		.loc 1 589 0
 1277 001e 9847     		blx	r3
 1278              	.LVL95:
 591:../../../../../../Middlewares/Third_Party/LoRaWAN/Mac/region/RegionAS923.c ****     }
 1279              		.loc 1 591 0
 1280 0020 0023     		movs	r3, #0
 589:../../../../../../Middlewares/Third_Party/LoRaWAN/Mac/region/RegionAS923.c ****     {
 1281              		.loc 1 589 0
 1282 0022 0028     		cmp	r0, #0
 1283 0024 3ED1     		bne	.L118
 594:../../../../../../Middlewares/Third_Party/LoRaWAN/Mac/region/RegionAS923.c ****     {
 1284              		.loc 1 594 0
 1285 0026 E37C     		ldrb	r3, [r4, #19]
 1286 0028 002B     		cmp	r3, #0
 1287 002a 0AD1     		bne	.L119
 597:../../../../../../Middlewares/Third_Party/LoRaWAN/Mac/region/RegionAS923.c ****         // Apply the alternative RX 1 window frequency, if it is available
 1288              		.loc 1 597 0
 1289 002c 2178     		ldrb	r1, [r4]
 1290 002e 324A     		ldr	r2, .L127+4
 1291 0030 4B00     		lsls	r3, r1, #1
 1292 0032 5B18     		adds	r3, r3, r1
 1293 0034 9B00     		lsls	r3, r3, #2
 1294 0036 9958     		ldr	r1, [r3, r2]
 1295              	.LVL96:
 599:../../../../../../Middlewares/Third_Party/LoRaWAN/Mac/region/RegionAS923.c ****         {
 1296              		.loc 1 599 0
 1297 0038 D318     		adds	r3, r2, r3
 1298 003a 5B68     		ldr	r3, [r3, #4]
 1299 003c 9846     		mov	r8, r3
 1300 003e 002B     		cmp	r3, #0
 1301 0040 56D0     		beq	.L125
 1302              	.LVL97:
 1303              	.L119:
 606:../../../../../../Middlewares/Third_Party/LoRaWAN/Mac/region/RegionAS923.c **** 
 1304              		.loc 1 606 0
 1305 0042 2022     		movs	r2, #32
 1306 0044 2D4B     		ldr	r3, .L127+8
 608:../../../../../../Middlewares/Third_Party/LoRaWAN/Mac/region/RegionAS923.c **** 
 1307              		.loc 1 608 0
ARM GAS  C:\Users\EBANO_~1\AppData\Local\Temp\cc2nkIni.s 			page 45


 1308 0046 4046     		mov	r0, r8
 606:../../../../../../Middlewares/Third_Party/LoRaWAN/Mac/region/RegionAS923.c **** 
 1309              		.loc 1 606 0
 1310 0048 9B19     		adds	r3, r3, r6
 1311 004a 9B56     		ldrsb	r3, [r3, r2]
 1312 004c 9946     		mov	r9, r3
 1313              	.LVL98:
 608:../../../../../../Middlewares/Third_Party/LoRaWAN/Mac/region/RegionAS923.c **** 
 1314              		.loc 1 608 0
 1315 004e 6B69     		ldr	r3, [r5, #20]
 1316 0050 0B93     		str	r3, [sp, #44]
 1317 0052 9847     		blx	r3
 1318              	.LVL99:
 1319 0054 2B6A     		ldr	r3, [r5, #32]
 1320 0056 0B93     		str	r3, [sp, #44]
 1321 0058 1F00     		movs	r7, r3
 611:../../../../../../Middlewares/Third_Party/LoRaWAN/Mac/region/RegionAS923.c ****     {
 1322              		.loc 1 611 0
 1323 005a 072E     		cmp	r6, #7
 1324 005c 2CD0     		beq	.L126
 1325              	.LVL100:
 619:../../../../../../Middlewares/Third_Party/LoRaWAN/Mac/region/RegionAS923.c ****     }
 1326              		.loc 1 619 0
 1327 005e A37C     		ldrb	r3, [r4, #18]
 1328 0060 2289     		ldrh	r2, [r4, #8]
 1329 0062 0993     		str	r3, [sp, #36]
 1330 0064 0123     		movs	r3, #1
 1331 0066 0292     		str	r2, [sp, #8]
 1332 0068 0893     		str	r3, [sp, #32]
 1333 006a 0822     		movs	r2, #8
 1334 006c 0023     		movs	r3, #0
 1335 006e 0192     		str	r2, [sp, #4]
 1336 0070 0793     		str	r3, [sp, #28]
 1337 0072 0693     		str	r3, [sp, #24]
 1338 0074 0593     		str	r3, [sp, #20]
 1339 0076 0493     		str	r3, [sp, #16]
 1340 0078 0393     		str	r3, [sp, #12]
 1341 007a 0093     		str	r3, [sp]
 1342 007c 0120     		movs	r0, #1
 1343 007e A178     		ldrb	r1, [r4, #2]
 1344 0080 0133     		adds	r3, r3, #1
 1345 0082 4A46     		mov	r2, r9
 1346 0084 B847     		blx	r7
 1347              	.LVL101:
 618:../../../../../../Middlewares/Third_Party/LoRaWAN/Mac/region/RegionAS923.c ****         Radio.SetRxConfig( modem, rxConfig->Bandwidth, phyDr, 1, 0, 8, rxConfig->WindowTimeout, fal
 1348              		.loc 1 618 0
 1349 0086 0120     		movs	r0, #1
 1350              	.LVL102:
 1351              	.L121:
 623:../../../../../../Middlewares/Third_Party/LoRaWAN/Mac/region/RegionAS923.c ****     {
 1352              		.loc 1 623 0
 1353 0088 637C     		ldrb	r3, [r4, #17]
 1354 008a 002B     		cmp	r3, #0
 1355 008c 11D0     		beq	.L122
 625:../../../../../../Middlewares/Third_Party/LoRaWAN/Mac/region/RegionAS923.c ****     }
 1356              		.loc 1 625 0
 1357 008e 1C4B     		ldr	r3, .L127+12
ARM GAS  C:\Users\EBANO_~1\AppData\Local\Temp\cc2nkIni.s 			page 46


 1358 0090 9B19     		adds	r3, r3, r6
 1359 0092 197C     		ldrb	r1, [r3, #16]
 1360              	.LVL103:
 1361              	.L123:
 632:../../../../../../Middlewares/Third_Party/LoRaWAN/Mac/region/RegionAS923.c ****     TVL1( PRINTF( "RX on freq %d Hz at DR %d\n\r", frequency, dr );)
 1362              		.loc 1 632 0
 1363 0094 EB6D     		ldr	r3, [r5, #92]
 1364 0096 0D31     		adds	r1, r1, #13
 1365              	.LVL104:
 1366 0098 C9B2     		uxtb	r1, r1
 1367 009a 0B93     		str	r3, [sp, #44]
 1368 009c 9847     		blx	r3
 1369              	.LVL105:
 635:../../../../../../Middlewares/Third_Party/LoRaWAN/Mac/region/RegionAS923.c ****     return true;
 1370              		.loc 1 635 0
 1371 009e 5346     		mov	r3, r10
 1372 00a0 1E70     		strb	r6, [r3]
 636:../../../../../../Middlewares/Third_Party/LoRaWAN/Mac/region/RegionAS923.c **** }
 1373              		.loc 1 636 0
 1374 00a2 0123     		movs	r3, #1
 1375              	.LVL106:
 1376              	.L118:
 637:../../../../../../Middlewares/Third_Party/LoRaWAN/Mac/region/RegionAS923.c **** 
 1377              		.loc 1 637 0
 1378 00a4 1800     		movs	r0, r3
 1379 00a6 0CB0     		add	sp, sp, #48
 1380              		@ sp needed
 1381              	.LVL107:
 1382              	.LVL108:
 1383              	.LVL109:
 1384              	.LVL110:
 1385 00a8 1CBC     		pop	{r2, r3, r4}
 1386 00aa 9046     		mov	r8, r2
 1387 00ac 9946     		mov	r9, r3
 1388 00ae A246     		mov	r10, r4
 1389 00b0 F0BD     		pop	{r4, r5, r6, r7, pc}
 1390              	.LVL111:
 1391              	.L122:
 629:../../../../../../Middlewares/Third_Party/LoRaWAN/Mac/region/RegionAS923.c ****     }
 1392              		.loc 1 629 0
 1393 00b2 134B     		ldr	r3, .L127+12
 1394 00b4 995D     		ldrb	r1, [r3, r6]
 1395              	.LVL112:
 1396 00b6 EDE7     		b	.L123
 1397              	.LVL113:
 1398              	.L126:
 614:../../../../../../Middlewares/Third_Party/LoRaWAN/Mac/region/RegionAS923.c ****     }
 1399              		.loc 1 614 0
 1400 00b8 4B46     		mov	r3, r9
 1401 00ba 5A01     		lsls	r2, r3, #5
 1402 00bc D21A     		subs	r2, r2, r3
 1403 00be A37C     		ldrb	r3, [r4, #18]
 1404 00c0 0121     		movs	r1, #1
 1405 00c2 0993     		str	r3, [sp, #36]
 1406 00c4 0023     		movs	r3, #0
 1407 00c6 0893     		str	r3, [sp, #32]
 1408 00c8 0793     		str	r3, [sp, #28]
ARM GAS  C:\Users\EBANO_~1\AppData\Local\Temp\cc2nkIni.s 			page 47


 1409 00ca 0693     		str	r3, [sp, #24]
 1410 00cc 0493     		str	r3, [sp, #16]
 1411 00ce 0393     		str	r3, [sp, #12]
 1412 00d0 2389     		ldrh	r3, [r4, #8]
 1413 00d2 9200     		lsls	r2, r2, #2
 1414 00d4 0293     		str	r3, [sp, #8]
 1415 00d6 0523     		movs	r3, #5
 1416 00d8 0193     		str	r3, [sp, #4]
 1417 00da 0A4B     		ldr	r3, .L127+16
 1418 00dc 4A44     		add	r2, r2, r9
 1419 00de 0591     		str	r1, [sp, #20]
 1420 00e0 0093     		str	r3, [sp]
 1421 00e2 0020     		movs	r0, #0
 1422 00e4 D200     		lsls	r2, r2, #3
 1423 00e6 0023     		movs	r3, #0
 1424 00e8 0749     		ldr	r1, .L127+20
 1425 00ea B847     		blx	r7
 1426              	.LVL114:
 613:../../../../../../Middlewares/Third_Party/LoRaWAN/Mac/region/RegionAS923.c ****         Radio.SetRxConfig( modem, 50000, phyDr * 1000, 0, 83333, 5, rxConfig->WindowTimeout, false,
 1427              		.loc 1 613 0
 1428 00ec 0020     		movs	r0, #0
 1429 00ee CBE7     		b	.L121
 1430              	.LVL115:
 1431              	.L125:
 597:../../../../../../Middlewares/Third_Party/LoRaWAN/Mac/region/RegionAS923.c ****         // Apply the alternative RX 1 window frequency, if it is available
 1432              		.loc 1 597 0
 1433 00f0 8846     		mov	r8, r1
 1434 00f2 A6E7     		b	.L119
 1435              	.L128:
 1436              		.align	2
 1437              	.L127:
 1438 00f4 00000000 		.word	Radio
 1439 00f8 00000000 		.word	NvmCtx
 1440 00fc EC000000 		.word	.LANCHOR1
 1441 0100 1C010000 		.word	.LANCHOR0
 1442 0104 85450100 		.word	83333
 1443 0108 50C30000 		.word	50000
 1444              		.cfi_endproc
 1445              	.LFE52:
 1446              		.size	RegionAS923RxConfig, .-RegionAS923RxConfig
 1447              		.section	.text.RegionAS923TxConfig,"ax",%progbits
 1448              		.align	1
 1449              		.p2align 2,,3
 1450              		.global	RegionAS923TxConfig
 1451              		.syntax unified
 1452              		.code	16
 1453              		.thumb_func
 1454              		.fpu softvfp
 1455              		.type	RegionAS923TxConfig, %function
 1456              	RegionAS923TxConfig:
 1457              	.LFB53:
 640:../../../../../../Middlewares/Third_Party/LoRaWAN/Mac/region/RegionAS923.c ****     RadioModems_t modem;
 1458              		.loc 1 640 0
 1459              		.cfi_startproc
 1460              		@ args = 0, pretend = 0, frame = 8
 1461              		@ frame_needed = 0, uses_anonymous_args = 0
 1462              	.LVL116:
ARM GAS  C:\Users\EBANO_~1\AppData\Local\Temp\cc2nkIni.s 			page 48


 1463 0000 F0B5     		push	{r4, r5, r6, r7, lr}
 1464              	.LCFI16:
 1465              		.cfi_def_cfa_offset 20
 1466              		.cfi_offset 4, -20
 1467              		.cfi_offset 5, -16
 1468              		.cfi_offset 6, -12
 1469              		.cfi_offset 7, -8
 1470              		.cfi_offset 14, -4
 1471 0002 4546     		mov	r5, r8
 1472 0004 5746     		mov	r7, r10
 1473 0006 4E46     		mov	r6, r9
 1474 0008 DE46     		mov	lr, fp
 1475 000a 9046     		mov	r8, r2
 642:../../../../../../Middlewares/Third_Party/LoRaWAN/Mac/region/RegionAS923.c ****     int8_t txPowerLimited = LimitTxPower( txConfig->TxPower, NvmCtx.Bands[NvmCtx.Channels[txConfig-
 1476              		.loc 1 642 0
 1477 000c 0122     		movs	r2, #1
 1478              	.LVL117:
 640:../../../../../../Middlewares/Third_Party/LoRaWAN/Mac/region/RegionAS923.c ****     RadioModems_t modem;
 1479              		.loc 1 640 0
 1480 000e 0400     		movs	r4, r0
 642:../../../../../../Middlewares/Third_Party/LoRaWAN/Mac/region/RegionAS923.c ****     int8_t txPowerLimited = LimitTxPower( txConfig->TxPower, NvmCtx.Bands[NvmCtx.Channels[txConfig-
 1481              		.loc 1 642 0
 1482 0010 2023     		movs	r3, #32
 640:../../../../../../Middlewares/Third_Party/LoRaWAN/Mac/region/RegionAS923.c ****     RadioModems_t modem;
 1483              		.loc 1 640 0
 1484 0012 E0B5     		push	{r5, r6, r7, lr}
 1485              	.LCFI17:
 1486              		.cfi_def_cfa_offset 36
 1487              		.cfi_offset 8, -36
 1488              		.cfi_offset 9, -32
 1489              		.cfi_offset 10, -28
 1490              		.cfi_offset 11, -24
 1491 0014 8DB0     		sub	sp, sp, #52
 1492              	.LCFI18:
 1493              		.cfi_def_cfa_offset 88
 640:../../../../../../Middlewares/Third_Party/LoRaWAN/Mac/region/RegionAS923.c ****     RadioModems_t modem;
 1494              		.loc 1 640 0
 1495 0016 0A91     		str	r1, [sp, #40]
 642:../../../../../../Middlewares/Third_Party/LoRaWAN/Mac/region/RegionAS923.c ****     int8_t txPowerLimited = LimitTxPower( txConfig->TxPower, NvmCtx.Bands[NvmCtx.Channels[txConfig-
 1496              		.loc 1 642 0
 1497 0018 8256     		ldrsb	r2, [r0, r2]
 1498 001a 4149     		ldr	r1, .L138
 1499              	.LVL118:
 643:../../../../../../Middlewares/Third_Party/LoRaWAN/Mac/region/RegionAS923.c ****     uint32_t bandwidth = GetBandwidth( txConfig->Datarate );
 1500              		.loc 1 643 0
 1501 001c 414D     		ldr	r5, .L138+4
 642:../../../../../../Middlewares/Third_Party/LoRaWAN/Mac/region/RegionAS923.c ****     int8_t txPowerLimited = LimitTxPower( txConfig->TxPower, NvmCtx.Bands[NvmCtx.Channels[txConfig-
 1502              		.loc 1 642 0
 1503 001e 8818     		adds	r0, r1, r2
 1504              	.LVL119:
 1505 0020 C656     		ldrsb	r6, [r0, r3]
 1506              	.LVL120:
 643:../../../../../../Middlewares/Third_Party/LoRaWAN/Mac/region/RegionAS923.c ****     uint32_t bandwidth = GetBandwidth( txConfig->Datarate );
 1507              		.loc 1 643 0
 1508 0022 2078     		ldrb	r0, [r4]
 1509              	.LVL121:
 1510 0024 4300     		lsls	r3, r0, #1
ARM GAS  C:\Users\EBANO_~1\AppData\Local\Temp\cc2nkIni.s 			page 49


 1511 0026 1B18     		adds	r3, r3, r0
 1512              	.LBB57:
 1513              	.LBB58:
 103:../../../../../../Middlewares/Third_Party/LoRaWAN/Mac/region/RegionAS923.c **** 
 1514              		.loc 1 103 0
 1515 0028 A078     		ldrb	r0, [r4, #2]
 1516              	.LVL122:
 1517              	.LBE58:
 1518              	.LBE57:
 643:../../../../../../Middlewares/Third_Party/LoRaWAN/Mac/region/RegionAS923.c ****     uint32_t bandwidth = GetBandwidth( txConfig->Datarate );
 1519              		.loc 1 643 0
 1520 002a 9B00     		lsls	r3, r3, #2
 1521              	.LBB63:
 1522              	.LBB59:
 103:../../../../../../Middlewares/Third_Party/LoRaWAN/Mac/region/RegionAS923.c **** 
 1523              		.loc 1 103 0
 1524 002c 8446     		mov	ip, r0
 1525 002e 6746     		mov	r7, ip
 1526              	.LBE59:
 1527              	.LBE63:
 643:../../../../../../Middlewares/Third_Party/LoRaWAN/Mac/region/RegionAS923.c ****     uint32_t bandwidth = GetBandwidth( txConfig->Datarate );
 1528              		.loc 1 643 0
 1529 0030 EB18     		adds	r3, r5, r3
 1530 0032 5B7A     		ldrb	r3, [r3, #9]
 1531              	.LBB64:
 1532              	.LBB60:
 103:../../../../../../Middlewares/Third_Party/LoRaWAN/Mac/region/RegionAS923.c **** 
 1533              		.loc 1 103 0
 1534 0034 7FB2     		sxtb	r7, r7
 1535              	.LBE60:
 1536              	.LBE64:
 643:../../../../../../Middlewares/Third_Party/LoRaWAN/Mac/region/RegionAS923.c ****     uint32_t bandwidth = GetBandwidth( txConfig->Datarate );
 1537              		.loc 1 643 0
 1538 0036 0C33     		adds	r3, r3, #12
 1539 0038 1B01     		lsls	r3, r3, #4
 1540 003a EB18     		adds	r3, r5, r3
 1541              	.LBB65:
 1542              	.LBB61:
 103:../../../../../../Middlewares/Third_Party/LoRaWAN/Mac/region/RegionAS923.c **** 
 1543              		.loc 1 103 0
 1544 003c 9B78     		ldrb	r3, [r3, #2]
 1545 003e 181C     		adds	r0, r3, #0
 1546 0040 5BB2     		sxtb	r3, r3
 1547 0042 BB42     		cmp	r3, r7
 1548 0044 00DA     		bge	.L130
 1549 0046 6046     		mov	r0, ip
 1550              	.L130:
 1551 0048 43B2     		sxtb	r3, r0
 1552              	.LBE61:
 1553              	.LBE65:
 1554              	.LBB66:
 1555              	.LBB67:
  86:../../../../../../Middlewares/Third_Party/LoRaWAN/Mac/region/RegionAS923.c ****     {
 1556              		.loc 1 86 0
 1557 004a 9200     		lsls	r2, r2, #2
 1558              	.LVL123:
 1559              	.LBE67:
ARM GAS  C:\Users\EBANO_~1\AppData\Local\Temp\cc2nkIni.s 			page 50


 1560              	.LBE66:
 1561              	.LBB70:
 1562              	.LBB62:
 103:../../../../../../Middlewares/Third_Party/LoRaWAN/Mac/region/RegionAS923.c **** 
 1563              		.loc 1 103 0
 1564 004c 9946     		mov	r9, r3
 1565              	.LVL124:
 1566              	.LBE62:
 1567              	.LBE70:
 1568              	.LBB71:
 1569              	.LBB68:
  86:../../../../../../Middlewares/Third_Party/LoRaWAN/Mac/region/RegionAS923.c ****     {
 1570              		.loc 1 86 0
 1571 004e 8B58     		ldr	r3, [r1, r2]
 1572 0050 354A     		ldr	r2, .L138+8
 1573 0052 9342     		cmp	r3, r2
 1574 0054 46D0     		beq	.L136
  90:../../../../../../Middlewares/Third_Party/LoRaWAN/Mac/region/RegionAS923.c ****         case 250000:
 1575              		.loc 1 90 0
 1576 0056 354A     		ldr	r2, .L138+12
 1577 0058 9446     		mov	ip, r2
 1578 005a 6344     		add	r3, r3, ip
 1579 005c 5A42     		rsbs	r2, r3, #0
 1580 005e 5341     		adcs	r3, r3, r2
 1581 0060 5B00     		lsls	r3, r3, #1
 1582 0062 9A46     		mov	r10, r3
 1583              	.L132:
 1584              	.LVL125:
 1585              	.LBE68:
 1586              	.LBE71:
 648:../../../../../../Middlewares/Third_Party/LoRaWAN/Mac/region/RegionAS923.c **** 
 1587              		.loc 1 648 0
 1588 0064 A268     		ldr	r2, [r4, #8]
 1589 0066 6168     		ldr	r1, [r4, #4]
 1590 0068 4846     		mov	r0, r9
 1591 006a FFF7FEFF 		bl	RegionCommonComputeTxPower
 1592              	.LVL126:
 651:../../../../../../Middlewares/Third_Party/LoRaWAN/Mac/region/RegionAS923.c **** 
 1593              		.loc 1 651 0
 1594 006e 2278     		ldrb	r2, [r4]
 648:../../../../../../Middlewares/Third_Party/LoRaWAN/Mac/region/RegionAS923.c **** 
 1595              		.loc 1 648 0
 1596 0070 8346     		mov	fp, r0
 1597              	.LVL127:
 651:../../../../../../Middlewares/Third_Party/LoRaWAN/Mac/region/RegionAS923.c **** 
 1598              		.loc 1 651 0
 1599 0072 5300     		lsls	r3, r2, #1
 1600 0074 9B18     		adds	r3, r3, r2
 1601 0076 9B00     		lsls	r3, r3, #2
 1602 0078 E858     		ldr	r0, [r5, r3]
 1603 007a 2D4D     		ldr	r5, .L138+16
 1604 007c 6B69     		ldr	r3, [r5, #20]
 1605 007e 0B93     		str	r3, [sp, #44]
 1606 0080 9847     		blx	r3
 1607              	.LVL128:
 1608 0082 6B6A     		ldr	r3, [r5, #36]
 1609 0084 0B93     		str	r3, [sp, #44]
ARM GAS  C:\Users\EBANO_~1\AppData\Local\Temp\cc2nkIni.s 			page 51


 653:../../../../../../Middlewares/Third_Party/LoRaWAN/Mac/region/RegionAS923.c ****     { // High Speed FSK channel
 1610              		.loc 1 653 0
 1611 0086 0123     		movs	r3, #1
 1612 0088 E356     		ldrsb	r3, [r4, r3]
 1613 008a 072B     		cmp	r3, #7
 1614 008c 2DD0     		beq	.L137
 1615              	.LVL129:
 661:../../../../../../Middlewares/Third_Party/LoRaWAN/Mac/region/RegionAS923.c ****     }
 1616              		.loc 1 661 0
 1617 008e 294B     		ldr	r3, .L138+20
 1618 0090 0122     		movs	r2, #1
 1619 0092 0893     		str	r3, [sp, #32]
 1620 0094 0023     		movs	r3, #0
 1621 0096 0793     		str	r3, [sp, #28]
 1622 0098 0693     		str	r3, [sp, #24]
 1623 009a 0593     		str	r3, [sp, #20]
 1624 009c 0393     		str	r3, [sp, #12]
 1625 009e 0833     		adds	r3, r3, #8
 1626 00a0 0492     		str	r2, [sp, #16]
 1627 00a2 0293     		str	r3, [sp, #8]
 1628 00a4 0192     		str	r2, [sp, #4]
 1629 00a6 0096     		str	r6, [sp]
 1630 00a8 5346     		mov	r3, r10
 1631 00aa 0B9E     		ldr	r6, [sp, #44]
 1632              	.LVL130:
 1633 00ac 0022     		movs	r2, #0
 1634 00ae 5946     		mov	r1, fp
 1635 00b0 0120     		movs	r0, #1
 1636 00b2 B047     		blx	r6
 1637              	.LVL131:
 660:../../../../../../Middlewares/Third_Party/LoRaWAN/Mac/region/RegionAS923.c ****         Radio.SetTxConfig( modem, phyTxPower, 0, bandwidth, phyDr, 1, 8, false, true, 0, 0, false, 
 1638              		.loc 1 660 0
 1639 00b4 0126     		movs	r6, #1
 1640              	.LVL132:
 1641              	.L135:
 665:../../../../../../Middlewares/Third_Party/LoRaWAN/Mac/region/RegionAS923.c ****     // Get the time-on-air of the next tx frame
 1642              		.loc 1 665 0
 1643 00b6 EB6D     		ldr	r3, [r5, #92]
 1644 00b8 217B     		ldrb	r1, [r4, #12]
 1645 00ba 3000     		movs	r0, r6
 1646 00bc 0B93     		str	r3, [sp, #44]
 1647 00be 9847     		blx	r3
 1648              	.LVL133:
 667:../../../../../../Middlewares/Third_Party/LoRaWAN/Mac/region/RegionAS923.c **** 
 1649              		.loc 1 667 0
 1650 00c0 EB6A     		ldr	r3, [r5, #44]
 1651 00c2 217B     		ldrb	r1, [r4, #12]
 1652 00c4 3000     		movs	r0, r6
 1653 00c6 0B93     		str	r3, [sp, #44]
 1654 00c8 9847     		blx	r3
 1655              	.LVL134:
 1656 00ca 4346     		mov	r3, r8
 1657 00cc 1860     		str	r0, [r3]
 669:../../../../../../Middlewares/Third_Party/LoRaWAN/Mac/region/RegionAS923.c ****     return true;
 1658              		.loc 1 669 0
 1659 00ce 4B46     		mov	r3, r9
 671:../../../../../../Middlewares/Third_Party/LoRaWAN/Mac/region/RegionAS923.c **** 
ARM GAS  C:\Users\EBANO_~1\AppData\Local\Temp\cc2nkIni.s 			page 52


 1660              		.loc 1 671 0
 1661 00d0 0120     		movs	r0, #1
 669:../../../../../../Middlewares/Third_Party/LoRaWAN/Mac/region/RegionAS923.c ****     return true;
 1662              		.loc 1 669 0
 1663 00d2 0A9A     		ldr	r2, [sp, #40]
 1664 00d4 1370     		strb	r3, [r2]
 671:../../../../../../Middlewares/Third_Party/LoRaWAN/Mac/region/RegionAS923.c **** 
 1665              		.loc 1 671 0
 1666 00d6 0DB0     		add	sp, sp, #52
 1667              		@ sp needed
 1668              	.LVL135:
 1669              	.LVL136:
 1670              	.LVL137:
 1671              	.LVL138:
 1672 00d8 3CBC     		pop	{r2, r3, r4, r5}
 1673 00da 9046     		mov	r8, r2
 1674 00dc 9946     		mov	r9, r3
 1675 00de A246     		mov	r10, r4
 1676 00e0 AB46     		mov	fp, r5
 1677 00e2 F0BD     		pop	{r4, r5, r6, r7, pc}
 1678              	.LVL139:
 1679              	.L136:
 1680              	.LBB72:
 1681              	.LBB69:
  92:../../../../../../Middlewares/Third_Party/LoRaWAN/Mac/region/RegionAS923.c ****         case 500000:
 1682              		.loc 1 92 0
 1683 00e4 0123     		movs	r3, #1
 1684              	.LVL140:
 1685 00e6 9A46     		mov	r10, r3
 1686 00e8 BCE7     		b	.L132
 1687              	.LVL141:
 1688              	.L137:
 1689              	.LBE69:
 1690              	.LBE72:
 656:../../../../../../Middlewares/Third_Party/LoRaWAN/Mac/region/RegionAS923.c ****     }
 1691              		.loc 1 656 0
 1692 00ea 124B     		ldr	r3, .L138+20
 1693 00ec 0122     		movs	r2, #1
 1694 00ee 0893     		str	r3, [sp, #32]
 1695 00f0 0023     		movs	r3, #0
 1696 00f2 0793     		str	r3, [sp, #28]
 1697 00f4 0693     		str	r3, [sp, #24]
 1698 00f6 0593     		str	r3, [sp, #20]
 1699 00f8 0393     		str	r3, [sp, #12]
 1700 00fa 0193     		str	r3, [sp, #4]
 1701 00fc 7301     		lsls	r3, r6, #5
 1702 00fe 9B1B     		subs	r3, r3, r6
 1703 0100 9B00     		lsls	r3, r3, #2
 1704 0102 9E19     		adds	r6, r3, r6
 1705              	.LVL142:
 1706 0104 0492     		str	r2, [sp, #16]
 1707 0106 F600     		lsls	r6, r6, #3
 1708 0108 0432     		adds	r2, r2, #4
 1709 010a 0292     		str	r2, [sp, #8]
 1710 010c 0096     		str	r6, [sp]
 1711 010e 5346     		mov	r3, r10
 1712 0110 0B9E     		ldr	r6, [sp, #44]
ARM GAS  C:\Users\EBANO_~1\AppData\Local\Temp\cc2nkIni.s 			page 53


 1713 0112 094A     		ldr	r2, .L138+24
 1714 0114 5946     		mov	r1, fp
 1715 0116 0020     		movs	r0, #0
 1716 0118 B047     		blx	r6
 1717              	.LVL143:
 655:../../../../../../Middlewares/Third_Party/LoRaWAN/Mac/region/RegionAS923.c ****         Radio.SetTxConfig( modem, phyTxPower, 25000, bandwidth, phyDr * 1000, 0, 5, false, true, 0,
 1718              		.loc 1 655 0
 1719 011a 0026     		movs	r6, #0
 1720 011c CBE7     		b	.L135
 1721              	.L139:
 1722 011e C046     		.align	2
 1723              	.L138:
 1724 0120 EC000000 		.word	.LANCHOR1
 1725 0124 00000000 		.word	NvmCtx
 1726 0128 90D00300 		.word	250000
 1727 012c E05EF8FF 		.word	-500000
 1728 0130 00000000 		.word	Radio
 1729 0134 B80B0000 		.word	3000
 1730 0138 A8610000 		.word	25000
 1731              		.cfi_endproc
 1732              	.LFE53:
 1733              		.size	RegionAS923TxConfig, .-RegionAS923TxConfig
 1734              		.section	.text.RegionAS923LinkAdrReq,"ax",%progbits
 1735              		.align	1
 1736              		.p2align 2,,3
 1737              		.global	RegionAS923LinkAdrReq
 1738              		.syntax unified
 1739              		.code	16
 1740              		.thumb_func
 1741              		.fpu softvfp
 1742              		.type	RegionAS923LinkAdrReq, %function
 1743              	RegionAS923LinkAdrReq:
 1744              	.LFB54:
 674:../../../../../../Middlewares/Third_Party/LoRaWAN/Mac/region/RegionAS923.c ****     uint8_t status = 0x07;
 1745              		.loc 1 674 0
 1746              		.cfi_startproc
 1747              		@ args = 4, pretend = 0, frame = 64
 1748              		@ frame_needed = 0, uses_anonymous_args = 0
 1749              	.LVL144:
 1750 0000 F0B5     		push	{r4, r5, r6, r7, lr}
 1751              	.LCFI19:
 1752              		.cfi_def_cfa_offset 20
 1753              		.cfi_offset 4, -20
 1754              		.cfi_offset 5, -16
 1755              		.cfi_offset 6, -12
 1756              		.cfi_offset 7, -8
 1757              		.cfi_offset 14, -4
 1758 0002 5746     		mov	r7, r10
 1759 0004 4E46     		mov	r6, r9
 1760 0006 4546     		mov	r5, r8
 1761 0008 DE46     		mov	lr, fp
 1762 000a E0B5     		push	{r5, r6, r7, lr}
 1763              	.LCFI20:
 1764              		.cfi_def_cfa_offset 36
 1765              		.cfi_offset 8, -36
 1766              		.cfi_offset 9, -32
 1767              		.cfi_offset 10, -28
ARM GAS  C:\Users\EBANO_~1\AppData\Local\Temp\cc2nkIni.s 			page 54


 1768              		.cfi_offset 11, -24
 1769 000c 91B0     		sub	sp, sp, #68
 1770              	.LCFI21:
 1771              		.cfi_def_cfa_offset 104
 674:../../../../../../Middlewares/Third_Party/LoRaWAN/Mac/region/RegionAS923.c ****     uint8_t status = 0x07;
 1772              		.loc 1 674 0
 1773 000e 0193     		str	r3, [sp, #4]
 679:../../../../../../Middlewares/Third_Party/LoRaWAN/Mac/region/RegionAS923.c ****     GetPhyParams_t getPhy;
 1774              		.loc 1 679 0
 1775 0010 0023     		movs	r3, #0
 1776              	.LVL145:
 674:../../../../../../Middlewares/Third_Party/LoRaWAN/Mac/region/RegionAS923.c ****     uint8_t status = 0x07;
 1777              		.loc 1 674 0
 1778 0012 9246     		mov	r10, r2
 679:../../../../../../Middlewares/Third_Party/LoRaWAN/Mac/region/RegionAS923.c ****     GetPhyParams_t getPhy;
 1779              		.loc 1 679 0
 1780 0014 02AA     		add	r2, sp, #8
 1781              	.LVL146:
 1782 0016 D380     		strh	r3, [r2, #6]
 675:../../../../../../Middlewares/Third_Party/LoRaWAN/Mac/region/RegionAS923.c ****     RegionCommonLinkAdrParams_t linkAdrParams;
 1783              		.loc 1 675 0
 1784 0018 0733     		adds	r3, r3, #7
 674:../../../../../../Middlewares/Third_Party/LoRaWAN/Mac/region/RegionAS923.c ****     uint8_t status = 0x07;
 1785              		.loc 1 674 0
 1786 001a 0600     		movs	r6, r0
 1787 001c 8B46     		mov	fp, r1
 678:../../../../../../Middlewares/Third_Party/LoRaWAN/Mac/region/RegionAS923.c ****     uint16_t chMask = 0;
 1788              		.loc 1 678 0
 1789 001e 0024     		movs	r4, #0
 675:../../../../../../Middlewares/Third_Party/LoRaWAN/Mac/region/RegionAS923.c ****     RegionCommonLinkAdrParams_t linkAdrParams;
 1790              		.loc 1 675 0
 1791 0020 9946     		mov	r9, r3
 1792              	.LBB73:
 718:../../../../../../Middlewares/Third_Party/LoRaWAN/Mac/region/RegionAS923.c ****                     {
 1793              		.loc 1 718 0
 1794 0022 9846     		mov	r8, r3
 1795 0024 B84F     		ldr	r7, .L296
 1796 0026 06AD     		add	r5, sp, #24
 1797              	.LVL147:
 1798              	.L141:
 1799              	.LBE73:
 684:../../../../../../Middlewares/Third_Party/LoRaWAN/Mac/region/RegionAS923.c ****     {
 1800              		.loc 1 684 0
 1801 0028 337A     		ldrb	r3, [r6, #8]
 1802 002a A342     		cmp	r3, r4
 1803 002c 00D8     		bhi	.LCB1650
 1804 002e 93E0     		b	.L186	@long jump
 1805              	.LCB1650:
 1806              	.L185:
 687:../../../../../../Middlewares/Third_Party/LoRaWAN/Mac/region/RegionAS923.c **** 
 1807              		.loc 1 687 0
 1808 0030 7368     		ldr	r3, [r6, #4]
 1809 0032 2900     		movs	r1, r5
 1810 0034 1819     		adds	r0, r3, r4
 1811 0036 FFF7FEFF 		bl	RegionCommonParseLinkAdrReq
 1812              	.LVL148:
 689:../../../../../../Middlewares/Third_Party/LoRaWAN/Mac/region/RegionAS923.c ****             break; // break loop, since no more request has been found
ARM GAS  C:\Users\EBANO_~1\AppData\Local\Temp\cc2nkIni.s 			page 55


 1813              		.loc 1 689 0
 1814 003a 0028     		cmp	r0, #0
 1815 003c 00D1     		bne	.LCB1662
 1816 003e 8BE0     		b	.L186	@long jump
 1817              	.LCB1662:
 699:../../../../../../Middlewares/Third_Party/LoRaWAN/Mac/region/RegionAS923.c **** 
 1818              		.loc 1 699 0
 1819 0040 AB88     		ldrh	r3, [r5, #4]
 1820 0042 02AA     		add	r2, sp, #8
 1821 0044 D380     		strh	r3, [r2, #6]
 702:../../../../../../Middlewares/Third_Party/LoRaWAN/Mac/region/RegionAS923.c ****         {
 1822              		.loc 1 702 0
 1823 0046 EA78     		ldrb	r2, [r5, #3]
 693:../../../../../../Middlewares/Third_Party/LoRaWAN/Mac/region/RegionAS923.c **** 
 1824              		.loc 1 693 0
 1825 0048 2418     		adds	r4, r4, r0
 1826              	.LVL149:
 1827 004a E4B2     		uxtb	r4, r4
 1828              	.LVL150:
 699:../../../../../../Middlewares/Third_Party/LoRaWAN/Mac/region/RegionAS923.c **** 
 1829              		.loc 1 699 0
 1830 004c 181C     		adds	r0, r3, #0
 1831              	.LVL151:
 702:../../../../../../Middlewares/Third_Party/LoRaWAN/Mac/region/RegionAS923.c ****         {
 1832              		.loc 1 702 0
 1833 004e 002A     		cmp	r2, #0
 1834 0050 00D0     		beq	.LCB1675
 1835 0052 C6E0     		b	.L145	@long jump
 1836              	.LCB1675:
 704:../../../../../../Middlewares/Third_Party/LoRaWAN/Mac/region/RegionAS923.c ****         }
 1837              		.loc 1 704 0 discriminator 1
 1838 0054 0632     		adds	r2, r2, #6
 1839 0056 9146     		mov	r9, r2
 702:../../../../../../Middlewares/Third_Party/LoRaWAN/Mac/region/RegionAS923.c ****         {
 1840              		.loc 1 702 0 discriminator 1
 1841 0058 002B     		cmp	r3, #0
 1842 005a E5D0     		beq	.L141
 1843              	.LVL152:
 1844              	.LBB74:
 725:../../../../../../Middlewares/Third_Party/LoRaWAN/Mac/region/RegionAS923.c ****                         ( NvmCtx.Channels[i].Frequency == 0 ) )
 1845              		.loc 1 725 0
 1846 005c 0722     		movs	r2, #7
 1847 005e 9146     		mov	r9, r2
 1848 0060 DA07     		lsls	r2, r3, #31
 1849 0062 04D5     		bpl	.L149
 1850 0064 3A68     		ldr	r2, [r7]
 1851 0066 511E     		subs	r1, r2, #1
 1852 0068 8A41     		sbcs	r2, r2, r1
 1853 006a 0632     		adds	r2, r2, #6
 1854 006c 9146     		mov	r9, r2
 1855              	.L149:
 1856              	.LVL153:
 1857 006e 9A07     		lsls	r2, r3, #30
 1858 0070 04D5     		bpl	.L150
 1859 0072 FA68     		ldr	r2, [r7, #12]
 1860 0074 002A     		cmp	r2, #0
 1861 0076 01D1     		bne	.L150
ARM GAS  C:\Users\EBANO_~1\AppData\Local\Temp\cc2nkIni.s 			page 56


 728:../../../../../../Middlewares/Third_Party/LoRaWAN/Mac/region/RegionAS923.c ****                     }
 1862              		.loc 1 728 0
 1863 0078 0632     		adds	r2, r2, #6
 1864 007a 9146     		mov	r9, r2
 1865              	.LVL154:
 1866              	.L150:
 725:../../../../../../Middlewares/Third_Party/LoRaWAN/Mac/region/RegionAS923.c ****                         ( NvmCtx.Channels[i].Frequency == 0 ) )
 1867              		.loc 1 725 0
 1868 007c 5A07     		lsls	r2, r3, #29
 1869 007e 04D5     		bpl	.L151
 1870 0080 BA69     		ldr	r2, [r7, #24]
 1871 0082 002A     		cmp	r2, #0
 1872 0084 01D1     		bne	.L151
 728:../../../../../../Middlewares/Third_Party/LoRaWAN/Mac/region/RegionAS923.c ****                     }
 1873              		.loc 1 728 0
 1874 0086 0632     		adds	r2, r2, #6
 1875 0088 9146     		mov	r9, r2
 1876              	.LVL155:
 1877              	.L151:
 725:../../../../../../Middlewares/Third_Party/LoRaWAN/Mac/region/RegionAS923.c ****                         ( NvmCtx.Channels[i].Frequency == 0 ) )
 1878              		.loc 1 725 0
 1879 008a 1A07     		lsls	r2, r3, #28
 1880 008c 04D5     		bpl	.L152
 1881 008e 7A6A     		ldr	r2, [r7, #36]
 1882 0090 002A     		cmp	r2, #0
 1883 0092 01D1     		bne	.L152
 728:../../../../../../Middlewares/Third_Party/LoRaWAN/Mac/region/RegionAS923.c ****                     }
 1884              		.loc 1 728 0
 1885 0094 0632     		adds	r2, r2, #6
 1886 0096 9146     		mov	r9, r2
 1887              	.LVL156:
 1888              	.L152:
 725:../../../../../../Middlewares/Third_Party/LoRaWAN/Mac/region/RegionAS923.c ****                         ( NvmCtx.Channels[i].Frequency == 0 ) )
 1889              		.loc 1 725 0
 1890 0098 DA06     		lsls	r2, r3, #27
 1891 009a 04D5     		bpl	.L153
 1892 009c 3A6B     		ldr	r2, [r7, #48]
 1893 009e 002A     		cmp	r2, #0
 1894 00a0 01D1     		bne	.L153
 728:../../../../../../Middlewares/Third_Party/LoRaWAN/Mac/region/RegionAS923.c ****                     }
 1895              		.loc 1 728 0
 1896 00a2 0632     		adds	r2, r2, #6
 1897 00a4 9146     		mov	r9, r2
 1898              	.LVL157:
 1899              	.L153:
 725:../../../../../../Middlewares/Third_Party/LoRaWAN/Mac/region/RegionAS923.c ****                         ( NvmCtx.Channels[i].Frequency == 0 ) )
 1900              		.loc 1 725 0
 1901 00a6 9A06     		lsls	r2, r3, #26
 1902 00a8 04D5     		bpl	.L154
 1903 00aa FA6B     		ldr	r2, [r7, #60]
 1904 00ac 002A     		cmp	r2, #0
 1905 00ae 01D1     		bne	.L154
 728:../../../../../../Middlewares/Third_Party/LoRaWAN/Mac/region/RegionAS923.c ****                     }
 1906              		.loc 1 728 0
 1907 00b0 0632     		adds	r2, r2, #6
 1908 00b2 9146     		mov	r9, r2
 1909              	.LVL158:
ARM GAS  C:\Users\EBANO_~1\AppData\Local\Temp\cc2nkIni.s 			page 57


 1910              	.L154:
 725:../../../../../../Middlewares/Third_Party/LoRaWAN/Mac/region/RegionAS923.c ****                         ( NvmCtx.Channels[i].Frequency == 0 ) )
 1911              		.loc 1 725 0
 1912 00b4 5A06     		lsls	r2, r3, #25
 1913 00b6 04D5     		bpl	.L155
 1914 00b8 BA6C     		ldr	r2, [r7, #72]
 1915 00ba 002A     		cmp	r2, #0
 1916 00bc 01D1     		bne	.L155
 728:../../../../../../Middlewares/Third_Party/LoRaWAN/Mac/region/RegionAS923.c ****                     }
 1917              		.loc 1 728 0
 1918 00be 0632     		adds	r2, r2, #6
 1919 00c0 9146     		mov	r9, r2
 1920              	.LVL159:
 1921              	.L155:
 725:../../../../../../Middlewares/Third_Party/LoRaWAN/Mac/region/RegionAS923.c ****                         ( NvmCtx.Channels[i].Frequency == 0 ) )
 1922              		.loc 1 725 0
 1923 00c2 1A06     		lsls	r2, r3, #24
 1924 00c4 04D5     		bpl	.L156
 1925 00c6 7A6D     		ldr	r2, [r7, #84]
 1926 00c8 002A     		cmp	r2, #0
 1927 00ca 01D1     		bne	.L156
 728:../../../../../../Middlewares/Third_Party/LoRaWAN/Mac/region/RegionAS923.c ****                     }
 1928              		.loc 1 728 0
 1929 00cc 0632     		adds	r2, r2, #6
 1930 00ce 9146     		mov	r9, r2
 1931              	.LVL160:
 1932              	.L156:
 725:../../../../../../Middlewares/Third_Party/LoRaWAN/Mac/region/RegionAS923.c ****                         ( NvmCtx.Channels[i].Frequency == 0 ) )
 1933              		.loc 1 725 0
 1934 00d0 DA05     		lsls	r2, r3, #23
 1935 00d2 04D5     		bpl	.L157
 1936 00d4 3A6E     		ldr	r2, [r7, #96]
 1937 00d6 002A     		cmp	r2, #0
 1938 00d8 01D1     		bne	.L157
 728:../../../../../../Middlewares/Third_Party/LoRaWAN/Mac/region/RegionAS923.c ****                     }
 1939              		.loc 1 728 0
 1940 00da 0632     		adds	r2, r2, #6
 1941 00dc 9146     		mov	r9, r2
 1942              	.LVL161:
 1943              	.L157:
 725:../../../../../../Middlewares/Third_Party/LoRaWAN/Mac/region/RegionAS923.c ****                         ( NvmCtx.Channels[i].Frequency == 0 ) )
 1944              		.loc 1 725 0
 1945 00de 9A05     		lsls	r2, r3, #22
 1946 00e0 04D5     		bpl	.L158
 1947 00e2 FA6E     		ldr	r2, [r7, #108]
 1948 00e4 002A     		cmp	r2, #0
 1949 00e6 01D1     		bne	.L158
 728:../../../../../../Middlewares/Third_Party/LoRaWAN/Mac/region/RegionAS923.c ****                     }
 1950              		.loc 1 728 0
 1951 00e8 0632     		adds	r2, r2, #6
 1952 00ea 9146     		mov	r9, r2
 1953              	.LVL162:
 1954              	.L158:
 725:../../../../../../Middlewares/Third_Party/LoRaWAN/Mac/region/RegionAS923.c ****                         ( NvmCtx.Channels[i].Frequency == 0 ) )
 1955              		.loc 1 725 0
 1956 00ec 5A05     		lsls	r2, r3, #21
 1957 00ee 04D5     		bpl	.L159
ARM GAS  C:\Users\EBANO_~1\AppData\Local\Temp\cc2nkIni.s 			page 58


 1958 00f0 BA6F     		ldr	r2, [r7, #120]
 1959 00f2 002A     		cmp	r2, #0
 1960 00f4 01D1     		bne	.L159
 728:../../../../../../Middlewares/Third_Party/LoRaWAN/Mac/region/RegionAS923.c ****                     }
 1961              		.loc 1 728 0
 1962 00f6 0632     		adds	r2, r2, #6
 1963 00f8 9146     		mov	r9, r2
 1964              	.LVL163:
 1965              	.L159:
 725:../../../../../../Middlewares/Third_Party/LoRaWAN/Mac/region/RegionAS923.c ****                         ( NvmCtx.Channels[i].Frequency == 0 ) )
 1966              		.loc 1 725 0
 1967 00fa 1A05     		lsls	r2, r3, #20
 1968 00fc 05D5     		bpl	.L160
 726:../../../../../../Middlewares/Third_Party/LoRaWAN/Mac/region/RegionAS923.c ****                     {// Trying to enable an undefined channel
 1969              		.loc 1 726 0
 1970 00fe 8422     		movs	r2, #132
 725:../../../../../../Middlewares/Third_Party/LoRaWAN/Mac/region/RegionAS923.c ****                         ( NvmCtx.Channels[i].Frequency == 0 ) )
 1971              		.loc 1 725 0
 1972 0100 BA58     		ldr	r2, [r7, r2]
 1973 0102 002A     		cmp	r2, #0
 1974 0104 01D1     		bne	.L160
 728:../../../../../../Middlewares/Third_Party/LoRaWAN/Mac/region/RegionAS923.c ****                     }
 1975              		.loc 1 728 0
 1976 0106 0632     		adds	r2, r2, #6
 1977 0108 9146     		mov	r9, r2
 1978              	.LVL164:
 1979              	.L160:
 725:../../../../../../Middlewares/Third_Party/LoRaWAN/Mac/region/RegionAS923.c ****                         ( NvmCtx.Channels[i].Frequency == 0 ) )
 1980              		.loc 1 725 0
 1981 010a DA04     		lsls	r2, r3, #19
 1982 010c 05D5     		bpl	.L161
 726:../../../../../../Middlewares/Third_Party/LoRaWAN/Mac/region/RegionAS923.c ****                     {// Trying to enable an undefined channel
 1983              		.loc 1 726 0
 1984 010e 9022     		movs	r2, #144
 725:../../../../../../Middlewares/Third_Party/LoRaWAN/Mac/region/RegionAS923.c ****                         ( NvmCtx.Channels[i].Frequency == 0 ) )
 1985              		.loc 1 725 0
 1986 0110 BA58     		ldr	r2, [r7, r2]
 1987 0112 002A     		cmp	r2, #0
 1988 0114 01D1     		bne	.L161
 728:../../../../../../Middlewares/Third_Party/LoRaWAN/Mac/region/RegionAS923.c ****                     }
 1989              		.loc 1 728 0
 1990 0116 0632     		adds	r2, r2, #6
 1991 0118 9146     		mov	r9, r2
 1992              	.LVL165:
 1993              	.L161:
 725:../../../../../../Middlewares/Third_Party/LoRaWAN/Mac/region/RegionAS923.c ****                         ( NvmCtx.Channels[i].Frequency == 0 ) )
 1994              		.loc 1 725 0
 1995 011a 9A04     		lsls	r2, r3, #18
 1996 011c 05D5     		bpl	.L162
 726:../../../../../../Middlewares/Third_Party/LoRaWAN/Mac/region/RegionAS923.c ****                     {// Trying to enable an undefined channel
 1997              		.loc 1 726 0
 1998 011e 9C22     		movs	r2, #156
 725:../../../../../../Middlewares/Third_Party/LoRaWAN/Mac/region/RegionAS923.c ****                         ( NvmCtx.Channels[i].Frequency == 0 ) )
 1999              		.loc 1 725 0
 2000 0120 BA58     		ldr	r2, [r7, r2]
 2001 0122 002A     		cmp	r2, #0
 2002 0124 01D1     		bne	.L162
ARM GAS  C:\Users\EBANO_~1\AppData\Local\Temp\cc2nkIni.s 			page 59


 728:../../../../../../Middlewares/Third_Party/LoRaWAN/Mac/region/RegionAS923.c ****                     }
 2003              		.loc 1 728 0
 2004 0126 0632     		adds	r2, r2, #6
 2005 0128 9146     		mov	r9, r2
 2006              	.LVL166:
 2007              	.L162:
 725:../../../../../../Middlewares/Third_Party/LoRaWAN/Mac/region/RegionAS923.c ****                         ( NvmCtx.Channels[i].Frequency == 0 ) )
 2008              		.loc 1 725 0
 2009 012a 5A04     		lsls	r2, r3, #17
 2010 012c 05D5     		bpl	.L163
 726:../../../../../../Middlewares/Third_Party/LoRaWAN/Mac/region/RegionAS923.c ****                     {// Trying to enable an undefined channel
 2011              		.loc 1 726 0
 2012 012e A822     		movs	r2, #168
 725:../../../../../../Middlewares/Third_Party/LoRaWAN/Mac/region/RegionAS923.c ****                         ( NvmCtx.Channels[i].Frequency == 0 ) )
 2013              		.loc 1 725 0
 2014 0130 BA58     		ldr	r2, [r7, r2]
 2015 0132 002A     		cmp	r2, #0
 2016 0134 01D1     		bne	.L163
 728:../../../../../../Middlewares/Third_Party/LoRaWAN/Mac/region/RegionAS923.c ****                     }
 2017              		.loc 1 728 0
 2018 0136 0632     		adds	r2, r2, #6
 2019 0138 9146     		mov	r9, r2
 2020              	.LVL167:
 2021              	.L163:
 725:../../../../../../Middlewares/Third_Party/LoRaWAN/Mac/region/RegionAS923.c ****                         ( NvmCtx.Channels[i].Frequency == 0 ) )
 2022              		.loc 1 725 0
 2023 013a 1BB2     		sxth	r3, r3
 2024 013c 002B     		cmp	r3, #0
 2025 013e 00DB     		blt	.LCB1925
 2026 0140 72E7     		b	.L141	@long jump
 2027              	.LCB1925:
 726:../../../../../../Middlewares/Third_Party/LoRaWAN/Mac/region/RegionAS923.c ****                     {// Trying to enable an undefined channel
 2028              		.loc 1 726 0
 2029 0142 B423     		movs	r3, #180
 725:../../../../../../Middlewares/Third_Party/LoRaWAN/Mac/region/RegionAS923.c ****                         ( NvmCtx.Channels[i].Frequency == 0 ) )
 2030              		.loc 1 725 0
 2031 0144 FB58     		ldr	r3, [r7, r3]
 2032 0146 002B     		cmp	r3, #0
 2033 0148 00D0     		beq	.LCB1929
 2034 014a 6DE7     		b	.L141	@long jump
 2035              	.LCB1929:
 728:../../../../../../Middlewares/Third_Party/LoRaWAN/Mac/region/RegionAS923.c ****                     }
 2036              		.loc 1 728 0
 2037 014c 0633     		adds	r3, r3, #6
 2038 014e 9946     		mov	r9, r3
 2039              	.LVL168:
 2040              	.LBE74:
 684:../../../../../../Middlewares/Third_Party/LoRaWAN/Mac/region/RegionAS923.c ****     {
 2041              		.loc 1 684 0
 2042 0150 337A     		ldrb	r3, [r6, #8]
 2043 0152 A342     		cmp	r3, r4
 2044 0154 00D9     		bls	.LCB1938
 2045 0156 6BE7     		b	.L185	@long jump
 2046              	.LCB1938:
 2047              	.LVL169:
 2048              	.L186:
 736:../../../../../../Middlewares/Third_Party/LoRaWAN/Mac/region/RegionAS923.c ****     getPhy.UplinkDwellTime = linkAdrReq->UplinkDwellTime;
ARM GAS  C:\Users\EBANO_~1\AppData\Local\Temp\cc2nkIni.s 			page 60


 2049              		.loc 1 736 0
 2050 0158 0123     		movs	r3, #1
 2051 015a 04A8     		add	r0, sp, #16
 2052 015c 0370     		strb	r3, [r0]
 737:../../../../../../Middlewares/Third_Party/LoRaWAN/Mac/region/RegionAS923.c ****     phyParam = RegionAS923GetPhyParam( &getPhy );
 2053              		.loc 1 737 0
 2054 015e 737A     		ldrb	r3, [r6, #9]
 2055 0160 8370     		strb	r3, [r0, #2]
 738:../../../../../../Middlewares/Third_Party/LoRaWAN/Mac/region/RegionAS923.c **** 
 2056              		.loc 1 738 0
 2057 0162 FFF7FEFF 		bl	RegionAS923GetPhyParam
 2058              	.LVL170:
 740:../../../../../../Middlewares/Third_Party/LoRaWAN/Mac/region/RegionAS923.c ****     linkAdrVerifyParams.AdrEnabled = linkAdrReq->AdrEnabled;
 2059              		.loc 1 740 0
 2060 0166 4A46     		mov	r2, r9
 738:../../../../../../Middlewares/Third_Party/LoRaWAN/Mac/region/RegionAS923.c **** 
 2061              		.loc 1 738 0
 2062 0168 0300     		movs	r3, r0
 740:../../../../../../Middlewares/Third_Party/LoRaWAN/Mac/region/RegionAS923.c ****     linkAdrVerifyParams.AdrEnabled = linkAdrReq->AdrEnabled;
 2063              		.loc 1 740 0
 2064 016a 08A8     		add	r0, sp, #32
 2065 016c 0271     		strb	r2, [r0, #4]
 741:../../../../../../Middlewares/Third_Party/LoRaWAN/Mac/region/RegionAS923.c ****     linkAdrVerifyParams.Datarate = linkAdrParams.Datarate;
 2066              		.loc 1 741 0
 2067 016e B27A     		ldrb	r2, [r6, #10]
 758:../../../../../../Middlewares/Third_Party/LoRaWAN/Mac/region/RegionAS923.c **** 
 2068              		.loc 1 758 0
 2069 0170 02A9     		add	r1, sp, #8
 741:../../../../../../Middlewares/Third_Party/LoRaWAN/Mac/region/RegionAS923.c ****     linkAdrVerifyParams.Datarate = linkAdrParams.Datarate;
 2070              		.loc 1 741 0
 2071 0172 4271     		strb	r2, [r0, #5]
 742:../../../../../../Middlewares/Third_Party/LoRaWAN/Mac/region/RegionAS923.c ****     linkAdrVerifyParams.TxPower = linkAdrParams.TxPower;
 2072              		.loc 1 742 0
 2073 0174 6A78     		ldrb	r2, [r5, #1]
 758:../../../../../../Middlewares/Third_Party/LoRaWAN/Mac/region/RegionAS923.c **** 
 2074              		.loc 1 758 0
 2075 0176 8C46     		mov	ip, r1
 742:../../../../../../Middlewares/Third_Party/LoRaWAN/Mac/region/RegionAS923.c ****     linkAdrVerifyParams.TxPower = linkAdrParams.TxPower;
 2076              		.loc 1 742 0
 2077 0178 8271     		strb	r2, [r0, #6]
 743:../../../../../../Middlewares/Third_Party/LoRaWAN/Mac/region/RegionAS923.c ****     linkAdrVerifyParams.NbRep = linkAdrParams.NbRep;
 2078              		.loc 1 743 0
 2079 017a AA78     		ldrb	r2, [r5, #2]
 758:../../../../../../Middlewares/Third_Party/LoRaWAN/Mac/region/RegionAS923.c **** 
 2080              		.loc 1 758 0
 2081 017c 1121     		movs	r1, #17
 743:../../../../../../Middlewares/Third_Party/LoRaWAN/Mac/region/RegionAS923.c ****     linkAdrVerifyParams.NbRep = linkAdrParams.NbRep;
 2082              		.loc 1 743 0
 2083 017e C271     		strb	r2, [r0, #7]
 744:../../../../../../Middlewares/Third_Party/LoRaWAN/Mac/region/RegionAS923.c ****     linkAdrVerifyParams.CurrentDatarate = linkAdrReq->CurrentDatarate;
 2084              		.loc 1 744 0
 2085 0180 2A78     		ldrb	r2, [r5]
 758:../../../../../../Middlewares/Third_Party/LoRaWAN/Mac/region/RegionAS923.c **** 
 2086              		.loc 1 758 0
 2087 0182 6144     		add	r1, r1, ip
 744:../../../../../../Middlewares/Third_Party/LoRaWAN/Mac/region/RegionAS923.c ****     linkAdrVerifyParams.CurrentDatarate = linkAdrReq->CurrentDatarate;
 2088              		.loc 1 744 0
ARM GAS  C:\Users\EBANO_~1\AppData\Local\Temp\cc2nkIni.s 			page 61


 2089 0184 0272     		strb	r2, [r0, #8]
 745:../../../../../../Middlewares/Third_Party/LoRaWAN/Mac/region/RegionAS923.c ****     linkAdrVerifyParams.CurrentTxPower = linkAdrReq->CurrentTxPower;
 2090              		.loc 1 745 0
 2091 0186 F27A     		ldrb	r2, [r6, #11]
 2092 0188 4272     		strb	r2, [r0, #9]
 746:../../../../../../Middlewares/Third_Party/LoRaWAN/Mac/region/RegionAS923.c ****     linkAdrVerifyParams.CurrentNbRep = linkAdrReq->CurrentNbRep;
 2093              		.loc 1 746 0
 2094 018a 327B     		ldrb	r2, [r6, #12]
 2095 018c 8272     		strb	r2, [r0, #10]
 747:../../../../../../Middlewares/Third_Party/LoRaWAN/Mac/region/RegionAS923.c ****     linkAdrVerifyParams.NbChannels = AS923_MAX_NB_CHANNELS;
 2096              		.loc 1 747 0
 2097 018e 727B     		ldrb	r2, [r6, #13]
 750:../../../../../../Middlewares/Third_Party/LoRaWAN/Mac/region/RegionAS923.c ****     linkAdrVerifyParams.MaxDatarate = AS923_TX_MAX_DATARATE;
 2098              		.loc 1 750 0
 2099 0190 0375     		strb	r3, [r0, #20]
 747:../../../../../../Middlewares/Third_Party/LoRaWAN/Mac/region/RegionAS923.c ****     linkAdrVerifyParams.NbChannels = AS923_MAX_NB_CHANNELS;
 2100              		.loc 1 747 0
 2101 0192 C272     		strb	r2, [r0, #11]
 748:../../../../../../Middlewares/Third_Party/LoRaWAN/Mac/region/RegionAS923.c ****     linkAdrVerifyParams.ChannelsMask = &chMask;
 2102              		.loc 1 748 0
 2103 0194 1022     		movs	r2, #16
 751:../../../../../../Middlewares/Third_Party/LoRaWAN/Mac/region/RegionAS923.c ****     linkAdrVerifyParams.Channels = NvmCtx.Channels;
 2104              		.loc 1 751 0
 2105 0196 0723     		movs	r3, #7
 748:../../../../../../Middlewares/Third_Party/LoRaWAN/Mac/region/RegionAS923.c ****     linkAdrVerifyParams.ChannelsMask = &chMask;
 2106              		.loc 1 748 0
 2107 0198 0273     		strb	r2, [r0, #12]
 749:../../../../../../Middlewares/Third_Party/LoRaWAN/Mac/region/RegionAS923.c ****     linkAdrVerifyParams.MinDatarate = ( int8_t )phyParam.Value;
 2108              		.loc 1 749 0
 2109 019a 02AA     		add	r2, sp, #8
 2110 019c 0632     		adds	r2, r2, #6
 2111 019e 0261     		str	r2, [r0, #16]
 758:../../../../../../Middlewares/Third_Party/LoRaWAN/Mac/region/RegionAS923.c **** 
 2112              		.loc 1 758 0
 2113 01a0 1222     		movs	r2, #18
 751:../../../../../../Middlewares/Third_Party/LoRaWAN/Mac/region/RegionAS923.c ****     linkAdrVerifyParams.Channels = NvmCtx.Channels;
 2114              		.loc 1 751 0
 2115 01a2 4375     		strb	r3, [r0, #21]
 753:../../../../../../Middlewares/Third_Party/LoRaWAN/Mac/region/RegionAS923.c ****     linkAdrVerifyParams.MaxTxPower = AS923_MAX_TX_POWER;
 2116              		.loc 1 753 0
 2117 01a4 8383     		strh	r3, [r0, #28]
 755:../../../../../../Middlewares/Third_Party/LoRaWAN/Mac/region/RegionAS923.c **** 
 2118              		.loc 1 755 0
 2119 01a6 3368     		ldr	r3, [r6]
 758:../../../../../../Middlewares/Third_Party/LoRaWAN/Mac/region/RegionAS923.c **** 
 2120              		.loc 1 758 0
 2121 01a8 6244     		add	r2, r2, ip
 755:../../../../../../Middlewares/Third_Party/LoRaWAN/Mac/region/RegionAS923.c **** 
 2122              		.loc 1 755 0
 2123 01aa 0893     		str	r3, [sp, #32]
 758:../../../../../../Middlewares/Third_Party/LoRaWAN/Mac/region/RegionAS923.c **** 
 2124              		.loc 1 758 0
 2125 01ac 2B00     		movs	r3, r5
 752:../../../../../../Middlewares/Third_Party/LoRaWAN/Mac/region/RegionAS923.c ****     linkAdrVerifyParams.MinTxPower = AS923_MIN_TX_POWER;
 2126              		.loc 1 752 0
 2127 01ae 8761     		str	r7, [r0, #24]
 758:../../../../../../Middlewares/Third_Party/LoRaWAN/Mac/region/RegionAS923.c **** 
ARM GAS  C:\Users\EBANO_~1\AppData\Local\Temp\cc2nkIni.s 			page 62


 2128              		.loc 1 758 0
 2129 01b0 FFF7FEFF 		bl	RegionCommonLinkAdrReqVerifyParams
 2130              	.LVL171:
 2131 01b4 0600     		movs	r6, r0
 2132              	.LVL172:
 761:../../../../../../Middlewares/Third_Party/LoRaWAN/Mac/region/RegionAS923.c ****     {
 2133              		.loc 1 761 0
 2134 01b6 0728     		cmp	r0, #7
 2135 01b8 00D1     		bne	.LCB1996
 2136 01ba 91E0     		b	.L294	@long jump
 2137              	.LCB1996:
 2138              	.LVL173:
 2139              	.L144:
 770:../../../../../../Middlewares/Third_Party/LoRaWAN/Mac/region/RegionAS923.c ****     *txPowOut = linkAdrParams.TxPower;
 2140              		.loc 1 770 0
 2141 01bc 5A46     		mov	r2, fp
 2142 01be 6B78     		ldrb	r3, [r5, #1]
 776:../../../../../../Middlewares/Third_Party/LoRaWAN/Mac/region/RegionAS923.c **** 
 2143              		.loc 1 776 0
 2144 01c0 3000     		movs	r0, r6
 770:../../../../../../Middlewares/Third_Party/LoRaWAN/Mac/region/RegionAS923.c ****     *txPowOut = linkAdrParams.TxPower;
 2145              		.loc 1 770 0
 2146 01c2 1370     		strb	r3, [r2]
 771:../../../../../../Middlewares/Third_Party/LoRaWAN/Mac/region/RegionAS923.c ****     *nbRepOut = linkAdrParams.NbRep;
 2147              		.loc 1 771 0
 2148 01c4 5246     		mov	r2, r10
 2149 01c6 AB78     		ldrb	r3, [r5, #2]
 2150 01c8 1370     		strb	r3, [r2]
 772:../../../../../../Middlewares/Third_Party/LoRaWAN/Mac/region/RegionAS923.c ****     *nbBytesParsed = bytesProcessed;
 2151              		.loc 1 772 0
 2152 01ca 2B78     		ldrb	r3, [r5]
 2153 01cc 019A     		ldr	r2, [sp, #4]
 2154 01ce 1370     		strb	r3, [r2]
 773:../../../../../../Middlewares/Third_Party/LoRaWAN/Mac/region/RegionAS923.c **** 
 2155              		.loc 1 773 0
 2156 01d0 1A9B     		ldr	r3, [sp, #104]
 2157 01d2 1C70     		strb	r4, [r3]
 776:../../../../../../Middlewares/Third_Party/LoRaWAN/Mac/region/RegionAS923.c **** 
 2158              		.loc 1 776 0
 2159 01d4 11B0     		add	sp, sp, #68
 2160              		@ sp needed
 2161              	.LVL174:
 2162              	.LVL175:
 2163              	.LVL176:
 2164 01d6 3CBC     		pop	{r2, r3, r4, r5}
 2165 01d8 9046     		mov	r8, r2
 2166 01da 9946     		mov	r9, r3
 2167 01dc A246     		mov	r10, r4
 2168 01de AB46     		mov	fp, r5
 2169 01e0 F0BD     		pop	{r4, r5, r6, r7, pc}
 2170              	.LVL177:
 2171              	.L145:
 704:../../../../../../Middlewares/Third_Party/LoRaWAN/Mac/region/RegionAS923.c ****         }
 2172              		.loc 1 704 0
 2173 01e2 0621     		movs	r1, #6
 2174 01e4 8946     		mov	r9, r1
 706:../../../../../../Middlewares/Third_Party/LoRaWAN/Mac/region/RegionAS923.c ****                 ( linkAdrParams.ChMaskCtrl >= 7 ) )
ARM GAS  C:\Users\EBANO_~1\AppData\Local\Temp\cc2nkIni.s 			page 63


 2175              		.loc 1 706 0
 2176 01e6 511E     		subs	r1, r2, #1
 2177 01e8 0429     		cmp	r1, #4
 2178 01ea 00D8     		bhi	.LCB2047
 2179 01ec 1CE7     		b	.L141	@long jump
 2180              	.LCB2047:
 706:../../../../../../Middlewares/Third_Party/LoRaWAN/Mac/region/RegionAS923.c ****                 ( linkAdrParams.ChMaskCtrl >= 7 ) )
 2181              		.loc 1 706 0 is_stmt 0 discriminator 1
 2182 01ee 062A     		cmp	r2, #6
 2183 01f0 00D0     		beq	.LCB2049
 2184 01f2 19E7     		b	.L141	@long jump
 2185              	.LCB2049:
 2186              	.LVL178:
 2187              	.LBB75:
 718:../../../../../../Middlewares/Third_Party/LoRaWAN/Mac/region/RegionAS923.c ****                     {
 2188              		.loc 1 718 0 is_stmt 1
 2189 01f4 3968     		ldr	r1, [r7]
 2190 01f6 0022     		movs	r2, #0
 2191 01f8 0029     		cmp	r1, #0
 2192 01fa 02D0     		beq	.L166
 720:../../../../../../Middlewares/Third_Party/LoRaWAN/Mac/region/RegionAS923.c ****                     }
 2193              		.loc 1 720 0
 2194 01fc 0123     		movs	r3, #1
 2195 01fe 0132     		adds	r2, r2, #1
 2196 0200 0343     		orrs	r3, r0
 2197              	.L166:
 2198              	.LVL179:
 718:../../../../../../Middlewares/Third_Party/LoRaWAN/Mac/region/RegionAS923.c ****                     {
 2199              		.loc 1 718 0
 2200 0202 F968     		ldr	r1, [r7, #12]
 2201 0204 0029     		cmp	r1, #0
 2202 0206 02D0     		beq	.L167
 720:../../../../../../Middlewares/Third_Party/LoRaWAN/Mac/region/RegionAS923.c ****                     }
 2203              		.loc 1 720 0
 2204 0208 0222     		movs	r2, #2
 2205 020a 1343     		orrs	r3, r2
 2206 020c 0122     		movs	r2, #1
 2207              	.L167:
 2208              	.LVL180:
 718:../../../../../../Middlewares/Third_Party/LoRaWAN/Mac/region/RegionAS923.c ****                     {
 2209              		.loc 1 718 0
 2210 020e B969     		ldr	r1, [r7, #24]
 2211 0210 0029     		cmp	r1, #0
 2212 0212 02D0     		beq	.L168
 720:../../../../../../Middlewares/Third_Party/LoRaWAN/Mac/region/RegionAS923.c ****                     }
 2213              		.loc 1 720 0
 2214 0214 0422     		movs	r2, #4
 2215 0216 1343     		orrs	r3, r2
 2216 0218 0122     		movs	r2, #1
 2217              	.L168:
 2218              	.LVL181:
 718:../../../../../../Middlewares/Third_Party/LoRaWAN/Mac/region/RegionAS923.c ****                     {
 2219              		.loc 1 718 0
 2220 021a 796A     		ldr	r1, [r7, #36]
 2221 021c 0029     		cmp	r1, #0
 2222 021e 02D0     		beq	.L169
 720:../../../../../../Middlewares/Third_Party/LoRaWAN/Mac/region/RegionAS923.c ****                     }
ARM GAS  C:\Users\EBANO_~1\AppData\Local\Temp\cc2nkIni.s 			page 64


 2223              		.loc 1 720 0
 2224 0220 0822     		movs	r2, #8
 2225 0222 1343     		orrs	r3, r2
 2226 0224 0122     		movs	r2, #1
 2227              	.L169:
 2228              	.LVL182:
 718:../../../../../../Middlewares/Third_Party/LoRaWAN/Mac/region/RegionAS923.c ****                     {
 2229              		.loc 1 718 0
 2230 0226 396B     		ldr	r1, [r7, #48]
 2231 0228 0029     		cmp	r1, #0
 2232 022a 02D0     		beq	.L170
 720:../../../../../../Middlewares/Third_Party/LoRaWAN/Mac/region/RegionAS923.c ****                     }
 2233              		.loc 1 720 0
 2234 022c 1022     		movs	r2, #16
 2235 022e 1343     		orrs	r3, r2
 2236 0230 0122     		movs	r2, #1
 2237              	.L170:
 2238              	.LVL183:
 718:../../../../../../Middlewares/Third_Party/LoRaWAN/Mac/region/RegionAS923.c ****                     {
 2239              		.loc 1 718 0
 2240 0232 F96B     		ldr	r1, [r7, #60]
 2241 0234 0029     		cmp	r1, #0
 2242 0236 02D0     		beq	.L171
 720:../../../../../../Middlewares/Third_Party/LoRaWAN/Mac/region/RegionAS923.c ****                     }
 2243              		.loc 1 720 0
 2244 0238 2022     		movs	r2, #32
 2245 023a 1343     		orrs	r3, r2
 2246 023c 0122     		movs	r2, #1
 2247              	.L171:
 2248              	.LVL184:
 718:../../../../../../Middlewares/Third_Party/LoRaWAN/Mac/region/RegionAS923.c ****                     {
 2249              		.loc 1 718 0
 2250 023e B96C     		ldr	r1, [r7, #72]
 2251 0240 0029     		cmp	r1, #0
 2252 0242 02D0     		beq	.L172
 720:../../../../../../Middlewares/Third_Party/LoRaWAN/Mac/region/RegionAS923.c ****                     }
 2253              		.loc 1 720 0
 2254 0244 4022     		movs	r2, #64
 2255 0246 1343     		orrs	r3, r2
 2256 0248 0122     		movs	r2, #1
 2257              	.L172:
 2258              	.LVL185:
 718:../../../../../../Middlewares/Third_Party/LoRaWAN/Mac/region/RegionAS923.c ****                     {
 2259              		.loc 1 718 0
 2260 024a 796D     		ldr	r1, [r7, #84]
 2261 024c 0029     		cmp	r1, #0
 2262 024e 02D0     		beq	.L173
 720:../../../../../../Middlewares/Third_Party/LoRaWAN/Mac/region/RegionAS923.c ****                     }
 2263              		.loc 1 720 0
 2264 0250 8022     		movs	r2, #128
 2265 0252 1343     		orrs	r3, r2
 2266 0254 0122     		movs	r2, #1
 2267              	.L173:
 2268              	.LVL186:
 718:../../../../../../Middlewares/Third_Party/LoRaWAN/Mac/region/RegionAS923.c ****                     {
 2269              		.loc 1 718 0
 2270 0256 396E     		ldr	r1, [r7, #96]
ARM GAS  C:\Users\EBANO_~1\AppData\Local\Temp\cc2nkIni.s 			page 65


 2271 0258 0029     		cmp	r1, #0
 2272 025a 03D0     		beq	.L174
 720:../../../../../../Middlewares/Third_Party/LoRaWAN/Mac/region/RegionAS923.c ****                     }
 2273              		.loc 1 720 0
 2274 025c 8022     		movs	r2, #128
 2275 025e 5200     		lsls	r2, r2, #1
 2276 0260 1343     		orrs	r3, r2
 2277 0262 FF3A     		subs	r2, r2, #255
 2278              	.L174:
 2279              	.LVL187:
 718:../../../../../../Middlewares/Third_Party/LoRaWAN/Mac/region/RegionAS923.c ****                     {
 2280              		.loc 1 718 0
 2281 0264 F96E     		ldr	r1, [r7, #108]
 2282 0266 0029     		cmp	r1, #0
 2283 0268 03D0     		beq	.L175
 720:../../../../../../Middlewares/Third_Party/LoRaWAN/Mac/region/RegionAS923.c ****                     }
 2284              		.loc 1 720 0
 2285 026a 8022     		movs	r2, #128
 2286 026c 9200     		lsls	r2, r2, #2
 2287 026e 1343     		orrs	r3, r2
 2288 0270 0122     		movs	r2, #1
 2289              	.L175:
 2290              	.LVL188:
 718:../../../../../../Middlewares/Third_Party/LoRaWAN/Mac/region/RegionAS923.c ****                     {
 2291              		.loc 1 718 0
 2292 0272 B96F     		ldr	r1, [r7, #120]
 2293 0274 0029     		cmp	r1, #0
 2294 0276 03D0     		beq	.L176
 720:../../../../../../Middlewares/Third_Party/LoRaWAN/Mac/region/RegionAS923.c ****                     }
 2295              		.loc 1 720 0
 2296 0278 8022     		movs	r2, #128
 2297 027a D200     		lsls	r2, r2, #3
 2298 027c 1343     		orrs	r3, r2
 2299 027e 0122     		movs	r2, #1
 2300              	.L176:
 2301              	.LVL189:
 718:../../../../../../Middlewares/Third_Party/LoRaWAN/Mac/region/RegionAS923.c ****                     {
 2302              		.loc 1 718 0
 2303 0280 8421     		movs	r1, #132
 2304 0282 7958     		ldr	r1, [r7, r1]
 2305 0284 0029     		cmp	r1, #0
 2306 0286 03D0     		beq	.L177
 720:../../../../../../Middlewares/Third_Party/LoRaWAN/Mac/region/RegionAS923.c ****                     }
 2307              		.loc 1 720 0
 2308 0288 8022     		movs	r2, #128
 2309 028a 1201     		lsls	r2, r2, #4
 2310 028c 1343     		orrs	r3, r2
 2311 028e 0122     		movs	r2, #1
 2312              	.L177:
 2313              	.LVL190:
 718:../../../../../../Middlewares/Third_Party/LoRaWAN/Mac/region/RegionAS923.c ****                     {
 2314              		.loc 1 718 0
 2315 0290 9021     		movs	r1, #144
 2316 0292 7958     		ldr	r1, [r7, r1]
 2317 0294 0029     		cmp	r1, #0
 2318 0296 03D0     		beq	.L178
 720:../../../../../../Middlewares/Third_Party/LoRaWAN/Mac/region/RegionAS923.c ****                     }
ARM GAS  C:\Users\EBANO_~1\AppData\Local\Temp\cc2nkIni.s 			page 66


 2319              		.loc 1 720 0
 2320 0298 8022     		movs	r2, #128
 2321 029a 5201     		lsls	r2, r2, #5
 2322 029c 1343     		orrs	r3, r2
 2323 029e 0122     		movs	r2, #1
 2324              	.L178:
 2325              	.LVL191:
 718:../../../../../../Middlewares/Third_Party/LoRaWAN/Mac/region/RegionAS923.c ****                     {
 2326              		.loc 1 718 0
 2327 02a0 9C21     		movs	r1, #156
 2328 02a2 7958     		ldr	r1, [r7, r1]
 2329 02a4 0029     		cmp	r1, #0
 2330 02a6 26D1     		bne	.L295
 2331              	.LVL192:
 2332 02a8 A821     		movs	r1, #168
 2333 02aa 7958     		ldr	r1, [r7, r1]
 2334 02ac 0029     		cmp	r1, #0
 2335 02ae 0DD0     		beq	.L183
 2336              	.L180:
 720:../../../../../../Middlewares/Third_Party/LoRaWAN/Mac/region/RegionAS923.c ****                     }
 2337              		.loc 1 720 0
 2338 02b0 8022     		movs	r2, #128
 2339 02b2 D201     		lsls	r2, r2, #7
 2340 02b4 1343     		orrs	r3, r2
 2341              	.L293:
 2342              	.LVL193:
 718:../../../../../../Middlewares/Third_Party/LoRaWAN/Mac/region/RegionAS923.c ****                     {
 2343              		.loc 1 718 0
 2344 02b6 B422     		movs	r2, #180
 2345 02b8 BA58     		ldr	r2, [r7, r2]
 2346 02ba 002A     		cmp	r2, #0
 2347 02bc 02D0     		beq	.L182
 2348              	.L181:
 720:../../../../../../Middlewares/Third_Party/LoRaWAN/Mac/region/RegionAS923.c ****                     }
 2349              		.loc 1 720 0
 2350 02be 8022     		movs	r2, #128
 2351 02c0 1202     		lsls	r2, r2, #8
 2352 02c2 1343     		orrs	r3, r2
 2353              	.LVL194:
 2354              	.L182:
 2355 02c4 02AA     		add	r2, sp, #8
 2356 02c6 D380     		strh	r3, [r2, #6]
 718:../../../../../../Middlewares/Third_Party/LoRaWAN/Mac/region/RegionAS923.c ****                     {
 2357              		.loc 1 718 0
 2358 02c8 C146     		mov	r9, r8
 2359 02ca ADE6     		b	.L141
 2360              	.LVL195:
 2361              	.L183:
 2362 02cc B421     		movs	r1, #180
 2363 02ce 7958     		ldr	r1, [r7, r1]
 2364 02d0 0029     		cmp	r1, #0
 2365 02d2 F4D1     		bne	.L181
 2366              	.LVL196:
 2367 02d4 0721     		movs	r1, #7
 2368 02d6 8946     		mov	r9, r1
 2369 02d8 002A     		cmp	r2, #0
 2370 02da 00D1     		bne	.LCB2267
ARM GAS  C:\Users\EBANO_~1\AppData\Local\Temp\cc2nkIni.s 			page 67


 2371 02dc A4E6     		b	.L141	@long jump
 2372              	.LCB2267:
 2373 02de F1E7     		b	.L182
 2374              	.LVL197:
 2375              	.L294:
 2376              	.LBE75:
 764:../../../../../../Middlewares/Third_Party/LoRaWAN/Mac/region/RegionAS923.c ****         // Update the channels mask
 2377              		.loc 1 764 0
 2378 02e0 3800     		movs	r0, r7
 2379              	.LVL198:
 2380 02e2 0222     		movs	r2, #2
 2381 02e4 D030     		adds	r0, r0, #208
 2382 02e6 0021     		movs	r1, #0
 2383 02e8 FFF7FEFF 		bl	memset1
 2384              	.LVL199:
 766:../../../../../../Middlewares/Third_Party/LoRaWAN/Mac/region/RegionAS923.c ****     }
 2385              		.loc 1 766 0
 2386 02ec 02AB     		add	r3, sp, #8
 2387 02ee DA88     		ldrh	r2, [r3, #6]
 2388 02f0 D023     		movs	r3, #208
 2389 02f2 FA52     		strh	r2, [r7, r3]
 2390 02f4 62E7     		b	.L144
 2391              	.LVL200:
 2392              	.L295:
 2393              	.LBB76:
 720:../../../../../../Middlewares/Third_Party/LoRaWAN/Mac/region/RegionAS923.c ****                     }
 2394              		.loc 1 720 0
 2395 02f6 8022     		movs	r2, #128
 2396 02f8 9201     		lsls	r2, r2, #6
 2397 02fa 1343     		orrs	r3, r2
 2398              	.LVL201:
 718:../../../../../../Middlewares/Third_Party/LoRaWAN/Mac/region/RegionAS923.c ****                     {
 2399              		.loc 1 718 0
 2400 02fc A822     		movs	r2, #168
 2401 02fe BA58     		ldr	r2, [r7, r2]
 2402 0300 002A     		cmp	r2, #0
 2403 0302 D5D1     		bne	.L180
 2404 0304 D7E7     		b	.L293
 2405              	.L297:
 2406 0306 C046     		.align	2
 2407              	.L296:
 2408 0308 00000000 		.word	NvmCtx
 2409              	.LBE76:
 2410              		.cfi_endproc
 2411              	.LFE54:
 2412              		.size	RegionAS923LinkAdrReq, .-RegionAS923LinkAdrReq
 2413              		.section	.text.RegionAS923RxParamSetupReq,"ax",%progbits
 2414              		.align	1
 2415              		.p2align 2,,3
 2416              		.global	RegionAS923RxParamSetupReq
 2417              		.syntax unified
 2418              		.code	16
 2419              		.thumb_func
 2420              		.fpu softvfp
 2421              		.type	RegionAS923RxParamSetupReq, %function
 2422              	RegionAS923RxParamSetupReq:
 2423              	.LFB55:
ARM GAS  C:\Users\EBANO_~1\AppData\Local\Temp\cc2nkIni.s 			page 68


 779:../../../../../../Middlewares/Third_Party/LoRaWAN/Mac/region/RegionAS923.c ****     uint8_t status = 0x07;
 2424              		.loc 1 779 0
 2425              		.cfi_startproc
 2426              		@ args = 0, pretend = 0, frame = 8
 2427              		@ frame_needed = 0, uses_anonymous_args = 0
 2428              	.LVL202:
 2429 0000 70B5     		push	{r4, r5, r6, lr}
 2430              	.LCFI22:
 2431              		.cfi_def_cfa_offset 16
 2432              		.cfi_offset 4, -16
 2433              		.cfi_offset 5, -12
 2434              		.cfi_offset 6, -8
 2435              		.cfi_offset 14, -4
 2436              	.LBB77:
 2437              	.LBB78:
 111:../../../../../../Middlewares/Third_Party/LoRaWAN/Mac/region/RegionAS923.c ****     {
 2438              		.loc 1 111 0
 2439 0002 154B     		ldr	r3, .L308
 2440              	.LBE78:
 2441              	.LBE77:
 783:../../../../../../Middlewares/Third_Party/LoRaWAN/Mac/region/RegionAS923.c ****     {
 2442              		.loc 1 783 0
 2443 0004 4568     		ldr	r5, [r0, #4]
 2444              	.LVL203:
 2445              	.LBB82:
 2446              	.LBB79:
 111:../../../../../../Middlewares/Third_Party/LoRaWAN/Mac/region/RegionAS923.c ****     {
 2447              		.loc 1 111 0
 2448 0006 9B6A     		ldr	r3, [r3, #40]
 2449              	.LBE79:
 2450              	.LBE82:
 779:../../../../../../Middlewares/Third_Party/LoRaWAN/Mac/region/RegionAS923.c ****     uint8_t status = 0x07;
 2451              		.loc 1 779 0
 2452 0008 82B0     		sub	sp, sp, #8
 2453              	.LCFI23:
 2454              		.cfi_def_cfa_offset 24
 779:../../../../../../Middlewares/Third_Party/LoRaWAN/Mac/region/RegionAS923.c ****     uint8_t status = 0x07;
 2455              		.loc 1 779 0
 2456 000a 0400     		movs	r4, r0
 2457              	.LBB83:
 2458              	.LBB80:
 111:../../../../../../Middlewares/Third_Party/LoRaWAN/Mac/region/RegionAS923.c ****     {
 2459              		.loc 1 111 0
 2460 000c 2800     		movs	r0, r5
 2461              	.LVL204:
 2462 000e 0193     		str	r3, [sp, #4]
 2463 0010 9847     		blx	r3
 2464              	.LVL205:
 2465 0012 0028     		cmp	r0, #0
 2466 0014 05D0     		beq	.L303
 116:../../../../../../Middlewares/Third_Party/LoRaWAN/Mac/region/RegionAS923.c ****     {
 2467              		.loc 1 116 0
 2468 0016 114B     		ldr	r3, .L308+4
 2469 0018 9C46     		mov	ip, r3
 2470 001a 114B     		ldr	r3, .L308+8
 2471 001c 6544     		add	r5, r5, ip
 2472              	.LVL206:
ARM GAS  C:\Users\EBANO_~1\AppData\Local\Temp\cc2nkIni.s 			page 69


 2473 001e 9D42     		cmp	r5, r3
 2474 0020 17D9     		bls	.L307
 2475              	.LVL207:
 2476              	.L303:
 2477 0022 0425     		movs	r5, #4
 2478              	.LBE80:
 2479              	.LBE83:
 785:../../../../../../Middlewares/Third_Party/LoRaWAN/Mac/region/RegionAS923.c ****     }
 2480              		.loc 1 785 0
 2481 0024 0626     		movs	r6, #6
 2482              	.L299:
 2483              	.LVL208:
 789:../../../../../../Middlewares/Third_Party/LoRaWAN/Mac/region/RegionAS923.c ****     {
 2484              		.loc 1 789 0
 2485 0026 0020     		movs	r0, #0
 2486 0028 0722     		movs	r2, #7
 2487 002a 2056     		ldrsb	r0, [r4, r0]
 2488 002c 0021     		movs	r1, #0
 2489 002e FFF7FEFF 		bl	RegionCommonValueInRange
 2490              	.LVL209:
 2491 0032 0028     		cmp	r0, #0
 2492 0034 00D0     		beq	.L300
 2493 0036 3500     		movs	r5, r6
 2494              	.L300:
 2495              	.LVL210:
 795:../../../../../../Middlewares/Third_Party/LoRaWAN/Mac/region/RegionAS923.c ****     {
 2496              		.loc 1 795 0
 2497 0038 0120     		movs	r0, #1
 2498 003a 0722     		movs	r2, #7
 2499 003c 2056     		ldrsb	r0, [r4, r0]
 2500 003e 0021     		movs	r1, #0
 2501 0040 FFF7FEFF 		bl	RegionCommonValueInRange
 2502              	.LVL211:
 2503 0044 0028     		cmp	r0, #0
 2504 0046 01D1     		bne	.L301
 797:../../../../../../Middlewares/Third_Party/LoRaWAN/Mac/region/RegionAS923.c ****     }
 2505              		.loc 1 797 0
 2506 0048 FB23     		movs	r3, #251
 2507 004a 1D40     		ands	r5, r3
 2508              	.LVL212:
 2509              	.L301:
 801:../../../../../../Middlewares/Third_Party/LoRaWAN/Mac/region/RegionAS923.c **** 
 2510              		.loc 1 801 0
 2511 004c 2800     		movs	r0, r5
 2512 004e 02B0     		add	sp, sp, #8
 2513              		@ sp needed
 2514              	.LVL213:
 2515              	.LVL214:
 2516 0050 70BD     		pop	{r4, r5, r6, pc}
 2517              	.LVL215:
 2518              	.L307:
 2519              	.LBB84:
 2520              	.LBB81:
 116:../../../../../../Middlewares/Third_Party/LoRaWAN/Mac/region/RegionAS923.c ****     {
 2521              		.loc 1 116 0
 2522 0052 0525     		movs	r5, #5
 2523              	.LVL216:
ARM GAS  C:\Users\EBANO_~1\AppData\Local\Temp\cc2nkIni.s 			page 70


 2524              	.LBE81:
 2525              	.LBE84:
 780:../../../../../../Middlewares/Third_Party/LoRaWAN/Mac/region/RegionAS923.c **** 
 2526              		.loc 1 780 0
 2527 0054 0726     		movs	r6, #7
 2528 0056 E6E7     		b	.L299
 2529              	.L309:
 2530              		.align	2
 2531              	.L308:
 2532 0058 00000000 		.word	Radio
 2533 005c 403576C9 		.word	-915000000
 2534 0060 405DC600 		.word	13000000
 2535              		.cfi_endproc
 2536              	.LFE55:
 2537              		.size	RegionAS923RxParamSetupReq, .-RegionAS923RxParamSetupReq
 2538              		.section	.text.RegionAS923NewChannelReq,"ax",%progbits
 2539              		.align	1
 2540              		.p2align 2,,3
 2541              		.global	RegionAS923NewChannelReq
 2542              		.syntax unified
 2543              		.code	16
 2544              		.thumb_func
 2545              		.fpu softvfp
 2546              		.type	RegionAS923NewChannelReq, %function
 2547              	RegionAS923NewChannelReq:
 2548              	.LFB56:
 804:../../../../../../Middlewares/Third_Party/LoRaWAN/Mac/region/RegionAS923.c ****     uint8_t status = 0x03;
 2549              		.loc 1 804 0
 2550              		.cfi_startproc
 2551              		@ args = 0, pretend = 0, frame = 8
 2552              		@ frame_needed = 0, uses_anonymous_args = 0
 2553              	.LVL217:
 2554 0000 F0B5     		push	{r4, r5, r6, r7, lr}
 2555              	.LCFI24:
 2556              		.cfi_def_cfa_offset 20
 2557              		.cfi_offset 4, -20
 2558              		.cfi_offset 5, -16
 2559              		.cfi_offset 6, -12
 2560              		.cfi_offset 7, -8
 2561              		.cfi_offset 14, -4
 2562 0002 C646     		mov	lr, r8
 2563 0004 00B5     		push	{lr}
 2564              	.LCFI25:
 2565              		.cfi_def_cfa_offset 24
 2566              		.cfi_offset 8, -24
 809:../../../../../../Middlewares/Third_Party/LoRaWAN/Mac/region/RegionAS923.c ****     {
 2567              		.loc 1 809 0
 2568 0006 0568     		ldr	r5, [r0]
 804:../../../../../../Middlewares/Third_Party/LoRaWAN/Mac/region/RegionAS923.c ****     uint8_t status = 0x03;
 2569              		.loc 1 804 0
 2570 0008 82B0     		sub	sp, sp, #8
 2571              	.LCFI26:
 2572              		.cfi_def_cfa_offset 32
 809:../../../../../../Middlewares/Third_Party/LoRaWAN/Mac/region/RegionAS923.c ****     {
 2573              		.loc 1 809 0
 2574 000a 2B68     		ldr	r3, [r5]
 2575 000c 0479     		ldrb	r4, [r0, #4]
ARM GAS  C:\Users\EBANO_~1\AppData\Local\Temp\cc2nkIni.s 			page 71


 2576 000e 002B     		cmp	r3, #0
 2577 0010 19D1     		bne	.L311
 2578              	.LVL218:
 2579              	.LBB91:
 2580              	.LBB92:
1038:../../../../../../Middlewares/Third_Party/LoRaWAN/Mac/region/RegionAS923.c ****     {
 2581              		.loc 1 1038 0
 2582 0012 012C     		cmp	r4, #1
 2583 0014 12D9     		bls	.L312
1044:../../../../../../Middlewares/Third_Party/LoRaWAN/Mac/region/RegionAS923.c **** 
 2584              		.loc 1 1044 0
 2585 0016 6000     		lsls	r0, r4, #1
 2586              	.LVL219:
 2587 0018 364D     		ldr	r5, .L332
 2588 001a 0019     		adds	r0, r0, r4
 2589 001c 8000     		lsls	r0, r0, #2
 2590 001e 0C22     		movs	r2, #12
 2591 0020 0021     		movs	r1, #0
 2592 0022 2818     		adds	r0, r5, r0
 2593 0024 FFF7FEFF 		bl	memset
 2594              	.LVL220:
 2595              		.loc 1 1046 0
 2596 0028 2800     		movs	r0, r5
 2597 002a 1022     		movs	r2, #16
 2598 002c D030     		adds	r0, r0, #208
 2599 002e 2100     		movs	r1, r4
 2600 0030 FFF7FEFF 		bl	RegionCommonChanDisable
 2601              	.LVL221:
 2602 0034 0300     		movs	r3, r0
 2603              	.LVL222:
 2604              	.LBE92:
 2605              	.LBE91:
 805:../../../../../../Middlewares/Third_Party/LoRaWAN/Mac/region/RegionAS923.c ****     ChannelAddParams_t channelAdd;
 2606              		.loc 1 805 0
 2607 0036 0320     		movs	r0, #3
 814:../../../../../../Middlewares/Third_Party/LoRaWAN/Mac/region/RegionAS923.c ****         {
 2608              		.loc 1 814 0
 2609 0038 002B     		cmp	r3, #0
 2610 003a 00D1     		bne	.L325
 2611              	.L312:
 816:../../../../../../Middlewares/Third_Party/LoRaWAN/Mac/region/RegionAS923.c ****         }
 2612              		.loc 1 816 0
 2613 003c 0020     		movs	r0, #0
 2614              	.L325:
 854:../../../../../../Middlewares/Third_Party/LoRaWAN/Mac/region/RegionAS923.c **** 
 2615              		.loc 1 854 0
 2616 003e 02B0     		add	sp, sp, #8
 2617              		@ sp needed
 2618 0040 04BC     		pop	{r2}
 2619 0042 9046     		mov	r8, r2
 2620 0044 F0BD     		pop	{r4, r5, r6, r7, pc}
 2621              	.LVL223:
 2622              	.L311:
 2623              	.LBB93:
 2624              	.LBB94:
 981:../../../../../../Middlewares/Third_Party/LoRaWAN/Mac/region/RegionAS923.c ****     {
 2625              		.loc 1 981 0
ARM GAS  C:\Users\EBANO_~1\AppData\Local\Temp\cc2nkIni.s 			page 72


 2626 0046 A31E     		subs	r3, r4, #2
 2627 0048 0D2B     		cmp	r3, #13
 2628 004a F7D8     		bhi	.L312
 992:../../../../../../Middlewares/Third_Party/LoRaWAN/Mac/region/RegionAS923.c ****     {
 2629              		.loc 1 992 0
 2630 004c 287A     		ldrb	r0, [r5, #8]
 2631              	.LVL224:
 2632 004e 0722     		movs	r2, #7
 2633 0050 0007     		lsls	r0, r0, #28
 2634 0052 0021     		movs	r1, #0
 2635 0054 0017     		asrs	r0, r0, #28
 2636 0056 FFF7FEFF 		bl	RegionCommonValueInRange
 2637              	.LVL225:
 2638 005a 0600     		movs	r6, r0
 2639              	.LVL226:
 996:../../../../../../Middlewares/Third_Party/LoRaWAN/Mac/region/RegionAS923.c ****     {
 2640              		.loc 1 996 0
 2641 005c 0820     		movs	r0, #8
 2642 005e 2856     		ldrsb	r0, [r5, r0]
 2643 0060 0722     		movs	r2, #7
 2644 0062 0011     		asrs	r0, r0, #4
 2645 0064 0021     		movs	r1, #0
 2646 0066 FFF7FEFF 		bl	RegionCommonValueInRange
 2647              	.LVL227:
 998:../../../../../../Middlewares/Third_Party/LoRaWAN/Mac/region/RegionAS923.c ****     }
 2648              		.loc 1 998 0
 2649 006a 0127     		movs	r7, #1
 996:../../../../../../Middlewares/Third_Party/LoRaWAN/Mac/region/RegionAS923.c ****     {
 2650              		.loc 1 996 0
 2651 006c 0028     		cmp	r0, #0
 2652 006e 25D1     		bne	.L330
 2653              	.LVL228:
 2654              	.L314:
 2655 0070 214B     		ldr	r3, .L332+4
 2656 0072 2E68     		ldr	r6, [r5]
 2657 0074 9B6A     		ldr	r3, [r3, #40]
 2658              	.LBB95:
 2659              	.LBB96:
 111:../../../../../../Middlewares/Third_Party/LoRaWAN/Mac/region/RegionAS923.c ****     {
 2660              		.loc 1 111 0
 2661 0076 3000     		movs	r0, r6
 2662 0078 0193     		str	r3, [sp, #4]
 2663              	.LBE96:
 2664              	.LBE95:
1000:../../../../../../Middlewares/Third_Party/LoRaWAN/Mac/region/RegionAS923.c ****     {
 2665              		.loc 1 1000 0
 2666 007a 2B7A     		ldrb	r3, [r5, #8]
 2667 007c 1A07     		lsls	r2, r3, #28
 2668 007e 5BB2     		sxtb	r3, r3
 2669 0080 1217     		asrs	r2, r2, #28
 2670 0082 1B11     		asrs	r3, r3, #4
 2671 0084 9A42     		cmp	r2, r3
 2672 0086 0BDD     		ble	.L331
 2673              	.LVL229:
 2674              	.LBB99:
 2675              	.LBB97:
 111:../../../../../../Middlewares/Third_Party/LoRaWAN/Mac/region/RegionAS923.c ****     {
ARM GAS  C:\Users\EBANO_~1\AppData\Local\Temp\cc2nkIni.s 			page 73


 2676              		.loc 1 111 0
 2677 0088 019B     		ldr	r3, [sp, #4]
 2678 008a 9847     		blx	r3
 2679              	.LVL230:
 2680 008c 0028     		cmp	r0, #0
 2681 008e D5D0     		beq	.L312
 116:../../../../../../Middlewares/Third_Party/LoRaWAN/Mac/region/RegionAS923.c ****     {
 2682              		.loc 1 116 0
 2683 0090 1A4B     		ldr	r3, .L332+8
 2684 0092 9C46     		mov	ip, r3
 2685 0094 1A4B     		ldr	r3, .L332+12
 2686 0096 6644     		add	r6, r6, ip
 2687 0098 9E42     		cmp	r6, r3
 2688 009a CFD8     		bhi	.L312
 2689              	.LVL231:
 2690              	.L320:
 2691              	.LBE97:
 2692              	.LBE99:
 2693              	.LBE94:
 2694              	.LBE93:
 837:../../../../../../Middlewares/Third_Party/LoRaWAN/Mac/region/RegionAS923.c ****                 break;
 2695              		.loc 1 837 0
 2696 009c 0120     		movs	r0, #1
 2697 009e CEE7     		b	.L325
 2698              	.LVL232:
 2699              	.L331:
 2700              	.LBB104:
 2701              	.LBB101:
 2702              	.LBB100:
 2703              	.LBB98:
 111:../../../../../../Middlewares/Third_Party/LoRaWAN/Mac/region/RegionAS923.c ****     {
 2704              		.loc 1 111 0
 2705 00a0 019B     		ldr	r3, [sp, #4]
 2706 00a2 9847     		blx	r3
 2707              	.LVL233:
 2708 00a4 0028     		cmp	r0, #0
 2709 00a6 05D0     		beq	.L316
 116:../../../../../../Middlewares/Third_Party/LoRaWAN/Mac/region/RegionAS923.c ****     {
 2710              		.loc 1 116 0
 2711 00a8 144B     		ldr	r3, .L332+8
 2712 00aa 9C46     		mov	ip, r3
 2713 00ac 144B     		ldr	r3, .L332+12
 2714 00ae 6644     		add	r6, r6, ip
 2715 00b0 9E42     		cmp	r6, r3
 2716 00b2 07D9     		bls	.L317
 2717              	.L316:
 2718              	.LVL234:
 2719              	.LBE98:
 2720              	.LBE100:
1015:../../../../../../Middlewares/Third_Party/LoRaWAN/Mac/region/RegionAS923.c ****     {
 2721              		.loc 1 1015 0
 2722 00b4 002F     		cmp	r7, #0
 2723 00b6 C1D1     		bne	.L312
 2724              	.LBE101:
 2725              	.LBE104:
 832:../../../../../../Middlewares/Third_Party/LoRaWAN/Mac/region/RegionAS923.c ****                 break;
 2726              		.loc 1 832 0
ARM GAS  C:\Users\EBANO_~1\AppData\Local\Temp\cc2nkIni.s 			page 74


 2727 00b8 0220     		movs	r0, #2
 2728 00ba C0E7     		b	.L325
 2729              	.LVL235:
 2730              	.L330:
 2731              	.LBB105:
 2732              	.LBB102:
 992:../../../../../../Middlewares/Third_Party/LoRaWAN/Mac/region/RegionAS923.c ****     {
 2733              		.loc 1 992 0
 2734 00bc 7742     		rsbs	r7, r6, #0
 2735 00be 7741     		adcs	r7, r7, r6
 2736              	.LVL236:
 2737 00c0 FFB2     		uxtb	r7, r7
 2738 00c2 D5E7     		b	.L314
 2739              	.LVL237:
 2740              	.L317:
1015:../../../../../../Middlewares/Third_Party/LoRaWAN/Mac/region/RegionAS923.c ****     {
 2741              		.loc 1 1015 0
 2742 00c4 002F     		cmp	r7, #0
 2743 00c6 E9D1     		bne	.L320
1028:../../../../../../Middlewares/Third_Party/LoRaWAN/Mac/region/RegionAS923.c ****     NvmCtx.Channels[id].Band = 0;
 2744              		.loc 1 1028 0
 2745 00c8 0A4B     		ldr	r3, .L332
 2746 00ca 6600     		lsls	r6, r4, #1
 2747 00cc 9846     		mov	r8, r3
 2748 00ce 3619     		adds	r6, r6, r4
 2749 00d0 B600     		lsls	r6, r6, #2
 2750 00d2 4644     		add	r6, r6, r8
 2751 00d4 0C22     		movs	r2, #12
 2752 00d6 2900     		movs	r1, r5
 2753 00d8 3000     		movs	r0, r6
 2754 00da FFF7FEFF 		bl	memcpy1
 2755              	.LVL238:
1030:../../../../../../Middlewares/Third_Party/LoRaWAN/Mac/region/RegionAS923.c ****     return LORAMAC_STATUS_OK;
 2756              		.loc 1 1030 0
 2757 00de 0122     		movs	r2, #1
 2758 00e0 D021     		movs	r1, #208
 2759 00e2 4346     		mov	r3, r8
 2760 00e4 A240     		lsls	r2, r2, r4
1029:../../../../../../Middlewares/Third_Party/LoRaWAN/Mac/region/RegionAS923.c ****     NvmCtx.ChannelsMask[0] |= ( 1 << id );
 2761              		.loc 1 1029 0
 2762 00e6 7772     		strb	r7, [r6, #9]
1030:../../../../../../Middlewares/Third_Party/LoRaWAN/Mac/region/RegionAS923.c ****     return LORAMAC_STATUS_OK;
 2763              		.loc 1 1030 0
 2764 00e8 5B5A     		ldrh	r3, [r3, r1]
 2765              	.LBE102:
 2766              	.LBE105:
 805:../../../../../../Middlewares/Third_Party/LoRaWAN/Mac/region/RegionAS923.c ****     ChannelAddParams_t channelAdd;
 2767              		.loc 1 805 0
 2768 00ea 0320     		movs	r0, #3
 2769              	.LBB106:
 2770              	.LBB103:
1030:../../../../../../Middlewares/Third_Party/LoRaWAN/Mac/region/RegionAS923.c ****     return LORAMAC_STATUS_OK;
 2771              		.loc 1 1030 0
 2772 00ec 1343     		orrs	r3, r2
 2773 00ee 4246     		mov	r2, r8
 2774 00f0 5352     		strh	r3, [r2, r1]
 2775              	.LVL239:
ARM GAS  C:\Users\EBANO_~1\AppData\Local\Temp\cc2nkIni.s 			page 75


 2776              	.LBE103:
 2777              	.LBE106:
 853:../../../../../../Middlewares/Third_Party/LoRaWAN/Mac/region/RegionAS923.c **** }
 2778              		.loc 1 853 0
 2779 00f2 A4E7     		b	.L325
 2780              	.L333:
 2781              		.align	2
 2782              	.L332:
 2783 00f4 00000000 		.word	NvmCtx
 2784 00f8 00000000 		.word	Radio
 2785 00fc 403576C9 		.word	-915000000
 2786 0100 405DC600 		.word	13000000
 2787              		.cfi_endproc
 2788              	.LFE56:
 2789              		.size	RegionAS923NewChannelReq, .-RegionAS923NewChannelReq
 2790              		.section	.text.RegionAS923TxParamSetupReq,"ax",%progbits
 2791              		.align	1
 2792              		.p2align 2,,3
 2793              		.global	RegionAS923TxParamSetupReq
 2794              		.syntax unified
 2795              		.code	16
 2796              		.thumb_func
 2797              		.fpu softvfp
 2798              		.type	RegionAS923TxParamSetupReq, %function
 2799              	RegionAS923TxParamSetupReq:
 2800              	.LFB57:
 857:../../../../../../Middlewares/Third_Party/LoRaWAN/Mac/region/RegionAS923.c ****     // Accept the request
 2801              		.loc 1 857 0
 2802              		.cfi_startproc
 2803              		@ args = 0, pretend = 0, frame = 0
 2804              		@ frame_needed = 0, uses_anonymous_args = 0
 2805              		@ link register save eliminated.
 2806              	.LVL240:
 860:../../../../../../Middlewares/Third_Party/LoRaWAN/Mac/region/RegionAS923.c **** 
 2807              		.loc 1 860 0
 2808 0000 0020     		movs	r0, #0
 2809              	.LVL241:
 2810              		@ sp needed
 2811 0002 7047     		bx	lr
 2812              		.cfi_endproc
 2813              	.LFE57:
 2814              		.size	RegionAS923TxParamSetupReq, .-RegionAS923TxParamSetupReq
 2815              		.section	.text.RegionAS923DlChannelReq,"ax",%progbits
 2816              		.align	1
 2817              		.p2align 2,,3
 2818              		.global	RegionAS923DlChannelReq
 2819              		.syntax unified
 2820              		.code	16
 2821              		.thumb_func
 2822              		.fpu softvfp
 2823              		.type	RegionAS923DlChannelReq, %function
 2824              	RegionAS923DlChannelReq:
 2825              	.LFB58:
 863:../../../../../../Middlewares/Third_Party/LoRaWAN/Mac/region/RegionAS923.c ****     uint8_t status = 0x03;
 2826              		.loc 1 863 0
 2827              		.cfi_startproc
 2828              		@ args = 0, pretend = 0, frame = 8
ARM GAS  C:\Users\EBANO_~1\AppData\Local\Temp\cc2nkIni.s 			page 76


 2829              		@ frame_needed = 0, uses_anonymous_args = 0
 2830              	.LVL242:
 2831 0000 30B5     		push	{r4, r5, lr}
 2832              	.LCFI27:
 2833              		.cfi_def_cfa_offset 12
 2834              		.cfi_offset 4, -12
 2835              		.cfi_offset 5, -8
 2836              		.cfi_offset 14, -4
 2837              	.LBB107:
 2838              	.LBB108:
 111:../../../../../../Middlewares/Third_Party/LoRaWAN/Mac/region/RegionAS923.c ****     {
 2839              		.loc 1 111 0
 2840 0002 174B     		ldr	r3, .L347
 2841              	.LBE108:
 2842              	.LBE107:
 867:../../../../../../Middlewares/Third_Party/LoRaWAN/Mac/region/RegionAS923.c ****     {
 2843              		.loc 1 867 0
 2844 0004 4468     		ldr	r4, [r0, #4]
 2845              	.LVL243:
 2846              	.LBB111:
 2847              	.LBB109:
 111:../../../../../../Middlewares/Third_Party/LoRaWAN/Mac/region/RegionAS923.c ****     {
 2848              		.loc 1 111 0
 2849 0006 9B6A     		ldr	r3, [r3, #40]
 2850              	.LBE109:
 2851              	.LBE111:
 863:../../../../../../Middlewares/Third_Party/LoRaWAN/Mac/region/RegionAS923.c ****     uint8_t status = 0x03;
 2852              		.loc 1 863 0
 2853 0008 83B0     		sub	sp, sp, #12
 2854              	.LCFI28:
 2855              		.cfi_def_cfa_offset 24
 863:../../../../../../Middlewares/Third_Party/LoRaWAN/Mac/region/RegionAS923.c ****     uint8_t status = 0x03;
 2856              		.loc 1 863 0
 2857 000a 0500     		movs	r5, r0
 2858              	.LBB112:
 2859              	.LBB110:
 111:../../../../../../Middlewares/Third_Party/LoRaWAN/Mac/region/RegionAS923.c ****     {
 2860              		.loc 1 111 0
 2861 000c 2000     		movs	r0, r4
 2862              	.LVL244:
 2863 000e 0193     		str	r3, [sp, #4]
 2864 0010 9847     		blx	r3
 2865              	.LVL245:
 2866 0012 0028     		cmp	r0, #0
 2867 0014 19D0     		beq	.L336
 116:../../../../../../Middlewares/Third_Party/LoRaWAN/Mac/region/RegionAS923.c ****     {
 2868              		.loc 1 116 0
 2869 0016 1348     		ldr	r0, .L347+4
 2870 0018 2978     		ldrb	r1, [r5]
 2871 001a 8446     		mov	ip, r0
 2872 001c 4B00     		lsls	r3, r1, #1
 2873 001e 5B18     		adds	r3, r3, r1
 2874 0020 114A     		ldr	r2, .L347+8
 2875 0022 1248     		ldr	r0, .L347+12
 2876 0024 9B00     		lsls	r3, r3, #2
 2877 0026 6444     		add	r4, r4, ip
 2878              	.LVL246:
ARM GAS  C:\Users\EBANO_~1\AppData\Local\Temp\cc2nkIni.s 			page 77


 2879 0028 9958     		ldr	r1, [r3, r2]
 2880 002a 8442     		cmp	r4, r0
 2881 002c 05D9     		bls	.L346
 2882              	.LVL247:
 2883              	.LBE110:
 2884              	.LBE112:
 869:../../../../../../Middlewares/Third_Party/LoRaWAN/Mac/region/RegionAS923.c ****     }
 2885              		.loc 1 869 0
 2886 002e 0800     		movs	r0, r1
 2887 0030 411E     		subs	r1, r0, #1
 2888 0032 8841     		sbcs	r0, r0, r1
 2889 0034 4000     		lsls	r0, r0, #1
 2890              	.LVL248:
 2891              	.L340:
 885:../../../../../../Middlewares/Third_Party/LoRaWAN/Mac/region/RegionAS923.c **** 
 2892              		.loc 1 885 0
 2893 0036 03B0     		add	sp, sp, #12
 2894              		@ sp needed
 2895              	.LVL249:
 2896 0038 30BD     		pop	{r4, r5, pc}
 2897              	.LVL250:
 2898              	.L346:
 873:../../../../../../Middlewares/Third_Party/LoRaWAN/Mac/region/RegionAS923.c ****     {
 2899              		.loc 1 873 0
 2900 003a 0120     		movs	r0, #1
 2901 003c 0029     		cmp	r1, #0
 2902 003e FAD0     		beq	.L340
 881:../../../../../../Middlewares/Third_Party/LoRaWAN/Mac/region/RegionAS923.c ****     }
 2903              		.loc 1 881 0
 2904 0040 D318     		adds	r3, r2, r3
 2905 0042 6A68     		ldr	r2, [r5, #4]
 2906 0044 0320     		movs	r0, #3
 2907 0046 5A60     		str	r2, [r3, #4]
 2908 0048 F5E7     		b	.L340
 2909              	.LVL251:
 2910              	.L336:
 873:../../../../../../Middlewares/Third_Party/LoRaWAN/Mac/region/RegionAS923.c ****     {
 2911              		.loc 1 873 0
 2912 004a 2A78     		ldrb	r2, [r5]
 2913 004c 5300     		lsls	r3, r2, #1
 2914 004e 9B18     		adds	r3, r3, r2
 2915 0050 054A     		ldr	r2, .L347+8
 2916 0052 9B00     		lsls	r3, r3, #2
 2917 0054 9858     		ldr	r0, [r3, r2]
 2918 0056 431E     		subs	r3, r0, #1
 2919 0058 9841     		sbcs	r0, r0, r3
 2920 005a 4000     		lsls	r0, r0, #1
 2921 005c EBE7     		b	.L340
 2922              	.L348:
 2923 005e C046     		.align	2
 2924              	.L347:
 2925 0060 00000000 		.word	Radio
 2926 0064 403576C9 		.word	-915000000
 2927 0068 00000000 		.word	NvmCtx
 2928 006c 405DC600 		.word	13000000
 2929              		.cfi_endproc
 2930              	.LFE58:
ARM GAS  C:\Users\EBANO_~1\AppData\Local\Temp\cc2nkIni.s 			page 78


 2931              		.size	RegionAS923DlChannelReq, .-RegionAS923DlChannelReq
 2932              		.section	.text.RegionAS923AlternateDr,"ax",%progbits
 2933              		.align	1
 2934              		.p2align 2,,3
 2935              		.global	RegionAS923AlternateDr
 2936              		.syntax unified
 2937              		.code	16
 2938              		.thumb_func
 2939              		.fpu softvfp
 2940              		.type	RegionAS923AlternateDr, %function
 2941              	RegionAS923AlternateDr:
 2942              	.LFB59:
 888:../../../../../../Middlewares/Third_Party/LoRaWAN/Mac/region/RegionAS923.c ****     // Only AS923_DWELL_LIMIT_DATARATE is supported
 2943              		.loc 1 888 0
 2944              		.cfi_startproc
 2945              		@ args = 0, pretend = 0, frame = 0
 2946              		@ frame_needed = 0, uses_anonymous_args = 0
 2947              		@ link register save eliminated.
 2948              	.LVL252:
 891:../../../../../../Middlewares/Third_Party/LoRaWAN/Mac/region/RegionAS923.c **** 
 2949              		.loc 1 891 0
 2950 0000 0220     		movs	r0, #2
 2951              	.LVL253:
 2952              		@ sp needed
 2953 0002 7047     		bx	lr
 2954              		.cfi_endproc
 2955              	.LFE59:
 2956              		.size	RegionAS923AlternateDr, .-RegionAS923AlternateDr
 2957              		.section	.text.RegionAS923CalcBackOff,"ax",%progbits
 2958              		.align	1
 2959              		.p2align 2,,3
 2960              		.global	RegionAS923CalcBackOff
 2961              		.syntax unified
 2962              		.code	16
 2963              		.thumb_func
 2964              		.fpu softvfp
 2965              		.type	RegionAS923CalcBackOff, %function
 2966              	RegionAS923CalcBackOff:
 2967              	.LFB60:
 894:../../../../../../Middlewares/Third_Party/LoRaWAN/Mac/region/RegionAS923.c ****     RegionCommonCalcBackOffParams_t calcBackOffParams;
 2968              		.loc 1 894 0
 2969              		.cfi_startproc
 2970              		@ args = 0, pretend = 0, frame = 24
 2971              		@ frame_needed = 0, uses_anonymous_args = 0
 2972              	.LVL254:
 2973 0000 00B5     		push	{lr}
 2974              	.LCFI29:
 2975              		.cfi_def_cfa_offset 4
 2976              		.cfi_offset 14, -4
 897:../../../../../../Middlewares/Third_Party/LoRaWAN/Mac/region/RegionAS923.c ****     calcBackOffParams.Bands = NvmCtx.Bands;
 2977              		.loc 1 897 0
 2978 0002 0B4A     		ldr	r2, .L351
 894:../../../../../../Middlewares/Third_Party/LoRaWAN/Mac/region/RegionAS923.c ****     RegionCommonCalcBackOffParams_t calcBackOffParams;
 2979              		.loc 1 894 0
 2980 0004 87B0     		sub	sp, sp, #28
 2981              	.LCFI30:
 2982              		.cfi_def_cfa_offset 32
ARM GAS  C:\Users\EBANO_~1\AppData\Local\Temp\cc2nkIni.s 			page 79


 897:../../../../../../Middlewares/Third_Party/LoRaWAN/Mac/region/RegionAS923.c ****     calcBackOffParams.Bands = NvmCtx.Bands;
 2983              		.loc 1 897 0
 2984 0006 0192     		str	r2, [sp, #4]
 898:../../../../../../Middlewares/Third_Party/LoRaWAN/Mac/region/RegionAS923.c ****     calcBackOffParams.LastTxIsJoinRequest = calcBackOff->LastTxIsJoinRequest;
 2985              		.loc 1 898 0
 2986 0008 C032     		adds	r2, r2, #192
 2987 000a 0292     		str	r2, [sp, #8]
 899:../../../../../../Middlewares/Third_Party/LoRaWAN/Mac/region/RegionAS923.c ****     calcBackOffParams.Joined = calcBackOff->Joined;
 2988              		.loc 1 899 0
 2989 000c 4278     		ldrb	r2, [r0, #1]
 897:../../../../../../Middlewares/Third_Party/LoRaWAN/Mac/region/RegionAS923.c ****     calcBackOffParams.Bands = NvmCtx.Bands;
 2990              		.loc 1 897 0
 2991 000e 01AB     		add	r3, sp, #4
 899:../../../../../../Middlewares/Third_Party/LoRaWAN/Mac/region/RegionAS923.c ****     calcBackOffParams.Joined = calcBackOff->Joined;
 2992              		.loc 1 899 0
 2993 0010 1A72     		strb	r2, [r3, #8]
 900:../../../../../../Middlewares/Third_Party/LoRaWAN/Mac/region/RegionAS923.c ****     calcBackOffParams.DutyCycleEnabled = calcBackOff->DutyCycleEnabled;
 2994              		.loc 1 900 0
 2995 0012 0278     		ldrb	r2, [r0]
 2996 0014 5A72     		strb	r2, [r3, #9]
 901:../../../../../../Middlewares/Third_Party/LoRaWAN/Mac/region/RegionAS923.c ****     calcBackOffParams.Channel = calcBackOff->Channel;
 2997              		.loc 1 901 0
 2998 0016 8278     		ldrb	r2, [r0, #2]
 2999 0018 9A72     		strb	r2, [r3, #10]
 902:../../../../../../Middlewares/Third_Party/LoRaWAN/Mac/region/RegionAS923.c ****     calcBackOffParams.ElapsedTime = calcBackOff->ElapsedTime;
 3000              		.loc 1 902 0
 3001 001a C278     		ldrb	r2, [r0, #3]
 3002 001c DA72     		strb	r2, [r3, #11]
 903:../../../../../../Middlewares/Third_Party/LoRaWAN/Mac/region/RegionAS923.c ****     calcBackOffParams.TxTimeOnAir = calcBackOff->TxTimeOnAir;
 3003              		.loc 1 903 0
 3004 001e 4268     		ldr	r2, [r0, #4]
 3005 0020 0492     		str	r2, [sp, #16]
 904:../../../../../../Middlewares/Third_Party/LoRaWAN/Mac/region/RegionAS923.c **** 
 3006              		.loc 1 904 0
 3007 0022 8268     		ldr	r2, [r0, #8]
 906:../../../../../../Middlewares/Third_Party/LoRaWAN/Mac/region/RegionAS923.c **** }
 3008              		.loc 1 906 0
 3009 0024 1800     		movs	r0, r3
 3010              	.LVL255:
 904:../../../../../../Middlewares/Third_Party/LoRaWAN/Mac/region/RegionAS923.c **** 
 3011              		.loc 1 904 0
 3012 0026 0592     		str	r2, [sp, #20]
 906:../../../../../../Middlewares/Third_Party/LoRaWAN/Mac/region/RegionAS923.c **** }
 3013              		.loc 1 906 0
 3014 0028 FFF7FEFF 		bl	RegionCommonCalcBackOff
 3015              	.LVL256:
 907:../../../../../../Middlewares/Third_Party/LoRaWAN/Mac/region/RegionAS923.c **** 
 3016              		.loc 1 907 0
 3017 002c 07B0     		add	sp, sp, #28
 3018              		@ sp needed
 3019 002e 00BD     		pop	{pc}
 3020              	.L352:
 3021              		.align	2
 3022              	.L351:
 3023 0030 00000000 		.word	NvmCtx
 3024              		.cfi_endproc
 3025              	.LFE60:
ARM GAS  C:\Users\EBANO_~1\AppData\Local\Temp\cc2nkIni.s 			page 80


 3026              		.size	RegionAS923CalcBackOff, .-RegionAS923CalcBackOff
 3027              		.global	__aeabi_uidivmod
 3028              		.global	__aeabi_idivmod
 3029              		.section	.text.RegionAS923NextChannel,"ax",%progbits
 3030              		.align	1
 3031              		.p2align 2,,3
 3032              		.global	RegionAS923NextChannel
 3033              		.syntax unified
 3034              		.code	16
 3035              		.thumb_func
 3036              		.fpu softvfp
 3037              		.type	RegionAS923NextChannel, %function
 3038              	RegionAS923NextChannel:
 3039              	.LFB61:
 910:../../../../../../Middlewares/Third_Party/LoRaWAN/Mac/region/RegionAS923.c ****     uint8_t channelNext = 0;
 3040              		.loc 1 910 0
 3041              		.cfi_startproc
 3042              		@ args = 0, pretend = 0, frame = 40
 3043              		@ frame_needed = 0, uses_anonymous_args = 0
 3044              	.LVL257:
 3045 0000 F0B5     		push	{r4, r5, r6, r7, lr}
 3046              	.LCFI31:
 3047              		.cfi_def_cfa_offset 20
 3048              		.cfi_offset 4, -20
 3049              		.cfi_offset 5, -16
 3050              		.cfi_offset 6, -12
 3051              		.cfi_offset 7, -8
 3052              		.cfi_offset 14, -4
 3053 0002 DE46     		mov	lr, fp
 3054 0004 4E46     		mov	r6, r9
 3055 0006 4546     		mov	r5, r8
 3056 0008 5746     		mov	r7, r10
 3057 000a E0B5     		push	{r5, r6, r7, lr}
 3058              	.LCFI32:
 3059              		.cfi_def_cfa_offset 36
 3060              		.cfi_offset 8, -36
 3061              		.cfi_offset 9, -32
 3062              		.cfi_offset 10, -28
 3063              		.cfi_offset 11, -24
 3064 000c 8BB0     		sub	sp, sp, #44
 3065              	.LCFI33:
 3066              		.cfi_def_cfa_offset 80
 910:../../../../../../Middlewares/Third_Party/LoRaWAN/Mac/region/RegionAS923.c ****     uint8_t channelNext = 0;
 3067              		.loc 1 910 0
 3068 000e 0491     		str	r1, [sp, #16]
 3069 0010 0400     		movs	r4, r0
 914:../../../../../../Middlewares/Third_Party/LoRaWAN/Mac/region/RegionAS923.c ****     TimerTime_t nextTxDelay = 0;
 3070              		.loc 1 914 0
 3071 0012 0021     		movs	r1, #0
 3072              	.LVL258:
 910:../../../../../../Middlewares/Third_Party/LoRaWAN/Mac/region/RegionAS923.c ****     uint8_t channelNext = 0;
 3073              		.loc 1 910 0
 3074 0014 9346     		mov	fp, r2
 914:../../../../../../Middlewares/Third_Party/LoRaWAN/Mac/region/RegionAS923.c ****     TimerTime_t nextTxDelay = 0;
 3075              		.loc 1 914 0
 3076 0016 06A8     		add	r0, sp, #24
 3077              	.LVL259:
ARM GAS  C:\Users\EBANO_~1\AppData\Local\Temp\cc2nkIni.s 			page 81


 3078 0018 1022     		movs	r2, #16
 3079              	.LVL260:
 910:../../../../../../Middlewares/Third_Party/LoRaWAN/Mac/region/RegionAS923.c ****     uint8_t channelNext = 0;
 3080              		.loc 1 910 0
 3081 001a 1E00     		movs	r6, r3
 914:../../../../../../Middlewares/Third_Party/LoRaWAN/Mac/region/RegionAS923.c ****     TimerTime_t nextTxDelay = 0;
 3082              		.loc 1 914 0
 3083 001c FFF7FEFF 		bl	memset
 3084              	.LVL261:
 917:../../../../../../Middlewares/Third_Party/LoRaWAN/Mac/region/RegionAS923.c ****     { // Reactivate default channels
 3085              		.loc 1 917 0
 3086 0020 764D     		ldr	r5, .L398
 3087 0022 0122     		movs	r2, #1
 3088 0024 0021     		movs	r1, #0
 3089 0026 2800     		movs	r0, r5
 3090 0028 FFF7FEFF 		bl	RegionCommonCountChannels
 3091              	.LVL262:
 3092 002c 0028     		cmp	r0, #0
 3093 002e 05D1     		bne	.L354
 919:../../../../../../Middlewares/Third_Party/LoRaWAN/Mac/region/RegionAS923.c ****     }
 3094              		.loc 1 919 0
 3095 0030 D022     		movs	r2, #208
 3096 0032 0321     		movs	r1, #3
 3097 0034 D03D     		subs	r5, r5, #208
 3098 0036 AB5A     		ldrh	r3, [r5, r2]
 3099 0038 0B43     		orrs	r3, r1
 3100 003a AB52     		strh	r3, [r5, r2]
 3101              	.L354:
 922:../../../../../../Middlewares/Third_Party/LoRaWAN/Mac/region/RegionAS923.c ****     {
 3102              		.loc 1 922 0
 3103 003c 6068     		ldr	r0, [r4, #4]
 3104 003e 2568     		ldr	r5, [r4]
 3105 0040 FFF7FEFF 		bl	TimerGetElapsedTime
 3106              	.LVL263:
 3107 0044 8542     		cmp	r5, r0
 3108 0046 65D8     		bhi	.L355
 925:../../../../../../Middlewares/Third_Party/LoRaWAN/Mac/region/RegionAS923.c **** 
 3109              		.loc 1 925 0
 3110 0048 0023     		movs	r3, #0
 3111 004a 3360     		str	r3, [r6]
 928:../../../../../../Middlewares/Third_Party/LoRaWAN/Mac/region/RegionAS923.c **** 
 3112              		.loc 1 928 0
 3113 004c 6C4B     		ldr	r3, .L398+4
 3114 004e A17A     		ldrb	r1, [r4, #10]
 3115 0050 9846     		mov	r8, r3
 3116 0052 607A     		ldrb	r0, [r4, #9]
 3117 0054 0123     		movs	r3, #1
 3118 0056 4246     		mov	r2, r8
 3119 0058 FFF7FEFF 		bl	RegionCommonUpdateBandTimeOff
 3120              	.LVL264:
 931:../../../../../../Middlewares/Third_Party/LoRaWAN/Mac/region/RegionAS923.c ****                                                       NvmCtx.ChannelsMask, NvmCtx.Channels,
 3121              		.loc 1 931 0
 3122 005c 0823     		movs	r3, #8
 3123 005e 4546     		mov	r5, r8
 928:../../../../../../Middlewares/Third_Party/LoRaWAN/Mac/region/RegionAS923.c **** 
 3124              		.loc 1 928 0
 3125 0060 0390     		str	r0, [sp, #12]
ARM GAS  C:\Users\EBANO_~1\AppData\Local\Temp\cc2nkIni.s 			page 82


 3126              	.LVL265:
 931:../../../../../../Middlewares/Third_Party/LoRaWAN/Mac/region/RegionAS923.c ****                                                       NvmCtx.ChannelsMask, NvmCtx.Channels,
 3127              		.loc 1 931 0
 3128 0062 E356     		ldrsb	r3, [r4, r3]
 3129 0064 C03D     		subs	r5, r5, #192
 3130 0066 0193     		str	r3, [sp, #4]
 3131              	.LVL266:
 3132 0068 637A     		ldrb	r3, [r4, #9]
 3133 006a 0024     		movs	r4, #0
 3134              	.LVL267:
 3135 006c 002B     		cmp	r3, #0
 3136 006e 5CD1     		bne	.L356
 3137              	.LBB118:
 3138              	.LBB119:
 125:../../../../../../Middlewares/Third_Party/LoRaWAN/Mac/region/RegionAS923.c ****     uint8_t delayTransmission = 0;
 3139              		.loc 1 125 0
 3140 0070 0027     		movs	r7, #0
 126:../../../../../../Middlewares/Third_Party/LoRaWAN/Mac/region/RegionAS923.c **** 
 3141              		.loc 1 126 0
 3142 0072 0293     		str	r3, [sp, #8]
 3143              	.LBB120:
 3144              	.LBB121:
 132:../../../../../../Middlewares/Third_Party/LoRaWAN/Mac/region/RegionAS923.c ****             {
 3145              		.loc 1 132 0
 3146 0074 D033     		adds	r3, r3, #208
 3147              	.LVL268:
 3148 0076 9A46     		mov	r10, r3
 3149 0078 CF3B     		subs	r3, r3, #207
 3150 007a 2E00     		movs	r6, r5
 3151              	.LVL269:
 3152 007c 9846     		mov	r8, r3
 3153              	.LVL270:
 140:../../../../../../Middlewares/Third_Party/LoRaWAN/Mac/region/RegionAS923.c ****                     {
 3154              		.loc 1 140 0
 3155 007e B946     		mov	r9, r7
 3156 0080 0AE0     		b	.L361
 3157              	.LVL271:
 3158              	.L359:
 155:../../../../../../Middlewares/Third_Party/LoRaWAN/Mac/region/RegionAS923.c ****             }
 3159              		.loc 1 155 0
 3160 0082 4B46     		mov	r3, r9
 3161 0084 0133     		adds	r3, r3, #1
 3162              	.LVL272:
 3163 0086 4946     		mov	r1, r9
 3164 0088 DBB2     		uxtb	r3, r3
 3165 008a 9946     		mov	r9, r3
 3166 008c 06AA     		add	r2, sp, #24
 3167              	.LVL273:
 3168 008e 5754     		strb	r7, [r2, r1]
 3169              	.LVL274:
 3170              	.L357:
 3171 0090 0134     		adds	r4, r4, #1
 3172              	.LVL275:
 3173 0092 0C35     		adds	r5, r5, #12
 130:../../../../../../Middlewares/Third_Party/LoRaWAN/Mac/region/RegionAS923.c ****         {
 3174              		.loc 1 130 0
 3175 0094 102C     		cmp	r4, #16
ARM GAS  C:\Users\EBANO_~1\AppData\Local\Temp\cc2nkIni.s 			page 83


 3176 0096 27D0     		beq	.L394
 3177              	.LVL276:
 3178              	.L361:
 132:../../../../../../Middlewares/Third_Party/LoRaWAN/Mac/region/RegionAS923.c ****             {
 3179              		.loc 1 132 0
 3180 0098 5346     		mov	r3, r10
 3181 009a F35A     		ldrh	r3, [r6, r3]
 3182 009c 4246     		mov	r2, r8
 3183 009e 2341     		asrs	r3, r3, r4
 3184 00a0 E7B2     		uxtb	r7, r4
 3185              	.LVL277:
 3186 00a2 1A42     		tst	r2, r3
 3187 00a4 F4D0     		beq	.L357
 134:../../../../../../Middlewares/Third_Party/LoRaWAN/Mac/region/RegionAS923.c ****                 { // Check if the channel is enabled
 3188              		.loc 1 134 0
 3189 00a6 2B68     		ldr	r3, [r5]
 3190 00a8 002B     		cmp	r3, #0
 3191 00aa F1D0     		beq	.L357
 140:../../../../../../Middlewares/Third_Party/LoRaWAN/Mac/region/RegionAS923.c ****                     {
 3192              		.loc 1 140 0
 3193 00ac 0323     		movs	r3, #3
 3194 00ae 2341     		asrs	r3, r3, r4
 3195 00b0 1A42     		tst	r2, r3
 3196 00b2 EDD0     		beq	.L357
 146:../../../../../../Middlewares/Third_Party/LoRaWAN/Mac/region/RegionAS923.c ****                 { // Check if the current channel selection supports the given datarate
 3197              		.loc 1 146 0
 3198 00b4 297A     		ldrb	r1, [r5, #8]
 145:../../../../../../Middlewares/Third_Party/LoRaWAN/Mac/region/RegionAS923.c ****                                               channels[i + j].DrRange.Fields.Max ) == false )
 3199              		.loc 1 145 0
 3200 00b6 0198     		ldr	r0, [sp, #4]
 146:../../../../../../Middlewares/Third_Party/LoRaWAN/Mac/region/RegionAS923.c ****                 { // Check if the current channel selection supports the given datarate
 3201              		.loc 1 146 0
 3202 00b8 4AB2     		sxtb	r2, r1
 145:../../../../../../Middlewares/Third_Party/LoRaWAN/Mac/region/RegionAS923.c ****                                               channels[i + j].DrRange.Fields.Max ) == false )
 3203              		.loc 1 145 0
 3204 00ba 0907     		lsls	r1, r1, #28
 3205 00bc 1211     		asrs	r2, r2, #4
 3206 00be 0917     		asrs	r1, r1, #28
 3207 00c0 FFF7FEFF 		bl	RegionCommonValueInRange
 3208              	.LVL278:
 3209 00c4 0028     		cmp	r0, #0
 3210 00c6 E3D0     		beq	.L357
 150:../../../../../../Middlewares/Third_Party/LoRaWAN/Mac/region/RegionAS923.c ****                 { // Check if the band is available for transmission
 3211              		.loc 1 150 0
 3212 00c8 3200     		movs	r2, r6
 3213 00ca 6B7A     		ldrb	r3, [r5, #9]
 3214 00cc C032     		adds	r2, r2, #192
 3215 00ce 1B01     		lsls	r3, r3, #4
 3216 00d0 9B18     		adds	r3, r3, r2
 3217 00d2 DB68     		ldr	r3, [r3, #12]
 3218 00d4 002B     		cmp	r3, #0
 3219 00d6 D4D0     		beq	.L359
 152:../../../../../../Middlewares/Third_Party/LoRaWAN/Mac/region/RegionAS923.c ****                     continue;
 3220              		.loc 1 152 0
 3221 00d8 029B     		ldr	r3, [sp, #8]
 3222 00da 0134     		adds	r4, r4, #1
 3223 00dc 0133     		adds	r3, r3, #1
ARM GAS  C:\Users\EBANO_~1\AppData\Local\Temp\cc2nkIni.s 			page 84


 3224 00de DBB2     		uxtb	r3, r3
 3225 00e0 0293     		str	r3, [sp, #8]
 3226              	.LVL279:
 3227 00e2 0C35     		adds	r5, r5, #12
 130:../../../../../../Middlewares/Third_Party/LoRaWAN/Mac/region/RegionAS923.c ****         {
 3228              		.loc 1 130 0
 3229 00e4 102C     		cmp	r4, #16
 3230 00e6 D7D1     		bne	.L361
 3231              	.L394:
 3232 00e8 4F46     		mov	r7, r9
 3233              	.LVL280:
 3234              	.L362:
 3235              	.LBE121:
 3236              	.LBE120:
 3237              	.LBE119:
 3238              	.LBE118:
 941:../../../../../../Middlewares/Third_Party/LoRaWAN/Mac/region/RegionAS923.c ****     {
 3239              		.loc 1 941 0
 3240 00ea 002F     		cmp	r7, #0
 3241 00ec 51D1     		bne	.L395
 962:../../../../../../Middlewares/Third_Party/LoRaWAN/Mac/region/RegionAS923.c ****         {
 3242              		.loc 1 962 0
 3243 00ee 029B     		ldr	r3, [sp, #8]
 3244 00f0 002B     		cmp	r3, #0
 3245 00f2 15D1     		bne	.L369
 969:../../../../../../Middlewares/Third_Party/LoRaWAN/Mac/region/RegionAS923.c ****         *time = 0;
 3246              		.loc 1 969 0
 3247 00f4 D022     		movs	r2, #208
 3248 00f6 0321     		movs	r1, #3
 3249 00f8 B35A     		ldrh	r3, [r6, r2]
 971:../../../../../../Middlewares/Third_Party/LoRaWAN/Mac/region/RegionAS923.c ****     }
 3250              		.loc 1 971 0
 3251 00fa 0C20     		movs	r0, #12
 969:../../../../../../Middlewares/Third_Party/LoRaWAN/Mac/region/RegionAS923.c ****         *time = 0;
 3252              		.loc 1 969 0
 3253 00fc 0B43     		orrs	r3, r1
 3254 00fe B352     		strh	r3, [r6, r2]
 970:../../../../../../Middlewares/Third_Party/LoRaWAN/Mac/region/RegionAS923.c ****         return LORAMAC_STATUS_NO_CHANNEL_FOUND;
 3255              		.loc 1 970 0
 3256 0100 5B46     		mov	r3, fp
 3257 0102 029A     		ldr	r2, [sp, #8]
 3258 0104 1A60     		str	r2, [r3]
 3259              	.LVL281:
 3260              	.L371:
 973:../../../../../../Middlewares/Third_Party/LoRaWAN/Mac/region/RegionAS923.c **** 
 3261              		.loc 1 973 0
 3262 0106 0BB0     		add	sp, sp, #44
 3263              		@ sp needed
 3264              	.LVL282:
 3265 0108 3CBC     		pop	{r2, r3, r4, r5}
 3266 010a 9046     		mov	r8, r2
 3267 010c 9946     		mov	r9, r3
 3268 010e A246     		mov	r10, r4
 3269 0110 AB46     		mov	fp, r5
 3270 0112 F0BD     		pop	{r4, r5, r6, r7, pc}
 3271              	.LVL283:
 3272              	.L355:
ARM GAS  C:\Users\EBANO_~1\AppData\Local\Temp\cc2nkIni.s 			page 85


 938:../../../../../../Middlewares/Third_Party/LoRaWAN/Mac/region/RegionAS923.c ****     }
 3273              		.loc 1 938 0
 3274 0114 6068     		ldr	r0, [r4, #4]
 3275 0116 2568     		ldr	r5, [r4]
 3276 0118 FFF7FEFF 		bl	TimerGetElapsedTime
 3277              	.LVL284:
 3278 011c 2B1A     		subs	r3, r5, r0
 3279 011e 0393     		str	r3, [sp, #12]
 3280              	.LVL285:
 3281              	.L369:
 965:../../../../../../Middlewares/Third_Party/LoRaWAN/Mac/region/RegionAS923.c ****             return LORAMAC_STATUS_DUTYCYCLE_RESTRICTED;
 3282              		.loc 1 965 0
 3283 0120 5B46     		mov	r3, fp
 3284 0122 039A     		ldr	r2, [sp, #12]
 966:../../../../../../Middlewares/Third_Party/LoRaWAN/Mac/region/RegionAS923.c ****         }
 3285              		.loc 1 966 0
 3286 0124 0B20     		movs	r0, #11
 965:../../../../../../Middlewares/Third_Party/LoRaWAN/Mac/region/RegionAS923.c ****             return LORAMAC_STATUS_DUTYCYCLE_RESTRICTED;
 3287              		.loc 1 965 0
 3288 0126 1A60     		str	r2, [r3]
 966:../../../../../../Middlewares/Third_Party/LoRaWAN/Mac/region/RegionAS923.c ****         }
 3289              		.loc 1 966 0
 3290 0128 EDE7     		b	.L371
 3291              	.LVL286:
 3292              	.L356:
 3293              	.LBB130:
 3294              	.LBB128:
 126:../../../../../../Middlewares/Third_Party/LoRaWAN/Mac/region/RegionAS923.c **** 
 3295              		.loc 1 126 0
 3296 012a 0023     		movs	r3, #0
 3297              	.LVL287:
 3298 012c 0293     		str	r3, [sp, #8]
 3299              	.LBB125:
 3300              	.LBB122:
 132:../../../../../../Middlewares/Third_Party/LoRaWAN/Mac/region/RegionAS923.c ****             {
 3301              		.loc 1 132 0
 3302 012e D033     		adds	r3, r3, #208
 3303 0130 9A46     		mov	r10, r3
 3304 0132 CF3B     		subs	r3, r3, #207
 3305              	.LBE122:
 3306              	.LBE125:
 125:../../../../../../Middlewares/Third_Party/LoRaWAN/Mac/region/RegionAS923.c ****     uint8_t delayTransmission = 0;
 3307              		.loc 1 125 0
 3308 0134 0027     		movs	r7, #0
 3309              	.LBB126:
 3310              	.LBB123:
 132:../../../../../../Middlewares/Third_Party/LoRaWAN/Mac/region/RegionAS923.c ****             {
 3311              		.loc 1 132 0
 3312 0136 9946     		mov	r9, r3
 150:../../../../../../Middlewares/Third_Party/LoRaWAN/Mac/region/RegionAS923.c ****                 { // Check if the band is available for transmission
 3313              		.loc 1 150 0
 3314 0138 4346     		mov	r3, r8
 3315 013a B846     		mov	r8, r7
 3316              	.LVL288:
 3317 013c 0593     		str	r3, [sp, #20]
 3318 013e 2F00     		movs	r7, r5
 3319 0140 03E0     		b	.L364
ARM GAS  C:\Users\EBANO_~1\AppData\Local\Temp\cc2nkIni.s 			page 86


 3320              	.LVL289:
 3321              	.L365:
 3322 0142 0134     		adds	r4, r4, #1
 3323              	.LVL290:
 3324 0144 0C35     		adds	r5, r5, #12
 130:../../../../../../Middlewares/Third_Party/LoRaWAN/Mac/region/RegionAS923.c ****         {
 3325              		.loc 1 130 0
 3326 0146 102C     		cmp	r4, #16
 3327 0148 52D0     		beq	.L396
 3328              	.LVL291:
 3329              	.L364:
 132:../../../../../../Middlewares/Third_Party/LoRaWAN/Mac/region/RegionAS923.c ****             {
 3330              		.loc 1 132 0
 3331 014a 5346     		mov	r3, r10
 3332 014c FB5A     		ldrh	r3, [r7, r3]
 3333 014e 4A46     		mov	r2, r9
 3334 0150 2341     		asrs	r3, r3, r4
 3335 0152 E6B2     		uxtb	r6, r4
 3336              	.LVL292:
 3337 0154 1A42     		tst	r2, r3
 3338 0156 F4D0     		beq	.L365
 134:../../../../../../Middlewares/Third_Party/LoRaWAN/Mac/region/RegionAS923.c ****                 { // Check if the channel is enabled
 3339              		.loc 1 134 0
 3340 0158 2B68     		ldr	r3, [r5]
 3341 015a 002B     		cmp	r3, #0
 3342 015c F1D0     		beq	.L365
 146:../../../../../../Middlewares/Third_Party/LoRaWAN/Mac/region/RegionAS923.c ****                 { // Check if the current channel selection supports the given datarate
 3343              		.loc 1 146 0
 3344 015e 297A     		ldrb	r1, [r5, #8]
 145:../../../../../../Middlewares/Third_Party/LoRaWAN/Mac/region/RegionAS923.c ****                                               channels[i + j].DrRange.Fields.Max ) == false )
 3345              		.loc 1 145 0
 3346 0160 0198     		ldr	r0, [sp, #4]
 146:../../../../../../Middlewares/Third_Party/LoRaWAN/Mac/region/RegionAS923.c ****                 { // Check if the current channel selection supports the given datarate
 3347              		.loc 1 146 0
 3348 0162 4AB2     		sxtb	r2, r1
 145:../../../../../../Middlewares/Third_Party/LoRaWAN/Mac/region/RegionAS923.c ****                                               channels[i + j].DrRange.Fields.Max ) == false )
 3349              		.loc 1 145 0
 3350 0164 0907     		lsls	r1, r1, #28
 3351 0166 1211     		asrs	r2, r2, #4
 3352 0168 0917     		asrs	r1, r1, #28
 3353 016a FFF7FEFF 		bl	RegionCommonValueInRange
 3354              	.LVL293:
 3355 016e 0028     		cmp	r0, #0
 3356 0170 E7D0     		beq	.L365
 150:../../../../../../Middlewares/Third_Party/LoRaWAN/Mac/region/RegionAS923.c ****                 { // Check if the band is available for transmission
 3357              		.loc 1 150 0
 3358 0172 059A     		ldr	r2, [sp, #20]
 3359 0174 6B7A     		ldrb	r3, [r5, #9]
 3360 0176 9446     		mov	ip, r2
 3361 0178 1B01     		lsls	r3, r3, #4
 3362 017a 6344     		add	r3, r3, ip
 3363 017c DB68     		ldr	r3, [r3, #12]
 3364 017e 002B     		cmp	r3, #0
 3365 0180 31D1     		bne	.L366
 155:../../../../../../Middlewares/Third_Party/LoRaWAN/Mac/region/RegionAS923.c ****             }
 3366              		.loc 1 155 0
 3367 0182 4346     		mov	r3, r8
ARM GAS  C:\Users\EBANO_~1\AppData\Local\Temp\cc2nkIni.s 			page 87


 3368 0184 4146     		mov	r1, r8
 3369 0186 0133     		adds	r3, r3, #1
 3370              	.LVL294:
 3371 0188 06AA     		add	r2, sp, #24
 3372              	.LVL295:
 3373 018a DBB2     		uxtb	r3, r3
 3374 018c 5654     		strb	r6, [r2, r1]
 3375 018e 9846     		mov	r8, r3
 3376 0190 D7E7     		b	.L365
 3377              	.LVL296:
 3378              	.L395:
 3379              	.LBE123:
 3380              	.LBE126:
 3381              	.LBE128:
 3382              	.LBE130:
 3383              	.LBB131:
 943:../../../../../../Middlewares/Third_Party/LoRaWAN/Mac/region/RegionAS923.c ****         {
 3384              		.loc 1 943 0
 3385 0192 791E     		subs	r1, r7, #1
 3386 0194 0020     		movs	r0, #0
 3387 0196 FFF7FEFF 		bl	randr
 3388              	.LVL297:
 3389 019a 1A4B     		ldr	r3, .L398+8
 3390 019c B846     		mov	r8, r7
 3391 019e 9B69     		ldr	r3, [r3, #24]
 3392 01a0 C4B2     		uxtb	r4, r0
 3393              	.LVL298:
 3394 01a2 1025     		movs	r5, #16
 3395 01a4 1F00     		movs	r7, r3
 3396 01a6 B146     		mov	r9, r6
 3397 01a8 03E0     		b	.L372
 3398              	.LVL299:
 3399              	.L370:
 3400 01aa 013D     		subs	r5, r5, #1
 3401 01ac EDB2     		uxtb	r5, r5
 943:../../../../../../Middlewares/Third_Party/LoRaWAN/Mac/region/RegionAS923.c ****         {
 3402              		.loc 1 943 0 is_stmt 0 discriminator 2
 3403 01ae 002D     		cmp	r5, #0
 3404 01b0 21D0     		beq	.L397
 3405              	.LVL300:
 3406              	.L372:
 945:../../../../../../Middlewares/Third_Party/LoRaWAN/Mac/region/RegionAS923.c ****             j = ( j + 1 ) % nbEnabledChannels;
 3407              		.loc 1 945 0 is_stmt 1
 3408 01b2 06AB     		add	r3, sp, #24
 946:../../../../../../Middlewares/Third_Party/LoRaWAN/Mac/region/RegionAS923.c **** 
 3409              		.loc 1 946 0
 3410 01b4 601C     		adds	r0, r4, #1
 3411 01b6 4146     		mov	r1, r8
 945:../../../../../../Middlewares/Third_Party/LoRaWAN/Mac/region/RegionAS923.c ****             j = ( j + 1 ) % nbEnabledChannels;
 3412              		.loc 1 945 0
 3413 01b8 1E5D     		ldrb	r6, [r3, r4]
 3414              	.LVL301:
 946:../../../../../../Middlewares/Third_Party/LoRaWAN/Mac/region/RegionAS923.c **** 
 3415              		.loc 1 946 0
 3416 01ba FFF7FEFF 		bl	__aeabi_idivmod
 3417              	.LVL302:
 950:../../../../../../Middlewares/Third_Party/LoRaWAN/Mac/region/RegionAS923.c ****             {
ARM GAS  C:\Users\EBANO_~1\AppData\Local\Temp\cc2nkIni.s 			page 88


 3418              		.loc 1 950 0
 3419 01be 4A46     		mov	r2, r9
 3420 01c0 7300     		lsls	r3, r6, #1
 3421 01c2 9B19     		adds	r3, r3, r6
 3422 01c4 9B00     		lsls	r3, r3, #2
 946:../../../../../../Middlewares/Third_Party/LoRaWAN/Mac/region/RegionAS923.c **** 
 3423              		.loc 1 946 0
 3424 01c6 CCB2     		uxtb	r4, r1
 3425              	.LVL303:
 950:../../../../../../Middlewares/Third_Party/LoRaWAN/Mac/region/RegionAS923.c ****             {
 3426              		.loc 1 950 0
 3427 01c8 D158     		ldr	r1, [r2, r3]
 3428 01ca 5522     		movs	r2, #85
 3429 01cc 0623     		movs	r3, #6
 3430 01ce 5242     		rsbs	r2, r2, #0
 3431 01d0 0120     		movs	r0, #1
 3432 01d2 B847     		blx	r7
 3433              	.LVL304:
 3434 01d4 0028     		cmp	r0, #0
 3435 01d6 E8D0     		beq	.L370
 953:../../../../../../Middlewares/Third_Party/LoRaWAN/Mac/region/RegionAS923.c ****                 *time = 0;
 3436              		.loc 1 953 0
 3437 01d8 049B     		ldr	r3, [sp, #16]
 954:../../../../../../Middlewares/Third_Party/LoRaWAN/Mac/region/RegionAS923.c ****                 return LORAMAC_STATUS_OK;
 3438              		.loc 1 954 0
 3439 01da 5A46     		mov	r2, fp
 953:../../../../../../Middlewares/Third_Party/LoRaWAN/Mac/region/RegionAS923.c ****                 *time = 0;
 3440              		.loc 1 953 0
 3441 01dc 1E70     		strb	r6, [r3]
 954:../../../../../../Middlewares/Third_Party/LoRaWAN/Mac/region/RegionAS923.c ****                 return LORAMAC_STATUS_OK;
 3442              		.loc 1 954 0
 3443 01de 0023     		movs	r3, #0
 955:../../../../../../Middlewares/Third_Party/LoRaWAN/Mac/region/RegionAS923.c ****             }
 3444              		.loc 1 955 0
 3445 01e0 0020     		movs	r0, #0
 954:../../../../../../Middlewares/Third_Party/LoRaWAN/Mac/region/RegionAS923.c ****                 return LORAMAC_STATUS_OK;
 3446              		.loc 1 954 0
 3447 01e2 1360     		str	r3, [r2]
 955:../../../../../../Middlewares/Third_Party/LoRaWAN/Mac/region/RegionAS923.c ****             }
 3448              		.loc 1 955 0
 3449 01e4 8FE7     		b	.L371
 3450              	.LVL305:
 3451              	.L366:
 3452              	.LBE131:
 3453              	.LBB132:
 3454              	.LBB129:
 3455              	.LBB127:
 3456              	.LBB124:
 152:../../../../../../Middlewares/Third_Party/LoRaWAN/Mac/region/RegionAS923.c ****                     continue;
 3457              		.loc 1 152 0
 3458 01e6 029B     		ldr	r3, [sp, #8]
 3459 01e8 0133     		adds	r3, r3, #1
 3460 01ea DBB2     		uxtb	r3, r3
 3461 01ec 0293     		str	r3, [sp, #8]
 3462              	.LVL306:
 3463 01ee A8E7     		b	.L365
 3464              	.LVL307:
ARM GAS  C:\Users\EBANO_~1\AppData\Local\Temp\cc2nkIni.s 			page 89


 3465              	.L396:
 3466 01f0 3E00     		movs	r6, r7
 3467              	.LVL308:
 3468 01f2 4746     		mov	r7, r8
 3469 01f4 79E7     		b	.L362
 3470              	.LVL309:
 3471              	.L397:
 3472              	.LBE124:
 3473              	.LBE127:
 3474              	.LBE129:
 3475              	.LBE132:
 958:../../../../../../Middlewares/Third_Party/LoRaWAN/Mac/region/RegionAS923.c ****     }
 3476              		.loc 1 958 0
 3477 01f6 0D20     		movs	r0, #13
 3478 01f8 85E7     		b	.L371
 3479              	.L399:
 3480 01fa C046     		.align	2
 3481              	.L398:
 3482 01fc D0000000 		.word	NvmCtx+208
 3483 0200 C0000000 		.word	NvmCtx+192
 3484 0204 00000000 		.word	Radio
 3485              		.cfi_endproc
 3486              	.LFE61:
 3487              		.size	RegionAS923NextChannel, .-RegionAS923NextChannel
 3488              		.section	.text.RegionAS923ChannelAdd,"ax",%progbits
 3489              		.align	1
 3490              		.p2align 2,,3
 3491              		.global	RegionAS923ChannelAdd
 3492              		.syntax unified
 3493              		.code	16
 3494              		.thumb_func
 3495              		.fpu softvfp
 3496              		.type	RegionAS923ChannelAdd, %function
 3497              	RegionAS923ChannelAdd:
 3498              	.LFB62:
 976:../../../../../../Middlewares/Third_Party/LoRaWAN/Mac/region/RegionAS923.c ****     bool drInvalid = false;
 3499              		.loc 1 976 0
 3500              		.cfi_startproc
 3501              		@ args = 0, pretend = 0, frame = 8
 3502              		@ frame_needed = 0, uses_anonymous_args = 0
 3503              	.LVL310:
 3504 0000 F0B5     		push	{r4, r5, r6, r7, lr}
 3505              	.LCFI34:
 3506              		.cfi_def_cfa_offset 20
 3507              		.cfi_offset 4, -20
 3508              		.cfi_offset 5, -16
 3509              		.cfi_offset 6, -12
 3510              		.cfi_offset 7, -8
 3511              		.cfi_offset 14, -4
 979:../../../../../../Middlewares/Third_Party/LoRaWAN/Mac/region/RegionAS923.c **** 
 3512              		.loc 1 979 0
 3513 0002 0579     		ldrb	r5, [r0, #4]
 3514              	.LVL311:
 976:../../../../../../Middlewares/Third_Party/LoRaWAN/Mac/region/RegionAS923.c ****     bool drInvalid = false;
 3515              		.loc 1 976 0
 3516 0004 83B0     		sub	sp, sp, #12
 3517              	.LCFI35:
ARM GAS  C:\Users\EBANO_~1\AppData\Local\Temp\cc2nkIni.s 			page 90


 3518              		.cfi_def_cfa_offset 32
 976:../../../../../../Middlewares/Third_Party/LoRaWAN/Mac/region/RegionAS923.c ****     bool drInvalid = false;
 3519              		.loc 1 976 0
 3520 0006 0400     		movs	r4, r0
 981:../../../../../../Middlewares/Third_Party/LoRaWAN/Mac/region/RegionAS923.c ****     {
 3521              		.loc 1 981 0
 3522 0008 012D     		cmp	r5, #1
 3523 000a 39D9     		bls	.L406
 988:../../../../../../Middlewares/Third_Party/LoRaWAN/Mac/region/RegionAS923.c ****     }
 3524              		.loc 1 988 0
 3525 000c 0320     		movs	r0, #3
 3526              	.LVL312:
 986:../../../../../../Middlewares/Third_Party/LoRaWAN/Mac/region/RegionAS923.c ****     {
 3527              		.loc 1 986 0
 3528 000e 0F2D     		cmp	r5, #15
 3529 0010 2AD8     		bhi	.L413
 992:../../../../../../Middlewares/Third_Party/LoRaWAN/Mac/region/RegionAS923.c ****     {
 3530              		.loc 1 992 0
 3531 0012 2368     		ldr	r3, [r4]
 3532 0014 0722     		movs	r2, #7
 3533 0016 187A     		ldrb	r0, [r3, #8]
 3534 0018 0021     		movs	r1, #0
 3535 001a 0007     		lsls	r0, r0, #28
 3536 001c 0017     		asrs	r0, r0, #28
 3537 001e FFF7FEFF 		bl	RegionCommonValueInRange
 3538              	.LVL313:
 3539 0022 0600     		movs	r6, r0
 3540              	.LVL314:
 996:../../../../../../Middlewares/Third_Party/LoRaWAN/Mac/region/RegionAS923.c ****     {
 3541              		.loc 1 996 0
 3542 0024 0820     		movs	r0, #8
 3543 0026 2368     		ldr	r3, [r4]
 3544 0028 0722     		movs	r2, #7
 3545 002a 1856     		ldrsb	r0, [r3, r0]
 3546 002c 0021     		movs	r1, #0
 3547 002e 0011     		asrs	r0, r0, #4
 3548 0030 FFF7FEFF 		bl	RegionCommonValueInRange
 3549              	.LVL315:
 998:../../../../../../Middlewares/Third_Party/LoRaWAN/Mac/region/RegionAS923.c ****     }
 3550              		.loc 1 998 0
 3551 0034 0127     		movs	r7, #1
 996:../../../../../../Middlewares/Third_Party/LoRaWAN/Mac/region/RegionAS923.c ****     {
 3552              		.loc 1 996 0
 3553 0036 0028     		cmp	r0, #0
 3554 0038 02D0     		beq	.L403
 992:../../../../../../Middlewares/Third_Party/LoRaWAN/Mac/region/RegionAS923.c ****     {
 3555              		.loc 1 992 0
 3556 003a 7742     		rsbs	r7, r6, #0
 3557 003c 7741     		adcs	r7, r7, r6
 3558              	.LVL316:
 3559 003e FFB2     		uxtb	r7, r7
 3560              	.L403:
 3561              	.LVL317:
1000:../../../../../../Middlewares/Third_Party/LoRaWAN/Mac/region/RegionAS923.c ****     {
 3562              		.loc 1 1000 0
 3563 0040 2368     		ldr	r3, [r4]
 3564 0042 214A     		ldr	r2, .L416
ARM GAS  C:\Users\EBANO_~1\AppData\Local\Temp\cc2nkIni.s 			page 91


 3565 0044 1E68     		ldr	r6, [r3]
 3566 0046 926A     		ldr	r2, [r2, #40]
 3567 0048 1B7A     		ldrb	r3, [r3, #8]
 3568 004a 0192     		str	r2, [sp, #4]
 3569 004c 1A07     		lsls	r2, r3, #28
 3570 004e 5BB2     		sxtb	r3, r3
 3571 0050 1217     		asrs	r2, r2, #28
 3572 0052 1B11     		asrs	r3, r3, #4
 3573              	.LBB133:
 3574              	.LBB134:
 111:../../../../../../Middlewares/Third_Party/LoRaWAN/Mac/region/RegionAS923.c ****     {
 3575              		.loc 1 111 0
 3576 0054 3000     		movs	r0, r6
 3577              	.LBE134:
 3578              	.LBE133:
1000:../../../../../../Middlewares/Third_Party/LoRaWAN/Mac/region/RegionAS923.c ****     {
 3579              		.loc 1 1000 0
 3580 0056 9A42     		cmp	r2, r3
 3581 0058 08DC     		bgt	.L404
 3582              	.LVL318:
 3583              	.LBB138:
 3584              	.LBB135:
 111:../../../../../../Middlewares/Third_Party/LoRaWAN/Mac/region/RegionAS923.c ****     {
 3585              		.loc 1 111 0
 3586 005a 019B     		ldr	r3, [sp, #4]
 3587 005c 9847     		blx	r3
 3588              	.LVL319:
 3589 005e 0028     		cmp	r0, #0
 3590 0060 10D1     		bne	.L405
 3591              	.LVL320:
 3592              	.LBE135:
 3593              	.LBE138:
1015:../../../../../../Middlewares/Third_Party/LoRaWAN/Mac/region/RegionAS923.c ****     {
 3594              		.loc 1 1015 0
 3595 0062 002F     		cmp	r7, #0
 3596 0064 0CD1     		bne	.L406
1025:../../../../../../Middlewares/Third_Party/LoRaWAN/Mac/region/RegionAS923.c ****     }
 3597              		.loc 1 1025 0
 3598 0066 0430     		adds	r0, r0, #4
 3599              	.LVL321:
 3600              	.L413:
1032:../../../../../../Middlewares/Third_Party/LoRaWAN/Mac/region/RegionAS923.c **** 
 3601              		.loc 1 1032 0
 3602 0068 03B0     		add	sp, sp, #12
 3603              		@ sp needed
 3604              	.LVL322:
 3605 006a F0BD     		pop	{r4, r5, r6, r7, pc}
 3606              	.LVL323:
 3607              	.L404:
 3608              	.LBB139:
 3609              	.LBB136:
 111:../../../../../../Middlewares/Third_Party/LoRaWAN/Mac/region/RegionAS923.c ****     {
 3610              		.loc 1 111 0
 3611 006c 019B     		ldr	r3, [sp, #4]
 3612 006e 9847     		blx	r3
 3613              	.LVL324:
 3614 0070 0028     		cmp	r0, #0
ARM GAS  C:\Users\EBANO_~1\AppData\Local\Temp\cc2nkIni.s 			page 92


 3615 0072 05D0     		beq	.L406
 116:../../../../../../Middlewares/Third_Party/LoRaWAN/Mac/region/RegionAS923.c ****     {
 3616              		.loc 1 116 0
 3617 0074 154B     		ldr	r3, .L416+4
 3618 0076 9C46     		mov	ip, r3
 3619 0078 154B     		ldr	r3, .L416+8
 3620 007a 6644     		add	r6, r6, ip
 3621 007c 9E42     		cmp	r6, r3
 3622 007e 0BD9     		bls	.L407
 3623              	.LVL325:
 3624              	.L406:
 3625              	.LBE136:
 3626              	.LBE139:
 983:../../../../../../Middlewares/Third_Party/LoRaWAN/Mac/region/RegionAS923.c ****     }
 3627              		.loc 1 983 0
 3628 0080 0620     		movs	r0, #6
 3629 0082 F1E7     		b	.L413
 3630              	.LVL326:
 3631              	.L405:
 3632              	.LBB140:
 3633              	.LBB137:
 116:../../../../../../Middlewares/Third_Party/LoRaWAN/Mac/region/RegionAS923.c ****     {
 3634              		.loc 1 116 0
 3635 0084 114B     		ldr	r3, .L416+4
 3636 0086 9C46     		mov	ip, r3
 3637 0088 114B     		ldr	r3, .L416+8
 3638 008a 6644     		add	r6, r6, ip
 3639 008c 9E42     		cmp	r6, r3
 3640 008e 05D9     		bls	.L408
 3641              	.LVL327:
 3642              	.LBE137:
 3643              	.LBE140:
1015:../../../../../../Middlewares/Third_Party/LoRaWAN/Mac/region/RegionAS923.c ****     {
 3644              		.loc 1 1015 0
 3645 0090 002F     		cmp	r7, #0
 3646 0092 F5D1     		bne	.L406
1025:../../../../../../Middlewares/Third_Party/LoRaWAN/Mac/region/RegionAS923.c ****     }
 3647              		.loc 1 1025 0
 3648 0094 0420     		movs	r0, #4
 3649 0096 E7E7     		b	.L413
 3650              	.LVL328:
 3651              	.L407:
1021:../../../../../../Middlewares/Third_Party/LoRaWAN/Mac/region/RegionAS923.c ****     }
 3652              		.loc 1 1021 0
 3653 0098 0520     		movs	r0, #5
 3654 009a E5E7     		b	.L413
 3655              	.LVL329:
 3656              	.L408:
1015:../../../../../../Middlewares/Third_Party/LoRaWAN/Mac/region/RegionAS923.c ****     {
 3657              		.loc 1 1015 0
 3658 009c 002F     		cmp	r7, #0
 3659 009e FBD1     		bne	.L407
1028:../../../../../../Middlewares/Third_Party/LoRaWAN/Mac/region/RegionAS923.c ****     NvmCtx.Channels[id].Band = 0;
 3660              		.loc 1 1028 0
 3661 00a0 2168     		ldr	r1, [r4]
 3662 00a2 6C00     		lsls	r4, r5, #1
 3663              	.LVL330:
ARM GAS  C:\Users\EBANO_~1\AppData\Local\Temp\cc2nkIni.s 			page 93


 3664 00a4 0B4E     		ldr	r6, .L416+12
 3665 00a6 6419     		adds	r4, r4, r5
 3666 00a8 A400     		lsls	r4, r4, #2
 3667 00aa A419     		adds	r4, r4, r6
 3668 00ac 0C22     		movs	r2, #12
 3669 00ae 2000     		movs	r0, r4
 3670 00b0 FFF7FEFF 		bl	memcpy1
 3671              	.LVL331:
1030:../../../../../../Middlewares/Third_Party/LoRaWAN/Mac/region/RegionAS923.c ****     return LORAMAC_STATUS_OK;
 3672              		.loc 1 1030 0
 3673 00b4 0122     		movs	r2, #1
 3674 00b6 D021     		movs	r1, #208
 3675 00b8 AA40     		lsls	r2, r2, r5
1029:../../../../../../Middlewares/Third_Party/LoRaWAN/Mac/region/RegionAS923.c ****     NvmCtx.ChannelsMask[0] |= ( 1 << id );
 3676              		.loc 1 1029 0
 3677 00ba 6772     		strb	r7, [r4, #9]
1030:../../../../../../Middlewares/Third_Party/LoRaWAN/Mac/region/RegionAS923.c ****     return LORAMAC_STATUS_OK;
 3678              		.loc 1 1030 0
 3679 00bc 735A     		ldrh	r3, [r6, r1]
1031:../../../../../../Middlewares/Third_Party/LoRaWAN/Mac/region/RegionAS923.c **** }
 3680              		.loc 1 1031 0
 3681 00be 0020     		movs	r0, #0
1030:../../../../../../Middlewares/Third_Party/LoRaWAN/Mac/region/RegionAS923.c ****     return LORAMAC_STATUS_OK;
 3682              		.loc 1 1030 0
 3683 00c0 1343     		orrs	r3, r2
 3684 00c2 7352     		strh	r3, [r6, r1]
1031:../../../../../../Middlewares/Third_Party/LoRaWAN/Mac/region/RegionAS923.c **** }
 3685              		.loc 1 1031 0
 3686 00c4 D0E7     		b	.L413
 3687              	.L417:
 3688 00c6 C046     		.align	2
 3689              	.L416:
 3690 00c8 00000000 		.word	Radio
 3691 00cc 403576C9 		.word	-915000000
 3692 00d0 405DC600 		.word	13000000
 3693 00d4 00000000 		.word	NvmCtx
 3694              		.cfi_endproc
 3695              	.LFE62:
 3696              		.size	RegionAS923ChannelAdd, .-RegionAS923ChannelAdd
 3697              		.section	.text.RegionAS923ChannelsRemove,"ax",%progbits
 3698              		.align	1
 3699              		.p2align 2,,3
 3700              		.global	RegionAS923ChannelsRemove
 3701              		.syntax unified
 3702              		.code	16
 3703              		.thumb_func
 3704              		.fpu softvfp
 3705              		.type	RegionAS923ChannelsRemove, %function
 3706              	RegionAS923ChannelsRemove:
 3707              	.LFB63:
1035:../../../../../../Middlewares/Third_Party/LoRaWAN/Mac/region/RegionAS923.c ****     uint8_t id = channelRemove->ChannelId;
 3708              		.loc 1 1035 0
 3709              		.cfi_startproc
 3710              		@ args = 0, pretend = 0, frame = 0
 3711              		@ frame_needed = 0, uses_anonymous_args = 0
 3712              	.LVL332:
 3713 0000 70B5     		push	{r4, r5, r6, lr}
ARM GAS  C:\Users\EBANO_~1\AppData\Local\Temp\cc2nkIni.s 			page 94


 3714              	.LCFI36:
 3715              		.cfi_def_cfa_offset 16
 3716              		.cfi_offset 4, -16
 3717              		.cfi_offset 5, -12
 3718              		.cfi_offset 6, -8
 3719              		.cfi_offset 14, -4
1036:../../../../../../Middlewares/Third_Party/LoRaWAN/Mac/region/RegionAS923.c **** 
 3720              		.loc 1 1036 0
 3721 0002 0478     		ldrb	r4, [r0]
 3722              	.LVL333:
1040:../../../../../../Middlewares/Third_Party/LoRaWAN/Mac/region/RegionAS923.c ****     }
 3723              		.loc 1 1040 0
 3724 0004 0020     		movs	r0, #0
 3725              	.LVL334:
1038:../../../../../../Middlewares/Third_Party/LoRaWAN/Mac/region/RegionAS923.c ****     {
 3726              		.loc 1 1038 0
 3727 0006 012C     		cmp	r4, #1
 3728 0008 0ED9     		bls	.L419
1044:../../../../../../Middlewares/Third_Party/LoRaWAN/Mac/region/RegionAS923.c **** 
 3729              		.loc 1 1044 0
 3730 000a 6000     		lsls	r0, r4, #1
 3731 000c 074D     		ldr	r5, .L421
 3732 000e 0019     		adds	r0, r0, r4
 3733 0010 8000     		lsls	r0, r0, #2
 3734 0012 0C22     		movs	r2, #12
 3735 0014 0021     		movs	r1, #0
 3736 0016 2818     		adds	r0, r5, r0
 3737 0018 FFF7FEFF 		bl	memset
 3738              	.LVL335:
 3739              		.loc 1 1046 0
 3740 001c 2800     		movs	r0, r5
 3741 001e 1022     		movs	r2, #16
 3742 0020 D030     		adds	r0, r0, #208
 3743 0022 2100     		movs	r1, r4
 3744 0024 FFF7FEFF 		bl	RegionCommonChanDisable
 3745              	.LVL336:
 3746              	.L419:
1047:../../../../../../Middlewares/Third_Party/LoRaWAN/Mac/region/RegionAS923.c **** }
 3747              		.loc 1 1047 0
 3748              		@ sp needed
 3749              	.LVL337:
 3750 0028 70BD     		pop	{r4, r5, r6, pc}
 3751              	.L422:
 3752 002a C046     		.align	2
 3753              	.L421:
 3754 002c 00000000 		.word	NvmCtx
 3755              		.cfi_endproc
 3756              	.LFE63:
 3757              		.size	RegionAS923ChannelsRemove, .-RegionAS923ChannelsRemove
 3758              		.section	.text.RegionAS923SetContinuousWave,"ax",%progbits
 3759              		.align	1
 3760              		.p2align 2,,3
 3761              		.global	RegionAS923SetContinuousWave
 3762              		.syntax unified
 3763              		.code	16
 3764              		.thumb_func
 3765              		.fpu softvfp
ARM GAS  C:\Users\EBANO_~1\AppData\Local\Temp\cc2nkIni.s 			page 95


 3766              		.type	RegionAS923SetContinuousWave, %function
 3767              	RegionAS923SetContinuousWave:
 3768              	.LFB64:
1048:../../../../../../Middlewares/Third_Party/LoRaWAN/Mac/region/RegionAS923.c **** 
1049:../../../../../../Middlewares/Third_Party/LoRaWAN/Mac/region/RegionAS923.c **** void RegionAS923SetContinuousWave( ContinuousWaveParams_t* continuousWave )
1050:../../../../../../Middlewares/Third_Party/LoRaWAN/Mac/region/RegionAS923.c **** {
 3769              		.loc 1 1050 0
 3770              		.cfi_startproc
 3771              		@ args = 0, pretend = 0, frame = 8
 3772              		@ frame_needed = 0, uses_anonymous_args = 0
 3773              	.LVL338:
 3774 0000 F0B5     		push	{r4, r5, r6, r7, lr}
 3775              	.LCFI37:
 3776              		.cfi_def_cfa_offset 20
 3777              		.cfi_offset 4, -20
 3778              		.cfi_offset 5, -16
 3779              		.cfi_offset 6, -12
 3780              		.cfi_offset 7, -8
 3781              		.cfi_offset 14, -4
 3782 0002 0400     		movs	r4, r0
1051:../../../../../../Middlewares/Third_Party/LoRaWAN/Mac/region/RegionAS923.c ****     int8_t txPowerLimited = LimitTxPower( continuousWave->TxPower, NvmCtx.Bands[NvmCtx.Channels[con
 3783              		.loc 1 1051 0
 3784 0004 0278     		ldrb	r2, [r0]
 3785              	.LVL339:
1052:../../../../../../Middlewares/Third_Party/LoRaWAN/Mac/region/RegionAS923.c ****     int8_t phyTxPower = 0;
1053:../../../../../../Middlewares/Third_Party/LoRaWAN/Mac/region/RegionAS923.c ****     uint32_t frequency = NvmCtx.Channels[continuousWave->Channel].Frequency;
 3786              		.loc 1 1053 0
 3787 0006 1048     		ldr	r0, .L425
 3788              	.LVL340:
 3789 0008 5300     		lsls	r3, r2, #1
 3790 000a 9B18     		adds	r3, r3, r2
 3791 000c 9B00     		lsls	r3, r3, #2
 3792 000e 1D58     		ldr	r5, [r3, r0]
 3793              	.LVL341:
1051:../../../../../../Middlewares/Third_Party/LoRaWAN/Mac/region/RegionAS923.c ****     int8_t txPowerLimited = LimitTxPower( continuousWave->TxPower, NvmCtx.Bands[NvmCtx.Channels[con
 3794              		.loc 1 1051 0
 3795 0010 C318     		adds	r3, r0, r3
 3796 0012 5B7A     		ldrb	r3, [r3, #9]
 3797              	.LBB141:
 3798              	.LBB142:
 103:../../../../../../Middlewares/Third_Party/LoRaWAN/Mac/region/RegionAS923.c **** 
 3799              		.loc 1 103 0
 3800 0014 A678     		ldrb	r6, [r4, #2]
 3801              	.LBE142:
 3802              	.LBE141:
1051:../../../../../../Middlewares/Third_Party/LoRaWAN/Mac/region/RegionAS923.c ****     int8_t txPowerLimited = LimitTxPower( continuousWave->TxPower, NvmCtx.Bands[NvmCtx.Channels[con
 3803              		.loc 1 1051 0
 3804 0016 0C33     		adds	r3, r3, #12
 3805 0018 1B01     		lsls	r3, r3, #4
 3806 001a C018     		adds	r0, r0, r3
 3807              	.LBB145:
 3808              	.LBB143:
 103:../../../../../../Middlewares/Third_Party/LoRaWAN/Mac/region/RegionAS923.c **** 
 3809              		.loc 1 103 0
 3810 001c 8378     		ldrb	r3, [r0, #2]
 3811 001e 77B2     		sxtb	r7, r6
 3812 0020 181C     		adds	r0, r3, #0
ARM GAS  C:\Users\EBANO_~1\AppData\Local\Temp\cc2nkIni.s 			page 96


 3813 0022 5BB2     		sxtb	r3, r3
 3814              	.LBE143:
 3815              	.LBE145:
1050:../../../../../../Middlewares/Third_Party/LoRaWAN/Mac/region/RegionAS923.c ****     int8_t txPowerLimited = LimitTxPower( continuousWave->TxPower, NvmCtx.Bands[NvmCtx.Channels[con
 3816              		.loc 1 1050 0
 3817 0024 83B0     		sub	sp, sp, #12
 3818              	.LCFI38:
 3819              		.cfi_def_cfa_offset 32
1054:../../../../../../Middlewares/Third_Party/LoRaWAN/Mac/region/RegionAS923.c **** 
1055:../../../../../../Middlewares/Third_Party/LoRaWAN/Mac/region/RegionAS923.c ****     // Calculate physical TX power
1056:../../../../../../Middlewares/Third_Party/LoRaWAN/Mac/region/RegionAS923.c ****     phyTxPower = RegionCommonComputeTxPower( txPowerLimited, continuousWave->MaxEirp, continuousWav
 3820              		.loc 1 1056 0
 3821 0026 A268     		ldr	r2, [r4, #8]
 3822 0028 6168     		ldr	r1, [r4, #4]
 3823              	.LBB146:
 3824              	.LBB144:
 103:../../../../../../Middlewares/Third_Party/LoRaWAN/Mac/region/RegionAS923.c **** 
 3825              		.loc 1 103 0
 3826 002a BB42     		cmp	r3, r7
 3827 002c 00DA     		bge	.L424
 3828 002e 301C     		adds	r0, r6, #0
 3829              	.L424:
 3830              	.LBE144:
 3831              	.LBE146:
 3832              		.loc 1 1056 0
 3833 0030 40B2     		sxtb	r0, r0
 3834 0032 FFF7FEFF 		bl	RegionCommonComputeTxPower
 3835              	.LVL342:
1057:../../../../../../Middlewares/Third_Party/LoRaWAN/Mac/region/RegionAS923.c **** 
1058:../../../../../../Middlewares/Third_Party/LoRaWAN/Mac/region/RegionAS923.c ****     Radio.SetTxContinuousWave( frequency, phyTxPower, continuousWave->Timeout );
 3836              		.loc 1 1058 0
 3837 0036 054B     		ldr	r3, .L425+4
1056:../../../../../../Middlewares/Third_Party/LoRaWAN/Mac/region/RegionAS923.c **** 
 3838              		.loc 1 1056 0
 3839 0038 0100     		movs	r1, r0
 3840              	.LVL343:
 3841              		.loc 1 1058 0
 3842 003a 5B6C     		ldr	r3, [r3, #68]
 3843 003c A289     		ldrh	r2, [r4, #12]
 3844 003e 2800     		movs	r0, r5
 3845 0040 0193     		str	r3, [sp, #4]
 3846 0042 9847     		blx	r3
 3847              	.LVL344:
1059:../../../../../../Middlewares/Third_Party/LoRaWAN/Mac/region/RegionAS923.c **** }
 3848              		.loc 1 1059 0
 3849 0044 03B0     		add	sp, sp, #12
 3850              		@ sp needed
 3851              	.LVL345:
 3852              	.LVL346:
 3853 0046 F0BD     		pop	{r4, r5, r6, r7, pc}
 3854              	.L426:
 3855              		.align	2
 3856              	.L425:
 3857 0048 00000000 		.word	NvmCtx
 3858 004c 00000000 		.word	Radio
 3859              		.cfi_endproc
 3860              	.LFE64:
ARM GAS  C:\Users\EBANO_~1\AppData\Local\Temp\cc2nkIni.s 			page 97


 3861              		.size	RegionAS923SetContinuousWave, .-RegionAS923SetContinuousWave
 3862              		.section	.text.RegionAS923ApplyDrOffset,"ax",%progbits
 3863              		.align	1
 3864              		.p2align 2,,3
 3865              		.global	RegionAS923ApplyDrOffset
 3866              		.syntax unified
 3867              		.code	16
 3868              		.thumb_func
 3869              		.fpu softvfp
 3870              		.type	RegionAS923ApplyDrOffset, %function
 3871              	RegionAS923ApplyDrOffset:
 3872              	.LFB65:
1060:../../../../../../Middlewares/Third_Party/LoRaWAN/Mac/region/RegionAS923.c **** 
1061:../../../../../../Middlewares/Third_Party/LoRaWAN/Mac/region/RegionAS923.c **** uint8_t RegionAS923ApplyDrOffset( uint8_t downlinkDwellTime, int8_t dr, int8_t drOffset )
1062:../../../../../../Middlewares/Third_Party/LoRaWAN/Mac/region/RegionAS923.c **** {
 3873              		.loc 1 1062 0
 3874              		.cfi_startproc
 3875              		@ args = 0, pretend = 0, frame = 0
 3876              		@ frame_needed = 0, uses_anonymous_args = 0
 3877              		@ link register save eliminated.
 3878              	.LVL347:
1063:../../../../../../Middlewares/Third_Party/LoRaWAN/Mac/region/RegionAS923.c ****     // Initialize minDr for a downlink dwell time configuration of 0
1064:../../../../../../Middlewares/Third_Party/LoRaWAN/Mac/region/RegionAS923.c ****     int8_t minDr = DR_0;
1065:../../../../../../Middlewares/Third_Party/LoRaWAN/Mac/region/RegionAS923.c **** 
1066:../../../../../../Middlewares/Third_Party/LoRaWAN/Mac/region/RegionAS923.c ****     // Update the minDR for a downlink dwell time configuration of 1
1067:../../../../../../Middlewares/Third_Party/LoRaWAN/Mac/region/RegionAS923.c ****     if( downlinkDwellTime == 1 )
 3879              		.loc 1 1067 0
 3880 0000 0138     		subs	r0, r0, #1
 3881              	.LVL348:
 3882 0002 4342     		rsbs	r3, r0, #0
 3883 0004 5841     		adcs	r0, r0, r3
1068:../../../../../../Middlewares/Third_Party/LoRaWAN/Mac/region/RegionAS923.c ****     {
1069:../../../../../../Middlewares/Third_Party/LoRaWAN/Mac/region/RegionAS923.c ****         minDr = AS923_DWELL_LIMIT_DATARATE;
1070:../../../../../../Middlewares/Third_Party/LoRaWAN/Mac/region/RegionAS923.c ****     }
1071:../../../../../../Middlewares/Third_Party/LoRaWAN/Mac/region/RegionAS923.c **** 
1072:../../../../../../Middlewares/Third_Party/LoRaWAN/Mac/region/RegionAS923.c ****     // Apply offset formula
1073:../../../../../../Middlewares/Third_Party/LoRaWAN/Mac/region/RegionAS923.c ****     return MIN( DR_5, MAX( minDr, dr - EffectiveRx1DrOffsetAS923[drOffset] ) );
 3884              		.loc 1 1073 0
 3885 0006 074B     		ldr	r3, .L432
1067:../../../../../../Middlewares/Third_Party/LoRaWAN/Mac/region/RegionAS923.c ****     {
 3886              		.loc 1 1067 0
 3887 0008 4000     		lsls	r0, r0, #1
 3888              	.LVL349:
 3889              		.loc 1 1073 0
 3890 000a 9A18     		adds	r2, r3, r2
 3891              	.LVL350:
 3892 000c 2823     		movs	r3, #40
 3893 000e D356     		ldrsb	r3, [r2, r3]
 3894 0010 C91A     		subs	r1, r1, r3
 3895              	.LVL351:
 3896 0012 8142     		cmp	r1, r0
 3897 0014 00DA     		bge	.L429
 3898 0016 0100     		movs	r1, r0
 3899              	.L429:
 3900 0018 0529     		cmp	r1, #5
 3901 001a 00DD     		ble	.L430
 3902 001c 0521     		movs	r1, #5
ARM GAS  C:\Users\EBANO_~1\AppData\Local\Temp\cc2nkIni.s 			page 98


 3903              	.L430:
 3904 001e C8B2     		uxtb	r0, r1
1074:../../../../../../Middlewares/Third_Party/LoRaWAN/Mac/region/RegionAS923.c **** }
 3905              		.loc 1 1074 0
 3906              		@ sp needed
 3907 0020 7047     		bx	lr
 3908              	.L433:
 3909 0022 C046     		.align	2
 3910              	.L432:
 3911 0024 EC000000 		.word	.LANCHOR1
 3912              		.cfi_endproc
 3913              	.LFE65:
 3914              		.size	RegionAS923ApplyDrOffset, .-RegionAS923ApplyDrOffset
 3915              		.section	.text.RegionAS923RxBeaconSetup,"ax",%progbits
 3916              		.align	1
 3917              		.p2align 2,,3
 3918              		.global	RegionAS923RxBeaconSetup
 3919              		.syntax unified
 3920              		.code	16
 3921              		.thumb_func
 3922              		.fpu softvfp
 3923              		.type	RegionAS923RxBeaconSetup, %function
 3924              	RegionAS923RxBeaconSetup:
 3925              	.LFB66:
1075:../../../../../../Middlewares/Third_Party/LoRaWAN/Mac/region/RegionAS923.c **** 
1076:../../../../../../Middlewares/Third_Party/LoRaWAN/Mac/region/RegionAS923.c **** void RegionAS923RxBeaconSetup( RxBeaconSetup_t* rxBeaconSetup, uint8_t* outDr )
1077:../../../../../../Middlewares/Third_Party/LoRaWAN/Mac/region/RegionAS923.c **** {
 3926              		.loc 1 1077 0
 3927              		.cfi_startproc
 3928              		@ args = 0, pretend = 0, frame = 24
 3929              		@ frame_needed = 0, uses_anonymous_args = 0
 3930              	.LVL352:
 3931 0000 10B5     		push	{r4, lr}
 3932              	.LCFI39:
 3933              		.cfi_def_cfa_offset 8
 3934              		.cfi_offset 4, -8
 3935              		.cfi_offset 14, -4
1078:../../../../../../Middlewares/Third_Party/LoRaWAN/Mac/region/RegionAS923.c ****     RegionCommonRxBeaconSetupParams_t regionCommonRxBeaconSetup;
1079:../../../../../../Middlewares/Third_Party/LoRaWAN/Mac/region/RegionAS923.c **** 
1080:../../../../../../Middlewares/Third_Party/LoRaWAN/Mac/region/RegionAS923.c ****     regionCommonRxBeaconSetup.Datarates = DataratesAS923;
 3936              		.loc 1 1080 0
 3937 0002 0B4A     		ldr	r2, .L435
1077:../../../../../../Middlewares/Third_Party/LoRaWAN/Mac/region/RegionAS923.c ****     RegionCommonRxBeaconSetupParams_t regionCommonRxBeaconSetup;
 3938              		.loc 1 1077 0
 3939 0004 86B0     		sub	sp, sp, #24
 3940              	.LCFI40:
 3941              		.cfi_def_cfa_offset 32
 3942              		.loc 1 1080 0
 3943 0006 2032     		adds	r2, r2, #32
 3944 0008 0192     		str	r2, [sp, #4]
1081:../../../../../../Middlewares/Third_Party/LoRaWAN/Mac/region/RegionAS923.c ****     regionCommonRxBeaconSetup.Frequency = rxBeaconSetup->Frequency;
 3945              		.loc 1 1081 0
 3946 000a 8268     		ldr	r2, [r0, #8]
1080:../../../../../../Middlewares/Third_Party/LoRaWAN/Mac/region/RegionAS923.c ****     regionCommonRxBeaconSetup.Frequency = rxBeaconSetup->Frequency;
 3947              		.loc 1 1080 0
 3948 000c 01AB     		add	r3, sp, #4
 3949              		.loc 1 1081 0
ARM GAS  C:\Users\EBANO_~1\AppData\Local\Temp\cc2nkIni.s 			page 99


 3950 000e 0292     		str	r2, [sp, #8]
1082:../../../../../../Middlewares/Third_Party/LoRaWAN/Mac/region/RegionAS923.c ****     regionCommonRxBeaconSetup.BeaconSize = AS923_BEACON_SIZE;
 3951              		.loc 1 1082 0
 3952 0010 084A     		ldr	r2, .L435+4
1077:../../../../../../Middlewares/Third_Party/LoRaWAN/Mac/region/RegionAS923.c ****     RegionCommonRxBeaconSetupParams_t regionCommonRxBeaconSetup;
 3953              		.loc 1 1077 0
 3954 0012 0C00     		movs	r4, r1
 3955              		.loc 1 1082 0
 3956 0014 1A81     		strh	r2, [r3, #8]
1083:../../../../../../Middlewares/Third_Party/LoRaWAN/Mac/region/RegionAS923.c ****     regionCommonRxBeaconSetup.BeaconDatarate = AS923_BEACON_CHANNEL_DR;
 3957              		.loc 1 1083 0
 3958 0016 0022     		movs	r2, #0
 3959 0018 9A72     		strb	r2, [r3, #10]
1084:../../../../../../Middlewares/Third_Party/LoRaWAN/Mac/region/RegionAS923.c ****     regionCommonRxBeaconSetup.BeaconChannelBW = AS923_BEACON_CHANNEL_BW;
1085:../../../../../../Middlewares/Third_Party/LoRaWAN/Mac/region/RegionAS923.c ****     regionCommonRxBeaconSetup.RxTime = rxBeaconSetup->RxTime;
 3960              		.loc 1 1085 0
 3961 001a 4268     		ldr	r2, [r0, #4]
 3962 001c 0492     		str	r2, [sp, #16]
1086:../../../../../../Middlewares/Third_Party/LoRaWAN/Mac/region/RegionAS923.c ****     regionCommonRxBeaconSetup.SymbolTimeout = rxBeaconSetup->SymbolTimeout;
 3963              		.loc 1 1086 0
 3964 001e 0288     		ldrh	r2, [r0]
1087:../../../../../../Middlewares/Third_Party/LoRaWAN/Mac/region/RegionAS923.c **** 
1088:../../../../../../Middlewares/Third_Party/LoRaWAN/Mac/region/RegionAS923.c ****     RegionCommonRxBeaconSetup( &regionCommonRxBeaconSetup );
 3965              		.loc 1 1088 0
 3966 0020 1800     		movs	r0, r3
 3967              	.LVL353:
1086:../../../../../../Middlewares/Third_Party/LoRaWAN/Mac/region/RegionAS923.c ****     regionCommonRxBeaconSetup.SymbolTimeout = rxBeaconSetup->SymbolTimeout;
 3968              		.loc 1 1086 0
 3969 0022 1A82     		strh	r2, [r3, #16]
 3970              		.loc 1 1088 0
 3971 0024 FFF7FEFF 		bl	RegionCommonRxBeaconSetup
 3972              	.LVL354:
1089:../../../../../../Middlewares/Third_Party/LoRaWAN/Mac/region/RegionAS923.c **** 
1090:../../../../../../Middlewares/Third_Party/LoRaWAN/Mac/region/RegionAS923.c ****     // Store downlink datarate
1091:../../../../../../Middlewares/Third_Party/LoRaWAN/Mac/region/RegionAS923.c ****     *outDr = AS923_BEACON_CHANNEL_DR;
 3973              		.loc 1 1091 0
 3974 0028 0323     		movs	r3, #3
 3975 002a 2370     		strb	r3, [r4]
1092:../../../../../../Middlewares/Third_Party/LoRaWAN/Mac/region/RegionAS923.c **** }
 3976              		.loc 1 1092 0
 3977 002c 06B0     		add	sp, sp, #24
 3978              		@ sp needed
 3979              	.LVL355:
 3980 002e 10BD     		pop	{r4, pc}
 3981              	.L436:
 3982              		.align	2
 3983              	.L435:
 3984 0030 EC000000 		.word	.LANCHOR1
 3985 0034 11030000 		.word	785
 3986              		.cfi_endproc
 3987              	.LFE66:
 3988              		.size	RegionAS923RxBeaconSetup, .-RegionAS923RxBeaconSetup
 3989              		.bss
 3990              		.align	2
 3991              		.type	NvmCtx, %object
 3992              		.size	NvmCtx, 212
 3993              	NvmCtx:
ARM GAS  C:\Users\EBANO_~1\AppData\Local\Temp\cc2nkIni.s 			page 100


 3994 0000 00000000 		.space	212
 3994      00000000 
 3994      00000000 
 3994      00000000 
 3994      00000000 
 3995              		.section	.rodata
 3996              		.align	2
 3997              		.set	.LANCHOR1,. + 0
 3998              		.type	BandwidthsAS923, %object
 3999              		.size	BandwidthsAS923, 32
 4000              	BandwidthsAS923:
 4001 00ec 48E80100 		.word	125000
 4002 00f0 48E80100 		.word	125000
 4003 00f4 48E80100 		.word	125000
 4004 00f8 48E80100 		.word	125000
 4005 00fc 48E80100 		.word	125000
 4006 0100 48E80100 		.word	125000
 4007 0104 90D00300 		.word	250000
 4008 0108 00000000 		.word	0
 4009              		.type	DataratesAS923, %object
 4010              		.size	DataratesAS923, 8
 4011              	DataratesAS923:
 4012 010c 0C       		.byte	12
 4013 010d 0B       		.byte	11
 4014 010e 0A       		.byte	10
 4015 010f 09       		.byte	9
 4016 0110 08       		.byte	8
 4017 0111 07       		.byte	7
 4018 0112 07       		.byte	7
 4019 0113 32       		.byte	50
 4020              		.type	EffectiveRx1DrOffsetAS923, %object
 4021              		.size	EffectiveRx1DrOffsetAS923, 8
 4022              	EffectiveRx1DrOffsetAS923:
 4023 0114 00       		.byte	0
 4024 0115 01       		.byte	1
 4025 0116 02       		.byte	2
 4026 0117 03       		.byte	3
 4027 0118 04       		.byte	4
 4028 0119 05       		.byte	5
 4029 011a FF       		.byte	-1
 4030 011b FE       		.byte	-2
 4031              		.align	2
 4032              		.set	.LANCHOR0,. + 0
 4033              		.type	MaxPayloadOfDatarateDwell0AS923, %object
 4034              		.size	MaxPayloadOfDatarateDwell0AS923, 8
 4035              	MaxPayloadOfDatarateDwell0AS923:
 4036 011c 33       		.byte	51
 4037 011d 33       		.byte	51
 4038 011e 33       		.byte	51
 4039 011f 73       		.byte	115
 4040 0120 F2       		.byte	-14
 4041 0121 F2       		.byte	-14
 4042 0122 F2       		.byte	-14
 4043 0123 F2       		.byte	-14
 4044              		.type	MaxPayloadOfDatarateDwell1UpAS923, %object
 4045              		.size	MaxPayloadOfDatarateDwell1UpAS923, 8
 4046              	MaxPayloadOfDatarateDwell1UpAS923:
ARM GAS  C:\Users\EBANO_~1\AppData\Local\Temp\cc2nkIni.s 			page 101


 4047 0124 00       		.byte	0
 4048 0125 00       		.byte	0
 4049 0126 0B       		.byte	11
 4050 0127 35       		.byte	53
 4051 0128 7D       		.byte	125
 4052 0129 F2       		.byte	-14
 4053 012a F2       		.byte	-14
 4054 012b F2       		.byte	-14
 4055              		.type	MaxPayloadOfDatarateRepeaterDwell0AS923, %object
 4056              		.size	MaxPayloadOfDatarateRepeaterDwell0AS923, 8
 4057              	MaxPayloadOfDatarateRepeaterDwell0AS923:
 4058 012c 33       		.byte	51
 4059 012d 33       		.byte	51
 4060 012e 33       		.byte	51
 4061 012f 73       		.byte	115
 4062 0130 DE       		.byte	-34
 4063 0131 DE       		.byte	-34
 4064 0132 DE       		.byte	-34
 4065 0133 DE       		.byte	-34
 4066              	.LC0:
 4067 0134 00EA0637 		.word	923200000
 4068 0138 00000000 		.word	0
 4069 013c 50       		.byte	80
 4070 013d 00       		.byte	0
 4071 013e 0000     		.space	2
 4072              	.LC1:
 4073 0140 40F70937 		.word	923400000
 4074 0144 00000000 		.word	0
 4075 0148 50       		.byte	80
 4076 0149 00       		.byte	0
 4077 014a 0000     		.space	2
 4078              		.text
 4079              	.Letext0:
 4080              		.file 2 "c:\\program files (x86)\\gnu tools arm embedded\\7 2018-q2-update\\arm-none-eabi\\include
 4081              		.file 3 "c:\\program files (x86)\\gnu tools arm embedded\\7 2018-q2-update\\arm-none-eabi\\include
 4082              		.file 4 "../../../../../../Drivers/CMSIS/Device/ST/STM32L0xx/Include/system_stm32l0xx.h"
 4083              		.file 5 "c:\\program files (x86)\\gnu tools arm embedded\\7 2018-q2-update\\lib\\gcc\\arm-none-eab
 4084              		.file 6 "c:\\program files (x86)\\gnu tools arm embedded\\7 2018-q2-update\\arm-none-eabi\\include
 4085              		.file 7 "c:\\program files (x86)\\gnu tools arm embedded\\7 2018-q2-update\\arm-none-eabi\\include
 4086              		.file 8 "c:\\program files (x86)\\gnu tools arm embedded\\7 2018-q2-update\\arm-none-eabi\\include
 4087              		.file 9 "c:\\program files (x86)\\gnu tools arm embedded\\7 2018-q2-update\\arm-none-eabi\\include
 4088              		.file 10 "../../../../../../Middlewares/Third_Party/LoRaWAN/Utilities/utilities.h"
 4089              		.file 11 "../../../../../../Middlewares/Third_Party/LoRaWAN/Mac/LoRaMacTypes.h"
 4090              		.file 12 "c:\\program files (x86)\\gnu tools arm embedded\\7 2018-q2-update\\arm-none-eabi\\includ
 4091              		.file 13 "../../../../../../Middlewares/Third_Party/LoRaWAN/Phy/radio.h"
 4092              		.file 14 "../../../../../../Middlewares/Third_Party/LoRaWAN/Mac/LoRaMac.h"
 4093              		.file 15 "../../../../../../Middlewares/Third_Party/LoRaWAN/Mac/region/Region.h"
 4094              		.file 16 "../../../../../../Middlewares/Third_Party/LoRaWAN/Mac/region/RegionCommon.h"
 4095              		.file 17 "../../../../../../Middlewares/Third_Party/LoRaWAN/Mac/region/RegionAS923.h"
 4096              		.file 18 "../../../../../../Middlewares/Third_Party/LoRaWAN/Utilities/timeServer.h"
 4097              		.file 19 "<built-in>"
 4098              		.section	.debug_info,"",%progbits
 4099              	.Ldebug_info0:
 4100 0000 7B340000 		.4byte	0x347b
 4101 0004 0200     		.2byte	0x2
 4102 0006 00000000 		.4byte	.Ldebug_abbrev0
 4103 000a 04       		.byte	0x4
ARM GAS  C:\Users\EBANO_~1\AppData\Local\Temp\cc2nkIni.s 			page 102


 4104 000b 01       		.uleb128 0x1
 4105 000c B0090000 		.4byte	.LASF564
 4106 0010 0C       		.byte	0xc
 4107 0011 5F090000 		.4byte	.LASF565
 4108 0015 AB070000 		.4byte	.LASF566
 4109 0019 28020000 		.4byte	.Ldebug_ranges0+0x228
 4110 001d 00000000 		.4byte	0
 4111 0021 00000000 		.4byte	0
 4112 0025 00000000 		.4byte	.Ldebug_line0
 4113 0029 02       		.uleb128 0x2
 4114 002a 01       		.byte	0x1
 4115 002b 06       		.byte	0x6
 4116 002c 8C120000 		.4byte	.LASF2
 4117 0030 03       		.uleb128 0x3
 4118 0031 D5200000 		.4byte	.LASF0
 4119 0035 02       		.byte	0x2
 4120 0036 29       		.byte	0x29
 4121 0037 29000000 		.4byte	0x29
 4122 003b 03       		.uleb128 0x3
 4123 003c B4000000 		.4byte	.LASF1
 4124 0040 02       		.byte	0x2
 4125 0041 2B       		.byte	0x2b
 4126 0042 46000000 		.4byte	0x46
 4127 0046 02       		.uleb128 0x2
 4128 0047 01       		.byte	0x1
 4129 0048 08       		.byte	0x8
 4130 0049 5E070000 		.4byte	.LASF3
 4131 004d 03       		.uleb128 0x3
 4132 004e 03060000 		.4byte	.LASF4
 4133 0052 02       		.byte	0x2
 4134 0053 37       		.byte	0x37
 4135 0054 58000000 		.4byte	0x58
 4136 0058 02       		.uleb128 0x2
 4137 0059 02       		.byte	0x2
 4138 005a 05       		.byte	0x5
 4139 005b 67210000 		.4byte	.LASF5
 4140 005f 03       		.uleb128 0x3
 4141 0060 19060000 		.4byte	.LASF6
 4142 0064 02       		.byte	0x2
 4143 0065 39       		.byte	0x39
 4144 0066 6A000000 		.4byte	0x6a
 4145 006a 02       		.uleb128 0x2
 4146 006b 02       		.byte	0x2
 4147 006c 07       		.byte	0x7
 4148 006d 79120000 		.4byte	.LASF7
 4149 0071 03       		.uleb128 0x3
 4150 0072 571A0000 		.4byte	.LASF8
 4151 0076 02       		.byte	0x2
 4152 0077 4D       		.byte	0x4d
 4153 0078 7C000000 		.4byte	0x7c
 4154 007c 02       		.uleb128 0x2
 4155 007d 04       		.byte	0x4
 4156 007e 05       		.byte	0x5
 4157 007f 9C140000 		.4byte	.LASF9
 4158 0083 03       		.uleb128 0x3
 4159 0084 6A1A0000 		.4byte	.LASF10
 4160 0088 02       		.byte	0x2
ARM GAS  C:\Users\EBANO_~1\AppData\Local\Temp\cc2nkIni.s 			page 103


 4161 0089 4F       		.byte	0x4f
 4162 008a 8E000000 		.4byte	0x8e
 4163 008e 02       		.uleb128 0x2
 4164 008f 04       		.byte	0x4
 4165 0090 07       		.byte	0x7
 4166 0091 32160000 		.4byte	.LASF11
 4167 0095 02       		.uleb128 0x2
 4168 0096 08       		.byte	0x8
 4169 0097 05       		.byte	0x5
 4170 0098 CC1E0000 		.4byte	.LASF12
 4171 009c 02       		.uleb128 0x2
 4172 009d 08       		.byte	0x8
 4173 009e 07       		.byte	0x7
 4174 009f 311C0000 		.4byte	.LASF13
 4175 00a3 04       		.uleb128 0x4
 4176 00a4 04       		.byte	0x4
 4177 00a5 05       		.byte	0x5
 4178 00a6 696E7400 		.ascii	"int\000"
 4179 00aa 02       		.uleb128 0x2
 4180 00ab 04       		.byte	0x4
 4181 00ac 07       		.byte	0x7
 4182 00ad F6200000 		.4byte	.LASF14
 4183 00b1 03       		.uleb128 0x3
 4184 00b2 48110000 		.4byte	.LASF15
 4185 00b6 03       		.byte	0x3
 4186 00b7 14       		.byte	0x14
 4187 00b8 30000000 		.4byte	0x30
 4188 00bc 05       		.uleb128 0x5
 4189 00bd B1000000 		.4byte	0xb1
 4190 00c1 03       		.uleb128 0x3
 4191 00c2 F50B0000 		.4byte	.LASF16
 4192 00c6 03       		.byte	0x3
 4193 00c7 18       		.byte	0x18
 4194 00c8 3B000000 		.4byte	0x3b
 4195 00cc 05       		.uleb128 0x5
 4196 00cd C1000000 		.4byte	0xc1
 4197 00d1 03       		.uleb128 0x3
 4198 00d2 5A120000 		.4byte	.LASF17
 4199 00d6 03       		.byte	0x3
 4200 00d7 20       		.byte	0x20
 4201 00d8 4D000000 		.4byte	0x4d
 4202 00dc 03       		.uleb128 0x3
 4203 00dd 42010000 		.4byte	.LASF18
 4204 00e1 03       		.byte	0x3
 4205 00e2 24       		.byte	0x24
 4206 00e3 5F000000 		.4byte	0x5f
 4207 00e7 03       		.uleb128 0x3
 4208 00e8 29030000 		.4byte	.LASF19
 4209 00ec 03       		.byte	0x3
 4210 00ed 2C       		.byte	0x2c
 4211 00ee 71000000 		.4byte	0x71
 4212 00f2 03       		.uleb128 0x3
 4213 00f3 86150000 		.4byte	.LASF20
 4214 00f7 03       		.byte	0x3
 4215 00f8 30       		.byte	0x30
 4216 00f9 83000000 		.4byte	0x83
 4217 00fd 05       		.uleb128 0x5
ARM GAS  C:\Users\EBANO_~1\AppData\Local\Temp\cc2nkIni.s 			page 104


 4218 00fe F2000000 		.4byte	0xf2
 4219 0102 06       		.uleb128 0x6
 4220 0103 40130000 		.4byte	.LASF21
 4221 0107 04       		.byte	0x4
 4222 0108 4A       		.byte	0x4a
 4223 0109 F2000000 		.4byte	0xf2
 4224 010d 01       		.byte	0x1
 4225 010e 01       		.byte	0x1
 4226 010f 07       		.uleb128 0x7
 4227 0110 CC000000 		.4byte	0xcc
 4228 0114 1F010000 		.4byte	0x11f
 4229 0118 08       		.uleb128 0x8
 4230 0119 AA000000 		.4byte	0xaa
 4231 011d 0F       		.byte	0xf
 4232 011e 00       		.byte	0
 4233 011f 05       		.uleb128 0x5
 4234 0120 0F010000 		.4byte	0x10f
 4235 0124 06       		.uleb128 0x6
 4236 0125 801F0000 		.4byte	.LASF22
 4237 0129 04       		.byte	0x4
 4238 012a 4D       		.byte	0x4d
 4239 012b 1F010000 		.4byte	0x11f
 4240 012f 01       		.byte	0x1
 4241 0130 01       		.byte	0x1
 4242 0131 07       		.uleb128 0x7
 4243 0132 CC000000 		.4byte	0xcc
 4244 0136 41010000 		.4byte	0x141
 4245 013a 08       		.uleb128 0x8
 4246 013b AA000000 		.4byte	0xaa
 4247 013f 07       		.byte	0x7
 4248 0140 00       		.byte	0
 4249 0141 05       		.uleb128 0x5
 4250 0142 31010000 		.4byte	0x131
 4251 0146 06       		.uleb128 0x6
 4252 0147 FB160000 		.4byte	.LASF23
 4253 014b 04       		.byte	0x4
 4254 014c 4E       		.byte	0x4e
 4255 014d 41010000 		.4byte	0x141
 4256 0151 01       		.byte	0x1
 4257 0152 01       		.byte	0x1
 4258 0153 07       		.uleb128 0x7
 4259 0154 CC000000 		.4byte	0xcc
 4260 0158 63010000 		.4byte	0x163
 4261 015c 08       		.uleb128 0x8
 4262 015d AA000000 		.4byte	0xaa
 4263 0161 08       		.byte	0x8
 4264 0162 00       		.byte	0
 4265 0163 05       		.uleb128 0x5
 4266 0164 53010000 		.4byte	0x153
 4267 0168 06       		.uleb128 0x6
 4268 0169 B1190000 		.4byte	.LASF24
 4269 016d 04       		.byte	0x4
 4270 016e 4F       		.byte	0x4f
 4271 016f 63010000 		.4byte	0x163
 4272 0173 01       		.byte	0x1
 4273 0174 01       		.byte	0x1
 4274 0175 03       		.uleb128 0x3
ARM GAS  C:\Users\EBANO_~1\AppData\Local\Temp\cc2nkIni.s 			page 105


 4275 0176 D70B0000 		.4byte	.LASF25
 4276 017a 05       		.byte	0x5
 4277 017b D8       		.byte	0xd8
 4278 017c AA000000 		.4byte	0xaa
 4279 0180 02       		.uleb128 0x2
 4280 0181 08       		.byte	0x8
 4281 0182 04       		.byte	0x4
 4282 0183 F0150000 		.4byte	.LASF26
 4283 0187 09       		.uleb128 0x9
 4284 0188 04       		.byte	0x4
 4285 0189 03       		.uleb128 0x3
 4286 018a 99050000 		.4byte	.LASF27
 4287 018e 06       		.byte	0x6
 4288 018f 22       		.byte	0x22
 4289 0190 94010000 		.4byte	0x194
 4290 0194 0A       		.uleb128 0xa
 4291 0195 04       		.byte	0x4
 4292 0196 9A010000 		.4byte	0x19a
 4293 019a 0B       		.uleb128 0xb
 4294 019b 9F040000 		.4byte	.LASF134
 4295 019f 01       		.byte	0x1
 4296 01a0 03       		.uleb128 0x3
 4297 01a1 AA0B0000 		.4byte	.LASF28
 4298 01a5 07       		.byte	0x7
 4299 01a6 2C       		.byte	0x2c
 4300 01a7 7C000000 		.4byte	0x7c
 4301 01ab 03       		.uleb128 0x3
 4302 01ac D5190000 		.4byte	.LASF29
 4303 01b0 07       		.byte	0x7
 4304 01b1 72       		.byte	0x72
 4305 01b2 7C000000 		.4byte	0x7c
 4306 01b6 0C       		.uleb128 0xc
 4307 01b7 850D0000 		.4byte	.LASF30
 4308 01bb 05       		.byte	0x5
 4309 01bc 6501     		.2byte	0x165
 4310 01be AA000000 		.4byte	0xaa
 4311 01c2 0D       		.uleb128 0xd
 4312 01c3 04       		.byte	0x4
 4313 01c4 07       		.byte	0x7
 4314 01c5 A6       		.byte	0xa6
 4315 01c6 E1010000 		.4byte	0x1e1
 4316 01ca 0E       		.uleb128 0xe
 4317 01cb D1130000 		.4byte	.LASF31
 4318 01cf 07       		.byte	0x7
 4319 01d0 A8       		.byte	0xa8
 4320 01d1 B6010000 		.4byte	0x1b6
 4321 01d5 0E       		.uleb128 0xe
 4322 01d6 2B0D0000 		.4byte	.LASF32
 4323 01da 07       		.byte	0x7
 4324 01db A9       		.byte	0xa9
 4325 01dc E1010000 		.4byte	0x1e1
 4326 01e0 00       		.byte	0
 4327 01e1 07       		.uleb128 0x7
 4328 01e2 46000000 		.4byte	0x46
 4329 01e6 F1010000 		.4byte	0x1f1
 4330 01ea 08       		.uleb128 0x8
 4331 01eb AA000000 		.4byte	0xaa
ARM GAS  C:\Users\EBANO_~1\AppData\Local\Temp\cc2nkIni.s 			page 106


 4332 01ef 03       		.byte	0x3
 4333 01f0 00       		.byte	0
 4334 01f1 0F       		.uleb128 0xf
 4335 01f2 08       		.byte	0x8
 4336 01f3 07       		.byte	0x7
 4337 01f4 A3       		.byte	0xa3
 4338 01f5 16020000 		.4byte	0x216
 4339 01f9 10       		.uleb128 0x10
 4340 01fa ED0B0000 		.4byte	.LASF33
 4341 01fe 07       		.byte	0x7
 4342 01ff A5       		.byte	0xa5
 4343 0200 A3000000 		.4byte	0xa3
 4344 0204 02       		.byte	0x2
 4345 0205 23       		.byte	0x23
 4346 0206 00       		.uleb128 0
 4347 0207 10       		.uleb128 0x10
 4348 0208 9D1A0000 		.4byte	.LASF34
 4349 020c 07       		.byte	0x7
 4350 020d AA       		.byte	0xaa
 4351 020e C2010000 		.4byte	0x1c2
 4352 0212 02       		.byte	0x2
 4353 0213 23       		.byte	0x23
 4354 0214 04       		.uleb128 0x4
 4355 0215 00       		.byte	0
 4356 0216 03       		.uleb128 0x3
 4357 0217 341A0000 		.4byte	.LASF35
 4358 021b 07       		.byte	0x7
 4359 021c AB       		.byte	0xab
 4360 021d F1010000 		.4byte	0x1f1
 4361 0221 03       		.uleb128 0x3
 4362 0222 281E0000 		.4byte	.LASF36
 4363 0226 07       		.byte	0x7
 4364 0227 AF       		.byte	0xaf
 4365 0228 89010000 		.4byte	0x189
 4366 022c 03       		.uleb128 0x3
 4367 022d A6110000 		.4byte	.LASF37
 4368 0231 08       		.byte	0x8
 4369 0232 16       		.byte	0x16
 4370 0233 8E000000 		.4byte	0x8e
 4371 0237 11       		.uleb128 0x11
 4372 0238 AA170000 		.4byte	.LASF42
 4373 023c 18       		.byte	0x18
 4374 023d 08       		.byte	0x8
 4375 023e 2F       		.byte	0x2f
 4376 023f 96020000 		.4byte	0x296
 4377 0243 10       		.uleb128 0x10
 4378 0244 DF0E0000 		.4byte	.LASF38
 4379 0248 08       		.byte	0x8
 4380 0249 31       		.byte	0x31
 4381 024a 96020000 		.4byte	0x296
 4382 024e 02       		.byte	0x2
 4383 024f 23       		.byte	0x23
 4384 0250 00       		.uleb128 0
 4385 0251 12       		.uleb128 0x12
 4386 0252 5F6B00   		.ascii	"_k\000"
 4387 0255 08       		.byte	0x8
 4388 0256 32       		.byte	0x32
ARM GAS  C:\Users\EBANO_~1\AppData\Local\Temp\cc2nkIni.s 			page 107


 4389 0257 A3000000 		.4byte	0xa3
 4390 025b 02       		.byte	0x2
 4391 025c 23       		.byte	0x23
 4392 025d 04       		.uleb128 0x4
 4393 025e 10       		.uleb128 0x10
 4394 025f CE150000 		.4byte	.LASF39
 4395 0263 08       		.byte	0x8
 4396 0264 32       		.byte	0x32
 4397 0265 A3000000 		.4byte	0xa3
 4398 0269 02       		.byte	0x2
 4399 026a 23       		.byte	0x23
 4400 026b 08       		.uleb128 0x8
 4401 026c 10       		.uleb128 0x10
 4402 026d CF200000 		.4byte	.LASF40
 4403 0271 08       		.byte	0x8
 4404 0272 32       		.byte	0x32
 4405 0273 A3000000 		.4byte	0xa3
 4406 0277 02       		.byte	0x2
 4407 0278 23       		.byte	0x23
 4408 0279 0C       		.uleb128 0xc
 4409 027a 10       		.uleb128 0x10
 4410 027b 96070000 		.4byte	.LASF41
 4411 027f 08       		.byte	0x8
 4412 0280 32       		.byte	0x32
 4413 0281 A3000000 		.4byte	0xa3
 4414 0285 02       		.byte	0x2
 4415 0286 23       		.byte	0x23
 4416 0287 10       		.uleb128 0x10
 4417 0288 12       		.uleb128 0x12
 4418 0289 5F7800   		.ascii	"_x\000"
 4419 028c 08       		.byte	0x8
 4420 028d 33       		.byte	0x33
 4421 028e 9C020000 		.4byte	0x29c
 4422 0292 02       		.byte	0x2
 4423 0293 23       		.byte	0x23
 4424 0294 14       		.uleb128 0x14
 4425 0295 00       		.byte	0
 4426 0296 0A       		.uleb128 0xa
 4427 0297 04       		.byte	0x4
 4428 0298 37020000 		.4byte	0x237
 4429 029c 07       		.uleb128 0x7
 4430 029d 2C020000 		.4byte	0x22c
 4431 02a1 AC020000 		.4byte	0x2ac
 4432 02a5 08       		.uleb128 0x8
 4433 02a6 AA000000 		.4byte	0xaa
 4434 02aa 00       		.byte	0
 4435 02ab 00       		.byte	0
 4436 02ac 11       		.uleb128 0x11
 4437 02ad 46050000 		.4byte	.LASF43
 4438 02b1 24       		.byte	0x24
 4439 02b2 08       		.byte	0x8
 4440 02b3 37       		.byte	0x37
 4441 02b4 37030000 		.4byte	0x337
 4442 02b8 10       		.uleb128 0x10
 4443 02b9 67100000 		.4byte	.LASF44
 4444 02bd 08       		.byte	0x8
 4445 02be 39       		.byte	0x39
ARM GAS  C:\Users\EBANO_~1\AppData\Local\Temp\cc2nkIni.s 			page 108


 4446 02bf A3000000 		.4byte	0xa3
 4447 02c3 02       		.byte	0x2
 4448 02c4 23       		.byte	0x23
 4449 02c5 00       		.uleb128 0
 4450 02c6 10       		.uleb128 0x10
 4451 02c7 DE200000 		.4byte	.LASF45
 4452 02cb 08       		.byte	0x8
 4453 02cc 3A       		.byte	0x3a
 4454 02cd A3000000 		.4byte	0xa3
 4455 02d1 02       		.byte	0x2
 4456 02d2 23       		.byte	0x23
 4457 02d3 04       		.uleb128 0x4
 4458 02d4 10       		.uleb128 0x10
 4459 02d5 410D0000 		.4byte	.LASF46
 4460 02d9 08       		.byte	0x8
 4461 02da 3B       		.byte	0x3b
 4462 02db A3000000 		.4byte	0xa3
 4463 02df 02       		.byte	0x2
 4464 02e0 23       		.byte	0x23
 4465 02e1 08       		.uleb128 0x8
 4466 02e2 10       		.uleb128 0x10
 4467 02e3 410E0000 		.4byte	.LASF47
 4468 02e7 08       		.byte	0x8
 4469 02e8 3C       		.byte	0x3c
 4470 02e9 A3000000 		.4byte	0xa3
 4471 02ed 02       		.byte	0x2
 4472 02ee 23       		.byte	0x23
 4473 02ef 0C       		.uleb128 0xc
 4474 02f0 10       		.uleb128 0x10
 4475 02f1 12010000 		.4byte	.LASF48
 4476 02f5 08       		.byte	0x8
 4477 02f6 3D       		.byte	0x3d
 4478 02f7 A3000000 		.4byte	0xa3
 4479 02fb 02       		.byte	0x2
 4480 02fc 23       		.byte	0x23
 4481 02fd 10       		.uleb128 0x10
 4482 02fe 10       		.uleb128 0x10
 4483 02ff 27090000 		.4byte	.LASF49
 4484 0303 08       		.byte	0x8
 4485 0304 3E       		.byte	0x3e
 4486 0305 A3000000 		.4byte	0xa3
 4487 0309 02       		.byte	0x2
 4488 030a 23       		.byte	0x23
 4489 030b 14       		.uleb128 0x14
 4490 030c 10       		.uleb128 0x10
 4491 030d 04070000 		.4byte	.LASF50
 4492 0311 08       		.byte	0x8
 4493 0312 3F       		.byte	0x3f
 4494 0313 A3000000 		.4byte	0xa3
 4495 0317 02       		.byte	0x2
 4496 0318 23       		.byte	0x23
 4497 0319 18       		.uleb128 0x18
 4498 031a 10       		.uleb128 0x10
 4499 031b 67050000 		.4byte	.LASF51
 4500 031f 08       		.byte	0x8
 4501 0320 40       		.byte	0x40
 4502 0321 A3000000 		.4byte	0xa3
ARM GAS  C:\Users\EBANO_~1\AppData\Local\Temp\cc2nkIni.s 			page 109


 4503 0325 02       		.byte	0x2
 4504 0326 23       		.byte	0x23
 4505 0327 1C       		.uleb128 0x1c
 4506 0328 10       		.uleb128 0x10
 4507 0329 0E070000 		.4byte	.LASF52
 4508 032d 08       		.byte	0x8
 4509 032e 41       		.byte	0x41
 4510 032f A3000000 		.4byte	0xa3
 4511 0333 02       		.byte	0x2
 4512 0334 23       		.byte	0x23
 4513 0335 20       		.uleb128 0x20
 4514 0336 00       		.byte	0
 4515 0337 13       		.uleb128 0x13
 4516 0338 70100000 		.4byte	.LASF53
 4517 033c 0801     		.2byte	0x108
 4518 033e 08       		.byte	0x8
 4519 033f 4A       		.byte	0x4a
 4520 0340 80030000 		.4byte	0x380
 4521 0344 10       		.uleb128 0x10
 4522 0345 4B0E0000 		.4byte	.LASF54
 4523 0349 08       		.byte	0x8
 4524 034a 4B       		.byte	0x4b
 4525 034b 80030000 		.4byte	0x380
 4526 034f 02       		.byte	0x2
 4527 0350 23       		.byte	0x23
 4528 0351 00       		.uleb128 0
 4529 0352 10       		.uleb128 0x10
 4530 0353 E5060000 		.4byte	.LASF55
 4531 0357 08       		.byte	0x8
 4532 0358 4C       		.byte	0x4c
 4533 0359 80030000 		.4byte	0x380
 4534 035d 03       		.byte	0x3
 4535 035e 23       		.byte	0x23
 4536 035f 8001     		.uleb128 0x80
 4537 0361 10       		.uleb128 0x10
 4538 0362 1B010000 		.4byte	.LASF56
 4539 0366 08       		.byte	0x8
 4540 0367 4E       		.byte	0x4e
 4541 0368 2C020000 		.4byte	0x22c
 4542 036c 03       		.byte	0x3
 4543 036d 23       		.byte	0x23
 4544 036e 8002     		.uleb128 0x100
 4545 0370 10       		.uleb128 0x10
 4546 0371 B51A0000 		.4byte	.LASF57
 4547 0375 08       		.byte	0x8
 4548 0376 51       		.byte	0x51
 4549 0377 2C020000 		.4byte	0x22c
 4550 037b 03       		.byte	0x3
 4551 037c 23       		.byte	0x23
 4552 037d 8402     		.uleb128 0x104
 4553 037f 00       		.byte	0
 4554 0380 07       		.uleb128 0x7
 4555 0381 87010000 		.4byte	0x187
 4556 0385 90030000 		.4byte	0x390
 4557 0389 08       		.uleb128 0x8
 4558 038a AA000000 		.4byte	0xaa
 4559 038e 1F       		.byte	0x1f
ARM GAS  C:\Users\EBANO_~1\AppData\Local\Temp\cc2nkIni.s 			page 110


 4560 038f 00       		.byte	0
 4561 0390 13       		.uleb128 0x13
 4562 0391 F8000000 		.4byte	.LASF58
 4563 0395 9001     		.2byte	0x190
 4564 0397 08       		.byte	0x8
 4565 0398 5D       		.byte	0x5d
 4566 0399 D7030000 		.4byte	0x3d7
 4567 039d 10       		.uleb128 0x10
 4568 039e DF0E0000 		.4byte	.LASF38
 4569 03a2 08       		.byte	0x8
 4570 03a3 5E       		.byte	0x5e
 4571 03a4 D7030000 		.4byte	0x3d7
 4572 03a8 02       		.byte	0x2
 4573 03a9 23       		.byte	0x23
 4574 03aa 00       		.uleb128 0
 4575 03ab 10       		.uleb128 0x10
 4576 03ac 29010000 		.4byte	.LASF59
 4577 03b0 08       		.byte	0x8
 4578 03b1 5F       		.byte	0x5f
 4579 03b2 A3000000 		.4byte	0xa3
 4580 03b6 02       		.byte	0x2
 4581 03b7 23       		.byte	0x23
 4582 03b8 04       		.uleb128 0x4
 4583 03b9 10       		.uleb128 0x10
 4584 03ba 1E1A0000 		.4byte	.LASF60
 4585 03be 08       		.byte	0x8
 4586 03bf 61       		.byte	0x61
 4587 03c0 DD030000 		.4byte	0x3dd
 4588 03c4 02       		.byte	0x2
 4589 03c5 23       		.byte	0x23
 4590 03c6 08       		.uleb128 0x8
 4591 03c7 10       		.uleb128 0x10
 4592 03c8 70100000 		.4byte	.LASF53
 4593 03cc 08       		.byte	0x8
 4594 03cd 62       		.byte	0x62
 4595 03ce 37030000 		.4byte	0x337
 4596 03d2 03       		.byte	0x3
 4597 03d3 23       		.byte	0x23
 4598 03d4 8801     		.uleb128 0x88
 4599 03d6 00       		.byte	0
 4600 03d7 0A       		.uleb128 0xa
 4601 03d8 04       		.byte	0x4
 4602 03d9 90030000 		.4byte	0x390
 4603 03dd 07       		.uleb128 0x7
 4604 03de ED030000 		.4byte	0x3ed
 4605 03e2 ED030000 		.4byte	0x3ed
 4606 03e6 08       		.uleb128 0x8
 4607 03e7 AA000000 		.4byte	0xaa
 4608 03eb 1F       		.byte	0x1f
 4609 03ec 00       		.byte	0
 4610 03ed 0A       		.uleb128 0xa
 4611 03ee 04       		.byte	0x4
 4612 03ef F3030000 		.4byte	0x3f3
 4613 03f3 14       		.uleb128 0x14
 4614 03f4 01       		.byte	0x1
 4615 03f5 11       		.uleb128 0x11
 4616 03f6 6C130000 		.4byte	.LASF61
ARM GAS  C:\Users\EBANO_~1\AppData\Local\Temp\cc2nkIni.s 			page 111


 4617 03fa 08       		.byte	0x8
 4618 03fb 08       		.byte	0x8
 4619 03fc 75       		.byte	0x75
 4620 03fd 1E040000 		.4byte	0x41e
 4621 0401 10       		.uleb128 0x10
 4622 0402 F9040000 		.4byte	.LASF62
 4623 0406 08       		.byte	0x8
 4624 0407 76       		.byte	0x76
 4625 0408 1E040000 		.4byte	0x41e
 4626 040c 02       		.byte	0x2
 4627 040d 23       		.byte	0x23
 4628 040e 00       		.uleb128 0
 4629 040f 10       		.uleb128 0x10
 4630 0410 66080000 		.4byte	.LASF63
 4631 0414 08       		.byte	0x8
 4632 0415 77       		.byte	0x77
 4633 0416 A3000000 		.4byte	0xa3
 4634 041a 02       		.byte	0x2
 4635 041b 23       		.byte	0x23
 4636 041c 04       		.uleb128 0x4
 4637 041d 00       		.byte	0
 4638 041e 0A       		.uleb128 0xa
 4639 041f 04       		.byte	0x4
 4640 0420 46000000 		.4byte	0x46
 4641 0424 11       		.uleb128 0x11
 4642 0425 051A0000 		.4byte	.LASF64
 4643 0429 68       		.byte	0x68
 4644 042a 08       		.byte	0x8
 4645 042b B5       		.byte	0xb5
 4646 042c 7E050000 		.4byte	0x57e
 4647 0430 12       		.uleb128 0x12
 4648 0431 5F7000   		.ascii	"_p\000"
 4649 0434 08       		.byte	0x8
 4650 0435 B6       		.byte	0xb6
 4651 0436 1E040000 		.4byte	0x41e
 4652 043a 02       		.byte	0x2
 4653 043b 23       		.byte	0x23
 4654 043c 00       		.uleb128 0
 4655 043d 12       		.uleb128 0x12
 4656 043e 5F7200   		.ascii	"_r\000"
 4657 0441 08       		.byte	0x8
 4658 0442 B7       		.byte	0xb7
 4659 0443 A3000000 		.4byte	0xa3
 4660 0447 02       		.byte	0x2
 4661 0448 23       		.byte	0x23
 4662 0449 04       		.uleb128 0x4
 4663 044a 12       		.uleb128 0x12
 4664 044b 5F7700   		.ascii	"_w\000"
 4665 044e 08       		.byte	0x8
 4666 044f B8       		.byte	0xb8
 4667 0450 A3000000 		.4byte	0xa3
 4668 0454 02       		.byte	0x2
 4669 0455 23       		.byte	0x23
 4670 0456 08       		.uleb128 0x8
 4671 0457 10       		.uleb128 0x10
 4672 0458 78010000 		.4byte	.LASF65
 4673 045c 08       		.byte	0x8
ARM GAS  C:\Users\EBANO_~1\AppData\Local\Temp\cc2nkIni.s 			page 112


 4674 045d B9       		.byte	0xb9
 4675 045e 58000000 		.4byte	0x58
 4676 0462 02       		.byte	0x2
 4677 0463 23       		.byte	0x23
 4678 0464 0C       		.uleb128 0xc
 4679 0465 10       		.uleb128 0x10
 4680 0466 F0190000 		.4byte	.LASF66
 4681 046a 08       		.byte	0x8
 4682 046b BA       		.byte	0xba
 4683 046c 58000000 		.4byte	0x58
 4684 0470 02       		.byte	0x2
 4685 0471 23       		.byte	0x23
 4686 0472 0E       		.uleb128 0xe
 4687 0473 12       		.uleb128 0x12
 4688 0474 5F626600 		.ascii	"_bf\000"
 4689 0478 08       		.byte	0x8
 4690 0479 BB       		.byte	0xbb
 4691 047a F5030000 		.4byte	0x3f5
 4692 047e 02       		.byte	0x2
 4693 047f 23       		.byte	0x23
 4694 0480 10       		.uleb128 0x10
 4695 0481 10       		.uleb128 0x10
 4696 0482 AE030000 		.4byte	.LASF67
 4697 0486 08       		.byte	0x8
 4698 0487 BC       		.byte	0xbc
 4699 0488 A3000000 		.4byte	0xa3
 4700 048c 02       		.byte	0x2
 4701 048d 23       		.byte	0x23
 4702 048e 18       		.uleb128 0x18
 4703 048f 10       		.uleb128 0x10
 4704 0490 180F0000 		.4byte	.LASF68
 4705 0494 08       		.byte	0x8
 4706 0495 C3       		.byte	0xc3
 4707 0496 87010000 		.4byte	0x187
 4708 049a 02       		.byte	0x2
 4709 049b 23       		.byte	0x23
 4710 049c 1C       		.uleb128 0x1c
 4711 049d 10       		.uleb128 0x10
 4712 049e A3210000 		.4byte	.LASF69
 4713 04a2 08       		.byte	0x8
 4714 04a3 C5       		.byte	0xc5
 4715 04a4 18070000 		.4byte	0x718
 4716 04a8 02       		.byte	0x2
 4717 04a9 23       		.byte	0x23
 4718 04aa 20       		.uleb128 0x20
 4719 04ab 10       		.uleb128 0x10
 4720 04ac 88080000 		.4byte	.LASF70
 4721 04b0 08       		.byte	0x8
 4722 04b1 C7       		.byte	0xc7
 4723 04b2 43070000 		.4byte	0x743
 4724 04b6 02       		.byte	0x2
 4725 04b7 23       		.byte	0x23
 4726 04b8 24       		.uleb128 0x24
 4727 04b9 10       		.uleb128 0x10
 4728 04ba 30120000 		.4byte	.LASF71
 4729 04be 08       		.byte	0x8
 4730 04bf CA       		.byte	0xca
ARM GAS  C:\Users\EBANO_~1\AppData\Local\Temp\cc2nkIni.s 			page 113


 4731 04c0 68070000 		.4byte	0x768
 4732 04c4 02       		.byte	0x2
 4733 04c5 23       		.byte	0x23
 4734 04c6 28       		.uleb128 0x28
 4735 04c7 10       		.uleb128 0x10
 4736 04c8 96160000 		.4byte	.LASF72
 4737 04cc 08       		.byte	0x8
 4738 04cd CB       		.byte	0xcb
 4739 04ce 83070000 		.4byte	0x783
 4740 04d2 02       		.byte	0x2
 4741 04d3 23       		.byte	0x23
 4742 04d4 2C       		.uleb128 0x2c
 4743 04d5 12       		.uleb128 0x12
 4744 04d6 5F756200 		.ascii	"_ub\000"
 4745 04da 08       		.byte	0x8
 4746 04db CE       		.byte	0xce
 4747 04dc F5030000 		.4byte	0x3f5
 4748 04e0 02       		.byte	0x2
 4749 04e1 23       		.byte	0x23
 4750 04e2 30       		.uleb128 0x30
 4751 04e3 12       		.uleb128 0x12
 4752 04e4 5F757000 		.ascii	"_up\000"
 4753 04e8 08       		.byte	0x8
 4754 04e9 CF       		.byte	0xcf
 4755 04ea 1E040000 		.4byte	0x41e
 4756 04ee 02       		.byte	0x2
 4757 04ef 23       		.byte	0x23
 4758 04f0 38       		.uleb128 0x38
 4759 04f1 12       		.uleb128 0x12
 4760 04f2 5F757200 		.ascii	"_ur\000"
 4761 04f6 08       		.byte	0x8
 4762 04f7 D0       		.byte	0xd0
 4763 04f8 A3000000 		.4byte	0xa3
 4764 04fc 02       		.byte	0x2
 4765 04fd 23       		.byte	0x23
 4766 04fe 3C       		.uleb128 0x3c
 4767 04ff 10       		.uleb128 0x10
 4768 0500 0B190000 		.4byte	.LASF73
 4769 0504 08       		.byte	0x8
 4770 0505 D3       		.byte	0xd3
 4771 0506 89070000 		.4byte	0x789
 4772 050a 02       		.byte	0x2
 4773 050b 23       		.byte	0x23
 4774 050c 40       		.uleb128 0x40
 4775 050d 10       		.uleb128 0x10
 4776 050e 2C020000 		.4byte	.LASF74
 4777 0512 08       		.byte	0x8
 4778 0513 D4       		.byte	0xd4
 4779 0514 99070000 		.4byte	0x799
 4780 0518 02       		.byte	0x2
 4781 0519 23       		.byte	0x23
 4782 051a 43       		.uleb128 0x43
 4783 051b 12       		.uleb128 0x12
 4784 051c 5F6C6200 		.ascii	"_lb\000"
 4785 0520 08       		.byte	0x8
 4786 0521 D7       		.byte	0xd7
 4787 0522 F5030000 		.4byte	0x3f5
ARM GAS  C:\Users\EBANO_~1\AppData\Local\Temp\cc2nkIni.s 			page 114


 4788 0526 02       		.byte	0x2
 4789 0527 23       		.byte	0x23
 4790 0528 44       		.uleb128 0x44
 4791 0529 10       		.uleb128 0x10
 4792 052a F3180000 		.4byte	.LASF75
 4793 052e 08       		.byte	0x8
 4794 052f DA       		.byte	0xda
 4795 0530 A3000000 		.4byte	0xa3
 4796 0534 02       		.byte	0x2
 4797 0535 23       		.byte	0x23
 4798 0536 4C       		.uleb128 0x4c
 4799 0537 10       		.uleb128 0x10
 4800 0538 38130000 		.4byte	.LASF76
 4801 053c 08       		.byte	0x8
 4802 053d DB       		.byte	0xdb
 4803 053e A0010000 		.4byte	0x1a0
 4804 0542 02       		.byte	0x2
 4805 0543 23       		.byte	0x23
 4806 0544 50       		.uleb128 0x50
 4807 0545 10       		.uleb128 0x10
 4808 0546 10040000 		.4byte	.LASF77
 4809 054a 08       		.byte	0x8
 4810 054b DE       		.byte	0xde
 4811 054c 9D050000 		.4byte	0x59d
 4812 0550 02       		.byte	0x2
 4813 0551 23       		.byte	0x23
 4814 0552 54       		.uleb128 0x54
 4815 0553 10       		.uleb128 0x10
 4816 0554 26020000 		.4byte	.LASF78
 4817 0558 08       		.byte	0x8
 4818 0559 E2       		.byte	0xe2
 4819 055a 21020000 		.4byte	0x221
 4820 055e 02       		.byte	0x2
 4821 055f 23       		.byte	0x23
 4822 0560 58       		.uleb128 0x58
 4823 0561 10       		.uleb128 0x10
 4824 0562 E3000000 		.4byte	.LASF79
 4825 0566 08       		.byte	0x8
 4826 0567 E4       		.byte	0xe4
 4827 0568 16020000 		.4byte	0x216
 4828 056c 02       		.byte	0x2
 4829 056d 23       		.byte	0x23
 4830 056e 5C       		.uleb128 0x5c
 4831 056f 10       		.uleb128 0x10
 4832 0570 1A1F0000 		.4byte	.LASF80
 4833 0574 08       		.byte	0x8
 4834 0575 E5       		.byte	0xe5
 4835 0576 A3000000 		.4byte	0xa3
 4836 057a 02       		.byte	0x2
 4837 057b 23       		.byte	0x23
 4838 057c 64       		.uleb128 0x64
 4839 057d 00       		.byte	0
 4840 057e 15       		.uleb128 0x15
 4841 057f 01       		.byte	0x1
 4842 0580 A3000000 		.4byte	0xa3
 4843 0584 9D050000 		.4byte	0x59d
 4844 0588 16       		.uleb128 0x16
ARM GAS  C:\Users\EBANO_~1\AppData\Local\Temp\cc2nkIni.s 			page 115


 4845 0589 9D050000 		.4byte	0x59d
 4846 058d 16       		.uleb128 0x16
 4847 058e 87010000 		.4byte	0x187
 4848 0592 16       		.uleb128 0x16
 4849 0593 06070000 		.4byte	0x706
 4850 0597 16       		.uleb128 0x16
 4851 0598 A3000000 		.4byte	0xa3
 4852 059c 00       		.byte	0
 4853 059d 0A       		.uleb128 0xa
 4854 059e 04       		.byte	0x4
 4855 059f A8050000 		.4byte	0x5a8
 4856 05a3 05       		.uleb128 0x5
 4857 05a4 9D050000 		.4byte	0x59d
 4858 05a8 17       		.uleb128 0x17
 4859 05a9 A6040000 		.4byte	.LASF81
 4860 05ad 2804     		.2byte	0x428
 4861 05af 08       		.byte	0x8
 4862 05b0 6002     		.2byte	0x260
 4863 05b2 06070000 		.4byte	0x706
 4864 05b6 18       		.uleb128 0x18
 4865 05b7 1E0E0000 		.4byte	.LASF82
 4866 05bb 08       		.byte	0x8
 4867 05bc 6202     		.2byte	0x262
 4868 05be A3000000 		.4byte	0xa3
 4869 05c2 02       		.byte	0x2
 4870 05c3 23       		.byte	0x23
 4871 05c4 00       		.uleb128 0
 4872 05c5 18       		.uleb128 0x18
 4873 05c6 1B0B0000 		.4byte	.LASF83
 4874 05ca 08       		.byte	0x8
 4875 05cb 6702     		.2byte	0x267
 4876 05cd F6070000 		.4byte	0x7f6
 4877 05d1 02       		.byte	0x2
 4878 05d2 23       		.byte	0x23
 4879 05d3 04       		.uleb128 0x4
 4880 05d4 18       		.uleb128 0x18
 4881 05d5 6C070000 		.4byte	.LASF84
 4882 05d9 08       		.byte	0x8
 4883 05da 6702     		.2byte	0x267
 4884 05dc F6070000 		.4byte	0x7f6
 4885 05e0 02       		.byte	0x2
 4886 05e1 23       		.byte	0x23
 4887 05e2 08       		.uleb128 0x8
 4888 05e3 18       		.uleb128 0x18
 4889 05e4 C6060000 		.4byte	.LASF85
 4890 05e8 08       		.byte	0x8
 4891 05e9 6702     		.2byte	0x267
 4892 05eb F6070000 		.4byte	0x7f6
 4893 05ef 02       		.byte	0x2
 4894 05f0 23       		.byte	0x23
 4895 05f1 0C       		.uleb128 0xc
 4896 05f2 18       		.uleb128 0x18
 4897 05f3 24010000 		.4byte	.LASF86
 4898 05f7 08       		.byte	0x8
 4899 05f8 6902     		.2byte	0x269
 4900 05fa A3000000 		.4byte	0xa3
 4901 05fe 02       		.byte	0x2
ARM GAS  C:\Users\EBANO_~1\AppData\Local\Temp\cc2nkIni.s 			page 116


 4902 05ff 23       		.byte	0x23
 4903 0600 10       		.uleb128 0x10
 4904 0601 18       		.uleb128 0x18
 4905 0602 33150000 		.4byte	.LASF87
 4906 0606 08       		.byte	0x8
 4907 0607 6A02     		.2byte	0x26a
 4908 0609 110A0000 		.4byte	0xa11
 4909 060d 02       		.byte	0x2
 4910 060e 23       		.byte	0x23
 4911 060f 14       		.uleb128 0x14
 4912 0610 18       		.uleb128 0x18
 4913 0611 891D0000 		.4byte	.LASF88
 4914 0615 08       		.byte	0x8
 4915 0616 6D02     		.2byte	0x26d
 4916 0618 A3000000 		.4byte	0xa3
 4917 061c 02       		.byte	0x2
 4918 061d 23       		.byte	0x23
 4919 061e 30       		.uleb128 0x30
 4920 061f 18       		.uleb128 0x18
 4921 0620 451F0000 		.4byte	.LASF89
 4922 0624 08       		.byte	0x8
 4923 0625 6E02     		.2byte	0x26e
 4924 0627 270A0000 		.4byte	0xa27
 4925 062b 02       		.byte	0x2
 4926 062c 23       		.byte	0x23
 4927 062d 34       		.uleb128 0x34
 4928 062e 18       		.uleb128 0x18
 4929 062f D91D0000 		.4byte	.LASF90
 4930 0633 08       		.byte	0x8
 4931 0634 7002     		.2byte	0x270
 4932 0636 A3000000 		.4byte	0xa3
 4933 063a 02       		.byte	0x2
 4934 063b 23       		.byte	0x23
 4935 063c 38       		.uleb128 0x38
 4936 063d 18       		.uleb128 0x18
 4937 063e 79190000 		.4byte	.LASF91
 4938 0642 08       		.byte	0x8
 4939 0643 7202     		.2byte	0x272
 4940 0645 390A0000 		.4byte	0xa39
 4941 0649 02       		.byte	0x2
 4942 064a 23       		.byte	0x23
 4943 064b 3C       		.uleb128 0x3c
 4944 064c 18       		.uleb128 0x18
 4945 064d CE060000 		.4byte	.LASF92
 4946 0651 08       		.byte	0x8
 4947 0652 7502     		.2byte	0x275
 4948 0654 96020000 		.4byte	0x296
 4949 0658 02       		.byte	0x2
 4950 0659 23       		.byte	0x23
 4951 065a 40       		.uleb128 0x40
 4952 065b 18       		.uleb128 0x18
 4953 065c BC060000 		.4byte	.LASF93
 4954 0660 08       		.byte	0x8
 4955 0661 7602     		.2byte	0x276
 4956 0663 A3000000 		.4byte	0xa3
 4957 0667 02       		.byte	0x2
 4958 0668 23       		.byte	0x23
ARM GAS  C:\Users\EBANO_~1\AppData\Local\Temp\cc2nkIni.s 			page 117


 4959 0669 44       		.uleb128 0x44
 4960 066a 18       		.uleb128 0x18
 4961 066b EF1A0000 		.4byte	.LASF94
 4962 066f 08       		.byte	0x8
 4963 0670 7702     		.2byte	0x277
 4964 0672 96020000 		.4byte	0x296
 4965 0676 02       		.byte	0x2
 4966 0677 23       		.byte	0x23
 4967 0678 48       		.uleb128 0x48
 4968 0679 18       		.uleb128 0x18
 4969 067a 1E130000 		.4byte	.LASF95
 4970 067e 08       		.byte	0x8
 4971 067f 7802     		.2byte	0x278
 4972 0681 3F0A0000 		.4byte	0xa3f
 4973 0685 02       		.byte	0x2
 4974 0686 23       		.byte	0x23
 4975 0687 4C       		.uleb128 0x4c
 4976 0688 18       		.uleb128 0x18
 4977 0689 94010000 		.4byte	.LASF96
 4978 068d 08       		.byte	0x8
 4979 068e 7B02     		.2byte	0x27b
 4980 0690 A3000000 		.4byte	0xa3
 4981 0694 02       		.byte	0x2
 4982 0695 23       		.byte	0x23
 4983 0696 50       		.uleb128 0x50
 4984 0697 18       		.uleb128 0x18
 4985 0698 9E0C0000 		.4byte	.LASF97
 4986 069c 08       		.byte	0x8
 4987 069d 7C02     		.2byte	0x27c
 4988 069f 06070000 		.4byte	0x706
 4989 06a3 02       		.byte	0x2
 4990 06a4 23       		.byte	0x23
 4991 06a5 54       		.uleb128 0x54
 4992 06a6 18       		.uleb128 0x18
 4993 06a7 8C0D0000 		.4byte	.LASF98
 4994 06ab 08       		.byte	0x8
 4995 06ac 9F02     		.2byte	0x29f
 4996 06ae EF090000 		.4byte	0x9ef
 4997 06b2 02       		.byte	0x2
 4998 06b3 23       		.byte	0x23
 4999 06b4 58       		.uleb128 0x58
 5000 06b5 18       		.uleb128 0x18
 5001 06b6 F8000000 		.4byte	.LASF58
 5002 06ba 08       		.byte	0x8
 5003 06bb A302     		.2byte	0x2a3
 5004 06bd D7030000 		.4byte	0x3d7
 5005 06c1 03       		.byte	0x3
 5006 06c2 23       		.byte	0x23
 5007 06c3 C802     		.uleb128 0x148
 5008 06c5 18       		.uleb128 0x18
 5009 06c6 F7170000 		.4byte	.LASF99
 5010 06ca 08       		.byte	0x8
 5011 06cb A402     		.2byte	0x2a4
 5012 06cd 90030000 		.4byte	0x390
 5013 06d1 03       		.byte	0x3
 5014 06d2 23       		.byte	0x23
 5015 06d3 CC02     		.uleb128 0x14c
ARM GAS  C:\Users\EBANO_~1\AppData\Local\Temp\cc2nkIni.s 			page 118


 5016 06d5 18       		.uleb128 0x18
 5017 06d6 EA010000 		.4byte	.LASF100
 5018 06da 08       		.byte	0x8
 5019 06db A802     		.2byte	0x2a8
 5020 06dd 510A0000 		.4byte	0xa51
 5021 06e1 03       		.byte	0x3
 5022 06e2 23       		.byte	0x23
 5023 06e3 DC05     		.uleb128 0x2dc
 5024 06e5 18       		.uleb128 0x18
 5025 06e6 49190000 		.4byte	.LASF101
 5026 06ea 08       		.byte	0x8
 5027 06eb AD02     		.2byte	0x2ad
 5028 06ed B5070000 		.4byte	0x7b5
 5029 06f1 03       		.byte	0x3
 5030 06f2 23       		.byte	0x23
 5031 06f3 E005     		.uleb128 0x2e0
 5032 06f5 18       		.uleb128 0x18
 5033 06f6 F4040000 		.4byte	.LASF102
 5034 06fa 08       		.byte	0x8
 5035 06fb AF02     		.2byte	0x2af
 5036 06fd 5D0A0000 		.4byte	0xa5d
 5037 0701 03       		.byte	0x3
 5038 0702 23       		.byte	0x23
 5039 0703 EC05     		.uleb128 0x2ec
 5040 0705 00       		.byte	0
 5041 0706 0A       		.uleb128 0xa
 5042 0707 04       		.byte	0x4
 5043 0708 0C070000 		.4byte	0x70c
 5044 070c 02       		.uleb128 0x2
 5045 070d 01       		.byte	0x1
 5046 070e 08       		.byte	0x8
 5047 070f AE160000 		.4byte	.LASF103
 5048 0713 05       		.uleb128 0x5
 5049 0714 0C070000 		.4byte	0x70c
 5050 0718 0A       		.uleb128 0xa
 5051 0719 04       		.byte	0x4
 5052 071a 7E050000 		.4byte	0x57e
 5053 071e 15       		.uleb128 0x15
 5054 071f 01       		.byte	0x1
 5055 0720 A3000000 		.4byte	0xa3
 5056 0724 3D070000 		.4byte	0x73d
 5057 0728 16       		.uleb128 0x16
 5058 0729 9D050000 		.4byte	0x59d
 5059 072d 16       		.uleb128 0x16
 5060 072e 87010000 		.4byte	0x187
 5061 0732 16       		.uleb128 0x16
 5062 0733 3D070000 		.4byte	0x73d
 5063 0737 16       		.uleb128 0x16
 5064 0738 A3000000 		.4byte	0xa3
 5065 073c 00       		.byte	0
 5066 073d 0A       		.uleb128 0xa
 5067 073e 04       		.byte	0x4
 5068 073f 13070000 		.4byte	0x713
 5069 0743 0A       		.uleb128 0xa
 5070 0744 04       		.byte	0x4
 5071 0745 1E070000 		.4byte	0x71e
 5072 0749 15       		.uleb128 0x15
ARM GAS  C:\Users\EBANO_~1\AppData\Local\Temp\cc2nkIni.s 			page 119


 5073 074a 01       		.byte	0x1
 5074 074b AB010000 		.4byte	0x1ab
 5075 074f 68070000 		.4byte	0x768
 5076 0753 16       		.uleb128 0x16
 5077 0754 9D050000 		.4byte	0x59d
 5078 0758 16       		.uleb128 0x16
 5079 0759 87010000 		.4byte	0x187
 5080 075d 16       		.uleb128 0x16
 5081 075e AB010000 		.4byte	0x1ab
 5082 0762 16       		.uleb128 0x16
 5083 0763 A3000000 		.4byte	0xa3
 5084 0767 00       		.byte	0
 5085 0768 0A       		.uleb128 0xa
 5086 0769 04       		.byte	0x4
 5087 076a 49070000 		.4byte	0x749
 5088 076e 15       		.uleb128 0x15
 5089 076f 01       		.byte	0x1
 5090 0770 A3000000 		.4byte	0xa3
 5091 0774 83070000 		.4byte	0x783
 5092 0778 16       		.uleb128 0x16
 5093 0779 9D050000 		.4byte	0x59d
 5094 077d 16       		.uleb128 0x16
 5095 077e 87010000 		.4byte	0x187
 5096 0782 00       		.byte	0
 5097 0783 0A       		.uleb128 0xa
 5098 0784 04       		.byte	0x4
 5099 0785 6E070000 		.4byte	0x76e
 5100 0789 07       		.uleb128 0x7
 5101 078a 46000000 		.4byte	0x46
 5102 078e 99070000 		.4byte	0x799
 5103 0792 08       		.uleb128 0x8
 5104 0793 AA000000 		.4byte	0xaa
 5105 0797 02       		.byte	0x2
 5106 0798 00       		.byte	0
 5107 0799 07       		.uleb128 0x7
 5108 079a 46000000 		.4byte	0x46
 5109 079e A9070000 		.4byte	0x7a9
 5110 07a2 08       		.uleb128 0x8
 5111 07a3 AA000000 		.4byte	0xaa
 5112 07a7 00       		.byte	0
 5113 07a8 00       		.byte	0
 5114 07a9 0C       		.uleb128 0xc
 5115 07aa 70200000 		.4byte	.LASF104
 5116 07ae 08       		.byte	0x8
 5117 07af 1F01     		.2byte	0x11f
 5118 07b1 24040000 		.4byte	0x424
 5119 07b5 19       		.uleb128 0x19
 5120 07b6 CF160000 		.4byte	.LASF105
 5121 07ba 0C       		.byte	0xc
 5122 07bb 08       		.byte	0x8
 5123 07bc 2301     		.2byte	0x123
 5124 07be F0070000 		.4byte	0x7f0
 5125 07c2 18       		.uleb128 0x18
 5126 07c3 DF0E0000 		.4byte	.LASF38
 5127 07c7 08       		.byte	0x8
 5128 07c8 2501     		.2byte	0x125
 5129 07ca F0070000 		.4byte	0x7f0
ARM GAS  C:\Users\EBANO_~1\AppData\Local\Temp\cc2nkIni.s 			page 120


 5130 07ce 02       		.byte	0x2
 5131 07cf 23       		.byte	0x23
 5132 07d0 00       		.uleb128 0
 5133 07d1 18       		.uleb128 0x18
 5134 07d2 AA0D0000 		.4byte	.LASF106
 5135 07d6 08       		.byte	0x8
 5136 07d7 2601     		.2byte	0x126
 5137 07d9 A3000000 		.4byte	0xa3
 5138 07dd 02       		.byte	0x2
 5139 07de 23       		.byte	0x23
 5140 07df 04       		.uleb128 0x4
 5141 07e0 18       		.uleb128 0x18
 5142 07e1 2D150000 		.4byte	.LASF107
 5143 07e5 08       		.byte	0x8
 5144 07e6 2701     		.2byte	0x127
 5145 07e8 F6070000 		.4byte	0x7f6
 5146 07ec 02       		.byte	0x2
 5147 07ed 23       		.byte	0x23
 5148 07ee 08       		.uleb128 0x8
 5149 07ef 00       		.byte	0
 5150 07f0 0A       		.uleb128 0xa
 5151 07f1 04       		.byte	0x4
 5152 07f2 B5070000 		.4byte	0x7b5
 5153 07f6 0A       		.uleb128 0xa
 5154 07f7 04       		.byte	0x4
 5155 07f8 A9070000 		.4byte	0x7a9
 5156 07fc 19       		.uleb128 0x19
 5157 07fd CD210000 		.4byte	.LASF108
 5158 0801 0E       		.byte	0xe
 5159 0802 08       		.byte	0x8
 5160 0803 3F01     		.2byte	0x13f
 5161 0805 37080000 		.4byte	0x837
 5162 0809 18       		.uleb128 0x18
 5163 080a 1E120000 		.4byte	.LASF109
 5164 080e 08       		.byte	0x8
 5165 080f 4001     		.2byte	0x140
 5166 0811 37080000 		.4byte	0x837
 5167 0815 02       		.byte	0x2
 5168 0816 23       		.byte	0x23
 5169 0817 00       		.uleb128 0
 5170 0818 18       		.uleb128 0x18
 5171 0819 480A0000 		.4byte	.LASF110
 5172 081d 08       		.byte	0x8
 5173 081e 4101     		.2byte	0x141
 5174 0820 37080000 		.4byte	0x837
 5175 0824 02       		.byte	0x2
 5176 0825 23       		.byte	0x23
 5177 0826 06       		.uleb128 0x6
 5178 0827 18       		.uleb128 0x18
 5179 0828 31030000 		.4byte	.LASF111
 5180 082c 08       		.byte	0x8
 5181 082d 4201     		.2byte	0x142
 5182 082f 6A000000 		.4byte	0x6a
 5183 0833 02       		.byte	0x2
 5184 0834 23       		.byte	0x23
 5185 0835 0C       		.uleb128 0xc
 5186 0836 00       		.byte	0
ARM GAS  C:\Users\EBANO_~1\AppData\Local\Temp\cc2nkIni.s 			page 121


 5187 0837 07       		.uleb128 0x7
 5188 0838 6A000000 		.4byte	0x6a
 5189 083c 47080000 		.4byte	0x847
 5190 0840 08       		.uleb128 0x8
 5191 0841 AA000000 		.4byte	0xaa
 5192 0845 02       		.byte	0x2
 5193 0846 00       		.byte	0
 5194 0847 1A       		.uleb128 0x1a
 5195 0848 D0       		.byte	0xd0
 5196 0849 08       		.byte	0x8
 5197 084a 8002     		.2byte	0x280
 5198 084c 77090000 		.4byte	0x977
 5199 0850 18       		.uleb128 0x18
 5200 0851 37060000 		.4byte	.LASF112
 5201 0855 08       		.byte	0x8
 5202 0856 8202     		.2byte	0x282
 5203 0858 AA000000 		.4byte	0xaa
 5204 085c 02       		.byte	0x2
 5205 085d 23       		.byte	0x23
 5206 085e 00       		.uleb128 0
 5207 085f 18       		.uleb128 0x18
 5208 0860 F3110000 		.4byte	.LASF113
 5209 0864 08       		.byte	0x8
 5210 0865 8302     		.2byte	0x283
 5211 0867 06070000 		.4byte	0x706
 5212 086b 02       		.byte	0x2
 5213 086c 23       		.byte	0x23
 5214 086d 04       		.uleb128 0x4
 5215 086e 18       		.uleb128 0x18
 5216 086f B8130000 		.4byte	.LASF114
 5217 0873 08       		.byte	0x8
 5218 0874 8402     		.2byte	0x284
 5219 0876 77090000 		.4byte	0x977
 5220 087a 02       		.byte	0x2
 5221 087b 23       		.byte	0x23
 5222 087c 08       		.uleb128 0x8
 5223 087d 18       		.uleb128 0x18
 5224 087e DE0B0000 		.4byte	.LASF115
 5225 0882 08       		.byte	0x8
 5226 0883 8502     		.2byte	0x285
 5227 0885 AC020000 		.4byte	0x2ac
 5228 0889 02       		.byte	0x2
 5229 088a 23       		.byte	0x23
 5230 088b 24       		.uleb128 0x24
 5231 088c 18       		.uleb128 0x18
 5232 088d 761C0000 		.4byte	.LASF116
 5233 0891 08       		.byte	0x8
 5234 0892 8602     		.2byte	0x286
 5235 0894 A3000000 		.4byte	0xa3
 5236 0898 02       		.byte	0x2
 5237 0899 23       		.byte	0x23
 5238 089a 48       		.uleb128 0x48
 5239 089b 18       		.uleb128 0x18
 5240 089c 6E150000 		.4byte	.LASF117
 5241 08a0 08       		.byte	0x8
 5242 08a1 8702     		.2byte	0x287
 5243 08a3 9C000000 		.4byte	0x9c
ARM GAS  C:\Users\EBANO_~1\AppData\Local\Temp\cc2nkIni.s 			page 122


 5244 08a7 02       		.byte	0x2
 5245 08a8 23       		.byte	0x23
 5246 08a9 50       		.uleb128 0x50
 5247 08aa 18       		.uleb128 0x18
 5248 08ab 03210000 		.4byte	.LASF118
 5249 08af 08       		.byte	0x8
 5250 08b0 8802     		.2byte	0x288
 5251 08b2 FC070000 		.4byte	0x7fc
 5252 08b6 02       		.byte	0x2
 5253 08b7 23       		.byte	0x23
 5254 08b8 58       		.uleb128 0x58
 5255 08b9 18       		.uleb128 0x18
 5256 08ba 3C190000 		.4byte	.LASF119
 5257 08be 08       		.byte	0x8
 5258 08bf 8902     		.2byte	0x289
 5259 08c1 16020000 		.4byte	0x216
 5260 08c5 02       		.byte	0x2
 5261 08c6 23       		.byte	0x23
 5262 08c7 68       		.uleb128 0x68
 5263 08c8 18       		.uleb128 0x18
 5264 08c9 05050000 		.4byte	.LASF120
 5265 08cd 08       		.byte	0x8
 5266 08ce 8A02     		.2byte	0x28a
 5267 08d0 16020000 		.4byte	0x216
 5268 08d4 02       		.byte	0x2
 5269 08d5 23       		.byte	0x23
 5270 08d6 70       		.uleb128 0x70
 5271 08d7 18       		.uleb128 0x18
 5272 08d8 CA140000 		.4byte	.LASF121
 5273 08dc 08       		.byte	0x8
 5274 08dd 8B02     		.2byte	0x28b
 5275 08df 16020000 		.4byte	0x216
 5276 08e3 02       		.byte	0x2
 5277 08e4 23       		.byte	0x23
 5278 08e5 78       		.uleb128 0x78
 5279 08e6 18       		.uleb128 0x18
 5280 08e7 73130000 		.4byte	.LASF122
 5281 08eb 08       		.byte	0x8
 5282 08ec 8C02     		.2byte	0x28c
 5283 08ee 87090000 		.4byte	0x987
 5284 08f2 03       		.byte	0x3
 5285 08f3 23       		.byte	0x23
 5286 08f4 8001     		.uleb128 0x80
 5287 08f6 18       		.uleb128 0x18
 5288 08f7 0C0F0000 		.4byte	.LASF123
 5289 08fb 08       		.byte	0x8
 5290 08fc 8D02     		.2byte	0x28d
 5291 08fe 97090000 		.4byte	0x997
 5292 0902 03       		.byte	0x3
 5293 0903 23       		.byte	0x23
 5294 0904 8801     		.uleb128 0x88
 5295 0906 18       		.uleb128 0x18
 5296 0907 32180000 		.4byte	.LASF124
 5297 090b 08       		.byte	0x8
 5298 090c 8E02     		.2byte	0x28e
 5299 090e A3000000 		.4byte	0xa3
 5300 0912 03       		.byte	0x3
ARM GAS  C:\Users\EBANO_~1\AppData\Local\Temp\cc2nkIni.s 			page 123


 5301 0913 23       		.byte	0x23
 5302 0914 A001     		.uleb128 0xa0
 5303 0916 18       		.uleb128 0x18
 5304 0917 990A0000 		.4byte	.LASF125
 5305 091b 08       		.byte	0x8
 5306 091c 8F02     		.2byte	0x28f
 5307 091e 16020000 		.4byte	0x216
 5308 0922 03       		.byte	0x3
 5309 0923 23       		.byte	0x23
 5310 0924 A401     		.uleb128 0xa4
 5311 0926 18       		.uleb128 0x18
 5312 0927 320D0000 		.4byte	.LASF126
 5313 092b 08       		.byte	0x8
 5314 092c 9002     		.2byte	0x290
 5315 092e 16020000 		.4byte	0x216
 5316 0932 03       		.byte	0x3
 5317 0933 23       		.byte	0x23
 5318 0934 AC01     		.uleb128 0xac
 5319 0936 18       		.uleb128 0x18
 5320 0937 85070000 		.4byte	.LASF127
 5321 093b 08       		.byte	0x8
 5322 093c 9102     		.2byte	0x291
 5323 093e 16020000 		.4byte	0x216
 5324 0942 03       		.byte	0x3
 5325 0943 23       		.byte	0x23
 5326 0944 B401     		.uleb128 0xb4
 5327 0946 18       		.uleb128 0x18
 5328 0947 D8100000 		.4byte	.LASF128
 5329 094b 08       		.byte	0x8
 5330 094c 9202     		.2byte	0x292
 5331 094e 16020000 		.4byte	0x216
 5332 0952 03       		.byte	0x3
 5333 0953 23       		.byte	0x23
 5334 0954 BC01     		.uleb128 0xbc
 5335 0956 18       		.uleb128 0x18
 5336 0957 E2130000 		.4byte	.LASF129
 5337 095b 08       		.byte	0x8
 5338 095c 9302     		.2byte	0x293
 5339 095e 16020000 		.4byte	0x216
 5340 0962 03       		.byte	0x3
 5341 0963 23       		.byte	0x23
 5342 0964 C401     		.uleb128 0xc4
 5343 0966 18       		.uleb128 0x18
 5344 0967 3F1A0000 		.4byte	.LASF130
 5345 096b 08       		.byte	0x8
 5346 096c 9402     		.2byte	0x294
 5347 096e A3000000 		.4byte	0xa3
 5348 0972 03       		.byte	0x3
 5349 0973 23       		.byte	0x23
 5350 0974 CC01     		.uleb128 0xcc
 5351 0976 00       		.byte	0
 5352 0977 07       		.uleb128 0x7
 5353 0978 0C070000 		.4byte	0x70c
 5354 097c 87090000 		.4byte	0x987
 5355 0980 08       		.uleb128 0x8
 5356 0981 AA000000 		.4byte	0xaa
 5357 0985 19       		.byte	0x19
ARM GAS  C:\Users\EBANO_~1\AppData\Local\Temp\cc2nkIni.s 			page 124


 5358 0986 00       		.byte	0
 5359 0987 07       		.uleb128 0x7
 5360 0988 0C070000 		.4byte	0x70c
 5361 098c 97090000 		.4byte	0x997
 5362 0990 08       		.uleb128 0x8
 5363 0991 AA000000 		.4byte	0xaa
 5364 0995 07       		.byte	0x7
 5365 0996 00       		.byte	0
 5366 0997 07       		.uleb128 0x7
 5367 0998 0C070000 		.4byte	0x70c
 5368 099c A7090000 		.4byte	0x9a7
 5369 09a0 08       		.uleb128 0x8
 5370 09a1 AA000000 		.4byte	0xaa
 5371 09a5 17       		.byte	0x17
 5372 09a6 00       		.byte	0
 5373 09a7 1A       		.uleb128 0x1a
 5374 09a8 F0       		.byte	0xf0
 5375 09a9 08       		.byte	0x8
 5376 09aa 9902     		.2byte	0x299
 5377 09ac CF090000 		.4byte	0x9cf
 5378 09b0 18       		.uleb128 0x18
 5379 09b1 67150000 		.4byte	.LASF131
 5380 09b5 08       		.byte	0x8
 5381 09b6 9C02     		.2byte	0x29c
 5382 09b8 CF090000 		.4byte	0x9cf
 5383 09bc 02       		.byte	0x2
 5384 09bd 23       		.byte	0x23
 5385 09be 00       		.uleb128 0
 5386 09bf 18       		.uleb128 0x18
 5387 09c0 300B0000 		.4byte	.LASF132
 5388 09c4 08       		.byte	0x8
 5389 09c5 9D02     		.2byte	0x29d
 5390 09c7 DF090000 		.4byte	0x9df
 5391 09cb 02       		.byte	0x2
 5392 09cc 23       		.byte	0x23
 5393 09cd 78       		.uleb128 0x78
 5394 09ce 00       		.byte	0
 5395 09cf 07       		.uleb128 0x7
 5396 09d0 1E040000 		.4byte	0x41e
 5397 09d4 DF090000 		.4byte	0x9df
 5398 09d8 08       		.uleb128 0x8
 5399 09d9 AA000000 		.4byte	0xaa
 5400 09dd 1D       		.byte	0x1d
 5401 09de 00       		.byte	0
 5402 09df 07       		.uleb128 0x7
 5403 09e0 AA000000 		.4byte	0xaa
 5404 09e4 EF090000 		.4byte	0x9ef
 5405 09e8 08       		.uleb128 0x8
 5406 09e9 AA000000 		.4byte	0xaa
 5407 09ed 1D       		.byte	0x1d
 5408 09ee 00       		.byte	0
 5409 09ef 1B       		.uleb128 0x1b
 5410 09f0 F0       		.byte	0xf0
 5411 09f1 08       		.byte	0x8
 5412 09f2 7E02     		.2byte	0x27e
 5413 09f4 110A0000 		.4byte	0xa11
 5414 09f8 1C       		.uleb128 0x1c
ARM GAS  C:\Users\EBANO_~1\AppData\Local\Temp\cc2nkIni.s 			page 125


 5415 09f9 A6040000 		.4byte	.LASF81
 5416 09fd 08       		.byte	0x8
 5417 09fe 9502     		.2byte	0x295
 5418 0a00 47080000 		.4byte	0x847
 5419 0a04 1C       		.uleb128 0x1c
 5420 0a05 32020000 		.4byte	.LASF133
 5421 0a09 08       		.byte	0x8
 5422 0a0a 9E02     		.2byte	0x29e
 5423 0a0c A7090000 		.4byte	0x9a7
 5424 0a10 00       		.byte	0
 5425 0a11 07       		.uleb128 0x7
 5426 0a12 0C070000 		.4byte	0x70c
 5427 0a16 210A0000 		.4byte	0xa21
 5428 0a1a 08       		.uleb128 0x8
 5429 0a1b AA000000 		.4byte	0xaa
 5430 0a1f 18       		.byte	0x18
 5431 0a20 00       		.byte	0
 5432 0a21 0B       		.uleb128 0xb
 5433 0a22 51190000 		.4byte	.LASF135
 5434 0a26 01       		.byte	0x1
 5435 0a27 0A       		.uleb128 0xa
 5436 0a28 04       		.byte	0x4
 5437 0a29 210A0000 		.4byte	0xa21
 5438 0a2d 1D       		.uleb128 0x1d
 5439 0a2e 01       		.byte	0x1
 5440 0a2f 390A0000 		.4byte	0xa39
 5441 0a33 16       		.uleb128 0x16
 5442 0a34 9D050000 		.4byte	0x59d
 5443 0a38 00       		.byte	0
 5444 0a39 0A       		.uleb128 0xa
 5445 0a3a 04       		.byte	0x4
 5446 0a3b 2D0A0000 		.4byte	0xa2d
 5447 0a3f 0A       		.uleb128 0xa
 5448 0a40 04       		.byte	0x4
 5449 0a41 96020000 		.4byte	0x296
 5450 0a45 1D       		.uleb128 0x1d
 5451 0a46 01       		.byte	0x1
 5452 0a47 510A0000 		.4byte	0xa51
 5453 0a4b 16       		.uleb128 0x16
 5454 0a4c A3000000 		.4byte	0xa3
 5455 0a50 00       		.byte	0
 5456 0a51 0A       		.uleb128 0xa
 5457 0a52 04       		.byte	0x4
 5458 0a53 570A0000 		.4byte	0xa57
 5459 0a57 0A       		.uleb128 0xa
 5460 0a58 04       		.byte	0x4
 5461 0a59 450A0000 		.4byte	0xa45
 5462 0a5d 07       		.uleb128 0x7
 5463 0a5e A9070000 		.4byte	0x7a9
 5464 0a62 6D0A0000 		.4byte	0xa6d
 5465 0a66 08       		.uleb128 0x8
 5466 0a67 AA000000 		.4byte	0xaa
 5467 0a6b 02       		.byte	0x2
 5468 0a6c 00       		.byte	0
 5469 0a6d 1E       		.uleb128 0x1e
 5470 0a6e E7180000 		.4byte	.LASF136
 5471 0a72 08       		.byte	0x8
ARM GAS  C:\Users\EBANO_~1\AppData\Local\Temp\cc2nkIni.s 			page 126


 5472 0a73 2E03     		.2byte	0x32e
 5473 0a75 9D050000 		.4byte	0x59d
 5474 0a79 01       		.byte	0x1
 5475 0a7a 01       		.byte	0x1
 5476 0a7b 1E       		.uleb128 0x1e
 5477 0a7c 681D0000 		.4byte	.LASF137
 5478 0a80 08       		.byte	0x8
 5479 0a81 2F03     		.2byte	0x32f
 5480 0a83 A3050000 		.4byte	0x5a3
 5481 0a87 01       		.byte	0x1
 5482 0a88 01       		.byte	0x1
 5483 0a89 0A       		.uleb128 0xa
 5484 0a8a 04       		.byte	0x4
 5485 0a8b C1000000 		.4byte	0xc1
 5486 0a8f 06       		.uleb128 0x6
 5487 0a90 FC150000 		.4byte	.LASF138
 5488 0a94 09       		.byte	0x9
 5489 0a95 63       		.byte	0x63
 5490 0a96 06070000 		.4byte	0x706
 5491 0a9a 01       		.byte	0x1
 5492 0a9b 01       		.byte	0x1
 5493 0a9c 03       		.uleb128 0x3
 5494 0a9d 611B0000 		.4byte	.LASF139
 5495 0aa1 0A       		.byte	0xa
 5496 0aa2 3D       		.byte	0x3d
 5497 0aa3 F2000000 		.4byte	0xf2
 5498 0aa7 11       		.uleb128 0x11
 5499 0aa8 B10B0000 		.4byte	.LASF140
 5500 0aac 04       		.byte	0x4
 5501 0aad 0A       		.byte	0xa
 5502 0aae 5F       		.byte	0x5f
 5503 0aaf EC0A0000 		.4byte	0xaec
 5504 0ab3 12       		.uleb128 0x12
 5505 0ab4 52667500 		.ascii	"Rfu\000"
 5506 0ab8 0A       		.byte	0xa
 5507 0ab9 61       		.byte	0x61
 5508 0aba C1000000 		.4byte	0xc1
 5509 0abe 02       		.byte	0x2
 5510 0abf 23       		.byte	0x23
 5511 0ac0 00       		.uleb128 0
 5512 0ac1 10       		.uleb128 0x10
 5513 0ac2 6F000000 		.4byte	.LASF141
 5514 0ac6 0A       		.byte	0xa
 5515 0ac7 62       		.byte	0x62
 5516 0ac8 C1000000 		.4byte	0xc1
 5517 0acc 02       		.byte	0x2
 5518 0acd 23       		.byte	0x23
 5519 0ace 01       		.uleb128 0x1
 5520 0acf 10       		.uleb128 0x10
 5521 0ad0 C5020000 		.4byte	.LASF142
 5522 0ad4 0A       		.byte	0xa
 5523 0ad5 63       		.byte	0x63
 5524 0ad6 C1000000 		.4byte	0xc1
 5525 0ada 02       		.byte	0x2
 5526 0adb 23       		.byte	0x23
 5527 0adc 02       		.uleb128 0x2
 5528 0add 10       		.uleb128 0x10
ARM GAS  C:\Users\EBANO_~1\AppData\Local\Temp\cc2nkIni.s 			page 127


 5529 0ade 221D0000 		.4byte	.LASF143
 5530 0ae2 0A       		.byte	0xa
 5531 0ae3 64       		.byte	0x64
 5532 0ae4 C1000000 		.4byte	0xc1
 5533 0ae8 02       		.byte	0x2
 5534 0ae9 23       		.byte	0x23
 5535 0aea 03       		.uleb128 0x3
 5536 0aeb 00       		.byte	0
 5537 0aec 1F       		.uleb128 0x1f
 5538 0aed C50B0000 		.4byte	.LASF205
 5539 0af1 04       		.byte	0x4
 5540 0af2 0A       		.byte	0xa
 5541 0af3 5D       		.byte	0x5d
 5542 0af4 0F0B0000 		.4byte	0xb0f
 5543 0af8 0E       		.uleb128 0xe
 5544 0af9 D4110000 		.4byte	.LASF144
 5545 0afd 0A       		.byte	0xa
 5546 0afe 65       		.byte	0x65
 5547 0aff A70A0000 		.4byte	0xaa7
 5548 0b03 0E       		.uleb128 0xe
 5549 0b04 08210000 		.4byte	.LASF145
 5550 0b08 0A       		.byte	0xa
 5551 0b09 66       		.byte	0x66
 5552 0b0a F2000000 		.4byte	0xf2
 5553 0b0e 00       		.byte	0
 5554 0b0f 03       		.uleb128 0x3
 5555 0b10 BB0B0000 		.4byte	.LASF146
 5556 0b14 0A       		.byte	0xa
 5557 0b15 67       		.byte	0x67
 5558 0b16 EC0A0000 		.4byte	0xaec
 5559 0b1a 02       		.uleb128 0x2
 5560 0b1b 01       		.byte	0x1
 5561 0b1c 02       		.byte	0x2
 5562 0b1d DD000000 		.4byte	.LASF147
 5563 0b21 19       		.uleb128 0x19
 5564 0b22 400C0000 		.4byte	.LASF148
 5565 0b26 10       		.byte	0x10
 5566 0b27 0B       		.byte	0xb
 5567 0b28 D301     		.2byte	0x1d3
 5568 0b2a 7A0B0000 		.4byte	0xb7a
 5569 0b2e 18       		.uleb128 0x18
 5570 0b2f 95020000 		.4byte	.LASF149
 5571 0b33 0B       		.byte	0xb
 5572 0b34 D801     		.2byte	0x1d8
 5573 0b36 DC000000 		.4byte	0xdc
 5574 0b3a 02       		.byte	0x2
 5575 0b3b 23       		.byte	0x23
 5576 0b3c 00       		.uleb128 0
 5577 0b3d 18       		.uleb128 0x18
 5578 0b3e 4E030000 		.4byte	.LASF150
 5579 0b42 0B       		.byte	0xb
 5580 0b43 DC01     		.2byte	0x1dc
 5581 0b45 B1000000 		.4byte	0xb1
 5582 0b49 02       		.byte	0x2
 5583 0b4a 23       		.byte	0x23
 5584 0b4b 02       		.uleb128 0x2
 5585 0b4c 18       		.uleb128 0x18
ARM GAS  C:\Users\EBANO_~1\AppData\Local\Temp\cc2nkIni.s 			page 128


 5586 0b4d 851C0000 		.4byte	.LASF151
 5587 0b51 0B       		.byte	0xb
 5588 0b52 E001     		.2byte	0x1e0
 5589 0b54 9C0A0000 		.4byte	0xa9c
 5590 0b58 02       		.byte	0x2
 5591 0b59 23       		.byte	0x23
 5592 0b5a 04       		.uleb128 0x4
 5593 0b5b 18       		.uleb128 0x18
 5594 0b5c 32050000 		.4byte	.LASF152
 5595 0b60 0B       		.byte	0xb
 5596 0b61 E401     		.2byte	0x1e4
 5597 0b63 9C0A0000 		.4byte	0xa9c
 5598 0b67 02       		.byte	0x2
 5599 0b68 23       		.byte	0x23
 5600 0b69 08       		.uleb128 0x8
 5601 0b6a 18       		.uleb128 0x18
 5602 0b6b 56070000 		.4byte	.LASF153
 5603 0b6f 0B       		.byte	0xb
 5604 0b70 E801     		.2byte	0x1e8
 5605 0b72 9C0A0000 		.4byte	0xa9c
 5606 0b76 02       		.byte	0x2
 5607 0b77 23       		.byte	0x23
 5608 0b78 0C       		.uleb128 0xc
 5609 0b79 00       		.byte	0
 5610 0b7a 0C       		.uleb128 0xc
 5611 0b7b F9020000 		.4byte	.LASF154
 5612 0b7f 0B       		.byte	0xb
 5613 0b80 E901     		.2byte	0x1e9
 5614 0b82 210B0000 		.4byte	0xb21
 5615 0b86 06       		.uleb128 0x6
 5616 0b87 091C0000 		.4byte	.LASF155
 5617 0b8b 0C       		.byte	0xc
 5618 0b8c 9A       		.byte	0x9a
 5619 0b8d 7C000000 		.4byte	0x7c
 5620 0b91 01       		.byte	0x1
 5621 0b92 01       		.byte	0x1
 5622 0b93 06       		.uleb128 0x6
 5623 0b94 71040000 		.4byte	.LASF156
 5624 0b98 0C       		.byte	0xc
 5625 0b99 9B       		.byte	0x9b
 5626 0b9a A3000000 		.4byte	0xa3
 5627 0b9e 01       		.byte	0x1
 5628 0b9f 01       		.byte	0x1
 5629 0ba0 07       		.uleb128 0x7
 5630 0ba1 06070000 		.4byte	0x706
 5631 0ba5 B00B0000 		.4byte	0xbb0
 5632 0ba9 08       		.uleb128 0x8
 5633 0baa AA000000 		.4byte	0xaa
 5634 0bae 01       		.byte	0x1
 5635 0baf 00       		.byte	0
 5636 0bb0 06       		.uleb128 0x6
 5637 0bb1 6D0F0000 		.4byte	.LASF157
 5638 0bb5 0C       		.byte	0xc
 5639 0bb6 9E       		.byte	0x9e
 5640 0bb7 A00B0000 		.4byte	0xba0
 5641 0bbb 01       		.byte	0x1
 5642 0bbc 01       		.byte	0x1
ARM GAS  C:\Users\EBANO_~1\AppData\Local\Temp\cc2nkIni.s 			page 129


 5643 0bbd 20       		.uleb128 0x20
 5644 0bbe 07       		.byte	0x7
 5645 0bbf 01       		.byte	0x1
 5646 0bc0 46000000 		.4byte	0x46
 5647 0bc4 0D       		.byte	0xd
 5648 0bc5 21       		.byte	0x21
 5649 0bc6 D70B0000 		.4byte	0xbd7
 5650 0bca 21       		.uleb128 0x21
 5651 0bcb 4B0D0000 		.4byte	.LASF158
 5652 0bcf 00       		.byte	0
 5653 0bd0 21       		.uleb128 0x21
 5654 0bd1 261C0000 		.4byte	.LASF159
 5655 0bd5 01       		.byte	0x1
 5656 0bd6 00       		.byte	0
 5657 0bd7 03       		.uleb128 0x3
 5658 0bd8 DF0D0000 		.4byte	.LASF160
 5659 0bdc 0D       		.byte	0xd
 5660 0bdd 24       		.byte	0x24
 5661 0bde BD0B0000 		.4byte	0xbbd
 5662 0be2 20       		.uleb128 0x20
 5663 0be3 07       		.byte	0x7
 5664 0be4 01       		.byte	0x1
 5665 0be5 46000000 		.4byte	0x46
 5666 0be9 0D       		.byte	0xd
 5667 0bea 2A       		.byte	0x2a
 5668 0beb 080C0000 		.4byte	0xc08
 5669 0bef 21       		.uleb128 0x21
 5670 0bf0 46030000 		.4byte	.LASF161
 5671 0bf4 00       		.byte	0
 5672 0bf5 21       		.uleb128 0x21
 5673 0bf6 BD0F0000 		.4byte	.LASF162
 5674 0bfa 01       		.byte	0x1
 5675 0bfb 21       		.uleb128 0x21
 5676 0bfc FC1A0000 		.4byte	.LASF163
 5677 0c00 02       		.byte	0x2
 5678 0c01 21       		.uleb128 0x21
 5679 0c02 C8160000 		.4byte	.LASF164
 5680 0c06 03       		.byte	0x3
 5681 0c07 00       		.byte	0
 5682 0c08 03       		.uleb128 0x3
 5683 0c09 F7100000 		.4byte	.LASF165
 5684 0c0d 0D       		.byte	0xd
 5685 0c0e 2F       		.byte	0x2f
 5686 0c0f E20B0000 		.4byte	0xbe2
 5687 0c13 0F       		.uleb128 0xf
 5688 0c14 1C       		.byte	0x1c
 5689 0c15 0D       		.byte	0xd
 5690 0c16 34       		.byte	0x34
 5691 0c17 7E0C0000 		.4byte	0xc7e
 5692 0c1b 10       		.uleb128 0x10
 5693 0c1c 07090000 		.4byte	.LASF166
 5694 0c20 0D       		.byte	0xd
 5695 0c21 39       		.byte	0x39
 5696 0c22 ED030000 		.4byte	0x3ed
 5697 0c26 02       		.byte	0x2
 5698 0c27 23       		.byte	0x23
 5699 0c28 00       		.uleb128 0
ARM GAS  C:\Users\EBANO_~1\AppData\Local\Temp\cc2nkIni.s 			page 130


 5700 0c29 10       		.uleb128 0x10
 5701 0c2a 8B020000 		.4byte	.LASF167
 5702 0c2e 0D       		.byte	0xd
 5703 0c2f 3D       		.byte	0x3d
 5704 0c30 ED030000 		.4byte	0x3ed
 5705 0c34 02       		.byte	0x2
 5706 0c35 23       		.byte	0x23
 5707 0c36 04       		.uleb128 0x4
 5708 0c37 10       		.uleb128 0x10
 5709 0c38 140B0000 		.4byte	.LASF168
 5710 0c3c 0D       		.byte	0xd
 5711 0c3d 48       		.byte	0x48
 5712 0c3e 990C0000 		.4byte	0xc99
 5713 0c42 02       		.byte	0x2
 5714 0c43 23       		.byte	0x23
 5715 0c44 08       		.uleb128 0x8
 5716 0c45 10       		.uleb128 0x10
 5717 0c46 72020000 		.4byte	.LASF169
 5718 0c4a 0D       		.byte	0xd
 5719 0c4b 4C       		.byte	0x4c
 5720 0c4c ED030000 		.4byte	0x3ed
 5721 0c50 02       		.byte	0x2
 5722 0c51 23       		.byte	0x23
 5723 0c52 0C       		.uleb128 0xc
 5724 0c53 10       		.uleb128 0x10
 5725 0c54 3A010000 		.4byte	.LASF170
 5726 0c58 0D       		.byte	0xd
 5727 0c59 50       		.byte	0x50
 5728 0c5a ED030000 		.4byte	0x3ed
 5729 0c5e 02       		.byte	0x2
 5730 0c5f 23       		.byte	0x23
 5731 0c60 10       		.uleb128 0x10
 5732 0c61 10       		.uleb128 0x10
 5733 0c62 E50E0000 		.4byte	.LASF171
 5734 0c66 0D       		.byte	0xd
 5735 0c67 56       		.byte	0x56
 5736 0c68 AB0C0000 		.4byte	0xcab
 5737 0c6c 02       		.byte	0x2
 5738 0c6d 23       		.byte	0x23
 5739 0c6e 14       		.uleb128 0x14
 5740 0c6f 10       		.uleb128 0x10
 5741 0c70 3D1F0000 		.4byte	.LASF172
 5742 0c74 0D       		.byte	0xd
 5743 0c75 5D       		.byte	0x5d
 5744 0c76 BD0C0000 		.4byte	0xcbd
 5745 0c7a 02       		.byte	0x2
 5746 0c7b 23       		.byte	0x23
 5747 0c7c 18       		.uleb128 0x18
 5748 0c7d 00       		.byte	0
 5749 0c7e 1D       		.uleb128 0x1d
 5750 0c7f 01       		.byte	0x1
 5751 0c80 990C0000 		.4byte	0xc99
 5752 0c84 16       		.uleb128 0x16
 5753 0c85 890A0000 		.4byte	0xa89
 5754 0c89 16       		.uleb128 0x16
 5755 0c8a DC000000 		.4byte	0xdc
 5756 0c8e 16       		.uleb128 0x16
ARM GAS  C:\Users\EBANO_~1\AppData\Local\Temp\cc2nkIni.s 			page 131


 5757 0c8f D1000000 		.4byte	0xd1
 5758 0c93 16       		.uleb128 0x16
 5759 0c94 B1000000 		.4byte	0xb1
 5760 0c98 00       		.byte	0
 5761 0c99 0A       		.uleb128 0xa
 5762 0c9a 04       		.byte	0x4
 5763 0c9b 7E0C0000 		.4byte	0xc7e
 5764 0c9f 1D       		.uleb128 0x1d
 5765 0ca0 01       		.byte	0x1
 5766 0ca1 AB0C0000 		.4byte	0xcab
 5767 0ca5 16       		.uleb128 0x16
 5768 0ca6 C1000000 		.4byte	0xc1
 5769 0caa 00       		.byte	0
 5770 0cab 0A       		.uleb128 0xa
 5771 0cac 04       		.byte	0x4
 5772 0cad 9F0C0000 		.4byte	0xc9f
 5773 0cb1 1D       		.uleb128 0x1d
 5774 0cb2 01       		.byte	0x1
 5775 0cb3 BD0C0000 		.4byte	0xcbd
 5776 0cb7 16       		.uleb128 0x16
 5777 0cb8 1A0B0000 		.4byte	0xb1a
 5778 0cbc 00       		.byte	0
 5779 0cbd 0A       		.uleb128 0xa
 5780 0cbe 04       		.byte	0x4
 5781 0cbf B10C0000 		.4byte	0xcb1
 5782 0cc3 03       		.uleb128 0x3
 5783 0cc4 791E0000 		.4byte	.LASF173
 5784 0cc8 0D       		.byte	0xd
 5785 0cc9 5E       		.byte	0x5e
 5786 0cca 130C0000 		.4byte	0xc13
 5787 0cce 11       		.uleb128 0x11
 5788 0ccf E0030000 		.4byte	.LASF174
 5789 0cd3 74       		.byte	0x74
 5790 0cd4 0D       		.byte	0xd
 5791 0cd5 63       		.byte	0x63
 5792 0cd6 820E0000 		.4byte	0xe82
 5793 0cda 10       		.uleb128 0x10
 5794 0cdb 17130000 		.4byte	.LASF175
 5795 0cdf 0D       		.byte	0xd
 5796 0ce0 68       		.byte	0x68
 5797 0ce1 ED030000 		.4byte	0x3ed
 5798 0ce5 02       		.byte	0x2
 5799 0ce6 23       		.byte	0x23
 5800 0ce7 00       		.uleb128 0
 5801 0ce8 10       		.uleb128 0x10
 5802 0ce9 AB080000 		.4byte	.LASF176
 5803 0ced 0D       		.byte	0xd
 5804 0cee 6C       		.byte	0x6c
 5805 0cef ED030000 		.4byte	0x3ed
 5806 0cf3 02       		.byte	0x2
 5807 0cf4 23       		.byte	0x23
 5808 0cf5 04       		.uleb128 0x4
 5809 0cf6 10       		.uleb128 0x10
 5810 0cf7 981C0000 		.4byte	.LASF177
 5811 0cfb 0D       		.byte	0xd
 5812 0cfc 73       		.byte	0x73
 5813 0cfd 9D0E0000 		.4byte	0xe9d
ARM GAS  C:\Users\EBANO_~1\AppData\Local\Temp\cc2nkIni.s 			page 132


 5814 0d01 02       		.byte	0x2
 5815 0d02 23       		.byte	0x23
 5816 0d03 08       		.uleb128 0x8
 5817 0d04 10       		.uleb128 0x10
 5818 0d05 11100000 		.4byte	.LASF178
 5819 0d09 0D       		.byte	0xd
 5820 0d0a 79       		.byte	0x79
 5821 0d0b A90E0000 		.4byte	0xea9
 5822 0d0f 02       		.byte	0x2
 5823 0d10 23       		.byte	0x23
 5824 0d11 0C       		.uleb128 0xc
 5825 0d12 10       		.uleb128 0x10
 5826 0d13 B4080000 		.4byte	.LASF179
 5827 0d17 0D       		.byte	0xd
 5828 0d18 7F       		.byte	0x7f
 5829 0d19 BB0E0000 		.4byte	0xebb
 5830 0d1d 02       		.byte	0x2
 5831 0d1e 23       		.byte	0x23
 5832 0d1f 10       		.uleb128 0x10
 5833 0d20 10       		.uleb128 0x10
 5834 0d21 D9170000 		.4byte	.LASF180
 5835 0d25 0D       		.byte	0xd
 5836 0d26 85       		.byte	0x85
 5837 0d27 CD0E0000 		.4byte	0xecd
 5838 0d2b 02       		.byte	0x2
 5839 0d2c 23       		.byte	0x23
 5840 0d2d 14       		.uleb128 0x14
 5841 0d2e 10       		.uleb128 0x10
 5842 0d2f 88160000 		.4byte	.LASF181
 5843 0d33 0D       		.byte	0xd
 5844 0d34 90       		.byte	0x90
 5845 0d35 F20E0000 		.4byte	0xef2
 5846 0d39 02       		.byte	0x2
 5847 0d3a 23       		.byte	0x23
 5848 0d3b 18       		.uleb128 0x18
 5849 0d3c 10       		.uleb128 0x10
 5850 0d3d 440B0000 		.4byte	.LASF182
 5851 0d41 0D       		.byte	0xd
 5852 0d42 9B       		.byte	0x9b
 5853 0d43 FE0E0000 		.4byte	0xefe
 5854 0d47 02       		.byte	0x2
 5855 0d48 23       		.byte	0x23
 5856 0d49 1C       		.uleb128 0x1c
 5857 0d4a 10       		.uleb128 0x10
 5858 0d4b 97210000 		.4byte	.LASF183
 5859 0d4f 0D       		.byte	0xd
 5860 0d50 C3       		.byte	0xc3
 5861 0d51 510F0000 		.4byte	0xf51
 5862 0d55 02       		.byte	0x2
 5863 0d56 23       		.byte	0x23
 5864 0d57 20       		.uleb128 0x20
 5865 0d58 10       		.uleb128 0x10
 5866 0d59 32100000 		.4byte	.LASF184
 5867 0d5d 0D       		.byte	0xd
 5868 0d5e ED       		.byte	0xed
 5869 0d5f 9F0F0000 		.4byte	0xf9f
 5870 0d63 02       		.byte	0x2
ARM GAS  C:\Users\EBANO_~1\AppData\Local\Temp\cc2nkIni.s 			page 133


 5871 0d64 23       		.byte	0x23
 5872 0d65 24       		.uleb128 0x24
 5873 0d66 10       		.uleb128 0x10
 5874 0d67 00120000 		.4byte	.LASF185
 5875 0d6b 0D       		.byte	0xd
 5876 0d6c F8       		.byte	0xf8
 5877 0d6d B50F0000 		.4byte	0xfb5
 5878 0d71 02       		.byte	0x2
 5879 0d72 23       		.byte	0x23
 5880 0d73 28       		.uleb128 0x28
 5881 0d74 18       		.uleb128 0x18
 5882 0d75 62130000 		.4byte	.LASF186
 5883 0d79 0D       		.byte	0xd
 5884 0d7a 0301     		.2byte	0x103
 5885 0d7c D00F0000 		.4byte	0xfd0
 5886 0d80 02       		.byte	0x2
 5887 0d81 23       		.byte	0x23
 5888 0d82 2C       		.uleb128 0x2c
 5889 0d83 18       		.uleb128 0x18
 5890 0d84 011E0000 		.4byte	.LASF187
 5891 0d88 0D       		.byte	0xd
 5892 0d89 0B01     		.2byte	0x10b
 5893 0d8b E70F0000 		.4byte	0xfe7
 5894 0d8f 02       		.byte	0x2
 5895 0d90 23       		.byte	0x23
 5896 0d91 30       		.uleb128 0x30
 5897 0d92 18       		.uleb128 0x18
 5898 0d93 910D0000 		.4byte	.LASF188
 5899 0d97 0D       		.byte	0xd
 5900 0d98 0F01     		.2byte	0x10f
 5901 0d9a ED030000 		.4byte	0x3ed
 5902 0d9e 02       		.byte	0x2
 5903 0d9f 23       		.byte	0x23
 5904 0da0 34       		.uleb128 0x34
 5905 0da1 18       		.uleb128 0x18
 5906 0da2 E0040000 		.4byte	.LASF189
 5907 0da6 0D       		.byte	0xd
 5908 0da7 1301     		.2byte	0x113
 5909 0da9 ED030000 		.4byte	0x3ed
 5910 0dad 02       		.byte	0x2
 5911 0dae 23       		.byte	0x23
 5912 0daf 38       		.uleb128 0x38
 5913 0db0 22       		.uleb128 0x22
 5914 0db1 527800   		.ascii	"Rx\000"
 5915 0db4 0D       		.byte	0xd
 5916 0db5 1901     		.2byte	0x119
 5917 0db7 CD0E0000 		.4byte	0xecd
 5918 0dbb 02       		.byte	0x2
 5919 0dbc 23       		.byte	0x23
 5920 0dbd 3C       		.uleb128 0x3c
 5921 0dbe 18       		.uleb128 0x18
 5922 0dbf 670A0000 		.4byte	.LASF190
 5923 0dc3 0D       		.byte	0xd
 5924 0dc4 1D01     		.2byte	0x11d
 5925 0dc6 ED030000 		.4byte	0x3ed
 5926 0dca 02       		.byte	0x2
 5927 0dcb 23       		.byte	0x23
ARM GAS  C:\Users\EBANO_~1\AppData\Local\Temp\cc2nkIni.s 			page 134


 5928 0dcc 40       		.uleb128 0x40
 5929 0dcd 18       		.uleb128 0x18
 5930 0dce DC150000 		.4byte	.LASF191
 5931 0dd2 0D       		.byte	0xd
 5932 0dd3 2501     		.2byte	0x125
 5933 0dd5 03100000 		.4byte	0x1003
 5934 0dd9 02       		.byte	0x2
 5935 0dda 23       		.byte	0x23
 5936 0ddb 44       		.uleb128 0x44
 5937 0ddc 18       		.uleb128 0x18
 5938 0ddd 211C0000 		.4byte	.LASF192
 5939 0de1 0D       		.byte	0xd
 5940 0de2 2B01     		.2byte	0x12b
 5941 0de4 19100000 		.4byte	0x1019
 5942 0de8 02       		.byte	0x2
 5943 0de9 23       		.byte	0x23
 5944 0dea 48       		.uleb128 0x48
 5945 0deb 18       		.uleb128 0x18
 5946 0dec FF040000 		.4byte	.LASF193
 5947 0df0 0D       		.byte	0xd
 5948 0df1 3201     		.2byte	0x132
 5949 0df3 30100000 		.4byte	0x1030
 5950 0df7 02       		.byte	0x2
 5951 0df8 23       		.byte	0x23
 5952 0df9 4C       		.uleb128 0x4c
 5953 0dfa 18       		.uleb128 0x18
 5954 0dfb 41050000 		.4byte	.LASF194
 5955 0dff 0D       		.byte	0xd
 5956 0e00 3901     		.2byte	0x139
 5957 0e02 46100000 		.4byte	0x1046
 5958 0e06 02       		.byte	0x2
 5959 0e07 23       		.byte	0x23
 5960 0e08 50       		.uleb128 0x50
 5961 0e09 18       		.uleb128 0x18
 5962 0e0a 2E010000 		.4byte	.LASF195
 5963 0e0e 0D       		.byte	0xd
 5964 0e0f 4101     		.2byte	0x141
 5965 0e11 62100000 		.4byte	0x1062
 5966 0e15 02       		.byte	0x2
 5967 0e16 23       		.byte	0x23
 5968 0e17 54       		.uleb128 0x54
 5969 0e18 18       		.uleb128 0x18
 5970 0e19 4B010000 		.4byte	.LASF196
 5971 0e1d 0D       		.byte	0xd
 5972 0e1e 4901     		.2byte	0x149
 5973 0e20 62100000 		.4byte	0x1062
 5974 0e24 02       		.byte	0x2
 5975 0e25 23       		.byte	0x23
 5976 0e26 58       		.uleb128 0x58
 5977 0e27 18       		.uleb128 0x18
 5978 0e28 50040000 		.4byte	.LASF197
 5979 0e2c 0D       		.byte	0xd
 5980 0e2d 5001     		.2byte	0x150
 5981 0e2f 79100000 		.4byte	0x1079
 5982 0e33 02       		.byte	0x2
 5983 0e34 23       		.byte	0x23
 5984 0e35 5C       		.uleb128 0x5c
ARM GAS  C:\Users\EBANO_~1\AppData\Local\Temp\cc2nkIni.s 			page 135


 5985 0e36 18       		.uleb128 0x18
 5986 0e37 9D160000 		.4byte	.LASF198
 5987 0e3b 0D       		.byte	0xd
 5988 0e3c 5801     		.2byte	0x158
 5989 0e3e BD0C0000 		.4byte	0xcbd
 5990 0e42 02       		.byte	0x2
 5991 0e43 23       		.byte	0x23
 5992 0e44 60       		.uleb128 0x60
 5993 0e45 18       		.uleb128 0x18
 5994 0e46 09200000 		.4byte	.LASF199
 5995 0e4a 0D       		.byte	0xd
 5996 0e4b 5E01     		.2byte	0x15e
 5997 0e4d FE0E0000 		.4byte	0xefe
 5998 0e51 02       		.byte	0x2
 5999 0e52 23       		.byte	0x23
 6000 0e53 64       		.uleb128 0x64
 6001 0e54 18       		.uleb128 0x18
 6002 0e55 09170000 		.4byte	.LASF200
 6003 0e59 0D       		.byte	0xd
 6004 0e5a 6201     		.2byte	0x162
 6005 0e5c ED030000 		.4byte	0x3ed
 6006 0e60 02       		.byte	0x2
 6007 0e61 23       		.byte	0x23
 6008 0e62 68       		.uleb128 0x68
 6009 0e63 18       		.uleb128 0x18
 6010 0e64 F9050000 		.4byte	.LASF201
 6011 0e68 0D       		.byte	0xd
 6012 0e69 6E01     		.2byte	0x16e
 6013 0e6b CD0E0000 		.4byte	0xecd
 6014 0e6f 02       		.byte	0x2
 6015 0e70 23       		.byte	0x23
 6016 0e71 6C       		.uleb128 0x6c
 6017 0e72 18       		.uleb128 0x18
 6018 0e73 0D0D0000 		.4byte	.LASF202
 6019 0e77 0D       		.byte	0xd
 6020 0e78 7701     		.2byte	0x177
 6021 0e7a 90100000 		.4byte	0x1090
 6022 0e7e 02       		.byte	0x2
 6023 0e7f 23       		.byte	0x23
 6024 0e80 70       		.uleb128 0x70
 6025 0e81 00       		.byte	0
 6026 0e82 05       		.uleb128 0x5
 6027 0e83 CE0C0000 		.4byte	0xcce
 6028 0e87 15       		.uleb128 0x15
 6029 0e88 01       		.byte	0x1
 6030 0e89 F2000000 		.4byte	0xf2
 6031 0e8d 970E0000 		.4byte	0xe97
 6032 0e91 16       		.uleb128 0x16
 6033 0e92 970E0000 		.4byte	0xe97
 6034 0e96 00       		.byte	0
 6035 0e97 0A       		.uleb128 0xa
 6036 0e98 04       		.byte	0x4
 6037 0e99 C30C0000 		.4byte	0xcc3
 6038 0e9d 0A       		.uleb128 0xa
 6039 0e9e 04       		.byte	0x4
 6040 0e9f 870E0000 		.4byte	0xe87
 6041 0ea3 23       		.uleb128 0x23
ARM GAS  C:\Users\EBANO_~1\AppData\Local\Temp\cc2nkIni.s 			page 136


 6042 0ea4 01       		.byte	0x1
 6043 0ea5 080C0000 		.4byte	0xc08
 6044 0ea9 0A       		.uleb128 0xa
 6045 0eaa 04       		.byte	0x4
 6046 0eab A30E0000 		.4byte	0xea3
 6047 0eaf 1D       		.uleb128 0x1d
 6048 0eb0 01       		.byte	0x1
 6049 0eb1 BB0E0000 		.4byte	0xebb
 6050 0eb5 16       		.uleb128 0x16
 6051 0eb6 D70B0000 		.4byte	0xbd7
 6052 0eba 00       		.byte	0
 6053 0ebb 0A       		.uleb128 0xa
 6054 0ebc 04       		.byte	0x4
 6055 0ebd AF0E0000 		.4byte	0xeaf
 6056 0ec1 1D       		.uleb128 0x1d
 6057 0ec2 01       		.byte	0x1
 6058 0ec3 CD0E0000 		.4byte	0xecd
 6059 0ec7 16       		.uleb128 0x16
 6060 0ec8 F2000000 		.4byte	0xf2
 6061 0ecc 00       		.byte	0
 6062 0ecd 0A       		.uleb128 0xa
 6063 0ece 04       		.byte	0x4
 6064 0ecf C10E0000 		.4byte	0xec1
 6065 0ed3 15       		.uleb128 0x15
 6066 0ed4 01       		.byte	0x1
 6067 0ed5 1A0B0000 		.4byte	0xb1a
 6068 0ed9 F20E0000 		.4byte	0xef2
 6069 0edd 16       		.uleb128 0x16
 6070 0ede D70B0000 		.4byte	0xbd7
 6071 0ee2 16       		.uleb128 0x16
 6072 0ee3 F2000000 		.4byte	0xf2
 6073 0ee7 16       		.uleb128 0x16
 6074 0ee8 D1000000 		.4byte	0xd1
 6075 0eec 16       		.uleb128 0x16
 6076 0eed F2000000 		.4byte	0xf2
 6077 0ef1 00       		.byte	0
 6078 0ef2 0A       		.uleb128 0xa
 6079 0ef3 04       		.byte	0x4
 6080 0ef4 D30E0000 		.4byte	0xed3
 6081 0ef8 23       		.uleb128 0x23
 6082 0ef9 01       		.byte	0x1
 6083 0efa F2000000 		.4byte	0xf2
 6084 0efe 0A       		.uleb128 0xa
 6085 0eff 04       		.byte	0x4
 6086 0f00 F80E0000 		.4byte	0xef8
 6087 0f04 1D       		.uleb128 0x1d
 6088 0f05 01       		.byte	0x1
 6089 0f06 510F0000 		.4byte	0xf51
 6090 0f0a 16       		.uleb128 0x16
 6091 0f0b D70B0000 		.4byte	0xbd7
 6092 0f0f 16       		.uleb128 0x16
 6093 0f10 F2000000 		.4byte	0xf2
 6094 0f14 16       		.uleb128 0x16
 6095 0f15 F2000000 		.4byte	0xf2
 6096 0f19 16       		.uleb128 0x16
 6097 0f1a C1000000 		.4byte	0xc1
 6098 0f1e 16       		.uleb128 0x16
ARM GAS  C:\Users\EBANO_~1\AppData\Local\Temp\cc2nkIni.s 			page 137


 6099 0f1f F2000000 		.4byte	0xf2
 6100 0f23 16       		.uleb128 0x16
 6101 0f24 DC000000 		.4byte	0xdc
 6102 0f28 16       		.uleb128 0x16
 6103 0f29 DC000000 		.4byte	0xdc
 6104 0f2d 16       		.uleb128 0x16
 6105 0f2e 1A0B0000 		.4byte	0xb1a
 6106 0f32 16       		.uleb128 0x16
 6107 0f33 C1000000 		.4byte	0xc1
 6108 0f37 16       		.uleb128 0x16
 6109 0f38 1A0B0000 		.4byte	0xb1a
 6110 0f3c 16       		.uleb128 0x16
 6111 0f3d 1A0B0000 		.4byte	0xb1a
 6112 0f41 16       		.uleb128 0x16
 6113 0f42 C1000000 		.4byte	0xc1
 6114 0f46 16       		.uleb128 0x16
 6115 0f47 1A0B0000 		.4byte	0xb1a
 6116 0f4b 16       		.uleb128 0x16
 6117 0f4c 1A0B0000 		.4byte	0xb1a
 6118 0f50 00       		.byte	0
 6119 0f51 0A       		.uleb128 0xa
 6120 0f52 04       		.byte	0x4
 6121 0f53 040F0000 		.4byte	0xf04
 6122 0f57 1D       		.uleb128 0x1d
 6123 0f58 01       		.byte	0x1
 6124 0f59 9F0F0000 		.4byte	0xf9f
 6125 0f5d 16       		.uleb128 0x16
 6126 0f5e D70B0000 		.4byte	0xbd7
 6127 0f62 16       		.uleb128 0x16
 6128 0f63 B1000000 		.4byte	0xb1
 6129 0f67 16       		.uleb128 0x16
 6130 0f68 F2000000 		.4byte	0xf2
 6131 0f6c 16       		.uleb128 0x16
 6132 0f6d F2000000 		.4byte	0xf2
 6133 0f71 16       		.uleb128 0x16
 6134 0f72 F2000000 		.4byte	0xf2
 6135 0f76 16       		.uleb128 0x16
 6136 0f77 C1000000 		.4byte	0xc1
 6137 0f7b 16       		.uleb128 0x16
 6138 0f7c DC000000 		.4byte	0xdc
 6139 0f80 16       		.uleb128 0x16
 6140 0f81 1A0B0000 		.4byte	0xb1a
 6141 0f85 16       		.uleb128 0x16
 6142 0f86 1A0B0000 		.4byte	0xb1a
 6143 0f8a 16       		.uleb128 0x16
 6144 0f8b 1A0B0000 		.4byte	0xb1a
 6145 0f8f 16       		.uleb128 0x16
 6146 0f90 C1000000 		.4byte	0xc1
 6147 0f94 16       		.uleb128 0x16
 6148 0f95 1A0B0000 		.4byte	0xb1a
 6149 0f99 16       		.uleb128 0x16
 6150 0f9a F2000000 		.4byte	0xf2
 6151 0f9e 00       		.byte	0
 6152 0f9f 0A       		.uleb128 0xa
 6153 0fa0 04       		.byte	0x4
 6154 0fa1 570F0000 		.4byte	0xf57
 6155 0fa5 15       		.uleb128 0x15
ARM GAS  C:\Users\EBANO_~1\AppData\Local\Temp\cc2nkIni.s 			page 138


 6156 0fa6 01       		.byte	0x1
 6157 0fa7 1A0B0000 		.4byte	0xb1a
 6158 0fab B50F0000 		.4byte	0xfb5
 6159 0faf 16       		.uleb128 0x16
 6160 0fb0 F2000000 		.4byte	0xf2
 6161 0fb4 00       		.byte	0
 6162 0fb5 0A       		.uleb128 0xa
 6163 0fb6 04       		.byte	0x4
 6164 0fb7 A50F0000 		.4byte	0xfa5
 6165 0fbb 15       		.uleb128 0x15
 6166 0fbc 01       		.byte	0x1
 6167 0fbd F2000000 		.4byte	0xf2
 6168 0fc1 D00F0000 		.4byte	0xfd0
 6169 0fc5 16       		.uleb128 0x16
 6170 0fc6 D70B0000 		.4byte	0xbd7
 6171 0fca 16       		.uleb128 0x16
 6172 0fcb C1000000 		.4byte	0xc1
 6173 0fcf 00       		.byte	0
 6174 0fd0 0A       		.uleb128 0xa
 6175 0fd1 04       		.byte	0x4
 6176 0fd2 BB0F0000 		.4byte	0xfbb
 6177 0fd6 1D       		.uleb128 0x1d
 6178 0fd7 01       		.byte	0x1
 6179 0fd8 E70F0000 		.4byte	0xfe7
 6180 0fdc 16       		.uleb128 0x16
 6181 0fdd 890A0000 		.4byte	0xa89
 6182 0fe1 16       		.uleb128 0x16
 6183 0fe2 C1000000 		.4byte	0xc1
 6184 0fe6 00       		.byte	0
 6185 0fe7 0A       		.uleb128 0xa
 6186 0fe8 04       		.byte	0x4
 6187 0fe9 D60F0000 		.4byte	0xfd6
 6188 0fed 1D       		.uleb128 0x1d
 6189 0fee 01       		.byte	0x1
 6190 0fef 03100000 		.4byte	0x1003
 6191 0ff3 16       		.uleb128 0x16
 6192 0ff4 F2000000 		.4byte	0xf2
 6193 0ff8 16       		.uleb128 0x16
 6194 0ff9 B1000000 		.4byte	0xb1
 6195 0ffd 16       		.uleb128 0x16
 6196 0ffe DC000000 		.4byte	0xdc
 6197 1002 00       		.byte	0
 6198 1003 0A       		.uleb128 0xa
 6199 1004 04       		.byte	0x4
 6200 1005 ED0F0000 		.4byte	0xfed
 6201 1009 15       		.uleb128 0x15
 6202 100a 01       		.byte	0x1
 6203 100b D1000000 		.4byte	0xd1
 6204 100f 19100000 		.4byte	0x1019
 6205 1013 16       		.uleb128 0x16
 6206 1014 D70B0000 		.4byte	0xbd7
 6207 1018 00       		.byte	0
 6208 1019 0A       		.uleb128 0xa
 6209 101a 04       		.byte	0x4
 6210 101b 09100000 		.4byte	0x1009
 6211 101f 1D       		.uleb128 0x1d
 6212 1020 01       		.byte	0x1
ARM GAS  C:\Users\EBANO_~1\AppData\Local\Temp\cc2nkIni.s 			page 139


 6213 1021 30100000 		.4byte	0x1030
 6214 1025 16       		.uleb128 0x16
 6215 1026 DC000000 		.4byte	0xdc
 6216 102a 16       		.uleb128 0x16
 6217 102b C1000000 		.4byte	0xc1
 6218 102f 00       		.byte	0
 6219 1030 0A       		.uleb128 0xa
 6220 1031 04       		.byte	0x4
 6221 1032 1F100000 		.4byte	0x101f
 6222 1036 15       		.uleb128 0x15
 6223 1037 01       		.byte	0x1
 6224 1038 C1000000 		.4byte	0xc1
 6225 103c 46100000 		.4byte	0x1046
 6226 1040 16       		.uleb128 0x16
 6227 1041 DC000000 		.4byte	0xdc
 6228 1045 00       		.byte	0
 6229 1046 0A       		.uleb128 0xa
 6230 1047 04       		.byte	0x4
 6231 1048 36100000 		.4byte	0x1036
 6232 104c 1D       		.uleb128 0x1d
 6233 104d 01       		.byte	0x1
 6234 104e 62100000 		.4byte	0x1062
 6235 1052 16       		.uleb128 0x16
 6236 1053 DC000000 		.4byte	0xdc
 6237 1057 16       		.uleb128 0x16
 6238 1058 890A0000 		.4byte	0xa89
 6239 105c 16       		.uleb128 0x16
 6240 105d C1000000 		.4byte	0xc1
 6241 1061 00       		.byte	0
 6242 1062 0A       		.uleb128 0xa
 6243 1063 04       		.byte	0x4
 6244 1064 4C100000 		.4byte	0x104c
 6245 1068 1D       		.uleb128 0x1d
 6246 1069 01       		.byte	0x1
 6247 106a 79100000 		.4byte	0x1079
 6248 106e 16       		.uleb128 0x16
 6249 106f D70B0000 		.4byte	0xbd7
 6250 1073 16       		.uleb128 0x16
 6251 1074 C1000000 		.4byte	0xc1
 6252 1078 00       		.byte	0
 6253 1079 0A       		.uleb128 0xa
 6254 107a 04       		.byte	0x4
 6255 107b 68100000 		.4byte	0x1068
 6256 107f 1D       		.uleb128 0x1d
 6257 1080 01       		.byte	0x1
 6258 1081 90100000 		.4byte	0x1090
 6259 1085 16       		.uleb128 0x16
 6260 1086 F2000000 		.4byte	0xf2
 6261 108a 16       		.uleb128 0x16
 6262 108b F2000000 		.4byte	0xf2
 6263 108f 00       		.byte	0
 6264 1090 0A       		.uleb128 0xa
 6265 1091 04       		.byte	0x4
 6266 1092 7F100000 		.4byte	0x107f
 6267 1096 1E       		.uleb128 0x1e
 6268 1097 AA090000 		.4byte	.LASF203
 6269 109b 0D       		.byte	0xd
ARM GAS  C:\Users\EBANO_~1\AppData\Local\Temp\cc2nkIni.s 			page 140


 6270 109c 8001     		.2byte	0x180
 6271 109e 820E0000 		.4byte	0xe82
 6272 10a2 01       		.byte	0x1
 6273 10a3 01       		.byte	0x1
 6274 10a4 11       		.uleb128 0x11
 6275 10a5 DB1F0000 		.4byte	.LASF204
 6276 10a9 01       		.byte	0x1
 6277 10aa 0E       		.byte	0xe
 6278 10ab B4       		.byte	0xb4
 6279 10ac D3100000 		.4byte	0x10d3
 6280 10b0 24       		.uleb128 0x24
 6281 10b1 4D696E00 		.ascii	"Min\000"
 6282 10b5 0E       		.byte	0xe
 6283 10b6 BD       		.byte	0xbd
 6284 10b7 B1000000 		.4byte	0xb1
 6285 10bb 01       		.byte	0x1
 6286 10bc 04       		.byte	0x4
 6287 10bd 04       		.byte	0x4
 6288 10be 02       		.byte	0x2
 6289 10bf 23       		.byte	0x23
 6290 10c0 00       		.uleb128 0
 6291 10c1 24       		.uleb128 0x24
 6292 10c2 4D617800 		.ascii	"Max\000"
 6293 10c6 0E       		.byte	0xe
 6294 10c7 C5       		.byte	0xc5
 6295 10c8 B1000000 		.4byte	0xb1
 6296 10cc 01       		.byte	0x1
 6297 10cd 04       		.byte	0x4
 6298 10ce 00       		.byte	0
 6299 10cf 02       		.byte	0x2
 6300 10d0 23       		.byte	0x23
 6301 10d1 00       		.uleb128 0
 6302 10d2 00       		.byte	0
 6303 10d3 1F       		.uleb128 0x1f
 6304 10d4 31090000 		.4byte	.LASF206
 6305 10d8 01       		.byte	0x1
 6306 10d9 0E       		.byte	0xe
 6307 10da AB       		.byte	0xab
 6308 10db F6100000 		.4byte	0x10f6
 6309 10df 0E       		.uleb128 0xe
 6310 10e0 08210000 		.4byte	.LASF145
 6311 10e4 0E       		.byte	0xe
 6312 10e5 B0       		.byte	0xb0
 6313 10e6 B1000000 		.4byte	0xb1
 6314 10ea 0E       		.uleb128 0xe
 6315 10eb D4110000 		.4byte	.LASF144
 6316 10ef 0E       		.byte	0xe
 6317 10f0 C6       		.byte	0xc6
 6318 10f1 A4100000 		.4byte	0x10a4
 6319 10f5 00       		.byte	0
 6320 10f6 03       		.uleb128 0x3
 6321 10f7 9B070000 		.4byte	.LASF207
 6322 10fb 0E       		.byte	0xe
 6323 10fc C7       		.byte	0xc7
 6324 10fd D3100000 		.4byte	0x10d3
 6325 1101 11       		.uleb128 0x11
 6326 1102 F6190000 		.4byte	.LASF208
ARM GAS  C:\Users\EBANO_~1\AppData\Local\Temp\cc2nkIni.s 			page 141


 6327 1106 0C       		.byte	0xc
 6328 1107 0E       		.byte	0xe
 6329 1108 CC       		.byte	0xcc
 6330 1109 46110000 		.4byte	0x1146
 6331 110d 10       		.uleb128 0x10
 6332 110e 281D0000 		.4byte	.LASF209
 6333 1112 0E       		.byte	0xe
 6334 1113 D1       		.byte	0xd1
 6335 1114 F2000000 		.4byte	0xf2
 6336 1118 02       		.byte	0x2
 6337 1119 23       		.byte	0x23
 6338 111a 00       		.uleb128 0
 6339 111b 10       		.uleb128 0x10
 6340 111c 36120000 		.4byte	.LASF210
 6341 1120 0E       		.byte	0xe
 6342 1121 D5       		.byte	0xd5
 6343 1122 F2000000 		.4byte	0xf2
 6344 1126 02       		.byte	0x2
 6345 1127 23       		.byte	0x23
 6346 1128 04       		.uleb128 0x4
 6347 1129 10       		.uleb128 0x10
 6348 112a A1050000 		.4byte	.LASF211
 6349 112e 0E       		.byte	0xe
 6350 112f D9       		.byte	0xd9
 6351 1130 F6100000 		.4byte	0x10f6
 6352 1134 02       		.byte	0x2
 6353 1135 23       		.byte	0x23
 6354 1136 08       		.uleb128 0x8
 6355 1137 10       		.uleb128 0x10
 6356 1138 3A090000 		.4byte	.LASF212
 6357 113c 0E       		.byte	0xe
 6358 113d DD       		.byte	0xdd
 6359 113e C1000000 		.4byte	0xc1
 6360 1142 02       		.byte	0x2
 6361 1143 23       		.byte	0x23
 6362 1144 09       		.uleb128 0x9
 6363 1145 00       		.byte	0
 6364 1146 03       		.uleb128 0x3
 6365 1147 3E100000 		.4byte	.LASF213
 6366 114b 0E       		.byte	0xe
 6367 114c DE       		.byte	0xde
 6368 114d 01110000 		.4byte	0x1101
 6369 1151 25       		.uleb128 0x25
 6370 1152 8F0C0000 		.4byte	.LASF221
 6371 1156 07       		.byte	0x7
 6372 1157 01       		.byte	0x1
 6373 1158 46000000 		.4byte	0x46
 6374 115c 0E       		.byte	0xe
 6375 115d F6       		.byte	0xf6
 6376 115e 81110000 		.4byte	0x1181
 6377 1162 21       		.uleb128 0x21
 6378 1163 8B190000 		.4byte	.LASF214
 6379 1167 00       		.byte	0
 6380 1168 21       		.uleb128 0x21
 6381 1169 99190000 		.4byte	.LASF215
 6382 116d 01       		.byte	0x1
 6383 116e 21       		.uleb128 0x21
ARM GAS  C:\Users\EBANO_~1\AppData\Local\Temp\cc2nkIni.s 			page 142


 6384 116f 00000000 		.4byte	.LASF216
 6385 1173 02       		.byte	0x2
 6386 1174 21       		.uleb128 0x21
 6387 1175 77200000 		.4byte	.LASF217
 6388 1179 03       		.byte	0x3
 6389 117a 21       		.uleb128 0x21
 6390 117b F20C0000 		.4byte	.LASF218
 6391 117f 04       		.byte	0x4
 6392 1180 00       		.byte	0
 6393 1181 0C       		.uleb128 0xc
 6394 1182 AD0F0000 		.4byte	.LASF219
 6395 1186 0E       		.byte	0xe
 6396 1187 0C01     		.2byte	0x10c
 6397 1189 51110000 		.4byte	0x1151
 6398 118d 02       		.uleb128 0x2
 6399 118e 04       		.byte	0x4
 6400 118f 04       		.byte	0x4
 6401 1190 A5070000 		.4byte	.LASF220
 6402 1194 0A       		.uleb128 0xa
 6403 1195 04       		.byte	0x4
 6404 1196 46110000 		.4byte	0x1146
 6405 119a 0A       		.uleb128 0xa
 6406 119b 04       		.byte	0x4
 6407 119c DC000000 		.4byte	0xdc
 6408 11a0 26       		.uleb128 0x26
 6409 11a1 87040000 		.4byte	.LASF222
 6410 11a5 07       		.byte	0x7
 6411 11a6 01       		.byte	0x1
 6412 11a7 46000000 		.4byte	0x46
 6413 11ab 0E       		.byte	0xe
 6414 11ac 2508     		.2byte	0x825
 6415 11ae 3D120000 		.4byte	0x123d
 6416 11b2 21       		.uleb128 0x21
 6417 11b3 0F180000 		.4byte	.LASF223
 6418 11b7 00       		.byte	0
 6419 11b8 21       		.uleb128 0x21
 6420 11b9 4E100000 		.4byte	.LASF224
 6421 11bd 01       		.byte	0x1
 6422 11be 21       		.uleb128 0x21
 6423 11bf 0E210000 		.4byte	.LASF225
 6424 11c3 02       		.byte	0x2
 6425 11c4 21       		.uleb128 0x21
 6426 11c5 C4080000 		.4byte	.LASF226
 6427 11c9 03       		.byte	0x3
 6428 11ca 21       		.uleb128 0x21
 6429 11cb 56170000 		.4byte	.LASF227
 6430 11cf 04       		.byte	0x4
 6431 11d0 21       		.uleb128 0x21
 6432 11d1 4D1F0000 		.4byte	.LASF228
 6433 11d5 05       		.byte	0x5
 6434 11d6 21       		.uleb128 0x21
 6435 11d7 DA1E0000 		.4byte	.LASF229
 6436 11db 06       		.byte	0x6
 6437 11dc 21       		.uleb128 0x21
 6438 11dd 9C010000 		.4byte	.LASF230
 6439 11e1 07       		.byte	0x7
 6440 11e2 21       		.uleb128 0x21
ARM GAS  C:\Users\EBANO_~1\AppData\Local\Temp\cc2nkIni.s 			page 143


 6441 11e3 3A070000 		.4byte	.LASF231
 6442 11e7 08       		.byte	0x8
 6443 11e8 21       		.uleb128 0x21
 6444 11e9 890F0000 		.4byte	.LASF232
 6445 11ed 09       		.byte	0x9
 6446 11ee 21       		.uleb128 0x21
 6447 11ef 3E210000 		.4byte	.LASF233
 6448 11f3 0A       		.byte	0xa
 6449 11f4 21       		.uleb128 0x21
 6450 11f5 AD040000 		.4byte	.LASF234
 6451 11f9 0B       		.byte	0xb
 6452 11fa 21       		.uleb128 0x21
 6453 11fb BD1A0000 		.4byte	.LASF235
 6454 11ff 0C       		.byte	0xc
 6455 1200 21       		.uleb128 0x21
 6456 1201 81110000 		.4byte	.LASF236
 6457 1205 0D       		.byte	0xd
 6458 1206 21       		.uleb128 0x21
 6459 1207 90100000 		.4byte	.LASF237
 6460 120b 0E       		.byte	0xe
 6461 120c 21       		.uleb128 0x21
 6462 120d A5200000 		.4byte	.LASF238
 6463 1211 0F       		.byte	0xf
 6464 1212 21       		.uleb128 0x21
 6465 1213 3D1E0000 		.4byte	.LASF239
 6466 1217 10       		.byte	0x10
 6467 1218 21       		.uleb128 0x21
 6468 1219 59030000 		.4byte	.LASF240
 6469 121d 11       		.byte	0x11
 6470 121e 21       		.uleb128 0x21
 6471 121f D50A0000 		.4byte	.LASF241
 6472 1223 12       		.byte	0x12
 6473 1224 21       		.uleb128 0x21
 6474 1225 BF0D0000 		.4byte	.LASF242
 6475 1229 13       		.byte	0x13
 6476 122a 21       		.uleb128 0x21
 6477 122b FD1E0000 		.4byte	.LASF243
 6478 122f 14       		.byte	0x14
 6479 1230 21       		.uleb128 0x21
 6480 1231 D61C0000 		.4byte	.LASF244
 6481 1235 15       		.byte	0x15
 6482 1236 21       		.uleb128 0x21
 6483 1237 CB0F0000 		.4byte	.LASF245
 6484 123b 16       		.byte	0x16
 6485 123c 00       		.byte	0
 6486 123d 0C       		.uleb128 0xc
 6487 123e AF1E0000 		.4byte	.LASF246
 6488 1242 0E       		.byte	0xe
 6489 1243 8508     		.2byte	0x885
 6490 1245 A0110000 		.4byte	0x11a0
 6491 1249 27       		.uleb128 0x27
 6492 124a 27200000 		.4byte	.LASF431
 6493 124e 0E       		.byte	0xe
 6494 124f 2509     		.2byte	0x925
 6495 1251 1F010000 		.4byte	0x11f
 6496 1255 10       		.byte	0x10
 6497 1256 08       		.byte	0x8
ARM GAS  C:\Users\EBANO_~1\AppData\Local\Temp\cc2nkIni.s 			page 144


 6498 1257 0A       		.byte	0xa
 6499 1258 0C       		.byte	0xc
 6500 1259 0D       		.byte	0xd
 6501 125a 0E       		.byte	0xe
 6502 125b 10       		.byte	0x10
 6503 125c 12       		.byte	0x12
 6504 125d 14       		.byte	0x14
 6505 125e 15       		.byte	0x15
 6506 125f 18       		.byte	0x18
 6507 1260 1A       		.byte	0x1a
 6508 1261 1B       		.byte	0x1b
 6509 1262 1D       		.byte	0x1d
 6510 1263 1E       		.byte	0x1e
 6511 1264 21       		.byte	0x21
 6512 1265 24       		.byte	0x24
 6513 1266 26       		.uleb128 0x26
 6514 1267 58080000 		.4byte	.LASF247
 6515 126b 07       		.byte	0x7
 6516 126c 01       		.byte	0x1
 6517 126d 46000000 		.4byte	0x46
 6518 1271 0F       		.byte	0xf
 6519 1272 1202     		.2byte	0x212
 6520 1274 B7130000 		.4byte	0x13b7
 6521 1278 21       		.uleb128 0x21
 6522 1279 220B0000 		.4byte	.LASF248
 6523 127d 00       		.byte	0
 6524 127e 21       		.uleb128 0x21
 6525 127f 460C0000 		.4byte	.LASF249
 6526 1283 01       		.byte	0x1
 6527 1284 21       		.uleb128 0x21
 6528 1285 131C0000 		.4byte	.LASF250
 6529 1289 02       		.byte	0x2
 6530 128a 21       		.uleb128 0x21
 6531 128b 1B100000 		.4byte	.LASF251
 6532 128f 03       		.byte	0x3
 6533 1290 21       		.uleb128 0x21
 6534 1291 CB1B0000 		.4byte	.LASF252
 6535 1295 04       		.byte	0x4
 6536 1296 21       		.uleb128 0x21
 6537 1297 48170000 		.4byte	.LASF253
 6538 129b 05       		.byte	0x5
 6539 129c 21       		.uleb128 0x21
 6540 129d 78050000 		.4byte	.LASF254
 6541 12a1 06       		.byte	0x6
 6542 12a2 21       		.uleb128 0x21
 6543 12a3 620E0000 		.4byte	.LASF255
 6544 12a7 07       		.byte	0x7
 6545 12a8 21       		.uleb128 0x21
 6546 12a9 CC170000 		.4byte	.LASF256
 6547 12ad 08       		.byte	0x8
 6548 12ae 21       		.uleb128 0x21
 6549 12af 21180000 		.4byte	.LASF257
 6550 12b3 09       		.byte	0x9
 6551 12b4 21       		.uleb128 0x21
 6552 12b5 B7030000 		.4byte	.LASF258
 6553 12b9 0A       		.byte	0xa
 6554 12ba 21       		.uleb128 0x21
ARM GAS  C:\Users\EBANO_~1\AppData\Local\Temp\cc2nkIni.s 			page 145


 6555 12bb C2100000 		.4byte	.LASF259
 6556 12bf 0B       		.byte	0xb
 6557 12c0 21       		.uleb128 0x21
 6558 12c1 750D0000 		.4byte	.LASF260
 6559 12c5 0C       		.byte	0xc
 6560 12c6 21       		.uleb128 0x21
 6561 12c7 0A1B0000 		.4byte	.LASF261
 6562 12cb 0D       		.byte	0xd
 6563 12cc 21       		.uleb128 0x21
 6564 12cd A9130000 		.4byte	.LASF262
 6565 12d1 0E       		.byte	0xe
 6566 12d2 21       		.uleb128 0x21
 6567 12d3 980B0000 		.4byte	.LASF263
 6568 12d7 0F       		.byte	0xf
 6569 12d8 21       		.uleb128 0x21
 6570 12d9 470F0000 		.4byte	.LASF264
 6571 12dd 10       		.byte	0x10
 6572 12de 21       		.uleb128 0x21
 6573 12df 5A0F0000 		.4byte	.LASF265
 6574 12e3 11       		.byte	0x11
 6575 12e4 21       		.uleb128 0x21
 6576 12e5 38000000 		.4byte	.LASF266
 6577 12e9 12       		.byte	0x12
 6578 12ea 21       		.uleb128 0x21
 6579 12eb 4F000000 		.4byte	.LASF267
 6580 12ef 13       		.byte	0x13
 6581 12f0 21       		.uleb128 0x21
 6582 12f1 A3180000 		.4byte	.LASF268
 6583 12f5 14       		.byte	0x14
 6584 12f6 21       		.uleb128 0x21
 6585 12f7 751A0000 		.4byte	.LASF269
 6586 12fb 15       		.byte	0x15
 6587 12fc 21       		.uleb128 0x21
 6588 12fd 24060000 		.4byte	.LASF270
 6589 1301 16       		.byte	0x16
 6590 1302 21       		.uleb128 0x21
 6591 1303 38080000 		.4byte	.LASF271
 6592 1307 17       		.byte	0x17
 6593 1308 21       		.uleb128 0x21
 6594 1309 200F0000 		.4byte	.LASF272
 6595 130d 18       		.byte	0x18
 6596 130e 21       		.uleb128 0x21
 6597 130f F91C0000 		.4byte	.LASF273
 6598 1313 19       		.byte	0x19
 6599 1314 21       		.uleb128 0x21
 6600 1315 54060000 		.4byte	.LASF274
 6601 1319 1A       		.byte	0x1a
 6602 131a 21       		.uleb128 0x21
 6603 131b 06160000 		.4byte	.LASF275
 6604 131f 1B       		.byte	0x1b
 6605 1320 21       		.uleb128 0x21
 6606 1321 8E1F0000 		.4byte	.LASF276
 6607 1325 1C       		.byte	0x1c
 6608 1326 21       		.uleb128 0x21
 6609 1327 73180000 		.4byte	.LASF277
 6610 132b 1D       		.byte	0x1d
 6611 132c 21       		.uleb128 0x21
ARM GAS  C:\Users\EBANO_~1\AppData\Local\Temp\cc2nkIni.s 			page 146


 6612 132d 940E0000 		.4byte	.LASF278
 6613 1331 1E       		.byte	0x1e
 6614 1332 21       		.uleb128 0x21
 6615 1333 2B190000 		.4byte	.LASF279
 6616 1337 1F       		.byte	0x1f
 6617 1338 21       		.uleb128 0x21
 6618 1339 B3160000 		.4byte	.LASF280
 6619 133d 20       		.byte	0x20
 6620 133e 21       		.uleb128 0x21
 6621 133f 790E0000 		.4byte	.LASF281
 6622 1343 21       		.byte	0x21
 6623 1344 21       		.uleb128 0x21
 6624 1345 5F180000 		.4byte	.LASF282
 6625 1349 22       		.byte	0x22
 6626 134a 21       		.uleb128 0x21
 6627 134b 06020000 		.4byte	.LASF283
 6628 134f 23       		.byte	0x23
 6629 1350 21       		.uleb128 0x21
 6630 1351 A5020000 		.4byte	.LASF284
 6631 1355 24       		.byte	0x24
 6632 1356 21       		.uleb128 0x21
 6633 1357 AA060000 		.4byte	.LASF285
 6634 135b 25       		.byte	0x25
 6635 135c 21       		.uleb128 0x21
 6636 135d DB110000 		.4byte	.LASF286
 6637 1361 26       		.byte	0x26
 6638 1362 21       		.uleb128 0x21
 6639 1363 250E0000 		.4byte	.LASF287
 6640 1367 27       		.byte	0x27
 6641 1368 21       		.uleb128 0x21
 6642 1369 720C0000 		.4byte	.LASF288
 6643 136d 28       		.byte	0x28
 6644 136e 21       		.uleb128 0x21
 6645 136f BC0E0000 		.4byte	.LASF289
 6646 1373 29       		.byte	0x29
 6647 1374 21       		.uleb128 0x21
 6648 1375 FD0B0000 		.4byte	.LASF290
 6649 1379 2A       		.byte	0x2a
 6650 137a 21       		.uleb128 0x21
 6651 137b 71210000 		.4byte	.LASF291
 6652 137f 2B       		.byte	0x2b
 6653 1380 21       		.uleb128 0x21
 6654 1381 B8050000 		.4byte	.LASF292
 6655 1385 2C       		.byte	0x2c
 6656 1386 21       		.uleb128 0x21
 6657 1387 221F0000 		.4byte	.LASF293
 6658 138b 2D       		.byte	0x2d
 6659 138c 21       		.uleb128 0x21
 6660 138d 231B0000 		.4byte	.LASF294
 6661 1391 2E       		.byte	0x2e
 6662 1392 21       		.uleb128 0x21
 6663 1393 47180000 		.4byte	.LASF295
 6664 1397 2F       		.byte	0x2f
 6665 1398 21       		.uleb128 0x21
 6666 1399 00010000 		.4byte	.LASF296
 6667 139d 30       		.byte	0x30
 6668 139e 21       		.uleb128 0x21
ARM GAS  C:\Users\EBANO_~1\AppData\Local\Temp\cc2nkIni.s 			page 147


 6669 139f AE110000 		.4byte	.LASF297
 6670 13a3 31       		.byte	0x31
 6671 13a4 21       		.uleb128 0x21
 6672 13a5 230C0000 		.4byte	.LASF298
 6673 13a9 32       		.byte	0x32
 6674 13aa 21       		.uleb128 0x21
 6675 13ab 62120000 		.4byte	.LASF299
 6676 13af 33       		.byte	0x33
 6677 13b0 21       		.uleb128 0x21
 6678 13b1 061E0000 		.4byte	.LASF300
 6679 13b5 34       		.byte	0x34
 6680 13b6 00       		.byte	0
 6681 13b7 0C       		.uleb128 0xc
 6682 13b8 7C020000 		.4byte	.LASF301
 6683 13bc 0F       		.byte	0xf
 6684 13bd EE02     		.2byte	0x2ee
 6685 13bf 66120000 		.4byte	0x1266
 6686 13c3 26       		.uleb128 0x26
 6687 13c4 A7190000 		.4byte	.LASF302
 6688 13c8 07       		.byte	0x7
 6689 13c9 01       		.byte	0x1
 6690 13ca 46000000 		.4byte	0x46
 6691 13ce 0F       		.byte	0xf
 6692 13cf F302     		.2byte	0x2f3
 6693 13d1 E8130000 		.4byte	0x13e8
 6694 13d5 21       		.uleb128 0x21
 6695 13d6 530E0000 		.4byte	.LASF303
 6696 13da 00       		.byte	0
 6697 13db 21       		.uleb128 0x21
 6698 13dc B61D0000 		.4byte	.LASF304
 6699 13e0 01       		.byte	0x1
 6700 13e1 21       		.uleb128 0x21
 6701 13e2 951B0000 		.4byte	.LASF305
 6702 13e6 02       		.byte	0x2
 6703 13e7 00       		.byte	0
 6704 13e8 0C       		.uleb128 0xc
 6705 13e9 13050000 		.4byte	.LASF306
 6706 13ed 0F       		.byte	0xf
 6707 13ee 0203     		.2byte	0x302
 6708 13f0 C3130000 		.4byte	0x13c3
 6709 13f4 26       		.uleb128 0x26
 6710 13f5 7A160000 		.4byte	.LASF307
 6711 13f9 07       		.byte	0x7
 6712 13fa 01       		.byte	0x1
 6713 13fb 46000000 		.4byte	0x46
 6714 13ff 0F       		.byte	0xf
 6715 1400 0403     		.2byte	0x304
 6716 1402 13140000 		.4byte	0x1413
 6717 1406 21       		.uleb128 0x21
 6718 1407 12150000 		.4byte	.LASF308
 6719 140b 00       		.byte	0
 6720 140c 21       		.uleb128 0x21
 6721 140d 8D180000 		.4byte	.LASF309
 6722 1411 01       		.byte	0x1
 6723 1412 00       		.byte	0
 6724 1413 0C       		.uleb128 0xc
 6725 1414 85010000 		.4byte	.LASF310
ARM GAS  C:\Users\EBANO_~1\AppData\Local\Temp\cc2nkIni.s 			page 148


 6726 1418 0F       		.byte	0xf
 6727 1419 0E03     		.2byte	0x30e
 6728 141b F4130000 		.4byte	0x13f4
 6729 141f 19       		.uleb128 0x19
 6730 1420 BE000000 		.4byte	.LASF311
 6731 1424 03       		.byte	0x3
 6732 1425 0F       		.byte	0xf
 6733 1426 1303     		.2byte	0x313
 6734 1428 5A140000 		.4byte	0x145a
 6735 142c 18       		.uleb128 0x18
 6736 142d 45040000 		.4byte	.LASF312
 6737 1431 0F       		.byte	0xf
 6738 1432 1803     		.2byte	0x318
 6739 1434 C1000000 		.4byte	0xc1
 6740 1438 02       		.byte	0x2
 6741 1439 23       		.byte	0x23
 6742 143a 00       		.uleb128 0
 6743 143b 18       		.uleb128 0x18
 6744 143c 66000000 		.4byte	.LASF313
 6745 1440 0F       		.byte	0xf
 6746 1441 1C03     		.2byte	0x31c
 6747 1443 C1000000 		.4byte	0xc1
 6748 1447 02       		.byte	0x2
 6749 1448 23       		.byte	0x23
 6750 1449 01       		.uleb128 0x1
 6751 144a 18       		.uleb128 0x18
 6752 144b 29100000 		.4byte	.LASF314
 6753 144f 0F       		.byte	0xf
 6754 1450 2003     		.2byte	0x320
 6755 1452 C1000000 		.4byte	0xc1
 6756 1456 02       		.byte	0x2
 6757 1457 23       		.byte	0x23
 6758 1458 02       		.uleb128 0x2
 6759 1459 00       		.byte	0
 6760 145a 0C       		.uleb128 0xc
 6761 145b 481A0000 		.4byte	.LASF315
 6762 145f 0F       		.byte	0xf
 6763 1460 2103     		.2byte	0x321
 6764 1462 1F140000 		.4byte	0x141f
 6765 1466 28       		.uleb128 0x28
 6766 1467 E4170000 		.4byte	.LASF316
 6767 146b 04       		.byte	0x4
 6768 146c 0F       		.byte	0xf
 6769 146d 2603     		.2byte	0x326
 6770 146f B0140000 		.4byte	0x14b0
 6771 1473 1C       		.uleb128 0x1c
 6772 1474 08210000 		.4byte	.LASF145
 6773 1478 0F       		.byte	0xf
 6774 1479 2B03     		.2byte	0x32b
 6775 147b F2000000 		.4byte	0xf2
 6776 147f 1C       		.uleb128 0x1c
 6777 1480 5A1B0000 		.4byte	.LASF317
 6778 1484 0F       		.byte	0xf
 6779 1485 2F03     		.2byte	0x32f
 6780 1487 8D110000 		.4byte	0x118d
 6781 148b 1C       		.uleb128 0x1c
 6782 148c F41D0000 		.4byte	.LASF318
ARM GAS  C:\Users\EBANO_~1\AppData\Local\Temp\cc2nkIni.s 			page 149


 6783 1490 0F       		.byte	0xf
 6784 1491 3303     		.2byte	0x333
 6785 1493 9A110000 		.4byte	0x119a
 6786 1497 1C       		.uleb128 0x1c
 6787 1498 ED0D0000 		.4byte	.LASF319
 6788 149c 0F       		.byte	0xf
 6789 149d 3703     		.2byte	0x337
 6790 149f 94110000 		.4byte	0x1194
 6791 14a3 1C       		.uleb128 0x1c
 6792 14a4 F50F0000 		.4byte	.LASF320
 6793 14a8 0F       		.byte	0xf
 6794 14a9 3B03     		.2byte	0x33b
 6795 14ab 5A140000 		.4byte	0x145a
 6796 14af 00       		.byte	0
 6797 14b0 0C       		.uleb128 0xc
 6798 14b1 7D130000 		.4byte	.LASF321
 6799 14b5 0F       		.byte	0xf
 6800 14b6 3C03     		.2byte	0x33c
 6801 14b8 66140000 		.4byte	0x1466
 6802 14bc 19       		.uleb128 0x19
 6803 14bd B10D0000 		.4byte	.LASF322
 6804 14c1 04       		.byte	0x4
 6805 14c2 0F       		.byte	0xf
 6806 14c3 4103     		.2byte	0x341
 6807 14c5 06150000 		.4byte	0x1506
 6808 14c9 18       		.uleb128 0x18
 6809 14ca 4E080000 		.4byte	.LASF323
 6810 14ce 0F       		.byte	0xf
 6811 14cf 4603     		.2byte	0x346
 6812 14d1 B7130000 		.4byte	0x13b7
 6813 14d5 02       		.byte	0x2
 6814 14d6 23       		.byte	0x23
 6815 14d7 00       		.uleb128 0
 6816 14d8 18       		.uleb128 0x18
 6817 14d9 1F1E0000 		.4byte	.LASF324
 6818 14dd 0F       		.byte	0xf
 6819 14de 4C03     		.2byte	0x34c
 6820 14e0 B1000000 		.4byte	0xb1
 6821 14e4 02       		.byte	0x2
 6822 14e5 23       		.byte	0x23
 6823 14e6 01       		.uleb128 0x1
 6824 14e7 18       		.uleb128 0x18
 6825 14e8 851A0000 		.4byte	.LASF325
 6826 14ec 0F       		.byte	0xf
 6827 14ed 5303     		.2byte	0x353
 6828 14ef C1000000 		.4byte	0xc1
 6829 14f3 02       		.byte	0x2
 6830 14f4 23       		.byte	0x23
 6831 14f5 02       		.uleb128 0x2
 6832 14f6 18       		.uleb128 0x18
 6833 14f7 50130000 		.4byte	.LASF326
 6834 14fb 0F       		.byte	0xf
 6835 14fc 5A03     		.2byte	0x35a
 6836 14fe C1000000 		.4byte	0xc1
 6837 1502 02       		.byte	0x2
 6838 1503 23       		.byte	0x23
 6839 1504 03       		.uleb128 0x3
ARM GAS  C:\Users\EBANO_~1\AppData\Local\Temp\cc2nkIni.s 			page 150


 6840 1505 00       		.byte	0
 6841 1506 0C       		.uleb128 0xc
 6842 1507 D1040000 		.4byte	.LASF327
 6843 150b 0F       		.byte	0xf
 6844 150c 5B03     		.2byte	0x35b
 6845 150e BC140000 		.4byte	0x14bc
 6846 1512 19       		.uleb128 0x19
 6847 1513 88130000 		.4byte	.LASF328
 6848 1517 08       		.byte	0x8
 6849 1518 0F       		.byte	0xf
 6850 1519 6003     		.2byte	0x360
 6851 151b 4D150000 		.4byte	0x154d
 6852 151f 18       		.uleb128 0x18
 6853 1520 E8190000 		.4byte	.LASF329
 6854 1524 0F       		.byte	0xf
 6855 1525 6503     		.2byte	0x365
 6856 1527 C1000000 		.4byte	0xc1
 6857 152b 02       		.byte	0x2
 6858 152c 23       		.byte	0x23
 6859 152d 00       		.uleb128 0
 6860 152e 18       		.uleb128 0x18
 6861 152f 41110000 		.4byte	.LASF330
 6862 1533 0F       		.byte	0xf
 6863 1534 6903     		.2byte	0x369
 6864 1536 1A0B0000 		.4byte	0xb1a
 6865 153a 02       		.byte	0x2
 6866 153b 23       		.byte	0x23
 6867 153c 01       		.uleb128 0x1
 6868 153d 18       		.uleb128 0x18
 6869 153e 32050000 		.4byte	.LASF152
 6870 1542 0F       		.byte	0xf
 6871 1543 6D03     		.2byte	0x36d
 6872 1545 9C0A0000 		.4byte	0xa9c
 6873 1549 02       		.byte	0x2
 6874 154a 23       		.byte	0x23
 6875 154b 04       		.uleb128 0x4
 6876 154c 00       		.byte	0
 6877 154d 0C       		.uleb128 0xc
 6878 154e F60D0000 		.4byte	.LASF331
 6879 1552 0F       		.byte	0xf
 6880 1553 6E03     		.2byte	0x36e
 6881 1555 12150000 		.4byte	0x1512
 6882 1559 19       		.uleb128 0x19
 6883 155a B4180000 		.4byte	.LASF332
 6884 155e 08       		.byte	0x8
 6885 155f 0F       		.byte	0xf
 6886 1560 7303     		.2byte	0x373
 6887 1562 85150000 		.4byte	0x1585
 6888 1566 18       		.uleb128 0x18
 6889 1567 C41F0000 		.4byte	.LASF333
 6890 156b 0F       		.byte	0xf
 6891 156c 7803     		.2byte	0x378
 6892 156e 87010000 		.4byte	0x187
 6893 1572 02       		.byte	0x2
 6894 1573 23       		.byte	0x23
 6895 1574 00       		.uleb128 0
 6896 1575 18       		.uleb128 0x18
ARM GAS  C:\Users\EBANO_~1\AppData\Local\Temp\cc2nkIni.s 			page 151


 6897 1576 530B0000 		.4byte	.LASF334
 6898 157a 0F       		.byte	0xf
 6899 157b 7C03     		.2byte	0x37c
 6900 157d E8130000 		.4byte	0x13e8
 6901 1581 02       		.byte	0x2
 6902 1582 23       		.byte	0x23
 6903 1583 04       		.uleb128 0x4
 6904 1584 00       		.byte	0
 6905 1585 0C       		.uleb128 0xc
 6906 1586 C20C0000 		.4byte	.LASF335
 6907 158a 0F       		.byte	0xf
 6908 158b 7D03     		.2byte	0x37d
 6909 158d 59150000 		.4byte	0x1559
 6910 1591 19       		.uleb128 0x19
 6911 1592 74070000 		.4byte	.LASF336
 6912 1596 04       		.byte	0x4
 6913 1597 0F       		.byte	0xf
 6914 1598 8203     		.2byte	0x382
 6915 159a AE150000 		.4byte	0x15ae
 6916 159e 18       		.uleb128 0x18
 6917 159f 390B0000 		.4byte	.LASF337
 6918 15a3 0F       		.byte	0xf
 6919 15a4 8703     		.2byte	0x387
 6920 15a6 75010000 		.4byte	0x175
 6921 15aa 02       		.byte	0x2
 6922 15ab 23       		.byte	0x23
 6923 15ac 00       		.uleb128 0
 6924 15ad 00       		.byte	0
 6925 15ae 0C       		.uleb128 0xc
 6926 15af C9120000 		.4byte	.LASF338
 6927 15b3 0F       		.byte	0xf
 6928 15b4 8803     		.2byte	0x388
 6929 15b6 91150000 		.4byte	0x1591
 6930 15ba 19       		.uleb128 0x19
 6931 15bb 44060000 		.4byte	.LASF339
 6932 15bf 03       		.byte	0x3
 6933 15c0 0F       		.byte	0xf
 6934 15c1 9B03     		.2byte	0x39b
 6935 15c3 F5150000 		.4byte	0x15f5
 6936 15c7 18       		.uleb128 0x18
 6937 15c8 1F1E0000 		.4byte	.LASF324
 6938 15cc 0F       		.byte	0xf
 6939 15cd A003     		.2byte	0x3a0
 6940 15cf B1000000 		.4byte	0xb1
 6941 15d3 02       		.byte	0x2
 6942 15d4 23       		.byte	0x23
 6943 15d5 00       		.uleb128 0
 6944 15d6 18       		.uleb128 0x18
 6945 15d7 50130000 		.4byte	.LASF326
 6946 15db 0F       		.byte	0xf
 6947 15dc A403     		.2byte	0x3a4
 6948 15de C1000000 		.4byte	0xc1
 6949 15e2 02       		.byte	0x2
 6950 15e3 23       		.byte	0x23
 6951 15e4 01       		.uleb128 0x1
 6952 15e5 18       		.uleb128 0x18
 6953 15e6 851A0000 		.4byte	.LASF325
ARM GAS  C:\Users\EBANO_~1\AppData\Local\Temp\cc2nkIni.s 			page 152


 6954 15ea 0F       		.byte	0xf
 6955 15eb A803     		.2byte	0x3a8
 6956 15ed C1000000 		.4byte	0xc1
 6957 15f1 02       		.byte	0x2
 6958 15f2 23       		.byte	0x23
 6959 15f3 02       		.uleb128 0x2
 6960 15f4 00       		.byte	0
 6961 15f5 28       		.uleb128 0x28
 6962 15f6 97200000 		.4byte	.LASF340
 6963 15fa 03       		.byte	0x3
 6964 15fb 0F       		.byte	0xf
 6965 15fc 8E03     		.2byte	0x38e
 6966 15fe 27160000 		.4byte	0x1627
 6967 1602 1C       		.uleb128 0x1c
 6968 1603 F41A0000 		.4byte	.LASF341
 6969 1607 0F       		.byte	0xf
 6970 1608 9303     		.2byte	0x393
 6971 160a B1000000 		.4byte	0xb1
 6972 160e 1C       		.uleb128 0x1c
 6973 160f 501B0000 		.4byte	.LASF342
 6974 1613 0F       		.byte	0xf
 6975 1614 9703     		.2byte	0x397
 6976 1616 1A0B0000 		.4byte	0xb1a
 6977 161a 1C       		.uleb128 0x1c
 6978 161b B6020000 		.4byte	.LASF343
 6979 161f 0F       		.byte	0xf
 6980 1620 A903     		.2byte	0x3a9
 6981 1622 BA150000 		.4byte	0x15ba
 6982 1626 00       		.byte	0
 6983 1627 0C       		.uleb128 0xc
 6984 1628 E7200000 		.4byte	.LASF344
 6985 162c 0F       		.byte	0xf
 6986 162d AA03     		.2byte	0x3aa
 6987 162f F5150000 		.4byte	0x15f5
 6988 1633 19       		.uleb128 0x19
 6989 1634 970D0000 		.4byte	.LASF345
 6990 1638 08       		.byte	0x8
 6991 1639 0F       		.byte	0xf
 6992 163a AF03     		.2byte	0x3af
 6993 163c 5F160000 		.4byte	0x165f
 6994 1640 18       		.uleb128 0x18
 6995 1641 680B0000 		.4byte	.LASF346
 6996 1645 0F       		.byte	0xf
 6997 1646 B403     		.2byte	0x3b4
 6998 1648 890A0000 		.4byte	0xa89
 6999 164c 02       		.byte	0x2
 7000 164d 23       		.byte	0x23
 7001 164e 00       		.uleb128 0
 7002 164f 18       		.uleb128 0x18
 7003 1650 62100000 		.4byte	.LASF347
 7004 1654 0F       		.byte	0xf
 7005 1655 B803     		.2byte	0x3b8
 7006 1657 C1000000 		.4byte	0xc1
 7007 165b 02       		.byte	0x2
 7008 165c 23       		.byte	0x23
 7009 165d 04       		.uleb128 0x4
 7010 165e 00       		.byte	0
ARM GAS  C:\Users\EBANO_~1\AppData\Local\Temp\cc2nkIni.s 			page 153


 7011 165f 0C       		.uleb128 0xc
 7012 1660 610D0000 		.4byte	.LASF348
 7013 1664 0F       		.byte	0xf
 7014 1665 B903     		.2byte	0x3b9
 7015 1667 33160000 		.4byte	0x1633
 7016 166b 19       		.uleb128 0x19
 7017 166c 6D1F0000 		.4byte	.LASF349
 7018 1670 08       		.byte	0x8
 7019 1671 0F       		.byte	0xf
 7020 1672 BE03     		.2byte	0x3be
 7021 1674 97160000 		.4byte	0x1697
 7022 1678 18       		.uleb128 0x18
 7023 1679 00180000 		.4byte	.LASF350
 7024 167d 0F       		.byte	0xf
 7025 167e C303     		.2byte	0x3c3
 7026 1680 9A110000 		.4byte	0x119a
 7027 1684 02       		.byte	0x2
 7028 1685 23       		.byte	0x23
 7029 1686 00       		.uleb128 0
 7030 1687 18       		.uleb128 0x18
 7031 1688 231A0000 		.4byte	.LASF351
 7032 168c 0F       		.byte	0xf
 7033 168d C703     		.2byte	0x3c7
 7034 168f 13140000 		.4byte	0x1413
 7035 1693 02       		.byte	0x2
 7036 1694 23       		.byte	0x23
 7037 1695 04       		.uleb128 0x4
 7038 1696 00       		.byte	0
 7039 1697 0C       		.uleb128 0xc
 7040 1698 750F0000 		.4byte	.LASF352
 7041 169c 0F       		.byte	0xf
 7042 169d C803     		.2byte	0x3c8
 7043 169f 6B160000 		.4byte	0x166b
 7044 16a3 19       		.uleb128 0x19
 7045 16a4 C4110000 		.4byte	.LASF353
 7046 16a8 14       		.byte	0x14
 7047 16a9 0F       		.byte	0xf
 7048 16aa CD03     		.2byte	0x3cd
 7049 16ac 56170000 		.4byte	0x1756
 7050 16b0 18       		.uleb128 0x18
 7051 16b1 E8190000 		.4byte	.LASF329
 7052 16b5 0F       		.byte	0xf
 7053 16b6 D203     		.2byte	0x3d2
 7054 16b8 C1000000 		.4byte	0xc1
 7055 16bc 02       		.byte	0x2
 7056 16bd 23       		.byte	0x23
 7057 16be 00       		.uleb128 0
 7058 16bf 18       		.uleb128 0x18
 7059 16c0 1F1E0000 		.4byte	.LASF324
 7060 16c4 0F       		.byte	0xf
 7061 16c5 D603     		.2byte	0x3d6
 7062 16c7 B1000000 		.4byte	0xb1
 7063 16cb 02       		.byte	0x2
 7064 16cc 23       		.byte	0x23
 7065 16cd 01       		.uleb128 0x1
 7066 16ce 18       		.uleb128 0x18
 7067 16cf 461B0000 		.4byte	.LASF354
ARM GAS  C:\Users\EBANO_~1\AppData\Local\Temp\cc2nkIni.s 			page 154


 7068 16d3 0F       		.byte	0xf
 7069 16d4 DA03     		.2byte	0x3da
 7070 16d6 C1000000 		.4byte	0xc1
 7071 16da 02       		.byte	0x2
 7072 16db 23       		.byte	0x23
 7073 16dc 02       		.uleb128 0x2
 7074 16dd 18       		.uleb128 0x18
 7075 16de 9C020000 		.4byte	.LASF355
 7076 16e2 0F       		.byte	0xf
 7077 16e3 DE03     		.2byte	0x3de
 7078 16e5 B1000000 		.4byte	0xb1
 7079 16e9 02       		.byte	0x2
 7080 16ea 23       		.byte	0x23
 7081 16eb 03       		.uleb128 0x3
 7082 16ec 18       		.uleb128 0x18
 7083 16ed 281D0000 		.4byte	.LASF209
 7084 16f1 0F       		.byte	0xf
 7085 16f2 E203     		.2byte	0x3e2
 7086 16f4 F2000000 		.4byte	0xf2
 7087 16f8 02       		.byte	0x2
 7088 16f9 23       		.byte	0x23
 7089 16fa 04       		.uleb128 0x4
 7090 16fb 18       		.uleb128 0x18
 7091 16fc 51090000 		.4byte	.LASF356
 7092 1700 0F       		.byte	0xf
 7093 1701 E603     		.2byte	0x3e6
 7094 1703 F2000000 		.4byte	0xf2
 7095 1707 02       		.byte	0x2
 7096 1708 23       		.byte	0x23
 7097 1709 08       		.uleb128 0x8
 7098 170a 18       		.uleb128 0x18
 7099 170b 9D060000 		.4byte	.LASF357
 7100 170f 0F       		.byte	0xf
 7101 1710 EA03     		.2byte	0x3ea
 7102 1712 E7000000 		.4byte	0xe7
 7103 1716 02       		.byte	0x2
 7104 1717 23       		.byte	0x23
 7105 1718 0C       		.uleb128 0xc
 7106 1719 18       		.uleb128 0x18
 7107 171a 50130000 		.4byte	.LASF326
 7108 171e 0F       		.byte	0xf
 7109 171f EE03     		.2byte	0x3ee
 7110 1721 C1000000 		.4byte	0xc1
 7111 1725 02       		.byte	0x2
 7112 1726 23       		.byte	0x23
 7113 1727 10       		.uleb128 0x10
 7114 1728 18       		.uleb128 0x18
 7115 1729 E20C0000 		.4byte	.LASF358
 7116 172d 0F       		.byte	0xf
 7117 172e F203     		.2byte	0x3f2
 7118 1730 1A0B0000 		.4byte	0xb1a
 7119 1734 02       		.byte	0x2
 7120 1735 23       		.byte	0x23
 7121 1736 11       		.uleb128 0x11
 7122 1737 18       		.uleb128 0x18
 7123 1738 881B0000 		.4byte	.LASF359
 7124 173c 0F       		.byte	0xf
ARM GAS  C:\Users\EBANO_~1\AppData\Local\Temp\cc2nkIni.s 			page 155


 7125 173d F603     		.2byte	0x3f6
 7126 173f 1A0B0000 		.4byte	0xb1a
 7127 1743 02       		.byte	0x2
 7128 1744 23       		.byte	0x23
 7129 1745 12       		.uleb128 0x12
 7130 1746 18       		.uleb128 0x18
 7131 1747 BD080000 		.4byte	.LASF360
 7132 174b 0F       		.byte	0xf
 7133 174c FA03     		.2byte	0x3fa
 7134 174e 81110000 		.4byte	0x1181
 7135 1752 02       		.byte	0x2
 7136 1753 23       		.byte	0x23
 7137 1754 13       		.uleb128 0x13
 7138 1755 00       		.byte	0
 7139 1756 0C       		.uleb128 0xc
 7140 1757 CC000000 		.4byte	.LASF361
 7141 175b 0F       		.byte	0xf
 7142 175c FB03     		.2byte	0x3fb
 7143 175e A3160000 		.4byte	0x16a3
 7144 1762 19       		.uleb128 0x19
 7145 1763 E7100000 		.4byte	.LASF362
 7146 1767 10       		.byte	0x10
 7147 1768 0F       		.byte	0xf
 7148 1769 0004     		.2byte	0x400
 7149 176b CA170000 		.4byte	0x17ca
 7150 176f 18       		.uleb128 0x18
 7151 1770 E8190000 		.4byte	.LASF329
 7152 1774 0F       		.byte	0xf
 7153 1775 0504     		.2byte	0x405
 7154 1777 C1000000 		.4byte	0xc1
 7155 177b 02       		.byte	0x2
 7156 177c 23       		.byte	0x23
 7157 177d 00       		.uleb128 0
 7158 177e 18       		.uleb128 0x18
 7159 177f 1F1E0000 		.4byte	.LASF324
 7160 1783 0F       		.byte	0xf
 7161 1784 0904     		.2byte	0x409
 7162 1786 B1000000 		.4byte	0xb1
 7163 178a 02       		.byte	0x2
 7164 178b 23       		.byte	0x23
 7165 178c 01       		.uleb128 0x1
 7166 178d 18       		.uleb128 0x18
 7167 178e F41A0000 		.4byte	.LASF341
 7168 1792 0F       		.byte	0xf
 7169 1793 0D04     		.2byte	0x40d
 7170 1795 B1000000 		.4byte	0xb1
 7171 1799 02       		.byte	0x2
 7172 179a 23       		.byte	0x23
 7173 179b 02       		.uleb128 0x2
 7174 179c 18       		.uleb128 0x18
 7175 179d 64040000 		.4byte	.LASF363
 7176 17a1 0F       		.byte	0xf
 7177 17a2 1104     		.2byte	0x411
 7178 17a4 8D110000 		.4byte	0x118d
 7179 17a8 02       		.byte	0x2
 7180 17a9 23       		.byte	0x23
 7181 17aa 04       		.uleb128 0x4
ARM GAS  C:\Users\EBANO_~1\AppData\Local\Temp\cc2nkIni.s 			page 156


 7182 17ab 18       		.uleb128 0x18
 7183 17ac 9D130000 		.4byte	.LASF364
 7184 17b0 0F       		.byte	0xf
 7185 17b1 1504     		.2byte	0x415
 7186 17b3 8D110000 		.4byte	0x118d
 7187 17b7 02       		.byte	0x2
 7188 17b8 23       		.byte	0x23
 7189 17b9 08       		.uleb128 0x8
 7190 17ba 18       		.uleb128 0x18
 7191 17bb 0A100000 		.4byte	.LASF365
 7192 17bf 0F       		.byte	0xf
 7193 17c0 1904     		.2byte	0x419
 7194 17c2 DC000000 		.4byte	0xdc
 7195 17c6 02       		.byte	0x2
 7196 17c7 23       		.byte	0x23
 7197 17c8 0C       		.uleb128 0xc
 7198 17c9 00       		.byte	0
 7199 17ca 0C       		.uleb128 0xc
 7200 17cb 2D210000 		.4byte	.LASF366
 7201 17cf 0F       		.byte	0xf
 7202 17d0 1A04     		.2byte	0x41a
 7203 17d2 62170000 		.4byte	0x1762
 7204 17d6 19       		.uleb128 0x19
 7205 17d7 3F090000 		.4byte	.LASF367
 7206 17db 10       		.byte	0x10
 7207 17dc 0F       		.byte	0xf
 7208 17dd 1F04     		.2byte	0x41f
 7209 17df 5C180000 		.4byte	0x185c
 7210 17e3 18       		.uleb128 0x18
 7211 17e4 80080000 		.4byte	.LASF368
 7212 17e8 0F       		.byte	0xf
 7213 17e9 2404     		.2byte	0x424
 7214 17eb 0F0B0000 		.4byte	0xb0f
 7215 17ef 02       		.byte	0x2
 7216 17f0 23       		.byte	0x23
 7217 17f1 00       		.uleb128 0
 7218 17f2 18       		.uleb128 0x18
 7219 17f3 680B0000 		.4byte	.LASF346
 7220 17f7 0F       		.byte	0xf
 7221 17f8 2804     		.2byte	0x428
 7222 17fa 890A0000 		.4byte	0xa89
 7223 17fe 02       		.byte	0x2
 7224 17ff 23       		.byte	0x23
 7225 1800 04       		.uleb128 0x4
 7226 1801 18       		.uleb128 0x18
 7227 1802 24120000 		.4byte	.LASF369
 7228 1806 0F       		.byte	0xf
 7229 1807 2C04     		.2byte	0x42c
 7230 1809 C1000000 		.4byte	0xc1
 7231 180d 02       		.byte	0x2
 7232 180e 23       		.byte	0x23
 7233 180f 08       		.uleb128 0x8
 7234 1810 18       		.uleb128 0x18
 7235 1811 851A0000 		.4byte	.LASF325
 7236 1815 0F       		.byte	0xf
 7237 1816 3004     		.2byte	0x430
 7238 1818 C1000000 		.4byte	0xc1
ARM GAS  C:\Users\EBANO_~1\AppData\Local\Temp\cc2nkIni.s 			page 157


 7239 181c 02       		.byte	0x2
 7240 181d 23       		.byte	0x23
 7241 181e 09       		.uleb128 0x9
 7242 181f 18       		.uleb128 0x18
 7243 1820 FB010000 		.4byte	.LASF370
 7244 1824 0F       		.byte	0xf
 7245 1825 3404     		.2byte	0x434
 7246 1827 1A0B0000 		.4byte	0xb1a
 7247 182b 02       		.byte	0x2
 7248 182c 23       		.byte	0x23
 7249 182d 0A       		.uleb128 0xa
 7250 182e 18       		.uleb128 0x18
 7251 182f 580B0000 		.4byte	.LASF371
 7252 1833 0F       		.byte	0xf
 7253 1834 3804     		.2byte	0x438
 7254 1836 B1000000 		.4byte	0xb1
 7255 183a 02       		.byte	0x2
 7256 183b 23       		.byte	0x23
 7257 183c 0B       		.uleb128 0xb
 7258 183d 18       		.uleb128 0x18
 7259 183e FD140000 		.4byte	.LASF372
 7260 1842 0F       		.byte	0xf
 7261 1843 3C04     		.2byte	0x43c
 7262 1845 B1000000 		.4byte	0xb1
 7263 1849 02       		.byte	0x2
 7264 184a 23       		.byte	0x23
 7265 184b 0C       		.uleb128 0xc
 7266 184c 18       		.uleb128 0x18
 7267 184d BF1E0000 		.4byte	.LASF373
 7268 1851 0F       		.byte	0xf
 7269 1852 4004     		.2byte	0x440
 7270 1854 C1000000 		.4byte	0xc1
 7271 1858 02       		.byte	0x2
 7272 1859 23       		.byte	0x23
 7273 185a 0D       		.uleb128 0xd
 7274 185b 00       		.byte	0
 7275 185c 0C       		.uleb128 0xc
 7276 185d 4F200000 		.4byte	.LASF374
 7277 1861 0F       		.byte	0xf
 7278 1862 4104     		.2byte	0x441
 7279 1864 D6170000 		.4byte	0x17d6
 7280 1868 19       		.uleb128 0x19
 7281 1869 7F030000 		.4byte	.LASF375
 7282 186d 08       		.byte	0x8
 7283 186e 0F       		.byte	0xf
 7284 186f 4604     		.2byte	0x446
 7285 1871 A3180000 		.4byte	0x18a3
 7286 1875 18       		.uleb128 0x18
 7287 1876 1F1E0000 		.4byte	.LASF324
 7288 187a 0F       		.byte	0xf
 7289 187b 4B04     		.2byte	0x44b
 7290 187d B1000000 		.4byte	0xb1
 7291 1881 02       		.byte	0x2
 7292 1882 23       		.byte	0x23
 7293 1883 00       		.uleb128 0
 7294 1884 18       		.uleb128 0x18
 7295 1885 9C020000 		.4byte	.LASF355
ARM GAS  C:\Users\EBANO_~1\AppData\Local\Temp\cc2nkIni.s 			page 158


 7296 1889 0F       		.byte	0xf
 7297 188a 4F04     		.2byte	0x44f
 7298 188c B1000000 		.4byte	0xb1
 7299 1890 02       		.byte	0x2
 7300 1891 23       		.byte	0x23
 7301 1892 01       		.uleb128 0x1
 7302 1893 18       		.uleb128 0x18
 7303 1894 281D0000 		.4byte	.LASF209
 7304 1898 0F       		.byte	0xf
 7305 1899 5304     		.2byte	0x453
 7306 189b F2000000 		.4byte	0xf2
 7307 189f 02       		.byte	0x2
 7308 18a0 23       		.byte	0x23
 7309 18a1 04       		.uleb128 0x4
 7310 18a2 00       		.byte	0
 7311 18a3 0C       		.uleb128 0xc
 7312 18a4 F0030000 		.4byte	.LASF376
 7313 18a8 0F       		.byte	0xf
 7314 18a9 5404     		.2byte	0x454
 7315 18ab 68180000 		.4byte	0x1868
 7316 18af 19       		.uleb128 0x19
 7317 18b0 840A0000 		.4byte	.LASF377
 7318 18b4 08       		.byte	0x8
 7319 18b5 0F       		.byte	0xf
 7320 18b6 5904     		.2byte	0x459
 7321 18b8 DB180000 		.4byte	0x18db
 7322 18bc 18       		.uleb128 0x18
 7323 18bd A21D0000 		.4byte	.LASF378
 7324 18c1 0F       		.byte	0xf
 7325 18c2 5E04     		.2byte	0x45e
 7326 18c4 94110000 		.4byte	0x1194
 7327 18c8 02       		.byte	0x2
 7328 18c9 23       		.byte	0x23
 7329 18ca 00       		.uleb128 0
 7330 18cb 18       		.uleb128 0x18
 7331 18cc 75030000 		.4byte	.LASF379
 7332 18d0 0F       		.byte	0xf
 7333 18d1 6204     		.2byte	0x462
 7334 18d3 B1000000 		.4byte	0xb1
 7335 18d7 02       		.byte	0x2
 7336 18d8 23       		.byte	0x23
 7337 18d9 04       		.uleb128 0x4
 7338 18da 00       		.byte	0
 7339 18db 0C       		.uleb128 0xc
 7340 18dc FE0A0000 		.4byte	.LASF380
 7341 18e0 0F       		.byte	0xf
 7342 18e1 6304     		.2byte	0x463
 7343 18e3 AF180000 		.4byte	0x18af
 7344 18e7 19       		.uleb128 0x19
 7345 18e8 B2120000 		.4byte	.LASF381
 7346 18ec 03       		.byte	0x3
 7347 18ed 0F       		.byte	0xf
 7348 18ee 6804     		.2byte	0x468
 7349 18f0 22190000 		.4byte	0x1922
 7350 18f4 18       		.uleb128 0x18
 7351 18f5 851A0000 		.4byte	.LASF325
 7352 18f9 0F       		.byte	0xf
ARM GAS  C:\Users\EBANO_~1\AppData\Local\Temp\cc2nkIni.s 			page 159


 7353 18fa 6D04     		.2byte	0x46d
 7354 18fc C1000000 		.4byte	0xc1
 7355 1900 02       		.byte	0x2
 7356 1901 23       		.byte	0x23
 7357 1902 00       		.uleb128 0
 7358 1903 18       		.uleb128 0x18
 7359 1904 50130000 		.4byte	.LASF326
 7360 1908 0F       		.byte	0xf
 7361 1909 7104     		.2byte	0x471
 7362 190b C1000000 		.4byte	0xc1
 7363 190f 02       		.byte	0x2
 7364 1910 23       		.byte	0x23
 7365 1911 01       		.uleb128 0x1
 7366 1912 18       		.uleb128 0x18
 7367 1913 64040000 		.4byte	.LASF363
 7368 1917 0F       		.byte	0xf
 7369 1918 7504     		.2byte	0x475
 7370 191a C1000000 		.4byte	0xc1
 7371 191e 02       		.byte	0x2
 7372 191f 23       		.byte	0x23
 7373 1920 02       		.uleb128 0x2
 7374 1921 00       		.byte	0
 7375 1922 0C       		.uleb128 0xc
 7376 1923 1A160000 		.4byte	.LASF382
 7377 1927 0F       		.byte	0xf
 7378 1928 7604     		.2byte	0x476
 7379 192a E7180000 		.4byte	0x18e7
 7380 192e 19       		.uleb128 0x19
 7381 192f 3B200000 		.4byte	.LASF383
 7382 1933 08       		.byte	0x8
 7383 1934 0F       		.byte	0xf
 7384 1935 7B04     		.2byte	0x47b
 7385 1937 5A190000 		.4byte	0x195a
 7386 193b 18       		.uleb128 0x18
 7387 193c 75030000 		.4byte	.LASF379
 7388 1940 0F       		.byte	0xf
 7389 1941 8004     		.2byte	0x480
 7390 1943 C1000000 		.4byte	0xc1
 7391 1947 02       		.byte	0x2
 7392 1948 23       		.byte	0x23
 7393 1949 00       		.uleb128 0
 7394 194a 18       		.uleb128 0x18
 7395 194b 36120000 		.4byte	.LASF210
 7396 194f 0F       		.byte	0xf
 7397 1950 8404     		.2byte	0x484
 7398 1952 F2000000 		.4byte	0xf2
 7399 1956 02       		.byte	0x2
 7400 1957 23       		.byte	0x23
 7401 1958 04       		.uleb128 0x4
 7402 1959 00       		.byte	0
 7403 195a 0C       		.uleb128 0xc
 7404 195b E2120000 		.4byte	.LASF384
 7405 195f 0F       		.byte	0xf
 7406 1960 8504     		.2byte	0x485
 7407 1962 2E190000 		.4byte	0x192e
 7408 1966 26       		.uleb128 0x26
 7409 1967 8F080000 		.4byte	.LASF385
ARM GAS  C:\Users\EBANO_~1\AppData\Local\Temp\cc2nkIni.s 			page 160


 7410 196b 07       		.byte	0x7
 7411 196c 01       		.byte	0x1
 7412 196d 46000000 		.4byte	0x46
 7413 1971 0F       		.byte	0xf
 7414 1972 8A04     		.2byte	0x48a
 7415 1974 85190000 		.4byte	0x1985
 7416 1978 21       		.uleb128 0x21
 7417 1979 B2170000 		.4byte	.LASF386
 7418 197d 00       		.byte	0
 7419 197e 21       		.uleb128 0x21
 7420 197f E00F0000 		.4byte	.LASF387
 7421 1983 01       		.byte	0x1
 7422 1984 00       		.byte	0
 7423 1985 0C       		.uleb128 0xc
 7424 1986 F71B0000 		.4byte	.LASF388
 7425 198a 0F       		.byte	0xf
 7426 198b 9404     		.2byte	0x494
 7427 198d 66190000 		.4byte	0x1966
 7428 1991 19       		.uleb128 0x19
 7429 1992 F1060000 		.4byte	.LASF389
 7430 1996 0C       		.byte	0xc
 7431 1997 0F       		.byte	0xf
 7432 1998 9904     		.2byte	0x499
 7433 199a F9190000 		.4byte	0x19f9
 7434 199e 18       		.uleb128 0x18
 7435 199f 41110000 		.4byte	.LASF330
 7436 19a3 0F       		.byte	0xf
 7437 19a4 9E04     		.2byte	0x49e
 7438 19a6 1A0B0000 		.4byte	0xb1a
 7439 19aa 02       		.byte	0x2
 7440 19ab 23       		.byte	0x23
 7441 19ac 00       		.uleb128 0
 7442 19ad 18       		.uleb128 0x18
 7443 19ae F7210000 		.4byte	.LASF390
 7444 19b2 0F       		.byte	0xf
 7445 19b3 A204     		.2byte	0x4a2
 7446 19b5 1A0B0000 		.4byte	0xb1a
 7447 19b9 02       		.byte	0x2
 7448 19ba 23       		.byte	0x23
 7449 19bb 01       		.uleb128 0x1
 7450 19bc 18       		.uleb128 0x18
 7451 19bd F3130000 		.4byte	.LASF391
 7452 19c1 0F       		.byte	0xf
 7453 19c2 A604     		.2byte	0x4a6
 7454 19c4 1A0B0000 		.4byte	0xb1a
 7455 19c8 02       		.byte	0x2
 7456 19c9 23       		.byte	0x23
 7457 19ca 02       		.uleb128 0x2
 7458 19cb 18       		.uleb128 0x18
 7459 19cc E8190000 		.4byte	.LASF329
 7460 19d0 0F       		.byte	0xf
 7461 19d1 AA04     		.2byte	0x4aa
 7462 19d3 C1000000 		.4byte	0xc1
 7463 19d7 02       		.byte	0x2
 7464 19d8 23       		.byte	0x23
 7465 19d9 03       		.uleb128 0x3
 7466 19da 18       		.uleb128 0x18
ARM GAS  C:\Users\EBANO_~1\AppData\Local\Temp\cc2nkIni.s 			page 161


 7467 19db B00E0000 		.4byte	.LASF392
 7468 19df 0F       		.byte	0xf
 7469 19e0 AE04     		.2byte	0x4ae
 7470 19e2 9C0A0000 		.4byte	0xa9c
 7471 19e6 02       		.byte	0x2
 7472 19e7 23       		.byte	0x23
 7473 19e8 04       		.uleb128 0x4
 7474 19e9 18       		.uleb128 0x18
 7475 19ea 1A020000 		.4byte	.LASF393
 7476 19ee 0F       		.byte	0xf
 7477 19ef B204     		.2byte	0x4b2
 7478 19f1 9C0A0000 		.4byte	0xa9c
 7479 19f5 02       		.byte	0x2
 7480 19f6 23       		.byte	0x23
 7481 19f7 08       		.uleb128 0x8
 7482 19f8 00       		.byte	0
 7483 19f9 0C       		.uleb128 0xc
 7484 19fa E7160000 		.4byte	.LASF394
 7485 19fe 0F       		.byte	0xf
 7486 19ff B304     		.2byte	0x4b3
 7487 1a01 91190000 		.4byte	0x1991
 7488 1a05 19       		.uleb128 0x19
 7489 1a06 17200000 		.4byte	.LASF395
 7490 1a0a 0C       		.byte	0xc
 7491 1a0b 0F       		.byte	0xf
 7492 1a0c B804     		.2byte	0x4b8
 7493 1a0e 5E1A0000 		.4byte	0x1a5e
 7494 1a12 18       		.uleb128 0x18
 7495 1a13 00030000 		.4byte	.LASF396
 7496 1a17 0F       		.byte	0xf
 7497 1a18 BD04     		.2byte	0x4bd
 7498 1a1a 9C0A0000 		.4byte	0xa9c
 7499 1a1e 02       		.byte	0x2
 7500 1a1f 23       		.byte	0x23
 7501 1a20 00       		.uleb128 0
 7502 1a21 18       		.uleb128 0x18
 7503 1a22 56020000 		.4byte	.LASF397
 7504 1a26 0F       		.byte	0xf
 7505 1a27 C104     		.2byte	0x4c1
 7506 1a29 9C0A0000 		.4byte	0xa9c
 7507 1a2d 02       		.byte	0x2
 7508 1a2e 23       		.byte	0x23
 7509 1a2f 04       		.uleb128 0x4
 7510 1a30 18       		.uleb128 0x18
 7511 1a31 1F1E0000 		.4byte	.LASF324
 7512 1a35 0F       		.byte	0xf
 7513 1a36 C504     		.2byte	0x4c5
 7514 1a38 B1000000 		.4byte	0xb1
 7515 1a3c 02       		.byte	0x2
 7516 1a3d 23       		.byte	0x23
 7517 1a3e 08       		.uleb128 0x8
 7518 1a3f 18       		.uleb128 0x18
 7519 1a40 41110000 		.4byte	.LASF330
 7520 1a44 0F       		.byte	0xf
 7521 1a45 C904     		.2byte	0x4c9
 7522 1a47 1A0B0000 		.4byte	0xb1a
 7523 1a4b 02       		.byte	0x2
ARM GAS  C:\Users\EBANO_~1\AppData\Local\Temp\cc2nkIni.s 			page 162


 7524 1a4c 23       		.byte	0x23
 7525 1a4d 09       		.uleb128 0x9
 7526 1a4e 18       		.uleb128 0x18
 7527 1a4f F3130000 		.4byte	.LASF391
 7528 1a53 0F       		.byte	0xf
 7529 1a54 CD04     		.2byte	0x4cd
 7530 1a56 1A0B0000 		.4byte	0xb1a
 7531 1a5a 02       		.byte	0x2
 7532 1a5b 23       		.byte	0x23
 7533 1a5c 0A       		.uleb128 0xa
 7534 1a5d 00       		.byte	0
 7535 1a5e 0C       		.uleb128 0xc
 7536 1a5f 61020000 		.4byte	.LASF398
 7537 1a63 0F       		.byte	0xf
 7538 1a64 CE04     		.2byte	0x4ce
 7539 1a66 051A0000 		.4byte	0x1a05
 7540 1a6a 19       		.uleb128 0x19
 7541 1a6b 87050000 		.4byte	.LASF399
 7542 1a6f 08       		.byte	0x8
 7543 1a70 0F       		.byte	0xf
 7544 1a71 D304     		.2byte	0x4d3
 7545 1a73 961A0000 		.4byte	0x1a96
 7546 1a77 18       		.uleb128 0x18
 7547 1a78 A21D0000 		.4byte	.LASF378
 7548 1a7c 0F       		.byte	0xf
 7549 1a7d D804     		.2byte	0x4d8
 7550 1a7f 94110000 		.4byte	0x1194
 7551 1a83 02       		.byte	0x2
 7552 1a84 23       		.byte	0x23
 7553 1a85 00       		.uleb128 0
 7554 1a86 18       		.uleb128 0x18
 7555 1a87 75030000 		.4byte	.LASF379
 7556 1a8b 0F       		.byte	0xf
 7557 1a8c DC04     		.2byte	0x4dc
 7558 1a8e C1000000 		.4byte	0xc1
 7559 1a92 02       		.byte	0x2
 7560 1a93 23       		.byte	0x23
 7561 1a94 04       		.uleb128 0x4
 7562 1a95 00       		.byte	0
 7563 1a96 0C       		.uleb128 0xc
 7564 1a97 04130000 		.4byte	.LASF400
 7565 1a9b 0F       		.byte	0xf
 7566 1a9c DD04     		.2byte	0x4dd
 7567 1a9e 6A1A0000 		.4byte	0x1a6a
 7568 1aa2 19       		.uleb128 0x19
 7569 1aa3 AB1C0000 		.4byte	.LASF401
 7570 1aa7 01       		.byte	0x1
 7571 1aa8 0F       		.byte	0xf
 7572 1aa9 E204     		.2byte	0x4e2
 7573 1aab BF1A0000 		.4byte	0x1abf
 7574 1aaf 18       		.uleb128 0x18
 7575 1ab0 75030000 		.4byte	.LASF379
 7576 1ab4 0F       		.byte	0xf
 7577 1ab5 E704     		.2byte	0x4e7
 7578 1ab7 C1000000 		.4byte	0xc1
 7579 1abb 02       		.byte	0x2
 7580 1abc 23       		.byte	0x23
ARM GAS  C:\Users\EBANO_~1\AppData\Local\Temp\cc2nkIni.s 			page 163


 7581 1abd 00       		.uleb128 0
 7582 1abe 00       		.byte	0
 7583 1abf 0C       		.uleb128 0xc
 7584 1ac0 F1080000 		.4byte	.LASF402
 7585 1ac4 0F       		.byte	0xf
 7586 1ac5 E804     		.2byte	0x4e8
 7587 1ac7 A21A0000 		.4byte	0x1aa2
 7588 1acb 19       		.uleb128 0x19
 7589 1acc C01C0000 		.4byte	.LASF403
 7590 1ad0 10       		.byte	0x10
 7591 1ad1 0F       		.byte	0xf
 7592 1ad2 ED04     		.2byte	0x4ed
 7593 1ad4 331B0000 		.4byte	0x1b33
 7594 1ad8 18       		.uleb128 0x18
 7595 1ad9 E8190000 		.4byte	.LASF329
 7596 1add 0F       		.byte	0xf
 7597 1ade F204     		.2byte	0x4f2
 7598 1ae0 C1000000 		.4byte	0xc1
 7599 1ae4 02       		.byte	0x2
 7600 1ae5 23       		.byte	0x23
 7601 1ae6 00       		.uleb128 0
 7602 1ae7 18       		.uleb128 0x18
 7603 1ae8 1F1E0000 		.4byte	.LASF324
 7604 1aec 0F       		.byte	0xf
 7605 1aed F604     		.2byte	0x4f6
 7606 1aef B1000000 		.4byte	0xb1
 7607 1af3 02       		.byte	0x2
 7608 1af4 23       		.byte	0x23
 7609 1af5 01       		.uleb128 0x1
 7610 1af6 18       		.uleb128 0x18
 7611 1af7 F41A0000 		.4byte	.LASF341
 7612 1afb 0F       		.byte	0xf
 7613 1afc FA04     		.2byte	0x4fa
 7614 1afe B1000000 		.4byte	0xb1
 7615 1b02 02       		.byte	0x2
 7616 1b03 23       		.byte	0x23
 7617 1b04 02       		.uleb128 0x2
 7618 1b05 18       		.uleb128 0x18
 7619 1b06 64040000 		.4byte	.LASF363
 7620 1b0a 0F       		.byte	0xf
 7621 1b0b FE04     		.2byte	0x4fe
 7622 1b0d 8D110000 		.4byte	0x118d
 7623 1b11 02       		.byte	0x2
 7624 1b12 23       		.byte	0x23
 7625 1b13 04       		.uleb128 0x4
 7626 1b14 18       		.uleb128 0x18
 7627 1b15 9D130000 		.4byte	.LASF364
 7628 1b19 0F       		.byte	0xf
 7629 1b1a 0205     		.2byte	0x502
 7630 1b1c 8D110000 		.4byte	0x118d
 7631 1b20 02       		.byte	0x2
 7632 1b21 23       		.byte	0x23
 7633 1b22 08       		.uleb128 0x8
 7634 1b23 18       		.uleb128 0x18
 7635 1b24 4B0B0000 		.4byte	.LASF404
 7636 1b28 0F       		.byte	0xf
 7637 1b29 0605     		.2byte	0x506
ARM GAS  C:\Users\EBANO_~1\AppData\Local\Temp\cc2nkIni.s 			page 164


 7638 1b2b DC000000 		.4byte	0xdc
 7639 1b2f 02       		.byte	0x2
 7640 1b30 23       		.byte	0x23
 7641 1b31 0C       		.uleb128 0xc
 7642 1b32 00       		.byte	0
 7643 1b33 0C       		.uleb128 0xc
 7644 1b34 B7150000 		.4byte	.LASF405
 7645 1b38 0F       		.byte	0xf
 7646 1b39 0705     		.2byte	0x507
 7647 1b3b CB1A0000 		.4byte	0x1acb
 7648 1b3f 19       		.uleb128 0x19
 7649 1b40 88060000 		.4byte	.LASF406
 7650 1b44 0C       		.byte	0xc
 7651 1b45 0F       		.byte	0xf
 7652 1b46 0C05     		.2byte	0x50c
 7653 1b48 7A1B0000 		.4byte	0x1b7a
 7654 1b4c 18       		.uleb128 0x18
 7655 1b4d 7B1D0000 		.4byte	.LASF407
 7656 1b51 0F       		.byte	0xf
 7657 1b52 1105     		.2byte	0x511
 7658 1b54 DC000000 		.4byte	0xdc
 7659 1b58 02       		.byte	0x2
 7660 1b59 23       		.byte	0x23
 7661 1b5a 00       		.uleb128 0
 7662 1b5b 18       		.uleb128 0x18
 7663 1b5c 400F0000 		.4byte	.LASF408
 7664 1b60 0F       		.byte	0xf
 7665 1b61 1505     		.2byte	0x515
 7666 1b63 F2000000 		.4byte	0xf2
 7667 1b67 02       		.byte	0x2
 7668 1b68 23       		.byte	0x23
 7669 1b69 04       		.uleb128 0x4
 7670 1b6a 18       		.uleb128 0x18
 7671 1b6b 281D0000 		.4byte	.LASF209
 7672 1b6f 0F       		.byte	0xf
 7673 1b70 1905     		.2byte	0x519
 7674 1b72 F2000000 		.4byte	0xf2
 7675 1b76 02       		.byte	0x2
 7676 1b77 23       		.byte	0x23
 7677 1b78 08       		.uleb128 0x8
 7678 1b79 00       		.byte	0
 7679 1b7a 0C       		.uleb128 0xc
 7680 1b7b CB1F0000 		.4byte	.LASF409
 7681 1b7f 0F       		.byte	0xf
 7682 1b80 1A05     		.2byte	0x51a
 7683 1b82 3F1B0000 		.4byte	0x1b3f
 7684 1b86 11       		.uleb128 0x11
 7685 1b87 6D1B0000 		.4byte	.LASF410
 7686 1b8b 06       		.byte	0x6
 7687 1b8c 10       		.byte	0x10
 7688 1b8d 2B       		.byte	0x2b
 7689 1b8e D91B0000 		.4byte	0x1bd9
 7690 1b92 10       		.uleb128 0x10
 7691 1b93 EE040000 		.4byte	.LASF411
 7692 1b97 10       		.byte	0x10
 7693 1b98 30       		.byte	0x30
 7694 1b99 C1000000 		.4byte	0xc1
ARM GAS  C:\Users\EBANO_~1\AppData\Local\Temp\cc2nkIni.s 			page 165


 7695 1b9d 02       		.byte	0x2
 7696 1b9e 23       		.byte	0x23
 7697 1b9f 00       		.uleb128 0
 7698 1ba0 10       		.uleb128 0x10
 7699 1ba1 1F1E0000 		.4byte	.LASF324
 7700 1ba5 10       		.byte	0x10
 7701 1ba6 34       		.byte	0x34
 7702 1ba7 B1000000 		.4byte	0xb1
 7703 1bab 02       		.byte	0x2
 7704 1bac 23       		.byte	0x23
 7705 1bad 01       		.uleb128 0x1
 7706 1bae 10       		.uleb128 0x10
 7707 1baf F41A0000 		.4byte	.LASF341
 7708 1bb3 10       		.byte	0x10
 7709 1bb4 38       		.byte	0x38
 7710 1bb5 B1000000 		.4byte	0xb1
 7711 1bb9 02       		.byte	0x2
 7712 1bba 23       		.byte	0x23
 7713 1bbb 02       		.uleb128 0x2
 7714 1bbc 10       		.uleb128 0x10
 7715 1bbd A0080000 		.4byte	.LASF412
 7716 1bc1 10       		.byte	0x10
 7717 1bc2 3C       		.byte	0x3c
 7718 1bc3 C1000000 		.4byte	0xc1
 7719 1bc7 02       		.byte	0x2
 7720 1bc8 23       		.byte	0x23
 7721 1bc9 03       		.uleb128 0x3
 7722 1bca 10       		.uleb128 0x10
 7723 1bcb 3A0E0000 		.4byte	.LASF413
 7724 1bcf 10       		.byte	0x10
 7725 1bd0 40       		.byte	0x40
 7726 1bd1 DC000000 		.4byte	0xdc
 7727 1bd5 02       		.byte	0x2
 7728 1bd6 23       		.byte	0x23
 7729 1bd7 04       		.uleb128 0x4
 7730 1bd8 00       		.byte	0
 7731 1bd9 03       		.uleb128 0x3
 7732 1bda A60C0000 		.4byte	.LASF414
 7733 1bde 10       		.byte	0x10
 7734 1bdf 41       		.byte	0x41
 7735 1be0 861B0000 		.4byte	0x1b86
 7736 1be4 11       		.uleb128 0x11
 7737 1be5 14000000 		.4byte	.LASF415
 7738 1be9 20       		.byte	0x20
 7739 1bea 10       		.byte	0x10
 7740 1beb 43       		.byte	0x43
 7741 1bec D11C0000 		.4byte	0x1cd1
 7742 1bf0 10       		.uleb128 0x10
 7743 1bf1 80080000 		.4byte	.LASF368
 7744 1bf5 10       		.byte	0x10
 7745 1bf6 48       		.byte	0x48
 7746 1bf7 0F0B0000 		.4byte	0xb0f
 7747 1bfb 02       		.byte	0x2
 7748 1bfc 23       		.byte	0x23
 7749 1bfd 00       		.uleb128 0
 7750 1bfe 10       		.uleb128 0x10
 7751 1bff 8F150000 		.4byte	.LASF416
ARM GAS  C:\Users\EBANO_~1\AppData\Local\Temp\cc2nkIni.s 			page 166


 7752 1c03 10       		.byte	0x10
 7753 1c04 4C       		.byte	0x4c
 7754 1c05 C1000000 		.4byte	0xc1
 7755 1c09 02       		.byte	0x2
 7756 1c0a 23       		.byte	0x23
 7757 1c0b 04       		.uleb128 0x4
 7758 1c0c 10       		.uleb128 0x10
 7759 1c0d FB010000 		.4byte	.LASF370
 7760 1c11 10       		.byte	0x10
 7761 1c12 50       		.byte	0x50
 7762 1c13 1A0B0000 		.4byte	0xb1a
 7763 1c17 02       		.byte	0x2
 7764 1c18 23       		.byte	0x23
 7765 1c19 05       		.uleb128 0x5
 7766 1c1a 10       		.uleb128 0x10
 7767 1c1b 1F1E0000 		.4byte	.LASF324
 7768 1c1f 10       		.byte	0x10
 7769 1c20 54       		.byte	0x54
 7770 1c21 B1000000 		.4byte	0xb1
 7771 1c25 02       		.byte	0x2
 7772 1c26 23       		.byte	0x23
 7773 1c27 06       		.uleb128 0x6
 7774 1c28 10       		.uleb128 0x10
 7775 1c29 F41A0000 		.4byte	.LASF341
 7776 1c2d 10       		.byte	0x10
 7777 1c2e 58       		.byte	0x58
 7778 1c2f B1000000 		.4byte	0xb1
 7779 1c33 02       		.byte	0x2
 7780 1c34 23       		.byte	0x23
 7781 1c35 07       		.uleb128 0x7
 7782 1c36 10       		.uleb128 0x10
 7783 1c37 EE040000 		.4byte	.LASF411
 7784 1c3b 10       		.byte	0x10
 7785 1c3c 5C       		.byte	0x5c
 7786 1c3d C1000000 		.4byte	0xc1
 7787 1c41 02       		.byte	0x2
 7788 1c42 23       		.byte	0x23
 7789 1c43 08       		.uleb128 0x8
 7790 1c44 10       		.uleb128 0x10
 7791 1c45 580B0000 		.4byte	.LASF371
 7792 1c49 10       		.byte	0x10
 7793 1c4a 60       		.byte	0x60
 7794 1c4b B1000000 		.4byte	0xb1
 7795 1c4f 02       		.byte	0x2
 7796 1c50 23       		.byte	0x23
 7797 1c51 09       		.uleb128 0x9
 7798 1c52 10       		.uleb128 0x10
 7799 1c53 FD140000 		.4byte	.LASF372
 7800 1c57 10       		.byte	0x10
 7801 1c58 64       		.byte	0x64
 7802 1c59 B1000000 		.4byte	0xb1
 7803 1c5d 02       		.byte	0x2
 7804 1c5e 23       		.byte	0x23
 7805 1c5f 0A       		.uleb128 0xa
 7806 1c60 10       		.uleb128 0x10
 7807 1c61 BF1E0000 		.4byte	.LASF373
 7808 1c65 10       		.byte	0x10
ARM GAS  C:\Users\EBANO_~1\AppData\Local\Temp\cc2nkIni.s 			page 167


 7809 1c66 68       		.byte	0x68
 7810 1c67 B1000000 		.4byte	0xb1
 7811 1c6b 02       		.byte	0x2
 7812 1c6c 23       		.byte	0x23
 7813 1c6d 0B       		.uleb128 0xb
 7814 1c6e 10       		.uleb128 0x10
 7815 1c6f D70C0000 		.4byte	.LASF417
 7816 1c73 10       		.byte	0x10
 7817 1c74 6C       		.byte	0x6c
 7818 1c75 C1000000 		.4byte	0xc1
 7819 1c79 02       		.byte	0x2
 7820 1c7a 23       		.byte	0x23
 7821 1c7b 0C       		.uleb128 0xc
 7822 1c7c 10       		.uleb128 0x10
 7823 1c7d F41D0000 		.4byte	.LASF318
 7824 1c81 10       		.byte	0x10
 7825 1c82 70       		.byte	0x70
 7826 1c83 9A110000 		.4byte	0x119a
 7827 1c87 02       		.byte	0x2
 7828 1c88 23       		.byte	0x23
 7829 1c89 10       		.uleb128 0x10
 7830 1c8a 10       		.uleb128 0x10
 7831 1c8b 7B040000 		.4byte	.LASF418
 7832 1c8f 10       		.byte	0x10
 7833 1c90 74       		.byte	0x74
 7834 1c91 B1000000 		.4byte	0xb1
 7835 1c95 02       		.byte	0x2
 7836 1c96 23       		.byte	0x23
 7837 1c97 14       		.uleb128 0x14
 7838 1c98 10       		.uleb128 0x10
 7839 1c99 E5080000 		.4byte	.LASF419
 7840 1c9d 10       		.byte	0x10
 7841 1c9e 78       		.byte	0x78
 7842 1c9f B1000000 		.4byte	0xb1
 7843 1ca3 02       		.byte	0x2
 7844 1ca4 23       		.byte	0x23
 7845 1ca5 15       		.uleb128 0x15
 7846 1ca6 10       		.uleb128 0x10
 7847 1ca7 ED0D0000 		.4byte	.LASF319
 7848 1cab 10       		.byte	0x10
 7849 1cac 7C       		.byte	0x7c
 7850 1cad 94110000 		.4byte	0x1194
 7851 1cb1 02       		.byte	0x2
 7852 1cb2 23       		.byte	0x23
 7853 1cb3 18       		.uleb128 0x18
 7854 1cb4 10       		.uleb128 0x10
 7855 1cb5 CB020000 		.4byte	.LASF420
 7856 1cb9 10       		.byte	0x10
 7857 1cba 80       		.byte	0x80
 7858 1cbb B1000000 		.4byte	0xb1
 7859 1cbf 02       		.byte	0x2
 7860 1cc0 23       		.byte	0x23
 7861 1cc1 1C       		.uleb128 0x1c
 7862 1cc2 10       		.uleb128 0x10
 7863 1cc3 27050000 		.4byte	.LASF421
 7864 1cc7 10       		.byte	0x10
 7865 1cc8 84       		.byte	0x84
ARM GAS  C:\Users\EBANO_~1\AppData\Local\Temp\cc2nkIni.s 			page 168


 7866 1cc9 B1000000 		.4byte	0xb1
 7867 1ccd 02       		.byte	0x2
 7868 1cce 23       		.byte	0x23
 7869 1ccf 1D       		.uleb128 0x1d
 7870 1cd0 00       		.byte	0
 7871 1cd1 03       		.uleb128 0x3
 7872 1cd2 D8140000 		.4byte	.LASF422
 7873 1cd6 10       		.byte	0x10
 7874 1cd7 85       		.byte	0x85
 7875 1cd8 E41B0000 		.4byte	0x1be4
 7876 1cdc 11       		.uleb128 0x11
 7877 1cdd C8180000 		.4byte	.LASF423
 7878 1ce1 14       		.byte	0x14
 7879 1ce2 10       		.byte	0x10
 7880 1ce3 87       		.byte	0x87
 7881 1ce4 591D0000 		.4byte	0x1d59
 7882 1ce8 10       		.uleb128 0x10
 7883 1ce9 ED0D0000 		.4byte	.LASF319
 7884 1ced 10       		.byte	0x10
 7885 1cee 8C       		.byte	0x8c
 7886 1cef 94110000 		.4byte	0x1194
 7887 1cf3 02       		.byte	0x2
 7888 1cf4 23       		.byte	0x23
 7889 1cf5 00       		.uleb128 0
 7890 1cf6 10       		.uleb128 0x10
 7891 1cf7 0C150000 		.4byte	.LASF424
 7892 1cfb 10       		.byte	0x10
 7893 1cfc 90       		.byte	0x90
 7894 1cfd 591D0000 		.4byte	0x1d59
 7895 1d01 02       		.byte	0x2
 7896 1d02 23       		.byte	0x23
 7897 1d03 04       		.uleb128 0x4
 7898 1d04 10       		.uleb128 0x10
 7899 1d05 F7210000 		.4byte	.LASF390
 7900 1d09 10       		.byte	0x10
 7901 1d0a 94       		.byte	0x94
 7902 1d0b 1A0B0000 		.4byte	0xb1a
 7903 1d0f 02       		.byte	0x2
 7904 1d10 23       		.byte	0x23
 7905 1d11 08       		.uleb128 0x8
 7906 1d12 10       		.uleb128 0x10
 7907 1d13 41110000 		.4byte	.LASF330
 7908 1d17 10       		.byte	0x10
 7909 1d18 98       		.byte	0x98
 7910 1d19 1A0B0000 		.4byte	0xb1a
 7911 1d1d 02       		.byte	0x2
 7912 1d1e 23       		.byte	0x23
 7913 1d1f 09       		.uleb128 0x9
 7914 1d20 10       		.uleb128 0x10
 7915 1d21 F3130000 		.4byte	.LASF391
 7916 1d25 10       		.byte	0x10
 7917 1d26 9C       		.byte	0x9c
 7918 1d27 1A0B0000 		.4byte	0xb1a
 7919 1d2b 02       		.byte	0x2
 7920 1d2c 23       		.byte	0x23
 7921 1d2d 0A       		.uleb128 0xa
 7922 1d2e 10       		.uleb128 0x10
ARM GAS  C:\Users\EBANO_~1\AppData\Local\Temp\cc2nkIni.s 			page 169


 7923 1d2f E8190000 		.4byte	.LASF329
 7924 1d33 10       		.byte	0x10
 7925 1d34 A0       		.byte	0xa0
 7926 1d35 C1000000 		.4byte	0xc1
 7927 1d39 02       		.byte	0x2
 7928 1d3a 23       		.byte	0x23
 7929 1d3b 0B       		.uleb128 0xb
 7930 1d3c 10       		.uleb128 0x10
 7931 1d3d B00E0000 		.4byte	.LASF392
 7932 1d41 10       		.byte	0x10
 7933 1d42 A4       		.byte	0xa4
 7934 1d43 9C0A0000 		.4byte	0xa9c
 7935 1d47 02       		.byte	0x2
 7936 1d48 23       		.byte	0x23
 7937 1d49 0C       		.uleb128 0xc
 7938 1d4a 10       		.uleb128 0x10
 7939 1d4b 1A020000 		.4byte	.LASF393
 7940 1d4f 10       		.byte	0x10
 7941 1d50 A8       		.byte	0xa8
 7942 1d51 9C0A0000 		.4byte	0xa9c
 7943 1d55 02       		.byte	0x2
 7944 1d56 23       		.byte	0x23
 7945 1d57 10       		.uleb128 0x10
 7946 1d58 00       		.byte	0
 7947 1d59 0A       		.uleb128 0xa
 7948 1d5a 04       		.byte	0x4
 7949 1d5b 7A0B0000 		.4byte	0xb7a
 7950 1d5f 03       		.uleb128 0x3
 7951 1d60 AB1B0000 		.4byte	.LASF425
 7952 1d64 10       		.byte	0x10
 7953 1d65 A9       		.byte	0xa9
 7954 1d66 DC1C0000 		.4byte	0x1cdc
 7955 1d6a 11       		.uleb128 0x11
 7956 1d6b 24040000 		.4byte	.LASF426
 7957 1d6f 14       		.byte	0x14
 7958 1d70 10       		.byte	0x10
 7959 1d71 AB       		.byte	0xab
 7960 1d72 D91D0000 		.4byte	0x1dd9
 7961 1d76 10       		.uleb128 0x10
 7962 1d77 91000000 		.4byte	.LASF427
 7963 1d7b 10       		.byte	0x10
 7964 1d7c B0       		.byte	0xb0
 7965 1d7d D91D0000 		.4byte	0x1dd9
 7966 1d81 02       		.byte	0x2
 7967 1d82 23       		.byte	0x23
 7968 1d83 00       		.uleb128 0
 7969 1d84 10       		.uleb128 0x10
 7970 1d85 281D0000 		.4byte	.LASF209
 7971 1d89 10       		.byte	0x10
 7972 1d8a B4       		.byte	0xb4
 7973 1d8b F2000000 		.4byte	0xf2
 7974 1d8f 02       		.byte	0x2
 7975 1d90 23       		.byte	0x23
 7976 1d91 04       		.uleb128 0x4
 7977 1d92 10       		.uleb128 0x10
 7978 1d93 45040000 		.4byte	.LASF312
 7979 1d97 10       		.byte	0x10
ARM GAS  C:\Users\EBANO_~1\AppData\Local\Temp\cc2nkIni.s 			page 170


 7980 1d98 B8       		.byte	0xb8
 7981 1d99 C1000000 		.4byte	0xc1
 7982 1d9d 02       		.byte	0x2
 7983 1d9e 23       		.byte	0x23
 7984 1d9f 08       		.uleb128 0x8
 7985 1da0 10       		.uleb128 0x10
 7986 1da1 D6060000 		.4byte	.LASF428
 7987 1da5 10       		.byte	0x10
 7988 1da6 BC       		.byte	0xbc
 7989 1da7 C1000000 		.4byte	0xc1
 7990 1dab 02       		.byte	0x2
 7991 1dac 23       		.byte	0x23
 7992 1dad 09       		.uleb128 0x9
 7993 1dae 10       		.uleb128 0x10
 7994 1daf 28130000 		.4byte	.LASF429
 7995 1db3 10       		.byte	0x10
 7996 1db4 C0       		.byte	0xc0
 7997 1db5 C1000000 		.4byte	0xc1
 7998 1db9 02       		.byte	0x2
 7999 1dba 23       		.byte	0x23
 8000 1dbb 0A       		.uleb128 0xa
 8001 1dbc 10       		.uleb128 0x10
 8002 1dbd 400F0000 		.4byte	.LASF408
 8003 1dc1 10       		.byte	0x10
 8004 1dc2 C4       		.byte	0xc4
 8005 1dc3 F2000000 		.4byte	0xf2
 8006 1dc7 02       		.byte	0x2
 8007 1dc8 23       		.byte	0x23
 8008 1dc9 0C       		.uleb128 0xc
 8009 1dca 10       		.uleb128 0x10
 8010 1dcb 7B1D0000 		.4byte	.LASF407
 8011 1dcf 10       		.byte	0x10
 8012 1dd0 C8       		.byte	0xc8
 8013 1dd1 DC000000 		.4byte	0xdc
 8014 1dd5 02       		.byte	0x2
 8015 1dd6 23       		.byte	0x23
 8016 1dd7 10       		.uleb128 0x10
 8017 1dd8 00       		.byte	0
 8018 1dd9 0A       		.uleb128 0xa
 8019 1dda 04       		.byte	0x4
 8020 1ddb CC000000 		.4byte	0xcc
 8021 1ddf 03       		.uleb128 0x3
 8022 1de0 56010000 		.4byte	.LASF430
 8023 1de4 10       		.byte	0x10
 8024 1de5 C9       		.byte	0xc9
 8025 1de6 6A1D0000 		.4byte	0x1d6a
 8026 1dea 29       		.uleb128 0x29
 8027 1deb A9050000 		.4byte	.LASF432
 8028 1def 11       		.byte	0x11
 8029 1df0 1E01     		.2byte	0x11e
 8030 1df2 41010000 		.4byte	0x141
 8031 1df6 05       		.byte	0x5
 8032 1df7 03       		.byte	0x3
 8033 1df8 0C010000 		.4byte	DataratesAS923
 8034 1dfc 07       		.uleb128 0x7
 8035 1dfd FD000000 		.4byte	0xfd
 8036 1e01 0C1E0000 		.4byte	0x1e0c
ARM GAS  C:\Users\EBANO_~1\AppData\Local\Temp\cc2nkIni.s 			page 171


 8037 1e05 08       		.uleb128 0x8
 8038 1e06 AA000000 		.4byte	0xaa
 8039 1e0a 07       		.byte	0x7
 8040 1e0b 00       		.byte	0
 8041 1e0c 05       		.uleb128 0x5
 8042 1e0d FC1D0000 		.4byte	0x1dfc
 8043 1e11 29       		.uleb128 0x29
 8044 1e12 57150000 		.4byte	.LASF433
 8045 1e16 11       		.byte	0x11
 8046 1e17 2301     		.2byte	0x123
 8047 1e19 0C1E0000 		.4byte	0x1e0c
 8048 1e1d 05       		.byte	0x5
 8049 1e1e 03       		.byte	0x3
 8050 1e1f EC000000 		.4byte	BandwidthsAS923
 8051 1e23 29       		.uleb128 0x29
 8052 1e24 83170000 		.4byte	.LASF434
 8053 1e28 11       		.byte	0x11
 8054 1e29 2901     		.2byte	0x129
 8055 1e2b 41010000 		.4byte	0x141
 8056 1e2f 05       		.byte	0x5
 8057 1e30 03       		.byte	0x3
 8058 1e31 1C010000 		.4byte	MaxPayloadOfDatarateDwell0AS923
 8059 1e35 29       		.uleb128 0x29
 8060 1e36 700B0000 		.4byte	.LASF435
 8061 1e3a 11       		.byte	0x11
 8062 1e3b 3001     		.2byte	0x130
 8063 1e3d 41010000 		.4byte	0x141
 8064 1e41 05       		.byte	0x5
 8065 1e42 03       		.byte	0x3
 8066 1e43 2C010000 		.4byte	MaxPayloadOfDatarateRepeaterDwell0AS923
 8067 1e47 29       		.uleb128 0x29
 8068 1e48 0E140000 		.4byte	.LASF436
 8069 1e4c 11       		.byte	0x11
 8070 1e4d 3601     		.2byte	0x136
 8071 1e4f 41010000 		.4byte	0x141
 8072 1e53 05       		.byte	0x5
 8073 1e54 03       		.byte	0x3
 8074 1e55 24010000 		.4byte	MaxPayloadOfDatarateDwell1UpAS923
 8075 1e59 27       		.uleb128 0x27
 8076 1e5a 441D0000 		.4byte	.LASF437
 8077 1e5e 11       		.byte	0x11
 8078 1e5f 3C01     		.2byte	0x13c
 8079 1e61 41010000 		.4byte	0x141
 8080 1e65 08       		.byte	0x8
 8081 1e66 00       		.byte	0
 8082 1e67 00       		.byte	0
 8083 1e68 0B       		.byte	0xb
 8084 1e69 35       		.byte	0x35
 8085 1e6a 7E       		.byte	0x7e
 8086 1e6b F2       		.byte	0xf2
 8087 1e6c F2       		.byte	0xf2
 8088 1e6d F2       		.byte	0xf2
 8089 1e6e 07       		.uleb128 0x7
 8090 1e6f BC000000 		.4byte	0xbc
 8091 1e73 7E1E0000 		.4byte	0x1e7e
 8092 1e77 08       		.uleb128 0x8
 8093 1e78 AA000000 		.4byte	0xaa
ARM GAS  C:\Users\EBANO_~1\AppData\Local\Temp\cc2nkIni.s 			page 172


 8094 1e7c 07       		.byte	0x7
 8095 1e7d 00       		.byte	0
 8096 1e7e 05       		.uleb128 0x5
 8097 1e7f 6E1E0000 		.4byte	0x1e6e
 8098 1e83 29       		.uleb128 0x29
 8099 1e84 1E080000 		.4byte	.LASF438
 8100 1e88 11       		.byte	0x11
 8101 1e89 4101     		.2byte	0x141
 8102 1e8b 7E1E0000 		.4byte	0x1e7e
 8103 1e8f 05       		.byte	0x5
 8104 1e90 03       		.byte	0x3
 8105 1e91 14010000 		.4byte	EffectiveRx1DrOffsetAS923
 8106 1e95 11       		.uleb128 0x11
 8107 1e96 CD030000 		.4byte	.LASF439
 8108 1e9a D4       		.byte	0xd4
 8109 1e9b 01       		.byte	0x1
 8110 1e9c 2B       		.byte	0x2b
 8111 1e9d DD1E0000 		.4byte	0x1edd
 8112 1ea1 10       		.uleb128 0x10
 8113 1ea2 ED0D0000 		.4byte	.LASF319
 8114 1ea6 01       		.byte	0x1
 8115 1ea7 30       		.byte	0x30
 8116 1ea8 DD1E0000 		.4byte	0x1edd
 8117 1eac 02       		.byte	0x2
 8118 1ead 23       		.byte	0x23
 8119 1eae 00       		.uleb128 0
 8120 1eaf 10       		.uleb128 0x10
 8121 1eb0 0C150000 		.4byte	.LASF424
 8122 1eb4 01       		.byte	0x1
 8123 1eb5 34       		.byte	0x34
 8124 1eb6 ED1E0000 		.4byte	0x1eed
 8125 1eba 03       		.byte	0x3
 8126 1ebb 23       		.byte	0x23
 8127 1ebc C001     		.uleb128 0xc0
 8128 1ebe 10       		.uleb128 0x10
 8129 1ebf F41D0000 		.4byte	.LASF318
 8130 1ec3 01       		.byte	0x1
 8131 1ec4 38       		.byte	0x38
 8132 1ec5 FD1E0000 		.4byte	0x1efd
 8133 1ec9 03       		.byte	0x3
 8134 1eca 23       		.byte	0x23
 8135 1ecb D001     		.uleb128 0xd0
 8136 1ecd 10       		.uleb128 0x10
 8137 1ece 44160000 		.4byte	.LASF440
 8138 1ed2 01       		.byte	0x1
 8139 1ed3 3C       		.byte	0x3c
 8140 1ed4 FD1E0000 		.4byte	0x1efd
 8141 1ed8 03       		.byte	0x3
 8142 1ed9 23       		.byte	0x23
 8143 1eda D201     		.uleb128 0xd2
 8144 1edc 00       		.byte	0
 8145 1edd 07       		.uleb128 0x7
 8146 1ede 46110000 		.4byte	0x1146
 8147 1ee2 ED1E0000 		.4byte	0x1eed
 8148 1ee6 08       		.uleb128 0x8
 8149 1ee7 AA000000 		.4byte	0xaa
 8150 1eeb 0F       		.byte	0xf
ARM GAS  C:\Users\EBANO_~1\AppData\Local\Temp\cc2nkIni.s 			page 173


 8151 1eec 00       		.byte	0
 8152 1eed 07       		.uleb128 0x7
 8153 1eee 7A0B0000 		.4byte	0xb7a
 8154 1ef2 FD1E0000 		.4byte	0x1efd
 8155 1ef6 08       		.uleb128 0x8
 8156 1ef7 AA000000 		.4byte	0xaa
 8157 1efb 00       		.byte	0
 8158 1efc 00       		.byte	0
 8159 1efd 07       		.uleb128 0x7
 8160 1efe DC000000 		.4byte	0xdc
 8161 1f02 0D1F0000 		.4byte	0x1f0d
 8162 1f06 08       		.uleb128 0x8
 8163 1f07 AA000000 		.4byte	0xaa
 8164 1f0b 00       		.byte	0
 8165 1f0c 00       		.byte	0
 8166 1f0d 03       		.uleb128 0x3
 8167 1f0e BD010000 		.4byte	.LASF441
 8168 1f12 01       		.byte	0x1
 8169 1f13 3D       		.byte	0x3d
 8170 1f14 951E0000 		.4byte	0x1e95
 8171 1f18 2A       		.uleb128 0x2a
 8172 1f19 C41F0000 		.4byte	.LASF333
 8173 1f1d 01       		.byte	0x1
 8174 1f1e 42       		.byte	0x42
 8175 1f1f 0D1F0000 		.4byte	0x1f0d
 8176 1f23 05       		.byte	0x5
 8177 1f24 03       		.byte	0x3
 8178 1f25 00000000 		.4byte	NvmCtx
 8179 1f29 2B       		.uleb128 0x2b
 8180 1f2a 01       		.byte	0x1
 8181 1f2b D51B0000 		.4byte	.LASF448
 8182 1f2f 01       		.byte	0x1
 8183 1f30 3404     		.2byte	0x434
 8184 1f32 01       		.byte	0x1
 8185 1f33 00000000 		.4byte	.LFB66
 8186 1f37 38000000 		.4byte	.LFE66
 8187 1f3b 00000000 		.4byte	.LLST121
 8188 1f3f 01       		.byte	0x1
 8189 1f40 841F0000 		.4byte	0x1f84
 8190 1f44 2C       		.uleb128 0x2c
 8191 1f45 9D1C0000 		.4byte	.LASF442
 8192 1f49 01       		.byte	0x1
 8193 1f4a 3404     		.2byte	0x434
 8194 1f4c 841F0000 		.4byte	0x1f84
 8195 1f50 2C000000 		.4byte	.LLST122
 8196 1f54 2C       		.uleb128 0x2c
 8197 1f55 730E0000 		.4byte	.LASF443
 8198 1f59 01       		.byte	0x1
 8199 1f5a 3404     		.2byte	0x434
 8200 1f5c 890A0000 		.4byte	0xa89
 8201 1f60 4D000000 		.4byte	.LLST123
 8202 1f64 29       		.uleb128 0x29
 8203 1f65 951E0000 		.4byte	.LASF444
 8204 1f69 01       		.byte	0x1
 8205 1f6a 3604     		.2byte	0x436
 8206 1f6c DF1D0000 		.4byte	0x1ddf
 8207 1f70 02       		.byte	0x2
ARM GAS  C:\Users\EBANO_~1\AppData\Local\Temp\cc2nkIni.s 			page 174


 8208 1f71 91       		.byte	0x91
 8209 1f72 64       		.sleb128 -28
 8210 1f73 2D       		.uleb128 0x2d
 8211 1f74 28000000 		.4byte	.LVL354
 8212 1f78 76330000 		.4byte	0x3376
 8213 1f7c 2E       		.uleb128 0x2e
 8214 1f7d 01       		.byte	0x1
 8215 1f7e 50       		.byte	0x50
 8216 1f7f 02       		.byte	0x2
 8217 1f80 91       		.byte	0x91
 8218 1f81 64       		.sleb128 -28
 8219 1f82 00       		.byte	0
 8220 1f83 00       		.byte	0
 8221 1f84 0A       		.uleb128 0xa
 8222 1f85 04       		.byte	0x4
 8223 1f86 7A1B0000 		.4byte	0x1b7a
 8224 1f8a 2F       		.uleb128 0x2f
 8225 1f8b 01       		.byte	0x1
 8226 1f8c 9B000000 		.4byte	.LASF460
 8227 1f90 01       		.byte	0x1
 8228 1f91 2504     		.2byte	0x425
 8229 1f93 01       		.byte	0x1
 8230 1f94 C1000000 		.4byte	0xc1
 8231 1f98 00000000 		.4byte	.LFB65
 8232 1f9c 28000000 		.4byte	.LFE65
 8233 1fa0 02       		.byte	0x2
 8234 1fa1 7D       		.byte	0x7d
 8235 1fa2 00       		.sleb128 0
 8236 1fa3 01       		.byte	0x1
 8237 1fa4 E81F0000 		.4byte	0x1fe8
 8238 1fa8 2C       		.uleb128 0x2c
 8239 1fa9 DD1A0000 		.4byte	.LASF445
 8240 1fad 01       		.byte	0x1
 8241 1fae 2504     		.2byte	0x425
 8242 1fb0 C1000000 		.4byte	0xc1
 8243 1fb4 79000000 		.4byte	.LLST117
 8244 1fb8 30       		.uleb128 0x30
 8245 1fb9 647200   		.ascii	"dr\000"
 8246 1fbc 01       		.byte	0x1
 8247 1fbd 2504     		.2byte	0x425
 8248 1fbf B1000000 		.4byte	0xb1
 8249 1fc3 9A000000 		.4byte	.LLST118
 8250 1fc7 2C       		.uleb128 0x2c
 8251 1fc8 5E210000 		.4byte	.LASF446
 8252 1fcc 01       		.byte	0x1
 8253 1fcd 2504     		.2byte	0x425
 8254 1fcf B1000000 		.4byte	0xb1
 8255 1fd3 BB000000 		.4byte	.LLST119
 8256 1fd7 31       		.uleb128 0x31
 8257 1fd8 8E0E0000 		.4byte	.LASF447
 8258 1fdc 01       		.byte	0x1
 8259 1fdd 2804     		.2byte	0x428
 8260 1fdf B1000000 		.4byte	0xb1
 8261 1fe3 DC000000 		.4byte	.LLST120
 8262 1fe7 00       		.byte	0
 8263 1fe8 2B       		.uleb128 0x2b
 8264 1fe9 01       		.byte	0x1
ARM GAS  C:\Users\EBANO_~1\AppData\Local\Temp\cc2nkIni.s 			page 175


 8265 1fea 0C030000 		.4byte	.LASF449
 8266 1fee 01       		.byte	0x1
 8267 1fef 1904     		.2byte	0x419
 8268 1ff1 01       		.byte	0x1
 8269 1ff2 00000000 		.4byte	.LFB64
 8270 1ff6 50000000 		.4byte	.LFE64
 8271 1ffa F0000000 		.4byte	.LLST112
 8272 1ffe 01       		.byte	0x1
 8273 1fff 94200000 		.4byte	0x2094
 8274 2003 2C       		.uleb128 0x2c
 8275 2004 6E060000 		.4byte	.LASF450
 8276 2008 01       		.byte	0x1
 8277 2009 1904     		.2byte	0x419
 8278 200b 94200000 		.4byte	0x2094
 8279 200f 1C010000 		.4byte	.LLST113
 8280 2013 32       		.uleb128 0x32
 8281 2014 30140000 		.4byte	.LASF453
 8282 2018 01       		.byte	0x1
 8283 2019 1B04     		.2byte	0x41b
 8284 201b B1000000 		.4byte	0xb1
 8285 201f 31       		.uleb128 0x31
 8286 2020 7D060000 		.4byte	.LASF451
 8287 2024 01       		.byte	0x1
 8288 2025 1C04     		.2byte	0x41c
 8289 2027 B1000000 		.4byte	0xb1
 8290 202b 48010000 		.4byte	.LLST114
 8291 202f 31       		.uleb128 0x31
 8292 2030 8D200000 		.4byte	.LASF452
 8293 2034 01       		.byte	0x1
 8294 2035 1D04     		.2byte	0x41d
 8295 2037 F2000000 		.4byte	0xf2
 8296 203b 67010000 		.4byte	.LLST115
 8297 203f 33       		.uleb128 0x33
 8298 2040 BA310000 		.4byte	0x31ba
 8299 2044 14000000 		.4byte	.LBB141
 8300 2048 08020000 		.4byte	.Ldebug_ranges0+0x208
 8301 204c 01       		.byte	0x1
 8302 204d 1B04     		.2byte	0x41b
 8303 204f 7E200000 		.4byte	0x207e
 8304 2053 34       		.uleb128 0x34
 8305 2054 E1310000 		.4byte	0x31e1
 8306 2058 7A010000 		.4byte	.LLST116
 8307 205c 35       		.uleb128 0x35
 8308 205d EC310000 		.4byte	0x31ec
 8309 2061 06       		.byte	0x6
 8310 2062 03       		.byte	0x3
 8311 2063 D0000000 		.4byte	NvmCtx+208
 8312 2067 9F       		.byte	0x9f
 8313 2068 36       		.uleb128 0x36
 8314 2069 D6310000 		.4byte	0x31d6
 8315 206d 36       		.uleb128 0x36
 8316 206e CB310000 		.4byte	0x31cb
 8317 2072 37       		.uleb128 0x37
 8318 2073 08020000 		.4byte	.Ldebug_ranges0+0x208
 8319 2077 38       		.uleb128 0x38
 8320 2078 F7310000 		.4byte	0x31f7
 8321 207c 00       		.byte	0
ARM GAS  C:\Users\EBANO_~1\AppData\Local\Temp\cc2nkIni.s 			page 176


 8322 207d 00       		.byte	0
 8323 207e 39       		.uleb128 0x39
 8324 207f 36000000 		.4byte	.LVL342
 8325 2083 84330000 		.4byte	0x3384
 8326 2087 3A       		.uleb128 0x3a
 8327 2088 44000000 		.4byte	.LVL344
 8328 208c 2E       		.uleb128 0x2e
 8329 208d 01       		.byte	0x1
 8330 208e 50       		.byte	0x50
 8331 208f 02       		.byte	0x2
 8332 2090 75       		.byte	0x75
 8333 2091 00       		.sleb128 0
 8334 2092 00       		.byte	0
 8335 2093 00       		.byte	0
 8336 2094 0A       		.uleb128 0xa
 8337 2095 04       		.byte	0x4
 8338 2096 331B0000 		.4byte	0x1b33
 8339 209a 3B       		.uleb128 0x3b
 8340 209b 01       		.byte	0x1
 8341 209c 11190000 		.4byte	.LASF454
 8342 20a0 01       		.byte	0x1
 8343 20a1 0A04     		.2byte	0x40a
 8344 20a3 01       		.byte	0x1
 8345 20a4 1A0B0000 		.4byte	0xb1a
 8346 20a8 01       		.byte	0x1
 8347 20a9 C5200000 		.4byte	0x20c5
 8348 20ad 3C       		.uleb128 0x3c
 8349 20ae 62200000 		.4byte	.LASF456
 8350 20b2 01       		.byte	0x1
 8351 20b3 0A04     		.2byte	0x40a
 8352 20b5 C5200000 		.4byte	0x20c5
 8353 20b9 3D       		.uleb128 0x3d
 8354 20ba 696400   		.ascii	"id\000"
 8355 20bd 01       		.byte	0x1
 8356 20be 0C04     		.2byte	0x40c
 8357 20c0 C1000000 		.4byte	0xc1
 8358 20c4 00       		.byte	0
 8359 20c5 0A       		.uleb128 0xa
 8360 20c6 04       		.byte	0x4
 8361 20c7 BF1A0000 		.4byte	0x1abf
 8362 20cb 3B       		.uleb128 0x3b
 8363 20cc 01       		.byte	0x1
 8364 20cd 3F140000 		.4byte	.LASF455
 8365 20d1 01       		.byte	0x1
 8366 20d2 CF03     		.2byte	0x3cf
 8367 20d4 01       		.byte	0x1
 8368 20d5 3D120000 		.4byte	0x123d
 8369 20d9 01       		.byte	0x1
 8370 20da 0E210000 		.4byte	0x210e
 8371 20de 3C       		.uleb128 0x3c
 8372 20df D7130000 		.4byte	.LASF457
 8373 20e3 01       		.byte	0x1
 8374 20e4 CF03     		.2byte	0x3cf
 8375 20e6 0E210000 		.4byte	0x210e
 8376 20ea 32       		.uleb128 0x32
 8377 20eb ED210000 		.4byte	.LASF458
 8378 20ef 01       		.byte	0x1
ARM GAS  C:\Users\EBANO_~1\AppData\Local\Temp\cc2nkIni.s 			page 177


 8379 20f0 D103     		.2byte	0x3d1
 8380 20f2 1A0B0000 		.4byte	0xb1a
 8381 20f6 32       		.uleb128 0x32
 8382 20f7 A9210000 		.4byte	.LASF459
 8383 20fb 01       		.byte	0x1
 8384 20fc D203     		.2byte	0x3d2
 8385 20fe 1A0B0000 		.4byte	0xb1a
 8386 2102 3D       		.uleb128 0x3d
 8387 2103 696400   		.ascii	"id\000"
 8388 2106 01       		.byte	0x1
 8389 2107 D303     		.2byte	0x3d3
 8390 2109 C1000000 		.4byte	0xc1
 8391 210d 00       		.byte	0
 8392 210e 0A       		.uleb128 0xa
 8393 210f 04       		.byte	0x4
 8394 2110 961A0000 		.4byte	0x1a96
 8395 2114 3E       		.uleb128 0x3e
 8396 2115 01       		.byte	0x1
 8397 2116 0B1D0000 		.4byte	.LASF461
 8398 211a 01       		.byte	0x1
 8399 211b 8D03     		.2byte	0x38d
 8400 211d 01       		.byte	0x1
 8401 211e 3D120000 		.4byte	0x123d
 8402 2122 00000000 		.4byte	.LFB61
 8403 2126 08020000 		.4byte	.LFE61
 8404 212a 9A010000 		.4byte	.LLST80
 8405 212e 01       		.byte	0x1
 8406 212f 48230000 		.4byte	0x2348
 8407 2133 2C       		.uleb128 0x2c
 8408 2134 FC180000 		.4byte	.LASF462
 8409 2138 01       		.byte	0x1
 8410 2139 8D03     		.2byte	0x38d
 8411 213b 48230000 		.4byte	0x2348
 8412 213f D3010000 		.4byte	.LLST81
 8413 2143 2C       		.uleb128 0x2c
 8414 2144 02100000 		.4byte	.LASF463
 8415 2148 01       		.byte	0x1
 8416 2149 8D03     		.2byte	0x38d
 8417 214b 890A0000 		.4byte	0xa89
 8418 214f 18020000 		.4byte	.LLST82
 8419 2153 2C       		.uleb128 0x2c
 8420 2154 B60A0000 		.4byte	.LASF464
 8421 2158 01       		.byte	0x1
 8422 2159 8D03     		.2byte	0x38d
 8423 215b 4E230000 		.4byte	0x234e
 8424 215f 37020000 		.4byte	.LLST83
 8425 2163 2C       		.uleb128 0x2c
 8426 2164 0C0E0000 		.4byte	.LASF465
 8427 2168 01       		.byte	0x1
 8428 2169 8D03     		.2byte	0x38d
 8429 216b 4E230000 		.4byte	0x234e
 8430 216f 6E020000 		.4byte	.LLST84
 8431 2173 31       		.uleb128 0x31
 8432 2174 3E150000 		.4byte	.LASF466
 8433 2178 01       		.byte	0x1
 8434 2179 8F03     		.2byte	0x38f
 8435 217b C1000000 		.4byte	0xc1
ARM GAS  C:\Users\EBANO_~1\AppData\Local\Temp\cc2nkIni.s 			page 178


 8436 217f CC020000 		.4byte	.LLST85
 8437 2183 31       		.uleb128 0x31
 8438 2184 D5160000 		.4byte	.LASF467
 8439 2188 01       		.byte	0x1
 8440 2189 9003     		.2byte	0x390
 8441 218b C1000000 		.4byte	0xc1
 8442 218f 19030000 		.4byte	.LLST86
 8443 2193 31       		.uleb128 0x31
 8444 2194 19070000 		.4byte	.LASF468
 8445 2198 01       		.byte	0x1
 8446 2199 9103     		.2byte	0x391
 8447 219b C1000000 		.4byte	0xc1
 8448 219f 51030000 		.4byte	.LLST87
 8449 21a3 29       		.uleb128 0x29
 8450 21a4 A51A0000 		.4byte	.LASF469
 8451 21a8 01       		.byte	0x1
 8452 21a9 9203     		.2byte	0x392
 8453 21ab 54230000 		.4byte	0x2354
 8454 21af 02       		.byte	0x2
 8455 21b0 91       		.byte	0x91
 8456 21b1 48       		.sleb128 -56
 8457 21b2 31       		.uleb128 0x31
 8458 21b3 77170000 		.4byte	.LASF470
 8459 21b7 01       		.byte	0x1
 8460 21b8 9303     		.2byte	0x393
 8461 21ba 9C0A0000 		.4byte	0xa9c
 8462 21be B0030000 		.4byte	.LLST88
 8463 21c2 3F       		.uleb128 0x3f
 8464 21c3 92010000 		.4byte	.LBB131
 8465 21c7 E6010000 		.4byte	.LBE131
 8466 21cb 1B220000 		.4byte	0x221b
 8467 21cf 40       		.uleb128 0x40
 8468 21d0 6900     		.ascii	"i\000"
 8469 21d2 01       		.byte	0x1
 8470 21d3 AF03     		.2byte	0x3af
 8471 21d5 C1000000 		.4byte	0xc1
 8472 21d9 0D040000 		.4byte	.LLST101
 8473 21dd 40       		.uleb128 0x40
 8474 21de 6A00     		.ascii	"j\000"
 8475 21e0 01       		.byte	0x1
 8476 21e1 AF03     		.2byte	0x3af
 8477 21e3 C1000000 		.4byte	0xc1
 8478 21e7 21040000 		.4byte	.LLST102
 8479 21eb 41       		.uleb128 0x41
 8480 21ec 9A010000 		.4byte	.LVL297
 8481 21f0 92330000 		.4byte	0x3392
 8482 21f4 04220000 		.4byte	0x2204
 8483 21f8 2E       		.uleb128 0x2e
 8484 21f9 01       		.byte	0x1
 8485 21fa 50       		.byte	0x50
 8486 21fb 01       		.byte	0x1
 8487 21fc 30       		.byte	0x30
 8488 21fd 2E       		.uleb128 0x2e
 8489 21fe 01       		.byte	0x1
 8490 21ff 51       		.byte	0x51
 8491 2200 02       		.byte	0x2
 8492 2201 77       		.byte	0x77
ARM GAS  C:\Users\EBANO_~1\AppData\Local\Temp\cc2nkIni.s 			page 179


 8493 2202 7F       		.sleb128 -1
 8494 2203 00       		.byte	0
 8495 2204 3A       		.uleb128 0x3a
 8496 2205 D4010000 		.4byte	.LVL304
 8497 2209 2E       		.uleb128 0x2e
 8498 220a 01       		.byte	0x1
 8499 220b 50       		.byte	0x50
 8500 220c 01       		.byte	0x1
 8501 220d 31       		.byte	0x31
 8502 220e 2E       		.uleb128 0x2e
 8503 220f 01       		.byte	0x1
 8504 2210 52       		.byte	0x52
 8505 2211 02       		.byte	0x2
 8506 2212 09       		.byte	0x9
 8507 2213 AB       		.byte	0xab
 8508 2214 2E       		.uleb128 0x2e
 8509 2215 01       		.byte	0x1
 8510 2216 53       		.byte	0x53
 8511 2217 01       		.byte	0x1
 8512 2218 36       		.byte	0x36
 8513 2219 00       		.byte	0
 8514 221a 00       		.byte	0
 8515 221b 33       		.uleb128 0x33
 8516 221c 09310000 		.4byte	0x3109
 8517 2220 70000000 		.4byte	.LBB118
 8518 2224 98010000 		.4byte	.Ldebug_ranges0+0x198
 8519 2228 01       		.byte	0x1
 8520 2229 A303     		.2byte	0x3a3
 8521 222b E0220000 		.4byte	0x22e0
 8522 222f 34       		.uleb128 0x34
 8523 2230 30310000 		.4byte	0x3130
 8524 2234 3F040000 		.4byte	.LLST89
 8525 2238 34       		.uleb128 0x34
 8526 2239 3B310000 		.4byte	0x313b
 8527 223d 77040000 		.4byte	.LLST90
 8528 2241 34       		.uleb128 0x34
 8529 2242 46310000 		.4byte	0x3146
 8530 2246 AF040000 		.4byte	.LLST91
 8531 224a 34       		.uleb128 0x34
 8532 224b 5C310000 		.4byte	0x315c
 8533 224f 00050000 		.4byte	.LLST92
 8534 2253 34       		.uleb128 0x34
 8535 2254 51310000 		.4byte	0x3151
 8536 2258 38050000 		.4byte	.LLST93
 8537 225c 34       		.uleb128 0x34
 8538 225d 25310000 		.4byte	0x3125
 8539 2261 8A050000 		.4byte	.LLST94
 8540 2265 34       		.uleb128 0x34
 8541 2266 1A310000 		.4byte	0x311a
 8542 226a B9050000 		.4byte	.LLST95
 8543 226e 37       		.uleb128 0x37
 8544 226f 98010000 		.4byte	.Ldebug_ranges0+0x198
 8545 2273 42       		.uleb128 0x42
 8546 2274 67310000 		.4byte	0x3167
 8547 2278 0D060000 		.4byte	.LLST96
 8548 227c 42       		.uleb128 0x42
 8549 227d 72310000 		.4byte	0x3172
ARM GAS  C:\Users\EBANO_~1\AppData\Local\Temp\cc2nkIni.s 			page 180


 8550 2281 85060000 		.4byte	.LLST97
 8551 2285 43       		.uleb128 0x43
 8552 2286 7D310000 		.4byte	0x317d
 8553 228a B8010000 		.4byte	.Ldebug_ranges0+0x1b8
 8554 228e 42       		.uleb128 0x42
 8555 228f 7E310000 		.4byte	0x317e
 8556 2293 E6060000 		.4byte	.LLST98
 8557 2297 42       		.uleb128 0x42
 8558 2298 87310000 		.4byte	0x3187
 8559 229c E6060000 		.4byte	.LLST98
 8560 22a0 43       		.uleb128 0x43
 8561 22a1 90310000 		.4byte	0x3190
 8562 22a5 B8010000 		.4byte	.Ldebug_ranges0+0x1b8
 8563 22a9 42       		.uleb128 0x42
 8564 22aa 91310000 		.4byte	0x3191
 8565 22ae 12070000 		.4byte	.LLST100
 8566 22b2 41       		.uleb128 0x41
 8567 22b3 C4000000 		.4byte	.LVL278
 8568 22b7 9F330000 		.4byte	0x339f
 8569 22bb C9220000 		.4byte	0x22c9
 8570 22bf 2E       		.uleb128 0x2e
 8571 22c0 01       		.byte	0x1
 8572 22c1 50       		.byte	0x50
 8573 22c2 05       		.byte	0x5
 8574 22c3 91       		.byte	0x91
 8575 22c4 B47F     		.sleb128 -76
 8576 22c6 94       		.byte	0x94
 8577 22c7 01       		.byte	0x1
 8578 22c8 00       		.byte	0
 8579 22c9 2D       		.uleb128 0x2d
 8580 22ca 6E010000 		.4byte	.LVL293
 8581 22ce 9F330000 		.4byte	0x339f
 8582 22d2 2E       		.uleb128 0x2e
 8583 22d3 01       		.byte	0x1
 8584 22d4 50       		.byte	0x50
 8585 22d5 05       		.byte	0x5
 8586 22d6 91       		.byte	0x91
 8587 22d7 B47F     		.sleb128 -76
 8588 22d9 94       		.byte	0x94
 8589 22da 01       		.byte	0x1
 8590 22db 00       		.byte	0
 8591 22dc 00       		.byte	0
 8592 22dd 00       		.byte	0
 8593 22de 00       		.byte	0
 8594 22df 00       		.byte	0
 8595 22e0 41       		.uleb128 0x41
 8596 22e1 20000000 		.4byte	.LVL261
 8597 22e5 AC330000 		.4byte	0x33ac
 8598 22e9 FE220000 		.4byte	0x22fe
 8599 22ed 2E       		.uleb128 0x2e
 8600 22ee 01       		.byte	0x1
 8601 22ef 50       		.byte	0x50
 8602 22f0 02       		.byte	0x2
 8603 22f1 91       		.byte	0x91
 8604 22f2 48       		.sleb128 -56
 8605 22f3 2E       		.uleb128 0x2e
 8606 22f4 01       		.byte	0x1
ARM GAS  C:\Users\EBANO_~1\AppData\Local\Temp\cc2nkIni.s 			page 181


 8607 22f5 51       		.byte	0x51
 8608 22f6 01       		.byte	0x1
 8609 22f7 30       		.byte	0x30
 8610 22f8 2E       		.uleb128 0x2e
 8611 22f9 01       		.byte	0x1
 8612 22fa 52       		.byte	0x52
 8613 22fb 01       		.byte	0x1
 8614 22fc 40       		.byte	0x40
 8615 22fd 00       		.byte	0
 8616 22fe 41       		.uleb128 0x41
 8617 22ff 2C000000 		.4byte	.LVL262
 8618 2303 BD330000 		.4byte	0x33bd
 8619 2307 1C230000 		.4byte	0x231c
 8620 230b 2E       		.uleb128 0x2e
 8621 230c 01       		.byte	0x1
 8622 230d 50       		.byte	0x50
 8623 230e 02       		.byte	0x2
 8624 230f 75       		.byte	0x75
 8625 2310 00       		.sleb128 0
 8626 2311 2E       		.uleb128 0x2e
 8627 2312 01       		.byte	0x1
 8628 2313 51       		.byte	0x51
 8629 2314 01       		.byte	0x1
 8630 2315 30       		.byte	0x30
 8631 2316 2E       		.uleb128 0x2e
 8632 2317 01       		.byte	0x1
 8633 2318 52       		.byte	0x52
 8634 2319 01       		.byte	0x1
 8635 231a 31       		.byte	0x31
 8636 231b 00       		.byte	0
 8637 231c 39       		.uleb128 0x39
 8638 231d 44000000 		.4byte	.LVL263
 8639 2321 CB330000 		.4byte	0x33cb
 8640 2325 41       		.uleb128 0x41
 8641 2326 5C000000 		.4byte	.LVL264
 8642 232a D8330000 		.4byte	0x33d8
 8643 232e 3E230000 		.4byte	0x233e
 8644 2332 2E       		.uleb128 0x2e
 8645 2333 01       		.byte	0x1
 8646 2334 52       		.byte	0x52
 8647 2335 02       		.byte	0x2
 8648 2336 78       		.byte	0x78
 8649 2337 00       		.sleb128 0
 8650 2338 2E       		.uleb128 0x2e
 8651 2339 01       		.byte	0x1
 8652 233a 53       		.byte	0x53
 8653 233b 01       		.byte	0x1
 8654 233c 31       		.byte	0x31
 8655 233d 00       		.byte	0
 8656 233e 39       		.uleb128 0x39
 8657 233f 1C010000 		.4byte	.LVL284
 8658 2343 CB330000 		.4byte	0x33cb
 8659 2347 00       		.byte	0
 8660 2348 0A       		.uleb128 0xa
 8661 2349 04       		.byte	0x4
 8662 234a 5E1A0000 		.4byte	0x1a5e
 8663 234e 0A       		.uleb128 0xa
ARM GAS  C:\Users\EBANO_~1\AppData\Local\Temp\cc2nkIni.s 			page 182


 8664 234f 04       		.byte	0x4
 8665 2350 9C0A0000 		.4byte	0xa9c
 8666 2354 07       		.uleb128 0x7
 8667 2355 C1000000 		.4byte	0xc1
 8668 2359 64230000 		.4byte	0x2364
 8669 235d 08       		.uleb128 0x8
 8670 235e AA000000 		.4byte	0xaa
 8671 2362 0F       		.byte	0xf
 8672 2363 00       		.byte	0
 8673 2364 2B       		.uleb128 0x2b
 8674 2365 01       		.byte	0x1
 8675 2366 621E0000 		.4byte	.LASF471
 8676 236a 01       		.byte	0x1
 8677 236b 7D03     		.2byte	0x37d
 8678 236d 01       		.byte	0x1
 8679 236e 00000000 		.4byte	.LFB60
 8680 2372 34000000 		.4byte	.LFE60
 8681 2376 9F070000 		.4byte	.LLST78
 8682 237a 01       		.byte	0x1
 8683 237b AF230000 		.4byte	0x23af
 8684 237f 2C       		.uleb128 0x2c
 8685 2380 550D0000 		.4byte	.LASF472
 8686 2384 01       		.byte	0x1
 8687 2385 7D03     		.2byte	0x37d
 8688 2387 AF230000 		.4byte	0x23af
 8689 238b CB070000 		.4byte	.LLST79
 8690 238f 29       		.uleb128 0x29
 8691 2390 B21F0000 		.4byte	.LASF473
 8692 2394 01       		.byte	0x1
 8693 2395 7F03     		.2byte	0x37f
 8694 2397 5F1D0000 		.4byte	0x1d5f
 8695 239b 02       		.byte	0x2
 8696 239c 91       		.byte	0x91
 8697 239d 64       		.sleb128 -28
 8698 239e 2D       		.uleb128 0x2d
 8699 239f 2C000000 		.4byte	.LVL256
 8700 23a3 E6330000 		.4byte	0x33e6
 8701 23a7 2E       		.uleb128 0x2e
 8702 23a8 01       		.byte	0x1
 8703 23a9 50       		.byte	0x50
 8704 23aa 02       		.byte	0x2
 8705 23ab 91       		.byte	0x91
 8706 23ac 64       		.sleb128 -28
 8707 23ad 00       		.byte	0
 8708 23ae 00       		.byte	0
 8709 23af 0A       		.uleb128 0xa
 8710 23b0 04       		.byte	0x4
 8711 23b1 F9190000 		.4byte	0x19f9
 8712 23b5 2F       		.uleb128 0x2f
 8713 23b6 01       		.byte	0x1
 8714 23b7 9B1F0000 		.4byte	.LASF474
 8715 23bb 01       		.byte	0x1
 8716 23bc 7703     		.2byte	0x377
 8717 23be 01       		.byte	0x1
 8718 23bf B1000000 		.4byte	0xb1
 8719 23c3 00000000 		.4byte	.LFB59
 8720 23c7 04000000 		.4byte	.LFE59
ARM GAS  C:\Users\EBANO_~1\AppData\Local\Temp\cc2nkIni.s 			page 183


 8721 23cb 02       		.byte	0x2
 8722 23cc 7D       		.byte	0x7d
 8723 23cd 00       		.sleb128 0
 8724 23ce 01       		.byte	0x1
 8725 23cf F2230000 		.4byte	0x23f2
 8726 23d3 2C       		.uleb128 0x2c
 8727 23d4 04140000 		.4byte	.LASF475
 8728 23d8 01       		.byte	0x1
 8729 23d9 7703     		.2byte	0x377
 8730 23db B1000000 		.4byte	0xb1
 8731 23df EC070000 		.4byte	.LLST77
 8732 23e3 44       		.uleb128 0x44
 8733 23e4 82050000 		.4byte	.LASF476
 8734 23e8 01       		.byte	0x1
 8735 23e9 7703     		.2byte	0x377
 8736 23eb 85190000 		.4byte	0x1985
 8737 23ef 01       		.byte	0x1
 8738 23f0 51       		.byte	0x51
 8739 23f1 00       		.byte	0
 8740 23f2 45       		.uleb128 0x45
 8741 23f3 01       		.byte	0x1
 8742 23f4 D5210000 		.4byte	.LASF477
 8743 23f8 01       		.byte	0x1
 8744 23f9 5E03     		.2byte	0x35e
 8745 23fb 01       		.byte	0x1
 8746 23fc C1000000 		.4byte	0xc1
 8747 2400 00000000 		.4byte	.LFB58
 8748 2404 70000000 		.4byte	.LFE58
 8749 2408 0D080000 		.4byte	.LLST73
 8750 240c 01       		.byte	0x1
 8751 240d 58240000 		.4byte	0x2458
 8752 2411 2C       		.uleb128 0x2c
 8753 2412 11120000 		.4byte	.LASF478
 8754 2416 01       		.byte	0x1
 8755 2417 5E03     		.2byte	0x35e
 8756 2419 58240000 		.4byte	0x2458
 8757 241d 39080000 		.4byte	.LLST74
 8758 2421 31       		.uleb128 0x31
 8759 2422 DB120000 		.4byte	.LASF479
 8760 2426 01       		.byte	0x1
 8761 2427 6003     		.2byte	0x360
 8762 2429 C1000000 		.4byte	0xc1
 8763 242d 70080000 		.4byte	.LLST75
 8764 2431 46       		.uleb128 0x46
 8765 2432 9D310000 		.4byte	0x319d
 8766 2436 02000000 		.4byte	.LBB107
 8767 243a 78010000 		.4byte	.Ldebug_ranges0+0x178
 8768 243e 01       		.byte	0x1
 8769 243f 6303     		.2byte	0x363
 8770 2441 34       		.uleb128 0x34
 8771 2442 AE310000 		.4byte	0x31ae
 8772 2446 A8080000 		.4byte	.LLST76
 8773 244a 3A       		.uleb128 0x3a
 8774 244b 12000000 		.4byte	.LVL245
 8775 244f 2E       		.uleb128 0x2e
 8776 2450 01       		.byte	0x1
 8777 2451 50       		.byte	0x50
ARM GAS  C:\Users\EBANO_~1\AppData\Local\Temp\cc2nkIni.s 			page 184


 8778 2452 02       		.byte	0x2
 8779 2453 74       		.byte	0x74
 8780 2454 00       		.sleb128 0
 8781 2455 00       		.byte	0
 8782 2456 00       		.byte	0
 8783 2457 00       		.byte	0
 8784 2458 0A       		.uleb128 0xa
 8785 2459 04       		.byte	0x4
 8786 245a 5A190000 		.4byte	0x195a
 8787 245e 2F       		.uleb128 0x2f
 8788 245f 01       		.byte	0x1
 8789 2460 81140000 		.4byte	.LASF480
 8790 2464 01       		.byte	0x1
 8791 2465 5803     		.2byte	0x358
 8792 2467 01       		.byte	0x1
 8793 2468 B1000000 		.4byte	0xb1
 8794 246c 00000000 		.4byte	.LFB57
 8795 2470 04000000 		.4byte	.LFE57
 8796 2474 02       		.byte	0x2
 8797 2475 7D       		.byte	0x7d
 8798 2476 00       		.sleb128 0
 8799 2477 01       		.byte	0x1
 8800 2478 8D240000 		.4byte	0x248d
 8801 247c 2C       		.uleb128 0x2c
 8802 247d E41D0000 		.4byte	.LASF481
 8803 2481 01       		.byte	0x1
 8804 2482 5803     		.2byte	0x358
 8805 2484 8D240000 		.4byte	0x248d
 8806 2488 E8080000 		.4byte	.LLST72
 8807 248c 00       		.byte	0
 8808 248d 0A       		.uleb128 0xa
 8809 248e 04       		.byte	0x4
 8810 248f 22190000 		.4byte	0x1922
 8811 2493 45       		.uleb128 0x45
 8812 2494 01       		.byte	0x1
 8813 2495 D1010000 		.4byte	.LASF482
 8814 2499 01       		.byte	0x1
 8815 249a 2303     		.2byte	0x323
 8816 249c 01       		.byte	0x1
 8817 249d C1000000 		.4byte	0xc1
 8818 24a1 00000000 		.4byte	.LFB56
 8819 24a5 04010000 		.4byte	.LFE56
 8820 24a9 09090000 		.4byte	.LLST64
 8821 24ad 01       		.byte	0x1
 8822 24ae 16260000 		.4byte	0x2616
 8823 24b2 2C       		.uleb128 0x2c
 8824 24b3 EB020000 		.4byte	.LASF483
 8825 24b7 01       		.byte	0x1
 8826 24b8 2303     		.2byte	0x323
 8827 24ba 16260000 		.4byte	0x2616
 8828 24be 41090000 		.4byte	.LLST65
 8829 24c2 47       		.uleb128 0x47
 8830 24c3 DB120000 		.4byte	.LASF479
 8831 24c7 01       		.byte	0x1
 8832 24c8 2503     		.2byte	0x325
 8833 24ca C1000000 		.4byte	0xc1
 8834 24ce 03       		.byte	0x3
ARM GAS  C:\Users\EBANO_~1\AppData\Local\Temp\cc2nkIni.s 			page 185


 8835 24cf 32       		.uleb128 0x32
 8836 24d0 D7130000 		.4byte	.LASF457
 8837 24d4 01       		.byte	0x1
 8838 24d5 2603     		.2byte	0x326
 8839 24d7 961A0000 		.4byte	0x1a96
 8840 24db 32       		.uleb128 0x32
 8841 24dc 62200000 		.4byte	.LASF456
 8842 24e0 01       		.byte	0x1
 8843 24e1 2703     		.2byte	0x327
 8844 24e3 BF1A0000 		.4byte	0x1abf
 8845 24e7 48       		.uleb128 0x48
 8846 24e8 9A200000 		.4byte	0x209a
 8847 24ec 12000000 		.4byte	.LBB91
 8848 24f0 36000000 		.4byte	.LBE91
 8849 24f4 01       		.byte	0x1
 8850 24f5 2E03     		.2byte	0x32e
 8851 24f7 5C250000 		.4byte	0x255c
 8852 24fb 34       		.uleb128 0x34
 8853 24fc AD200000 		.4byte	0x20ad
 8854 2500 7B090000 		.4byte	.LLST66
 8855 2504 49       		.uleb128 0x49
 8856 2505 12000000 		.4byte	.LBB92
 8857 2509 36000000 		.4byte	.LBE92
 8858 250d 42       		.uleb128 0x42
 8859 250e B9200000 		.4byte	0x20b9
 8860 2512 93090000 		.4byte	.LLST67
 8861 2516 41       		.uleb128 0x41
 8862 2517 28000000 		.4byte	.LVL220
 8863 251b AC330000 		.4byte	0x33ac
 8864 251f 3E250000 		.4byte	0x253e
 8865 2523 2E       		.uleb128 0x2e
 8866 2524 01       		.byte	0x1
 8867 2525 50       		.byte	0x50
 8868 2526 0C       		.byte	0xc
 8869 2527 74       		.byte	0x74
 8870 2528 00       		.sleb128 0
 8871 2529 31       		.byte	0x31
 8872 252a 24       		.byte	0x24
 8873 252b 74       		.byte	0x74
 8874 252c 00       		.sleb128 0
 8875 252d 22       		.byte	0x22
 8876 252e 32       		.byte	0x32
 8877 252f 24       		.byte	0x24
 8878 2530 75       		.byte	0x75
 8879 2531 00       		.sleb128 0
 8880 2532 22       		.byte	0x22
 8881 2533 2E       		.uleb128 0x2e
 8882 2534 01       		.byte	0x1
 8883 2535 51       		.byte	0x51
 8884 2536 01       		.byte	0x1
 8885 2537 30       		.byte	0x30
 8886 2538 2E       		.uleb128 0x2e
 8887 2539 01       		.byte	0x1
 8888 253a 52       		.byte	0x52
 8889 253b 01       		.byte	0x1
 8890 253c 3C       		.byte	0x3c
 8891 253d 00       		.byte	0
ARM GAS  C:\Users\EBANO_~1\AppData\Local\Temp\cc2nkIni.s 			page 186


 8892 253e 2D       		.uleb128 0x2d
 8893 253f 34000000 		.4byte	.LVL221
 8894 2543 F4330000 		.4byte	0x33f4
 8895 2547 2E       		.uleb128 0x2e
 8896 2548 01       		.byte	0x1
 8897 2549 50       		.byte	0x50
 8898 254a 03       		.byte	0x3
 8899 254b 75       		.byte	0x75
 8900 254c D001     		.sleb128 208
 8901 254e 2E       		.uleb128 0x2e
 8902 254f 01       		.byte	0x1
 8903 2550 51       		.byte	0x51
 8904 2551 02       		.byte	0x2
 8905 2552 74       		.byte	0x74
 8906 2553 00       		.sleb128 0
 8907 2554 2E       		.uleb128 0x2e
 8908 2555 01       		.byte	0x1
 8909 2556 52       		.byte	0x52
 8910 2557 01       		.byte	0x1
 8911 2558 40       		.byte	0x40
 8912 2559 00       		.byte	0
 8913 255a 00       		.byte	0
 8914 255b 00       		.byte	0
 8915 255c 46       		.uleb128 0x46
 8916 255d CB200000 		.4byte	0x20cb
 8917 2561 46000000 		.4byte	.LBB93
 8918 2565 30010000 		.4byte	.Ldebug_ranges0+0x130
 8919 2569 01       		.byte	0x1
 8920 256a 3803     		.2byte	0x338
 8921 256c 34       		.uleb128 0x34
 8922 256d DE200000 		.4byte	0x20de
 8923 2571 B6090000 		.4byte	.LLST68
 8924 2575 37       		.uleb128 0x37
 8925 2576 30010000 		.4byte	.Ldebug_ranges0+0x130
 8926 257a 42       		.uleb128 0x42
 8927 257b EA200000 		.4byte	0x20ea
 8928 257f CE090000 		.4byte	.LLST69
 8929 2583 42       		.uleb128 0x42
 8930 2584 F6200000 		.4byte	0x20f6
 8931 2588 310A0000 		.4byte	.LLST70
 8932 258c 42       		.uleb128 0x42
 8933 258d 02210000 		.4byte	0x2102
 8934 2591 5D0A0000 		.4byte	.LLST71
 8935 2595 33       		.uleb128 0x33
 8936 2596 9D310000 		.4byte	0x319d
 8937 259a 76000000 		.4byte	.LBB95
 8938 259e 58010000 		.4byte	.Ldebug_ranges0+0x158
 8939 25a2 01       		.byte	0x1
 8940 25a3 F003     		.2byte	0x3f0
 8941 25a5 C8250000 		.4byte	0x25c8
 8942 25a9 36       		.uleb128 0x36
 8943 25aa AE310000 		.4byte	0x31ae
 8944 25ae 4A       		.uleb128 0x4a
 8945 25af 8C000000 		.4byte	.LVL230
 8946 25b3 BE250000 		.4byte	0x25be
 8947 25b7 2E       		.uleb128 0x2e
 8948 25b8 01       		.byte	0x1
ARM GAS  C:\Users\EBANO_~1\AppData\Local\Temp\cc2nkIni.s 			page 187


 8949 25b9 50       		.byte	0x50
 8950 25ba 02       		.byte	0x2
 8951 25bb 76       		.byte	0x76
 8952 25bc 00       		.sleb128 0
 8953 25bd 00       		.byte	0
 8954 25be 4B       		.uleb128 0x4b
 8955 25bf A4000000 		.4byte	.LVL233
 8956 25c3 03       		.byte	0x3
 8957 25c4 91       		.byte	0x91
 8958 25c5 64       		.sleb128 -28
 8959 25c6 06       		.byte	0x6
 8960 25c7 00       		.byte	0
 8961 25c8 41       		.uleb128 0x41
 8962 25c9 5A000000 		.4byte	.LVL225
 8963 25cd 9F330000 		.4byte	0x339f
 8964 25d1 E0250000 		.4byte	0x25e0
 8965 25d5 2E       		.uleb128 0x2e
 8966 25d6 01       		.byte	0x1
 8967 25d7 51       		.byte	0x51
 8968 25d8 01       		.byte	0x1
 8969 25d9 30       		.byte	0x30
 8970 25da 2E       		.uleb128 0x2e
 8971 25db 01       		.byte	0x1
 8972 25dc 52       		.byte	0x52
 8973 25dd 01       		.byte	0x1
 8974 25de 37       		.byte	0x37
 8975 25df 00       		.byte	0
 8976 25e0 41       		.uleb128 0x41
 8977 25e1 6A000000 		.4byte	.LVL227
 8978 25e5 9F330000 		.4byte	0x339f
 8979 25e9 F8250000 		.4byte	0x25f8
 8980 25ed 2E       		.uleb128 0x2e
 8981 25ee 01       		.byte	0x1
 8982 25ef 51       		.byte	0x51
 8983 25f0 01       		.byte	0x1
 8984 25f1 30       		.byte	0x30
 8985 25f2 2E       		.uleb128 0x2e
 8986 25f3 01       		.byte	0x1
 8987 25f4 52       		.byte	0x52
 8988 25f5 01       		.byte	0x1
 8989 25f6 37       		.byte	0x37
 8990 25f7 00       		.byte	0
 8991 25f8 2D       		.uleb128 0x2d
 8992 25f9 DE000000 		.4byte	.LVL238
 8993 25fd 02340000 		.4byte	0x3402
 8994 2601 2E       		.uleb128 0x2e
 8995 2602 01       		.byte	0x1
 8996 2603 50       		.byte	0x50
 8997 2604 02       		.byte	0x2
 8998 2605 76       		.byte	0x76
 8999 2606 00       		.sleb128 0
 9000 2607 2E       		.uleb128 0x2e
 9001 2608 01       		.byte	0x1
 9002 2609 51       		.byte	0x51
 9003 260a 02       		.byte	0x2
 9004 260b 75       		.byte	0x75
 9005 260c 00       		.sleb128 0
ARM GAS  C:\Users\EBANO_~1\AppData\Local\Temp\cc2nkIni.s 			page 188


 9006 260d 2E       		.uleb128 0x2e
 9007 260e 01       		.byte	0x1
 9008 260f 52       		.byte	0x52
 9009 2610 01       		.byte	0x1
 9010 2611 3C       		.byte	0x3c
 9011 2612 00       		.byte	0
 9012 2613 00       		.byte	0
 9013 2614 00       		.byte	0
 9014 2615 00       		.byte	0
 9015 2616 0A       		.uleb128 0xa
 9016 2617 04       		.byte	0x4
 9017 2618 DB180000 		.4byte	0x18db
 9018 261c 45       		.uleb128 0x45
 9019 261d 01       		.byte	0x1
 9020 261e 66110000 		.4byte	.LASF484
 9021 2622 01       		.byte	0x1
 9022 2623 0A03     		.2byte	0x30a
 9023 2625 01       		.byte	0x1
 9024 2626 C1000000 		.4byte	0xc1
 9025 262a 00000000 		.4byte	.LFB55
 9026 262e 64000000 		.4byte	.LFE55
 9027 2632 800A0000 		.4byte	.LLST60
 9028 2636 01       		.byte	0x1
 9029 2637 B2260000 		.4byte	0x26b2
 9030 263b 2C       		.uleb128 0x2c
 9031 263c 36030000 		.4byte	.LASF485
 9032 2640 01       		.byte	0x1
 9033 2641 0A03     		.2byte	0x30a
 9034 2643 B2260000 		.4byte	0x26b2
 9035 2647 AC0A0000 		.4byte	.LLST61
 9036 264b 31       		.uleb128 0x31
 9037 264c DB120000 		.4byte	.LASF479
 9038 2650 01       		.byte	0x1
 9039 2651 0C03     		.2byte	0x30c
 9040 2653 C1000000 		.4byte	0xc1
 9041 2657 E30A0000 		.4byte	.LLST62
 9042 265b 33       		.uleb128 0x33
 9043 265c 9D310000 		.4byte	0x319d
 9044 2660 02000000 		.4byte	.LBB77
 9045 2664 08010000 		.4byte	.Ldebug_ranges0+0x108
 9046 2668 01       		.byte	0x1
 9047 2669 0F03     		.2byte	0x30f
 9048 266b 85260000 		.4byte	0x2685
 9049 266f 34       		.uleb128 0x34
 9050 2670 AE310000 		.4byte	0x31ae
 9051 2674 190B0000 		.4byte	.LLST63
 9052 2678 3A       		.uleb128 0x3a
 9053 2679 12000000 		.4byte	.LVL205
 9054 267d 2E       		.uleb128 0x2e
 9055 267e 01       		.byte	0x1
 9056 267f 50       		.byte	0x50
 9057 2680 02       		.byte	0x2
 9058 2681 75       		.byte	0x75
 9059 2682 00       		.sleb128 0
 9060 2683 00       		.byte	0
 9061 2684 00       		.byte	0
 9062 2685 41       		.uleb128 0x41
ARM GAS  C:\Users\EBANO_~1\AppData\Local\Temp\cc2nkIni.s 			page 189


 9063 2686 32000000 		.4byte	.LVL209
 9064 268a 9F330000 		.4byte	0x339f
 9065 268e 9D260000 		.4byte	0x269d
 9066 2692 2E       		.uleb128 0x2e
 9067 2693 01       		.byte	0x1
 9068 2694 51       		.byte	0x51
 9069 2695 01       		.byte	0x1
 9070 2696 30       		.byte	0x30
 9071 2697 2E       		.uleb128 0x2e
 9072 2698 01       		.byte	0x1
 9073 2699 52       		.byte	0x52
 9074 269a 01       		.byte	0x1
 9075 269b 37       		.byte	0x37
 9076 269c 00       		.byte	0
 9077 269d 2D       		.uleb128 0x2d
 9078 269e 44000000 		.4byte	.LVL211
 9079 26a2 9F330000 		.4byte	0x339f
 9080 26a6 2E       		.uleb128 0x2e
 9081 26a7 01       		.byte	0x1
 9082 26a8 51       		.byte	0x51
 9083 26a9 01       		.byte	0x1
 9084 26aa 30       		.byte	0x30
 9085 26ab 2E       		.uleb128 0x2e
 9086 26ac 01       		.byte	0x1
 9087 26ad 52       		.byte	0x52
 9088 26ae 01       		.byte	0x1
 9089 26af 37       		.byte	0x37
 9090 26b0 00       		.byte	0
 9091 26b1 00       		.byte	0
 9092 26b2 0A       		.uleb128 0xa
 9093 26b3 04       		.byte	0x4
 9094 26b4 A3180000 		.4byte	0x18a3
 9095 26b8 45       		.uleb128 0x45
 9096 26b9 01       		.byte	0x1
 9097 26ba 3A020000 		.4byte	.LASF486
 9098 26be 01       		.byte	0x1
 9099 26bf A102     		.2byte	0x2a1
 9100 26c1 01       		.byte	0x1
 9101 26c2 C1000000 		.4byte	0xc1
 9102 26c6 00000000 		.4byte	.LFB54
 9103 26ca 0C030000 		.4byte	.LFE54
 9104 26ce 4E0B0000 		.4byte	.LLST51
 9105 26d2 01       		.byte	0x1
 9106 26d3 2C280000 		.4byte	0x282c
 9107 26d7 2C       		.uleb128 0x2c
 9108 26d8 36110000 		.4byte	.LASF487
 9109 26dc 01       		.byte	0x1
 9110 26dd A102     		.2byte	0x2a1
 9111 26df 2C280000 		.4byte	0x282c
 9112 26e3 870B0000 		.4byte	.LLST52
 9113 26e7 2C       		.uleb128 0x2c
 9114 26e8 5C190000 		.4byte	.LASF488
 9115 26ec 01       		.byte	0x1
 9116 26ed A102     		.2byte	0x2a1
 9117 26ef 32280000 		.4byte	0x2832
 9118 26f3 D70B0000 		.4byte	.LLST53
 9119 26f7 2C       		.uleb128 0x2c
ARM GAS  C:\Users\EBANO_~1\AppData\Local\Temp\cc2nkIni.s 			page 190


 9120 26f8 EE170000 		.4byte	.LASF489
 9121 26fc 01       		.byte	0x1
 9122 26fd A102     		.2byte	0x2a1
 9123 26ff 32280000 		.4byte	0x2832
 9124 2703 0E0C0000 		.4byte	.LLST54
 9125 2707 2C       		.uleb128 0x2c
 9126 2708 B9100000 		.4byte	.LASF490
 9127 270c 01       		.byte	0x1
 9128 270d A102     		.2byte	0x2a1
 9129 270f 890A0000 		.4byte	0xa89
 9130 2713 450C0000 		.4byte	.LLST55
 9131 2717 44       		.uleb128 0x44
 9132 2718 F70E0000 		.4byte	.LASF491
 9133 271c 01       		.byte	0x1
 9134 271d A102     		.2byte	0x2a1
 9135 271f 890A0000 		.4byte	0xa89
 9136 2723 02       		.byte	0x2
 9137 2724 91       		.byte	0x91
 9138 2725 00       		.sleb128 0
 9139 2726 31       		.uleb128 0x31
 9140 2727 DB120000 		.4byte	.LASF479
 9141 272b 01       		.byte	0x1
 9142 272c A302     		.2byte	0x2a3
 9143 272e C1000000 		.4byte	0xc1
 9144 2732 650C0000 		.4byte	.LLST56
 9145 2736 29       		.uleb128 0x29
 9146 2737 871E0000 		.4byte	.LASF492
 9147 273b 01       		.byte	0x1
 9148 273c A402     		.2byte	0x2a4
 9149 273e D91B0000 		.4byte	0x1bd9
 9150 2742 03       		.byte	0x3
 9151 2743 91       		.byte	0x91
 9152 2744 B07F     		.sleb128 -80
 9153 2746 31       		.uleb128 0x31
 9154 2747 5D0A0000 		.4byte	.LASF493
 9155 274b 01       		.byte	0x1
 9156 274c A502     		.2byte	0x2a5
 9157 274e C1000000 		.4byte	0xc1
 9158 2752 C90C0000 		.4byte	.LLST57
 9159 2756 31       		.uleb128 0x31
 9160 2757 1C0D0000 		.4byte	.LASF494
 9161 275b 01       		.byte	0x1
 9162 275c A602     		.2byte	0x2a6
 9163 275e C1000000 		.4byte	0xc1
 9164 2762 E80C0000 		.4byte	.LLST58
 9165 2766 29       		.uleb128 0x29
 9166 2767 F70A0000 		.4byte	.LASF495
 9167 276b 01       		.byte	0x1
 9168 276c A702     		.2byte	0x2a7
 9169 276e DC000000 		.4byte	0xdc
 9170 2772 03       		.byte	0x3
 9171 2773 91       		.byte	0x91
 9172 2774 A67F     		.sleb128 -90
 9173 2776 29       		.uleb128 0x29
 9174 2777 F4010000 		.4byte	.LASF496
 9175 277b 01       		.byte	0x1
 9176 277c A802     		.2byte	0x2a8
ARM GAS  C:\Users\EBANO_~1\AppData\Local\Temp\cc2nkIni.s 			page 191


 9177 277e 06150000 		.4byte	0x1506
 9178 2782 03       		.byte	0x3
 9179 2783 91       		.byte	0x91
 9180 2784 A87F     		.sleb128 -88
 9181 2786 29       		.uleb128 0x29
 9182 2787 96040000 		.4byte	.LASF497
 9183 278b 01       		.byte	0x1
 9184 278c A902     		.2byte	0x2a9
 9185 278e B0140000 		.4byte	0x14b0
 9186 2792 03       		.byte	0x3
 9187 2793 91       		.byte	0x91
 9188 2794 AC7F     		.sleb128 -84
 9189 2796 29       		.uleb128 0x29
 9190 2797 621C0000 		.4byte	.LASF498
 9191 279b 01       		.byte	0x1
 9192 279c AA02     		.2byte	0x2aa
 9193 279e D11C0000 		.4byte	0x1cd1
 9194 27a2 03       		.byte	0x3
 9195 27a3 91       		.byte	0x91
 9196 27a4 B87F     		.sleb128 -72
 9197 27a6 4C       		.uleb128 0x4c
 9198 27a7 E0000000 		.4byte	.Ldebug_ranges0+0xe0
 9199 27ab BE270000 		.4byte	0x27be
 9200 27af 40       		.uleb128 0x40
 9201 27b0 6900     		.ascii	"i\000"
 9202 27b2 01       		.byte	0x1
 9203 27b3 CA02     		.2byte	0x2ca
 9204 27b5 C1000000 		.4byte	0xc1
 9205 27b9 290D0000 		.4byte	.LLST59
 9206 27bd 00       		.byte	0
 9207 27be 41       		.uleb128 0x41
 9208 27bf 3A000000 		.4byte	.LVL148
 9209 27c3 0F340000 		.4byte	0x340f
 9210 27c7 D2270000 		.4byte	0x27d2
 9211 27cb 2E       		.uleb128 0x2e
 9212 27cc 01       		.byte	0x1
 9213 27cd 51       		.byte	0x51
 9214 27ce 02       		.byte	0x2
 9215 27cf 75       		.byte	0x75
 9216 27d0 00       		.sleb128 0
 9217 27d1 00       		.byte	0
 9218 27d2 41       		.uleb128 0x41
 9219 27d3 66010000 		.4byte	.LVL170
 9220 27d7 44300000 		.4byte	0x3044
 9221 27db E7270000 		.4byte	0x27e7
 9222 27df 2E       		.uleb128 0x2e
 9223 27e0 01       		.byte	0x1
 9224 27e1 50       		.byte	0x50
 9225 27e2 03       		.byte	0x3
 9226 27e3 91       		.byte	0x91
 9227 27e4 A87F     		.sleb128 -88
 9228 27e6 00       		.byte	0
 9229 27e7 41       		.uleb128 0x41
 9230 27e8 B4010000 		.4byte	.LVL171
 9231 27ec 1D340000 		.4byte	0x341d
 9232 27f0 10280000 		.4byte	0x2810
 9233 27f4 2E       		.uleb128 0x2e
ARM GAS  C:\Users\EBANO_~1\AppData\Local\Temp\cc2nkIni.s 			page 192


 9234 27f5 01       		.byte	0x1
 9235 27f6 50       		.byte	0x50
 9236 27f7 03       		.byte	0x3
 9237 27f8 91       		.byte	0x91
 9238 27f9 B87F     		.sleb128 -72
 9239 27fb 2E       		.uleb128 0x2e
 9240 27fc 01       		.byte	0x1
 9241 27fd 51       		.byte	0x51
 9242 27fe 03       		.byte	0x3
 9243 27ff 91       		.byte	0x91
 9244 2800 B17F     		.sleb128 -79
 9245 2802 2E       		.uleb128 0x2e
 9246 2803 01       		.byte	0x1
 9247 2804 52       		.byte	0x52
 9248 2805 03       		.byte	0x3
 9249 2806 91       		.byte	0x91
 9250 2807 B27F     		.sleb128 -78
 9251 2809 2E       		.uleb128 0x2e
 9252 280a 01       		.byte	0x1
 9253 280b 53       		.byte	0x53
 9254 280c 02       		.byte	0x2
 9255 280d 75       		.byte	0x75
 9256 280e 00       		.sleb128 0
 9257 280f 00       		.byte	0
 9258 2810 2D       		.uleb128 0x2d
 9259 2811 EC020000 		.4byte	.LVL199
 9260 2815 2B340000 		.4byte	0x342b
 9261 2819 2E       		.uleb128 0x2e
 9262 281a 01       		.byte	0x1
 9263 281b 50       		.byte	0x50
 9264 281c 03       		.byte	0x3
 9265 281d 77       		.byte	0x77
 9266 281e D001     		.sleb128 208
 9267 2820 2E       		.uleb128 0x2e
 9268 2821 01       		.byte	0x1
 9269 2822 51       		.byte	0x51
 9270 2823 01       		.byte	0x1
 9271 2824 30       		.byte	0x30
 9272 2825 2E       		.uleb128 0x2e
 9273 2826 01       		.byte	0x1
 9274 2827 52       		.byte	0x52
 9275 2828 01       		.byte	0x1
 9276 2829 32       		.byte	0x32
 9277 282a 00       		.byte	0
 9278 282b 00       		.byte	0
 9279 282c 0A       		.uleb128 0xa
 9280 282d 04       		.byte	0x4
 9281 282e 5C180000 		.4byte	0x185c
 9282 2832 0A       		.uleb128 0xa
 9283 2833 04       		.byte	0x4
 9284 2834 B1000000 		.4byte	0xb1
 9285 2838 45       		.uleb128 0x45
 9286 2839 01       		.byte	0x1
 9287 283a 700A0000 		.4byte	.LASF499
 9288 283e 01       		.byte	0x1
 9289 283f 7F02     		.2byte	0x27f
 9290 2841 01       		.byte	0x1
ARM GAS  C:\Users\EBANO_~1\AppData\Local\Temp\cc2nkIni.s 			page 193


 9291 2842 1A0B0000 		.4byte	0xb1a
 9292 2846 00000000 		.4byte	.LFB53
 9293 284a 3C010000 		.4byte	.LFE53
 9294 284e E10E0000 		.4byte	.LLST40
 9295 2852 01       		.byte	0x1
 9296 2853 222A0000 		.4byte	0x2a22
 9297 2857 2C       		.uleb128 0x2c
 9298 2858 EE1B0000 		.4byte	.LASF500
 9299 285c 01       		.byte	0x1
 9300 285d 7F02     		.2byte	0x27f
 9301 285f 222A0000 		.4byte	0x2a22
 9302 2863 1A0F0000 		.4byte	.LLST41
 9303 2867 2C       		.uleb128 0x2c
 9304 2868 2E110000 		.4byte	.LASF501
 9305 286c 01       		.byte	0x1
 9306 286d 7F02     		.2byte	0x27f
 9307 286f 32280000 		.4byte	0x2832
 9308 2873 510F0000 		.4byte	.LLST42
 9309 2877 2C       		.uleb128 0x2c
 9310 2878 C5130000 		.4byte	.LASF502
 9311 287c 01       		.byte	0x1
 9312 287d 7F02     		.2byte	0x27f
 9313 287f 4E230000 		.4byte	0x234e
 9314 2883 700F0000 		.4byte	.LLST43
 9315 2887 31       		.uleb128 0x31
 9316 2888 7F010000 		.4byte	.LASF503
 9317 288c 01       		.byte	0x1
 9318 288d 8102     		.2byte	0x281
 9319 288f D70B0000 		.4byte	0xbd7
 9320 2893 A70F0000 		.4byte	.LLST44
 9321 2897 31       		.uleb128 0x31
 9322 2898 E8040000 		.4byte	.LASF504
 9323 289c 01       		.byte	0x1
 9324 289d 8202     		.2byte	0x282
 9325 289f B1000000 		.4byte	0xb1
 9326 28a3 D20F0000 		.4byte	.LLST45
 9327 28a7 32       		.uleb128 0x32
 9328 28a8 30140000 		.4byte	.LASF453
 9329 28ac 01       		.byte	0x1
 9330 28ad 8302     		.2byte	0x283
 9331 28af B1000000 		.4byte	0xb1
 9332 28b3 32       		.uleb128 0x32
 9333 28b4 0D1A0000 		.4byte	.LASF505
 9334 28b8 01       		.byte	0x1
 9335 28b9 8402     		.2byte	0x284
 9336 28bb F2000000 		.4byte	0xf2
 9337 28bf 31       		.uleb128 0x31
 9338 28c0 7D060000 		.4byte	.LASF451
 9339 28c4 01       		.byte	0x1
 9340 28c5 8502     		.2byte	0x285
 9341 28c7 B1000000 		.4byte	0xb1
 9342 28cb FC0F0000 		.4byte	.LLST46
 9343 28cf 33       		.uleb128 0x33
 9344 28d0 BA310000 		.4byte	0x31ba
 9345 28d4 28000000 		.4byte	.LBB57
 9346 28d8 90000000 		.4byte	.Ldebug_ranges0+0x90
 9347 28dc 01       		.byte	0x1
ARM GAS  C:\Users\EBANO_~1\AppData\Local\Temp\cc2nkIni.s 			page 194


 9348 28dd 8302     		.2byte	0x283
 9349 28df 1A290000 		.4byte	0x291a
 9350 28e3 34       		.uleb128 0x34
 9351 28e4 E1310000 		.4byte	0x31e1
 9352 28e8 26100000 		.4byte	.LLST47
 9353 28ec 35       		.uleb128 0x35
 9354 28ed EC310000 		.4byte	0x31ec
 9355 28f1 06       		.byte	0x6
 9356 28f2 03       		.byte	0x3
 9357 28f3 D0000000 		.4byte	NvmCtx+208
 9358 28f7 9F       		.byte	0x9f
 9359 28f8 34       		.uleb128 0x34
 9360 28f9 D6310000 		.4byte	0x31d6
 9361 28fd 60100000 		.4byte	.LLST48
 9362 2901 34       		.uleb128 0x34
 9363 2902 CB310000 		.4byte	0x31cb
 9364 2906 DB100000 		.4byte	.LLST49
 9365 290a 37       		.uleb128 0x37
 9366 290b 90000000 		.4byte	.Ldebug_ranges0+0x90
 9367 290f 42       		.uleb128 0x42
 9368 2910 F7310000 		.4byte	0x31f7
 9369 2914 DB100000 		.4byte	.LLST49
 9370 2918 00       		.byte	0
 9371 2919 00       		.byte	0
 9372 291a 33       		.uleb128 0x33
 9373 291b 03320000 		.4byte	0x3203
 9374 291f 4A000000 		.4byte	.LBB66
 9375 2923 C0000000 		.4byte	.Ldebug_ranges0+0xc0
 9376 2927 01       		.byte	0x1
 9377 2928 8402     		.2byte	0x284
 9378 292a 34290000 		.4byte	0x2934
 9379 292e 36       		.uleb128 0x36
 9380 292f 14320000 		.4byte	0x3214
 9381 2933 00       		.byte	0
 9382 2934 41       		.uleb128 0x41
 9383 2935 6E000000 		.4byte	.LVL126
 9384 2939 84330000 		.4byte	0x3384
 9385 293d 48290000 		.4byte	0x2948
 9386 2941 2E       		.uleb128 0x2e
 9387 2942 01       		.byte	0x1
 9388 2943 50       		.byte	0x50
 9389 2944 02       		.byte	0x2
 9390 2945 79       		.byte	0x79
 9391 2946 00       		.sleb128 0
 9392 2947 00       		.byte	0
 9393 2948 4B       		.uleb128 0x4b
 9394 2949 82000000 		.4byte	.LVL128
 9395 294d 03       		.byte	0x3
 9396 294e 75       		.byte	0x75
 9397 294f 14       		.sleb128 20
 9398 2950 06       		.byte	0x6
 9399 2951 4D       		.uleb128 0x4d
 9400 2952 B4000000 		.4byte	.LVL131
 9401 2956 02       		.byte	0x2
 9402 2957 76       		.byte	0x76
 9403 2958 00       		.sleb128 0
 9404 2959 A6290000 		.4byte	0x29a6
ARM GAS  C:\Users\EBANO_~1\AppData\Local\Temp\cc2nkIni.s 			page 195


 9405 295d 2E       		.uleb128 0x2e
 9406 295e 01       		.byte	0x1
 9407 295f 50       		.byte	0x50
 9408 2960 01       		.byte	0x1
 9409 2961 31       		.byte	0x31
 9410 2962 2E       		.uleb128 0x2e
 9411 2963 01       		.byte	0x1
 9412 2964 51       		.byte	0x51
 9413 2965 02       		.byte	0x2
 9414 2966 7B       		.byte	0x7b
 9415 2967 00       		.sleb128 0
 9416 2968 2E       		.uleb128 0x2e
 9417 2969 01       		.byte	0x1
 9418 296a 52       		.byte	0x52
 9419 296b 01       		.byte	0x1
 9420 296c 30       		.byte	0x30
 9421 296d 2E       		.uleb128 0x2e
 9422 296e 01       		.byte	0x1
 9423 296f 53       		.byte	0x53
 9424 2970 02       		.byte	0x2
 9425 2971 7A       		.byte	0x7a
 9426 2972 00       		.sleb128 0
 9427 2973 2E       		.uleb128 0x2e
 9428 2974 02       		.byte	0x2
 9429 2975 7D       		.byte	0x7d
 9430 2976 04       		.sleb128 4
 9431 2977 01       		.byte	0x1
 9432 2978 31       		.byte	0x31
 9433 2979 2E       		.uleb128 0x2e
 9434 297a 02       		.byte	0x2
 9435 297b 7D       		.byte	0x7d
 9436 297c 08       		.sleb128 8
 9437 297d 01       		.byte	0x1
 9438 297e 38       		.byte	0x38
 9439 297f 2E       		.uleb128 0x2e
 9440 2980 02       		.byte	0x2
 9441 2981 7D       		.byte	0x7d
 9442 2982 0C       		.sleb128 12
 9443 2983 01       		.byte	0x1
 9444 2984 30       		.byte	0x30
 9445 2985 2E       		.uleb128 0x2e
 9446 2986 02       		.byte	0x2
 9447 2987 7D       		.byte	0x7d
 9448 2988 10       		.sleb128 16
 9449 2989 01       		.byte	0x1
 9450 298a 31       		.byte	0x31
 9451 298b 2E       		.uleb128 0x2e
 9452 298c 02       		.byte	0x2
 9453 298d 7D       		.byte	0x7d
 9454 298e 14       		.sleb128 20
 9455 298f 01       		.byte	0x1
 9456 2990 30       		.byte	0x30
 9457 2991 2E       		.uleb128 0x2e
 9458 2992 02       		.byte	0x2
 9459 2993 7D       		.byte	0x7d
 9460 2994 18       		.sleb128 24
 9461 2995 01       		.byte	0x1
ARM GAS  C:\Users\EBANO_~1\AppData\Local\Temp\cc2nkIni.s 			page 196


 9462 2996 30       		.byte	0x30
 9463 2997 2E       		.uleb128 0x2e
 9464 2998 02       		.byte	0x2
 9465 2999 7D       		.byte	0x7d
 9466 299a 1C       		.sleb128 28
 9467 299b 01       		.byte	0x1
 9468 299c 30       		.byte	0x30
 9469 299d 2E       		.uleb128 0x2e
 9470 299e 02       		.byte	0x2
 9471 299f 7D       		.byte	0x7d
 9472 29a0 20       		.sleb128 32
 9473 29a1 03       		.byte	0x3
 9474 29a2 0A       		.byte	0xa
 9475 29a3 B80B     		.2byte	0xbb8
 9476 29a5 00       		.byte	0
 9477 29a6 4D       		.uleb128 0x4d
 9478 29a7 C0000000 		.4byte	.LVL133
 9479 29ab 03       		.byte	0x3
 9480 29ac 91       		.byte	0x91
 9481 29ad 54       		.sleb128 -44
 9482 29ae 06       		.byte	0x6
 9483 29af BA290000 		.4byte	0x29ba
 9484 29b3 2E       		.uleb128 0x2e
 9485 29b4 01       		.byte	0x1
 9486 29b5 50       		.byte	0x50
 9487 29b6 02       		.byte	0x2
 9488 29b7 76       		.byte	0x76
 9489 29b8 00       		.sleb128 0
 9490 29b9 00       		.byte	0
 9491 29ba 4D       		.uleb128 0x4d
 9492 29bb CA000000 		.4byte	.LVL134
 9493 29bf 03       		.byte	0x3
 9494 29c0 91       		.byte	0x91
 9495 29c1 54       		.sleb128 -44
 9496 29c2 06       		.byte	0x6
 9497 29c3 CE290000 		.4byte	0x29ce
 9498 29c7 2E       		.uleb128 0x2e
 9499 29c8 01       		.byte	0x1
 9500 29c9 50       		.byte	0x50
 9501 29ca 02       		.byte	0x2
 9502 29cb 76       		.byte	0x76
 9503 29cc 00       		.sleb128 0
 9504 29cd 00       		.byte	0
 9505 29ce 4E       		.uleb128 0x4e
 9506 29cf 1A010000 		.4byte	.LVL143
 9507 29d3 02       		.byte	0x2
 9508 29d4 76       		.byte	0x76
 9509 29d5 00       		.sleb128 0
 9510 29d6 2E       		.uleb128 0x2e
 9511 29d7 01       		.byte	0x1
 9512 29d8 50       		.byte	0x50
 9513 29d9 01       		.byte	0x1
 9514 29da 30       		.byte	0x30
 9515 29db 2E       		.uleb128 0x2e
 9516 29dc 01       		.byte	0x1
 9517 29dd 51       		.byte	0x51
 9518 29de 02       		.byte	0x2
ARM GAS  C:\Users\EBANO_~1\AppData\Local\Temp\cc2nkIni.s 			page 197


 9519 29df 7B       		.byte	0x7b
 9520 29e0 00       		.sleb128 0
 9521 29e1 2E       		.uleb128 0x2e
 9522 29e2 01       		.byte	0x1
 9523 29e3 52       		.byte	0x52
 9524 29e4 03       		.byte	0x3
 9525 29e5 0A       		.byte	0xa
 9526 29e6 A861     		.2byte	0x61a8
 9527 29e8 2E       		.uleb128 0x2e
 9528 29e9 01       		.byte	0x1
 9529 29ea 53       		.byte	0x53
 9530 29eb 02       		.byte	0x2
 9531 29ec 7A       		.byte	0x7a
 9532 29ed 00       		.sleb128 0
 9533 29ee 2E       		.uleb128 0x2e
 9534 29ef 02       		.byte	0x2
 9535 29f0 7D       		.byte	0x7d
 9536 29f1 04       		.sleb128 4
 9537 29f2 01       		.byte	0x1
 9538 29f3 30       		.byte	0x30
 9539 29f4 2E       		.uleb128 0x2e
 9540 29f5 02       		.byte	0x2
 9541 29f6 7D       		.byte	0x7d
 9542 29f7 08       		.sleb128 8
 9543 29f8 01       		.byte	0x1
 9544 29f9 35       		.byte	0x35
 9545 29fa 2E       		.uleb128 0x2e
 9546 29fb 02       		.byte	0x2
 9547 29fc 7D       		.byte	0x7d
 9548 29fd 0C       		.sleb128 12
 9549 29fe 01       		.byte	0x1
 9550 29ff 30       		.byte	0x30
 9551 2a00 2E       		.uleb128 0x2e
 9552 2a01 02       		.byte	0x2
 9553 2a02 7D       		.byte	0x7d
 9554 2a03 10       		.sleb128 16
 9555 2a04 01       		.byte	0x1
 9556 2a05 31       		.byte	0x31
 9557 2a06 2E       		.uleb128 0x2e
 9558 2a07 02       		.byte	0x2
 9559 2a08 7D       		.byte	0x7d
 9560 2a09 14       		.sleb128 20
 9561 2a0a 01       		.byte	0x1
 9562 2a0b 30       		.byte	0x30
 9563 2a0c 2E       		.uleb128 0x2e
 9564 2a0d 02       		.byte	0x2
 9565 2a0e 7D       		.byte	0x7d
 9566 2a0f 18       		.sleb128 24
 9567 2a10 01       		.byte	0x1
 9568 2a11 30       		.byte	0x30
 9569 2a12 2E       		.uleb128 0x2e
 9570 2a13 02       		.byte	0x2
 9571 2a14 7D       		.byte	0x7d
 9572 2a15 1C       		.sleb128 28
 9573 2a16 01       		.byte	0x1
 9574 2a17 30       		.byte	0x30
 9575 2a18 2E       		.uleb128 0x2e
ARM GAS  C:\Users\EBANO_~1\AppData\Local\Temp\cc2nkIni.s 			page 198


 9576 2a19 02       		.byte	0x2
 9577 2a1a 7D       		.byte	0x7d
 9578 2a1b 20       		.sleb128 32
 9579 2a1c 03       		.byte	0x3
 9580 2a1d 0A       		.byte	0xa
 9581 2a1e B80B     		.2byte	0xbb8
 9582 2a20 00       		.byte	0
 9583 2a21 00       		.byte	0
 9584 2a22 0A       		.uleb128 0xa
 9585 2a23 04       		.byte	0x4
 9586 2a24 CA170000 		.4byte	0x17ca
 9587 2a28 45       		.uleb128 0x45
 9588 2a29 01       		.byte	0x1
 9589 2a2a 6C080000 		.4byte	.LASF506
 9590 2a2e 01       		.byte	0x1
 9591 2a2f 4502     		.2byte	0x245
 9592 2a31 01       		.byte	0x1
 9593 2a32 1A0B0000 		.4byte	0xb1a
 9594 2a36 00000000 		.4byte	.LFB52
 9595 2a3a 0C010000 		.4byte	.LFE52
 9596 2a3e EF100000 		.4byte	.LLST32
 9597 2a42 01       		.byte	0x1
 9598 2a43 872B0000 		.4byte	0x2b87
 9599 2a47 2C       		.uleb128 0x2c
 9600 2a48 611A0000 		.4byte	.LASF507
 9601 2a4c 01       		.byte	0x1
 9602 2a4d 4502     		.2byte	0x245
 9603 2a4f 872B0000 		.4byte	0x2b87
 9604 2a53 28110000 		.4byte	.LLST33
 9605 2a57 2C       		.uleb128 0x2c
 9606 2a58 1E050000 		.4byte	.LASF508
 9607 2a5c 01       		.byte	0x1
 9608 2a5d 4502     		.2byte	0x245
 9609 2a5f 32280000 		.4byte	0x2832
 9610 2a63 5F110000 		.4byte	.LLST34
 9611 2a67 31       		.uleb128 0x31
 9612 2a68 7F010000 		.4byte	.LASF503
 9613 2a6c 01       		.byte	0x1
 9614 2a6d 4702     		.2byte	0x247
 9615 2a6f D70B0000 		.4byte	0xbd7
 9616 2a73 96110000 		.4byte	.LLST35
 9617 2a77 40       		.uleb128 0x40
 9618 2a78 647200   		.ascii	"dr\000"
 9619 2a7b 01       		.byte	0x1
 9620 2a7c 4802     		.2byte	0x248
 9621 2a7e B1000000 		.4byte	0xb1
 9622 2a82 CC110000 		.4byte	.LLST36
 9623 2a86 31       		.uleb128 0x31
 9624 2a87 69140000 		.4byte	.LASF509
 9625 2a8b 01       		.byte	0x1
 9626 2a8c 4902     		.2byte	0x249
 9627 2a8e C1000000 		.4byte	0xc1
 9628 2a92 EA110000 		.4byte	.LLST37
 9629 2a96 31       		.uleb128 0x31
 9630 2a97 E8040000 		.4byte	.LASF504
 9631 2a9b 01       		.byte	0x1
 9632 2a9c 4A02     		.2byte	0x24a
ARM GAS  C:\Users\EBANO_~1\AppData\Local\Temp\cc2nkIni.s 			page 199


 9633 2a9e B1000000 		.4byte	0xb1
 9634 2aa2 2C120000 		.4byte	.LLST38
 9635 2aa6 31       		.uleb128 0x31
 9636 2aa7 8D200000 		.4byte	.LASF452
 9637 2aab 01       		.byte	0x1
 9638 2aac 4B02     		.2byte	0x24b
 9639 2aae F2000000 		.4byte	0xf2
 9640 2ab2 62120000 		.4byte	.LLST39
 9641 2ab6 4B       		.uleb128 0x4b
 9642 2ab7 20000000 		.4byte	.LVL95
 9643 2abb 03       		.byte	0x3
 9644 2abc 75       		.byte	0x75
 9645 2abd 0C       		.sleb128 12
 9646 2abe 06       		.byte	0x6
 9647 2abf 4D       		.uleb128 0x4d
 9648 2ac0 54000000 		.4byte	.LVL99
 9649 2ac4 03       		.byte	0x3
 9650 2ac5 91       		.byte	0x91
 9651 2ac6 5C       		.sleb128 -36
 9652 2ac7 06       		.byte	0x6
 9653 2ac8 D32A0000 		.4byte	0x2ad3
 9654 2acc 2E       		.uleb128 0x2e
 9655 2acd 01       		.byte	0x1
 9656 2ace 50       		.byte	0x50
 9657 2acf 02       		.byte	0x2
 9658 2ad0 78       		.byte	0x78
 9659 2ad1 00       		.sleb128 0
 9660 2ad2 00       		.byte	0
 9661 2ad3 4D       		.uleb128 0x4d
 9662 2ad4 86000000 		.4byte	.LVL101
 9663 2ad8 02       		.byte	0x2
 9664 2ad9 77       		.byte	0x77
 9665 2ada 00       		.sleb128 0
 9666 2adb 202B0000 		.4byte	0x2b20
 9667 2adf 2E       		.uleb128 0x2e
 9668 2ae0 01       		.byte	0x1
 9669 2ae1 50       		.byte	0x50
 9670 2ae2 01       		.byte	0x1
 9671 2ae3 31       		.byte	0x31
 9672 2ae4 2E       		.uleb128 0x2e
 9673 2ae5 01       		.byte	0x1
 9674 2ae6 52       		.byte	0x52
 9675 2ae7 02       		.byte	0x2
 9676 2ae8 79       		.byte	0x79
 9677 2ae9 00       		.sleb128 0
 9678 2aea 2E       		.uleb128 0x2e
 9679 2aeb 01       		.byte	0x1
 9680 2aec 53       		.byte	0x53
 9681 2aed 01       		.byte	0x1
 9682 2aee 31       		.byte	0x31
 9683 2aef 2E       		.uleb128 0x2e
 9684 2af0 02       		.byte	0x2
 9685 2af1 7D       		.byte	0x7d
 9686 2af2 00       		.sleb128 0
 9687 2af3 01       		.byte	0x1
 9688 2af4 30       		.byte	0x30
 9689 2af5 2E       		.uleb128 0x2e
ARM GAS  C:\Users\EBANO_~1\AppData\Local\Temp\cc2nkIni.s 			page 200


 9690 2af6 02       		.byte	0x2
 9691 2af7 7D       		.byte	0x7d
 9692 2af8 04       		.sleb128 4
 9693 2af9 01       		.byte	0x1
 9694 2afa 38       		.byte	0x38
 9695 2afb 2E       		.uleb128 0x2e
 9696 2afc 02       		.byte	0x2
 9697 2afd 7D       		.byte	0x7d
 9698 2afe 0C       		.sleb128 12
 9699 2aff 01       		.byte	0x1
 9700 2b00 30       		.byte	0x30
 9701 2b01 2E       		.uleb128 0x2e
 9702 2b02 02       		.byte	0x2
 9703 2b03 7D       		.byte	0x7d
 9704 2b04 10       		.sleb128 16
 9705 2b05 01       		.byte	0x1
 9706 2b06 30       		.byte	0x30
 9707 2b07 2E       		.uleb128 0x2e
 9708 2b08 02       		.byte	0x2
 9709 2b09 7D       		.byte	0x7d
 9710 2b0a 14       		.sleb128 20
 9711 2b0b 01       		.byte	0x1
 9712 2b0c 30       		.byte	0x30
 9713 2b0d 2E       		.uleb128 0x2e
 9714 2b0e 02       		.byte	0x2
 9715 2b0f 7D       		.byte	0x7d
 9716 2b10 18       		.sleb128 24
 9717 2b11 01       		.byte	0x1
 9718 2b12 30       		.byte	0x30
 9719 2b13 2E       		.uleb128 0x2e
 9720 2b14 02       		.byte	0x2
 9721 2b15 7D       		.byte	0x7d
 9722 2b16 1C       		.sleb128 28
 9723 2b17 01       		.byte	0x1
 9724 2b18 30       		.byte	0x30
 9725 2b19 2E       		.uleb128 0x2e
 9726 2b1a 02       		.byte	0x2
 9727 2b1b 7D       		.byte	0x7d
 9728 2b1c 20       		.sleb128 32
 9729 2b1d 01       		.byte	0x1
 9730 2b1e 31       		.byte	0x31
 9731 2b1f 00       		.byte	0
 9732 2b20 4B       		.uleb128 0x4b
 9733 2b21 9E000000 		.4byte	.LVL105
 9734 2b25 03       		.byte	0x3
 9735 2b26 91       		.byte	0x91
 9736 2b27 5C       		.sleb128 -36
 9737 2b28 06       		.byte	0x6
 9738 2b29 3A       		.uleb128 0x3a
 9739 2b2a EC000000 		.4byte	.LVL114
 9740 2b2e 2E       		.uleb128 0x2e
 9741 2b2f 01       		.byte	0x1
 9742 2b30 50       		.byte	0x50
 9743 2b31 01       		.byte	0x1
 9744 2b32 30       		.byte	0x30
 9745 2b33 2E       		.uleb128 0x2e
 9746 2b34 01       		.byte	0x1
ARM GAS  C:\Users\EBANO_~1\AppData\Local\Temp\cc2nkIni.s 			page 201


 9747 2b35 51       		.byte	0x51
 9748 2b36 03       		.byte	0x3
 9749 2b37 0A       		.byte	0xa
 9750 2b38 50C3     		.2byte	0xc350
 9751 2b3a 2E       		.uleb128 0x2e
 9752 2b3b 01       		.byte	0x1
 9753 2b3c 52       		.byte	0x52
 9754 2b3d 0E       		.byte	0xe
 9755 2b3e 79       		.byte	0x79
 9756 2b3f 00       		.sleb128 0
 9757 2b40 35       		.byte	0x35
 9758 2b41 24       		.byte	0x24
 9759 2b42 79       		.byte	0x79
 9760 2b43 00       		.sleb128 0
 9761 2b44 1C       		.byte	0x1c
 9762 2b45 32       		.byte	0x32
 9763 2b46 24       		.byte	0x24
 9764 2b47 79       		.byte	0x79
 9765 2b48 00       		.sleb128 0
 9766 2b49 22       		.byte	0x22
 9767 2b4a 33       		.byte	0x33
 9768 2b4b 24       		.byte	0x24
 9769 2b4c 2E       		.uleb128 0x2e
 9770 2b4d 01       		.byte	0x1
 9771 2b4e 53       		.byte	0x53
 9772 2b4f 01       		.byte	0x1
 9773 2b50 30       		.byte	0x30
 9774 2b51 2E       		.uleb128 0x2e
 9775 2b52 02       		.byte	0x2
 9776 2b53 7D       		.byte	0x7d
 9777 2b54 00       		.sleb128 0
 9778 2b55 05       		.byte	0x5
 9779 2b56 0C       		.byte	0xc
 9780 2b57 85450100 		.4byte	0x14585
 9781 2b5b 2E       		.uleb128 0x2e
 9782 2b5c 02       		.byte	0x2
 9783 2b5d 7D       		.byte	0x7d
 9784 2b5e 04       		.sleb128 4
 9785 2b5f 01       		.byte	0x1
 9786 2b60 35       		.byte	0x35
 9787 2b61 2E       		.uleb128 0x2e
 9788 2b62 02       		.byte	0x2
 9789 2b63 7D       		.byte	0x7d
 9790 2b64 0C       		.sleb128 12
 9791 2b65 01       		.byte	0x1
 9792 2b66 30       		.byte	0x30
 9793 2b67 2E       		.uleb128 0x2e
 9794 2b68 02       		.byte	0x2
 9795 2b69 7D       		.byte	0x7d
 9796 2b6a 10       		.sleb128 16
 9797 2b6b 01       		.byte	0x1
 9798 2b6c 30       		.byte	0x30
 9799 2b6d 2E       		.uleb128 0x2e
 9800 2b6e 02       		.byte	0x2
 9801 2b6f 7D       		.byte	0x7d
 9802 2b70 14       		.sleb128 20
 9803 2b71 01       		.byte	0x1
ARM GAS  C:\Users\EBANO_~1\AppData\Local\Temp\cc2nkIni.s 			page 202


 9804 2b72 31       		.byte	0x31
 9805 2b73 2E       		.uleb128 0x2e
 9806 2b74 02       		.byte	0x2
 9807 2b75 7D       		.byte	0x7d
 9808 2b76 18       		.sleb128 24
 9809 2b77 01       		.byte	0x1
 9810 2b78 30       		.byte	0x30
 9811 2b79 2E       		.uleb128 0x2e
 9812 2b7a 02       		.byte	0x2
 9813 2b7b 7D       		.byte	0x7d
 9814 2b7c 1C       		.sleb128 28
 9815 2b7d 01       		.byte	0x1
 9816 2b7e 30       		.byte	0x30
 9817 2b7f 2E       		.uleb128 0x2e
 9818 2b80 02       		.byte	0x2
 9819 2b81 7D       		.byte	0x7d
 9820 2b82 20       		.sleb128 32
 9821 2b83 01       		.byte	0x1
 9822 2b84 30       		.byte	0x30
 9823 2b85 00       		.byte	0
 9824 2b86 00       		.byte	0
 9825 2b87 0A       		.uleb128 0xa
 9826 2b88 04       		.byte	0x4
 9827 2b89 56170000 		.4byte	0x1756
 9828 2b8d 2B       		.uleb128 0x2b
 9829 2b8e 01       		.byte	0x1
 9830 2b8f A5140000 		.4byte	.LASF510
 9831 2b93 01       		.byte	0x1
 9832 2b94 3102     		.2byte	0x231
 9833 2b96 01       		.byte	0x1
 9834 2b97 00000000 		.4byte	.LFB51
 9835 2b9b 94000000 		.4byte	.LFE51
 9836 2b9f A1120000 		.4byte	.LLST26
 9837 2ba3 01       		.byte	0x1
 9838 2ba4 7B2C0000 		.4byte	0x2c7b
 9839 2ba8 2C       		.uleb128 0x2c
 9840 2ba9 1E050000 		.4byte	.LASF508
 9841 2bad 01       		.byte	0x1
 9842 2bae 3102     		.2byte	0x231
 9843 2bb0 B1000000 		.4byte	0xb1
 9844 2bb4 D9120000 		.4byte	.LLST27
 9845 2bb8 2C       		.uleb128 0x2c
 9846 2bb9 4A150000 		.4byte	.LASF511
 9847 2bbd 01       		.byte	0x1
 9848 2bbe 3102     		.2byte	0x231
 9849 2bc0 C1000000 		.4byte	0xc1
 9850 2bc4 13130000 		.4byte	.LLST28
 9851 2bc8 2C       		.uleb128 0x2c
 9852 2bc9 83190000 		.4byte	.LASF512
 9853 2bcd 01       		.byte	0x1
 9854 2bce 3102     		.2byte	0x231
 9855 2bd0 F2000000 		.4byte	0xf2
 9856 2bd4 34130000 		.4byte	.LLST29
 9857 2bd8 2C       		.uleb128 0x2c
 9858 2bd9 A70A0000 		.4byte	.LASF513
 9859 2bdd 01       		.byte	0x1
 9860 2bde 3102     		.2byte	0x231
ARM GAS  C:\Users\EBANO_~1\AppData\Local\Temp\cc2nkIni.s 			page 203


 9861 2be0 872B0000 		.4byte	0x2b87
 9862 2be4 6B130000 		.4byte	.LLST30
 9863 2be8 31       		.uleb128 0x31
 9864 2be9 951A0000 		.4byte	.LASF514
 9865 2bed 01       		.byte	0x1
 9866 2bee 3302     		.2byte	0x233
 9867 2bf0 7B2C0000 		.4byte	0x2c7b
 9868 2bf4 D7130000 		.4byte	.LLST31
 9869 2bf8 33       		.uleb128 0x33
 9870 2bf9 03320000 		.4byte	0x3203
 9871 2bfd 18000000 		.4byte	.LBB51
 9872 2c01 70000000 		.4byte	.Ldebug_ranges0+0x70
 9873 2c05 01       		.byte	0x1
 9874 2c06 3702     		.2byte	0x237
 9875 2c08 122C0000 		.4byte	0x2c12
 9876 2c0c 36       		.uleb128 0x36
 9877 2c0d 14320000 		.4byte	0x3214
 9878 2c11 00       		.byte	0
 9879 2c12 41       		.uleb128 0x41
 9880 2c13 44000000 		.4byte	.LVL79
 9881 2c17 38340000 		.4byte	0x3438
 9882 2c1b 3D2C0000 		.4byte	0x2c3d
 9883 2c1f 2E       		.uleb128 0x2e
 9884 2c20 01       		.byte	0x1
 9885 2c21 50       		.byte	0x50
 9886 2c22 0A       		.byte	0xa
 9887 2c23 76       		.byte	0x76
 9888 2c24 00       		.sleb128 0
 9889 2c25 03       		.byte	0x3
 9890 2c26 0C010000 		.4byte	.LANCHOR1+32
 9891 2c2a 22       		.byte	0x22
 9892 2c2b 94       		.byte	0x94
 9893 2c2c 01       		.byte	0x1
 9894 2c2d 2E       		.uleb128 0x2e
 9895 2c2e 01       		.byte	0x1
 9896 2c2f 51       		.byte	0x51
 9897 2c30 0B       		.byte	0xb
 9898 2c31 76       		.byte	0x76
 9899 2c32 00       		.sleb128 0
 9900 2c33 32       		.byte	0x32
 9901 2c34 24       		.byte	0x24
 9902 2c35 03       		.byte	0x3
 9903 2c36 EC000000 		.4byte	.LANCHOR1
 9904 2c3a 22       		.byte	0x22
 9905 2c3b 06       		.byte	0x6
 9906 2c3c 00       		.byte	0
 9907 2c3d 4F       		.uleb128 0x4f
 9908 2c3e 50000000 		.4byte	.LVL81
 9909 2c42 41       		.uleb128 0x41
 9910 2c43 68000000 		.4byte	.LVL85
 9911 2c47 46340000 		.4byte	0x3446
 9912 2c4b 6A2C0000 		.4byte	0x2c6a
 9913 2c4f 2E       		.uleb128 0x2e
 9914 2c50 01       		.byte	0x1
 9915 2c51 52       		.byte	0x52
 9916 2c52 02       		.byte	0x2
 9917 2c53 75       		.byte	0x75
ARM GAS  C:\Users\EBANO_~1\AppData\Local\Temp\cc2nkIni.s 			page 204


 9918 2c54 00       		.sleb128 0
 9919 2c55 2E       		.uleb128 0x2e
 9920 2c56 01       		.byte	0x1
 9921 2c57 53       		.byte	0x53
 9922 2c58 02       		.byte	0x2
 9923 2c59 78       		.byte	0x78
 9924 2c5a 00       		.sleb128 0
 9925 2c5b 2E       		.uleb128 0x2e
 9926 2c5c 02       		.byte	0x2
 9927 2c5d 7D       		.byte	0x7d
 9928 2c5e 04       		.sleb128 4
 9929 2c5f 02       		.byte	0x2
 9930 2c60 74       		.byte	0x74
 9931 2c61 00       		.sleb128 0
 9932 2c62 2E       		.uleb128 0x2e
 9933 2c63 02       		.byte	0x2
 9934 2c64 7D       		.byte	0x7d
 9935 2c65 08       		.sleb128 8
 9936 2c66 02       		.byte	0x2
 9937 2c67 74       		.byte	0x74
 9938 2c68 04       		.sleb128 4
 9939 2c69 00       		.byte	0
 9940 2c6a 2D       		.uleb128 0x2d
 9941 2c6b 7E000000 		.4byte	.LVL91
 9942 2c6f 54340000 		.4byte	0x3454
 9943 2c73 2E       		.uleb128 0x2e
 9944 2c74 01       		.byte	0x1
 9945 2c75 50       		.byte	0x50
 9946 2c76 02       		.byte	0x2
 9947 2c77 08       		.byte	0x8
 9948 2c78 32       		.byte	0x32
 9949 2c79 00       		.byte	0
 9950 2c7a 00       		.byte	0
 9951 2c7b 02       		.uleb128 0x2
 9952 2c7c 08       		.byte	0x8
 9953 2c7d 04       		.byte	0x4
 9954 2c7e 171A0000 		.4byte	.LASF515
 9955 2c82 45       		.uleb128 0x45
 9956 2c83 01       		.byte	0x1
 9957 2c84 43120000 		.4byte	.LASF516
 9958 2c88 01       		.byte	0x1
 9959 2c89 1D02     		.2byte	0x21d
 9960 2c8b 01       		.byte	0x1
 9961 2c8c 1A0B0000 		.4byte	0xb1a
 9962 2c90 00000000 		.4byte	.LFB50
 9963 2c94 34000000 		.4byte	.LFE50
 9964 2c98 27140000 		.4byte	.LLST24
 9965 2c9c 01       		.byte	0x1
 9966 2c9d E62C0000 		.4byte	0x2ce6
 9967 2ca1 2C       		.uleb128 0x2c
 9968 2ca2 EC000000 		.4byte	.LASF517
 9969 2ca6 01       		.byte	0x1
 9970 2ca7 1D02     		.2byte	0x21d
 9971 2ca9 E62C0000 		.4byte	0x2ce6
 9972 2cad 47140000 		.4byte	.LLST25
 9973 2cb1 41       		.uleb128 0x41
 9974 2cb2 1A000000 		.4byte	.LVL69
ARM GAS  C:\Users\EBANO_~1\AppData\Local\Temp\cc2nkIni.s 			page 205


 9975 2cb6 62340000 		.4byte	0x3462
 9976 2cba CD2C0000 		.4byte	0x2ccd
 9977 2cbe 2E       		.uleb128 0x2e
 9978 2cbf 01       		.byte	0x1
 9979 2cc0 50       		.byte	0x50
 9980 2cc1 05       		.byte	0x5
 9981 2cc2 03       		.byte	0x3
 9982 2cc3 D2000000 		.4byte	NvmCtx+210
 9983 2cc7 2E       		.uleb128 0x2e
 9984 2cc8 01       		.byte	0x1
 9985 2cc9 52       		.byte	0x52
 9986 2cca 01       		.byte	0x1
 9987 2ccb 31       		.byte	0x31
 9988 2ccc 00       		.byte	0
 9989 2ccd 2D       		.uleb128 0x2d
 9990 2cce 28000000 		.4byte	.LVL72
 9991 2cd2 62340000 		.4byte	0x3462
 9992 2cd6 2E       		.uleb128 0x2e
 9993 2cd7 01       		.byte	0x1
 9994 2cd8 50       		.byte	0x50
 9995 2cd9 05       		.byte	0x5
 9996 2cda 03       		.byte	0x3
 9997 2cdb D0000000 		.4byte	NvmCtx+208
 9998 2cdf 2E       		.uleb128 0x2e
 9999 2ce0 01       		.byte	0x1
 10000 2ce1 52       		.byte	0x52
 10001 2ce2 01       		.byte	0x1
 10002 2ce3 31       		.byte	0x31
 10003 2ce4 00       		.byte	0
 10004 2ce5 00       		.byte	0
 10005 2ce6 0A       		.uleb128 0xa
 10006 2ce7 04       		.byte	0x4
 10007 2ce8 97160000 		.4byte	0x1697
 10008 2cec 2B       		.uleb128 0x2b
 10009 2ced 01       		.byte	0x1
 10010 2cee 4F110000 		.4byte	.LASF518
 10011 2cf2 01       		.byte	0x1
 10012 2cf3 E201     		.2byte	0x1e2
 10013 2cf5 01       		.byte	0x1
 10014 2cf6 00000000 		.4byte	.LFB49
 10015 2cfa 44010000 		.4byte	.LFE49
 10016 2cfe 9A140000 		.4byte	.LLST15
 10017 2d02 01       		.byte	0x1
 10018 2d03 992E0000 		.4byte	0x2e99
 10019 2d07 2C       		.uleb128 0x2c
 10020 2d08 0D060000 		.4byte	.LASF519
 10021 2d0c 01       		.byte	0x1
 10022 2d0d E201     		.2byte	0x1e2
 10023 2d0f 992E0000 		.4byte	0x2e99
 10024 2d13 D3140000 		.4byte	.LLST16
 10025 2d17 29       		.uleb128 0x29
 10026 2d18 DD190000 		.4byte	.LASF520
 10027 2d1c 01       		.byte	0x1
 10028 2d1d E401     		.2byte	0x1e4
 10029 2d1f 46110000 		.4byte	0x1146
 10030 2d23 02       		.byte	0x2
 10031 2d24 91       		.byte	0x91
ARM GAS  C:\Users\EBANO_~1\AppData\Local\Temp\cc2nkIni.s 			page 206


 10032 2d25 4C       		.sleb128 -52
 10033 2d26 32       		.uleb128 0x32
 10034 2d27 D7130000 		.4byte	.LASF457
 10035 2d2b 01       		.byte	0x1
 10036 2d2c E501     		.2byte	0x1e5
 10037 2d2e 961A0000 		.4byte	0x1a96
 10038 2d32 32       		.uleb128 0x32
 10039 2d33 62200000 		.4byte	.LASF456
 10040 2d37 01       		.byte	0x1
 10041 2d38 E601     		.2byte	0x1e6
 10042 2d3a BF1A0000 		.4byte	0x1abf
 10043 2d3e 37       		.uleb128 0x37
 10044 2d3f 18000000 		.4byte	.Ldebug_ranges0+0x18
 10045 2d43 40       		.uleb128 0x40
 10046 2d44 6900     		.ascii	"i\000"
 10047 2d46 01       		.byte	0x1
 10048 2d47 F801     		.2byte	0x1f8
 10049 2d49 C1000000 		.4byte	0xc1
 10050 2d4d 15150000 		.4byte	.LLST17
 10051 2d51 31       		.uleb128 0x31
 10052 2d52 08040000 		.4byte	.LASF521
 10053 2d56 01       		.byte	0x1
 10054 2d57 F801     		.2byte	0x1f8
 10055 2d59 C1000000 		.4byte	0xc1
 10056 2d5d 50150000 		.4byte	.LLST18
 10057 2d61 33       		.uleb128 0x33
 10058 2d62 9A200000 		.4byte	0x209a
 10059 2d66 32000000 		.4byte	.LBB36
 10060 2d6a 30000000 		.4byte	.Ldebug_ranges0+0x30
 10061 2d6e 01       		.byte	0x1
 10062 2d6f 1802     		.2byte	0x218
 10063 2d71 D22D0000 		.4byte	0x2dd2
 10064 2d75 34       		.uleb128 0x34
 10065 2d76 AD200000 		.4byte	0x20ad
 10066 2d7a 9C150000 		.4byte	.LLST19
 10067 2d7e 37       		.uleb128 0x37
 10068 2d7f 30000000 		.4byte	.Ldebug_ranges0+0x30
 10069 2d83 42       		.uleb128 0x42
 10070 2d84 B9200000 		.4byte	0x20b9
 10071 2d88 B4150000 		.4byte	.LLST20
 10072 2d8c 41       		.uleb128 0x41
 10073 2d8d 56000000 		.4byte	.LVL50
 10074 2d91 AC330000 		.4byte	0x33ac
 10075 2d95 B22D0000 		.4byte	0x2db2
 10076 2d99 2E       		.uleb128 0x2e
 10077 2d9a 01       		.byte	0x1
 10078 2d9b 50       		.byte	0x50
 10079 2d9c 0A       		.byte	0xa
 10080 2d9d 76       		.byte	0x76
 10081 2d9e 00       		.sleb128 0
 10082 2d9f 74       		.byte	0x74
 10083 2da0 00       		.sleb128 0
 10084 2da1 22       		.byte	0x22
 10085 2da2 32       		.byte	0x32
 10086 2da3 24       		.byte	0x24
 10087 2da4 7A       		.byte	0x7a
 10088 2da5 00       		.sleb128 0
ARM GAS  C:\Users\EBANO_~1\AppData\Local\Temp\cc2nkIni.s 			page 207


 10089 2da6 22       		.byte	0x22
 10090 2da7 2E       		.uleb128 0x2e
 10091 2da8 01       		.byte	0x1
 10092 2da9 51       		.byte	0x51
 10093 2daa 01       		.byte	0x1
 10094 2dab 30       		.byte	0x30
 10095 2dac 2E       		.uleb128 0x2e
 10096 2dad 01       		.byte	0x1
 10097 2dae 52       		.byte	0x52
 10098 2daf 01       		.byte	0x1
 10099 2db0 3C       		.byte	0x3c
 10100 2db1 00       		.byte	0
 10101 2db2 2D       		.uleb128 0x2d
 10102 2db3 60000000 		.4byte	.LVL51
 10103 2db7 F4330000 		.4byte	0x33f4
 10104 2dbb 2E       		.uleb128 0x2e
 10105 2dbc 01       		.byte	0x1
 10106 2dbd 50       		.byte	0x50
 10107 2dbe 05       		.byte	0x5
 10108 2dbf 03       		.byte	0x3
 10109 2dc0 D0000000 		.4byte	NvmCtx+208
 10110 2dc4 2E       		.uleb128 0x2e
 10111 2dc5 01       		.byte	0x1
 10112 2dc6 51       		.byte	0x51
 10113 2dc7 02       		.byte	0x2
 10114 2dc8 78       		.byte	0x78
 10115 2dc9 00       		.sleb128 0
 10116 2dca 2E       		.uleb128 0x2e
 10117 2dcb 01       		.byte	0x1
 10118 2dcc 52       		.byte	0x52
 10119 2dcd 01       		.byte	0x1
 10120 2dce 40       		.byte	0x40
 10121 2dcf 00       		.byte	0
 10122 2dd0 00       		.byte	0
 10123 2dd1 00       		.byte	0
 10124 2dd2 50       		.uleb128 0x50
 10125 2dd3 CB200000 		.4byte	0x20cb
 10126 2dd7 9E000000 		.4byte	.LBB42
 10127 2ddb 44010000 		.4byte	.LBE42
 10128 2ddf 01       		.byte	0x1
 10129 2de0 1202     		.2byte	0x212
 10130 2de2 35       		.uleb128 0x35
 10131 2de3 DE200000 		.4byte	0x20de
 10132 2de7 06       		.byte	0x6
 10133 2de8 F2       		.byte	0xf2
 10134 2de9 262D0000 		.4byte	.Ldebug_info0+11558
 10135 2ded 00       		.sleb128 0
 10136 2dee 49       		.uleb128 0x49
 10137 2def 9E000000 		.4byte	.LBB43
 10138 2df3 44010000 		.4byte	.LBE43
 10139 2df7 42       		.uleb128 0x42
 10140 2df8 EA200000 		.4byte	0x20ea
 10141 2dfc C7150000 		.4byte	.LLST21
 10142 2e00 51       		.uleb128 0x51
 10143 2e01 F6200000 		.4byte	0x20f6
 10144 2e05 00       		.byte	0
 10145 2e06 42       		.uleb128 0x42
ARM GAS  C:\Users\EBANO_~1\AppData\Local\Temp\cc2nkIni.s 			page 208


 10146 2e07 02210000 		.4byte	0x2102
 10147 2e0b 03160000 		.4byte	.LLST22
 10148 2e0f 33       		.uleb128 0x33
 10149 2e10 9D310000 		.4byte	0x319d
 10150 2e14 D6000000 		.4byte	.LBB44
 10151 2e18 50000000 		.4byte	.Ldebug_ranges0+0x50
 10152 2e1c 01       		.byte	0x1
 10153 2e1d F003     		.2byte	0x3f0
 10154 2e1f 4A2E0000 		.4byte	0x2e4a
 10155 2e23 34       		.uleb128 0x34
 10156 2e24 AE310000 		.4byte	0x31ae
 10157 2e28 21160000 		.4byte	.LLST23
 10158 2e2c 4D       		.uleb128 0x4d
 10159 2e2d EC000000 		.4byte	.LVL61
 10160 2e31 03       		.byte	0x3
 10161 2e32 7B       		.byte	0x7b
 10162 2e33 28       		.sleb128 40
 10163 2e34 06       		.byte	0x6
 10164 2e35 402E0000 		.4byte	0x2e40
 10165 2e39 2E       		.uleb128 0x2e
 10166 2e3a 01       		.byte	0x1
 10167 2e3b 50       		.byte	0x50
 10168 2e3c 02       		.byte	0x2
 10169 2e3d 78       		.byte	0x78
 10170 2e3e 00       		.sleb128 0
 10171 2e3f 00       		.byte	0
 10172 2e40 4B       		.uleb128 0x4b
 10173 2e41 2E010000 		.4byte	.LVL64
 10174 2e45 03       		.byte	0x3
 10175 2e46 91       		.byte	0x91
 10176 2e47 44       		.sleb128 -60
 10177 2e48 06       		.byte	0x6
 10178 2e49 00       		.byte	0
 10179 2e4a 41       		.uleb128 0x41
 10180 2e4b AC000000 		.4byte	.LVL56
 10181 2e4f 9F330000 		.4byte	0x339f
 10182 2e53 622E0000 		.4byte	0x2e62
 10183 2e57 2E       		.uleb128 0x2e
 10184 2e58 01       		.byte	0x1
 10185 2e59 51       		.byte	0x51
 10186 2e5a 01       		.byte	0x1
 10187 2e5b 30       		.byte	0x30
 10188 2e5c 2E       		.uleb128 0x2e
 10189 2e5d 01       		.byte	0x1
 10190 2e5e 52       		.byte	0x52
 10191 2e5f 01       		.byte	0x1
 10192 2e60 37       		.byte	0x37
 10193 2e61 00       		.byte	0
 10194 2e62 41       		.uleb128 0x41
 10195 2e63 BC000000 		.4byte	.LVL58
 10196 2e67 9F330000 		.4byte	0x339f
 10197 2e6b 7A2E0000 		.4byte	0x2e7a
 10198 2e6f 2E       		.uleb128 0x2e
 10199 2e70 01       		.byte	0x1
 10200 2e71 51       		.byte	0x51
 10201 2e72 01       		.byte	0x1
 10202 2e73 30       		.byte	0x30
ARM GAS  C:\Users\EBANO_~1\AppData\Local\Temp\cc2nkIni.s 			page 209


 10203 2e74 2E       		.uleb128 0x2e
 10204 2e75 01       		.byte	0x1
 10205 2e76 52       		.byte	0x52
 10206 2e77 01       		.byte	0x1
 10207 2e78 37       		.byte	0x37
 10208 2e79 00       		.byte	0
 10209 2e7a 2D       		.uleb128 0x2d
 10210 2e7b 14010000 		.4byte	.LVL62
 10211 2e7f 02340000 		.4byte	0x3402
 10212 2e83 2E       		.uleb128 0x2e
 10213 2e84 01       		.byte	0x1
 10214 2e85 50       		.byte	0x50
 10215 2e86 02       		.byte	0x2
 10216 2e87 76       		.byte	0x76
 10217 2e88 00       		.sleb128 0
 10218 2e89 2E       		.uleb128 0x2e
 10219 2e8a 01       		.byte	0x1
 10220 2e8b 51       		.byte	0x51
 10221 2e8c 02       		.byte	0x2
 10222 2e8d 75       		.byte	0x75
 10223 2e8e 00       		.sleb128 0
 10224 2e8f 2E       		.uleb128 0x2e
 10225 2e90 01       		.byte	0x1
 10226 2e91 52       		.byte	0x52
 10227 2e92 01       		.byte	0x1
 10228 2e93 3C       		.byte	0x3c
 10229 2e94 00       		.byte	0
 10230 2e95 00       		.byte	0
 10231 2e96 00       		.byte	0
 10232 2e97 00       		.byte	0
 10233 2e98 00       		.byte	0
 10234 2e99 0A       		.uleb128 0xa
 10235 2e9a 04       		.byte	0x4
 10236 2e9b 5F160000 		.4byte	0x165f
 10237 2e9f 45       		.uleb128 0x45
 10238 2ea0 01       		.byte	0x1
 10239 2ea1 7E100000 		.4byte	.LASF522
 10240 2ea5 01       		.byte	0x1
 10241 2ea6 B501     		.2byte	0x1b5
 10242 2ea8 01       		.byte	0x1
 10243 2ea9 1A0B0000 		.4byte	0xb1a
 10244 2ead 00000000 		.4byte	.LFB48
 10245 2eb1 7C000000 		.4byte	.LFE48
 10246 2eb5 41160000 		.4byte	.LLST12
 10247 2eb9 01       		.byte	0x1
 10248 2eba 362F0000 		.4byte	0x2f36
 10249 2ebe 2C       		.uleb128 0x2c
 10250 2ebf 96030000 		.4byte	.LASF523
 10251 2ec3 01       		.byte	0x1
 10252 2ec4 B501     		.2byte	0x1b5
 10253 2ec6 362F0000 		.4byte	0x2f36
 10254 2eca 61160000 		.4byte	.LLST13
 10255 2ece 2C       		.uleb128 0x2c
 10256 2ecf 79150000 		.4byte	.LASF524
 10257 2ed3 01       		.byte	0x1
 10258 2ed4 B501     		.2byte	0x1b5
 10259 2ed6 B7130000 		.4byte	0x13b7
ARM GAS  C:\Users\EBANO_~1\AppData\Local\Temp\cc2nkIni.s 			page 210


 10260 2eda E6160000 		.4byte	.LLST14
 10261 2ede 41       		.uleb128 0x41
 10262 2edf 1E000000 		.4byte	.LVL31
 10263 2ee3 9F330000 		.4byte	0x339f
 10264 2ee7 F62E0000 		.4byte	0x2ef6
 10265 2eeb 2E       		.uleb128 0x2e
 10266 2eec 01       		.byte	0x1
 10267 2eed 51       		.byte	0x51
 10268 2eee 01       		.byte	0x1
 10269 2eef 30       		.byte	0x30
 10270 2ef0 2E       		.uleb128 0x2e
 10271 2ef1 01       		.byte	0x1
 10272 2ef2 52       		.byte	0x52
 10273 2ef3 01       		.byte	0x1
 10274 2ef4 37       		.byte	0x37
 10275 2ef5 00       		.byte	0
 10276 2ef6 41       		.uleb128 0x41
 10277 2ef7 3A000000 		.4byte	.LVL34
 10278 2efb 9F330000 		.4byte	0x339f
 10279 2eff 092F0000 		.4byte	0x2f09
 10280 2f03 2E       		.uleb128 0x2e
 10281 2f04 01       		.byte	0x1
 10282 2f05 51       		.byte	0x51
 10283 2f06 01       		.byte	0x1
 10284 2f07 30       		.byte	0x30
 10285 2f08 00       		.byte	0
 10286 2f09 41       		.uleb128 0x41
 10287 2f0a 4E000000 		.4byte	.LVL37
 10288 2f0e 9F330000 		.4byte	0x339f
 10289 2f12 212F0000 		.4byte	0x2f21
 10290 2f16 2E       		.uleb128 0x2e
 10291 2f17 01       		.byte	0x1
 10292 2f18 51       		.byte	0x51
 10293 2f19 01       		.byte	0x1
 10294 2f1a 30       		.byte	0x30
 10295 2f1b 2E       		.uleb128 0x2e
 10296 2f1c 01       		.byte	0x1
 10297 2f1d 52       		.byte	0x52
 10298 2f1e 01       		.byte	0x1
 10299 2f1f 35       		.byte	0x35
 10300 2f20 00       		.byte	0
 10301 2f21 2D       		.uleb128 0x2d
 10302 2f22 6A000000 		.4byte	.LVL40
 10303 2f26 9F330000 		.4byte	0x339f
 10304 2f2a 2E       		.uleb128 0x2e
 10305 2f2b 01       		.byte	0x1
 10306 2f2c 51       		.byte	0x51
 10307 2f2d 01       		.byte	0x1
 10308 2f2e 32       		.byte	0x32
 10309 2f2f 2E       		.uleb128 0x2e
 10310 2f30 01       		.byte	0x1
 10311 2f31 52       		.byte	0x52
 10312 2f32 01       		.byte	0x1
 10313 2f33 37       		.byte	0x37
 10314 2f34 00       		.byte	0
 10315 2f35 00       		.byte	0
 10316 2f36 0A       		.uleb128 0xa
ARM GAS  C:\Users\EBANO_~1\AppData\Local\Temp\cc2nkIni.s 			page 211


 10317 2f37 04       		.byte	0x4
 10318 2f38 27160000 		.4byte	0x1627
 10319 2f3c 2F       		.uleb128 0x2f
 10320 2f3d 01       		.byte	0x1
 10321 2f3e D6020000 		.4byte	.LASF525
 10322 2f42 01       		.byte	0x1
 10323 2f43 AF01     		.2byte	0x1af
 10324 2f45 01       		.byte	0x1
 10325 2f46 87010000 		.4byte	0x187
 10326 2f4a 00000000 		.4byte	.LFB47
 10327 2f4e 0C000000 		.4byte	.LFE47
 10328 2f52 02       		.byte	0x2
 10329 2f53 7D       		.byte	0x7d
 10330 2f54 00       		.sleb128 0
 10331 2f55 01       		.byte	0x1
 10332 2f56 6B2F0000 		.4byte	0x2f6b
 10333 2f5a 2C       		.uleb128 0x2c
 10334 2f5b 050F0000 		.4byte	.LASF526
 10335 2f5f 01       		.byte	0x1
 10336 2f60 AF01     		.2byte	0x1af
 10337 2f62 6B2F0000 		.4byte	0x2f6b
 10338 2f66 07170000 		.4byte	.LLST11
 10339 2f6a 00       		.byte	0
 10340 2f6b 0A       		.uleb128 0xa
 10341 2f6c 04       		.byte	0x4
 10342 2f6d AE150000 		.4byte	0x15ae
 10343 2f71 2B       		.uleb128 0x2b
 10344 2f72 01       		.byte	0x1
 10345 2f73 E1050000 		.4byte	.LASF527
 10346 2f77 01       		.byte	0x1
 10347 2f78 8201     		.2byte	0x182
 10348 2f7a 01       		.byte	0x1
 10349 2f7b 00000000 		.4byte	.LFB46
 10350 2f7f 88000000 		.4byte	.LFE46
 10351 2f83 28170000 		.4byte	.LLST9
 10352 2f87 01       		.byte	0x1
 10353 2f88 03300000 		.4byte	0x3003
 10354 2f8c 2C       		.uleb128 0x2c
 10355 2f8d 050F0000 		.4byte	.LASF526
 10356 2f91 01       		.byte	0x1
 10357 2f92 8201     		.2byte	0x182
 10358 2f94 03300000 		.4byte	0x3003
 10359 2f98 54170000 		.4byte	.LLST10
 10360 2f9c 29       		.uleb128 0x29
 10361 2f9d D6150000 		.4byte	.LASF528
 10362 2fa1 01       		.byte	0x1
 10363 2fa2 8401     		.2byte	0x184
 10364 2fa4 ED1E0000 		.4byte	0x1eed
 10365 2fa8 02       		.byte	0x2
 10366 2fa9 91       		.byte	0x91
 10367 2faa 58       		.sleb128 -40
 10368 2fab 41       		.uleb128 0x41
 10369 2fac 30000000 		.4byte	.LVL19
 10370 2fb0 02340000 		.4byte	0x3402
 10371 2fb4 C82F0000 		.4byte	0x2fc8
 10372 2fb8 2E       		.uleb128 0x2e
 10373 2fb9 01       		.byte	0x1
ARM GAS  C:\Users\EBANO_~1\AppData\Local\Temp\cc2nkIni.s 			page 212


 10374 2fba 50       		.byte	0x50
 10375 2fbb 05       		.byte	0x5
 10376 2fbc 03       		.byte	0x3
 10377 2fbd 00000000 		.4byte	NvmCtx
 10378 2fc1 2E       		.uleb128 0x2e
 10379 2fc2 01       		.byte	0x1
 10380 2fc3 52       		.byte	0x52
 10381 2fc4 02       		.byte	0x2
 10382 2fc5 08       		.byte	0x8
 10383 2fc6 D4       		.byte	0xd4
 10384 2fc7 00       		.byte	0
 10385 2fc8 41       		.uleb128 0x41
 10386 2fc9 40000000 		.4byte	.LVL22
 10387 2fcd 02340000 		.4byte	0x3402
 10388 2fd1 E72F0000 		.4byte	0x2fe7
 10389 2fd5 2E       		.uleb128 0x2e
 10390 2fd6 01       		.byte	0x1
 10391 2fd7 50       		.byte	0x50
 10392 2fd8 02       		.byte	0x2
 10393 2fd9 74       		.byte	0x74
 10394 2fda 00       		.sleb128 0
 10395 2fdb 2E       		.uleb128 0x2e
 10396 2fdc 01       		.byte	0x1
 10397 2fdd 51       		.byte	0x51
 10398 2fde 02       		.byte	0x2
 10399 2fdf 7D       		.byte	0x7d
 10400 2fe0 00       		.sleb128 0
 10401 2fe1 2E       		.uleb128 0x2e
 10402 2fe2 01       		.byte	0x1
 10403 2fe3 52       		.byte	0x52
 10404 2fe4 01       		.byte	0x1
 10405 2fe5 40       		.byte	0x40
 10406 2fe6 00       		.byte	0
 10407 2fe7 2D       		.uleb128 0x2d
 10408 2fe8 6A000000 		.4byte	.LVL23
 10409 2fec 62340000 		.4byte	0x3462
 10410 2ff0 2E       		.uleb128 0x2e
 10411 2ff1 01       		.byte	0x1
 10412 2ff2 50       		.byte	0x50
 10413 2ff3 02       		.byte	0x2
 10414 2ff4 74       		.byte	0x74
 10415 2ff5 10       		.sleb128 16
 10416 2ff6 2E       		.uleb128 0x2e
 10417 2ff7 01       		.byte	0x1
 10418 2ff8 51       		.byte	0x51
 10419 2ff9 02       		.byte	0x2
 10420 2ffa 74       		.byte	0x74
 10421 2ffb 12       		.sleb128 18
 10422 2ffc 2E       		.uleb128 0x2e
 10423 2ffd 01       		.byte	0x1
 10424 2ffe 52       		.byte	0x52
 10425 2fff 01       		.byte	0x1
 10426 3000 31       		.byte	0x31
 10427 3001 00       		.byte	0
 10428 3002 00       		.byte	0
 10429 3003 0A       		.uleb128 0xa
 10430 3004 04       		.byte	0x4
ARM GAS  C:\Users\EBANO_~1\AppData\Local\Temp\cc2nkIni.s 			page 213


 10431 3005 85150000 		.4byte	0x1585
 10432 3009 2B       		.uleb128 0x2b
 10433 300a 01       		.byte	0x1
 10434 300b 78000000 		.4byte	.LASF529
 10435 300f 01       		.byte	0x1
 10436 3010 7D01     		.2byte	0x17d
 10437 3012 01       		.byte	0x1
 10438 3013 00000000 		.4byte	.LFB45
 10439 3017 24000000 		.4byte	.LFE45
 10440 301b A7170000 		.4byte	.LLST7
 10441 301f 01       		.byte	0x1
 10442 3020 3E300000 		.4byte	0x303e
 10443 3024 2C       		.uleb128 0x2c
 10444 3025 71050000 		.4byte	.LASF530
 10445 3029 01       		.byte	0x1
 10446 302a 7D01     		.2byte	0x17d
 10447 302c 3E300000 		.4byte	0x303e
 10448 3030 C7170000 		.4byte	.LLST8
 10449 3034 39       		.uleb128 0x39
 10450 3035 1E000000 		.4byte	.LVL16
 10451 3039 70340000 		.4byte	0x3470
 10452 303d 00       		.byte	0
 10453 303e 0A       		.uleb128 0xa
 10454 303f 04       		.byte	0x4
 10455 3040 4D150000 		.4byte	0x154d
 10456 3044 52       		.uleb128 0x52
 10457 3045 01       		.byte	0x1
 10458 3046 62190000 		.4byte	.LASF531
 10459 304a 01       		.byte	0x1
 10460 304b A4       		.byte	0xa4
 10461 304c 01       		.byte	0x1
 10462 304d B0140000 		.4byte	0x14b0
 10463 3051 00000000 		.4byte	.LFB44
 10464 3055 50010000 		.4byte	.LFE44
 10465 3059 E8170000 		.4byte	.LLST0
 10466 305d 01       		.byte	0x1
 10467 305e 03310000 		.4byte	0x3103
 10468 3062 53       		.uleb128 0x53
 10469 3063 F4010000 		.4byte	.LASF496
 10470 3067 01       		.byte	0x1
 10471 3068 A4       		.byte	0xa4
 10472 3069 03310000 		.4byte	0x3103
 10473 306d 14180000 		.4byte	.LLST1
 10474 3071 2A       		.uleb128 0x2a
 10475 3072 96040000 		.4byte	.LASF497
 10476 3076 01       		.byte	0x1
 10477 3077 A6       		.byte	0xa6
 10478 3078 B0140000 		.4byte	0x14b0
 10479 307c 02       		.byte	0x2
 10480 307d 91       		.byte	0x91
 10481 307e 70       		.sleb128 -16
 10482 307f 54       		.uleb128 0x54
 10483 3080 20320000 		.4byte	0x3220
 10484 3084 62000000 		.4byte	.LBB22
 10485 3088 6A000000 		.4byte	.LBE22
 10486 308c 01       		.byte	0x1
 10487 308d CB       		.byte	0xcb
ARM GAS  C:\Users\EBANO_~1\AppData\Local\Temp\cc2nkIni.s 			page 214


 10488 308e B8300000 		.4byte	0x30b8
 10489 3092 34       		.uleb128 0x34
 10490 3093 3B320000 		.4byte	0x323b
 10491 3097 59180000 		.4byte	.LLST2
 10492 309b 34       		.uleb128 0x34
 10493 309c 31320000 		.4byte	0x3231
 10494 30a0 6D180000 		.4byte	.LLST3
 10495 30a4 49       		.uleb128 0x49
 10496 30a5 62000000 		.4byte	.LBB23
 10497 30a9 6A000000 		.4byte	.LBE23
 10498 30ad 42       		.uleb128 0x42
 10499 30ae 46320000 		.4byte	0x3246
 10500 30b2 81180000 		.4byte	.LLST4
 10501 30b6 00       		.byte	0
 10502 30b7 00       		.byte	0
 10503 30b8 55       		.uleb128 0x55
 10504 30b9 20320000 		.4byte	0x3220
 10505 30bd F6000000 		.4byte	.LBB24
 10506 30c1 00000000 		.4byte	.Ldebug_ranges0+0
 10507 30c5 01       		.byte	0x1
 10508 30c6 CF       		.byte	0xcf
 10509 30c7 EA300000 		.4byte	0x30ea
 10510 30cb 56       		.uleb128 0x56
 10511 30cc 3B320000 		.4byte	0x323b
 10512 30d0 02       		.byte	0x2
 10513 30d1 34       		.uleb128 0x34
 10514 30d2 31320000 		.4byte	0x3231
 10515 30d6 AF180000 		.4byte	.LLST5
 10516 30da 37       		.uleb128 0x37
 10517 30db 00000000 		.4byte	.Ldebug_ranges0+0
 10518 30df 42       		.uleb128 0x42
 10519 30e0 46320000 		.4byte	0x3246
 10520 30e4 C3180000 		.4byte	.LLST6
 10521 30e8 00       		.byte	0
 10522 30e9 00       		.byte	0
 10523 30ea 2D       		.uleb128 0x2d
 10524 30eb 84000000 		.4byte	.LVL8
 10525 30ef 92330000 		.4byte	0x3392
 10526 30f3 2E       		.uleb128 0x2e
 10527 30f4 01       		.byte	0x1
 10528 30f5 50       		.byte	0x50
 10529 30f6 03       		.byte	0x3
 10530 30f7 0B       		.byte	0xb
 10531 30f8 18FC     		.2byte	0xfc18
 10532 30fa 2E       		.uleb128 0x2e
 10533 30fb 01       		.byte	0x1
 10534 30fc 51       		.byte	0x51
 10535 30fd 03       		.byte	0x3
 10536 30fe 0A       		.byte	0xa
 10537 30ff E803     		.2byte	0x3e8
 10538 3101 00       		.byte	0
 10539 3102 00       		.byte	0
 10540 3103 0A       		.uleb128 0xa
 10541 3104 04       		.byte	0x4
 10542 3105 06150000 		.4byte	0x1506
 10543 3109 57       		.uleb128 0x57
 10544 310a 0E090000 		.4byte	.LASF536
ARM GAS  C:\Users\EBANO_~1\AppData\Local\Temp\cc2nkIni.s 			page 215


 10545 310e 01       		.byte	0x1
 10546 310f 7B       		.byte	0x7b
 10547 3110 01       		.byte	0x1
 10548 3111 C1000000 		.4byte	0xc1
 10549 3115 01       		.byte	0x1
 10550 3116 9D310000 		.4byte	0x319d
 10551 311a 58       		.uleb128 0x58
 10552 311b A3170000 		.4byte	.LASF532
 10553 311f 01       		.byte	0x1
 10554 3120 7B       		.byte	0x7b
 10555 3121 1A0B0000 		.4byte	0xb1a
 10556 3125 58       		.uleb128 0x58
 10557 3126 1E050000 		.4byte	.LASF508
 10558 312a 01       		.byte	0x1
 10559 312b 7B       		.byte	0x7b
 10560 312c C1000000 		.4byte	0xc1
 10561 3130 58       		.uleb128 0x58
 10562 3131 74140000 		.4byte	.LASF533
 10563 3135 01       		.byte	0x1
 10564 3136 7B       		.byte	0x7b
 10565 3137 9A110000 		.4byte	0x119a
 10566 313b 58       		.uleb128 0x58
 10567 313c AD1D0000 		.4byte	.LASF534
 10568 3140 01       		.byte	0x1
 10569 3141 7B       		.byte	0x7b
 10570 3142 94110000 		.4byte	0x1194
 10571 3146 58       		.uleb128 0x58
 10572 3147 D6150000 		.4byte	.LASF528
 10573 314b 01       		.byte	0x1
 10574 314c 7B       		.byte	0x7b
 10575 314d 591D0000 		.4byte	0x1d59
 10576 3151 58       		.uleb128 0x58
 10577 3152 A51A0000 		.4byte	.LASF469
 10578 3156 01       		.byte	0x1
 10579 3157 7B       		.byte	0x7b
 10580 3158 890A0000 		.4byte	0xa89
 10581 315c 58       		.uleb128 0x58
 10582 315d 19070000 		.4byte	.LASF468
 10583 3161 01       		.byte	0x1
 10584 3162 7B       		.byte	0x7b
 10585 3163 890A0000 		.4byte	0xa89
 10586 3167 59       		.uleb128 0x59
 10587 3168 D5160000 		.4byte	.LASF467
 10588 316c 01       		.byte	0x1
 10589 316d 7D       		.byte	0x7d
 10590 316e C1000000 		.4byte	0xc1
 10591 3172 59       		.uleb128 0x59
 10592 3173 321D0000 		.4byte	.LASF535
 10593 3177 01       		.byte	0x1
 10594 3178 7E       		.byte	0x7e
 10595 3179 C1000000 		.4byte	0xc1
 10596 317d 5A       		.uleb128 0x5a
 10597 317e 5B       		.uleb128 0x5b
 10598 317f 6900     		.ascii	"i\000"
 10599 3181 01       		.byte	0x1
 10600 3182 80       		.byte	0x80
 10601 3183 C1000000 		.4byte	0xc1
ARM GAS  C:\Users\EBANO_~1\AppData\Local\Temp\cc2nkIni.s 			page 216


 10602 3187 5B       		.uleb128 0x5b
 10603 3188 6B00     		.ascii	"k\000"
 10604 318a 01       		.byte	0x1
 10605 318b 80       		.byte	0x80
 10606 318c C1000000 		.4byte	0xc1
 10607 3190 5A       		.uleb128 0x5a
 10608 3191 5B       		.uleb128 0x5b
 10609 3192 6A00     		.ascii	"j\000"
 10610 3194 01       		.byte	0x1
 10611 3195 82       		.byte	0x82
 10612 3196 C1000000 		.4byte	0xc1
 10613 319a 00       		.byte	0
 10614 319b 00       		.byte	0
 10615 319c 00       		.byte	0
 10616 319d 57       		.uleb128 0x57
 10617 319e 20150000 		.4byte	.LASF537
 10618 31a2 01       		.byte	0x1
 10619 31a3 6C       		.byte	0x6c
 10620 31a4 01       		.byte	0x1
 10621 31a5 1A0B0000 		.4byte	0xb1a
 10622 31a9 01       		.byte	0x1
 10623 31aa BA310000 		.4byte	0x31ba
 10624 31ae 58       		.uleb128 0x58
 10625 31af 6C040000 		.4byte	.LASF538
 10626 31b3 01       		.byte	0x1
 10627 31b4 6C       		.byte	0x6c
 10628 31b5 F2000000 		.4byte	0xf2
 10629 31b9 00       		.byte	0
 10630 31ba 57       		.uleb128 0x57
 10631 31bb F7120000 		.4byte	.LASF539
 10632 31bf 01       		.byte	0x1
 10633 31c0 62       		.byte	0x62
 10634 31c1 01       		.byte	0x1
 10635 31c2 B1000000 		.4byte	0xb1
 10636 31c6 01       		.byte	0x1
 10637 31c7 03320000 		.4byte	0x3203
 10638 31cb 58       		.uleb128 0x58
 10639 31cc 2E110000 		.4byte	.LASF501
 10640 31d0 01       		.byte	0x1
 10641 31d1 62       		.byte	0x62
 10642 31d2 B1000000 		.4byte	0xb1
 10643 31d6 58       		.uleb128 0x58
 10644 31d7 4E0A0000 		.4byte	.LASF540
 10645 31db 01       		.byte	0x1
 10646 31dc 62       		.byte	0x62
 10647 31dd B1000000 		.4byte	0xb1
 10648 31e1 58       		.uleb128 0x58
 10649 31e2 1E050000 		.4byte	.LASF508
 10650 31e6 01       		.byte	0x1
 10651 31e7 62       		.byte	0x62
 10652 31e8 B1000000 		.4byte	0xb1
 10653 31ec 58       		.uleb128 0x58
 10654 31ed 74140000 		.4byte	.LASF533
 10655 31f1 01       		.byte	0x1
 10656 31f2 62       		.byte	0x62
 10657 31f3 9A110000 		.4byte	0x119a
 10658 31f7 59       		.uleb128 0x59
ARM GAS  C:\Users\EBANO_~1\AppData\Local\Temp\cc2nkIni.s 			page 217


 10659 31f8 16040000 		.4byte	.LASF541
 10660 31fc 01       		.byte	0x1
 10661 31fd 64       		.byte	0x64
 10662 31fe B1000000 		.4byte	0xb1
 10663 3202 00       		.byte	0
 10664 3203 57       		.uleb128 0x57
 10665 3204 BF170000 		.4byte	.LASF542
 10666 3208 01       		.byte	0x1
 10667 3209 54       		.byte	0x54
 10668 320a 01       		.byte	0x1
 10669 320b F2000000 		.4byte	0xf2
 10670 320f 01       		.byte	0x1
 10671 3210 20320000 		.4byte	0x3220
 10672 3214 58       		.uleb128 0x58
 10673 3215 CF0B0000 		.4byte	.LASF543
 10674 3219 01       		.byte	0x1
 10675 321a 54       		.byte	0x54
 10676 321b F2000000 		.4byte	0xf2
 10677 321f 00       		.byte	0
 10678 3220 57       		.uleb128 0x57
 10679 3221 2F0F0000 		.4byte	.LASF544
 10680 3225 01       		.byte	0x1
 10681 3226 45       		.byte	0x45
 10682 3227 01       		.byte	0x1
 10683 3228 B1000000 		.4byte	0xb1
 10684 322c 01       		.byte	0x1
 10685 322d 52320000 		.4byte	0x3252
 10686 3231 5C       		.uleb128 0x5c
 10687 3232 647200   		.ascii	"dr\000"
 10688 3235 01       		.byte	0x1
 10689 3236 45       		.byte	0x45
 10690 3237 B1000000 		.4byte	0xb1
 10691 323b 58       		.uleb128 0x58
 10692 323c 8E0E0000 		.4byte	.LASF447
 10693 3240 01       		.byte	0x1
 10694 3241 45       		.byte	0x45
 10695 3242 B1000000 		.4byte	0xb1
 10696 3246 59       		.uleb128 0x59
 10697 3247 311E0000 		.4byte	.LASF545
 10698 324b 01       		.byte	0x1
 10699 324c 47       		.byte	0x47
 10700 324d C1000000 		.4byte	0xc1
 10701 3251 00       		.byte	0
 10702 3252 5D       		.uleb128 0x5d
 10703 3253 CB200000 		.4byte	0x20cb
 10704 3257 00000000 		.4byte	.LFB62
 10705 325b D8000000 		.4byte	.LFE62
 10706 325f E4180000 		.4byte	.LLST103
 10707 3263 01       		.byte	0x1
 10708 3264 09330000 		.4byte	0x3309
 10709 3268 34       		.uleb128 0x34
 10710 3269 DE200000 		.4byte	0x20de
 10711 326d 10190000 		.4byte	.LLST104
 10712 3271 42       		.uleb128 0x42
 10713 3272 EA200000 		.4byte	0x20ea
 10714 3276 55190000 		.4byte	.LLST105
 10715 327a 42       		.uleb128 0x42
ARM GAS  C:\Users\EBANO_~1\AppData\Local\Temp\cc2nkIni.s 			page 218


 10716 327b F6200000 		.4byte	0x20f6
 10717 327f A7190000 		.4byte	.LLST106
 10718 3283 42       		.uleb128 0x42
 10719 3284 02210000 		.4byte	0x2102
 10720 3288 F7190000 		.4byte	.LLST107
 10721 328c 33       		.uleb128 0x33
 10722 328d 9D310000 		.4byte	0x319d
 10723 3291 54000000 		.4byte	.LBB133
 10724 3295 E0010000 		.4byte	.Ldebug_ranges0+0x1e0
 10725 3299 01       		.byte	0x1
 10726 329a F003     		.2byte	0x3f0
 10727 329c C3320000 		.4byte	0x32c3
 10728 32a0 34       		.uleb128 0x34
 10729 32a1 AE310000 		.4byte	0x31ae
 10730 32a5 151A0000 		.4byte	.LLST108
 10731 32a9 4A       		.uleb128 0x4a
 10732 32aa 5E000000 		.4byte	.LVL319
 10733 32ae B9320000 		.4byte	0x32b9
 10734 32b2 2E       		.uleb128 0x2e
 10735 32b3 01       		.byte	0x1
 10736 32b4 50       		.byte	0x50
 10737 32b5 02       		.byte	0x2
 10738 32b6 76       		.byte	0x76
 10739 32b7 00       		.sleb128 0
 10740 32b8 00       		.byte	0
 10741 32b9 4B       		.uleb128 0x4b
 10742 32ba 70000000 		.4byte	.LVL324
 10743 32be 03       		.byte	0x3
 10744 32bf 91       		.byte	0x91
 10745 32c0 64       		.sleb128 -28
 10746 32c1 06       		.byte	0x6
 10747 32c2 00       		.byte	0
 10748 32c3 41       		.uleb128 0x41
 10749 32c4 22000000 		.4byte	.LVL313
 10750 32c8 9F330000 		.4byte	0x339f
 10751 32cc DB320000 		.4byte	0x32db
 10752 32d0 2E       		.uleb128 0x2e
 10753 32d1 01       		.byte	0x1
 10754 32d2 51       		.byte	0x51
 10755 32d3 01       		.byte	0x1
 10756 32d4 30       		.byte	0x30
 10757 32d5 2E       		.uleb128 0x2e
 10758 32d6 01       		.byte	0x1
 10759 32d7 52       		.byte	0x52
 10760 32d8 01       		.byte	0x1
 10761 32d9 37       		.byte	0x37
 10762 32da 00       		.byte	0
 10763 32db 41       		.uleb128 0x41
 10764 32dc 34000000 		.4byte	.LVL315
 10765 32e0 9F330000 		.4byte	0x339f
 10766 32e4 F3320000 		.4byte	0x32f3
 10767 32e8 2E       		.uleb128 0x2e
 10768 32e9 01       		.byte	0x1
 10769 32ea 51       		.byte	0x51
 10770 32eb 01       		.byte	0x1
 10771 32ec 30       		.byte	0x30
 10772 32ed 2E       		.uleb128 0x2e
ARM GAS  C:\Users\EBANO_~1\AppData\Local\Temp\cc2nkIni.s 			page 219


 10773 32ee 01       		.byte	0x1
 10774 32ef 52       		.byte	0x52
 10775 32f0 01       		.byte	0x1
 10776 32f1 37       		.byte	0x37
 10777 32f2 00       		.byte	0
 10778 32f3 2D       		.uleb128 0x2d
 10779 32f4 B4000000 		.4byte	.LVL331
 10780 32f8 02340000 		.4byte	0x3402
 10781 32fc 2E       		.uleb128 0x2e
 10782 32fd 01       		.byte	0x1
 10783 32fe 50       		.byte	0x50
 10784 32ff 02       		.byte	0x2
 10785 3300 74       		.byte	0x74
 10786 3301 00       		.sleb128 0
 10787 3302 2E       		.uleb128 0x2e
 10788 3303 01       		.byte	0x1
 10789 3304 52       		.byte	0x52
 10790 3305 01       		.byte	0x1
 10791 3306 3C       		.byte	0x3c
 10792 3307 00       		.byte	0
 10793 3308 00       		.byte	0
 10794 3309 5D       		.uleb128 0x5d
 10795 330a 9A200000 		.4byte	0x209a
 10796 330e 00000000 		.4byte	.LFB63
 10797 3312 30000000 		.4byte	.LFE63
 10798 3316 371A0000 		.4byte	.LLST109
 10799 331a 01       		.byte	0x1
 10800 331b 76330000 		.4byte	0x3376
 10801 331f 34       		.uleb128 0x34
 10802 3320 AD200000 		.4byte	0x20ad
 10803 3324 571A0000 		.4byte	.LLST110
 10804 3328 42       		.uleb128 0x42
 10805 3329 B9200000 		.4byte	0x20b9
 10806 332d 781A0000 		.4byte	.LLST111
 10807 3331 41       		.uleb128 0x41
 10808 3332 1C000000 		.4byte	.LVL335
 10809 3336 AC330000 		.4byte	0x33ac
 10810 333a 59330000 		.4byte	0x3359
 10811 333e 2E       		.uleb128 0x2e
 10812 333f 01       		.byte	0x1
 10813 3340 50       		.byte	0x50
 10814 3341 0C       		.byte	0xc
 10815 3342 74       		.byte	0x74
 10816 3343 00       		.sleb128 0
 10817 3344 31       		.byte	0x31
 10818 3345 24       		.byte	0x24
 10819 3346 74       		.byte	0x74
 10820 3347 00       		.sleb128 0
 10821 3348 22       		.byte	0x22
 10822 3349 32       		.byte	0x32
 10823 334a 24       		.byte	0x24
 10824 334b 75       		.byte	0x75
 10825 334c 00       		.sleb128 0
 10826 334d 22       		.byte	0x22
 10827 334e 2E       		.uleb128 0x2e
 10828 334f 01       		.byte	0x1
 10829 3350 51       		.byte	0x51
ARM GAS  C:\Users\EBANO_~1\AppData\Local\Temp\cc2nkIni.s 			page 220


 10830 3351 01       		.byte	0x1
 10831 3352 30       		.byte	0x30
 10832 3353 2E       		.uleb128 0x2e
 10833 3354 01       		.byte	0x1
 10834 3355 52       		.byte	0x52
 10835 3356 01       		.byte	0x1
 10836 3357 3C       		.byte	0x3c
 10837 3358 00       		.byte	0
 10838 3359 2D       		.uleb128 0x2d
 10839 335a 28000000 		.4byte	.LVL336
 10840 335e F4330000 		.4byte	0x33f4
 10841 3362 2E       		.uleb128 0x2e
 10842 3363 01       		.byte	0x1
 10843 3364 50       		.byte	0x50
 10844 3365 03       		.byte	0x3
 10845 3366 75       		.byte	0x75
 10846 3367 D001     		.sleb128 208
 10847 3369 2E       		.uleb128 0x2e
 10848 336a 01       		.byte	0x1
 10849 336b 51       		.byte	0x51
 10850 336c 02       		.byte	0x2
 10851 336d 74       		.byte	0x74
 10852 336e 00       		.sleb128 0
 10853 336f 2E       		.uleb128 0x2e
 10854 3370 01       		.byte	0x1
 10855 3371 52       		.byte	0x52
 10856 3372 01       		.byte	0x1
 10857 3373 40       		.byte	0x40
 10858 3374 00       		.byte	0
 10859 3375 00       		.byte	0
 10860 3376 5E       		.uleb128 0x5e
 10861 3377 01       		.byte	0x1
 10862 3378 01       		.byte	0x1
 10863 3379 481C0000 		.4byte	.LASF546
 10864 337d 481C0000 		.4byte	.LASF546
 10865 3381 10       		.byte	0x10
 10866 3382 9F01     		.2byte	0x19f
 10867 3384 5E       		.uleb128 0x5e
 10868 3385 01       		.byte	0x1
 10869 3386 01       		.byte	0x1
 10870 3387 14170000 		.4byte	.LASF547
 10871 338b 14170000 		.4byte	.LASF547
 10872 338f 10       		.byte	0x10
 10873 3390 9101     		.2byte	0x191
 10874 3392 5F       		.uleb128 0x5f
 10875 3393 01       		.byte	0x1
 10876 3394 01       		.byte	0x1
 10877 3395 50020000 		.4byte	.LASF548
 10878 3399 50020000 		.4byte	.LASF548
 10879 339d 0A       		.byte	0xa
 10880 339e 77       		.byte	0x77
 10881 339f 5F       		.uleb128 0x5f
 10882 33a0 01       		.byte	0x1
 10883 33a1 01       		.byte	0x1
 10884 33a2 2F170000 		.4byte	.LASF549
 10885 33a6 2F170000 		.4byte	.LASF549
 10886 33aa 10       		.byte	0x10
ARM GAS  C:\Users\EBANO_~1\AppData\Local\Temp\cc2nkIni.s 			page 221


 10887 33ab E1       		.byte	0xe1
 10888 33ac 60       		.uleb128 0x60
 10889 33ad 01       		.byte	0x1
 10890 33ae 01       		.byte	0x1
 10891 33af 04110000 		.4byte	.LASF567
 10892 33b3 9D030000 		.4byte	.LASF568
 10893 33b7 13       		.byte	0x13
 10894 33b8 00       		.byte	0
 10895 33b9 04110000 		.4byte	.LASF567
 10896 33bd 5E       		.uleb128 0x5e
 10897 33be 01       		.byte	0x1
 10898 33bf 01       		.byte	0x1
 10899 33c0 BB0A0000 		.4byte	.LASF550
 10900 33c4 BB0A0000 		.4byte	.LASF550
 10901 33c8 10       		.byte	0x10
 10902 33c9 1201     		.2byte	0x112
 10903 33cb 5F       		.uleb128 0x5f
 10904 33cc 01       		.byte	0x1
 10905 33cd 01       		.byte	0x1
 10906 33ce 55140000 		.4byte	.LASF551
 10907 33d2 55140000 		.4byte	.LASF551
 10908 33d6 12       		.byte	0x12
 10909 33d7 94       		.byte	0x94
 10910 33d8 5E       		.uleb128 0x5e
 10911 33d9 01       		.byte	0x1
 10912 33da 01       		.byte	0x1
 10913 33db 540C0000 		.4byte	.LASF552
 10914 33df 540C0000 		.4byte	.LASF552
 10915 33e3 10       		.byte	0x10
 10916 33e4 3A01     		.2byte	0x13a
 10917 33e6 5E       		.uleb128 0x5e
 10918 33e7 01       		.byte	0x1
 10919 33e8 01       		.byte	0x1
 10920 33e9 BD190000 		.4byte	.LASF553
 10921 33ed BD190000 		.4byte	.LASF553
 10922 33f1 10       		.byte	0x10
 10923 33f2 9801     		.2byte	0x198
 10924 33f4 5E       		.uleb128 0x5e
 10925 33f5 01       		.byte	0x1
 10926 33f6 01       		.byte	0x1
 10927 33f7 B5210000 		.4byte	.LASF554
 10928 33fb B5210000 		.4byte	.LASF554
 10929 33ff 10       		.byte	0x10
 10930 3400 0401     		.2byte	0x104
 10931 3402 5F       		.uleb128 0x5f
 10932 3403 01       		.byte	0x1
 10933 3404 01       		.byte	0x1
 10934 3405 E8030000 		.4byte	.LASF555
 10935 3409 E8030000 		.4byte	.LASF555
 10936 340d 0A       		.byte	0xa
 10937 340e 89       		.byte	0x89
 10938 340f 5E       		.uleb128 0x5e
 10939 3410 01       		.byte	0x1
 10940 3411 01       		.byte	0x1
 10941 3412 4B050000 		.4byte	.LASF556
 10942 3416 4B050000 		.4byte	.LASF556
 10943 341a 10       		.byte	0x10
ARM GAS  C:\Users\EBANO_~1\AppData\Local\Temp\cc2nkIni.s 			page 222


 10944 341b 4801     		.2byte	0x148
 10945 341d 5E       		.uleb128 0x5e
 10946 341e 01       		.byte	0x1
 10947 341f 01       		.byte	0x1
 10948 3420 0B110000 		.4byte	.LASF557
 10949 3424 0B110000 		.4byte	.LASF557
 10950 3428 10       		.byte	0x10
 10951 3429 5801     		.2byte	0x158
 10952 342b 5F       		.uleb128 0x5f
 10953 342c 01       		.byte	0x1
 10954 342d 01       		.byte	0x1
 10955 342e 3F180000 		.4byte	.LASF558
 10956 3432 3F180000 		.4byte	.LASF558
 10957 3436 0A       		.byte	0xa
 10958 3437 9D       		.byte	0x9d
 10959 3438 5E       		.uleb128 0x5e
 10960 3439 01       		.byte	0x1
 10961 343a 01       		.byte	0x1
 10962 343b 58160000 		.4byte	.LASF559
 10963 343f 58160000 		.4byte	.LASF559
 10964 3443 10       		.byte	0x10
 10965 3444 6301     		.2byte	0x163
 10966 3446 5E       		.uleb128 0x5e
 10967 3447 01       		.byte	0x1
 10968 3448 01       		.byte	0x1
 10969 3449 E31F0000 		.4byte	.LASF560
 10970 344d E31F0000 		.4byte	.LASF560
 10971 3451 10       		.byte	0x10
 10972 3452 8001     		.2byte	0x180
 10973 3454 5E       		.uleb128 0x5e
 10974 3455 01       		.byte	0x1
 10975 3456 01       		.byte	0x1
 10976 3457 96150000 		.4byte	.LASF561
 10977 345b 96150000 		.4byte	.LASF561
 10978 345f 10       		.byte	0x10
 10979 3460 6E01     		.2byte	0x16e
 10980 3462 5E       		.uleb128 0x5e
 10981 3463 01       		.byte	0x1
 10982 3464 01       		.byte	0x1
 10983 3465 21070000 		.4byte	.LASF562
 10984 3469 21070000 		.4byte	.LASF562
 10985 346d 10       		.byte	0x10
 10986 346e 1E01     		.2byte	0x11e
 10987 3470 5E       		.uleb128 0x5e
 10988 3471 01       		.byte	0x1
 10989 3472 01       		.byte	0x1
 10990 3473 98120000 		.4byte	.LASF563
 10991 3477 98120000 		.4byte	.LASF563
 10992 347b 10       		.byte	0x10
 10993 347c 2A01     		.2byte	0x12a
 10994 347e 00       		.byte	0
 10995              		.section	.debug_abbrev,"",%progbits
 10996              	.Ldebug_abbrev0:
 10997 0000 01       		.uleb128 0x1
 10998 0001 11       		.uleb128 0x11
 10999 0002 01       		.byte	0x1
 11000 0003 25       		.uleb128 0x25
ARM GAS  C:\Users\EBANO_~1\AppData\Local\Temp\cc2nkIni.s 			page 223


 11001 0004 0E       		.uleb128 0xe
 11002 0005 13       		.uleb128 0x13
 11003 0006 0B       		.uleb128 0xb
 11004 0007 03       		.uleb128 0x3
 11005 0008 0E       		.uleb128 0xe
 11006 0009 1B       		.uleb128 0x1b
 11007 000a 0E       		.uleb128 0xe
 11008 000b 55       		.uleb128 0x55
 11009 000c 06       		.uleb128 0x6
 11010 000d 11       		.uleb128 0x11
 11011 000e 01       		.uleb128 0x1
 11012 000f 52       		.uleb128 0x52
 11013 0010 01       		.uleb128 0x1
 11014 0011 10       		.uleb128 0x10
 11015 0012 06       		.uleb128 0x6
 11016 0013 00       		.byte	0
 11017 0014 00       		.byte	0
 11018 0015 02       		.uleb128 0x2
 11019 0016 24       		.uleb128 0x24
 11020 0017 00       		.byte	0
 11021 0018 0B       		.uleb128 0xb
 11022 0019 0B       		.uleb128 0xb
 11023 001a 3E       		.uleb128 0x3e
 11024 001b 0B       		.uleb128 0xb
 11025 001c 03       		.uleb128 0x3
 11026 001d 0E       		.uleb128 0xe
 11027 001e 00       		.byte	0
 11028 001f 00       		.byte	0
 11029 0020 03       		.uleb128 0x3
 11030 0021 16       		.uleb128 0x16
 11031 0022 00       		.byte	0
 11032 0023 03       		.uleb128 0x3
 11033 0024 0E       		.uleb128 0xe
 11034 0025 3A       		.uleb128 0x3a
 11035 0026 0B       		.uleb128 0xb
 11036 0027 3B       		.uleb128 0x3b
 11037 0028 0B       		.uleb128 0xb
 11038 0029 49       		.uleb128 0x49
 11039 002a 13       		.uleb128 0x13
 11040 002b 00       		.byte	0
 11041 002c 00       		.byte	0
 11042 002d 04       		.uleb128 0x4
 11043 002e 24       		.uleb128 0x24
 11044 002f 00       		.byte	0
 11045 0030 0B       		.uleb128 0xb
 11046 0031 0B       		.uleb128 0xb
 11047 0032 3E       		.uleb128 0x3e
 11048 0033 0B       		.uleb128 0xb
 11049 0034 03       		.uleb128 0x3
 11050 0035 08       		.uleb128 0x8
 11051 0036 00       		.byte	0
 11052 0037 00       		.byte	0
 11053 0038 05       		.uleb128 0x5
 11054 0039 26       		.uleb128 0x26
 11055 003a 00       		.byte	0
 11056 003b 49       		.uleb128 0x49
 11057 003c 13       		.uleb128 0x13
ARM GAS  C:\Users\EBANO_~1\AppData\Local\Temp\cc2nkIni.s 			page 224


 11058 003d 00       		.byte	0
 11059 003e 00       		.byte	0
 11060 003f 06       		.uleb128 0x6
 11061 0040 34       		.uleb128 0x34
 11062 0041 00       		.byte	0
 11063 0042 03       		.uleb128 0x3
 11064 0043 0E       		.uleb128 0xe
 11065 0044 3A       		.uleb128 0x3a
 11066 0045 0B       		.uleb128 0xb
 11067 0046 3B       		.uleb128 0x3b
 11068 0047 0B       		.uleb128 0xb
 11069 0048 49       		.uleb128 0x49
 11070 0049 13       		.uleb128 0x13
 11071 004a 3F       		.uleb128 0x3f
 11072 004b 0C       		.uleb128 0xc
 11073 004c 3C       		.uleb128 0x3c
 11074 004d 0C       		.uleb128 0xc
 11075 004e 00       		.byte	0
 11076 004f 00       		.byte	0
 11077 0050 07       		.uleb128 0x7
 11078 0051 01       		.uleb128 0x1
 11079 0052 01       		.byte	0x1
 11080 0053 49       		.uleb128 0x49
 11081 0054 13       		.uleb128 0x13
 11082 0055 01       		.uleb128 0x1
 11083 0056 13       		.uleb128 0x13
 11084 0057 00       		.byte	0
 11085 0058 00       		.byte	0
 11086 0059 08       		.uleb128 0x8
 11087 005a 21       		.uleb128 0x21
 11088 005b 00       		.byte	0
 11089 005c 49       		.uleb128 0x49
 11090 005d 13       		.uleb128 0x13
 11091 005e 2F       		.uleb128 0x2f
 11092 005f 0B       		.uleb128 0xb
 11093 0060 00       		.byte	0
 11094 0061 00       		.byte	0
 11095 0062 09       		.uleb128 0x9
 11096 0063 0F       		.uleb128 0xf
 11097 0064 00       		.byte	0
 11098 0065 0B       		.uleb128 0xb
 11099 0066 0B       		.uleb128 0xb
 11100 0067 00       		.byte	0
 11101 0068 00       		.byte	0
 11102 0069 0A       		.uleb128 0xa
 11103 006a 0F       		.uleb128 0xf
 11104 006b 00       		.byte	0
 11105 006c 0B       		.uleb128 0xb
 11106 006d 0B       		.uleb128 0xb
 11107 006e 49       		.uleb128 0x49
 11108 006f 13       		.uleb128 0x13
 11109 0070 00       		.byte	0
 11110 0071 00       		.byte	0
 11111 0072 0B       		.uleb128 0xb
 11112 0073 13       		.uleb128 0x13
 11113 0074 00       		.byte	0
 11114 0075 03       		.uleb128 0x3
ARM GAS  C:\Users\EBANO_~1\AppData\Local\Temp\cc2nkIni.s 			page 225


 11115 0076 0E       		.uleb128 0xe
 11116 0077 3C       		.uleb128 0x3c
 11117 0078 0C       		.uleb128 0xc
 11118 0079 00       		.byte	0
 11119 007a 00       		.byte	0
 11120 007b 0C       		.uleb128 0xc
 11121 007c 16       		.uleb128 0x16
 11122 007d 00       		.byte	0
 11123 007e 03       		.uleb128 0x3
 11124 007f 0E       		.uleb128 0xe
 11125 0080 3A       		.uleb128 0x3a
 11126 0081 0B       		.uleb128 0xb
 11127 0082 3B       		.uleb128 0x3b
 11128 0083 05       		.uleb128 0x5
 11129 0084 49       		.uleb128 0x49
 11130 0085 13       		.uleb128 0x13
 11131 0086 00       		.byte	0
 11132 0087 00       		.byte	0
 11133 0088 0D       		.uleb128 0xd
 11134 0089 17       		.uleb128 0x17
 11135 008a 01       		.byte	0x1
 11136 008b 0B       		.uleb128 0xb
 11137 008c 0B       		.uleb128 0xb
 11138 008d 3A       		.uleb128 0x3a
 11139 008e 0B       		.uleb128 0xb
 11140 008f 3B       		.uleb128 0x3b
 11141 0090 0B       		.uleb128 0xb
 11142 0091 01       		.uleb128 0x1
 11143 0092 13       		.uleb128 0x13
 11144 0093 00       		.byte	0
 11145 0094 00       		.byte	0
 11146 0095 0E       		.uleb128 0xe
 11147 0096 0D       		.uleb128 0xd
 11148 0097 00       		.byte	0
 11149 0098 03       		.uleb128 0x3
 11150 0099 0E       		.uleb128 0xe
 11151 009a 3A       		.uleb128 0x3a
 11152 009b 0B       		.uleb128 0xb
 11153 009c 3B       		.uleb128 0x3b
 11154 009d 0B       		.uleb128 0xb
 11155 009e 49       		.uleb128 0x49
 11156 009f 13       		.uleb128 0x13
 11157 00a0 00       		.byte	0
 11158 00a1 00       		.byte	0
 11159 00a2 0F       		.uleb128 0xf
 11160 00a3 13       		.uleb128 0x13
 11161 00a4 01       		.byte	0x1
 11162 00a5 0B       		.uleb128 0xb
 11163 00a6 0B       		.uleb128 0xb
 11164 00a7 3A       		.uleb128 0x3a
 11165 00a8 0B       		.uleb128 0xb
 11166 00a9 3B       		.uleb128 0x3b
 11167 00aa 0B       		.uleb128 0xb
 11168 00ab 01       		.uleb128 0x1
 11169 00ac 13       		.uleb128 0x13
 11170 00ad 00       		.byte	0
 11171 00ae 00       		.byte	0
ARM GAS  C:\Users\EBANO_~1\AppData\Local\Temp\cc2nkIni.s 			page 226


 11172 00af 10       		.uleb128 0x10
 11173 00b0 0D       		.uleb128 0xd
 11174 00b1 00       		.byte	0
 11175 00b2 03       		.uleb128 0x3
 11176 00b3 0E       		.uleb128 0xe
 11177 00b4 3A       		.uleb128 0x3a
 11178 00b5 0B       		.uleb128 0xb
 11179 00b6 3B       		.uleb128 0x3b
 11180 00b7 0B       		.uleb128 0xb
 11181 00b8 49       		.uleb128 0x49
 11182 00b9 13       		.uleb128 0x13
 11183 00ba 38       		.uleb128 0x38
 11184 00bb 0A       		.uleb128 0xa
 11185 00bc 00       		.byte	0
 11186 00bd 00       		.byte	0
 11187 00be 11       		.uleb128 0x11
 11188 00bf 13       		.uleb128 0x13
 11189 00c0 01       		.byte	0x1
 11190 00c1 03       		.uleb128 0x3
 11191 00c2 0E       		.uleb128 0xe
 11192 00c3 0B       		.uleb128 0xb
 11193 00c4 0B       		.uleb128 0xb
 11194 00c5 3A       		.uleb128 0x3a
 11195 00c6 0B       		.uleb128 0xb
 11196 00c7 3B       		.uleb128 0x3b
 11197 00c8 0B       		.uleb128 0xb
 11198 00c9 01       		.uleb128 0x1
 11199 00ca 13       		.uleb128 0x13
 11200 00cb 00       		.byte	0
 11201 00cc 00       		.byte	0
 11202 00cd 12       		.uleb128 0x12
 11203 00ce 0D       		.uleb128 0xd
 11204 00cf 00       		.byte	0
 11205 00d0 03       		.uleb128 0x3
 11206 00d1 08       		.uleb128 0x8
 11207 00d2 3A       		.uleb128 0x3a
 11208 00d3 0B       		.uleb128 0xb
 11209 00d4 3B       		.uleb128 0x3b
 11210 00d5 0B       		.uleb128 0xb
 11211 00d6 49       		.uleb128 0x49
 11212 00d7 13       		.uleb128 0x13
 11213 00d8 38       		.uleb128 0x38
 11214 00d9 0A       		.uleb128 0xa
 11215 00da 00       		.byte	0
 11216 00db 00       		.byte	0
 11217 00dc 13       		.uleb128 0x13
 11218 00dd 13       		.uleb128 0x13
 11219 00de 01       		.byte	0x1
 11220 00df 03       		.uleb128 0x3
 11221 00e0 0E       		.uleb128 0xe
 11222 00e1 0B       		.uleb128 0xb
 11223 00e2 05       		.uleb128 0x5
 11224 00e3 3A       		.uleb128 0x3a
 11225 00e4 0B       		.uleb128 0xb
 11226 00e5 3B       		.uleb128 0x3b
 11227 00e6 0B       		.uleb128 0xb
 11228 00e7 01       		.uleb128 0x1
ARM GAS  C:\Users\EBANO_~1\AppData\Local\Temp\cc2nkIni.s 			page 227


 11229 00e8 13       		.uleb128 0x13
 11230 00e9 00       		.byte	0
 11231 00ea 00       		.byte	0
 11232 00eb 14       		.uleb128 0x14
 11233 00ec 15       		.uleb128 0x15
 11234 00ed 00       		.byte	0
 11235 00ee 27       		.uleb128 0x27
 11236 00ef 0C       		.uleb128 0xc
 11237 00f0 00       		.byte	0
 11238 00f1 00       		.byte	0
 11239 00f2 15       		.uleb128 0x15
 11240 00f3 15       		.uleb128 0x15
 11241 00f4 01       		.byte	0x1
 11242 00f5 27       		.uleb128 0x27
 11243 00f6 0C       		.uleb128 0xc
 11244 00f7 49       		.uleb128 0x49
 11245 00f8 13       		.uleb128 0x13
 11246 00f9 01       		.uleb128 0x1
 11247 00fa 13       		.uleb128 0x13
 11248 00fb 00       		.byte	0
 11249 00fc 00       		.byte	0
 11250 00fd 16       		.uleb128 0x16
 11251 00fe 05       		.uleb128 0x5
 11252 00ff 00       		.byte	0
 11253 0100 49       		.uleb128 0x49
 11254 0101 13       		.uleb128 0x13
 11255 0102 00       		.byte	0
 11256 0103 00       		.byte	0
 11257 0104 17       		.uleb128 0x17
 11258 0105 13       		.uleb128 0x13
 11259 0106 01       		.byte	0x1
 11260 0107 03       		.uleb128 0x3
 11261 0108 0E       		.uleb128 0xe
 11262 0109 0B       		.uleb128 0xb
 11263 010a 05       		.uleb128 0x5
 11264 010b 3A       		.uleb128 0x3a
 11265 010c 0B       		.uleb128 0xb
 11266 010d 3B       		.uleb128 0x3b
 11267 010e 05       		.uleb128 0x5
 11268 010f 01       		.uleb128 0x1
 11269 0110 13       		.uleb128 0x13
 11270 0111 00       		.byte	0
 11271 0112 00       		.byte	0
 11272 0113 18       		.uleb128 0x18
 11273 0114 0D       		.uleb128 0xd
 11274 0115 00       		.byte	0
 11275 0116 03       		.uleb128 0x3
 11276 0117 0E       		.uleb128 0xe
 11277 0118 3A       		.uleb128 0x3a
 11278 0119 0B       		.uleb128 0xb
 11279 011a 3B       		.uleb128 0x3b
 11280 011b 05       		.uleb128 0x5
 11281 011c 49       		.uleb128 0x49
 11282 011d 13       		.uleb128 0x13
 11283 011e 38       		.uleb128 0x38
 11284 011f 0A       		.uleb128 0xa
 11285 0120 00       		.byte	0
ARM GAS  C:\Users\EBANO_~1\AppData\Local\Temp\cc2nkIni.s 			page 228


 11286 0121 00       		.byte	0
 11287 0122 19       		.uleb128 0x19
 11288 0123 13       		.uleb128 0x13
 11289 0124 01       		.byte	0x1
 11290 0125 03       		.uleb128 0x3
 11291 0126 0E       		.uleb128 0xe
 11292 0127 0B       		.uleb128 0xb
 11293 0128 0B       		.uleb128 0xb
 11294 0129 3A       		.uleb128 0x3a
 11295 012a 0B       		.uleb128 0xb
 11296 012b 3B       		.uleb128 0x3b
 11297 012c 05       		.uleb128 0x5
 11298 012d 01       		.uleb128 0x1
 11299 012e 13       		.uleb128 0x13
 11300 012f 00       		.byte	0
 11301 0130 00       		.byte	0
 11302 0131 1A       		.uleb128 0x1a
 11303 0132 13       		.uleb128 0x13
 11304 0133 01       		.byte	0x1
 11305 0134 0B       		.uleb128 0xb
 11306 0135 0B       		.uleb128 0xb
 11307 0136 3A       		.uleb128 0x3a
 11308 0137 0B       		.uleb128 0xb
 11309 0138 3B       		.uleb128 0x3b
 11310 0139 05       		.uleb128 0x5
 11311 013a 01       		.uleb128 0x1
 11312 013b 13       		.uleb128 0x13
 11313 013c 00       		.byte	0
 11314 013d 00       		.byte	0
 11315 013e 1B       		.uleb128 0x1b
 11316 013f 17       		.uleb128 0x17
 11317 0140 01       		.byte	0x1
 11318 0141 0B       		.uleb128 0xb
 11319 0142 0B       		.uleb128 0xb
 11320 0143 3A       		.uleb128 0x3a
 11321 0144 0B       		.uleb128 0xb
 11322 0145 3B       		.uleb128 0x3b
 11323 0146 05       		.uleb128 0x5
 11324 0147 01       		.uleb128 0x1
 11325 0148 13       		.uleb128 0x13
 11326 0149 00       		.byte	0
 11327 014a 00       		.byte	0
 11328 014b 1C       		.uleb128 0x1c
 11329 014c 0D       		.uleb128 0xd
 11330 014d 00       		.byte	0
 11331 014e 03       		.uleb128 0x3
 11332 014f 0E       		.uleb128 0xe
 11333 0150 3A       		.uleb128 0x3a
 11334 0151 0B       		.uleb128 0xb
 11335 0152 3B       		.uleb128 0x3b
 11336 0153 05       		.uleb128 0x5
 11337 0154 49       		.uleb128 0x49
 11338 0155 13       		.uleb128 0x13
 11339 0156 00       		.byte	0
 11340 0157 00       		.byte	0
 11341 0158 1D       		.uleb128 0x1d
 11342 0159 15       		.uleb128 0x15
ARM GAS  C:\Users\EBANO_~1\AppData\Local\Temp\cc2nkIni.s 			page 229


 11343 015a 01       		.byte	0x1
 11344 015b 27       		.uleb128 0x27
 11345 015c 0C       		.uleb128 0xc
 11346 015d 01       		.uleb128 0x1
 11347 015e 13       		.uleb128 0x13
 11348 015f 00       		.byte	0
 11349 0160 00       		.byte	0
 11350 0161 1E       		.uleb128 0x1e
 11351 0162 34       		.uleb128 0x34
 11352 0163 00       		.byte	0
 11353 0164 03       		.uleb128 0x3
 11354 0165 0E       		.uleb128 0xe
 11355 0166 3A       		.uleb128 0x3a
 11356 0167 0B       		.uleb128 0xb
 11357 0168 3B       		.uleb128 0x3b
 11358 0169 05       		.uleb128 0x5
 11359 016a 49       		.uleb128 0x49
 11360 016b 13       		.uleb128 0x13
 11361 016c 3F       		.uleb128 0x3f
 11362 016d 0C       		.uleb128 0xc
 11363 016e 3C       		.uleb128 0x3c
 11364 016f 0C       		.uleb128 0xc
 11365 0170 00       		.byte	0
 11366 0171 00       		.byte	0
 11367 0172 1F       		.uleb128 0x1f
 11368 0173 17       		.uleb128 0x17
 11369 0174 01       		.byte	0x1
 11370 0175 03       		.uleb128 0x3
 11371 0176 0E       		.uleb128 0xe
 11372 0177 0B       		.uleb128 0xb
 11373 0178 0B       		.uleb128 0xb
 11374 0179 3A       		.uleb128 0x3a
 11375 017a 0B       		.uleb128 0xb
 11376 017b 3B       		.uleb128 0x3b
 11377 017c 0B       		.uleb128 0xb
 11378 017d 01       		.uleb128 0x1
 11379 017e 13       		.uleb128 0x13
 11380 017f 00       		.byte	0
 11381 0180 00       		.byte	0
 11382 0181 20       		.uleb128 0x20
 11383 0182 04       		.uleb128 0x4
 11384 0183 01       		.byte	0x1
 11385 0184 3E       		.uleb128 0x3e
 11386 0185 0B       		.uleb128 0xb
 11387 0186 0B       		.uleb128 0xb
 11388 0187 0B       		.uleb128 0xb
 11389 0188 49       		.uleb128 0x49
 11390 0189 13       		.uleb128 0x13
 11391 018a 3A       		.uleb128 0x3a
 11392 018b 0B       		.uleb128 0xb
 11393 018c 3B       		.uleb128 0x3b
 11394 018d 0B       		.uleb128 0xb
 11395 018e 01       		.uleb128 0x1
 11396 018f 13       		.uleb128 0x13
 11397 0190 00       		.byte	0
 11398 0191 00       		.byte	0
 11399 0192 21       		.uleb128 0x21
ARM GAS  C:\Users\EBANO_~1\AppData\Local\Temp\cc2nkIni.s 			page 230


 11400 0193 28       		.uleb128 0x28
 11401 0194 00       		.byte	0
 11402 0195 03       		.uleb128 0x3
 11403 0196 0E       		.uleb128 0xe
 11404 0197 1C       		.uleb128 0x1c
 11405 0198 0B       		.uleb128 0xb
 11406 0199 00       		.byte	0
 11407 019a 00       		.byte	0
 11408 019b 22       		.uleb128 0x22
 11409 019c 0D       		.uleb128 0xd
 11410 019d 00       		.byte	0
 11411 019e 03       		.uleb128 0x3
 11412 019f 08       		.uleb128 0x8
 11413 01a0 3A       		.uleb128 0x3a
 11414 01a1 0B       		.uleb128 0xb
 11415 01a2 3B       		.uleb128 0x3b
 11416 01a3 05       		.uleb128 0x5
 11417 01a4 49       		.uleb128 0x49
 11418 01a5 13       		.uleb128 0x13
 11419 01a6 38       		.uleb128 0x38
 11420 01a7 0A       		.uleb128 0xa
 11421 01a8 00       		.byte	0
 11422 01a9 00       		.byte	0
 11423 01aa 23       		.uleb128 0x23
 11424 01ab 15       		.uleb128 0x15
 11425 01ac 00       		.byte	0
 11426 01ad 27       		.uleb128 0x27
 11427 01ae 0C       		.uleb128 0xc
 11428 01af 49       		.uleb128 0x49
 11429 01b0 13       		.uleb128 0x13
 11430 01b1 00       		.byte	0
 11431 01b2 00       		.byte	0
 11432 01b3 24       		.uleb128 0x24
 11433 01b4 0D       		.uleb128 0xd
 11434 01b5 00       		.byte	0
 11435 01b6 03       		.uleb128 0x3
 11436 01b7 08       		.uleb128 0x8
 11437 01b8 3A       		.uleb128 0x3a
 11438 01b9 0B       		.uleb128 0xb
 11439 01ba 3B       		.uleb128 0x3b
 11440 01bb 0B       		.uleb128 0xb
 11441 01bc 49       		.uleb128 0x49
 11442 01bd 13       		.uleb128 0x13
 11443 01be 0B       		.uleb128 0xb
 11444 01bf 0B       		.uleb128 0xb
 11445 01c0 0D       		.uleb128 0xd
 11446 01c1 0B       		.uleb128 0xb
 11447 01c2 0C       		.uleb128 0xc
 11448 01c3 0B       		.uleb128 0xb
 11449 01c4 38       		.uleb128 0x38
 11450 01c5 0A       		.uleb128 0xa
 11451 01c6 00       		.byte	0
 11452 01c7 00       		.byte	0
 11453 01c8 25       		.uleb128 0x25
 11454 01c9 04       		.uleb128 0x4
 11455 01ca 01       		.byte	0x1
 11456 01cb 03       		.uleb128 0x3
ARM GAS  C:\Users\EBANO_~1\AppData\Local\Temp\cc2nkIni.s 			page 231


 11457 01cc 0E       		.uleb128 0xe
 11458 01cd 3E       		.uleb128 0x3e
 11459 01ce 0B       		.uleb128 0xb
 11460 01cf 0B       		.uleb128 0xb
 11461 01d0 0B       		.uleb128 0xb
 11462 01d1 49       		.uleb128 0x49
 11463 01d2 13       		.uleb128 0x13
 11464 01d3 3A       		.uleb128 0x3a
 11465 01d4 0B       		.uleb128 0xb
 11466 01d5 3B       		.uleb128 0x3b
 11467 01d6 0B       		.uleb128 0xb
 11468 01d7 01       		.uleb128 0x1
 11469 01d8 13       		.uleb128 0x13
 11470 01d9 00       		.byte	0
 11471 01da 00       		.byte	0
 11472 01db 26       		.uleb128 0x26
 11473 01dc 04       		.uleb128 0x4
 11474 01dd 01       		.byte	0x1
 11475 01de 03       		.uleb128 0x3
 11476 01df 0E       		.uleb128 0xe
 11477 01e0 3E       		.uleb128 0x3e
 11478 01e1 0B       		.uleb128 0xb
 11479 01e2 0B       		.uleb128 0xb
 11480 01e3 0B       		.uleb128 0xb
 11481 01e4 49       		.uleb128 0x49
 11482 01e5 13       		.uleb128 0x13
 11483 01e6 3A       		.uleb128 0x3a
 11484 01e7 0B       		.uleb128 0xb
 11485 01e8 3B       		.uleb128 0x3b
 11486 01e9 05       		.uleb128 0x5
 11487 01ea 01       		.uleb128 0x1
 11488 01eb 13       		.uleb128 0x13
 11489 01ec 00       		.byte	0
 11490 01ed 00       		.byte	0
 11491 01ee 27       		.uleb128 0x27
 11492 01ef 34       		.uleb128 0x34
 11493 01f0 00       		.byte	0
 11494 01f1 03       		.uleb128 0x3
 11495 01f2 0E       		.uleb128 0xe
 11496 01f3 3A       		.uleb128 0x3a
 11497 01f4 0B       		.uleb128 0xb
 11498 01f5 3B       		.uleb128 0x3b
 11499 01f6 05       		.uleb128 0x5
 11500 01f7 49       		.uleb128 0x49
 11501 01f8 13       		.uleb128 0x13
 11502 01f9 1C       		.uleb128 0x1c
 11503 01fa 0A       		.uleb128 0xa
 11504 01fb 00       		.byte	0
 11505 01fc 00       		.byte	0
 11506 01fd 28       		.uleb128 0x28
 11507 01fe 17       		.uleb128 0x17
 11508 01ff 01       		.byte	0x1
 11509 0200 03       		.uleb128 0x3
 11510 0201 0E       		.uleb128 0xe
 11511 0202 0B       		.uleb128 0xb
 11512 0203 0B       		.uleb128 0xb
 11513 0204 3A       		.uleb128 0x3a
ARM GAS  C:\Users\EBANO_~1\AppData\Local\Temp\cc2nkIni.s 			page 232


 11514 0205 0B       		.uleb128 0xb
 11515 0206 3B       		.uleb128 0x3b
 11516 0207 05       		.uleb128 0x5
 11517 0208 01       		.uleb128 0x1
 11518 0209 13       		.uleb128 0x13
 11519 020a 00       		.byte	0
 11520 020b 00       		.byte	0
 11521 020c 29       		.uleb128 0x29
 11522 020d 34       		.uleb128 0x34
 11523 020e 00       		.byte	0
 11524 020f 03       		.uleb128 0x3
 11525 0210 0E       		.uleb128 0xe
 11526 0211 3A       		.uleb128 0x3a
 11527 0212 0B       		.uleb128 0xb
 11528 0213 3B       		.uleb128 0x3b
 11529 0214 05       		.uleb128 0x5
 11530 0215 49       		.uleb128 0x49
 11531 0216 13       		.uleb128 0x13
 11532 0217 02       		.uleb128 0x2
 11533 0218 0A       		.uleb128 0xa
 11534 0219 00       		.byte	0
 11535 021a 00       		.byte	0
 11536 021b 2A       		.uleb128 0x2a
 11537 021c 34       		.uleb128 0x34
 11538 021d 00       		.byte	0
 11539 021e 03       		.uleb128 0x3
 11540 021f 0E       		.uleb128 0xe
 11541 0220 3A       		.uleb128 0x3a
 11542 0221 0B       		.uleb128 0xb
 11543 0222 3B       		.uleb128 0x3b
 11544 0223 0B       		.uleb128 0xb
 11545 0224 49       		.uleb128 0x49
 11546 0225 13       		.uleb128 0x13
 11547 0226 02       		.uleb128 0x2
 11548 0227 0A       		.uleb128 0xa
 11549 0228 00       		.byte	0
 11550 0229 00       		.byte	0
 11551 022a 2B       		.uleb128 0x2b
 11552 022b 2E       		.uleb128 0x2e
 11553 022c 01       		.byte	0x1
 11554 022d 3F       		.uleb128 0x3f
 11555 022e 0C       		.uleb128 0xc
 11556 022f 03       		.uleb128 0x3
 11557 0230 0E       		.uleb128 0xe
 11558 0231 3A       		.uleb128 0x3a
 11559 0232 0B       		.uleb128 0xb
 11560 0233 3B       		.uleb128 0x3b
 11561 0234 05       		.uleb128 0x5
 11562 0235 27       		.uleb128 0x27
 11563 0236 0C       		.uleb128 0xc
 11564 0237 11       		.uleb128 0x11
 11565 0238 01       		.uleb128 0x1
 11566 0239 12       		.uleb128 0x12
 11567 023a 01       		.uleb128 0x1
 11568 023b 40       		.uleb128 0x40
 11569 023c 06       		.uleb128 0x6
 11570 023d 9742     		.uleb128 0x2117
ARM GAS  C:\Users\EBANO_~1\AppData\Local\Temp\cc2nkIni.s 			page 233


 11571 023f 0C       		.uleb128 0xc
 11572 0240 01       		.uleb128 0x1
 11573 0241 13       		.uleb128 0x13
 11574 0242 00       		.byte	0
 11575 0243 00       		.byte	0
 11576 0244 2C       		.uleb128 0x2c
 11577 0245 05       		.uleb128 0x5
 11578 0246 00       		.byte	0
 11579 0247 03       		.uleb128 0x3
 11580 0248 0E       		.uleb128 0xe
 11581 0249 3A       		.uleb128 0x3a
 11582 024a 0B       		.uleb128 0xb
 11583 024b 3B       		.uleb128 0x3b
 11584 024c 05       		.uleb128 0x5
 11585 024d 49       		.uleb128 0x49
 11586 024e 13       		.uleb128 0x13
 11587 024f 02       		.uleb128 0x2
 11588 0250 06       		.uleb128 0x6
 11589 0251 00       		.byte	0
 11590 0252 00       		.byte	0
 11591 0253 2D       		.uleb128 0x2d
 11592 0254 898201   		.uleb128 0x4109
 11593 0257 01       		.byte	0x1
 11594 0258 11       		.uleb128 0x11
 11595 0259 01       		.uleb128 0x1
 11596 025a 31       		.uleb128 0x31
 11597 025b 13       		.uleb128 0x13
 11598 025c 00       		.byte	0
 11599 025d 00       		.byte	0
 11600 025e 2E       		.uleb128 0x2e
 11601 025f 8A8201   		.uleb128 0x410a
 11602 0262 00       		.byte	0
 11603 0263 02       		.uleb128 0x2
 11604 0264 0A       		.uleb128 0xa
 11605 0265 9142     		.uleb128 0x2111
 11606 0267 0A       		.uleb128 0xa
 11607 0268 00       		.byte	0
 11608 0269 00       		.byte	0
 11609 026a 2F       		.uleb128 0x2f
 11610 026b 2E       		.uleb128 0x2e
 11611 026c 01       		.byte	0x1
 11612 026d 3F       		.uleb128 0x3f
 11613 026e 0C       		.uleb128 0xc
 11614 026f 03       		.uleb128 0x3
 11615 0270 0E       		.uleb128 0xe
 11616 0271 3A       		.uleb128 0x3a
 11617 0272 0B       		.uleb128 0xb
 11618 0273 3B       		.uleb128 0x3b
 11619 0274 05       		.uleb128 0x5
 11620 0275 27       		.uleb128 0x27
 11621 0276 0C       		.uleb128 0xc
 11622 0277 49       		.uleb128 0x49
 11623 0278 13       		.uleb128 0x13
 11624 0279 11       		.uleb128 0x11
 11625 027a 01       		.uleb128 0x1
 11626 027b 12       		.uleb128 0x12
 11627 027c 01       		.uleb128 0x1
ARM GAS  C:\Users\EBANO_~1\AppData\Local\Temp\cc2nkIni.s 			page 234


 11628 027d 40       		.uleb128 0x40
 11629 027e 0A       		.uleb128 0xa
 11630 027f 9742     		.uleb128 0x2117
 11631 0281 0C       		.uleb128 0xc
 11632 0282 01       		.uleb128 0x1
 11633 0283 13       		.uleb128 0x13
 11634 0284 00       		.byte	0
 11635 0285 00       		.byte	0
 11636 0286 30       		.uleb128 0x30
 11637 0287 05       		.uleb128 0x5
 11638 0288 00       		.byte	0
 11639 0289 03       		.uleb128 0x3
 11640 028a 08       		.uleb128 0x8
 11641 028b 3A       		.uleb128 0x3a
 11642 028c 0B       		.uleb128 0xb
 11643 028d 3B       		.uleb128 0x3b
 11644 028e 05       		.uleb128 0x5
 11645 028f 49       		.uleb128 0x49
 11646 0290 13       		.uleb128 0x13
 11647 0291 02       		.uleb128 0x2
 11648 0292 06       		.uleb128 0x6
 11649 0293 00       		.byte	0
 11650 0294 00       		.byte	0
 11651 0295 31       		.uleb128 0x31
 11652 0296 34       		.uleb128 0x34
 11653 0297 00       		.byte	0
 11654 0298 03       		.uleb128 0x3
 11655 0299 0E       		.uleb128 0xe
 11656 029a 3A       		.uleb128 0x3a
 11657 029b 0B       		.uleb128 0xb
 11658 029c 3B       		.uleb128 0x3b
 11659 029d 05       		.uleb128 0x5
 11660 029e 49       		.uleb128 0x49
 11661 029f 13       		.uleb128 0x13
 11662 02a0 02       		.uleb128 0x2
 11663 02a1 06       		.uleb128 0x6
 11664 02a2 00       		.byte	0
 11665 02a3 00       		.byte	0
 11666 02a4 32       		.uleb128 0x32
 11667 02a5 34       		.uleb128 0x34
 11668 02a6 00       		.byte	0
 11669 02a7 03       		.uleb128 0x3
 11670 02a8 0E       		.uleb128 0xe
 11671 02a9 3A       		.uleb128 0x3a
 11672 02aa 0B       		.uleb128 0xb
 11673 02ab 3B       		.uleb128 0x3b
 11674 02ac 05       		.uleb128 0x5
 11675 02ad 49       		.uleb128 0x49
 11676 02ae 13       		.uleb128 0x13
 11677 02af 00       		.byte	0
 11678 02b0 00       		.byte	0
 11679 02b1 33       		.uleb128 0x33
 11680 02b2 1D       		.uleb128 0x1d
 11681 02b3 01       		.byte	0x1
 11682 02b4 31       		.uleb128 0x31
 11683 02b5 13       		.uleb128 0x13
 11684 02b6 52       		.uleb128 0x52
ARM GAS  C:\Users\EBANO_~1\AppData\Local\Temp\cc2nkIni.s 			page 235


 11685 02b7 01       		.uleb128 0x1
 11686 02b8 55       		.uleb128 0x55
 11687 02b9 06       		.uleb128 0x6
 11688 02ba 58       		.uleb128 0x58
 11689 02bb 0B       		.uleb128 0xb
 11690 02bc 59       		.uleb128 0x59
 11691 02bd 05       		.uleb128 0x5
 11692 02be 01       		.uleb128 0x1
 11693 02bf 13       		.uleb128 0x13
 11694 02c0 00       		.byte	0
 11695 02c1 00       		.byte	0
 11696 02c2 34       		.uleb128 0x34
 11697 02c3 05       		.uleb128 0x5
 11698 02c4 00       		.byte	0
 11699 02c5 31       		.uleb128 0x31
 11700 02c6 13       		.uleb128 0x13
 11701 02c7 02       		.uleb128 0x2
 11702 02c8 06       		.uleb128 0x6
 11703 02c9 00       		.byte	0
 11704 02ca 00       		.byte	0
 11705 02cb 35       		.uleb128 0x35
 11706 02cc 05       		.uleb128 0x5
 11707 02cd 00       		.byte	0
 11708 02ce 31       		.uleb128 0x31
 11709 02cf 13       		.uleb128 0x13
 11710 02d0 02       		.uleb128 0x2
 11711 02d1 0A       		.uleb128 0xa
 11712 02d2 00       		.byte	0
 11713 02d3 00       		.byte	0
 11714 02d4 36       		.uleb128 0x36
 11715 02d5 05       		.uleb128 0x5
 11716 02d6 00       		.byte	0
 11717 02d7 31       		.uleb128 0x31
 11718 02d8 13       		.uleb128 0x13
 11719 02d9 00       		.byte	0
 11720 02da 00       		.byte	0
 11721 02db 37       		.uleb128 0x37
 11722 02dc 0B       		.uleb128 0xb
 11723 02dd 01       		.byte	0x1
 11724 02de 55       		.uleb128 0x55
 11725 02df 06       		.uleb128 0x6
 11726 02e0 00       		.byte	0
 11727 02e1 00       		.byte	0
 11728 02e2 38       		.uleb128 0x38
 11729 02e3 34       		.uleb128 0x34
 11730 02e4 00       		.byte	0
 11731 02e5 31       		.uleb128 0x31
 11732 02e6 13       		.uleb128 0x13
 11733 02e7 00       		.byte	0
 11734 02e8 00       		.byte	0
 11735 02e9 39       		.uleb128 0x39
 11736 02ea 898201   		.uleb128 0x4109
 11737 02ed 00       		.byte	0
 11738 02ee 11       		.uleb128 0x11
 11739 02ef 01       		.uleb128 0x1
 11740 02f0 31       		.uleb128 0x31
 11741 02f1 13       		.uleb128 0x13
ARM GAS  C:\Users\EBANO_~1\AppData\Local\Temp\cc2nkIni.s 			page 236


 11742 02f2 00       		.byte	0
 11743 02f3 00       		.byte	0
 11744 02f4 3A       		.uleb128 0x3a
 11745 02f5 898201   		.uleb128 0x4109
 11746 02f8 01       		.byte	0x1
 11747 02f9 11       		.uleb128 0x11
 11748 02fa 01       		.uleb128 0x1
 11749 02fb 00       		.byte	0
 11750 02fc 00       		.byte	0
 11751 02fd 3B       		.uleb128 0x3b
 11752 02fe 2E       		.uleb128 0x2e
 11753 02ff 01       		.byte	0x1
 11754 0300 3F       		.uleb128 0x3f
 11755 0301 0C       		.uleb128 0xc
 11756 0302 03       		.uleb128 0x3
 11757 0303 0E       		.uleb128 0xe
 11758 0304 3A       		.uleb128 0x3a
 11759 0305 0B       		.uleb128 0xb
 11760 0306 3B       		.uleb128 0x3b
 11761 0307 05       		.uleb128 0x5
 11762 0308 27       		.uleb128 0x27
 11763 0309 0C       		.uleb128 0xc
 11764 030a 49       		.uleb128 0x49
 11765 030b 13       		.uleb128 0x13
 11766 030c 20       		.uleb128 0x20
 11767 030d 0B       		.uleb128 0xb
 11768 030e 01       		.uleb128 0x1
 11769 030f 13       		.uleb128 0x13
 11770 0310 00       		.byte	0
 11771 0311 00       		.byte	0
 11772 0312 3C       		.uleb128 0x3c
 11773 0313 05       		.uleb128 0x5
 11774 0314 00       		.byte	0
 11775 0315 03       		.uleb128 0x3
 11776 0316 0E       		.uleb128 0xe
 11777 0317 3A       		.uleb128 0x3a
 11778 0318 0B       		.uleb128 0xb
 11779 0319 3B       		.uleb128 0x3b
 11780 031a 05       		.uleb128 0x5
 11781 031b 49       		.uleb128 0x49
 11782 031c 13       		.uleb128 0x13
 11783 031d 00       		.byte	0
 11784 031e 00       		.byte	0
 11785 031f 3D       		.uleb128 0x3d
 11786 0320 34       		.uleb128 0x34
 11787 0321 00       		.byte	0
 11788 0322 03       		.uleb128 0x3
 11789 0323 08       		.uleb128 0x8
 11790 0324 3A       		.uleb128 0x3a
 11791 0325 0B       		.uleb128 0xb
 11792 0326 3B       		.uleb128 0x3b
 11793 0327 05       		.uleb128 0x5
 11794 0328 49       		.uleb128 0x49
 11795 0329 13       		.uleb128 0x13
 11796 032a 00       		.byte	0
 11797 032b 00       		.byte	0
 11798 032c 3E       		.uleb128 0x3e
ARM GAS  C:\Users\EBANO_~1\AppData\Local\Temp\cc2nkIni.s 			page 237


 11799 032d 2E       		.uleb128 0x2e
 11800 032e 01       		.byte	0x1
 11801 032f 3F       		.uleb128 0x3f
 11802 0330 0C       		.uleb128 0xc
 11803 0331 03       		.uleb128 0x3
 11804 0332 0E       		.uleb128 0xe
 11805 0333 3A       		.uleb128 0x3a
 11806 0334 0B       		.uleb128 0xb
 11807 0335 3B       		.uleb128 0x3b
 11808 0336 05       		.uleb128 0x5
 11809 0337 27       		.uleb128 0x27
 11810 0338 0C       		.uleb128 0xc
 11811 0339 49       		.uleb128 0x49
 11812 033a 13       		.uleb128 0x13
 11813 033b 11       		.uleb128 0x11
 11814 033c 01       		.uleb128 0x1
 11815 033d 12       		.uleb128 0x12
 11816 033e 01       		.uleb128 0x1
 11817 033f 40       		.uleb128 0x40
 11818 0340 06       		.uleb128 0x6
 11819 0341 9642     		.uleb128 0x2116
 11820 0343 0C       		.uleb128 0xc
 11821 0344 01       		.uleb128 0x1
 11822 0345 13       		.uleb128 0x13
 11823 0346 00       		.byte	0
 11824 0347 00       		.byte	0
 11825 0348 3F       		.uleb128 0x3f
 11826 0349 0B       		.uleb128 0xb
 11827 034a 01       		.byte	0x1
 11828 034b 11       		.uleb128 0x11
 11829 034c 01       		.uleb128 0x1
 11830 034d 12       		.uleb128 0x12
 11831 034e 01       		.uleb128 0x1
 11832 034f 01       		.uleb128 0x1
 11833 0350 13       		.uleb128 0x13
 11834 0351 00       		.byte	0
 11835 0352 00       		.byte	0
 11836 0353 40       		.uleb128 0x40
 11837 0354 34       		.uleb128 0x34
 11838 0355 00       		.byte	0
 11839 0356 03       		.uleb128 0x3
 11840 0357 08       		.uleb128 0x8
 11841 0358 3A       		.uleb128 0x3a
 11842 0359 0B       		.uleb128 0xb
 11843 035a 3B       		.uleb128 0x3b
 11844 035b 05       		.uleb128 0x5
 11845 035c 49       		.uleb128 0x49
 11846 035d 13       		.uleb128 0x13
 11847 035e 02       		.uleb128 0x2
 11848 035f 06       		.uleb128 0x6
 11849 0360 00       		.byte	0
 11850 0361 00       		.byte	0
 11851 0362 41       		.uleb128 0x41
 11852 0363 898201   		.uleb128 0x4109
 11853 0366 01       		.byte	0x1
 11854 0367 11       		.uleb128 0x11
 11855 0368 01       		.uleb128 0x1
ARM GAS  C:\Users\EBANO_~1\AppData\Local\Temp\cc2nkIni.s 			page 238


 11856 0369 31       		.uleb128 0x31
 11857 036a 13       		.uleb128 0x13
 11858 036b 01       		.uleb128 0x1
 11859 036c 13       		.uleb128 0x13
 11860 036d 00       		.byte	0
 11861 036e 00       		.byte	0
 11862 036f 42       		.uleb128 0x42
 11863 0370 34       		.uleb128 0x34
 11864 0371 00       		.byte	0
 11865 0372 31       		.uleb128 0x31
 11866 0373 13       		.uleb128 0x13
 11867 0374 02       		.uleb128 0x2
 11868 0375 06       		.uleb128 0x6
 11869 0376 00       		.byte	0
 11870 0377 00       		.byte	0
 11871 0378 43       		.uleb128 0x43
 11872 0379 0B       		.uleb128 0xb
 11873 037a 01       		.byte	0x1
 11874 037b 31       		.uleb128 0x31
 11875 037c 13       		.uleb128 0x13
 11876 037d 55       		.uleb128 0x55
 11877 037e 06       		.uleb128 0x6
 11878 037f 00       		.byte	0
 11879 0380 00       		.byte	0
 11880 0381 44       		.uleb128 0x44
 11881 0382 05       		.uleb128 0x5
 11882 0383 00       		.byte	0
 11883 0384 03       		.uleb128 0x3
 11884 0385 0E       		.uleb128 0xe
 11885 0386 3A       		.uleb128 0x3a
 11886 0387 0B       		.uleb128 0xb
 11887 0388 3B       		.uleb128 0x3b
 11888 0389 05       		.uleb128 0x5
 11889 038a 49       		.uleb128 0x49
 11890 038b 13       		.uleb128 0x13
 11891 038c 02       		.uleb128 0x2
 11892 038d 0A       		.uleb128 0xa
 11893 038e 00       		.byte	0
 11894 038f 00       		.byte	0
 11895 0390 45       		.uleb128 0x45
 11896 0391 2E       		.uleb128 0x2e
 11897 0392 01       		.byte	0x1
 11898 0393 3F       		.uleb128 0x3f
 11899 0394 0C       		.uleb128 0xc
 11900 0395 03       		.uleb128 0x3
 11901 0396 0E       		.uleb128 0xe
 11902 0397 3A       		.uleb128 0x3a
 11903 0398 0B       		.uleb128 0xb
 11904 0399 3B       		.uleb128 0x3b
 11905 039a 05       		.uleb128 0x5
 11906 039b 27       		.uleb128 0x27
 11907 039c 0C       		.uleb128 0xc
 11908 039d 49       		.uleb128 0x49
 11909 039e 13       		.uleb128 0x13
 11910 039f 11       		.uleb128 0x11
 11911 03a0 01       		.uleb128 0x1
 11912 03a1 12       		.uleb128 0x12
ARM GAS  C:\Users\EBANO_~1\AppData\Local\Temp\cc2nkIni.s 			page 239


 11913 03a2 01       		.uleb128 0x1
 11914 03a3 40       		.uleb128 0x40
 11915 03a4 06       		.uleb128 0x6
 11916 03a5 9742     		.uleb128 0x2117
 11917 03a7 0C       		.uleb128 0xc
 11918 03a8 01       		.uleb128 0x1
 11919 03a9 13       		.uleb128 0x13
 11920 03aa 00       		.byte	0
 11921 03ab 00       		.byte	0
 11922 03ac 46       		.uleb128 0x46
 11923 03ad 1D       		.uleb128 0x1d
 11924 03ae 01       		.byte	0x1
 11925 03af 31       		.uleb128 0x31
 11926 03b0 13       		.uleb128 0x13
 11927 03b1 52       		.uleb128 0x52
 11928 03b2 01       		.uleb128 0x1
 11929 03b3 55       		.uleb128 0x55
 11930 03b4 06       		.uleb128 0x6
 11931 03b5 58       		.uleb128 0x58
 11932 03b6 0B       		.uleb128 0xb
 11933 03b7 59       		.uleb128 0x59
 11934 03b8 05       		.uleb128 0x5
 11935 03b9 00       		.byte	0
 11936 03ba 00       		.byte	0
 11937 03bb 47       		.uleb128 0x47
 11938 03bc 34       		.uleb128 0x34
 11939 03bd 00       		.byte	0
 11940 03be 03       		.uleb128 0x3
 11941 03bf 0E       		.uleb128 0xe
 11942 03c0 3A       		.uleb128 0x3a
 11943 03c1 0B       		.uleb128 0xb
 11944 03c2 3B       		.uleb128 0x3b
 11945 03c3 05       		.uleb128 0x5
 11946 03c4 49       		.uleb128 0x49
 11947 03c5 13       		.uleb128 0x13
 11948 03c6 1C       		.uleb128 0x1c
 11949 03c7 0B       		.uleb128 0xb
 11950 03c8 00       		.byte	0
 11951 03c9 00       		.byte	0
 11952 03ca 48       		.uleb128 0x48
 11953 03cb 1D       		.uleb128 0x1d
 11954 03cc 01       		.byte	0x1
 11955 03cd 31       		.uleb128 0x31
 11956 03ce 13       		.uleb128 0x13
 11957 03cf 11       		.uleb128 0x11
 11958 03d0 01       		.uleb128 0x1
 11959 03d1 12       		.uleb128 0x12
 11960 03d2 01       		.uleb128 0x1
 11961 03d3 58       		.uleb128 0x58
 11962 03d4 0B       		.uleb128 0xb
 11963 03d5 59       		.uleb128 0x59
 11964 03d6 05       		.uleb128 0x5
 11965 03d7 01       		.uleb128 0x1
 11966 03d8 13       		.uleb128 0x13
 11967 03d9 00       		.byte	0
 11968 03da 00       		.byte	0
 11969 03db 49       		.uleb128 0x49
ARM GAS  C:\Users\EBANO_~1\AppData\Local\Temp\cc2nkIni.s 			page 240


 11970 03dc 0B       		.uleb128 0xb
 11971 03dd 01       		.byte	0x1
 11972 03de 11       		.uleb128 0x11
 11973 03df 01       		.uleb128 0x1
 11974 03e0 12       		.uleb128 0x12
 11975 03e1 01       		.uleb128 0x1
 11976 03e2 00       		.byte	0
 11977 03e3 00       		.byte	0
 11978 03e4 4A       		.uleb128 0x4a
 11979 03e5 898201   		.uleb128 0x4109
 11980 03e8 01       		.byte	0x1
 11981 03e9 11       		.uleb128 0x11
 11982 03ea 01       		.uleb128 0x1
 11983 03eb 01       		.uleb128 0x1
 11984 03ec 13       		.uleb128 0x13
 11985 03ed 00       		.byte	0
 11986 03ee 00       		.byte	0
 11987 03ef 4B       		.uleb128 0x4b
 11988 03f0 898201   		.uleb128 0x4109
 11989 03f3 00       		.byte	0
 11990 03f4 11       		.uleb128 0x11
 11991 03f5 01       		.uleb128 0x1
 11992 03f6 9342     		.uleb128 0x2113
 11993 03f8 0A       		.uleb128 0xa
 11994 03f9 00       		.byte	0
 11995 03fa 00       		.byte	0
 11996 03fb 4C       		.uleb128 0x4c
 11997 03fc 0B       		.uleb128 0xb
 11998 03fd 01       		.byte	0x1
 11999 03fe 55       		.uleb128 0x55
 12000 03ff 06       		.uleb128 0x6
 12001 0400 01       		.uleb128 0x1
 12002 0401 13       		.uleb128 0x13
 12003 0402 00       		.byte	0
 12004 0403 00       		.byte	0
 12005 0404 4D       		.uleb128 0x4d
 12006 0405 898201   		.uleb128 0x4109
 12007 0408 01       		.byte	0x1
 12008 0409 11       		.uleb128 0x11
 12009 040a 01       		.uleb128 0x1
 12010 040b 9342     		.uleb128 0x2113
 12011 040d 0A       		.uleb128 0xa
 12012 040e 01       		.uleb128 0x1
 12013 040f 13       		.uleb128 0x13
 12014 0410 00       		.byte	0
 12015 0411 00       		.byte	0
 12016 0412 4E       		.uleb128 0x4e
 12017 0413 898201   		.uleb128 0x4109
 12018 0416 01       		.byte	0x1
 12019 0417 11       		.uleb128 0x11
 12020 0418 01       		.uleb128 0x1
 12021 0419 9342     		.uleb128 0x2113
 12022 041b 0A       		.uleb128 0xa
 12023 041c 00       		.byte	0
 12024 041d 00       		.byte	0
 12025 041e 4F       		.uleb128 0x4f
 12026 041f 898201   		.uleb128 0x4109
ARM GAS  C:\Users\EBANO_~1\AppData\Local\Temp\cc2nkIni.s 			page 241


 12027 0422 00       		.byte	0
 12028 0423 11       		.uleb128 0x11
 12029 0424 01       		.uleb128 0x1
 12030 0425 00       		.byte	0
 12031 0426 00       		.byte	0
 12032 0427 50       		.uleb128 0x50
 12033 0428 1D       		.uleb128 0x1d
 12034 0429 01       		.byte	0x1
 12035 042a 31       		.uleb128 0x31
 12036 042b 13       		.uleb128 0x13
 12037 042c 11       		.uleb128 0x11
 12038 042d 01       		.uleb128 0x1
 12039 042e 12       		.uleb128 0x12
 12040 042f 01       		.uleb128 0x1
 12041 0430 58       		.uleb128 0x58
 12042 0431 0B       		.uleb128 0xb
 12043 0432 59       		.uleb128 0x59
 12044 0433 05       		.uleb128 0x5
 12045 0434 00       		.byte	0
 12046 0435 00       		.byte	0
 12047 0436 51       		.uleb128 0x51
 12048 0437 34       		.uleb128 0x34
 12049 0438 00       		.byte	0
 12050 0439 31       		.uleb128 0x31
 12051 043a 13       		.uleb128 0x13
 12052 043b 1C       		.uleb128 0x1c
 12053 043c 0B       		.uleb128 0xb
 12054 043d 00       		.byte	0
 12055 043e 00       		.byte	0
 12056 043f 52       		.uleb128 0x52
 12057 0440 2E       		.uleb128 0x2e
 12058 0441 01       		.byte	0x1
 12059 0442 3F       		.uleb128 0x3f
 12060 0443 0C       		.uleb128 0xc
 12061 0444 03       		.uleb128 0x3
 12062 0445 0E       		.uleb128 0xe
 12063 0446 3A       		.uleb128 0x3a
 12064 0447 0B       		.uleb128 0xb
 12065 0448 3B       		.uleb128 0x3b
 12066 0449 0B       		.uleb128 0xb
 12067 044a 27       		.uleb128 0x27
 12068 044b 0C       		.uleb128 0xc
 12069 044c 49       		.uleb128 0x49
 12070 044d 13       		.uleb128 0x13
 12071 044e 11       		.uleb128 0x11
 12072 044f 01       		.uleb128 0x1
 12073 0450 12       		.uleb128 0x12
 12074 0451 01       		.uleb128 0x1
 12075 0452 40       		.uleb128 0x40
 12076 0453 06       		.uleb128 0x6
 12077 0454 9742     		.uleb128 0x2117
 12078 0456 0C       		.uleb128 0xc
 12079 0457 01       		.uleb128 0x1
 12080 0458 13       		.uleb128 0x13
 12081 0459 00       		.byte	0
 12082 045a 00       		.byte	0
 12083 045b 53       		.uleb128 0x53
ARM GAS  C:\Users\EBANO_~1\AppData\Local\Temp\cc2nkIni.s 			page 242


 12084 045c 05       		.uleb128 0x5
 12085 045d 00       		.byte	0
 12086 045e 03       		.uleb128 0x3
 12087 045f 0E       		.uleb128 0xe
 12088 0460 3A       		.uleb128 0x3a
 12089 0461 0B       		.uleb128 0xb
 12090 0462 3B       		.uleb128 0x3b
 12091 0463 0B       		.uleb128 0xb
 12092 0464 49       		.uleb128 0x49
 12093 0465 13       		.uleb128 0x13
 12094 0466 02       		.uleb128 0x2
 12095 0467 06       		.uleb128 0x6
 12096 0468 00       		.byte	0
 12097 0469 00       		.byte	0
 12098 046a 54       		.uleb128 0x54
 12099 046b 1D       		.uleb128 0x1d
 12100 046c 01       		.byte	0x1
 12101 046d 31       		.uleb128 0x31
 12102 046e 13       		.uleb128 0x13
 12103 046f 11       		.uleb128 0x11
 12104 0470 01       		.uleb128 0x1
 12105 0471 12       		.uleb128 0x12
 12106 0472 01       		.uleb128 0x1
 12107 0473 58       		.uleb128 0x58
 12108 0474 0B       		.uleb128 0xb
 12109 0475 59       		.uleb128 0x59
 12110 0476 0B       		.uleb128 0xb
 12111 0477 01       		.uleb128 0x1
 12112 0478 13       		.uleb128 0x13
 12113 0479 00       		.byte	0
 12114 047a 00       		.byte	0
 12115 047b 55       		.uleb128 0x55
 12116 047c 1D       		.uleb128 0x1d
 12117 047d 01       		.byte	0x1
 12118 047e 31       		.uleb128 0x31
 12119 047f 13       		.uleb128 0x13
 12120 0480 52       		.uleb128 0x52
 12121 0481 01       		.uleb128 0x1
 12122 0482 55       		.uleb128 0x55
 12123 0483 06       		.uleb128 0x6
 12124 0484 58       		.uleb128 0x58
 12125 0485 0B       		.uleb128 0xb
 12126 0486 59       		.uleb128 0x59
 12127 0487 0B       		.uleb128 0xb
 12128 0488 01       		.uleb128 0x1
 12129 0489 13       		.uleb128 0x13
 12130 048a 00       		.byte	0
 12131 048b 00       		.byte	0
 12132 048c 56       		.uleb128 0x56
 12133 048d 05       		.uleb128 0x5
 12134 048e 00       		.byte	0
 12135 048f 31       		.uleb128 0x31
 12136 0490 13       		.uleb128 0x13
 12137 0491 1C       		.uleb128 0x1c
 12138 0492 0B       		.uleb128 0xb
 12139 0493 00       		.byte	0
 12140 0494 00       		.byte	0
ARM GAS  C:\Users\EBANO_~1\AppData\Local\Temp\cc2nkIni.s 			page 243


 12141 0495 57       		.uleb128 0x57
 12142 0496 2E       		.uleb128 0x2e
 12143 0497 01       		.byte	0x1
 12144 0498 03       		.uleb128 0x3
 12145 0499 0E       		.uleb128 0xe
 12146 049a 3A       		.uleb128 0x3a
 12147 049b 0B       		.uleb128 0xb
 12148 049c 3B       		.uleb128 0x3b
 12149 049d 0B       		.uleb128 0xb
 12150 049e 27       		.uleb128 0x27
 12151 049f 0C       		.uleb128 0xc
 12152 04a0 49       		.uleb128 0x49
 12153 04a1 13       		.uleb128 0x13
 12154 04a2 20       		.uleb128 0x20
 12155 04a3 0B       		.uleb128 0xb
 12156 04a4 01       		.uleb128 0x1
 12157 04a5 13       		.uleb128 0x13
 12158 04a6 00       		.byte	0
 12159 04a7 00       		.byte	0
 12160 04a8 58       		.uleb128 0x58
 12161 04a9 05       		.uleb128 0x5
 12162 04aa 00       		.byte	0
 12163 04ab 03       		.uleb128 0x3
 12164 04ac 0E       		.uleb128 0xe
 12165 04ad 3A       		.uleb128 0x3a
 12166 04ae 0B       		.uleb128 0xb
 12167 04af 3B       		.uleb128 0x3b
 12168 04b0 0B       		.uleb128 0xb
 12169 04b1 49       		.uleb128 0x49
 12170 04b2 13       		.uleb128 0x13
 12171 04b3 00       		.byte	0
 12172 04b4 00       		.byte	0
 12173 04b5 59       		.uleb128 0x59
 12174 04b6 34       		.uleb128 0x34
 12175 04b7 00       		.byte	0
 12176 04b8 03       		.uleb128 0x3
 12177 04b9 0E       		.uleb128 0xe
 12178 04ba 3A       		.uleb128 0x3a
 12179 04bb 0B       		.uleb128 0xb
 12180 04bc 3B       		.uleb128 0x3b
 12181 04bd 0B       		.uleb128 0xb
 12182 04be 49       		.uleb128 0x49
 12183 04bf 13       		.uleb128 0x13
 12184 04c0 00       		.byte	0
 12185 04c1 00       		.byte	0
 12186 04c2 5A       		.uleb128 0x5a
 12187 04c3 0B       		.uleb128 0xb
 12188 04c4 01       		.byte	0x1
 12189 04c5 00       		.byte	0
 12190 04c6 00       		.byte	0
 12191 04c7 5B       		.uleb128 0x5b
 12192 04c8 34       		.uleb128 0x34
 12193 04c9 00       		.byte	0
 12194 04ca 03       		.uleb128 0x3
 12195 04cb 08       		.uleb128 0x8
 12196 04cc 3A       		.uleb128 0x3a
 12197 04cd 0B       		.uleb128 0xb
ARM GAS  C:\Users\EBANO_~1\AppData\Local\Temp\cc2nkIni.s 			page 244


 12198 04ce 3B       		.uleb128 0x3b
 12199 04cf 0B       		.uleb128 0xb
 12200 04d0 49       		.uleb128 0x49
 12201 04d1 13       		.uleb128 0x13
 12202 04d2 00       		.byte	0
 12203 04d3 00       		.byte	0
 12204 04d4 5C       		.uleb128 0x5c
 12205 04d5 05       		.uleb128 0x5
 12206 04d6 00       		.byte	0
 12207 04d7 03       		.uleb128 0x3
 12208 04d8 08       		.uleb128 0x8
 12209 04d9 3A       		.uleb128 0x3a
 12210 04da 0B       		.uleb128 0xb
 12211 04db 3B       		.uleb128 0x3b
 12212 04dc 0B       		.uleb128 0xb
 12213 04dd 49       		.uleb128 0x49
 12214 04de 13       		.uleb128 0x13
 12215 04df 00       		.byte	0
 12216 04e0 00       		.byte	0
 12217 04e1 5D       		.uleb128 0x5d
 12218 04e2 2E       		.uleb128 0x2e
 12219 04e3 01       		.byte	0x1
 12220 04e4 31       		.uleb128 0x31
 12221 04e5 13       		.uleb128 0x13
 12222 04e6 11       		.uleb128 0x11
 12223 04e7 01       		.uleb128 0x1
 12224 04e8 12       		.uleb128 0x12
 12225 04e9 01       		.uleb128 0x1
 12226 04ea 40       		.uleb128 0x40
 12227 04eb 06       		.uleb128 0x6
 12228 04ec 9742     		.uleb128 0x2117
 12229 04ee 0C       		.uleb128 0xc
 12230 04ef 01       		.uleb128 0x1
 12231 04f0 13       		.uleb128 0x13
 12232 04f1 00       		.byte	0
 12233 04f2 00       		.byte	0
 12234 04f3 5E       		.uleb128 0x5e
 12235 04f4 2E       		.uleb128 0x2e
 12236 04f5 00       		.byte	0
 12237 04f6 3F       		.uleb128 0x3f
 12238 04f7 0C       		.uleb128 0xc
 12239 04f8 3C       		.uleb128 0x3c
 12240 04f9 0C       		.uleb128 0xc
 12241 04fa 8740     		.uleb128 0x2007
 12242 04fc 0E       		.uleb128 0xe
 12243 04fd 03       		.uleb128 0x3
 12244 04fe 0E       		.uleb128 0xe
 12245 04ff 3A       		.uleb128 0x3a
 12246 0500 0B       		.uleb128 0xb
 12247 0501 3B       		.uleb128 0x3b
 12248 0502 05       		.uleb128 0x5
 12249 0503 00       		.byte	0
 12250 0504 00       		.byte	0
 12251 0505 5F       		.uleb128 0x5f
 12252 0506 2E       		.uleb128 0x2e
 12253 0507 00       		.byte	0
 12254 0508 3F       		.uleb128 0x3f
ARM GAS  C:\Users\EBANO_~1\AppData\Local\Temp\cc2nkIni.s 			page 245


 12255 0509 0C       		.uleb128 0xc
 12256 050a 3C       		.uleb128 0x3c
 12257 050b 0C       		.uleb128 0xc
 12258 050c 8740     		.uleb128 0x2007
 12259 050e 0E       		.uleb128 0xe
 12260 050f 03       		.uleb128 0x3
 12261 0510 0E       		.uleb128 0xe
 12262 0511 3A       		.uleb128 0x3a
 12263 0512 0B       		.uleb128 0xb
 12264 0513 3B       		.uleb128 0x3b
 12265 0514 0B       		.uleb128 0xb
 12266 0515 00       		.byte	0
 12267 0516 00       		.byte	0
 12268 0517 60       		.uleb128 0x60
 12269 0518 2E       		.uleb128 0x2e
 12270 0519 00       		.byte	0
 12271 051a 3F       		.uleb128 0x3f
 12272 051b 0C       		.uleb128 0xc
 12273 051c 3C       		.uleb128 0x3c
 12274 051d 0C       		.uleb128 0xc
 12275 051e 8740     		.uleb128 0x2007
 12276 0520 0E       		.uleb128 0xe
 12277 0521 03       		.uleb128 0x3
 12278 0522 0E       		.uleb128 0xe
 12279 0523 3A       		.uleb128 0x3a
 12280 0524 0B       		.uleb128 0xb
 12281 0525 3B       		.uleb128 0x3b
 12282 0526 0B       		.uleb128 0xb
 12283 0527 8740     		.uleb128 0x2007
 12284 0529 0E       		.uleb128 0xe
 12285 052a 00       		.byte	0
 12286 052b 00       		.byte	0
 12287 052c 00       		.byte	0
 12288              		.section	.debug_loc,"",%progbits
 12289              	.Ldebug_loc0:
 12290              	.LLST121:
 12291 0000 00000000 		.4byte	.LFB66
 12292 0004 02000000 		.4byte	.LCFI39
 12293 0008 0200     		.2byte	0x2
 12294 000a 7D       		.byte	0x7d
 12295 000b 00       		.sleb128 0
 12296 000c 02000000 		.4byte	.LCFI39
 12297 0010 06000000 		.4byte	.LCFI40
 12298 0014 0200     		.2byte	0x2
 12299 0016 7D       		.byte	0x7d
 12300 0017 08       		.sleb128 8
 12301 0018 06000000 		.4byte	.LCFI40
 12302 001c 38000000 		.4byte	.LFE66
 12303 0020 0200     		.2byte	0x2
 12304 0022 7D       		.byte	0x7d
 12305 0023 20       		.sleb128 32
 12306 0024 00000000 		.4byte	0
 12307 0028 00000000 		.4byte	0
 12308              	.LLST122:
 12309 002c 00000000 		.4byte	.LVL352
 12310 0030 22000000 		.4byte	.LVL353
 12311 0034 0100     		.2byte	0x1
ARM GAS  C:\Users\EBANO_~1\AppData\Local\Temp\cc2nkIni.s 			page 246


 12312 0036 50       		.byte	0x50
 12313 0037 22000000 		.4byte	.LVL353
 12314 003b 38000000 		.4byte	.LFE66
 12315 003f 0400     		.2byte	0x4
 12316 0041 F3       		.byte	0xf3
 12317 0042 01       		.uleb128 0x1
 12318 0043 50       		.byte	0x50
 12319 0044 9F       		.byte	0x9f
 12320 0045 00000000 		.4byte	0
 12321 0049 00000000 		.4byte	0
 12322              	.LLST123:
 12323 004d 00000000 		.4byte	.LVL352
 12324 0051 27000000 		.4byte	.LVL354-1
 12325 0055 0100     		.2byte	0x1
 12326 0057 51       		.byte	0x51
 12327 0058 27000000 		.4byte	.LVL354-1
 12328 005c 2E000000 		.4byte	.LVL355
 12329 0060 0100     		.2byte	0x1
 12330 0062 54       		.byte	0x54
 12331 0063 2E000000 		.4byte	.LVL355
 12332 0067 38000000 		.4byte	.LFE66
 12333 006b 0400     		.2byte	0x4
 12334 006d F3       		.byte	0xf3
 12335 006e 01       		.uleb128 0x1
 12336 006f 51       		.byte	0x51
 12337 0070 9F       		.byte	0x9f
 12338 0071 00000000 		.4byte	0
 12339 0075 00000000 		.4byte	0
 12340              	.LLST117:
 12341 0079 00000000 		.4byte	.LVL347
 12342 007d 02000000 		.4byte	.LVL348
 12343 0081 0100     		.2byte	0x1
 12344 0083 50       		.byte	0x50
 12345 0084 02000000 		.4byte	.LVL348
 12346 0088 28000000 		.4byte	.LFE65
 12347 008c 0400     		.2byte	0x4
 12348 008e F3       		.byte	0xf3
 12349 008f 01       		.uleb128 0x1
 12350 0090 50       		.byte	0x50
 12351 0091 9F       		.byte	0x9f
 12352 0092 00000000 		.4byte	0
 12353 0096 00000000 		.4byte	0
 12354              	.LLST118:
 12355 009a 00000000 		.4byte	.LVL347
 12356 009e 12000000 		.4byte	.LVL351
 12357 00a2 0100     		.2byte	0x1
 12358 00a4 51       		.byte	0x51
 12359 00a5 12000000 		.4byte	.LVL351
 12360 00a9 28000000 		.4byte	.LFE65
 12361 00ad 0400     		.2byte	0x4
 12362 00af F3       		.byte	0xf3
 12363 00b0 01       		.uleb128 0x1
 12364 00b1 51       		.byte	0x51
 12365 00b2 9F       		.byte	0x9f
 12366 00b3 00000000 		.4byte	0
 12367 00b7 00000000 		.4byte	0
 12368              	.LLST119:
ARM GAS  C:\Users\EBANO_~1\AppData\Local\Temp\cc2nkIni.s 			page 247


 12369 00bb 00000000 		.4byte	.LVL347
 12370 00bf 0C000000 		.4byte	.LVL350
 12371 00c3 0100     		.2byte	0x1
 12372 00c5 52       		.byte	0x52
 12373 00c6 0C000000 		.4byte	.LVL350
 12374 00ca 28000000 		.4byte	.LFE65
 12375 00ce 0400     		.2byte	0x4
 12376 00d0 F3       		.byte	0xf3
 12377 00d1 01       		.uleb128 0x1
 12378 00d2 52       		.byte	0x52
 12379 00d3 9F       		.byte	0x9f
 12380 00d4 00000000 		.4byte	0
 12381 00d8 00000000 		.4byte	0
 12382              	.LLST120:
 12383 00dc 00000000 		.4byte	.LVL347
 12384 00e0 0A000000 		.4byte	.LVL349
 12385 00e4 0200     		.2byte	0x2
 12386 00e6 30       		.byte	0x30
 12387 00e7 9F       		.byte	0x9f
 12388 00e8 00000000 		.4byte	0
 12389 00ec 00000000 		.4byte	0
 12390              	.LLST112:
 12391 00f0 00000000 		.4byte	.LFB64
 12392 00f4 02000000 		.4byte	.LCFI37
 12393 00f8 0200     		.2byte	0x2
 12394 00fa 7D       		.byte	0x7d
 12395 00fb 00       		.sleb128 0
 12396 00fc 02000000 		.4byte	.LCFI37
 12397 0100 26000000 		.4byte	.LCFI38
 12398 0104 0200     		.2byte	0x2
 12399 0106 7D       		.byte	0x7d
 12400 0107 14       		.sleb128 20
 12401 0108 26000000 		.4byte	.LCFI38
 12402 010c 50000000 		.4byte	.LFE64
 12403 0110 0200     		.2byte	0x2
 12404 0112 7D       		.byte	0x7d
 12405 0113 20       		.sleb128 32
 12406 0114 00000000 		.4byte	0
 12407 0118 00000000 		.4byte	0
 12408              	.LLST113:
 12409 011c 00000000 		.4byte	.LVL338
 12410 0120 08000000 		.4byte	.LVL340
 12411 0124 0100     		.2byte	0x1
 12412 0126 50       		.byte	0x50
 12413 0127 08000000 		.4byte	.LVL340
 12414 012b 46000000 		.4byte	.LVL345
 12415 012f 0100     		.2byte	0x1
 12416 0131 54       		.byte	0x54
 12417 0132 46000000 		.4byte	.LVL345
 12418 0136 50000000 		.4byte	.LFE64
 12419 013a 0400     		.2byte	0x4
 12420 013c F3       		.byte	0xf3
 12421 013d 01       		.uleb128 0x1
 12422 013e 50       		.byte	0x50
 12423 013f 9F       		.byte	0x9f
 12424 0140 00000000 		.4byte	0
 12425 0144 00000000 		.4byte	0
ARM GAS  C:\Users\EBANO_~1\AppData\Local\Temp\cc2nkIni.s 			page 248


 12426              	.LLST114:
 12427 0148 06000000 		.4byte	.LVL339
 12428 014c 3A000000 		.4byte	.LVL343
 12429 0150 0200     		.2byte	0x2
 12430 0152 30       		.byte	0x30
 12431 0153 9F       		.byte	0x9f
 12432 0154 3A000000 		.4byte	.LVL343
 12433 0158 43000000 		.4byte	.LVL344-1
 12434 015c 0100     		.2byte	0x1
 12435 015e 51       		.byte	0x51
 12436 015f 00000000 		.4byte	0
 12437 0163 00000000 		.4byte	0
 12438              	.LLST115:
 12439 0167 10000000 		.4byte	.LVL341
 12440 016b 46000000 		.4byte	.LVL346
 12441 016f 0100     		.2byte	0x1
 12442 0171 55       		.byte	0x55
 12443 0172 00000000 		.4byte	0
 12444 0176 00000000 		.4byte	0
 12445              	.LLST116:
 12446 017a 06000000 		.4byte	.LVL339
 12447 017e 08000000 		.4byte	.LVL340
 12448 0182 0200     		.2byte	0x2
 12449 0184 70       		.byte	0x70
 12450 0185 01       		.sleb128 1
 12451 0186 08000000 		.4byte	.LVL340
 12452 018a 35000000 		.4byte	.LVL342-1
 12453 018e 0200     		.2byte	0x2
 12454 0190 74       		.byte	0x74
 12455 0191 01       		.sleb128 1
 12456 0192 00000000 		.4byte	0
 12457 0196 00000000 		.4byte	0
 12458              	.LLST80:
 12459 019a 00000000 		.4byte	.LFB61
 12460 019e 02000000 		.4byte	.LCFI31
 12461 01a2 0200     		.2byte	0x2
 12462 01a4 7D       		.byte	0x7d
 12463 01a5 00       		.sleb128 0
 12464 01a6 02000000 		.4byte	.LCFI31
 12465 01aa 0C000000 		.4byte	.LCFI32
 12466 01ae 0200     		.2byte	0x2
 12467 01b0 7D       		.byte	0x7d
 12468 01b1 14       		.sleb128 20
 12469 01b2 0C000000 		.4byte	.LCFI32
 12470 01b6 0E000000 		.4byte	.LCFI33
 12471 01ba 0200     		.2byte	0x2
 12472 01bc 7D       		.byte	0x7d
 12473 01bd 24       		.sleb128 36
 12474 01be 0E000000 		.4byte	.LCFI33
 12475 01c2 08020000 		.4byte	.LFE61
 12476 01c6 0300     		.2byte	0x3
 12477 01c8 7D       		.byte	0x7d
 12478 01c9 D000     		.sleb128 80
 12479 01cb 00000000 		.4byte	0
 12480 01cf 00000000 		.4byte	0
 12481              	.LLST81:
 12482 01d3 00000000 		.4byte	.LVL257
ARM GAS  C:\Users\EBANO_~1\AppData\Local\Temp\cc2nkIni.s 			page 249


 12483 01d7 18000000 		.4byte	.LVL259
 12484 01db 0100     		.2byte	0x1
 12485 01dd 50       		.byte	0x50
 12486 01de 18000000 		.4byte	.LVL259
 12487 01e2 6C000000 		.4byte	.LVL267
 12488 01e6 0100     		.2byte	0x1
 12489 01e8 54       		.byte	0x54
 12490 01e9 6C000000 		.4byte	.LVL267
 12491 01ed 14010000 		.4byte	.LVL283
 12492 01f1 0400     		.2byte	0x4
 12493 01f3 F3       		.byte	0xf3
 12494 01f4 01       		.uleb128 0x1
 12495 01f5 50       		.byte	0x50
 12496 01f6 9F       		.byte	0x9f
 12497 01f7 14010000 		.4byte	.LVL283
 12498 01fb 20010000 		.4byte	.LVL285
 12499 01ff 0100     		.2byte	0x1
 12500 0201 54       		.byte	0x54
 12501 0202 20010000 		.4byte	.LVL285
 12502 0206 08020000 		.4byte	.LFE61
 12503 020a 0400     		.2byte	0x4
 12504 020c F3       		.byte	0xf3
 12505 020d 01       		.uleb128 0x1
 12506 020e 50       		.byte	0x50
 12507 020f 9F       		.byte	0x9f
 12508 0210 00000000 		.4byte	0
 12509 0214 00000000 		.4byte	0
 12510              	.LLST82:
 12511 0218 00000000 		.4byte	.LVL257
 12512 021c 14000000 		.4byte	.LVL258
 12513 0220 0100     		.2byte	0x1
 12514 0222 51       		.byte	0x51
 12515 0223 14000000 		.4byte	.LVL258
 12516 0227 08020000 		.4byte	.LFE61
 12517 022b 0200     		.2byte	0x2
 12518 022d 91       		.byte	0x91
 12519 022e 40       		.sleb128 -64
 12520 022f 00000000 		.4byte	0
 12521 0233 00000000 		.4byte	0
 12522              	.LLST83:
 12523 0237 00000000 		.4byte	.LVL257
 12524 023b 1A000000 		.4byte	.LVL260
 12525 023f 0100     		.2byte	0x1
 12526 0241 52       		.byte	0x52
 12527 0242 1A000000 		.4byte	.LVL260
 12528 0246 08010000 		.4byte	.LVL282
 12529 024a 0100     		.2byte	0x1
 12530 024c 5B       		.byte	0x5b
 12531 024d 08010000 		.4byte	.LVL282
 12532 0251 14010000 		.4byte	.LVL283
 12533 0255 0400     		.2byte	0x4
 12534 0257 F3       		.byte	0xf3
 12535 0258 01       		.uleb128 0x1
 12536 0259 52       		.byte	0x52
 12537 025a 9F       		.byte	0x9f
 12538 025b 14010000 		.4byte	.LVL283
 12539 025f 08020000 		.4byte	.LFE61
ARM GAS  C:\Users\EBANO_~1\AppData\Local\Temp\cc2nkIni.s 			page 250


 12540 0263 0100     		.2byte	0x1
 12541 0265 5B       		.byte	0x5b
 12542 0266 00000000 		.4byte	0
 12543 026a 00000000 		.4byte	0
 12544              	.LLST84:
 12545 026e 00000000 		.4byte	.LVL257
 12546 0272 1F000000 		.4byte	.LVL261-1
 12547 0276 0100     		.2byte	0x1
 12548 0278 53       		.byte	0x53
 12549 0279 1F000000 		.4byte	.LVL261-1
 12550 027d 7C000000 		.4byte	.LVL269
 12551 0281 0100     		.2byte	0x1
 12552 0283 56       		.byte	0x56
 12553 0284 7C000000 		.4byte	.LVL269
 12554 0288 14010000 		.4byte	.LVL283
 12555 028c 0400     		.2byte	0x4
 12556 028e F3       		.byte	0xf3
 12557 028f 01       		.uleb128 0x1
 12558 0290 53       		.byte	0x53
 12559 0291 9F       		.byte	0x9f
 12560 0292 14010000 		.4byte	.LVL283
 12561 0296 20010000 		.4byte	.LVL285
 12562 029a 0100     		.2byte	0x1
 12563 029c 56       		.byte	0x56
 12564 029d 20010000 		.4byte	.LVL285
 12565 02a1 2A010000 		.4byte	.LVL286
 12566 02a5 0400     		.2byte	0x4
 12567 02a7 F3       		.byte	0xf3
 12568 02a8 01       		.uleb128 0x1
 12569 02a9 53       		.byte	0x53
 12570 02aa 9F       		.byte	0x9f
 12571 02ab 2A010000 		.4byte	.LVL286
 12572 02af 42010000 		.4byte	.LVL289
 12573 02b3 0100     		.2byte	0x1
 12574 02b5 56       		.byte	0x56
 12575 02b6 42010000 		.4byte	.LVL289
 12576 02ba 08020000 		.4byte	.LFE61
 12577 02be 0400     		.2byte	0x4
 12578 02c0 F3       		.byte	0xf3
 12579 02c1 01       		.uleb128 0x1
 12580 02c2 53       		.byte	0x53
 12581 02c3 9F       		.byte	0x9f
 12582 02c4 00000000 		.4byte	0
 12583 02c8 00000000 		.4byte	0
 12584              	.LLST85:
 12585 02cc 00000000 		.4byte	.LVL257
 12586 02d0 06010000 		.4byte	.LVL281
 12587 02d4 0200     		.2byte	0x2
 12588 02d6 30       		.byte	0x30
 12589 02d7 9F       		.byte	0x9f
 12590 02d8 14010000 		.4byte	.LVL283
 12591 02dc AA010000 		.4byte	.LVL299
 12592 02e0 0200     		.2byte	0x2
 12593 02e2 30       		.byte	0x30
 12594 02e3 9F       		.byte	0x9f
 12595 02e4 AA010000 		.4byte	.LVL299
 12596 02e8 B2010000 		.4byte	.LVL300
ARM GAS  C:\Users\EBANO_~1\AppData\Local\Temp\cc2nkIni.s 			page 251


 12597 02ec 0100     		.2byte	0x1
 12598 02ee 56       		.byte	0x56
 12599 02ef BA010000 		.4byte	.LVL301
 12600 02f3 E6010000 		.4byte	.LVL305
 12601 02f7 0100     		.2byte	0x1
 12602 02f9 56       		.byte	0x56
 12603 02fa E6010000 		.4byte	.LVL305
 12604 02fe F6010000 		.4byte	.LVL309
 12605 0302 0200     		.2byte	0x2
 12606 0304 30       		.byte	0x30
 12607 0305 9F       		.byte	0x9f
 12608 0306 F6010000 		.4byte	.LVL309
 12609 030a 08020000 		.4byte	.LFE61
 12610 030e 0100     		.2byte	0x1
 12611 0310 56       		.byte	0x56
 12612 0311 00000000 		.4byte	0
 12613 0315 00000000 		.4byte	0
 12614              	.LLST86:
 12615 0319 00000000 		.4byte	.LVL257
 12616 031d EA000000 		.4byte	.LVL280
 12617 0321 0200     		.2byte	0x2
 12618 0323 30       		.byte	0x30
 12619 0324 9F       		.byte	0x9f
 12620 0325 14010000 		.4byte	.LVL283
 12621 0329 20010000 		.4byte	.LVL285
 12622 032d 0200     		.2byte	0x2
 12623 032f 30       		.byte	0x30
 12624 0330 9F       		.byte	0x9f
 12625 0331 2A010000 		.4byte	.LVL286
 12626 0335 92010000 		.4byte	.LVL296
 12627 0339 0200     		.2byte	0x2
 12628 033b 30       		.byte	0x30
 12629 033c 9F       		.byte	0x9f
 12630 033d E6010000 		.4byte	.LVL305
 12631 0341 F6010000 		.4byte	.LVL309
 12632 0345 0200     		.2byte	0x2
 12633 0347 30       		.byte	0x30
 12634 0348 9F       		.byte	0x9f
 12635 0349 00000000 		.4byte	0
 12636 034d 00000000 		.4byte	0
 12637              	.LLST87:
 12638 0351 00000000 		.4byte	.LVL257
 12639 0355 EA000000 		.4byte	.LVL280
 12640 0359 0200     		.2byte	0x2
 12641 035b 30       		.byte	0x30
 12642 035c 9F       		.byte	0x9f
 12643 035d EA000000 		.4byte	.LVL280
 12644 0361 06010000 		.4byte	.LVL281
 12645 0365 0300     		.2byte	0x3
 12646 0367 91       		.byte	0x91
 12647 0368 B87F     		.sleb128 -72
 12648 036a 14010000 		.4byte	.LVL283
 12649 036e 20010000 		.4byte	.LVL285
 12650 0372 0200     		.2byte	0x2
 12651 0374 31       		.byte	0x31
 12652 0375 9F       		.byte	0x9f
 12653 0376 2A010000 		.4byte	.LVL286
ARM GAS  C:\Users\EBANO_~1\AppData\Local\Temp\cc2nkIni.s 			page 252


 12654 037a 92010000 		.4byte	.LVL296
 12655 037e 0200     		.2byte	0x2
 12656 0380 30       		.byte	0x30
 12657 0381 9F       		.byte	0x9f
 12658 0382 92010000 		.4byte	.LVL296
 12659 0386 E6010000 		.4byte	.LVL305
 12660 038a 0300     		.2byte	0x3
 12661 038c 91       		.byte	0x91
 12662 038d B87F     		.sleb128 -72
 12663 038f E6010000 		.4byte	.LVL305
 12664 0393 F6010000 		.4byte	.LVL309
 12665 0397 0200     		.2byte	0x2
 12666 0399 30       		.byte	0x30
 12667 039a 9F       		.byte	0x9f
 12668 039b F6010000 		.4byte	.LVL309
 12669 039f 08020000 		.4byte	.LFE61
 12670 03a3 0300     		.2byte	0x3
 12671 03a5 91       		.byte	0x91
 12672 03a6 B87F     		.sleb128 -72
 12673 03a8 00000000 		.4byte	0
 12674 03ac 00000000 		.4byte	0
 12675              	.LLST88:
 12676 03b0 20000000 		.4byte	.LVL261
 12677 03b4 62000000 		.4byte	.LVL265
 12678 03b8 0200     		.2byte	0x2
 12679 03ba 30       		.byte	0x30
 12680 03bb 9F       		.byte	0x9f
 12681 03bc 62000000 		.4byte	.LVL265
 12682 03c0 82000000 		.4byte	.LVL271
 12683 03c4 0100     		.2byte	0x1
 12684 03c6 50       		.byte	0x50
 12685 03c7 82000000 		.4byte	.LVL271
 12686 03cb 14010000 		.4byte	.LVL283
 12687 03cf 0300     		.2byte	0x3
 12688 03d1 91       		.byte	0x91
 12689 03d2 BC7F     		.sleb128 -68
 12690 03d4 14010000 		.4byte	.LVL283
 12691 03d8 20010000 		.4byte	.LVL285
 12692 03dc 0200     		.2byte	0x2
 12693 03de 30       		.byte	0x30
 12694 03df 9F       		.byte	0x9f
 12695 03e0 20010000 		.4byte	.LVL285
 12696 03e4 2A010000 		.4byte	.LVL286
 12697 03e8 0300     		.2byte	0x3
 12698 03ea 91       		.byte	0x91
 12699 03eb BC7F     		.sleb128 -68
 12700 03ed 2A010000 		.4byte	.LVL286
 12701 03f1 42010000 		.4byte	.LVL289
 12702 03f5 0100     		.2byte	0x1
 12703 03f7 50       		.byte	0x50
 12704 03f8 42010000 		.4byte	.LVL289
 12705 03fc 08020000 		.4byte	.LFE61
 12706 0400 0300     		.2byte	0x3
 12707 0402 91       		.byte	0x91
 12708 0403 BC7F     		.sleb128 -68
 12709 0405 00000000 		.4byte	0
 12710 0409 00000000 		.4byte	0
ARM GAS  C:\Users\EBANO_~1\AppData\Local\Temp\cc2nkIni.s 			page 253


 12711              	.LLST101:
 12712 040d 92010000 		.4byte	.LVL296
 12713 0411 AA010000 		.4byte	.LVL299
 12714 0415 0200     		.2byte	0x2
 12715 0417 30       		.byte	0x30
 12716 0418 9F       		.byte	0x9f
 12717 0419 00000000 		.4byte	0
 12718 041d 00000000 		.4byte	0
 12719              	.LLST102:
 12720 0421 A2010000 		.4byte	.LVL298
 12721 0425 E6010000 		.4byte	.LVL305
 12722 0429 0100     		.2byte	0x1
 12723 042b 54       		.byte	0x54
 12724 042c F6010000 		.4byte	.LVL309
 12725 0430 08020000 		.4byte	.LFE61
 12726 0434 0100     		.2byte	0x1
 12727 0436 54       		.byte	0x54
 12728 0437 00000000 		.4byte	0
 12729 043b 00000000 		.4byte	0
 12730              	.LLST89:
 12731 043f 68000000 		.4byte	.LVL266
 12732 0443 EA000000 		.4byte	.LVL280
 12733 0447 0600     		.2byte	0x6
 12734 0449 03       		.byte	0x3
 12735 044a D0000000 		.4byte	NvmCtx+208
 12736 044e 9F       		.byte	0x9f
 12737 044f 2A010000 		.4byte	.LVL286
 12738 0453 92010000 		.4byte	.LVL296
 12739 0457 0600     		.2byte	0x6
 12740 0459 03       		.byte	0x3
 12741 045a D0000000 		.4byte	NvmCtx+208
 12742 045e 9F       		.byte	0x9f
 12743 045f E6010000 		.4byte	.LVL305
 12744 0463 F6010000 		.4byte	.LVL309
 12745 0467 0600     		.2byte	0x6
 12746 0469 03       		.byte	0x3
 12747 046a D0000000 		.4byte	NvmCtx+208
 12748 046e 9F       		.byte	0x9f
 12749 046f 00000000 		.4byte	0
 12750 0473 00000000 		.4byte	0
 12751              	.LLST90:
 12752 0477 68000000 		.4byte	.LVL266
 12753 047b EA000000 		.4byte	.LVL280
 12754 047f 0600     		.2byte	0x6
 12755 0481 03       		.byte	0x3
 12756 0482 00000000 		.4byte	NvmCtx
 12757 0486 9F       		.byte	0x9f
 12758 0487 2A010000 		.4byte	.LVL286
 12759 048b 92010000 		.4byte	.LVL296
 12760 048f 0600     		.2byte	0x6
 12761 0491 03       		.byte	0x3
 12762 0492 00000000 		.4byte	NvmCtx
 12763 0496 9F       		.byte	0x9f
 12764 0497 E6010000 		.4byte	.LVL305
 12765 049b F6010000 		.4byte	.LVL309
 12766 049f 0600     		.2byte	0x6
 12767 04a1 03       		.byte	0x3
ARM GAS  C:\Users\EBANO_~1\AppData\Local\Temp\cc2nkIni.s 			page 254


 12768 04a2 00000000 		.4byte	NvmCtx
 12769 04a6 9F       		.byte	0x9f
 12770 04a7 00000000 		.4byte	0
 12771 04ab 00000000 		.4byte	0
 12772              	.LLST91:
 12773 04af 68000000 		.4byte	.LVL266
 12774 04b3 7E000000 		.4byte	.LVL270
 12775 04b7 0100     		.2byte	0x1
 12776 04b9 58       		.byte	0x58
 12777 04ba 7E000000 		.4byte	.LVL270
 12778 04be EA000000 		.4byte	.LVL280
 12779 04c2 0600     		.2byte	0x6
 12780 04c4 03       		.byte	0x3
 12781 04c5 C0000000 		.4byte	NvmCtx+192
 12782 04c9 9F       		.byte	0x9f
 12783 04ca 2A010000 		.4byte	.LVL286
 12784 04ce 3C010000 		.4byte	.LVL288
 12785 04d2 0100     		.2byte	0x1
 12786 04d4 58       		.byte	0x58
 12787 04d5 3C010000 		.4byte	.LVL288
 12788 04d9 42010000 		.4byte	.LVL289
 12789 04dd 0100     		.2byte	0x1
 12790 04df 53       		.byte	0x53
 12791 04e0 42010000 		.4byte	.LVL289
 12792 04e4 92010000 		.4byte	.LVL296
 12793 04e8 0200     		.2byte	0x2
 12794 04ea 91       		.byte	0x91
 12795 04eb 44       		.sleb128 -60
 12796 04ec E6010000 		.4byte	.LVL305
 12797 04f0 F6010000 		.4byte	.LVL309
 12798 04f4 0200     		.2byte	0x2
 12799 04f6 91       		.byte	0x91
 12800 04f7 44       		.sleb128 -60
 12801 04f8 00000000 		.4byte	0
 12802 04fc 00000000 		.4byte	0
 12803              	.LLST92:
 12804 0500 68000000 		.4byte	.LVL266
 12805 0504 EA000000 		.4byte	.LVL280
 12806 0508 0600     		.2byte	0x6
 12807 050a F2       		.byte	0xf2
 12808 050b 93210000 		.4byte	.Ldebug_info0+8595
 12809 050f 00       		.sleb128 0
 12810 0510 2A010000 		.4byte	.LVL286
 12811 0514 92010000 		.4byte	.LVL296
 12812 0518 0600     		.2byte	0x6
 12813 051a F2       		.byte	0xf2
 12814 051b 93210000 		.4byte	.Ldebug_info0+8595
 12815 051f 00       		.sleb128 0
 12816 0520 E6010000 		.4byte	.LVL305
 12817 0524 F6010000 		.4byte	.LVL309
 12818 0528 0600     		.2byte	0x6
 12819 052a F2       		.byte	0xf2
 12820 052b 93210000 		.4byte	.Ldebug_info0+8595
 12821 052f 00       		.sleb128 0
 12822 0530 00000000 		.4byte	0
 12823 0534 00000000 		.4byte	0
 12824              	.LLST93:
ARM GAS  C:\Users\EBANO_~1\AppData\Local\Temp\cc2nkIni.s 			page 255


 12825 0538 68000000 		.4byte	.LVL266
 12826 053c 8E000000 		.4byte	.LVL273
 12827 0540 0300     		.2byte	0x3
 12828 0542 91       		.byte	0x91
 12829 0543 48       		.sleb128 -56
 12830 0544 9F       		.byte	0x9f
 12831 0545 8E000000 		.4byte	.LVL273
 12832 0549 90000000 		.4byte	.LVL274
 12833 054d 0100     		.2byte	0x1
 12834 054f 52       		.byte	0x52
 12835 0550 90000000 		.4byte	.LVL274
 12836 0554 EA000000 		.4byte	.LVL280
 12837 0558 0300     		.2byte	0x3
 12838 055a 91       		.byte	0x91
 12839 055b 48       		.sleb128 -56
 12840 055c 9F       		.byte	0x9f
 12841 055d 2A010000 		.4byte	.LVL286
 12842 0561 8A010000 		.4byte	.LVL295
 12843 0565 0300     		.2byte	0x3
 12844 0567 91       		.byte	0x91
 12845 0568 48       		.sleb128 -56
 12846 0569 9F       		.byte	0x9f
 12847 056a 8A010000 		.4byte	.LVL295
 12848 056e 92010000 		.4byte	.LVL296
 12849 0572 0100     		.2byte	0x1
 12850 0574 52       		.byte	0x52
 12851 0575 E6010000 		.4byte	.LVL305
 12852 0579 F6010000 		.4byte	.LVL309
 12853 057d 0300     		.2byte	0x3
 12854 057f 91       		.byte	0x91
 12855 0580 48       		.sleb128 -56
 12856 0581 9F       		.byte	0x9f
 12857 0582 00000000 		.4byte	0
 12858 0586 00000000 		.4byte	0
 12859              	.LLST94:
 12860 058a 68000000 		.4byte	.LVL266
 12861 058e EA000000 		.4byte	.LVL280
 12862 0592 0300     		.2byte	0x3
 12863 0594 91       		.byte	0x91
 12864 0595 B47F     		.sleb128 -76
 12865 0597 2A010000 		.4byte	.LVL286
 12866 059b 92010000 		.4byte	.LVL296
 12867 059f 0300     		.2byte	0x3
 12868 05a1 91       		.byte	0x91
 12869 05a2 B47F     		.sleb128 -76
 12870 05a4 E6010000 		.4byte	.LVL305
 12871 05a8 F6010000 		.4byte	.LVL309
 12872 05ac 0300     		.2byte	0x3
 12873 05ae 91       		.byte	0x91
 12874 05af B47F     		.sleb128 -76
 12875 05b1 00000000 		.4byte	0
 12876 05b5 00000000 		.4byte	0
 12877              	.LLST95:
 12878 05b9 68000000 		.4byte	.LVL266
 12879 05bd 6C000000 		.4byte	.LVL267
 12880 05c1 0200     		.2byte	0x2
 12881 05c3 74       		.byte	0x74
ARM GAS  C:\Users\EBANO_~1\AppData\Local\Temp\cc2nkIni.s 			page 256


 12882 05c4 09       		.sleb128 9
 12883 05c5 6C000000 		.4byte	.LVL267
 12884 05c9 76000000 		.4byte	.LVL268
 12885 05cd 0100     		.2byte	0x1
 12886 05cf 53       		.byte	0x53
 12887 05d0 76000000 		.4byte	.LVL268
 12888 05d4 82000000 		.4byte	.LVL271
 12889 05d8 0300     		.2byte	0x3
 12890 05da 91       		.byte	0x91
 12891 05db B87F     		.sleb128 -72
 12892 05dd 82000000 		.4byte	.LVL271
 12893 05e1 EA000000 		.4byte	.LVL280
 12894 05e5 0400     		.2byte	0x4
 12895 05e7 7A       		.byte	0x7a
 12896 05e8 B07E     		.sleb128 -208
 12897 05ea 9F       		.byte	0x9f
 12898 05eb 2A010000 		.4byte	.LVL286
 12899 05ef 2C010000 		.4byte	.LVL287
 12900 05f3 0100     		.2byte	0x1
 12901 05f5 53       		.byte	0x53
 12902 05f6 2C010000 		.4byte	.LVL287
 12903 05fa 42010000 		.4byte	.LVL289
 12904 05fe 0500     		.2byte	0x5
 12905 0600 F3       		.byte	0xf3
 12906 0601 01       		.uleb128 0x1
 12907 0602 50       		.byte	0x50
 12908 0603 23       		.byte	0x23
 12909 0604 09       		.uleb128 0x9
 12910 0605 00000000 		.4byte	0
 12911 0609 00000000 		.4byte	0
 12912              	.LLST96:
 12913 060d 68000000 		.4byte	.LVL266
 12914 0611 82000000 		.4byte	.LVL271
 12915 0615 0200     		.2byte	0x2
 12916 0617 30       		.byte	0x30
 12917 0618 9F       		.byte	0x9f
 12918 0619 82000000 		.4byte	.LVL271
 12919 061d 86000000 		.4byte	.LVL272
 12920 0621 0100     		.2byte	0x1
 12921 0623 59       		.byte	0x59
 12922 0624 86000000 		.4byte	.LVL272
 12923 0628 90000000 		.4byte	.LVL274
 12924 062c 0100     		.2byte	0x1
 12925 062e 53       		.byte	0x53
 12926 062f 90000000 		.4byte	.LVL274
 12927 0633 98000000 		.4byte	.LVL276
 12928 0637 0100     		.2byte	0x1
 12929 0639 59       		.byte	0x59
 12930 063a A2000000 		.4byte	.LVL277
 12931 063e EA000000 		.4byte	.LVL280
 12932 0642 0100     		.2byte	0x1
 12933 0644 59       		.byte	0x59
 12934 0645 2A010000 		.4byte	.LVL286
 12935 0649 42010000 		.4byte	.LVL289
 12936 064d 0200     		.2byte	0x2
 12937 064f 30       		.byte	0x30
 12938 0650 9F       		.byte	0x9f
ARM GAS  C:\Users\EBANO_~1\AppData\Local\Temp\cc2nkIni.s 			page 257


 12939 0651 42010000 		.4byte	.LVL289
 12940 0655 4A010000 		.4byte	.LVL291
 12941 0659 0100     		.2byte	0x1
 12942 065b 58       		.byte	0x58
 12943 065c 54010000 		.4byte	.LVL292
 12944 0660 88010000 		.4byte	.LVL294
 12945 0664 0100     		.2byte	0x1
 12946 0666 58       		.byte	0x58
 12947 0667 88010000 		.4byte	.LVL294
 12948 066b 92010000 		.4byte	.LVL296
 12949 066f 0100     		.2byte	0x1
 12950 0671 53       		.byte	0x53
 12951 0672 E6010000 		.4byte	.LVL305
 12952 0676 F6010000 		.4byte	.LVL309
 12953 067a 0100     		.2byte	0x1
 12954 067c 58       		.byte	0x58
 12955 067d 00000000 		.4byte	0
 12956 0681 00000000 		.4byte	0
 12957              	.LLST97:
 12958 0685 68000000 		.4byte	.LVL266
 12959 0689 82000000 		.4byte	.LVL271
 12960 068d 0200     		.2byte	0x2
 12961 068f 30       		.byte	0x30
 12962 0690 9F       		.byte	0x9f
 12963 0691 82000000 		.4byte	.LVL271
 12964 0695 98000000 		.4byte	.LVL276
 12965 0699 0300     		.2byte	0x3
 12966 069b 91       		.byte	0x91
 12967 069c B87F     		.sleb128 -72
 12968 069e A2000000 		.4byte	.LVL277
 12969 06a2 EA000000 		.4byte	.LVL280
 12970 06a6 0300     		.2byte	0x3
 12971 06a8 91       		.byte	0x91
 12972 06a9 B87F     		.sleb128 -72
 12973 06ab 2A010000 		.4byte	.LVL286
 12974 06af 42010000 		.4byte	.LVL289
 12975 06b3 0200     		.2byte	0x2
 12976 06b5 30       		.byte	0x30
 12977 06b6 9F       		.byte	0x9f
 12978 06b7 42010000 		.4byte	.LVL289
 12979 06bb 4A010000 		.4byte	.LVL291
 12980 06bf 0300     		.2byte	0x3
 12981 06c1 91       		.byte	0x91
 12982 06c2 B87F     		.sleb128 -72
 12983 06c4 54010000 		.4byte	.LVL292
 12984 06c8 92010000 		.4byte	.LVL296
 12985 06cc 0300     		.2byte	0x3
 12986 06ce 91       		.byte	0x91
 12987 06cf B87F     		.sleb128 -72
 12988 06d1 E6010000 		.4byte	.LVL305
 12989 06d5 F6010000 		.4byte	.LVL309
 12990 06d9 0300     		.2byte	0x3
 12991 06db 91       		.byte	0x91
 12992 06dc B87F     		.sleb128 -72
 12993 06de 00000000 		.4byte	0
 12994 06e2 00000000 		.4byte	0
 12995              	.LLST98:
ARM GAS  C:\Users\EBANO_~1\AppData\Local\Temp\cc2nkIni.s 			page 258


 12996 06e6 68000000 		.4byte	.LVL266
 12997 06ea EA000000 		.4byte	.LVL280
 12998 06ee 0200     		.2byte	0x2
 12999 06f0 30       		.byte	0x30
 13000 06f1 9F       		.byte	0x9f
 13001 06f2 2A010000 		.4byte	.LVL286
 13002 06f6 92010000 		.4byte	.LVL296
 13003 06fa 0200     		.2byte	0x2
 13004 06fc 30       		.byte	0x30
 13005 06fd 9F       		.byte	0x9f
 13006 06fe E6010000 		.4byte	.LVL305
 13007 0702 F6010000 		.4byte	.LVL309
 13008 0706 0200     		.2byte	0x2
 13009 0708 30       		.byte	0x30
 13010 0709 9F       		.byte	0x9f
 13011 070a 00000000 		.4byte	0
 13012 070e 00000000 		.4byte	0
 13013              	.LLST100:
 13014 0712 68000000 		.4byte	.LVL266
 13015 0716 82000000 		.4byte	.LVL271
 13016 071a 0200     		.2byte	0x2
 13017 071c 30       		.byte	0x30
 13018 071d 9F       		.byte	0x9f
 13019 071e 82000000 		.4byte	.LVL271
 13020 0722 90000000 		.4byte	.LVL274
 13021 0726 0100     		.2byte	0x1
 13022 0728 57       		.byte	0x57
 13023 0729 90000000 		.4byte	.LVL274
 13024 072d 92000000 		.4byte	.LVL275
 13025 0731 0300     		.2byte	0x3
 13026 0733 74       		.byte	0x74
 13027 0734 01       		.sleb128 1
 13028 0735 9F       		.byte	0x9f
 13029 0736 92000000 		.4byte	.LVL275
 13030 073a 98000000 		.4byte	.LVL276
 13031 073e 0300     		.2byte	0x3
 13032 0740 77       		.byte	0x77
 13033 0741 01       		.sleb128 1
 13034 0742 9F       		.byte	0x9f
 13035 0743 A2000000 		.4byte	.LVL277
 13036 0747 E2000000 		.4byte	.LVL279
 13037 074b 0100     		.2byte	0x1
 13038 074d 57       		.byte	0x57
 13039 074e 2A010000 		.4byte	.LVL286
 13040 0752 42010000 		.4byte	.LVL289
 13041 0756 0200     		.2byte	0x2
 13042 0758 30       		.byte	0x30
 13043 0759 9F       		.byte	0x9f
 13044 075a 42010000 		.4byte	.LVL289
 13045 075e 44010000 		.4byte	.LVL290
 13046 0762 0300     		.2byte	0x3
 13047 0764 74       		.byte	0x74
 13048 0765 01       		.sleb128 1
 13049 0766 9F       		.byte	0x9f
 13050 0767 44010000 		.4byte	.LVL290
 13051 076b 4A010000 		.4byte	.LVL291
 13052 076f 0300     		.2byte	0x3
ARM GAS  C:\Users\EBANO_~1\AppData\Local\Temp\cc2nkIni.s 			page 259


 13053 0771 76       		.byte	0x76
 13054 0772 01       		.sleb128 1
 13055 0773 9F       		.byte	0x9f
 13056 0774 54010000 		.4byte	.LVL292
 13057 0778 92010000 		.4byte	.LVL296
 13058 077c 0100     		.2byte	0x1
 13059 077e 56       		.byte	0x56
 13060 077f E6010000 		.4byte	.LVL305
 13061 0783 F0010000 		.4byte	.LVL307
 13062 0787 0100     		.2byte	0x1
 13063 0789 56       		.byte	0x56
 13064 078a F0010000 		.4byte	.LVL307
 13065 078e F2010000 		.4byte	.LVL308
 13066 0792 0300     		.2byte	0x3
 13067 0794 76       		.byte	0x76
 13068 0795 01       		.sleb128 1
 13069 0796 9F       		.byte	0x9f
 13070 0797 00000000 		.4byte	0
 13071 079b 00000000 		.4byte	0
 13072              	.LLST78:
 13073 079f 00000000 		.4byte	.LFB60
 13074 07a3 02000000 		.4byte	.LCFI29
 13075 07a7 0200     		.2byte	0x2
 13076 07a9 7D       		.byte	0x7d
 13077 07aa 00       		.sleb128 0
 13078 07ab 02000000 		.4byte	.LCFI29
 13079 07af 06000000 		.4byte	.LCFI30
 13080 07b3 0200     		.2byte	0x2
 13081 07b5 7D       		.byte	0x7d
 13082 07b6 04       		.sleb128 4
 13083 07b7 06000000 		.4byte	.LCFI30
 13084 07bb 34000000 		.4byte	.LFE60
 13085 07bf 0200     		.2byte	0x2
 13086 07c1 7D       		.byte	0x7d
 13087 07c2 20       		.sleb128 32
 13088 07c3 00000000 		.4byte	0
 13089 07c7 00000000 		.4byte	0
 13090              	.LLST79:
 13091 07cb 00000000 		.4byte	.LVL254
 13092 07cf 26000000 		.4byte	.LVL255
 13093 07d3 0100     		.2byte	0x1
 13094 07d5 50       		.byte	0x50
 13095 07d6 26000000 		.4byte	.LVL255
 13096 07da 34000000 		.4byte	.LFE60
 13097 07de 0400     		.2byte	0x4
 13098 07e0 F3       		.byte	0xf3
 13099 07e1 01       		.uleb128 0x1
 13100 07e2 50       		.byte	0x50
 13101 07e3 9F       		.byte	0x9f
 13102 07e4 00000000 		.4byte	0
 13103 07e8 00000000 		.4byte	0
 13104              	.LLST77:
 13105 07ec 00000000 		.4byte	.LVL252
 13106 07f0 02000000 		.4byte	.LVL253
 13107 07f4 0100     		.2byte	0x1
 13108 07f6 50       		.byte	0x50
 13109 07f7 02000000 		.4byte	.LVL253
ARM GAS  C:\Users\EBANO_~1\AppData\Local\Temp\cc2nkIni.s 			page 260


 13110 07fb 04000000 		.4byte	.LFE59
 13111 07ff 0400     		.2byte	0x4
 13112 0801 F3       		.byte	0xf3
 13113 0802 01       		.uleb128 0x1
 13114 0803 50       		.byte	0x50
 13115 0804 9F       		.byte	0x9f
 13116 0805 00000000 		.4byte	0
 13117 0809 00000000 		.4byte	0
 13118              	.LLST73:
 13119 080d 00000000 		.4byte	.LFB58
 13120 0811 02000000 		.4byte	.LCFI27
 13121 0815 0200     		.2byte	0x2
 13122 0817 7D       		.byte	0x7d
 13123 0818 00       		.sleb128 0
 13124 0819 02000000 		.4byte	.LCFI27
 13125 081d 0A000000 		.4byte	.LCFI28
 13126 0821 0200     		.2byte	0x2
 13127 0823 7D       		.byte	0x7d
 13128 0824 0C       		.sleb128 12
 13129 0825 0A000000 		.4byte	.LCFI28
 13130 0829 70000000 		.4byte	.LFE58
 13131 082d 0200     		.2byte	0x2
 13132 082f 7D       		.byte	0x7d
 13133 0830 18       		.sleb128 24
 13134 0831 00000000 		.4byte	0
 13135 0835 00000000 		.4byte	0
 13136              	.LLST74:
 13137 0839 00000000 		.4byte	.LVL242
 13138 083d 0E000000 		.4byte	.LVL244
 13139 0841 0100     		.2byte	0x1
 13140 0843 50       		.byte	0x50
 13141 0844 0E000000 		.4byte	.LVL244
 13142 0848 38000000 		.4byte	.LVL249
 13143 084c 0100     		.2byte	0x1
 13144 084e 55       		.byte	0x55
 13145 084f 38000000 		.4byte	.LVL249
 13146 0853 3A000000 		.4byte	.LVL250
 13147 0857 0400     		.2byte	0x4
 13148 0859 F3       		.byte	0xf3
 13149 085a 01       		.uleb128 0x1
 13150 085b 50       		.byte	0x50
 13151 085c 9F       		.byte	0x9f
 13152 085d 3A000000 		.4byte	.LVL250
 13153 0861 70000000 		.4byte	.LFE58
 13154 0865 0100     		.2byte	0x1
 13155 0867 55       		.byte	0x55
 13156 0868 00000000 		.4byte	0
 13157 086c 00000000 		.4byte	0
 13158              	.LLST75:
 13159 0870 00000000 		.4byte	.LVL242
 13160 0874 2E000000 		.4byte	.LVL247
 13161 0878 0200     		.2byte	0x2
 13162 087a 33       		.byte	0x33
 13163 087b 9F       		.byte	0x9f
 13164 087c 2E000000 		.4byte	.LVL247
 13165 0880 36000000 		.4byte	.LVL248
 13166 0884 0200     		.2byte	0x2
ARM GAS  C:\Users\EBANO_~1\AppData\Local\Temp\cc2nkIni.s 			page 261


 13167 0886 32       		.byte	0x32
 13168 0887 9F       		.byte	0x9f
 13169 0888 3A000000 		.4byte	.LVL250
 13170 088c 4A000000 		.4byte	.LVL251
 13171 0890 0200     		.2byte	0x2
 13172 0892 33       		.byte	0x33
 13173 0893 9F       		.byte	0x9f
 13174 0894 4A000000 		.4byte	.LVL251
 13175 0898 70000000 		.4byte	.LFE58
 13176 089c 0200     		.2byte	0x2
 13177 089e 32       		.byte	0x32
 13178 089f 9F       		.byte	0x9f
 13179 08a0 00000000 		.4byte	0
 13180 08a4 00000000 		.4byte	0
 13181              	.LLST76:
 13182 08a8 06000000 		.4byte	.LVL243
 13183 08ac 28000000 		.4byte	.LVL246
 13184 08b0 0100     		.2byte	0x1
 13185 08b2 54       		.byte	0x54
 13186 08b3 28000000 		.4byte	.LVL246
 13187 08b7 2E000000 		.4byte	.LVL247
 13188 08bb 0700     		.2byte	0x7
 13189 08bd 74       		.byte	0x74
 13190 08be C095A7B4 		.sleb128 915000000
 13190      03
 13191 08c3 9F       		.byte	0x9f
 13192 08c4 3A000000 		.4byte	.LVL250
 13193 08c8 4A000000 		.4byte	.LVL251
 13194 08cc 0700     		.2byte	0x7
 13195 08ce 74       		.byte	0x74
 13196 08cf C095A7B4 		.sleb128 915000000
 13196      03
 13197 08d4 9F       		.byte	0x9f
 13198 08d5 4A000000 		.4byte	.LVL251
 13199 08d9 70000000 		.4byte	.LFE58
 13200 08dd 0100     		.2byte	0x1
 13201 08df 54       		.byte	0x54
 13202 08e0 00000000 		.4byte	0
 13203 08e4 00000000 		.4byte	0
 13204              	.LLST72:
 13205 08e8 00000000 		.4byte	.LVL240
 13206 08ec 02000000 		.4byte	.LVL241
 13207 08f0 0100     		.2byte	0x1
 13208 08f2 50       		.byte	0x50
 13209 08f3 02000000 		.4byte	.LVL241
 13210 08f7 04000000 		.4byte	.LFE57
 13211 08fb 0400     		.2byte	0x4
 13212 08fd F3       		.byte	0xf3
 13213 08fe 01       		.uleb128 0x1
 13214 08ff 50       		.byte	0x50
 13215 0900 9F       		.byte	0x9f
 13216 0901 00000000 		.4byte	0
 13217 0905 00000000 		.4byte	0
 13218              	.LLST64:
 13219 0909 00000000 		.4byte	.LFB56
 13220 090d 02000000 		.4byte	.LCFI24
 13221 0911 0200     		.2byte	0x2
ARM GAS  C:\Users\EBANO_~1\AppData\Local\Temp\cc2nkIni.s 			page 262


 13222 0913 7D       		.byte	0x7d
 13223 0914 00       		.sleb128 0
 13224 0915 02000000 		.4byte	.LCFI24
 13225 0919 06000000 		.4byte	.LCFI25
 13226 091d 0200     		.2byte	0x2
 13227 091f 7D       		.byte	0x7d
 13228 0920 14       		.sleb128 20
 13229 0921 06000000 		.4byte	.LCFI25
 13230 0925 0A000000 		.4byte	.LCFI26
 13231 0929 0200     		.2byte	0x2
 13232 092b 7D       		.byte	0x7d
 13233 092c 18       		.sleb128 24
 13234 092d 0A000000 		.4byte	.LCFI26
 13235 0931 04010000 		.4byte	.LFE56
 13236 0935 0200     		.2byte	0x2
 13237 0937 7D       		.byte	0x7d
 13238 0938 20       		.sleb128 32
 13239 0939 00000000 		.4byte	0
 13240 093d 00000000 		.4byte	0
 13241              	.LLST65:
 13242 0941 00000000 		.4byte	.LVL217
 13243 0945 18000000 		.4byte	.LVL219
 13244 0949 0100     		.2byte	0x1
 13245 094b 50       		.byte	0x50
 13246 094c 18000000 		.4byte	.LVL219
 13247 0950 46000000 		.4byte	.LVL223
 13248 0954 0400     		.2byte	0x4
 13249 0956 F3       		.byte	0xf3
 13250 0957 01       		.uleb128 0x1
 13251 0958 50       		.byte	0x50
 13252 0959 9F       		.byte	0x9f
 13253 095a 46000000 		.4byte	.LVL223
 13254 095e 4E000000 		.4byte	.LVL224
 13255 0962 0100     		.2byte	0x1
 13256 0964 50       		.byte	0x50
 13257 0965 4E000000 		.4byte	.LVL224
 13258 0969 04010000 		.4byte	.LFE56
 13259 096d 0400     		.2byte	0x4
 13260 096f F3       		.byte	0xf3
 13261 0970 01       		.uleb128 0x1
 13262 0971 50       		.byte	0x50
 13263 0972 9F       		.byte	0x9f
 13264 0973 00000000 		.4byte	0
 13265 0977 00000000 		.4byte	0
 13266              	.LLST66:
 13267 097b 12000000 		.4byte	.LVL218
 13268 097f 36000000 		.4byte	.LVL222
 13269 0983 0600     		.2byte	0x6
 13270 0985 F2       		.byte	0xf2
 13271 0986 DB240000 		.4byte	.Ldebug_info0+9435
 13272 098a 00       		.sleb128 0
 13273 098b 00000000 		.4byte	0
 13274 098f 00000000 		.4byte	0
 13275              	.LLST67:
 13276 0993 12000000 		.4byte	.LVL218
 13277 0997 18000000 		.4byte	.LVL219
 13278 099b 0200     		.2byte	0x2
ARM GAS  C:\Users\EBANO_~1\AppData\Local\Temp\cc2nkIni.s 			page 263


 13279 099d 70       		.byte	0x70
 13280 099e 04       		.sleb128 4
 13281 099f 18000000 		.4byte	.LVL219
 13282 09a3 27000000 		.4byte	.LVL220-1
 13283 09a7 0500     		.2byte	0x5
 13284 09a9 F3       		.byte	0xf3
 13285 09aa 01       		.uleb128 0x1
 13286 09ab 50       		.byte	0x50
 13287 09ac 23       		.byte	0x23
 13288 09ad 04       		.uleb128 0x4
 13289 09ae 00000000 		.4byte	0
 13290 09b2 00000000 		.4byte	0
 13291              	.LLST68:
 13292 09b6 46000000 		.4byte	.LVL223
 13293 09ba F2000000 		.4byte	.LVL239
 13294 09be 0600     		.2byte	0x6
 13295 09c0 F2       		.byte	0xf2
 13296 09c1 CF240000 		.4byte	.Ldebug_info0+9423
 13297 09c5 00       		.sleb128 0
 13298 09c6 00000000 		.4byte	0
 13299 09ca 00000000 		.4byte	0
 13300              	.LLST69:
 13301 09ce 46000000 		.4byte	.LVL223
 13302 09d2 5C000000 		.4byte	.LVL226
 13303 09d6 0200     		.2byte	0x2
 13304 09d8 30       		.byte	0x30
 13305 09d9 9F       		.byte	0x9f
 13306 09da 5C000000 		.4byte	.LVL226
 13307 09de 70000000 		.4byte	.LVL228
 13308 09e2 0700     		.2byte	0x7
 13309 09e4 76       		.byte	0x76
 13310 09e5 00       		.sleb128 0
 13311 09e6 48       		.byte	0x48
 13312 09e7 24       		.byte	0x24
 13313 09e8 30       		.byte	0x30
 13314 09e9 29       		.byte	0x29
 13315 09ea 9F       		.byte	0x9f
 13316 09eb 70000000 		.4byte	.LVL228
 13317 09ef 88000000 		.4byte	.LVL229
 13318 09f3 0100     		.2byte	0x1
 13319 09f5 57       		.byte	0x57
 13320 09f6 88000000 		.4byte	.LVL229
 13321 09fa 9C000000 		.4byte	.LVL231
 13322 09fe 0200     		.2byte	0x2
 13323 0a00 31       		.byte	0x31
 13324 0a01 9F       		.byte	0x9f
 13325 0a02 A0000000 		.4byte	.LVL232
 13326 0a06 BC000000 		.4byte	.LVL235
 13327 0a0a 0100     		.2byte	0x1
 13328 0a0c 57       		.byte	0x57
 13329 0a0d BC000000 		.4byte	.LVL235
 13330 0a11 C0000000 		.4byte	.LVL236
 13331 0a15 0700     		.2byte	0x7
 13332 0a17 76       		.byte	0x76
 13333 0a18 00       		.sleb128 0
 13334 0a19 48       		.byte	0x48
 13335 0a1a 24       		.byte	0x24
ARM GAS  C:\Users\EBANO_~1\AppData\Local\Temp\cc2nkIni.s 			page 264


 13336 0a1b 30       		.byte	0x30
 13337 0a1c 29       		.byte	0x29
 13338 0a1d 9F       		.byte	0x9f
 13339 0a1e C4000000 		.4byte	.LVL237
 13340 0a22 F2000000 		.4byte	.LVL239
 13341 0a26 0100     		.2byte	0x1
 13342 0a28 57       		.byte	0x57
 13343 0a29 00000000 		.4byte	0
 13344 0a2d 00000000 		.4byte	0
 13345              	.LLST70:
 13346 0a31 46000000 		.4byte	.LVL223
 13347 0a35 B4000000 		.4byte	.LVL234
 13348 0a39 0200     		.2byte	0x2
 13349 0a3b 30       		.byte	0x30
 13350 0a3c 9F       		.byte	0x9f
 13351 0a3d B4000000 		.4byte	.LVL234
 13352 0a41 BC000000 		.4byte	.LVL235
 13353 0a45 0200     		.2byte	0x2
 13354 0a47 31       		.byte	0x31
 13355 0a48 9F       		.byte	0x9f
 13356 0a49 BC000000 		.4byte	.LVL235
 13357 0a4d F2000000 		.4byte	.LVL239
 13358 0a51 0200     		.2byte	0x2
 13359 0a53 30       		.byte	0x30
 13360 0a54 9F       		.byte	0x9f
 13361 0a55 00000000 		.4byte	0
 13362 0a59 00000000 		.4byte	0
 13363              	.LLST71:
 13364 0a5d 46000000 		.4byte	.LVL223
 13365 0a61 4E000000 		.4byte	.LVL224
 13366 0a65 0200     		.2byte	0x2
 13367 0a67 70       		.byte	0x70
 13368 0a68 04       		.sleb128 4
 13369 0a69 4E000000 		.4byte	.LVL224
 13370 0a6d 59000000 		.4byte	.LVL225-1
 13371 0a71 0500     		.2byte	0x5
 13372 0a73 F3       		.byte	0xf3
 13373 0a74 01       		.uleb128 0x1
 13374 0a75 50       		.byte	0x50
 13375 0a76 23       		.byte	0x23
 13376 0a77 04       		.uleb128 0x4
 13377 0a78 00000000 		.4byte	0
 13378 0a7c 00000000 		.4byte	0
 13379              	.LLST60:
 13380 0a80 00000000 		.4byte	.LFB55
 13381 0a84 02000000 		.4byte	.LCFI22
 13382 0a88 0200     		.2byte	0x2
 13383 0a8a 7D       		.byte	0x7d
 13384 0a8b 00       		.sleb128 0
 13385 0a8c 02000000 		.4byte	.LCFI22
 13386 0a90 0A000000 		.4byte	.LCFI23
 13387 0a94 0200     		.2byte	0x2
 13388 0a96 7D       		.byte	0x7d
 13389 0a97 10       		.sleb128 16
 13390 0a98 0A000000 		.4byte	.LCFI23
 13391 0a9c 64000000 		.4byte	.LFE55
 13392 0aa0 0200     		.2byte	0x2
ARM GAS  C:\Users\EBANO_~1\AppData\Local\Temp\cc2nkIni.s 			page 265


 13393 0aa2 7D       		.byte	0x7d
 13394 0aa3 18       		.sleb128 24
 13395 0aa4 00000000 		.4byte	0
 13396 0aa8 00000000 		.4byte	0
 13397              	.LLST61:
 13398 0aac 00000000 		.4byte	.LVL202
 13399 0ab0 0E000000 		.4byte	.LVL204
 13400 0ab4 0100     		.2byte	0x1
 13401 0ab6 50       		.byte	0x50
 13402 0ab7 0E000000 		.4byte	.LVL204
 13403 0abb 50000000 		.4byte	.LVL213
 13404 0abf 0100     		.2byte	0x1
 13405 0ac1 54       		.byte	0x54
 13406 0ac2 50000000 		.4byte	.LVL213
 13407 0ac6 52000000 		.4byte	.LVL215
 13408 0aca 0400     		.2byte	0x4
 13409 0acc F3       		.byte	0xf3
 13410 0acd 01       		.uleb128 0x1
 13411 0ace 50       		.byte	0x50
 13412 0acf 9F       		.byte	0x9f
 13413 0ad0 52000000 		.4byte	.LVL215
 13414 0ad4 64000000 		.4byte	.LFE55
 13415 0ad8 0100     		.2byte	0x1
 13416 0ada 54       		.byte	0x54
 13417 0adb 00000000 		.4byte	0
 13418 0adf 00000000 		.4byte	0
 13419              	.LLST62:
 13420 0ae3 00000000 		.4byte	.LVL202
 13421 0ae7 26000000 		.4byte	.LVL208
 13422 0aeb 0200     		.2byte	0x2
 13423 0aed 37       		.byte	0x37
 13424 0aee 9F       		.byte	0x9f
 13425 0aef 26000000 		.4byte	.LVL208
 13426 0af3 38000000 		.4byte	.LVL210
 13427 0af7 0100     		.2byte	0x1
 13428 0af9 56       		.byte	0x56
 13429 0afa 38000000 		.4byte	.LVL210
 13430 0afe 50000000 		.4byte	.LVL214
 13431 0b02 0100     		.2byte	0x1
 13432 0b04 55       		.byte	0x55
 13433 0b05 52000000 		.4byte	.LVL215
 13434 0b09 64000000 		.4byte	.LFE55
 13435 0b0d 0200     		.2byte	0x2
 13436 0b0f 37       		.byte	0x37
 13437 0b10 9F       		.byte	0x9f
 13438 0b11 00000000 		.4byte	0
 13439 0b15 00000000 		.4byte	0
 13440              	.LLST63:
 13441 0b19 06000000 		.4byte	.LVL203
 13442 0b1d 1E000000 		.4byte	.LVL206
 13443 0b21 0100     		.2byte	0x1
 13444 0b23 55       		.byte	0x55
 13445 0b24 1E000000 		.4byte	.LVL206
 13446 0b28 22000000 		.4byte	.LVL207
 13447 0b2c 0700     		.2byte	0x7
 13448 0b2e 75       		.byte	0x75
 13449 0b2f C095A7B4 		.sleb128 915000000
ARM GAS  C:\Users\EBANO_~1\AppData\Local\Temp\cc2nkIni.s 			page 266


 13449      03
 13450 0b34 9F       		.byte	0x9f
 13451 0b35 52000000 		.4byte	.LVL215
 13452 0b39 54000000 		.4byte	.LVL216
 13453 0b3d 0700     		.2byte	0x7
 13454 0b3f 75       		.byte	0x75
 13455 0b40 C095A7B4 		.sleb128 915000000
 13455      03
 13456 0b45 9F       		.byte	0x9f
 13457 0b46 00000000 		.4byte	0
 13458 0b4a 00000000 		.4byte	0
 13459              	.LLST51:
 13460 0b4e 00000000 		.4byte	.LFB54
 13461 0b52 02000000 		.4byte	.LCFI19
 13462 0b56 0200     		.2byte	0x2
 13463 0b58 7D       		.byte	0x7d
 13464 0b59 00       		.sleb128 0
 13465 0b5a 02000000 		.4byte	.LCFI19
 13466 0b5e 0C000000 		.4byte	.LCFI20
 13467 0b62 0200     		.2byte	0x2
 13468 0b64 7D       		.byte	0x7d
 13469 0b65 14       		.sleb128 20
 13470 0b66 0C000000 		.4byte	.LCFI20
 13471 0b6a 0E000000 		.4byte	.LCFI21
 13472 0b6e 0200     		.2byte	0x2
 13473 0b70 7D       		.byte	0x7d
 13474 0b71 24       		.sleb128 36
 13475 0b72 0E000000 		.4byte	.LCFI21
 13476 0b76 0C030000 		.4byte	.LFE54
 13477 0b7a 0300     		.2byte	0x3
 13478 0b7c 7D       		.byte	0x7d
 13479 0b7d E800     		.sleb128 104
 13480 0b7f 00000000 		.4byte	0
 13481 0b83 00000000 		.4byte	0
 13482              	.LLST52:
 13483 0b87 00000000 		.4byte	.LVL144
 13484 0b8b 28000000 		.4byte	.LVL147
 13485 0b8f 0100     		.2byte	0x1
 13486 0b91 50       		.byte	0x50
 13487 0b92 28000000 		.4byte	.LVL147
 13488 0b96 B6010000 		.4byte	.LVL172
 13489 0b9a 0100     		.2byte	0x1
 13490 0b9c 56       		.byte	0x56
 13491 0b9d B6010000 		.4byte	.LVL172
 13492 0ba1 E2010000 		.4byte	.LVL177
 13493 0ba5 0400     		.2byte	0x4
 13494 0ba7 F3       		.byte	0xf3
 13495 0ba8 01       		.uleb128 0x1
 13496 0ba9 50       		.byte	0x50
 13497 0baa 9F       		.byte	0x9f
 13498 0bab E2010000 		.4byte	.LVL177
 13499 0baf E0020000 		.4byte	.LVL197
 13500 0bb3 0100     		.2byte	0x1
 13501 0bb5 56       		.byte	0x56
 13502 0bb6 E0020000 		.4byte	.LVL197
 13503 0bba F6020000 		.4byte	.LVL200
 13504 0bbe 0400     		.2byte	0x4
ARM GAS  C:\Users\EBANO_~1\AppData\Local\Temp\cc2nkIni.s 			page 267


 13505 0bc0 F3       		.byte	0xf3
 13506 0bc1 01       		.uleb128 0x1
 13507 0bc2 50       		.byte	0x50
 13508 0bc3 9F       		.byte	0x9f
 13509 0bc4 F6020000 		.4byte	.LVL200
 13510 0bc8 0C030000 		.4byte	.LFE54
 13511 0bcc 0100     		.2byte	0x1
 13512 0bce 56       		.byte	0x56
 13513 0bcf 00000000 		.4byte	0
 13514 0bd3 00000000 		.4byte	0
 13515              	.LLST53:
 13516 0bd7 00000000 		.4byte	.LVL144
 13517 0bdb 28000000 		.4byte	.LVL147
 13518 0bdf 0100     		.2byte	0x1
 13519 0be1 51       		.byte	0x51
 13520 0be2 28000000 		.4byte	.LVL147
 13521 0be6 D6010000 		.4byte	.LVL176
 13522 0bea 0100     		.2byte	0x1
 13523 0bec 5B       		.byte	0x5b
 13524 0bed D6010000 		.4byte	.LVL176
 13525 0bf1 E2010000 		.4byte	.LVL177
 13526 0bf5 0400     		.2byte	0x4
 13527 0bf7 F3       		.byte	0xf3
 13528 0bf8 01       		.uleb128 0x1
 13529 0bf9 51       		.byte	0x51
 13530 0bfa 9F       		.byte	0x9f
 13531 0bfb E2010000 		.4byte	.LVL177
 13532 0bff 0C030000 		.4byte	.LFE54
 13533 0c03 0100     		.2byte	0x1
 13534 0c05 5B       		.byte	0x5b
 13535 0c06 00000000 		.4byte	0
 13536 0c0a 00000000 		.4byte	0
 13537              	.LLST54:
 13538 0c0e 00000000 		.4byte	.LVL144
 13539 0c12 16000000 		.4byte	.LVL146
 13540 0c16 0100     		.2byte	0x1
 13541 0c18 52       		.byte	0x52
 13542 0c19 16000000 		.4byte	.LVL146
 13543 0c1d D6010000 		.4byte	.LVL175
 13544 0c21 0100     		.2byte	0x1
 13545 0c23 5A       		.byte	0x5a
 13546 0c24 D6010000 		.4byte	.LVL175
 13547 0c28 E2010000 		.4byte	.LVL177
 13548 0c2c 0400     		.2byte	0x4
 13549 0c2e F3       		.byte	0xf3
 13550 0c2f 01       		.uleb128 0x1
 13551 0c30 52       		.byte	0x52
 13552 0c31 9F       		.byte	0x9f
 13553 0c32 E2010000 		.4byte	.LVL177
 13554 0c36 0C030000 		.4byte	.LFE54
 13555 0c3a 0100     		.2byte	0x1
 13556 0c3c 5A       		.byte	0x5a
 13557 0c3d 00000000 		.4byte	0
 13558 0c41 00000000 		.4byte	0
 13559              	.LLST55:
 13560 0c45 00000000 		.4byte	.LVL144
 13561 0c49 12000000 		.4byte	.LVL145
ARM GAS  C:\Users\EBANO_~1\AppData\Local\Temp\cc2nkIni.s 			page 268


 13562 0c4d 0100     		.2byte	0x1
 13563 0c4f 53       		.byte	0x53
 13564 0c50 12000000 		.4byte	.LVL145
 13565 0c54 0C030000 		.4byte	.LFE54
 13566 0c58 0300     		.2byte	0x3
 13567 0c5a 91       		.byte	0x91
 13568 0c5b 9C7F     		.sleb128 -100
 13569 0c5d 00000000 		.4byte	0
 13570 0c61 00000000 		.4byte	0
 13571              	.LLST56:
 13572 0c65 00000000 		.4byte	.LVL144
 13573 0c69 28000000 		.4byte	.LVL147
 13574 0c6d 0200     		.2byte	0x2
 13575 0c6f 37       		.byte	0x37
 13576 0c70 9F       		.byte	0x9f
 13577 0c71 28000000 		.4byte	.LVL147
 13578 0c75 4C000000 		.4byte	.LVL150
 13579 0c79 0100     		.2byte	0x1
 13580 0c7b 59       		.byte	0x59
 13581 0c7c 4C000000 		.4byte	.LVL150
 13582 0c80 6E000000 		.4byte	.LVL153
 13583 0c84 0200     		.2byte	0x2
 13584 0c86 37       		.byte	0x37
 13585 0c87 9F       		.byte	0x9f
 13586 0c88 6E000000 		.4byte	.LVL153
 13587 0c8c B6010000 		.4byte	.LVL172
 13588 0c90 0100     		.2byte	0x1
 13589 0c92 59       		.byte	0x59
 13590 0c93 B6010000 		.4byte	.LVL172
 13591 0c97 BC010000 		.4byte	.LVL173
 13592 0c9b 0100     		.2byte	0x1
 13593 0c9d 50       		.byte	0x50
 13594 0c9e E2010000 		.4byte	.LVL177
 13595 0ca2 E0020000 		.4byte	.LVL197
 13596 0ca6 0200     		.2byte	0x2
 13597 0ca8 37       		.byte	0x37
 13598 0ca9 9F       		.byte	0x9f
 13599 0caa E0020000 		.4byte	.LVL197
 13600 0cae E2020000 		.4byte	.LVL198
 13601 0cb2 0100     		.2byte	0x1
 13602 0cb4 50       		.byte	0x50
 13603 0cb5 F6020000 		.4byte	.LVL200
 13604 0cb9 0C030000 		.4byte	.LFE54
 13605 0cbd 0200     		.2byte	0x2
 13606 0cbf 37       		.byte	0x37
 13607 0cc0 9F       		.byte	0x9f
 13608 0cc1 00000000 		.4byte	0
 13609 0cc5 00000000 		.4byte	0
 13610              	.LLST57:
 13611 0cc9 00000000 		.4byte	.LVL144
 13612 0ccd 28000000 		.4byte	.LVL147
 13613 0cd1 0200     		.2byte	0x2
 13614 0cd3 30       		.byte	0x30
 13615 0cd4 9F       		.byte	0x9f
 13616 0cd5 3A000000 		.4byte	.LVL148
 13617 0cd9 4E000000 		.4byte	.LVL151
 13618 0cdd 0100     		.2byte	0x1
ARM GAS  C:\Users\EBANO_~1\AppData\Local\Temp\cc2nkIni.s 			page 269


 13619 0cdf 50       		.byte	0x50
 13620 0ce0 00000000 		.4byte	0
 13621 0ce4 00000000 		.4byte	0
 13622              	.LLST58:
 13623 0ce8 00000000 		.4byte	.LVL144
 13624 0cec 28000000 		.4byte	.LVL147
 13625 0cf0 0200     		.2byte	0x2
 13626 0cf2 30       		.byte	0x30
 13627 0cf3 9F       		.byte	0x9f
 13628 0cf4 28000000 		.4byte	.LVL147
 13629 0cf8 4A000000 		.4byte	.LVL149
 13630 0cfc 0100     		.2byte	0x1
 13631 0cfe 54       		.byte	0x54
 13632 0cff 4C000000 		.4byte	.LVL150
 13633 0d03 D6010000 		.4byte	.LVL174
 13634 0d07 0100     		.2byte	0x1
 13635 0d09 54       		.byte	0x54
 13636 0d0a D6010000 		.4byte	.LVL174
 13637 0d0e E2010000 		.4byte	.LVL177
 13638 0d12 0200     		.2byte	0x2
 13639 0d14 73       		.byte	0x73
 13640 0d15 00       		.sleb128 0
 13641 0d16 E2010000 		.4byte	.LVL177
 13642 0d1a 0C030000 		.4byte	.LFE54
 13643 0d1e 0100     		.2byte	0x1
 13644 0d20 54       		.byte	0x54
 13645 0d21 00000000 		.4byte	0
 13646 0d25 00000000 		.4byte	0
 13647              	.LLST59:
 13648 0d29 5C000000 		.4byte	.LVL152
 13649 0d2d 6E000000 		.4byte	.LVL153
 13650 0d31 0200     		.2byte	0x2
 13651 0d33 30       		.byte	0x30
 13652 0d34 9F       		.byte	0x9f
 13653 0d35 6E000000 		.4byte	.LVL153
 13654 0d39 7C000000 		.4byte	.LVL154
 13655 0d3d 0200     		.2byte	0x2
 13656 0d3f 31       		.byte	0x31
 13657 0d40 9F       		.byte	0x9f
 13658 0d41 7C000000 		.4byte	.LVL154
 13659 0d45 8A000000 		.4byte	.LVL155
 13660 0d49 0200     		.2byte	0x2
 13661 0d4b 32       		.byte	0x32
 13662 0d4c 9F       		.byte	0x9f
 13663 0d4d 8A000000 		.4byte	.LVL155
 13664 0d51 98000000 		.4byte	.LVL156
 13665 0d55 0200     		.2byte	0x2
 13666 0d57 33       		.byte	0x33
 13667 0d58 9F       		.byte	0x9f
 13668 0d59 98000000 		.4byte	.LVL156
 13669 0d5d A6000000 		.4byte	.LVL157
 13670 0d61 0200     		.2byte	0x2
 13671 0d63 34       		.byte	0x34
 13672 0d64 9F       		.byte	0x9f
 13673 0d65 A6000000 		.4byte	.LVL157
 13674 0d69 B4000000 		.4byte	.LVL158
 13675 0d6d 0200     		.2byte	0x2
ARM GAS  C:\Users\EBANO_~1\AppData\Local\Temp\cc2nkIni.s 			page 270


 13676 0d6f 35       		.byte	0x35
 13677 0d70 9F       		.byte	0x9f
 13678 0d71 B4000000 		.4byte	.LVL158
 13679 0d75 C2000000 		.4byte	.LVL159
 13680 0d79 0200     		.2byte	0x2
 13681 0d7b 36       		.byte	0x36
 13682 0d7c 9F       		.byte	0x9f
 13683 0d7d C2000000 		.4byte	.LVL159
 13684 0d81 D0000000 		.4byte	.LVL160
 13685 0d85 0200     		.2byte	0x2
 13686 0d87 37       		.byte	0x37
 13687 0d88 9F       		.byte	0x9f
 13688 0d89 D0000000 		.4byte	.LVL160
 13689 0d8d DE000000 		.4byte	.LVL161
 13690 0d91 0200     		.2byte	0x2
 13691 0d93 38       		.byte	0x38
 13692 0d94 9F       		.byte	0x9f
 13693 0d95 DE000000 		.4byte	.LVL161
 13694 0d99 EC000000 		.4byte	.LVL162
 13695 0d9d 0200     		.2byte	0x2
 13696 0d9f 39       		.byte	0x39
 13697 0da0 9F       		.byte	0x9f
 13698 0da1 EC000000 		.4byte	.LVL162
 13699 0da5 FA000000 		.4byte	.LVL163
 13700 0da9 0200     		.2byte	0x2
 13701 0dab 3A       		.byte	0x3a
 13702 0dac 9F       		.byte	0x9f
 13703 0dad FA000000 		.4byte	.LVL163
 13704 0db1 0A010000 		.4byte	.LVL164
 13705 0db5 0200     		.2byte	0x2
 13706 0db7 3B       		.byte	0x3b
 13707 0db8 9F       		.byte	0x9f
 13708 0db9 0A010000 		.4byte	.LVL164
 13709 0dbd 1A010000 		.4byte	.LVL165
 13710 0dc1 0200     		.2byte	0x2
 13711 0dc3 3C       		.byte	0x3c
 13712 0dc4 9F       		.byte	0x9f
 13713 0dc5 1A010000 		.4byte	.LVL165
 13714 0dc9 2A010000 		.4byte	.LVL166
 13715 0dcd 0200     		.2byte	0x2
 13716 0dcf 3D       		.byte	0x3d
 13717 0dd0 9F       		.byte	0x9f
 13718 0dd1 2A010000 		.4byte	.LVL166
 13719 0dd5 3A010000 		.4byte	.LVL167
 13720 0dd9 0200     		.2byte	0x2
 13721 0ddb 3E       		.byte	0x3e
 13722 0ddc 9F       		.byte	0x9f
 13723 0ddd 3A010000 		.4byte	.LVL167
 13724 0de1 58010000 		.4byte	.LVL169
 13725 0de5 0200     		.2byte	0x2
 13726 0de7 3F       		.byte	0x3f
 13727 0de8 9F       		.byte	0x9f
 13728 0de9 F4010000 		.4byte	.LVL178
 13729 0ded 02020000 		.4byte	.LVL179
 13730 0df1 0200     		.2byte	0x2
 13731 0df3 30       		.byte	0x30
 13732 0df4 9F       		.byte	0x9f
ARM GAS  C:\Users\EBANO_~1\AppData\Local\Temp\cc2nkIni.s 			page 271


 13733 0df5 02020000 		.4byte	.LVL179
 13734 0df9 0E020000 		.4byte	.LVL180
 13735 0dfd 0200     		.2byte	0x2
 13736 0dff 31       		.byte	0x31
 13737 0e00 9F       		.byte	0x9f
 13738 0e01 0E020000 		.4byte	.LVL180
 13739 0e05 1A020000 		.4byte	.LVL181
 13740 0e09 0200     		.2byte	0x2
 13741 0e0b 32       		.byte	0x32
 13742 0e0c 9F       		.byte	0x9f
 13743 0e0d 1A020000 		.4byte	.LVL181
 13744 0e11 26020000 		.4byte	.LVL182
 13745 0e15 0200     		.2byte	0x2
 13746 0e17 33       		.byte	0x33
 13747 0e18 9F       		.byte	0x9f
 13748 0e19 26020000 		.4byte	.LVL182
 13749 0e1d 32020000 		.4byte	.LVL183
 13750 0e21 0200     		.2byte	0x2
 13751 0e23 34       		.byte	0x34
 13752 0e24 9F       		.byte	0x9f
 13753 0e25 32020000 		.4byte	.LVL183
 13754 0e29 3E020000 		.4byte	.LVL184
 13755 0e2d 0200     		.2byte	0x2
 13756 0e2f 35       		.byte	0x35
 13757 0e30 9F       		.byte	0x9f
 13758 0e31 3E020000 		.4byte	.LVL184
 13759 0e35 4A020000 		.4byte	.LVL185
 13760 0e39 0200     		.2byte	0x2
 13761 0e3b 36       		.byte	0x36
 13762 0e3c 9F       		.byte	0x9f
 13763 0e3d 4A020000 		.4byte	.LVL185
 13764 0e41 56020000 		.4byte	.LVL186
 13765 0e45 0200     		.2byte	0x2
 13766 0e47 37       		.byte	0x37
 13767 0e48 9F       		.byte	0x9f
 13768 0e49 56020000 		.4byte	.LVL186
 13769 0e4d 64020000 		.4byte	.LVL187
 13770 0e51 0200     		.2byte	0x2
 13771 0e53 38       		.byte	0x38
 13772 0e54 9F       		.byte	0x9f
 13773 0e55 64020000 		.4byte	.LVL187
 13774 0e59 72020000 		.4byte	.LVL188
 13775 0e5d 0200     		.2byte	0x2
 13776 0e5f 39       		.byte	0x39
 13777 0e60 9F       		.byte	0x9f
 13778 0e61 72020000 		.4byte	.LVL188
 13779 0e65 80020000 		.4byte	.LVL189
 13780 0e69 0200     		.2byte	0x2
 13781 0e6b 3A       		.byte	0x3a
 13782 0e6c 9F       		.byte	0x9f
 13783 0e6d 80020000 		.4byte	.LVL189
 13784 0e71 90020000 		.4byte	.LVL190
 13785 0e75 0200     		.2byte	0x2
 13786 0e77 3B       		.byte	0x3b
 13787 0e78 9F       		.byte	0x9f
 13788 0e79 90020000 		.4byte	.LVL190
 13789 0e7d A0020000 		.4byte	.LVL191
ARM GAS  C:\Users\EBANO_~1\AppData\Local\Temp\cc2nkIni.s 			page 272


 13790 0e81 0200     		.2byte	0x2
 13791 0e83 3C       		.byte	0x3c
 13792 0e84 9F       		.byte	0x9f
 13793 0e85 A0020000 		.4byte	.LVL191
 13794 0e89 A8020000 		.4byte	.LVL192
 13795 0e8d 0200     		.2byte	0x2
 13796 0e8f 3D       		.byte	0x3d
 13797 0e90 9F       		.byte	0x9f
 13798 0e91 A8020000 		.4byte	.LVL192
 13799 0e95 B6020000 		.4byte	.LVL193
 13800 0e99 0200     		.2byte	0x2
 13801 0e9b 3E       		.byte	0x3e
 13802 0e9c 9F       		.byte	0x9f
 13803 0e9d B6020000 		.4byte	.LVL193
 13804 0ea1 C4020000 		.4byte	.LVL194
 13805 0ea5 0200     		.2byte	0x2
 13806 0ea7 3F       		.byte	0x3f
 13807 0ea8 9F       		.byte	0x9f
 13808 0ea9 CC020000 		.4byte	.LVL195
 13809 0ead D4020000 		.4byte	.LVL196
 13810 0eb1 0200     		.2byte	0x2
 13811 0eb3 3F       		.byte	0x3f
 13812 0eb4 9F       		.byte	0x9f
 13813 0eb5 D4020000 		.4byte	.LVL196
 13814 0eb9 E0020000 		.4byte	.LVL197
 13815 0ebd 0200     		.2byte	0x2
 13816 0ebf 40       		.byte	0x40
 13817 0ec0 9F       		.byte	0x9f
 13818 0ec1 F6020000 		.4byte	.LVL200
 13819 0ec5 FC020000 		.4byte	.LVL201
 13820 0ec9 0200     		.2byte	0x2
 13821 0ecb 3D       		.byte	0x3d
 13822 0ecc 9F       		.byte	0x9f
 13823 0ecd FC020000 		.4byte	.LVL201
 13824 0ed1 0C030000 		.4byte	.LFE54
 13825 0ed5 0200     		.2byte	0x2
 13826 0ed7 3E       		.byte	0x3e
 13827 0ed8 9F       		.byte	0x9f
 13828 0ed9 00000000 		.4byte	0
 13829 0edd 00000000 		.4byte	0
 13830              	.LLST40:
 13831 0ee1 00000000 		.4byte	.LFB53
 13832 0ee5 02000000 		.4byte	.LCFI16
 13833 0ee9 0200     		.2byte	0x2
 13834 0eeb 7D       		.byte	0x7d
 13835 0eec 00       		.sleb128 0
 13836 0eed 02000000 		.4byte	.LCFI16
 13837 0ef1 14000000 		.4byte	.LCFI17
 13838 0ef5 0200     		.2byte	0x2
 13839 0ef7 7D       		.byte	0x7d
 13840 0ef8 14       		.sleb128 20
 13841 0ef9 14000000 		.4byte	.LCFI17
 13842 0efd 16000000 		.4byte	.LCFI18
 13843 0f01 0200     		.2byte	0x2
 13844 0f03 7D       		.byte	0x7d
 13845 0f04 24       		.sleb128 36
 13846 0f05 16000000 		.4byte	.LCFI18
ARM GAS  C:\Users\EBANO_~1\AppData\Local\Temp\cc2nkIni.s 			page 273


 13847 0f09 3C010000 		.4byte	.LFE53
 13848 0f0d 0300     		.2byte	0x3
 13849 0f0f 7D       		.byte	0x7d
 13850 0f10 D800     		.sleb128 88
 13851 0f12 00000000 		.4byte	0
 13852 0f16 00000000 		.4byte	0
 13853              	.LLST41:
 13854 0f1a 00000000 		.4byte	.LVL116
 13855 0f1e 20000000 		.4byte	.LVL119
 13856 0f22 0100     		.2byte	0x1
 13857 0f24 50       		.byte	0x50
 13858 0f25 20000000 		.4byte	.LVL119
 13859 0f29 D8000000 		.4byte	.LVL135
 13860 0f2d 0100     		.2byte	0x1
 13861 0f2f 54       		.byte	0x54
 13862 0f30 D8000000 		.4byte	.LVL135
 13863 0f34 E4000000 		.4byte	.LVL139
 13864 0f38 0400     		.2byte	0x4
 13865 0f3a F3       		.byte	0xf3
 13866 0f3b 01       		.uleb128 0x1
 13867 0f3c 50       		.byte	0x50
 13868 0f3d 9F       		.byte	0x9f
 13869 0f3e E4000000 		.4byte	.LVL139
 13870 0f42 3C010000 		.4byte	.LFE53
 13871 0f46 0100     		.2byte	0x1
 13872 0f48 54       		.byte	0x54
 13873 0f49 00000000 		.4byte	0
 13874 0f4d 00000000 		.4byte	0
 13875              	.LLST42:
 13876 0f51 00000000 		.4byte	.LVL116
 13877 0f55 1C000000 		.4byte	.LVL118
 13878 0f59 0100     		.2byte	0x1
 13879 0f5b 51       		.byte	0x51
 13880 0f5c 1C000000 		.4byte	.LVL118
 13881 0f60 3C010000 		.4byte	.LFE53
 13882 0f64 0200     		.2byte	0x2
 13883 0f66 91       		.byte	0x91
 13884 0f67 50       		.sleb128 -48
 13885 0f68 00000000 		.4byte	0
 13886 0f6c 00000000 		.4byte	0
 13887              	.LLST43:
 13888 0f70 00000000 		.4byte	.LVL116
 13889 0f74 0E000000 		.4byte	.LVL117
 13890 0f78 0100     		.2byte	0x1
 13891 0f7a 52       		.byte	0x52
 13892 0f7b 0E000000 		.4byte	.LVL117
 13893 0f7f D8000000 		.4byte	.LVL137
 13894 0f83 0100     		.2byte	0x1
 13895 0f85 58       		.byte	0x58
 13896 0f86 D8000000 		.4byte	.LVL137
 13897 0f8a E4000000 		.4byte	.LVL139
 13898 0f8e 0400     		.2byte	0x4
 13899 0f90 F3       		.byte	0xf3
 13900 0f91 01       		.uleb128 0x1
 13901 0f92 52       		.byte	0x52
 13902 0f93 9F       		.byte	0x9f
 13903 0f94 E4000000 		.4byte	.LVL139
ARM GAS  C:\Users\EBANO_~1\AppData\Local\Temp\cc2nkIni.s 			page 274


 13904 0f98 3C010000 		.4byte	.LFE53
 13905 0f9c 0100     		.2byte	0x1
 13906 0f9e 58       		.byte	0x58
 13907 0f9f 00000000 		.4byte	0
 13908 0fa3 00000000 		.4byte	0
 13909              	.LLST44:
 13910 0fa7 8E000000 		.4byte	.LVL129
 13911 0fab B6000000 		.4byte	.LVL132
 13912 0faf 0200     		.2byte	0x2
 13913 0fb1 31       		.byte	0x31
 13914 0fb2 9F       		.byte	0x9f
 13915 0fb3 B6000000 		.4byte	.LVL132
 13916 0fb7 D8000000 		.4byte	.LVL136
 13917 0fbb 0100     		.2byte	0x1
 13918 0fbd 56       		.byte	0x56
 13919 0fbe EA000000 		.4byte	.LVL141
 13920 0fc2 3C010000 		.4byte	.LFE53
 13921 0fc6 0200     		.2byte	0x2
 13922 0fc8 30       		.byte	0x30
 13923 0fc9 9F       		.byte	0x9f
 13924 0fca 00000000 		.4byte	0
 13925 0fce 00000000 		.4byte	0
 13926              	.LLST45:
 13927 0fd2 22000000 		.4byte	.LVL120
 13928 0fd6 AC000000 		.4byte	.LVL130
 13929 0fda 0100     		.2byte	0x1
 13930 0fdc 56       		.byte	0x56
 13931 0fdd AC000000 		.4byte	.LVL130
 13932 0fe1 B3000000 		.4byte	.LVL131-1
 13933 0fe5 0200     		.2byte	0x2
 13934 0fe7 7D       		.byte	0x7d
 13935 0fe8 00       		.sleb128 0
 13936 0fe9 E4000000 		.4byte	.LVL139
 13937 0fed 04010000 		.4byte	.LVL142
 13938 0ff1 0100     		.2byte	0x1
 13939 0ff3 56       		.byte	0x56
 13940 0ff4 00000000 		.4byte	0
 13941 0ff8 00000000 		.4byte	0
 13942              	.LLST46:
 13943 0ffc 64000000 		.4byte	.LVL125
 13944 1000 72000000 		.4byte	.LVL127
 13945 1004 0200     		.2byte	0x2
 13946 1006 30       		.byte	0x30
 13947 1007 9F       		.byte	0x9f
 13948 1008 72000000 		.4byte	.LVL127
 13949 100c D8000000 		.4byte	.LVL138
 13950 1010 0100     		.2byte	0x1
 13951 1012 5B       		.byte	0x5b
 13952 1013 EA000000 		.4byte	.LVL141
 13953 1017 3C010000 		.4byte	.LFE53
 13954 101b 0100     		.2byte	0x1
 13955 101d 5B       		.byte	0x5b
 13956 101e 00000000 		.4byte	0
 13957 1022 00000000 		.4byte	0
 13958              	.LLST47:
 13959 1026 22000000 		.4byte	.LVL120
 13960 102a 4C000000 		.4byte	.LVL123
ARM GAS  C:\Users\EBANO_~1\AppData\Local\Temp\cc2nkIni.s 			page 275


 13961 102e 0100     		.2byte	0x1
 13962 1030 52       		.byte	0x52
 13963 1031 4C000000 		.4byte	.LVL123
 13964 1035 6D000000 		.4byte	.LVL126-1
 13965 1039 0200     		.2byte	0x2
 13966 103b 74       		.byte	0x74
 13967 103c 01       		.sleb128 1
 13968 103d E4000000 		.4byte	.LVL139
 13969 1041 E6000000 		.4byte	.LVL140
 13970 1045 0200     		.2byte	0x2
 13971 1047 74       		.byte	0x74
 13972 1048 01       		.sleb128 1
 13973 1049 E6000000 		.4byte	.LVL140
 13974 104d EA000000 		.4byte	.LVL141
 13975 1051 0500     		.2byte	0x5
 13976 1053 74       		.byte	0x74
 13977 1054 00       		.sleb128 0
 13978 1055 73       		.byte	0x73
 13979 1056 00       		.sleb128 0
 13980 1057 22       		.byte	0x22
 13981 1058 00000000 		.4byte	0
 13982 105c 00000000 		.4byte	0
 13983              	.LLST48:
 13984 1060 22000000 		.4byte	.LVL120
 13985 1064 24000000 		.4byte	.LVL121
 13986 1068 1E00     		.2byte	0x1e
 13987 106a 74       		.byte	0x74
 13988 106b 00       		.sleb128 0
 13989 106c 94       		.byte	0x94
 13990 106d 01       		.byte	0x1
 13991 106e 08       		.byte	0x8
 13992 106f FF       		.byte	0xff
 13993 1070 1A       		.byte	0x1a
 13994 1071 3C       		.byte	0x3c
 13995 1072 1E       		.byte	0x1e
 13996 1073 03       		.byte	0x3
 13997 1074 09000000 		.4byte	NvmCtx+9
 13998 1078 22       		.byte	0x22
 13999 1079 94       		.byte	0x94
 14000 107a 01       		.byte	0x1
 14001 107b 08       		.byte	0x8
 14002 107c FF       		.byte	0xff
 14003 107d 1A       		.byte	0x1a
 14004 107e 23       		.byte	0x23
 14005 107f 0C       		.uleb128 0xc
 14006 1080 34       		.byte	0x34
 14007 1081 24       		.byte	0x24
 14008 1082 03       		.byte	0x3
 14009 1083 02000000 		.4byte	NvmCtx+2
 14010 1087 22       		.byte	0x22
 14011 1088 24000000 		.4byte	.LVL121
 14012 108c 2A000000 		.4byte	.LVL122
 14013 1090 1900     		.2byte	0x19
 14014 1092 70       		.byte	0x70
 14015 1093 00       		.sleb128 0
 14016 1094 3C       		.byte	0x3c
 14017 1095 1E       		.byte	0x1e
ARM GAS  C:\Users\EBANO_~1\AppData\Local\Temp\cc2nkIni.s 			page 276


 14018 1096 03       		.byte	0x3
 14019 1097 09000000 		.4byte	NvmCtx+9
 14020 109b 22       		.byte	0x22
 14021 109c 94       		.byte	0x94
 14022 109d 01       		.byte	0x1
 14023 109e 08       		.byte	0x8
 14024 109f FF       		.byte	0xff
 14025 10a0 1A       		.byte	0x1a
 14026 10a1 23       		.byte	0x23
 14027 10a2 0C       		.uleb128 0xc
 14028 10a3 34       		.byte	0x34
 14029 10a4 24       		.byte	0x24
 14030 10a5 03       		.byte	0x3
 14031 10a6 02000000 		.4byte	NvmCtx+2
 14032 10aa 22       		.byte	0x22
 14033 10ab 2A000000 		.4byte	.LVL122
 14034 10af 4E000000 		.4byte	.LVL124
 14035 10b3 1E00     		.2byte	0x1e
 14036 10b5 74       		.byte	0x74
 14037 10b6 00       		.sleb128 0
 14038 10b7 94       		.byte	0x94
 14039 10b8 01       		.byte	0x1
 14040 10b9 08       		.byte	0x8
 14041 10ba FF       		.byte	0xff
 14042 10bb 1A       		.byte	0x1a
 14043 10bc 3C       		.byte	0x3c
 14044 10bd 1E       		.byte	0x1e
 14045 10be 03       		.byte	0x3
 14046 10bf 09000000 		.4byte	NvmCtx+9
 14047 10c3 22       		.byte	0x22
 14048 10c4 94       		.byte	0x94
 14049 10c5 01       		.byte	0x1
 14050 10c6 08       		.byte	0x8
 14051 10c7 FF       		.byte	0xff
 14052 10c8 1A       		.byte	0x1a
 14053 10c9 23       		.byte	0x23
 14054 10ca 0C       		.uleb128 0xc
 14055 10cb 34       		.byte	0x34
 14056 10cc 24       		.byte	0x24
 14057 10cd 03       		.byte	0x3
 14058 10ce 02000000 		.4byte	NvmCtx+2
 14059 10d2 22       		.byte	0x22
 14060 10d3 00000000 		.4byte	0
 14061 10d7 00000000 		.4byte	0
 14062              	.LLST49:
 14063 10db 22000000 		.4byte	.LVL120
 14064 10df 4E000000 		.4byte	.LVL124
 14065 10e3 0200     		.2byte	0x2
 14066 10e5 74       		.byte	0x74
 14067 10e6 02       		.sleb128 2
 14068 10e7 00000000 		.4byte	0
 14069 10eb 00000000 		.4byte	0
 14070              	.LLST32:
 14071 10ef 00000000 		.4byte	.LFB52
 14072 10f3 02000000 		.4byte	.LCFI13
 14073 10f7 0200     		.2byte	0x2
 14074 10f9 7D       		.byte	0x7d
ARM GAS  C:\Users\EBANO_~1\AppData\Local\Temp\cc2nkIni.s 			page 277


 14075 10fa 00       		.sleb128 0
 14076 10fb 02000000 		.4byte	.LCFI13
 14077 10ff 0A000000 		.4byte	.LCFI14
 14078 1103 0200     		.2byte	0x2
 14079 1105 7D       		.byte	0x7d
 14080 1106 14       		.sleb128 20
 14081 1107 0A000000 		.4byte	.LCFI14
 14082 110b 16000000 		.4byte	.LCFI15
 14083 110f 0200     		.2byte	0x2
 14084 1111 7D       		.byte	0x7d
 14085 1112 20       		.sleb128 32
 14086 1113 16000000 		.4byte	.LCFI15
 14087 1117 0C010000 		.4byte	.LFE52
 14088 111b 0300     		.2byte	0x3
 14089 111d 7D       		.byte	0x7d
 14090 111e D000     		.sleb128 80
 14091 1120 00000000 		.4byte	0
 14092 1124 00000000 		.4byte	0
 14093              	.LLST33:
 14094 1128 00000000 		.4byte	.LVL93
 14095 112c 1F000000 		.4byte	.LVL95-1
 14096 1130 0100     		.2byte	0x1
 14097 1132 50       		.byte	0x50
 14098 1133 1F000000 		.4byte	.LVL95-1
 14099 1137 A8000000 		.4byte	.LVL107
 14100 113b 0100     		.2byte	0x1
 14101 113d 54       		.byte	0x54
 14102 113e A8000000 		.4byte	.LVL107
 14103 1142 B2000000 		.4byte	.LVL111
 14104 1146 0400     		.2byte	0x4
 14105 1148 F3       		.byte	0xf3
 14106 1149 01       		.uleb128 0x1
 14107 114a 50       		.byte	0x50
 14108 114b 9F       		.byte	0x9f
 14109 114c B2000000 		.4byte	.LVL111
 14110 1150 0C010000 		.4byte	.LFE52
 14111 1154 0100     		.2byte	0x1
 14112 1156 54       		.byte	0x54
 14113 1157 00000000 		.4byte	0
 14114 115b 00000000 		.4byte	0
 14115              	.LLST34:
 14116 115f 00000000 		.4byte	.LVL93
 14117 1163 1F000000 		.4byte	.LVL95-1
 14118 1167 0100     		.2byte	0x1
 14119 1169 51       		.byte	0x51
 14120 116a 1F000000 		.4byte	.LVL95-1
 14121 116e A8000000 		.4byte	.LVL110
 14122 1172 0100     		.2byte	0x1
 14123 1174 5A       		.byte	0x5a
 14124 1175 A8000000 		.4byte	.LVL110
 14125 1179 B2000000 		.4byte	.LVL111
 14126 117d 0400     		.2byte	0x4
 14127 117f F3       		.byte	0xf3
 14128 1180 01       		.uleb128 0x1
 14129 1181 51       		.byte	0x51
 14130 1182 9F       		.byte	0x9f
 14131 1183 B2000000 		.4byte	.LVL111
ARM GAS  C:\Users\EBANO_~1\AppData\Local\Temp\cc2nkIni.s 			page 278


 14132 1187 0C010000 		.4byte	.LFE52
 14133 118b 0100     		.2byte	0x1
 14134 118d 5A       		.byte	0x5a
 14135 118e 00000000 		.4byte	0
 14136 1192 00000000 		.4byte	0
 14137              	.LLST35:
 14138 1196 5E000000 		.4byte	.LVL100
 14139 119a 88000000 		.4byte	.LVL102
 14140 119e 0200     		.2byte	0x2
 14141 11a0 31       		.byte	0x31
 14142 11a1 9F       		.byte	0x9f
 14143 11a2 88000000 		.4byte	.LVL102
 14144 11a6 9D000000 		.4byte	.LVL105-1
 14145 11aa 0100     		.2byte	0x1
 14146 11ac 50       		.byte	0x50
 14147 11ad B2000000 		.4byte	.LVL111
 14148 11b1 B8000000 		.4byte	.LVL113
 14149 11b5 0100     		.2byte	0x1
 14150 11b7 50       		.byte	0x50
 14151 11b8 B8000000 		.4byte	.LVL113
 14152 11bc F0000000 		.4byte	.LVL115
 14153 11c0 0200     		.2byte	0x2
 14154 11c2 30       		.byte	0x30
 14155 11c3 9F       		.byte	0x9f
 14156 11c4 00000000 		.4byte	0
 14157 11c8 00000000 		.4byte	0
 14158              	.LLST36:
 14159 11cc 18000000 		.4byte	.LVL94
 14160 11d0 A8000000 		.4byte	.LVL108
 14161 11d4 0100     		.2byte	0x1
 14162 11d6 56       		.byte	0x56
 14163 11d7 B2000000 		.4byte	.LVL111
 14164 11db 0C010000 		.4byte	.LFE52
 14165 11df 0100     		.2byte	0x1
 14166 11e1 56       		.byte	0x56
 14167 11e2 00000000 		.4byte	0
 14168 11e6 00000000 		.4byte	0
 14169              	.LLST37:
 14170 11ea 18000000 		.4byte	.LVL94
 14171 11ee 94000000 		.4byte	.LVL103
 14172 11f2 0200     		.2byte	0x2
 14173 11f4 30       		.byte	0x30
 14174 11f5 9F       		.byte	0x9f
 14175 11f6 94000000 		.4byte	.LVL103
 14176 11fa 98000000 		.4byte	.LVL104
 14177 11fe 0100     		.2byte	0x1
 14178 1200 51       		.byte	0x51
 14179 1201 B2000000 		.4byte	.LVL111
 14180 1205 B6000000 		.4byte	.LVL112
 14181 1209 0200     		.2byte	0x2
 14182 120b 30       		.byte	0x30
 14183 120c 9F       		.byte	0x9f
 14184 120d B6000000 		.4byte	.LVL112
 14185 1211 B8000000 		.4byte	.LVL113
 14186 1215 0100     		.2byte	0x1
 14187 1217 51       		.byte	0x51
 14188 1218 B8000000 		.4byte	.LVL113
ARM GAS  C:\Users\EBANO_~1\AppData\Local\Temp\cc2nkIni.s 			page 279


 14189 121c 0C010000 		.4byte	.LFE52
 14190 1220 0200     		.2byte	0x2
 14191 1222 30       		.byte	0x30
 14192 1223 9F       		.byte	0x9f
 14193 1224 00000000 		.4byte	0
 14194 1228 00000000 		.4byte	0
 14195              	.LLST38:
 14196 122c 18000000 		.4byte	.LVL94
 14197 1230 4E000000 		.4byte	.LVL98
 14198 1234 0200     		.2byte	0x2
 14199 1236 30       		.byte	0x30
 14200 1237 9F       		.byte	0x9f
 14201 1238 4E000000 		.4byte	.LVL98
 14202 123c A4000000 		.4byte	.LVL106
 14203 1240 0100     		.2byte	0x1
 14204 1242 59       		.byte	0x59
 14205 1243 B2000000 		.4byte	.LVL111
 14206 1247 F0000000 		.4byte	.LVL115
 14207 124b 0100     		.2byte	0x1
 14208 124d 59       		.byte	0x59
 14209 124e F0000000 		.4byte	.LVL115
 14210 1252 0C010000 		.4byte	.LFE52
 14211 1256 0200     		.2byte	0x2
 14212 1258 30       		.byte	0x30
 14213 1259 9F       		.byte	0x9f
 14214 125a 00000000 		.4byte	0
 14215 125e 00000000 		.4byte	0
 14216              	.LLST39:
 14217 1262 18000000 		.4byte	.LVL94
 14218 1266 38000000 		.4byte	.LVL96
 14219 126a 0100     		.2byte	0x1
 14220 126c 58       		.byte	0x58
 14221 126d 38000000 		.4byte	.LVL96
 14222 1271 42000000 		.4byte	.LVL97
 14223 1275 0100     		.2byte	0x1
 14224 1277 51       		.byte	0x51
 14225 1278 42000000 		.4byte	.LVL97
 14226 127c A8000000 		.4byte	.LVL109
 14227 1280 0100     		.2byte	0x1
 14228 1282 58       		.byte	0x58
 14229 1283 B2000000 		.4byte	.LVL111
 14230 1287 F0000000 		.4byte	.LVL115
 14231 128b 0100     		.2byte	0x1
 14232 128d 58       		.byte	0x58
 14233 128e F0000000 		.4byte	.LVL115
 14234 1292 0C010000 		.4byte	.LFE52
 14235 1296 0100     		.2byte	0x1
 14236 1298 51       		.byte	0x51
 14237 1299 00000000 		.4byte	0
 14238 129d 00000000 		.4byte	0
 14239              	.LLST26:
 14240 12a1 00000000 		.4byte	.LFB51
 14241 12a5 02000000 		.4byte	.LCFI10
 14242 12a9 0200     		.2byte	0x2
 14243 12ab 7D       		.byte	0x7d
 14244 12ac 00       		.sleb128 0
 14245 12ad 02000000 		.4byte	.LCFI10
ARM GAS  C:\Users\EBANO_~1\AppData\Local\Temp\cc2nkIni.s 			page 280


 14246 12b1 06000000 		.4byte	.LCFI11
 14247 12b5 0200     		.2byte	0x2
 14248 12b7 7D       		.byte	0x7d
 14249 12b8 14       		.sleb128 20
 14250 12b9 06000000 		.4byte	.LCFI11
 14251 12bd 0A000000 		.4byte	.LCFI12
 14252 12c1 0200     		.2byte	0x2
 14253 12c3 7D       		.byte	0x7d
 14254 12c4 18       		.sleb128 24
 14255 12c5 0A000000 		.4byte	.LCFI12
 14256 12c9 94000000 		.4byte	.LFE51
 14257 12cd 0200     		.2byte	0x2
 14258 12cf 7D       		.byte	0x7d
 14259 12d0 30       		.sleb128 48
 14260 12d1 00000000 		.4byte	0
 14261 12d5 00000000 		.4byte	0
 14262              	.LLST27:
 14263 12d9 00000000 		.4byte	.LVL73
 14264 12dd 40000000 		.4byte	.LVL78
 14265 12e1 0100     		.2byte	0x1
 14266 12e3 50       		.byte	0x50
 14267 12e4 40000000 		.4byte	.LVL78
 14268 12e8 70000000 		.4byte	.LVL89
 14269 12ec 0400     		.2byte	0x4
 14270 12ee F3       		.byte	0xf3
 14271 12ef 01       		.uleb128 0x1
 14272 12f0 50       		.byte	0x50
 14273 12f1 9F       		.byte	0x9f
 14274 12f2 70000000 		.4byte	.LVL89
 14275 12f6 7A000000 		.4byte	.LVL90
 14276 12fa 0100     		.2byte	0x1
 14277 12fc 50       		.byte	0x50
 14278 12fd 7A000000 		.4byte	.LVL90
 14279 1301 94000000 		.4byte	.LFE51
 14280 1305 0400     		.2byte	0x4
 14281 1307 F3       		.byte	0xf3
 14282 1308 01       		.uleb128 0x1
 14283 1309 50       		.byte	0x50
 14284 130a 9F       		.byte	0x9f
 14285 130b 00000000 		.4byte	0
 14286 130f 00000000 		.4byte	0
 14287              	.LLST28:
 14288 1313 00000000 		.4byte	.LVL73
 14289 1317 1C000000 		.4byte	.LVL76
 14290 131b 0100     		.2byte	0x1
 14291 131d 51       		.byte	0x51
 14292 131e 1C000000 		.4byte	.LVL76
 14293 1322 94000000 		.4byte	.LFE51
 14294 1326 0400     		.2byte	0x4
 14295 1328 F3       		.byte	0xf3
 14296 1329 01       		.uleb128 0x1
 14297 132a 51       		.byte	0x51
 14298 132b 9F       		.byte	0x9f
 14299 132c 00000000 		.4byte	0
 14300 1330 00000000 		.4byte	0
 14301              	.LLST29:
 14302 1334 00000000 		.4byte	.LVL73
ARM GAS  C:\Users\EBANO_~1\AppData\Local\Temp\cc2nkIni.s 			page 281


 14303 1338 1A000000 		.4byte	.LVL75
 14304 133c 0100     		.2byte	0x1
 14305 133e 52       		.byte	0x52
 14306 133f 1A000000 		.4byte	.LVL75
 14307 1343 6A000000 		.4byte	.LVL88
 14308 1347 0100     		.2byte	0x1
 14309 1349 58       		.byte	0x58
 14310 134a 6A000000 		.4byte	.LVL88
 14311 134e 70000000 		.4byte	.LVL89
 14312 1352 0400     		.2byte	0x4
 14313 1354 F3       		.byte	0xf3
 14314 1355 01       		.uleb128 0x1
 14315 1356 52       		.byte	0x52
 14316 1357 9F       		.byte	0x9f
 14317 1358 70000000 		.4byte	.LVL89
 14318 135c 94000000 		.4byte	.LFE51
 14319 1360 0100     		.2byte	0x1
 14320 1362 58       		.byte	0x58
 14321 1363 00000000 		.4byte	0
 14322 1367 00000000 		.4byte	0
 14323              	.LLST30:
 14324 136b 00000000 		.4byte	.LVL73
 14325 136f 10000000 		.4byte	.LVL74
 14326 1373 0100     		.2byte	0x1
 14327 1375 53       		.byte	0x53
 14328 1376 10000000 		.4byte	.LVL74
 14329 137a 54000000 		.4byte	.LVL82
 14330 137e 0100     		.2byte	0x1
 14331 1380 54       		.byte	0x54
 14332 1381 54000000 		.4byte	.LVL82
 14333 1385 56000000 		.4byte	.LVL83
 14334 1389 0100     		.2byte	0x1
 14335 138b 53       		.byte	0x53
 14336 138c 56000000 		.4byte	.LVL83
 14337 1390 5E000000 		.4byte	.LVL84
 14338 1394 0300     		.2byte	0x3
 14339 1396 73       		.byte	0x73
 14340 1397 74       		.sleb128 -12
 14341 1398 9F       		.byte	0x9f
 14342 1399 5E000000 		.4byte	.LVL84
 14343 139d 67000000 		.4byte	.LVL85-1
 14344 13a1 0600     		.2byte	0x6
 14345 13a3 91       		.byte	0x91
 14346 13a4 58       		.sleb128 -40
 14347 13a5 06       		.byte	0x6
 14348 13a6 3C       		.byte	0x3c
 14349 13a7 1C       		.byte	0x1c
 14350 13a8 9F       		.byte	0x9f
 14351 13a9 67000000 		.4byte	.LVL85-1
 14352 13ad 6A000000 		.4byte	.LVL86
 14353 13b1 0300     		.2byte	0x3
 14354 13b3 74       		.byte	0x74
 14355 13b4 78       		.sleb128 -8
 14356 13b5 9F       		.byte	0x9f
 14357 13b6 6A000000 		.4byte	.LVL86
 14358 13ba 70000000 		.4byte	.LVL89
 14359 13be 0400     		.2byte	0x4
ARM GAS  C:\Users\EBANO_~1\AppData\Local\Temp\cc2nkIni.s 			page 282


 14360 13c0 F3       		.byte	0xf3
 14361 13c1 01       		.uleb128 0x1
 14362 13c2 53       		.byte	0x53
 14363 13c3 9F       		.byte	0x9f
 14364 13c4 70000000 		.4byte	.LVL89
 14365 13c8 94000000 		.4byte	.LFE51
 14366 13cc 0100     		.2byte	0x1
 14367 13ce 54       		.byte	0x54
 14368 13cf 00000000 		.4byte	0
 14369 13d3 00000000 		.4byte	0
 14370              	.LLST31:
 14371 13d7 00000000 		.4byte	.LVL73
 14372 13db 48000000 		.4byte	.LVL80
 14373 13df 0A00     		.2byte	0xa
 14374 13e1 9E       		.byte	0x9e
 14375 13e2 08       		.uleb128 0x8
 14376 13e3 00000000 		.4byte	0
 14377 13e7 00000000 		.4byte	0
 14378 13eb 48000000 		.4byte	.LVL80
 14379 13ef 6A000000 		.4byte	.LVL87
 14380 13f3 0600     		.2byte	0x6
 14381 13f5 56       		.byte	0x56
 14382 13f6 93       		.byte	0x93
 14383 13f7 04       		.uleb128 0x4
 14384 13f8 57       		.byte	0x57
 14385 13f9 93       		.byte	0x93
 14386 13fa 04       		.uleb128 0x4
 14387 13fb 70000000 		.4byte	.LVL89
 14388 13ff 82000000 		.4byte	.LVL92
 14389 1403 0A00     		.2byte	0xa
 14390 1405 9E       		.byte	0x9e
 14391 1406 08       		.uleb128 0x8
 14392 1407 00000000 		.4byte	0
 14393 140b 00000000 		.4byte	0
 14394 140f 82000000 		.4byte	.LVL92
 14395 1413 94000000 		.4byte	.LFE51
 14396 1417 0600     		.2byte	0x6
 14397 1419 56       		.byte	0x56
 14398 141a 93       		.byte	0x93
 14399 141b 04       		.uleb128 0x4
 14400 141c 57       		.byte	0x57
 14401 141d 93       		.byte	0x93
 14402 141e 04       		.uleb128 0x4
 14403 141f 00000000 		.4byte	0
 14404 1423 00000000 		.4byte	0
 14405              	.LLST24:
 14406 1427 00000000 		.4byte	.LFB50
 14407 142b 02000000 		.4byte	.LCFI9
 14408 142f 0200     		.2byte	0x2
 14409 1431 7D       		.byte	0x7d
 14410 1432 00       		.sleb128 0
 14411 1433 02000000 		.4byte	.LCFI9
 14412 1437 34000000 		.4byte	.LFE50
 14413 143b 0200     		.2byte	0x2
 14414 143d 7D       		.byte	0x7d
 14415 143e 08       		.sleb128 8
 14416 143f 00000000 		.4byte	0
ARM GAS  C:\Users\EBANO_~1\AppData\Local\Temp\cc2nkIni.s 			page 283


 14417 1443 00000000 		.4byte	0
 14418              	.LLST25:
 14419 1447 00000000 		.4byte	.LVL65
 14420 144b 0E000000 		.4byte	.LVL66
 14421 144f 0100     		.2byte	0x1
 14422 1451 50       		.byte	0x50
 14423 1452 0E000000 		.4byte	.LVL66
 14424 1456 10000000 		.4byte	.LVL67
 14425 145a 0400     		.2byte	0x4
 14426 145c F3       		.byte	0xf3
 14427 145d 01       		.uleb128 0x1
 14428 145e 50       		.byte	0x50
 14429 145f 9F       		.byte	0x9f
 14430 1460 10000000 		.4byte	.LVL67
 14431 1464 16000000 		.4byte	.LVL68
 14432 1468 0100     		.2byte	0x1
 14433 146a 50       		.byte	0x50
 14434 146b 16000000 		.4byte	.LVL68
 14435 146f 1E000000 		.4byte	.LVL70
 14436 1473 0400     		.2byte	0x4
 14437 1475 F3       		.byte	0xf3
 14438 1476 01       		.uleb128 0x1
 14439 1477 50       		.byte	0x50
 14440 1478 9F       		.byte	0x9f
 14441 1479 1E000000 		.4byte	.LVL70
 14442 147d 24000000 		.4byte	.LVL71
 14443 1481 0100     		.2byte	0x1
 14444 1483 50       		.byte	0x50
 14445 1484 24000000 		.4byte	.LVL71
 14446 1488 34000000 		.4byte	.LFE50
 14447 148c 0400     		.2byte	0x4
 14448 148e F3       		.byte	0xf3
 14449 148f 01       		.uleb128 0x1
 14450 1490 50       		.byte	0x50
 14451 1491 9F       		.byte	0x9f
 14452 1492 00000000 		.4byte	0
 14453 1496 00000000 		.4byte	0
 14454              	.LLST15:
 14455 149a 00000000 		.4byte	.LFB49
 14456 149e 02000000 		.4byte	.LCFI6
 14457 14a2 0200     		.2byte	0x2
 14458 14a4 7D       		.byte	0x7d
 14459 14a5 00       		.sleb128 0
 14460 14a6 02000000 		.4byte	.LCFI6
 14461 14aa 0E000000 		.4byte	.LCFI7
 14462 14ae 0200     		.2byte	0x2
 14463 14b0 7D       		.byte	0x7d
 14464 14b1 14       		.sleb128 20
 14465 14b2 0E000000 		.4byte	.LCFI7
 14466 14b6 10000000 		.4byte	.LCFI8
 14467 14ba 0200     		.2byte	0x2
 14468 14bc 7D       		.byte	0x7d
 14469 14bd 24       		.sleb128 36
 14470 14be 10000000 		.4byte	.LCFI8
 14471 14c2 44010000 		.4byte	.LFE49
 14472 14c6 0300     		.2byte	0x3
 14473 14c8 7D       		.byte	0x7d
ARM GAS  C:\Users\EBANO_~1\AppData\Local\Temp\cc2nkIni.s 			page 284


 14474 14c9 C000     		.sleb128 64
 14475 14cb 00000000 		.4byte	0
 14476 14cf 00000000 		.4byte	0
 14477              	.LLST16:
 14478 14d3 00000000 		.4byte	.LVL43
 14479 14d7 1C000000 		.4byte	.LVL44
 14480 14db 0100     		.2byte	0x1
 14481 14dd 50       		.byte	0x50
 14482 14de 1C000000 		.4byte	.LVL44
 14483 14e2 1E000000 		.4byte	.LVL45
 14484 14e6 0100     		.2byte	0x1
 14485 14e8 57       		.byte	0x57
 14486 14e9 1E000000 		.4byte	.LVL45
 14487 14ed 2A000000 		.4byte	.LVL46
 14488 14f1 0400     		.2byte	0x4
 14489 14f3 F3       		.byte	0xf3
 14490 14f4 01       		.uleb128 0x1
 14491 14f5 50       		.byte	0x50
 14492 14f6 9F       		.byte	0x9f
 14493 14f7 2A000000 		.4byte	.LVL46
 14494 14fb 3E000000 		.4byte	.LVL47
 14495 14ff 0100     		.2byte	0x1
 14496 1501 50       		.byte	0x50
 14497 1502 3E000000 		.4byte	.LVL47
 14498 1506 44010000 		.4byte	.LFE49
 14499 150a 0100     		.2byte	0x1
 14500 150c 57       		.byte	0x57
 14501 150d 00000000 		.4byte	0
 14502 1511 00000000 		.4byte	0
 14503              	.LLST17:
 14504 1515 3E000000 		.4byte	.LVL47
 14505 1519 60000000 		.4byte	.LVL51
 14506 151d 0700     		.2byte	0x7
 14507 151f 74       		.byte	0x74
 14508 1520 00       		.sleb128 0
 14509 1521 33       		.byte	0x33
 14510 1522 1E       		.byte	0x1e
 14511 1523 36       		.byte	0x36
 14512 1524 1C       		.byte	0x1c
 14513 1525 9F       		.byte	0x9f
 14514 1526 60000000 		.4byte	.LVL51
 14515 152a 62000000 		.4byte	.LVL52
 14516 152e 0700     		.2byte	0x7
 14517 1530 74       		.byte	0x74
 14518 1531 00       		.sleb128 0
 14519 1532 33       		.byte	0x33
 14520 1533 1E       		.byte	0x1e
 14521 1534 33       		.byte	0x33
 14522 1535 1C       		.byte	0x1c
 14523 1536 9F       		.byte	0x9f
 14524 1537 6A000000 		.4byte	.LVL53
 14525 153b 44010000 		.4byte	.LFE49
 14526 153f 0700     		.2byte	0x7
 14527 1541 74       		.byte	0x74
 14528 1542 00       		.sleb128 0
 14529 1543 33       		.byte	0x33
 14530 1544 1E       		.byte	0x1e
ARM GAS  C:\Users\EBANO_~1\AppData\Local\Temp\cc2nkIni.s 			page 285


 14531 1545 36       		.byte	0x36
 14532 1546 1C       		.byte	0x1c
 14533 1547 9F       		.byte	0x9f
 14534 1548 00000000 		.4byte	0
 14535 154c 00000000 		.4byte	0
 14536              	.LLST18:
 14537 1550 3E000000 		.4byte	.LVL47
 14538 1554 40000000 		.4byte	.LVL48
 14539 1558 0100     		.2byte	0x1
 14540 155a 53       		.byte	0x53
 14541 155b 40000000 		.4byte	.LVL48
 14542 155f 60000000 		.4byte	.LVL51
 14543 1563 0100     		.2byte	0x1
 14544 1565 58       		.byte	0x58
 14545 1566 60000000 		.4byte	.LVL51
 14546 156a 62000000 		.4byte	.LVL52
 14547 156e 0300     		.2byte	0x3
 14548 1570 74       		.byte	0x74
 14549 1571 01       		.sleb128 1
 14550 1572 9F       		.byte	0x9f
 14551 1573 6A000000 		.4byte	.LVL53
 14552 1577 76000000 		.4byte	.LVL54
 14553 157b 0100     		.2byte	0x1
 14554 157d 53       		.byte	0x53
 14555 157e 76000000 		.4byte	.LVL54
 14556 1582 AE000000 		.4byte	.LVL57
 14557 1586 0100     		.2byte	0x1
 14558 1588 58       		.byte	0x58
 14559 1589 AE000000 		.4byte	.LVL57
 14560 158d 44010000 		.4byte	.LFE49
 14561 1591 0100     		.2byte	0x1
 14562 1593 54       		.byte	0x54
 14563 1594 00000000 		.4byte	0
 14564 1598 00000000 		.4byte	0
 14565              	.LLST19:
 14566 159c 48000000 		.4byte	.LVL49
 14567 15a0 60000000 		.4byte	.LVL51
 14568 15a4 0600     		.2byte	0x6
 14569 15a6 F2       		.byte	0xf2
 14570 15a7 322D0000 		.4byte	.Ldebug_info0+11570
 14571 15ab 00       		.sleb128 0
 14572 15ac 00000000 		.4byte	0
 14573 15b0 00000000 		.4byte	0
 14574              	.LLST20:
 14575 15b4 48000000 		.4byte	.LVL49
 14576 15b8 60000000 		.4byte	.LVL51
 14577 15bc 0100     		.2byte	0x1
 14578 15be 58       		.byte	0x58
 14579 15bf 00000000 		.4byte	0
 14580 15c3 00000000 		.4byte	0
 14581              	.LLST21:
 14582 15c7 9E000000 		.4byte	.LVL55
 14583 15cb AE000000 		.4byte	.LVL57
 14584 15cf 0200     		.2byte	0x2
 14585 15d1 30       		.byte	0x30
 14586 15d2 9F       		.byte	0x9f
 14587 15d3 AE000000 		.4byte	.LVL57
ARM GAS  C:\Users\EBANO_~1\AppData\Local\Temp\cc2nkIni.s 			page 286


 14588 15d7 CE000000 		.4byte	.LVL59
 14589 15db 0700     		.2byte	0x7
 14590 15dd 78       		.byte	0x78
 14591 15de 00       		.sleb128 0
 14592 15df 48       		.byte	0x48
 14593 15e0 24       		.byte	0x24
 14594 15e1 30       		.byte	0x30
 14595 15e2 29       		.byte	0x29
 14596 15e3 9F       		.byte	0x9f
 14597 15e4 CE000000 		.4byte	.LVL59
 14598 15e8 2A010000 		.4byte	.LVL63
 14599 15ec 0100     		.2byte	0x1
 14600 15ee 59       		.byte	0x59
 14601 15ef 2A010000 		.4byte	.LVL63
 14602 15f3 44010000 		.4byte	.LFE49
 14603 15f7 0200     		.2byte	0x2
 14604 15f9 31       		.byte	0x31
 14605 15fa 9F       		.byte	0x9f
 14606 15fb 00000000 		.4byte	0
 14607 15ff 00000000 		.4byte	0
 14608              	.LLST22:
 14609 1603 9E000000 		.4byte	.LVL55
 14610 1607 AE000000 		.4byte	.LVL57
 14611 160b 0100     		.2byte	0x1
 14612 160d 58       		.byte	0x58
 14613 160e AE000000 		.4byte	.LVL57
 14614 1612 44010000 		.4byte	.LFE49
 14615 1616 0100     		.2byte	0x1
 14616 1618 54       		.byte	0x54
 14617 1619 00000000 		.4byte	0
 14618 161d 00000000 		.4byte	0
 14619              	.LLST23:
 14620 1621 E8000000 		.4byte	.LVL60
 14621 1625 EB000000 		.4byte	.LVL61-1
 14622 1629 0200     		.2byte	0x2
 14623 162b 75       		.byte	0x75
 14624 162c 00       		.sleb128 0
 14625 162d 2A010000 		.4byte	.LVL63
 14626 1631 2D010000 		.4byte	.LVL64-1
 14627 1635 0200     		.2byte	0x2
 14628 1637 75       		.byte	0x75
 14629 1638 00       		.sleb128 0
 14630 1639 00000000 		.4byte	0
 14631 163d 00000000 		.4byte	0
 14632              	.LLST12:
 14633 1641 00000000 		.4byte	.LFB48
 14634 1645 06000000 		.4byte	.LCFI5
 14635 1649 0200     		.2byte	0x2
 14636 164b 7D       		.byte	0x7d
 14637 164c 00       		.sleb128 0
 14638 164d 06000000 		.4byte	.LCFI5
 14639 1651 7C000000 		.4byte	.LFE48
 14640 1655 0200     		.2byte	0x2
 14641 1657 7D       		.byte	0x7d
 14642 1658 08       		.sleb128 8
 14643 1659 00000000 		.4byte	0
 14644 165d 00000000 		.4byte	0
ARM GAS  C:\Users\EBANO_~1\AppData\Local\Temp\cc2nkIni.s 			page 287


 14645              	.LLST13:
 14646 1661 00000000 		.4byte	.LVL28
 14647 1665 14000000 		.4byte	.LVL30
 14648 1669 0100     		.2byte	0x1
 14649 166b 50       		.byte	0x50
 14650 166c 14000000 		.4byte	.LVL30
 14651 1670 26000000 		.4byte	.LVL32
 14652 1674 0400     		.2byte	0x4
 14653 1676 F3       		.byte	0xf3
 14654 1677 01       		.uleb128 0x1
 14655 1678 50       		.byte	0x50
 14656 1679 9F       		.byte	0x9f
 14657 167a 26000000 		.4byte	.LVL32
 14658 167e 32000000 		.4byte	.LVL33
 14659 1682 0100     		.2byte	0x1
 14660 1684 50       		.byte	0x50
 14661 1685 32000000 		.4byte	.LVL33
 14662 1689 42000000 		.4byte	.LVL35
 14663 168d 0400     		.2byte	0x4
 14664 168f F3       		.byte	0xf3
 14665 1690 01       		.uleb128 0x1
 14666 1691 50       		.byte	0x50
 14667 1692 9F       		.byte	0x9f
 14668 1693 42000000 		.4byte	.LVL35
 14669 1697 44000000 		.4byte	.LVL36
 14670 169b 0100     		.2byte	0x1
 14671 169d 50       		.byte	0x50
 14672 169e 44000000 		.4byte	.LVL36
 14673 16a2 56000000 		.4byte	.LVL38
 14674 16a6 0400     		.2byte	0x4
 14675 16a8 F3       		.byte	0xf3
 14676 16a9 01       		.uleb128 0x1
 14677 16aa 50       		.byte	0x50
 14678 16ab 9F       		.byte	0x9f
 14679 16ac 56000000 		.4byte	.LVL38
 14680 16b0 62000000 		.4byte	.LVL39
 14681 16b4 0100     		.2byte	0x1
 14682 16b6 50       		.byte	0x50
 14683 16b7 62000000 		.4byte	.LVL39
 14684 16bb 72000000 		.4byte	.LVL41
 14685 16bf 0400     		.2byte	0x4
 14686 16c1 F3       		.byte	0xf3
 14687 16c2 01       		.uleb128 0x1
 14688 16c3 50       		.byte	0x50
 14689 16c4 9F       		.byte	0x9f
 14690 16c5 72000000 		.4byte	.LVL41
 14691 16c9 74000000 		.4byte	.LVL42
 14692 16cd 0100     		.2byte	0x1
 14693 16cf 50       		.byte	0x50
 14694 16d0 74000000 		.4byte	.LVL42
 14695 16d4 7C000000 		.4byte	.LFE48
 14696 16d8 0400     		.2byte	0x4
 14697 16da F3       		.byte	0xf3
 14698 16db 01       		.uleb128 0x1
 14699 16dc 50       		.byte	0x50
 14700 16dd 9F       		.byte	0x9f
 14701 16de 00000000 		.4byte	0
ARM GAS  C:\Users\EBANO_~1\AppData\Local\Temp\cc2nkIni.s 			page 288


 14702 16e2 00000000 		.4byte	0
 14703              	.LLST14:
 14704 16e6 00000000 		.4byte	.LVL28
 14705 16ea 02000000 		.4byte	.LVL29
 14706 16ee 0100     		.2byte	0x1
 14707 16f0 51       		.byte	0x51
 14708 16f1 02000000 		.4byte	.LVL29
 14709 16f5 7C000000 		.4byte	.LFE48
 14710 16f9 0400     		.2byte	0x4
 14711 16fb F3       		.byte	0xf3
 14712 16fc 01       		.uleb128 0x1
 14713 16fd 51       		.byte	0x51
 14714 16fe 9F       		.byte	0x9f
 14715 16ff 00000000 		.4byte	0
 14716 1703 00000000 		.4byte	0
 14717              	.LLST11:
 14718 1707 00000000 		.4byte	.LVL26
 14719 170b 06000000 		.4byte	.LVL27
 14720 170f 0100     		.2byte	0x1
 14721 1711 50       		.byte	0x50
 14722 1712 06000000 		.4byte	.LVL27
 14723 1716 0C000000 		.4byte	.LFE47
 14724 171a 0400     		.2byte	0x4
 14725 171c F3       		.byte	0xf3
 14726 171d 01       		.uleb128 0x1
 14727 171e 50       		.byte	0x50
 14728 171f 9F       		.byte	0x9f
 14729 1720 00000000 		.4byte	0
 14730 1724 00000000 		.4byte	0
 14731              	.LLST9:
 14732 1728 00000000 		.4byte	.LFB46
 14733 172c 02000000 		.4byte	.LCFI3
 14734 1730 0200     		.2byte	0x2
 14735 1732 7D       		.byte	0x7d
 14736 1733 00       		.sleb128 0
 14737 1734 02000000 		.4byte	.LCFI3
 14738 1738 04000000 		.4byte	.LCFI4
 14739 173c 0200     		.2byte	0x2
 14740 173e 7D       		.byte	0x7d
 14741 173f 14       		.sleb128 20
 14742 1740 04000000 		.4byte	.LCFI4
 14743 1744 88000000 		.4byte	.LFE46
 14744 1748 0200     		.2byte	0x2
 14745 174a 7D       		.byte	0x7d
 14746 174b 28       		.sleb128 40
 14747 174c 00000000 		.4byte	0
 14748 1750 00000000 		.4byte	0
 14749              	.LLST10:
 14750 1754 00000000 		.4byte	.LVL17
 14751 1758 2C000000 		.4byte	.LVL18
 14752 175c 0100     		.2byte	0x1
 14753 175e 50       		.byte	0x50
 14754 175f 2C000000 		.4byte	.LVL18
 14755 1763 34000000 		.4byte	.LVL20
 14756 1767 0400     		.2byte	0x4
 14757 1769 F3       		.byte	0xf3
 14758 176a 01       		.uleb128 0x1
ARM GAS  C:\Users\EBANO_~1\AppData\Local\Temp\cc2nkIni.s 			page 289


 14759 176b 50       		.byte	0x50
 14760 176c 9F       		.byte	0x9f
 14761 176d 34000000 		.4byte	.LVL20
 14762 1771 3A000000 		.4byte	.LVL21
 14763 1775 0100     		.2byte	0x1
 14764 1777 50       		.byte	0x50
 14765 1778 3A000000 		.4byte	.LVL21
 14766 177c 6C000000 		.4byte	.LVL24
 14767 1780 0400     		.2byte	0x4
 14768 1782 F3       		.byte	0xf3
 14769 1783 01       		.uleb128 0x1
 14770 1784 50       		.byte	0x50
 14771 1785 9F       		.byte	0x9f
 14772 1786 6C000000 		.4byte	.LVL24
 14773 178a 70000000 		.4byte	.LVL25
 14774 178e 0100     		.2byte	0x1
 14775 1790 50       		.byte	0x50
 14776 1791 70000000 		.4byte	.LVL25
 14777 1795 88000000 		.4byte	.LFE46
 14778 1799 0400     		.2byte	0x4
 14779 179b F3       		.byte	0xf3
 14780 179c 01       		.uleb128 0x1
 14781 179d 50       		.byte	0x50
 14782 179e 9F       		.byte	0x9f
 14783 179f 00000000 		.4byte	0
 14784 17a3 00000000 		.4byte	0
 14785              	.LLST7:
 14786 17a7 00000000 		.4byte	.LFB45
 14787 17ab 04000000 		.4byte	.LCFI2
 14788 17af 0200     		.2byte	0x2
 14789 17b1 7D       		.byte	0x7d
 14790 17b2 00       		.sleb128 0
 14791 17b3 04000000 		.4byte	.LCFI2
 14792 17b7 24000000 		.4byte	.LFE45
 14793 17bb 0200     		.2byte	0x2
 14794 17bd 7D       		.byte	0x7d
 14795 17be 08       		.sleb128 8
 14796 17bf 00000000 		.4byte	0
 14797 17c3 00000000 		.4byte	0
 14798              	.LLST8:
 14799 17c7 00000000 		.4byte	.LVL14
 14800 17cb 1A000000 		.4byte	.LVL15
 14801 17cf 0100     		.2byte	0x1
 14802 17d1 50       		.byte	0x50
 14803 17d2 1A000000 		.4byte	.LVL15
 14804 17d6 24000000 		.4byte	.LFE45
 14805 17da 0400     		.2byte	0x4
 14806 17dc F3       		.byte	0xf3
 14807 17dd 01       		.uleb128 0x1
 14808 17de 50       		.byte	0x50
 14809 17df 9F       		.byte	0x9f
 14810 17e0 00000000 		.4byte	0
 14811 17e4 00000000 		.4byte	0
 14812              	.LLST0:
 14813 17e8 00000000 		.4byte	.LFB44
 14814 17ec 04000000 		.4byte	.LCFI0
 14815 17f0 0200     		.2byte	0x2
ARM GAS  C:\Users\EBANO_~1\AppData\Local\Temp\cc2nkIni.s 			page 290


 14816 17f2 7D       		.byte	0x7d
 14817 17f3 00       		.sleb128 0
 14818 17f4 04000000 		.4byte	.LCFI0
 14819 17f8 06000000 		.4byte	.LCFI1
 14820 17fc 0200     		.2byte	0x2
 14821 17fe 7D       		.byte	0x7d
 14822 17ff 04       		.sleb128 4
 14823 1800 06000000 		.4byte	.LCFI1
 14824 1804 50010000 		.4byte	.LFE44
 14825 1808 0200     		.2byte	0x2
 14826 180a 7D       		.byte	0x7d
 14827 180b 10       		.sleb128 16
 14828 180c 00000000 		.4byte	0
 14829 1810 00000000 		.4byte	0
 14830              	.LLST1:
 14831 1814 00000000 		.4byte	.LVL0
 14832 1818 28000000 		.4byte	.LVL1
 14833 181c 0100     		.2byte	0x1
 14834 181e 50       		.byte	0x50
 14835 181f 28000000 		.4byte	.LVL1
 14836 1823 2E000000 		.4byte	.LVL2
 14837 1827 0400     		.2byte	0x4
 14838 1829 F3       		.byte	0xf3
 14839 182a 01       		.uleb128 0x1
 14840 182b 50       		.byte	0x50
 14841 182c 9F       		.byte	0x9f
 14842 182d 2E000000 		.4byte	.LVL2
 14843 1831 7E000000 		.4byte	.LVL7
 14844 1835 0100     		.2byte	0x1
 14845 1837 50       		.byte	0x50
 14846 1838 7E000000 		.4byte	.LVL7
 14847 183c 90000000 		.4byte	.LVL9
 14848 1840 0400     		.2byte	0x4
 14849 1842 F3       		.byte	0xf3
 14850 1843 01       		.uleb128 0x1
 14851 1844 50       		.byte	0x50
 14852 1845 9F       		.byte	0x9f
 14853 1846 90000000 		.4byte	.LVL9
 14854 184a 50010000 		.4byte	.LFE44
 14855 184e 0100     		.2byte	0x1
 14856 1850 50       		.byte	0x50
 14857 1851 00000000 		.4byte	0
 14858 1855 00000000 		.4byte	0
 14859              	.LLST2:
 14860 1859 62000000 		.4byte	.LVL3
 14861 185d 6A000000 		.4byte	.LVL6
 14862 1861 0200     		.2byte	0x2
 14863 1863 30       		.byte	0x30
 14864 1864 9F       		.byte	0x9f
 14865 1865 00000000 		.4byte	0
 14866 1869 00000000 		.4byte	0
 14867              	.LLST3:
 14868 186d 62000000 		.4byte	.LVL3
 14869 1871 6A000000 		.4byte	.LVL6
 14870 1875 0200     		.2byte	0x2
 14871 1877 70       		.byte	0x70
 14872 1878 01       		.sleb128 1
ARM GAS  C:\Users\EBANO_~1\AppData\Local\Temp\cc2nkIni.s 			page 291


 14873 1879 00000000 		.4byte	0
 14874 187d 00000000 		.4byte	0
 14875              	.LLST4:
 14876 1881 62000000 		.4byte	.LVL3
 14877 1885 66000000 		.4byte	.LVL4
 14878 1889 0200     		.2byte	0x2
 14879 188b 30       		.byte	0x30
 14880 188c 9F       		.byte	0x9f
 14881 188d 66000000 		.4byte	.LVL4
 14882 1891 68000000 		.4byte	.LVL5
 14883 1895 0300     		.2byte	0x3
 14884 1897 73       		.byte	0x73
 14885 1898 7F       		.sleb128 -1
 14886 1899 9F       		.byte	0x9f
 14887 189a 68000000 		.4byte	.LVL5
 14888 189e 6A000000 		.4byte	.LVL6
 14889 18a2 0300     		.2byte	0x3
 14890 18a4 73       		.byte	0x73
 14891 18a5 00       		.sleb128 0
 14892 18a6 9F       		.byte	0x9f
 14893 18a7 00000000 		.4byte	0
 14894 18ab 00000000 		.4byte	0
 14895              	.LLST5:
 14896 18af 10010000 		.4byte	.LVL10
 14897 18b3 1A010000 		.4byte	.LVL13
 14898 18b7 0200     		.2byte	0x2
 14899 18b9 70       		.byte	0x70
 14900 18ba 01       		.sleb128 1
 14901 18bb 00000000 		.4byte	0
 14902 18bf 00000000 		.4byte	0
 14903              	.LLST6:
 14904 18c3 10010000 		.4byte	.LVL10
 14905 18c7 14010000 		.4byte	.LVL11
 14906 18cb 0200     		.2byte	0x2
 14907 18cd 30       		.byte	0x30
 14908 18ce 9F       		.byte	0x9f
 14909 18cf 14010000 		.4byte	.LVL11
 14910 18d3 16010000 		.4byte	.LVL12
 14911 18d7 0300     		.2byte	0x3
 14912 18d9 73       		.byte	0x73
 14913 18da 7F       		.sleb128 -1
 14914 18db 9F       		.byte	0x9f
 14915 18dc 00000000 		.4byte	0
 14916 18e0 00000000 		.4byte	0
 14917              	.LLST103:
 14918 18e4 00000000 		.4byte	.LFB62
 14919 18e8 02000000 		.4byte	.LCFI34
 14920 18ec 0200     		.2byte	0x2
 14921 18ee 7D       		.byte	0x7d
 14922 18ef 00       		.sleb128 0
 14923 18f0 02000000 		.4byte	.LCFI34
 14924 18f4 06000000 		.4byte	.LCFI35
 14925 18f8 0200     		.2byte	0x2
 14926 18fa 7D       		.byte	0x7d
 14927 18fb 14       		.sleb128 20
 14928 18fc 06000000 		.4byte	.LCFI35
 14929 1900 D8000000 		.4byte	.LFE62
ARM GAS  C:\Users\EBANO_~1\AppData\Local\Temp\cc2nkIni.s 			page 292


 14930 1904 0200     		.2byte	0x2
 14931 1906 7D       		.byte	0x7d
 14932 1907 20       		.sleb128 32
 14933 1908 00000000 		.4byte	0
 14934 190c 00000000 		.4byte	0
 14935              	.LLST104:
 14936 1910 00000000 		.4byte	.LVL310
 14937 1914 0E000000 		.4byte	.LVL312
 14938 1918 0100     		.2byte	0x1
 14939 191a 50       		.byte	0x50
 14940 191b 0E000000 		.4byte	.LVL312
 14941 191f 68000000 		.4byte	.LVL321
 14942 1923 0100     		.2byte	0x1
 14943 1925 54       		.byte	0x54
 14944 1926 68000000 		.4byte	.LVL321
 14945 192a 6C000000 		.4byte	.LVL323
 14946 192e 0400     		.2byte	0x4
 14947 1930 F3       		.byte	0xf3
 14948 1931 01       		.uleb128 0x1
 14949 1932 50       		.byte	0x50
 14950 1933 9F       		.byte	0x9f
 14951 1934 6C000000 		.4byte	.LVL323
 14952 1938 A4000000 		.4byte	.LVL330
 14953 193c 0100     		.2byte	0x1
 14954 193e 54       		.byte	0x54
 14955 193f A4000000 		.4byte	.LVL330
 14956 1943 D8000000 		.4byte	.LFE62
 14957 1947 0400     		.2byte	0x4
 14958 1949 F3       		.byte	0xf3
 14959 194a 01       		.uleb128 0x1
 14960 194b 50       		.byte	0x50
 14961 194c 9F       		.byte	0x9f
 14962 194d 00000000 		.4byte	0
 14963 1951 00000000 		.4byte	0
 14964              	.LLST105:
 14965 1955 00000000 		.4byte	.LVL310
 14966 1959 24000000 		.4byte	.LVL314
 14967 195d 0200     		.2byte	0x2
 14968 195f 30       		.byte	0x30
 14969 1960 9F       		.byte	0x9f
 14970 1961 24000000 		.4byte	.LVL314
 14971 1965 3E000000 		.4byte	.LVL316
 14972 1969 0700     		.2byte	0x7
 14973 196b 76       		.byte	0x76
 14974 196c 00       		.sleb128 0
 14975 196d 48       		.byte	0x48
 14976 196e 24       		.byte	0x24
 14977 196f 30       		.byte	0x30
 14978 1970 29       		.byte	0x29
 14979 1971 9F       		.byte	0x9f
 14980 1972 40000000 		.4byte	.LVL317
 14981 1976 68000000 		.4byte	.LVL321
 14982 197a 0100     		.2byte	0x1
 14983 197c 57       		.byte	0x57
 14984 197d 6C000000 		.4byte	.LVL323
 14985 1981 80000000 		.4byte	.LVL325
 14986 1985 0200     		.2byte	0x2
ARM GAS  C:\Users\EBANO_~1\AppData\Local\Temp\cc2nkIni.s 			page 293


 14987 1987 31       		.byte	0x31
 14988 1988 9F       		.byte	0x9f
 14989 1989 84000000 		.4byte	.LVL326
 14990 198d 98000000 		.4byte	.LVL328
 14991 1991 0100     		.2byte	0x1
 14992 1993 57       		.byte	0x57
 14993 1994 9C000000 		.4byte	.LVL329
 14994 1998 D8000000 		.4byte	.LFE62
 14995 199c 0100     		.2byte	0x1
 14996 199e 57       		.byte	0x57
 14997 199f 00000000 		.4byte	0
 14998 19a3 00000000 		.4byte	0
 14999              	.LLST106:
 15000 19a7 00000000 		.4byte	.LVL310
 15001 19ab 62000000 		.4byte	.LVL320
 15002 19af 0200     		.2byte	0x2
 15003 19b1 30       		.byte	0x30
 15004 19b2 9F       		.byte	0x9f
 15005 19b3 62000000 		.4byte	.LVL320
 15006 19b7 68000000 		.4byte	.LVL321
 15007 19bb 0200     		.2byte	0x2
 15008 19bd 31       		.byte	0x31
 15009 19be 9F       		.byte	0x9f
 15010 19bf 6C000000 		.4byte	.LVL323
 15011 19c3 80000000 		.4byte	.LVL325
 15012 19c7 0200     		.2byte	0x2
 15013 19c9 30       		.byte	0x30
 15014 19ca 9F       		.byte	0x9f
 15015 19cb 84000000 		.4byte	.LVL326
 15016 19cf 90000000 		.4byte	.LVL327
 15017 19d3 0200     		.2byte	0x2
 15018 19d5 30       		.byte	0x30
 15019 19d6 9F       		.byte	0x9f
 15020 19d7 90000000 		.4byte	.LVL327
 15021 19db 98000000 		.4byte	.LVL328
 15022 19df 0200     		.2byte	0x2
 15023 19e1 31       		.byte	0x31
 15024 19e2 9F       		.byte	0x9f
 15025 19e3 98000000 		.4byte	.LVL328
 15026 19e7 D8000000 		.4byte	.LFE62
 15027 19eb 0200     		.2byte	0x2
 15028 19ed 30       		.byte	0x30
 15029 19ee 9F       		.byte	0x9f
 15030 19ef 00000000 		.4byte	0
 15031 19f3 00000000 		.4byte	0
 15032              	.LLST107:
 15033 19f7 04000000 		.4byte	.LVL311
 15034 19fb 6A000000 		.4byte	.LVL322
 15035 19ff 0100     		.2byte	0x1
 15036 1a01 55       		.byte	0x55
 15037 1a02 6C000000 		.4byte	.LVL323
 15038 1a06 D8000000 		.4byte	.LFE62
 15039 1a0a 0100     		.2byte	0x1
 15040 1a0c 55       		.byte	0x55
 15041 1a0d 00000000 		.4byte	0
 15042 1a11 00000000 		.4byte	0
 15043              	.LLST108:
ARM GAS  C:\Users\EBANO_~1\AppData\Local\Temp\cc2nkIni.s 			page 294


 15044 1a15 5A000000 		.4byte	.LVL318
 15045 1a19 5D000000 		.4byte	.LVL319-1
 15046 1a1d 0300     		.2byte	0x3
 15047 1a1f 74       		.byte	0x74
 15048 1a20 00       		.sleb128 0
 15049 1a21 06       		.byte	0x6
 15050 1a22 6C000000 		.4byte	.LVL323
 15051 1a26 6F000000 		.4byte	.LVL324-1
 15052 1a2a 0300     		.2byte	0x3
 15053 1a2c 74       		.byte	0x74
 15054 1a2d 00       		.sleb128 0
 15055 1a2e 06       		.byte	0x6
 15056 1a2f 00000000 		.4byte	0
 15057 1a33 00000000 		.4byte	0
 15058              	.LLST109:
 15059 1a37 00000000 		.4byte	.LFB63
 15060 1a3b 02000000 		.4byte	.LCFI36
 15061 1a3f 0200     		.2byte	0x2
 15062 1a41 7D       		.byte	0x7d
 15063 1a42 00       		.sleb128 0
 15064 1a43 02000000 		.4byte	.LCFI36
 15065 1a47 30000000 		.4byte	.LFE63
 15066 1a4b 0200     		.2byte	0x2
 15067 1a4d 7D       		.byte	0x7d
 15068 1a4e 10       		.sleb128 16
 15069 1a4f 00000000 		.4byte	0
 15070 1a53 00000000 		.4byte	0
 15071              	.LLST110:
 15072 1a57 00000000 		.4byte	.LVL332
 15073 1a5b 06000000 		.4byte	.LVL334
 15074 1a5f 0100     		.2byte	0x1
 15075 1a61 50       		.byte	0x50
 15076 1a62 06000000 		.4byte	.LVL334
 15077 1a66 30000000 		.4byte	.LFE63
 15078 1a6a 0400     		.2byte	0x4
 15079 1a6c F3       		.byte	0xf3
 15080 1a6d 01       		.uleb128 0x1
 15081 1a6e 50       		.byte	0x50
 15082 1a6f 9F       		.byte	0x9f
 15083 1a70 00000000 		.4byte	0
 15084 1a74 00000000 		.4byte	0
 15085              	.LLST111:
 15086 1a78 04000000 		.4byte	.LVL333
 15087 1a7c 28000000 		.4byte	.LVL337
 15088 1a80 0100     		.2byte	0x1
 15089 1a82 54       		.byte	0x54
 15090 1a83 00000000 		.4byte	0
 15091 1a87 00000000 		.4byte	0
 15092              		.section	.debug_aranges,"",%progbits
 15093 0000 CC000000 		.4byte	0xcc
 15094 0004 0200     		.2byte	0x2
 15095 0006 00000000 		.4byte	.Ldebug_info0
 15096 000a 04       		.byte	0x4
 15097 000b 00       		.byte	0
 15098 000c 0000     		.2byte	0
 15099 000e 0000     		.2byte	0
 15100 0010 00000000 		.4byte	.LFB44
ARM GAS  C:\Users\EBANO_~1\AppData\Local\Temp\cc2nkIni.s 			page 295


 15101 0014 50010000 		.4byte	.LFE44-.LFB44
 15102 0018 00000000 		.4byte	.LFB45
 15103 001c 24000000 		.4byte	.LFE45-.LFB45
 15104 0020 00000000 		.4byte	.LFB46
 15105 0024 88000000 		.4byte	.LFE46-.LFB46
 15106 0028 00000000 		.4byte	.LFB47
 15107 002c 0C000000 		.4byte	.LFE47-.LFB47
 15108 0030 00000000 		.4byte	.LFB48
 15109 0034 7C000000 		.4byte	.LFE48-.LFB48
 15110 0038 00000000 		.4byte	.LFB49
 15111 003c 44010000 		.4byte	.LFE49-.LFB49
 15112 0040 00000000 		.4byte	.LFB50
 15113 0044 34000000 		.4byte	.LFE50-.LFB50
 15114 0048 00000000 		.4byte	.LFB51
 15115 004c 94000000 		.4byte	.LFE51-.LFB51
 15116 0050 00000000 		.4byte	.LFB52
 15117 0054 0C010000 		.4byte	.LFE52-.LFB52
 15118 0058 00000000 		.4byte	.LFB53
 15119 005c 3C010000 		.4byte	.LFE53-.LFB53
 15120 0060 00000000 		.4byte	.LFB54
 15121 0064 0C030000 		.4byte	.LFE54-.LFB54
 15122 0068 00000000 		.4byte	.LFB55
 15123 006c 64000000 		.4byte	.LFE55-.LFB55
 15124 0070 00000000 		.4byte	.LFB56
 15125 0074 04010000 		.4byte	.LFE56-.LFB56
 15126 0078 00000000 		.4byte	.LFB57
 15127 007c 04000000 		.4byte	.LFE57-.LFB57
 15128 0080 00000000 		.4byte	.LFB58
 15129 0084 70000000 		.4byte	.LFE58-.LFB58
 15130 0088 00000000 		.4byte	.LFB59
 15131 008c 04000000 		.4byte	.LFE59-.LFB59
 15132 0090 00000000 		.4byte	.LFB60
 15133 0094 34000000 		.4byte	.LFE60-.LFB60
 15134 0098 00000000 		.4byte	.LFB61
 15135 009c 08020000 		.4byte	.LFE61-.LFB61
 15136 00a0 00000000 		.4byte	.LFB62
 15137 00a4 D8000000 		.4byte	.LFE62-.LFB62
 15138 00a8 00000000 		.4byte	.LFB63
 15139 00ac 30000000 		.4byte	.LFE63-.LFB63
 15140 00b0 00000000 		.4byte	.LFB64
 15141 00b4 50000000 		.4byte	.LFE64-.LFB64
 15142 00b8 00000000 		.4byte	.LFB65
 15143 00bc 28000000 		.4byte	.LFE65-.LFB65
 15144 00c0 00000000 		.4byte	.LFB66
 15145 00c4 38000000 		.4byte	.LFE66-.LFB66
 15146 00c8 00000000 		.4byte	0
 15147 00cc 00000000 		.4byte	0
 15148              		.section	.debug_ranges,"",%progbits
 15149              	.Ldebug_ranges0:
 15150 0000 F6000000 		.4byte	.LBB24
 15151 0004 F8000000 		.4byte	.LBE24
 15152 0008 10010000 		.4byte	.LBB27
 15153 000c 18010000 		.4byte	.LBE27
 15154 0010 00000000 		.4byte	0
 15155 0014 00000000 		.4byte	0
 15156 0018 32000000 		.4byte	.LBB35
 15157 001c 34000000 		.4byte	.LBE35
ARM GAS  C:\Users\EBANO_~1\AppData\Local\Temp\cc2nkIni.s 			page 296


 15158 0020 36000000 		.4byte	.LBB50
 15159 0024 44010000 		.4byte	.LBE50
 15160 0028 00000000 		.4byte	0
 15161 002c 00000000 		.4byte	0
 15162 0030 32000000 		.4byte	.LBB36
 15163 0034 34000000 		.4byte	.LBE36
 15164 0038 36000000 		.4byte	.LBB40
 15165 003c 3E000000 		.4byte	.LBE40
 15166 0040 48000000 		.4byte	.LBB41
 15167 0044 62000000 		.4byte	.LBE41
 15168 0048 00000000 		.4byte	0
 15169 004c 00000000 		.4byte	0
 15170 0050 D6000000 		.4byte	.LBB44
 15171 0054 DA000000 		.4byte	.LBE44
 15172 0058 E8000000 		.4byte	.LBB48
 15173 005c FA000000 		.4byte	.LBE48
 15174 0060 2A010000 		.4byte	.LBB49
 15175 0064 44010000 		.4byte	.LBE49
 15176 0068 00000000 		.4byte	0
 15177 006c 00000000 		.4byte	0
 15178 0070 18000000 		.4byte	.LBB51
 15179 0074 1C000000 		.4byte	.LBE51
 15180 0078 1E000000 		.4byte	.LBB55
 15181 007c 32000000 		.4byte	.LBE55
 15182 0080 70000000 		.4byte	.LBB56
 15183 0084 72000000 		.4byte	.LBE56
 15184 0088 00000000 		.4byte	0
 15185 008c 00000000 		.4byte	0
 15186 0090 28000000 		.4byte	.LBB57
 15187 0094 2A000000 		.4byte	.LBE57
 15188 0098 2C000000 		.4byte	.LBB63
 15189 009c 30000000 		.4byte	.LBE63
 15190 00a0 34000000 		.4byte	.LBB64
 15191 00a4 36000000 		.4byte	.LBE64
 15192 00a8 3C000000 		.4byte	.LBB65
 15193 00ac 4A000000 		.4byte	.LBE65
 15194 00b0 4C000000 		.4byte	.LBB70
 15195 00b4 4E000000 		.4byte	.LBE70
 15196 00b8 00000000 		.4byte	0
 15197 00bc 00000000 		.4byte	0
 15198 00c0 4A000000 		.4byte	.LBB66
 15199 00c4 4C000000 		.4byte	.LBE66
 15200 00c8 4E000000 		.4byte	.LBB71
 15201 00cc 64000000 		.4byte	.LBE71
 15202 00d0 E4000000 		.4byte	.LBB72
 15203 00d4 EA000000 		.4byte	.LBE72
 15204 00d8 00000000 		.4byte	0
 15205 00dc 00000000 		.4byte	0
 15206 00e0 22000000 		.4byte	.LBB73
 15207 00e4 28000000 		.4byte	.LBE73
 15208 00e8 5C000000 		.4byte	.LBB74
 15209 00ec 50010000 		.4byte	.LBE74
 15210 00f0 F4010000 		.4byte	.LBB75
 15211 00f4 E0020000 		.4byte	.LBE75
 15212 00f8 F6020000 		.4byte	.LBB76
 15213 00fc 0C030000 		.4byte	.LBE76
 15214 0100 00000000 		.4byte	0
ARM GAS  C:\Users\EBANO_~1\AppData\Local\Temp\cc2nkIni.s 			page 297


 15215 0104 00000000 		.4byte	0
 15216 0108 02000000 		.4byte	.LBB77
 15217 010c 04000000 		.4byte	.LBE77
 15218 0110 06000000 		.4byte	.LBB82
 15219 0114 08000000 		.4byte	.LBE82
 15220 0118 0C000000 		.4byte	.LBB83
 15221 011c 24000000 		.4byte	.LBE83
 15222 0120 52000000 		.4byte	.LBB84
 15223 0124 54000000 		.4byte	.LBE84
 15224 0128 00000000 		.4byte	0
 15225 012c 00000000 		.4byte	0
 15226 0130 46000000 		.4byte	.LBB93
 15227 0134 9C000000 		.4byte	.LBE93
 15228 0138 A0000000 		.4byte	.LBB104
 15229 013c B8000000 		.4byte	.LBE104
 15230 0140 BC000000 		.4byte	.LBB105
 15231 0144 EA000000 		.4byte	.LBE105
 15232 0148 EC000000 		.4byte	.LBB106
 15233 014c F2000000 		.4byte	.LBE106
 15234 0150 00000000 		.4byte	0
 15235 0154 00000000 		.4byte	0
 15236 0158 76000000 		.4byte	.LBB95
 15237 015c 7A000000 		.4byte	.LBE95
 15238 0160 88000000 		.4byte	.LBB99
 15239 0164 9C000000 		.4byte	.LBE99
 15240 0168 A0000000 		.4byte	.LBB100
 15241 016c B4000000 		.4byte	.LBE100
 15242 0170 00000000 		.4byte	0
 15243 0174 00000000 		.4byte	0
 15244 0178 02000000 		.4byte	.LBB107
 15245 017c 04000000 		.4byte	.LBE107
 15246 0180 06000000 		.4byte	.LBB111
 15247 0184 08000000 		.4byte	.LBE111
 15248 0188 0C000000 		.4byte	.LBB112
 15249 018c 2E000000 		.4byte	.LBE112
 15250 0190 00000000 		.4byte	0
 15251 0194 00000000 		.4byte	0
 15252 0198 70000000 		.4byte	.LBB118
 15253 019c EA000000 		.4byte	.LBE118
 15254 01a0 2A010000 		.4byte	.LBB130
 15255 01a4 92010000 		.4byte	.LBE130
 15256 01a8 E6010000 		.4byte	.LBB132
 15257 01ac F6010000 		.4byte	.LBE132
 15258 01b0 00000000 		.4byte	0
 15259 01b4 00000000 		.4byte	0
 15260 01b8 74000000 		.4byte	.LBB120
 15261 01bc EA000000 		.4byte	.LBE120
 15262 01c0 2E010000 		.4byte	.LBB125
 15263 01c4 34010000 		.4byte	.LBE125
 15264 01c8 36010000 		.4byte	.LBB126
 15265 01cc 92010000 		.4byte	.LBE126
 15266 01d0 E6010000 		.4byte	.LBB127
 15267 01d4 F6010000 		.4byte	.LBE127
 15268 01d8 00000000 		.4byte	0
 15269 01dc 00000000 		.4byte	0
 15270 01e0 54000000 		.4byte	.LBB133
 15271 01e4 56000000 		.4byte	.LBE133
ARM GAS  C:\Users\EBANO_~1\AppData\Local\Temp\cc2nkIni.s 			page 298


 15272 01e8 5A000000 		.4byte	.LBB138
 15273 01ec 62000000 		.4byte	.LBE138
 15274 01f0 6C000000 		.4byte	.LBB139
 15275 01f4 80000000 		.4byte	.LBE139
 15276 01f8 84000000 		.4byte	.LBB140
 15277 01fc 90000000 		.4byte	.LBE140
 15278 0200 00000000 		.4byte	0
 15279 0204 00000000 		.4byte	0
 15280 0208 14000000 		.4byte	.LBB141
 15281 020c 16000000 		.4byte	.LBE141
 15282 0210 1C000000 		.4byte	.LBB145
 15283 0214 24000000 		.4byte	.LBE145
 15284 0218 2A000000 		.4byte	.LBB146
 15285 021c 30000000 		.4byte	.LBE146
 15286 0220 00000000 		.4byte	0
 15287 0224 00000000 		.4byte	0
 15288 0228 00000000 		.4byte	.LFB44
 15289 022c 50010000 		.4byte	.LFE44
 15290 0230 00000000 		.4byte	.LFB45
 15291 0234 24000000 		.4byte	.LFE45
 15292 0238 00000000 		.4byte	.LFB46
 15293 023c 88000000 		.4byte	.LFE46
 15294 0240 00000000 		.4byte	.LFB47
 15295 0244 0C000000 		.4byte	.LFE47
 15296 0248 00000000 		.4byte	.LFB48
 15297 024c 7C000000 		.4byte	.LFE48
 15298 0250 00000000 		.4byte	.LFB49
 15299 0254 44010000 		.4byte	.LFE49
 15300 0258 00000000 		.4byte	.LFB50
 15301 025c 34000000 		.4byte	.LFE50
 15302 0260 00000000 		.4byte	.LFB51
 15303 0264 94000000 		.4byte	.LFE51
 15304 0268 00000000 		.4byte	.LFB52
 15305 026c 0C010000 		.4byte	.LFE52
 15306 0270 00000000 		.4byte	.LFB53
 15307 0274 3C010000 		.4byte	.LFE53
 15308 0278 00000000 		.4byte	.LFB54
 15309 027c 0C030000 		.4byte	.LFE54
 15310 0280 00000000 		.4byte	.LFB55
 15311 0284 64000000 		.4byte	.LFE55
 15312 0288 00000000 		.4byte	.LFB56
 15313 028c 04010000 		.4byte	.LFE56
 15314 0290 00000000 		.4byte	.LFB57
 15315 0294 04000000 		.4byte	.LFE57
 15316 0298 00000000 		.4byte	.LFB58
 15317 029c 70000000 		.4byte	.LFE58
 15318 02a0 00000000 		.4byte	.LFB59
 15319 02a4 04000000 		.4byte	.LFE59
 15320 02a8 00000000 		.4byte	.LFB60
 15321 02ac 34000000 		.4byte	.LFE60
 15322 02b0 00000000 		.4byte	.LFB61
 15323 02b4 08020000 		.4byte	.LFE61
 15324 02b8 00000000 		.4byte	.LFB62
 15325 02bc D8000000 		.4byte	.LFE62
 15326 02c0 00000000 		.4byte	.LFB63
 15327 02c4 30000000 		.4byte	.LFE63
 15328 02c8 00000000 		.4byte	.LFB64
ARM GAS  C:\Users\EBANO_~1\AppData\Local\Temp\cc2nkIni.s 			page 299


 15329 02cc 50000000 		.4byte	.LFE64
 15330 02d0 00000000 		.4byte	.LFB65
 15331 02d4 28000000 		.4byte	.LFE65
 15332 02d8 00000000 		.4byte	.LFB66
 15333 02dc 38000000 		.4byte	.LFE66
 15334 02e0 00000000 		.4byte	0
 15335 02e4 00000000 		.4byte	0
 15336              		.section	.debug_line,"",%progbits
 15337              	.Ldebug_line0:
 15338 0000 70090000 		.section	.debug_str,"MS",%progbits,1
 15338      0200B303 
 15338      00000201 
 15338      FB0E0D00 
 15338      01010101 
 15339              	.LASF216:
 15340 0000 52585F53 		.ascii	"RX_SLOT_WIN_CLASS_C\000"
 15340      4C4F545F 
 15340      57494E5F 
 15340      434C4153 
 15340      535F4300 
 15341              	.LASF415:
 15342 0014 73526567 		.ascii	"sRegionCommonLinkAdrReqVerifyParams\000"
 15342      696F6E43 
 15342      6F6D6D6F 
 15342      6E4C696E 
 15342      6B416472 
 15343              	.LASF266:
 15344 0038 5048595F 		.ascii	"PHY_JOIN_ACCEPT_DELAY1\000"
 15344      4A4F494E 
 15344      5F414343 
 15344      4550545F 
 15344      44454C41 
 15345              	.LASF267:
 15346 004f 5048595F 		.ascii	"PHY_JOIN_ACCEPT_DELAY2\000"
 15346      4A4F494E 
 15346      5F414343 
 15346      4550545F 
 15346      44454C41 
 15347              	.LASF313:
 15348 0066 52667531 		.ascii	"Rfu1Size\000"
 15348      53697A65 
 15348      00
 15349              	.LASF141:
 15350 006f 52657669 		.ascii	"Revision\000"
 15350      73696F6E 
 15350      00
 15351              	.LASF529:
 15352 0078 52656769 		.ascii	"RegionAS923SetBandTxDone\000"
 15352      6F6E4153 
 15352      39323353 
 15352      65744261 
 15352      6E645478 
 15353              	.LASF427:
 15354 0091 44617461 		.ascii	"Datarates\000"
 15354      72617465 
 15354      7300
 15355              	.LASF460:
ARM GAS  C:\Users\EBANO_~1\AppData\Local\Temp\cc2nkIni.s 			page 300


 15356 009b 52656769 		.ascii	"RegionAS923ApplyDrOffset\000"
 15356      6F6E4153 
 15356      39323341 
 15356      70706C79 
 15356      44724F66 
 15357              	.LASF1:
 15358 00b4 5F5F7569 		.ascii	"__uint8_t\000"
 15358      6E74385F 
 15358      7400
 15359              	.LASF311:
 15360 00be 73426561 		.ascii	"sBeaconFormat\000"
 15360      636F6E46 
 15360      6F726D61 
 15360      7400
 15361              	.LASF361:
 15362 00cc 5278436F 		.ascii	"RxConfigParams_t\000"
 15362      6E666967 
 15362      50617261 
 15362      6D735F74 
 15362      00
 15363              	.LASF147:
 15364 00dd 5F426F6F 		.ascii	"_Bool\000"
 15364      6C00
 15365              	.LASF79:
 15366 00e3 5F6D6273 		.ascii	"_mbstate\000"
 15366      74617465 
 15366      00
 15367              	.LASF517:
 15368 00ec 6368616E 		.ascii	"chanMaskSet\000"
 15368      4D61736B 
 15368      53657400 
 15369              	.LASF58:
 15370 00f8 5F617465 		.ascii	"_atexit\000"
 15370      78697400 
 15371              	.LASF296:
 15372 0100 5048595F 		.ascii	"PHY_BEACON_FORMAT\000"
 15372      42454143 
 15372      4F4E5F46 
 15372      4F524D41 
 15372      5400
 15373              	.LASF48:
 15374 0112 5F5F746D 		.ascii	"__tm_mon\000"
 15374      5F6D6F6E 
 15374      00
 15375              	.LASF56:
 15376 011b 5F666E74 		.ascii	"_fntypes\000"
 15376      79706573 
 15376      00
 15377              	.LASF86:
 15378 0124 5F696E63 		.ascii	"_inc\000"
 15378      00
 15379              	.LASF59:
 15380 0129 5F696E64 		.ascii	"_ind\000"
 15380      00
 15381              	.LASF195:
 15382 012e 57726974 		.ascii	"WriteBuffer\000"
 15382      65427566 
ARM GAS  C:\Users\EBANO_~1\AppData\Local\Temp\cc2nkIni.s 			page 301


 15382      66657200 
 15383              	.LASF170:
 15384 013a 52784572 		.ascii	"RxError\000"
 15384      726F7200 
 15385              	.LASF18:
 15386 0142 75696E74 		.ascii	"uint16_t\000"
 15386      31365F74 
 15386      00
 15387              	.LASF196:
 15388 014b 52656164 		.ascii	"ReadBuffer\000"
 15388      42756666 
 15388      657200
 15389              	.LASF430:
 15390 0156 52656769 		.ascii	"RegionCommonRxBeaconSetupParams_t\000"
 15390      6F6E436F 
 15390      6D6D6F6E 
 15390      52784265 
 15390      61636F6E 
 15391              	.LASF65:
 15392 0178 5F666C61 		.ascii	"_flags\000"
 15392      677300
 15393              	.LASF503:
 15394 017f 6D6F6465 		.ascii	"modem\000"
 15394      6D00
 15395              	.LASF310:
 15396 0185 4368616E 		.ascii	"ChannelsMask_t\000"
 15396      6E656C73 
 15396      4D61736B 
 15396      5F7400
 15397              	.LASF96:
 15398 0194 5F637674 		.ascii	"_cvtlen\000"
 15398      6C656E00 
 15399              	.LASF230:
 15400 019c 4C4F5241 		.ascii	"LORAMAC_STATUS_NO_NETWORK_JOINED\000"
 15400      4D41435F 
 15400      53544154 
 15400      55535F4E 
 15400      4F5F4E45 
 15401              	.LASF441:
 15402 01bd 52656769 		.ascii	"RegionAS923NvmCtx_t\000"
 15402      6F6E4153 
 15402      3932334E 
 15402      766D4374 
 15402      785F7400 
 15403              	.LASF482:
 15404 01d1 52656769 		.ascii	"RegionAS923NewChannelReq\000"
 15404      6F6E4153 
 15404      3932334E 
 15404      65774368 
 15404      616E6E65 
 15405              	.LASF100:
 15406 01ea 5F736967 		.ascii	"_sig_func\000"
 15406      5F66756E 
 15406      6300
 15407              	.LASF496:
 15408 01f4 67657450 		.ascii	"getPhy\000"
 15408      687900
ARM GAS  C:\Users\EBANO_~1\AppData\Local\Temp\cc2nkIni.s 			page 302


 15409              	.LASF370:
 15410 01fb 41647245 		.ascii	"AdrEnabled\000"
 15410      6E61626C 
 15410      656400
 15411              	.LASF283:
 15412 0206 5048595F 		.ascii	"PHY_BEACON_RESERVED\000"
 15412      42454143 
 15412      4F4E5F52 
 15412      45534552 
 15412      56454400 
 15413              	.LASF393:
 15414 021a 54785469 		.ascii	"TxTimeOnAir\000"
 15414      6D654F6E 
 15414      41697200 
 15415              	.LASF78:
 15416 0226 5F6C6F63 		.ascii	"_lock\000"
 15416      6B00
 15417              	.LASF74:
 15418 022c 5F6E6275 		.ascii	"_nbuf\000"
 15418      6600
 15419              	.LASF133:
 15420 0232 5F756E75 		.ascii	"_unused\000"
 15420      73656400 
 15421              	.LASF486:
 15422 023a 52656769 		.ascii	"RegionAS923LinkAdrReq\000"
 15422      6F6E4153 
 15422      3932334C 
 15422      696E6B41 
 15422      64725265 
 15423              	.LASF548:
 15424 0250 72616E64 		.ascii	"randr\000"
 15424      7200
 15425              	.LASF397:
 15426 0256 4C617374 		.ascii	"LastAggrTx\000"
 15426      41676772 
 15426      547800
 15427              	.LASF398:
 15428 0261 4E657874 		.ascii	"NextChanParams_t\000"
 15428      4368616E 
 15428      50617261 
 15428      6D735F74 
 15428      00
 15429              	.LASF169:
 15430 0272 52785469 		.ascii	"RxTimeout\000"
 15430      6D656F75 
 15430      7400
 15431              	.LASF301:
 15432 027c 50687941 		.ascii	"PhyAttribute_t\000"
 15432      74747269 
 15432      62757465 
 15432      5F7400
 15433              	.LASF167:
 15434 028b 54785469 		.ascii	"TxTimeout\000"
 15434      6D656F75 
 15434      7400
 15435              	.LASF149:
 15436 0295 44437963 		.ascii	"DCycle\000"
ARM GAS  C:\Users\EBANO_~1\AppData\Local\Temp\cc2nkIni.s 			page 303


 15436      6C6500
 15437              	.LASF355:
 15438 029c 44724F66 		.ascii	"DrOffset\000"
 15438      66736574 
 15438      00
 15439              	.LASF284:
 15440 02a5 5048595F 		.ascii	"PHY_BEACON_GUARD\000"
 15440      42454143 
 15440      4F4E5F47 
 15440      55415244 
 15440      00
 15441              	.LASF343:
 15442 02b6 44617461 		.ascii	"DatarateParams\000"
 15442      72617465 
 15442      50617261 
 15442      6D7300
 15443              	.LASF142:
 15444 02c5 4D696E6F 		.ascii	"Minor\000"
 15444      7200
 15445              	.LASF420:
 15446 02cb 4D696E54 		.ascii	"MinTxPower\000"
 15446      78506F77 
 15446      657200
 15447              	.LASF525:
 15448 02d6 52656769 		.ascii	"RegionAS923GetNvmCtx\000"
 15448      6F6E4153 
 15448      39323347 
 15448      65744E76 
 15448      6D437478 
 15449              	.LASF483:
 15450 02eb 6E657743 		.ascii	"newChannelReq\000"
 15450      68616E6E 
 15450      656C5265 
 15450      7100
 15451              	.LASF154:
 15452 02f9 42616E64 		.ascii	"Band_t\000"
 15452      5F7400
 15453              	.LASF396:
 15454 0300 41676772 		.ascii	"AggrTimeOff\000"
 15454      54696D65 
 15454      4F666600 
 15455              	.LASF449:
 15456 030c 52656769 		.ascii	"RegionAS923SetContinuousWave\000"
 15456      6F6E4153 
 15456      39323353 
 15456      6574436F 
 15456      6E74696E 
 15457              	.LASF19:
 15458 0329 696E7433 		.ascii	"int32_t\000"
 15458      325F7400 
 15459              	.LASF111:
 15460 0331 5F616464 		.ascii	"_add\000"
 15460      00
 15461              	.LASF485:
 15462 0336 72785061 		.ascii	"rxParamSetupReq\000"
 15462      72616D53 
 15462      65747570 
ARM GAS  C:\Users\EBANO_~1\AppData\Local\Temp\cc2nkIni.s 			page 304


 15462      52657100 
 15463              	.LASF161:
 15464 0346 52465F49 		.ascii	"RF_IDLE\000"
 15464      444C4500 
 15465              	.LASF150:
 15466 034e 54784D61 		.ascii	"TxMaxPower\000"
 15466      78506F77 
 15466      657200
 15467              	.LASF240:
 15468 0359 4C4F5241 		.ascii	"LORAMAC_STATUS_CRYPTO_ERROR\000"
 15468      4D41435F 
 15468      53544154 
 15468      55535F43 
 15468      52595054 
 15469              	.LASF379:
 15470 0375 4368616E 		.ascii	"ChannelId\000"
 15470      6E656C49 
 15470      6400
 15471              	.LASF375:
 15472 037f 73527850 		.ascii	"sRxParamSetupReqParams\000"
 15472      6172616D 
 15472      53657475 
 15472      70526571 
 15472      50617261 
 15473              	.LASF523:
 15474 0396 76657269 		.ascii	"verify\000"
 15474      667900
 15475              	.LASF568:
 15476 039d 5F5F6275 		.ascii	"__builtin_memset\000"
 15476      696C7469 
 15476      6E5F6D65 
 15476      6D736574 
 15476      00
 15477              	.LASF67:
 15478 03ae 5F6C6266 		.ascii	"_lbfsize\000"
 15478      73697A65 
 15478      00
 15479              	.LASF258:
 15480 03b7 5048595F 		.ascii	"PHY_DEF_ADR_ACK_LIMIT\000"
 15480      4445465F 
 15480      4144525F 
 15480      41434B5F 
 15480      4C494D49 
 15481              	.LASF439:
 15482 03cd 73526567 		.ascii	"sRegionAS923NvmCtx\000"
 15482      696F6E41 
 15482      53393233 
 15482      4E766D43 
 15482      747800
 15483              	.LASF174:
 15484 03e0 52616469 		.ascii	"Radio_s\000"
 15484      6F5F7300 
 15485              	.LASF555:
 15486 03e8 6D656D63 		.ascii	"memcpy1\000"
 15486      70793100 
 15487              	.LASF376:
 15488 03f0 52785061 		.ascii	"RxParamSetupReqParams_t\000"
ARM GAS  C:\Users\EBANO_~1\AppData\Local\Temp\cc2nkIni.s 			page 305


 15488      72616D53 
 15488      65747570 
 15488      52657150 
 15488      6172616D 
 15489              	.LASF521:
 15490 0408 6368616E 		.ascii	"chanIdx\000"
 15490      49647800 
 15491              	.LASF77:
 15492 0410 5F646174 		.ascii	"_data\000"
 15492      6100
 15493              	.LASF541:
 15494 0416 7478506F 		.ascii	"txPowerResult\000"
 15494      77657252 
 15494      6573756C 
 15494      7400
 15495              	.LASF426:
 15496 0424 73526567 		.ascii	"sRegionCommonRxBeaconSetupParams\000"
 15496      696F6E43 
 15496      6F6D6D6F 
 15496      6E527842 
 15496      6561636F 
 15497              	.LASF312:
 15498 0445 42656163 		.ascii	"BeaconSize\000"
 15498      6F6E5369 
 15498      7A6500
 15499              	.LASF197:
 15500 0450 5365744D 		.ascii	"SetMaxPayloadLength\000"
 15500      61785061 
 15500      796C6F61 
 15500      644C656E 
 15500      67746800 
 15501              	.LASF363:
 15502 0464 4D617845 		.ascii	"MaxEirp\000"
 15502      69727000 
 15503              	.LASF538:
 15504 046c 66726571 		.ascii	"freq\000"
 15504      00
 15505              	.LASF156:
 15506 0471 5F646179 		.ascii	"_daylight\000"
 15506      6C696768 
 15506      7400
 15507              	.LASF418:
 15508 047b 4D696E44 		.ascii	"MinDatarate\000"
 15508      61746172 
 15508      61746500 
 15509              	.LASF222:
 15510 0487 654C6F52 		.ascii	"eLoRaMacStatus\000"
 15510      614D6163 
 15510      53746174 
 15510      757300
 15511              	.LASF497:
 15512 0496 70687950 		.ascii	"phyParam\000"
 15512      6172616D 
 15512      00
 15513              	.LASF134:
 15514 049f 5F5F6C6F 		.ascii	"__lock\000"
 15514      636B00
ARM GAS  C:\Users\EBANO_~1\AppData\Local\Temp\cc2nkIni.s 			page 306


 15515              	.LASF81:
 15516 04a6 5F726565 		.ascii	"_reent\000"
 15516      6E7400
 15517              	.LASF234:
 15518 04ad 4C4F5241 		.ascii	"LORAMAC_STATUS_DUTYCYCLE_RESTRICTED\000"
 15518      4D41435F 
 15518      53544154 
 15518      55535F44 
 15518      55545943 
 15519              	.LASF327:
 15520 04d1 47657450 		.ascii	"GetPhyParams_t\000"
 15520      68795061 
 15520      72616D73 
 15520      5F7400
 15521              	.LASF189:
 15522 04e0 5374616E 		.ascii	"Standby\000"
 15522      64627900 
 15523              	.LASF504:
 15524 04e8 70687944 		.ascii	"phyDr\000"
 15524      7200
 15525              	.LASF411:
 15526 04ee 4E625265 		.ascii	"NbRep\000"
 15526      7000
 15527              	.LASF102:
 15528 04f4 5F5F7366 		.ascii	"__sf\000"
 15528      00
 15529              	.LASF62:
 15530 04f9 5F626173 		.ascii	"_base\000"
 15530      6500
 15531              	.LASF193:
 15532 04ff 57726974 		.ascii	"Write\000"
 15532      6500
 15533              	.LASF120:
 15534 0505 5F6D6274 		.ascii	"_mbtowc_state\000"
 15534      6F77635F 
 15534      73746174 
 15534      6500
 15535              	.LASF306:
 15536 0513 496E6974 		.ascii	"InitType_t\000"
 15536      54797065 
 15536      5F7400
 15537              	.LASF508:
 15538 051e 64617461 		.ascii	"datarate\000"
 15538      72617465 
 15538      00
 15539              	.LASF421:
 15540 0527 4D617854 		.ascii	"MaxTxPower\000"
 15540      78506F77 
 15540      657200
 15541              	.LASF152:
 15542 0532 4C617374 		.ascii	"LastTxDoneTime\000"
 15542      5478446F 
 15542      6E655469 
 15542      6D6500
 15543              	.LASF194:
 15544 0541 52656164 		.ascii	"Read\000"
 15544      00
ARM GAS  C:\Users\EBANO_~1\AppData\Local\Temp\cc2nkIni.s 			page 307


 15545              	.LASF43:
 15546 0546 5F5F746D 		.ascii	"__tm\000"
 15546      00
 15547              	.LASF556:
 15548 054b 52656769 		.ascii	"RegionCommonParseLinkAdrReq\000"
 15548      6F6E436F 
 15548      6D6D6F6E 
 15548      50617273 
 15548      654C696E 
 15549              	.LASF51:
 15550 0567 5F5F746D 		.ascii	"__tm_yday\000"
 15550      5F796461 
 15550      7900
 15551              	.LASF530:
 15552 0571 7478446F 		.ascii	"txDone\000"
 15552      6E6500
 15553              	.LASF254:
 15554 0578 5048595F 		.ascii	"PHY_RX_DR\000"
 15554      52585F44 
 15554      5200
 15555              	.LASF476:
 15556 0582 74797065 		.ascii	"type\000"
 15556      00
 15557              	.LASF399:
 15558 0587 73436861 		.ascii	"sChannelAddParams\000"
 15558      6E6E656C 
 15558      41646450 
 15558      6172616D 
 15558      7300
 15559              	.LASF27:
 15560 0599 5F4C4F43 		.ascii	"_LOCK_T\000"
 15560      4B5F5400 
 15561              	.LASF211:
 15562 05a1 44725261 		.ascii	"DrRange\000"
 15562      6E676500 
 15563              	.LASF432:
 15564 05a9 44617461 		.ascii	"DataratesAS923\000"
 15564      72617465 
 15564      73415339 
 15564      323300
 15565              	.LASF292:
 15566 05b8 5048595F 		.ascii	"PHY_PING_SLOT_SYMBOL_TO_EXPANSION_FACTOR\000"
 15566      50494E47 
 15566      5F534C4F 
 15566      545F5359 
 15566      4D424F4C 
 15567              	.LASF527:
 15568 05e1 52656769 		.ascii	"RegionAS923InitDefaults\000"
 15568      6F6E4153 
 15568      39323349 
 15568      6E697444 
 15568      65666175 
 15569              	.LASF201:
 15570 05f9 5278426F 		.ascii	"RxBoosted\000"
 15570      6F737465 
 15570      6400
 15571              	.LASF4:
ARM GAS  C:\Users\EBANO_~1\AppData\Local\Temp\cc2nkIni.s 			page 308


 15572 0603 5F5F696E 		.ascii	"__int16_t\000"
 15572      7431365F 
 15572      7400
 15573              	.LASF519:
 15574 060d 6170706C 		.ascii	"applyCFList\000"
 15574      7943464C 
 15574      69737400 
 15575              	.LASF6:
 15576 0619 5F5F7569 		.ascii	"__uint16_t\000"
 15576      6E743136 
 15576      5F7400
 15577              	.LASF270:
 15578 0624 5048595F 		.ascii	"PHY_DEF_DR1_OFFSET\000"
 15578      4445465F 
 15578      4452315F 
 15578      4F464653 
 15578      455400
 15579              	.LASF112:
 15580 0637 5F756E75 		.ascii	"_unused_rand\000"
 15580      7365645F 
 15580      72616E64 
 15580      00
 15581              	.LASF339:
 15582 0644 73446174 		.ascii	"sDatarateParams\000"
 15582      61726174 
 15582      65506172 
 15582      616D7300 
 15583              	.LASF274:
 15584 0654 5048595F 		.ascii	"PHY_CHANNELS_DEFAULT_MASK\000"
 15584      4348414E 
 15584      4E454C53 
 15584      5F444546 
 15584      41554C54 
 15585              	.LASF450:
 15586 066e 636F6E74 		.ascii	"continuousWave\000"
 15586      696E756F 
 15586      75735761 
 15586      766500
 15587              	.LASF451:
 15588 067d 70687954 		.ascii	"phyTxPower\000"
 15588      78506F77 
 15588      657200
 15589              	.LASF406:
 15590 0688 73527842 		.ascii	"sRxBeaconSetupParams\000"
 15590      6561636F 
 15590      6E536574 
 15590      75705061 
 15590      72616D73 
 15591              	.LASF357:
 15592 069d 57696E64 		.ascii	"WindowOffset\000"
 15592      6F774F66 
 15592      66736574 
 15592      00
 15593              	.LASF285:
 15594 06aa 5048595F 		.ascii	"PHY_BEACON_WINDOW\000"
 15594      42454143 
 15594      4F4E5F57 
ARM GAS  C:\Users\EBANO_~1\AppData\Local\Temp\cc2nkIni.s 			page 309


 15594      494E444F 
 15594      5700
 15595              	.LASF93:
 15596 06bc 5F726573 		.ascii	"_result_k\000"
 15596      756C745F 
 15596      6B00
 15597              	.LASF85:
 15598 06c6 5F737464 		.ascii	"_stderr\000"
 15598      65727200 
 15599              	.LASF92:
 15600 06ce 5F726573 		.ascii	"_result\000"
 15600      756C7400 
 15601              	.LASF428:
 15602 06d6 42656163 		.ascii	"BeaconDatarate\000"
 15602      6F6E4461 
 15602      74617261 
 15602      746500
 15603              	.LASF55:
 15604 06e5 5F64736F 		.ascii	"_dso_handle\000"
 15604      5F68616E 
 15604      646C6500 
 15605              	.LASF389:
 15606 06f1 7343616C 		.ascii	"sCalcBackOffParams\000"
 15606      63426163 
 15606      6B4F6666 
 15606      50617261 
 15606      6D7300
 15607              	.LASF50:
 15608 0704 5F5F746D 		.ascii	"__tm_wday\000"
 15608      5F776461 
 15608      7900
 15609              	.LASF52:
 15610 070e 5F5F746D 		.ascii	"__tm_isdst\000"
 15610      5F697364 
 15610      737400
 15611              	.LASF468:
 15612 0719 64656C61 		.ascii	"delayTx\000"
 15612      79547800 
 15613              	.LASF562:
 15614 0721 52656769 		.ascii	"RegionCommonChanMaskCopy\000"
 15614      6F6E436F 
 15614      6D6D6F6E 
 15614      4368616E 
 15614      4D61736B 
 15615              	.LASF231:
 15616 073a 4C4F5241 		.ascii	"LORAMAC_STATUS_LENGTH_ERROR\000"
 15616      4D41435F 
 15616      53544154 
 15616      55535F4C 
 15616      454E4754 
 15617              	.LASF153:
 15618 0756 54696D65 		.ascii	"TimeOff\000"
 15618      4F666600 
 15619              	.LASF3:
 15620 075e 756E7369 		.ascii	"unsigned char\000"
 15620      676E6564 
 15620      20636861 
ARM GAS  C:\Users\EBANO_~1\AppData\Local\Temp\cc2nkIni.s 			page 310


 15620      7200
 15621              	.LASF84:
 15622 076c 5F737464 		.ascii	"_stdout\000"
 15622      6F757400 
 15623              	.LASF336:
 15624 0774 73476574 		.ascii	"sGetNvmCtxParams\000"
 15624      4E766D43 
 15624      74785061 
 15624      72616D73 
 15624      00
 15625              	.LASF127:
 15626 0785 5F6D6273 		.ascii	"_mbsrtowcs_state\000"
 15626      72746F77 
 15626      63735F73 
 15626      74617465 
 15626      00
 15627              	.LASF41:
 15628 0796 5F776473 		.ascii	"_wds\000"
 15628      00
 15629              	.LASF207:
 15630 079b 44725261 		.ascii	"DrRange_t\000"
 15630      6E67655F 
 15630      7400
 15631              	.LASF220:
 15632 07a5 666C6F61 		.ascii	"float\000"
 15632      7400
 15633              	.LASF566:
 15634 07ab 443A5C67 		.ascii	"D:\\git_pessoal\\keil_gcc\\STM32CubeExpansion_LRWAN"
 15634      69745F70 
 15634      6573736F 
 15634      616C5C6B 
 15634      65696C5F 
 15635 07db 5F56312E 		.ascii	"_V1.2.1\\Projects\\B-L072Z-LRWAN1\\Applications\\Lo"
 15635      322E315C 
 15635      50726F6A 
 15635      65637473 
 15635      5C422D4C 
 15636 080a 52615C45 		.ascii	"Ra\\End_Node\\MDK-ARM\000"
 15636      6E645F4E 
 15636      6F64655C 
 15636      4D444B2D 
 15636      41524D00 
 15637              	.LASF438:
 15638 081e 45666665 		.ascii	"EffectiveRx1DrOffsetAS923\000"
 15638      63746976 
 15638      65527831 
 15638      44724F66 
 15638      66736574 
 15639              	.LASF271:
 15640 0838 5048595F 		.ascii	"PHY_DEF_RX2_FREQUENCY\000"
 15640      4445465F 
 15640      5258325F 
 15640      46524551 
 15640      55454E43 
 15641              	.LASF323:
 15642 084e 41747472 		.ascii	"Attribute\000"
 15642      69627574 
ARM GAS  C:\Users\EBANO_~1\AppData\Local\Temp\cc2nkIni.s 			page 311


 15642      6500
 15643              	.LASF247:
 15644 0858 65506879 		.ascii	"ePhyAttribute\000"
 15644      41747472 
 15644      69627574 
 15644      6500
 15645              	.LASF63:
 15646 0866 5F73697A 		.ascii	"_size\000"
 15646      6500
 15647              	.LASF506:
 15648 086c 52656769 		.ascii	"RegionAS923RxConfig\000"
 15648      6F6E4153 
 15648      39323352 
 15648      78436F6E 
 15648      66696700 
 15649              	.LASF368:
 15650 0880 56657273 		.ascii	"Version\000"
 15650      696F6E00 
 15651              	.LASF70:
 15652 0888 5F777269 		.ascii	"_write\000"
 15652      746500
 15653              	.LASF385:
 15654 088f 65416C74 		.ascii	"eAlternateDrType\000"
 15654      65726E61 
 15654      74654472 
 15654      54797065 
 15654      00
 15655              	.LASF412:
 15656 08a0 43684D61 		.ascii	"ChMaskCtrl\000"
 15656      736B4374 
 15656      726C00
 15657              	.LASF176:
 15658 08ab 496F4465 		.ascii	"IoDeInit\000"
 15658      496E6974 
 15658      00
 15659              	.LASF179:
 15660 08b4 5365744D 		.ascii	"SetModem\000"
 15660      6F64656D 
 15660      00
 15661              	.LASF360:
 15662 08bd 5278536C 		.ascii	"RxSlot\000"
 15662      6F7400
 15663              	.LASF226:
 15664 08c4 4C4F5241 		.ascii	"LORAMAC_STATUS_PARAMETER_INVALID\000"
 15664      4D41435F 
 15664      53544154 
 15664      55535F50 
 15664      4152414D 
 15665              	.LASF419:
 15666 08e5 4D617844 		.ascii	"MaxDatarate\000"
 15666      61746172 
 15666      61746500 
 15667              	.LASF402:
 15668 08f1 4368616E 		.ascii	"ChannelRemoveParams_t\000"
 15668      6E656C52 
 15668      656D6F76 
 15668      65506172 
ARM GAS  C:\Users\EBANO_~1\AppData\Local\Temp\cc2nkIni.s 			page 312


 15668      616D735F 
 15669              	.LASF166:
 15670 0907 5478446F 		.ascii	"TxDone\000"
 15670      6E6500
 15671              	.LASF536:
 15672 090e 436F756E 		.ascii	"CountNbOfEnabledChannels\000"
 15672      744E624F 
 15672      66456E61 
 15672      626C6564 
 15672      4368616E 
 15673              	.LASF49:
 15674 0927 5F5F746D 		.ascii	"__tm_year\000"
 15674      5F796561 
 15674      7200
 15675              	.LASF206:
 15676 0931 75447252 		.ascii	"uDrRange\000"
 15676      616E6765 
 15676      00
 15677              	.LASF212:
 15678 093a 42616E64 		.ascii	"Band\000"
 15678      00
 15679              	.LASF367:
 15680 093f 734C696E 		.ascii	"sLinkAdrReqParams\000"
 15680      6B416472 
 15680      52657150 
 15680      6172616D 
 15680      7300
 15681              	.LASF356:
 15682 0951 57696E64 		.ascii	"WindowTimeout\000"
 15682      6F775469 
 15682      6D656F75 
 15682      7400
 15683              	.LASF565:
 15684 095f 2E2E2F2E 		.ascii	"../../../../../../Middlewares/Third_Party/LoRaWAN/M"
 15684      2E2F2E2E 
 15684      2F2E2E2F 
 15684      2E2E2F2E 
 15684      2E2F4D69 
 15685 0992 61632F72 		.ascii	"ac/region/RegionAS923.c\000"
 15685      6567696F 
 15685      6E2F5265 
 15685      67696F6E 
 15685      41533932 
 15686              	.LASF203:
 15687 09aa 52616469 		.ascii	"Radio\000"
 15687      6F00
 15688              	.LASF564:
 15689 09b0 474E5520 		.ascii	"GNU C11 7.3.1 20180622 (release) [ARM/embedded-7-br"
 15689      43313120 
 15689      372E332E 
 15689      31203230 
 15689      31383036 
 15690 09e3 616E6368 		.ascii	"anch revision 261907] -mcpu=cortex-m0plus -mthumb -"
 15690      20726576 
 15690      6973696F 
 15690      6E203236 
 15690      31393037 
ARM GAS  C:\Users\EBANO_~1\AppData\Local\Temp\cc2nkIni.s 			page 313


 15691 0a16 6D666C6F 		.ascii	"mfloat-abi=soft -gdwarf-2 -O3 -ffunction-sections\000"
 15691      61742D61 
 15691      62693D73 
 15691      6F667420 
 15691      2D676477 
 15692              	.LASF110:
 15693 0a48 5F6D756C 		.ascii	"_mult\000"
 15693      7400
 15694              	.LASF540:
 15695 0a4e 6D617842 		.ascii	"maxBandTxPower\000"
 15695      616E6454 
 15695      78506F77 
 15695      657200
 15696              	.LASF493:
 15697 0a5d 6E657874 		.ascii	"nextIndex\000"
 15697      496E6465 
 15697      7800
 15698              	.LASF190:
 15699 0a67 53746172 		.ascii	"StartCad\000"
 15699      74436164 
 15699      00
 15700              	.LASF499:
 15701 0a70 52656769 		.ascii	"RegionAS923TxConfig\000"
 15701      6F6E4153 
 15701      39323354 
 15701      78436F6E 
 15701      66696700 
 15702              	.LASF377:
 15703 0a84 734E6577 		.ascii	"sNewChannelReqParams\000"
 15703      4368616E 
 15703      6E656C52 
 15703      65715061 
 15703      72616D73 
 15704              	.LASF125:
 15705 0a99 5F6D6272 		.ascii	"_mbrlen_state\000"
 15705      6C656E5F 
 15705      73746174 
 15705      6500
 15706              	.LASF513:
 15707 0aa7 7278436F 		.ascii	"rxConfigParams\000"
 15707      6E666967 
 15707      50617261 
 15707      6D7300
 15708              	.LASF464:
 15709 0ab6 74696D65 		.ascii	"time\000"
 15709      00
 15710              	.LASF550:
 15711 0abb 52656769 		.ascii	"RegionCommonCountChannels\000"
 15711      6F6E436F 
 15711      6D6D6F6E 
 15711      436F756E 
 15711      74436861 
 15712              	.LASF241:
 15713 0ad5 4C4F5241 		.ascii	"LORAMAC_STATUS_FCNT_HANDLER_ERROR\000"
 15713      4D41435F 
 15713      53544154 
 15713      55535F46 
ARM GAS  C:\Users\EBANO_~1\AppData\Local\Temp\cc2nkIni.s 			page 314


 15713      434E545F 
 15714              	.LASF495:
 15715 0af7 63684D61 		.ascii	"chMask\000"
 15715      736B00
 15716              	.LASF380:
 15717 0afe 4E657743 		.ascii	"NewChannelReqParams_t\000"
 15717      68616E6E 
 15717      656C5265 
 15717      71506172 
 15717      616D735F 
 15718              	.LASF168:
 15719 0b14 5278446F 		.ascii	"RxDone\000"
 15719      6E6500
 15720              	.LASF83:
 15721 0b1b 5F737464 		.ascii	"_stdin\000"
 15721      696E00
 15722              	.LASF248:
 15723 0b22 5048595F 		.ascii	"PHY_MIN_RX_DR\000"
 15723      4D494E5F 
 15723      52585F44 
 15723      5200
 15724              	.LASF132:
 15725 0b30 5F6E6D61 		.ascii	"_nmalloc\000"
 15725      6C6C6F63 
 15725      00
 15726              	.LASF337:
 15727 0b39 6E766D43 		.ascii	"nvmCtxSize\000"
 15727      74785369 
 15727      7A6500
 15728              	.LASF182:
 15729 0b44 52616E64 		.ascii	"Random\000"
 15729      6F6D00
 15730              	.LASF404:
 15731 0b4b 54696D65 		.ascii	"Timeout\000"
 15731      6F757400 
 15732              	.LASF334:
 15733 0b53 54797065 		.ascii	"Type\000"
 15733      00
 15734              	.LASF371:
 15735 0b58 43757272 		.ascii	"CurrentDatarate\000"
 15735      656E7444 
 15735      61746172 
 15735      61746500 
 15736              	.LASF346:
 15737 0b68 5061796C 		.ascii	"Payload\000"
 15737      6F616400 
 15738              	.LASF435:
 15739 0b70 4D617850 		.ascii	"MaxPayloadOfDatarateRepeaterDwell0AS923\000"
 15739      61796C6F 
 15739      61644F66 
 15739      44617461 
 15739      72617465 
 15740              	.LASF263:
 15741 0b98 5048595F 		.ascii	"PHY_MAX_RX_WINDOW\000"
 15741      4D41585F 
 15741      52585F57 
 15741      494E444F 
ARM GAS  C:\Users\EBANO_~1\AppData\Local\Temp\cc2nkIni.s 			page 315


 15741      5700
 15742              	.LASF28:
 15743 0baa 5F6F6666 		.ascii	"_off_t\000"
 15743      5F7400
 15744              	.LASF140:
 15745 0bb1 56657273 		.ascii	"Version_s\000"
 15745      696F6E5F 
 15745      7300
 15746              	.LASF146:
 15747 0bbb 56657273 		.ascii	"Version_t\000"
 15747      696F6E5F 
 15747      7400
 15748              	.LASF205:
 15749 0bc5 56657273 		.ascii	"Version_u\000"
 15749      696F6E5F 
 15749      7500
 15750              	.LASF543:
 15751 0bcf 6472496E 		.ascii	"drIndex\000"
 15751      64657800 
 15752              	.LASF25:
 15753 0bd7 73697A65 		.ascii	"size_t\000"
 15753      5F7400
 15754              	.LASF115:
 15755 0bde 5F6C6F63 		.ascii	"_localtime_buf\000"
 15755      616C7469 
 15755      6D655F62 
 15755      756600
 15756              	.LASF33:
 15757 0bed 5F5F636F 		.ascii	"__count\000"
 15757      756E7400 
 15758              	.LASF16:
 15759 0bf5 75696E74 		.ascii	"uint8_t\000"
 15759      385F7400 
 15760              	.LASF290:
 15761 0bfd 5048595F 		.ascii	"PHY_PING_SLOT_SYMBOL_TO_EXPANSION_MAX\000"
 15761      50494E47 
 15761      5F534C4F 
 15761      545F5359 
 15761      4D424F4C 
 15762              	.LASF298:
 15763 0c23 5048595F 		.ascii	"PHY_BEACON_CHANNEL_STEPWIDTH\000"
 15763      42454143 
 15763      4F4E5F43 
 15763      48414E4E 
 15763      454C5F53 
 15764              	.LASF148:
 15765 0c40 7342616E 		.ascii	"sBand\000"
 15765      6400
 15766              	.LASF249:
 15767 0c46 5048595F 		.ascii	"PHY_MIN_TX_DR\000"
 15767      4D494E5F 
 15767      54585F44 
 15767      5200
 15768              	.LASF552:
 15769 0c54 52656769 		.ascii	"RegionCommonUpdateBandTimeOff\000"
 15769      6F6E436F 
 15769      6D6D6F6E 
ARM GAS  C:\Users\EBANO_~1\AppData\Local\Temp\cc2nkIni.s 			page 316


 15769      55706461 
 15769      74654261 
 15770              	.LASF288:
 15771 0c72 5048595F 		.ascii	"PHY_BEACON_SYMBOL_TO_DEFAULT\000"
 15771      42454143 
 15771      4F4E5F53 
 15771      594D424F 
 15771      4C5F544F 
 15772              	.LASF221:
 15773 0c8f 654C6F52 		.ascii	"eLoRaMacRxSlot\000"
 15773      614D6163 
 15773      5278536C 
 15773      6F7400
 15774              	.LASF97:
 15775 0c9e 5F637674 		.ascii	"_cvtbuf\000"
 15775      62756600 
 15776              	.LASF414:
 15777 0ca6 52656769 		.ascii	"RegionCommonLinkAdrParams_t\000"
 15777      6F6E436F 
 15777      6D6D6F6E 
 15777      4C696E6B 
 15777      41647250 
 15778              	.LASF335:
 15779 0cc2 496E6974 		.ascii	"InitDefaultsParams_t\000"
 15779      44656661 
 15779      756C7473 
 15779      50617261 
 15779      6D735F74 
 15780              	.LASF417:
 15781 0cd7 4E624368 		.ascii	"NbChannels\000"
 15781      616E6E65 
 15781      6C7300
 15782              	.LASF358:
 15783 0ce2 52657065 		.ascii	"RepeaterSupport\000"
 15783      61746572 
 15783      53757070 
 15783      6F727400 
 15784              	.LASF218:
 15785 0cf2 52585F53 		.ascii	"RX_SLOT_WIN_MULTICAST_SLOT\000"
 15785      4C4F545F 
 15785      57494E5F 
 15785      4D554C54 
 15785      49434153 
 15786              	.LASF202:
 15787 0d0d 53657452 		.ascii	"SetRxDutyCycle\000"
 15787      78447574 
 15787      79437963 
 15787      6C6500
 15788              	.LASF494:
 15789 0d1c 62797465 		.ascii	"bytesProcessed\000"
 15789      7350726F 
 15789      63657373 
 15789      656400
 15790              	.LASF32:
 15791 0d2b 5F5F7763 		.ascii	"__wchb\000"
 15791      686200
 15792              	.LASF126:
ARM GAS  C:\Users\EBANO_~1\AppData\Local\Temp\cc2nkIni.s 			page 317


 15793 0d32 5F6D6272 		.ascii	"_mbrtowc_state\000"
 15793      746F7763 
 15793      5F737461 
 15793      746500
 15794              	.LASF46:
 15795 0d41 5F5F746D 		.ascii	"__tm_hour\000"
 15795      5F686F75 
 15795      7200
 15796              	.LASF158:
 15797 0d4b 4D4F4445 		.ascii	"MODEM_FSK\000"
 15797      4D5F4653 
 15797      4B00
 15798              	.LASF472:
 15799 0d55 63616C63 		.ascii	"calcBackOff\000"
 15799      4261636B 
 15799      4F666600 
 15800              	.LASF348:
 15801 0d61 4170706C 		.ascii	"ApplyCFListParams_t\000"
 15801      7943464C 
 15801      69737450 
 15801      6172616D 
 15801      735F7400 
 15802              	.LASF260:
 15803 0d75 5048595F 		.ascii	"PHY_MAX_PAYLOAD\000"
 15803      4D41585F 
 15803      5041594C 
 15803      4F414400 
 15804              	.LASF30:
 15805 0d85 77696E74 		.ascii	"wint_t\000"
 15805      5F7400
 15806              	.LASF98:
 15807 0d8c 5F6E6577 		.ascii	"_new\000"
 15807      00
 15808              	.LASF188:
 15809 0d91 536C6565 		.ascii	"Sleep\000"
 15809      7000
 15810              	.LASF345:
 15811 0d97 73417070 		.ascii	"sApplyCFListParams\000"
 15811      6C794346 
 15811      4C697374 
 15811      50617261 
 15811      6D7300
 15812              	.LASF106:
 15813 0daa 5F6E696F 		.ascii	"_niobs\000"
 15813      627300
 15814              	.LASF322:
 15815 0db1 73476574 		.ascii	"sGetPhyParams\000"
 15815      50687950 
 15815      6172616D 
 15815      7300
 15816              	.LASF242:
 15817 0dbf 4C4F5241 		.ascii	"LORAMAC_STATUS_MAC_COMMAD_ERROR\000"
 15817      4D41435F 
 15817      53544154 
 15817      55535F4D 
 15817      41435F43 
 15818              	.LASF160:
ARM GAS  C:\Users\EBANO_~1\AppData\Local\Temp\cc2nkIni.s 			page 318


 15819 0ddf 52616469 		.ascii	"RadioModems_t\000"
 15819      6F4D6F64 
 15819      656D735F 
 15819      7400
 15820              	.LASF319:
 15821 0ded 4368616E 		.ascii	"Channels\000"
 15821      6E656C73 
 15821      00
 15822              	.LASF331:
 15823 0df6 53657442 		.ascii	"SetBandTxDoneParams_t\000"
 15823      616E6454 
 15823      78446F6E 
 15823      65506172 
 15823      616D735F 
 15824              	.LASF465:
 15825 0e0c 61676772 		.ascii	"aggregatedTimeOff\000"
 15825      65676174 
 15825      65645469 
 15825      6D654F66 
 15825      6600
 15826              	.LASF82:
 15827 0e1e 5F657272 		.ascii	"_errno\000"
 15827      6E6F00
 15828              	.LASF287:
 15829 0e25 5048595F 		.ascii	"PHY_PING_SLOT_WINDOW\000"
 15829      50494E47 
 15829      5F534C4F 
 15829      545F5749 
 15829      4E444F57 
 15830              	.LASF413:
 15831 0e3a 43684D61 		.ascii	"ChMask\000"
 15831      736B00
 15832              	.LASF47:
 15833 0e41 5F5F746D 		.ascii	"__tm_mday\000"
 15833      5F6D6461 
 15833      7900
 15834              	.LASF54:
 15835 0e4b 5F666E61 		.ascii	"_fnargs\000"
 15835      72677300 
 15836              	.LASF303:
 15837 0e53 494E4954 		.ascii	"INIT_TYPE_INIT\000"
 15837      5F545950 
 15837      455F494E 
 15837      495400
 15838              	.LASF255:
 15839 0e62 5048595F 		.ascii	"PHY_MAX_TX_POWER\000"
 15839      4D41585F 
 15839      54585F50 
 15839      4F574552 
 15839      00
 15840              	.LASF443:
 15841 0e73 6F757444 		.ascii	"outDr\000"
 15841      7200
 15842              	.LASF281:
 15843 0e79 5048595F 		.ascii	"PHY_NEXT_LOWER_TX_DR\000"
 15843      4E455854 
 15843      5F4C4F57 
ARM GAS  C:\Users\EBANO_~1\AppData\Local\Temp\cc2nkIni.s 			page 319


 15843      45525F54 
 15843      585F4452 
 15844              	.LASF447:
 15845 0e8e 6D696E44 		.ascii	"minDr\000"
 15845      7200
 15846              	.LASF278:
 15847 0e94 5048595F 		.ascii	"PHY_DEF_DOWNLINK_DWELL_TIME\000"
 15847      4445465F 
 15847      444F574E 
 15847      4C494E4B 
 15847      5F445745 
 15848              	.LASF392:
 15849 0eb0 456C6170 		.ascii	"ElapsedTime\000"
 15849      73656454 
 15849      696D6500 
 15850              	.LASF289:
 15851 0ebc 5048595F 		.ascii	"PHY_BEACON_SYMBOL_TO_EXPANSION_MAX\000"
 15851      42454143 
 15851      4F4E5F53 
 15851      594D424F 
 15851      4C5F544F 
 15852              	.LASF38:
 15853 0edf 5F6E6578 		.ascii	"_next\000"
 15853      7400
 15854              	.LASF171:
 15855 0ee5 46687373 		.ascii	"FhssChangeChannel\000"
 15855      4368616E 
 15855      67654368 
 15855      616E6E65 
 15855      6C00
 15856              	.LASF491:
 15857 0ef7 6E624279 		.ascii	"nbBytesParsed\000"
 15857      74657350 
 15857      61727365 
 15857      6400
 15858              	.LASF526:
 15859 0f05 70617261 		.ascii	"params\000"
 15859      6D7300
 15860              	.LASF123:
 15861 0f0c 5F736967 		.ascii	"_signal_buf\000"
 15861      6E616C5F 
 15861      62756600 
 15862              	.LASF68:
 15863 0f18 5F636F6F 		.ascii	"_cookie\000"
 15863      6B696500 
 15864              	.LASF272:
 15865 0f20 5048595F 		.ascii	"PHY_DEF_RX2_DR\000"
 15865      4445465F 
 15865      5258325F 
 15865      445200
 15866              	.LASF544:
 15867 0f2f 4765744E 		.ascii	"GetNextLowerTxDr\000"
 15867      6578744C 
 15867      6F776572 
 15867      54784472 
 15867      00
 15868              	.LASF408:
ARM GAS  C:\Users\EBANO_~1\AppData\Local\Temp\cc2nkIni.s 			page 320


 15869 0f40 52785469 		.ascii	"RxTime\000"
 15869      6D6500
 15870              	.LASF264:
 15871 0f47 5048595F 		.ascii	"PHY_RECEIVE_DELAY1\000"
 15871      52454345 
 15871      4956455F 
 15871      44454C41 
 15871      593100
 15872              	.LASF265:
 15873 0f5a 5048595F 		.ascii	"PHY_RECEIVE_DELAY2\000"
 15873      52454345 
 15873      4956455F 
 15873      44454C41 
 15873      593200
 15874              	.LASF157:
 15875 0f6d 5F747A6E 		.ascii	"_tzname\000"
 15875      616D6500 
 15876              	.LASF352:
 15877 0f75 4368616E 		.ascii	"ChanMaskSetParams_t\000"
 15877      4D61736B 
 15877      53657450 
 15877      6172616D 
 15877      735F7400 
 15878              	.LASF232:
 15879 0f89 4C4F5241 		.ascii	"LORAMAC_STATUS_REGION_NOT_SUPPORTED\000"
 15879      4D41435F 
 15879      53544154 
 15879      55535F52 
 15879      4547494F 
 15880              	.LASF219:
 15881 0fad 4C6F5261 		.ascii	"LoRaMacRxSlot_t\000"
 15881      4D616352 
 15881      78536C6F 
 15881      745F7400 
 15882              	.LASF162:
 15883 0fbd 52465F52 		.ascii	"RF_RX_RUNNING\000"
 15883      585F5255 
 15883      4E4E494E 
 15883      4700
 15884              	.LASF245:
 15885 0fcb 4C4F5241 		.ascii	"LORAMAC_STATUS_ERROR\000"
 15885      4D41435F 
 15885      53544154 
 15885      55535F45 
 15885      52524F52 
 15886              	.LASF387:
 15887 0fe0 414C5445 		.ascii	"ALTERNATE_DR_RESTORE\000"
 15887      524E4154 
 15887      455F4452 
 15887      5F524553 
 15887      544F5245 
 15888              	.LASF320:
 15889 0ff5 42656163 		.ascii	"BeaconFormat\000"
 15889      6F6E466F 
 15889      726D6174 
 15889      00
 15890              	.LASF463:
ARM GAS  C:\Users\EBANO_~1\AppData\Local\Temp\cc2nkIni.s 			page 321


 15891 1002 6368616E 		.ascii	"channel\000"
 15891      6E656C00 
 15892              	.LASF365:
 15893 100a 506B744C 		.ascii	"PktLen\000"
 15893      656E00
 15894              	.LASF178:
 15895 1011 47657453 		.ascii	"GetStatus\000"
 15895      74617475 
 15895      7300
 15896              	.LASF251:
 15897 101b 5048595F 		.ascii	"PHY_MAX_TX_DR\000"
 15897      4D41585F 
 15897      54585F44 
 15897      5200
 15898              	.LASF314:
 15899 1029 52667532 		.ascii	"Rfu2Size\000"
 15899      53697A65 
 15899      00
 15900              	.LASF184:
 15901 1032 53657454 		.ascii	"SetTxConfig\000"
 15901      78436F6E 
 15901      66696700 
 15902              	.LASF213:
 15903 103e 4368616E 		.ascii	"ChannelParams_t\000"
 15903      6E656C50 
 15903      6172616D 
 15903      735F7400 
 15904              	.LASF224:
 15905 104e 4C4F5241 		.ascii	"LORAMAC_STATUS_BUSY\000"
 15905      4D41435F 
 15905      53544154 
 15905      55535F42 
 15905      55535900 
 15906              	.LASF347:
 15907 1062 53697A65 		.ascii	"Size\000"
 15907      00
 15908              	.LASF44:
 15909 1067 5F5F746D 		.ascii	"__tm_sec\000"
 15909      5F736563 
 15909      00
 15910              	.LASF53:
 15911 1070 5F6F6E5F 		.ascii	"_on_exit_args\000"
 15911      65786974 
 15911      5F617267 
 15911      7300
 15912              	.LASF522:
 15913 107e 52656769 		.ascii	"RegionAS923Verify\000"
 15913      6F6E4153 
 15913      39323356 
 15913      65726966 
 15913      7900
 15914              	.LASF237:
 15915 1090 4C4F5241 		.ascii	"LORAMAC_STATUS_BUSY_BEACON_RESERVED_TIME\000"
 15915      4D41435F 
 15915      53544154 
 15915      55535F42 
 15915      5553595F 
ARM GAS  C:\Users\EBANO_~1\AppData\Local\Temp\cc2nkIni.s 			page 322


 15916              	.LASF490:
 15917 10b9 6E625265 		.ascii	"nbRepOut\000"
 15917      704F7574 
 15917      00
 15918              	.LASF259:
 15919 10c2 5048595F 		.ascii	"PHY_DEF_ADR_ACK_DELAY\000"
 15919      4445465F 
 15919      4144525F 
 15919      41434B5F 
 15919      44454C41 
 15920              	.LASF128:
 15921 10d8 5F776372 		.ascii	"_wcrtomb_state\000"
 15921      746F6D62 
 15921      5F737461 
 15921      746500
 15922              	.LASF362:
 15923 10e7 73547843 		.ascii	"sTxConfigParams\000"
 15923      6F6E6669 
 15923      67506172 
 15923      616D7300 
 15924              	.LASF165:
 15925 10f7 52616469 		.ascii	"RadioState_t\000"
 15925      6F537461 
 15925      74655F74 
 15925      00
 15926              	.LASF567:
 15927 1104 6D656D73 		.ascii	"memset\000"
 15927      657400
 15928              	.LASF557:
 15929 110b 52656769 		.ascii	"RegionCommonLinkAdrReqVerifyParams\000"
 15929      6F6E436F 
 15929      6D6D6F6E 
 15929      4C696E6B 
 15929      41647252 
 15930              	.LASF501:
 15931 112e 7478506F 		.ascii	"txPower\000"
 15931      77657200 
 15932              	.LASF487:
 15933 1136 6C696E6B 		.ascii	"linkAdrReq\000"
 15933      41647252 
 15933      657100
 15934              	.LASF330:
 15935 1141 4A6F696E 		.ascii	"Joined\000"
 15935      656400
 15936              	.LASF15:
 15937 1148 696E7438 		.ascii	"int8_t\000"
 15937      5F7400
 15938              	.LASF518:
 15939 114f 52656769 		.ascii	"RegionAS923ApplyCFList\000"
 15939      6F6E4153 
 15939      39323341 
 15939      70706C79 
 15939      43464C69 
 15940              	.LASF484:
 15941 1166 52656769 		.ascii	"RegionAS923RxParamSetupReq\000"
 15941      6F6E4153 
 15941      39323352 
ARM GAS  C:\Users\EBANO_~1\AppData\Local\Temp\cc2nkIni.s 			page 323


 15941      78506172 
 15941      616D5365 
 15942              	.LASF236:
 15943 1181 4C4F5241 		.ascii	"LORAMAC_STATUS_NO_FREE_CHANNEL_FOUND\000"
 15943      4D41435F 
 15943      53544154 
 15943      55535F4E 
 15943      4F5F4652 
 15944              	.LASF37:
 15945 11a6 5F5F554C 		.ascii	"__ULong\000"
 15945      6F6E6700 
 15946              	.LASF297:
 15947 11ae 5048595F 		.ascii	"PHY_BEACON_CHANNEL_DR\000"
 15947      42454143 
 15947      4F4E5F43 
 15947      48414E4E 
 15947      454C5F44 
 15948              	.LASF353:
 15949 11c4 73527843 		.ascii	"sRxConfigParams\000"
 15949      6F6E6669 
 15949      67506172 
 15949      616D7300 
 15950              	.LASF144:
 15951 11d4 4669656C 		.ascii	"Fields\000"
 15951      647300
 15952              	.LASF286:
 15953 11db 5048595F 		.ascii	"PHY_BEACON_WINDOW_SLOTS\000"
 15953      42454143 
 15953      4F4E5F57 
 15953      494E444F 
 15953      575F534C 
 15954              	.LASF113:
 15955 11f3 5F737472 		.ascii	"_strtok_last\000"
 15955      746F6B5F 
 15955      6C617374 
 15955      00
 15956              	.LASF185:
 15957 1200 43686563 		.ascii	"CheckRfFrequency\000"
 15957      6B526646 
 15957      72657175 
 15957      656E6379 
 15957      00
 15958              	.LASF478:
 15959 1211 646C4368 		.ascii	"dlChannelReq\000"
 15959      616E6E65 
 15959      6C526571 
 15959      00
 15960              	.LASF109:
 15961 121e 5F736565 		.ascii	"_seed\000"
 15961      6400
 15962              	.LASF369:
 15963 1224 5061796C 		.ascii	"PayloadSize\000"
 15963      6F616453 
 15963      697A6500 
 15964              	.LASF71:
 15965 1230 5F736565 		.ascii	"_seek\000"
 15965      6B00
ARM GAS  C:\Users\EBANO_~1\AppData\Local\Temp\cc2nkIni.s 			page 324


 15966              	.LASF210:
 15967 1236 52783146 		.ascii	"Rx1Frequency\000"
 15967      72657175 
 15967      656E6379 
 15967      00
 15968              	.LASF516:
 15969 1243 52656769 		.ascii	"RegionAS923ChanMaskSet\000"
 15969      6F6E4153 
 15969      39323343 
 15969      68616E4D 
 15969      61736B53 
 15970              	.LASF17:
 15971 125a 696E7431 		.ascii	"int16_t\000"
 15971      365F7400 
 15972              	.LASF299:
 15973 1262 5048595F 		.ascii	"PHY_BEACON_NB_CHANNELS\000"
 15973      42454143 
 15973      4F4E5F4E 
 15973      425F4348 
 15973      414E4E45 
 15974              	.LASF7:
 15975 1279 73686F72 		.ascii	"short unsigned int\000"
 15975      7420756E 
 15975      7369676E 
 15975      65642069 
 15975      6E7400
 15976              	.LASF2:
 15977 128c 7369676E 		.ascii	"signed char\000"
 15977      65642063 
 15977      68617200 
 15978              	.LASF563:
 15979 1298 52656769 		.ascii	"RegionCommonSetBandTxDone\000"
 15979      6F6E436F 
 15979      6D6D6F6E 
 15979      53657442 
 15979      616E6454 
 15980              	.LASF381:
 15981 12b2 73547850 		.ascii	"sTxParamSetupReqParams\000"
 15981      6172616D 
 15981      53657475 
 15981      70526571 
 15981      50617261 
 15982              	.LASF338:
 15983 12c9 4765744E 		.ascii	"GetNvmCtxParams_t\000"
 15983      766D4374 
 15983      78506172 
 15983      616D735F 
 15983      7400
 15984              	.LASF479:
 15985 12db 73746174 		.ascii	"status\000"
 15985      757300
 15986              	.LASF384:
 15987 12e2 446C4368 		.ascii	"DlChannelReqParams_t\000"
 15987      616E6E65 
 15987      6C526571 
 15987      50617261 
 15987      6D735F74 
ARM GAS  C:\Users\EBANO_~1\AppData\Local\Temp\cc2nkIni.s 			page 325


 15988              	.LASF539:
 15989 12f7 4C696D69 		.ascii	"LimitTxPower\000"
 15989      74547850 
 15989      6F776572 
 15989      00
 15990              	.LASF400:
 15991 1304 4368616E 		.ascii	"ChannelAddParams_t\000"
 15991      6E656C41 
 15991      64645061 
 15991      72616D73 
 15991      5F7400
 15992              	.LASF175:
 15993 1317 496F496E 		.ascii	"IoInit\000"
 15993      697400
 15994              	.LASF95:
 15995 131e 5F667265 		.ascii	"_freelist\000"
 15995      656C6973 
 15995      7400
 15996              	.LASF429:
 15997 1328 42656163 		.ascii	"BeaconChannelBW\000"
 15997      6F6E4368 
 15997      616E6E65 
 15997      6C425700 
 15998              	.LASF76:
 15999 1338 5F6F6666 		.ascii	"_offset\000"
 15999      73657400 
 16000              	.LASF21:
 16001 1340 53797374 		.ascii	"SystemCoreClock\000"
 16001      656D436F 
 16001      7265436C 
 16001      6F636B00 
 16002              	.LASF326:
 16003 1350 446F776E 		.ascii	"DownlinkDwellTime\000"
 16003      6C696E6B 
 16003      4477656C 
 16003      6C54696D 
 16003      6500
 16004              	.LASF186:
 16005 1362 54696D65 		.ascii	"TimeOnAir\000"
 16005      4F6E4169 
 16005      7200
 16006              	.LASF61:
 16007 136c 5F5F7362 		.ascii	"__sbuf\000"
 16007      756600
 16008              	.LASF122:
 16009 1373 5F6C3634 		.ascii	"_l64a_buf\000"
 16009      615F6275 
 16009      6600
 16010              	.LASF321:
 16011 137d 50687950 		.ascii	"PhyParam_t\000"
 16011      6172616D 
 16011      5F7400
 16012              	.LASF328:
 16013 1388 73536574 		.ascii	"sSetBandTxDoneParams\000"
 16013      42616E64 
 16013      5478446F 
 16013      6E655061 
ARM GAS  C:\Users\EBANO_~1\AppData\Local\Temp\cc2nkIni.s 			page 326


 16013      72616D73 
 16014              	.LASF364:
 16015 139d 416E7465 		.ascii	"AntennaGain\000"
 16015      6E6E6147 
 16015      61696E00 
 16016              	.LASF262:
 16017 13a9 5048595F 		.ascii	"PHY_DUTY_CYCLE\000"
 16017      44555459 
 16017      5F435943 
 16017      4C4500
 16018              	.LASF114:
 16019 13b8 5F617363 		.ascii	"_asctime_buf\000"
 16019      74696D65 
 16019      5F627566 
 16019      00
 16020              	.LASF502:
 16021 13c5 74785469 		.ascii	"txTimeOnAir\000"
 16021      6D654F6E 
 16021      41697200 
 16022              	.LASF31:
 16023 13d1 5F5F7763 		.ascii	"__wch\000"
 16023      6800
 16024              	.LASF457:
 16025 13d7 6368616E 		.ascii	"channelAdd\000"
 16025      6E656C41 
 16025      646400
 16026              	.LASF129:
 16027 13e2 5F776373 		.ascii	"_wcsrtombs_state\000"
 16027      72746F6D 
 16027      62735F73 
 16027      74617465 
 16027      00
 16028              	.LASF391:
 16029 13f3 44757479 		.ascii	"DutyCycleEnabled\000"
 16029      4379636C 
 16029      65456E61 
 16029      626C6564 
 16029      00
 16030              	.LASF475:
 16031 1404 63757272 		.ascii	"currentDr\000"
 16031      656E7444 
 16031      7200
 16032              	.LASF436:
 16033 140e 4D617850 		.ascii	"MaxPayloadOfDatarateDwell1UpAS923\000"
 16033      61796C6F 
 16033      61644F66 
 16033      44617461 
 16033      72617465 
 16034              	.LASF453:
 16035 1430 7478506F 		.ascii	"txPowerLimited\000"
 16035      7765724C 
 16035      696D6974 
 16035      656400
 16036              	.LASF455:
 16037 143f 52656769 		.ascii	"RegionAS923ChannelAdd\000"
 16037      6F6E4153 
 16037      39323343 
ARM GAS  C:\Users\EBANO_~1\AppData\Local\Temp\cc2nkIni.s 			page 327


 16037      68616E6E 
 16037      656C4164 
 16038              	.LASF551:
 16039 1455 54696D65 		.ascii	"TimerGetElapsedTime\000"
 16039      72476574 
 16039      456C6170 
 16039      73656454 
 16039      696D6500 
 16040              	.LASF509:
 16041 1469 6D617850 		.ascii	"maxPayload\000"
 16041      61796C6F 
 16041      616400
 16042              	.LASF533:
 16043 1474 6368616E 		.ascii	"channelsMask\000"
 16043      6E656C73 
 16043      4D61736B 
 16043      00
 16044              	.LASF480:
 16045 1481 52656769 		.ascii	"RegionAS923TxParamSetupReq\000"
 16045      6F6E4153 
 16045      39323354 
 16045      78506172 
 16045      616D5365 
 16046              	.LASF9:
 16047 149c 6C6F6E67 		.ascii	"long int\000"
 16047      20696E74 
 16047      00
 16048              	.LASF510:
 16049 14a5 52656769 		.ascii	"RegionAS923ComputeRxWindowParameters\000"
 16049      6F6E4153 
 16049      39323343 
 16049      6F6D7075 
 16049      74655278 
 16050              	.LASF121:
 16051 14ca 5F776374 		.ascii	"_wctomb_state\000"
 16051      6F6D625F 
 16051      73746174 
 16051      6500
 16052              	.LASF422:
 16053 14d8 52656769 		.ascii	"RegionCommonLinkAdrReqVerifyParams_t\000"
 16053      6F6E436F 
 16053      6D6D6F6E 
 16053      4C696E6B 
 16053      41647252 
 16054              	.LASF372:
 16055 14fd 43757272 		.ascii	"CurrentTxPower\000"
 16055      656E7454 
 16055      78506F77 
 16055      657200
 16056              	.LASF424:
 16057 150c 42616E64 		.ascii	"Bands\000"
 16057      7300
 16058              	.LASF308:
 16059 1512 4348414E 		.ascii	"CHANNELS_MASK\000"
 16059      4E454C53 
 16059      5F4D4153 
 16059      4B00
ARM GAS  C:\Users\EBANO_~1\AppData\Local\Temp\cc2nkIni.s 			page 328


 16060              	.LASF537:
 16061 1520 56657269 		.ascii	"VerifyRfFreq\000"
 16061      66795266 
 16061      46726571 
 16061      00
 16062              	.LASF107:
 16063 152d 5F696F62 		.ascii	"_iobs\000"
 16063      7300
 16064              	.LASF87:
 16065 1533 5F656D65 		.ascii	"_emergency\000"
 16065      7267656E 
 16065      637900
 16066              	.LASF466:
 16067 153e 6368616E 		.ascii	"channelNext\000"
 16067      6E656C4E 
 16067      65787400 
 16068              	.LASF511:
 16069 154a 6D696E52 		.ascii	"minRxSymbols\000"
 16069      7853796D 
 16069      626F6C73 
 16069      00
 16070              	.LASF433:
 16071 1557 42616E64 		.ascii	"BandwidthsAS923\000"
 16071      77696474 
 16071      68734153 
 16071      39323300 
 16072              	.LASF131:
 16073 1567 5F6E6578 		.ascii	"_nextf\000"
 16073      746600
 16074              	.LASF117:
 16075 156e 5F72616E 		.ascii	"_rand_next\000"
 16075      645F6E65 
 16075      787400
 16076              	.LASF524:
 16077 1579 70687941 		.ascii	"phyAttribute\000"
 16077      74747269 
 16077      62757465 
 16077      00
 16078              	.LASF20:
 16079 1586 75696E74 		.ascii	"uint32_t\000"
 16079      33325F74 
 16079      00
 16080              	.LASF416:
 16081 158f 53746174 		.ascii	"Status\000"
 16081      757300
 16082              	.LASF561:
 16083 1596 52656769 		.ascii	"RegionCommonComputeSymbolTimeFsk\000"
 16083      6F6E436F 
 16083      6D6D6F6E 
 16083      436F6D70 
 16083      75746553 
 16084              	.LASF405:
 16085 15b7 436F6E74 		.ascii	"ContinuousWaveParams_t\000"
 16085      696E756F 
 16085      75735761 
 16085      76655061 
 16085      72616D73 
ARM GAS  C:\Users\EBANO_~1\AppData\Local\Temp\cc2nkIni.s 			page 329


 16086              	.LASF39:
 16087 15ce 5F6D6178 		.ascii	"_maxwds\000"
 16087      77647300 
 16088              	.LASF528:
 16089 15d6 62616E64 		.ascii	"bands\000"
 16089      7300
 16090              	.LASF191:
 16091 15dc 53657454 		.ascii	"SetTxContinuousWave\000"
 16091      78436F6E 
 16091      74696E75 
 16091      6F757357 
 16091      61766500 
 16092              	.LASF26:
 16093 15f0 6C6F6E67 		.ascii	"long double\000"
 16093      20646F75 
 16093      626C6500 
 16094              	.LASF138:
 16095 15fc 7375626F 		.ascii	"suboptarg\000"
 16095      70746172 
 16095      6700
 16096              	.LASF275:
 16097 1606 5048595F 		.ascii	"PHY_MAX_NB_CHANNELS\000"
 16097      4D41585F 
 16097      4E425F43 
 16097      48414E4E 
 16097      454C5300 
 16098              	.LASF382:
 16099 161a 54785061 		.ascii	"TxParamSetupReqParams_t\000"
 16099      72616D53 
 16099      65747570 
 16099      52657150 
 16099      6172616D 
 16100              	.LASF11:
 16101 1632 6C6F6E67 		.ascii	"long unsigned int\000"
 16101      20756E73 
 16101      69676E65 
 16101      6420696E 
 16101      7400
 16102              	.LASF440:
 16103 1644 4368616E 		.ascii	"ChannelsDefaultMask\000"
 16103      6E656C73 
 16103      44656661 
 16103      756C744D 
 16103      61736B00 
 16104              	.LASF559:
 16105 1658 52656769 		.ascii	"RegionCommonComputeSymbolTimeLoRa\000"
 16105      6F6E436F 
 16105      6D6D6F6E 
 16105      436F6D70 
 16105      75746553 
 16106              	.LASF307:
 16107 167a 65436861 		.ascii	"eChannelsMask\000"
 16107      6E6E656C 
 16107      734D6173 
 16107      6B00
 16108              	.LASF181:
 16109 1688 49734368 		.ascii	"IsChannelFree\000"
ARM GAS  C:\Users\EBANO_~1\AppData\Local\Temp\cc2nkIni.s 			page 330


 16109      616E6E65 
 16109      6C467265 
 16109      6500
 16110              	.LASF72:
 16111 1696 5F636C6F 		.ascii	"_close\000"
 16111      736500
 16112              	.LASF198:
 16113 169d 53657450 		.ascii	"SetPublicNetwork\000"
 16113      75626C69 
 16113      634E6574 
 16113      776F726B 
 16113      00
 16114              	.LASF103:
 16115 16ae 63686172 		.ascii	"char\000"
 16115      00
 16116              	.LASF280:
 16117 16b3 5048595F 		.ascii	"PHY_DEF_ANTENNA_GAIN\000"
 16117      4445465F 
 16117      414E5445 
 16117      4E4E415F 
 16117      4741494E 
 16118              	.LASF164:
 16119 16c8 52465F43 		.ascii	"RF_CAD\000"
 16119      414400
 16120              	.LASF105:
 16121 16cf 5F676C75 		.ascii	"_glue\000"
 16121      6500
 16122              	.LASF467:
 16123 16d5 6E62456E 		.ascii	"nbEnabledChannels\000"
 16123      61626C65 
 16123      64436861 
 16123      6E6E656C 
 16123      7300
 16124              	.LASF394:
 16125 16e7 43616C63 		.ascii	"CalcBackOffParams_t\000"
 16125      4261636B 
 16125      4F666650 
 16125      6172616D 
 16125      735F7400 
 16126              	.LASF23:
 16127 16fb 41504250 		.ascii	"APBPrescTable\000"
 16127      72657363 
 16127      5461626C 
 16127      6500
 16128              	.LASF200:
 16129 1709 49727150 		.ascii	"IrqProcess\000"
 16129      726F6365 
 16129      737300
 16130              	.LASF547:
 16131 1714 52656769 		.ascii	"RegionCommonComputeTxPower\000"
 16131      6F6E436F 
 16131      6D6D6F6E 
 16131      436F6D70 
 16131      75746554 
 16132              	.LASF549:
 16133 172f 52656769 		.ascii	"RegionCommonValueInRange\000"
 16133      6F6E436F 
ARM GAS  C:\Users\EBANO_~1\AppData\Local\Temp\cc2nkIni.s 			page 331


 16133      6D6D6F6E 
 16133      56616C75 
 16133      65496E52 
 16134              	.LASF253:
 16135 1748 5048595F 		.ascii	"PHY_DEF_TX_DR\000"
 16135      4445465F 
 16135      54585F44 
 16135      5200
 16136              	.LASF227:
 16137 1756 4C4F5241 		.ascii	"LORAMAC_STATUS_FREQUENCY_INVALID\000"
 16137      4D41435F 
 16137      53544154 
 16137      55535F46 
 16137      52455155 
 16138              	.LASF470:
 16139 1777 6E657874 		.ascii	"nextTxDelay\000"
 16139      54784465 
 16139      6C617900 
 16140              	.LASF434:
 16141 1783 4D617850 		.ascii	"MaxPayloadOfDatarateDwell0AS923\000"
 16141      61796C6F 
 16141      61644F66 
 16141      44617461 
 16141      72617465 
 16142              	.LASF532:
 16143 17a3 6A6F696E 		.ascii	"joined\000"
 16143      656400
 16144              	.LASF42:
 16145 17aa 5F426967 		.ascii	"_Bigint\000"
 16145      696E7400 
 16146              	.LASF386:
 16147 17b2 414C5445 		.ascii	"ALTERNATE_DR\000"
 16147      524E4154 
 16147      455F4452 
 16147      00
 16148              	.LASF542:
 16149 17bf 47657442 		.ascii	"GetBandwidth\000"
 16149      616E6477 
 16149      69647468 
 16149      00
 16150              	.LASF256:
 16151 17cc 5048595F 		.ascii	"PHY_TX_POWER\000"
 16151      54585F50 
 16151      4F574552 
 16151      00
 16152              	.LASF180:
 16153 17d9 53657443 		.ascii	"SetChannel\000"
 16153      68616E6E 
 16153      656C00
 16154              	.LASF316:
 16155 17e4 75506879 		.ascii	"uPhyParam\000"
 16155      50617261 
 16155      6D00
 16156              	.LASF489:
 16157 17ee 7478506F 		.ascii	"txPowOut\000"
 16157      774F7574 
 16157      00
ARM GAS  C:\Users\EBANO_~1\AppData\Local\Temp\cc2nkIni.s 			page 332


 16158              	.LASF99:
 16159 17f7 5F617465 		.ascii	"_atexit0\000"
 16159      78697430 
 16159      00
 16160              	.LASF350:
 16161 1800 4368616E 		.ascii	"ChannelsMaskIn\000"
 16161      6E656C73 
 16161      4D61736B 
 16161      496E00
 16162              	.LASF223:
 16163 180f 4C4F5241 		.ascii	"LORAMAC_STATUS_OK\000"
 16163      4D41435F 
 16163      53544154 
 16163      55535F4F 
 16163      4B00
 16164              	.LASF257:
 16165 1821 5048595F 		.ascii	"PHY_DEF_TX_POWER\000"
 16165      4445465F 
 16165      54585F50 
 16165      4F574552 
 16165      00
 16166              	.LASF124:
 16167 1832 5F676574 		.ascii	"_getdate_err\000"
 16167      64617465 
 16167      5F657272 
 16167      00
 16168              	.LASF558:
 16169 183f 6D656D73 		.ascii	"memset1\000"
 16169      65743100 
 16170              	.LASF295:
 16171 1847 5048595F 		.ascii	"PHY_BEACON_CHANNEL_FREQ\000"
 16171      42454143 
 16171      4F4E5F43 
 16171      48414E4E 
 16171      454C5F46 
 16172              	.LASF282:
 16173 185f 5048595F 		.ascii	"PHY_BEACON_INTERVAL\000"
 16173      42454143 
 16173      4F4E5F49 
 16173      4E544552 
 16173      56414C00 
 16174              	.LASF277:
 16175 1873 5048595F 		.ascii	"PHY_DEF_UPLINK_DWELL_TIME\000"
 16175      4445465F 
 16175      55504C49 
 16175      4E4B5F44 
 16175      57454C4C 
 16176              	.LASF309:
 16177 188d 4348414E 		.ascii	"CHANNELS_DEFAULT_MASK\000"
 16177      4E454C53 
 16177      5F444546 
 16177      41554C54 
 16177      5F4D4153 
 16178              	.LASF268:
 16179 18a3 5048595F 		.ascii	"PHY_MAX_FCNT_GAP\000"
 16179      4D41585F 
 16179      46434E54 
ARM GAS  C:\Users\EBANO_~1\AppData\Local\Temp\cc2nkIni.s 			page 333


 16179      5F474150 
 16179      00
 16180              	.LASF332:
 16181 18b4 73496E69 		.ascii	"sInitDefaultsParams\000"
 16181      74446566 
 16181      61756C74 
 16181      73506172 
 16181      616D7300 
 16182              	.LASF423:
 16183 18c8 73526567 		.ascii	"sRegionCommonCalcBackOffParams\000"
 16183      696F6E43 
 16183      6F6D6D6F 
 16183      6E43616C 
 16183      63426163 
 16184              	.LASF136:
 16185 18e7 5F696D70 		.ascii	"_impure_ptr\000"
 16185      7572655F 
 16185      70747200 
 16186              	.LASF75:
 16187 18f3 5F626C6B 		.ascii	"_blksize\000"
 16187      73697A65 
 16187      00
 16188              	.LASF462:
 16189 18fc 6E657874 		.ascii	"nextChanParams\000"
 16189      4368616E 
 16189      50617261 
 16189      6D7300
 16190              	.LASF73:
 16191 190b 5F756275 		.ascii	"_ubuf\000"
 16191      6600
 16192              	.LASF454:
 16193 1911 52656769 		.ascii	"RegionAS923ChannelsRemove\000"
 16193      6F6E4153 
 16193      39323343 
 16193      68616E6E 
 16193      656C7352 
 16194              	.LASF279:
 16195 192b 5048595F 		.ascii	"PHY_DEF_MAX_EIRP\000"
 16195      4445465F 
 16195      4D41585F 
 16195      45495250 
 16195      00
 16196              	.LASF119:
 16197 193c 5F6D626C 		.ascii	"_mblen_state\000"
 16197      656E5F73 
 16197      74617465 
 16197      00
 16198              	.LASF101:
 16199 1949 5F5F7367 		.ascii	"__sglue\000"
 16199      6C756500 
 16200              	.LASF135:
 16201 1951 5F5F6C6F 		.ascii	"__locale_t\000"
 16201      63616C65 
 16201      5F7400
 16202              	.LASF488:
 16203 195c 64724F75 		.ascii	"drOut\000"
 16203      7400
ARM GAS  C:\Users\EBANO_~1\AppData\Local\Temp\cc2nkIni.s 			page 334


 16204              	.LASF531:
 16205 1962 52656769 		.ascii	"RegionAS923GetPhyParam\000"
 16205      6F6E4153 
 16205      39323347 
 16205      65745068 
 16205      79506172 
 16206              	.LASF91:
 16207 1979 5F5F636C 		.ascii	"__cleanup\000"
 16207      65616E75 
 16207      7000
 16208              	.LASF512:
 16209 1983 72784572 		.ascii	"rxError\000"
 16209      726F7200 
 16210              	.LASF214:
 16211 198b 52585F53 		.ascii	"RX_SLOT_WIN_1\000"
 16211      4C4F545F 
 16211      57494E5F 
 16211      3100
 16212              	.LASF215:
 16213 1999 52585F53 		.ascii	"RX_SLOT_WIN_2\000"
 16213      4C4F545F 
 16213      57494E5F 
 16213      3200
 16214              	.LASF302:
 16215 19a7 65496E69 		.ascii	"eInitType\000"
 16215      74547970 
 16215      6500
 16216              	.LASF24:
 16217 19b1 504C4C4D 		.ascii	"PLLMulTable\000"
 16217      756C5461 
 16217      626C6500 
 16218              	.LASF553:
 16219 19bd 52656769 		.ascii	"RegionCommonCalcBackOff\000"
 16219      6F6E436F 
 16219      6D6D6F6E 
 16219      43616C63 
 16219      4261636B 
 16220              	.LASF29:
 16221 19d5 5F66706F 		.ascii	"_fpos_t\000"
 16221      735F7400 
 16222              	.LASF520:
 16223 19dd 6E657743 		.ascii	"newChannel\000"
 16223      68616E6E 
 16223      656C00
 16224              	.LASF329:
 16225 19e8 4368616E 		.ascii	"Channel\000"
 16225      6E656C00 
 16226              	.LASF66:
 16227 19f0 5F66696C 		.ascii	"_file\000"
 16227      6500
 16228              	.LASF208:
 16229 19f6 73436861 		.ascii	"sChannelParams\000"
 16229      6E6E656C 
 16229      50617261 
 16229      6D7300
 16230              	.LASF64:
 16231 1a05 5F5F7346 		.ascii	"__sFILE\000"
ARM GAS  C:\Users\EBANO_~1\AppData\Local\Temp\cc2nkIni.s 			page 335


 16231      494C4500 
 16232              	.LASF505:
 16233 1a0d 62616E64 		.ascii	"bandwidth\000"
 16233      77696474 
 16233      6800
 16234              	.LASF515:
 16235 1a17 646F7562 		.ascii	"double\000"
 16235      6C6500
 16236              	.LASF60:
 16237 1a1e 5F666E73 		.ascii	"_fns\000"
 16237      00
 16238              	.LASF351:
 16239 1a23 4368616E 		.ascii	"ChannelsMaskType\000"
 16239      6E656C73 
 16239      4D61736B 
 16239      54797065 
 16239      00
 16240              	.LASF35:
 16241 1a34 5F6D6273 		.ascii	"_mbstate_t\000"
 16241      74617465 
 16241      5F7400
 16242              	.LASF130:
 16243 1a3f 5F685F65 		.ascii	"_h_errno\000"
 16243      72726E6F 
 16243      00
 16244              	.LASF315:
 16245 1a48 42656163 		.ascii	"BeaconFormat_t\000"
 16245      6F6E466F 
 16245      726D6174 
 16245      5F7400
 16246              	.LASF8:
 16247 1a57 5F5F696E 		.ascii	"__int32_t\000"
 16247      7433325F 
 16247      7400
 16248              	.LASF507:
 16249 1a61 7278436F 		.ascii	"rxConfig\000"
 16249      6E666967 
 16249      00
 16250              	.LASF10:
 16251 1a6a 5F5F7569 		.ascii	"__uint32_t\000"
 16251      6E743332 
 16251      5F7400
 16252              	.LASF269:
 16253 1a75 5048595F 		.ascii	"PHY_ACK_TIMEOUT\000"
 16253      41434B5F 
 16253      54494D45 
 16253      4F555400 
 16254              	.LASF325:
 16255 1a85 55706C69 		.ascii	"UplinkDwellTime\000"
 16255      6E6B4477 
 16255      656C6C54 
 16255      696D6500 
 16256              	.LASF514:
 16257 1a95 7453796D 		.ascii	"tSymbol\000"
 16257      626F6C00 
 16258              	.LASF34:
 16259 1a9d 5F5F7661 		.ascii	"__value\000"
ARM GAS  C:\Users\EBANO_~1\AppData\Local\Temp\cc2nkIni.s 			page 336


 16259      6C756500 
 16260              	.LASF469:
 16261 1aa5 656E6162 		.ascii	"enabledChannels\000"
 16261      6C656443 
 16261      68616E6E 
 16261      656C7300 
 16262              	.LASF57:
 16263 1ab5 5F69735F 		.ascii	"_is_cxa\000"
 16263      63786100 
 16264              	.LASF235:
 16265 1abd 4C4F5241 		.ascii	"LORAMAC_STATUS_NO_CHANNEL_FOUND\000"
 16265      4D41435F 
 16265      53544154 
 16265      55535F4E 
 16265      4F5F4348 
 16266              	.LASF445:
 16267 1add 646F776E 		.ascii	"downlinkDwellTime\000"
 16267      6C696E6B 
 16267      4477656C 
 16267      6C54696D 
 16267      6500
 16268              	.LASF94:
 16269 1aef 5F703573 		.ascii	"_p5s\000"
 16269      00
 16270              	.LASF341:
 16271 1af4 5478506F 		.ascii	"TxPower\000"
 16271      77657200 
 16272              	.LASF163:
 16273 1afc 52465F54 		.ascii	"RF_TX_RUNNING\000"
 16273      585F5255 
 16273      4E4E494E 
 16273      4700
 16274              	.LASF261:
 16275 1b0a 5048595F 		.ascii	"PHY_MAX_PAYLOAD_REPEATER\000"
 16275      4D41585F 
 16275      5041594C 
 16275      4F41445F 
 16275      52455045 
 16276              	.LASF294:
 16277 1b23 5048595F 		.ascii	"PHY_BEACON_DELAY_BEACON_TIMING_ANS\000"
 16277      42454143 
 16277      4F4E5F44 
 16277      454C4159 
 16277      5F424541 
 16278              	.LASF354:
 16279 1b46 42616E64 		.ascii	"Bandwidth\000"
 16279      77696474 
 16279      6800
 16280              	.LASF342:
 16281 1b50 44757479 		.ascii	"DutyCycle\000"
 16281      4379636C 
 16281      6500
 16282              	.LASF317:
 16283 1b5a 6656616C 		.ascii	"fValue\000"
 16283      756500
 16284              	.LASF139:
 16285 1b61 54696D65 		.ascii	"TimerTime_t\000"
ARM GAS  C:\Users\EBANO_~1\AppData\Local\Temp\cc2nkIni.s 			page 337


 16285      7254696D 
 16285      655F7400 
 16286              	.LASF410:
 16287 1b6d 73526567 		.ascii	"sRegionCommonLinkAdrParams\000"
 16287      696F6E43 
 16287      6F6D6D6F 
 16287      6E4C696E 
 16287      6B416472 
 16288              	.LASF359:
 16289 1b88 5278436F 		.ascii	"RxContinuous\000"
 16289      6E74696E 
 16289      756F7573 
 16289      00
 16290              	.LASF305:
 16291 1b95 494E4954 		.ascii	"INIT_TYPE_RESTORE_CTX\000"
 16291      5F545950 
 16291      455F5245 
 16291      53544F52 
 16291      455F4354 
 16292              	.LASF425:
 16293 1bab 52656769 		.ascii	"RegionCommonCalcBackOffParams_t\000"
 16293      6F6E436F 
 16293      6D6D6F6E 
 16293      43616C63 
 16293      4261636B 
 16294              	.LASF252:
 16295 1bcb 5048595F 		.ascii	"PHY_TX_DR\000"
 16295      54585F44 
 16295      5200
 16296              	.LASF448:
 16297 1bd5 52656769 		.ascii	"RegionAS923RxBeaconSetup\000"
 16297      6F6E4153 
 16297      39323352 
 16297      78426561 
 16297      636F6E53 
 16298              	.LASF500:
 16299 1bee 7478436F 		.ascii	"txConfig\000"
 16299      6E666967 
 16299      00
 16300              	.LASF388:
 16301 1bf7 416C7465 		.ascii	"AlternateDrType_t\000"
 16301      726E6174 
 16301      65447254 
 16301      7970655F 
 16301      7400
 16302              	.LASF155:
 16303 1c09 5F74696D 		.ascii	"_timezone\000"
 16303      657A6F6E 
 16303      6500
 16304              	.LASF250:
 16305 1c13 5048595F 		.ascii	"PHY_MAX_RX_DR\000"
 16305      4D41585F 
 16305      52585F44 
 16305      5200
 16306              	.LASF192:
 16307 1c21 52737369 		.ascii	"Rssi\000"
 16307      00
ARM GAS  C:\Users\EBANO_~1\AppData\Local\Temp\cc2nkIni.s 			page 338


 16308              	.LASF159:
 16309 1c26 4D4F4445 		.ascii	"MODEM_LORA\000"
 16309      4D5F4C4F 
 16309      524100
 16310              	.LASF13:
 16311 1c31 6C6F6E67 		.ascii	"long long unsigned int\000"
 16311      206C6F6E 
 16311      6720756E 
 16311      7369676E 
 16311      65642069 
 16312              	.LASF546:
 16313 1c48 52656769 		.ascii	"RegionCommonRxBeaconSetup\000"
 16313      6F6E436F 
 16313      6D6D6F6E 
 16313      52784265 
 16313      61636F6E 
 16314              	.LASF498:
 16315 1c62 6C696E6B 		.ascii	"linkAdrVerifyParams\000"
 16315      41647256 
 16315      65726966 
 16315      79506172 
 16315      616D7300 
 16316              	.LASF116:
 16317 1c76 5F67616D 		.ascii	"_gamma_signgam\000"
 16317      6D615F73 
 16317      69676E67 
 16317      616D00
 16318              	.LASF151:
 16319 1c85 4C617374 		.ascii	"LastJoinTxDoneTime\000"
 16319      4A6F696E 
 16319      5478446F 
 16319      6E655469 
 16319      6D6500
 16320              	.LASF177:
 16321 1c98 496E6974 		.ascii	"Init\000"
 16321      00
 16322              	.LASF442:
 16323 1c9d 72784265 		.ascii	"rxBeaconSetup\000"
 16323      61636F6E 
 16323      53657475 
 16323      7000
 16324              	.LASF401:
 16325 1cab 73436861 		.ascii	"sChannelRemoveParams\000"
 16325      6E6E656C 
 16325      52656D6F 
 16325      76655061 
 16325      72616D73 
 16326              	.LASF403:
 16327 1cc0 73436F6E 		.ascii	"sContinuousWaveParams\000"
 16327      74696E75 
 16327      6F757357 
 16327      61766550 
 16327      6172616D 
 16328              	.LASF244:
 16329 1cd6 4C4F5241 		.ascii	"LORAMAC_STATUS_CONFIRM_QUEUE_ERROR\000"
 16329      4D41435F 
 16329      53544154 
ARM GAS  C:\Users\EBANO_~1\AppData\Local\Temp\cc2nkIni.s 			page 339


 16329      55535F43 
 16329      4F4E4649 
 16330              	.LASF273:
 16331 1cf9 5048595F 		.ascii	"PHY_CHANNELS_MASK\000"
 16331      4348414E 
 16331      4E454C53 
 16331      5F4D4153 
 16331      4B00
 16332              	.LASF461:
 16333 1d0b 52656769 		.ascii	"RegionAS923NextChannel\000"
 16333      6F6E4153 
 16333      3932334E 
 16333      65787443 
 16333      68616E6E 
 16334              	.LASF143:
 16335 1d22 4D616A6F 		.ascii	"Major\000"
 16335      7200
 16336              	.LASF209:
 16337 1d28 46726571 		.ascii	"Frequency\000"
 16337      75656E63 
 16337      7900
 16338              	.LASF535:
 16339 1d32 64656C61 		.ascii	"delayTransmission\000"
 16339      79547261 
 16339      6E736D69 
 16339      7373696F 
 16339      6E00
 16340              	.LASF437:
 16341 1d44 4D617850 		.ascii	"MaxPayloadOfDatarateDwell1DownAS923\000"
 16341      61796C6F 
 16341      61644F66 
 16341      44617461 
 16341      72617465 
 16342              	.LASF137:
 16343 1d68 5F676C6F 		.ascii	"_global_impure_ptr\000"
 16343      62616C5F 
 16343      696D7075 
 16343      72655F70 
 16343      747200
 16344              	.LASF407:
 16345 1d7b 53796D62 		.ascii	"SymbolTimeout\000"
 16345      6F6C5469 
 16345      6D656F75 
 16345      7400
 16346              	.LASF88:
 16347 1d89 5F756E73 		.ascii	"_unspecified_locale_info\000"
 16347      70656369 
 16347      66696564 
 16347      5F6C6F63 
 16347      616C655F 
 16348              	.LASF378:
 16349 1da2 4E657743 		.ascii	"NewChannel\000"
 16349      68616E6E 
 16349      656C00
 16350              	.LASF534:
 16351 1dad 6368616E 		.ascii	"channels\000"
 16351      6E656C73 
ARM GAS  C:\Users\EBANO_~1\AppData\Local\Temp\cc2nkIni.s 			page 340


 16351      00
 16352              	.LASF304:
 16353 1db6 494E4954 		.ascii	"INIT_TYPE_RESTORE_DEFAULT_CHANNELS\000"
 16353      5F545950 
 16353      455F5245 
 16353      53544F52 
 16353      455F4445 
 16354              	.LASF90:
 16355 1dd9 5F5F7364 		.ascii	"__sdidinit\000"
 16355      6964696E 
 16355      697400
 16356              	.LASF481:
 16357 1de4 74785061 		.ascii	"txParamSetupReq\000"
 16357      72616D53 
 16357      65747570 
 16357      52657100 
 16358              	.LASF318:
 16359 1df4 4368616E 		.ascii	"ChannelsMask\000"
 16359      6E656C73 
 16359      4D61736B 
 16359      00
 16360              	.LASF187:
 16361 1e01 53656E64 		.ascii	"Send\000"
 16361      00
 16362              	.LASF300:
 16363 1e06 5048595F 		.ascii	"PHY_PING_SLOT_CHANNEL_DR\000"
 16363      50494E47 
 16363      5F534C4F 
 16363      545F4348 
 16363      414E4E45 
 16364              	.LASF324:
 16365 1e1f 44617461 		.ascii	"Datarate\000"
 16365      72617465 
 16365      00
 16366              	.LASF36:
 16367 1e28 5F666C6F 		.ascii	"_flock_t\000"
 16367      636B5F74 
 16367      00
 16368              	.LASF545:
 16369 1e31 6E657874 		.ascii	"nextLowerDr\000"
 16369      4C6F7765 
 16369      72447200 
 16370              	.LASF239:
 16371 1e3d 4C4F5241 		.ascii	"LORAMAC_STATUS_BUSY_UPLINK_COLLISION\000"
 16371      4D41435F 
 16371      53544154 
 16371      55535F42 
 16371      5553595F 
 16372              	.LASF471:
 16373 1e62 52656769 		.ascii	"RegionAS923CalcBackOff\000"
 16373      6F6E4153 
 16373      39323343 
 16373      616C6342 
 16373      61636B4F 
 16374              	.LASF173:
 16375 1e79 52616469 		.ascii	"RadioEvents_t\000"
 16375      6F457665 
ARM GAS  C:\Users\EBANO_~1\AppData\Local\Temp\cc2nkIni.s 			page 341


 16375      6E74735F 
 16375      7400
 16376              	.LASF492:
 16377 1e87 6C696E6B 		.ascii	"linkAdrParams\000"
 16377      41647250 
 16377      6172616D 
 16377      7300
 16378              	.LASF444:
 16379 1e95 72656769 		.ascii	"regionCommonRxBeaconSetup\000"
 16379      6F6E436F 
 16379      6D6D6F6E 
 16379      52784265 
 16379      61636F6E 
 16380              	.LASF246:
 16381 1eaf 4C6F5261 		.ascii	"LoRaMacStatus_t\000"
 16381      4D616353 
 16381      74617475 
 16381      735F7400 
 16382              	.LASF373:
 16383 1ebf 43757272 		.ascii	"CurrentNbRep\000"
 16383      656E744E 
 16383      62526570 
 16383      00
 16384              	.LASF12:
 16385 1ecc 6C6F6E67 		.ascii	"long long int\000"
 16385      206C6F6E 
 16385      6720696E 
 16385      7400
 16386              	.LASF229:
 16387 1eda 4C4F5241 		.ascii	"LORAMAC_STATUS_FREQ_AND_DR_INVALID\000"
 16387      4D41435F 
 16387      53544154 
 16387      55535F46 
 16387      5245515F 
 16388              	.LASF243:
 16389 1efd 4C4F5241 		.ascii	"LORAMAC_STATUS_CLASS_B_ERROR\000"
 16389      4D41435F 
 16389      53544154 
 16389      55535F43 
 16389      4C415353 
 16390              	.LASF80:
 16391 1f1a 5F666C61 		.ascii	"_flags2\000"
 16391      67733200 
 16392              	.LASF293:
 16393 1f22 5048595F 		.ascii	"PHY_MAX_BEACON_LESS_PERIOD\000"
 16393      4D41585F 
 16393      42454143 
 16393      4F4E5F4C 
 16393      4553535F 
 16394              	.LASF172:
 16395 1f3d 43616444 		.ascii	"CadDone\000"
 16395      6F6E6500 
 16396              	.LASF89:
 16397 1f45 5F6C6F63 		.ascii	"_locale\000"
 16397      616C6500 
 16398              	.LASF228:
 16399 1f4d 4C4F5241 		.ascii	"LORAMAC_STATUS_DATARATE_INVALID\000"
ARM GAS  C:\Users\EBANO_~1\AppData\Local\Temp\cc2nkIni.s 			page 342


 16399      4D41435F 
 16399      53544154 
 16399      55535F44 
 16399      41544152 
 16400              	.LASF349:
 16401 1f6d 73436861 		.ascii	"sChanMaskSetParams\000"
 16401      6E4D6173 
 16401      6B536574 
 16401      50617261 
 16401      6D7300
 16402              	.LASF22:
 16403 1f80 41484250 		.ascii	"AHBPrescTable\000"
 16403      72657363 
 16403      5461626C 
 16403      6500
 16404              	.LASF276:
 16405 1f8e 5048595F 		.ascii	"PHY_CHANNELS\000"
 16405      4348414E 
 16405      4E454C53 
 16405      00
 16406              	.LASF474:
 16407 1f9b 52656769 		.ascii	"RegionAS923AlternateDr\000"
 16407      6F6E4153 
 16407      39323341 
 16407      6C746572 
 16407      6E617465 
 16408              	.LASF473:
 16409 1fb2 63616C63 		.ascii	"calcBackOffParams\000"
 16409      4261636B 
 16409      4F666650 
 16409      6172616D 
 16409      7300
 16410              	.LASF333:
 16411 1fc4 4E766D43 		.ascii	"NvmCtx\000"
 16411      747800
 16412              	.LASF409:
 16413 1fcb 52784265 		.ascii	"RxBeaconSetup_t\000"
 16413      61636F6E 
 16413      53657475 
 16413      705F7400 
 16414              	.LASF204:
 16415 1fdb 73466965 		.ascii	"sFields\000"
 16415      6C647300 
 16416              	.LASF560:
 16417 1fe3 52656769 		.ascii	"RegionCommonComputeRxWindowParameters\000"
 16417      6F6E436F 
 16417      6D6D6F6E 
 16417      436F6D70 
 16417      75746552 
 16418              	.LASF199:
 16419 2009 47657457 		.ascii	"GetWakeupTime\000"
 16419      616B6575 
 16419      7054696D 
 16419      6500
 16420              	.LASF395:
 16421 2017 734E6578 		.ascii	"sNextChanParams\000"
 16421      74436861 
ARM GAS  C:\Users\EBANO_~1\AppData\Local\Temp\cc2nkIni.s 			page 343


 16421      6E506172 
 16421      616D7300 
 16422              	.LASF431:
 16423 2027 4C6F5261 		.ascii	"LoRaMacMaxEirpTable\000"
 16423      4D61634D 
 16423      61784569 
 16423      72705461 
 16423      626C6500 
 16424              	.LASF383:
 16425 203b 73446C43 		.ascii	"sDlChannelReqParams\000"
 16425      68616E6E 
 16425      656C5265 
 16425      71506172 
 16425      616D7300 
 16426              	.LASF374:
 16427 204f 4C696E6B 		.ascii	"LinkAdrReqParams_t\000"
 16427      41647252 
 16427      65715061 
 16427      72616D73 
 16427      5F7400
 16428              	.LASF456:
 16429 2062 6368616E 		.ascii	"channelRemove\000"
 16429      6E656C52 
 16429      656D6F76 
 16429      6500
 16430              	.LASF104:
 16431 2070 5F5F4649 		.ascii	"__FILE\000"
 16431      4C4500
 16432              	.LASF217:
 16433 2077 52585F53 		.ascii	"RX_SLOT_WIN_PING_SLOT\000"
 16433      4C4F545F 
 16433      57494E5F 
 16433      50494E47 
 16433      5F534C4F 
 16434              	.LASF452:
 16435 208d 66726571 		.ascii	"frequency\000"
 16435      75656E63 
 16435      7900
 16436              	.LASF340:
 16437 2097 75566572 		.ascii	"uVerifyParams\000"
 16437      69667950 
 16437      6172616D 
 16437      7300
 16438              	.LASF238:
 16439 20a5 4C4F5241 		.ascii	"LORAMAC_STATUS_BUSY_PING_SLOT_WINDOW_TIME\000"
 16439      4D41435F 
 16439      53544154 
 16439      55535F42 
 16439      5553595F 
 16440              	.LASF40:
 16441 20cf 5F736967 		.ascii	"_sign\000"
 16441      6E00
 16442              	.LASF0:
 16443 20d5 5F5F696E 		.ascii	"__int8_t\000"
 16443      74385F74 
 16443      00
 16444              	.LASF45:
ARM GAS  C:\Users\EBANO_~1\AppData\Local\Temp\cc2nkIni.s 			page 344


 16445 20de 5F5F746D 		.ascii	"__tm_min\000"
 16445      5F6D696E 
 16445      00
 16446              	.LASF344:
 16447 20e7 56657269 		.ascii	"VerifyParams_t\000"
 16447      66795061 
 16447      72616D73 
 16447      5F7400
 16448              	.LASF14:
 16449 20f6 756E7369 		.ascii	"unsigned int\000"
 16449      676E6564 
 16449      20696E74 
 16449      00
 16450              	.LASF118:
 16451 2103 5F723438 		.ascii	"_r48\000"
 16451      00
 16452              	.LASF145:
 16453 2108 56616C75 		.ascii	"Value\000"
 16453      6500
 16454              	.LASF225:
 16455 210e 4C4F5241 		.ascii	"LORAMAC_STATUS_SERVICE_UNKNOWN\000"
 16455      4D41435F 
 16455      53544154 
 16455      55535F53 
 16455      45525649 
 16456              	.LASF366:
 16457 212d 5478436F 		.ascii	"TxConfigParams_t\000"
 16457      6E666967 
 16457      50617261 
 16457      6D735F74 
 16457      00
 16458              	.LASF233:
 16459 213e 4C4F5241 		.ascii	"LORAMAC_STATUS_SKIPPED_APP_DATA\000"
 16459      4D41435F 
 16459      53544154 
 16459      55535F53 
 16459      4B495050 
 16460              	.LASF446:
 16461 215e 64724F66 		.ascii	"drOffset\000"
 16461      66736574 
 16461      00
 16462              	.LASF5:
 16463 2167 73686F72 		.ascii	"short int\000"
 16463      7420696E 
 16463      7400
 16464              	.LASF291:
 16465 2171 5048595F 		.ascii	"PHY_BEACON_SYMBOL_TO_EXPANSION_FACTOR\000"
 16465      42454143 
 16465      4F4E5F53 
 16465      594D424F 
 16465      4C5F544F 
 16466              	.LASF183:
 16467 2197 53657452 		.ascii	"SetRxConfig\000"
 16467      78436F6E 
 16467      66696700 
 16468              	.LASF69:
 16469 21a3 5F726561 		.ascii	"_read\000"
ARM GAS  C:\Users\EBANO_~1\AppData\Local\Temp\cc2nkIni.s 			page 345


 16469      6400
 16470              	.LASF459:
 16471 21a9 66726571 		.ascii	"freqInvalid\000"
 16471      496E7661 
 16471      6C696400 
 16472              	.LASF554:
 16473 21b5 52656769 		.ascii	"RegionCommonChanDisable\000"
 16473      6F6E436F 
 16473      6D6D6F6E 
 16473      4368616E 
 16473      44697361 
 16474              	.LASF108:
 16475 21cd 5F72616E 		.ascii	"_rand48\000"
 16475      64343800 
 16476              	.LASF477:
 16477 21d5 52656769 		.ascii	"RegionAS923DlChannelReq\000"
 16477      6F6E4153 
 16477      39323344 
 16477      6C436861 
 16477      6E6E656C 
 16478              	.LASF458:
 16479 21ed 6472496E 		.ascii	"drInvalid\000"
 16479      76616C69 
 16479      6400
 16480              	.LASF390:
 16481 21f7 4C617374 		.ascii	"LastTxIsJoinRequest\000"
 16481      54784973 
 16481      4A6F696E 
 16481      52657175 
 16481      65737400 
 16482              		.ident	"GCC: (GNU Tools for Arm Embedded Processors 7-2018-q2-update) 7.3.1 20180622 (release) [AR
ARM GAS  C:\Users\EBANO_~1\AppData\Local\Temp\cc2nkIni.s 			page 346


DEFINED SYMBOLS
                            *ABS*:00000000 RegionAS923.c
C:\Users\EBANO_~1\AppData\Local\Temp\cc2nkIni.s:16     .text.RegionAS923GetPhyParam:00000000 $t
C:\Users\EBANO_~1\AppData\Local\Temp\cc2nkIni.s:24     .text.RegionAS923GetPhyParam:00000000 RegionAS923GetPhyParam
C:\Users\EBANO_~1\AppData\Local\Temp\cc2nkIni.s:53     .rodata:00000000 $d
C:\Users\EBANO_~1\AppData\Local\Temp\cc2nkIni.s:360    .text.RegionAS923GetPhyParam:0000011c $d
C:\Users\EBANO_~1\AppData\Local\Temp\cc2nkIni.s:3993   .bss:00000000 NvmCtx
C:\Users\EBANO_~1\AppData\Local\Temp\cc2nkIni.s:377    .text.RegionAS923SetBandTxDone:00000000 $t
C:\Users\EBANO_~1\AppData\Local\Temp\cc2nkIni.s:385    .text.RegionAS923SetBandTxDone:00000000 RegionAS923SetBandTxDone
C:\Users\EBANO_~1\AppData\Local\Temp\cc2nkIni.s:421    .text.RegionAS923SetBandTxDone:00000020 $d
C:\Users\EBANO_~1\AppData\Local\Temp\cc2nkIni.s:426    .text.RegionAS923InitDefaults:00000000 $t
C:\Users\EBANO_~1\AppData\Local\Temp\cc2nkIni.s:434    .text.RegionAS923InitDefaults:00000000 RegionAS923InitDefaults
C:\Users\EBANO_~1\AppData\Local\Temp\cc2nkIni.s:539    .text.RegionAS923InitDefaults:0000007c $d
C:\Users\EBANO_~1\AppData\Local\Temp\cc2nkIni.s:546    .text.RegionAS923GetNvmCtx:00000000 $t
C:\Users\EBANO_~1\AppData\Local\Temp\cc2nkIni.s:554    .text.RegionAS923GetNvmCtx:00000000 RegionAS923GetNvmCtx
C:\Users\EBANO_~1\AppData\Local\Temp\cc2nkIni.s:575    .text.RegionAS923GetNvmCtx:00000008 $d
C:\Users\EBANO_~1\AppData\Local\Temp\cc2nkIni.s:580    .text.RegionAS923Verify:00000000 $t
C:\Users\EBANO_~1\AppData\Local\Temp\cc2nkIni.s:588    .text.RegionAS923Verify:00000000 RegionAS923Verify
C:\Users\EBANO_~1\AppData\Local\Temp\cc2nkIni.s:701    .text.RegionAS923Verify:00000078 $d
C:\Users\EBANO_~1\AppData\Local\Temp\cc2nkIni.s:706    .text.RegionAS923ApplyCFList:00000000 $t
C:\Users\EBANO_~1\AppData\Local\Temp\cc2nkIni.s:714    .text.RegionAS923ApplyCFList:00000000 RegionAS923ApplyCFList
C:\Users\EBANO_~1\AppData\Local\Temp\cc2nkIni.s:987    .text.RegionAS923ApplyCFList:00000130 $d
C:\Users\EBANO_~1\AppData\Local\Temp\cc2nkIni.s:1001   .text.RegionAS923ChanMaskSet:00000000 $t
C:\Users\EBANO_~1\AppData\Local\Temp\cc2nkIni.s:1009   .text.RegionAS923ChanMaskSet:00000000 RegionAS923ChanMaskSet
C:\Users\EBANO_~1\AppData\Local\Temp\cc2nkIni.s:1063   .text.RegionAS923ChanMaskSet:0000002c $d
C:\Users\EBANO_~1\AppData\Local\Temp\cc2nkIni.s:1069   .text.RegionAS923ComputeRxWindowParameters:00000000 $t
C:\Users\EBANO_~1\AppData\Local\Temp\cc2nkIni.s:1077   .text.RegionAS923ComputeRxWindowParameters:00000000 RegionAS923ComputeRxWindowParameters
C:\Users\EBANO_~1\AppData\Local\Temp\cc2nkIni.s:1213   .text.RegionAS923ComputeRxWindowParameters:00000084 $d
C:\Users\EBANO_~1\AppData\Local\Temp\cc2nkIni.s:1221   .text.RegionAS923RxConfig:00000000 $t
C:\Users\EBANO_~1\AppData\Local\Temp\cc2nkIni.s:1229   .text.RegionAS923RxConfig:00000000 RegionAS923RxConfig
C:\Users\EBANO_~1\AppData\Local\Temp\cc2nkIni.s:1438   .text.RegionAS923RxConfig:000000f4 $d
C:\Users\EBANO_~1\AppData\Local\Temp\cc2nkIni.s:1448   .text.RegionAS923TxConfig:00000000 $t
C:\Users\EBANO_~1\AppData\Local\Temp\cc2nkIni.s:1456   .text.RegionAS923TxConfig:00000000 RegionAS923TxConfig
C:\Users\EBANO_~1\AppData\Local\Temp\cc2nkIni.s:1724   .text.RegionAS923TxConfig:00000120 $d
C:\Users\EBANO_~1\AppData\Local\Temp\cc2nkIni.s:1735   .text.RegionAS923LinkAdrReq:00000000 $t
C:\Users\EBANO_~1\AppData\Local\Temp\cc2nkIni.s:1743   .text.RegionAS923LinkAdrReq:00000000 RegionAS923LinkAdrReq
C:\Users\EBANO_~1\AppData\Local\Temp\cc2nkIni.s:2408   .text.RegionAS923LinkAdrReq:00000308 $d
C:\Users\EBANO_~1\AppData\Local\Temp\cc2nkIni.s:2414   .text.RegionAS923RxParamSetupReq:00000000 $t
C:\Users\EBANO_~1\AppData\Local\Temp\cc2nkIni.s:2422   .text.RegionAS923RxParamSetupReq:00000000 RegionAS923RxParamSetupReq
C:\Users\EBANO_~1\AppData\Local\Temp\cc2nkIni.s:2532   .text.RegionAS923RxParamSetupReq:00000058 $d
C:\Users\EBANO_~1\AppData\Local\Temp\cc2nkIni.s:2539   .text.RegionAS923NewChannelReq:00000000 $t
C:\Users\EBANO_~1\AppData\Local\Temp\cc2nkIni.s:2547   .text.RegionAS923NewChannelReq:00000000 RegionAS923NewChannelReq
C:\Users\EBANO_~1\AppData\Local\Temp\cc2nkIni.s:2783   .text.RegionAS923NewChannelReq:000000f4 $d
C:\Users\EBANO_~1\AppData\Local\Temp\cc2nkIni.s:2791   .text.RegionAS923TxParamSetupReq:00000000 $t
C:\Users\EBANO_~1\AppData\Local\Temp\cc2nkIni.s:2799   .text.RegionAS923TxParamSetupReq:00000000 RegionAS923TxParamSetupReq
C:\Users\EBANO_~1\AppData\Local\Temp\cc2nkIni.s:2816   .text.RegionAS923DlChannelReq:00000000 $t
C:\Users\EBANO_~1\AppData\Local\Temp\cc2nkIni.s:2824   .text.RegionAS923DlChannelReq:00000000 RegionAS923DlChannelReq
C:\Users\EBANO_~1\AppData\Local\Temp\cc2nkIni.s:2925   .text.RegionAS923DlChannelReq:00000060 $d
C:\Users\EBANO_~1\AppData\Local\Temp\cc2nkIni.s:2933   .text.RegionAS923AlternateDr:00000000 $t
C:\Users\EBANO_~1\AppData\Local\Temp\cc2nkIni.s:2941   .text.RegionAS923AlternateDr:00000000 RegionAS923AlternateDr
C:\Users\EBANO_~1\AppData\Local\Temp\cc2nkIni.s:2958   .text.RegionAS923CalcBackOff:00000000 $t
C:\Users\EBANO_~1\AppData\Local\Temp\cc2nkIni.s:2966   .text.RegionAS923CalcBackOff:00000000 RegionAS923CalcBackOff
C:\Users\EBANO_~1\AppData\Local\Temp\cc2nkIni.s:3023   .text.RegionAS923CalcBackOff:00000030 $d
C:\Users\EBANO_~1\AppData\Local\Temp\cc2nkIni.s:3030   .text.RegionAS923NextChannel:00000000 $t
C:\Users\EBANO_~1\AppData\Local\Temp\cc2nkIni.s:3038   .text.RegionAS923NextChannel:00000000 RegionAS923NextChannel
C:\Users\EBANO_~1\AppData\Local\Temp\cc2nkIni.s:3482   .text.RegionAS923NextChannel:000001fc $d
C:\Users\EBANO_~1\AppData\Local\Temp\cc2nkIni.s:3489   .text.RegionAS923ChannelAdd:00000000 $t
ARM GAS  C:\Users\EBANO_~1\AppData\Local\Temp\cc2nkIni.s 			page 347


C:\Users\EBANO_~1\AppData\Local\Temp\cc2nkIni.s:3497   .text.RegionAS923ChannelAdd:00000000 RegionAS923ChannelAdd
C:\Users\EBANO_~1\AppData\Local\Temp\cc2nkIni.s:3690   .text.RegionAS923ChannelAdd:000000c8 $d
C:\Users\EBANO_~1\AppData\Local\Temp\cc2nkIni.s:3698   .text.RegionAS923ChannelsRemove:00000000 $t
C:\Users\EBANO_~1\AppData\Local\Temp\cc2nkIni.s:3706   .text.RegionAS923ChannelsRemove:00000000 RegionAS923ChannelsRemove
C:\Users\EBANO_~1\AppData\Local\Temp\cc2nkIni.s:3754   .text.RegionAS923ChannelsRemove:0000002c $d
C:\Users\EBANO_~1\AppData\Local\Temp\cc2nkIni.s:3759   .text.RegionAS923SetContinuousWave:00000000 $t
C:\Users\EBANO_~1\AppData\Local\Temp\cc2nkIni.s:3767   .text.RegionAS923SetContinuousWave:00000000 RegionAS923SetContinuousWave
C:\Users\EBANO_~1\AppData\Local\Temp\cc2nkIni.s:3857   .text.RegionAS923SetContinuousWave:00000048 $d
C:\Users\EBANO_~1\AppData\Local\Temp\cc2nkIni.s:3863   .text.RegionAS923ApplyDrOffset:00000000 $t
C:\Users\EBANO_~1\AppData\Local\Temp\cc2nkIni.s:3871   .text.RegionAS923ApplyDrOffset:00000000 RegionAS923ApplyDrOffset
C:\Users\EBANO_~1\AppData\Local\Temp\cc2nkIni.s:3911   .text.RegionAS923ApplyDrOffset:00000024 $d
C:\Users\EBANO_~1\AppData\Local\Temp\cc2nkIni.s:3916   .text.RegionAS923RxBeaconSetup:00000000 $t
C:\Users\EBANO_~1\AppData\Local\Temp\cc2nkIni.s:3924   .text.RegionAS923RxBeaconSetup:00000000 RegionAS923RxBeaconSetup
C:\Users\EBANO_~1\AppData\Local\Temp\cc2nkIni.s:3984   .text.RegionAS923RxBeaconSetup:00000030 $d
C:\Users\EBANO_~1\AppData\Local\Temp\cc2nkIni.s:3990   .bss:00000000 $d
C:\Users\EBANO_~1\AppData\Local\Temp\cc2nkIni.s:4000   .rodata:000000ec BandwidthsAS923
C:\Users\EBANO_~1\AppData\Local\Temp\cc2nkIni.s:4011   .rodata:0000010c DataratesAS923
C:\Users\EBANO_~1\AppData\Local\Temp\cc2nkIni.s:4022   .rodata:00000114 EffectiveRx1DrOffsetAS923
C:\Users\EBANO_~1\AppData\Local\Temp\cc2nkIni.s:4035   .rodata:0000011c MaxPayloadOfDatarateDwell0AS923
C:\Users\EBANO_~1\AppData\Local\Temp\cc2nkIni.s:4046   .rodata:00000124 MaxPayloadOfDatarateDwell1UpAS923
C:\Users\EBANO_~1\AppData\Local\Temp\cc2nkIni.s:4057   .rodata:0000012c MaxPayloadOfDatarateRepeaterDwell0AS923

UNDEFINED SYMBOLS
randr
RegionCommonSetBandTxDone
memcpy1
RegionCommonChanMaskCopy
RegionCommonValueInRange
memset
RegionCommonChanDisable
Radio
RegionCommonComputeSymbolTimeLoRa
RegionCommonComputeRxWindowParameters
RegionCommonComputeSymbolTimeFsk
RegionCommonComputeTxPower
RegionCommonParseLinkAdrReq
RegionCommonLinkAdrReqVerifyParams
memset1
RegionCommonCalcBackOff
__aeabi_uidivmod
__aeabi_idivmod
RegionCommonCountChannels
TimerGetElapsedTime
RegionCommonUpdateBandTimeOff
RegionCommonRxBeaconSetup
