ARM GAS  C:\Users\EBANO_~1\AppData\Local\Temp\ccEfOEMG.s 			page 1


   1              		.cpu cortex-m0plus
   2              		.eabi_attribute 20, 1
   3              		.eabi_attribute 21, 1
   4              		.eabi_attribute 23, 3
   5              		.eabi_attribute 24, 1
   6              		.eabi_attribute 25, 1
   7              		.eabi_attribute 26, 1
   8              		.eabi_attribute 30, 2
   9              		.eabi_attribute 34, 0
  10              		.eabi_attribute 18, 4
  11              		.file	"RegionIN865.c"
  12              		.text
  13              	.Ltext0:
  14              		.cfi_sections	.debug_frame
  15              		.section	.text.RegionIN865GetPhyParam,"ax",%progbits
  16              		.align	1
  17              		.p2align 2,,3
  18              		.global	RegionIN865GetPhyParam
  19              		.syntax unified
  20              		.code	16
  21              		.thumb_func
  22              		.fpu softvfp
  23              		.type	RegionIN865GetPhyParam, %function
  24              	RegionIN865GetPhyParam:
  25              	.LFB44:
  26              		.file 1 "../../../../../../Middlewares/Third_Party/LoRaWAN/Mac/region/RegionIN865.c"
   1:../../../../../../Middlewares/Third_Party/LoRaWAN/Mac/region/RegionIN865.c **** /*!
   2:../../../../../../Middlewares/Third_Party/LoRaWAN/Mac/region/RegionIN865.c ****  * \file      RegionIN865.c
   3:../../../../../../Middlewares/Third_Party/LoRaWAN/Mac/region/RegionIN865.c ****  *
   4:../../../../../../Middlewares/Third_Party/LoRaWAN/Mac/region/RegionIN865.c ****  * \brief     Region implementation for IN865
   5:../../../../../../Middlewares/Third_Party/LoRaWAN/Mac/region/RegionIN865.c ****  *
   6:../../../../../../Middlewares/Third_Party/LoRaWAN/Mac/region/RegionIN865.c ****  * \copyright Revised BSD License, see section \ref LICENSE.
   7:../../../../../../Middlewares/Third_Party/LoRaWAN/Mac/region/RegionIN865.c ****  *
   8:../../../../../../Middlewares/Third_Party/LoRaWAN/Mac/region/RegionIN865.c ****  * \code
   9:../../../../../../Middlewares/Third_Party/LoRaWAN/Mac/region/RegionIN865.c ****  *                ______                              _
  10:../../../../../../Middlewares/Third_Party/LoRaWAN/Mac/region/RegionIN865.c ****  *               / _____)             _              | |
  11:../../../../../../Middlewares/Third_Party/LoRaWAN/Mac/region/RegionIN865.c ****  *              ( (____  _____ ____ _| |_ _____  ____| |__
  12:../../../../../../Middlewares/Third_Party/LoRaWAN/Mac/region/RegionIN865.c ****  *               \____ \| ___ |    (_   _) ___ |/ ___)  _ \
  13:../../../../../../Middlewares/Third_Party/LoRaWAN/Mac/region/RegionIN865.c ****  *               _____) ) ____| | | || |_| ____( (___| | | |
  14:../../../../../../Middlewares/Third_Party/LoRaWAN/Mac/region/RegionIN865.c ****  *              (______/|_____)_|_|_| \__)_____)\____)_| |_|
  15:../../../../../../Middlewares/Third_Party/LoRaWAN/Mac/region/RegionIN865.c ****  *              (C)2013-2017 Semtech
  16:../../../../../../Middlewares/Third_Party/LoRaWAN/Mac/region/RegionIN865.c ****  *
  17:../../../../../../Middlewares/Third_Party/LoRaWAN/Mac/region/RegionIN865.c ****  *               ___ _____ _   ___ _  _____ ___  ___  ___ ___
  18:../../../../../../Middlewares/Third_Party/LoRaWAN/Mac/region/RegionIN865.c ****  *              / __|_   _/_\ / __| |/ / __/ _ \| _ \/ __| __|
  19:../../../../../../Middlewares/Third_Party/LoRaWAN/Mac/region/RegionIN865.c ****  *              \__ \ | |/ _ \ (__| ' <| _| (_) |   / (__| _|
  20:../../../../../../Middlewares/Third_Party/LoRaWAN/Mac/region/RegionIN865.c ****  *              |___/ |_/_/ \_\___|_|\_\_| \___/|_|_\\___|___|
  21:../../../../../../Middlewares/Third_Party/LoRaWAN/Mac/region/RegionIN865.c ****  *              embedded.connectivity.solutions===============
  22:../../../../../../Middlewares/Third_Party/LoRaWAN/Mac/region/RegionIN865.c ****  *
  23:../../../../../../Middlewares/Third_Party/LoRaWAN/Mac/region/RegionIN865.c ****  * \endcode
  24:../../../../../../Middlewares/Third_Party/LoRaWAN/Mac/region/RegionIN865.c ****  *
  25:../../../../../../Middlewares/Third_Party/LoRaWAN/Mac/region/RegionIN865.c ****  * \author    Miguel Luis ( Semtech )
  26:../../../../../../Middlewares/Third_Party/LoRaWAN/Mac/region/RegionIN865.c ****  *
  27:../../../../../../Middlewares/Third_Party/LoRaWAN/Mac/region/RegionIN865.c ****  * \author    Gregory Cristian ( Semtech )
  28:../../../../../../Middlewares/Third_Party/LoRaWAN/Mac/region/RegionIN865.c ****  *
  29:../../../../../../Middlewares/Third_Party/LoRaWAN/Mac/region/RegionIN865.c ****  * \author    Daniel Jaeckle ( STACKFORCE )
  30:../../../../../../Middlewares/Third_Party/LoRaWAN/Mac/region/RegionIN865.c **** */
  31:../../../../../../Middlewares/Third_Party/LoRaWAN/Mac/region/RegionIN865.c **** #include "utilities.h"
ARM GAS  C:\Users\EBANO_~1\AppData\Local\Temp\ccEfOEMG.s 			page 2


  32:../../../../../../Middlewares/Third_Party/LoRaWAN/Mac/region/RegionIN865.c **** 
  33:../../../../../../Middlewares/Third_Party/LoRaWAN/Mac/region/RegionIN865.c **** #include "RegionCommon.h"
  34:../../../../../../Middlewares/Third_Party/LoRaWAN/Mac/region/RegionIN865.c **** #include "RegionIN865.h"
  35:../../../../../../Middlewares/Third_Party/LoRaWAN/Mac/region/RegionIN865.c **** #include "util_console.h"
  36:../../../../../../Middlewares/Third_Party/LoRaWAN/Mac/region/RegionIN865.c **** 
  37:../../../../../../Middlewares/Third_Party/LoRaWAN/Mac/region/RegionIN865.c **** // Definitions
  38:../../../../../../Middlewares/Third_Party/LoRaWAN/Mac/region/RegionIN865.c **** #define CHANNELS_MASK_SIZE              1
  39:../../../../../../Middlewares/Third_Party/LoRaWAN/Mac/region/RegionIN865.c **** 
  40:../../../../../../Middlewares/Third_Party/LoRaWAN/Mac/region/RegionIN865.c **** /*!
  41:../../../../../../Middlewares/Third_Party/LoRaWAN/Mac/region/RegionIN865.c ****  * Region specific context
  42:../../../../../../Middlewares/Third_Party/LoRaWAN/Mac/region/RegionIN865.c ****  */
  43:../../../../../../Middlewares/Third_Party/LoRaWAN/Mac/region/RegionIN865.c **** typedef struct sRegionIN865NvmCtx
  44:../../../../../../Middlewares/Third_Party/LoRaWAN/Mac/region/RegionIN865.c **** {
  45:../../../../../../Middlewares/Third_Party/LoRaWAN/Mac/region/RegionIN865.c ****     /*!
  46:../../../../../../Middlewares/Third_Party/LoRaWAN/Mac/region/RegionIN865.c ****      * LoRaMAC channels
  47:../../../../../../Middlewares/Third_Party/LoRaWAN/Mac/region/RegionIN865.c ****      */
  48:../../../../../../Middlewares/Third_Party/LoRaWAN/Mac/region/RegionIN865.c ****     ChannelParams_t Channels[ IN865_MAX_NB_CHANNELS ];
  49:../../../../../../Middlewares/Third_Party/LoRaWAN/Mac/region/RegionIN865.c ****     /*!
  50:../../../../../../Middlewares/Third_Party/LoRaWAN/Mac/region/RegionIN865.c ****      * LoRaMac bands
  51:../../../../../../Middlewares/Third_Party/LoRaWAN/Mac/region/RegionIN865.c ****      */
  52:../../../../../../Middlewares/Third_Party/LoRaWAN/Mac/region/RegionIN865.c ****     Band_t Bands[ IN865_MAX_NB_BANDS ];
  53:../../../../../../Middlewares/Third_Party/LoRaWAN/Mac/region/RegionIN865.c ****     /*!
  54:../../../../../../Middlewares/Third_Party/LoRaWAN/Mac/region/RegionIN865.c ****      * LoRaMac channels mask
  55:../../../../../../Middlewares/Third_Party/LoRaWAN/Mac/region/RegionIN865.c ****      */
  56:../../../../../../Middlewares/Third_Party/LoRaWAN/Mac/region/RegionIN865.c ****     uint16_t ChannelsMask[ CHANNELS_MASK_SIZE ];
  57:../../../../../../Middlewares/Third_Party/LoRaWAN/Mac/region/RegionIN865.c ****     /*!
  58:../../../../../../Middlewares/Third_Party/LoRaWAN/Mac/region/RegionIN865.c ****      * LoRaMac channels default mask
  59:../../../../../../Middlewares/Third_Party/LoRaWAN/Mac/region/RegionIN865.c ****      */
  60:../../../../../../Middlewares/Third_Party/LoRaWAN/Mac/region/RegionIN865.c ****     uint16_t ChannelsDefaultMask[ CHANNELS_MASK_SIZE ];
  61:../../../../../../Middlewares/Third_Party/LoRaWAN/Mac/region/RegionIN865.c **** }RegionIN865NvmCtx_t;
  62:../../../../../../Middlewares/Third_Party/LoRaWAN/Mac/region/RegionIN865.c **** 
  63:../../../../../../Middlewares/Third_Party/LoRaWAN/Mac/region/RegionIN865.c **** /*
  64:../../../../../../Middlewares/Third_Party/LoRaWAN/Mac/region/RegionIN865.c ****  * Non-volatile module context.
  65:../../../../../../Middlewares/Third_Party/LoRaWAN/Mac/region/RegionIN865.c ****  */
  66:../../../../../../Middlewares/Third_Party/LoRaWAN/Mac/region/RegionIN865.c **** static RegionIN865NvmCtx_t NvmCtx;
  67:../../../../../../Middlewares/Third_Party/LoRaWAN/Mac/region/RegionIN865.c **** 
  68:../../../../../../Middlewares/Third_Party/LoRaWAN/Mac/region/RegionIN865.c **** // Static functions
  69:../../../../../../Middlewares/Third_Party/LoRaWAN/Mac/region/RegionIN865.c **** static int8_t GetNextLowerTxDr( int8_t dr, int8_t minDr )
  70:../../../../../../Middlewares/Third_Party/LoRaWAN/Mac/region/RegionIN865.c **** {
  71:../../../../../../Middlewares/Third_Party/LoRaWAN/Mac/region/RegionIN865.c ****     uint8_t nextLowerDr = 0;
  72:../../../../../../Middlewares/Third_Party/LoRaWAN/Mac/region/RegionIN865.c **** 
  73:../../../../../../Middlewares/Third_Party/LoRaWAN/Mac/region/RegionIN865.c ****     if( dr == minDr )
  74:../../../../../../Middlewares/Third_Party/LoRaWAN/Mac/region/RegionIN865.c ****     {
  75:../../../../../../Middlewares/Third_Party/LoRaWAN/Mac/region/RegionIN865.c ****         nextLowerDr = minDr;
  76:../../../../../../Middlewares/Third_Party/LoRaWAN/Mac/region/RegionIN865.c ****     }
  77:../../../../../../Middlewares/Third_Party/LoRaWAN/Mac/region/RegionIN865.c ****     else if( dr == DR_7 )
  78:../../../../../../Middlewares/Third_Party/LoRaWAN/Mac/region/RegionIN865.c ****     {
  79:../../../../../../Middlewares/Third_Party/LoRaWAN/Mac/region/RegionIN865.c ****         nextLowerDr = DR_5;
  80:../../../../../../Middlewares/Third_Party/LoRaWAN/Mac/region/RegionIN865.c ****     }
  81:../../../../../../Middlewares/Third_Party/LoRaWAN/Mac/region/RegionIN865.c ****     else
  82:../../../../../../Middlewares/Third_Party/LoRaWAN/Mac/region/RegionIN865.c ****     {
  83:../../../../../../Middlewares/Third_Party/LoRaWAN/Mac/region/RegionIN865.c ****         nextLowerDr = dr - 1;
  84:../../../../../../Middlewares/Third_Party/LoRaWAN/Mac/region/RegionIN865.c ****     }
  85:../../../../../../Middlewares/Third_Party/LoRaWAN/Mac/region/RegionIN865.c ****     return nextLowerDr;
  86:../../../../../../Middlewares/Third_Party/LoRaWAN/Mac/region/RegionIN865.c **** }
  87:../../../../../../Middlewares/Third_Party/LoRaWAN/Mac/region/RegionIN865.c **** 
  88:../../../../../../Middlewares/Third_Party/LoRaWAN/Mac/region/RegionIN865.c **** static uint32_t GetBandwidth( uint32_t drIndex )
ARM GAS  C:\Users\EBANO_~1\AppData\Local\Temp\ccEfOEMG.s 			page 3


  89:../../../../../../Middlewares/Third_Party/LoRaWAN/Mac/region/RegionIN865.c **** {
  90:../../../../../../Middlewares/Third_Party/LoRaWAN/Mac/region/RegionIN865.c ****     switch( BandwidthsIN865[drIndex] )
  91:../../../../../../Middlewares/Third_Party/LoRaWAN/Mac/region/RegionIN865.c ****     {
  92:../../../../../../Middlewares/Third_Party/LoRaWAN/Mac/region/RegionIN865.c ****         default:
  93:../../../../../../Middlewares/Third_Party/LoRaWAN/Mac/region/RegionIN865.c ****         case 125000:
  94:../../../../../../Middlewares/Third_Party/LoRaWAN/Mac/region/RegionIN865.c ****             return 0;
  95:../../../../../../Middlewares/Third_Party/LoRaWAN/Mac/region/RegionIN865.c ****         case 250000:
  96:../../../../../../Middlewares/Third_Party/LoRaWAN/Mac/region/RegionIN865.c ****             return 1;
  97:../../../../../../Middlewares/Third_Party/LoRaWAN/Mac/region/RegionIN865.c ****         case 500000:
  98:../../../../../../Middlewares/Third_Party/LoRaWAN/Mac/region/RegionIN865.c ****             return 2;
  99:../../../../../../Middlewares/Third_Party/LoRaWAN/Mac/region/RegionIN865.c ****     }
 100:../../../../../../Middlewares/Third_Party/LoRaWAN/Mac/region/RegionIN865.c **** }
 101:../../../../../../Middlewares/Third_Party/LoRaWAN/Mac/region/RegionIN865.c **** 
 102:../../../../../../Middlewares/Third_Party/LoRaWAN/Mac/region/RegionIN865.c **** static int8_t LimitTxPower( int8_t txPower, int8_t maxBandTxPower, int8_t datarate, uint16_t* chann
 103:../../../../../../Middlewares/Third_Party/LoRaWAN/Mac/region/RegionIN865.c **** {
 104:../../../../../../Middlewares/Third_Party/LoRaWAN/Mac/region/RegionIN865.c ****     int8_t txPowerResult = txPower;
 105:../../../../../../Middlewares/Third_Party/LoRaWAN/Mac/region/RegionIN865.c **** 
 106:../../../../../../Middlewares/Third_Party/LoRaWAN/Mac/region/RegionIN865.c ****     // Limit tx power to the band max
 107:../../../../../../Middlewares/Third_Party/LoRaWAN/Mac/region/RegionIN865.c ****     txPowerResult =  MAX( txPower, maxBandTxPower );
 108:../../../../../../Middlewares/Third_Party/LoRaWAN/Mac/region/RegionIN865.c **** 
 109:../../../../../../Middlewares/Third_Party/LoRaWAN/Mac/region/RegionIN865.c ****     return txPowerResult;
 110:../../../../../../Middlewares/Third_Party/LoRaWAN/Mac/region/RegionIN865.c **** }
 111:../../../../../../Middlewares/Third_Party/LoRaWAN/Mac/region/RegionIN865.c **** 
 112:../../../../../../Middlewares/Third_Party/LoRaWAN/Mac/region/RegionIN865.c **** static bool VerifyRfFreq( uint32_t freq )
 113:../../../../../../Middlewares/Third_Party/LoRaWAN/Mac/region/RegionIN865.c **** {
 114:../../../../../../Middlewares/Third_Party/LoRaWAN/Mac/region/RegionIN865.c ****     // Check radio driver support
 115:../../../../../../Middlewares/Third_Party/LoRaWAN/Mac/region/RegionIN865.c ****     if( Radio.CheckRfFrequency( freq ) == false )
 116:../../../../../../Middlewares/Third_Party/LoRaWAN/Mac/region/RegionIN865.c ****     {
 117:../../../../../../Middlewares/Third_Party/LoRaWAN/Mac/region/RegionIN865.c ****         return false;
 118:../../../../../../Middlewares/Third_Party/LoRaWAN/Mac/region/RegionIN865.c ****     }
 119:../../../../../../Middlewares/Third_Party/LoRaWAN/Mac/region/RegionIN865.c **** 
 120:../../../../../../Middlewares/Third_Party/LoRaWAN/Mac/region/RegionIN865.c ****     if( ( freq < 865000000 ) || ( freq > 867000000 ) )
 121:../../../../../../Middlewares/Third_Party/LoRaWAN/Mac/region/RegionIN865.c ****     {
 122:../../../../../../Middlewares/Third_Party/LoRaWAN/Mac/region/RegionIN865.c ****         return false;
 123:../../../../../../Middlewares/Third_Party/LoRaWAN/Mac/region/RegionIN865.c ****     }
 124:../../../../../../Middlewares/Third_Party/LoRaWAN/Mac/region/RegionIN865.c ****     return true;
 125:../../../../../../Middlewares/Third_Party/LoRaWAN/Mac/region/RegionIN865.c **** }
 126:../../../../../../Middlewares/Third_Party/LoRaWAN/Mac/region/RegionIN865.c **** 
 127:../../../../../../Middlewares/Third_Party/LoRaWAN/Mac/region/RegionIN865.c **** static uint8_t CountNbOfEnabledChannels( bool joined, uint8_t datarate, uint16_t* channelsMask, Cha
 128:../../../../../../Middlewares/Third_Party/LoRaWAN/Mac/region/RegionIN865.c **** {
 129:../../../../../../Middlewares/Third_Party/LoRaWAN/Mac/region/RegionIN865.c ****     uint8_t nbEnabledChannels = 0;
 130:../../../../../../Middlewares/Third_Party/LoRaWAN/Mac/region/RegionIN865.c ****     uint8_t delayTransmission = 0;
 131:../../../../../../Middlewares/Third_Party/LoRaWAN/Mac/region/RegionIN865.c **** 
 132:../../../../../../Middlewares/Third_Party/LoRaWAN/Mac/region/RegionIN865.c ****     for( uint8_t i = 0, k = 0; i < IN865_MAX_NB_CHANNELS; i += 16, k++ )
 133:../../../../../../Middlewares/Third_Party/LoRaWAN/Mac/region/RegionIN865.c ****     {
 134:../../../../../../Middlewares/Third_Party/LoRaWAN/Mac/region/RegionIN865.c ****         for( uint8_t j = 0; j < 16; j++ )
 135:../../../../../../Middlewares/Third_Party/LoRaWAN/Mac/region/RegionIN865.c ****         {
 136:../../../../../../Middlewares/Third_Party/LoRaWAN/Mac/region/RegionIN865.c ****             if( ( channelsMask[k] & ( 1 << j ) ) != 0 )
 137:../../../../../../Middlewares/Third_Party/LoRaWAN/Mac/region/RegionIN865.c ****             {
 138:../../../../../../Middlewares/Third_Party/LoRaWAN/Mac/region/RegionIN865.c ****                 if( channels[i + j].Frequency == 0 )
 139:../../../../../../Middlewares/Third_Party/LoRaWAN/Mac/region/RegionIN865.c ****                 { // Check if the channel is enabled
 140:../../../../../../Middlewares/Third_Party/LoRaWAN/Mac/region/RegionIN865.c ****                     continue;
 141:../../../../../../Middlewares/Third_Party/LoRaWAN/Mac/region/RegionIN865.c ****                 }
 142:../../../../../../Middlewares/Third_Party/LoRaWAN/Mac/region/RegionIN865.c ****                 if( joined == false )
 143:../../../../../../Middlewares/Third_Party/LoRaWAN/Mac/region/RegionIN865.c ****                 {
 144:../../../../../../Middlewares/Third_Party/LoRaWAN/Mac/region/RegionIN865.c ****                     if( ( IN865_JOIN_CHANNELS & ( 1 << j ) ) == 0 )
 145:../../../../../../Middlewares/Third_Party/LoRaWAN/Mac/region/RegionIN865.c ****                     {
ARM GAS  C:\Users\EBANO_~1\AppData\Local\Temp\ccEfOEMG.s 			page 4


 146:../../../../../../Middlewares/Third_Party/LoRaWAN/Mac/region/RegionIN865.c ****                         continue;
 147:../../../../../../Middlewares/Third_Party/LoRaWAN/Mac/region/RegionIN865.c ****                     }
 148:../../../../../../Middlewares/Third_Party/LoRaWAN/Mac/region/RegionIN865.c ****                 }
 149:../../../../../../Middlewares/Third_Party/LoRaWAN/Mac/region/RegionIN865.c ****                 if( RegionCommonValueInRange( datarate, channels[i + j].DrRange.Fields.Min,
 150:../../../../../../Middlewares/Third_Party/LoRaWAN/Mac/region/RegionIN865.c ****                                               channels[i + j].DrRange.Fields.Max ) == false )
 151:../../../../../../Middlewares/Third_Party/LoRaWAN/Mac/region/RegionIN865.c ****                 { // Check if the current channel selection supports the given datarate
 152:../../../../../../Middlewares/Third_Party/LoRaWAN/Mac/region/RegionIN865.c ****                     continue;
 153:../../../../../../Middlewares/Third_Party/LoRaWAN/Mac/region/RegionIN865.c ****                 }
 154:../../../../../../Middlewares/Third_Party/LoRaWAN/Mac/region/RegionIN865.c ****                 if( bands[channels[i + j].Band].TimeOff > 0 )
 155:../../../../../../Middlewares/Third_Party/LoRaWAN/Mac/region/RegionIN865.c ****                 { // Check if the band is available for transmission
 156:../../../../../../Middlewares/Third_Party/LoRaWAN/Mac/region/RegionIN865.c ****                     delayTransmission++;
 157:../../../../../../Middlewares/Third_Party/LoRaWAN/Mac/region/RegionIN865.c ****                     continue;
 158:../../../../../../Middlewares/Third_Party/LoRaWAN/Mac/region/RegionIN865.c ****                 }
 159:../../../../../../Middlewares/Third_Party/LoRaWAN/Mac/region/RegionIN865.c ****                 enabledChannels[nbEnabledChannels++] = i + j;
 160:../../../../../../Middlewares/Third_Party/LoRaWAN/Mac/region/RegionIN865.c ****             }
 161:../../../../../../Middlewares/Third_Party/LoRaWAN/Mac/region/RegionIN865.c ****         }
 162:../../../../../../Middlewares/Third_Party/LoRaWAN/Mac/region/RegionIN865.c ****     }
 163:../../../../../../Middlewares/Third_Party/LoRaWAN/Mac/region/RegionIN865.c **** 
 164:../../../../../../Middlewares/Third_Party/LoRaWAN/Mac/region/RegionIN865.c ****     *delayTx = delayTransmission;
 165:../../../../../../Middlewares/Third_Party/LoRaWAN/Mac/region/RegionIN865.c ****     return nbEnabledChannels;
 166:../../../../../../Middlewares/Third_Party/LoRaWAN/Mac/region/RegionIN865.c **** }
 167:../../../../../../Middlewares/Third_Party/LoRaWAN/Mac/region/RegionIN865.c **** 
 168:../../../../../../Middlewares/Third_Party/LoRaWAN/Mac/region/RegionIN865.c **** PhyParam_t RegionIN865GetPhyParam( GetPhyParams_t* getPhy )
 169:../../../../../../Middlewares/Third_Party/LoRaWAN/Mac/region/RegionIN865.c **** {
  27              		.loc 1 169 0
  28              		.cfi_startproc
  29              		@ args = 0, pretend = 0, frame = 8
  30              		@ frame_needed = 0, uses_anonymous_args = 0
  31              	.LVL0:
 170:../../../../../../Middlewares/Third_Party/LoRaWAN/Mac/region/RegionIN865.c ****     PhyParam_t phyParam = { 0 };
  32              		.loc 1 170 0
  33 0000 0023     		movs	r3, #0
 169:../../../../../../Middlewares/Third_Party/LoRaWAN/Mac/region/RegionIN865.c ****     PhyParam_t phyParam = { 0 };
  34              		.loc 1 169 0
  35 0002 00B5     		push	{lr}
  36              	.LCFI0:
  37              		.cfi_def_cfa_offset 4
  38              		.cfi_offset 14, -4
  39 0004 83B0     		sub	sp, sp, #12
  40              	.LCFI1:
  41              		.cfi_def_cfa_offset 16
  42              		.loc 1 170 0
  43 0006 0093     		str	r3, [sp]
 171:../../../../../../Middlewares/Third_Party/LoRaWAN/Mac/region/RegionIN865.c **** 
 172:../../../../../../Middlewares/Third_Party/LoRaWAN/Mac/region/RegionIN865.c ****     switch( getPhy->Attribute )
  44              		.loc 1 172 0
  45 0008 0378     		ldrb	r3, [r0]
  46 000a 0A3B     		subs	r3, r3, #10
  47 000c DBB2     		uxtb	r3, r3
  48 000e 2A2B     		cmp	r3, #42
  49 0010 05D8     		bhi	.L2
  50 0012 364A     		ldr	r2, .L32
  51 0014 9B00     		lsls	r3, r3, #2
  52 0016 D358     		ldr	r3, [r2, r3]
  53 0018 9F46     		mov	pc, r3
  54              		.section	.rodata
  55              		.align	2
ARM GAS  C:\Users\EBANO_~1\AppData\Local\Temp\ccEfOEMG.s 			page 5


  56              	.L4:
  57 0000 A4000000 		.word	.L3
  58 0004 E0000000 		.word	.L5
  59 0008 D4000000 		.word	.L6
  60 000c C6000000 		.word	.L7
  61 0010 C0000000 		.word	.L8
  62 0014 66000000 		.word	.L9
  63 0018 5E000000 		.word	.L10
  64 001c 72000000 		.word	.L11
  65 0020 6C000000 		.word	.L12
  66 0024 9E000000 		.word	.L13
  67 0028 96000000 		.word	.L14
  68 002c 80000000 		.word	.L15
  69 0030 1E000000 		.word	.L2
  70 0034 24000000 		.word	.L16
  71 0038 58000000 		.word	.L17
  72 003c 52000000 		.word	.L18
  73 0040 4C000000 		.word	.L19
  74 0044 1A000000 		.word	.L20
  75 0048 30000000 		.word	.L21
  76 004c 1E000000 		.word	.L2
  77 0050 1E000000 		.word	.L2
  78 0054 36000000 		.word	.L22
  79 0058 7A000000 		.word	.L23
  80 005c AA000000 		.word	.L24
  81 0060 1E000000 		.word	.L2
  82 0064 1E000000 		.word	.L2
  83 0068 1E000000 		.word	.L2
  84 006c 1E000000 		.word	.L2
  85 0070 1E000000 		.word	.L2
  86 0074 1E000000 		.word	.L2
  87 0078 1E000000 		.word	.L2
  88 007c 1E000000 		.word	.L2
  89 0080 1E000000 		.word	.L2
  90 0084 1E000000 		.word	.L2
  91 0088 1E000000 		.word	.L2
  92 008c 1E000000 		.word	.L2
  93 0090 1E000000 		.word	.L2
  94 0094 24000000 		.word	.L16
  95 0098 3C000000 		.word	.L25
  96 009c 2A000000 		.word	.L26
  97 00a0 1E000000 		.word	.L2
  98 00a4 1E000000 		.word	.L2
  99 00a8 2A000000 		.word	.L26
 100              		.section	.text.RegionIN865GetPhyParam
 101              	.L20:
 173:../../../../../../Middlewares/Third_Party/LoRaWAN/Mac/region/RegionIN865.c ****     {
 174:../../../../../../Middlewares/Third_Party/LoRaWAN/Mac/region/RegionIN865.c ****         case PHY_MIN_RX_DR:
 175:../../../../../../Middlewares/Third_Party/LoRaWAN/Mac/region/RegionIN865.c ****         {
 176:../../../../../../Middlewares/Third_Party/LoRaWAN/Mac/region/RegionIN865.c ****             phyParam.Value = IN865_RX_MIN_DATARATE;
 177:../../../../../../Middlewares/Third_Party/LoRaWAN/Mac/region/RegionIN865.c ****             break;
 178:../../../../../../Middlewares/Third_Party/LoRaWAN/Mac/region/RegionIN865.c ****         }
 179:../../../../../../Middlewares/Third_Party/LoRaWAN/Mac/region/RegionIN865.c ****         case PHY_MIN_TX_DR:
 180:../../../../../../Middlewares/Third_Party/LoRaWAN/Mac/region/RegionIN865.c ****         {
 181:../../../../../../Middlewares/Third_Party/LoRaWAN/Mac/region/RegionIN865.c ****             phyParam.Value = IN865_TX_MIN_DATARATE;
 182:../../../../../../Middlewares/Third_Party/LoRaWAN/Mac/region/RegionIN865.c ****             break;
 183:../../../../../../Middlewares/Third_Party/LoRaWAN/Mac/region/RegionIN865.c ****         }
ARM GAS  C:\Users\EBANO_~1\AppData\Local\Temp\ccEfOEMG.s 			page 6


 184:../../../../../../Middlewares/Third_Party/LoRaWAN/Mac/region/RegionIN865.c ****         case PHY_DEF_TX_DR:
 185:../../../../../../Middlewares/Third_Party/LoRaWAN/Mac/region/RegionIN865.c ****         {
 186:../../../../../../Middlewares/Third_Party/LoRaWAN/Mac/region/RegionIN865.c ****             phyParam.Value = IN865_DEFAULT_DATARATE;
 187:../../../../../../Middlewares/Third_Party/LoRaWAN/Mac/region/RegionIN865.c ****             break;
 188:../../../../../../Middlewares/Third_Party/LoRaWAN/Mac/region/RegionIN865.c ****         }
 189:../../../../../../Middlewares/Third_Party/LoRaWAN/Mac/region/RegionIN865.c ****         case PHY_NEXT_LOWER_TX_DR:
 190:../../../../../../Middlewares/Third_Party/LoRaWAN/Mac/region/RegionIN865.c ****         {
 191:../../../../../../Middlewares/Third_Party/LoRaWAN/Mac/region/RegionIN865.c ****             phyParam.Value = GetNextLowerTxDr( getPhy->Datarate, IN865_TX_MIN_DATARATE );
 192:../../../../../../Middlewares/Third_Party/LoRaWAN/Mac/region/RegionIN865.c ****             break;
 193:../../../../../../Middlewares/Third_Party/LoRaWAN/Mac/region/RegionIN865.c ****         }
 194:../../../../../../Middlewares/Third_Party/LoRaWAN/Mac/region/RegionIN865.c ****         case PHY_MAX_TX_POWER:
 195:../../../../../../Middlewares/Third_Party/LoRaWAN/Mac/region/RegionIN865.c ****         {
 196:../../../../../../Middlewares/Third_Party/LoRaWAN/Mac/region/RegionIN865.c ****             phyParam.Value = IN865_MAX_TX_POWER;
 197:../../../../../../Middlewares/Third_Party/LoRaWAN/Mac/region/RegionIN865.c ****             break;
 198:../../../../../../Middlewares/Third_Party/LoRaWAN/Mac/region/RegionIN865.c ****         }
 199:../../../../../../Middlewares/Third_Party/LoRaWAN/Mac/region/RegionIN865.c ****         case PHY_DEF_TX_POWER:
 200:../../../../../../Middlewares/Third_Party/LoRaWAN/Mac/region/RegionIN865.c ****         {
 201:../../../../../../Middlewares/Third_Party/LoRaWAN/Mac/region/RegionIN865.c ****             phyParam.Value = IN865_DEFAULT_TX_POWER;
 202:../../../../../../Middlewares/Third_Party/LoRaWAN/Mac/region/RegionIN865.c ****             break;
 203:../../../../../../Middlewares/Third_Party/LoRaWAN/Mac/region/RegionIN865.c ****         }
 204:../../../../../../Middlewares/Third_Party/LoRaWAN/Mac/region/RegionIN865.c ****         case PHY_DEF_ADR_ACK_LIMIT:
 205:../../../../../../Middlewares/Third_Party/LoRaWAN/Mac/region/RegionIN865.c ****         {
 206:../../../../../../Middlewares/Third_Party/LoRaWAN/Mac/region/RegionIN865.c ****             phyParam.Value = IN865_ADR_ACK_LIMIT;
 207:../../../../../../Middlewares/Third_Party/LoRaWAN/Mac/region/RegionIN865.c ****             break;
 208:../../../../../../Middlewares/Third_Party/LoRaWAN/Mac/region/RegionIN865.c ****         }
 209:../../../../../../Middlewares/Third_Party/LoRaWAN/Mac/region/RegionIN865.c ****         case PHY_DEF_ADR_ACK_DELAY:
 210:../../../../../../Middlewares/Third_Party/LoRaWAN/Mac/region/RegionIN865.c ****         {
 211:../../../../../../Middlewares/Third_Party/LoRaWAN/Mac/region/RegionIN865.c ****             phyParam.Value = IN865_ADR_ACK_DELAY;
 212:../../../../../../Middlewares/Third_Party/LoRaWAN/Mac/region/RegionIN865.c ****             break;
 213:../../../../../../Middlewares/Third_Party/LoRaWAN/Mac/region/RegionIN865.c ****         }
 214:../../../../../../Middlewares/Third_Party/LoRaWAN/Mac/region/RegionIN865.c ****         case PHY_MAX_PAYLOAD:
 215:../../../../../../Middlewares/Third_Party/LoRaWAN/Mac/region/RegionIN865.c ****         {
 216:../../../../../../Middlewares/Third_Party/LoRaWAN/Mac/region/RegionIN865.c ****             phyParam.Value = MaxPayloadOfDatarateIN865[getPhy->Datarate];
 217:../../../../../../Middlewares/Third_Party/LoRaWAN/Mac/region/RegionIN865.c ****             break;
 218:../../../../../../Middlewares/Third_Party/LoRaWAN/Mac/region/RegionIN865.c ****         }
 219:../../../../../../Middlewares/Third_Party/LoRaWAN/Mac/region/RegionIN865.c ****         case PHY_MAX_PAYLOAD_REPEATER:
 220:../../../../../../Middlewares/Third_Party/LoRaWAN/Mac/region/RegionIN865.c ****         {
 221:../../../../../../Middlewares/Third_Party/LoRaWAN/Mac/region/RegionIN865.c ****             phyParam.Value = MaxPayloadOfDatarateRepeaterIN865[getPhy->Datarate];
 222:../../../../../../Middlewares/Third_Party/LoRaWAN/Mac/region/RegionIN865.c ****             break;
 223:../../../../../../Middlewares/Third_Party/LoRaWAN/Mac/region/RegionIN865.c ****         }
 224:../../../../../../Middlewares/Third_Party/LoRaWAN/Mac/region/RegionIN865.c ****         case PHY_DUTY_CYCLE:
 225:../../../../../../Middlewares/Third_Party/LoRaWAN/Mac/region/RegionIN865.c ****         {
 226:../../../../../../Middlewares/Third_Party/LoRaWAN/Mac/region/RegionIN865.c ****             phyParam.Value = IN865_DUTY_CYCLE_ENABLED;
 227:../../../../../../Middlewares/Third_Party/LoRaWAN/Mac/region/RegionIN865.c ****             break;
 228:../../../../../../Middlewares/Third_Party/LoRaWAN/Mac/region/RegionIN865.c ****         }
 229:../../../../../../Middlewares/Third_Party/LoRaWAN/Mac/region/RegionIN865.c ****         case PHY_MAX_RX_WINDOW:
 230:../../../../../../Middlewares/Third_Party/LoRaWAN/Mac/region/RegionIN865.c ****         {
 231:../../../../../../Middlewares/Third_Party/LoRaWAN/Mac/region/RegionIN865.c ****             phyParam.Value = IN865_MAX_RX_WINDOW;
 232:../../../../../../Middlewares/Third_Party/LoRaWAN/Mac/region/RegionIN865.c ****             break;
 233:../../../../../../Middlewares/Third_Party/LoRaWAN/Mac/region/RegionIN865.c ****         }
 234:../../../../../../Middlewares/Third_Party/LoRaWAN/Mac/region/RegionIN865.c ****         case PHY_RECEIVE_DELAY1:
 235:../../../../../../Middlewares/Third_Party/LoRaWAN/Mac/region/RegionIN865.c ****         {
 236:../../../../../../Middlewares/Third_Party/LoRaWAN/Mac/region/RegionIN865.c ****             phyParam.Value = IN865_RECEIVE_DELAY1;
 237:../../../../../../Middlewares/Third_Party/LoRaWAN/Mac/region/RegionIN865.c ****             break;
 238:../../../../../../Middlewares/Third_Party/LoRaWAN/Mac/region/RegionIN865.c ****         }
 239:../../../../../../Middlewares/Third_Party/LoRaWAN/Mac/region/RegionIN865.c ****         case PHY_RECEIVE_DELAY2:
 240:../../../../../../Middlewares/Third_Party/LoRaWAN/Mac/region/RegionIN865.c ****         {
ARM GAS  C:\Users\EBANO_~1\AppData\Local\Temp\ccEfOEMG.s 			page 7


 241:../../../../../../Middlewares/Third_Party/LoRaWAN/Mac/region/RegionIN865.c ****             phyParam.Value = IN865_RECEIVE_DELAY2;
 242:../../../../../../Middlewares/Third_Party/LoRaWAN/Mac/region/RegionIN865.c ****             break;
 243:../../../../../../Middlewares/Third_Party/LoRaWAN/Mac/region/RegionIN865.c ****         }
 244:../../../../../../Middlewares/Third_Party/LoRaWAN/Mac/region/RegionIN865.c ****         case PHY_JOIN_ACCEPT_DELAY1:
 245:../../../../../../Middlewares/Third_Party/LoRaWAN/Mac/region/RegionIN865.c ****         {
 246:../../../../../../Middlewares/Third_Party/LoRaWAN/Mac/region/RegionIN865.c ****             phyParam.Value = IN865_JOIN_ACCEPT_DELAY1;
 247:../../../../../../Middlewares/Third_Party/LoRaWAN/Mac/region/RegionIN865.c ****             break;
 248:../../../../../../Middlewares/Third_Party/LoRaWAN/Mac/region/RegionIN865.c ****         }
 249:../../../../../../Middlewares/Third_Party/LoRaWAN/Mac/region/RegionIN865.c ****         case PHY_JOIN_ACCEPT_DELAY2:
 250:../../../../../../Middlewares/Third_Party/LoRaWAN/Mac/region/RegionIN865.c ****         {
 251:../../../../../../Middlewares/Third_Party/LoRaWAN/Mac/region/RegionIN865.c ****             phyParam.Value = IN865_JOIN_ACCEPT_DELAY2;
 252:../../../../../../Middlewares/Third_Party/LoRaWAN/Mac/region/RegionIN865.c ****             break;
 253:../../../../../../Middlewares/Third_Party/LoRaWAN/Mac/region/RegionIN865.c ****         }
 254:../../../../../../Middlewares/Third_Party/LoRaWAN/Mac/region/RegionIN865.c ****         case PHY_MAX_FCNT_GAP:
 255:../../../../../../Middlewares/Third_Party/LoRaWAN/Mac/region/RegionIN865.c ****         {
 256:../../../../../../Middlewares/Third_Party/LoRaWAN/Mac/region/RegionIN865.c ****             phyParam.Value = IN865_MAX_FCNT_GAP;
 257:../../../../../../Middlewares/Third_Party/LoRaWAN/Mac/region/RegionIN865.c ****             break;
 258:../../../../../../Middlewares/Third_Party/LoRaWAN/Mac/region/RegionIN865.c ****         }
 259:../../../../../../Middlewares/Third_Party/LoRaWAN/Mac/region/RegionIN865.c ****         case PHY_ACK_TIMEOUT:
 260:../../../../../../Middlewares/Third_Party/LoRaWAN/Mac/region/RegionIN865.c ****         {
 261:../../../../../../Middlewares/Third_Party/LoRaWAN/Mac/region/RegionIN865.c ****             phyParam.Value = ( IN865_ACKTIMEOUT + randr( -IN865_ACK_TIMEOUT_RND, IN865_ACK_TIMEOUT_
 262:../../../../../../Middlewares/Third_Party/LoRaWAN/Mac/region/RegionIN865.c ****             break;
 263:../../../../../../Middlewares/Third_Party/LoRaWAN/Mac/region/RegionIN865.c ****         }
 264:../../../../../../Middlewares/Third_Party/LoRaWAN/Mac/region/RegionIN865.c ****         case PHY_DEF_DR1_OFFSET:
 265:../../../../../../Middlewares/Third_Party/LoRaWAN/Mac/region/RegionIN865.c ****         {
 266:../../../../../../Middlewares/Third_Party/LoRaWAN/Mac/region/RegionIN865.c ****             phyParam.Value = IN865_DEFAULT_RX1_DR_OFFSET;
 267:../../../../../../Middlewares/Third_Party/LoRaWAN/Mac/region/RegionIN865.c ****             break;
 268:../../../../../../Middlewares/Third_Party/LoRaWAN/Mac/region/RegionIN865.c ****         }
 269:../../../../../../Middlewares/Third_Party/LoRaWAN/Mac/region/RegionIN865.c ****         case PHY_DEF_RX2_FREQUENCY:
 270:../../../../../../Middlewares/Third_Party/LoRaWAN/Mac/region/RegionIN865.c ****         {
 271:../../../../../../Middlewares/Third_Party/LoRaWAN/Mac/region/RegionIN865.c ****             phyParam.Value = IN865_RX_WND_2_FREQ;
 272:../../../../../../Middlewares/Third_Party/LoRaWAN/Mac/region/RegionIN865.c ****             break;
 273:../../../../../../Middlewares/Third_Party/LoRaWAN/Mac/region/RegionIN865.c ****         }
 274:../../../../../../Middlewares/Third_Party/LoRaWAN/Mac/region/RegionIN865.c ****         case PHY_DEF_RX2_DR:
 275:../../../../../../Middlewares/Third_Party/LoRaWAN/Mac/region/RegionIN865.c ****         {
 276:../../../../../../Middlewares/Third_Party/LoRaWAN/Mac/region/RegionIN865.c ****             phyParam.Value = IN865_RX_WND_2_DR;
 277:../../../../../../Middlewares/Third_Party/LoRaWAN/Mac/region/RegionIN865.c ****             break;
 278:../../../../../../Middlewares/Third_Party/LoRaWAN/Mac/region/RegionIN865.c ****         }
 279:../../../../../../Middlewares/Third_Party/LoRaWAN/Mac/region/RegionIN865.c ****         case PHY_CHANNELS_MASK:
 280:../../../../../../Middlewares/Third_Party/LoRaWAN/Mac/region/RegionIN865.c ****         {
 281:../../../../../../Middlewares/Third_Party/LoRaWAN/Mac/region/RegionIN865.c ****             phyParam.ChannelsMask = NvmCtx.ChannelsMask;
 282:../../../../../../Middlewares/Third_Party/LoRaWAN/Mac/region/RegionIN865.c ****             break;
 283:../../../../../../Middlewares/Third_Party/LoRaWAN/Mac/region/RegionIN865.c ****         }
 284:../../../../../../Middlewares/Third_Party/LoRaWAN/Mac/region/RegionIN865.c ****         case PHY_CHANNELS_DEFAULT_MASK:
 285:../../../../../../Middlewares/Third_Party/LoRaWAN/Mac/region/RegionIN865.c ****         {
 286:../../../../../../Middlewares/Third_Party/LoRaWAN/Mac/region/RegionIN865.c ****             phyParam.ChannelsMask = NvmCtx.ChannelsDefaultMask;
 287:../../../../../../Middlewares/Third_Party/LoRaWAN/Mac/region/RegionIN865.c ****             break;
 288:../../../../../../Middlewares/Third_Party/LoRaWAN/Mac/region/RegionIN865.c ****         }
 289:../../../../../../Middlewares/Third_Party/LoRaWAN/Mac/region/RegionIN865.c ****         case PHY_MAX_NB_CHANNELS:
 290:../../../../../../Middlewares/Third_Party/LoRaWAN/Mac/region/RegionIN865.c ****         {
 291:../../../../../../Middlewares/Third_Party/LoRaWAN/Mac/region/RegionIN865.c ****             phyParam.Value = IN865_MAX_NB_CHANNELS;
 102              		.loc 1 291 0
 103 001a 1023     		movs	r3, #16
 104 001c 0093     		str	r3, [sp]
 105              	.LVL1:
 106              	.L2:
 292:../../../../../../Middlewares/Third_Party/LoRaWAN/Mac/region/RegionIN865.c ****             break;
ARM GAS  C:\Users\EBANO_~1\AppData\Local\Temp\ccEfOEMG.s 			page 8


 293:../../../../../../Middlewares/Third_Party/LoRaWAN/Mac/region/RegionIN865.c ****         }
 294:../../../../../../Middlewares/Third_Party/LoRaWAN/Mac/region/RegionIN865.c ****         case PHY_CHANNELS:
 295:../../../../../../Middlewares/Third_Party/LoRaWAN/Mac/region/RegionIN865.c ****         {
 296:../../../../../../Middlewares/Third_Party/LoRaWAN/Mac/region/RegionIN865.c ****             phyParam.Channels = NvmCtx.Channels;
 297:../../../../../../Middlewares/Third_Party/LoRaWAN/Mac/region/RegionIN865.c ****             break;
 298:../../../../../../Middlewares/Third_Party/LoRaWAN/Mac/region/RegionIN865.c ****         }
 299:../../../../../../Middlewares/Third_Party/LoRaWAN/Mac/region/RegionIN865.c ****         case PHY_DEF_UPLINK_DWELL_TIME:
 300:../../../../../../Middlewares/Third_Party/LoRaWAN/Mac/region/RegionIN865.c ****         case PHY_DEF_DOWNLINK_DWELL_TIME:
 301:../../../../../../Middlewares/Third_Party/LoRaWAN/Mac/region/RegionIN865.c ****         {
 302:../../../../../../Middlewares/Third_Party/LoRaWAN/Mac/region/RegionIN865.c ****             phyParam.Value = 0;
 303:../../../../../../Middlewares/Third_Party/LoRaWAN/Mac/region/RegionIN865.c ****             break;
 304:../../../../../../Middlewares/Third_Party/LoRaWAN/Mac/region/RegionIN865.c ****         }
 305:../../../../../../Middlewares/Third_Party/LoRaWAN/Mac/region/RegionIN865.c ****         case PHY_DEF_MAX_EIRP:
 306:../../../../../../Middlewares/Third_Party/LoRaWAN/Mac/region/RegionIN865.c ****         {
 307:../../../../../../Middlewares/Third_Party/LoRaWAN/Mac/region/RegionIN865.c ****             phyParam.fValue = IN865_DEFAULT_MAX_EIRP;
 308:../../../../../../Middlewares/Third_Party/LoRaWAN/Mac/region/RegionIN865.c ****             break;
 309:../../../../../../Middlewares/Third_Party/LoRaWAN/Mac/region/RegionIN865.c ****         }
 310:../../../../../../Middlewares/Third_Party/LoRaWAN/Mac/region/RegionIN865.c ****         case PHY_DEF_ANTENNA_GAIN:
 311:../../../../../../Middlewares/Third_Party/LoRaWAN/Mac/region/RegionIN865.c ****         {
 312:../../../../../../Middlewares/Third_Party/LoRaWAN/Mac/region/RegionIN865.c ****             phyParam.fValue = IN865_DEFAULT_ANTENNA_GAIN;
 313:../../../../../../Middlewares/Third_Party/LoRaWAN/Mac/region/RegionIN865.c ****             break;
 314:../../../../../../Middlewares/Third_Party/LoRaWAN/Mac/region/RegionIN865.c ****         }
 315:../../../../../../Middlewares/Third_Party/LoRaWAN/Mac/region/RegionIN865.c ****         case PHY_BEACON_CHANNEL_FREQ:
 316:../../../../../../Middlewares/Third_Party/LoRaWAN/Mac/region/RegionIN865.c ****         {
 317:../../../../../../Middlewares/Third_Party/LoRaWAN/Mac/region/RegionIN865.c ****             phyParam.Value = IN865_BEACON_CHANNEL_FREQ;
 318:../../../../../../Middlewares/Third_Party/LoRaWAN/Mac/region/RegionIN865.c ****             break;
 319:../../../../../../Middlewares/Third_Party/LoRaWAN/Mac/region/RegionIN865.c ****         }
 320:../../../../../../Middlewares/Third_Party/LoRaWAN/Mac/region/RegionIN865.c ****         case PHY_BEACON_FORMAT:
 321:../../../../../../Middlewares/Third_Party/LoRaWAN/Mac/region/RegionIN865.c ****         {
 322:../../../../../../Middlewares/Third_Party/LoRaWAN/Mac/region/RegionIN865.c ****             phyParam.BeaconFormat.BeaconSize = IN865_BEACON_SIZE;
 323:../../../../../../Middlewares/Third_Party/LoRaWAN/Mac/region/RegionIN865.c ****             phyParam.BeaconFormat.Rfu1Size = IN865_RFU1_SIZE;
 324:../../../../../../Middlewares/Third_Party/LoRaWAN/Mac/region/RegionIN865.c ****             phyParam.BeaconFormat.Rfu2Size = IN865_RFU2_SIZE;
 325:../../../../../../Middlewares/Third_Party/LoRaWAN/Mac/region/RegionIN865.c ****             break;
 326:../../../../../../Middlewares/Third_Party/LoRaWAN/Mac/region/RegionIN865.c ****         }
 327:../../../../../../Middlewares/Third_Party/LoRaWAN/Mac/region/RegionIN865.c ****         case PHY_BEACON_CHANNEL_DR:
 328:../../../../../../Middlewares/Third_Party/LoRaWAN/Mac/region/RegionIN865.c ****         {
 329:../../../../../../Middlewares/Third_Party/LoRaWAN/Mac/region/RegionIN865.c ****             phyParam.Value = IN865_BEACON_CHANNEL_DR;
 330:../../../../../../Middlewares/Third_Party/LoRaWAN/Mac/region/RegionIN865.c ****             break;
 331:../../../../../../Middlewares/Third_Party/LoRaWAN/Mac/region/RegionIN865.c ****         }
 332:../../../../../../Middlewares/Third_Party/LoRaWAN/Mac/region/RegionIN865.c ****         case PHY_PING_SLOT_CHANNEL_DR:
 333:../../../../../../Middlewares/Third_Party/LoRaWAN/Mac/region/RegionIN865.c ****         {
 334:../../../../../../Middlewares/Third_Party/LoRaWAN/Mac/region/RegionIN865.c ****             phyParam.Value = IN865_PING_SLOT_CHANNEL_DR;
 335:../../../../../../Middlewares/Third_Party/LoRaWAN/Mac/region/RegionIN865.c ****             break;
 336:../../../../../../Middlewares/Third_Party/LoRaWAN/Mac/region/RegionIN865.c ****         }
 337:../../../../../../Middlewares/Third_Party/LoRaWAN/Mac/region/RegionIN865.c ****         default:
 338:../../../../../../Middlewares/Third_Party/LoRaWAN/Mac/region/RegionIN865.c ****         {
 339:../../../../../../Middlewares/Third_Party/LoRaWAN/Mac/region/RegionIN865.c ****             break;
 340:../../../../../../Middlewares/Third_Party/LoRaWAN/Mac/region/RegionIN865.c ****         }
 341:../../../../../../Middlewares/Third_Party/LoRaWAN/Mac/region/RegionIN865.c ****     }
 342:../../../../../../Middlewares/Third_Party/LoRaWAN/Mac/region/RegionIN865.c **** 
 343:../../../../../../Middlewares/Third_Party/LoRaWAN/Mac/region/RegionIN865.c ****     return phyParam;
 344:../../../../../../Middlewares/Third_Party/LoRaWAN/Mac/region/RegionIN865.c **** }
 107              		.loc 1 344 0
 108 001e 0098     		ldr	r0, [sp]
 109 0020 03B0     		add	sp, sp, #12
 110              		@ sp needed
 111 0022 00BD     		pop	{pc}
ARM GAS  C:\Users\EBANO_~1\AppData\Local\Temp\ccEfOEMG.s 			page 9


 112              	.LVL2:
 113              	.L16:
 271:../../../../../../Middlewares/Third_Party/LoRaWAN/Mac/region/RegionIN865.c ****             break;
 114              		.loc 1 271 0
 115 0024 324B     		ldr	r3, .L32+4
 116 0026 0093     		str	r3, [sp]
 272:../../../../../../Middlewares/Third_Party/LoRaWAN/Mac/region/RegionIN865.c ****         }
 117              		.loc 1 272 0
 118 0028 F9E7     		b	.L2
 119              	.L26:
 329:../../../../../../Middlewares/Third_Party/LoRaWAN/Mac/region/RegionIN865.c ****             break;
 120              		.loc 1 329 0
 121 002a 0423     		movs	r3, #4
 122 002c 0093     		str	r3, [sp]
 330:../../../../../../Middlewares/Third_Party/LoRaWAN/Mac/region/RegionIN865.c ****         }
 123              		.loc 1 330 0
 124 002e F6E7     		b	.L2
 125              	.L21:
 296:../../../../../../Middlewares/Third_Party/LoRaWAN/Mac/region/RegionIN865.c ****             break;
 126              		.loc 1 296 0
 127 0030 304B     		ldr	r3, .L32+8
 128 0032 0093     		str	r3, [sp]
 297:../../../../../../Middlewares/Third_Party/LoRaWAN/Mac/region/RegionIN865.c ****         }
 129              		.loc 1 297 0
 130 0034 F3E7     		b	.L2
 131              	.L22:
 307:../../../../../../Middlewares/Third_Party/LoRaWAN/Mac/region/RegionIN865.c ****             break;
 132              		.loc 1 307 0
 133 0036 304B     		ldr	r3, .L32+12
 134 0038 0093     		str	r3, [sp]
 308:../../../../../../Middlewares/Third_Party/LoRaWAN/Mac/region/RegionIN865.c ****         }
 135              		.loc 1 308 0
 136 003a F0E7     		b	.L2
 137              	.L25:
 322:../../../../../../Middlewares/Third_Party/LoRaWAN/Mac/region/RegionIN865.c ****             phyParam.BeaconFormat.Rfu1Size = IN865_RFU1_SIZE;
 138              		.loc 1 322 0
 139 003c 1423     		movs	r3, #20
 140 003e 6A46     		mov	r2, sp
 141 0040 FF33     		adds	r3, r3, #255
 142 0042 1380     		strh	r3, [r2]
 323:../../../../../../Middlewares/Third_Party/LoRaWAN/Mac/region/RegionIN865.c ****             phyParam.BeaconFormat.Rfu2Size = IN865_RFU2_SIZE;
 143              		.loc 1 323 0
 144 0044 113B     		subs	r3, r3, #17
 145 0046 FF3B     		subs	r3, r3, #255
 146 0048 9370     		strb	r3, [r2, #2]
 325:../../../../../../Middlewares/Third_Party/LoRaWAN/Mac/region/RegionIN865.c ****         }
 147              		.loc 1 325 0
 148 004a E8E7     		b	.L2
 149              	.L19:
 286:../../../../../../Middlewares/Third_Party/LoRaWAN/Mac/region/RegionIN865.c ****             break;
 150              		.loc 1 286 0
 151 004c 2B4B     		ldr	r3, .L32+16
 152 004e 0093     		str	r3, [sp]
 287:../../../../../../Middlewares/Third_Party/LoRaWAN/Mac/region/RegionIN865.c ****         }
 153              		.loc 1 287 0
 154 0050 E5E7     		b	.L2
 155              	.L18:
ARM GAS  C:\Users\EBANO_~1\AppData\Local\Temp\ccEfOEMG.s 			page 10


 281:../../../../../../Middlewares/Third_Party/LoRaWAN/Mac/region/RegionIN865.c ****             break;
 156              		.loc 1 281 0
 157 0052 2B4B     		ldr	r3, .L32+20
 158 0054 0093     		str	r3, [sp]
 282:../../../../../../Middlewares/Third_Party/LoRaWAN/Mac/region/RegionIN865.c ****         }
 159              		.loc 1 282 0
 160 0056 E2E7     		b	.L2
 161              	.L17:
 276:../../../../../../Middlewares/Third_Party/LoRaWAN/Mac/region/RegionIN865.c ****             break;
 162              		.loc 1 276 0
 163 0058 0223     		movs	r3, #2
 164 005a 0093     		str	r3, [sp]
 277:../../../../../../Middlewares/Third_Party/LoRaWAN/Mac/region/RegionIN865.c ****         }
 165              		.loc 1 277 0
 166 005c DFE7     		b	.L2
 167              	.L10:
 236:../../../../../../Middlewares/Third_Party/LoRaWAN/Mac/region/RegionIN865.c ****             break;
 168              		.loc 1 236 0
 169 005e FA23     		movs	r3, #250
 170 0060 9B00     		lsls	r3, r3, #2
 171 0062 0093     		str	r3, [sp]
 237:../../../../../../Middlewares/Third_Party/LoRaWAN/Mac/region/RegionIN865.c ****         }
 172              		.loc 1 237 0
 173 0064 DBE7     		b	.L2
 174              	.L9:
 231:../../../../../../Middlewares/Third_Party/LoRaWAN/Mac/region/RegionIN865.c ****             break;
 175              		.loc 1 231 0
 176 0066 274B     		ldr	r3, .L32+24
 177 0068 0093     		str	r3, [sp]
 232:../../../../../../Middlewares/Third_Party/LoRaWAN/Mac/region/RegionIN865.c ****         }
 178              		.loc 1 232 0
 179 006a D8E7     		b	.L2
 180              	.L12:
 246:../../../../../../Middlewares/Third_Party/LoRaWAN/Mac/region/RegionIN865.c ****             break;
 181              		.loc 1 246 0
 182 006c 264B     		ldr	r3, .L32+28
 183 006e 0093     		str	r3, [sp]
 247:../../../../../../Middlewares/Third_Party/LoRaWAN/Mac/region/RegionIN865.c ****         }
 184              		.loc 1 247 0
 185 0070 D5E7     		b	.L2
 186              	.L11:
 241:../../../../../../Middlewares/Third_Party/LoRaWAN/Mac/region/RegionIN865.c ****             break;
 187              		.loc 1 241 0
 188 0072 FA23     		movs	r3, #250
 189 0074 DB00     		lsls	r3, r3, #3
 190 0076 0093     		str	r3, [sp]
 242:../../../../../../Middlewares/Third_Party/LoRaWAN/Mac/region/RegionIN865.c ****         }
 191              		.loc 1 242 0
 192 0078 D1E7     		b	.L2
 193              	.L23:
 312:../../../../../../Middlewares/Third_Party/LoRaWAN/Mac/region/RegionIN865.c ****             break;
 194              		.loc 1 312 0
 195 007a 244B     		ldr	r3, .L32+32
 196 007c 0093     		str	r3, [sp]
 313:../../../../../../Middlewares/Third_Party/LoRaWAN/Mac/region/RegionIN865.c ****         }
 197              		.loc 1 313 0
 198 007e CEE7     		b	.L2
ARM GAS  C:\Users\EBANO_~1\AppData\Local\Temp\ccEfOEMG.s 			page 11


 199              	.L15:
 261:../../../../../../Middlewares/Third_Party/LoRaWAN/Mac/region/RegionIN865.c ****             break;
 200              		.loc 1 261 0
 201 0080 FA21     		movs	r1, #250
 202 0082 2348     		ldr	r0, .L32+36
 203              	.LVL3:
 204 0084 8900     		lsls	r1, r1, #2
 205 0086 FFF7FEFF 		bl	randr
 206              	.LVL4:
 207 008a FA23     		movs	r3, #250
 208 008c DB00     		lsls	r3, r3, #3
 209 008e 9C46     		mov	ip, r3
 210 0090 6044     		add	r0, r0, ip
 211 0092 0090     		str	r0, [sp]
 262:../../../../../../Middlewares/Third_Party/LoRaWAN/Mac/region/RegionIN865.c ****         }
 212              		.loc 1 262 0
 213 0094 C3E7     		b	.L2
 214              	.LVL5:
 215              	.L14:
 256:../../../../../../Middlewares/Third_Party/LoRaWAN/Mac/region/RegionIN865.c ****             break;
 216              		.loc 1 256 0
 217 0096 8023     		movs	r3, #128
 218 0098 DB01     		lsls	r3, r3, #7
 219 009a 0093     		str	r3, [sp]
 257:../../../../../../Middlewares/Third_Party/LoRaWAN/Mac/region/RegionIN865.c ****         }
 220              		.loc 1 257 0
 221 009c BFE7     		b	.L2
 222              	.L13:
 251:../../../../../../Middlewares/Third_Party/LoRaWAN/Mac/region/RegionIN865.c ****             break;
 223              		.loc 1 251 0
 224 009e 1D4B     		ldr	r3, .L32+40
 225 00a0 0093     		str	r3, [sp]
 252:../../../../../../Middlewares/Third_Party/LoRaWAN/Mac/region/RegionIN865.c ****         }
 226              		.loc 1 252 0
 227 00a2 BCE7     		b	.L2
 228              	.L3:
 206:../../../../../../Middlewares/Third_Party/LoRaWAN/Mac/region/RegionIN865.c ****             break;
 229              		.loc 1 206 0
 230 00a4 4023     		movs	r3, #64
 231 00a6 0093     		str	r3, [sp]
 207:../../../../../../Middlewares/Third_Party/LoRaWAN/Mac/region/RegionIN865.c ****         }
 232              		.loc 1 207 0
 233 00a8 B9E7     		b	.L2
 234              	.L24:
 191:../../../../../../Middlewares/Third_Party/LoRaWAN/Mac/region/RegionIN865.c ****             break;
 235              		.loc 1 191 0
 236 00aa 0123     		movs	r3, #1
 237 00ac C356     		ldrsb	r3, [r0, r3]
 238              	.LVL6:
 239              	.LBB22:
 240              	.LBB23:
  73:../../../../../../Middlewares/Third_Party/LoRaWAN/Mac/region/RegionIN865.c ****     {
 241              		.loc 1 73 0
 242 00ae 0022     		movs	r2, #0
 243 00b0 002B     		cmp	r3, #0
 244 00b2 03D0     		beq	.L27
  77:../../../../../../Middlewares/Third_Party/LoRaWAN/Mac/region/RegionIN865.c ****     {
ARM GAS  C:\Users\EBANO_~1\AppData\Local\Temp\ccEfOEMG.s 			page 12


 245              		.loc 1 77 0
 246 00b4 072B     		cmp	r3, #7
 247 00b6 16D0     		beq	.L29
 248              	.LVL7:
  83:../../../../../../Middlewares/Third_Party/LoRaWAN/Mac/region/RegionIN865.c ****     }
 249              		.loc 1 83 0
 250 00b8 013B     		subs	r3, r3, #1
 251              	.LVL8:
 252 00ba 5AB2     		sxtb	r2, r3
 253              	.LVL9:
 254              	.L27:
 255              	.LBE23:
 256              	.LBE22:
 191:../../../../../../Middlewares/Third_Party/LoRaWAN/Mac/region/RegionIN865.c ****             break;
 257              		.loc 1 191 0
 258 00bc 0092     		str	r2, [sp]
 192:../../../../../../Middlewares/Third_Party/LoRaWAN/Mac/region/RegionIN865.c ****         }
 259              		.loc 1 192 0
 260 00be AEE7     		b	.L2
 261              	.L8:
 226:../../../../../../Middlewares/Third_Party/LoRaWAN/Mac/region/RegionIN865.c ****             break;
 262              		.loc 1 226 0
 263 00c0 0123     		movs	r3, #1
 264 00c2 0093     		str	r3, [sp]
 227:../../../../../../Middlewares/Third_Party/LoRaWAN/Mac/region/RegionIN865.c ****         }
 265              		.loc 1 227 0
 266 00c4 ABE7     		b	.L2
 267              	.L7:
 221:../../../../../../Middlewares/Third_Party/LoRaWAN/Mac/region/RegionIN865.c ****             break;
 268              		.loc 1 221 0
 269 00c6 0122     		movs	r2, #1
 270 00c8 134B     		ldr	r3, .L32+44
 271 00ca 8256     		ldrsb	r2, [r0, r2]
 272 00cc 9B18     		adds	r3, r3, r2
 273 00ce 1B7A     		ldrb	r3, [r3, #8]
 274 00d0 0093     		str	r3, [sp]
 222:../../../../../../Middlewares/Third_Party/LoRaWAN/Mac/region/RegionIN865.c ****         }
 275              		.loc 1 222 0
 276 00d2 A4E7     		b	.L2
 277              	.L6:
 216:../../../../../../Middlewares/Third_Party/LoRaWAN/Mac/region/RegionIN865.c ****             break;
 278              		.loc 1 216 0
 279 00d4 0123     		movs	r3, #1
 280 00d6 104A     		ldr	r2, .L32+44
 281 00d8 C356     		ldrsb	r3, [r0, r3]
 282 00da D35C     		ldrb	r3, [r2, r3]
 283 00dc 0093     		str	r3, [sp]
 217:../../../../../../Middlewares/Third_Party/LoRaWAN/Mac/region/RegionIN865.c ****         }
 284              		.loc 1 217 0
 285 00de 9EE7     		b	.L2
 286              	.L5:
 211:../../../../../../Middlewares/Third_Party/LoRaWAN/Mac/region/RegionIN865.c ****             break;
 287              		.loc 1 211 0
 288 00e0 2023     		movs	r3, #32
 289 00e2 0093     		str	r3, [sp]
 212:../../../../../../Middlewares/Third_Party/LoRaWAN/Mac/region/RegionIN865.c ****         }
 290              		.loc 1 212 0
ARM GAS  C:\Users\EBANO_~1\AppData\Local\Temp\ccEfOEMG.s 			page 13


 291 00e4 9BE7     		b	.L2
 292              	.LVL10:
 293              	.L29:
 294              	.LBB25:
 295              	.LBB24:
  77:../../../../../../Middlewares/Third_Party/LoRaWAN/Mac/region/RegionIN865.c ****     {
 296              		.loc 1 77 0
 297 00e6 0522     		movs	r2, #5
 298              	.LVL11:
 299              	.LBE24:
 300              	.LBE25:
 191:../../../../../../Middlewares/Third_Party/LoRaWAN/Mac/region/RegionIN865.c ****             break;
 301              		.loc 1 191 0
 302 00e8 0092     		str	r2, [sp]
 303 00ea 98E7     		b	.L2
 304              	.L33:
 305              		.align	2
 306              	.L32:
 307 00ec 00000000 		.word	.L4
 308 00f0 F080A633 		.word	866550000
 309 00f4 00000000 		.word	NvmCtx
 310 00f8 0000F041 		.word	1106247680
 311 00fc D2000000 		.word	NvmCtx+210
 312 0100 D0000000 		.word	NvmCtx+208
 313 0104 B80B0000 		.word	3000
 314 0108 88130000 		.word	5000
 315 010c 9A990940 		.word	1074370970
 316 0110 18FCFFFF 		.word	-1000
 317 0114 70170000 		.word	6000
 318 0118 08010000 		.word	.LANCHOR0
 319              		.cfi_endproc
 320              	.LFE44:
 321              		.size	RegionIN865GetPhyParam, .-RegionIN865GetPhyParam
 322              		.section	.text.RegionIN865SetBandTxDone,"ax",%progbits
 323              		.align	1
 324              		.p2align 2,,3
 325              		.global	RegionIN865SetBandTxDone
 326              		.syntax unified
 327              		.code	16
 328              		.thumb_func
 329              		.fpu softvfp
 330              		.type	RegionIN865SetBandTxDone, %function
 331              	RegionIN865SetBandTxDone:
 332              	.LFB45:
 345:../../../../../../Middlewares/Third_Party/LoRaWAN/Mac/region/RegionIN865.c **** 
 346:../../../../../../Middlewares/Third_Party/LoRaWAN/Mac/region/RegionIN865.c **** void RegionIN865SetBandTxDone( SetBandTxDoneParams_t* txDone )
 347:../../../../../../Middlewares/Third_Party/LoRaWAN/Mac/region/RegionIN865.c **** {
 333              		.loc 1 347 0
 334              		.cfi_startproc
 335              		@ args = 0, pretend = 0, frame = 0
 336              		@ frame_needed = 0, uses_anonymous_args = 0
 337              	.LVL12:
 348:../../../../../../Middlewares/Third_Party/LoRaWAN/Mac/region/RegionIN865.c ****     RegionCommonSetBandTxDone( txDone->Joined, &NvmCtx.Bands[NvmCtx.Channels[txDone->Channel].Band]
 338              		.loc 1 348 0
 339 0000 0178     		ldrb	r1, [r0]
 347:../../../../../../Middlewares/Third_Party/LoRaWAN/Mac/region/RegionIN865.c ****     RegionCommonSetBandTxDone( txDone->Joined, &NvmCtx.Bands[NvmCtx.Channels[txDone->Channel].Band]
 340              		.loc 1 347 0
ARM GAS  C:\Users\EBANO_~1\AppData\Local\Temp\ccEfOEMG.s 			page 14


 341 0002 10B5     		push	{r4, lr}
 342              	.LCFI2:
 343              		.cfi_def_cfa_offset 8
 344              		.cfi_offset 4, -8
 345              		.cfi_offset 14, -4
 346              		.loc 1 348 0
 347 0004 4B00     		lsls	r3, r1, #1
 348 0006 064C     		ldr	r4, .L35
 349 0008 5B18     		adds	r3, r3, r1
 350 000a 9B00     		lsls	r3, r3, #2
 351 000c E318     		adds	r3, r4, r3
 352 000e 597A     		ldrb	r1, [r3, #9]
 353 0010 4268     		ldr	r2, [r0, #4]
 354 0012 0C31     		adds	r1, r1, #12
 355 0014 0901     		lsls	r1, r1, #4
 356 0016 0919     		adds	r1, r1, r4
 357 0018 4078     		ldrb	r0, [r0, #1]
 358              	.LVL13:
 359 001a FFF7FEFF 		bl	RegionCommonSetBandTxDone
 360              	.LVL14:
 349:../../../../../../Middlewares/Third_Party/LoRaWAN/Mac/region/RegionIN865.c **** }
 361              		.loc 1 349 0
 362              		@ sp needed
 363 001e 10BD     		pop	{r4, pc}
 364              	.L36:
 365              		.align	2
 366              	.L35:
 367 0020 00000000 		.word	NvmCtx
 368              		.cfi_endproc
 369              	.LFE45:
 370              		.size	RegionIN865SetBandTxDone, .-RegionIN865SetBandTxDone
 371              		.section	.text.RegionIN865InitDefaults,"ax",%progbits
 372              		.align	1
 373              		.p2align 2,,3
 374              		.global	RegionIN865InitDefaults
 375              		.syntax unified
 376              		.code	16
 377              		.thumb_func
 378              		.fpu softvfp
 379              		.type	RegionIN865InitDefaults, %function
 380              	RegionIN865InitDefaults:
 381              	.LFB46:
 350:../../../../../../Middlewares/Third_Party/LoRaWAN/Mac/region/RegionIN865.c **** 
 351:../../../../../../Middlewares/Third_Party/LoRaWAN/Mac/region/RegionIN865.c **** void RegionIN865InitDefaults( InitDefaultsParams_t* params )
 352:../../../../../../Middlewares/Third_Party/LoRaWAN/Mac/region/RegionIN865.c **** {
 382              		.loc 1 352 0
 383              		.cfi_startproc
 384              		@ args = 0, pretend = 0, frame = 16
 385              		@ frame_needed = 0, uses_anonymous_args = 0
 386              	.LVL15:
 387 0000 F0B5     		push	{r4, r5, r6, r7, lr}
 388              	.LCFI3:
 389              		.cfi_def_cfa_offset 20
 390              		.cfi_offset 4, -20
 391              		.cfi_offset 5, -16
 392              		.cfi_offset 6, -12
 393              		.cfi_offset 7, -8
ARM GAS  C:\Users\EBANO_~1\AppData\Local\Temp\ccEfOEMG.s 			page 15


 394              		.cfi_offset 14, -4
 395 0002 85B0     		sub	sp, sp, #20
 396              	.LCFI4:
 397              		.cfi_def_cfa_offset 40
 353:../../../../../../Middlewares/Third_Party/LoRaWAN/Mac/region/RegionIN865.c ****     Band_t bands[IN865_MAX_NB_BANDS] =
 398              		.loc 1 353 0
 399 0004 0123     		movs	r3, #1
 400 0006 6A46     		mov	r2, sp
 401 0008 1380     		strh	r3, [r2]
 402 000a 0023     		movs	r3, #0
 403 000c 9370     		strb	r3, [r2, #2]
 404 000e 0193     		str	r3, [sp, #4]
 405 0010 0293     		str	r3, [sp, #8]
 406 0012 0393     		str	r3, [sp, #12]
 354:../../../../../../Middlewares/Third_Party/LoRaWAN/Mac/region/RegionIN865.c ****     {
 355:../../../../../../Middlewares/Third_Party/LoRaWAN/Mac/region/RegionIN865.c ****         IN865_BAND0
 356:../../../../../../Middlewares/Third_Party/LoRaWAN/Mac/region/RegionIN865.c ****     };
 357:../../../../../../Middlewares/Third_Party/LoRaWAN/Mac/region/RegionIN865.c **** 
 358:../../../../../../Middlewares/Third_Party/LoRaWAN/Mac/region/RegionIN865.c ****     switch( params->Type )
 407              		.loc 1 358 0
 408 0014 0379     		ldrb	r3, [r0, #4]
 409 0016 012B     		cmp	r3, #1
 410 0018 2ED0     		beq	.L39
 411 001a 002B     		cmp	r3, #0
 412 001c 0AD0     		beq	.L40
 413 001e 022B     		cmp	r3, #2
 414 0020 06D1     		bne	.L37
 359:../../../../../../Middlewares/Third_Party/LoRaWAN/Mac/region/RegionIN865.c ****     {
 360:../../../../../../Middlewares/Third_Party/LoRaWAN/Mac/region/RegionIN865.c ****         case INIT_TYPE_INIT:
 361:../../../../../../Middlewares/Third_Party/LoRaWAN/Mac/region/RegionIN865.c ****         {
 362:../../../../../../Middlewares/Third_Party/LoRaWAN/Mac/region/RegionIN865.c ****             // Initialize bands
 363:../../../../../../Middlewares/Third_Party/LoRaWAN/Mac/region/RegionIN865.c ****             memcpy1( ( uint8_t* )NvmCtx.Bands, ( uint8_t* )bands, sizeof( Band_t ) * IN865_MAX_NB_B
 364:../../../../../../Middlewares/Third_Party/LoRaWAN/Mac/region/RegionIN865.c **** 
 365:../../../../../../Middlewares/Third_Party/LoRaWAN/Mac/region/RegionIN865.c ****             // Channels
 366:../../../../../../Middlewares/Third_Party/LoRaWAN/Mac/region/RegionIN865.c ****             NvmCtx.Channels[0] = ( ChannelParams_t ) IN865_LC1;
 367:../../../../../../Middlewares/Third_Party/LoRaWAN/Mac/region/RegionIN865.c ****             NvmCtx.Channels[1] = ( ChannelParams_t ) IN865_LC2;
 368:../../../../../../Middlewares/Third_Party/LoRaWAN/Mac/region/RegionIN865.c ****             NvmCtx.Channels[2] = ( ChannelParams_t ) IN865_LC3;
 369:../../../../../../Middlewares/Third_Party/LoRaWAN/Mac/region/RegionIN865.c **** 
 370:../../../../../../Middlewares/Third_Party/LoRaWAN/Mac/region/RegionIN865.c ****             // Initialize the channels default mask
 371:../../../../../../Middlewares/Third_Party/LoRaWAN/Mac/region/RegionIN865.c ****             NvmCtx.ChannelsDefaultMask[0] = LC( 1 ) + LC( 2 ) + LC( 3 );
 372:../../../../../../Middlewares/Third_Party/LoRaWAN/Mac/region/RegionIN865.c ****             // Update the channels mask
 373:../../../../../../Middlewares/Third_Party/LoRaWAN/Mac/region/RegionIN865.c ****             RegionCommonChanMaskCopy( NvmCtx.ChannelsMask, NvmCtx.ChannelsDefaultMask, 1 );
 374:../../../../../../Middlewares/Third_Party/LoRaWAN/Mac/region/RegionIN865.c ****             break;
 375:../../../../../../Middlewares/Third_Party/LoRaWAN/Mac/region/RegionIN865.c ****         }
 376:../../../../../../Middlewares/Third_Party/LoRaWAN/Mac/region/RegionIN865.c ****         case INIT_TYPE_RESTORE_CTX:
 377:../../../../../../Middlewares/Third_Party/LoRaWAN/Mac/region/RegionIN865.c ****         {
 378:../../../../../../Middlewares/Third_Party/LoRaWAN/Mac/region/RegionIN865.c ****             if( params->NvmCtx != 0 )
 415              		.loc 1 378 0
 416 0022 0168     		ldr	r1, [r0]
 417 0024 0029     		cmp	r1, #0
 418 0026 03D0     		beq	.L37
 379:../../../../../../Middlewares/Third_Party/LoRaWAN/Mac/region/RegionIN865.c ****             {
 380:../../../../../../Middlewares/Third_Party/LoRaWAN/Mac/region/RegionIN865.c ****                 memcpy1( (uint8_t*) &NvmCtx, (uint8_t*) params->NvmCtx, sizeof( NvmCtx ) );
 419              		.loc 1 380 0
 420 0028 D422     		movs	r2, #212
 421 002a 1748     		ldr	r0, .L45
 422              	.LVL16:
ARM GAS  C:\Users\EBANO_~1\AppData\Local\Temp\ccEfOEMG.s 			page 16


 423 002c FFF7FEFF 		bl	memcpy1
 424              	.LVL17:
 425              	.L37:
 381:../../../../../../Middlewares/Third_Party/LoRaWAN/Mac/region/RegionIN865.c ****             }
 382:../../../../../../Middlewares/Third_Party/LoRaWAN/Mac/region/RegionIN865.c ****             break;
 383:../../../../../../Middlewares/Third_Party/LoRaWAN/Mac/region/RegionIN865.c ****         }
 384:../../../../../../Middlewares/Third_Party/LoRaWAN/Mac/region/RegionIN865.c ****         case INIT_TYPE_RESTORE_DEFAULT_CHANNELS:
 385:../../../../../../Middlewares/Third_Party/LoRaWAN/Mac/region/RegionIN865.c ****         {
 386:../../../../../../Middlewares/Third_Party/LoRaWAN/Mac/region/RegionIN865.c ****             // Restore channels default mask
 387:../../../../../../Middlewares/Third_Party/LoRaWAN/Mac/region/RegionIN865.c ****             NvmCtx.ChannelsMask[0] |= NvmCtx.ChannelsDefaultMask[0];
 388:../../../../../../Middlewares/Third_Party/LoRaWAN/Mac/region/RegionIN865.c ****             break;
 389:../../../../../../Middlewares/Third_Party/LoRaWAN/Mac/region/RegionIN865.c ****         }
 390:../../../../../../Middlewares/Third_Party/LoRaWAN/Mac/region/RegionIN865.c ****         default:
 391:../../../../../../Middlewares/Third_Party/LoRaWAN/Mac/region/RegionIN865.c ****         {
 392:../../../../../../Middlewares/Third_Party/LoRaWAN/Mac/region/RegionIN865.c ****             break;
 393:../../../../../../Middlewares/Third_Party/LoRaWAN/Mac/region/RegionIN865.c ****         }
 394:../../../../../../Middlewares/Third_Party/LoRaWAN/Mac/region/RegionIN865.c ****     }
 395:../../../../../../Middlewares/Third_Party/LoRaWAN/Mac/region/RegionIN865.c **** }
 426              		.loc 1 395 0
 427 0030 05B0     		add	sp, sp, #20
 428              		@ sp needed
 429 0032 F0BD     		pop	{r4, r5, r6, r7, pc}
 430              	.LVL18:
 431              	.L40:
 363:../../../../../../Middlewares/Third_Party/LoRaWAN/Mac/region/RegionIN865.c **** 
 432              		.loc 1 363 0
 433 0034 154C     		ldr	r4, .L45+4
 434 0036 6946     		mov	r1, sp
 435 0038 2000     		movs	r0, r4
 436              	.LVL19:
 437 003a 1022     		movs	r2, #16
 438 003c FFF7FEFF 		bl	memcpy1
 439              	.LVL20:
 366:../../../../../../Middlewares/Third_Party/LoRaWAN/Mac/region/RegionIN865.c ****             NvmCtx.Channels[1] = ( ChannelParams_t ) IN865_LC2;
 440              		.loc 1 366 0
 441 0040 2200     		movs	r2, r4
 442 0042 134B     		ldr	r3, .L45+8
 443 0044 C03A     		subs	r2, r2, #192
 444 0046 1900     		movs	r1, r3
 445 0048 1000     		movs	r0, r2
 446 004a 1031     		adds	r1, r1, #16
 447 004c E0C9     		ldmia	r1!, {r5, r6, r7}
 448 004e E0C0     		stmia	r0!, {r5, r6, r7}
 367:../../../../../../Middlewares/Third_Party/LoRaWAN/Mac/region/RegionIN865.c ****             NvmCtx.Channels[2] = ( ChannelParams_t ) IN865_LC3;
 449              		.loc 1 367 0
 450 0050 1900     		movs	r1, r3
 451 0052 1C31     		adds	r1, r1, #28
 452 0054 E0C9     		ldmia	r1!, {r5, r6, r7}
 453 0056 E0C0     		stmia	r0!, {r5, r6, r7}
 368:../../../../../../Middlewares/Third_Party/LoRaWAN/Mac/region/RegionIN865.c **** 
 454              		.loc 1 368 0
 455 0058 2100     		movs	r1, r4
 456 005a 2833     		adds	r3, r3, #40
 457 005c A839     		subs	r1, r1, #168
 458 005e 61CB     		ldmia	r3!, {r0, r5, r6}
 459 0060 61C1     		stmia	r1!, {r0, r5, r6}
 371:../../../../../../Middlewares/Third_Party/LoRaWAN/Mac/region/RegionIN865.c ****             // Update the channels mask
ARM GAS  C:\Users\EBANO_~1\AppData\Local\Temp\ccEfOEMG.s 			page 17


 460              		.loc 1 371 0
 461 0062 D223     		movs	r3, #210
 462 0064 0721     		movs	r1, #7
 373:../../../../../../Middlewares/Third_Party/LoRaWAN/Mac/region/RegionIN865.c ****             break;
 463              		.loc 1 373 0
 464 0066 2000     		movs	r0, r4
 371:../../../../../../Middlewares/Third_Party/LoRaWAN/Mac/region/RegionIN865.c ****             // Update the channels mask
 465              		.loc 1 371 0
 466 0068 D152     		strh	r1, [r2, r3]
 373:../../../../../../Middlewares/Third_Party/LoRaWAN/Mac/region/RegionIN865.c ****             break;
 467              		.loc 1 373 0
 468 006a 2100     		movs	r1, r4
 469 006c 1030     		adds	r0, r0, #16
 470 006e 1231     		adds	r1, r1, #18
 471 0070 0122     		movs	r2, #1
 472 0072 FFF7FEFF 		bl	RegionCommonChanMaskCopy
 473              	.LVL21:
 374:../../../../../../Middlewares/Third_Party/LoRaWAN/Mac/region/RegionIN865.c ****         }
 474              		.loc 1 374 0
 475 0076 DBE7     		b	.L37
 476              	.LVL22:
 477              	.L39:
 387:../../../../../../Middlewares/Third_Party/LoRaWAN/Mac/region/RegionIN865.c ****             break;
 478              		.loc 1 387 0
 479 0078 D021     		movs	r1, #208
 480 007a D220     		movs	r0, #210
 481              	.LVL23:
 482 007c 024B     		ldr	r3, .L45
 483 007e 5A5A     		ldrh	r2, [r3, r1]
 484 0080 185A     		ldrh	r0, [r3, r0]
 485 0082 0243     		orrs	r2, r0
 486 0084 5A52     		strh	r2, [r3, r1]
 487              		.loc 1 395 0
 488 0086 D3E7     		b	.L37
 489              	.L46:
 490              		.align	2
 491              	.L45:
 492 0088 00000000 		.word	NvmCtx
 493 008c C0000000 		.word	NvmCtx+192
 494 0090 08010000 		.word	.LANCHOR0
 495              		.cfi_endproc
 496              	.LFE46:
 497              		.size	RegionIN865InitDefaults, .-RegionIN865InitDefaults
 498              		.section	.text.RegionIN865GetNvmCtx,"ax",%progbits
 499              		.align	1
 500              		.p2align 2,,3
 501              		.global	RegionIN865GetNvmCtx
 502              		.syntax unified
 503              		.code	16
 504              		.thumb_func
 505              		.fpu softvfp
 506              		.type	RegionIN865GetNvmCtx, %function
 507              	RegionIN865GetNvmCtx:
 508              	.LFB47:
 396:../../../../../../Middlewares/Third_Party/LoRaWAN/Mac/region/RegionIN865.c **** 
 397:../../../../../../Middlewares/Third_Party/LoRaWAN/Mac/region/RegionIN865.c **** void* RegionIN865GetNvmCtx( GetNvmCtxParams_t* params )
 398:../../../../../../Middlewares/Third_Party/LoRaWAN/Mac/region/RegionIN865.c **** {
ARM GAS  C:\Users\EBANO_~1\AppData\Local\Temp\ccEfOEMG.s 			page 18


 509              		.loc 1 398 0
 510              		.cfi_startproc
 511              		@ args = 0, pretend = 0, frame = 0
 512              		@ frame_needed = 0, uses_anonymous_args = 0
 513              		@ link register save eliminated.
 514              	.LVL24:
 399:../../../../../../Middlewares/Third_Party/LoRaWAN/Mac/region/RegionIN865.c ****     params->nvmCtxSize = sizeof( RegionIN865NvmCtx_t );
 515              		.loc 1 399 0
 516 0000 D423     		movs	r3, #212
 400:../../../../../../Middlewares/Third_Party/LoRaWAN/Mac/region/RegionIN865.c ****     return &NvmCtx;
 401:../../../../../../Middlewares/Third_Party/LoRaWAN/Mac/region/RegionIN865.c **** }
 517              		.loc 1 401 0
 518              		@ sp needed
 399:../../../../../../Middlewares/Third_Party/LoRaWAN/Mac/region/RegionIN865.c ****     params->nvmCtxSize = sizeof( RegionIN865NvmCtx_t );
 519              		.loc 1 399 0
 520 0002 0360     		str	r3, [r0]
 521              		.loc 1 401 0
 522 0004 0048     		ldr	r0, .L48
 523              	.LVL25:
 524 0006 7047     		bx	lr
 525              	.L49:
 526              		.align	2
 527              	.L48:
 528 0008 00000000 		.word	NvmCtx
 529              		.cfi_endproc
 530              	.LFE47:
 531              		.size	RegionIN865GetNvmCtx, .-RegionIN865GetNvmCtx
 532              		.section	.text.RegionIN865Verify,"ax",%progbits
 533              		.align	1
 534              		.p2align 2,,3
 535              		.global	RegionIN865Verify
 536              		.syntax unified
 537              		.code	16
 538              		.thumb_func
 539              		.fpu softvfp
 540              		.type	RegionIN865Verify, %function
 541              	RegionIN865Verify:
 542              	.LFB48:
 402:../../../../../../Middlewares/Third_Party/LoRaWAN/Mac/region/RegionIN865.c **** 
 403:../../../../../../Middlewares/Third_Party/LoRaWAN/Mac/region/RegionIN865.c **** bool RegionIN865Verify( VerifyParams_t* verify, PhyAttribute_t phyAttribute )
 404:../../../../../../Middlewares/Third_Party/LoRaWAN/Mac/region/RegionIN865.c **** {
 543              		.loc 1 404 0
 544              		.cfi_startproc
 545              		@ args = 0, pretend = 0, frame = 0
 546              		@ frame_needed = 0, uses_anonymous_args = 0
 547              	.LVL26:
 405:../../../../../../Middlewares/Third_Party/LoRaWAN/Mac/region/RegionIN865.c ****     switch( phyAttribute )
 548              		.loc 1 405 0
 549 0000 0439     		subs	r1, r1, #4
 550              	.LVL27:
 551 0002 C9B2     		uxtb	r1, r1
 404:../../../../../../Middlewares/Third_Party/LoRaWAN/Mac/region/RegionIN865.c ****     switch( phyAttribute )
 552              		.loc 1 404 0
 553 0004 10B5     		push	{r4, lr}
 554              	.LCFI5:
 555              		.cfi_def_cfa_offset 8
 556              		.cfi_offset 4, -8
ARM GAS  C:\Users\EBANO_~1\AppData\Local\Temp\ccEfOEMG.s 			page 19


 557              		.cfi_offset 14, -4
 558              		.loc 1 405 0
 559 0006 0A29     		cmp	r1, #10
 560 0008 28D8     		bhi	.L51
 561 000a 154B     		ldr	r3, .L65
 562 000c 8900     		lsls	r1, r1, #2
 563 000e 5B58     		ldr	r3, [r3, r1]
 564 0010 9F46     		mov	pc, r3
 565              		.section	.rodata
 566              		.align	2
 567              	.L53:
 568 00ac 12000000 		.word	.L55
 569 00b0 36000000 		.word	.L54
 570 00b4 12000000 		.word	.L55
 571 00b8 5C000000 		.word	.L51
 572 00bc 22000000 		.word	.L56
 573 00c0 22000000 		.word	.L56
 574 00c4 5C000000 		.word	.L51
 575 00c8 5C000000 		.word	.L51
 576 00cc 5C000000 		.word	.L51
 577 00d0 5C000000 		.word	.L51
 578 00d4 1E000000 		.word	.L58
 579              		.section	.text.RegionIN865Verify
 580              	.L55:
 406:../../../../../../Middlewares/Third_Party/LoRaWAN/Mac/region/RegionIN865.c ****     {
 407:../../../../../../Middlewares/Third_Party/LoRaWAN/Mac/region/RegionIN865.c ****         case PHY_TX_DR:
 408:../../../../../../Middlewares/Third_Party/LoRaWAN/Mac/region/RegionIN865.c ****         {
 409:../../../../../../Middlewares/Third_Party/LoRaWAN/Mac/region/RegionIN865.c ****             if( verify->DatarateParams.Datarate == DR_6 )
 410:../../../../../../Middlewares/Third_Party/LoRaWAN/Mac/region/RegionIN865.c ****             {// DR_6 is not supported by this region
 411:../../../../../../Middlewares/Third_Party/LoRaWAN/Mac/region/RegionIN865.c ****                 return false;
 412:../../../../../../Middlewares/Third_Party/LoRaWAN/Mac/region/RegionIN865.c ****             }
 413:../../../../../../Middlewares/Third_Party/LoRaWAN/Mac/region/RegionIN865.c ****             else
 414:../../../../../../Middlewares/Third_Party/LoRaWAN/Mac/region/RegionIN865.c ****             {
 415:../../../../../../Middlewares/Third_Party/LoRaWAN/Mac/region/RegionIN865.c ****                 return RegionCommonValueInRange( verify->DatarateParams.Datarate, IN865_TX_MIN_DATA
 416:../../../../../../Middlewares/Third_Party/LoRaWAN/Mac/region/RegionIN865.c ****             }
 417:../../../../../../Middlewares/Third_Party/LoRaWAN/Mac/region/RegionIN865.c ****         }
 418:../../../../../../Middlewares/Third_Party/LoRaWAN/Mac/region/RegionIN865.c ****         case PHY_DEF_TX_DR:
 419:../../../../../../Middlewares/Third_Party/LoRaWAN/Mac/region/RegionIN865.c ****         {
 420:../../../../../../Middlewares/Third_Party/LoRaWAN/Mac/region/RegionIN865.c ****             return RegionCommonValueInRange( verify->DatarateParams.Datarate, DR_0, DR_5 );
 421:../../../../../../Middlewares/Third_Party/LoRaWAN/Mac/region/RegionIN865.c ****         }
 422:../../../../../../Middlewares/Third_Party/LoRaWAN/Mac/region/RegionIN865.c ****         case PHY_RX_DR:
 423:../../../../../../Middlewares/Third_Party/LoRaWAN/Mac/region/RegionIN865.c ****         {
 424:../../../../../../Middlewares/Third_Party/LoRaWAN/Mac/region/RegionIN865.c ****             if( verify->DatarateParams.Datarate == DR_6 )
 581              		.loc 1 424 0
 582 0012 0023     		movs	r3, #0
 583 0014 C356     		ldrsb	r3, [r0, r3]
 411:../../../../../../Middlewares/Third_Party/LoRaWAN/Mac/region/RegionIN865.c ****             }
 584              		.loc 1 411 0
 585 0016 0020     		movs	r0, #0
 586              	.LVL28:
 587              		.loc 1 424 0
 588 0018 062B     		cmp	r3, #6
 589 001a 16D1     		bne	.L64
 590              	.L57:
 425:../../../../../../Middlewares/Third_Party/LoRaWAN/Mac/region/RegionIN865.c ****             {// DR_6 is not supported by this region
 426:../../../../../../Middlewares/Third_Party/LoRaWAN/Mac/region/RegionIN865.c ****                 return false;
 427:../../../../../../Middlewares/Third_Party/LoRaWAN/Mac/region/RegionIN865.c ****             }
ARM GAS  C:\Users\EBANO_~1\AppData\Local\Temp\ccEfOEMG.s 			page 20


 428:../../../../../../Middlewares/Third_Party/LoRaWAN/Mac/region/RegionIN865.c ****             else
 429:../../../../../../Middlewares/Third_Party/LoRaWAN/Mac/region/RegionIN865.c ****             {
 430:../../../../../../Middlewares/Third_Party/LoRaWAN/Mac/region/RegionIN865.c ****                 return RegionCommonValueInRange( verify->DatarateParams.Datarate, IN865_RX_MIN_DATA
 431:../../../../../../Middlewares/Third_Party/LoRaWAN/Mac/region/RegionIN865.c ****             }
 432:../../../../../../Middlewares/Third_Party/LoRaWAN/Mac/region/RegionIN865.c ****         }
 433:../../../../../../Middlewares/Third_Party/LoRaWAN/Mac/region/RegionIN865.c ****         case PHY_DEF_TX_POWER:
 434:../../../../../../Middlewares/Third_Party/LoRaWAN/Mac/region/RegionIN865.c ****         case PHY_TX_POWER:
 435:../../../../../../Middlewares/Third_Party/LoRaWAN/Mac/region/RegionIN865.c ****         {
 436:../../../../../../Middlewares/Third_Party/LoRaWAN/Mac/region/RegionIN865.c ****             // Remark: switched min and max!
 437:../../../../../../Middlewares/Third_Party/LoRaWAN/Mac/region/RegionIN865.c ****             return RegionCommonValueInRange( verify->TxPower, IN865_MAX_TX_POWER, IN865_MIN_TX_POWE
 438:../../../../../../Middlewares/Third_Party/LoRaWAN/Mac/region/RegionIN865.c ****         }
 439:../../../../../../Middlewares/Third_Party/LoRaWAN/Mac/region/RegionIN865.c ****         case PHY_DUTY_CYCLE:
 440:../../../../../../Middlewares/Third_Party/LoRaWAN/Mac/region/RegionIN865.c ****         {
 441:../../../../../../Middlewares/Third_Party/LoRaWAN/Mac/region/RegionIN865.c ****             return IN865_DUTY_CYCLE_ENABLED;
 442:../../../../../../Middlewares/Third_Party/LoRaWAN/Mac/region/RegionIN865.c ****         }
 443:../../../../../../Middlewares/Third_Party/LoRaWAN/Mac/region/RegionIN865.c ****         default:
 444:../../../../../../Middlewares/Third_Party/LoRaWAN/Mac/region/RegionIN865.c ****             return false;
 445:../../../../../../Middlewares/Third_Party/LoRaWAN/Mac/region/RegionIN865.c ****     }
 446:../../../../../../Middlewares/Third_Party/LoRaWAN/Mac/region/RegionIN865.c **** }
 591              		.loc 1 446 0
 592              		@ sp needed
 593 001c 10BD     		pop	{r4, pc}
 594              	.LVL29:
 595              	.L58:
 441:../../../../../../Middlewares/Third_Party/LoRaWAN/Mac/region/RegionIN865.c ****         }
 596              		.loc 1 441 0
 597 001e 0120     		movs	r0, #1
 598              	.LVL30:
 599 0020 FCE7     		b	.L57
 600              	.LVL31:
 601              	.L56:
 437:../../../../../../Middlewares/Third_Party/LoRaWAN/Mac/region/RegionIN865.c ****         }
 602              		.loc 1 437 0
 603 0022 0078     		ldrb	r0, [r0]
 604              	.LVL32:
 605 0024 0A22     		movs	r2, #10
 606 0026 40B2     		sxtb	r0, r0
 607 0028 0021     		movs	r1, #0
 608 002a FFF7FEFF 		bl	RegionCommonValueInRange
 609              	.LVL33:
 610 002e 431E     		subs	r3, r0, #1
 611 0030 9841     		sbcs	r0, r0, r3
 612 0032 C0B2     		uxtb	r0, r0
 613 0034 F2E7     		b	.L57
 614              	.LVL34:
 615              	.L54:
 420:../../../../../../Middlewares/Third_Party/LoRaWAN/Mac/region/RegionIN865.c ****         }
 616              		.loc 1 420 0
 617 0036 0078     		ldrb	r0, [r0]
 618              	.LVL35:
 619 0038 0522     		movs	r2, #5
 620 003a 40B2     		sxtb	r0, r0
 621 003c 0021     		movs	r1, #0
 622 003e FFF7FEFF 		bl	RegionCommonValueInRange
 623              	.LVL36:
 624 0042 431E     		subs	r3, r0, #1
 625 0044 9841     		sbcs	r0, r0, r3
ARM GAS  C:\Users\EBANO_~1\AppData\Local\Temp\ccEfOEMG.s 			page 21


 626 0046 C0B2     		uxtb	r0, r0
 627 0048 E8E7     		b	.L57
 628              	.L64:
 430:../../../../../../Middlewares/Third_Party/LoRaWAN/Mac/region/RegionIN865.c ****             }
 629              		.loc 1 430 0
 630 004a 1800     		movs	r0, r3
 631 004c 0722     		movs	r2, #7
 632 004e 0021     		movs	r1, #0
 633 0050 FFF7FEFF 		bl	RegionCommonValueInRange
 634              	.LVL37:
 635 0054 431E     		subs	r3, r0, #1
 636 0056 9841     		sbcs	r0, r0, r3
 637 0058 C0B2     		uxtb	r0, r0
 638 005a DFE7     		b	.L57
 639              	.LVL38:
 640              	.L51:
 444:../../../../../../Middlewares/Third_Party/LoRaWAN/Mac/region/RegionIN865.c ****     }
 641              		.loc 1 444 0
 642 005c 0020     		movs	r0, #0
 643              	.LVL39:
 644 005e DDE7     		b	.L57
 645              	.L66:
 646              		.align	2
 647              	.L65:
 648 0060 AC000000 		.word	.L53
 649              		.cfi_endproc
 650              	.LFE48:
 651              		.size	RegionIN865Verify, .-RegionIN865Verify
 652              		.section	.text.RegionIN865ApplyCFList,"ax",%progbits
 653              		.align	1
 654              		.p2align 2,,3
 655              		.global	RegionIN865ApplyCFList
 656              		.syntax unified
 657              		.code	16
 658              		.thumb_func
 659              		.fpu softvfp
 660              		.type	RegionIN865ApplyCFList, %function
 661              	RegionIN865ApplyCFList:
 662              	.LFB49:
 447:../../../../../../Middlewares/Third_Party/LoRaWAN/Mac/region/RegionIN865.c **** 
 448:../../../../../../Middlewares/Third_Party/LoRaWAN/Mac/region/RegionIN865.c **** void RegionIN865ApplyCFList( ApplyCFListParams_t* applyCFList )
 449:../../../../../../Middlewares/Third_Party/LoRaWAN/Mac/region/RegionIN865.c **** {
 663              		.loc 1 449 0
 664              		.cfi_startproc
 665              		@ args = 0, pretend = 0, frame = 24
 666              		@ frame_needed = 0, uses_anonymous_args = 0
 667              	.LVL40:
 668 0000 F0B5     		push	{r4, r5, r6, r7, lr}
 669              	.LCFI6:
 670              		.cfi_def_cfa_offset 20
 671              		.cfi_offset 4, -20
 672              		.cfi_offset 5, -16
 673              		.cfi_offset 6, -12
 674              		.cfi_offset 7, -8
 675              		.cfi_offset 14, -4
 676 0002 5746     		mov	r7, r10
 677 0004 DE46     		mov	lr, fp
ARM GAS  C:\Users\EBANO_~1\AppData\Local\Temp\ccEfOEMG.s 			page 22


 678 0006 4E46     		mov	r6, r9
 679 0008 4546     		mov	r5, r8
 450:../../../../../../Middlewares/Third_Party/LoRaWAN/Mac/region/RegionIN865.c ****     ChannelParams_t newChannel;
 451:../../../../../../Middlewares/Third_Party/LoRaWAN/Mac/region/RegionIN865.c ****     ChannelAddParams_t channelAdd;
 452:../../../../../../Middlewares/Third_Party/LoRaWAN/Mac/region/RegionIN865.c ****     ChannelRemoveParams_t channelRemove;
 453:../../../../../../Middlewares/Third_Party/LoRaWAN/Mac/region/RegionIN865.c **** 
 454:../../../../../../Middlewares/Third_Party/LoRaWAN/Mac/region/RegionIN865.c ****     // Setup default datarate range
 455:../../../../../../Middlewares/Third_Party/LoRaWAN/Mac/region/RegionIN865.c ****     newChannel.DrRange.Value = ( DR_5 << 4 ) | DR_0;
 680              		.loc 1 455 0
 681 000a 5023     		movs	r3, #80
 449:../../../../../../Middlewares/Third_Party/LoRaWAN/Mac/region/RegionIN865.c ****     ChannelParams_t newChannel;
 682              		.loc 1 449 0
 683 000c E0B5     		push	{r5, r6, r7, lr}
 684              	.LCFI7:
 685              		.cfi_def_cfa_offset 36
 686              		.cfi_offset 8, -36
 687              		.cfi_offset 9, -32
 688              		.cfi_offset 10, -28
 689              		.cfi_offset 11, -24
 690 000e 87B0     		sub	sp, sp, #28
 691              	.LCFI8:
 692              		.cfi_def_cfa_offset 64
 693              		.loc 1 455 0
 694 0010 03AC     		add	r4, sp, #12
 695 0012 2372     		strb	r3, [r4, #8]
 456:../../../../../../Middlewares/Third_Party/LoRaWAN/Mac/region/RegionIN865.c **** 
 457:../../../../../../Middlewares/Third_Party/LoRaWAN/Mac/region/RegionIN865.c ****     // Size of the optional CF list
 458:../../../../../../Middlewares/Third_Party/LoRaWAN/Mac/region/RegionIN865.c ****     if( applyCFList->Size != 16 )
 696              		.loc 1 458 0
 697 0014 0379     		ldrb	r3, [r0, #4]
 449:../../../../../../Middlewares/Third_Party/LoRaWAN/Mac/region/RegionIN865.c ****     ChannelParams_t newChannel;
 698              		.loc 1 449 0
 699 0016 0700     		movs	r7, r0
 700              		.loc 1 458 0
 701 0018 102B     		cmp	r3, #16
 702 001a 06D0     		beq	.L84
 703              	.LVL41:
 704              	.L67:
 459:../../../../../../Middlewares/Third_Party/LoRaWAN/Mac/region/RegionIN865.c ****     {
 460:../../../../../../Middlewares/Third_Party/LoRaWAN/Mac/region/RegionIN865.c ****         return;
 461:../../../../../../Middlewares/Third_Party/LoRaWAN/Mac/region/RegionIN865.c ****     }
 462:../../../../../../Middlewares/Third_Party/LoRaWAN/Mac/region/RegionIN865.c **** 
 463:../../../../../../Middlewares/Third_Party/LoRaWAN/Mac/region/RegionIN865.c ****     // Last byte CFListType must be 0 to indicate the CFList contains a list of frequencies
 464:../../../../../../Middlewares/Third_Party/LoRaWAN/Mac/region/RegionIN865.c ****     if( applyCFList->Payload[15] != 0 )
 465:../../../../../../Middlewares/Third_Party/LoRaWAN/Mac/region/RegionIN865.c ****     {
 466:../../../../../../Middlewares/Third_Party/LoRaWAN/Mac/region/RegionIN865.c ****         return;
 467:../../../../../../Middlewares/Third_Party/LoRaWAN/Mac/region/RegionIN865.c ****     }
 468:../../../../../../Middlewares/Third_Party/LoRaWAN/Mac/region/RegionIN865.c **** 
 469:../../../../../../Middlewares/Third_Party/LoRaWAN/Mac/region/RegionIN865.c ****     // Last byte is RFU, don't take it into account
 470:../../../../../../Middlewares/Third_Party/LoRaWAN/Mac/region/RegionIN865.c ****     for( uint8_t i = 0, chanIdx = IN865_NUMB_DEFAULT_CHANNELS; chanIdx < IN865_MAX_NB_CHANNELS; i+=
 471:../../../../../../Middlewares/Third_Party/LoRaWAN/Mac/region/RegionIN865.c ****     {
 472:../../../../../../Middlewares/Third_Party/LoRaWAN/Mac/region/RegionIN865.c ****         if( chanIdx < ( IN865_NUMB_CHANNELS_CF_LIST + IN865_NUMB_DEFAULT_CHANNELS ) )
 473:../../../../../../Middlewares/Third_Party/LoRaWAN/Mac/region/RegionIN865.c ****         {
 474:../../../../../../Middlewares/Third_Party/LoRaWAN/Mac/region/RegionIN865.c ****             // Channel frequency
 475:../../../../../../Middlewares/Third_Party/LoRaWAN/Mac/region/RegionIN865.c ****             newChannel.Frequency = (uint32_t) applyCFList->Payload[i];
 476:../../../../../../Middlewares/Third_Party/LoRaWAN/Mac/region/RegionIN865.c ****             newChannel.Frequency |= ( (uint32_t) applyCFList->Payload[i + 1] << 8 );
 477:../../../../../../Middlewares/Third_Party/LoRaWAN/Mac/region/RegionIN865.c ****             newChannel.Frequency |= ( (uint32_t) applyCFList->Payload[i + 2] << 16 );
ARM GAS  C:\Users\EBANO_~1\AppData\Local\Temp\ccEfOEMG.s 			page 23


 478:../../../../../../Middlewares/Third_Party/LoRaWAN/Mac/region/RegionIN865.c ****             newChannel.Frequency *= 100;
 479:../../../../../../Middlewares/Third_Party/LoRaWAN/Mac/region/RegionIN865.c **** 
 480:../../../../../../Middlewares/Third_Party/LoRaWAN/Mac/region/RegionIN865.c ****             // Initialize alternative frequency to 0
 481:../../../../../../Middlewares/Third_Party/LoRaWAN/Mac/region/RegionIN865.c ****             newChannel.Rx1Frequency = 0;
 482:../../../../../../Middlewares/Third_Party/LoRaWAN/Mac/region/RegionIN865.c ****         }
 483:../../../../../../Middlewares/Third_Party/LoRaWAN/Mac/region/RegionIN865.c ****         else
 484:../../../../../../Middlewares/Third_Party/LoRaWAN/Mac/region/RegionIN865.c ****         {
 485:../../../../../../Middlewares/Third_Party/LoRaWAN/Mac/region/RegionIN865.c ****             newChannel.Frequency = 0;
 486:../../../../../../Middlewares/Third_Party/LoRaWAN/Mac/region/RegionIN865.c ****             newChannel.DrRange.Value = 0;
 487:../../../../../../Middlewares/Third_Party/LoRaWAN/Mac/region/RegionIN865.c ****             newChannel.Rx1Frequency = 0;
 488:../../../../../../Middlewares/Third_Party/LoRaWAN/Mac/region/RegionIN865.c ****         }
 489:../../../../../../Middlewares/Third_Party/LoRaWAN/Mac/region/RegionIN865.c **** 
 490:../../../../../../Middlewares/Third_Party/LoRaWAN/Mac/region/RegionIN865.c ****         if( newChannel.Frequency != 0 )
 491:../../../../../../Middlewares/Third_Party/LoRaWAN/Mac/region/RegionIN865.c ****         {
 492:../../../../../../Middlewares/Third_Party/LoRaWAN/Mac/region/RegionIN865.c ****             channelAdd.NewChannel = &newChannel;
 493:../../../../../../Middlewares/Third_Party/LoRaWAN/Mac/region/RegionIN865.c ****             channelAdd.ChannelId = chanIdx;
 494:../../../../../../Middlewares/Third_Party/LoRaWAN/Mac/region/RegionIN865.c **** 
 495:../../../../../../Middlewares/Third_Party/LoRaWAN/Mac/region/RegionIN865.c ****             // Try to add all channels
 496:../../../../../../Middlewares/Third_Party/LoRaWAN/Mac/region/RegionIN865.c ****             RegionIN865ChannelAdd( &channelAdd );
 497:../../../../../../Middlewares/Third_Party/LoRaWAN/Mac/region/RegionIN865.c ****         }
 498:../../../../../../Middlewares/Third_Party/LoRaWAN/Mac/region/RegionIN865.c ****         else
 499:../../../../../../Middlewares/Third_Party/LoRaWAN/Mac/region/RegionIN865.c ****         {
 500:../../../../../../Middlewares/Third_Party/LoRaWAN/Mac/region/RegionIN865.c ****             channelRemove.ChannelId = chanIdx;
 501:../../../../../../Middlewares/Third_Party/LoRaWAN/Mac/region/RegionIN865.c **** 
 502:../../../../../../Middlewares/Third_Party/LoRaWAN/Mac/region/RegionIN865.c ****             RegionIN865ChannelsRemove( &channelRemove );
 503:../../../../../../Middlewares/Third_Party/LoRaWAN/Mac/region/RegionIN865.c ****         }
 504:../../../../../../Middlewares/Third_Party/LoRaWAN/Mac/region/RegionIN865.c ****     }
 505:../../../../../../Middlewares/Third_Party/LoRaWAN/Mac/region/RegionIN865.c **** }
 705              		.loc 1 505 0
 706 001c 07B0     		add	sp, sp, #28
 707              		@ sp needed
 708              	.LVL42:
 709 001e 3CBC     		pop	{r2, r3, r4, r5}
 710 0020 9046     		mov	r8, r2
 711 0022 9946     		mov	r9, r3
 712 0024 A246     		mov	r10, r4
 713 0026 AB46     		mov	fp, r5
 714 0028 F0BD     		pop	{r4, r5, r6, r7, pc}
 715              	.LVL43:
 716              	.L84:
 464:../../../../../../Middlewares/Third_Party/LoRaWAN/Mac/region/RegionIN865.c ****     {
 717              		.loc 1 464 0
 718 002a 0368     		ldr	r3, [r0]
 719 002c DB7B     		ldrb	r3, [r3, #15]
 720 002e 002B     		cmp	r3, #0
 721 0030 F4D1     		bne	.L67
 722              	.LBB33:
 723              	.LBB34:
 724              	.LBB35:
 506:../../../../../../Middlewares/Third_Party/LoRaWAN/Mac/region/RegionIN865.c **** 
 507:../../../../../../Middlewares/Third_Party/LoRaWAN/Mac/region/RegionIN865.c **** bool RegionIN865ChanMaskSet( ChanMaskSetParams_t* chanMaskSet )
 508:../../../../../../Middlewares/Third_Party/LoRaWAN/Mac/region/RegionIN865.c **** {
 509:../../../../../../Middlewares/Third_Party/LoRaWAN/Mac/region/RegionIN865.c ****     switch( chanMaskSet->ChannelsMaskType )
 510:../../../../../../Middlewares/Third_Party/LoRaWAN/Mac/region/RegionIN865.c ****     {
 511:../../../../../../Middlewares/Third_Party/LoRaWAN/Mac/region/RegionIN865.c ****         case CHANNELS_MASK:
 512:../../../../../../Middlewares/Third_Party/LoRaWAN/Mac/region/RegionIN865.c ****         {
 513:../../../../../../Middlewares/Third_Party/LoRaWAN/Mac/region/RegionIN865.c ****             RegionCommonChanMaskCopy( NvmCtx.ChannelsMask, chanMaskSet->ChannelsMaskIn, 1 );
ARM GAS  C:\Users\EBANO_~1\AppData\Local\Temp\ccEfOEMG.s 			page 24


 514:../../../../../../Middlewares/Third_Party/LoRaWAN/Mac/region/RegionIN865.c ****             break;
 515:../../../../../../Middlewares/Third_Party/LoRaWAN/Mac/region/RegionIN865.c ****         }
 516:../../../../../../Middlewares/Third_Party/LoRaWAN/Mac/region/RegionIN865.c ****         case CHANNELS_DEFAULT_MASK:
 517:../../../../../../Middlewares/Third_Party/LoRaWAN/Mac/region/RegionIN865.c ****         {
 518:../../../../../../Middlewares/Third_Party/LoRaWAN/Mac/region/RegionIN865.c ****             RegionCommonChanMaskCopy( NvmCtx.ChannelsDefaultMask, chanMaskSet->ChannelsMaskIn, 1 );
 519:../../../../../../Middlewares/Third_Party/LoRaWAN/Mac/region/RegionIN865.c ****             break;
 520:../../../../../../Middlewares/Third_Party/LoRaWAN/Mac/region/RegionIN865.c ****         }
 521:../../../../../../Middlewares/Third_Party/LoRaWAN/Mac/region/RegionIN865.c ****         default:
 522:../../../../../../Middlewares/Third_Party/LoRaWAN/Mac/region/RegionIN865.c ****             return false;
 523:../../../../../../Middlewares/Third_Party/LoRaWAN/Mac/region/RegionIN865.c ****     }
 524:../../../../../../Middlewares/Third_Party/LoRaWAN/Mac/region/RegionIN865.c ****     return true;
 525:../../../../../../Middlewares/Third_Party/LoRaWAN/Mac/region/RegionIN865.c **** }
 526:../../../../../../Middlewares/Third_Party/LoRaWAN/Mac/region/RegionIN865.c **** 
 527:../../../../../../Middlewares/Third_Party/LoRaWAN/Mac/region/RegionIN865.c **** void RegionIN865ComputeRxWindowParameters( int8_t datarate, uint8_t minRxSymbols, uint32_t rxError,
 528:../../../../../../Middlewares/Third_Party/LoRaWAN/Mac/region/RegionIN865.c **** {
 529:../../../../../../Middlewares/Third_Party/LoRaWAN/Mac/region/RegionIN865.c ****     double tSymbol = 0.0;
 530:../../../../../../Middlewares/Third_Party/LoRaWAN/Mac/region/RegionIN865.c **** 
 531:../../../../../../Middlewares/Third_Party/LoRaWAN/Mac/region/RegionIN865.c ****     // Get the datarate, perform a boundary check
 532:../../../../../../Middlewares/Third_Party/LoRaWAN/Mac/region/RegionIN865.c ****     rxConfigParams->Datarate = MIN( datarate, IN865_RX_MAX_DATARATE );
 533:../../../../../../Middlewares/Third_Party/LoRaWAN/Mac/region/RegionIN865.c ****     rxConfigParams->Bandwidth = GetBandwidth( rxConfigParams->Datarate );
 534:../../../../../../Middlewares/Third_Party/LoRaWAN/Mac/region/RegionIN865.c **** 
 535:../../../../../../Middlewares/Third_Party/LoRaWAN/Mac/region/RegionIN865.c ****     if( rxConfigParams->Datarate == DR_7 )
 536:../../../../../../Middlewares/Third_Party/LoRaWAN/Mac/region/RegionIN865.c ****     { // FSK
 537:../../../../../../Middlewares/Third_Party/LoRaWAN/Mac/region/RegionIN865.c ****         tSymbol = RegionCommonComputeSymbolTimeFsk( DataratesIN865[rxConfigParams->Datarate] );
 538:../../../../../../Middlewares/Third_Party/LoRaWAN/Mac/region/RegionIN865.c ****     }
 539:../../../../../../Middlewares/Third_Party/LoRaWAN/Mac/region/RegionIN865.c ****     else
 540:../../../../../../Middlewares/Third_Party/LoRaWAN/Mac/region/RegionIN865.c ****     { // LoRa
 541:../../../../../../Middlewares/Third_Party/LoRaWAN/Mac/region/RegionIN865.c ****         tSymbol = RegionCommonComputeSymbolTimeLoRa( DataratesIN865[rxConfigParams->Datarate], Band
 542:../../../../../../Middlewares/Third_Party/LoRaWAN/Mac/region/RegionIN865.c ****     }
 543:../../../../../../Middlewares/Third_Party/LoRaWAN/Mac/region/RegionIN865.c **** 
 544:../../../../../../Middlewares/Third_Party/LoRaWAN/Mac/region/RegionIN865.c ****     RegionCommonComputeRxWindowParameters( tSymbol, minRxSymbols, rxError, Radio.GetWakeupTime( ), 
 545:../../../../../../Middlewares/Third_Party/LoRaWAN/Mac/region/RegionIN865.c **** }
 546:../../../../../../Middlewares/Third_Party/LoRaWAN/Mac/region/RegionIN865.c **** 
 547:../../../../../../Middlewares/Third_Party/LoRaWAN/Mac/region/RegionIN865.c **** bool RegionIN865RxConfig( RxConfigParams_t* rxConfig, int8_t* datarate )
 548:../../../../../../Middlewares/Third_Party/LoRaWAN/Mac/region/RegionIN865.c **** {
 549:../../../../../../Middlewares/Third_Party/LoRaWAN/Mac/region/RegionIN865.c ****     RadioModems_t modem;
 550:../../../../../../Middlewares/Third_Party/LoRaWAN/Mac/region/RegionIN865.c ****     int8_t dr = rxConfig->Datarate;
 551:../../../../../../Middlewares/Third_Party/LoRaWAN/Mac/region/RegionIN865.c ****     uint8_t maxPayload = 0;
 552:../../../../../../Middlewares/Third_Party/LoRaWAN/Mac/region/RegionIN865.c ****     int8_t phyDr = 0;
 553:../../../../../../Middlewares/Third_Party/LoRaWAN/Mac/region/RegionIN865.c ****     uint32_t frequency = rxConfig->Frequency;
 554:../../../../../../Middlewares/Third_Party/LoRaWAN/Mac/region/RegionIN865.c **** 
 555:../../../../../../Middlewares/Third_Party/LoRaWAN/Mac/region/RegionIN865.c ****     if( Radio.GetStatus( ) != RF_IDLE )
 556:../../../../../../Middlewares/Third_Party/LoRaWAN/Mac/region/RegionIN865.c ****     {
 557:../../../../../../Middlewares/Third_Party/LoRaWAN/Mac/region/RegionIN865.c ****         return false;
 558:../../../../../../Middlewares/Third_Party/LoRaWAN/Mac/region/RegionIN865.c ****     }
 559:../../../../../../Middlewares/Third_Party/LoRaWAN/Mac/region/RegionIN865.c **** 
 560:../../../../../../Middlewares/Third_Party/LoRaWAN/Mac/region/RegionIN865.c ****     if( rxConfig->RxSlot == RX_SLOT_WIN_1 )
 561:../../../../../../Middlewares/Third_Party/LoRaWAN/Mac/region/RegionIN865.c ****     {
 562:../../../../../../Middlewares/Third_Party/LoRaWAN/Mac/region/RegionIN865.c ****         // Apply window 1 frequency
 563:../../../../../../Middlewares/Third_Party/LoRaWAN/Mac/region/RegionIN865.c ****         frequency = NvmCtx.Channels[rxConfig->Channel].Frequency;
 564:../../../../../../Middlewares/Third_Party/LoRaWAN/Mac/region/RegionIN865.c ****         // Apply the alternative RX 1 window frequency, if it is available
 565:../../../../../../Middlewares/Third_Party/LoRaWAN/Mac/region/RegionIN865.c ****         if( NvmCtx.Channels[rxConfig->Channel].Rx1Frequency != 0 )
 566:../../../../../../Middlewares/Third_Party/LoRaWAN/Mac/region/RegionIN865.c ****         {
 567:../../../../../../Middlewares/Third_Party/LoRaWAN/Mac/region/RegionIN865.c ****             frequency = NvmCtx.Channels[rxConfig->Channel].Rx1Frequency;
 568:../../../../../../Middlewares/Third_Party/LoRaWAN/Mac/region/RegionIN865.c ****         }
 569:../../../../../../Middlewares/Third_Party/LoRaWAN/Mac/region/RegionIN865.c ****     }
 570:../../../../../../Middlewares/Third_Party/LoRaWAN/Mac/region/RegionIN865.c **** 
ARM GAS  C:\Users\EBANO_~1\AppData\Local\Temp\ccEfOEMG.s 			page 25


 571:../../../../../../Middlewares/Third_Party/LoRaWAN/Mac/region/RegionIN865.c ****     // Read the physical datarate from the datarates table
 572:../../../../../../Middlewares/Third_Party/LoRaWAN/Mac/region/RegionIN865.c ****     phyDr = DataratesIN865[dr];
 573:../../../../../../Middlewares/Third_Party/LoRaWAN/Mac/region/RegionIN865.c **** 
 574:../../../../../../Middlewares/Third_Party/LoRaWAN/Mac/region/RegionIN865.c ****     Radio.SetChannel( frequency );
 575:../../../../../../Middlewares/Third_Party/LoRaWAN/Mac/region/RegionIN865.c **** 
 576:../../../../../../Middlewares/Third_Party/LoRaWAN/Mac/region/RegionIN865.c ****     // Radio configuration
 577:../../../../../../Middlewares/Third_Party/LoRaWAN/Mac/region/RegionIN865.c ****     if( dr == DR_7 )
 578:../../../../../../Middlewares/Third_Party/LoRaWAN/Mac/region/RegionIN865.c ****     {
 579:../../../../../../Middlewares/Third_Party/LoRaWAN/Mac/region/RegionIN865.c ****         modem = MODEM_FSK;
 580:../../../../../../Middlewares/Third_Party/LoRaWAN/Mac/region/RegionIN865.c ****         Radio.SetRxConfig( modem, 50000, phyDr * 1000, 0, 83333, 5, rxConfig->WindowTimeout, false,
 581:../../../../../../Middlewares/Third_Party/LoRaWAN/Mac/region/RegionIN865.c ****     }
 582:../../../../../../Middlewares/Third_Party/LoRaWAN/Mac/region/RegionIN865.c ****     else
 583:../../../../../../Middlewares/Third_Party/LoRaWAN/Mac/region/RegionIN865.c ****     {
 584:../../../../../../Middlewares/Third_Party/LoRaWAN/Mac/region/RegionIN865.c ****         modem = MODEM_LORA;
 585:../../../../../../Middlewares/Third_Party/LoRaWAN/Mac/region/RegionIN865.c ****         Radio.SetRxConfig( modem, rxConfig->Bandwidth, phyDr, 1, 0, 8, rxConfig->WindowTimeout, fal
 586:../../../../../../Middlewares/Third_Party/LoRaWAN/Mac/region/RegionIN865.c ****     }
 587:../../../../../../Middlewares/Third_Party/LoRaWAN/Mac/region/RegionIN865.c **** 
 588:../../../../../../Middlewares/Third_Party/LoRaWAN/Mac/region/RegionIN865.c ****     if( rxConfig->RepeaterSupport == true )
 589:../../../../../../Middlewares/Third_Party/LoRaWAN/Mac/region/RegionIN865.c ****     {
 590:../../../../../../Middlewares/Third_Party/LoRaWAN/Mac/region/RegionIN865.c ****         maxPayload = MaxPayloadOfDatarateRepeaterIN865[dr];
 591:../../../../../../Middlewares/Third_Party/LoRaWAN/Mac/region/RegionIN865.c ****     }
 592:../../../../../../Middlewares/Third_Party/LoRaWAN/Mac/region/RegionIN865.c ****     else
 593:../../../../../../Middlewares/Third_Party/LoRaWAN/Mac/region/RegionIN865.c ****     {
 594:../../../../../../Middlewares/Third_Party/LoRaWAN/Mac/region/RegionIN865.c ****         maxPayload = MaxPayloadOfDatarateIN865[dr];
 595:../../../../../../Middlewares/Third_Party/LoRaWAN/Mac/region/RegionIN865.c ****     }
 596:../../../../../../Middlewares/Third_Party/LoRaWAN/Mac/region/RegionIN865.c ****     Radio.SetMaxPayloadLength( modem, maxPayload + LORA_MAC_FRMPAYLOAD_OVERHEAD );
 597:../../../../../../Middlewares/Third_Party/LoRaWAN/Mac/region/RegionIN865.c ****     TVL1( PRINTF( "RX on freq %d Hz at DR %d\n\r", frequency, dr );)
 598:../../../../../../Middlewares/Third_Party/LoRaWAN/Mac/region/RegionIN865.c **** 
 599:../../../../../../Middlewares/Third_Party/LoRaWAN/Mac/region/RegionIN865.c ****     *datarate = (uint8_t) dr;
 600:../../../../../../Middlewares/Third_Party/LoRaWAN/Mac/region/RegionIN865.c ****     return true;
 601:../../../../../../Middlewares/Third_Party/LoRaWAN/Mac/region/RegionIN865.c **** }
 602:../../../../../../Middlewares/Third_Party/LoRaWAN/Mac/region/RegionIN865.c **** 
 603:../../../../../../Middlewares/Third_Party/LoRaWAN/Mac/region/RegionIN865.c **** bool RegionIN865TxConfig( TxConfigParams_t* txConfig, int8_t* txPower, TimerTime_t* txTimeOnAir )
 604:../../../../../../Middlewares/Third_Party/LoRaWAN/Mac/region/RegionIN865.c **** {
 605:../../../../../../Middlewares/Third_Party/LoRaWAN/Mac/region/RegionIN865.c ****     RadioModems_t modem;
 606:../../../../../../Middlewares/Third_Party/LoRaWAN/Mac/region/RegionIN865.c ****     int8_t phyDr = DataratesIN865[txConfig->Datarate];
 607:../../../../../../Middlewares/Third_Party/LoRaWAN/Mac/region/RegionIN865.c ****     int8_t txPowerLimited = LimitTxPower( txConfig->TxPower, NvmCtx.Bands[NvmCtx.Channels[txConfig-
 608:../../../../../../Middlewares/Third_Party/LoRaWAN/Mac/region/RegionIN865.c ****     uint32_t bandwidth = GetBandwidth( txConfig->Datarate );
 609:../../../../../../Middlewares/Third_Party/LoRaWAN/Mac/region/RegionIN865.c ****     int8_t phyTxPower = 0;
 610:../../../../../../Middlewares/Third_Party/LoRaWAN/Mac/region/RegionIN865.c **** 
 611:../../../../../../Middlewares/Third_Party/LoRaWAN/Mac/region/RegionIN865.c ****     // Calculate physical TX power
 612:../../../../../../Middlewares/Third_Party/LoRaWAN/Mac/region/RegionIN865.c ****     phyTxPower = RegionCommonComputeTxPower( txPowerLimited, txConfig->MaxEirp, txConfig->AntennaGa
 613:../../../../../../Middlewares/Third_Party/LoRaWAN/Mac/region/RegionIN865.c **** 
 614:../../../../../../Middlewares/Third_Party/LoRaWAN/Mac/region/RegionIN865.c ****     // Setup the radio frequency
 615:../../../../../../Middlewares/Third_Party/LoRaWAN/Mac/region/RegionIN865.c ****     Radio.SetChannel( NvmCtx.Channels[txConfig->Channel].Frequency );
 616:../../../../../../Middlewares/Third_Party/LoRaWAN/Mac/region/RegionIN865.c **** 
 617:../../../../../../Middlewares/Third_Party/LoRaWAN/Mac/region/RegionIN865.c ****     if( txConfig->Datarate == DR_7 )
 618:../../../../../../Middlewares/Third_Party/LoRaWAN/Mac/region/RegionIN865.c ****     { // High Speed FSK channel
 619:../../../../../../Middlewares/Third_Party/LoRaWAN/Mac/region/RegionIN865.c ****         modem = MODEM_FSK;
 620:../../../../../../Middlewares/Third_Party/LoRaWAN/Mac/region/RegionIN865.c ****         Radio.SetTxConfig( modem, phyTxPower, 25000, bandwidth, phyDr * 1000, 0, 5, false, true, 0,
 621:../../../../../../Middlewares/Third_Party/LoRaWAN/Mac/region/RegionIN865.c ****     }
 622:../../../../../../Middlewares/Third_Party/LoRaWAN/Mac/region/RegionIN865.c ****     else
 623:../../../../../../Middlewares/Third_Party/LoRaWAN/Mac/region/RegionIN865.c ****     {
 624:../../../../../../Middlewares/Third_Party/LoRaWAN/Mac/region/RegionIN865.c ****         modem = MODEM_LORA;
 625:../../../../../../Middlewares/Third_Party/LoRaWAN/Mac/region/RegionIN865.c ****         Radio.SetTxConfig( modem, phyTxPower, 0, bandwidth, phyDr, 1, 8, false, true, 0, 0, false, 
 626:../../../../../../Middlewares/Third_Party/LoRaWAN/Mac/region/RegionIN865.c ****     }
 627:../../../../../../Middlewares/Third_Party/LoRaWAN/Mac/region/RegionIN865.c ****     TVL1( PRINTF( "TX on freq %d Hz at DR %d\n\r", NvmCtx.Channels[txConfig->Channel].Frequency, tx
ARM GAS  C:\Users\EBANO_~1\AppData\Local\Temp\ccEfOEMG.s 			page 26


 628:../../../../../../Middlewares/Third_Party/LoRaWAN/Mac/region/RegionIN865.c **** 
 629:../../../../../../Middlewares/Third_Party/LoRaWAN/Mac/region/RegionIN865.c ****     // Setup maximum payload lenght of the radio driver
 630:../../../../../../Middlewares/Third_Party/LoRaWAN/Mac/region/RegionIN865.c ****     Radio.SetMaxPayloadLength( modem, txConfig->PktLen );
 631:../../../../../../Middlewares/Third_Party/LoRaWAN/Mac/region/RegionIN865.c ****     // Get the time-on-air of the next tx frame
 632:../../../../../../Middlewares/Third_Party/LoRaWAN/Mac/region/RegionIN865.c ****     *txTimeOnAir = Radio.TimeOnAir( modem, txConfig->PktLen );
 633:../../../../../../Middlewares/Third_Party/LoRaWAN/Mac/region/RegionIN865.c **** 
 634:../../../../../../Middlewares/Third_Party/LoRaWAN/Mac/region/RegionIN865.c ****     *txPower = txPowerLimited;
 635:../../../../../../Middlewares/Third_Party/LoRaWAN/Mac/region/RegionIN865.c ****     return true;
 636:../../../../../../Middlewares/Third_Party/LoRaWAN/Mac/region/RegionIN865.c **** }
 637:../../../../../../Middlewares/Third_Party/LoRaWAN/Mac/region/RegionIN865.c **** 
 638:../../../../../../Middlewares/Third_Party/LoRaWAN/Mac/region/RegionIN865.c **** uint8_t RegionIN865LinkAdrReq( LinkAdrReqParams_t* linkAdrReq, int8_t* drOut, int8_t* txPowOut, uin
 639:../../../../../../Middlewares/Third_Party/LoRaWAN/Mac/region/RegionIN865.c **** {
 640:../../../../../../Middlewares/Third_Party/LoRaWAN/Mac/region/RegionIN865.c ****     uint8_t status = 0x07;
 641:../../../../../../Middlewares/Third_Party/LoRaWAN/Mac/region/RegionIN865.c ****     RegionCommonLinkAdrParams_t linkAdrParams;
 642:../../../../../../Middlewares/Third_Party/LoRaWAN/Mac/region/RegionIN865.c ****     uint8_t nextIndex = 0;
 643:../../../../../../Middlewares/Third_Party/LoRaWAN/Mac/region/RegionIN865.c ****     uint8_t bytesProcessed = 0;
 644:../../../../../../Middlewares/Third_Party/LoRaWAN/Mac/region/RegionIN865.c ****     uint16_t chMask = 0;
 645:../../../../../../Middlewares/Third_Party/LoRaWAN/Mac/region/RegionIN865.c ****     GetPhyParams_t getPhy;
 646:../../../../../../Middlewares/Third_Party/LoRaWAN/Mac/region/RegionIN865.c ****     PhyParam_t phyParam;
 647:../../../../../../Middlewares/Third_Party/LoRaWAN/Mac/region/RegionIN865.c ****     RegionCommonLinkAdrReqVerifyParams_t linkAdrVerifyParams;
 648:../../../../../../Middlewares/Third_Party/LoRaWAN/Mac/region/RegionIN865.c **** 
 649:../../../../../../Middlewares/Third_Party/LoRaWAN/Mac/region/RegionIN865.c ****     while( bytesProcessed < linkAdrReq->PayloadSize )
 650:../../../../../../Middlewares/Third_Party/LoRaWAN/Mac/region/RegionIN865.c ****     {
 651:../../../../../../Middlewares/Third_Party/LoRaWAN/Mac/region/RegionIN865.c ****         // Get ADR request parameters
 652:../../../../../../Middlewares/Third_Party/LoRaWAN/Mac/region/RegionIN865.c ****         nextIndex = RegionCommonParseLinkAdrReq( &( linkAdrReq->Payload[bytesProcessed] ), &linkAdr
 653:../../../../../../Middlewares/Third_Party/LoRaWAN/Mac/region/RegionIN865.c **** 
 654:../../../../../../Middlewares/Third_Party/LoRaWAN/Mac/region/RegionIN865.c ****         if( nextIndex == 0 )
 655:../../../../../../Middlewares/Third_Party/LoRaWAN/Mac/region/RegionIN865.c ****             break; // break loop, since no more request has been found
 656:../../../../../../Middlewares/Third_Party/LoRaWAN/Mac/region/RegionIN865.c **** 
 657:../../../../../../Middlewares/Third_Party/LoRaWAN/Mac/region/RegionIN865.c ****         // Update bytes processed
 658:../../../../../../Middlewares/Third_Party/LoRaWAN/Mac/region/RegionIN865.c ****         bytesProcessed += nextIndex;
 659:../../../../../../Middlewares/Third_Party/LoRaWAN/Mac/region/RegionIN865.c **** 
 660:../../../../../../Middlewares/Third_Party/LoRaWAN/Mac/region/RegionIN865.c ****         // Revert status, as we only check the last ADR request for the channel mask KO
 661:../../../../../../Middlewares/Third_Party/LoRaWAN/Mac/region/RegionIN865.c ****         status = 0x07;
 662:../../../../../../Middlewares/Third_Party/LoRaWAN/Mac/region/RegionIN865.c **** 
 663:../../../../../../Middlewares/Third_Party/LoRaWAN/Mac/region/RegionIN865.c ****         // Setup temporary channels mask
 664:../../../../../../Middlewares/Third_Party/LoRaWAN/Mac/region/RegionIN865.c ****         chMask = linkAdrParams.ChMask;
 665:../../../../../../Middlewares/Third_Party/LoRaWAN/Mac/region/RegionIN865.c **** 
 666:../../../../../../Middlewares/Third_Party/LoRaWAN/Mac/region/RegionIN865.c ****         // Verify channels mask
 667:../../../../../../Middlewares/Third_Party/LoRaWAN/Mac/region/RegionIN865.c ****         if( ( linkAdrParams.ChMaskCtrl == 0 ) && ( chMask == 0 ) )
 668:../../../../../../Middlewares/Third_Party/LoRaWAN/Mac/region/RegionIN865.c ****         {
 669:../../../../../../Middlewares/Third_Party/LoRaWAN/Mac/region/RegionIN865.c ****             status &= 0xFE; // Channel mask KO
 670:../../../../../../Middlewares/Third_Party/LoRaWAN/Mac/region/RegionIN865.c ****         }
 671:../../../../../../Middlewares/Third_Party/LoRaWAN/Mac/region/RegionIN865.c ****         else if( ( ( linkAdrParams.ChMaskCtrl >= 1 ) && ( linkAdrParams.ChMaskCtrl <= 5 )) ||
 672:../../../../../../Middlewares/Third_Party/LoRaWAN/Mac/region/RegionIN865.c ****                 ( linkAdrParams.ChMaskCtrl >= 7 ) )
 673:../../../../../../Middlewares/Third_Party/LoRaWAN/Mac/region/RegionIN865.c ****         {
 674:../../../../../../Middlewares/Third_Party/LoRaWAN/Mac/region/RegionIN865.c ****             // RFU
 675:../../../../../../Middlewares/Third_Party/LoRaWAN/Mac/region/RegionIN865.c ****             status &= 0xFE; // Channel mask KO
 676:../../../../../../Middlewares/Third_Party/LoRaWAN/Mac/region/RegionIN865.c ****         }
 677:../../../../../../Middlewares/Third_Party/LoRaWAN/Mac/region/RegionIN865.c ****         else
 678:../../../../../../Middlewares/Third_Party/LoRaWAN/Mac/region/RegionIN865.c ****         {
 679:../../../../../../Middlewares/Third_Party/LoRaWAN/Mac/region/RegionIN865.c ****             for( uint8_t i = 0; i < IN865_MAX_NB_CHANNELS; i++ )
 680:../../../../../../Middlewares/Third_Party/LoRaWAN/Mac/region/RegionIN865.c ****             {
 681:../../../../../../Middlewares/Third_Party/LoRaWAN/Mac/region/RegionIN865.c ****                 if( linkAdrParams.ChMaskCtrl == 6 )
 682:../../../../../../Middlewares/Third_Party/LoRaWAN/Mac/region/RegionIN865.c ****                 {
 683:../../../../../../Middlewares/Third_Party/LoRaWAN/Mac/region/RegionIN865.c ****                     if( NvmCtx.Channels[i].Frequency != 0 )
 684:../../../../../../Middlewares/Third_Party/LoRaWAN/Mac/region/RegionIN865.c ****                     {
ARM GAS  C:\Users\EBANO_~1\AppData\Local\Temp\ccEfOEMG.s 			page 27


 685:../../../../../../Middlewares/Third_Party/LoRaWAN/Mac/region/RegionIN865.c ****                         chMask |= 1 << i;
 686:../../../../../../Middlewares/Third_Party/LoRaWAN/Mac/region/RegionIN865.c ****                     }
 687:../../../../../../Middlewares/Third_Party/LoRaWAN/Mac/region/RegionIN865.c ****                 }
 688:../../../../../../Middlewares/Third_Party/LoRaWAN/Mac/region/RegionIN865.c ****                 else
 689:../../../../../../Middlewares/Third_Party/LoRaWAN/Mac/region/RegionIN865.c ****                 {
 690:../../../../../../Middlewares/Third_Party/LoRaWAN/Mac/region/RegionIN865.c ****                     if( ( ( chMask & ( 1 << i ) ) != 0 ) &&
 691:../../../../../../Middlewares/Third_Party/LoRaWAN/Mac/region/RegionIN865.c ****                         ( NvmCtx.Channels[i].Frequency == 0 ) )
 692:../../../../../../Middlewares/Third_Party/LoRaWAN/Mac/region/RegionIN865.c ****                     {// Trying to enable an undefined channel
 693:../../../../../../Middlewares/Third_Party/LoRaWAN/Mac/region/RegionIN865.c ****                         status &= 0xFE; // Channel mask KO
 694:../../../../../../Middlewares/Third_Party/LoRaWAN/Mac/region/RegionIN865.c ****                     }
 695:../../../../../../Middlewares/Third_Party/LoRaWAN/Mac/region/RegionIN865.c ****                 }
 696:../../../../../../Middlewares/Third_Party/LoRaWAN/Mac/region/RegionIN865.c ****             }
 697:../../../../../../Middlewares/Third_Party/LoRaWAN/Mac/region/RegionIN865.c ****         }
 698:../../../../../../Middlewares/Third_Party/LoRaWAN/Mac/region/RegionIN865.c ****     }
 699:../../../../../../Middlewares/Third_Party/LoRaWAN/Mac/region/RegionIN865.c **** 
 700:../../../../../../Middlewares/Third_Party/LoRaWAN/Mac/region/RegionIN865.c ****     if( linkAdrParams.Datarate != DR_6 )
 701:../../../../../../Middlewares/Third_Party/LoRaWAN/Mac/region/RegionIN865.c ****     {
 702:../../../../../../Middlewares/Third_Party/LoRaWAN/Mac/region/RegionIN865.c ****         // Get the minimum possible datarate
 703:../../../../../../Middlewares/Third_Party/LoRaWAN/Mac/region/RegionIN865.c ****         getPhy.Attribute = PHY_MIN_TX_DR;
 704:../../../../../../Middlewares/Third_Party/LoRaWAN/Mac/region/RegionIN865.c ****         getPhy.UplinkDwellTime = linkAdrReq->UplinkDwellTime;
 705:../../../../../../Middlewares/Third_Party/LoRaWAN/Mac/region/RegionIN865.c ****         phyParam = RegionIN865GetPhyParam( &getPhy );
 706:../../../../../../Middlewares/Third_Party/LoRaWAN/Mac/region/RegionIN865.c **** 
 707:../../../../../../Middlewares/Third_Party/LoRaWAN/Mac/region/RegionIN865.c ****         linkAdrVerifyParams.Status = status;
 708:../../../../../../Middlewares/Third_Party/LoRaWAN/Mac/region/RegionIN865.c ****         linkAdrVerifyParams.AdrEnabled = linkAdrReq->AdrEnabled;
 709:../../../../../../Middlewares/Third_Party/LoRaWAN/Mac/region/RegionIN865.c ****         linkAdrVerifyParams.Datarate = linkAdrParams.Datarate;
 710:../../../../../../Middlewares/Third_Party/LoRaWAN/Mac/region/RegionIN865.c ****         linkAdrVerifyParams.TxPower = linkAdrParams.TxPower;
 711:../../../../../../Middlewares/Third_Party/LoRaWAN/Mac/region/RegionIN865.c ****         linkAdrVerifyParams.NbRep = linkAdrParams.NbRep;
 712:../../../../../../Middlewares/Third_Party/LoRaWAN/Mac/region/RegionIN865.c ****         linkAdrVerifyParams.CurrentDatarate = linkAdrReq->CurrentDatarate;
 713:../../../../../../Middlewares/Third_Party/LoRaWAN/Mac/region/RegionIN865.c ****         linkAdrVerifyParams.CurrentTxPower = linkAdrReq->CurrentTxPower;
 714:../../../../../../Middlewares/Third_Party/LoRaWAN/Mac/region/RegionIN865.c ****         linkAdrVerifyParams.CurrentNbRep = linkAdrReq->CurrentNbRep;
 715:../../../../../../Middlewares/Third_Party/LoRaWAN/Mac/region/RegionIN865.c ****         linkAdrVerifyParams.NbChannels = IN865_MAX_NB_CHANNELS;
 716:../../../../../../Middlewares/Third_Party/LoRaWAN/Mac/region/RegionIN865.c ****         linkAdrVerifyParams.ChannelsMask = &chMask;
 717:../../../../../../Middlewares/Third_Party/LoRaWAN/Mac/region/RegionIN865.c ****         linkAdrVerifyParams.MinDatarate = ( int8_t )phyParam.Value;
 718:../../../../../../Middlewares/Third_Party/LoRaWAN/Mac/region/RegionIN865.c ****         linkAdrVerifyParams.MaxDatarate = IN865_TX_MAX_DATARATE;
 719:../../../../../../Middlewares/Third_Party/LoRaWAN/Mac/region/RegionIN865.c ****         linkAdrVerifyParams.Channels = NvmCtx.Channels;
 720:../../../../../../Middlewares/Third_Party/LoRaWAN/Mac/region/RegionIN865.c ****         linkAdrVerifyParams.MinTxPower = IN865_MIN_TX_POWER;
 721:../../../../../../Middlewares/Third_Party/LoRaWAN/Mac/region/RegionIN865.c ****         linkAdrVerifyParams.MaxTxPower = IN865_MAX_TX_POWER;
 722:../../../../../../Middlewares/Third_Party/LoRaWAN/Mac/region/RegionIN865.c ****         linkAdrVerifyParams.Version = linkAdrReq->Version;
 723:../../../../../../Middlewares/Third_Party/LoRaWAN/Mac/region/RegionIN865.c **** 
 724:../../../../../../Middlewares/Third_Party/LoRaWAN/Mac/region/RegionIN865.c ****         // Verify the parameters and update, if necessary
 725:../../../../../../Middlewares/Third_Party/LoRaWAN/Mac/region/RegionIN865.c ****         status = RegionCommonLinkAdrReqVerifyParams( &linkAdrVerifyParams, &linkAdrParams.Datarate,
 726:../../../../../../Middlewares/Third_Party/LoRaWAN/Mac/region/RegionIN865.c ****     }
 727:../../../../../../Middlewares/Third_Party/LoRaWAN/Mac/region/RegionIN865.c ****     else
 728:../../../../../../Middlewares/Third_Party/LoRaWAN/Mac/region/RegionIN865.c ****     {// DR_6 is not supported by this region
 729:../../../../../../Middlewares/Third_Party/LoRaWAN/Mac/region/RegionIN865.c ****         status &= 0xFD; // Datarate KO
 730:../../../../../../Middlewares/Third_Party/LoRaWAN/Mac/region/RegionIN865.c ****     }
 731:../../../../../../Middlewares/Third_Party/LoRaWAN/Mac/region/RegionIN865.c **** 
 732:../../../../../../Middlewares/Third_Party/LoRaWAN/Mac/region/RegionIN865.c ****     // Update channelsMask if everything is correct
 733:../../../../../../Middlewares/Third_Party/LoRaWAN/Mac/region/RegionIN865.c ****     if( status == 0x07 )
 734:../../../../../../Middlewares/Third_Party/LoRaWAN/Mac/region/RegionIN865.c ****     {
 735:../../../../../../Middlewares/Third_Party/LoRaWAN/Mac/region/RegionIN865.c ****         // Set the channels mask to a default value
 736:../../../../../../Middlewares/Third_Party/LoRaWAN/Mac/region/RegionIN865.c ****         memset1( ( uint8_t* ) NvmCtx.ChannelsMask, 0, sizeof( NvmCtx.ChannelsMask ) );
 737:../../../../../../Middlewares/Third_Party/LoRaWAN/Mac/region/RegionIN865.c ****         // Update the channels mask
 738:../../../../../../Middlewares/Third_Party/LoRaWAN/Mac/region/RegionIN865.c ****         NvmCtx.ChannelsMask[0] = chMask;
 739:../../../../../../Middlewares/Third_Party/LoRaWAN/Mac/region/RegionIN865.c ****     }
 740:../../../../../../Middlewares/Third_Party/LoRaWAN/Mac/region/RegionIN865.c **** 
 741:../../../../../../Middlewares/Third_Party/LoRaWAN/Mac/region/RegionIN865.c ****     // Update status variables
ARM GAS  C:\Users\EBANO_~1\AppData\Local\Temp\ccEfOEMG.s 			page 28


 742:../../../../../../Middlewares/Third_Party/LoRaWAN/Mac/region/RegionIN865.c ****     *drOut = linkAdrParams.Datarate;
 743:../../../../../../Middlewares/Third_Party/LoRaWAN/Mac/region/RegionIN865.c ****     *txPowOut = linkAdrParams.TxPower;
 744:../../../../../../Middlewares/Third_Party/LoRaWAN/Mac/region/RegionIN865.c ****     *nbRepOut = linkAdrParams.NbRep;
 745:../../../../../../Middlewares/Third_Party/LoRaWAN/Mac/region/RegionIN865.c ****     *nbBytesParsed = bytesProcessed;
 746:../../../../../../Middlewares/Third_Party/LoRaWAN/Mac/region/RegionIN865.c **** 
 747:../../../../../../Middlewares/Third_Party/LoRaWAN/Mac/region/RegionIN865.c ****     return status;
 748:../../../../../../Middlewares/Third_Party/LoRaWAN/Mac/region/RegionIN865.c **** }
 749:../../../../../../Middlewares/Third_Party/LoRaWAN/Mac/region/RegionIN865.c **** 
 750:../../../../../../Middlewares/Third_Party/LoRaWAN/Mac/region/RegionIN865.c **** uint8_t RegionIN865RxParamSetupReq( RxParamSetupReqParams_t* rxParamSetupReq )
 751:../../../../../../Middlewares/Third_Party/LoRaWAN/Mac/region/RegionIN865.c **** {
 752:../../../../../../Middlewares/Third_Party/LoRaWAN/Mac/region/RegionIN865.c ****     uint8_t status = 0x07;
 753:../../../../../../Middlewares/Third_Party/LoRaWAN/Mac/region/RegionIN865.c **** 
 754:../../../../../../Middlewares/Third_Party/LoRaWAN/Mac/region/RegionIN865.c ****     // Verify radio frequency
 755:../../../../../../Middlewares/Third_Party/LoRaWAN/Mac/region/RegionIN865.c ****     if( VerifyRfFreq( rxParamSetupReq->Frequency ) == false )
 756:../../../../../../Middlewares/Third_Party/LoRaWAN/Mac/region/RegionIN865.c ****     {
 757:../../../../../../Middlewares/Third_Party/LoRaWAN/Mac/region/RegionIN865.c ****         status &= 0xFE; // Channel frequency KO
 758:../../../../../../Middlewares/Third_Party/LoRaWAN/Mac/region/RegionIN865.c ****     }
 759:../../../../../../Middlewares/Third_Party/LoRaWAN/Mac/region/RegionIN865.c **** 
 760:../../../../../../Middlewares/Third_Party/LoRaWAN/Mac/region/RegionIN865.c ****     // Verify datarate
 761:../../../../../../Middlewares/Third_Party/LoRaWAN/Mac/region/RegionIN865.c ****     if( RegionCommonValueInRange( rxParamSetupReq->Datarate, IN865_RX_MIN_DATARATE, IN865_RX_MAX_DA
 762:../../../../../../Middlewares/Third_Party/LoRaWAN/Mac/region/RegionIN865.c ****     {
 763:../../../../../../Middlewares/Third_Party/LoRaWAN/Mac/region/RegionIN865.c ****         status &= 0xFD; // Datarate KO
 764:../../../../../../Middlewares/Third_Party/LoRaWAN/Mac/region/RegionIN865.c ****     }
 765:../../../../../../Middlewares/Third_Party/LoRaWAN/Mac/region/RegionIN865.c **** 
 766:../../../../../../Middlewares/Third_Party/LoRaWAN/Mac/region/RegionIN865.c ****     // Verify datarate offset
 767:../../../../../../Middlewares/Third_Party/LoRaWAN/Mac/region/RegionIN865.c ****     if( RegionCommonValueInRange( rxParamSetupReq->DrOffset, IN865_MIN_RX1_DR_OFFSET, IN865_MAX_RX1
 768:../../../../../../Middlewares/Third_Party/LoRaWAN/Mac/region/RegionIN865.c ****     {
 769:../../../../../../Middlewares/Third_Party/LoRaWAN/Mac/region/RegionIN865.c ****         status &= 0xFB; // Rx1DrOffset range KO
 770:../../../../../../Middlewares/Third_Party/LoRaWAN/Mac/region/RegionIN865.c ****     }
 771:../../../../../../Middlewares/Third_Party/LoRaWAN/Mac/region/RegionIN865.c **** 
 772:../../../../../../Middlewares/Third_Party/LoRaWAN/Mac/region/RegionIN865.c ****     return status;
 773:../../../../../../Middlewares/Third_Party/LoRaWAN/Mac/region/RegionIN865.c **** }
 774:../../../../../../Middlewares/Third_Party/LoRaWAN/Mac/region/RegionIN865.c **** 
 775:../../../../../../Middlewares/Third_Party/LoRaWAN/Mac/region/RegionIN865.c **** uint8_t RegionIN865NewChannelReq( NewChannelReqParams_t* newChannelReq )
 776:../../../../../../Middlewares/Third_Party/LoRaWAN/Mac/region/RegionIN865.c **** {
 777:../../../../../../Middlewares/Third_Party/LoRaWAN/Mac/region/RegionIN865.c ****     uint8_t status = 0x03;
 778:../../../../../../Middlewares/Third_Party/LoRaWAN/Mac/region/RegionIN865.c ****     ChannelAddParams_t channelAdd;
 779:../../../../../../Middlewares/Third_Party/LoRaWAN/Mac/region/RegionIN865.c ****     ChannelRemoveParams_t channelRemove;
 780:../../../../../../Middlewares/Third_Party/LoRaWAN/Mac/region/RegionIN865.c **** 
 781:../../../../../../Middlewares/Third_Party/LoRaWAN/Mac/region/RegionIN865.c ****     if( newChannelReq->NewChannel->Frequency == 0 )
 782:../../../../../../Middlewares/Third_Party/LoRaWAN/Mac/region/RegionIN865.c ****     {
 783:../../../../../../Middlewares/Third_Party/LoRaWAN/Mac/region/RegionIN865.c ****         channelRemove.ChannelId = newChannelReq->ChannelId;
 784:../../../../../../Middlewares/Third_Party/LoRaWAN/Mac/region/RegionIN865.c **** 
 785:../../../../../../Middlewares/Third_Party/LoRaWAN/Mac/region/RegionIN865.c ****         // Remove
 786:../../../../../../Middlewares/Third_Party/LoRaWAN/Mac/region/RegionIN865.c ****         if( RegionIN865ChannelsRemove( &channelRemove ) == false )
 787:../../../../../../Middlewares/Third_Party/LoRaWAN/Mac/region/RegionIN865.c ****         {
 788:../../../../../../Middlewares/Third_Party/LoRaWAN/Mac/region/RegionIN865.c ****             status &= 0xFC;
 789:../../../../../../Middlewares/Third_Party/LoRaWAN/Mac/region/RegionIN865.c ****         }
 790:../../../../../../Middlewares/Third_Party/LoRaWAN/Mac/region/RegionIN865.c ****     }
 791:../../../../../../Middlewares/Third_Party/LoRaWAN/Mac/region/RegionIN865.c ****     else
 792:../../../../../../Middlewares/Third_Party/LoRaWAN/Mac/region/RegionIN865.c ****     {
 793:../../../../../../Middlewares/Third_Party/LoRaWAN/Mac/region/RegionIN865.c ****         channelAdd.NewChannel = newChannelReq->NewChannel;
 794:../../../../../../Middlewares/Third_Party/LoRaWAN/Mac/region/RegionIN865.c ****         channelAdd.ChannelId = newChannelReq->ChannelId;
 795:../../../../../../Middlewares/Third_Party/LoRaWAN/Mac/region/RegionIN865.c **** 
 796:../../../../../../Middlewares/Third_Party/LoRaWAN/Mac/region/RegionIN865.c ****         switch( RegionIN865ChannelAdd( &channelAdd ) )
 797:../../../../../../Middlewares/Third_Party/LoRaWAN/Mac/region/RegionIN865.c ****         {
 798:../../../../../../Middlewares/Third_Party/LoRaWAN/Mac/region/RegionIN865.c ****             case LORAMAC_STATUS_OK:
ARM GAS  C:\Users\EBANO_~1\AppData\Local\Temp\ccEfOEMG.s 			page 29


 799:../../../../../../Middlewares/Third_Party/LoRaWAN/Mac/region/RegionIN865.c ****             {
 800:../../../../../../Middlewares/Third_Party/LoRaWAN/Mac/region/RegionIN865.c ****                 break;
 801:../../../../../../Middlewares/Third_Party/LoRaWAN/Mac/region/RegionIN865.c ****             }
 802:../../../../../../Middlewares/Third_Party/LoRaWAN/Mac/region/RegionIN865.c ****             case LORAMAC_STATUS_FREQUENCY_INVALID:
 803:../../../../../../Middlewares/Third_Party/LoRaWAN/Mac/region/RegionIN865.c ****             {
 804:../../../../../../Middlewares/Third_Party/LoRaWAN/Mac/region/RegionIN865.c ****                 status &= 0xFE;
 805:../../../../../../Middlewares/Third_Party/LoRaWAN/Mac/region/RegionIN865.c ****                 break;
 806:../../../../../../Middlewares/Third_Party/LoRaWAN/Mac/region/RegionIN865.c ****             }
 807:../../../../../../Middlewares/Third_Party/LoRaWAN/Mac/region/RegionIN865.c ****             case LORAMAC_STATUS_DATARATE_INVALID:
 808:../../../../../../Middlewares/Third_Party/LoRaWAN/Mac/region/RegionIN865.c ****             {
 809:../../../../../../Middlewares/Third_Party/LoRaWAN/Mac/region/RegionIN865.c ****                 status &= 0xFD;
 810:../../../../../../Middlewares/Third_Party/LoRaWAN/Mac/region/RegionIN865.c ****                 break;
 811:../../../../../../Middlewares/Third_Party/LoRaWAN/Mac/region/RegionIN865.c ****             }
 812:../../../../../../Middlewares/Third_Party/LoRaWAN/Mac/region/RegionIN865.c ****             case LORAMAC_STATUS_FREQ_AND_DR_INVALID:
 813:../../../../../../Middlewares/Third_Party/LoRaWAN/Mac/region/RegionIN865.c ****             {
 814:../../../../../../Middlewares/Third_Party/LoRaWAN/Mac/region/RegionIN865.c ****                 status &= 0xFC;
 815:../../../../../../Middlewares/Third_Party/LoRaWAN/Mac/region/RegionIN865.c ****                 break;
 816:../../../../../../Middlewares/Third_Party/LoRaWAN/Mac/region/RegionIN865.c ****             }
 817:../../../../../../Middlewares/Third_Party/LoRaWAN/Mac/region/RegionIN865.c ****             default:
 818:../../../../../../Middlewares/Third_Party/LoRaWAN/Mac/region/RegionIN865.c ****             {
 819:../../../../../../Middlewares/Third_Party/LoRaWAN/Mac/region/RegionIN865.c ****                 status &= 0xFC;
 820:../../../../../../Middlewares/Third_Party/LoRaWAN/Mac/region/RegionIN865.c ****                 break;
 821:../../../../../../Middlewares/Third_Party/LoRaWAN/Mac/region/RegionIN865.c ****             }
 822:../../../../../../Middlewares/Third_Party/LoRaWAN/Mac/region/RegionIN865.c ****         }
 823:../../../../../../Middlewares/Third_Party/LoRaWAN/Mac/region/RegionIN865.c ****     }
 824:../../../../../../Middlewares/Third_Party/LoRaWAN/Mac/region/RegionIN865.c **** 
 825:../../../../../../Middlewares/Third_Party/LoRaWAN/Mac/region/RegionIN865.c ****     return status;
 826:../../../../../../Middlewares/Third_Party/LoRaWAN/Mac/region/RegionIN865.c **** }
 827:../../../../../../Middlewares/Third_Party/LoRaWAN/Mac/region/RegionIN865.c **** 
 828:../../../../../../Middlewares/Third_Party/LoRaWAN/Mac/region/RegionIN865.c **** int8_t RegionIN865TxParamSetupReq( TxParamSetupReqParams_t* txParamSetupReq )
 829:../../../../../../Middlewares/Third_Party/LoRaWAN/Mac/region/RegionIN865.c **** {
 830:../../../../../../Middlewares/Third_Party/LoRaWAN/Mac/region/RegionIN865.c ****     return -1;
 831:../../../../../../Middlewares/Third_Party/LoRaWAN/Mac/region/RegionIN865.c **** }
 832:../../../../../../Middlewares/Third_Party/LoRaWAN/Mac/region/RegionIN865.c **** 
 833:../../../../../../Middlewares/Third_Party/LoRaWAN/Mac/region/RegionIN865.c **** uint8_t RegionIN865DlChannelReq( DlChannelReqParams_t* dlChannelReq )
 834:../../../../../../Middlewares/Third_Party/LoRaWAN/Mac/region/RegionIN865.c **** {
 835:../../../../../../Middlewares/Third_Party/LoRaWAN/Mac/region/RegionIN865.c ****     uint8_t status = 0x03;
 836:../../../../../../Middlewares/Third_Party/LoRaWAN/Mac/region/RegionIN865.c **** 
 837:../../../../../../Middlewares/Third_Party/LoRaWAN/Mac/region/RegionIN865.c ****     // Verify if the frequency is supported
 838:../../../../../../Middlewares/Third_Party/LoRaWAN/Mac/region/RegionIN865.c ****     if( VerifyRfFreq( dlChannelReq->Rx1Frequency ) == false )
 839:../../../../../../Middlewares/Third_Party/LoRaWAN/Mac/region/RegionIN865.c ****     {
 840:../../../../../../Middlewares/Third_Party/LoRaWAN/Mac/region/RegionIN865.c ****         status &= 0xFE;
 841:../../../../../../Middlewares/Third_Party/LoRaWAN/Mac/region/RegionIN865.c ****     }
 842:../../../../../../Middlewares/Third_Party/LoRaWAN/Mac/region/RegionIN865.c **** 
 843:../../../../../../Middlewares/Third_Party/LoRaWAN/Mac/region/RegionIN865.c ****     // Verify if an uplink frequency exists
 844:../../../../../../Middlewares/Third_Party/LoRaWAN/Mac/region/RegionIN865.c ****     if( NvmCtx.Channels[dlChannelReq->ChannelId].Frequency == 0 )
 845:../../../../../../Middlewares/Third_Party/LoRaWAN/Mac/region/RegionIN865.c ****     {
 846:../../../../../../Middlewares/Third_Party/LoRaWAN/Mac/region/RegionIN865.c ****         status &= 0xFD;
 847:../../../../../../Middlewares/Third_Party/LoRaWAN/Mac/region/RegionIN865.c ****     }
 848:../../../../../../Middlewares/Third_Party/LoRaWAN/Mac/region/RegionIN865.c **** 
 849:../../../../../../Middlewares/Third_Party/LoRaWAN/Mac/region/RegionIN865.c ****     // Apply Rx1 frequency, if the status is OK
 850:../../../../../../Middlewares/Third_Party/LoRaWAN/Mac/region/RegionIN865.c ****     if( status == 0x03 )
 851:../../../../../../Middlewares/Third_Party/LoRaWAN/Mac/region/RegionIN865.c ****     {
 852:../../../../../../Middlewares/Third_Party/LoRaWAN/Mac/region/RegionIN865.c ****         NvmCtx.Channels[dlChannelReq->ChannelId].Rx1Frequency = dlChannelReq->Rx1Frequency;
 853:../../../../../../Middlewares/Third_Party/LoRaWAN/Mac/region/RegionIN865.c ****     }
 854:../../../../../../Middlewares/Third_Party/LoRaWAN/Mac/region/RegionIN865.c **** 
 855:../../../../../../Middlewares/Third_Party/LoRaWAN/Mac/region/RegionIN865.c ****     return status;
ARM GAS  C:\Users\EBANO_~1\AppData\Local\Temp\ccEfOEMG.s 			page 30


 856:../../../../../../Middlewares/Third_Party/LoRaWAN/Mac/region/RegionIN865.c **** }
 857:../../../../../../Middlewares/Third_Party/LoRaWAN/Mac/region/RegionIN865.c **** 
 858:../../../../../../Middlewares/Third_Party/LoRaWAN/Mac/region/RegionIN865.c **** int8_t RegionIN865AlternateDr( int8_t currentDr, AlternateDrType_t type )
 859:../../../../../../Middlewares/Third_Party/LoRaWAN/Mac/region/RegionIN865.c **** {
 860:../../../../../../Middlewares/Third_Party/LoRaWAN/Mac/region/RegionIN865.c ****     return currentDr;
 861:../../../../../../Middlewares/Third_Party/LoRaWAN/Mac/region/RegionIN865.c **** }
 862:../../../../../../Middlewares/Third_Party/LoRaWAN/Mac/region/RegionIN865.c **** 
 863:../../../../../../Middlewares/Third_Party/LoRaWAN/Mac/region/RegionIN865.c **** void RegionIN865CalcBackOff( CalcBackOffParams_t* calcBackOff )
 864:../../../../../../Middlewares/Third_Party/LoRaWAN/Mac/region/RegionIN865.c **** {
 865:../../../../../../Middlewares/Third_Party/LoRaWAN/Mac/region/RegionIN865.c ****     RegionCommonCalcBackOffParams_t calcBackOffParams;
 866:../../../../../../Middlewares/Third_Party/LoRaWAN/Mac/region/RegionIN865.c **** 
 867:../../../../../../Middlewares/Third_Party/LoRaWAN/Mac/region/RegionIN865.c ****     calcBackOffParams.Channels = NvmCtx.Channels;
 868:../../../../../../Middlewares/Third_Party/LoRaWAN/Mac/region/RegionIN865.c ****     calcBackOffParams.Bands = NvmCtx.Bands;
 869:../../../../../../Middlewares/Third_Party/LoRaWAN/Mac/region/RegionIN865.c ****     calcBackOffParams.LastTxIsJoinRequest = calcBackOff->LastTxIsJoinRequest;
 870:../../../../../../Middlewares/Third_Party/LoRaWAN/Mac/region/RegionIN865.c ****     calcBackOffParams.Joined = calcBackOff->Joined;
 871:../../../../../../Middlewares/Third_Party/LoRaWAN/Mac/region/RegionIN865.c ****     calcBackOffParams.DutyCycleEnabled = calcBackOff->DutyCycleEnabled;
 872:../../../../../../Middlewares/Third_Party/LoRaWAN/Mac/region/RegionIN865.c ****     calcBackOffParams.Channel = calcBackOff->Channel;
 873:../../../../../../Middlewares/Third_Party/LoRaWAN/Mac/region/RegionIN865.c ****     calcBackOffParams.ElapsedTime = calcBackOff->ElapsedTime;
 874:../../../../../../Middlewares/Third_Party/LoRaWAN/Mac/region/RegionIN865.c ****     calcBackOffParams.TxTimeOnAir = calcBackOff->TxTimeOnAir;
 875:../../../../../../Middlewares/Third_Party/LoRaWAN/Mac/region/RegionIN865.c **** 
 876:../../../../../../Middlewares/Third_Party/LoRaWAN/Mac/region/RegionIN865.c ****     RegionCommonCalcBackOff( &calcBackOffParams );
 877:../../../../../../Middlewares/Third_Party/LoRaWAN/Mac/region/RegionIN865.c **** }
 878:../../../../../../Middlewares/Third_Party/LoRaWAN/Mac/region/RegionIN865.c **** 
 879:../../../../../../Middlewares/Third_Party/LoRaWAN/Mac/region/RegionIN865.c **** LoRaMacStatus_t RegionIN865NextChannel( NextChanParams_t* nextChanParams, uint8_t* channel, TimerTi
 880:../../../../../../Middlewares/Third_Party/LoRaWAN/Mac/region/RegionIN865.c **** {
 881:../../../../../../Middlewares/Third_Party/LoRaWAN/Mac/region/RegionIN865.c ****     uint8_t nbEnabledChannels = 0;
 882:../../../../../../Middlewares/Third_Party/LoRaWAN/Mac/region/RegionIN865.c ****     uint8_t delayTx = 0;
 883:../../../../../../Middlewares/Third_Party/LoRaWAN/Mac/region/RegionIN865.c ****     uint8_t enabledChannels[IN865_MAX_NB_CHANNELS] = { 0 };
 884:../../../../../../Middlewares/Third_Party/LoRaWAN/Mac/region/RegionIN865.c ****     TimerTime_t nextTxDelay = 0;
 885:../../../../../../Middlewares/Third_Party/LoRaWAN/Mac/region/RegionIN865.c **** 
 886:../../../../../../Middlewares/Third_Party/LoRaWAN/Mac/region/RegionIN865.c ****     if( RegionCommonCountChannels( NvmCtx.ChannelsMask, 0, 1 ) == 0 )
 887:../../../../../../Middlewares/Third_Party/LoRaWAN/Mac/region/RegionIN865.c ****     { // Reactivate default channels
 888:../../../../../../Middlewares/Third_Party/LoRaWAN/Mac/region/RegionIN865.c ****         NvmCtx.ChannelsMask[0] |= LC( 1 ) + LC( 2 ) + LC( 3 );
 889:../../../../../../Middlewares/Third_Party/LoRaWAN/Mac/region/RegionIN865.c ****     }
 890:../../../../../../Middlewares/Third_Party/LoRaWAN/Mac/region/RegionIN865.c **** 
 891:../../../../../../Middlewares/Third_Party/LoRaWAN/Mac/region/RegionIN865.c ****     if( nextChanParams->AggrTimeOff <= TimerGetElapsedTime( nextChanParams->LastAggrTx ) )
 892:../../../../../../Middlewares/Third_Party/LoRaWAN/Mac/region/RegionIN865.c ****     {
 893:../../../../../../Middlewares/Third_Party/LoRaWAN/Mac/region/RegionIN865.c ****         // Reset Aggregated time off
 894:../../../../../../Middlewares/Third_Party/LoRaWAN/Mac/region/RegionIN865.c ****         *aggregatedTimeOff = 0;
 895:../../../../../../Middlewares/Third_Party/LoRaWAN/Mac/region/RegionIN865.c **** 
 896:../../../../../../Middlewares/Third_Party/LoRaWAN/Mac/region/RegionIN865.c ****         // Update bands Time OFF
 897:../../../../../../Middlewares/Third_Party/LoRaWAN/Mac/region/RegionIN865.c ****         nextTxDelay = RegionCommonUpdateBandTimeOff( nextChanParams->Joined, nextChanParams->DutyCy
 898:../../../../../../Middlewares/Third_Party/LoRaWAN/Mac/region/RegionIN865.c **** 
 899:../../../../../../Middlewares/Third_Party/LoRaWAN/Mac/region/RegionIN865.c ****         // Search how many channels are enabled
 900:../../../../../../Middlewares/Third_Party/LoRaWAN/Mac/region/RegionIN865.c ****         nbEnabledChannels = CountNbOfEnabledChannels( nextChanParams->Joined, nextChanParams->Datar
 901:../../../../../../Middlewares/Third_Party/LoRaWAN/Mac/region/RegionIN865.c ****                                                       NvmCtx.ChannelsMask, NvmCtx.Channels,
 902:../../../../../../Middlewares/Third_Party/LoRaWAN/Mac/region/RegionIN865.c ****                                                       NvmCtx.Bands, enabledChannels, &delayTx );
 903:../../../../../../Middlewares/Third_Party/LoRaWAN/Mac/region/RegionIN865.c ****     }
 904:../../../../../../Middlewares/Third_Party/LoRaWAN/Mac/region/RegionIN865.c ****     else
 905:../../../../../../Middlewares/Third_Party/LoRaWAN/Mac/region/RegionIN865.c ****     {
 906:../../../../../../Middlewares/Third_Party/LoRaWAN/Mac/region/RegionIN865.c ****         delayTx++;
 907:../../../../../../Middlewares/Third_Party/LoRaWAN/Mac/region/RegionIN865.c ****         nextTxDelay = nextChanParams->AggrTimeOff - TimerGetElapsedTime( nextChanParams->LastAggrTx
 908:../../../../../../Middlewares/Third_Party/LoRaWAN/Mac/region/RegionIN865.c ****     }
 909:../../../../../../Middlewares/Third_Party/LoRaWAN/Mac/region/RegionIN865.c **** 
 910:../../../../../../Middlewares/Third_Party/LoRaWAN/Mac/region/RegionIN865.c ****     if( nbEnabledChannels > 0 )
 911:../../../../../../Middlewares/Third_Party/LoRaWAN/Mac/region/RegionIN865.c ****     {
 912:../../../../../../Middlewares/Third_Party/LoRaWAN/Mac/region/RegionIN865.c ****         // We found a valid channel
ARM GAS  C:\Users\EBANO_~1\AppData\Local\Temp\ccEfOEMG.s 			page 31


 913:../../../../../../Middlewares/Third_Party/LoRaWAN/Mac/region/RegionIN865.c ****         *channel = enabledChannels[randr( 0, nbEnabledChannels - 1 )];
 914:../../../../../../Middlewares/Third_Party/LoRaWAN/Mac/region/RegionIN865.c **** 
 915:../../../../../../Middlewares/Third_Party/LoRaWAN/Mac/region/RegionIN865.c ****         *time = 0;
 916:../../../../../../Middlewares/Third_Party/LoRaWAN/Mac/region/RegionIN865.c ****         return LORAMAC_STATUS_OK;
 917:../../../../../../Middlewares/Third_Party/LoRaWAN/Mac/region/RegionIN865.c ****     }
 918:../../../../../../Middlewares/Third_Party/LoRaWAN/Mac/region/RegionIN865.c ****     else
 919:../../../../../../Middlewares/Third_Party/LoRaWAN/Mac/region/RegionIN865.c ****     {
 920:../../../../../../Middlewares/Third_Party/LoRaWAN/Mac/region/RegionIN865.c ****         if( delayTx > 0 )
 921:../../../../../../Middlewares/Third_Party/LoRaWAN/Mac/region/RegionIN865.c ****         {
 922:../../../../../../Middlewares/Third_Party/LoRaWAN/Mac/region/RegionIN865.c ****             // Delay transmission due to AggregatedTimeOff or to a band time off
 923:../../../../../../Middlewares/Third_Party/LoRaWAN/Mac/region/RegionIN865.c ****             *time = nextTxDelay;
 924:../../../../../../Middlewares/Third_Party/LoRaWAN/Mac/region/RegionIN865.c ****             return LORAMAC_STATUS_DUTYCYCLE_RESTRICTED;
 925:../../../../../../Middlewares/Third_Party/LoRaWAN/Mac/region/RegionIN865.c ****         }
 926:../../../../../../Middlewares/Third_Party/LoRaWAN/Mac/region/RegionIN865.c ****         // Datarate not supported by any channel, restore defaults
 927:../../../../../../Middlewares/Third_Party/LoRaWAN/Mac/region/RegionIN865.c ****         NvmCtx.ChannelsMask[0] |= LC( 1 ) + LC( 2 ) + LC( 3 );
 928:../../../../../../Middlewares/Third_Party/LoRaWAN/Mac/region/RegionIN865.c ****         *time = 0;
 929:../../../../../../Middlewares/Third_Party/LoRaWAN/Mac/region/RegionIN865.c ****         return LORAMAC_STATUS_NO_CHANNEL_FOUND;
 930:../../../../../../Middlewares/Third_Party/LoRaWAN/Mac/region/RegionIN865.c ****     }
 931:../../../../../../Middlewares/Third_Party/LoRaWAN/Mac/region/RegionIN865.c **** }
 932:../../../../../../Middlewares/Third_Party/LoRaWAN/Mac/region/RegionIN865.c **** 
 933:../../../../../../Middlewares/Third_Party/LoRaWAN/Mac/region/RegionIN865.c **** LoRaMacStatus_t RegionIN865ChannelAdd( ChannelAddParams_t* channelAdd )
 934:../../../../../../Middlewares/Third_Party/LoRaWAN/Mac/region/RegionIN865.c **** {
 935:../../../../../../Middlewares/Third_Party/LoRaWAN/Mac/region/RegionIN865.c ****     bool drInvalid = false;
 936:../../../../../../Middlewares/Third_Party/LoRaWAN/Mac/region/RegionIN865.c ****     bool freqInvalid = false;
 937:../../../../../../Middlewares/Third_Party/LoRaWAN/Mac/region/RegionIN865.c ****     uint8_t id = channelAdd->ChannelId;
 938:../../../../../../Middlewares/Third_Party/LoRaWAN/Mac/region/RegionIN865.c **** 
 939:../../../../../../Middlewares/Third_Party/LoRaWAN/Mac/region/RegionIN865.c ****     if( id < IN865_NUMB_DEFAULT_CHANNELS )
 940:../../../../../../Middlewares/Third_Party/LoRaWAN/Mac/region/RegionIN865.c ****     {
 941:../../../../../../Middlewares/Third_Party/LoRaWAN/Mac/region/RegionIN865.c ****         return LORAMAC_STATUS_FREQ_AND_DR_INVALID;
 942:../../../../../../Middlewares/Third_Party/LoRaWAN/Mac/region/RegionIN865.c ****     }
 943:../../../../../../Middlewares/Third_Party/LoRaWAN/Mac/region/RegionIN865.c **** 
 944:../../../../../../Middlewares/Third_Party/LoRaWAN/Mac/region/RegionIN865.c ****     if( id >= IN865_MAX_NB_CHANNELS )
 945:../../../../../../Middlewares/Third_Party/LoRaWAN/Mac/region/RegionIN865.c ****     {
 946:../../../../../../Middlewares/Third_Party/LoRaWAN/Mac/region/RegionIN865.c ****         return LORAMAC_STATUS_PARAMETER_INVALID;
 947:../../../../../../Middlewares/Third_Party/LoRaWAN/Mac/region/RegionIN865.c ****     }
 948:../../../../../../Middlewares/Third_Party/LoRaWAN/Mac/region/RegionIN865.c **** 
 949:../../../../../../Middlewares/Third_Party/LoRaWAN/Mac/region/RegionIN865.c ****     // Validate the datarate range
 950:../../../../../../Middlewares/Third_Party/LoRaWAN/Mac/region/RegionIN865.c ****     if( RegionCommonValueInRange( channelAdd->NewChannel->DrRange.Fields.Min, IN865_TX_MIN_DATARATE
 951:../../../../../../Middlewares/Third_Party/LoRaWAN/Mac/region/RegionIN865.c ****     {
 952:../../../../../../Middlewares/Third_Party/LoRaWAN/Mac/region/RegionIN865.c ****         drInvalid = true;
 953:../../../../../../Middlewares/Third_Party/LoRaWAN/Mac/region/RegionIN865.c ****     }
 954:../../../../../../Middlewares/Third_Party/LoRaWAN/Mac/region/RegionIN865.c ****     if( RegionCommonValueInRange( channelAdd->NewChannel->DrRange.Fields.Max, IN865_TX_MIN_DATARATE
 955:../../../../../../Middlewares/Third_Party/LoRaWAN/Mac/region/RegionIN865.c ****     {
 956:../../../../../../Middlewares/Third_Party/LoRaWAN/Mac/region/RegionIN865.c ****         drInvalid = true;
 957:../../../../../../Middlewares/Third_Party/LoRaWAN/Mac/region/RegionIN865.c ****     }
 958:../../../../../../Middlewares/Third_Party/LoRaWAN/Mac/region/RegionIN865.c ****     if( channelAdd->NewChannel->DrRange.Fields.Min > channelAdd->NewChannel->DrRange.Fields.Max )
 959:../../../../../../Middlewares/Third_Party/LoRaWAN/Mac/region/RegionIN865.c ****     {
 960:../../../../../../Middlewares/Third_Party/LoRaWAN/Mac/region/RegionIN865.c ****         drInvalid = true;
 961:../../../../../../Middlewares/Third_Party/LoRaWAN/Mac/region/RegionIN865.c ****     }
 962:../../../../../../Middlewares/Third_Party/LoRaWAN/Mac/region/RegionIN865.c **** 
 963:../../../../../../Middlewares/Third_Party/LoRaWAN/Mac/region/RegionIN865.c ****     // Check frequency
 964:../../../../../../Middlewares/Third_Party/LoRaWAN/Mac/region/RegionIN865.c ****     if( freqInvalid == false )
 965:../../../../../../Middlewares/Third_Party/LoRaWAN/Mac/region/RegionIN865.c ****     {
 966:../../../../../../Middlewares/Third_Party/LoRaWAN/Mac/region/RegionIN865.c ****         if( VerifyRfFreq( channelAdd->NewChannel->Frequency ) == false )
 967:../../../../../../Middlewares/Third_Party/LoRaWAN/Mac/region/RegionIN865.c ****         {
 968:../../../../../../Middlewares/Third_Party/LoRaWAN/Mac/region/RegionIN865.c ****             freqInvalid = true;
 969:../../../../../../Middlewares/Third_Party/LoRaWAN/Mac/region/RegionIN865.c ****         }
ARM GAS  C:\Users\EBANO_~1\AppData\Local\Temp\ccEfOEMG.s 			page 32


 970:../../../../../../Middlewares/Third_Party/LoRaWAN/Mac/region/RegionIN865.c ****     }
 971:../../../../../../Middlewares/Third_Party/LoRaWAN/Mac/region/RegionIN865.c **** 
 972:../../../../../../Middlewares/Third_Party/LoRaWAN/Mac/region/RegionIN865.c ****     // Check status
 973:../../../../../../Middlewares/Third_Party/LoRaWAN/Mac/region/RegionIN865.c ****     if( ( drInvalid == true ) && ( freqInvalid == true ) )
 974:../../../../../../Middlewares/Third_Party/LoRaWAN/Mac/region/RegionIN865.c ****     {
 975:../../../../../../Middlewares/Third_Party/LoRaWAN/Mac/region/RegionIN865.c ****         return LORAMAC_STATUS_FREQ_AND_DR_INVALID;
 976:../../../../../../Middlewares/Third_Party/LoRaWAN/Mac/region/RegionIN865.c ****     }
 977:../../../../../../Middlewares/Third_Party/LoRaWAN/Mac/region/RegionIN865.c ****     if( drInvalid == true )
 978:../../../../../../Middlewares/Third_Party/LoRaWAN/Mac/region/RegionIN865.c ****     {
 979:../../../../../../Middlewares/Third_Party/LoRaWAN/Mac/region/RegionIN865.c ****         return LORAMAC_STATUS_DATARATE_INVALID;
 980:../../../../../../Middlewares/Third_Party/LoRaWAN/Mac/region/RegionIN865.c ****     }
 981:../../../../../../Middlewares/Third_Party/LoRaWAN/Mac/region/RegionIN865.c ****     if( freqInvalid == true )
 982:../../../../../../Middlewares/Third_Party/LoRaWAN/Mac/region/RegionIN865.c ****     {
 983:../../../../../../Middlewares/Third_Party/LoRaWAN/Mac/region/RegionIN865.c ****         return LORAMAC_STATUS_FREQUENCY_INVALID;
 984:../../../../../../Middlewares/Third_Party/LoRaWAN/Mac/region/RegionIN865.c ****     }
 985:../../../../../../Middlewares/Third_Party/LoRaWAN/Mac/region/RegionIN865.c **** 
 986:../../../../../../Middlewares/Third_Party/LoRaWAN/Mac/region/RegionIN865.c ****     memcpy1( ( uint8_t* ) &(NvmCtx.Channels[id]), ( uint8_t* ) channelAdd->NewChannel, sizeof( NvmC
 987:../../../../../../Middlewares/Third_Party/LoRaWAN/Mac/region/RegionIN865.c ****     NvmCtx.Channels[id].Band = 0;
 988:../../../../../../Middlewares/Third_Party/LoRaWAN/Mac/region/RegionIN865.c ****     NvmCtx.ChannelsMask[0] |= ( 1 << id );
 989:../../../../../../Middlewares/Third_Party/LoRaWAN/Mac/region/RegionIN865.c ****     return LORAMAC_STATUS_OK;
 990:../../../../../../Middlewares/Third_Party/LoRaWAN/Mac/region/RegionIN865.c **** }
 991:../../../../../../Middlewares/Third_Party/LoRaWAN/Mac/region/RegionIN865.c **** 
 992:../../../../../../Middlewares/Third_Party/LoRaWAN/Mac/region/RegionIN865.c **** bool RegionIN865ChannelsRemove( ChannelRemoveParams_t* channelRemove  )
 993:../../../../../../Middlewares/Third_Party/LoRaWAN/Mac/region/RegionIN865.c **** {
 994:../../../../../../Middlewares/Third_Party/LoRaWAN/Mac/region/RegionIN865.c ****     uint8_t id = channelRemove->ChannelId;
 995:../../../../../../Middlewares/Third_Party/LoRaWAN/Mac/region/RegionIN865.c **** 
 996:../../../../../../Middlewares/Third_Party/LoRaWAN/Mac/region/RegionIN865.c ****     if( id < IN865_NUMB_DEFAULT_CHANNELS )
 997:../../../../../../Middlewares/Third_Party/LoRaWAN/Mac/region/RegionIN865.c ****     {
 998:../../../../../../Middlewares/Third_Party/LoRaWAN/Mac/region/RegionIN865.c ****         return false;
 999:../../../../../../Middlewares/Third_Party/LoRaWAN/Mac/region/RegionIN865.c ****     }
1000:../../../../../../Middlewares/Third_Party/LoRaWAN/Mac/region/RegionIN865.c **** 
1001:../../../../../../Middlewares/Third_Party/LoRaWAN/Mac/region/RegionIN865.c ****     // Remove the channel from the list of channels
1002:../../../../../../Middlewares/Third_Party/LoRaWAN/Mac/region/RegionIN865.c ****     NvmCtx.Channels[id] = ( ChannelParams_t ){ 0, 0, { 0 }, 0 };
 725              		.loc 1 1002 0
 726 0032 3F4B     		ldr	r3, .L85
 727              	.LBE35:
 728              	.LBE34:
 729              	.LBE33:
 730 0034 0126     		movs	r6, #1
 731              	.LBB48:
 732              	.LBB38:
 733              	.LBB36:
 734 0036 9946     		mov	r9, r3
 735 0038 3E4B     		ldr	r3, .L85+4
 736              	.LBE36:
 737              	.LBE38:
 738              	.LBE48:
 739 003a 0325     		movs	r5, #3
 740 003c 9B46     		mov	fp, r3
 741 003e 14E0     		b	.L75
 742              	.LVL44:
 743              	.L69:
 744              	.LBB49:
 485:../../../../../../Middlewares/Third_Party/LoRaWAN/Mac/region/RegionIN865.c ****             newChannel.DrRange.Value = 0;
 745              		.loc 1 485 0
 746 0040 0023     		movs	r3, #0
 747              	.LVL45:
ARM GAS  C:\Users\EBANO_~1\AppData\Local\Temp\ccEfOEMG.s 			page 33


 748 0042 2360     		str	r3, [r4]
 486:../../../../../../Middlewares/Third_Party/LoRaWAN/Mac/region/RegionIN865.c ****             newChannel.Rx1Frequency = 0;
 749              		.loc 1 486 0
 750 0044 2372     		strb	r3, [r4, #8]
 487:../../../../../../Middlewares/Third_Party/LoRaWAN/Mac/region/RegionIN865.c ****         }
 751              		.loc 1 487 0
 752 0046 6360     		str	r3, [r4, #4]
 753              	.L71:
 754              	.LVL46:
 755              	.LBB39:
 756              	.LBB37:
 757              		.loc 1 1002 0
 758 0048 6800     		lsls	r0, r5, #1
 759 004a 4019     		adds	r0, r0, r5
 760 004c 8000     		lsls	r0, r0, #2
 761 004e 0C22     		movs	r2, #12
 762 0050 0021     		movs	r1, #0
 763 0052 4844     		add	r0, r0, r9
 764 0054 FFF7FEFF 		bl	memset
 765              	.LVL47:
1003:../../../../../../Middlewares/Third_Party/LoRaWAN/Mac/region/RegionIN865.c **** 
1004:../../../../../../Middlewares/Third_Party/LoRaWAN/Mac/region/RegionIN865.c ****     return RegionCommonChanDisable( NvmCtx.ChannelsMask, id, IN865_MAX_NB_CHANNELS );
 766              		.loc 1 1004 0
 767 0058 1022     		movs	r2, #16
 768 005a 4146     		mov	r1, r8
 769 005c 3648     		ldr	r0, .L85+8
 770 005e FFF7FEFF 		bl	RegionCommonChanDisable
 771              	.LVL48:
 772              	.L73:
 773 0062 0336     		adds	r6, r6, #3
 774              	.LVL49:
 775 0064 0135     		adds	r5, r5, #1
 776              	.LVL50:
 777              	.LBE37:
 778              	.LBE39:
 470:../../../../../../Middlewares/Third_Party/LoRaWAN/Mac/region/RegionIN865.c ****     {
 779              		.loc 1 470 0 discriminator 2
 780 0066 282E     		cmp	r6, #40
 781 0068 D8D0     		beq	.L67
 782              	.L75:
 783 006a EBB2     		uxtb	r3, r5
 784 006c 9846     		mov	r8, r3
 785              	.LVL51:
 472:../../../../../../Middlewares/Third_Party/LoRaWAN/Mac/region/RegionIN865.c ****         {
 786              		.loc 1 472 0
 787 006e 072D     		cmp	r5, #7
 788 0070 E6D8     		bhi	.L69
 475:../../../../../../Middlewares/Third_Party/LoRaWAN/Mac/region/RegionIN865.c ****             newChannel.Frequency |= ( (uint32_t) applyCFList->Payload[i + 1] << 8 );
 789              		.loc 1 475 0
 790 0072 3B68     		ldr	r3, [r7]
 791              	.LVL52:
 792 0074 9A19     		adds	r2, r3, r6
 793 0076 511E     		subs	r1, r2, #1
 794 0078 0978     		ldrb	r1, [r1]
 795 007a 2160     		str	r1, [r4]
 476:../../../../../../Middlewares/Third_Party/LoRaWAN/Mac/region/RegionIN865.c ****             newChannel.Frequency |= ( (uint32_t) applyCFList->Payload[i + 2] << 16 );
 796              		.loc 1 476 0
ARM GAS  C:\Users\EBANO_~1\AppData\Local\Temp\ccEfOEMG.s 			page 34


 797 007c 9B5D     		ldrb	r3, [r3, r6]
 798 007e 1B02     		lsls	r3, r3, #8
 799 0080 0B43     		orrs	r3, r1
 800 0082 2360     		str	r3, [r4]
 477:../../../../../../Middlewares/Third_Party/LoRaWAN/Mac/region/RegionIN865.c ****             newChannel.Frequency *= 100;
 801              		.loc 1 477 0
 802 0084 5278     		ldrb	r2, [r2, #1]
 803 0086 1204     		lsls	r2, r2, #16
 804 0088 1343     		orrs	r3, r2
 478:../../../../../../Middlewares/Third_Party/LoRaWAN/Mac/region/RegionIN865.c **** 
 805              		.loc 1 478 0
 806 008a 6422     		movs	r2, #100
 807 008c 5343     		muls	r3, r2
 481:../../../../../../Middlewares/Third_Party/LoRaWAN/Mac/region/RegionIN865.c ****         }
 808              		.loc 1 481 0
 809 008e 0022     		movs	r2, #0
 478:../../../../../../Middlewares/Third_Party/LoRaWAN/Mac/region/RegionIN865.c **** 
 810              		.loc 1 478 0
 811 0090 2360     		str	r3, [r4]
 481:../../../../../../Middlewares/Third_Party/LoRaWAN/Mac/region/RegionIN865.c ****         }
 812              		.loc 1 481 0
 813 0092 6260     		str	r2, [r4, #4]
 490:../../../../../../Middlewares/Third_Party/LoRaWAN/Mac/region/RegionIN865.c ****         {
 814              		.loc 1 490 0
 815 0094 002B     		cmp	r3, #0
 816 0096 D7D0     		beq	.L71
 817              	.LVL53:
 818              	.LBB40:
 819              	.LBB41:
 950:../../../../../../Middlewares/Third_Party/LoRaWAN/Mac/region/RegionIN865.c ****     {
 820              		.loc 1 950 0
 821 0098 207A     		ldrb	r0, [r4, #8]
 822 009a 0722     		movs	r2, #7
 823 009c 0007     		lsls	r0, r0, #28
 824 009e 0021     		movs	r1, #0
 825 00a0 0017     		asrs	r0, r0, #28
 826 00a2 FFF7FEFF 		bl	RegionCommonValueInRange
 827              	.LVL54:
 828 00a6 8046     		mov	r8, r0
 829              	.LVL55:
 954:../../../../../../Middlewares/Third_Party/LoRaWAN/Mac/region/RegionIN865.c ****     {
 830              		.loc 1 954 0
 831 00a8 0820     		movs	r0, #8
 832 00aa 2056     		ldrsb	r0, [r4, r0]
 833 00ac 0722     		movs	r2, #7
 834 00ae 0011     		asrs	r0, r0, #4
 835 00b0 0021     		movs	r1, #0
 836 00b2 FFF7FEFF 		bl	RegionCommonValueInRange
 837              	.LVL56:
 956:../../../../../../Middlewares/Third_Party/LoRaWAN/Mac/region/RegionIN865.c ****     }
 838              		.loc 1 956 0
 839 00b6 0123     		movs	r3, #1
 840 00b8 9A46     		mov	r10, r3
 954:../../../../../../Middlewares/Third_Party/LoRaWAN/Mac/region/RegionIN865.c ****     {
 841              		.loc 1 954 0
 842 00ba 0028     		cmp	r0, #0
 843 00bc 04D0     		beq	.L76
ARM GAS  C:\Users\EBANO_~1\AppData\Local\Temp\ccEfOEMG.s 			page 35


 950:../../../../../../Middlewares/Third_Party/LoRaWAN/Mac/region/RegionIN865.c ****     {
 844              		.loc 1 950 0
 845 00be 4346     		mov	r3, r8
 846 00c0 5A42     		rsbs	r2, r3, #0
 847 00c2 5341     		adcs	r3, r3, r2
 848 00c4 DBB2     		uxtb	r3, r3
 849 00c6 9A46     		mov	r10, r3
 850              	.L76:
 851              	.LVL57:
 852 00c8 2368     		ldr	r3, [r4]
 853 00ca 9846     		mov	r8, r3
 854 00cc 5B46     		mov	r3, fp
 855 00ce 9B6A     		ldr	r3, [r3, #40]
 856              	.LBB42:
 857              	.LBB43:
 115:../../../../../../Middlewares/Third_Party/LoRaWAN/Mac/region/RegionIN865.c ****     {
 858              		.loc 1 115 0
 859 00d0 4046     		mov	r0, r8
 860 00d2 0193     		str	r3, [sp, #4]
 861              	.LBE43:
 862              	.LBE42:
 958:../../../../../../Middlewares/Third_Party/LoRaWAN/Mac/region/RegionIN865.c ****     {
 863              		.loc 1 958 0
 864 00d4 237A     		ldrb	r3, [r4, #8]
 865 00d6 1A07     		lsls	r2, r3, #28
 866 00d8 5BB2     		sxtb	r3, r3
 867 00da 1217     		asrs	r2, r2, #28
 868 00dc 1B11     		asrs	r3, r3, #4
 869 00de 9A42     		cmp	r2, r3
 870 00e0 23DC     		bgt	.L72
 871              	.LVL58:
 872              	.LBB46:
 873              	.LBB44:
 115:../../../../../../Middlewares/Third_Party/LoRaWAN/Mac/region/RegionIN865.c ****     {
 874              		.loc 1 115 0
 875 00e2 019B     		ldr	r3, [sp, #4]
 876 00e4 9847     		blx	r3
 877              	.LVL59:
 878 00e6 0028     		cmp	r0, #0
 879 00e8 BBD0     		beq	.L73
 120:../../../../../../Middlewares/Third_Party/LoRaWAN/Mac/region/RegionIN865.c ****     {
 880              		.loc 1 120 0
 881 00ea 144A     		ldr	r2, .L85+12
 882 00ec 144B     		ldr	r3, .L85+16
 883 00ee 4244     		add	r2, r2, r8
 884 00f0 9A42     		cmp	r2, r3
 885 00f2 B6D8     		bhi	.L73
 886              	.LBE44:
 887              	.LBE46:
 973:../../../../../../Middlewares/Third_Party/LoRaWAN/Mac/region/RegionIN865.c ****     {
 888              		.loc 1 973 0
 889 00f4 5346     		mov	r3, r10
 890 00f6 002B     		cmp	r3, #0
 891 00f8 B3D1     		bne	.L73
 986:../../../../../../Middlewares/Third_Party/LoRaWAN/Mac/region/RegionIN865.c ****     NvmCtx.Channels[id].Band = 0;
 892              		.loc 1 986 0
 893 00fa 0D4B     		ldr	r3, .L85
ARM GAS  C:\Users\EBANO_~1\AppData\Local\Temp\ccEfOEMG.s 			page 36


 894 00fc 6800     		lsls	r0, r5, #1
 895 00fe 9846     		mov	r8, r3
 896 0100 4019     		adds	r0, r0, r5
 897 0102 8000     		lsls	r0, r0, #2
 898 0104 0C22     		movs	r2, #12
 899 0106 2100     		movs	r1, r4
 900 0108 4044     		add	r0, r0, r8
 901 010a FFF7FEFF 		bl	memcpy1
 902              	.LVL60:
 987:../../../../../../Middlewares/Third_Party/LoRaWAN/Mac/region/RegionIN865.c ****     NvmCtx.ChannelsMask[0] |= ( 1 << id );
 903              		.loc 1 987 0
 904 010e 4246     		mov	r2, r8
 905 0110 5146     		mov	r1, r10
 906 0112 B300     		lsls	r3, r6, #2
 907 0114 2933     		adds	r3, r3, #41
 908 0116 D154     		strb	r1, [r2, r3]
 988:../../../../../../Middlewares/Third_Party/LoRaWAN/Mac/region/RegionIN865.c ****     return LORAMAC_STATUS_OK;
 909              		.loc 1 988 0
 910 0118 0122     		movs	r2, #1
 911 011a D021     		movs	r1, #208
 912 011c 4346     		mov	r3, r8
 913 011e AA40     		lsls	r2, r2, r5
 914 0120 5B5A     		ldrh	r3, [r3, r1]
 915 0122 1343     		orrs	r3, r2
 916 0124 4246     		mov	r2, r8
 917 0126 5352     		strh	r3, [r2, r1]
 918 0128 9BE7     		b	.L73
 919              	.L72:
 920              	.LVL61:
 921              	.LBB47:
 922              	.LBB45:
 115:../../../../../../Middlewares/Third_Party/LoRaWAN/Mac/region/RegionIN865.c ****     {
 923              		.loc 1 115 0
 924 012a 019B     		ldr	r3, [sp, #4]
 925 012c 9847     		blx	r3
 926              	.LVL62:
 927 012e 98E7     		b	.L73
 928              	.L86:
 929              		.align	2
 930              	.L85:
 931 0130 00000000 		.word	NvmCtx
 932 0134 00000000 		.word	Radio
 933 0138 D0000000 		.word	NvmCtx+208
 934 013c C02571CC 		.word	-865000000
 935 0140 80841E00 		.word	2000000
 936              	.LBE45:
 937              	.LBE47:
 938              	.LBE41:
 939              	.LBE40:
 940              	.LBE49:
 941              		.cfi_endproc
 942              	.LFE49:
 943              		.size	RegionIN865ApplyCFList, .-RegionIN865ApplyCFList
 944              		.section	.text.RegionIN865ChanMaskSet,"ax",%progbits
 945              		.align	1
 946              		.p2align 2,,3
 947              		.global	RegionIN865ChanMaskSet
ARM GAS  C:\Users\EBANO_~1\AppData\Local\Temp\ccEfOEMG.s 			page 37


 948              		.syntax unified
 949              		.code	16
 950              		.thumb_func
 951              		.fpu softvfp
 952              		.type	RegionIN865ChanMaskSet, %function
 953              	RegionIN865ChanMaskSet:
 954              	.LFB50:
 508:../../../../../../Middlewares/Third_Party/LoRaWAN/Mac/region/RegionIN865.c ****     switch( chanMaskSet->ChannelsMaskType )
 955              		.loc 1 508 0
 956              		.cfi_startproc
 957              		@ args = 0, pretend = 0, frame = 0
 958              		@ frame_needed = 0, uses_anonymous_args = 0
 959              	.LVL63:
 960 0000 10B5     		push	{r4, lr}
 961              	.LCFI9:
 962              		.cfi_def_cfa_offset 8
 963              		.cfi_offset 4, -8
 964              		.cfi_offset 14, -4
 509:../../../../../../Middlewares/Third_Party/LoRaWAN/Mac/region/RegionIN865.c ****     {
 965              		.loc 1 509 0
 966 0002 0379     		ldrb	r3, [r0, #4]
 967 0004 002B     		cmp	r3, #0
 968 0006 0AD0     		beq	.L89
 969 0008 012B     		cmp	r3, #1
 970 000a 01D0     		beq	.L90
 522:../../../../../../Middlewares/Third_Party/LoRaWAN/Mac/region/RegionIN865.c ****     }
 971              		.loc 1 522 0
 972 000c 0020     		movs	r0, #0
 973              	.LVL64:
 974              	.L88:
 525:../../../../../../Middlewares/Third_Party/LoRaWAN/Mac/region/RegionIN865.c **** 
 975              		.loc 1 525 0
 976              		@ sp needed
 977 000e 10BD     		pop	{r4, pc}
 978              	.LVL65:
 979              	.L90:
 518:../../../../../../Middlewares/Third_Party/LoRaWAN/Mac/region/RegionIN865.c ****             break;
 980              		.loc 1 518 0
 981 0010 0168     		ldr	r1, [r0]
 982 0012 0122     		movs	r2, #1
 983 0014 0548     		ldr	r0, .L93
 984              	.LVL66:
 985 0016 FFF7FEFF 		bl	RegionCommonChanMaskCopy
 986              	.LVL67:
 524:../../../../../../Middlewares/Third_Party/LoRaWAN/Mac/region/RegionIN865.c **** }
 987              		.loc 1 524 0
 988 001a 0120     		movs	r0, #1
 519:../../../../../../Middlewares/Third_Party/LoRaWAN/Mac/region/RegionIN865.c ****         }
 989              		.loc 1 519 0
 990 001c F7E7     		b	.L88
 991              	.LVL68:
 992              	.L89:
 513:../../../../../../Middlewares/Third_Party/LoRaWAN/Mac/region/RegionIN865.c ****             break;
 993              		.loc 1 513 0
 994 001e 0168     		ldr	r1, [r0]
 995 0020 0122     		movs	r2, #1
 996 0022 0348     		ldr	r0, .L93+4
ARM GAS  C:\Users\EBANO_~1\AppData\Local\Temp\ccEfOEMG.s 			page 38


 997              	.LVL69:
 998 0024 FFF7FEFF 		bl	RegionCommonChanMaskCopy
 999              	.LVL70:
 524:../../../../../../Middlewares/Third_Party/LoRaWAN/Mac/region/RegionIN865.c **** }
 1000              		.loc 1 524 0
 1001 0028 0120     		movs	r0, #1
 514:../../../../../../Middlewares/Third_Party/LoRaWAN/Mac/region/RegionIN865.c ****         }
 1002              		.loc 1 514 0
 1003 002a F0E7     		b	.L88
 1004              	.L94:
 1005              		.align	2
 1006              	.L93:
 1007 002c D2000000 		.word	NvmCtx+210
 1008 0030 D0000000 		.word	NvmCtx+208
 1009              		.cfi_endproc
 1010              	.LFE50:
 1011              		.size	RegionIN865ChanMaskSet, .-RegionIN865ChanMaskSet
 1012              		.section	.text.RegionIN865ComputeRxWindowParameters,"ax",%progbits
 1013              		.align	1
 1014              		.p2align 2,,3
 1015              		.global	RegionIN865ComputeRxWindowParameters
 1016              		.syntax unified
 1017              		.code	16
 1018              		.thumb_func
 1019              		.fpu softvfp
 1020              		.type	RegionIN865ComputeRxWindowParameters, %function
 1021              	RegionIN865ComputeRxWindowParameters:
 1022              	.LFB51:
 528:../../../../../../Middlewares/Third_Party/LoRaWAN/Mac/region/RegionIN865.c ****     double tSymbol = 0.0;
 1023              		.loc 1 528 0
 1024              		.cfi_startproc
 1025              		@ args = 0, pretend = 0, frame = 8
 1026              		@ frame_needed = 0, uses_anonymous_args = 0
 1027              	.LVL71:
 1028 0000 F0B5     		push	{r4, r5, r6, r7, lr}
 1029              	.LCFI10:
 1030              		.cfi_def_cfa_offset 20
 1031              		.cfi_offset 4, -20
 1032              		.cfi_offset 5, -16
 1033              		.cfi_offset 6, -12
 1034              		.cfi_offset 7, -8
 1035              		.cfi_offset 14, -4
 1036 0002 C646     		mov	lr, r8
 1037 0004 00B5     		push	{lr}
 1038              	.LCFI11:
 1039              		.cfi_def_cfa_offset 24
 1040              		.cfi_offset 8, -24
 1041 0006 1C00     		movs	r4, r3
 1042 0008 86B0     		sub	sp, sp, #24
 1043              	.LCFI12:
 1044              		.cfi_def_cfa_offset 48
 528:../../../../../../Middlewares/Third_Party/LoRaWAN/Mac/region/RegionIN865.c ****     double tSymbol = 0.0;
 1045              		.loc 1 528 0
 1046 000a 0D00     		movs	r5, r1
 1047 000c 9046     		mov	r8, r2
 532:../../../../../../Middlewares/Third_Party/LoRaWAN/Mac/region/RegionIN865.c ****     rxConfigParams->Bandwidth = GetBandwidth( rxConfigParams->Datarate );
 1048              		.loc 1 532 0
ARM GAS  C:\Users\EBANO_~1\AppData\Local\Temp\ccEfOEMG.s 			page 39


 1049 000e 031C     		adds	r3, r0, #0
 1050              	.LVL72:
 1051 0010 0728     		cmp	r0, #7
 1052 0012 00DD     		ble	.L96
 1053 0014 0723     		movs	r3, #7
 1054              	.L96:
 1055 0016 5EB2     		sxtb	r6, r3
 1056              	.LBB50:
 1057              	.LBB51:
  90:../../../../../../Middlewares/Third_Party/LoRaWAN/Mac/region/RegionIN865.c ****     {
 1058              		.loc 1 90 0
 1059 0018 1A4A     		ldr	r2, .L104
 1060              	.LVL73:
 1061 001a B100     		lsls	r1, r6, #2
 1062              	.LVL74:
 1063              	.LBE51:
 1064              	.LBE50:
 532:../../../../../../Middlewares/Third_Party/LoRaWAN/Mac/region/RegionIN865.c ****     rxConfigParams->Bandwidth = GetBandwidth( rxConfigParams->Datarate );
 1065              		.loc 1 532 0
 1066 001c 6370     		strb	r3, [r4, #1]
 1067              	.LVL75:
 1068              	.LBB54:
 1069              	.LBB52:
  90:../../../../../../Middlewares/Third_Party/LoRaWAN/Mac/region/RegionIN865.c ****     {
 1070              		.loc 1 90 0
 1071 001e 1A4F     		ldr	r7, .L104+4
 1072 0020 5358     		ldr	r3, [r2, r1]
 1073 0022 BB42     		cmp	r3, r7
 1074 0024 24D0     		beq	.L102
 1075 0026 194F     		ldr	r7, .L104+8
 1076 0028 BC46     		mov	ip, r7
 1077 002a 6344     		add	r3, r3, ip
 1078 002c 5F42     		rsbs	r7, r3, #0
 1079 002e 7B41     		adcs	r3, r3, r7
 1080 0030 5B00     		lsls	r3, r3, #1
 1081              	.LBE52:
 1082              	.LBE54:
 533:../../../../../../Middlewares/Third_Party/LoRaWAN/Mac/region/RegionIN865.c **** 
 1083              		.loc 1 533 0
 1084 0032 A370     		strb	r3, [r4, #2]
 535:../../../../../../Middlewares/Third_Party/LoRaWAN/Mac/region/RegionIN865.c ****     { // FSK
 1085              		.loc 1 535 0
 1086 0034 0628     		cmp	r0, #6
 1087 0036 1FDC     		bgt	.L103
 1088              	.L100:
 541:../../../../../../Middlewares/Third_Party/LoRaWAN/Mac/region/RegionIN865.c ****     }
 1089              		.loc 1 541 0
 1090 0038 2023     		movs	r3, #32
 1091 003a 5158     		ldr	r1, [r2, r1]
 1092 003c 9219     		adds	r2, r2, r6
 1093 003e D05C     		ldrb	r0, [r2, r3]
 1094              	.LVL76:
 1095 0040 FFF7FEFF 		bl	RegionCommonComputeSymbolTimeLoRa
 1096              	.LVL77:
 1097 0044 0600     		movs	r6, r0
 1098 0046 0F00     		movs	r7, r1
 1099              	.LVL78:
ARM GAS  C:\Users\EBANO_~1\AppData\Local\Temp\ccEfOEMG.s 			page 40


 1100              	.L101:
 544:../../../../../../Middlewares/Third_Party/LoRaWAN/Mac/region/RegionIN865.c **** }
 1101              		.loc 1 544 0
 1102 0048 114B     		ldr	r3, .L104+12
 1103 004a 5B6E     		ldr	r3, [r3, #100]
 1104 004c 0593     		str	r3, [sp, #20]
 1105 004e 9847     		blx	r3
 1106              	.LVL79:
 1107 0050 2300     		movs	r3, r4
 1108 0052 0834     		adds	r4, r4, #8
 1109              	.LVL80:
 1110 0054 0C33     		adds	r3, r3, #12
 1111              	.LVL81:
 1112 0056 0293     		str	r3, [sp, #8]
 1113 0058 0090     		str	r0, [sp]
 1114 005a 0194     		str	r4, [sp, #4]
 1115 005c 4346     		mov	r3, r8
 1116              	.LVL82:
 1117 005e 2A00     		movs	r2, r5
 1118 0060 3000     		movs	r0, r6
 1119 0062 3900     		movs	r1, r7
 1120 0064 FFF7FEFF 		bl	RegionCommonComputeRxWindowParameters
 1121              	.LVL83:
 545:../../../../../../Middlewares/Third_Party/LoRaWAN/Mac/region/RegionIN865.c **** 
 1122              		.loc 1 545 0
 1123 0068 06B0     		add	sp, sp, #24
 1124              		@ sp needed
 1125              	.LVL84:
 1126              	.LVL85:
 1127              	.LVL86:
 1128 006a 04BC     		pop	{r2}
 1129 006c 9046     		mov	r8, r2
 1130 006e F0BD     		pop	{r4, r5, r6, r7, pc}
 1131              	.LVL87:
 1132              	.L102:
 1133              	.LBB55:
 1134              	.LBB53:
  90:../../../../../../Middlewares/Third_Party/LoRaWAN/Mac/region/RegionIN865.c ****     {
 1135              		.loc 1 90 0
 1136 0070 0123     		movs	r3, #1
 1137              	.LBE53:
 1138              	.LBE55:
 533:../../../../../../Middlewares/Third_Party/LoRaWAN/Mac/region/RegionIN865.c **** 
 1139              		.loc 1 533 0
 1140 0072 A370     		strb	r3, [r4, #2]
 535:../../../../../../Middlewares/Third_Party/LoRaWAN/Mac/region/RegionIN865.c ****     { // FSK
 1141              		.loc 1 535 0
 1142 0074 0628     		cmp	r0, #6
 1143 0076 DFDD     		ble	.L100
 1144              	.L103:
 537:../../../../../../Middlewares/Third_Party/LoRaWAN/Mac/region/RegionIN865.c ****     }
 1145              		.loc 1 537 0
 1146 0078 3220     		movs	r0, #50
 1147              	.LVL88:
 1148 007a FFF7FEFF 		bl	RegionCommonComputeSymbolTimeFsk
 1149              	.LVL89:
 1150 007e 0600     		movs	r6, r0
ARM GAS  C:\Users\EBANO_~1\AppData\Local\Temp\ccEfOEMG.s 			page 41


 1151 0080 0F00     		movs	r7, r1
 1152              	.LVL90:
 1153 0082 E1E7     		b	.L101
 1154              	.L105:
 1155              		.align	2
 1156              	.L104:
 1157 0084 D8000000 		.word	.LANCHOR1
 1158 0088 90D00300 		.word	250000
 1159 008c E05EF8FF 		.word	-500000
 1160 0090 00000000 		.word	Radio
 1161              		.cfi_endproc
 1162              	.LFE51:
 1163              		.size	RegionIN865ComputeRxWindowParameters, .-RegionIN865ComputeRxWindowParameters
 1164              		.section	.text.RegionIN865RxConfig,"ax",%progbits
 1165              		.align	1
 1166              		.p2align 2,,3
 1167              		.global	RegionIN865RxConfig
 1168              		.syntax unified
 1169              		.code	16
 1170              		.thumb_func
 1171              		.fpu softvfp
 1172              		.type	RegionIN865RxConfig, %function
 1173              	RegionIN865RxConfig:
 1174              	.LFB52:
 548:../../../../../../Middlewares/Third_Party/LoRaWAN/Mac/region/RegionIN865.c ****     RadioModems_t modem;
 1175              		.loc 1 548 0
 1176              		.cfi_startproc
 1177              		@ args = 0, pretend = 0, frame = 8
 1178              		@ frame_needed = 0, uses_anonymous_args = 0
 1179              	.LVL91:
 1180 0000 F0B5     		push	{r4, r5, r6, r7, lr}
 1181              	.LCFI13:
 1182              		.cfi_def_cfa_offset 20
 1183              		.cfi_offset 4, -20
 1184              		.cfi_offset 5, -16
 1185              		.cfi_offset 6, -12
 1186              		.cfi_offset 7, -8
 1187              		.cfi_offset 14, -4
 1188 0002 D646     		mov	lr, r10
 1189 0004 4646     		mov	r6, r8
 1190 0006 4F46     		mov	r7, r9
 1191 0008 C0B5     		push	{r6, r7, lr}
 1192              	.LCFI14:
 1193              		.cfi_def_cfa_offset 32
 1194              		.cfi_offset 8, -32
 1195              		.cfi_offset 9, -28
 1196              		.cfi_offset 10, -24
 550:../../../../../../Middlewares/Third_Party/LoRaWAN/Mac/region/RegionIN865.c ****     uint8_t maxPayload = 0;
 1197              		.loc 1 550 0
 1198 000a 0126     		movs	r6, #1
 553:../../../../../../Middlewares/Third_Party/LoRaWAN/Mac/region/RegionIN865.c **** 
 1199              		.loc 1 553 0
 1200 000c 4368     		ldr	r3, [r0, #4]
 555:../../../../../../Middlewares/Third_Party/LoRaWAN/Mac/region/RegionIN865.c ****     {
 1201              		.loc 1 555 0
 1202 000e 394D     		ldr	r5, .L116
 553:../../../../../../Middlewares/Third_Party/LoRaWAN/Mac/region/RegionIN865.c **** 
ARM GAS  C:\Users\EBANO_~1\AppData\Local\Temp\ccEfOEMG.s 			page 42


 1203              		.loc 1 553 0
 1204 0010 9846     		mov	r8, r3
 555:../../../../../../Middlewares/Third_Party/LoRaWAN/Mac/region/RegionIN865.c ****     {
 1205              		.loc 1 555 0
 1206 0012 EB68     		ldr	r3, [r5, #12]
 548:../../../../../../Middlewares/Third_Party/LoRaWAN/Mac/region/RegionIN865.c ****     RadioModems_t modem;
 1207              		.loc 1 548 0
 1208 0014 8CB0     		sub	sp, sp, #48
 1209              	.LCFI15:
 1210              		.cfi_def_cfa_offset 80
 550:../../../../../../Middlewares/Third_Party/LoRaWAN/Mac/region/RegionIN865.c ****     uint8_t maxPayload = 0;
 1211              		.loc 1 550 0
 1212 0016 8657     		ldrsb	r6, [r0, r6]
 1213              	.LVL92:
 548:../../../../../../Middlewares/Third_Party/LoRaWAN/Mac/region/RegionIN865.c ****     RadioModems_t modem;
 1214              		.loc 1 548 0
 1215 0018 0400     		movs	r4, r0
 555:../../../../../../Middlewares/Third_Party/LoRaWAN/Mac/region/RegionIN865.c ****     {
 1216              		.loc 1 555 0
 1217 001a 0B93     		str	r3, [sp, #44]
 548:../../../../../../Middlewares/Third_Party/LoRaWAN/Mac/region/RegionIN865.c ****     RadioModems_t modem;
 1218              		.loc 1 548 0
 1219 001c 8A46     		mov	r10, r1
 555:../../../../../../Middlewares/Third_Party/LoRaWAN/Mac/region/RegionIN865.c ****     {
 1220              		.loc 1 555 0
 1221 001e 9847     		blx	r3
 1222              	.LVL93:
 557:../../../../../../Middlewares/Third_Party/LoRaWAN/Mac/region/RegionIN865.c ****     }
 1223              		.loc 1 557 0
 1224 0020 0023     		movs	r3, #0
 555:../../../../../../Middlewares/Third_Party/LoRaWAN/Mac/region/RegionIN865.c ****     {
 1225              		.loc 1 555 0
 1226 0022 0028     		cmp	r0, #0
 1227 0024 3ED1     		bne	.L107
 560:../../../../../../Middlewares/Third_Party/LoRaWAN/Mac/region/RegionIN865.c ****     {
 1228              		.loc 1 560 0
 1229 0026 E37C     		ldrb	r3, [r4, #19]
 1230 0028 002B     		cmp	r3, #0
 1231 002a 0AD1     		bne	.L108
 563:../../../../../../Middlewares/Third_Party/LoRaWAN/Mac/region/RegionIN865.c ****         // Apply the alternative RX 1 window frequency, if it is available
 1232              		.loc 1 563 0
 1233 002c 2178     		ldrb	r1, [r4]
 1234 002e 324A     		ldr	r2, .L116+4
 1235 0030 4B00     		lsls	r3, r1, #1
 1236 0032 5B18     		adds	r3, r3, r1
 1237 0034 9B00     		lsls	r3, r3, #2
 1238 0036 9958     		ldr	r1, [r3, r2]
 1239              	.LVL94:
 565:../../../../../../Middlewares/Third_Party/LoRaWAN/Mac/region/RegionIN865.c ****         {
 1240              		.loc 1 565 0
 1241 0038 D318     		adds	r3, r2, r3
 1242 003a 5B68     		ldr	r3, [r3, #4]
 1243 003c 9846     		mov	r8, r3
 1244 003e 002B     		cmp	r3, #0
 1245 0040 56D0     		beq	.L114
 1246              	.LVL95:
 1247              	.L108:
ARM GAS  C:\Users\EBANO_~1\AppData\Local\Temp\ccEfOEMG.s 			page 43


 572:../../../../../../Middlewares/Third_Party/LoRaWAN/Mac/region/RegionIN865.c **** 
 1248              		.loc 1 572 0
 1249 0042 2022     		movs	r2, #32
 1250 0044 2D4B     		ldr	r3, .L116+8
 574:../../../../../../Middlewares/Third_Party/LoRaWAN/Mac/region/RegionIN865.c **** 
 1251              		.loc 1 574 0
 1252 0046 4046     		mov	r0, r8
 572:../../../../../../Middlewares/Third_Party/LoRaWAN/Mac/region/RegionIN865.c **** 
 1253              		.loc 1 572 0
 1254 0048 9B19     		adds	r3, r3, r6
 1255 004a 9B56     		ldrsb	r3, [r3, r2]
 1256 004c 9946     		mov	r9, r3
 1257              	.LVL96:
 574:../../../../../../Middlewares/Third_Party/LoRaWAN/Mac/region/RegionIN865.c **** 
 1258              		.loc 1 574 0
 1259 004e 6B69     		ldr	r3, [r5, #20]
 1260 0050 0B93     		str	r3, [sp, #44]
 1261 0052 9847     		blx	r3
 1262              	.LVL97:
 1263 0054 2B6A     		ldr	r3, [r5, #32]
 1264 0056 0B93     		str	r3, [sp, #44]
 1265 0058 1F00     		movs	r7, r3
 577:../../../../../../Middlewares/Third_Party/LoRaWAN/Mac/region/RegionIN865.c ****     {
 1266              		.loc 1 577 0
 1267 005a 072E     		cmp	r6, #7
 1268 005c 2CD0     		beq	.L115
 1269              	.LVL98:
 585:../../../../../../Middlewares/Third_Party/LoRaWAN/Mac/region/RegionIN865.c ****     }
 1270              		.loc 1 585 0
 1271 005e A37C     		ldrb	r3, [r4, #18]
 1272 0060 2289     		ldrh	r2, [r4, #8]
 1273 0062 0993     		str	r3, [sp, #36]
 1274 0064 0123     		movs	r3, #1
 1275 0066 0292     		str	r2, [sp, #8]
 1276 0068 0893     		str	r3, [sp, #32]
 1277 006a 0822     		movs	r2, #8
 1278 006c 0023     		movs	r3, #0
 1279 006e 0192     		str	r2, [sp, #4]
 1280 0070 0793     		str	r3, [sp, #28]
 1281 0072 0693     		str	r3, [sp, #24]
 1282 0074 0593     		str	r3, [sp, #20]
 1283 0076 0493     		str	r3, [sp, #16]
 1284 0078 0393     		str	r3, [sp, #12]
 1285 007a 0093     		str	r3, [sp]
 1286 007c 0120     		movs	r0, #1
 1287 007e A178     		ldrb	r1, [r4, #2]
 1288 0080 0133     		adds	r3, r3, #1
 1289 0082 4A46     		mov	r2, r9
 1290 0084 B847     		blx	r7
 1291              	.LVL99:
 584:../../../../../../Middlewares/Third_Party/LoRaWAN/Mac/region/RegionIN865.c ****         Radio.SetRxConfig( modem, rxConfig->Bandwidth, phyDr, 1, 0, 8, rxConfig->WindowTimeout, fal
 1292              		.loc 1 584 0
 1293 0086 0120     		movs	r0, #1
 1294              	.LVL100:
 1295              	.L110:
 588:../../../../../../Middlewares/Third_Party/LoRaWAN/Mac/region/RegionIN865.c ****     {
 1296              		.loc 1 588 0
ARM GAS  C:\Users\EBANO_~1\AppData\Local\Temp\ccEfOEMG.s 			page 44


 1297 0088 637C     		ldrb	r3, [r4, #17]
 1298 008a 002B     		cmp	r3, #0
 1299 008c 11D0     		beq	.L111
 590:../../../../../../Middlewares/Third_Party/LoRaWAN/Mac/region/RegionIN865.c ****     }
 1300              		.loc 1 590 0
 1301 008e 1C4B     		ldr	r3, .L116+12
 1302 0090 9B19     		adds	r3, r3, r6
 1303 0092 197A     		ldrb	r1, [r3, #8]
 1304              	.LVL101:
 1305              	.L112:
 596:../../../../../../Middlewares/Third_Party/LoRaWAN/Mac/region/RegionIN865.c ****     TVL1( PRINTF( "RX on freq %d Hz at DR %d\n\r", frequency, dr );)
 1306              		.loc 1 596 0
 1307 0094 EB6D     		ldr	r3, [r5, #92]
 1308 0096 0D31     		adds	r1, r1, #13
 1309              	.LVL102:
 1310 0098 C9B2     		uxtb	r1, r1
 1311 009a 0B93     		str	r3, [sp, #44]
 1312 009c 9847     		blx	r3
 1313              	.LVL103:
 599:../../../../../../Middlewares/Third_Party/LoRaWAN/Mac/region/RegionIN865.c ****     return true;
 1314              		.loc 1 599 0
 1315 009e 5346     		mov	r3, r10
 1316 00a0 1E70     		strb	r6, [r3]
 600:../../../../../../Middlewares/Third_Party/LoRaWAN/Mac/region/RegionIN865.c **** }
 1317              		.loc 1 600 0
 1318 00a2 0123     		movs	r3, #1
 1319              	.LVL104:
 1320              	.L107:
 601:../../../../../../Middlewares/Third_Party/LoRaWAN/Mac/region/RegionIN865.c **** 
 1321              		.loc 1 601 0
 1322 00a4 1800     		movs	r0, r3
 1323 00a6 0CB0     		add	sp, sp, #48
 1324              		@ sp needed
 1325              	.LVL105:
 1326              	.LVL106:
 1327              	.LVL107:
 1328              	.LVL108:
 1329 00a8 1CBC     		pop	{r2, r3, r4}
 1330 00aa 9046     		mov	r8, r2
 1331 00ac 9946     		mov	r9, r3
 1332 00ae A246     		mov	r10, r4
 1333 00b0 F0BD     		pop	{r4, r5, r6, r7, pc}
 1334              	.LVL109:
 1335              	.L111:
 594:../../../../../../Middlewares/Third_Party/LoRaWAN/Mac/region/RegionIN865.c ****     }
 1336              		.loc 1 594 0
 1337 00b2 134B     		ldr	r3, .L116+12
 1338 00b4 995D     		ldrb	r1, [r3, r6]
 1339              	.LVL110:
 1340 00b6 EDE7     		b	.L112
 1341              	.LVL111:
 1342              	.L115:
 580:../../../../../../Middlewares/Third_Party/LoRaWAN/Mac/region/RegionIN865.c ****     }
 1343              		.loc 1 580 0
 1344 00b8 4B46     		mov	r3, r9
 1345 00ba 5A01     		lsls	r2, r3, #5
 1346 00bc D21A     		subs	r2, r2, r3
ARM GAS  C:\Users\EBANO_~1\AppData\Local\Temp\ccEfOEMG.s 			page 45


 1347 00be A37C     		ldrb	r3, [r4, #18]
 1348 00c0 0121     		movs	r1, #1
 1349 00c2 0993     		str	r3, [sp, #36]
 1350 00c4 0023     		movs	r3, #0
 1351 00c6 0893     		str	r3, [sp, #32]
 1352 00c8 0793     		str	r3, [sp, #28]
 1353 00ca 0693     		str	r3, [sp, #24]
 1354 00cc 0493     		str	r3, [sp, #16]
 1355 00ce 0393     		str	r3, [sp, #12]
 1356 00d0 2389     		ldrh	r3, [r4, #8]
 1357 00d2 9200     		lsls	r2, r2, #2
 1358 00d4 0293     		str	r3, [sp, #8]
 1359 00d6 0523     		movs	r3, #5
 1360 00d8 0193     		str	r3, [sp, #4]
 1361 00da 0A4B     		ldr	r3, .L116+16
 1362 00dc 4A44     		add	r2, r2, r9
 1363 00de 0591     		str	r1, [sp, #20]
 1364 00e0 0093     		str	r3, [sp]
 1365 00e2 0020     		movs	r0, #0
 1366 00e4 D200     		lsls	r2, r2, #3
 1367 00e6 0023     		movs	r3, #0
 1368 00e8 0749     		ldr	r1, .L116+20
 1369 00ea B847     		blx	r7
 1370              	.LVL112:
 579:../../../../../../Middlewares/Third_Party/LoRaWAN/Mac/region/RegionIN865.c ****         Radio.SetRxConfig( modem, 50000, phyDr * 1000, 0, 83333, 5, rxConfig->WindowTimeout, false,
 1371              		.loc 1 579 0
 1372 00ec 0020     		movs	r0, #0
 1373 00ee CBE7     		b	.L110
 1374              	.LVL113:
 1375              	.L114:
 563:../../../../../../Middlewares/Third_Party/LoRaWAN/Mac/region/RegionIN865.c ****         // Apply the alternative RX 1 window frequency, if it is available
 1376              		.loc 1 563 0
 1377 00f0 8846     		mov	r8, r1
 1378 00f2 A6E7     		b	.L108
 1379              	.L117:
 1380              		.align	2
 1381              	.L116:
 1382 00f4 00000000 		.word	Radio
 1383 00f8 00000000 		.word	NvmCtx
 1384 00fc D8000000 		.word	.LANCHOR1
 1385 0100 08010000 		.word	.LANCHOR0
 1386 0104 85450100 		.word	83333
 1387 0108 50C30000 		.word	50000
 1388              		.cfi_endproc
 1389              	.LFE52:
 1390              		.size	RegionIN865RxConfig, .-RegionIN865RxConfig
 1391              		.section	.text.RegionIN865TxConfig,"ax",%progbits
 1392              		.align	1
 1393              		.p2align 2,,3
 1394              		.global	RegionIN865TxConfig
 1395              		.syntax unified
 1396              		.code	16
 1397              		.thumb_func
 1398              		.fpu softvfp
 1399              		.type	RegionIN865TxConfig, %function
 1400              	RegionIN865TxConfig:
 1401              	.LFB53:
ARM GAS  C:\Users\EBANO_~1\AppData\Local\Temp\ccEfOEMG.s 			page 46


 604:../../../../../../Middlewares/Third_Party/LoRaWAN/Mac/region/RegionIN865.c ****     RadioModems_t modem;
 1402              		.loc 1 604 0
 1403              		.cfi_startproc
 1404              		@ args = 0, pretend = 0, frame = 8
 1405              		@ frame_needed = 0, uses_anonymous_args = 0
 1406              	.LVL114:
 1407 0000 F0B5     		push	{r4, r5, r6, r7, lr}
 1408              	.LCFI16:
 1409              		.cfi_def_cfa_offset 20
 1410              		.cfi_offset 4, -20
 1411              		.cfi_offset 5, -16
 1412              		.cfi_offset 6, -12
 1413              		.cfi_offset 7, -8
 1414              		.cfi_offset 14, -4
 1415 0002 4546     		mov	r5, r8
 1416 0004 5746     		mov	r7, r10
 1417 0006 4E46     		mov	r6, r9
 1418 0008 DE46     		mov	lr, fp
 1419 000a 9046     		mov	r8, r2
 606:../../../../../../Middlewares/Third_Party/LoRaWAN/Mac/region/RegionIN865.c ****     int8_t txPowerLimited = LimitTxPower( txConfig->TxPower, NvmCtx.Bands[NvmCtx.Channels[txConfig-
 1420              		.loc 1 606 0
 1421 000c 0122     		movs	r2, #1
 1422              	.LVL115:
 604:../../../../../../Middlewares/Third_Party/LoRaWAN/Mac/region/RegionIN865.c ****     RadioModems_t modem;
 1423              		.loc 1 604 0
 1424 000e 0400     		movs	r4, r0
 606:../../../../../../Middlewares/Third_Party/LoRaWAN/Mac/region/RegionIN865.c ****     int8_t txPowerLimited = LimitTxPower( txConfig->TxPower, NvmCtx.Bands[NvmCtx.Channels[txConfig-
 1425              		.loc 1 606 0
 1426 0010 2023     		movs	r3, #32
 604:../../../../../../Middlewares/Third_Party/LoRaWAN/Mac/region/RegionIN865.c ****     RadioModems_t modem;
 1427              		.loc 1 604 0
 1428 0012 E0B5     		push	{r5, r6, r7, lr}
 1429              	.LCFI17:
 1430              		.cfi_def_cfa_offset 36
 1431              		.cfi_offset 8, -36
 1432              		.cfi_offset 9, -32
 1433              		.cfi_offset 10, -28
 1434              		.cfi_offset 11, -24
 1435 0014 8DB0     		sub	sp, sp, #52
 1436              	.LCFI18:
 1437              		.cfi_def_cfa_offset 88
 604:../../../../../../Middlewares/Third_Party/LoRaWAN/Mac/region/RegionIN865.c ****     RadioModems_t modem;
 1438              		.loc 1 604 0
 1439 0016 0A91     		str	r1, [sp, #40]
 606:../../../../../../Middlewares/Third_Party/LoRaWAN/Mac/region/RegionIN865.c ****     int8_t txPowerLimited = LimitTxPower( txConfig->TxPower, NvmCtx.Bands[NvmCtx.Channels[txConfig-
 1440              		.loc 1 606 0
 1441 0018 8256     		ldrsb	r2, [r0, r2]
 1442 001a 4149     		ldr	r1, .L127
 1443              	.LVL116:
 607:../../../../../../Middlewares/Third_Party/LoRaWAN/Mac/region/RegionIN865.c ****     uint32_t bandwidth = GetBandwidth( txConfig->Datarate );
 1444              		.loc 1 607 0
 1445 001c 414D     		ldr	r5, .L127+4
 606:../../../../../../Middlewares/Third_Party/LoRaWAN/Mac/region/RegionIN865.c ****     int8_t txPowerLimited = LimitTxPower( txConfig->TxPower, NvmCtx.Bands[NvmCtx.Channels[txConfig-
 1446              		.loc 1 606 0
 1447 001e 8818     		adds	r0, r1, r2
 1448              	.LVL117:
 1449 0020 C656     		ldrsb	r6, [r0, r3]
ARM GAS  C:\Users\EBANO_~1\AppData\Local\Temp\ccEfOEMG.s 			page 47


 1450              	.LVL118:
 607:../../../../../../Middlewares/Third_Party/LoRaWAN/Mac/region/RegionIN865.c ****     uint32_t bandwidth = GetBandwidth( txConfig->Datarate );
 1451              		.loc 1 607 0
 1452 0022 2078     		ldrb	r0, [r4]
 1453              	.LVL119:
 1454 0024 4300     		lsls	r3, r0, #1
 1455 0026 1B18     		adds	r3, r3, r0
 1456              	.LBB56:
 1457              	.LBB57:
 107:../../../../../../Middlewares/Third_Party/LoRaWAN/Mac/region/RegionIN865.c **** 
 1458              		.loc 1 107 0
 1459 0028 A078     		ldrb	r0, [r4, #2]
 1460              	.LVL120:
 1461              	.LBE57:
 1462              	.LBE56:
 607:../../../../../../Middlewares/Third_Party/LoRaWAN/Mac/region/RegionIN865.c ****     uint32_t bandwidth = GetBandwidth( txConfig->Datarate );
 1463              		.loc 1 607 0
 1464 002a 9B00     		lsls	r3, r3, #2
 1465              	.LBB62:
 1466              	.LBB58:
 107:../../../../../../Middlewares/Third_Party/LoRaWAN/Mac/region/RegionIN865.c **** 
 1467              		.loc 1 107 0
 1468 002c 8446     		mov	ip, r0
 1469 002e 6746     		mov	r7, ip
 1470              	.LBE58:
 1471              	.LBE62:
 607:../../../../../../Middlewares/Third_Party/LoRaWAN/Mac/region/RegionIN865.c ****     uint32_t bandwidth = GetBandwidth( txConfig->Datarate );
 1472              		.loc 1 607 0
 1473 0030 EB18     		adds	r3, r5, r3
 1474 0032 5B7A     		ldrb	r3, [r3, #9]
 1475              	.LBB63:
 1476              	.LBB59:
 107:../../../../../../Middlewares/Third_Party/LoRaWAN/Mac/region/RegionIN865.c **** 
 1477              		.loc 1 107 0
 1478 0034 7FB2     		sxtb	r7, r7
 1479              	.LBE59:
 1480              	.LBE63:
 607:../../../../../../Middlewares/Third_Party/LoRaWAN/Mac/region/RegionIN865.c ****     uint32_t bandwidth = GetBandwidth( txConfig->Datarate );
 1481              		.loc 1 607 0
 1482 0036 0C33     		adds	r3, r3, #12
 1483 0038 1B01     		lsls	r3, r3, #4
 1484 003a EB18     		adds	r3, r5, r3
 1485              	.LBB64:
 1486              	.LBB60:
 107:../../../../../../Middlewares/Third_Party/LoRaWAN/Mac/region/RegionIN865.c **** 
 1487              		.loc 1 107 0
 1488 003c 9B78     		ldrb	r3, [r3, #2]
 1489 003e 181C     		adds	r0, r3, #0
 1490 0040 5BB2     		sxtb	r3, r3
 1491 0042 BB42     		cmp	r3, r7
 1492 0044 00DA     		bge	.L119
 1493 0046 6046     		mov	r0, ip
 1494              	.L119:
 1495 0048 43B2     		sxtb	r3, r0
 1496              	.LBE60:
 1497              	.LBE64:
 1498              	.LBB65:
ARM GAS  C:\Users\EBANO_~1\AppData\Local\Temp\ccEfOEMG.s 			page 48


 1499              	.LBB66:
  90:../../../../../../Middlewares/Third_Party/LoRaWAN/Mac/region/RegionIN865.c ****     {
 1500              		.loc 1 90 0
 1501 004a 9200     		lsls	r2, r2, #2
 1502              	.LVL121:
 1503              	.LBE66:
 1504              	.LBE65:
 1505              	.LBB69:
 1506              	.LBB61:
 107:../../../../../../Middlewares/Third_Party/LoRaWAN/Mac/region/RegionIN865.c **** 
 1507              		.loc 1 107 0
 1508 004c 9946     		mov	r9, r3
 1509              	.LVL122:
 1510              	.LBE61:
 1511              	.LBE69:
 1512              	.LBB70:
 1513              	.LBB67:
  90:../../../../../../Middlewares/Third_Party/LoRaWAN/Mac/region/RegionIN865.c ****     {
 1514              		.loc 1 90 0
 1515 004e 8B58     		ldr	r3, [r1, r2]
 1516 0050 354A     		ldr	r2, .L127+8
 1517 0052 9342     		cmp	r3, r2
 1518 0054 46D0     		beq	.L125
  94:../../../../../../Middlewares/Third_Party/LoRaWAN/Mac/region/RegionIN865.c ****         case 250000:
 1519              		.loc 1 94 0
 1520 0056 354A     		ldr	r2, .L127+12
 1521 0058 9446     		mov	ip, r2
 1522 005a 6344     		add	r3, r3, ip
 1523 005c 5A42     		rsbs	r2, r3, #0
 1524 005e 5341     		adcs	r3, r3, r2
 1525 0060 5B00     		lsls	r3, r3, #1
 1526 0062 9A46     		mov	r10, r3
 1527              	.L121:
 1528              	.LVL123:
 1529              	.LBE67:
 1530              	.LBE70:
 612:../../../../../../Middlewares/Third_Party/LoRaWAN/Mac/region/RegionIN865.c **** 
 1531              		.loc 1 612 0
 1532 0064 A268     		ldr	r2, [r4, #8]
 1533 0066 6168     		ldr	r1, [r4, #4]
 1534 0068 4846     		mov	r0, r9
 1535 006a FFF7FEFF 		bl	RegionCommonComputeTxPower
 1536              	.LVL124:
 615:../../../../../../Middlewares/Third_Party/LoRaWAN/Mac/region/RegionIN865.c **** 
 1537              		.loc 1 615 0
 1538 006e 2278     		ldrb	r2, [r4]
 612:../../../../../../Middlewares/Third_Party/LoRaWAN/Mac/region/RegionIN865.c **** 
 1539              		.loc 1 612 0
 1540 0070 8346     		mov	fp, r0
 1541              	.LVL125:
 615:../../../../../../Middlewares/Third_Party/LoRaWAN/Mac/region/RegionIN865.c **** 
 1542              		.loc 1 615 0
 1543 0072 5300     		lsls	r3, r2, #1
 1544 0074 9B18     		adds	r3, r3, r2
 1545 0076 9B00     		lsls	r3, r3, #2
 1546 0078 E858     		ldr	r0, [r5, r3]
 1547 007a 2D4D     		ldr	r5, .L127+16
ARM GAS  C:\Users\EBANO_~1\AppData\Local\Temp\ccEfOEMG.s 			page 49


 1548 007c 6B69     		ldr	r3, [r5, #20]
 1549 007e 0B93     		str	r3, [sp, #44]
 1550 0080 9847     		blx	r3
 1551              	.LVL126:
 1552 0082 6B6A     		ldr	r3, [r5, #36]
 1553 0084 0B93     		str	r3, [sp, #44]
 617:../../../../../../Middlewares/Third_Party/LoRaWAN/Mac/region/RegionIN865.c ****     { // High Speed FSK channel
 1554              		.loc 1 617 0
 1555 0086 0123     		movs	r3, #1
 1556 0088 E356     		ldrsb	r3, [r4, r3]
 1557 008a 072B     		cmp	r3, #7
 1558 008c 2DD0     		beq	.L126
 1559              	.LVL127:
 625:../../../../../../Middlewares/Third_Party/LoRaWAN/Mac/region/RegionIN865.c ****     }
 1560              		.loc 1 625 0
 1561 008e 294B     		ldr	r3, .L127+20
 1562 0090 0122     		movs	r2, #1
 1563 0092 0893     		str	r3, [sp, #32]
 1564 0094 0023     		movs	r3, #0
 1565 0096 0793     		str	r3, [sp, #28]
 1566 0098 0693     		str	r3, [sp, #24]
 1567 009a 0593     		str	r3, [sp, #20]
 1568 009c 0393     		str	r3, [sp, #12]
 1569 009e 0833     		adds	r3, r3, #8
 1570 00a0 0492     		str	r2, [sp, #16]
 1571 00a2 0293     		str	r3, [sp, #8]
 1572 00a4 0192     		str	r2, [sp, #4]
 1573 00a6 0096     		str	r6, [sp]
 1574 00a8 5346     		mov	r3, r10
 1575 00aa 0B9E     		ldr	r6, [sp, #44]
 1576              	.LVL128:
 1577 00ac 0022     		movs	r2, #0
 1578 00ae 5946     		mov	r1, fp
 1579 00b0 0120     		movs	r0, #1
 1580 00b2 B047     		blx	r6
 1581              	.LVL129:
 624:../../../../../../Middlewares/Third_Party/LoRaWAN/Mac/region/RegionIN865.c ****         Radio.SetTxConfig( modem, phyTxPower, 0, bandwidth, phyDr, 1, 8, false, true, 0, 0, false, 
 1582              		.loc 1 624 0
 1583 00b4 0126     		movs	r6, #1
 1584              	.LVL130:
 1585              	.L124:
 630:../../../../../../Middlewares/Third_Party/LoRaWAN/Mac/region/RegionIN865.c ****     // Get the time-on-air of the next tx frame
 1586              		.loc 1 630 0
 1587 00b6 EB6D     		ldr	r3, [r5, #92]
 1588 00b8 217B     		ldrb	r1, [r4, #12]
 1589 00ba 3000     		movs	r0, r6
 1590 00bc 0B93     		str	r3, [sp, #44]
 1591 00be 9847     		blx	r3
 1592              	.LVL131:
 632:../../../../../../Middlewares/Third_Party/LoRaWAN/Mac/region/RegionIN865.c **** 
 1593              		.loc 1 632 0
 1594 00c0 EB6A     		ldr	r3, [r5, #44]
 1595 00c2 217B     		ldrb	r1, [r4, #12]
 1596 00c4 3000     		movs	r0, r6
 1597 00c6 0B93     		str	r3, [sp, #44]
 1598 00c8 9847     		blx	r3
 1599              	.LVL132:
ARM GAS  C:\Users\EBANO_~1\AppData\Local\Temp\ccEfOEMG.s 			page 50


 1600 00ca 4346     		mov	r3, r8
 1601 00cc 1860     		str	r0, [r3]
 634:../../../../../../Middlewares/Third_Party/LoRaWAN/Mac/region/RegionIN865.c ****     return true;
 1602              		.loc 1 634 0
 1603 00ce 4B46     		mov	r3, r9
 636:../../../../../../Middlewares/Third_Party/LoRaWAN/Mac/region/RegionIN865.c **** 
 1604              		.loc 1 636 0
 1605 00d0 0120     		movs	r0, #1
 634:../../../../../../Middlewares/Third_Party/LoRaWAN/Mac/region/RegionIN865.c ****     return true;
 1606              		.loc 1 634 0
 1607 00d2 0A9A     		ldr	r2, [sp, #40]
 1608 00d4 1370     		strb	r3, [r2]
 636:../../../../../../Middlewares/Third_Party/LoRaWAN/Mac/region/RegionIN865.c **** 
 1609              		.loc 1 636 0
 1610 00d6 0DB0     		add	sp, sp, #52
 1611              		@ sp needed
 1612              	.LVL133:
 1613              	.LVL134:
 1614              	.LVL135:
 1615              	.LVL136:
 1616 00d8 3CBC     		pop	{r2, r3, r4, r5}
 1617 00da 9046     		mov	r8, r2
 1618 00dc 9946     		mov	r9, r3
 1619 00de A246     		mov	r10, r4
 1620 00e0 AB46     		mov	fp, r5
 1621 00e2 F0BD     		pop	{r4, r5, r6, r7, pc}
 1622              	.LVL137:
 1623              	.L125:
 1624              	.LBB71:
 1625              	.LBB68:
  96:../../../../../../Middlewares/Third_Party/LoRaWAN/Mac/region/RegionIN865.c ****         case 500000:
 1626              		.loc 1 96 0
 1627 00e4 0123     		movs	r3, #1
 1628              	.LVL138:
 1629 00e6 9A46     		mov	r10, r3
 1630 00e8 BCE7     		b	.L121
 1631              	.LVL139:
 1632              	.L126:
 1633              	.LBE68:
 1634              	.LBE71:
 620:../../../../../../Middlewares/Third_Party/LoRaWAN/Mac/region/RegionIN865.c ****     }
 1635              		.loc 1 620 0
 1636 00ea 124B     		ldr	r3, .L127+20
 1637 00ec 0122     		movs	r2, #1
 1638 00ee 0893     		str	r3, [sp, #32]
 1639 00f0 0023     		movs	r3, #0
 1640 00f2 0793     		str	r3, [sp, #28]
 1641 00f4 0693     		str	r3, [sp, #24]
 1642 00f6 0593     		str	r3, [sp, #20]
 1643 00f8 0393     		str	r3, [sp, #12]
 1644 00fa 0193     		str	r3, [sp, #4]
 1645 00fc 7301     		lsls	r3, r6, #5
 1646 00fe 9B1B     		subs	r3, r3, r6
 1647 0100 9B00     		lsls	r3, r3, #2
 1648 0102 9E19     		adds	r6, r3, r6
 1649              	.LVL140:
 1650 0104 0492     		str	r2, [sp, #16]
ARM GAS  C:\Users\EBANO_~1\AppData\Local\Temp\ccEfOEMG.s 			page 51


 1651 0106 F600     		lsls	r6, r6, #3
 1652 0108 0432     		adds	r2, r2, #4
 1653 010a 0292     		str	r2, [sp, #8]
 1654 010c 0096     		str	r6, [sp]
 1655 010e 5346     		mov	r3, r10
 1656 0110 0B9E     		ldr	r6, [sp, #44]
 1657 0112 094A     		ldr	r2, .L127+24
 1658 0114 5946     		mov	r1, fp
 1659 0116 0020     		movs	r0, #0
 1660 0118 B047     		blx	r6
 1661              	.LVL141:
 619:../../../../../../Middlewares/Third_Party/LoRaWAN/Mac/region/RegionIN865.c ****         Radio.SetTxConfig( modem, phyTxPower, 25000, bandwidth, phyDr * 1000, 0, 5, false, true, 0,
 1662              		.loc 1 619 0
 1663 011a 0026     		movs	r6, #0
 1664 011c CBE7     		b	.L124
 1665              	.L128:
 1666 011e C046     		.align	2
 1667              	.L127:
 1668 0120 D8000000 		.word	.LANCHOR1
 1669 0124 00000000 		.word	NvmCtx
 1670 0128 90D00300 		.word	250000
 1671 012c E05EF8FF 		.word	-500000
 1672 0130 00000000 		.word	Radio
 1673 0134 B80B0000 		.word	3000
 1674 0138 A8610000 		.word	25000
 1675              		.cfi_endproc
 1676              	.LFE53:
 1677              		.size	RegionIN865TxConfig, .-RegionIN865TxConfig
 1678              		.section	.text.RegionIN865LinkAdrReq,"ax",%progbits
 1679              		.align	1
 1680              		.p2align 2,,3
 1681              		.global	RegionIN865LinkAdrReq
 1682              		.syntax unified
 1683              		.code	16
 1684              		.thumb_func
 1685              		.fpu softvfp
 1686              		.type	RegionIN865LinkAdrReq, %function
 1687              	RegionIN865LinkAdrReq:
 1688              	.LFB54:
 639:../../../../../../Middlewares/Third_Party/LoRaWAN/Mac/region/RegionIN865.c ****     uint8_t status = 0x07;
 1689              		.loc 1 639 0
 1690              		.cfi_startproc
 1691              		@ args = 4, pretend = 0, frame = 56
 1692              		@ frame_needed = 0, uses_anonymous_args = 0
 1693              	.LVL142:
 1694 0000 F0B5     		push	{r4, r5, r6, r7, lr}
 1695              	.LCFI19:
 1696              		.cfi_def_cfa_offset 20
 1697              		.cfi_offset 4, -20
 1698              		.cfi_offset 5, -16
 1699              		.cfi_offset 6, -12
 1700              		.cfi_offset 7, -8
 1701              		.cfi_offset 14, -4
 1702 0002 4E46     		mov	r6, r9
 1703 0004 4546     		mov	r5, r8
 1704 0006 DE46     		mov	lr, fp
 1705 0008 5746     		mov	r7, r10
ARM GAS  C:\Users\EBANO_~1\AppData\Local\Temp\ccEfOEMG.s 			page 52


 1706 000a E0B5     		push	{r5, r6, r7, lr}
 1707              	.LCFI20:
 1708              		.cfi_def_cfa_offset 36
 1709              		.cfi_offset 8, -36
 1710              		.cfi_offset 9, -32
 1711              		.cfi_offset 10, -28
 1712              		.cfi_offset 11, -24
 1713 000c 8FB0     		sub	sp, sp, #60
 1714              	.LCFI21:
 1715              		.cfi_def_cfa_offset 96
 639:../../../../../../Middlewares/Third_Party/LoRaWAN/Mac/region/RegionIN865.c ****     uint8_t status = 0x07;
 1716              		.loc 1 639 0
 1717 000e 0193     		str	r3, [sp, #4]
 644:../../../../../../Middlewares/Third_Party/LoRaWAN/Mac/region/RegionIN865.c ****     GetPhyParams_t getPhy;
 1718              		.loc 1 644 0
 1719 0010 02AB     		add	r3, sp, #8
 1720              	.LVL143:
 639:../../../../../../Middlewares/Third_Party/LoRaWAN/Mac/region/RegionIN865.c ****     uint8_t status = 0x07;
 1721              		.loc 1 639 0
 1722 0012 9246     		mov	r10, r2
 644:../../../../../../Middlewares/Third_Party/LoRaWAN/Mac/region/RegionIN865.c ****     GetPhyParams_t getPhy;
 1723              		.loc 1 644 0
 1724 0014 9A1D     		adds	r2, r3, #6
 1725              	.LVL144:
 1726 0016 0023     		movs	r3, #0
 1727 0018 1380     		strh	r3, [r2]
 640:../../../../../../Middlewares/Third_Party/LoRaWAN/Mac/region/RegionIN865.c ****     RegionCommonLinkAdrParams_t linkAdrParams;
 1728              		.loc 1 640 0
 1729 001a 0733     		adds	r3, r3, #7
 1730 001c 9846     		mov	r8, r3
 1731              	.LBB77:
 683:../../../../../../Middlewares/Third_Party/LoRaWAN/Mac/region/RegionIN865.c ****                     {
 1732              		.loc 1 683 0
 1733 001e A74B     		ldr	r3, .L288
 1734              	.LBE77:
 639:../../../../../../Middlewares/Third_Party/LoRaWAN/Mac/region/RegionIN865.c ****     uint8_t status = 0x07;
 1735              		.loc 1 639 0
 1736 0020 0600     		movs	r6, r0
 1737 0022 8B46     		mov	fp, r1
 643:../../../../../../Middlewares/Third_Party/LoRaWAN/Mac/region/RegionIN865.c ****     uint16_t chMask = 0;
 1738              		.loc 1 643 0
 1739 0024 0024     		movs	r4, #0
 1740              	.LBB78:
 683:../../../../../../Middlewares/Third_Party/LoRaWAN/Mac/region/RegionIN865.c ****                     {
 1741              		.loc 1 683 0
 1742 0026 9946     		mov	r9, r3
 1743              	.LBE78:
 644:../../../../../../Middlewares/Third_Party/LoRaWAN/Mac/region/RegionIN865.c ****     GetPhyParams_t getPhy;
 1744              		.loc 1 644 0
 1745 0028 0092     		str	r2, [sp]
 1746 002a 04AD     		add	r5, sp, #16
 1747              	.LVL145:
 1748              	.L130:
 649:../../../../../../Middlewares/Third_Party/LoRaWAN/Mac/region/RegionIN865.c ****     {
 1749              		.loc 1 649 0
 1750 002c 337A     		ldrb	r3, [r6, #8]
 1751 002e A342     		cmp	r3, r4
ARM GAS  C:\Users\EBANO_~1\AppData\Local\Temp\ccEfOEMG.s 			page 53


 1752 0030 00D8     		bhi	.LCB1612
 1753 0032 A3E0     		b	.L175	@long jump
 1754              	.LCB1612:
 1755              	.L174:
 652:../../../../../../Middlewares/Third_Party/LoRaWAN/Mac/region/RegionIN865.c **** 
 1756              		.loc 1 652 0
 1757 0034 7368     		ldr	r3, [r6, #4]
 1758 0036 2900     		movs	r1, r5
 1759 0038 1819     		adds	r0, r3, r4
 1760 003a FFF7FEFF 		bl	RegionCommonParseLinkAdrReq
 1761              	.LVL146:
 654:../../../../../../Middlewares/Third_Party/LoRaWAN/Mac/region/RegionIN865.c ****             break; // break loop, since no more request has been found
 1762              		.loc 1 654 0
 1763 003e 0028     		cmp	r0, #0
 1764 0040 00D1     		bne	.LCB1624
 1765 0042 9BE0     		b	.L175	@long jump
 1766              	.LCB1624:
 664:../../../../../../Middlewares/Third_Party/LoRaWAN/Mac/region/RegionIN865.c **** 
 1767              		.loc 1 664 0
 1768 0044 AB88     		ldrh	r3, [r5, #4]
 1769 0046 009A     		ldr	r2, [sp]
 658:../../../../../../Middlewares/Third_Party/LoRaWAN/Mac/region/RegionIN865.c **** 
 1770              		.loc 1 658 0
 1771 0048 2418     		adds	r4, r4, r0
 1772              	.LVL147:
 664:../../../../../../Middlewares/Third_Party/LoRaWAN/Mac/region/RegionIN865.c **** 
 1773              		.loc 1 664 0
 1774 004a 1380     		strh	r3, [r2]
 667:../../../../../../Middlewares/Third_Party/LoRaWAN/Mac/region/RegionIN865.c ****         {
 1775              		.loc 1 667 0
 1776 004c EA78     		ldrb	r2, [r5, #3]
 658:../../../../../../Middlewares/Third_Party/LoRaWAN/Mac/region/RegionIN865.c **** 
 1777              		.loc 1 658 0
 1778 004e E4B2     		uxtb	r4, r4
 1779              	.LVL148:
 664:../../../../../../Middlewares/Third_Party/LoRaWAN/Mac/region/RegionIN865.c **** 
 1780              		.loc 1 664 0
 1781 0050 181C     		adds	r0, r3, #0
 1782              	.LVL149:
 667:../../../../../../Middlewares/Third_Party/LoRaWAN/Mac/region/RegionIN865.c ****         {
 1783              		.loc 1 667 0
 1784 0052 002A     		cmp	r2, #0
 1785 0054 00D0     		beq	.LCB1637
 1786 0056 ACE0     		b	.L134	@long jump
 1787              	.LCB1637:
 669:../../../../../../Middlewares/Third_Party/LoRaWAN/Mac/region/RegionIN865.c ****         }
 1788              		.loc 1 669 0 discriminator 1
 1789 0058 0632     		adds	r2, r2, #6
 1790 005a 9046     		mov	r8, r2
 667:../../../../../../Middlewares/Third_Party/LoRaWAN/Mac/region/RegionIN865.c ****         {
 1791              		.loc 1 667 0 discriminator 1
 1792 005c 002B     		cmp	r3, #0
 1793 005e E5D0     		beq	.L130
 1794              	.LVL150:
 1795              	.LBB79:
 690:../../../../../../Middlewares/Third_Party/LoRaWAN/Mac/region/RegionIN865.c ****                         ( NvmCtx.Channels[i].Frequency == 0 ) )
 1796              		.loc 1 690 0
ARM GAS  C:\Users\EBANO_~1\AppData\Local\Temp\ccEfOEMG.s 			page 54


 1797 0060 0722     		movs	r2, #7
 1798 0062 9046     		mov	r8, r2
 1799 0064 DA07     		lsls	r2, r3, #31
 1800 0066 05D5     		bpl	.L138
 691:../../../../../../Middlewares/Third_Party/LoRaWAN/Mac/region/RegionIN865.c ****                     {// Trying to enable an undefined channel
 1801              		.loc 1 691 0
 1802 0068 944A     		ldr	r2, .L288
 690:../../../../../../Middlewares/Third_Party/LoRaWAN/Mac/region/RegionIN865.c ****                         ( NvmCtx.Channels[i].Frequency == 0 ) )
 1803              		.loc 1 690 0
 1804 006a 1268     		ldr	r2, [r2]
 1805 006c 511E     		subs	r1, r2, #1
 1806 006e 8A41     		sbcs	r2, r2, r1
 1807 0070 0632     		adds	r2, r2, #6
 1808 0072 9046     		mov	r8, r2
 1809              	.L138:
 1810              	.LVL151:
 1811 0074 9A07     		lsls	r2, r3, #30
 1812 0076 05D5     		bpl	.L139
 691:../../../../../../Middlewares/Third_Party/LoRaWAN/Mac/region/RegionIN865.c ****                     {// Trying to enable an undefined channel
 1813              		.loc 1 691 0
 1814 0078 904A     		ldr	r2, .L288
 690:../../../../../../Middlewares/Third_Party/LoRaWAN/Mac/region/RegionIN865.c ****                         ( NvmCtx.Channels[i].Frequency == 0 ) )
 1815              		.loc 1 690 0
 1816 007a D268     		ldr	r2, [r2, #12]
 1817 007c 002A     		cmp	r2, #0
 1818 007e 01D1     		bne	.L139
 693:../../../../../../Middlewares/Third_Party/LoRaWAN/Mac/region/RegionIN865.c ****                     }
 1819              		.loc 1 693 0
 1820 0080 0632     		adds	r2, r2, #6
 1821 0082 9046     		mov	r8, r2
 1822              	.LVL152:
 1823              	.L139:
 690:../../../../../../Middlewares/Third_Party/LoRaWAN/Mac/region/RegionIN865.c ****                         ( NvmCtx.Channels[i].Frequency == 0 ) )
 1824              		.loc 1 690 0
 1825 0084 5A07     		lsls	r2, r3, #29
 1826 0086 05D5     		bpl	.L140
 691:../../../../../../Middlewares/Third_Party/LoRaWAN/Mac/region/RegionIN865.c ****                     {// Trying to enable an undefined channel
 1827              		.loc 1 691 0
 1828 0088 8C4A     		ldr	r2, .L288
 690:../../../../../../Middlewares/Third_Party/LoRaWAN/Mac/region/RegionIN865.c ****                         ( NvmCtx.Channels[i].Frequency == 0 ) )
 1829              		.loc 1 690 0
 1830 008a 9269     		ldr	r2, [r2, #24]
 1831 008c 002A     		cmp	r2, #0
 1832 008e 01D1     		bne	.L140
 693:../../../../../../Middlewares/Third_Party/LoRaWAN/Mac/region/RegionIN865.c ****                     }
 1833              		.loc 1 693 0
 1834 0090 0632     		adds	r2, r2, #6
 1835 0092 9046     		mov	r8, r2
 1836              	.LVL153:
 1837              	.L140:
 690:../../../../../../Middlewares/Third_Party/LoRaWAN/Mac/region/RegionIN865.c ****                         ( NvmCtx.Channels[i].Frequency == 0 ) )
 1838              		.loc 1 690 0
 1839 0094 1A07     		lsls	r2, r3, #28
 1840 0096 05D5     		bpl	.L141
 691:../../../../../../Middlewares/Third_Party/LoRaWAN/Mac/region/RegionIN865.c ****                     {// Trying to enable an undefined channel
 1841              		.loc 1 691 0
 1842 0098 884A     		ldr	r2, .L288
ARM GAS  C:\Users\EBANO_~1\AppData\Local\Temp\ccEfOEMG.s 			page 55


 690:../../../../../../Middlewares/Third_Party/LoRaWAN/Mac/region/RegionIN865.c ****                         ( NvmCtx.Channels[i].Frequency == 0 ) )
 1843              		.loc 1 690 0
 1844 009a 526A     		ldr	r2, [r2, #36]
 1845 009c 002A     		cmp	r2, #0
 1846 009e 01D1     		bne	.L141
 693:../../../../../../Middlewares/Third_Party/LoRaWAN/Mac/region/RegionIN865.c ****                     }
 1847              		.loc 1 693 0
 1848 00a0 0632     		adds	r2, r2, #6
 1849 00a2 9046     		mov	r8, r2
 1850              	.LVL154:
 1851              	.L141:
 690:../../../../../../Middlewares/Third_Party/LoRaWAN/Mac/region/RegionIN865.c ****                         ( NvmCtx.Channels[i].Frequency == 0 ) )
 1852              		.loc 1 690 0
 1853 00a4 DA06     		lsls	r2, r3, #27
 1854 00a6 05D5     		bpl	.L142
 691:../../../../../../Middlewares/Third_Party/LoRaWAN/Mac/region/RegionIN865.c ****                     {// Trying to enable an undefined channel
 1855              		.loc 1 691 0
 1856 00a8 844A     		ldr	r2, .L288
 690:../../../../../../Middlewares/Third_Party/LoRaWAN/Mac/region/RegionIN865.c ****                         ( NvmCtx.Channels[i].Frequency == 0 ) )
 1857              		.loc 1 690 0
 1858 00aa 126B     		ldr	r2, [r2, #48]
 1859 00ac 002A     		cmp	r2, #0
 1860 00ae 01D1     		bne	.L142
 693:../../../../../../Middlewares/Third_Party/LoRaWAN/Mac/region/RegionIN865.c ****                     }
 1861              		.loc 1 693 0
 1862 00b0 0632     		adds	r2, r2, #6
 1863 00b2 9046     		mov	r8, r2
 1864              	.LVL155:
 1865              	.L142:
 690:../../../../../../Middlewares/Third_Party/LoRaWAN/Mac/region/RegionIN865.c ****                         ( NvmCtx.Channels[i].Frequency == 0 ) )
 1866              		.loc 1 690 0
 1867 00b4 9A06     		lsls	r2, r3, #26
 1868 00b6 05D5     		bpl	.L143
 691:../../../../../../Middlewares/Third_Party/LoRaWAN/Mac/region/RegionIN865.c ****                     {// Trying to enable an undefined channel
 1869              		.loc 1 691 0
 1870 00b8 804A     		ldr	r2, .L288
 690:../../../../../../Middlewares/Third_Party/LoRaWAN/Mac/region/RegionIN865.c ****                         ( NvmCtx.Channels[i].Frequency == 0 ) )
 1871              		.loc 1 690 0
 1872 00ba D26B     		ldr	r2, [r2, #60]
 1873 00bc 002A     		cmp	r2, #0
 1874 00be 01D1     		bne	.L143
 693:../../../../../../Middlewares/Third_Party/LoRaWAN/Mac/region/RegionIN865.c ****                     }
 1875              		.loc 1 693 0
 1876 00c0 0632     		adds	r2, r2, #6
 1877 00c2 9046     		mov	r8, r2
 1878              	.LVL156:
 1879              	.L143:
 690:../../../../../../Middlewares/Third_Party/LoRaWAN/Mac/region/RegionIN865.c ****                         ( NvmCtx.Channels[i].Frequency == 0 ) )
 1880              		.loc 1 690 0
 1881 00c4 5A06     		lsls	r2, r3, #25
 1882 00c6 05D5     		bpl	.L144
 691:../../../../../../Middlewares/Third_Party/LoRaWAN/Mac/region/RegionIN865.c ****                     {// Trying to enable an undefined channel
 1883              		.loc 1 691 0
 1884 00c8 7C4A     		ldr	r2, .L288
 690:../../../../../../Middlewares/Third_Party/LoRaWAN/Mac/region/RegionIN865.c ****                         ( NvmCtx.Channels[i].Frequency == 0 ) )
 1885              		.loc 1 690 0
 1886 00ca 926C     		ldr	r2, [r2, #72]
ARM GAS  C:\Users\EBANO_~1\AppData\Local\Temp\ccEfOEMG.s 			page 56


 1887 00cc 002A     		cmp	r2, #0
 1888 00ce 01D1     		bne	.L144
 693:../../../../../../Middlewares/Third_Party/LoRaWAN/Mac/region/RegionIN865.c ****                     }
 1889              		.loc 1 693 0
 1890 00d0 0632     		adds	r2, r2, #6
 1891 00d2 9046     		mov	r8, r2
 1892              	.LVL157:
 1893              	.L144:
 690:../../../../../../Middlewares/Third_Party/LoRaWAN/Mac/region/RegionIN865.c ****                         ( NvmCtx.Channels[i].Frequency == 0 ) )
 1894              		.loc 1 690 0
 1895 00d4 1A06     		lsls	r2, r3, #24
 1896 00d6 05D5     		bpl	.L145
 691:../../../../../../Middlewares/Third_Party/LoRaWAN/Mac/region/RegionIN865.c ****                     {// Trying to enable an undefined channel
 1897              		.loc 1 691 0
 1898 00d8 784A     		ldr	r2, .L288
 690:../../../../../../Middlewares/Third_Party/LoRaWAN/Mac/region/RegionIN865.c ****                         ( NvmCtx.Channels[i].Frequency == 0 ) )
 1899              		.loc 1 690 0
 1900 00da 526D     		ldr	r2, [r2, #84]
 1901 00dc 002A     		cmp	r2, #0
 1902 00de 01D1     		bne	.L145
 693:../../../../../../Middlewares/Third_Party/LoRaWAN/Mac/region/RegionIN865.c ****                     }
 1903              		.loc 1 693 0
 1904 00e0 0632     		adds	r2, r2, #6
 1905 00e2 9046     		mov	r8, r2
 1906              	.LVL158:
 1907              	.L145:
 690:../../../../../../Middlewares/Third_Party/LoRaWAN/Mac/region/RegionIN865.c ****                         ( NvmCtx.Channels[i].Frequency == 0 ) )
 1908              		.loc 1 690 0
 1909 00e4 DA05     		lsls	r2, r3, #23
 1910 00e6 05D5     		bpl	.L146
 691:../../../../../../Middlewares/Third_Party/LoRaWAN/Mac/region/RegionIN865.c ****                     {// Trying to enable an undefined channel
 1911              		.loc 1 691 0
 1912 00e8 744A     		ldr	r2, .L288
 690:../../../../../../Middlewares/Third_Party/LoRaWAN/Mac/region/RegionIN865.c ****                         ( NvmCtx.Channels[i].Frequency == 0 ) )
 1913              		.loc 1 690 0
 1914 00ea 126E     		ldr	r2, [r2, #96]
 1915 00ec 002A     		cmp	r2, #0
 1916 00ee 01D1     		bne	.L146
 693:../../../../../../Middlewares/Third_Party/LoRaWAN/Mac/region/RegionIN865.c ****                     }
 1917              		.loc 1 693 0
 1918 00f0 0632     		adds	r2, r2, #6
 1919 00f2 9046     		mov	r8, r2
 1920              	.LVL159:
 1921              	.L146:
 690:../../../../../../Middlewares/Third_Party/LoRaWAN/Mac/region/RegionIN865.c ****                         ( NvmCtx.Channels[i].Frequency == 0 ) )
 1922              		.loc 1 690 0
 1923 00f4 9A05     		lsls	r2, r3, #22
 1924 00f6 05D5     		bpl	.L147
 691:../../../../../../Middlewares/Third_Party/LoRaWAN/Mac/region/RegionIN865.c ****                     {// Trying to enable an undefined channel
 1925              		.loc 1 691 0
 1926 00f8 704A     		ldr	r2, .L288
 690:../../../../../../Middlewares/Third_Party/LoRaWAN/Mac/region/RegionIN865.c ****                         ( NvmCtx.Channels[i].Frequency == 0 ) )
 1927              		.loc 1 690 0
 1928 00fa D26E     		ldr	r2, [r2, #108]
 1929 00fc 002A     		cmp	r2, #0
 1930 00fe 01D1     		bne	.L147
 693:../../../../../../Middlewares/Third_Party/LoRaWAN/Mac/region/RegionIN865.c ****                     }
ARM GAS  C:\Users\EBANO_~1\AppData\Local\Temp\ccEfOEMG.s 			page 57


 1931              		.loc 1 693 0
 1932 0100 0632     		adds	r2, r2, #6
 1933 0102 9046     		mov	r8, r2
 1934              	.LVL160:
 1935              	.L147:
 690:../../../../../../Middlewares/Third_Party/LoRaWAN/Mac/region/RegionIN865.c ****                         ( NvmCtx.Channels[i].Frequency == 0 ) )
 1936              		.loc 1 690 0
 1937 0104 5A05     		lsls	r2, r3, #21
 1938 0106 05D5     		bpl	.L148
 691:../../../../../../Middlewares/Third_Party/LoRaWAN/Mac/region/RegionIN865.c ****                     {// Trying to enable an undefined channel
 1939              		.loc 1 691 0
 1940 0108 6C4A     		ldr	r2, .L288
 690:../../../../../../Middlewares/Third_Party/LoRaWAN/Mac/region/RegionIN865.c ****                         ( NvmCtx.Channels[i].Frequency == 0 ) )
 1941              		.loc 1 690 0
 1942 010a 926F     		ldr	r2, [r2, #120]
 1943 010c 002A     		cmp	r2, #0
 1944 010e 01D1     		bne	.L148
 693:../../../../../../Middlewares/Third_Party/LoRaWAN/Mac/region/RegionIN865.c ****                     }
 1945              		.loc 1 693 0
 1946 0110 0632     		adds	r2, r2, #6
 1947 0112 9046     		mov	r8, r2
 1948              	.LVL161:
 1949              	.L148:
 690:../../../../../../Middlewares/Third_Party/LoRaWAN/Mac/region/RegionIN865.c ****                         ( NvmCtx.Channels[i].Frequency == 0 ) )
 1950              		.loc 1 690 0
 1951 0114 1A05     		lsls	r2, r3, #20
 1952 0116 06D5     		bpl	.L149
 1953 0118 8422     		movs	r2, #132
 1954 011a 6849     		ldr	r1, .L288
 1955 011c 8A58     		ldr	r2, [r1, r2]
 1956 011e 002A     		cmp	r2, #0
 1957 0120 01D1     		bne	.L149
 693:../../../../../../Middlewares/Third_Party/LoRaWAN/Mac/region/RegionIN865.c ****                     }
 1958              		.loc 1 693 0
 1959 0122 0632     		adds	r2, r2, #6
 1960 0124 9046     		mov	r8, r2
 1961              	.LVL162:
 1962              	.L149:
 690:../../../../../../Middlewares/Third_Party/LoRaWAN/Mac/region/RegionIN865.c ****                         ( NvmCtx.Channels[i].Frequency == 0 ) )
 1963              		.loc 1 690 0
 1964 0126 DA04     		lsls	r2, r3, #19
 1965 0128 06D5     		bpl	.L150
 1966 012a 9022     		movs	r2, #144
 1967 012c 6349     		ldr	r1, .L288
 1968 012e 8A58     		ldr	r2, [r1, r2]
 1969 0130 002A     		cmp	r2, #0
 1970 0132 01D1     		bne	.L150
 693:../../../../../../Middlewares/Third_Party/LoRaWAN/Mac/region/RegionIN865.c ****                     }
 1971              		.loc 1 693 0
 1972 0134 0632     		adds	r2, r2, #6
 1973 0136 9046     		mov	r8, r2
 1974              	.LVL163:
 1975              	.L150:
 690:../../../../../../Middlewares/Third_Party/LoRaWAN/Mac/region/RegionIN865.c ****                         ( NvmCtx.Channels[i].Frequency == 0 ) )
 1976              		.loc 1 690 0
 1977 0138 9A04     		lsls	r2, r3, #18
 1978 013a 06D5     		bpl	.L151
ARM GAS  C:\Users\EBANO_~1\AppData\Local\Temp\ccEfOEMG.s 			page 58


 1979 013c 9C22     		movs	r2, #156
 1980 013e 5F49     		ldr	r1, .L288
 1981 0140 8A58     		ldr	r2, [r1, r2]
 1982 0142 002A     		cmp	r2, #0
 1983 0144 01D1     		bne	.L151
 693:../../../../../../Middlewares/Third_Party/LoRaWAN/Mac/region/RegionIN865.c ****                     }
 1984              		.loc 1 693 0
 1985 0146 0632     		adds	r2, r2, #6
 1986 0148 9046     		mov	r8, r2
 1987              	.LVL164:
 1988              	.L151:
 690:../../../../../../Middlewares/Third_Party/LoRaWAN/Mac/region/RegionIN865.c ****                         ( NvmCtx.Channels[i].Frequency == 0 ) )
 1989              		.loc 1 690 0
 1990 014a 5A04     		lsls	r2, r3, #17
 1991 014c 06D5     		bpl	.L152
 1992 014e A822     		movs	r2, #168
 1993 0150 5A49     		ldr	r1, .L288
 1994 0152 8A58     		ldr	r2, [r1, r2]
 1995 0154 002A     		cmp	r2, #0
 1996 0156 01D1     		bne	.L152
 693:../../../../../../Middlewares/Third_Party/LoRaWAN/Mac/region/RegionIN865.c ****                     }
 1997              		.loc 1 693 0
 1998 0158 0632     		adds	r2, r2, #6
 1999 015a 9046     		mov	r8, r2
 2000              	.LVL165:
 2001              	.L152:
 690:../../../../../../Middlewares/Third_Party/LoRaWAN/Mac/region/RegionIN865.c ****                         ( NvmCtx.Channels[i].Frequency == 0 ) )
 2002              		.loc 1 690 0
 2003 015c 1BB2     		sxth	r3, r3
 2004 015e 002B     		cmp	r3, #0
 2005 0160 00DB     		blt	.LCB1891
 2006 0162 63E7     		b	.L130	@long jump
 2007              	.LCB1891:
 691:../../../../../../Middlewares/Third_Party/LoRaWAN/Mac/region/RegionIN865.c ****                     {// Trying to enable an undefined channel
 2008              		.loc 1 691 0
 2009 0164 B423     		movs	r3, #180
 690:../../../../../../Middlewares/Third_Party/LoRaWAN/Mac/region/RegionIN865.c ****                         ( NvmCtx.Channels[i].Frequency == 0 ) )
 2010              		.loc 1 690 0
 2011 0166 554A     		ldr	r2, .L288
 2012 0168 D358     		ldr	r3, [r2, r3]
 2013 016a 002B     		cmp	r3, #0
 2014 016c 00D0     		beq	.LCB1896
 2015 016e 5DE7     		b	.L130	@long jump
 2016              	.LCB1896:
 693:../../../../../../Middlewares/Third_Party/LoRaWAN/Mac/region/RegionIN865.c ****                     }
 2017              		.loc 1 693 0
 2018 0170 0633     		adds	r3, r3, #6
 2019 0172 9846     		mov	r8, r3
 2020              	.LVL166:
 2021              	.LBE79:
 649:../../../../../../Middlewares/Third_Party/LoRaWAN/Mac/region/RegionIN865.c ****     {
 2022              		.loc 1 649 0
 2023 0174 337A     		ldrb	r3, [r6, #8]
 2024 0176 A342     		cmp	r3, r4
 2025 0178 00D9     		bls	.LCB1905
 2026 017a 5BE7     		b	.L174	@long jump
 2027              	.LCB1905:
ARM GAS  C:\Users\EBANO_~1\AppData\Local\Temp\ccEfOEMG.s 			page 59


 2028              	.LVL167:
 2029              	.L175:
 700:../../../../../../Middlewares/Third_Party/LoRaWAN/Mac/region/RegionIN865.c ****     {
 2030              		.loc 1 700 0
 2031 017c 0123     		movs	r3, #1
 2032 017e 0221     		movs	r1, #2
 2033 0180 EB56     		ldrsb	r3, [r5, r3]
 2034 0182 6956     		ldrsb	r1, [r5, r1]
 2035 0184 2A78     		ldrb	r2, [r5]
 2036 0186 062B     		cmp	r3, #6
 2037 0188 00D0     		beq	.LCB1918
 2038 018a 99E0     		b	.L286	@long jump
 2039              	.LCB1918:
 729:../../../../../../Middlewares/Third_Party/LoRaWAN/Mac/region/RegionIN865.c ****     }
 2040              		.loc 1 729 0
 2041 018c 0220     		movs	r0, #2
 2042 018e 4646     		mov	r6, r8
 2043              	.LVL168:
 2044 0190 8643     		bics	r6, r0
 2045              	.LVL169:
 2046              	.L177:
 742:../../../../../../Middlewares/Third_Party/LoRaWAN/Mac/region/RegionIN865.c ****     *txPowOut = linkAdrParams.TxPower;
 2047              		.loc 1 742 0
 2048 0192 5846     		mov	r0, fp
 2049 0194 0370     		strb	r3, [r0]
 743:../../../../../../Middlewares/Third_Party/LoRaWAN/Mac/region/RegionIN865.c ****     *nbRepOut = linkAdrParams.NbRep;
 2050              		.loc 1 743 0
 2051 0196 5346     		mov	r3, r10
 748:../../../../../../Middlewares/Third_Party/LoRaWAN/Mac/region/RegionIN865.c **** 
 2052              		.loc 1 748 0
 2053 0198 3000     		movs	r0, r6
 743:../../../../../../Middlewares/Third_Party/LoRaWAN/Mac/region/RegionIN865.c ****     *nbRepOut = linkAdrParams.NbRep;
 2054              		.loc 1 743 0
 2055 019a 1970     		strb	r1, [r3]
 744:../../../../../../Middlewares/Third_Party/LoRaWAN/Mac/region/RegionIN865.c ****     *nbBytesParsed = bytesProcessed;
 2056              		.loc 1 744 0
 2057 019c 019B     		ldr	r3, [sp, #4]
 2058 019e 1A70     		strb	r2, [r3]
 745:../../../../../../Middlewares/Third_Party/LoRaWAN/Mac/region/RegionIN865.c **** 
 2059              		.loc 1 745 0
 2060 01a0 189B     		ldr	r3, [sp, #96]
 2061 01a2 1C70     		strb	r4, [r3]
 748:../../../../../../Middlewares/Third_Party/LoRaWAN/Mac/region/RegionIN865.c **** 
 2062              		.loc 1 748 0
 2063 01a4 0FB0     		add	sp, sp, #60
 2064              		@ sp needed
 2065              	.LVL170:
 2066              	.LVL171:
 2067              	.LVL172:
 2068 01a6 3CBC     		pop	{r2, r3, r4, r5}
 2069 01a8 9046     		mov	r8, r2
 2070 01aa 9946     		mov	r9, r3
 2071 01ac A246     		mov	r10, r4
 2072 01ae AB46     		mov	fp, r5
 2073 01b0 F0BD     		pop	{r4, r5, r6, r7, pc}
 2074              	.LVL173:
 2075              	.L134:
ARM GAS  C:\Users\EBANO_~1\AppData\Local\Temp\ccEfOEMG.s 			page 60


 669:../../../../../../Middlewares/Third_Party/LoRaWAN/Mac/region/RegionIN865.c ****         }
 2076              		.loc 1 669 0
 2077 01b2 0627     		movs	r7, #6
 671:../../../../../../Middlewares/Third_Party/LoRaWAN/Mac/region/RegionIN865.c ****                 ( linkAdrParams.ChMaskCtrl >= 7 ) )
 2078              		.loc 1 671 0
 2079 01b4 511E     		subs	r1, r2, #1
 669:../../../../../../Middlewares/Third_Party/LoRaWAN/Mac/region/RegionIN865.c ****         }
 2080              		.loc 1 669 0
 2081 01b6 B846     		mov	r8, r7
 671:../../../../../../Middlewares/Third_Party/LoRaWAN/Mac/region/RegionIN865.c ****                 ( linkAdrParams.ChMaskCtrl >= 7 ) )
 2082              		.loc 1 671 0
 2083 01b8 0429     		cmp	r1, #4
 2084 01ba 00D8     		bhi	.LCB1969
 2085 01bc 36E7     		b	.L130	@long jump
 2086              	.LCB1969:
 671:../../../../../../Middlewares/Third_Party/LoRaWAN/Mac/region/RegionIN865.c ****                 ( linkAdrParams.ChMaskCtrl >= 7 ) )
 2087              		.loc 1 671 0 is_stmt 0 discriminator 1
 2088 01be 062A     		cmp	r2, #6
 2089 01c0 00D0     		beq	.LCB1971
 2090 01c2 33E7     		b	.L130	@long jump
 2091              	.LCB1971:
 2092              	.LVL174:
 2093              	.LBB80:
 683:../../../../../../Middlewares/Third_Party/LoRaWAN/Mac/region/RegionIN865.c ****                     {
 2094              		.loc 1 683 0 is_stmt 1
 2095 01c4 4946     		mov	r1, r9
 2096 01c6 0968     		ldr	r1, [r1]
 2097 01c8 0022     		movs	r2, #0
 2098 01ca 0029     		cmp	r1, #0
 2099 01cc 02D0     		beq	.L155
 685:../../../../../../Middlewares/Third_Party/LoRaWAN/Mac/region/RegionIN865.c ****                     }
 2100              		.loc 1 685 0
 2101 01ce 0123     		movs	r3, #1
 2102 01d0 0132     		adds	r2, r2, #1
 2103 01d2 0343     		orrs	r3, r0
 2104              	.L155:
 2105              	.LVL175:
 683:../../../../../../Middlewares/Third_Party/LoRaWAN/Mac/region/RegionIN865.c ****                     {
 2106              		.loc 1 683 0
 2107 01d4 4946     		mov	r1, r9
 2108 01d6 C968     		ldr	r1, [r1, #12]
 2109 01d8 0029     		cmp	r1, #0
 2110 01da 02D0     		beq	.L156
 685:../../../../../../Middlewares/Third_Party/LoRaWAN/Mac/region/RegionIN865.c ****                     }
 2111              		.loc 1 685 0
 2112 01dc 0222     		movs	r2, #2
 2113 01de 1343     		orrs	r3, r2
 2114 01e0 0122     		movs	r2, #1
 2115              	.L156:
 2116              	.LVL176:
 683:../../../../../../Middlewares/Third_Party/LoRaWAN/Mac/region/RegionIN865.c ****                     {
 2117              		.loc 1 683 0
 2118 01e2 4946     		mov	r1, r9
 2119 01e4 8969     		ldr	r1, [r1, #24]
 2120 01e6 0029     		cmp	r1, #0
 2121 01e8 02D0     		beq	.L157
 685:../../../../../../Middlewares/Third_Party/LoRaWAN/Mac/region/RegionIN865.c ****                     }
ARM GAS  C:\Users\EBANO_~1\AppData\Local\Temp\ccEfOEMG.s 			page 61


 2122              		.loc 1 685 0
 2123 01ea 0422     		movs	r2, #4
 2124 01ec 1343     		orrs	r3, r2
 2125 01ee 0122     		movs	r2, #1
 2126              	.L157:
 2127              	.LVL177:
 683:../../../../../../Middlewares/Third_Party/LoRaWAN/Mac/region/RegionIN865.c ****                     {
 2128              		.loc 1 683 0
 2129 01f0 4946     		mov	r1, r9
 2130 01f2 496A     		ldr	r1, [r1, #36]
 2131 01f4 0029     		cmp	r1, #0
 2132 01f6 02D0     		beq	.L158
 685:../../../../../../Middlewares/Third_Party/LoRaWAN/Mac/region/RegionIN865.c ****                     }
 2133              		.loc 1 685 0
 2134 01f8 0822     		movs	r2, #8
 2135 01fa 1343     		orrs	r3, r2
 2136 01fc 0122     		movs	r2, #1
 2137              	.L158:
 2138              	.LVL178:
 683:../../../../../../Middlewares/Third_Party/LoRaWAN/Mac/region/RegionIN865.c ****                     {
 2139              		.loc 1 683 0
 2140 01fe 4946     		mov	r1, r9
 2141 0200 096B     		ldr	r1, [r1, #48]
 2142 0202 0029     		cmp	r1, #0
 2143 0204 02D0     		beq	.L159
 685:../../../../../../Middlewares/Third_Party/LoRaWAN/Mac/region/RegionIN865.c ****                     }
 2144              		.loc 1 685 0
 2145 0206 1022     		movs	r2, #16
 2146 0208 1343     		orrs	r3, r2
 2147 020a 0122     		movs	r2, #1
 2148              	.L159:
 2149              	.LVL179:
 683:../../../../../../Middlewares/Third_Party/LoRaWAN/Mac/region/RegionIN865.c ****                     {
 2150              		.loc 1 683 0
 2151 020c 4946     		mov	r1, r9
 2152 020e C96B     		ldr	r1, [r1, #60]
 2153 0210 0029     		cmp	r1, #0
 2154 0212 02D0     		beq	.L160
 685:../../../../../../Middlewares/Third_Party/LoRaWAN/Mac/region/RegionIN865.c ****                     }
 2155              		.loc 1 685 0
 2156 0214 2022     		movs	r2, #32
 2157 0216 1343     		orrs	r3, r2
 2158 0218 0122     		movs	r2, #1
 2159              	.L160:
 2160              	.LVL180:
 683:../../../../../../Middlewares/Third_Party/LoRaWAN/Mac/region/RegionIN865.c ****                     {
 2161              		.loc 1 683 0
 2162 021a 4946     		mov	r1, r9
 2163 021c 896C     		ldr	r1, [r1, #72]
 2164 021e 0029     		cmp	r1, #0
 2165 0220 02D0     		beq	.L161
 685:../../../../../../Middlewares/Third_Party/LoRaWAN/Mac/region/RegionIN865.c ****                     }
 2166              		.loc 1 685 0
 2167 0222 4022     		movs	r2, #64
 2168 0224 1343     		orrs	r3, r2
 2169 0226 0122     		movs	r2, #1
 2170              	.L161:
ARM GAS  C:\Users\EBANO_~1\AppData\Local\Temp\ccEfOEMG.s 			page 62


 2171              	.LVL181:
 683:../../../../../../Middlewares/Third_Party/LoRaWAN/Mac/region/RegionIN865.c ****                     {
 2172              		.loc 1 683 0
 2173 0228 4946     		mov	r1, r9
 2174 022a 496D     		ldr	r1, [r1, #84]
 2175 022c 0029     		cmp	r1, #0
 2176 022e 02D0     		beq	.L162
 685:../../../../../../Middlewares/Third_Party/LoRaWAN/Mac/region/RegionIN865.c ****                     }
 2177              		.loc 1 685 0
 2178 0230 8022     		movs	r2, #128
 2179 0232 1343     		orrs	r3, r2
 2180 0234 0122     		movs	r2, #1
 2181              	.L162:
 2182              	.LVL182:
 683:../../../../../../Middlewares/Third_Party/LoRaWAN/Mac/region/RegionIN865.c ****                     {
 2183              		.loc 1 683 0
 2184 0236 4946     		mov	r1, r9
 2185 0238 096E     		ldr	r1, [r1, #96]
 2186 023a 0029     		cmp	r1, #0
 2187 023c 03D0     		beq	.L163
 685:../../../../../../Middlewares/Third_Party/LoRaWAN/Mac/region/RegionIN865.c ****                     }
 2188              		.loc 1 685 0
 2189 023e 8022     		movs	r2, #128
 2190 0240 5200     		lsls	r2, r2, #1
 2191 0242 1343     		orrs	r3, r2
 2192 0244 FF3A     		subs	r2, r2, #255
 2193              	.L163:
 2194              	.LVL183:
 683:../../../../../../Middlewares/Third_Party/LoRaWAN/Mac/region/RegionIN865.c ****                     {
 2195              		.loc 1 683 0
 2196 0246 4946     		mov	r1, r9
 2197 0248 C96E     		ldr	r1, [r1, #108]
 2198 024a 0029     		cmp	r1, #0
 2199 024c 03D0     		beq	.L164
 685:../../../../../../Middlewares/Third_Party/LoRaWAN/Mac/region/RegionIN865.c ****                     }
 2200              		.loc 1 685 0
 2201 024e 8022     		movs	r2, #128
 2202 0250 9200     		lsls	r2, r2, #2
 2203 0252 1343     		orrs	r3, r2
 2204 0254 0122     		movs	r2, #1
 2205              	.L164:
 2206              	.LVL184:
 683:../../../../../../Middlewares/Third_Party/LoRaWAN/Mac/region/RegionIN865.c ****                     {
 2207              		.loc 1 683 0
 2208 0256 4946     		mov	r1, r9
 2209 0258 896F     		ldr	r1, [r1, #120]
 2210 025a 0029     		cmp	r1, #0
 2211 025c 03D0     		beq	.L165
 685:../../../../../../Middlewares/Third_Party/LoRaWAN/Mac/region/RegionIN865.c ****                     }
 2212              		.loc 1 685 0
 2213 025e 8022     		movs	r2, #128
 2214 0260 D200     		lsls	r2, r2, #3
 2215 0262 1343     		orrs	r3, r2
 2216 0264 0122     		movs	r2, #1
 2217              	.L165:
 2218              	.LVL185:
 683:../../../../../../Middlewares/Third_Party/LoRaWAN/Mac/region/RegionIN865.c ****                     {
ARM GAS  C:\Users\EBANO_~1\AppData\Local\Temp\ccEfOEMG.s 			page 63


 2219              		.loc 1 683 0
 2220 0266 8421     		movs	r1, #132
 2221 0268 4846     		mov	r0, r9
 2222 026a 4158     		ldr	r1, [r0, r1]
 2223 026c 0029     		cmp	r1, #0
 2224 026e 03D0     		beq	.L166
 685:../../../../../../Middlewares/Third_Party/LoRaWAN/Mac/region/RegionIN865.c ****                     }
 2225              		.loc 1 685 0
 2226 0270 8022     		movs	r2, #128
 2227 0272 1201     		lsls	r2, r2, #4
 2228 0274 1343     		orrs	r3, r2
 2229 0276 0122     		movs	r2, #1
 2230              	.L166:
 2231              	.LVL186:
 683:../../../../../../Middlewares/Third_Party/LoRaWAN/Mac/region/RegionIN865.c ****                     {
 2232              		.loc 1 683 0
 2233 0278 9021     		movs	r1, #144
 2234 027a 4846     		mov	r0, r9
 2235 027c 4158     		ldr	r1, [r0, r1]
 2236 027e 0029     		cmp	r1, #0
 2237 0280 03D0     		beq	.L167
 685:../../../../../../Middlewares/Third_Party/LoRaWAN/Mac/region/RegionIN865.c ****                     }
 2238              		.loc 1 685 0
 2239 0282 8022     		movs	r2, #128
 2240 0284 5201     		lsls	r2, r2, #5
 2241 0286 1343     		orrs	r3, r2
 2242 0288 0122     		movs	r2, #1
 2243              	.L167:
 2244              	.LVL187:
 683:../../../../../../Middlewares/Third_Party/LoRaWAN/Mac/region/RegionIN865.c ****                     {
 2245              		.loc 1 683 0
 2246 028a 9C21     		movs	r1, #156
 2247 028c 4846     		mov	r0, r9
 2248 028e 4158     		ldr	r1, [r0, r1]
 2249 0290 0029     		cmp	r1, #0
 2250 0292 58D1     		bne	.L287
 2251              	.LVL188:
 2252 0294 A821     		movs	r1, #168
 2253 0296 4158     		ldr	r1, [r0, r1]
 2254 0298 0029     		cmp	r1, #0
 2255 029a 4AD0     		beq	.L172
 2256              	.L169:
 685:../../../../../../Middlewares/Third_Party/LoRaWAN/Mac/region/RegionIN865.c ****                     }
 2257              		.loc 1 685 0
 2258 029c 8022     		movs	r2, #128
 2259 029e D201     		lsls	r2, r2, #7
 2260 02a0 1343     		orrs	r3, r2
 2261              	.LVL189:
 683:../../../../../../Middlewares/Third_Party/LoRaWAN/Mac/region/RegionIN865.c ****                     {
 2262              		.loc 1 683 0
 2263 02a2 4946     		mov	r1, r9
 2264 02a4 B422     		movs	r2, #180
 2265 02a6 8A58     		ldr	r2, [r1, r2]
 2266 02a8 002A     		cmp	r2, #0
 2267 02aa 02D0     		beq	.L171
 2268              	.L170:
 685:../../../../../../Middlewares/Third_Party/LoRaWAN/Mac/region/RegionIN865.c ****                     }
ARM GAS  C:\Users\EBANO_~1\AppData\Local\Temp\ccEfOEMG.s 			page 64


 2269              		.loc 1 685 0
 2270 02ac 8022     		movs	r2, #128
 2271 02ae 1202     		lsls	r2, r2, #8
 2272 02b0 1343     		orrs	r3, r2
 2273              	.LVL190:
 2274              	.L171:
 2275 02b2 009A     		ldr	r2, [sp]
 2276 02b4 1380     		strh	r3, [r2]
 683:../../../../../../Middlewares/Third_Party/LoRaWAN/Mac/region/RegionIN865.c ****                     {
 2277              		.loc 1 683 0
 2278 02b6 0723     		movs	r3, #7
 2279 02b8 9846     		mov	r8, r3
 2280 02ba B7E6     		b	.L130
 2281              	.L289:
 2282              		.align	2
 2283              	.L288:
 2284 02bc 00000000 		.word	NvmCtx
 2285              	.LVL191:
 2286              	.L286:
 2287              	.LBE80:
 707:../../../../../../Middlewares/Third_Party/LoRaWAN/Mac/region/RegionIN865.c ****         linkAdrVerifyParams.AdrEnabled = linkAdrReq->AdrEnabled;
 2288              		.loc 1 707 0
 2289 02c0 4746     		mov	r7, r8
 2290 02c2 06A8     		add	r0, sp, #24
 2291 02c4 0771     		strb	r7, [r0, #4]
 708:../../../../../../Middlewares/Third_Party/LoRaWAN/Mac/region/RegionIN865.c ****         linkAdrVerifyParams.Datarate = linkAdrParams.Datarate;
 2292              		.loc 1 708 0
 2293 02c6 B77A     		ldrb	r7, [r6, #10]
 710:../../../../../../Middlewares/Third_Party/LoRaWAN/Mac/region/RegionIN865.c ****         linkAdrVerifyParams.NbRep = linkAdrParams.NbRep;
 2294              		.loc 1 710 0
 2295 02c8 C171     		strb	r1, [r0, #7]
 711:../../../../../../Middlewares/Third_Party/LoRaWAN/Mac/region/RegionIN865.c ****         linkAdrVerifyParams.CurrentDatarate = linkAdrReq->CurrentDatarate;
 2296              		.loc 1 711 0
 2297 02ca 0272     		strb	r2, [r0, #8]
 708:../../../../../../Middlewares/Third_Party/LoRaWAN/Mac/region/RegionIN865.c ****         linkAdrVerifyParams.Datarate = linkAdrParams.Datarate;
 2298              		.loc 1 708 0
 2299 02cc 4771     		strb	r7, [r0, #5]
 709:../../../../../../Middlewares/Third_Party/LoRaWAN/Mac/region/RegionIN865.c ****         linkAdrVerifyParams.TxPower = linkAdrParams.TxPower;
 2300              		.loc 1 709 0
 2301 02ce 8371     		strb	r3, [r0, #6]
 712:../../../../../../Middlewares/Third_Party/LoRaWAN/Mac/region/RegionIN865.c ****         linkAdrVerifyParams.CurrentTxPower = linkAdrReq->CurrentTxPower;
 2302              		.loc 1 712 0
 2303 02d0 F37A     		ldrb	r3, [r6, #11]
 725:../../../../../../Middlewares/Third_Party/LoRaWAN/Mac/region/RegionIN865.c ****     }
 2304              		.loc 1 725 0
 2305 02d2 02A9     		add	r1, sp, #8
 712:../../../../../../Middlewares/Third_Party/LoRaWAN/Mac/region/RegionIN865.c ****         linkAdrVerifyParams.CurrentTxPower = linkAdrReq->CurrentTxPower;
 2306              		.loc 1 712 0
 2307 02d4 4372     		strb	r3, [r0, #9]
 713:../../../../../../Middlewares/Third_Party/LoRaWAN/Mac/region/RegionIN865.c ****         linkAdrVerifyParams.CurrentNbRep = linkAdrReq->CurrentNbRep;
 2308              		.loc 1 713 0
 2309 02d6 337B     		ldrb	r3, [r6, #12]
 725:../../../../../../Middlewares/Third_Party/LoRaWAN/Mac/region/RegionIN865.c ****     }
 2310              		.loc 1 725 0
 2311 02d8 8C46     		mov	ip, r1
 713:../../../../../../Middlewares/Third_Party/LoRaWAN/Mac/region/RegionIN865.c ****         linkAdrVerifyParams.CurrentNbRep = linkAdrReq->CurrentNbRep;
 2312              		.loc 1 713 0
ARM GAS  C:\Users\EBANO_~1\AppData\Local\Temp\ccEfOEMG.s 			page 65


 2313 02da 8372     		strb	r3, [r0, #10]
 714:../../../../../../Middlewares/Third_Party/LoRaWAN/Mac/region/RegionIN865.c ****         linkAdrVerifyParams.NbChannels = IN865_MAX_NB_CHANNELS;
 2314              		.loc 1 714 0
 2315 02dc 737B     		ldrb	r3, [r6, #13]
 725:../../../../../../Middlewares/Third_Party/LoRaWAN/Mac/region/RegionIN865.c ****     }
 2316              		.loc 1 725 0
 2317 02de 0A22     		movs	r2, #10
 714:../../../../../../Middlewares/Third_Party/LoRaWAN/Mac/region/RegionIN865.c ****         linkAdrVerifyParams.NbChannels = IN865_MAX_NB_CHANNELS;
 2318              		.loc 1 714 0
 2319 02e0 C372     		strb	r3, [r0, #11]
 715:../../../../../../Middlewares/Third_Party/LoRaWAN/Mac/region/RegionIN865.c ****         linkAdrVerifyParams.ChannelsMask = &chMask;
 2320              		.loc 1 715 0
 2321 02e2 1023     		movs	r3, #16
 2322 02e4 0373     		strb	r3, [r0, #12]
 716:../../../../../../Middlewares/Third_Party/LoRaWAN/Mac/region/RegionIN865.c ****         linkAdrVerifyParams.MinDatarate = ( int8_t )phyParam.Value;
 2323              		.loc 1 716 0
 2324 02e6 009B     		ldr	r3, [sp]
 725:../../../../../../Middlewares/Third_Party/LoRaWAN/Mac/region/RegionIN865.c ****     }
 2325              		.loc 1 725 0
 2326 02e8 0921     		movs	r1, #9
 716:../../../../../../Middlewares/Third_Party/LoRaWAN/Mac/region/RegionIN865.c ****         linkAdrVerifyParams.MinDatarate = ( int8_t )phyParam.Value;
 2327              		.loc 1 716 0
 2328 02ea 0361     		str	r3, [r0, #16]
 717:../../../../../../Middlewares/Third_Party/LoRaWAN/Mac/region/RegionIN865.c ****         linkAdrVerifyParams.MaxDatarate = IN865_TX_MAX_DATARATE;
 2329              		.loc 1 717 0
 2330 02ec E023     		movs	r3, #224
 2331 02ee DB00     		lsls	r3, r3, #3
 2332 02f0 8382     		strh	r3, [r0, #20]
 719:../../../../../../Middlewares/Third_Party/LoRaWAN/Mac/region/RegionIN865.c ****         linkAdrVerifyParams.MinTxPower = IN865_MIN_TX_POWER;
 2333              		.loc 1 719 0
 2334 02f2 1B4B     		ldr	r3, .L290
 725:../../../../../../Middlewares/Third_Party/LoRaWAN/Mac/region/RegionIN865.c ****     }
 2335              		.loc 1 725 0
 2336 02f4 6244     		add	r2, r2, ip
 719:../../../../../../Middlewares/Third_Party/LoRaWAN/Mac/region/RegionIN865.c ****         linkAdrVerifyParams.MinTxPower = IN865_MIN_TX_POWER;
 2337              		.loc 1 719 0
 2338 02f6 8361     		str	r3, [r0, #24]
 2339 02f8 9946     		mov	r9, r3
 720:../../../../../../Middlewares/Third_Party/LoRaWAN/Mac/region/RegionIN865.c ****         linkAdrVerifyParams.MaxTxPower = IN865_MAX_TX_POWER;
 2340              		.loc 1 720 0
 2341 02fa 0A23     		movs	r3, #10
 2342 02fc 8383     		strh	r3, [r0, #28]
 722:../../../../../../Middlewares/Third_Party/LoRaWAN/Mac/region/RegionIN865.c **** 
 2343              		.loc 1 722 0
 2344 02fe 3368     		ldr	r3, [r6]
 725:../../../../../../Middlewares/Third_Party/LoRaWAN/Mac/region/RegionIN865.c ****     }
 2345              		.loc 1 725 0
 2346 0300 6144     		add	r1, r1, ip
 722:../../../../../../Middlewares/Third_Party/LoRaWAN/Mac/region/RegionIN865.c **** 
 2347              		.loc 1 722 0
 2348 0302 0693     		str	r3, [sp, #24]
 725:../../../../../../Middlewares/Third_Party/LoRaWAN/Mac/region/RegionIN865.c ****     }
 2349              		.loc 1 725 0
 2350 0304 2B00     		movs	r3, r5
 2351 0306 FFF7FEFF 		bl	RegionCommonLinkAdrReqVerifyParams
 2352              	.LVL192:
 2353 030a 0600     		movs	r6, r0
ARM GAS  C:\Users\EBANO_~1\AppData\Local\Temp\ccEfOEMG.s 			page 66


 2354              	.LVL193:
 733:../../../../../../Middlewares/Third_Party/LoRaWAN/Mac/region/RegionIN865.c ****     {
 2355              		.loc 1 733 0
 2356 030c 0728     		cmp	r0, #7
 2357 030e 0AD1     		bne	.L285
 736:../../../../../../Middlewares/Third_Party/LoRaWAN/Mac/region/RegionIN865.c ****         // Update the channels mask
 2358              		.loc 1 736 0
 2359 0310 4846     		mov	r0, r9
 2360              	.LVL194:
 2361 0312 0222     		movs	r2, #2
 2362 0314 0021     		movs	r1, #0
 2363 0316 D030     		adds	r0, r0, #208
 2364 0318 FFF7FEFF 		bl	memset1
 2365              	.LVL195:
 738:../../../../../../Middlewares/Third_Party/LoRaWAN/Mac/region/RegionIN865.c ****     }
 2366              		.loc 1 738 0
 2367 031c 009B     		ldr	r3, [sp]
 2368 031e 4946     		mov	r1, r9
 2369 0320 1A88     		ldrh	r2, [r3]
 2370 0322 D023     		movs	r3, #208
 2371 0324 CA52     		strh	r2, [r1, r3]
 2372              	.L285:
 2373 0326 0123     		movs	r3, #1
 2374 0328 0221     		movs	r1, #2
 2375 032a EB56     		ldrsb	r3, [r5, r3]
 2376 032c 6956     		ldrsb	r1, [r5, r1]
 2377 032e 2A78     		ldrb	r2, [r5]
 2378 0330 2FE7     		b	.L177
 2379              	.LVL196:
 2380              	.L172:
 2381              	.LBB81:
 683:../../../../../../Middlewares/Third_Party/LoRaWAN/Mac/region/RegionIN865.c ****                     {
 2382              		.loc 1 683 0
 2383 0332 B421     		movs	r1, #180
 2384 0334 4158     		ldr	r1, [r0, r1]
 2385 0336 0029     		cmp	r1, #0
 2386 0338 B8D1     		bne	.L170
 2387              	.LVL197:
 2388 033a 0721     		movs	r1, #7
 2389 033c 8846     		mov	r8, r1
 2390 033e 002A     		cmp	r2, #0
 2391 0340 00D1     		bne	.LCB2285
 2392 0342 73E6     		b	.L130	@long jump
 2393              	.LCB2285:
 2394 0344 B5E7     		b	.L171
 2395              	.LVL198:
 2396              	.L287:
 685:../../../../../../Middlewares/Third_Party/LoRaWAN/Mac/region/RegionIN865.c ****                     }
 2397              		.loc 1 685 0
 2398 0346 8022     		movs	r2, #128
 2399 0348 9201     		lsls	r2, r2, #6
 2400 034a 1343     		orrs	r3, r2
 2401              	.LVL199:
 683:../../../../../../Middlewares/Third_Party/LoRaWAN/Mac/region/RegionIN865.c ****                     {
 2402              		.loc 1 683 0
 2403 034c A822     		movs	r2, #168
 2404 034e 8258     		ldr	r2, [r0, r2]
ARM GAS  C:\Users\EBANO_~1\AppData\Local\Temp\ccEfOEMG.s 			page 67


 2405 0350 002A     		cmp	r2, #0
 2406 0352 A3D1     		bne	.L169
 2407              	.LVL200:
 2408 0354 B432     		adds	r2, r2, #180
 2409 0356 8258     		ldr	r2, [r0, r2]
 2410 0358 002A     		cmp	r2, #0
 2411 035a A7D1     		bne	.L170
 2412 035c A9E7     		b	.L171
 2413              	.L291:
 2414 035e C046     		.align	2
 2415              	.L290:
 2416 0360 00000000 		.word	NvmCtx
 2417              	.LBE81:
 2418              		.cfi_endproc
 2419              	.LFE54:
 2420              		.size	RegionIN865LinkAdrReq, .-RegionIN865LinkAdrReq
 2421              		.section	.text.RegionIN865RxParamSetupReq,"ax",%progbits
 2422              		.align	1
 2423              		.p2align 2,,3
 2424              		.global	RegionIN865RxParamSetupReq
 2425              		.syntax unified
 2426              		.code	16
 2427              		.thumb_func
 2428              		.fpu softvfp
 2429              		.type	RegionIN865RxParamSetupReq, %function
 2430              	RegionIN865RxParamSetupReq:
 2431              	.LFB55:
 751:../../../../../../Middlewares/Third_Party/LoRaWAN/Mac/region/RegionIN865.c ****     uint8_t status = 0x07;
 2432              		.loc 1 751 0
 2433              		.cfi_startproc
 2434              		@ args = 0, pretend = 0, frame = 8
 2435              		@ frame_needed = 0, uses_anonymous_args = 0
 2436              	.LVL201:
 2437 0000 70B5     		push	{r4, r5, r6, lr}
 2438              	.LCFI22:
 2439              		.cfi_def_cfa_offset 16
 2440              		.cfi_offset 4, -16
 2441              		.cfi_offset 5, -12
 2442              		.cfi_offset 6, -8
 2443              		.cfi_offset 14, -4
 2444              	.LBB82:
 2445              	.LBB83:
 115:../../../../../../Middlewares/Third_Party/LoRaWAN/Mac/region/RegionIN865.c ****     {
 2446              		.loc 1 115 0
 2447 0002 154B     		ldr	r3, .L302
 2448              	.LBE83:
 2449              	.LBE82:
 755:../../../../../../Middlewares/Third_Party/LoRaWAN/Mac/region/RegionIN865.c ****     {
 2450              		.loc 1 755 0
 2451 0004 4568     		ldr	r5, [r0, #4]
 2452              	.LVL202:
 2453              	.LBB87:
 2454              	.LBB84:
 115:../../../../../../Middlewares/Third_Party/LoRaWAN/Mac/region/RegionIN865.c ****     {
 2455              		.loc 1 115 0
 2456 0006 9B6A     		ldr	r3, [r3, #40]
 2457              	.LBE84:
ARM GAS  C:\Users\EBANO_~1\AppData\Local\Temp\ccEfOEMG.s 			page 68


 2458              	.LBE87:
 751:../../../../../../Middlewares/Third_Party/LoRaWAN/Mac/region/RegionIN865.c ****     uint8_t status = 0x07;
 2459              		.loc 1 751 0
 2460 0008 82B0     		sub	sp, sp, #8
 2461              	.LCFI23:
 2462              		.cfi_def_cfa_offset 24
 751:../../../../../../Middlewares/Third_Party/LoRaWAN/Mac/region/RegionIN865.c ****     uint8_t status = 0x07;
 2463              		.loc 1 751 0
 2464 000a 0400     		movs	r4, r0
 2465              	.LBB88:
 2466              	.LBB85:
 115:../../../../../../Middlewares/Third_Party/LoRaWAN/Mac/region/RegionIN865.c ****     {
 2467              		.loc 1 115 0
 2468 000c 2800     		movs	r0, r5
 2469              	.LVL203:
 2470 000e 0193     		str	r3, [sp, #4]
 2471 0010 9847     		blx	r3
 2472              	.LVL204:
 2473 0012 0028     		cmp	r0, #0
 2474 0014 05D0     		beq	.L297
 120:../../../../../../Middlewares/Third_Party/LoRaWAN/Mac/region/RegionIN865.c ****     {
 2475              		.loc 1 120 0
 2476 0016 114B     		ldr	r3, .L302+4
 2477 0018 9C46     		mov	ip, r3
 2478 001a 114B     		ldr	r3, .L302+8
 2479 001c 6544     		add	r5, r5, ip
 2480              	.LVL205:
 2481 001e 9D42     		cmp	r5, r3
 2482 0020 17D9     		bls	.L301
 2483              	.LVL206:
 2484              	.L297:
 2485 0022 0425     		movs	r5, #4
 2486              	.LBE85:
 2487              	.LBE88:
 757:../../../../../../Middlewares/Third_Party/LoRaWAN/Mac/region/RegionIN865.c ****     }
 2488              		.loc 1 757 0
 2489 0024 0626     		movs	r6, #6
 2490              	.L293:
 2491              	.LVL207:
 761:../../../../../../Middlewares/Third_Party/LoRaWAN/Mac/region/RegionIN865.c ****     {
 2492              		.loc 1 761 0
 2493 0026 0020     		movs	r0, #0
 2494 0028 0722     		movs	r2, #7
 2495 002a 2056     		ldrsb	r0, [r4, r0]
 2496 002c 0021     		movs	r1, #0
 2497 002e FFF7FEFF 		bl	RegionCommonValueInRange
 2498              	.LVL208:
 2499 0032 0028     		cmp	r0, #0
 2500 0034 00D0     		beq	.L294
 2501 0036 3500     		movs	r5, r6
 2502              	.L294:
 2503              	.LVL209:
 767:../../../../../../Middlewares/Third_Party/LoRaWAN/Mac/region/RegionIN865.c ****     {
 2504              		.loc 1 767 0
 2505 0038 0120     		movs	r0, #1
 2506 003a 0722     		movs	r2, #7
 2507 003c 2056     		ldrsb	r0, [r4, r0]
ARM GAS  C:\Users\EBANO_~1\AppData\Local\Temp\ccEfOEMG.s 			page 69


 2508 003e 0021     		movs	r1, #0
 2509 0040 FFF7FEFF 		bl	RegionCommonValueInRange
 2510              	.LVL210:
 2511 0044 0028     		cmp	r0, #0
 2512 0046 01D1     		bne	.L295
 769:../../../../../../Middlewares/Third_Party/LoRaWAN/Mac/region/RegionIN865.c ****     }
 2513              		.loc 1 769 0
 2514 0048 FB23     		movs	r3, #251
 2515 004a 1D40     		ands	r5, r3
 2516              	.LVL211:
 2517              	.L295:
 773:../../../../../../Middlewares/Third_Party/LoRaWAN/Mac/region/RegionIN865.c **** 
 2518              		.loc 1 773 0
 2519 004c 2800     		movs	r0, r5
 2520 004e 02B0     		add	sp, sp, #8
 2521              		@ sp needed
 2522              	.LVL212:
 2523              	.LVL213:
 2524 0050 70BD     		pop	{r4, r5, r6, pc}
 2525              	.LVL214:
 2526              	.L301:
 2527              	.LBB89:
 2528              	.LBB86:
 120:../../../../../../Middlewares/Third_Party/LoRaWAN/Mac/region/RegionIN865.c ****     {
 2529              		.loc 1 120 0
 2530 0052 0525     		movs	r5, #5
 2531              	.LVL215:
 2532              	.LBE86:
 2533              	.LBE89:
 752:../../../../../../Middlewares/Third_Party/LoRaWAN/Mac/region/RegionIN865.c **** 
 2534              		.loc 1 752 0
 2535 0054 0726     		movs	r6, #7
 2536 0056 E6E7     		b	.L293
 2537              	.L303:
 2538              		.align	2
 2539              	.L302:
 2540 0058 00000000 		.word	Radio
 2541 005c C02571CC 		.word	-865000000
 2542 0060 80841E00 		.word	2000000
 2543              		.cfi_endproc
 2544              	.LFE55:
 2545              		.size	RegionIN865RxParamSetupReq, .-RegionIN865RxParamSetupReq
 2546              		.section	.text.RegionIN865NewChannelReq,"ax",%progbits
 2547              		.align	1
 2548              		.p2align 2,,3
 2549              		.global	RegionIN865NewChannelReq
 2550              		.syntax unified
 2551              		.code	16
 2552              		.thumb_func
 2553              		.fpu softvfp
 2554              		.type	RegionIN865NewChannelReq, %function
 2555              	RegionIN865NewChannelReq:
 2556              	.LFB56:
 776:../../../../../../Middlewares/Third_Party/LoRaWAN/Mac/region/RegionIN865.c ****     uint8_t status = 0x03;
 2557              		.loc 1 776 0
 2558              		.cfi_startproc
 2559              		@ args = 0, pretend = 0, frame = 8
ARM GAS  C:\Users\EBANO_~1\AppData\Local\Temp\ccEfOEMG.s 			page 70


 2560              		@ frame_needed = 0, uses_anonymous_args = 0
 2561              	.LVL216:
 2562 0000 F0B5     		push	{r4, r5, r6, r7, lr}
 2563              	.LCFI24:
 2564              		.cfi_def_cfa_offset 20
 2565              		.cfi_offset 4, -20
 2566              		.cfi_offset 5, -16
 2567              		.cfi_offset 6, -12
 2568              		.cfi_offset 7, -8
 2569              		.cfi_offset 14, -4
 2570 0002 C646     		mov	lr, r8
 2571 0004 00B5     		push	{lr}
 2572              	.LCFI25:
 2573              		.cfi_def_cfa_offset 24
 2574              		.cfi_offset 8, -24
 781:../../../../../../Middlewares/Third_Party/LoRaWAN/Mac/region/RegionIN865.c ****     {
 2575              		.loc 1 781 0
 2576 0006 0468     		ldr	r4, [r0]
 776:../../../../../../Middlewares/Third_Party/LoRaWAN/Mac/region/RegionIN865.c ****     uint8_t status = 0x03;
 2577              		.loc 1 776 0
 2578 0008 82B0     		sub	sp, sp, #8
 2579              	.LCFI26:
 2580              		.cfi_def_cfa_offset 32
 781:../../../../../../Middlewares/Third_Party/LoRaWAN/Mac/region/RegionIN865.c ****     {
 2581              		.loc 1 781 0
 2582 000a 2368     		ldr	r3, [r4]
 2583 000c 0579     		ldrb	r5, [r0, #4]
 2584 000e 002B     		cmp	r3, #0
 2585 0010 06D1     		bne	.L305
 2586              	.LVL217:
 2587              	.LBB96:
 2588              	.LBB97:
 996:../../../../../../Middlewares/Third_Party/LoRaWAN/Mac/region/RegionIN865.c ****     {
 2589              		.loc 1 996 0
 2590 0012 022D     		cmp	r5, #2
 2591 0014 4AD8     		bhi	.L324
 2592              	.LVL218:
 2593              	.L306:
 2594              	.LBE97:
 2595              	.LBE96:
 788:../../../../../../Middlewares/Third_Party/LoRaWAN/Mac/region/RegionIN865.c ****         }
 2596              		.loc 1 788 0
 2597 0016 0020     		movs	r0, #0
 2598              	.L319:
 826:../../../../../../Middlewares/Third_Party/LoRaWAN/Mac/region/RegionIN865.c **** 
 2599              		.loc 1 826 0
 2600 0018 02B0     		add	sp, sp, #8
 2601              		@ sp needed
 2602 001a 04BC     		pop	{r2}
 2603 001c 9046     		mov	r8, r2
 2604 001e F0BD     		pop	{r4, r5, r6, r7, pc}
 2605              	.LVL219:
 2606              	.L305:
 2607              	.LBB99:
 2608              	.LBB100:
 939:../../../../../../Middlewares/Third_Party/LoRaWAN/Mac/region/RegionIN865.c ****     {
 2609              		.loc 1 939 0
ARM GAS  C:\Users\EBANO_~1\AppData\Local\Temp\ccEfOEMG.s 			page 71


 2610 0020 EB1E     		subs	r3, r5, #3
 2611 0022 0C2B     		cmp	r3, #12
 2612 0024 F7D8     		bhi	.L306
 950:../../../../../../Middlewares/Third_Party/LoRaWAN/Mac/region/RegionIN865.c ****     {
 2613              		.loc 1 950 0
 2614 0026 207A     		ldrb	r0, [r4, #8]
 2615              	.LVL220:
 2616 0028 0722     		movs	r2, #7
 2617 002a 0007     		lsls	r0, r0, #28
 2618 002c 0021     		movs	r1, #0
 2619 002e 0017     		asrs	r0, r0, #28
 2620 0030 FFF7FEFF 		bl	RegionCommonValueInRange
 2621              	.LVL221:
 2622 0034 0600     		movs	r6, r0
 2623              	.LVL222:
 954:../../../../../../Middlewares/Third_Party/LoRaWAN/Mac/region/RegionIN865.c ****     {
 2624              		.loc 1 954 0
 2625 0036 0820     		movs	r0, #8
 2626 0038 2056     		ldrsb	r0, [r4, r0]
 2627 003a 0722     		movs	r2, #7
 2628 003c 0011     		asrs	r0, r0, #4
 2629 003e 0021     		movs	r1, #0
 2630 0040 FFF7FEFF 		bl	RegionCommonValueInRange
 2631              	.LVL223:
 956:../../../../../../Middlewares/Third_Party/LoRaWAN/Mac/region/RegionIN865.c ****     }
 2632              		.loc 1 956 0
 2633 0044 0127     		movs	r7, #1
 954:../../../../../../Middlewares/Third_Party/LoRaWAN/Mac/region/RegionIN865.c ****     {
 2634              		.loc 1 954 0
 2635 0046 0028     		cmp	r0, #0
 2636 0048 02D0     		beq	.L308
 950:../../../../../../Middlewares/Third_Party/LoRaWAN/Mac/region/RegionIN865.c ****     {
 2637              		.loc 1 950 0
 2638 004a 7742     		rsbs	r7, r6, #0
 2639 004c 7741     		adcs	r7, r7, r6
 2640              	.LVL224:
 2641 004e FFB2     		uxtb	r7, r7
 2642              	.L308:
 2643              	.LVL225:
 2644 0050 294B     		ldr	r3, .L325
 2645 0052 2668     		ldr	r6, [r4]
 2646 0054 9B6A     		ldr	r3, [r3, #40]
 2647              	.LBB101:
 2648              	.LBB102:
 115:../../../../../../Middlewares/Third_Party/LoRaWAN/Mac/region/RegionIN865.c ****     {
 2649              		.loc 1 115 0
 2650 0056 3000     		movs	r0, r6
 2651 0058 0193     		str	r3, [sp, #4]
 2652              	.LBE102:
 2653              	.LBE101:
 958:../../../../../../Middlewares/Third_Party/LoRaWAN/Mac/region/RegionIN865.c ****     {
 2654              		.loc 1 958 0
 2655 005a 237A     		ldrb	r3, [r4, #8]
 2656 005c 1A07     		lsls	r2, r3, #28
 2657 005e 5BB2     		sxtb	r3, r3
 2658 0060 1217     		asrs	r2, r2, #28
 2659 0062 1B11     		asrs	r3, r3, #4
ARM GAS  C:\Users\EBANO_~1\AppData\Local\Temp\ccEfOEMG.s 			page 72


 2660 0064 9A42     		cmp	r2, r3
 2661 0066 39DC     		bgt	.L309
 2662              	.LVL226:
 2663              	.LBB105:
 2664              	.LBB103:
 115:../../../../../../Middlewares/Third_Party/LoRaWAN/Mac/region/RegionIN865.c ****     {
 2665              		.loc 1 115 0
 2666 0068 019B     		ldr	r3, [sp, #4]
 2667 006a 9847     		blx	r3
 2668              	.LVL227:
 2669 006c 0028     		cmp	r0, #0
 2670 006e 31D0     		beq	.L310
 120:../../../../../../Middlewares/Third_Party/LoRaWAN/Mac/region/RegionIN865.c ****     {
 2671              		.loc 1 120 0
 2672 0070 224B     		ldr	r3, .L325+4
 2673 0072 9C46     		mov	ip, r3
 2674 0074 224B     		ldr	r3, .L325+8
 2675 0076 6644     		add	r6, r6, ip
 2676 0078 9E42     		cmp	r6, r3
 2677 007a 2BD8     		bhi	.L310
 2678              	.LBE103:
 2679              	.LBE105:
 973:../../../../../../Middlewares/Third_Party/LoRaWAN/Mac/region/RegionIN865.c ****     {
 2680              		.loc 1 973 0
 2681 007c 002F     		cmp	r7, #0
 2682 007e 38D1     		bne	.L314
 986:../../../../../../Middlewares/Third_Party/LoRaWAN/Mac/region/RegionIN865.c ****     NvmCtx.Channels[id].Band = 0;
 2683              		.loc 1 986 0
 2684 0080 204B     		ldr	r3, .L325+12
 2685 0082 6E00     		lsls	r6, r5, #1
 2686 0084 9846     		mov	r8, r3
 2687 0086 7619     		adds	r6, r6, r5
 2688 0088 B600     		lsls	r6, r6, #2
 2689 008a 4644     		add	r6, r6, r8
 2690 008c 0C22     		movs	r2, #12
 2691 008e 2100     		movs	r1, r4
 2692 0090 3000     		movs	r0, r6
 2693 0092 FFF7FEFF 		bl	memcpy1
 2694              	.LVL228:
 988:../../../../../../Middlewares/Third_Party/LoRaWAN/Mac/region/RegionIN865.c ****     return LORAMAC_STATUS_OK;
 2695              		.loc 1 988 0
 2696 0096 0122     		movs	r2, #1
 2697 0098 D021     		movs	r1, #208
 2698 009a 4346     		mov	r3, r8
 2699 009c AA40     		lsls	r2, r2, r5
 987:../../../../../../Middlewares/Third_Party/LoRaWAN/Mac/region/RegionIN865.c ****     NvmCtx.ChannelsMask[0] |= ( 1 << id );
 2700              		.loc 1 987 0
 2701 009e 7772     		strb	r7, [r6, #9]
 988:../../../../../../Middlewares/Third_Party/LoRaWAN/Mac/region/RegionIN865.c ****     return LORAMAC_STATUS_OK;
 2702              		.loc 1 988 0
 2703 00a0 5B5A     		ldrh	r3, [r3, r1]
 2704              	.LBE100:
 2705              	.LBE99:
 777:../../../../../../Middlewares/Third_Party/LoRaWAN/Mac/region/RegionIN865.c ****     ChannelAddParams_t channelAdd;
 2706              		.loc 1 777 0
 2707 00a2 0320     		movs	r0, #3
 2708              	.LBB110:
ARM GAS  C:\Users\EBANO_~1\AppData\Local\Temp\ccEfOEMG.s 			page 73


 2709              	.LBB107:
 988:../../../../../../Middlewares/Third_Party/LoRaWAN/Mac/region/RegionIN865.c ****     return LORAMAC_STATUS_OK;
 2710              		.loc 1 988 0
 2711 00a4 1343     		orrs	r3, r2
 2712 00a6 4246     		mov	r2, r8
 2713 00a8 5352     		strh	r3, [r2, r1]
 2714              	.LVL229:
 2715              	.LBE107:
 2716              	.LBE110:
 825:../../../../../../Middlewares/Third_Party/LoRaWAN/Mac/region/RegionIN865.c **** }
 2717              		.loc 1 825 0
 2718 00aa B5E7     		b	.L319
 2719              	.LVL230:
 2720              	.L324:
 2721              	.LBB111:
 2722              	.LBB98:
1002:../../../../../../Middlewares/Third_Party/LoRaWAN/Mac/region/RegionIN865.c **** 
 2723              		.loc 1 1002 0
 2724 00ac 6800     		lsls	r0, r5, #1
 2725              	.LVL231:
 2726 00ae 154C     		ldr	r4, .L325+12
 2727 00b0 4019     		adds	r0, r0, r5
 2728 00b2 8000     		lsls	r0, r0, #2
 2729 00b4 0C22     		movs	r2, #12
 2730 00b6 0021     		movs	r1, #0
 2731 00b8 2018     		adds	r0, r4, r0
 2732 00ba FFF7FEFF 		bl	memset
 2733              	.LVL232:
 2734              		.loc 1 1004 0
 2735 00be 2000     		movs	r0, r4
 2736 00c0 1022     		movs	r2, #16
 2737 00c2 D030     		adds	r0, r0, #208
 2738 00c4 2900     		movs	r1, r5
 2739 00c6 FFF7FEFF 		bl	RegionCommonChanDisable
 2740              	.LVL233:
 2741 00ca 0300     		movs	r3, r0
 2742              	.LVL234:
 2743              	.LBE98:
 2744              	.LBE111:
 777:../../../../../../Middlewares/Third_Party/LoRaWAN/Mac/region/RegionIN865.c ****     ChannelAddParams_t channelAdd;
 2745              		.loc 1 777 0
 2746 00cc 0320     		movs	r0, #3
 786:../../../../../../Middlewares/Third_Party/LoRaWAN/Mac/region/RegionIN865.c ****         {
 2747              		.loc 1 786 0
 2748 00ce 002B     		cmp	r3, #0
 2749 00d0 A2D1     		bne	.L319
 2750 00d2 A0E7     		b	.L306
 2751              	.LVL235:
 2752              	.L310:
 2753              	.LBB112:
 2754              	.LBB108:
 973:../../../../../../Middlewares/Third_Party/LoRaWAN/Mac/region/RegionIN865.c ****     {
 2755              		.loc 1 973 0
 2756 00d4 002F     		cmp	r7, #0
 2757 00d6 9ED1     		bne	.L306
 2758              	.LBE108:
 2759              	.LBE112:
ARM GAS  C:\Users\EBANO_~1\AppData\Local\Temp\ccEfOEMG.s 			page 74


 804:../../../../../../Middlewares/Third_Party/LoRaWAN/Mac/region/RegionIN865.c ****                 break;
 2760              		.loc 1 804 0
 2761 00d8 0220     		movs	r0, #2
 2762 00da 9DE7     		b	.L319
 2763              	.LVL236:
 2764              	.L309:
 2765              	.LBB113:
 2766              	.LBB109:
 2767              	.LBB106:
 2768              	.LBB104:
 115:../../../../../../Middlewares/Third_Party/LoRaWAN/Mac/region/RegionIN865.c ****     {
 2769              		.loc 1 115 0
 2770 00dc 019B     		ldr	r3, [sp, #4]
 2771 00de 9847     		blx	r3
 2772              	.LVL237:
 2773 00e0 0028     		cmp	r0, #0
 2774 00e2 98D0     		beq	.L306
 120:../../../../../../Middlewares/Third_Party/LoRaWAN/Mac/region/RegionIN865.c ****     {
 2775              		.loc 1 120 0
 2776 00e4 054B     		ldr	r3, .L325+4
 2777 00e6 9C46     		mov	ip, r3
 2778 00e8 054B     		ldr	r3, .L325+8
 2779 00ea 6644     		add	r6, r6, ip
 2780 00ec 9E42     		cmp	r6, r3
 2781 00ee 00D9     		bls	.LCB2684
 2782 00f0 91E7     		b	.L306	@long jump
 2783              	.LCB2684:
 2784              	.LVL238:
 2785              	.L314:
 2786              	.LBE104:
 2787              	.LBE106:
 2788              	.LBE109:
 2789              	.LBE113:
 809:../../../../../../Middlewares/Third_Party/LoRaWAN/Mac/region/RegionIN865.c ****                 break;
 2790              		.loc 1 809 0
 2791 00f2 0120     		movs	r0, #1
 2792 00f4 90E7     		b	.L319
 2793              	.L326:
 2794 00f6 C046     		.align	2
 2795              	.L325:
 2796 00f8 00000000 		.word	Radio
 2797 00fc C02571CC 		.word	-865000000
 2798 0100 80841E00 		.word	2000000
 2799 0104 00000000 		.word	NvmCtx
 2800              		.cfi_endproc
 2801              	.LFE56:
 2802              		.size	RegionIN865NewChannelReq, .-RegionIN865NewChannelReq
 2803              		.section	.text.RegionIN865TxParamSetupReq,"ax",%progbits
 2804              		.align	1
 2805              		.p2align 2,,3
 2806              		.global	RegionIN865TxParamSetupReq
 2807              		.syntax unified
 2808              		.code	16
 2809              		.thumb_func
 2810              		.fpu softvfp
 2811              		.type	RegionIN865TxParamSetupReq, %function
 2812              	RegionIN865TxParamSetupReq:
ARM GAS  C:\Users\EBANO_~1\AppData\Local\Temp\ccEfOEMG.s 			page 75


 2813              	.LFB57:
 829:../../../../../../Middlewares/Third_Party/LoRaWAN/Mac/region/RegionIN865.c ****     return -1;
 2814              		.loc 1 829 0
 2815              		.cfi_startproc
 2816              		@ args = 0, pretend = 0, frame = 0
 2817              		@ frame_needed = 0, uses_anonymous_args = 0
 2818              		@ link register save eliminated.
 2819              	.LVL239:
 830:../../../../../../Middlewares/Third_Party/LoRaWAN/Mac/region/RegionIN865.c **** }
 2820              		.loc 1 830 0
 2821 0000 0120     		movs	r0, #1
 2822              	.LVL240:
 831:../../../../../../Middlewares/Third_Party/LoRaWAN/Mac/region/RegionIN865.c **** 
 2823              		.loc 1 831 0
 2824              		@ sp needed
 2825 0002 4042     		rsbs	r0, r0, #0
 2826 0004 7047     		bx	lr
 2827              		.cfi_endproc
 2828              	.LFE57:
 2829              		.size	RegionIN865TxParamSetupReq, .-RegionIN865TxParamSetupReq
 2830 0006 C046     		.section	.text.RegionIN865DlChannelReq,"ax",%progbits
 2831              		.align	1
 2832              		.p2align 2,,3
 2833              		.global	RegionIN865DlChannelReq
 2834              		.syntax unified
 2835              		.code	16
 2836              		.thumb_func
 2837              		.fpu softvfp
 2838              		.type	RegionIN865DlChannelReq, %function
 2839              	RegionIN865DlChannelReq:
 2840              	.LFB58:
 834:../../../../../../Middlewares/Third_Party/LoRaWAN/Mac/region/RegionIN865.c ****     uint8_t status = 0x03;
 2841              		.loc 1 834 0
 2842              		.cfi_startproc
 2843              		@ args = 0, pretend = 0, frame = 8
 2844              		@ frame_needed = 0, uses_anonymous_args = 0
 2845              	.LVL241:
 2846 0000 30B5     		push	{r4, r5, lr}
 2847              	.LCFI27:
 2848              		.cfi_def_cfa_offset 12
 2849              		.cfi_offset 4, -12
 2850              		.cfi_offset 5, -8
 2851              		.cfi_offset 14, -4
 2852              	.LBB114:
 2853              	.LBB115:
 115:../../../../../../Middlewares/Third_Party/LoRaWAN/Mac/region/RegionIN865.c ****     {
 2854              		.loc 1 115 0
 2855 0002 174B     		ldr	r3, .L340
 2856              	.LBE115:
 2857              	.LBE114:
 838:../../../../../../Middlewares/Third_Party/LoRaWAN/Mac/region/RegionIN865.c ****     {
 2858              		.loc 1 838 0
 2859 0004 4468     		ldr	r4, [r0, #4]
 2860              	.LVL242:
 2861              	.LBB118:
 2862              	.LBB116:
 115:../../../../../../Middlewares/Third_Party/LoRaWAN/Mac/region/RegionIN865.c ****     {
ARM GAS  C:\Users\EBANO_~1\AppData\Local\Temp\ccEfOEMG.s 			page 76


 2863              		.loc 1 115 0
 2864 0006 9B6A     		ldr	r3, [r3, #40]
 2865              	.LBE116:
 2866              	.LBE118:
 834:../../../../../../Middlewares/Third_Party/LoRaWAN/Mac/region/RegionIN865.c ****     uint8_t status = 0x03;
 2867              		.loc 1 834 0
 2868 0008 83B0     		sub	sp, sp, #12
 2869              	.LCFI28:
 2870              		.cfi_def_cfa_offset 24
 834:../../../../../../Middlewares/Third_Party/LoRaWAN/Mac/region/RegionIN865.c ****     uint8_t status = 0x03;
 2871              		.loc 1 834 0
 2872 000a 0500     		movs	r5, r0
 2873              	.LBB119:
 2874              	.LBB117:
 115:../../../../../../Middlewares/Third_Party/LoRaWAN/Mac/region/RegionIN865.c ****     {
 2875              		.loc 1 115 0
 2876 000c 2000     		movs	r0, r4
 2877              	.LVL243:
 2878 000e 0193     		str	r3, [sp, #4]
 2879 0010 9847     		blx	r3
 2880              	.LVL244:
 2881 0012 0028     		cmp	r0, #0
 2882 0014 19D0     		beq	.L329
 120:../../../../../../Middlewares/Third_Party/LoRaWAN/Mac/region/RegionIN865.c ****     {
 2883              		.loc 1 120 0
 2884 0016 1348     		ldr	r0, .L340+4
 2885 0018 2978     		ldrb	r1, [r5]
 2886 001a 8446     		mov	ip, r0
 2887 001c 4B00     		lsls	r3, r1, #1
 2888 001e 5B18     		adds	r3, r3, r1
 2889 0020 114A     		ldr	r2, .L340+8
 2890 0022 1248     		ldr	r0, .L340+12
 2891 0024 9B00     		lsls	r3, r3, #2
 2892 0026 6444     		add	r4, r4, ip
 2893              	.LVL245:
 2894 0028 9958     		ldr	r1, [r3, r2]
 2895 002a 8442     		cmp	r4, r0
 2896 002c 05D9     		bls	.L339
 2897              	.LVL246:
 2898              	.LBE117:
 2899              	.LBE119:
 840:../../../../../../Middlewares/Third_Party/LoRaWAN/Mac/region/RegionIN865.c ****     }
 2900              		.loc 1 840 0
 2901 002e 0800     		movs	r0, r1
 2902 0030 411E     		subs	r1, r0, #1
 2903 0032 8841     		sbcs	r0, r0, r1
 2904 0034 4000     		lsls	r0, r0, #1
 2905              	.LVL247:
 2906              	.L333:
 856:../../../../../../Middlewares/Third_Party/LoRaWAN/Mac/region/RegionIN865.c **** 
 2907              		.loc 1 856 0
 2908 0036 03B0     		add	sp, sp, #12
 2909              		@ sp needed
 2910              	.LVL248:
 2911 0038 30BD     		pop	{r4, r5, pc}
 2912              	.LVL249:
 2913              	.L339:
ARM GAS  C:\Users\EBANO_~1\AppData\Local\Temp\ccEfOEMG.s 			page 77


 844:../../../../../../Middlewares/Third_Party/LoRaWAN/Mac/region/RegionIN865.c ****     {
 2914              		.loc 1 844 0
 2915 003a 0120     		movs	r0, #1
 2916 003c 0029     		cmp	r1, #0
 2917 003e FAD0     		beq	.L333
 852:../../../../../../Middlewares/Third_Party/LoRaWAN/Mac/region/RegionIN865.c ****     }
 2918              		.loc 1 852 0
 2919 0040 D318     		adds	r3, r2, r3
 2920 0042 6A68     		ldr	r2, [r5, #4]
 2921 0044 0320     		movs	r0, #3
 2922 0046 5A60     		str	r2, [r3, #4]
 2923 0048 F5E7     		b	.L333
 2924              	.LVL250:
 2925              	.L329:
 844:../../../../../../Middlewares/Third_Party/LoRaWAN/Mac/region/RegionIN865.c ****     {
 2926              		.loc 1 844 0
 2927 004a 2A78     		ldrb	r2, [r5]
 2928 004c 5300     		lsls	r3, r2, #1
 2929 004e 9B18     		adds	r3, r3, r2
 2930 0050 054A     		ldr	r2, .L340+8
 2931 0052 9B00     		lsls	r3, r3, #2
 2932 0054 9858     		ldr	r0, [r3, r2]
 2933 0056 431E     		subs	r3, r0, #1
 2934 0058 9841     		sbcs	r0, r0, r3
 2935 005a 4000     		lsls	r0, r0, #1
 2936 005c EBE7     		b	.L333
 2937              	.L341:
 2938 005e C046     		.align	2
 2939              	.L340:
 2940 0060 00000000 		.word	Radio
 2941 0064 C02571CC 		.word	-865000000
 2942 0068 00000000 		.word	NvmCtx
 2943 006c 80841E00 		.word	2000000
 2944              		.cfi_endproc
 2945              	.LFE58:
 2946              		.size	RegionIN865DlChannelReq, .-RegionIN865DlChannelReq
 2947              		.section	.text.RegionIN865AlternateDr,"ax",%progbits
 2948              		.align	1
 2949              		.p2align 2,,3
 2950              		.global	RegionIN865AlternateDr
 2951              		.syntax unified
 2952              		.code	16
 2953              		.thumb_func
 2954              		.fpu softvfp
 2955              		.type	RegionIN865AlternateDr, %function
 2956              	RegionIN865AlternateDr:
 2957              	.LFB59:
 859:../../../../../../Middlewares/Third_Party/LoRaWAN/Mac/region/RegionIN865.c ****     return currentDr;
 2958              		.loc 1 859 0
 2959              		.cfi_startproc
 2960              		@ args = 0, pretend = 0, frame = 0
 2961              		@ frame_needed = 0, uses_anonymous_args = 0
 2962              		@ link register save eliminated.
 2963              	.LVL251:
 861:../../../../../../Middlewares/Third_Party/LoRaWAN/Mac/region/RegionIN865.c **** 
 2964              		.loc 1 861 0
 2965              		@ sp needed
ARM GAS  C:\Users\EBANO_~1\AppData\Local\Temp\ccEfOEMG.s 			page 78


 2966 0000 7047     		bx	lr
 2967              		.cfi_endproc
 2968              	.LFE59:
 2969              		.size	RegionIN865AlternateDr, .-RegionIN865AlternateDr
 2970 0002 C046     		.section	.text.RegionIN865CalcBackOff,"ax",%progbits
 2971              		.align	1
 2972              		.p2align 2,,3
 2973              		.global	RegionIN865CalcBackOff
 2974              		.syntax unified
 2975              		.code	16
 2976              		.thumb_func
 2977              		.fpu softvfp
 2978              		.type	RegionIN865CalcBackOff, %function
 2979              	RegionIN865CalcBackOff:
 2980              	.LFB60:
 864:../../../../../../Middlewares/Third_Party/LoRaWAN/Mac/region/RegionIN865.c ****     RegionCommonCalcBackOffParams_t calcBackOffParams;
 2981              		.loc 1 864 0
 2982              		.cfi_startproc
 2983              		@ args = 0, pretend = 0, frame = 24
 2984              		@ frame_needed = 0, uses_anonymous_args = 0
 2985              	.LVL252:
 2986 0000 00B5     		push	{lr}
 2987              	.LCFI29:
 2988              		.cfi_def_cfa_offset 4
 2989              		.cfi_offset 14, -4
 867:../../../../../../Middlewares/Third_Party/LoRaWAN/Mac/region/RegionIN865.c ****     calcBackOffParams.Bands = NvmCtx.Bands;
 2990              		.loc 1 867 0
 2991 0002 0B4A     		ldr	r2, .L344
 864:../../../../../../Middlewares/Third_Party/LoRaWAN/Mac/region/RegionIN865.c ****     RegionCommonCalcBackOffParams_t calcBackOffParams;
 2992              		.loc 1 864 0
 2993 0004 87B0     		sub	sp, sp, #28
 2994              	.LCFI30:
 2995              		.cfi_def_cfa_offset 32
 867:../../../../../../Middlewares/Third_Party/LoRaWAN/Mac/region/RegionIN865.c ****     calcBackOffParams.Bands = NvmCtx.Bands;
 2996              		.loc 1 867 0
 2997 0006 0192     		str	r2, [sp, #4]
 868:../../../../../../Middlewares/Third_Party/LoRaWAN/Mac/region/RegionIN865.c ****     calcBackOffParams.LastTxIsJoinRequest = calcBackOff->LastTxIsJoinRequest;
 2998              		.loc 1 868 0
 2999 0008 C032     		adds	r2, r2, #192
 3000 000a 0292     		str	r2, [sp, #8]
 869:../../../../../../Middlewares/Third_Party/LoRaWAN/Mac/region/RegionIN865.c ****     calcBackOffParams.Joined = calcBackOff->Joined;
 3001              		.loc 1 869 0
 3002 000c 4278     		ldrb	r2, [r0, #1]
 867:../../../../../../Middlewares/Third_Party/LoRaWAN/Mac/region/RegionIN865.c ****     calcBackOffParams.Bands = NvmCtx.Bands;
 3003              		.loc 1 867 0
 3004 000e 01AB     		add	r3, sp, #4
 869:../../../../../../Middlewares/Third_Party/LoRaWAN/Mac/region/RegionIN865.c ****     calcBackOffParams.Joined = calcBackOff->Joined;
 3005              		.loc 1 869 0
 3006 0010 1A72     		strb	r2, [r3, #8]
 870:../../../../../../Middlewares/Third_Party/LoRaWAN/Mac/region/RegionIN865.c ****     calcBackOffParams.DutyCycleEnabled = calcBackOff->DutyCycleEnabled;
 3007              		.loc 1 870 0
 3008 0012 0278     		ldrb	r2, [r0]
 3009 0014 5A72     		strb	r2, [r3, #9]
 871:../../../../../../Middlewares/Third_Party/LoRaWAN/Mac/region/RegionIN865.c ****     calcBackOffParams.Channel = calcBackOff->Channel;
 3010              		.loc 1 871 0
 3011 0016 8278     		ldrb	r2, [r0, #2]
 3012 0018 9A72     		strb	r2, [r3, #10]
ARM GAS  C:\Users\EBANO_~1\AppData\Local\Temp\ccEfOEMG.s 			page 79


 872:../../../../../../Middlewares/Third_Party/LoRaWAN/Mac/region/RegionIN865.c ****     calcBackOffParams.ElapsedTime = calcBackOff->ElapsedTime;
 3013              		.loc 1 872 0
 3014 001a C278     		ldrb	r2, [r0, #3]
 3015 001c DA72     		strb	r2, [r3, #11]
 873:../../../../../../Middlewares/Third_Party/LoRaWAN/Mac/region/RegionIN865.c ****     calcBackOffParams.TxTimeOnAir = calcBackOff->TxTimeOnAir;
 3016              		.loc 1 873 0
 3017 001e 4268     		ldr	r2, [r0, #4]
 3018 0020 0492     		str	r2, [sp, #16]
 874:../../../../../../Middlewares/Third_Party/LoRaWAN/Mac/region/RegionIN865.c **** 
 3019              		.loc 1 874 0
 3020 0022 8268     		ldr	r2, [r0, #8]
 876:../../../../../../Middlewares/Third_Party/LoRaWAN/Mac/region/RegionIN865.c **** }
 3021              		.loc 1 876 0
 3022 0024 1800     		movs	r0, r3
 3023              	.LVL253:
 874:../../../../../../Middlewares/Third_Party/LoRaWAN/Mac/region/RegionIN865.c **** 
 3024              		.loc 1 874 0
 3025 0026 0592     		str	r2, [sp, #20]
 876:../../../../../../Middlewares/Third_Party/LoRaWAN/Mac/region/RegionIN865.c **** }
 3026              		.loc 1 876 0
 3027 0028 FFF7FEFF 		bl	RegionCommonCalcBackOff
 3028              	.LVL254:
 877:../../../../../../Middlewares/Third_Party/LoRaWAN/Mac/region/RegionIN865.c **** 
 3029              		.loc 1 877 0
 3030 002c 07B0     		add	sp, sp, #28
 3031              		@ sp needed
 3032 002e 00BD     		pop	{pc}
 3033              	.L345:
 3034              		.align	2
 3035              	.L344:
 3036 0030 00000000 		.word	NvmCtx
 3037              		.cfi_endproc
 3038              	.LFE60:
 3039              		.size	RegionIN865CalcBackOff, .-RegionIN865CalcBackOff
 3040              		.section	.text.RegionIN865NextChannel,"ax",%progbits
 3041              		.align	1
 3042              		.p2align 2,,3
 3043              		.global	RegionIN865NextChannel
 3044              		.syntax unified
 3045              		.code	16
 3046              		.thumb_func
 3047              		.fpu softvfp
 3048              		.type	RegionIN865NextChannel, %function
 3049              	RegionIN865NextChannel:
 3050              	.LFB61:
 880:../../../../../../Middlewares/Third_Party/LoRaWAN/Mac/region/RegionIN865.c ****     uint8_t nbEnabledChannels = 0;
 3051              		.loc 1 880 0
 3052              		.cfi_startproc
 3053              		@ args = 0, pretend = 0, frame = 40
 3054              		@ frame_needed = 0, uses_anonymous_args = 0
 3055              	.LVL255:
 3056 0000 F0B5     		push	{r4, r5, r6, r7, lr}
 3057              	.LCFI31:
 3058              		.cfi_def_cfa_offset 20
 3059              		.cfi_offset 4, -20
 3060              		.cfi_offset 5, -16
 3061              		.cfi_offset 6, -12
ARM GAS  C:\Users\EBANO_~1\AppData\Local\Temp\ccEfOEMG.s 			page 80


 3062              		.cfi_offset 7, -8
 3063              		.cfi_offset 14, -4
 3064 0002 DE46     		mov	lr, fp
 3065 0004 4E46     		mov	r6, r9
 3066 0006 4546     		mov	r5, r8
 3067 0008 5746     		mov	r7, r10
 3068 000a E0B5     		push	{r5, r6, r7, lr}
 3069              	.LCFI32:
 3070              		.cfi_def_cfa_offset 36
 3071              		.cfi_offset 8, -36
 3072              		.cfi_offset 9, -32
 3073              		.cfi_offset 10, -28
 3074              		.cfi_offset 11, -24
 3075 000c 8BB0     		sub	sp, sp, #44
 3076              	.LCFI33:
 3077              		.cfi_def_cfa_offset 80
 880:../../../../../../Middlewares/Third_Party/LoRaWAN/Mac/region/RegionIN865.c ****     uint8_t nbEnabledChannels = 0;
 3078              		.loc 1 880 0
 3079 000e 0491     		str	r1, [sp, #16]
 3080 0010 0400     		movs	r4, r0
 883:../../../../../../Middlewares/Third_Party/LoRaWAN/Mac/region/RegionIN865.c ****     TimerTime_t nextTxDelay = 0;
 3081              		.loc 1 883 0
 3082 0012 0021     		movs	r1, #0
 3083              	.LVL256:
 880:../../../../../../Middlewares/Third_Party/LoRaWAN/Mac/region/RegionIN865.c ****     uint8_t nbEnabledChannels = 0;
 3084              		.loc 1 880 0
 3085 0014 9346     		mov	fp, r2
 883:../../../../../../Middlewares/Third_Party/LoRaWAN/Mac/region/RegionIN865.c ****     TimerTime_t nextTxDelay = 0;
 3086              		.loc 1 883 0
 3087 0016 06A8     		add	r0, sp, #24
 3088              	.LVL257:
 3089 0018 1022     		movs	r2, #16
 3090              	.LVL258:
 880:../../../../../../Middlewares/Third_Party/LoRaWAN/Mac/region/RegionIN865.c ****     uint8_t nbEnabledChannels = 0;
 3091              		.loc 1 880 0
 3092 001a 1E00     		movs	r6, r3
 883:../../../../../../Middlewares/Third_Party/LoRaWAN/Mac/region/RegionIN865.c ****     TimerTime_t nextTxDelay = 0;
 3093              		.loc 1 883 0
 3094 001c FFF7FEFF 		bl	memset
 3095              	.LVL259:
 886:../../../../../../Middlewares/Third_Party/LoRaWAN/Mac/region/RegionIN865.c ****     { // Reactivate default channels
 3096              		.loc 1 886 0
 3097 0020 644D     		ldr	r5, .L385
 3098 0022 0122     		movs	r2, #1
 3099 0024 0021     		movs	r1, #0
 3100 0026 2800     		movs	r0, r5
 3101 0028 FFF7FEFF 		bl	RegionCommonCountChannels
 3102              	.LVL260:
 3103 002c 0028     		cmp	r0, #0
 3104 002e 05D1     		bne	.L347
 888:../../../../../../Middlewares/Third_Party/LoRaWAN/Mac/region/RegionIN865.c ****     }
 3105              		.loc 1 888 0
 3106 0030 D022     		movs	r2, #208
 3107 0032 0721     		movs	r1, #7
 3108 0034 D03D     		subs	r5, r5, #208
 3109 0036 AB5A     		ldrh	r3, [r5, r2]
 3110 0038 0B43     		orrs	r3, r1
ARM GAS  C:\Users\EBANO_~1\AppData\Local\Temp\ccEfOEMG.s 			page 81


 3111 003a AB52     		strh	r3, [r5, r2]
 3112              	.L347:
 891:../../../../../../Middlewares/Third_Party/LoRaWAN/Mac/region/RegionIN865.c ****     {
 3113              		.loc 1 891 0
 3114 003c 6068     		ldr	r0, [r4, #4]
 3115 003e 2568     		ldr	r5, [r4]
 3116 0040 FFF7FEFF 		bl	TimerGetElapsedTime
 3117              	.LVL261:
 3118 0044 8542     		cmp	r5, r0
 3119 0046 62D8     		bhi	.L348
 894:../../../../../../Middlewares/Third_Party/LoRaWAN/Mac/region/RegionIN865.c **** 
 3120              		.loc 1 894 0
 3121 0048 0023     		movs	r3, #0
 897:../../../../../../Middlewares/Third_Party/LoRaWAN/Mac/region/RegionIN865.c **** 
 3122              		.loc 1 897 0
 3123 004a 5B4D     		ldr	r5, .L385+4
 894:../../../../../../Middlewares/Third_Party/LoRaWAN/Mac/region/RegionIN865.c **** 
 3124              		.loc 1 894 0
 3125 004c 3360     		str	r3, [r6]
 897:../../../../../../Middlewares/Third_Party/LoRaWAN/Mac/region/RegionIN865.c **** 
 3126              		.loc 1 897 0
 3127 004e A17A     		ldrb	r1, [r4, #10]
 3128 0050 0133     		adds	r3, r3, #1
 3129 0052 607A     		ldrb	r0, [r4, #9]
 3130 0054 2A00     		movs	r2, r5
 3131 0056 FFF7FEFF 		bl	RegionCommonUpdateBandTimeOff
 3132              	.LVL262:
 900:../../../../../../Middlewares/Third_Party/LoRaWAN/Mac/region/RegionIN865.c ****                                                       NvmCtx.ChannelsMask, NvmCtx.Channels,
 3133              		.loc 1 900 0
 3134 005a 0823     		movs	r3, #8
 897:../../../../../../Middlewares/Third_Party/LoRaWAN/Mac/region/RegionIN865.c **** 
 3135              		.loc 1 897 0
 3136 005c 0390     		str	r0, [sp, #12]
 3137              	.LVL263:
 900:../../../../../../Middlewares/Third_Party/LoRaWAN/Mac/region/RegionIN865.c ****                                                       NvmCtx.ChannelsMask, NvmCtx.Channels,
 3138              		.loc 1 900 0
 3139 005e E356     		ldrsb	r3, [r4, r3]
 3140 0060 0193     		str	r3, [sp, #4]
 3141              	.LVL264:
 3142 0062 637A     		ldrb	r3, [r4, #9]
 3143 0064 002B     		cmp	r3, #0
 3144 0066 5DD1     		bne	.L349
 3145 0068 C03D     		subs	r5, r5, #192
 3146              	.LVL265:
 3147              	.LBB124:
 3148              	.LBB125:
 130:../../../../../../Middlewares/Third_Party/LoRaWAN/Mac/region/RegionIN865.c **** 
 3149              		.loc 1 130 0
 3150 006a 0293     		str	r3, [sp, #8]
 129:../../../../../../Middlewares/Third_Party/LoRaWAN/Mac/region/RegionIN865.c ****     uint8_t delayTransmission = 0;
 3151              		.loc 1 129 0
 3152 006c 9846     		mov	r8, r3
 3153              	.LBB126:
 3154              	.LBB127:
 136:../../../../../../Middlewares/Third_Party/LoRaWAN/Mac/region/RegionIN865.c ****             {
 3155              		.loc 1 136 0
 3156 006e D033     		adds	r3, r3, #208
ARM GAS  C:\Users\EBANO_~1\AppData\Local\Temp\ccEfOEMG.s 			page 82


 3157              	.LBE127:
 3158              	.LBE126:
 3159              	.LBE125:
 3160              	.LBE124:
 900:../../../../../../Middlewares/Third_Party/LoRaWAN/Mac/region/RegionIN865.c ****                                                       NvmCtx.ChannelsMask, NvmCtx.Channels,
 3161              		.loc 1 900 0
 3162 0070 0024     		movs	r4, #0
 3163              	.LVL266:
 3164 0072 2E00     		movs	r6, r5
 3165              	.LVL267:
 3166              	.LBB137:
 3167              	.LBB134:
 3168              	.LBB131:
 3169              	.LBB128:
 136:../../../../../../Middlewares/Third_Party/LoRaWAN/Mac/region/RegionIN865.c ****             {
 3170              		.loc 1 136 0
 3171 0074 9A46     		mov	r10, r3
 3172 0076 0127     		movs	r7, #1
 3173 0078 0BE0     		b	.L352
 3174              	.LVL268:
 3175              	.L351:
 159:../../../../../../Middlewares/Third_Party/LoRaWAN/Mac/region/RegionIN865.c ****             }
 3176              		.loc 1 159 0
 3177 007a 4346     		mov	r3, r8
 3178 007c 0133     		adds	r3, r3, #1
 3179              	.LVL269:
 3180 007e 4146     		mov	r1, r8
 3181 0080 4846     		mov	r0, r9
 3182 0082 DBB2     		uxtb	r3, r3
 3183 0084 9846     		mov	r8, r3
 3184 0086 06AA     		add	r2, sp, #24
 3185              	.LVL270:
 3186 0088 5054     		strb	r0, [r2, r1]
 3187              	.LVL271:
 3188              	.L350:
 3189 008a 0134     		adds	r4, r4, #1
 3190              	.LVL272:
 3191 008c 0C35     		adds	r5, r5, #12
 134:../../../../../../Middlewares/Third_Party/LoRaWAN/Mac/region/RegionIN865.c ****         {
 3192              		.loc 1 134 0
 3193 008e 102C     		cmp	r4, #16
 3194 0090 27D0     		beq	.L353
 3195              	.LVL273:
 3196              	.L352:
 3197 0092 E3B2     		uxtb	r3, r4
 3198 0094 9946     		mov	r9, r3
 3199              	.LVL274:
 136:../../../../../../Middlewares/Third_Party/LoRaWAN/Mac/region/RegionIN865.c ****             {
 3200              		.loc 1 136 0
 3201 0096 5346     		mov	r3, r10
 3202 0098 F35A     		ldrh	r3, [r6, r3]
 3203 009a 2341     		asrs	r3, r3, r4
 3204 009c 1F42     		tst	r7, r3
 3205 009e F4D0     		beq	.L350
 138:../../../../../../Middlewares/Third_Party/LoRaWAN/Mac/region/RegionIN865.c ****                 { // Check if the channel is enabled
 3206              		.loc 1 138 0
 3207 00a0 2B68     		ldr	r3, [r5]
ARM GAS  C:\Users\EBANO_~1\AppData\Local\Temp\ccEfOEMG.s 			page 83


 3208 00a2 002B     		cmp	r3, #0
 3209 00a4 F1D0     		beq	.L350
 144:../../../../../../Middlewares/Third_Party/LoRaWAN/Mac/region/RegionIN865.c ****                     {
 3210              		.loc 1 144 0
 3211 00a6 0723     		movs	r3, #7
 3212 00a8 2341     		asrs	r3, r3, r4
 3213 00aa 1F42     		tst	r7, r3
 3214 00ac EDD0     		beq	.L350
 150:../../../../../../Middlewares/Third_Party/LoRaWAN/Mac/region/RegionIN865.c ****                 { // Check if the current channel selection supports the given datarate
 3215              		.loc 1 150 0
 3216 00ae 297A     		ldrb	r1, [r5, #8]
 149:../../../../../../Middlewares/Third_Party/LoRaWAN/Mac/region/RegionIN865.c ****                                               channels[i + j].DrRange.Fields.Max ) == false )
 3217              		.loc 1 149 0
 3218 00b0 0198     		ldr	r0, [sp, #4]
 150:../../../../../../Middlewares/Third_Party/LoRaWAN/Mac/region/RegionIN865.c ****                 { // Check if the current channel selection supports the given datarate
 3219              		.loc 1 150 0
 3220 00b2 4AB2     		sxtb	r2, r1
 149:../../../../../../Middlewares/Third_Party/LoRaWAN/Mac/region/RegionIN865.c ****                                               channels[i + j].DrRange.Fields.Max ) == false )
 3221              		.loc 1 149 0
 3222 00b4 0907     		lsls	r1, r1, #28
 3223 00b6 1211     		asrs	r2, r2, #4
 3224 00b8 0917     		asrs	r1, r1, #28
 3225 00ba FFF7FEFF 		bl	RegionCommonValueInRange
 3226              	.LVL275:
 3227 00be 0028     		cmp	r0, #0
 3228 00c0 E3D0     		beq	.L350
 154:../../../../../../Middlewares/Third_Party/LoRaWAN/Mac/region/RegionIN865.c ****                 { // Check if the band is available for transmission
 3229              		.loc 1 154 0
 3230 00c2 3200     		movs	r2, r6
 3231 00c4 6B7A     		ldrb	r3, [r5, #9]
 3232 00c6 C032     		adds	r2, r2, #192
 3233 00c8 1B01     		lsls	r3, r3, #4
 3234 00ca 9B18     		adds	r3, r3, r2
 3235 00cc DB68     		ldr	r3, [r3, #12]
 3236 00ce 002B     		cmp	r3, #0
 3237 00d0 D3D0     		beq	.L351
 156:../../../../../../Middlewares/Third_Party/LoRaWAN/Mac/region/RegionIN865.c ****                     continue;
 3238              		.loc 1 156 0
 3239 00d2 029B     		ldr	r3, [sp, #8]
 3240 00d4 0134     		adds	r4, r4, #1
 3241 00d6 0133     		adds	r3, r3, #1
 3242 00d8 DBB2     		uxtb	r3, r3
 3243 00da 0293     		str	r3, [sp, #8]
 3244              	.LVL276:
 3245 00dc 0C35     		adds	r5, r5, #12
 134:../../../../../../Middlewares/Third_Party/LoRaWAN/Mac/region/RegionIN865.c ****         {
 3246              		.loc 1 134 0
 3247 00de 102C     		cmp	r4, #16
 3248 00e0 D7D1     		bne	.L352
 3249              	.LVL277:
 3250              	.L353:
 3251              	.LBE128:
 3252              	.LBE131:
 3253              	.LBE134:
 3254              	.LBE137:
 910:../../../../../../Middlewares/Third_Party/LoRaWAN/Mac/region/RegionIN865.c ****     {
 3255              		.loc 1 910 0
ARM GAS  C:\Users\EBANO_~1\AppData\Local\Temp\ccEfOEMG.s 			page 84


 3256 00e2 4346     		mov	r3, r8
 3257 00e4 002B     		cmp	r3, #0
 3258 00e6 57D1     		bne	.L384
 920:../../../../../../Middlewares/Third_Party/LoRaWAN/Mac/region/RegionIN865.c ****         {
 3259              		.loc 1 920 0
 3260 00e8 029B     		ldr	r3, [sp, #8]
 3261 00ea 002B     		cmp	r3, #0
 3262 00ec 15D1     		bne	.L360
 927:../../../../../../Middlewares/Third_Party/LoRaWAN/Mac/region/RegionIN865.c ****         *time = 0;
 3263              		.loc 1 927 0
 3264 00ee D022     		movs	r2, #208
 3265 00f0 0721     		movs	r1, #7
 3266 00f2 B35A     		ldrh	r3, [r6, r2]
 929:../../../../../../Middlewares/Third_Party/LoRaWAN/Mac/region/RegionIN865.c ****     }
 3267              		.loc 1 929 0
 3268 00f4 0C20     		movs	r0, #12
 927:../../../../../../Middlewares/Third_Party/LoRaWAN/Mac/region/RegionIN865.c ****         *time = 0;
 3269              		.loc 1 927 0
 3270 00f6 0B43     		orrs	r3, r1
 3271 00f8 B352     		strh	r3, [r6, r2]
 928:../../../../../../Middlewares/Third_Party/LoRaWAN/Mac/region/RegionIN865.c ****         return LORAMAC_STATUS_NO_CHANNEL_FOUND;
 3272              		.loc 1 928 0
 3273 00fa 5B46     		mov	r3, fp
 3274 00fc 029A     		ldr	r2, [sp, #8]
 3275 00fe 1A60     		str	r2, [r3]
 3276              	.LVL278:
 3277              	.L361:
 931:../../../../../../Middlewares/Third_Party/LoRaWAN/Mac/region/RegionIN865.c **** 
 3278              		.loc 1 931 0
 3279 0100 0BB0     		add	sp, sp, #44
 3280              		@ sp needed
 3281              	.LVL279:
 3282 0102 3CBC     		pop	{r2, r3, r4, r5}
 3283 0104 9046     		mov	r8, r2
 3284 0106 9946     		mov	r9, r3
 3285 0108 A246     		mov	r10, r4
 3286 010a AB46     		mov	fp, r5
 3287 010c F0BD     		pop	{r4, r5, r6, r7, pc}
 3288              	.LVL280:
 3289              	.L348:
 907:../../../../../../Middlewares/Third_Party/LoRaWAN/Mac/region/RegionIN865.c ****     }
 3290              		.loc 1 907 0
 3291 010e 6068     		ldr	r0, [r4, #4]
 3292 0110 2568     		ldr	r5, [r4]
 3293 0112 FFF7FEFF 		bl	TimerGetElapsedTime
 3294              	.LVL281:
 3295 0116 2B1A     		subs	r3, r5, r0
 3296 0118 0393     		str	r3, [sp, #12]
 3297              	.LVL282:
 3298              	.L360:
 923:../../../../../../Middlewares/Third_Party/LoRaWAN/Mac/region/RegionIN865.c ****             return LORAMAC_STATUS_DUTYCYCLE_RESTRICTED;
 3299              		.loc 1 923 0
 3300 011a 5B46     		mov	r3, fp
 3301 011c 039A     		ldr	r2, [sp, #12]
 924:../../../../../../Middlewares/Third_Party/LoRaWAN/Mac/region/RegionIN865.c ****         }
 3302              		.loc 1 924 0
 3303 011e 0B20     		movs	r0, #11
ARM GAS  C:\Users\EBANO_~1\AppData\Local\Temp\ccEfOEMG.s 			page 85


 923:../../../../../../Middlewares/Third_Party/LoRaWAN/Mac/region/RegionIN865.c ****             return LORAMAC_STATUS_DUTYCYCLE_RESTRICTED;
 3304              		.loc 1 923 0
 3305 0120 1A60     		str	r2, [r3]
 924:../../../../../../Middlewares/Third_Party/LoRaWAN/Mac/region/RegionIN865.c ****         }
 3306              		.loc 1 924 0
 3307 0122 EDE7     		b	.L361
 3308              	.LVL283:
 3309              	.L349:
 3310              	.LBB138:
 3311              	.LBB135:
 130:../../../../../../Middlewares/Third_Party/LoRaWAN/Mac/region/RegionIN865.c **** 
 3312              		.loc 1 130 0
 3313 0124 0023     		movs	r3, #0
 3314 0126 2F00     		movs	r7, r5
 3315 0128 0293     		str	r3, [sp, #8]
 129:../../../../../../Middlewares/Third_Party/LoRaWAN/Mac/region/RegionIN865.c ****     uint8_t delayTransmission = 0;
 3316              		.loc 1 129 0
 3317 012a 9846     		mov	r8, r3
 3318              	.LBB132:
 3319              	.LBB129:
 136:../../../../../../Middlewares/Third_Party/LoRaWAN/Mac/region/RegionIN865.c ****             {
 3320              		.loc 1 136 0
 3321 012c D033     		adds	r3, r3, #208
 3322 012e C03F     		subs	r7, r7, #192
 3323 0130 9A46     		mov	r10, r3
 3324 0132 CF3B     		subs	r3, r3, #207
 3325              	.LBE129:
 3326              	.LBE132:
 3327              	.LBE135:
 3328              	.LBE138:
 900:../../../../../../Middlewares/Third_Party/LoRaWAN/Mac/region/RegionIN865.c ****                                                       NvmCtx.ChannelsMask, NvmCtx.Channels,
 3329              		.loc 1 900 0
 3330 0134 0024     		movs	r4, #0
 3331              	.LVL284:
 3332 0136 3E00     		movs	r6, r7
 3333              	.LVL285:
 3334              	.LBB139:
 3335              	.LBB136:
 3336              	.LBB133:
 3337              	.LBB130:
 136:../../../../../../Middlewares/Third_Party/LoRaWAN/Mac/region/RegionIN865.c ****             {
 3338              		.loc 1 136 0
 3339 0138 9946     		mov	r9, r3
 154:../../../../../../Middlewares/Third_Party/LoRaWAN/Mac/region/RegionIN865.c ****                 { // Check if the band is available for transmission
 3340              		.loc 1 154 0
 3341 013a 0595     		str	r5, [sp, #20]
 3342 013c 03E0     		b	.L355
 3343              	.LVL286:
 3344              	.L356:
 3345 013e 0134     		adds	r4, r4, #1
 3346              	.LVL287:
 3347 0140 0C37     		adds	r7, r7, #12
 134:../../../../../../Middlewares/Third_Party/LoRaWAN/Mac/region/RegionIN865.c ****         {
 3348              		.loc 1 134 0
 3349 0142 102C     		cmp	r4, #16
 3350 0144 CDD0     		beq	.L353
 3351              	.LVL288:
ARM GAS  C:\Users\EBANO_~1\AppData\Local\Temp\ccEfOEMG.s 			page 86


 3352              	.L355:
 136:../../../../../../Middlewares/Third_Party/LoRaWAN/Mac/region/RegionIN865.c ****             {
 3353              		.loc 1 136 0
 3354 0146 5346     		mov	r3, r10
 3355 0148 F35A     		ldrh	r3, [r6, r3]
 3356 014a 4A46     		mov	r2, r9
 3357 014c 2341     		asrs	r3, r3, r4
 3358 014e E5B2     		uxtb	r5, r4
 3359              	.LVL289:
 3360 0150 1A42     		tst	r2, r3
 3361 0152 F4D0     		beq	.L356
 138:../../../../../../Middlewares/Third_Party/LoRaWAN/Mac/region/RegionIN865.c ****                 { // Check if the channel is enabled
 3362              		.loc 1 138 0
 3363 0154 3B68     		ldr	r3, [r7]
 3364 0156 002B     		cmp	r3, #0
 3365 0158 F1D0     		beq	.L356
 150:../../../../../../Middlewares/Third_Party/LoRaWAN/Mac/region/RegionIN865.c ****                 { // Check if the current channel selection supports the given datarate
 3366              		.loc 1 150 0
 3367 015a 397A     		ldrb	r1, [r7, #8]
 149:../../../../../../Middlewares/Third_Party/LoRaWAN/Mac/region/RegionIN865.c ****                                               channels[i + j].DrRange.Fields.Max ) == false )
 3368              		.loc 1 149 0
 3369 015c 0198     		ldr	r0, [sp, #4]
 150:../../../../../../Middlewares/Third_Party/LoRaWAN/Mac/region/RegionIN865.c ****                 { // Check if the current channel selection supports the given datarate
 3370              		.loc 1 150 0
 3371 015e 4AB2     		sxtb	r2, r1
 149:../../../../../../Middlewares/Third_Party/LoRaWAN/Mac/region/RegionIN865.c ****                                               channels[i + j].DrRange.Fields.Max ) == false )
 3372              		.loc 1 149 0
 3373 0160 0907     		lsls	r1, r1, #28
 3374 0162 1211     		asrs	r2, r2, #4
 3375 0164 0917     		asrs	r1, r1, #28
 3376 0166 FFF7FEFF 		bl	RegionCommonValueInRange
 3377              	.LVL290:
 3378 016a 0028     		cmp	r0, #0
 3379 016c E7D0     		beq	.L356
 154:../../../../../../Middlewares/Third_Party/LoRaWAN/Mac/region/RegionIN865.c ****                 { // Check if the band is available for transmission
 3380              		.loc 1 154 0
 3381 016e 059A     		ldr	r2, [sp, #20]
 3382 0170 7B7A     		ldrb	r3, [r7, #9]
 3383 0172 9446     		mov	ip, r2
 3384 0174 1B01     		lsls	r3, r3, #4
 3385 0176 6344     		add	r3, r3, ip
 3386 0178 DB68     		ldr	r3, [r3, #12]
 3387 017a 002B     		cmp	r3, #0
 3388 017c 07D1     		bne	.L357
 159:../../../../../../Middlewares/Third_Party/LoRaWAN/Mac/region/RegionIN865.c ****             }
 3389              		.loc 1 159 0
 3390 017e 4346     		mov	r3, r8
 3391 0180 4146     		mov	r1, r8
 3392 0182 0133     		adds	r3, r3, #1
 3393              	.LVL291:
 3394 0184 06AA     		add	r2, sp, #24
 3395              	.LVL292:
 3396 0186 DBB2     		uxtb	r3, r3
 3397 0188 5554     		strb	r5, [r2, r1]
 3398 018a 9846     		mov	r8, r3
 3399 018c D7E7     		b	.L356
 3400              	.LVL293:
ARM GAS  C:\Users\EBANO_~1\AppData\Local\Temp\ccEfOEMG.s 			page 87


 3401              	.L357:
 156:../../../../../../Middlewares/Third_Party/LoRaWAN/Mac/region/RegionIN865.c ****                     continue;
 3402              		.loc 1 156 0
 3403 018e 029B     		ldr	r3, [sp, #8]
 3404 0190 0133     		adds	r3, r3, #1
 3405 0192 DBB2     		uxtb	r3, r3
 3406 0194 0293     		str	r3, [sp, #8]
 3407              	.LVL294:
 3408 0196 D2E7     		b	.L356
 3409              	.LVL295:
 3410              	.L384:
 3411              	.LBE130:
 3412              	.LBE133:
 3413              	.LBE136:
 3414              	.LBE139:
 913:../../../../../../Middlewares/Third_Party/LoRaWAN/Mac/region/RegionIN865.c **** 
 3415              		.loc 1 913 0
 3416 0198 4146     		mov	r1, r8
 3417 019a 0020     		movs	r0, #0
 3418 019c 0139     		subs	r1, r1, #1
 3419 019e FFF7FEFF 		bl	randr
 3420              	.LVL296:
 3421 01a2 06AB     		add	r3, sp, #24
 3422 01a4 1B5C     		ldrb	r3, [r3, r0]
 3423 01a6 049A     		ldr	r2, [sp, #16]
 916:../../../../../../Middlewares/Third_Party/LoRaWAN/Mac/region/RegionIN865.c ****     }
 3424              		.loc 1 916 0
 3425 01a8 0020     		movs	r0, #0
 913:../../../../../../Middlewares/Third_Party/LoRaWAN/Mac/region/RegionIN865.c **** 
 3426              		.loc 1 913 0
 3427 01aa 1370     		strb	r3, [r2]
 915:../../../../../../Middlewares/Third_Party/LoRaWAN/Mac/region/RegionIN865.c ****         return LORAMAC_STATUS_OK;
 3428              		.loc 1 915 0
 3429 01ac 0023     		movs	r3, #0
 3430 01ae 5A46     		mov	r2, fp
 3431 01b0 1360     		str	r3, [r2]
 916:../../../../../../Middlewares/Third_Party/LoRaWAN/Mac/region/RegionIN865.c ****     }
 3432              		.loc 1 916 0
 3433 01b2 A5E7     		b	.L361
 3434              	.L386:
 3435              		.align	2
 3436              	.L385:
 3437 01b4 D0000000 		.word	NvmCtx+208
 3438 01b8 C0000000 		.word	NvmCtx+192
 3439              		.cfi_endproc
 3440              	.LFE61:
 3441              		.size	RegionIN865NextChannel, .-RegionIN865NextChannel
 3442              		.section	.text.RegionIN865ChannelAdd,"ax",%progbits
 3443              		.align	1
 3444              		.p2align 2,,3
 3445              		.global	RegionIN865ChannelAdd
 3446              		.syntax unified
 3447              		.code	16
 3448              		.thumb_func
 3449              		.fpu softvfp
 3450              		.type	RegionIN865ChannelAdd, %function
 3451              	RegionIN865ChannelAdd:
ARM GAS  C:\Users\EBANO_~1\AppData\Local\Temp\ccEfOEMG.s 			page 88


 3452              	.LFB62:
 934:../../../../../../Middlewares/Third_Party/LoRaWAN/Mac/region/RegionIN865.c ****     bool drInvalid = false;
 3453              		.loc 1 934 0
 3454              		.cfi_startproc
 3455              		@ args = 0, pretend = 0, frame = 8
 3456              		@ frame_needed = 0, uses_anonymous_args = 0
 3457              	.LVL297:
 3458 0000 F0B5     		push	{r4, r5, r6, r7, lr}
 3459              	.LCFI34:
 3460              		.cfi_def_cfa_offset 20
 3461              		.cfi_offset 4, -20
 3462              		.cfi_offset 5, -16
 3463              		.cfi_offset 6, -12
 3464              		.cfi_offset 7, -8
 3465              		.cfi_offset 14, -4
 937:../../../../../../Middlewares/Third_Party/LoRaWAN/Mac/region/RegionIN865.c **** 
 3466              		.loc 1 937 0
 3467 0002 0579     		ldrb	r5, [r0, #4]
 3468              	.LVL298:
 934:../../../../../../Middlewares/Third_Party/LoRaWAN/Mac/region/RegionIN865.c ****     bool drInvalid = false;
 3469              		.loc 1 934 0
 3470 0004 83B0     		sub	sp, sp, #12
 3471              	.LCFI35:
 3472              		.cfi_def_cfa_offset 32
 934:../../../../../../Middlewares/Third_Party/LoRaWAN/Mac/region/RegionIN865.c ****     bool drInvalid = false;
 3473              		.loc 1 934 0
 3474 0006 0400     		movs	r4, r0
 939:../../../../../../Middlewares/Third_Party/LoRaWAN/Mac/region/RegionIN865.c ****     {
 3475              		.loc 1 939 0
 3476 0008 022D     		cmp	r5, #2
 3477 000a 36D9     		bls	.L393
 946:../../../../../../Middlewares/Third_Party/LoRaWAN/Mac/region/RegionIN865.c ****     }
 3478              		.loc 1 946 0
 3479 000c 0320     		movs	r0, #3
 3480              	.LVL299:
 944:../../../../../../Middlewares/Third_Party/LoRaWAN/Mac/region/RegionIN865.c ****     {
 3481              		.loc 1 944 0
 3482 000e 0F2D     		cmp	r5, #15
 3483 0010 27D8     		bhi	.L400
 950:../../../../../../Middlewares/Third_Party/LoRaWAN/Mac/region/RegionIN865.c ****     {
 3484              		.loc 1 950 0
 3485 0012 2368     		ldr	r3, [r4]
 3486 0014 0722     		movs	r2, #7
 3487 0016 187A     		ldrb	r0, [r3, #8]
 3488 0018 0021     		movs	r1, #0
 3489 001a 0007     		lsls	r0, r0, #28
 3490 001c 0017     		asrs	r0, r0, #28
 3491 001e FFF7FEFF 		bl	RegionCommonValueInRange
 3492              	.LVL300:
 3493 0022 0600     		movs	r6, r0
 3494              	.LVL301:
 954:../../../../../../Middlewares/Third_Party/LoRaWAN/Mac/region/RegionIN865.c ****     {
 3495              		.loc 1 954 0
 3496 0024 0820     		movs	r0, #8
 3497 0026 2368     		ldr	r3, [r4]
 3498 0028 0722     		movs	r2, #7
 3499 002a 1856     		ldrsb	r0, [r3, r0]
ARM GAS  C:\Users\EBANO_~1\AppData\Local\Temp\ccEfOEMG.s 			page 89


 3500 002c 0021     		movs	r1, #0
 3501 002e 0011     		asrs	r0, r0, #4
 3502 0030 FFF7FEFF 		bl	RegionCommonValueInRange
 3503              	.LVL302:
 956:../../../../../../Middlewares/Third_Party/LoRaWAN/Mac/region/RegionIN865.c ****     }
 3504              		.loc 1 956 0
 3505 0034 0127     		movs	r7, #1
 954:../../../../../../Middlewares/Third_Party/LoRaWAN/Mac/region/RegionIN865.c ****     {
 3506              		.loc 1 954 0
 3507 0036 0028     		cmp	r0, #0
 3508 0038 21D1     		bne	.L403
 3509              	.LVL303:
 3510              	.L390:
 958:../../../../../../Middlewares/Third_Party/LoRaWAN/Mac/region/RegionIN865.c ****     {
 3511              		.loc 1 958 0
 3512 003a 2368     		ldr	r3, [r4]
 3513 003c 224A     		ldr	r2, .L404
 3514 003e 1E68     		ldr	r6, [r3]
 3515 0040 926A     		ldr	r2, [r2, #40]
 3516 0042 1B7A     		ldrb	r3, [r3, #8]
 3517 0044 0192     		str	r2, [sp, #4]
 3518 0046 1A07     		lsls	r2, r3, #28
 3519 0048 5BB2     		sxtb	r3, r3
 3520 004a 1217     		asrs	r2, r2, #28
 3521 004c 1B11     		asrs	r3, r3, #4
 3522              	.LBB140:
 3523              	.LBB141:
 115:../../../../../../Middlewares/Third_Party/LoRaWAN/Mac/region/RegionIN865.c ****     {
 3524              		.loc 1 115 0
 3525 004e 3000     		movs	r0, r6
 3526              	.LBE141:
 3527              	.LBE140:
 958:../../../../../../Middlewares/Third_Party/LoRaWAN/Mac/region/RegionIN865.c ****     {
 3528              		.loc 1 958 0
 3529 0050 9A42     		cmp	r2, r3
 3530 0052 08DC     		bgt	.L391
 3531              	.LVL304:
 3532              	.LBB145:
 3533              	.LBB142:
 115:../../../../../../Middlewares/Third_Party/LoRaWAN/Mac/region/RegionIN865.c ****     {
 3534              		.loc 1 115 0
 3535 0054 019B     		ldr	r3, [sp, #4]
 3536 0056 9847     		blx	r3
 3537              	.LVL305:
 3538 0058 0028     		cmp	r0, #0
 3539 005a 14D1     		bne	.L392
 3540              	.LVL306:
 3541              	.LBE142:
 3542              	.LBE145:
 973:../../../../../../Middlewares/Third_Party/LoRaWAN/Mac/region/RegionIN865.c ****     {
 3543              		.loc 1 973 0
 3544 005c 002F     		cmp	r7, #0
 3545 005e 0CD1     		bne	.L393
 983:../../../../../../Middlewares/Third_Party/LoRaWAN/Mac/region/RegionIN865.c ****     }
 3546              		.loc 1 983 0
 3547 0060 0430     		adds	r0, r0, #4
 3548              	.LVL307:
ARM GAS  C:\Users\EBANO_~1\AppData\Local\Temp\ccEfOEMG.s 			page 90


 3549              	.L400:
 990:../../../../../../Middlewares/Third_Party/LoRaWAN/Mac/region/RegionIN865.c **** 
 3550              		.loc 1 990 0
 3551 0062 03B0     		add	sp, sp, #12
 3552              		@ sp needed
 3553              	.LVL308:
 3554 0064 F0BD     		pop	{r4, r5, r6, r7, pc}
 3555              	.LVL309:
 3556              	.L391:
 3557              	.LBB146:
 3558              	.LBB143:
 115:../../../../../../Middlewares/Third_Party/LoRaWAN/Mac/region/RegionIN865.c ****     {
 3559              		.loc 1 115 0
 3560 0066 019B     		ldr	r3, [sp, #4]
 3561 0068 9847     		blx	r3
 3562              	.LVL310:
 3563 006a 0028     		cmp	r0, #0
 3564 006c 05D0     		beq	.L393
 120:../../../../../../Middlewares/Third_Party/LoRaWAN/Mac/region/RegionIN865.c ****     {
 3565              		.loc 1 120 0
 3566 006e 174B     		ldr	r3, .L404+4
 3567 0070 9C46     		mov	ip, r3
 3568 0072 174B     		ldr	r3, .L404+8
 3569 0074 6644     		add	r6, r6, ip
 3570 0076 9E42     		cmp	r6, r3
 3571 0078 0FD9     		bls	.L394
 3572              	.LVL311:
 3573              	.L393:
 3574              	.LBE143:
 3575              	.LBE146:
 941:../../../../../../Middlewares/Third_Party/LoRaWAN/Mac/region/RegionIN865.c ****     }
 3576              		.loc 1 941 0
 3577 007a 0620     		movs	r0, #6
 3578 007c F1E7     		b	.L400
 3579              	.LVL312:
 3580              	.L403:
 950:../../../../../../Middlewares/Third_Party/LoRaWAN/Mac/region/RegionIN865.c ****     {
 3581              		.loc 1 950 0
 3582 007e 7742     		rsbs	r7, r6, #0
 3583 0080 7741     		adcs	r7, r7, r6
 3584              	.LVL313:
 3585 0082 FFB2     		uxtb	r7, r7
 3586 0084 D9E7     		b	.L390
 3587              	.LVL314:
 3588              	.L392:
 3589              	.LBB147:
 3590              	.LBB144:
 120:../../../../../../Middlewares/Third_Party/LoRaWAN/Mac/region/RegionIN865.c ****     {
 3591              		.loc 1 120 0
 3592 0086 114B     		ldr	r3, .L404+4
 3593 0088 9C46     		mov	ip, r3
 3594 008a 114B     		ldr	r3, .L404+8
 3595 008c 6644     		add	r6, r6, ip
 3596 008e 9E42     		cmp	r6, r3
 3597 0090 05D9     		bls	.L395
 3598              	.LVL315:
 3599              	.LBE144:
ARM GAS  C:\Users\EBANO_~1\AppData\Local\Temp\ccEfOEMG.s 			page 91


 3600              	.LBE147:
 973:../../../../../../Middlewares/Third_Party/LoRaWAN/Mac/region/RegionIN865.c ****     {
 3601              		.loc 1 973 0
 3602 0092 002F     		cmp	r7, #0
 3603 0094 F1D1     		bne	.L393
 983:../../../../../../Middlewares/Third_Party/LoRaWAN/Mac/region/RegionIN865.c ****     }
 3604              		.loc 1 983 0
 3605 0096 0420     		movs	r0, #4
 3606 0098 E3E7     		b	.L400
 3607              	.LVL316:
 3608              	.L394:
 979:../../../../../../Middlewares/Third_Party/LoRaWAN/Mac/region/RegionIN865.c ****     }
 3609              		.loc 1 979 0
 3610 009a 0520     		movs	r0, #5
 3611 009c E1E7     		b	.L400
 3612              	.LVL317:
 3613              	.L395:
 973:../../../../../../Middlewares/Third_Party/LoRaWAN/Mac/region/RegionIN865.c ****     {
 3614              		.loc 1 973 0
 3615 009e 002F     		cmp	r7, #0
 3616 00a0 FBD1     		bne	.L394
 986:../../../../../../Middlewares/Third_Party/LoRaWAN/Mac/region/RegionIN865.c ****     NvmCtx.Channels[id].Band = 0;
 3617              		.loc 1 986 0
 3618 00a2 2168     		ldr	r1, [r4]
 3619 00a4 6C00     		lsls	r4, r5, #1
 3620              	.LVL318:
 3621 00a6 0B4E     		ldr	r6, .L404+12
 3622 00a8 6419     		adds	r4, r4, r5
 3623 00aa A400     		lsls	r4, r4, #2
 3624 00ac A419     		adds	r4, r4, r6
 3625 00ae 0C22     		movs	r2, #12
 3626 00b0 2000     		movs	r0, r4
 3627 00b2 FFF7FEFF 		bl	memcpy1
 3628              	.LVL319:
 988:../../../../../../Middlewares/Third_Party/LoRaWAN/Mac/region/RegionIN865.c ****     return LORAMAC_STATUS_OK;
 3629              		.loc 1 988 0
 3630 00b6 0122     		movs	r2, #1
 3631 00b8 D021     		movs	r1, #208
 3632 00ba AA40     		lsls	r2, r2, r5
 987:../../../../../../Middlewares/Third_Party/LoRaWAN/Mac/region/RegionIN865.c ****     NvmCtx.ChannelsMask[0] |= ( 1 << id );
 3633              		.loc 1 987 0
 3634 00bc 6772     		strb	r7, [r4, #9]
 988:../../../../../../Middlewares/Third_Party/LoRaWAN/Mac/region/RegionIN865.c ****     return LORAMAC_STATUS_OK;
 3635              		.loc 1 988 0
 3636 00be 735A     		ldrh	r3, [r6, r1]
 989:../../../../../../Middlewares/Third_Party/LoRaWAN/Mac/region/RegionIN865.c **** }
 3637              		.loc 1 989 0
 3638 00c0 0020     		movs	r0, #0
 988:../../../../../../Middlewares/Third_Party/LoRaWAN/Mac/region/RegionIN865.c ****     return LORAMAC_STATUS_OK;
 3639              		.loc 1 988 0
 3640 00c2 1343     		orrs	r3, r2
 3641 00c4 7352     		strh	r3, [r6, r1]
 989:../../../../../../Middlewares/Third_Party/LoRaWAN/Mac/region/RegionIN865.c **** }
 3642              		.loc 1 989 0
 3643 00c6 CCE7     		b	.L400
 3644              	.L405:
 3645              		.align	2
ARM GAS  C:\Users\EBANO_~1\AppData\Local\Temp\ccEfOEMG.s 			page 92


 3646              	.L404:
 3647 00c8 00000000 		.word	Radio
 3648 00cc C02571CC 		.word	-865000000
 3649 00d0 80841E00 		.word	2000000
 3650 00d4 00000000 		.word	NvmCtx
 3651              		.cfi_endproc
 3652              	.LFE62:
 3653              		.size	RegionIN865ChannelAdd, .-RegionIN865ChannelAdd
 3654              		.section	.text.RegionIN865ChannelsRemove,"ax",%progbits
 3655              		.align	1
 3656              		.p2align 2,,3
 3657              		.global	RegionIN865ChannelsRemove
 3658              		.syntax unified
 3659              		.code	16
 3660              		.thumb_func
 3661              		.fpu softvfp
 3662              		.type	RegionIN865ChannelsRemove, %function
 3663              	RegionIN865ChannelsRemove:
 3664              	.LFB63:
 993:../../../../../../Middlewares/Third_Party/LoRaWAN/Mac/region/RegionIN865.c ****     uint8_t id = channelRemove->ChannelId;
 3665              		.loc 1 993 0
 3666              		.cfi_startproc
 3667              		@ args = 0, pretend = 0, frame = 0
 3668              		@ frame_needed = 0, uses_anonymous_args = 0
 3669              	.LVL320:
 3670 0000 70B5     		push	{r4, r5, r6, lr}
 3671              	.LCFI36:
 3672              		.cfi_def_cfa_offset 16
 3673              		.cfi_offset 4, -16
 3674              		.cfi_offset 5, -12
 3675              		.cfi_offset 6, -8
 3676              		.cfi_offset 14, -4
 994:../../../../../../Middlewares/Third_Party/LoRaWAN/Mac/region/RegionIN865.c **** 
 3677              		.loc 1 994 0
 3678 0002 0478     		ldrb	r4, [r0]
 3679              	.LVL321:
 998:../../../../../../Middlewares/Third_Party/LoRaWAN/Mac/region/RegionIN865.c ****     }
 3680              		.loc 1 998 0
 3681 0004 0020     		movs	r0, #0
 3682              	.LVL322:
 996:../../../../../../Middlewares/Third_Party/LoRaWAN/Mac/region/RegionIN865.c ****     {
 3683              		.loc 1 996 0
 3684 0006 022C     		cmp	r4, #2
 3685 0008 0ED9     		bls	.L407
1002:../../../../../../Middlewares/Third_Party/LoRaWAN/Mac/region/RegionIN865.c **** 
 3686              		.loc 1 1002 0
 3687 000a 6000     		lsls	r0, r4, #1
 3688 000c 074D     		ldr	r5, .L409
 3689 000e 0019     		adds	r0, r0, r4
 3690 0010 8000     		lsls	r0, r0, #2
 3691 0012 0C22     		movs	r2, #12
 3692 0014 0021     		movs	r1, #0
 3693 0016 2818     		adds	r0, r5, r0
 3694 0018 FFF7FEFF 		bl	memset
 3695              	.LVL323:
 3696              		.loc 1 1004 0
 3697 001c 2800     		movs	r0, r5
ARM GAS  C:\Users\EBANO_~1\AppData\Local\Temp\ccEfOEMG.s 			page 93


 3698 001e 1022     		movs	r2, #16
 3699 0020 D030     		adds	r0, r0, #208
 3700 0022 2100     		movs	r1, r4
 3701 0024 FFF7FEFF 		bl	RegionCommonChanDisable
 3702              	.LVL324:
 3703              	.L407:
1005:../../../../../../Middlewares/Third_Party/LoRaWAN/Mac/region/RegionIN865.c **** }
 3704              		.loc 1 1005 0
 3705              		@ sp needed
 3706              	.LVL325:
 3707 0028 70BD     		pop	{r4, r5, r6, pc}
 3708              	.L410:
 3709 002a C046     		.align	2
 3710              	.L409:
 3711 002c 00000000 		.word	NvmCtx
 3712              		.cfi_endproc
 3713              	.LFE63:
 3714              		.size	RegionIN865ChannelsRemove, .-RegionIN865ChannelsRemove
 3715              		.section	.text.RegionIN865SetContinuousWave,"ax",%progbits
 3716              		.align	1
 3717              		.p2align 2,,3
 3718              		.global	RegionIN865SetContinuousWave
 3719              		.syntax unified
 3720              		.code	16
 3721              		.thumb_func
 3722              		.fpu softvfp
 3723              		.type	RegionIN865SetContinuousWave, %function
 3724              	RegionIN865SetContinuousWave:
 3725              	.LFB64:
1006:../../../../../../Middlewares/Third_Party/LoRaWAN/Mac/region/RegionIN865.c **** 
1007:../../../../../../Middlewares/Third_Party/LoRaWAN/Mac/region/RegionIN865.c **** void RegionIN865SetContinuousWave( ContinuousWaveParams_t* continuousWave )
1008:../../../../../../Middlewares/Third_Party/LoRaWAN/Mac/region/RegionIN865.c **** {
 3726              		.loc 1 1008 0
 3727              		.cfi_startproc
 3728              		@ args = 0, pretend = 0, frame = 8
 3729              		@ frame_needed = 0, uses_anonymous_args = 0
 3730              	.LVL326:
 3731 0000 F0B5     		push	{r4, r5, r6, r7, lr}
 3732              	.LCFI37:
 3733              		.cfi_def_cfa_offset 20
 3734              		.cfi_offset 4, -20
 3735              		.cfi_offset 5, -16
 3736              		.cfi_offset 6, -12
 3737              		.cfi_offset 7, -8
 3738              		.cfi_offset 14, -4
 3739 0002 0400     		movs	r4, r0
1009:../../../../../../Middlewares/Third_Party/LoRaWAN/Mac/region/RegionIN865.c ****     int8_t txPowerLimited = LimitTxPower( continuousWave->TxPower, NvmCtx.Bands[NvmCtx.Channels[con
 3740              		.loc 1 1009 0
 3741 0004 0278     		ldrb	r2, [r0]
 3742              	.LVL327:
1010:../../../../../../Middlewares/Third_Party/LoRaWAN/Mac/region/RegionIN865.c ****     int8_t phyTxPower = 0;
1011:../../../../../../Middlewares/Third_Party/LoRaWAN/Mac/region/RegionIN865.c ****     uint32_t frequency = NvmCtx.Channels[continuousWave->Channel].Frequency;
 3743              		.loc 1 1011 0
 3744 0006 1048     		ldr	r0, .L413
 3745              	.LVL328:
 3746 0008 5300     		lsls	r3, r2, #1
 3747 000a 9B18     		adds	r3, r3, r2
ARM GAS  C:\Users\EBANO_~1\AppData\Local\Temp\ccEfOEMG.s 			page 94


 3748 000c 9B00     		lsls	r3, r3, #2
 3749 000e 1D58     		ldr	r5, [r3, r0]
 3750              	.LVL329:
1009:../../../../../../Middlewares/Third_Party/LoRaWAN/Mac/region/RegionIN865.c ****     int8_t txPowerLimited = LimitTxPower( continuousWave->TxPower, NvmCtx.Bands[NvmCtx.Channels[con
 3751              		.loc 1 1009 0
 3752 0010 C318     		adds	r3, r0, r3
 3753 0012 5B7A     		ldrb	r3, [r3, #9]
 3754              	.LBB148:
 3755              	.LBB149:
 107:../../../../../../Middlewares/Third_Party/LoRaWAN/Mac/region/RegionIN865.c **** 
 3756              		.loc 1 107 0
 3757 0014 A678     		ldrb	r6, [r4, #2]
 3758              	.LBE149:
 3759              	.LBE148:
1009:../../../../../../Middlewares/Third_Party/LoRaWAN/Mac/region/RegionIN865.c ****     int8_t txPowerLimited = LimitTxPower( continuousWave->TxPower, NvmCtx.Bands[NvmCtx.Channels[con
 3760              		.loc 1 1009 0
 3761 0016 0C33     		adds	r3, r3, #12
 3762 0018 1B01     		lsls	r3, r3, #4
 3763 001a C018     		adds	r0, r0, r3
 3764              	.LBB152:
 3765              	.LBB150:
 107:../../../../../../Middlewares/Third_Party/LoRaWAN/Mac/region/RegionIN865.c **** 
 3766              		.loc 1 107 0
 3767 001c 8378     		ldrb	r3, [r0, #2]
 3768 001e 77B2     		sxtb	r7, r6
 3769 0020 181C     		adds	r0, r3, #0
 3770 0022 5BB2     		sxtb	r3, r3
 3771              	.LBE150:
 3772              	.LBE152:
1008:../../../../../../Middlewares/Third_Party/LoRaWAN/Mac/region/RegionIN865.c ****     int8_t txPowerLimited = LimitTxPower( continuousWave->TxPower, NvmCtx.Bands[NvmCtx.Channels[con
 3773              		.loc 1 1008 0
 3774 0024 83B0     		sub	sp, sp, #12
 3775              	.LCFI38:
 3776              		.cfi_def_cfa_offset 32
1012:../../../../../../Middlewares/Third_Party/LoRaWAN/Mac/region/RegionIN865.c **** 
1013:../../../../../../Middlewares/Third_Party/LoRaWAN/Mac/region/RegionIN865.c ****     // Calculate physical TX power
1014:../../../../../../Middlewares/Third_Party/LoRaWAN/Mac/region/RegionIN865.c ****     phyTxPower = RegionCommonComputeTxPower( txPowerLimited, continuousWave->MaxEirp, continuousWav
 3777              		.loc 1 1014 0
 3778 0026 A268     		ldr	r2, [r4, #8]
 3779 0028 6168     		ldr	r1, [r4, #4]
 3780              	.LBB153:
 3781              	.LBB151:
 107:../../../../../../Middlewares/Third_Party/LoRaWAN/Mac/region/RegionIN865.c **** 
 3782              		.loc 1 107 0
 3783 002a BB42     		cmp	r3, r7
 3784 002c 00DA     		bge	.L412
 3785 002e 301C     		adds	r0, r6, #0
 3786              	.L412:
 3787              	.LBE151:
 3788              	.LBE153:
 3789              		.loc 1 1014 0
 3790 0030 40B2     		sxtb	r0, r0
 3791 0032 FFF7FEFF 		bl	RegionCommonComputeTxPower
 3792              	.LVL330:
1015:../../../../../../Middlewares/Third_Party/LoRaWAN/Mac/region/RegionIN865.c **** 
1016:../../../../../../Middlewares/Third_Party/LoRaWAN/Mac/region/RegionIN865.c ****     Radio.SetTxContinuousWave( frequency, phyTxPower, continuousWave->Timeout );
 3793              		.loc 1 1016 0
ARM GAS  C:\Users\EBANO_~1\AppData\Local\Temp\ccEfOEMG.s 			page 95


 3794 0036 054B     		ldr	r3, .L413+4
1014:../../../../../../Middlewares/Third_Party/LoRaWAN/Mac/region/RegionIN865.c **** 
 3795              		.loc 1 1014 0
 3796 0038 0100     		movs	r1, r0
 3797              	.LVL331:
 3798              		.loc 1 1016 0
 3799 003a 5B6C     		ldr	r3, [r3, #68]
 3800 003c A289     		ldrh	r2, [r4, #12]
 3801 003e 2800     		movs	r0, r5
 3802 0040 0193     		str	r3, [sp, #4]
 3803 0042 9847     		blx	r3
 3804              	.LVL332:
1017:../../../../../../Middlewares/Third_Party/LoRaWAN/Mac/region/RegionIN865.c **** }
 3805              		.loc 1 1017 0
 3806 0044 03B0     		add	sp, sp, #12
 3807              		@ sp needed
 3808              	.LVL333:
 3809              	.LVL334:
 3810 0046 F0BD     		pop	{r4, r5, r6, r7, pc}
 3811              	.L414:
 3812              		.align	2
 3813              	.L413:
 3814 0048 00000000 		.word	NvmCtx
 3815 004c 00000000 		.word	Radio
 3816              		.cfi_endproc
 3817              	.LFE64:
 3818              		.size	RegionIN865SetContinuousWave, .-RegionIN865SetContinuousWave
 3819              		.section	.text.RegionIN865ApplyDrOffset,"ax",%progbits
 3820              		.align	1
 3821              		.p2align 2,,3
 3822              		.global	RegionIN865ApplyDrOffset
 3823              		.syntax unified
 3824              		.code	16
 3825              		.thumb_func
 3826              		.fpu softvfp
 3827              		.type	RegionIN865ApplyDrOffset, %function
 3828              	RegionIN865ApplyDrOffset:
 3829              	.LFB65:
1018:../../../../../../Middlewares/Third_Party/LoRaWAN/Mac/region/RegionIN865.c **** 
1019:../../../../../../Middlewares/Third_Party/LoRaWAN/Mac/region/RegionIN865.c **** uint8_t RegionIN865ApplyDrOffset( uint8_t downlinkDwellTime, int8_t dr, int8_t drOffset )
1020:../../../../../../Middlewares/Third_Party/LoRaWAN/Mac/region/RegionIN865.c **** {
 3830              		.loc 1 1020 0
 3831              		.cfi_startproc
 3832              		@ args = 0, pretend = 0, frame = 0
 3833              		@ frame_needed = 0, uses_anonymous_args = 0
 3834              		@ link register save eliminated.
 3835              	.LVL335:
1021:../../../../../../Middlewares/Third_Party/LoRaWAN/Mac/region/RegionIN865.c ****     // Apply offset formula
1022:../../../../../../Middlewares/Third_Party/LoRaWAN/Mac/region/RegionIN865.c ****     return MIN( DR_5, MAX( DR_0, dr - EffectiveRx1DrOffsetIN865[drOffset] ) );
 3836              		.loc 1 1022 0
 3837 0000 064B     		ldr	r3, .L419
 3838 0002 9A18     		adds	r2, r3, r2
 3839              	.LVL336:
 3840 0004 2823     		movs	r3, #40
 3841 0006 D056     		ldrsb	r0, [r2, r3]
 3842              	.LVL337:
 3843 0008 091A     		subs	r1, r1, r0
ARM GAS  C:\Users\EBANO_~1\AppData\Local\Temp\ccEfOEMG.s 			page 96


 3844              	.LVL338:
 3845 000a 0529     		cmp	r1, #5
 3846 000c 04DC     		bgt	.L418
 3847              		.loc 1 1022 0 is_stmt 0 discriminator 1
 3848 000e C843     		mvns	r0, r1
 3849 0010 C017     		asrs	r0, r0, #31
 3850 0012 0840     		ands	r0, r1
 3851 0014 C0B2     		uxtb	r0, r0
 3852              	.L416:
1023:../../../../../../Middlewares/Third_Party/LoRaWAN/Mac/region/RegionIN865.c **** }
 3853              		.loc 1 1023 0 is_stmt 1 discriminator 4
 3854              		@ sp needed
 3855 0016 7047     		bx	lr
 3856              	.L418:
1022:../../../../../../Middlewares/Third_Party/LoRaWAN/Mac/region/RegionIN865.c **** }
 3857              		.loc 1 1022 0
 3858 0018 0520     		movs	r0, #5
 3859 001a FCE7     		b	.L416
 3860              	.L420:
 3861              		.align	2
 3862              	.L419:
 3863 001c D8000000 		.word	.LANCHOR1
 3864              		.cfi_endproc
 3865              	.LFE65:
 3866              		.size	RegionIN865ApplyDrOffset, .-RegionIN865ApplyDrOffset
 3867              		.section	.text.RegionIN865RxBeaconSetup,"ax",%progbits
 3868              		.align	1
 3869              		.p2align 2,,3
 3870              		.global	RegionIN865RxBeaconSetup
 3871              		.syntax unified
 3872              		.code	16
 3873              		.thumb_func
 3874              		.fpu softvfp
 3875              		.type	RegionIN865RxBeaconSetup, %function
 3876              	RegionIN865RxBeaconSetup:
 3877              	.LFB66:
1024:../../../../../../Middlewares/Third_Party/LoRaWAN/Mac/region/RegionIN865.c **** 
1025:../../../../../../Middlewares/Third_Party/LoRaWAN/Mac/region/RegionIN865.c **** void RegionIN865RxBeaconSetup( RxBeaconSetup_t* rxBeaconSetup, uint8_t* outDr )
1026:../../../../../../Middlewares/Third_Party/LoRaWAN/Mac/region/RegionIN865.c **** {
 3878              		.loc 1 1026 0
 3879              		.cfi_startproc
 3880              		@ args = 0, pretend = 0, frame = 24
 3881              		@ frame_needed = 0, uses_anonymous_args = 0
 3882              	.LVL339:
 3883 0000 10B5     		push	{r4, lr}
 3884              	.LCFI39:
 3885              		.cfi_def_cfa_offset 8
 3886              		.cfi_offset 4, -8
 3887              		.cfi_offset 14, -4
1027:../../../../../../Middlewares/Third_Party/LoRaWAN/Mac/region/RegionIN865.c ****     RegionCommonRxBeaconSetupParams_t regionCommonRxBeaconSetup;
1028:../../../../../../Middlewares/Third_Party/LoRaWAN/Mac/region/RegionIN865.c **** 
1029:../../../../../../Middlewares/Third_Party/LoRaWAN/Mac/region/RegionIN865.c ****     regionCommonRxBeaconSetup.Datarates = DataratesIN865;
 3888              		.loc 1 1029 0
 3889 0002 0B4A     		ldr	r2, .L422
1026:../../../../../../Middlewares/Third_Party/LoRaWAN/Mac/region/RegionIN865.c ****     RegionCommonRxBeaconSetupParams_t regionCommonRxBeaconSetup;
 3890              		.loc 1 1026 0
 3891 0004 86B0     		sub	sp, sp, #24
ARM GAS  C:\Users\EBANO_~1\AppData\Local\Temp\ccEfOEMG.s 			page 97


 3892              	.LCFI40:
 3893              		.cfi_def_cfa_offset 32
 3894              		.loc 1 1029 0
 3895 0006 2032     		adds	r2, r2, #32
 3896 0008 0192     		str	r2, [sp, #4]
1030:../../../../../../Middlewares/Third_Party/LoRaWAN/Mac/region/RegionIN865.c ****     regionCommonRxBeaconSetup.Frequency = rxBeaconSetup->Frequency;
 3897              		.loc 1 1030 0
 3898 000a 8268     		ldr	r2, [r0, #8]
1029:../../../../../../Middlewares/Third_Party/LoRaWAN/Mac/region/RegionIN865.c ****     regionCommonRxBeaconSetup.Frequency = rxBeaconSetup->Frequency;
 3899              		.loc 1 1029 0
 3900 000c 01AB     		add	r3, sp, #4
 3901              		.loc 1 1030 0
 3902 000e 0292     		str	r2, [sp, #8]
1031:../../../../../../Middlewares/Third_Party/LoRaWAN/Mac/region/RegionIN865.c ****     regionCommonRxBeaconSetup.BeaconSize = IN865_BEACON_SIZE;
 3903              		.loc 1 1031 0
 3904 0010 084A     		ldr	r2, .L422+4
1026:../../../../../../Middlewares/Third_Party/LoRaWAN/Mac/region/RegionIN865.c ****     RegionCommonRxBeaconSetupParams_t regionCommonRxBeaconSetup;
 3905              		.loc 1 1026 0
 3906 0012 0C00     		movs	r4, r1
 3907              		.loc 1 1031 0
 3908 0014 1A81     		strh	r2, [r3, #8]
1032:../../../../../../Middlewares/Third_Party/LoRaWAN/Mac/region/RegionIN865.c ****     regionCommonRxBeaconSetup.BeaconDatarate = IN865_BEACON_CHANNEL_DR;
 3909              		.loc 1 1032 0
 3910 0016 0022     		movs	r2, #0
 3911 0018 9A72     		strb	r2, [r3, #10]
1033:../../../../../../Middlewares/Third_Party/LoRaWAN/Mac/region/RegionIN865.c ****     regionCommonRxBeaconSetup.BeaconChannelBW = IN865_BEACON_CHANNEL_BW;
1034:../../../../../../Middlewares/Third_Party/LoRaWAN/Mac/region/RegionIN865.c ****     regionCommonRxBeaconSetup.RxTime = rxBeaconSetup->RxTime;
 3912              		.loc 1 1034 0
 3913 001a 4268     		ldr	r2, [r0, #4]
 3914 001c 0492     		str	r2, [sp, #16]
1035:../../../../../../Middlewares/Third_Party/LoRaWAN/Mac/region/RegionIN865.c ****     regionCommonRxBeaconSetup.SymbolTimeout = rxBeaconSetup->SymbolTimeout;
 3915              		.loc 1 1035 0
 3916 001e 0288     		ldrh	r2, [r0]
1036:../../../../../../Middlewares/Third_Party/LoRaWAN/Mac/region/RegionIN865.c **** 
1037:../../../../../../Middlewares/Third_Party/LoRaWAN/Mac/region/RegionIN865.c ****     RegionCommonRxBeaconSetup( &regionCommonRxBeaconSetup );
 3917              		.loc 1 1037 0
 3918 0020 1800     		movs	r0, r3
 3919              	.LVL340:
1035:../../../../../../Middlewares/Third_Party/LoRaWAN/Mac/region/RegionIN865.c ****     regionCommonRxBeaconSetup.SymbolTimeout = rxBeaconSetup->SymbolTimeout;
 3920              		.loc 1 1035 0
 3921 0022 1A82     		strh	r2, [r3, #16]
 3922              		.loc 1 1037 0
 3923 0024 FFF7FEFF 		bl	RegionCommonRxBeaconSetup
 3924              	.LVL341:
1038:../../../../../../Middlewares/Third_Party/LoRaWAN/Mac/region/RegionIN865.c **** 
1039:../../../../../../Middlewares/Third_Party/LoRaWAN/Mac/region/RegionIN865.c ****     // Store downlink datarate
1040:../../../../../../Middlewares/Third_Party/LoRaWAN/Mac/region/RegionIN865.c ****     *outDr = IN865_BEACON_CHANNEL_DR;
 3925              		.loc 1 1040 0
 3926 0028 0423     		movs	r3, #4
 3927 002a 2370     		strb	r3, [r4]
1041:../../../../../../Middlewares/Third_Party/LoRaWAN/Mac/region/RegionIN865.c **** }
 3928              		.loc 1 1041 0
 3929 002c 06B0     		add	sp, sp, #24
 3930              		@ sp needed
 3931              	.LVL342:
 3932 002e 10BD     		pop	{r4, pc}
 3933              	.L423:
ARM GAS  C:\Users\EBANO_~1\AppData\Local\Temp\ccEfOEMG.s 			page 98


 3934              		.align	2
 3935              	.L422:
 3936 0030 D8000000 		.word	.LANCHOR1
 3937 0034 13040000 		.word	1043
 3938              		.cfi_endproc
 3939              	.LFE66:
 3940              		.size	RegionIN865RxBeaconSetup, .-RegionIN865RxBeaconSetup
 3941              		.bss
 3942              		.align	2
 3943              		.type	NvmCtx, %object
 3944              		.size	NvmCtx, 212
 3945              	NvmCtx:
 3946 0000 00000000 		.space	212
 3946      00000000 
 3946      00000000 
 3946      00000000 
 3946      00000000 
 3947              		.section	.rodata
 3948              		.align	2
 3949              		.set	.LANCHOR1,. + 0
 3950              		.type	BandwidthsIN865, %object
 3951              		.size	BandwidthsIN865, 32
 3952              	BandwidthsIN865:
 3953 00d8 48E80100 		.word	125000
 3954 00dc 48E80100 		.word	125000
 3955 00e0 48E80100 		.word	125000
 3956 00e4 48E80100 		.word	125000
 3957 00e8 48E80100 		.word	125000
 3958 00ec 48E80100 		.word	125000
 3959 00f0 90D00300 		.word	250000
 3960 00f4 00000000 		.word	0
 3961              		.type	DataratesIN865, %object
 3962              		.size	DataratesIN865, 8
 3963              	DataratesIN865:
 3964 00f8 0C       		.byte	12
 3965 00f9 0B       		.byte	11
 3966 00fa 0A       		.byte	10
 3967 00fb 09       		.byte	9
 3968 00fc 08       		.byte	8
 3969 00fd 07       		.byte	7
 3970 00fe 07       		.byte	7
 3971 00ff 32       		.byte	50
 3972              		.type	EffectiveRx1DrOffsetIN865, %object
 3973              		.size	EffectiveRx1DrOffsetIN865, 8
 3974              	EffectiveRx1DrOffsetIN865:
 3975 0100 00       		.byte	0
 3976 0101 01       		.byte	1
 3977 0102 02       		.byte	2
 3978 0103 03       		.byte	3
 3979 0104 04       		.byte	4
 3980 0105 05       		.byte	5
 3981 0106 FF       		.byte	-1
 3982 0107 FE       		.byte	-2
 3983              		.align	2
 3984              		.set	.LANCHOR0,. + 0
 3985              		.type	MaxPayloadOfDatarateIN865, %object
 3986              		.size	MaxPayloadOfDatarateIN865, 8
ARM GAS  C:\Users\EBANO_~1\AppData\Local\Temp\ccEfOEMG.s 			page 99


 3987              	MaxPayloadOfDatarateIN865:
 3988 0108 33       		.byte	51
 3989 0109 33       		.byte	51
 3990 010a 33       		.byte	51
 3991 010b 73       		.byte	115
 3992 010c F2       		.byte	-14
 3993 010d F2       		.byte	-14
 3994 010e F2       		.byte	-14
 3995 010f F2       		.byte	-14
 3996              		.type	MaxPayloadOfDatarateRepeaterIN865, %object
 3997              		.size	MaxPayloadOfDatarateRepeaterIN865, 8
 3998              	MaxPayloadOfDatarateRepeaterIN865:
 3999 0110 33       		.byte	51
 4000 0111 33       		.byte	51
 4001 0112 33       		.byte	51
 4002 0113 73       		.byte	115
 4003 0114 DE       		.byte	-34
 4004 0115 DE       		.byte	-34
 4005 0116 DE       		.byte	-34
 4006 0117 DE       		.byte	-34
 4007              	.LC0:
 4008 0118 64CE8F33 		.word	865062500
 4009 011c 00000000 		.word	0
 4010 0120 50       		.byte	80
 4011 0121 00       		.byte	0
 4012 0122 0000     		.space	2
 4013              	.LC1:
 4014 0124 84FE9433 		.word	865402500
 4015 0128 00000000 		.word	0
 4016 012c 50       		.byte	80
 4017 012d 00       		.byte	0
 4018 012e 0000     		.space	2
 4019              	.LC2:
 4020 0130 E8E19D33 		.word	865985000
 4021 0134 00000000 		.word	0
 4022 0138 50       		.byte	80
 4023 0139 00       		.byte	0
 4024 013a 0000     		.space	2
 4025              		.text
 4026              	.Letext0:
 4027              		.file 2 "c:\\program files (x86)\\gnu tools arm embedded\\7 2018-q2-update\\arm-none-eabi\\include
 4028              		.file 3 "c:\\program files (x86)\\gnu tools arm embedded\\7 2018-q2-update\\arm-none-eabi\\include
 4029              		.file 4 "../../../../../../Drivers/CMSIS/Device/ST/STM32L0xx/Include/system_stm32l0xx.h"
 4030              		.file 5 "c:\\program files (x86)\\gnu tools arm embedded\\7 2018-q2-update\\lib\\gcc\\arm-none-eab
 4031              		.file 6 "c:\\program files (x86)\\gnu tools arm embedded\\7 2018-q2-update\\arm-none-eabi\\include
 4032              		.file 7 "c:\\program files (x86)\\gnu tools arm embedded\\7 2018-q2-update\\arm-none-eabi\\include
 4033              		.file 8 "c:\\program files (x86)\\gnu tools arm embedded\\7 2018-q2-update\\arm-none-eabi\\include
 4034              		.file 9 "c:\\program files (x86)\\gnu tools arm embedded\\7 2018-q2-update\\arm-none-eabi\\include
 4035              		.file 10 "../../../../../../Middlewares/Third_Party/LoRaWAN/Utilities/utilities.h"
 4036              		.file 11 "../../../../../../Middlewares/Third_Party/LoRaWAN/Mac/LoRaMacTypes.h"
 4037              		.file 12 "c:\\program files (x86)\\gnu tools arm embedded\\7 2018-q2-update\\arm-none-eabi\\includ
 4038              		.file 13 "../../../../../../Middlewares/Third_Party/LoRaWAN/Phy/radio.h"
 4039              		.file 14 "../../../../../../Middlewares/Third_Party/LoRaWAN/Mac/LoRaMac.h"
 4040              		.file 15 "../../../../../../Middlewares/Third_Party/LoRaWAN/Mac/region/Region.h"
 4041              		.file 16 "../../../../../../Middlewares/Third_Party/LoRaWAN/Mac/region/RegionCommon.h"
 4042              		.file 17 "../../../../../../Middlewares/Third_Party/LoRaWAN/Mac/region/RegionIN865.h"
 4043              		.file 18 "../../../../../../Middlewares/Third_Party/LoRaWAN/Utilities/timeServer.h"
ARM GAS  C:\Users\EBANO_~1\AppData\Local\Temp\ccEfOEMG.s 			page 100


 4044              		.file 19 "<built-in>"
 4045              		.section	.debug_info,"",%progbits
 4046              	.Ldebug_info0:
 4047 0000 A9330000 		.4byte	0x33a9
 4048 0004 0200     		.2byte	0x2
 4049 0006 00000000 		.4byte	.Ldebug_abbrev0
 4050 000a 04       		.byte	0x4
 4051 000b 01       		.uleb128 0x1
 4052 000c D8080000 		.4byte	.LASF561
 4053 0010 0C       		.byte	0xc
 4054 0011 540F0000 		.4byte	.LASF562
 4055 0015 21070000 		.4byte	.LASF563
 4056 0019 58020000 		.4byte	.Ldebug_ranges0+0x258
 4057 001d 00000000 		.4byte	0
 4058 0021 00000000 		.4byte	0
 4059 0025 00000000 		.4byte	.Ldebug_line0
 4060 0029 02       		.uleb128 0x2
 4061 002a 01       		.byte	0x1
 4062 002b 06       		.byte	0x6
 4063 002c 05120000 		.4byte	.LASF2
 4064 0030 03       		.uleb128 0x3
 4065 0031 6D200000 		.4byte	.LASF0
 4066 0035 02       		.byte	0x2
 4067 0036 29       		.byte	0x29
 4068 0037 29000000 		.4byte	0x29
 4069 003b 03       		.uleb128 0x3
 4070 003c B5000000 		.4byte	.LASF1
 4071 0040 02       		.byte	0x2
 4072 0041 2B       		.byte	0x2b
 4073 0042 46000000 		.4byte	0x46
 4074 0046 02       		.uleb128 0x2
 4075 0047 01       		.byte	0x1
 4076 0048 08       		.byte	0x8
 4077 0049 D4060000 		.4byte	.LASF3
 4078 004d 03       		.uleb128 0x3
 4079 004e 79050000 		.4byte	.LASF4
 4080 0052 02       		.byte	0x2
 4081 0053 37       		.byte	0x37
 4082 0054 58000000 		.4byte	0x58
 4083 0058 02       		.uleb128 0x2
 4084 0059 02       		.byte	0x2
 4085 005a 05       		.byte	0x5
 4086 005b 21210000 		.4byte	.LASF5
 4087 005f 03       		.uleb128 0x3
 4088 0060 8F050000 		.4byte	.LASF6
 4089 0064 02       		.byte	0x2
 4090 0065 39       		.byte	0x39
 4091 0066 6A000000 		.4byte	0x6a
 4092 006a 02       		.uleb128 0x2
 4093 006b 02       		.byte	0x2
 4094 006c 07       		.byte	0x7
 4095 006d F2110000 		.4byte	.LASF7
 4096 0071 03       		.uleb128 0x3
 4097 0072 EB190000 		.4byte	.LASF8
 4098 0076 02       		.byte	0x2
 4099 0077 4D       		.byte	0x4d
 4100 0078 7C000000 		.4byte	0x7c
ARM GAS  C:\Users\EBANO_~1\AppData\Local\Temp\ccEfOEMG.s 			page 101


 4101 007c 02       		.uleb128 0x2
 4102 007d 04       		.byte	0x4
 4103 007e 05       		.byte	0x5
 4104 007f D5130000 		.4byte	.LASF9
 4105 0083 03       		.uleb128 0x3
 4106 0084 FE190000 		.4byte	.LASF10
 4107 0088 02       		.byte	0x2
 4108 0089 4F       		.byte	0x4f
 4109 008a 8E000000 		.4byte	0x8e
 4110 008e 02       		.uleb128 0x2
 4111 008f 04       		.byte	0x4
 4112 0090 07       		.byte	0x7
 4113 0091 8D150000 		.4byte	.LASF11
 4114 0095 02       		.uleb128 0x2
 4115 0096 08       		.byte	0x8
 4116 0097 05       		.byte	0x5
 4117 0098 491E0000 		.4byte	.LASF12
 4118 009c 02       		.uleb128 0x2
 4119 009d 08       		.byte	0x8
 4120 009e 07       		.byte	0x7
 4121 009f DD1B0000 		.4byte	.LASF13
 4122 00a3 04       		.uleb128 0x4
 4123 00a4 04       		.byte	0x4
 4124 00a5 05       		.byte	0x5
 4125 00a6 696E7400 		.ascii	"int\000"
 4126 00aa 02       		.uleb128 0x2
 4127 00ab 04       		.byte	0x4
 4128 00ac 07       		.byte	0x7
 4129 00ad 8E200000 		.4byte	.LASF14
 4130 00b1 03       		.uleb128 0x3
 4131 00b2 0A110000 		.4byte	.LASF15
 4132 00b6 03       		.byte	0x3
 4133 00b7 14       		.byte	0x14
 4134 00b8 30000000 		.4byte	0x30
 4135 00bc 05       		.uleb128 0x5
 4136 00bd B1000000 		.4byte	0xb1
 4137 00c1 03       		.uleb128 0x3
 4138 00c2 3D0B0000 		.4byte	.LASF16
 4139 00c6 03       		.byte	0x3
 4140 00c7 18       		.byte	0x18
 4141 00c8 3B000000 		.4byte	0x3b
 4142 00cc 05       		.uleb128 0x5
 4143 00cd C1000000 		.4byte	0xc1
 4144 00d1 03       		.uleb128 0x3
 4145 00d2 D3110000 		.4byte	.LASF17
 4146 00d6 03       		.byte	0x3
 4147 00d7 20       		.byte	0x20
 4148 00d8 4D000000 		.4byte	0x4d
 4149 00dc 03       		.uleb128 0x3
 4150 00dd 43010000 		.4byte	.LASF18
 4151 00e1 03       		.byte	0x3
 4152 00e2 24       		.byte	0x24
 4153 00e3 5F000000 		.4byte	0x5f
 4154 00e7 03       		.uleb128 0x3
 4155 00e8 A8020000 		.4byte	.LASF19
 4156 00ec 03       		.byte	0x3
 4157 00ed 2C       		.byte	0x2c
ARM GAS  C:\Users\EBANO_~1\AppData\Local\Temp\ccEfOEMG.s 			page 102


 4158 00ee 71000000 		.4byte	0x71
 4159 00f2 03       		.uleb128 0x3
 4160 00f3 AD140000 		.4byte	.LASF20
 4161 00f7 03       		.byte	0x3
 4162 00f8 30       		.byte	0x30
 4163 00f9 83000000 		.4byte	0x83
 4164 00fd 05       		.uleb128 0x5
 4165 00fe F2000000 		.4byte	0xf2
 4166 0102 06       		.uleb128 0x6
 4167 0103 9F120000 		.4byte	.LASF21
 4168 0107 04       		.byte	0x4
 4169 0108 4A       		.byte	0x4a
 4170 0109 F2000000 		.4byte	0xf2
 4171 010d 01       		.byte	0x1
 4172 010e 01       		.byte	0x1
 4173 010f 07       		.uleb128 0x7
 4174 0110 CC000000 		.4byte	0xcc
 4175 0114 1F010000 		.4byte	0x11f
 4176 0118 08       		.uleb128 0x8
 4177 0119 AA000000 		.4byte	0xaa
 4178 011d 0F       		.byte	0xf
 4179 011e 00       		.byte	0
 4180 011f 05       		.uleb128 0x5
 4181 0120 0F010000 		.4byte	0x10f
 4182 0124 06       		.uleb128 0x6
 4183 0125 FD1E0000 		.4byte	.LASF22
 4184 0129 04       		.byte	0x4
 4185 012a 4D       		.byte	0x4d
 4186 012b 1F010000 		.4byte	0x11f
 4187 012f 01       		.byte	0x1
 4188 0130 01       		.byte	0x1
 4189 0131 07       		.uleb128 0x7
 4190 0132 CC000000 		.4byte	0xcc
 4191 0136 41010000 		.4byte	0x141
 4192 013a 08       		.uleb128 0x8
 4193 013b AA000000 		.4byte	0xaa
 4194 013f 07       		.byte	0x7
 4195 0140 00       		.byte	0
 4196 0141 05       		.uleb128 0x5
 4197 0142 31010000 		.4byte	0x131
 4198 0146 06       		.uleb128 0x6
 4199 0147 81160000 		.4byte	.LASF23
 4200 014b 04       		.byte	0x4
 4201 014c 4E       		.byte	0x4e
 4202 014d 41010000 		.4byte	0x141
 4203 0151 01       		.byte	0x1
 4204 0152 01       		.byte	0x1
 4205 0153 07       		.uleb128 0x7
 4206 0154 CC000000 		.4byte	0xcc
 4207 0158 63010000 		.4byte	0x163
 4208 015c 08       		.uleb128 0x8
 4209 015d AA000000 		.4byte	0xaa
 4210 0161 08       		.byte	0x8
 4211 0162 00       		.byte	0
 4212 0163 05       		.uleb128 0x5
 4213 0164 53010000 		.4byte	0x153
 4214 0168 06       		.uleb128 0x6
ARM GAS  C:\Users\EBANO_~1\AppData\Local\Temp\ccEfOEMG.s 			page 103


 4215 0169 2C190000 		.4byte	.LASF24
 4216 016d 04       		.byte	0x4
 4217 016e 4F       		.byte	0x4f
 4218 016f 63010000 		.4byte	0x163
 4219 0173 01       		.byte	0x1
 4220 0174 01       		.byte	0x1
 4221 0175 03       		.uleb128 0x3
 4222 0176 1F0B0000 		.4byte	.LASF25
 4223 017a 05       		.byte	0x5
 4224 017b D8       		.byte	0xd8
 4225 017c AA000000 		.4byte	0xaa
 4226 0180 02       		.uleb128 0x2
 4227 0181 08       		.byte	0x8
 4228 0182 04       		.byte	0x4
 4229 0183 26150000 		.4byte	.LASF26
 4230 0187 09       		.uleb128 0x9
 4231 0188 04       		.byte	0x4
 4232 0189 03       		.uleb128 0x3
 4233 018a 36050000 		.4byte	.LASF27
 4234 018e 06       		.byte	0x6
 4235 018f 22       		.byte	0x22
 4236 0190 94010000 		.4byte	0x194
 4237 0194 0A       		.uleb128 0xa
 4238 0195 04       		.byte	0x4
 4239 0196 9A010000 		.4byte	0x19a
 4240 019a 0B       		.uleb128 0xb
 4241 019b 22040000 		.4byte	.LASF134
 4242 019f 01       		.byte	0x1
 4243 01a0 03       		.uleb128 0x3
 4244 01a1 F20A0000 		.4byte	.LASF28
 4245 01a5 07       		.byte	0x7
 4246 01a6 2C       		.byte	0x2c
 4247 01a7 7C000000 		.4byte	0x7c
 4248 01ab 03       		.uleb128 0x3
 4249 01ac 50190000 		.4byte	.LASF29
 4250 01b0 07       		.byte	0x7
 4251 01b1 72       		.byte	0x72
 4252 01b2 7C000000 		.4byte	0x7c
 4253 01b6 0C       		.uleb128 0xc
 4254 01b7 ED0C0000 		.4byte	.LASF30
 4255 01bb 05       		.byte	0x5
 4256 01bc 6501     		.2byte	0x165
 4257 01be AA000000 		.4byte	0xaa
 4258 01c2 0D       		.uleb128 0xd
 4259 01c3 04       		.byte	0x4
 4260 01c4 07       		.byte	0x7
 4261 01c5 A6       		.byte	0xa6
 4262 01c6 E1010000 		.4byte	0x1e1
 4263 01ca 0E       		.uleb128 0xe
 4264 01cb 30130000 		.4byte	.LASF31
 4265 01cf 07       		.byte	0x7
 4266 01d0 A8       		.byte	0xa8
 4267 01d1 B6010000 		.4byte	0x1b6
 4268 01d5 0E       		.uleb128 0xe
 4269 01d6 850C0000 		.4byte	.LASF32
 4270 01da 07       		.byte	0x7
 4271 01db A9       		.byte	0xa9
ARM GAS  C:\Users\EBANO_~1\AppData\Local\Temp\ccEfOEMG.s 			page 104


 4272 01dc E1010000 		.4byte	0x1e1
 4273 01e0 00       		.byte	0
 4274 01e1 07       		.uleb128 0x7
 4275 01e2 46000000 		.4byte	0x46
 4276 01e6 F1010000 		.4byte	0x1f1
 4277 01ea 08       		.uleb128 0x8
 4278 01eb AA000000 		.4byte	0xaa
 4279 01ef 03       		.byte	0x3
 4280 01f0 00       		.byte	0
 4281 01f1 0F       		.uleb128 0xf
 4282 01f2 08       		.byte	0x8
 4283 01f3 07       		.byte	0x7
 4284 01f4 A3       		.byte	0xa3
 4285 01f5 16020000 		.4byte	0x216
 4286 01f9 10       		.uleb128 0x10
 4287 01fa 350B0000 		.4byte	.LASF33
 4288 01fe 07       		.byte	0x7
 4289 01ff A5       		.byte	0xa5
 4290 0200 A3000000 		.4byte	0xa3
 4291 0204 02       		.byte	0x2
 4292 0205 23       		.byte	0x23
 4293 0206 00       		.uleb128 0
 4294 0207 10       		.uleb128 0x10
 4295 0208 471A0000 		.4byte	.LASF34
 4296 020c 07       		.byte	0x7
 4297 020d AA       		.byte	0xaa
 4298 020e C2010000 		.4byte	0x1c2
 4299 0212 02       		.byte	0x2
 4300 0213 23       		.byte	0x23
 4301 0214 04       		.uleb128 0x4
 4302 0215 00       		.byte	0
 4303 0216 03       		.uleb128 0x3
 4304 0217 C8190000 		.4byte	.LASF35
 4305 021b 07       		.byte	0x7
 4306 021c AB       		.byte	0xab
 4307 021d F1010000 		.4byte	0x1f1
 4308 0221 03       		.uleb128 0x3
 4309 0222 B61D0000 		.4byte	.LASF36
 4310 0226 07       		.byte	0x7
 4311 0227 AF       		.byte	0xaf
 4312 0228 89010000 		.4byte	0x189
 4313 022c 03       		.uleb128 0x3
 4314 022d 36110000 		.4byte	.LASF37
 4315 0231 08       		.byte	0x8
 4316 0232 16       		.byte	0x16
 4317 0233 8E000000 		.4byte	0x8e
 4318 0237 11       		.uleb128 0x11
 4319 0238 20170000 		.4byte	.LASF42
 4320 023c 18       		.byte	0x18
 4321 023d 08       		.byte	0x8
 4322 023e 2F       		.byte	0x2f
 4323 023f 96020000 		.4byte	0x296
 4324 0243 10       		.uleb128 0x10
 4325 0244 760E0000 		.4byte	.LASF38
 4326 0248 08       		.byte	0x8
 4327 0249 31       		.byte	0x31
 4328 024a 96020000 		.4byte	0x296
ARM GAS  C:\Users\EBANO_~1\AppData\Local\Temp\ccEfOEMG.s 			page 105


 4329 024e 02       		.byte	0x2
 4330 024f 23       		.byte	0x23
 4331 0250 00       		.uleb128 0
 4332 0251 12       		.uleb128 0x12
 4333 0252 5F6B00   		.ascii	"_k\000"
 4334 0255 08       		.byte	0x8
 4335 0256 32       		.byte	0x32
 4336 0257 A3000000 		.4byte	0xa3
 4337 025b 02       		.byte	0x2
 4338 025c 23       		.byte	0x23
 4339 025d 04       		.uleb128 0x4
 4340 025e 10       		.uleb128 0x10
 4341 025f F5140000 		.4byte	.LASF39
 4342 0263 08       		.byte	0x8
 4343 0264 32       		.byte	0x32
 4344 0265 A3000000 		.4byte	0xa3
 4345 0269 02       		.byte	0x2
 4346 026a 23       		.byte	0x23
 4347 026b 08       		.uleb128 0x8
 4348 026c 10       		.uleb128 0x10
 4349 026d 67200000 		.4byte	.LASF40
 4350 0271 08       		.byte	0x8
 4351 0272 32       		.byte	0x32
 4352 0273 A3000000 		.4byte	0xa3
 4353 0277 02       		.byte	0x2
 4354 0278 23       		.byte	0x23
 4355 0279 0C       		.uleb128 0xc
 4356 027a 10       		.uleb128 0x10
 4357 027b 0C070000 		.4byte	.LASF41
 4358 027f 08       		.byte	0x8
 4359 0280 32       		.byte	0x32
 4360 0281 A3000000 		.4byte	0xa3
 4361 0285 02       		.byte	0x2
 4362 0286 23       		.byte	0x23
 4363 0287 10       		.uleb128 0x10
 4364 0288 12       		.uleb128 0x12
 4365 0289 5F7800   		.ascii	"_x\000"
 4366 028c 08       		.byte	0x8
 4367 028d 33       		.byte	0x33
 4368 028e 9C020000 		.4byte	0x29c
 4369 0292 02       		.byte	0x2
 4370 0293 23       		.byte	0x23
 4371 0294 14       		.uleb128 0x14
 4372 0295 00       		.byte	0
 4373 0296 0A       		.uleb128 0xa
 4374 0297 04       		.byte	0x4
 4375 0298 37020000 		.4byte	0x237
 4376 029c 07       		.uleb128 0x7
 4377 029d 2C020000 		.4byte	0x22c
 4378 02a1 AC020000 		.4byte	0x2ac
 4379 02a5 08       		.uleb128 0x8
 4380 02a6 AA000000 		.4byte	0xaa
 4381 02aa 00       		.byte	0
 4382 02ab 00       		.byte	0
 4383 02ac 11       		.uleb128 0x11
 4384 02ad C9040000 		.4byte	.LASF43
 4385 02b1 24       		.byte	0x24
ARM GAS  C:\Users\EBANO_~1\AppData\Local\Temp\ccEfOEMG.s 			page 106


 4386 02b2 08       		.byte	0x8
 4387 02b3 37       		.byte	0x37
 4388 02b4 37030000 		.4byte	0x337
 4389 02b8 10       		.uleb128 0x10
 4390 02b9 3B100000 		.4byte	.LASF44
 4391 02bd 08       		.byte	0x8
 4392 02be 39       		.byte	0x39
 4393 02bf A3000000 		.4byte	0xa3
 4394 02c3 02       		.byte	0x2
 4395 02c4 23       		.byte	0x23
 4396 02c5 00       		.uleb128 0
 4397 02c6 10       		.uleb128 0x10
 4398 02c7 76200000 		.4byte	.LASF45
 4399 02cb 08       		.byte	0x8
 4400 02cc 3A       		.byte	0x3a
 4401 02cd A3000000 		.4byte	0xa3
 4402 02d1 02       		.byte	0x2
 4403 02d2 23       		.byte	0x23
 4404 02d3 04       		.uleb128 0x4
 4405 02d4 10       		.uleb128 0x10
 4406 02d5 9B0C0000 		.4byte	.LASF46
 4407 02d9 08       		.byte	0x8
 4408 02da 3B       		.byte	0x3b
 4409 02db A3000000 		.4byte	0xa3
 4410 02df 02       		.byte	0x2
 4411 02e0 23       		.byte	0x23
 4412 02e1 08       		.uleb128 0x8
 4413 02e2 10       		.uleb128 0x10
 4414 02e3 C10D0000 		.4byte	.LASF47
 4415 02e7 08       		.byte	0x8
 4416 02e8 3C       		.byte	0x3c
 4417 02e9 A3000000 		.4byte	0xa3
 4418 02ed 02       		.byte	0x2
 4419 02ee 23       		.byte	0x23
 4420 02ef 0C       		.uleb128 0xc
 4421 02f0 10       		.uleb128 0x10
 4422 02f1 13010000 		.4byte	.LASF48
 4423 02f5 08       		.byte	0x8
 4424 02f6 3D       		.byte	0x3d
 4425 02f7 A3000000 		.4byte	0xa3
 4426 02fb 02       		.byte	0x2
 4427 02fc 23       		.byte	0x23
 4428 02fd 10       		.uleb128 0x10
 4429 02fe 10       		.uleb128 0x10
 4430 02ff 9A080000 		.4byte	.LASF49
 4431 0303 08       		.byte	0x8
 4432 0304 3E       		.byte	0x3e
 4433 0305 A3000000 		.4byte	0xa3
 4434 0309 02       		.byte	0x2
 4435 030a 23       		.byte	0x23
 4436 030b 14       		.uleb128 0x14
 4437 030c 10       		.uleb128 0x10
 4438 030d 7A060000 		.4byte	.LASF50
 4439 0311 08       		.byte	0x8
 4440 0312 3F       		.byte	0x3f
 4441 0313 A3000000 		.4byte	0xa3
 4442 0317 02       		.byte	0x2
ARM GAS  C:\Users\EBANO_~1\AppData\Local\Temp\ccEfOEMG.s 			page 107


 4443 0318 23       		.byte	0x23
 4444 0319 18       		.uleb128 0x18
 4445 031a 10       		.uleb128 0x10
 4446 031b 04050000 		.4byte	.LASF51
 4447 031f 08       		.byte	0x8
 4448 0320 40       		.byte	0x40
 4449 0321 A3000000 		.4byte	0xa3
 4450 0325 02       		.byte	0x2
 4451 0326 23       		.byte	0x23
 4452 0327 1C       		.uleb128 0x1c
 4453 0328 10       		.uleb128 0x10
 4454 0329 84060000 		.4byte	.LASF52
 4455 032d 08       		.byte	0x8
 4456 032e 41       		.byte	0x41
 4457 032f A3000000 		.4byte	0xa3
 4458 0333 02       		.byte	0x2
 4459 0334 23       		.byte	0x23
 4460 0335 20       		.uleb128 0x20
 4461 0336 00       		.byte	0
 4462 0337 13       		.uleb128 0x13
 4463 0338 44100000 		.4byte	.LASF53
 4464 033c 0801     		.2byte	0x108
 4465 033e 08       		.byte	0x8
 4466 033f 4A       		.byte	0x4a
 4467 0340 80030000 		.4byte	0x380
 4468 0344 10       		.uleb128 0x10
 4469 0345 CB0D0000 		.4byte	.LASF54
 4470 0349 08       		.byte	0x8
 4471 034a 4B       		.byte	0x4b
 4472 034b 80030000 		.4byte	0x380
 4473 034f 02       		.byte	0x2
 4474 0350 23       		.byte	0x23
 4475 0351 00       		.uleb128 0
 4476 0352 10       		.uleb128 0x10
 4477 0353 5B060000 		.4byte	.LASF55
 4478 0357 08       		.byte	0x8
 4479 0358 4C       		.byte	0x4c
 4480 0359 80030000 		.4byte	0x380
 4481 035d 03       		.byte	0x3
 4482 035e 23       		.byte	0x23
 4483 035f 8001     		.uleb128 0x80
 4484 0361 10       		.uleb128 0x10
 4485 0362 1C010000 		.4byte	.LASF56
 4486 0366 08       		.byte	0x8
 4487 0367 4E       		.byte	0x4e
 4488 0368 2C020000 		.4byte	0x22c
 4489 036c 03       		.byte	0x3
 4490 036d 23       		.byte	0x23
 4491 036e 8002     		.uleb128 0x100
 4492 0370 10       		.uleb128 0x10
 4493 0371 5F1A0000 		.4byte	.LASF57
 4494 0375 08       		.byte	0x8
 4495 0376 51       		.byte	0x51
 4496 0377 2C020000 		.4byte	0x22c
 4497 037b 03       		.byte	0x3
 4498 037c 23       		.byte	0x23
 4499 037d 8402     		.uleb128 0x104
ARM GAS  C:\Users\EBANO_~1\AppData\Local\Temp\ccEfOEMG.s 			page 108


 4500 037f 00       		.byte	0
 4501 0380 07       		.uleb128 0x7
 4502 0381 87010000 		.4byte	0x187
 4503 0385 90030000 		.4byte	0x390
 4504 0389 08       		.uleb128 0x8
 4505 038a AA000000 		.4byte	0xaa
 4506 038e 1F       		.byte	0x1f
 4507 038f 00       		.byte	0
 4508 0390 13       		.uleb128 0x13
 4509 0391 F9000000 		.4byte	.LASF58
 4510 0395 9001     		.2byte	0x190
 4511 0397 08       		.byte	0x8
 4512 0398 5D       		.byte	0x5d
 4513 0399 D7030000 		.4byte	0x3d7
 4514 039d 10       		.uleb128 0x10
 4515 039e 760E0000 		.4byte	.LASF38
 4516 03a2 08       		.byte	0x8
 4517 03a3 5E       		.byte	0x5e
 4518 03a4 D7030000 		.4byte	0x3d7
 4519 03a8 02       		.byte	0x2
 4520 03a9 23       		.byte	0x23
 4521 03aa 00       		.uleb128 0
 4522 03ab 10       		.uleb128 0x10
 4523 03ac 2A010000 		.4byte	.LASF59
 4524 03b0 08       		.byte	0x8
 4525 03b1 5F       		.byte	0x5f
 4526 03b2 A3000000 		.4byte	0xa3
 4527 03b6 02       		.byte	0x2
 4528 03b7 23       		.byte	0x23
 4529 03b8 04       		.uleb128 0x4
 4530 03b9 10       		.uleb128 0x10
 4531 03ba 99190000 		.4byte	.LASF60
 4532 03be 08       		.byte	0x8
 4533 03bf 61       		.byte	0x61
 4534 03c0 DD030000 		.4byte	0x3dd
 4535 03c4 02       		.byte	0x2
 4536 03c5 23       		.byte	0x23
 4537 03c6 08       		.uleb128 0x8
 4538 03c7 10       		.uleb128 0x10
 4539 03c8 44100000 		.4byte	.LASF53
 4540 03cc 08       		.byte	0x8
 4541 03cd 62       		.byte	0x62
 4542 03ce 37030000 		.4byte	0x337
 4543 03d2 03       		.byte	0x3
 4544 03d3 23       		.byte	0x23
 4545 03d4 8801     		.uleb128 0x88
 4546 03d6 00       		.byte	0
 4547 03d7 0A       		.uleb128 0xa
 4548 03d8 04       		.byte	0x4
 4549 03d9 90030000 		.4byte	0x390
 4550 03dd 07       		.uleb128 0x7
 4551 03de ED030000 		.4byte	0x3ed
 4552 03e2 ED030000 		.4byte	0x3ed
 4553 03e6 08       		.uleb128 0x8
 4554 03e7 AA000000 		.4byte	0xaa
 4555 03eb 1F       		.byte	0x1f
 4556 03ec 00       		.byte	0
ARM GAS  C:\Users\EBANO_~1\AppData\Local\Temp\ccEfOEMG.s 			page 109


 4557 03ed 0A       		.uleb128 0xa
 4558 03ee 04       		.byte	0x4
 4559 03ef F3030000 		.4byte	0x3f3
 4560 03f3 14       		.uleb128 0x14
 4561 03f4 01       		.byte	0x1
 4562 03f5 11       		.uleb128 0x11
 4563 03f6 CB120000 		.4byte	.LASF61
 4564 03fa 08       		.byte	0x8
 4565 03fb 08       		.byte	0x8
 4566 03fc 75       		.byte	0x75
 4567 03fd 1E040000 		.4byte	0x41e
 4568 0401 10       		.uleb128 0x10
 4569 0402 7C040000 		.4byte	.LASF62
 4570 0406 08       		.byte	0x8
 4571 0407 76       		.byte	0x76
 4572 0408 1E040000 		.4byte	0x41e
 4573 040c 02       		.byte	0x2
 4574 040d 23       		.byte	0x23
 4575 040e 00       		.uleb128 0
 4576 040f 10       		.uleb128 0x10
 4577 0410 C2070000 		.4byte	.LASF63
 4578 0414 08       		.byte	0x8
 4579 0415 77       		.byte	0x77
 4580 0416 A3000000 		.4byte	0xa3
 4581 041a 02       		.byte	0x2
 4582 041b 23       		.byte	0x23
 4583 041c 04       		.uleb128 0x4
 4584 041d 00       		.byte	0
 4585 041e 0A       		.uleb128 0xa
 4586 041f 04       		.byte	0x4
 4587 0420 46000000 		.4byte	0x46
 4588 0424 11       		.uleb128 0x11
 4589 0425 80190000 		.4byte	.LASF64
 4590 0429 68       		.byte	0x68
 4591 042a 08       		.byte	0x8
 4592 042b B5       		.byte	0xb5
 4593 042c 7E050000 		.4byte	0x57e
 4594 0430 12       		.uleb128 0x12
 4595 0431 5F7000   		.ascii	"_p\000"
 4596 0434 08       		.byte	0x8
 4597 0435 B6       		.byte	0xb6
 4598 0436 1E040000 		.4byte	0x41e
 4599 043a 02       		.byte	0x2
 4600 043b 23       		.byte	0x23
 4601 043c 00       		.uleb128 0
 4602 043d 12       		.uleb128 0x12
 4603 043e 5F7200   		.ascii	"_r\000"
 4604 0441 08       		.byte	0x8
 4605 0442 B7       		.byte	0xb7
 4606 0443 A3000000 		.4byte	0xa3
 4607 0447 02       		.byte	0x2
 4608 0448 23       		.byte	0x23
 4609 0449 04       		.uleb128 0x4
 4610 044a 12       		.uleb128 0x12
 4611 044b 5F7700   		.ascii	"_w\000"
 4612 044e 08       		.byte	0x8
 4613 044f B8       		.byte	0xb8
ARM GAS  C:\Users\EBANO_~1\AppData\Local\Temp\ccEfOEMG.s 			page 110


 4614 0450 A3000000 		.4byte	0xa3
 4615 0454 02       		.byte	0x2
 4616 0455 23       		.byte	0x23
 4617 0456 08       		.uleb128 0x8
 4618 0457 10       		.uleb128 0x10
 4619 0458 79010000 		.4byte	.LASF65
 4620 045c 08       		.byte	0x8
 4621 045d B9       		.byte	0xb9
 4622 045e 58000000 		.4byte	0x58
 4623 0462 02       		.byte	0x2
 4624 0463 23       		.byte	0x23
 4625 0464 0C       		.uleb128 0xc
 4626 0465 10       		.uleb128 0x10
 4627 0466 6B190000 		.4byte	.LASF66
 4628 046a 08       		.byte	0x8
 4629 046b BA       		.byte	0xba
 4630 046c 58000000 		.4byte	0x58
 4631 0470 02       		.byte	0x2
 4632 0471 23       		.byte	0x23
 4633 0472 0E       		.uleb128 0xe
 4634 0473 12       		.uleb128 0x12
 4635 0474 5F626600 		.ascii	"_bf\000"
 4636 0478 08       		.byte	0x8
 4637 0479 BB       		.byte	0xbb
 4638 047a F5030000 		.4byte	0x3f5
 4639 047e 02       		.byte	0x2
 4640 047f 23       		.byte	0x23
 4641 0480 10       		.uleb128 0x10
 4642 0481 10       		.uleb128 0x10
 4643 0482 44030000 		.4byte	.LASF67
 4644 0486 08       		.byte	0x8
 4645 0487 BC       		.byte	0xbc
 4646 0488 A3000000 		.4byte	0xa3
 4647 048c 02       		.byte	0x2
 4648 048d 23       		.byte	0x23
 4649 048e 18       		.uleb128 0x18
 4650 048f 10       		.uleb128 0x10
 4651 0490 AF0E0000 		.4byte	.LASF68
 4652 0494 08       		.byte	0x8
 4653 0495 C3       		.byte	0xc3
 4654 0496 87010000 		.4byte	0x187
 4655 049a 02       		.byte	0x2
 4656 049b 23       		.byte	0x23
 4657 049c 1C       		.uleb128 0x1c
 4658 049d 10       		.uleb128 0x10
 4659 049e 5D210000 		.4byte	.LASF69
 4660 04a2 08       		.byte	0x8
 4661 04a3 C5       		.byte	0xc5
 4662 04a4 18070000 		.4byte	0x718
 4663 04a8 02       		.byte	0x2
 4664 04a9 23       		.byte	0x23
 4665 04aa 20       		.uleb128 0x20
 4666 04ab 10       		.uleb128 0x10
 4667 04ac E7070000 		.4byte	.LASF70
 4668 04b0 08       		.byte	0x8
 4669 04b1 C7       		.byte	0xc7
 4670 04b2 43070000 		.4byte	0x743
ARM GAS  C:\Users\EBANO_~1\AppData\Local\Temp\ccEfOEMG.s 			page 111


 4671 04b6 02       		.byte	0x2
 4672 04b7 23       		.byte	0x23
 4673 04b8 24       		.uleb128 0x24
 4674 04b9 10       		.uleb128 0x10
 4675 04ba C0110000 		.4byte	.LASF71
 4676 04be 08       		.byte	0x8
 4677 04bf CA       		.byte	0xca
 4678 04c0 68070000 		.4byte	0x768
 4679 04c4 02       		.byte	0x2
 4680 04c5 23       		.byte	0x23
 4681 04c6 28       		.uleb128 0x28
 4682 04c7 10       		.uleb128 0x10
 4683 04c8 1C160000 		.4byte	.LASF72
 4684 04cc 08       		.byte	0x8
 4685 04cd CB       		.byte	0xcb
 4686 04ce 83070000 		.4byte	0x783
 4687 04d2 02       		.byte	0x2
 4688 04d3 23       		.byte	0x23
 4689 04d4 2C       		.uleb128 0x2c
 4690 04d5 12       		.uleb128 0x12
 4691 04d6 5F756200 		.ascii	"_ub\000"
 4692 04da 08       		.byte	0x8
 4693 04db CE       		.byte	0xce
 4694 04dc F5030000 		.4byte	0x3f5
 4695 04e0 02       		.byte	0x2
 4696 04e1 23       		.byte	0x23
 4697 04e2 30       		.uleb128 0x30
 4698 04e3 12       		.uleb128 0x12
 4699 04e4 5F757000 		.ascii	"_up\000"
 4700 04e8 08       		.byte	0x8
 4701 04e9 CF       		.byte	0xcf
 4702 04ea 1E040000 		.4byte	0x41e
 4703 04ee 02       		.byte	0x2
 4704 04ef 23       		.byte	0x23
 4705 04f0 38       		.uleb128 0x38
 4706 04f1 12       		.uleb128 0x12
 4707 04f2 5F757200 		.ascii	"_ur\000"
 4708 04f6 08       		.byte	0x8
 4709 04f7 D0       		.byte	0xd0
 4710 04f8 A3000000 		.4byte	0xa3
 4711 04fc 02       		.byte	0x2
 4712 04fd 23       		.byte	0x23
 4713 04fe 3C       		.uleb128 0x3c
 4714 04ff 10       		.uleb128 0x10
 4715 0500 B0180000 		.4byte	.LASF73
 4716 0504 08       		.byte	0x8
 4717 0505 D3       		.byte	0xd3
 4718 0506 89070000 		.4byte	0x789
 4719 050a 02       		.byte	0x2
 4720 050b 23       		.byte	0x23
 4721 050c 40       		.uleb128 0x40
 4722 050d 10       		.uleb128 0x10
 4723 050e F3010000 		.4byte	.LASF74
 4724 0512 08       		.byte	0x8
 4725 0513 D4       		.byte	0xd4
 4726 0514 99070000 		.4byte	0x799
 4727 0518 02       		.byte	0x2
ARM GAS  C:\Users\EBANO_~1\AppData\Local\Temp\ccEfOEMG.s 			page 112


 4728 0519 23       		.byte	0x23
 4729 051a 43       		.uleb128 0x43
 4730 051b 12       		.uleb128 0x12
 4731 051c 5F6C6200 		.ascii	"_lb\000"
 4732 0520 08       		.byte	0x8
 4733 0521 D7       		.byte	0xd7
 4734 0522 F5030000 		.4byte	0x3f5
 4735 0526 02       		.byte	0x2
 4736 0527 23       		.byte	0x23
 4737 0528 44       		.uleb128 0x44
 4738 0529 10       		.uleb128 0x10
 4739 052a 98180000 		.4byte	.LASF75
 4740 052e 08       		.byte	0x8
 4741 052f DA       		.byte	0xda
 4742 0530 A3000000 		.4byte	0xa3
 4743 0534 02       		.byte	0x2
 4744 0535 23       		.byte	0x23
 4745 0536 4C       		.uleb128 0x4c
 4746 0537 10       		.uleb128 0x10
 4747 0538 97120000 		.4byte	.LASF76
 4748 053c 08       		.byte	0x8
 4749 053d DB       		.byte	0xdb
 4750 053e A0010000 		.4byte	0x1a0
 4751 0542 02       		.byte	0x2
 4752 0543 23       		.byte	0x23
 4753 0544 50       		.uleb128 0x50
 4754 0545 10       		.uleb128 0x10
 4755 0546 93030000 		.4byte	.LASF77
 4756 054a 08       		.byte	0x8
 4757 054b DE       		.byte	0xde
 4758 054c 9D050000 		.4byte	0x59d
 4759 0550 02       		.byte	0x2
 4760 0551 23       		.byte	0x23
 4761 0552 54       		.uleb128 0x54
 4762 0553 10       		.uleb128 0x10
 4763 0554 ED010000 		.4byte	.LASF78
 4764 0558 08       		.byte	0x8
 4765 0559 E2       		.byte	0xe2
 4766 055a 21020000 		.4byte	0x221
 4767 055e 02       		.byte	0x2
 4768 055f 23       		.byte	0x23
 4769 0560 58       		.uleb128 0x58
 4770 0561 10       		.uleb128 0x10
 4771 0562 E4000000 		.4byte	.LASF79
 4772 0566 08       		.byte	0x8
 4773 0567 E4       		.byte	0xe4
 4774 0568 16020000 		.4byte	0x216
 4775 056c 02       		.byte	0x2
 4776 056d 23       		.byte	0x23
 4777 056e 5C       		.uleb128 0x5c
 4778 056f 10       		.uleb128 0x10
 4779 0570 971E0000 		.4byte	.LASF80
 4780 0574 08       		.byte	0x8
 4781 0575 E5       		.byte	0xe5
 4782 0576 A3000000 		.4byte	0xa3
 4783 057a 02       		.byte	0x2
 4784 057b 23       		.byte	0x23
ARM GAS  C:\Users\EBANO_~1\AppData\Local\Temp\ccEfOEMG.s 			page 113


 4785 057c 64       		.uleb128 0x64
 4786 057d 00       		.byte	0
 4787 057e 15       		.uleb128 0x15
 4788 057f 01       		.byte	0x1
 4789 0580 A3000000 		.4byte	0xa3
 4790 0584 9D050000 		.4byte	0x59d
 4791 0588 16       		.uleb128 0x16
 4792 0589 9D050000 		.4byte	0x59d
 4793 058d 16       		.uleb128 0x16
 4794 058e 87010000 		.4byte	0x187
 4795 0592 16       		.uleb128 0x16
 4796 0593 06070000 		.4byte	0x706
 4797 0597 16       		.uleb128 0x16
 4798 0598 A3000000 		.4byte	0xa3
 4799 059c 00       		.byte	0
 4800 059d 0A       		.uleb128 0xa
 4801 059e 04       		.byte	0x4
 4802 059f A8050000 		.4byte	0x5a8
 4803 05a3 05       		.uleb128 0x5
 4804 05a4 9D050000 		.4byte	0x59d
 4805 05a8 17       		.uleb128 0x17
 4806 05a9 29040000 		.4byte	.LASF81
 4807 05ad 2804     		.2byte	0x428
 4808 05af 08       		.byte	0x8
 4809 05b0 6002     		.2byte	0x260
 4810 05b2 06070000 		.4byte	0x706
 4811 05b6 18       		.uleb128 0x18
 4812 05b7 9E0D0000 		.4byte	.LASF82
 4813 05bb 08       		.byte	0x8
 4814 05bc 6202     		.2byte	0x262
 4815 05be A3000000 		.4byte	0xa3
 4816 05c2 02       		.byte	0x2
 4817 05c3 23       		.byte	0x23
 4818 05c4 00       		.uleb128 0
 4819 05c5 18       		.uleb128 0x18
 4820 05c6 770A0000 		.4byte	.LASF83
 4821 05ca 08       		.byte	0x8
 4822 05cb 6702     		.2byte	0x267
 4823 05cd F6070000 		.4byte	0x7f6
 4824 05d1 02       		.byte	0x2
 4825 05d2 23       		.byte	0x23
 4826 05d3 04       		.uleb128 0x4
 4827 05d4 18       		.uleb128 0x18
 4828 05d5 E2060000 		.4byte	.LASF84
 4829 05d9 08       		.byte	0x8
 4830 05da 6702     		.2byte	0x267
 4831 05dc F6070000 		.4byte	0x7f6
 4832 05e0 02       		.byte	0x2
 4833 05e1 23       		.byte	0x23
 4834 05e2 08       		.uleb128 0x8
 4835 05e3 18       		.uleb128 0x18
 4836 05e4 3C060000 		.4byte	.LASF85
 4837 05e8 08       		.byte	0x8
 4838 05e9 6702     		.2byte	0x267
 4839 05eb F6070000 		.4byte	0x7f6
 4840 05ef 02       		.byte	0x2
 4841 05f0 23       		.byte	0x23
ARM GAS  C:\Users\EBANO_~1\AppData\Local\Temp\ccEfOEMG.s 			page 114


 4842 05f1 0C       		.uleb128 0xc
 4843 05f2 18       		.uleb128 0x18
 4844 05f3 25010000 		.4byte	.LASF86
 4845 05f7 08       		.byte	0x8
 4846 05f8 6902     		.2byte	0x269
 4847 05fa A3000000 		.4byte	0xa3
 4848 05fe 02       		.byte	0x2
 4849 05ff 23       		.byte	0x23
 4850 0600 10       		.uleb128 0x10
 4851 0601 18       		.uleb128 0x18
 4852 0602 47140000 		.4byte	.LASF87
 4853 0606 08       		.byte	0x8
 4854 0607 6A02     		.2byte	0x26a
 4855 0609 110A0000 		.4byte	0xa11
 4856 060d 02       		.byte	0x2
 4857 060e 23       		.byte	0x23
 4858 060f 14       		.uleb128 0x14
 4859 0610 18       		.uleb128 0x18
 4860 0611 171D0000 		.4byte	.LASF88
 4861 0615 08       		.byte	0x8
 4862 0616 6D02     		.2byte	0x26d
 4863 0618 A3000000 		.4byte	0xa3
 4864 061c 02       		.byte	0x2
 4865 061d 23       		.byte	0x23
 4866 061e 30       		.uleb128 0x30
 4867 061f 18       		.uleb128 0x18
 4868 0620 C21E0000 		.4byte	.LASF89
 4869 0624 08       		.byte	0x8
 4870 0625 6E02     		.2byte	0x26e
 4871 0627 270A0000 		.4byte	0xa27
 4872 062b 02       		.byte	0x2
 4873 062c 23       		.byte	0x23
 4874 062d 34       		.uleb128 0x34
 4875 062e 18       		.uleb128 0x18
 4876 062f 671D0000 		.4byte	.LASF90
 4877 0633 08       		.byte	0x8
 4878 0634 7002     		.2byte	0x270
 4879 0636 A3000000 		.4byte	0xa3
 4880 063a 02       		.byte	0x2
 4881 063b 23       		.byte	0x23
 4882 063c 38       		.uleb128 0x38
 4883 063d 18       		.uleb128 0x18
 4884 063e F4180000 		.4byte	.LASF91
 4885 0642 08       		.byte	0x8
 4886 0643 7202     		.2byte	0x272
 4887 0645 390A0000 		.4byte	0xa39
 4888 0649 02       		.byte	0x2
 4889 064a 23       		.byte	0x23
 4890 064b 3C       		.uleb128 0x3c
 4891 064c 18       		.uleb128 0x18
 4892 064d 44060000 		.4byte	.LASF92
 4893 0651 08       		.byte	0x8
 4894 0652 7502     		.2byte	0x275
 4895 0654 96020000 		.4byte	0x296
 4896 0658 02       		.byte	0x2
 4897 0659 23       		.byte	0x23
 4898 065a 40       		.uleb128 0x40
ARM GAS  C:\Users\EBANO_~1\AppData\Local\Temp\ccEfOEMG.s 			page 115


 4899 065b 18       		.uleb128 0x18
 4900 065c 32060000 		.4byte	.LASF93
 4901 0660 08       		.byte	0x8
 4902 0661 7602     		.2byte	0x276
 4903 0663 A3000000 		.4byte	0xa3
 4904 0667 02       		.byte	0x2
 4905 0668 23       		.byte	0x23
 4906 0669 44       		.uleb128 0x44
 4907 066a 18       		.uleb128 0x18
 4908 066b 991A0000 		.4byte	.LASF94
 4909 066f 08       		.byte	0x8
 4910 0670 7702     		.2byte	0x277
 4911 0672 96020000 		.4byte	0x296
 4912 0676 02       		.byte	0x2
 4913 0677 23       		.byte	0x23
 4914 0678 48       		.uleb128 0x48
 4915 0679 18       		.uleb128 0x18
 4916 067a 7D120000 		.4byte	.LASF95
 4917 067e 08       		.byte	0x8
 4918 067f 7802     		.2byte	0x278
 4919 0681 3F0A0000 		.4byte	0xa3f
 4920 0685 02       		.byte	0x2
 4921 0686 23       		.byte	0x23
 4922 0687 4C       		.uleb128 0x4c
 4923 0688 18       		.uleb128 0x18
 4924 0689 8F010000 		.4byte	.LASF96
 4925 068d 08       		.byte	0x8
 4926 068e 7B02     		.2byte	0x27b
 4927 0690 A3000000 		.4byte	0xa3
 4928 0694 02       		.byte	0x2
 4929 0695 23       		.byte	0x23
 4930 0696 50       		.uleb128 0x50
 4931 0697 18       		.uleb128 0x18
 4932 0698 F80B0000 		.4byte	.LASF97
 4933 069c 08       		.byte	0x8
 4934 069d 7C02     		.2byte	0x27c
 4935 069f 06070000 		.4byte	0x706
 4936 06a3 02       		.byte	0x2
 4937 06a4 23       		.byte	0x23
 4938 06a5 54       		.uleb128 0x54
 4939 06a6 18       		.uleb128 0x18
 4940 06a7 F40C0000 		.4byte	.LASF98
 4941 06ab 08       		.byte	0x8
 4942 06ac 9F02     		.2byte	0x29f
 4943 06ae EF090000 		.4byte	0x9ef
 4944 06b2 02       		.byte	0x2
 4945 06b3 23       		.byte	0x23
 4946 06b4 58       		.uleb128 0x58
 4947 06b5 18       		.uleb128 0x18
 4948 06b6 F9000000 		.4byte	.LASF58
 4949 06ba 08       		.byte	0x8
 4950 06bb A302     		.2byte	0x2a3
 4951 06bd D7030000 		.4byte	0x3d7
 4952 06c1 03       		.byte	0x3
 4953 06c2 23       		.byte	0x23
 4954 06c3 C802     		.uleb128 0x148
 4955 06c5 18       		.uleb128 0x18
ARM GAS  C:\Users\EBANO_~1\AppData\Local\Temp\ccEfOEMG.s 			page 116


 4956 06c6 6D170000 		.4byte	.LASF99
 4957 06ca 08       		.byte	0x8
 4958 06cb A402     		.2byte	0x2a4
 4959 06cd 90030000 		.4byte	0x390
 4960 06d1 03       		.byte	0x3
 4961 06d2 23       		.byte	0x23
 4962 06d3 CC02     		.uleb128 0x14c
 4963 06d5 18       		.uleb128 0x18
 4964 06d6 B8010000 		.4byte	.LASF100
 4965 06da 08       		.byte	0x8
 4966 06db A802     		.2byte	0x2a8
 4967 06dd 510A0000 		.4byte	0xa51
 4968 06e1 03       		.byte	0x3
 4969 06e2 23       		.byte	0x23
 4970 06e3 DC05     		.uleb128 0x2dc
 4971 06e5 18       		.uleb128 0x18
 4972 06e6 DB180000 		.4byte	.LASF101
 4973 06ea 08       		.byte	0x8
 4974 06eb AD02     		.2byte	0x2ad
 4975 06ed B5070000 		.4byte	0x7b5
 4976 06f1 03       		.byte	0x3
 4977 06f2 23       		.byte	0x23
 4978 06f3 E005     		.uleb128 0x2e0
 4979 06f5 18       		.uleb128 0x18
 4980 06f6 77040000 		.4byte	.LASF102
 4981 06fa 08       		.byte	0x8
 4982 06fb AF02     		.2byte	0x2af
 4983 06fd 5D0A0000 		.4byte	0xa5d
 4984 0701 03       		.byte	0x3
 4985 0702 23       		.byte	0x23
 4986 0703 EC05     		.uleb128 0x2ec
 4987 0705 00       		.byte	0
 4988 0706 0A       		.uleb128 0xa
 4989 0707 04       		.byte	0x4
 4990 0708 0C070000 		.4byte	0x70c
 4991 070c 02       		.uleb128 0x2
 4992 070d 01       		.byte	0x1
 4993 070e 08       		.byte	0x8
 4994 070f 34160000 		.4byte	.LASF103
 4995 0713 05       		.uleb128 0x5
 4996 0714 0C070000 		.4byte	0x70c
 4997 0718 0A       		.uleb128 0xa
 4998 0719 04       		.byte	0x4
 4999 071a 7E050000 		.4byte	0x57e
 5000 071e 15       		.uleb128 0x15
 5001 071f 01       		.byte	0x1
 5002 0720 A3000000 		.4byte	0xa3
 5003 0724 3D070000 		.4byte	0x73d
 5004 0728 16       		.uleb128 0x16
 5005 0729 9D050000 		.4byte	0x59d
 5006 072d 16       		.uleb128 0x16
 5007 072e 87010000 		.4byte	0x187
 5008 0732 16       		.uleb128 0x16
 5009 0733 3D070000 		.4byte	0x73d
 5010 0737 16       		.uleb128 0x16
 5011 0738 A3000000 		.4byte	0xa3
 5012 073c 00       		.byte	0
ARM GAS  C:\Users\EBANO_~1\AppData\Local\Temp\ccEfOEMG.s 			page 117


 5013 073d 0A       		.uleb128 0xa
 5014 073e 04       		.byte	0x4
 5015 073f 13070000 		.4byte	0x713
 5016 0743 0A       		.uleb128 0xa
 5017 0744 04       		.byte	0x4
 5018 0745 1E070000 		.4byte	0x71e
 5019 0749 15       		.uleb128 0x15
 5020 074a 01       		.byte	0x1
 5021 074b AB010000 		.4byte	0x1ab
 5022 074f 68070000 		.4byte	0x768
 5023 0753 16       		.uleb128 0x16
 5024 0754 9D050000 		.4byte	0x59d
 5025 0758 16       		.uleb128 0x16
 5026 0759 87010000 		.4byte	0x187
 5027 075d 16       		.uleb128 0x16
 5028 075e AB010000 		.4byte	0x1ab
 5029 0762 16       		.uleb128 0x16
 5030 0763 A3000000 		.4byte	0xa3
 5031 0767 00       		.byte	0
 5032 0768 0A       		.uleb128 0xa
 5033 0769 04       		.byte	0x4
 5034 076a 49070000 		.4byte	0x749
 5035 076e 15       		.uleb128 0x15
 5036 076f 01       		.byte	0x1
 5037 0770 A3000000 		.4byte	0xa3
 5038 0774 83070000 		.4byte	0x783
 5039 0778 16       		.uleb128 0x16
 5040 0779 9D050000 		.4byte	0x59d
 5041 077d 16       		.uleb128 0x16
 5042 077e 87010000 		.4byte	0x187
 5043 0782 00       		.byte	0
 5044 0783 0A       		.uleb128 0xa
 5045 0784 04       		.byte	0x4
 5046 0785 6E070000 		.4byte	0x76e
 5047 0789 07       		.uleb128 0x7
 5048 078a 46000000 		.4byte	0x46
 5049 078e 99070000 		.4byte	0x799
 5050 0792 08       		.uleb128 0x8
 5051 0793 AA000000 		.4byte	0xaa
 5052 0797 02       		.byte	0x2
 5053 0798 00       		.byte	0
 5054 0799 07       		.uleb128 0x7
 5055 079a 46000000 		.4byte	0x46
 5056 079e A9070000 		.4byte	0x7a9
 5057 07a2 08       		.uleb128 0x8
 5058 07a3 AA000000 		.4byte	0xaa
 5059 07a7 00       		.byte	0
 5060 07a8 00       		.byte	0
 5061 07a9 0C       		.uleb128 0xc
 5062 07aa EF1F0000 		.4byte	.LASF104
 5063 07ae 08       		.byte	0x8
 5064 07af 1F01     		.2byte	0x11f
 5065 07b1 24040000 		.4byte	0x424
 5066 07b5 19       		.uleb128 0x19
 5067 07b6 55160000 		.4byte	.LASF105
 5068 07ba 0C       		.byte	0xc
 5069 07bb 08       		.byte	0x8
ARM GAS  C:\Users\EBANO_~1\AppData\Local\Temp\ccEfOEMG.s 			page 118


 5070 07bc 2301     		.2byte	0x123
 5071 07be F0070000 		.4byte	0x7f0
 5072 07c2 18       		.uleb128 0x18
 5073 07c3 760E0000 		.4byte	.LASF38
 5074 07c7 08       		.byte	0x8
 5075 07c8 2501     		.2byte	0x125
 5076 07ca F0070000 		.4byte	0x7f0
 5077 07ce 02       		.byte	0x2
 5078 07cf 23       		.byte	0x23
 5079 07d0 00       		.uleb128 0
 5080 07d1 18       		.uleb128 0x18
 5081 07d2 120D0000 		.4byte	.LASF106
 5082 07d6 08       		.byte	0x8
 5083 07d7 2601     		.2byte	0x126
 5084 07d9 A3000000 		.4byte	0xa3
 5085 07dd 02       		.byte	0x2
 5086 07de 23       		.byte	0x23
 5087 07df 04       		.uleb128 0x4
 5088 07e0 18       		.uleb128 0x18
 5089 07e1 41140000 		.4byte	.LASF107
 5090 07e5 08       		.byte	0x8
 5091 07e6 2701     		.2byte	0x127
 5092 07e8 F6070000 		.4byte	0x7f6
 5093 07ec 02       		.byte	0x2
 5094 07ed 23       		.byte	0x23
 5095 07ee 08       		.uleb128 0x8
 5096 07ef 00       		.byte	0
 5097 07f0 0A       		.uleb128 0xa
 5098 07f1 04       		.byte	0x4
 5099 07f2 B5070000 		.4byte	0x7b5
 5100 07f6 0A       		.uleb128 0xa
 5101 07f7 04       		.byte	0x4
 5102 07f8 A9070000 		.4byte	0x7a9
 5103 07fc 19       		.uleb128 0x19
 5104 07fd 87210000 		.4byte	.LASF108
 5105 0801 0E       		.byte	0xe
 5106 0802 08       		.byte	0x8
 5107 0803 3F01     		.2byte	0x13f
 5108 0805 37080000 		.4byte	0x837
 5109 0809 18       		.uleb128 0x18
 5110 080a AE110000 		.4byte	.LASF109
 5111 080e 08       		.byte	0x8
 5112 080f 4001     		.2byte	0x140
 5113 0811 37080000 		.4byte	0x837
 5114 0815 02       		.byte	0x2
 5115 0816 23       		.byte	0x23
 5116 0817 00       		.uleb128 0
 5117 0818 18       		.uleb128 0x18
 5118 0819 70090000 		.4byte	.LASF110
 5119 081d 08       		.byte	0x8
 5120 081e 4101     		.2byte	0x141
 5121 0820 37080000 		.4byte	0x837
 5122 0824 02       		.byte	0x2
 5123 0825 23       		.byte	0x23
 5124 0826 06       		.uleb128 0x6
 5125 0827 18       		.uleb128 0x18
 5126 0828 B0020000 		.4byte	.LASF111
ARM GAS  C:\Users\EBANO_~1\AppData\Local\Temp\ccEfOEMG.s 			page 119


 5127 082c 08       		.byte	0x8
 5128 082d 4201     		.2byte	0x142
 5129 082f 6A000000 		.4byte	0x6a
 5130 0833 02       		.byte	0x2
 5131 0834 23       		.byte	0x23
 5132 0835 0C       		.uleb128 0xc
 5133 0836 00       		.byte	0
 5134 0837 07       		.uleb128 0x7
 5135 0838 6A000000 		.4byte	0x6a
 5136 083c 47080000 		.4byte	0x847
 5137 0840 08       		.uleb128 0x8
 5138 0841 AA000000 		.4byte	0xaa
 5139 0845 02       		.byte	0x2
 5140 0846 00       		.byte	0
 5141 0847 1A       		.uleb128 0x1a
 5142 0848 D0       		.byte	0xd0
 5143 0849 08       		.byte	0x8
 5144 084a 8002     		.2byte	0x280
 5145 084c 77090000 		.4byte	0x977
 5146 0850 18       		.uleb128 0x18
 5147 0851 AD050000 		.4byte	.LASF112
 5148 0855 08       		.byte	0x8
 5149 0856 8202     		.2byte	0x282
 5150 0858 AA000000 		.4byte	0xaa
 5151 085c 02       		.byte	0x2
 5152 085d 23       		.byte	0x23
 5153 085e 00       		.uleb128 0
 5154 085f 18       		.uleb128 0x18
 5155 0860 83110000 		.4byte	.LASF113
 5156 0864 08       		.byte	0x8
 5157 0865 8302     		.2byte	0x283
 5158 0867 06070000 		.4byte	0x706
 5159 086b 02       		.byte	0x2
 5160 086c 23       		.byte	0x23
 5161 086d 04       		.uleb128 0x4
 5162 086e 18       		.uleb128 0x18
 5163 086f 17130000 		.4byte	.LASF114
 5164 0873 08       		.byte	0x8
 5165 0874 8402     		.2byte	0x284
 5166 0876 77090000 		.4byte	0x977
 5167 087a 02       		.byte	0x2
 5168 087b 23       		.byte	0x23
 5169 087c 08       		.uleb128 0x8
 5170 087d 18       		.uleb128 0x18
 5171 087e 260B0000 		.4byte	.LASF115
 5172 0882 08       		.byte	0x8
 5173 0883 8502     		.2byte	0x285
 5174 0885 AC020000 		.4byte	0x2ac
 5175 0889 02       		.byte	0x2
 5176 088a 23       		.byte	0x23
 5177 088b 24       		.uleb128 0x24
 5178 088c 18       		.uleb128 0x18
 5179 088d 3F1C0000 		.4byte	.LASF116
 5180 0891 08       		.byte	0x8
 5181 0892 8602     		.2byte	0x286
 5182 0894 A3000000 		.4byte	0xa3
 5183 0898 02       		.byte	0x2
ARM GAS  C:\Users\EBANO_~1\AppData\Local\Temp\ccEfOEMG.s 			page 120


 5184 0899 23       		.byte	0x23
 5185 089a 48       		.uleb128 0x48
 5186 089b 18       		.uleb128 0x18
 5187 089c 66140000 		.4byte	.LASF117
 5188 08a0 08       		.byte	0x8
 5189 08a1 8702     		.2byte	0x287
 5190 08a3 9C000000 		.4byte	0x9c
 5191 08a7 02       		.byte	0x2
 5192 08a8 23       		.byte	0x23
 5193 08a9 50       		.uleb128 0x50
 5194 08aa 18       		.uleb128 0x18
 5195 08ab 9B200000 		.4byte	.LASF118
 5196 08af 08       		.byte	0x8
 5197 08b0 8802     		.2byte	0x288
 5198 08b2 FC070000 		.4byte	0x7fc
 5199 08b6 02       		.byte	0x2
 5200 08b7 23       		.byte	0x23
 5201 08b8 58       		.uleb128 0x58
 5202 08b9 18       		.uleb128 0x18
 5203 08ba CE180000 		.4byte	.LASF119
 5204 08be 08       		.byte	0x8
 5205 08bf 8902     		.2byte	0x289
 5206 08c1 16020000 		.4byte	0x216
 5207 08c5 02       		.byte	0x2
 5208 08c6 23       		.byte	0x23
 5209 08c7 68       		.uleb128 0x68
 5210 08c8 18       		.uleb128 0x18
 5211 08c9 88040000 		.4byte	.LASF120
 5212 08cd 08       		.byte	0x8
 5213 08ce 8A02     		.2byte	0x28a
 5214 08d0 16020000 		.4byte	0x216
 5215 08d4 02       		.byte	0x2
 5216 08d5 23       		.byte	0x23
 5217 08d6 70       		.uleb128 0x70
 5218 08d7 18       		.uleb128 0x18
 5219 08d8 DE130000 		.4byte	.LASF121
 5220 08dc 08       		.byte	0x8
 5221 08dd 8B02     		.2byte	0x28b
 5222 08df 16020000 		.4byte	0x216
 5223 08e3 02       		.byte	0x2
 5224 08e4 23       		.byte	0x23
 5225 08e5 78       		.uleb128 0x78
 5226 08e6 18       		.uleb128 0x18
 5227 08e7 D2120000 		.4byte	.LASF122
 5228 08eb 08       		.byte	0x8
 5229 08ec 8C02     		.2byte	0x28c
 5230 08ee 87090000 		.4byte	0x987
 5231 08f2 03       		.byte	0x3
 5232 08f3 23       		.byte	0x23
 5233 08f4 8001     		.uleb128 0x80
 5234 08f6 18       		.uleb128 0x18
 5235 08f7 A30E0000 		.4byte	.LASF123
 5236 08fb 08       		.byte	0x8
 5237 08fc 8D02     		.2byte	0x28d
 5238 08fe 97090000 		.4byte	0x997
 5239 0902 03       		.byte	0x3
 5240 0903 23       		.byte	0x23
ARM GAS  C:\Users\EBANO_~1\AppData\Local\Temp\ccEfOEMG.s 			page 121


 5241 0904 8801     		.uleb128 0x88
 5242 0906 18       		.uleb128 0x18
 5243 0907 C1170000 		.4byte	.LASF124
 5244 090b 08       		.byte	0x8
 5245 090c 8E02     		.2byte	0x28e
 5246 090e A3000000 		.4byte	0xa3
 5247 0912 03       		.byte	0x3
 5248 0913 23       		.byte	0x23
 5249 0914 A001     		.uleb128 0xa0
 5250 0916 18       		.uleb128 0x18
 5251 0917 DB090000 		.4byte	.LASF125
 5252 091b 08       		.byte	0x8
 5253 091c 8F02     		.2byte	0x28f
 5254 091e 16020000 		.4byte	0x216
 5255 0922 03       		.byte	0x3
 5256 0923 23       		.byte	0x23
 5257 0924 A401     		.uleb128 0xa4
 5258 0926 18       		.uleb128 0x18
 5259 0927 8C0C0000 		.4byte	.LASF126
 5260 092b 08       		.byte	0x8
 5261 092c 9002     		.2byte	0x290
 5262 092e 16020000 		.4byte	0x216
 5263 0932 03       		.byte	0x3
 5264 0933 23       		.byte	0x23
 5265 0934 AC01     		.uleb128 0xac
 5266 0936 18       		.uleb128 0x18
 5267 0937 FB060000 		.4byte	.LASF127
 5268 093b 08       		.byte	0x8
 5269 093c 9102     		.2byte	0x291
 5270 093e 16020000 		.4byte	0x216
 5271 0942 03       		.byte	0x3
 5272 0943 23       		.byte	0x23
 5273 0944 B401     		.uleb128 0xb4
 5274 0946 18       		.uleb128 0x18
 5275 0947 9A100000 		.4byte	.LASF128
 5276 094b 08       		.byte	0x8
 5277 094c 9202     		.2byte	0x292
 5278 094e 16020000 		.4byte	0x216
 5279 0952 03       		.byte	0x3
 5280 0953 23       		.byte	0x23
 5281 0954 BC01     		.uleb128 0xbc
 5282 0956 18       		.uleb128 0x18
 5283 0957 41130000 		.4byte	.LASF129
 5284 095b 08       		.byte	0x8
 5285 095c 9302     		.2byte	0x293
 5286 095e 16020000 		.4byte	0x216
 5287 0962 03       		.byte	0x3
 5288 0963 23       		.byte	0x23
 5289 0964 C401     		.uleb128 0xc4
 5290 0966 18       		.uleb128 0x18
 5291 0967 D3190000 		.4byte	.LASF130
 5292 096b 08       		.byte	0x8
 5293 096c 9402     		.2byte	0x294
 5294 096e A3000000 		.4byte	0xa3
 5295 0972 03       		.byte	0x3
 5296 0973 23       		.byte	0x23
 5297 0974 CC01     		.uleb128 0xcc
ARM GAS  C:\Users\EBANO_~1\AppData\Local\Temp\ccEfOEMG.s 			page 122


 5298 0976 00       		.byte	0
 5299 0977 07       		.uleb128 0x7
 5300 0978 0C070000 		.4byte	0x70c
 5301 097c 87090000 		.4byte	0x987
 5302 0980 08       		.uleb128 0x8
 5303 0981 AA000000 		.4byte	0xaa
 5304 0985 19       		.byte	0x19
 5305 0986 00       		.byte	0
 5306 0987 07       		.uleb128 0x7
 5307 0988 0C070000 		.4byte	0x70c
 5308 098c 97090000 		.4byte	0x997
 5309 0990 08       		.uleb128 0x8
 5310 0991 AA000000 		.4byte	0xaa
 5311 0995 07       		.byte	0x7
 5312 0996 00       		.byte	0
 5313 0997 07       		.uleb128 0x7
 5314 0998 0C070000 		.4byte	0x70c
 5315 099c A7090000 		.4byte	0x9a7
 5316 09a0 08       		.uleb128 0x8
 5317 09a1 AA000000 		.4byte	0xaa
 5318 09a5 17       		.byte	0x17
 5319 09a6 00       		.byte	0
 5320 09a7 1A       		.uleb128 0x1a
 5321 09a8 F0       		.byte	0xf0
 5322 09a9 08       		.byte	0x8
 5323 09aa 9902     		.2byte	0x299
 5324 09ac CF090000 		.4byte	0x9cf
 5325 09b0 18       		.uleb128 0x18
 5326 09b1 5F140000 		.4byte	.LASF131
 5327 09b5 08       		.byte	0x8
 5328 09b6 9C02     		.2byte	0x29c
 5329 09b8 CF090000 		.4byte	0x9cf
 5330 09bc 02       		.byte	0x2
 5331 09bd 23       		.byte	0x23
 5332 09be 00       		.uleb128 0
 5333 09bf 18       		.uleb128 0x18
 5334 09c0 8C0A0000 		.4byte	.LASF132
 5335 09c4 08       		.byte	0x8
 5336 09c5 9D02     		.2byte	0x29d
 5337 09c7 DF090000 		.4byte	0x9df
 5338 09cb 02       		.byte	0x2
 5339 09cc 23       		.byte	0x23
 5340 09cd 78       		.uleb128 0x78
 5341 09ce 00       		.byte	0
 5342 09cf 07       		.uleb128 0x7
 5343 09d0 1E040000 		.4byte	0x41e
 5344 09d4 DF090000 		.4byte	0x9df
 5345 09d8 08       		.uleb128 0x8
 5346 09d9 AA000000 		.4byte	0xaa
 5347 09dd 1D       		.byte	0x1d
 5348 09de 00       		.byte	0
 5349 09df 07       		.uleb128 0x7
 5350 09e0 AA000000 		.4byte	0xaa
 5351 09e4 EF090000 		.4byte	0x9ef
 5352 09e8 08       		.uleb128 0x8
 5353 09e9 AA000000 		.4byte	0xaa
 5354 09ed 1D       		.byte	0x1d
ARM GAS  C:\Users\EBANO_~1\AppData\Local\Temp\ccEfOEMG.s 			page 123


 5355 09ee 00       		.byte	0
 5356 09ef 1B       		.uleb128 0x1b
 5357 09f0 F0       		.byte	0xf0
 5358 09f1 08       		.byte	0x8
 5359 09f2 7E02     		.2byte	0x27e
 5360 09f4 110A0000 		.4byte	0xa11
 5361 09f8 1C       		.uleb128 0x1c
 5362 09f9 29040000 		.4byte	.LASF81
 5363 09fd 08       		.byte	0x8
 5364 09fe 9502     		.2byte	0x295
 5365 0a00 47080000 		.4byte	0x847
 5366 0a04 1C       		.uleb128 0x1c
 5367 0a05 F9010000 		.4byte	.LASF133
 5368 0a09 08       		.byte	0x8
 5369 0a0a 9E02     		.2byte	0x29e
 5370 0a0c A7090000 		.4byte	0x9a7
 5371 0a10 00       		.byte	0
 5372 0a11 07       		.uleb128 0x7
 5373 0a12 0C070000 		.4byte	0x70c
 5374 0a16 210A0000 		.4byte	0xa21
 5375 0a1a 08       		.uleb128 0x8
 5376 0a1b AA000000 		.4byte	0xaa
 5377 0a1f 18       		.byte	0x18
 5378 0a20 00       		.byte	0
 5379 0a21 0B       		.uleb128 0xb
 5380 0a22 E3180000 		.4byte	.LASF135
 5381 0a26 01       		.byte	0x1
 5382 0a27 0A       		.uleb128 0xa
 5383 0a28 04       		.byte	0x4
 5384 0a29 210A0000 		.4byte	0xa21
 5385 0a2d 1D       		.uleb128 0x1d
 5386 0a2e 01       		.byte	0x1
 5387 0a2f 390A0000 		.4byte	0xa39
 5388 0a33 16       		.uleb128 0x16
 5389 0a34 9D050000 		.4byte	0x59d
 5390 0a38 00       		.byte	0
 5391 0a39 0A       		.uleb128 0xa
 5392 0a3a 04       		.byte	0x4
 5393 0a3b 2D0A0000 		.4byte	0xa2d
 5394 0a3f 0A       		.uleb128 0xa
 5395 0a40 04       		.byte	0x4
 5396 0a41 96020000 		.4byte	0x296
 5397 0a45 1D       		.uleb128 0x1d
 5398 0a46 01       		.byte	0x1
 5399 0a47 510A0000 		.4byte	0xa51
 5400 0a4b 16       		.uleb128 0x16
 5401 0a4c A3000000 		.4byte	0xa3
 5402 0a50 00       		.byte	0
 5403 0a51 0A       		.uleb128 0xa
 5404 0a52 04       		.byte	0x4
 5405 0a53 570A0000 		.4byte	0xa57
 5406 0a57 0A       		.uleb128 0xa
 5407 0a58 04       		.byte	0x4
 5408 0a59 450A0000 		.4byte	0xa45
 5409 0a5d 07       		.uleb128 0x7
 5410 0a5e A9070000 		.4byte	0x7a9
 5411 0a62 6D0A0000 		.4byte	0xa6d
ARM GAS  C:\Users\EBANO_~1\AppData\Local\Temp\ccEfOEMG.s 			page 124


 5412 0a66 08       		.uleb128 0x8
 5413 0a67 AA000000 		.4byte	0xaa
 5414 0a6b 02       		.byte	0x2
 5415 0a6c 00       		.byte	0
 5416 0a6d 1E       		.uleb128 0x1e
 5417 0a6e 8C180000 		.4byte	.LASF136
 5418 0a72 08       		.byte	0x8
 5419 0a73 2E03     		.2byte	0x32e
 5420 0a75 9D050000 		.4byte	0x59d
 5421 0a79 01       		.byte	0x1
 5422 0a7a 01       		.byte	0x1
 5423 0a7b 1E       		.uleb128 0x1e
 5424 0a7c F61C0000 		.4byte	.LASF137
 5425 0a80 08       		.byte	0x8
 5426 0a81 2F03     		.2byte	0x32f
 5427 0a83 A3050000 		.4byte	0x5a3
 5428 0a87 01       		.byte	0x1
 5429 0a88 01       		.byte	0x1
 5430 0a89 0A       		.uleb128 0xa
 5431 0a8a 04       		.byte	0x4
 5432 0a8b C1000000 		.4byte	0xc1
 5433 0a8f 06       		.uleb128 0x6
 5434 0a90 57150000 		.4byte	.LASF138
 5435 0a94 09       		.byte	0x9
 5436 0a95 63       		.byte	0x63
 5437 0a96 06070000 		.4byte	0x706
 5438 0a9a 01       		.byte	0x1
 5439 0a9b 01       		.byte	0x1
 5440 0a9c 03       		.uleb128 0x3
 5441 0a9d 0B1B0000 		.4byte	.LASF139
 5442 0aa1 0A       		.byte	0xa
 5443 0aa2 3D       		.byte	0x3d
 5444 0aa3 F2000000 		.4byte	0xf2
 5445 0aa7 11       		.uleb128 0x11
 5446 0aa8 F90A0000 		.4byte	.LASF140
 5447 0aac 04       		.byte	0x4
 5448 0aad 0A       		.byte	0xa
 5449 0aae 5F       		.byte	0x5f
 5450 0aaf EC0A0000 		.4byte	0xaec
 5451 0ab3 12       		.uleb128 0x12
 5452 0ab4 52667500 		.ascii	"Rfu\000"
 5453 0ab8 0A       		.byte	0xa
 5454 0ab9 61       		.byte	0x61
 5455 0aba C1000000 		.4byte	0xc1
 5456 0abe 02       		.byte	0x2
 5457 0abf 23       		.byte	0x23
 5458 0ac0 00       		.uleb128 0
 5459 0ac1 10       		.uleb128 0x10
 5460 0ac2 8A000000 		.4byte	.LASF141
 5461 0ac6 0A       		.byte	0xa
 5462 0ac7 62       		.byte	0x62
 5463 0ac8 C1000000 		.4byte	0xc1
 5464 0acc 02       		.byte	0x2
 5465 0acd 23       		.byte	0x23
 5466 0ace 01       		.uleb128 0x1
 5467 0acf 10       		.uleb128 0x10
 5468 0ad0 76020000 		.4byte	.LASF142
ARM GAS  C:\Users\EBANO_~1\AppData\Local\Temp\ccEfOEMG.s 			page 125


 5469 0ad4 0A       		.byte	0xa
 5470 0ad5 63       		.byte	0x63
 5471 0ad6 C1000000 		.4byte	0xc1
 5472 0ada 02       		.byte	0x2
 5473 0adb 23       		.byte	0x23
 5474 0adc 02       		.uleb128 0x2
 5475 0add 10       		.uleb128 0x10
 5476 0ade D41C0000 		.4byte	.LASF143
 5477 0ae2 0A       		.byte	0xa
 5478 0ae3 64       		.byte	0x64
 5479 0ae4 C1000000 		.4byte	0xc1
 5480 0ae8 02       		.byte	0x2
 5481 0ae9 23       		.byte	0x23
 5482 0aea 03       		.uleb128 0x3
 5483 0aeb 00       		.byte	0
 5484 0aec 1F       		.uleb128 0x1f
 5485 0aed 0D0B0000 		.4byte	.LASF205
 5486 0af1 04       		.byte	0x4
 5487 0af2 0A       		.byte	0xa
 5488 0af3 5D       		.byte	0x5d
 5489 0af4 0F0B0000 		.4byte	0xb0f
 5490 0af8 0E       		.uleb128 0xe
 5491 0af9 64110000 		.4byte	.LASF144
 5492 0afd 0A       		.byte	0xa
 5493 0afe 65       		.byte	0x65
 5494 0aff A70A0000 		.4byte	0xaa7
 5495 0b03 0E       		.uleb128 0xe
 5496 0b04 A0200000 		.4byte	.LASF145
 5497 0b08 0A       		.byte	0xa
 5498 0b09 66       		.byte	0x66
 5499 0b0a F2000000 		.4byte	0xf2
 5500 0b0e 00       		.byte	0
 5501 0b0f 03       		.uleb128 0x3
 5502 0b10 030B0000 		.4byte	.LASF146
 5503 0b14 0A       		.byte	0xa
 5504 0b15 67       		.byte	0x67
 5505 0b16 EC0A0000 		.4byte	0xaec
 5506 0b1a 02       		.uleb128 0x2
 5507 0b1b 01       		.byte	0x1
 5508 0b1c 02       		.byte	0x2
 5509 0b1d DE000000 		.4byte	.LASF147
 5510 0b21 19       		.uleb128 0x19
 5511 0b22 880B0000 		.4byte	.LASF148
 5512 0b26 10       		.byte	0x10
 5513 0b27 0B       		.byte	0xb
 5514 0b28 D301     		.2byte	0x1d3
 5515 0b2a 7A0B0000 		.4byte	0xb7a
 5516 0b2e 18       		.uleb128 0x18
 5517 0b2f 46020000 		.4byte	.LASF149
 5518 0b33 0B       		.byte	0xb
 5519 0b34 D801     		.2byte	0x1d8
 5520 0b36 DC000000 		.4byte	0xdc
 5521 0b3a 02       		.byte	0x2
 5522 0b3b 23       		.byte	0x23
 5523 0b3c 00       		.uleb128 0
 5524 0b3d 18       		.uleb128 0x18
 5525 0b3e E4020000 		.4byte	.LASF150
ARM GAS  C:\Users\EBANO_~1\AppData\Local\Temp\ccEfOEMG.s 			page 126


 5526 0b42 0B       		.byte	0xb
 5527 0b43 DC01     		.2byte	0x1dc
 5528 0b45 B1000000 		.4byte	0xb1
 5529 0b49 02       		.byte	0x2
 5530 0b4a 23       		.byte	0x23
 5531 0b4b 02       		.uleb128 0x2
 5532 0b4c 18       		.uleb128 0x18
 5533 0b4d 4E1C0000 		.4byte	.LASF151
 5534 0b51 0B       		.byte	0xb
 5535 0b52 E001     		.2byte	0x1e0
 5536 0b54 9C0A0000 		.4byte	0xa9c
 5537 0b58 02       		.byte	0x2
 5538 0b59 23       		.byte	0x23
 5539 0b5a 04       		.uleb128 0x4
 5540 0b5b 18       		.uleb128 0x18
 5541 0b5c B5040000 		.4byte	.LASF152
 5542 0b60 0B       		.byte	0xb
 5543 0b61 E401     		.2byte	0x1e4
 5544 0b63 9C0A0000 		.4byte	0xa9c
 5545 0b67 02       		.byte	0x2
 5546 0b68 23       		.byte	0x23
 5547 0b69 08       		.uleb128 0x8
 5548 0b6a 18       		.uleb128 0x18
 5549 0b6b CC060000 		.4byte	.LASF153
 5550 0b6f 0B       		.byte	0xb
 5551 0b70 E801     		.2byte	0x1e8
 5552 0b72 9C0A0000 		.4byte	0xa9c
 5553 0b76 02       		.byte	0x2
 5554 0b77 23       		.byte	0x23
 5555 0b78 0C       		.uleb128 0xc
 5556 0b79 00       		.byte	0
 5557 0b7a 0C       		.uleb128 0xc
 5558 0b7b 95020000 		.4byte	.LASF154
 5559 0b7f 0B       		.byte	0xb
 5560 0b80 E901     		.2byte	0x1e9
 5561 0b82 210B0000 		.4byte	0xb21
 5562 0b86 06       		.uleb128 0x6
 5563 0b87 B51B0000 		.4byte	.LASF155
 5564 0b8b 0C       		.byte	0xc
 5565 0b8c 9A       		.byte	0x9a
 5566 0b8d 7C000000 		.4byte	0x7c
 5567 0b91 01       		.byte	0x1
 5568 0b92 01       		.byte	0x1
 5569 0b93 06       		.uleb128 0x6
 5570 0b94 F4030000 		.4byte	.LASF156
 5571 0b98 0C       		.byte	0xc
 5572 0b99 9B       		.byte	0x9b
 5573 0b9a A3000000 		.4byte	0xa3
 5574 0b9e 01       		.byte	0x1
 5575 0b9f 01       		.byte	0x1
 5576 0ba0 07       		.uleb128 0x7
 5577 0ba1 06070000 		.4byte	0x706
 5578 0ba5 B00B0000 		.4byte	0xbb0
 5579 0ba9 08       		.uleb128 0x8
 5580 0baa AA000000 		.4byte	0xaa
 5581 0bae 01       		.byte	0x1
 5582 0baf 00       		.byte	0
ARM GAS  C:\Users\EBANO_~1\AppData\Local\Temp\ccEfOEMG.s 			page 127


 5583 0bb0 06       		.uleb128 0x6
 5584 0bb1 040F0000 		.4byte	.LASF157
 5585 0bb5 0C       		.byte	0xc
 5586 0bb6 9E       		.byte	0x9e
 5587 0bb7 A00B0000 		.4byte	0xba0
 5588 0bbb 01       		.byte	0x1
 5589 0bbc 01       		.byte	0x1
 5590 0bbd 20       		.uleb128 0x20
 5591 0bbe 07       		.byte	0x7
 5592 0bbf 01       		.byte	0x1
 5593 0bc0 46000000 		.4byte	0x46
 5594 0bc4 0D       		.byte	0xd
 5595 0bc5 21       		.byte	0x21
 5596 0bc6 D70B0000 		.4byte	0xbd7
 5597 0bca 21       		.uleb128 0x21
 5598 0bcb A50C0000 		.4byte	.LASF158
 5599 0bcf 00       		.byte	0
 5600 0bd0 21       		.uleb128 0x21
 5601 0bd1 D21B0000 		.4byte	.LASF159
 5602 0bd5 01       		.byte	0x1
 5603 0bd6 00       		.byte	0
 5604 0bd7 03       		.uleb128 0x3
 5605 0bd8 5F0D0000 		.4byte	.LASF160
 5606 0bdc 0D       		.byte	0xd
 5607 0bdd 24       		.byte	0x24
 5608 0bde BD0B0000 		.4byte	0xbbd
 5609 0be2 20       		.uleb128 0x20
 5610 0be3 07       		.byte	0x7
 5611 0be4 01       		.byte	0x1
 5612 0be5 46000000 		.4byte	0x46
 5613 0be9 0D       		.byte	0xd
 5614 0bea 2A       		.byte	0x2a
 5615 0beb 080C0000 		.4byte	0xc08
 5616 0bef 21       		.uleb128 0x21
 5617 0bf0 C5020000 		.4byte	.LASF161
 5618 0bf4 00       		.byte	0
 5619 0bf5 21       		.uleb128 0x21
 5620 0bf6 CF0C0000 		.4byte	.LASF162
 5621 0bfa 01       		.byte	0x1
 5622 0bfb 21       		.uleb128 0x21
 5623 0bfc A61A0000 		.4byte	.LASF163
 5624 0c00 02       		.byte	0x2
 5625 0c01 21       		.uleb128 0x21
 5626 0c02 4E160000 		.4byte	.LASF164
 5627 0c06 03       		.byte	0x3
 5628 0c07 00       		.byte	0
 5629 0c08 03       		.uleb128 0x3
 5630 0c09 B9100000 		.4byte	.LASF165
 5631 0c0d 0D       		.byte	0xd
 5632 0c0e 2F       		.byte	0x2f
 5633 0c0f E20B0000 		.4byte	0xbe2
 5634 0c13 0F       		.uleb128 0xf
 5635 0c14 1C       		.byte	0x1c
 5636 0c15 0D       		.byte	0xd
 5637 0c16 34       		.byte	0x34
 5638 0c17 7E0C0000 		.4byte	0xc7e
 5639 0c1b 10       		.uleb128 0x10
ARM GAS  C:\Users\EBANO_~1\AppData\Local\Temp\ccEfOEMG.s 			page 128


 5640 0c1c 7A080000 		.4byte	.LASF166
 5641 0c20 0D       		.byte	0xd
 5642 0c21 39       		.byte	0x39
 5643 0c22 ED030000 		.4byte	0x3ed
 5644 0c26 02       		.byte	0x2
 5645 0c27 23       		.byte	0x23
 5646 0c28 00       		.uleb128 0
 5647 0c29 10       		.uleb128 0x10
 5648 0c2a 3C020000 		.4byte	.LASF167
 5649 0c2e 0D       		.byte	0xd
 5650 0c2f 3D       		.byte	0x3d
 5651 0c30 ED030000 		.4byte	0x3ed
 5652 0c34 02       		.byte	0x2
 5653 0c35 23       		.byte	0x23
 5654 0c36 04       		.uleb128 0x4
 5655 0c37 10       		.uleb128 0x10
 5656 0c38 700A0000 		.4byte	.LASF168
 5657 0c3c 0D       		.byte	0xd
 5658 0c3d 48       		.byte	0x48
 5659 0c3e 990C0000 		.4byte	0xc99
 5660 0c42 02       		.byte	0x2
 5661 0c43 23       		.byte	0x23
 5662 0c44 08       		.uleb128 0x8
 5663 0c45 10       		.uleb128 0x10
 5664 0c46 23020000 		.4byte	.LASF169
 5665 0c4a 0D       		.byte	0xd
 5666 0c4b 4C       		.byte	0x4c
 5667 0c4c ED030000 		.4byte	0x3ed
 5668 0c50 02       		.byte	0x2
 5669 0c51 23       		.byte	0x23
 5670 0c52 0C       		.uleb128 0xc
 5671 0c53 10       		.uleb128 0x10
 5672 0c54 3B010000 		.4byte	.LASF170
 5673 0c58 0D       		.byte	0xd
 5674 0c59 50       		.byte	0x50
 5675 0c5a ED030000 		.4byte	0x3ed
 5676 0c5e 02       		.byte	0x2
 5677 0c5f 23       		.byte	0x23
 5678 0c60 10       		.uleb128 0x10
 5679 0c61 10       		.uleb128 0x10
 5680 0c62 7C0E0000 		.4byte	.LASF171
 5681 0c66 0D       		.byte	0xd
 5682 0c67 56       		.byte	0x56
 5683 0c68 AB0C0000 		.4byte	0xcab
 5684 0c6c 02       		.byte	0x2
 5685 0c6d 23       		.byte	0x23
 5686 0c6e 14       		.uleb128 0x14
 5687 0c6f 10       		.uleb128 0x10
 5688 0c70 BA1E0000 		.4byte	.LASF172
 5689 0c74 0D       		.byte	0xd
 5690 0c75 5D       		.byte	0x5d
 5691 0c76 BD0C0000 		.4byte	0xcbd
 5692 0c7a 02       		.byte	0x2
 5693 0c7b 23       		.byte	0x23
 5694 0c7c 18       		.uleb128 0x18
 5695 0c7d 00       		.byte	0
 5696 0c7e 1D       		.uleb128 0x1d
ARM GAS  C:\Users\EBANO_~1\AppData\Local\Temp\ccEfOEMG.s 			page 129


 5697 0c7f 01       		.byte	0x1
 5698 0c80 990C0000 		.4byte	0xc99
 5699 0c84 16       		.uleb128 0x16
 5700 0c85 890A0000 		.4byte	0xa89
 5701 0c89 16       		.uleb128 0x16
 5702 0c8a DC000000 		.4byte	0xdc
 5703 0c8e 16       		.uleb128 0x16
 5704 0c8f D1000000 		.4byte	0xd1
 5705 0c93 16       		.uleb128 0x16
 5706 0c94 B1000000 		.4byte	0xb1
 5707 0c98 00       		.byte	0
 5708 0c99 0A       		.uleb128 0xa
 5709 0c9a 04       		.byte	0x4
 5710 0c9b 7E0C0000 		.4byte	0xc7e
 5711 0c9f 1D       		.uleb128 0x1d
 5712 0ca0 01       		.byte	0x1
 5713 0ca1 AB0C0000 		.4byte	0xcab
 5714 0ca5 16       		.uleb128 0x16
 5715 0ca6 C1000000 		.4byte	0xc1
 5716 0caa 00       		.byte	0
 5717 0cab 0A       		.uleb128 0xa
 5718 0cac 04       		.byte	0x4
 5719 0cad 9F0C0000 		.4byte	0xc9f
 5720 0cb1 1D       		.uleb128 0x1d
 5721 0cb2 01       		.byte	0x1
 5722 0cb3 BD0C0000 		.4byte	0xcbd
 5723 0cb7 16       		.uleb128 0x16
 5724 0cb8 1A0B0000 		.4byte	0xb1a
 5725 0cbc 00       		.byte	0
 5726 0cbd 0A       		.uleb128 0xa
 5727 0cbe 04       		.byte	0x4
 5728 0cbf B10C0000 		.4byte	0xcb1
 5729 0cc3 03       		.uleb128 0x3
 5730 0cc4 F61D0000 		.4byte	.LASF173
 5731 0cc8 0D       		.byte	0xd
 5732 0cc9 5E       		.byte	0x5e
 5733 0cca 130C0000 		.4byte	0xc13
 5734 0cce 11       		.uleb128 0x11
 5735 0ccf 63030000 		.4byte	.LASF174
 5736 0cd3 74       		.byte	0x74
 5737 0cd4 0D       		.byte	0xd
 5738 0cd5 63       		.byte	0x63
 5739 0cd6 820E0000 		.4byte	0xe82
 5740 0cda 10       		.uleb128 0x10
 5741 0cdb 76120000 		.4byte	.LASF175
 5742 0cdf 0D       		.byte	0xd
 5743 0ce0 68       		.byte	0x68
 5744 0ce1 ED030000 		.4byte	0x3ed
 5745 0ce5 02       		.byte	0x2
 5746 0ce6 23       		.byte	0x23
 5747 0ce7 00       		.uleb128 0
 5748 0ce8 10       		.uleb128 0x10
 5749 0ce9 0A080000 		.4byte	.LASF176
 5750 0ced 0D       		.byte	0xd
 5751 0cee 6C       		.byte	0x6c
 5752 0cef ED030000 		.4byte	0x3ed
 5753 0cf3 02       		.byte	0x2
ARM GAS  C:\Users\EBANO_~1\AppData\Local\Temp\ccEfOEMG.s 			page 130


 5754 0cf4 23       		.byte	0x23
 5755 0cf5 04       		.uleb128 0x4
 5756 0cf6 10       		.uleb128 0x10
 5757 0cf7 611C0000 		.4byte	.LASF177
 5758 0cfb 0D       		.byte	0xd
 5759 0cfc 73       		.byte	0x73
 5760 0cfd 9D0E0000 		.4byte	0xe9d
 5761 0d01 02       		.byte	0x2
 5762 0d02 23       		.byte	0x23
 5763 0d03 08       		.uleb128 0x8
 5764 0d04 10       		.uleb128 0x10
 5765 0d05 E50F0000 		.4byte	.LASF178
 5766 0d09 0D       		.byte	0xd
 5767 0d0a 79       		.byte	0x79
 5768 0d0b A90E0000 		.4byte	0xea9
 5769 0d0f 02       		.byte	0x2
 5770 0d10 23       		.byte	0x23
 5771 0d11 0C       		.uleb128 0xc
 5772 0d12 10       		.uleb128 0x10
 5773 0d13 13080000 		.4byte	.LASF179
 5774 0d17 0D       		.byte	0xd
 5775 0d18 7F       		.byte	0x7f
 5776 0d19 BB0E0000 		.4byte	0xebb
 5777 0d1d 02       		.byte	0x2
 5778 0d1e 23       		.byte	0x23
 5779 0d1f 10       		.uleb128 0x10
 5780 0d20 10       		.uleb128 0x10
 5781 0d21 4F170000 		.4byte	.LASF180
 5782 0d25 0D       		.byte	0xd
 5783 0d26 85       		.byte	0x85
 5784 0d27 CD0E0000 		.4byte	0xecd
 5785 0d2b 02       		.byte	0x2
 5786 0d2c 23       		.byte	0x23
 5787 0d2d 14       		.uleb128 0x14
 5788 0d2e 10       		.uleb128 0x10
 5789 0d2f 0E160000 		.4byte	.LASF181
 5790 0d33 0D       		.byte	0xd
 5791 0d34 90       		.byte	0x90
 5792 0d35 F20E0000 		.4byte	0xef2
 5793 0d39 02       		.byte	0x2
 5794 0d3a 23       		.byte	0x23
 5795 0d3b 18       		.uleb128 0x18
 5796 0d3c 10       		.uleb128 0x10
 5797 0d3d A00A0000 		.4byte	.LASF182
 5798 0d41 0D       		.byte	0xd
 5799 0d42 9B       		.byte	0x9b
 5800 0d43 FE0E0000 		.4byte	0xefe
 5801 0d47 02       		.byte	0x2
 5802 0d48 23       		.byte	0x23
 5803 0d49 1C       		.uleb128 0x1c
 5804 0d4a 10       		.uleb128 0x10
 5805 0d4b 51210000 		.4byte	.LASF183
 5806 0d4f 0D       		.byte	0xd
 5807 0d50 C3       		.byte	0xc3
 5808 0d51 510F0000 		.4byte	0xf51
 5809 0d55 02       		.byte	0x2
 5810 0d56 23       		.byte	0x23
ARM GAS  C:\Users\EBANO_~1\AppData\Local\Temp\ccEfOEMG.s 			page 131


 5811 0d57 20       		.uleb128 0x20
 5812 0d58 10       		.uleb128 0x10
 5813 0d59 06100000 		.4byte	.LASF184
 5814 0d5d 0D       		.byte	0xd
 5815 0d5e ED       		.byte	0xed
 5816 0d5f 9F0F0000 		.4byte	0xf9f
 5817 0d63 02       		.byte	0x2
 5818 0d64 23       		.byte	0x23
 5819 0d65 24       		.uleb128 0x24
 5820 0d66 10       		.uleb128 0x10
 5821 0d67 90110000 		.4byte	.LASF185
 5822 0d6b 0D       		.byte	0xd
 5823 0d6c F8       		.byte	0xf8
 5824 0d6d B50F0000 		.4byte	0xfb5
 5825 0d71 02       		.byte	0x2
 5826 0d72 23       		.byte	0x23
 5827 0d73 28       		.uleb128 0x28
 5828 0d74 18       		.uleb128 0x18
 5829 0d75 C1120000 		.4byte	.LASF186
 5830 0d79 0D       		.byte	0xd
 5831 0d7a 0301     		.2byte	0x103
 5832 0d7c D00F0000 		.4byte	0xfd0
 5833 0d80 02       		.byte	0x2
 5834 0d81 23       		.byte	0x23
 5835 0d82 2C       		.uleb128 0x2c
 5836 0d83 18       		.uleb128 0x18
 5837 0d84 8F1D0000 		.4byte	.LASF187
 5838 0d88 0D       		.byte	0xd
 5839 0d89 0B01     		.2byte	0x10b
 5840 0d8b E70F0000 		.4byte	0xfe7
 5841 0d8f 02       		.byte	0x2
 5842 0d90 23       		.byte	0x23
 5843 0d91 30       		.uleb128 0x30
 5844 0d92 18       		.uleb128 0x18
 5845 0d93 F90C0000 		.4byte	.LASF188
 5846 0d97 0D       		.byte	0xd
 5847 0d98 0F01     		.2byte	0x10f
 5848 0d9a ED030000 		.4byte	0x3ed
 5849 0d9e 02       		.byte	0x2
 5850 0d9f 23       		.byte	0x23
 5851 0da0 34       		.uleb128 0x34
 5852 0da1 18       		.uleb128 0x18
 5853 0da2 63040000 		.4byte	.LASF189
 5854 0da6 0D       		.byte	0xd
 5855 0da7 1301     		.2byte	0x113
 5856 0da9 ED030000 		.4byte	0x3ed
 5857 0dad 02       		.byte	0x2
 5858 0dae 23       		.byte	0x23
 5859 0daf 38       		.uleb128 0x38
 5860 0db0 22       		.uleb128 0x22
 5861 0db1 527800   		.ascii	"Rx\000"
 5862 0db4 0D       		.byte	0xd
 5863 0db5 1901     		.2byte	0x119
 5864 0db7 CD0E0000 		.4byte	0xecd
 5865 0dbb 02       		.byte	0x2
 5866 0dbc 23       		.byte	0x23
 5867 0dbd 3C       		.uleb128 0x3c
ARM GAS  C:\Users\EBANO_~1\AppData\Local\Temp\ccEfOEMG.s 			page 132


 5868 0dbe 18       		.uleb128 0x18
 5869 0dbf A6090000 		.4byte	.LASF190
 5870 0dc3 0D       		.byte	0xd
 5871 0dc4 1D01     		.2byte	0x11d
 5872 0dc6 ED030000 		.4byte	0x3ed
 5873 0dca 02       		.byte	0x2
 5874 0dcb 23       		.byte	0x23
 5875 0dcc 40       		.uleb128 0x40
 5876 0dcd 18       		.uleb128 0x18
 5877 0dce 03150000 		.4byte	.LASF191
 5878 0dd2 0D       		.byte	0xd
 5879 0dd3 2501     		.2byte	0x125
 5880 0dd5 03100000 		.4byte	0x1003
 5881 0dd9 02       		.byte	0x2
 5882 0dda 23       		.byte	0x23
 5883 0ddb 44       		.uleb128 0x44
 5884 0ddc 18       		.uleb128 0x18
 5885 0ddd CD1B0000 		.4byte	.LASF192
 5886 0de1 0D       		.byte	0xd
 5887 0de2 2B01     		.2byte	0x12b
 5888 0de4 19100000 		.4byte	0x1019
 5889 0de8 02       		.byte	0x2
 5890 0de9 23       		.byte	0x23
 5891 0dea 48       		.uleb128 0x48
 5892 0deb 18       		.uleb128 0x18
 5893 0dec 82040000 		.4byte	.LASF193
 5894 0df0 0D       		.byte	0xd
 5895 0df1 3201     		.2byte	0x132
 5896 0df3 30100000 		.4byte	0x1030
 5897 0df7 02       		.byte	0x2
 5898 0df8 23       		.byte	0x23
 5899 0df9 4C       		.uleb128 0x4c
 5900 0dfa 18       		.uleb128 0x18
 5901 0dfb C4040000 		.4byte	.LASF194
 5902 0dff 0D       		.byte	0xd
 5903 0e00 3901     		.2byte	0x139
 5904 0e02 46100000 		.4byte	0x1046
 5905 0e06 02       		.byte	0x2
 5906 0e07 23       		.byte	0x23
 5907 0e08 50       		.uleb128 0x50
 5908 0e09 18       		.uleb128 0x18
 5909 0e0a 2F010000 		.4byte	.LASF195
 5910 0e0e 0D       		.byte	0xd
 5911 0e0f 4101     		.2byte	0x141
 5912 0e11 62100000 		.4byte	0x1062
 5913 0e15 02       		.byte	0x2
 5914 0e16 23       		.byte	0x23
 5915 0e17 54       		.uleb128 0x54
 5916 0e18 18       		.uleb128 0x18
 5917 0e19 4C010000 		.4byte	.LASF196
 5918 0e1d 0D       		.byte	0xd
 5919 0e1e 4901     		.2byte	0x149
 5920 0e20 62100000 		.4byte	0x1062
 5921 0e24 02       		.byte	0x2
 5922 0e25 23       		.byte	0x23
 5923 0e26 58       		.uleb128 0x58
 5924 0e27 18       		.uleb128 0x18
ARM GAS  C:\Users\EBANO_~1\AppData\Local\Temp\ccEfOEMG.s 			page 133


 5925 0e28 D3030000 		.4byte	.LASF197
 5926 0e2c 0D       		.byte	0xd
 5927 0e2d 5001     		.2byte	0x150
 5928 0e2f 79100000 		.4byte	0x1079
 5929 0e33 02       		.byte	0x2
 5930 0e34 23       		.byte	0x23
 5931 0e35 5C       		.uleb128 0x5c
 5932 0e36 18       		.uleb128 0x18
 5933 0e37 23160000 		.4byte	.LASF198
 5934 0e3b 0D       		.byte	0xd
 5935 0e3c 5801     		.2byte	0x158
 5936 0e3e BD0C0000 		.4byte	0xcbd
 5937 0e42 02       		.byte	0x2
 5938 0e43 23       		.byte	0x23
 5939 0e44 60       		.uleb128 0x60
 5940 0e45 18       		.uleb128 0x18
 5941 0e46 6F1F0000 		.4byte	.LASF199
 5942 0e4a 0D       		.byte	0xd
 5943 0e4b 5E01     		.2byte	0x15e
 5944 0e4d FE0E0000 		.4byte	0xefe
 5945 0e51 02       		.byte	0x2
 5946 0e52 23       		.byte	0x23
 5947 0e53 64       		.uleb128 0x64
 5948 0e54 18       		.uleb128 0x18
 5949 0e55 8F160000 		.4byte	.LASF200
 5950 0e59 0D       		.byte	0xd
 5951 0e5a 6201     		.2byte	0x162
 5952 0e5c ED030000 		.4byte	0x3ed
 5953 0e60 02       		.byte	0x2
 5954 0e61 23       		.byte	0x23
 5955 0e62 68       		.uleb128 0x68
 5956 0e63 18       		.uleb128 0x18
 5957 0e64 6F050000 		.4byte	.LASF201
 5958 0e68 0D       		.byte	0xd
 5959 0e69 6E01     		.2byte	0x16e
 5960 0e6b CD0E0000 		.4byte	0xecd
 5961 0e6f 02       		.byte	0x2
 5962 0e70 23       		.byte	0x23
 5963 0e71 6C       		.uleb128 0x6c
 5964 0e72 18       		.uleb128 0x18
 5965 0e73 670C0000 		.4byte	.LASF202
 5966 0e77 0D       		.byte	0xd
 5967 0e78 7701     		.2byte	0x177
 5968 0e7a 90100000 		.4byte	0x1090
 5969 0e7e 02       		.byte	0x2
 5970 0e7f 23       		.byte	0x23
 5971 0e80 70       		.uleb128 0x70
 5972 0e81 00       		.byte	0
 5973 0e82 05       		.uleb128 0x5
 5974 0e83 CE0C0000 		.4byte	0xcce
 5975 0e87 15       		.uleb128 0x15
 5976 0e88 01       		.byte	0x1
 5977 0e89 F2000000 		.4byte	0xf2
 5978 0e8d 970E0000 		.4byte	0xe97
 5979 0e91 16       		.uleb128 0x16
 5980 0e92 970E0000 		.4byte	0xe97
 5981 0e96 00       		.byte	0
ARM GAS  C:\Users\EBANO_~1\AppData\Local\Temp\ccEfOEMG.s 			page 134


 5982 0e97 0A       		.uleb128 0xa
 5983 0e98 04       		.byte	0x4
 5984 0e99 C30C0000 		.4byte	0xcc3
 5985 0e9d 0A       		.uleb128 0xa
 5986 0e9e 04       		.byte	0x4
 5987 0e9f 870E0000 		.4byte	0xe87
 5988 0ea3 23       		.uleb128 0x23
 5989 0ea4 01       		.byte	0x1
 5990 0ea5 080C0000 		.4byte	0xc08
 5991 0ea9 0A       		.uleb128 0xa
 5992 0eaa 04       		.byte	0x4
 5993 0eab A30E0000 		.4byte	0xea3
 5994 0eaf 1D       		.uleb128 0x1d
 5995 0eb0 01       		.byte	0x1
 5996 0eb1 BB0E0000 		.4byte	0xebb
 5997 0eb5 16       		.uleb128 0x16
 5998 0eb6 D70B0000 		.4byte	0xbd7
 5999 0eba 00       		.byte	0
 6000 0ebb 0A       		.uleb128 0xa
 6001 0ebc 04       		.byte	0x4
 6002 0ebd AF0E0000 		.4byte	0xeaf
 6003 0ec1 1D       		.uleb128 0x1d
 6004 0ec2 01       		.byte	0x1
 6005 0ec3 CD0E0000 		.4byte	0xecd
 6006 0ec7 16       		.uleb128 0x16
 6007 0ec8 F2000000 		.4byte	0xf2
 6008 0ecc 00       		.byte	0
 6009 0ecd 0A       		.uleb128 0xa
 6010 0ece 04       		.byte	0x4
 6011 0ecf C10E0000 		.4byte	0xec1
 6012 0ed3 15       		.uleb128 0x15
 6013 0ed4 01       		.byte	0x1
 6014 0ed5 1A0B0000 		.4byte	0xb1a
 6015 0ed9 F20E0000 		.4byte	0xef2
 6016 0edd 16       		.uleb128 0x16
 6017 0ede D70B0000 		.4byte	0xbd7
 6018 0ee2 16       		.uleb128 0x16
 6019 0ee3 F2000000 		.4byte	0xf2
 6020 0ee7 16       		.uleb128 0x16
 6021 0ee8 D1000000 		.4byte	0xd1
 6022 0eec 16       		.uleb128 0x16
 6023 0eed F2000000 		.4byte	0xf2
 6024 0ef1 00       		.byte	0
 6025 0ef2 0A       		.uleb128 0xa
 6026 0ef3 04       		.byte	0x4
 6027 0ef4 D30E0000 		.4byte	0xed3
 6028 0ef8 23       		.uleb128 0x23
 6029 0ef9 01       		.byte	0x1
 6030 0efa F2000000 		.4byte	0xf2
 6031 0efe 0A       		.uleb128 0xa
 6032 0eff 04       		.byte	0x4
 6033 0f00 F80E0000 		.4byte	0xef8
 6034 0f04 1D       		.uleb128 0x1d
 6035 0f05 01       		.byte	0x1
 6036 0f06 510F0000 		.4byte	0xf51
 6037 0f0a 16       		.uleb128 0x16
 6038 0f0b D70B0000 		.4byte	0xbd7
ARM GAS  C:\Users\EBANO_~1\AppData\Local\Temp\ccEfOEMG.s 			page 135


 6039 0f0f 16       		.uleb128 0x16
 6040 0f10 F2000000 		.4byte	0xf2
 6041 0f14 16       		.uleb128 0x16
 6042 0f15 F2000000 		.4byte	0xf2
 6043 0f19 16       		.uleb128 0x16
 6044 0f1a C1000000 		.4byte	0xc1
 6045 0f1e 16       		.uleb128 0x16
 6046 0f1f F2000000 		.4byte	0xf2
 6047 0f23 16       		.uleb128 0x16
 6048 0f24 DC000000 		.4byte	0xdc
 6049 0f28 16       		.uleb128 0x16
 6050 0f29 DC000000 		.4byte	0xdc
 6051 0f2d 16       		.uleb128 0x16
 6052 0f2e 1A0B0000 		.4byte	0xb1a
 6053 0f32 16       		.uleb128 0x16
 6054 0f33 C1000000 		.4byte	0xc1
 6055 0f37 16       		.uleb128 0x16
 6056 0f38 1A0B0000 		.4byte	0xb1a
 6057 0f3c 16       		.uleb128 0x16
 6058 0f3d 1A0B0000 		.4byte	0xb1a
 6059 0f41 16       		.uleb128 0x16
 6060 0f42 C1000000 		.4byte	0xc1
 6061 0f46 16       		.uleb128 0x16
 6062 0f47 1A0B0000 		.4byte	0xb1a
 6063 0f4b 16       		.uleb128 0x16
 6064 0f4c 1A0B0000 		.4byte	0xb1a
 6065 0f50 00       		.byte	0
 6066 0f51 0A       		.uleb128 0xa
 6067 0f52 04       		.byte	0x4
 6068 0f53 040F0000 		.4byte	0xf04
 6069 0f57 1D       		.uleb128 0x1d
 6070 0f58 01       		.byte	0x1
 6071 0f59 9F0F0000 		.4byte	0xf9f
 6072 0f5d 16       		.uleb128 0x16
 6073 0f5e D70B0000 		.4byte	0xbd7
 6074 0f62 16       		.uleb128 0x16
 6075 0f63 B1000000 		.4byte	0xb1
 6076 0f67 16       		.uleb128 0x16
 6077 0f68 F2000000 		.4byte	0xf2
 6078 0f6c 16       		.uleb128 0x16
 6079 0f6d F2000000 		.4byte	0xf2
 6080 0f71 16       		.uleb128 0x16
 6081 0f72 F2000000 		.4byte	0xf2
 6082 0f76 16       		.uleb128 0x16
 6083 0f77 C1000000 		.4byte	0xc1
 6084 0f7b 16       		.uleb128 0x16
 6085 0f7c DC000000 		.4byte	0xdc
 6086 0f80 16       		.uleb128 0x16
 6087 0f81 1A0B0000 		.4byte	0xb1a
 6088 0f85 16       		.uleb128 0x16
 6089 0f86 1A0B0000 		.4byte	0xb1a
 6090 0f8a 16       		.uleb128 0x16
 6091 0f8b 1A0B0000 		.4byte	0xb1a
 6092 0f8f 16       		.uleb128 0x16
 6093 0f90 C1000000 		.4byte	0xc1
 6094 0f94 16       		.uleb128 0x16
 6095 0f95 1A0B0000 		.4byte	0xb1a
ARM GAS  C:\Users\EBANO_~1\AppData\Local\Temp\ccEfOEMG.s 			page 136


 6096 0f99 16       		.uleb128 0x16
 6097 0f9a F2000000 		.4byte	0xf2
 6098 0f9e 00       		.byte	0
 6099 0f9f 0A       		.uleb128 0xa
 6100 0fa0 04       		.byte	0x4
 6101 0fa1 570F0000 		.4byte	0xf57
 6102 0fa5 15       		.uleb128 0x15
 6103 0fa6 01       		.byte	0x1
 6104 0fa7 1A0B0000 		.4byte	0xb1a
 6105 0fab B50F0000 		.4byte	0xfb5
 6106 0faf 16       		.uleb128 0x16
 6107 0fb0 F2000000 		.4byte	0xf2
 6108 0fb4 00       		.byte	0
 6109 0fb5 0A       		.uleb128 0xa
 6110 0fb6 04       		.byte	0x4
 6111 0fb7 A50F0000 		.4byte	0xfa5
 6112 0fbb 15       		.uleb128 0x15
 6113 0fbc 01       		.byte	0x1
 6114 0fbd F2000000 		.4byte	0xf2
 6115 0fc1 D00F0000 		.4byte	0xfd0
 6116 0fc5 16       		.uleb128 0x16
 6117 0fc6 D70B0000 		.4byte	0xbd7
 6118 0fca 16       		.uleb128 0x16
 6119 0fcb C1000000 		.4byte	0xc1
 6120 0fcf 00       		.byte	0
 6121 0fd0 0A       		.uleb128 0xa
 6122 0fd1 04       		.byte	0x4
 6123 0fd2 BB0F0000 		.4byte	0xfbb
 6124 0fd6 1D       		.uleb128 0x1d
 6125 0fd7 01       		.byte	0x1
 6126 0fd8 E70F0000 		.4byte	0xfe7
 6127 0fdc 16       		.uleb128 0x16
 6128 0fdd 890A0000 		.4byte	0xa89
 6129 0fe1 16       		.uleb128 0x16
 6130 0fe2 C1000000 		.4byte	0xc1
 6131 0fe6 00       		.byte	0
 6132 0fe7 0A       		.uleb128 0xa
 6133 0fe8 04       		.byte	0x4
 6134 0fe9 D60F0000 		.4byte	0xfd6
 6135 0fed 1D       		.uleb128 0x1d
 6136 0fee 01       		.byte	0x1
 6137 0fef 03100000 		.4byte	0x1003
 6138 0ff3 16       		.uleb128 0x16
 6139 0ff4 F2000000 		.4byte	0xf2
 6140 0ff8 16       		.uleb128 0x16
 6141 0ff9 B1000000 		.4byte	0xb1
 6142 0ffd 16       		.uleb128 0x16
 6143 0ffe DC000000 		.4byte	0xdc
 6144 1002 00       		.byte	0
 6145 1003 0A       		.uleb128 0xa
 6146 1004 04       		.byte	0x4
 6147 1005 ED0F0000 		.4byte	0xfed
 6148 1009 15       		.uleb128 0x15
 6149 100a 01       		.byte	0x1
 6150 100b D1000000 		.4byte	0xd1
 6151 100f 19100000 		.4byte	0x1019
 6152 1013 16       		.uleb128 0x16
ARM GAS  C:\Users\EBANO_~1\AppData\Local\Temp\ccEfOEMG.s 			page 137


 6153 1014 D70B0000 		.4byte	0xbd7
 6154 1018 00       		.byte	0
 6155 1019 0A       		.uleb128 0xa
 6156 101a 04       		.byte	0x4
 6157 101b 09100000 		.4byte	0x1009
 6158 101f 1D       		.uleb128 0x1d
 6159 1020 01       		.byte	0x1
 6160 1021 30100000 		.4byte	0x1030
 6161 1025 16       		.uleb128 0x16
 6162 1026 DC000000 		.4byte	0xdc
 6163 102a 16       		.uleb128 0x16
 6164 102b C1000000 		.4byte	0xc1
 6165 102f 00       		.byte	0
 6166 1030 0A       		.uleb128 0xa
 6167 1031 04       		.byte	0x4
 6168 1032 1F100000 		.4byte	0x101f
 6169 1036 15       		.uleb128 0x15
 6170 1037 01       		.byte	0x1
 6171 1038 C1000000 		.4byte	0xc1
 6172 103c 46100000 		.4byte	0x1046
 6173 1040 16       		.uleb128 0x16
 6174 1041 DC000000 		.4byte	0xdc
 6175 1045 00       		.byte	0
 6176 1046 0A       		.uleb128 0xa
 6177 1047 04       		.byte	0x4
 6178 1048 36100000 		.4byte	0x1036
 6179 104c 1D       		.uleb128 0x1d
 6180 104d 01       		.byte	0x1
 6181 104e 62100000 		.4byte	0x1062
 6182 1052 16       		.uleb128 0x16
 6183 1053 DC000000 		.4byte	0xdc
 6184 1057 16       		.uleb128 0x16
 6185 1058 890A0000 		.4byte	0xa89
 6186 105c 16       		.uleb128 0x16
 6187 105d C1000000 		.4byte	0xc1
 6188 1061 00       		.byte	0
 6189 1062 0A       		.uleb128 0xa
 6190 1063 04       		.byte	0x4
 6191 1064 4C100000 		.4byte	0x104c
 6192 1068 1D       		.uleb128 0x1d
 6193 1069 01       		.byte	0x1
 6194 106a 79100000 		.4byte	0x1079
 6195 106e 16       		.uleb128 0x16
 6196 106f D70B0000 		.4byte	0xbd7
 6197 1073 16       		.uleb128 0x16
 6198 1074 C1000000 		.4byte	0xc1
 6199 1078 00       		.byte	0
 6200 1079 0A       		.uleb128 0xa
 6201 107a 04       		.byte	0x4
 6202 107b 68100000 		.4byte	0x1068
 6203 107f 1D       		.uleb128 0x1d
 6204 1080 01       		.byte	0x1
 6205 1081 90100000 		.4byte	0x1090
 6206 1085 16       		.uleb128 0x16
 6207 1086 F2000000 		.4byte	0xf2
 6208 108a 16       		.uleb128 0x16
 6209 108b F2000000 		.4byte	0xf2
ARM GAS  C:\Users\EBANO_~1\AppData\Local\Temp\ccEfOEMG.s 			page 138


 6210 108f 00       		.byte	0
 6211 1090 0A       		.uleb128 0xa
 6212 1091 04       		.byte	0x4
 6213 1092 7F100000 		.4byte	0x107f
 6214 1096 1E       		.uleb128 0x1e
 6215 1097 D2080000 		.4byte	.LASF203
 6216 109b 0D       		.byte	0xd
 6217 109c 8001     		.2byte	0x180
 6218 109e 820E0000 		.4byte	0xe82
 6219 10a2 01       		.byte	0x1
 6220 10a3 01       		.byte	0x1
 6221 10a4 11       		.uleb128 0x11
 6222 10a5 411F0000 		.4byte	.LASF204
 6223 10a9 01       		.byte	0x1
 6224 10aa 0E       		.byte	0xe
 6225 10ab B4       		.byte	0xb4
 6226 10ac D3100000 		.4byte	0x10d3
 6227 10b0 24       		.uleb128 0x24
 6228 10b1 4D696E00 		.ascii	"Min\000"
 6229 10b5 0E       		.byte	0xe
 6230 10b6 BD       		.byte	0xbd
 6231 10b7 B1000000 		.4byte	0xb1
 6232 10bb 01       		.byte	0x1
 6233 10bc 04       		.byte	0x4
 6234 10bd 04       		.byte	0x4
 6235 10be 02       		.byte	0x2
 6236 10bf 23       		.byte	0x23
 6237 10c0 00       		.uleb128 0
 6238 10c1 24       		.uleb128 0x24
 6239 10c2 4D617800 		.ascii	"Max\000"
 6240 10c6 0E       		.byte	0xe
 6241 10c7 C5       		.byte	0xc5
 6242 10c8 B1000000 		.4byte	0xb1
 6243 10cc 01       		.byte	0x1
 6244 10cd 04       		.byte	0x4
 6245 10ce 00       		.byte	0
 6246 10cf 02       		.byte	0x2
 6247 10d0 23       		.byte	0x23
 6248 10d1 00       		.uleb128 0
 6249 10d2 00       		.byte	0
 6250 10d3 1F       		.uleb128 0x1f
 6251 10d4 A4080000 		.4byte	.LASF206
 6252 10d8 01       		.byte	0x1
 6253 10d9 0E       		.byte	0xe
 6254 10da AB       		.byte	0xab
 6255 10db F6100000 		.4byte	0x10f6
 6256 10df 0E       		.uleb128 0xe
 6257 10e0 A0200000 		.4byte	.LASF145
 6258 10e4 0E       		.byte	0xe
 6259 10e5 B0       		.byte	0xb0
 6260 10e6 B1000000 		.4byte	0xb1
 6261 10ea 0E       		.uleb128 0xe
 6262 10eb 64110000 		.4byte	.LASF144
 6263 10ef 0E       		.byte	0xe
 6264 10f0 C6       		.byte	0xc6
 6265 10f1 A4100000 		.4byte	0x10a4
 6266 10f5 00       		.byte	0
ARM GAS  C:\Users\EBANO_~1\AppData\Local\Temp\ccEfOEMG.s 			page 139


 6267 10f6 03       		.uleb128 0x3
 6268 10f7 11070000 		.4byte	.LASF207
 6269 10fb 0E       		.byte	0xe
 6270 10fc C7       		.byte	0xc7
 6271 10fd D3100000 		.4byte	0x10d3
 6272 1101 11       		.uleb128 0x11
 6273 1102 71190000 		.4byte	.LASF208
 6274 1106 0C       		.byte	0xc
 6275 1107 0E       		.byte	0xe
 6276 1108 CC       		.byte	0xcc
 6277 1109 46110000 		.4byte	0x1146
 6278 110d 10       		.uleb128 0x10
 6279 110e DA1C0000 		.4byte	.LASF209
 6280 1112 0E       		.byte	0xe
 6281 1113 D1       		.byte	0xd1
 6282 1114 F2000000 		.4byte	0xf2
 6283 1118 02       		.byte	0x2
 6284 1119 23       		.byte	0x23
 6285 111a 00       		.uleb128 0
 6286 111b 10       		.uleb128 0x10
 6287 111c C6110000 		.4byte	.LASF210
 6288 1120 0E       		.byte	0xe
 6289 1121 D5       		.byte	0xd5
 6290 1122 F2000000 		.4byte	0xf2
 6291 1126 02       		.byte	0x2
 6292 1127 23       		.byte	0x23
 6293 1128 04       		.uleb128 0x4
 6294 1129 10       		.uleb128 0x10
 6295 112a 3E050000 		.4byte	.LASF211
 6296 112e 0E       		.byte	0xe
 6297 112f D9       		.byte	0xd9
 6298 1130 F6100000 		.4byte	0x10f6
 6299 1134 02       		.byte	0x2
 6300 1135 23       		.byte	0x23
 6301 1136 08       		.uleb128 0x8
 6302 1137 10       		.uleb128 0x10
 6303 1138 AD080000 		.4byte	.LASF212
 6304 113c 0E       		.byte	0xe
 6305 113d DD       		.byte	0xdd
 6306 113e C1000000 		.4byte	0xc1
 6307 1142 02       		.byte	0x2
 6308 1143 23       		.byte	0x23
 6309 1144 09       		.uleb128 0x9
 6310 1145 00       		.byte	0
 6311 1146 03       		.uleb128 0x3
 6312 1147 12100000 		.4byte	.LASF213
 6313 114b 0E       		.byte	0xe
 6314 114c DE       		.byte	0xde
 6315 114d 01110000 		.4byte	0x1101
 6316 1151 25       		.uleb128 0x25
 6317 1152 E90B0000 		.4byte	.LASF221
 6318 1156 07       		.byte	0x7
 6319 1157 01       		.byte	0x1
 6320 1158 46000000 		.4byte	0x46
 6321 115c 0E       		.byte	0xe
 6322 115d F6       		.byte	0xf6
 6323 115e 81110000 		.4byte	0x1181
ARM GAS  C:\Users\EBANO_~1\AppData\Local\Temp\ccEfOEMG.s 			page 140


 6324 1162 21       		.uleb128 0x21
 6325 1163 06190000 		.4byte	.LASF214
 6326 1167 00       		.byte	0
 6327 1168 21       		.uleb128 0x21
 6328 1169 14190000 		.4byte	.LASF215
 6329 116d 01       		.byte	0x1
 6330 116e 21       		.uleb128 0x21
 6331 116f 00000000 		.4byte	.LASF216
 6332 1173 02       		.byte	0x2
 6333 1174 21       		.uleb128 0x21
 6334 1175 F61F0000 		.4byte	.LASF217
 6335 1179 03       		.byte	0x3
 6336 117a 21       		.uleb128 0x21
 6337 117b 4C0C0000 		.4byte	.LASF218
 6338 117f 04       		.byte	0x4
 6339 1180 00       		.byte	0
 6340 1181 0C       		.uleb128 0xc
 6341 1182 440F0000 		.4byte	.LASF219
 6342 1186 0E       		.byte	0xe
 6343 1187 0C01     		.2byte	0x10c
 6344 1189 51110000 		.4byte	0x1151
 6345 118d 02       		.uleb128 0x2
 6346 118e 04       		.byte	0x4
 6347 118f 04       		.byte	0x4
 6348 1190 1B070000 		.4byte	.LASF220
 6349 1194 0A       		.uleb128 0xa
 6350 1195 04       		.byte	0x4
 6351 1196 46110000 		.4byte	0x1146
 6352 119a 0A       		.uleb128 0xa
 6353 119b 04       		.byte	0x4
 6354 119c DC000000 		.4byte	0xdc
 6355 11a0 26       		.uleb128 0x26
 6356 11a1 0A040000 		.4byte	.LASF222
 6357 11a5 07       		.byte	0x7
 6358 11a6 01       		.byte	0x1
 6359 11a7 46000000 		.4byte	0x46
 6360 11ab 0E       		.byte	0xe
 6361 11ac 2508     		.2byte	0x825
 6362 11ae 3D120000 		.4byte	0x123d
 6363 11b2 21       		.uleb128 0x21
 6364 11b3 9E170000 		.4byte	.LASF223
 6365 11b7 00       		.byte	0
 6366 11b8 21       		.uleb128 0x21
 6367 11b9 22100000 		.4byte	.LASF224
 6368 11bd 01       		.byte	0x1
 6369 11be 21       		.uleb128 0x21
 6370 11bf A6200000 		.4byte	.LASF225
 6371 11c3 02       		.byte	0x2
 6372 11c4 21       		.uleb128 0x21
 6373 11c5 23080000 		.4byte	.LASF226
 6374 11c9 03       		.byte	0x3
 6375 11ca 21       		.uleb128 0x21
 6376 11cb DC160000 		.4byte	.LASF227
 6377 11cf 04       		.byte	0x4
 6378 11d0 21       		.uleb128 0x21
 6379 11d1 CA1E0000 		.4byte	.LASF228
 6380 11d5 05       		.byte	0x5
ARM GAS  C:\Users\EBANO_~1\AppData\Local\Temp\ccEfOEMG.s 			page 141


 6381 11d6 21       		.uleb128 0x21
 6382 11d7 571E0000 		.4byte	.LASF229
 6383 11db 06       		.byte	0x6
 6384 11dc 21       		.uleb128 0x21
 6385 11dd 97010000 		.4byte	.LASF230
 6386 11e1 07       		.byte	0x7
 6387 11e2 21       		.uleb128 0x21
 6388 11e3 B0060000 		.4byte	.LASF231
 6389 11e7 08       		.byte	0x8
 6390 11e8 21       		.uleb128 0x21
 6391 11e9 200F0000 		.4byte	.LASF232
 6392 11ed 09       		.byte	0x9
 6393 11ee 21       		.uleb128 0x21
 6394 11ef D6200000 		.4byte	.LASF233
 6395 11f3 0A       		.byte	0xa
 6396 11f4 21       		.uleb128 0x21
 6397 11f5 30040000 		.4byte	.LASF234
 6398 11f9 0B       		.byte	0xb
 6399 11fa 21       		.uleb128 0x21
 6400 11fb 671A0000 		.4byte	.LASF235
 6401 11ff 0C       		.byte	0xc
 6402 1200 21       		.uleb128 0x21
 6403 1201 11110000 		.4byte	.LASF236
 6404 1205 0D       		.byte	0xd
 6405 1206 21       		.uleb128 0x21
 6406 1207 52100000 		.4byte	.LASF237
 6407 120b 0E       		.byte	0xe
 6408 120c 21       		.uleb128 0x21
 6409 120d 3D200000 		.4byte	.LASF238
 6410 1211 0F       		.byte	0xf
 6411 1212 21       		.uleb128 0x21
 6412 1213 CB1D0000 		.4byte	.LASF239
 6413 1217 10       		.byte	0x10
 6414 1218 21       		.uleb128 0x21
 6415 1219 EF020000 		.4byte	.LASF240
 6416 121d 11       		.byte	0x11
 6417 121e 21       		.uleb128 0x21
 6418 121f 170A0000 		.4byte	.LASF241
 6419 1223 12       		.byte	0x12
 6420 1224 21       		.uleb128 0x21
 6421 1225 270D0000 		.4byte	.LASF242
 6422 1229 13       		.byte	0x13
 6423 122a 21       		.uleb128 0x21
 6424 122b 7A1E0000 		.4byte	.LASF243
 6425 122f 14       		.byte	0x14
 6426 1230 21       		.uleb128 0x21
 6427 1231 9F1C0000 		.4byte	.LASF244
 6428 1235 15       		.byte	0x15
 6429 1236 21       		.uleb128 0x21
 6430 1237 9F0F0000 		.4byte	.LASF245
 6431 123b 16       		.byte	0x16
 6432 123c 00       		.byte	0
 6433 123d 0C       		.uleb128 0xc
 6434 123e 2C1E0000 		.4byte	.LASF246
 6435 1242 0E       		.byte	0xe
 6436 1243 8508     		.2byte	0x885
 6437 1245 A0110000 		.4byte	0x11a0
ARM GAS  C:\Users\EBANO_~1\AppData\Local\Temp\ccEfOEMG.s 			page 142


 6438 1249 27       		.uleb128 0x27
 6439 124a A61F0000 		.4byte	.LASF431
 6440 124e 0E       		.byte	0xe
 6441 124f 2509     		.2byte	0x925
 6442 1251 1F010000 		.4byte	0x11f
 6443 1255 10       		.byte	0x10
 6444 1256 08       		.byte	0x8
 6445 1257 0A       		.byte	0xa
 6446 1258 0C       		.byte	0xc
 6447 1259 0D       		.byte	0xd
 6448 125a 0E       		.byte	0xe
 6449 125b 10       		.byte	0x10
 6450 125c 12       		.byte	0x12
 6451 125d 14       		.byte	0x14
 6452 125e 15       		.byte	0x15
 6453 125f 18       		.byte	0x18
 6454 1260 1A       		.byte	0x1a
 6455 1261 1B       		.byte	0x1b
 6456 1262 1D       		.byte	0x1d
 6457 1263 1E       		.byte	0x1e
 6458 1264 21       		.byte	0x21
 6459 1265 24       		.byte	0x24
 6460 1266 26       		.uleb128 0x26
 6461 1267 B4070000 		.4byte	.LASF247
 6462 126b 07       		.byte	0x7
 6463 126c 01       		.byte	0x1
 6464 126d 46000000 		.4byte	0x46
 6465 1271 0F       		.byte	0xf
 6466 1272 1202     		.2byte	0x212
 6467 1274 B7130000 		.4byte	0x13b7
 6468 1278 21       		.uleb128 0x21
 6469 1279 7E0A0000 		.4byte	.LASF248
 6470 127d 00       		.byte	0
 6471 127e 21       		.uleb128 0x21
 6472 127f 8E0B0000 		.4byte	.LASF249
 6473 1283 01       		.byte	0x1
 6474 1284 21       		.uleb128 0x21
 6475 1285 BF1B0000 		.4byte	.LASF250
 6476 1289 02       		.byte	0x2
 6477 128a 21       		.uleb128 0x21
 6478 128b EF0F0000 		.4byte	.LASF251
 6479 128f 03       		.byte	0x3
 6480 1290 21       		.uleb128 0x21
 6481 1291 901B0000 		.4byte	.LASF252
 6482 1295 04       		.byte	0x4
 6483 1296 21       		.uleb128 0x21
 6484 1297 CE160000 		.4byte	.LASF253
 6485 129b 05       		.byte	0x5
 6486 129c 21       		.uleb128 0x21
 6487 129d 15050000 		.4byte	.LASF254
 6488 12a1 06       		.byte	0x6
 6489 12a2 21       		.uleb128 0x21
 6490 12a3 E20D0000 		.4byte	.LASF255
 6491 12a7 07       		.byte	0x7
 6492 12a8 21       		.uleb128 0x21
 6493 12a9 42170000 		.4byte	.LASF256
 6494 12ad 08       		.byte	0x8
ARM GAS  C:\Users\EBANO_~1\AppData\Local\Temp\ccEfOEMG.s 			page 143


 6495 12ae 21       		.uleb128 0x21
 6496 12af B0170000 		.4byte	.LASF257
 6497 12b3 09       		.byte	0x9
 6498 12b4 21       		.uleb128 0x21
 6499 12b5 4D030000 		.4byte	.LASF258
 6500 12b9 0A       		.byte	0xa
 6501 12ba 21       		.uleb128 0x21
 6502 12bb 84100000 		.4byte	.LASF259
 6503 12bf 0B       		.byte	0xb
 6504 12c0 21       		.uleb128 0x21
 6505 12c1 DD0C0000 		.4byte	.LASF260
 6506 12c5 0C       		.byte	0xc
 6507 12c6 21       		.uleb128 0x21
 6508 12c7 B41A0000 		.4byte	.LASF261
 6509 12cb 0D       		.byte	0xd
 6510 12cc 21       		.uleb128 0x21
 6511 12cd 08130000 		.4byte	.LASF262
 6512 12d1 0E       		.byte	0xe
 6513 12d2 21       		.uleb128 0x21
 6514 12d3 E00A0000 		.4byte	.LASF263
 6515 12d7 0F       		.byte	0xf
 6516 12d8 21       		.uleb128 0x21
 6517 12d9 DE0E0000 		.4byte	.LASF264
 6518 12dd 10       		.byte	0x10
 6519 12de 21       		.uleb128 0x21
 6520 12df F10E0000 		.4byte	.LASF265
 6521 12e3 11       		.byte	0x11
 6522 12e4 21       		.uleb128 0x21
 6523 12e5 53000000 		.4byte	.LASF266
 6524 12e9 12       		.byte	0x12
 6525 12ea 21       		.uleb128 0x21
 6526 12eb 6A000000 		.4byte	.LASF267
 6527 12ef 13       		.byte	0x13
 6528 12f0 21       		.uleb128 0x21
 6529 12f1 32180000 		.4byte	.LASF268
 6530 12f5 14       		.byte	0x14
 6531 12f6 21       		.uleb128 0x21
 6532 12f7 1F1A0000 		.4byte	.LASF269
 6533 12fb 15       		.byte	0x15
 6534 12fc 21       		.uleb128 0x21
 6535 12fd 9A050000 		.4byte	.LASF270
 6536 1301 16       		.byte	0x16
 6537 1302 21       		.uleb128 0x21
 6538 1303 94070000 		.4byte	.LASF271
 6539 1307 17       		.byte	0x17
 6540 1308 21       		.uleb128 0x21
 6541 1309 B70E0000 		.4byte	.LASF272
 6542 130d 18       		.byte	0x18
 6543 130e 21       		.uleb128 0x21
 6544 130f C21C0000 		.4byte	.LASF273
 6545 1313 19       		.byte	0x19
 6546 1314 21       		.uleb128 0x21
 6547 1315 CA050000 		.4byte	.LASF274
 6548 1319 1A       		.byte	0x1a
 6549 131a 21       		.uleb128 0x21
 6550 131b 61150000 		.4byte	.LASF275
 6551 131f 1B       		.byte	0x1b
ARM GAS  C:\Users\EBANO_~1\AppData\Local\Temp\ccEfOEMG.s 			page 144


 6552 1320 21       		.uleb128 0x21
 6553 1321 0B1F0000 		.4byte	.LASF276
 6554 1325 1C       		.byte	0x1c
 6555 1326 21       		.uleb128 0x21
 6556 1327 02180000 		.4byte	.LASF277
 6557 132b 1D       		.byte	0x1d
 6558 132c 21       		.uleb128 0x21
 6559 132d 2B0E0000 		.4byte	.LASF278
 6560 1331 1E       		.byte	0x1e
 6561 1332 21       		.uleb128 0x21
 6562 1333 BD180000 		.4byte	.LASF279
 6563 1337 1F       		.byte	0x1f
 6564 1338 21       		.uleb128 0x21
 6565 1339 39160000 		.4byte	.LASF280
 6566 133d 20       		.byte	0x20
 6567 133e 21       		.uleb128 0x21
 6568 133f 100E0000 		.4byte	.LASF281
 6569 1343 21       		.byte	0x21
 6570 1344 21       		.uleb128 0x21
 6571 1345 EE170000 		.4byte	.LASF282
 6572 1349 22       		.byte	0x22
 6573 134a 21       		.uleb128 0x21
 6574 134b CD010000 		.4byte	.LASF283
 6575 134f 23       		.byte	0x23
 6576 1350 21       		.uleb128 0x21
 6577 1351 56020000 		.4byte	.LASF284
 6578 1355 24       		.byte	0x24
 6579 1356 21       		.uleb128 0x21
 6580 1357 20060000 		.4byte	.LASF285
 6581 135b 25       		.byte	0x25
 6582 135c 21       		.uleb128 0x21
 6583 135d 6B110000 		.4byte	.LASF286
 6584 1361 26       		.byte	0x26
 6585 1362 21       		.uleb128 0x21
 6586 1363 A50D0000 		.4byte	.LASF287
 6587 1367 27       		.byte	0x27
 6588 1368 21       		.uleb128 0x21
 6589 1369 CC0B0000 		.4byte	.LASF288
 6590 136d 28       		.byte	0x28
 6591 136e 21       		.uleb128 0x21
 6592 136f 530E0000 		.4byte	.LASF289
 6593 1373 29       		.byte	0x29
 6594 1374 21       		.uleb128 0x21
 6595 1375 450B0000 		.4byte	.LASF290
 6596 1379 2A       		.byte	0x2a
 6597 137a 21       		.uleb128 0x21
 6598 137b 2B210000 		.4byte	.LASF291
 6599 137f 2B       		.byte	0x2b
 6600 1380 21       		.uleb128 0x21
 6601 1381 46050000 		.4byte	.LASF292
 6602 1385 2C       		.byte	0x2c
 6603 1386 21       		.uleb128 0x21
 6604 1387 9F1E0000 		.4byte	.LASF293
 6605 138b 2D       		.byte	0x2d
 6606 138c 21       		.uleb128 0x21
 6607 138d CD1A0000 		.4byte	.LASF294
 6608 1391 2E       		.byte	0x2e
ARM GAS  C:\Users\EBANO_~1\AppData\Local\Temp\ccEfOEMG.s 			page 145


 6609 1392 21       		.uleb128 0x21
 6610 1393 D6170000 		.4byte	.LASF295
 6611 1397 2F       		.byte	0x2f
 6612 1398 21       		.uleb128 0x21
 6613 1399 01010000 		.4byte	.LASF296
 6614 139d 30       		.byte	0x30
 6615 139e 21       		.uleb128 0x21
 6616 139f 3E110000 		.4byte	.LASF297
 6617 13a3 31       		.byte	0x31
 6618 13a4 21       		.uleb128 0x21
 6619 13a5 6B0B0000 		.4byte	.LASF298
 6620 13a9 32       		.byte	0x32
 6621 13aa 21       		.uleb128 0x21
 6622 13ab DB110000 		.4byte	.LASF299
 6623 13af 33       		.byte	0x33
 6624 13b0 21       		.uleb128 0x21
 6625 13b1 941D0000 		.4byte	.LASF300
 6626 13b5 34       		.byte	0x34
 6627 13b6 00       		.byte	0
 6628 13b7 0C       		.uleb128 0xc
 6629 13b8 2D020000 		.4byte	.LASF301
 6630 13bc 0F       		.byte	0xf
 6631 13bd EE02     		.2byte	0x2ee
 6632 13bf 66120000 		.4byte	0x1266
 6633 13c3 26       		.uleb128 0x26
 6634 13c4 22190000 		.4byte	.LASF302
 6635 13c8 07       		.byte	0x7
 6636 13c9 01       		.byte	0x1
 6637 13ca 46000000 		.4byte	0x46
 6638 13ce 0F       		.byte	0xf
 6639 13cf F302     		.2byte	0x2f3
 6640 13d1 E8130000 		.4byte	0x13e8
 6641 13d5 21       		.uleb128 0x21
 6642 13d6 D30D0000 		.4byte	.LASF303
 6643 13da 00       		.byte	0
 6644 13db 21       		.uleb128 0x21
 6645 13dc 441D0000 		.4byte	.LASF304
 6646 13e0 01       		.byte	0x1
 6647 13e1 21       		.uleb128 0x21
 6648 13e2 3F1B0000 		.4byte	.LASF305
 6649 13e6 02       		.byte	0x2
 6650 13e7 00       		.byte	0
 6651 13e8 0C       		.uleb128 0xc
 6652 13e9 96040000 		.4byte	.LASF306
 6653 13ed 0F       		.byte	0xf
 6654 13ee 0203     		.2byte	0x302
 6655 13f0 C3130000 		.4byte	0x13c3
 6656 13f4 26       		.uleb128 0x26
 6657 13f5 00160000 		.4byte	.LASF307
 6658 13f9 07       		.byte	0x7
 6659 13fa 01       		.byte	0x1
 6660 13fb 46000000 		.4byte	0x46
 6661 13ff 0F       		.byte	0xf
 6662 1400 0403     		.2byte	0x304
 6663 1402 13140000 		.4byte	0x1413
 6664 1406 21       		.uleb128 0x21
 6665 1407 26140000 		.4byte	.LASF308
ARM GAS  C:\Users\EBANO_~1\AppData\Local\Temp\ccEfOEMG.s 			page 146


 6666 140b 00       		.byte	0
 6667 140c 21       		.uleb128 0x21
 6668 140d 1C180000 		.4byte	.LASF309
 6669 1411 01       		.byte	0x1
 6670 1412 00       		.byte	0
 6671 1413 0C       		.uleb128 0xc
 6672 1414 80010000 		.4byte	.LASF310
 6673 1418 0F       		.byte	0xf
 6674 1419 0E03     		.2byte	0x30e
 6675 141b F4130000 		.4byte	0x13f4
 6676 141f 19       		.uleb128 0x19
 6677 1420 BF000000 		.4byte	.LASF311
 6678 1424 03       		.byte	0x3
 6679 1425 0F       		.byte	0xf
 6680 1426 1303     		.2byte	0x313
 6681 1428 5A140000 		.4byte	0x145a
 6682 142c 18       		.uleb128 0x18
 6683 142d C8030000 		.4byte	.LASF312
 6684 1431 0F       		.byte	0xf
 6685 1432 1803     		.2byte	0x318
 6686 1434 C1000000 		.4byte	0xc1
 6687 1438 02       		.byte	0x2
 6688 1439 23       		.byte	0x23
 6689 143a 00       		.uleb128 0
 6690 143b 18       		.uleb128 0x18
 6691 143c 81000000 		.4byte	.LASF313
 6692 1440 0F       		.byte	0xf
 6693 1441 1C03     		.2byte	0x31c
 6694 1443 C1000000 		.4byte	0xc1
 6695 1447 02       		.byte	0x2
 6696 1448 23       		.byte	0x23
 6697 1449 01       		.uleb128 0x1
 6698 144a 18       		.uleb128 0x18
 6699 144b FD0F0000 		.4byte	.LASF314
 6700 144f 0F       		.byte	0xf
 6701 1450 2003     		.2byte	0x320
 6702 1452 C1000000 		.4byte	0xc1
 6703 1456 02       		.byte	0x2
 6704 1457 23       		.byte	0x23
 6705 1458 02       		.uleb128 0x2
 6706 1459 00       		.byte	0
 6707 145a 0C       		.uleb128 0xc
 6708 145b DC190000 		.4byte	.LASF315
 6709 145f 0F       		.byte	0xf
 6710 1460 2103     		.2byte	0x321
 6711 1462 1F140000 		.4byte	0x141f
 6712 1466 28       		.uleb128 0x28
 6713 1467 5A170000 		.4byte	.LASF316
 6714 146b 04       		.byte	0x4
 6715 146c 0F       		.byte	0xf
 6716 146d 2603     		.2byte	0x326
 6717 146f B0140000 		.4byte	0x14b0
 6718 1473 1C       		.uleb128 0x1c
 6719 1474 A0200000 		.4byte	.LASF145
 6720 1478 0F       		.byte	0xf
 6721 1479 2B03     		.2byte	0x32b
 6722 147b F2000000 		.4byte	0xf2
ARM GAS  C:\Users\EBANO_~1\AppData\Local\Temp\ccEfOEMG.s 			page 147


 6723 147f 1C       		.uleb128 0x1c
 6724 1480 041B0000 		.4byte	.LASF317
 6725 1484 0F       		.byte	0xf
 6726 1485 2F03     		.2byte	0x32f
 6727 1487 8D110000 		.4byte	0x118d
 6728 148b 1C       		.uleb128 0x1c
 6729 148c 821D0000 		.4byte	.LASF318
 6730 1490 0F       		.byte	0xf
 6731 1491 3303     		.2byte	0x333
 6732 1493 9A110000 		.4byte	0x119a
 6733 1497 1C       		.uleb128 0x1c
 6734 1498 6D0D0000 		.4byte	.LASF319
 6735 149c 0F       		.byte	0xf
 6736 149d 3703     		.2byte	0x337
 6737 149f 94110000 		.4byte	0x1194
 6738 14a3 1C       		.uleb128 0x1c
 6739 14a4 C90F0000 		.4byte	.LASF320
 6740 14a8 0F       		.byte	0xf
 6741 14a9 3B03     		.2byte	0x33b
 6742 14ab 5A140000 		.4byte	0x145a
 6743 14af 00       		.byte	0
 6744 14b0 0C       		.uleb128 0xc
 6745 14b1 DC120000 		.4byte	.LASF321
 6746 14b5 0F       		.byte	0xf
 6747 14b6 3C03     		.2byte	0x33c
 6748 14b8 66140000 		.4byte	0x1466
 6749 14bc 19       		.uleb128 0x19
 6750 14bd 190D0000 		.4byte	.LASF322
 6751 14c1 04       		.byte	0x4
 6752 14c2 0F       		.byte	0xf
 6753 14c3 4103     		.2byte	0x341
 6754 14c5 06150000 		.4byte	0x1506
 6755 14c9 18       		.uleb128 0x18
 6756 14ca AA070000 		.4byte	.LASF323
 6757 14ce 0F       		.byte	0xf
 6758 14cf 4603     		.2byte	0x346
 6759 14d1 B7130000 		.4byte	0x13b7
 6760 14d5 02       		.byte	0x2
 6761 14d6 23       		.byte	0x23
 6762 14d7 00       		.uleb128 0
 6763 14d8 18       		.uleb128 0x18
 6764 14d9 AD1D0000 		.4byte	.LASF324
 6765 14dd 0F       		.byte	0xf
 6766 14de 4C03     		.2byte	0x34c
 6767 14e0 B1000000 		.4byte	0xb1
 6768 14e4 02       		.byte	0x2
 6769 14e5 23       		.byte	0x23
 6770 14e6 01       		.uleb128 0x1
 6771 14e7 18       		.uleb128 0x18
 6772 14e8 2F1A0000 		.4byte	.LASF325
 6773 14ec 0F       		.byte	0xf
 6774 14ed 5303     		.2byte	0x353
 6775 14ef C1000000 		.4byte	0xc1
 6776 14f3 02       		.byte	0x2
 6777 14f4 23       		.byte	0x23
 6778 14f5 02       		.uleb128 0x2
 6779 14f6 18       		.uleb128 0x18
ARM GAS  C:\Users\EBANO_~1\AppData\Local\Temp\ccEfOEMG.s 			page 148


 6780 14f7 AF120000 		.4byte	.LASF326
 6781 14fb 0F       		.byte	0xf
 6782 14fc 5A03     		.2byte	0x35a
 6783 14fe C1000000 		.4byte	0xc1
 6784 1502 02       		.byte	0x2
 6785 1503 23       		.byte	0x23
 6786 1504 03       		.uleb128 0x3
 6787 1505 00       		.byte	0
 6788 1506 0C       		.uleb128 0xc
 6789 1507 54040000 		.4byte	.LASF327
 6790 150b 0F       		.byte	0xf
 6791 150c 5B03     		.2byte	0x35b
 6792 150e BC140000 		.4byte	0x14bc
 6793 1512 19       		.uleb128 0x19
 6794 1513 E7120000 		.4byte	.LASF328
 6795 1517 08       		.byte	0x8
 6796 1518 0F       		.byte	0xf
 6797 1519 6003     		.2byte	0x360
 6798 151b 4D150000 		.4byte	0x154d
 6799 151f 18       		.uleb128 0x18
 6800 1520 63190000 		.4byte	.LASF329
 6801 1524 0F       		.byte	0xf
 6802 1525 6503     		.2byte	0x365
 6803 1527 C1000000 		.4byte	0xc1
 6804 152b 02       		.byte	0x2
 6805 152c 23       		.byte	0x23
 6806 152d 00       		.uleb128 0
 6807 152e 18       		.uleb128 0x18
 6808 152f 03110000 		.4byte	.LASF330
 6809 1533 0F       		.byte	0xf
 6810 1534 6903     		.2byte	0x369
 6811 1536 1A0B0000 		.4byte	0xb1a
 6812 153a 02       		.byte	0x2
 6813 153b 23       		.byte	0x23
 6814 153c 01       		.uleb128 0x1
 6815 153d 18       		.uleb128 0x18
 6816 153e B5040000 		.4byte	.LASF152
 6817 1542 0F       		.byte	0xf
 6818 1543 6D03     		.2byte	0x36d
 6819 1545 9C0A0000 		.4byte	0xa9c
 6820 1549 02       		.byte	0x2
 6821 154a 23       		.byte	0x23
 6822 154b 04       		.uleb128 0x4
 6823 154c 00       		.byte	0
 6824 154d 0C       		.uleb128 0xc
 6825 154e 760D0000 		.4byte	.LASF331
 6826 1552 0F       		.byte	0xf
 6827 1553 6E03     		.2byte	0x36e
 6828 1555 12150000 		.4byte	0x1512
 6829 1559 19       		.uleb128 0x19
 6830 155a 43180000 		.4byte	.LASF332
 6831 155e 08       		.byte	0x8
 6832 155f 0F       		.byte	0xf
 6833 1560 7303     		.2byte	0x373
 6834 1562 85150000 		.4byte	0x1585
 6835 1566 18       		.uleb128 0x18
 6836 1567 2A1F0000 		.4byte	.LASF333
ARM GAS  C:\Users\EBANO_~1\AppData\Local\Temp\ccEfOEMG.s 			page 149


 6837 156b 0F       		.byte	0xf
 6838 156c 7803     		.2byte	0x378
 6839 156e 87010000 		.4byte	0x187
 6840 1572 02       		.byte	0x2
 6841 1573 23       		.byte	0x23
 6842 1574 00       		.uleb128 0
 6843 1575 18       		.uleb128 0x18
 6844 1576 AF0A0000 		.4byte	.LASF334
 6845 157a 0F       		.byte	0xf
 6846 157b 7C03     		.2byte	0x37c
 6847 157d E8130000 		.4byte	0x13e8
 6848 1581 02       		.byte	0x2
 6849 1582 23       		.byte	0x23
 6850 1583 04       		.uleb128 0x4
 6851 1584 00       		.byte	0
 6852 1585 0C       		.uleb128 0xc
 6853 1586 1C0C0000 		.4byte	.LASF335
 6854 158a 0F       		.byte	0xf
 6855 158b 7D03     		.2byte	0x37d
 6856 158d 59150000 		.4byte	0x1559
 6857 1591 19       		.uleb128 0x19
 6858 1592 EA060000 		.4byte	.LASF336
 6859 1596 04       		.byte	0x4
 6860 1597 0F       		.byte	0xf
 6861 1598 8203     		.2byte	0x382
 6862 159a AE150000 		.4byte	0x15ae
 6863 159e 18       		.uleb128 0x18
 6864 159f 950A0000 		.4byte	.LASF337
 6865 15a3 0F       		.byte	0xf
 6866 15a4 8703     		.2byte	0x387
 6867 15a6 75010000 		.4byte	0x175
 6868 15aa 02       		.byte	0x2
 6869 15ab 23       		.byte	0x23
 6870 15ac 00       		.uleb128 0
 6871 15ad 00       		.byte	0
 6872 15ae 0C       		.uleb128 0xc
 6873 15af 28120000 		.4byte	.LASF338
 6874 15b3 0F       		.byte	0xf
 6875 15b4 8803     		.2byte	0x388
 6876 15b6 91150000 		.4byte	0x1591
 6877 15ba 19       		.uleb128 0x19
 6878 15bb BA050000 		.4byte	.LASF339
 6879 15bf 03       		.byte	0x3
 6880 15c0 0F       		.byte	0xf
 6881 15c1 9B03     		.2byte	0x39b
 6882 15c3 F5150000 		.4byte	0x15f5
 6883 15c7 18       		.uleb128 0x18
 6884 15c8 AD1D0000 		.4byte	.LASF324
 6885 15cc 0F       		.byte	0xf
 6886 15cd A003     		.2byte	0x3a0
 6887 15cf B1000000 		.4byte	0xb1
 6888 15d3 02       		.byte	0x2
 6889 15d4 23       		.byte	0x23
 6890 15d5 00       		.uleb128 0
 6891 15d6 18       		.uleb128 0x18
 6892 15d7 AF120000 		.4byte	.LASF326
 6893 15db 0F       		.byte	0xf
ARM GAS  C:\Users\EBANO_~1\AppData\Local\Temp\ccEfOEMG.s 			page 150


 6894 15dc A403     		.2byte	0x3a4
 6895 15de C1000000 		.4byte	0xc1
 6896 15e2 02       		.byte	0x2
 6897 15e3 23       		.byte	0x23
 6898 15e4 01       		.uleb128 0x1
 6899 15e5 18       		.uleb128 0x18
 6900 15e6 2F1A0000 		.4byte	.LASF325
 6901 15ea 0F       		.byte	0xf
 6902 15eb A803     		.2byte	0x3a8
 6903 15ed C1000000 		.4byte	0xc1
 6904 15f1 02       		.byte	0x2
 6905 15f2 23       		.byte	0x23
 6906 15f3 02       		.uleb128 0x2
 6907 15f4 00       		.byte	0
 6908 15f5 28       		.uleb128 0x28
 6909 15f6 16200000 		.4byte	.LASF340
 6910 15fa 03       		.byte	0x3
 6911 15fb 0F       		.byte	0xf
 6912 15fc 8E03     		.2byte	0x38e
 6913 15fe 27160000 		.4byte	0x1627
 6914 1602 1C       		.uleb128 0x1c
 6915 1603 9E1A0000 		.4byte	.LASF341
 6916 1607 0F       		.byte	0xf
 6917 1608 9303     		.2byte	0x393
 6918 160a B1000000 		.4byte	0xb1
 6919 160e 1C       		.uleb128 0x1c
 6920 160f FA1A0000 		.4byte	.LASF342
 6921 1613 0F       		.byte	0xf
 6922 1614 9703     		.2byte	0x397
 6923 1616 1A0B0000 		.4byte	0xb1a
 6924 161a 1C       		.uleb128 0x1c
 6925 161b 67020000 		.4byte	.LASF343
 6926 161f 0F       		.byte	0xf
 6927 1620 A903     		.2byte	0x3a9
 6928 1622 BA150000 		.4byte	0x15ba
 6929 1626 00       		.byte	0
 6930 1627 0C       		.uleb128 0xc
 6931 1628 7F200000 		.4byte	.LASF344
 6932 162c 0F       		.byte	0xf
 6933 162d AA03     		.2byte	0x3aa
 6934 162f F5150000 		.4byte	0x15f5
 6935 1633 19       		.uleb128 0x19
 6936 1634 FF0C0000 		.4byte	.LASF345
 6937 1638 08       		.byte	0x8
 6938 1639 0F       		.byte	0xf
 6939 163a AF03     		.2byte	0x3af
 6940 163c 5F160000 		.4byte	0x165f
 6941 1640 18       		.uleb128 0x18
 6942 1641 D80A0000 		.4byte	.LASF346
 6943 1645 0F       		.byte	0xf
 6944 1646 B403     		.2byte	0x3b4
 6945 1648 890A0000 		.4byte	0xa89
 6946 164c 02       		.byte	0x2
 6947 164d 23       		.byte	0x23
 6948 164e 00       		.uleb128 0
 6949 164f 18       		.uleb128 0x18
 6950 1650 36100000 		.4byte	.LASF347
ARM GAS  C:\Users\EBANO_~1\AppData\Local\Temp\ccEfOEMG.s 			page 151


 6951 1654 0F       		.byte	0xf
 6952 1655 B803     		.2byte	0x3b8
 6953 1657 C1000000 		.4byte	0xc1
 6954 165b 02       		.byte	0x2
 6955 165c 23       		.byte	0x23
 6956 165d 04       		.uleb128 0x4
 6957 165e 00       		.byte	0
 6958 165f 0C       		.uleb128 0xc
 6959 1660 BB0C0000 		.4byte	.LASF348
 6960 1664 0F       		.byte	0xf
 6961 1665 B903     		.2byte	0x3b9
 6962 1667 33160000 		.4byte	0x1633
 6963 166b 19       		.uleb128 0x19
 6964 166c EA1E0000 		.4byte	.LASF349
 6965 1670 08       		.byte	0x8
 6966 1671 0F       		.byte	0xf
 6967 1672 BE03     		.2byte	0x3be
 6968 1674 97160000 		.4byte	0x1697
 6969 1678 18       		.uleb128 0x18
 6970 1679 8F170000 		.4byte	.LASF350
 6971 167d 0F       		.byte	0xf
 6972 167e C303     		.2byte	0x3c3
 6973 1680 9A110000 		.4byte	0x119a
 6974 1684 02       		.byte	0x2
 6975 1685 23       		.byte	0x23
 6976 1686 00       		.uleb128 0
 6977 1687 18       		.uleb128 0x18
 6978 1688 B7190000 		.4byte	.LASF351
 6979 168c 0F       		.byte	0xf
 6980 168d C703     		.2byte	0x3c7
 6981 168f 13140000 		.4byte	0x1413
 6982 1693 02       		.byte	0x2
 6983 1694 23       		.byte	0x23
 6984 1695 04       		.uleb128 0x4
 6985 1696 00       		.byte	0
 6986 1697 0C       		.uleb128 0xc
 6987 1698 0C0F0000 		.4byte	.LASF352
 6988 169c 0F       		.byte	0xf
 6989 169d C803     		.2byte	0x3c8
 6990 169f 6B160000 		.4byte	0x166b
 6991 16a3 19       		.uleb128 0x19
 6992 16a4 54110000 		.4byte	.LASF353
 6993 16a8 14       		.byte	0x14
 6994 16a9 0F       		.byte	0xf
 6995 16aa CD03     		.2byte	0x3cd
 6996 16ac 56170000 		.4byte	0x1756
 6997 16b0 18       		.uleb128 0x18
 6998 16b1 63190000 		.4byte	.LASF329
 6999 16b5 0F       		.byte	0xf
 7000 16b6 D203     		.2byte	0x3d2
 7001 16b8 C1000000 		.4byte	0xc1
 7002 16bc 02       		.byte	0x2
 7003 16bd 23       		.byte	0x23
 7004 16be 00       		.uleb128 0
 7005 16bf 18       		.uleb128 0x18
 7006 16c0 AD1D0000 		.4byte	.LASF324
 7007 16c4 0F       		.byte	0xf
ARM GAS  C:\Users\EBANO_~1\AppData\Local\Temp\ccEfOEMG.s 			page 152


 7008 16c5 D603     		.2byte	0x3d6
 7009 16c7 B1000000 		.4byte	0xb1
 7010 16cb 02       		.byte	0x2
 7011 16cc 23       		.byte	0x23
 7012 16cd 01       		.uleb128 0x1
 7013 16ce 18       		.uleb128 0x18
 7014 16cf F01A0000 		.4byte	.LASF354
 7015 16d3 0F       		.byte	0xf
 7016 16d4 DA03     		.2byte	0x3da
 7017 16d6 C1000000 		.4byte	0xc1
 7018 16da 02       		.byte	0x2
 7019 16db 23       		.byte	0x23
 7020 16dc 02       		.uleb128 0x2
 7021 16dd 18       		.uleb128 0x18
 7022 16de 4D020000 		.4byte	.LASF355
 7023 16e2 0F       		.byte	0xf
 7024 16e3 DE03     		.2byte	0x3de
 7025 16e5 B1000000 		.4byte	0xb1
 7026 16e9 02       		.byte	0x2
 7027 16ea 23       		.byte	0x23
 7028 16eb 03       		.uleb128 0x3
 7029 16ec 18       		.uleb128 0x18
 7030 16ed DA1C0000 		.4byte	.LASF209
 7031 16f1 0F       		.byte	0xf
 7032 16f2 E203     		.2byte	0x3e2
 7033 16f4 F2000000 		.4byte	0xf2
 7034 16f8 02       		.byte	0x2
 7035 16f9 23       		.byte	0x23
 7036 16fa 04       		.uleb128 0x4
 7037 16fb 18       		.uleb128 0x18
 7038 16fc C4080000 		.4byte	.LASF356
 7039 1700 0F       		.byte	0xf
 7040 1701 E603     		.2byte	0x3e6
 7041 1703 F2000000 		.4byte	0xf2
 7042 1707 02       		.byte	0x2
 7043 1708 23       		.byte	0x23
 7044 1709 08       		.uleb128 0x8
 7045 170a 18       		.uleb128 0x18
 7046 170b 13060000 		.4byte	.LASF357
 7047 170f 0F       		.byte	0xf
 7048 1710 EA03     		.2byte	0x3ea
 7049 1712 E7000000 		.4byte	0xe7
 7050 1716 02       		.byte	0x2
 7051 1717 23       		.byte	0x23
 7052 1718 0C       		.uleb128 0xc
 7053 1719 18       		.uleb128 0x18
 7054 171a AF120000 		.4byte	.LASF326
 7055 171e 0F       		.byte	0xf
 7056 171f EE03     		.2byte	0x3ee
 7057 1721 C1000000 		.4byte	0xc1
 7058 1725 02       		.byte	0x2
 7059 1726 23       		.byte	0x23
 7060 1727 10       		.uleb128 0x10
 7061 1728 18       		.uleb128 0x18
 7062 1729 3C0C0000 		.4byte	.LASF358
 7063 172d 0F       		.byte	0xf
 7064 172e F203     		.2byte	0x3f2
ARM GAS  C:\Users\EBANO_~1\AppData\Local\Temp\ccEfOEMG.s 			page 153


 7065 1730 1A0B0000 		.4byte	0xb1a
 7066 1734 02       		.byte	0x2
 7067 1735 23       		.byte	0x23
 7068 1736 11       		.uleb128 0x11
 7069 1737 18       		.uleb128 0x18
 7070 1738 321B0000 		.4byte	.LASF359
 7071 173c 0F       		.byte	0xf
 7072 173d F603     		.2byte	0x3f6
 7073 173f 1A0B0000 		.4byte	0xb1a
 7074 1743 02       		.byte	0x2
 7075 1744 23       		.byte	0x23
 7076 1745 12       		.uleb128 0x12
 7077 1746 18       		.uleb128 0x18
 7078 1747 1C080000 		.4byte	.LASF360
 7079 174b 0F       		.byte	0xf
 7080 174c FA03     		.2byte	0x3fa
 7081 174e 81110000 		.4byte	0x1181
 7082 1752 02       		.byte	0x2
 7083 1753 23       		.byte	0x23
 7084 1754 13       		.uleb128 0x13
 7085 1755 00       		.byte	0
 7086 1756 0C       		.uleb128 0xc
 7087 1757 CD000000 		.4byte	.LASF361
 7088 175b 0F       		.byte	0xf
 7089 175c FB03     		.2byte	0x3fb
 7090 175e A3160000 		.4byte	0x16a3
 7091 1762 19       		.uleb128 0x19
 7092 1763 A9100000 		.4byte	.LASF362
 7093 1767 10       		.byte	0x10
 7094 1768 0F       		.byte	0xf
 7095 1769 0004     		.2byte	0x400
 7096 176b CA170000 		.4byte	0x17ca
 7097 176f 18       		.uleb128 0x18
 7098 1770 63190000 		.4byte	.LASF329
 7099 1774 0F       		.byte	0xf
 7100 1775 0504     		.2byte	0x405
 7101 1777 C1000000 		.4byte	0xc1
 7102 177b 02       		.byte	0x2
 7103 177c 23       		.byte	0x23
 7104 177d 00       		.uleb128 0
 7105 177e 18       		.uleb128 0x18
 7106 177f AD1D0000 		.4byte	.LASF324
 7107 1783 0F       		.byte	0xf
 7108 1784 0904     		.2byte	0x409
 7109 1786 B1000000 		.4byte	0xb1
 7110 178a 02       		.byte	0x2
 7111 178b 23       		.byte	0x23
 7112 178c 01       		.uleb128 0x1
 7113 178d 18       		.uleb128 0x18
 7114 178e 9E1A0000 		.4byte	.LASF341
 7115 1792 0F       		.byte	0xf
 7116 1793 0D04     		.2byte	0x40d
 7117 1795 B1000000 		.4byte	0xb1
 7118 1799 02       		.byte	0x2
 7119 179a 23       		.byte	0x23
 7120 179b 02       		.uleb128 0x2
 7121 179c 18       		.uleb128 0x18
ARM GAS  C:\Users\EBANO_~1\AppData\Local\Temp\ccEfOEMG.s 			page 154


 7122 179d E7030000 		.4byte	.LASF363
 7123 17a1 0F       		.byte	0xf
 7124 17a2 1104     		.2byte	0x411
 7125 17a4 8D110000 		.4byte	0x118d
 7126 17a8 02       		.byte	0x2
 7127 17a9 23       		.byte	0x23
 7128 17aa 04       		.uleb128 0x4
 7129 17ab 18       		.uleb128 0x18
 7130 17ac FC120000 		.4byte	.LASF364
 7131 17b0 0F       		.byte	0xf
 7132 17b1 1504     		.2byte	0x415
 7133 17b3 8D110000 		.4byte	0x118d
 7134 17b7 02       		.byte	0x2
 7135 17b8 23       		.byte	0x23
 7136 17b9 08       		.uleb128 0x8
 7137 17ba 18       		.uleb128 0x18
 7138 17bb DE0F0000 		.4byte	.LASF365
 7139 17bf 0F       		.byte	0xf
 7140 17c0 1904     		.2byte	0x419
 7141 17c2 DC000000 		.4byte	0xdc
 7142 17c6 02       		.byte	0x2
 7143 17c7 23       		.byte	0x23
 7144 17c8 0C       		.uleb128 0xc
 7145 17c9 00       		.byte	0
 7146 17ca 0C       		.uleb128 0xc
 7147 17cb C5200000 		.4byte	.LASF366
 7148 17cf 0F       		.byte	0xf
 7149 17d0 1A04     		.2byte	0x41a
 7150 17d2 62170000 		.4byte	0x1762
 7151 17d6 19       		.uleb128 0x19
 7152 17d7 B2080000 		.4byte	.LASF367
 7153 17db 10       		.byte	0x10
 7154 17dc 0F       		.byte	0xf
 7155 17dd 1F04     		.2byte	0x41f
 7156 17df 5C180000 		.4byte	0x185c
 7157 17e3 18       		.uleb128 0x18
 7158 17e4 C8070000 		.4byte	.LASF368
 7159 17e8 0F       		.byte	0xf
 7160 17e9 2404     		.2byte	0x424
 7161 17eb 0F0B0000 		.4byte	0xb0f
 7162 17ef 02       		.byte	0x2
 7163 17f0 23       		.byte	0x23
 7164 17f1 00       		.uleb128 0
 7165 17f2 18       		.uleb128 0x18
 7166 17f3 D80A0000 		.4byte	.LASF346
 7167 17f7 0F       		.byte	0xf
 7168 17f8 2804     		.2byte	0x428
 7169 17fa 890A0000 		.4byte	0xa89
 7170 17fe 02       		.byte	0x2
 7171 17ff 23       		.byte	0x23
 7172 1800 04       		.uleb128 0x4
 7173 1801 18       		.uleb128 0x18
 7174 1802 B4110000 		.4byte	.LASF369
 7175 1806 0F       		.byte	0xf
 7176 1807 2C04     		.2byte	0x42c
 7177 1809 C1000000 		.4byte	0xc1
 7178 180d 02       		.byte	0x2
ARM GAS  C:\Users\EBANO_~1\AppData\Local\Temp\ccEfOEMG.s 			page 155


 7179 180e 23       		.byte	0x23
 7180 180f 08       		.uleb128 0x8
 7181 1810 18       		.uleb128 0x18
 7182 1811 2F1A0000 		.4byte	.LASF325
 7183 1815 0F       		.byte	0xf
 7184 1816 3004     		.2byte	0x430
 7185 1818 C1000000 		.4byte	0xc1
 7186 181c 02       		.byte	0x2
 7187 181d 23       		.byte	0x23
 7188 181e 09       		.uleb128 0x9
 7189 181f 18       		.uleb128 0x18
 7190 1820 C2010000 		.4byte	.LASF370
 7191 1824 0F       		.byte	0xf
 7192 1825 3404     		.2byte	0x434
 7193 1827 1A0B0000 		.4byte	0xb1a
 7194 182b 02       		.byte	0x2
 7195 182c 23       		.byte	0x23
 7196 182d 0A       		.uleb128 0xa
 7197 182e 18       		.uleb128 0x18
 7198 182f C80A0000 		.4byte	.LASF371
 7199 1833 0F       		.byte	0xf
 7200 1834 3804     		.2byte	0x438
 7201 1836 B1000000 		.4byte	0xb1
 7202 183a 02       		.byte	0x2
 7203 183b 23       		.byte	0x23
 7204 183c 0B       		.uleb128 0xb
 7205 183d 18       		.uleb128 0x18
 7206 183e 11140000 		.4byte	.LASF372
 7207 1842 0F       		.byte	0xf
 7208 1843 3C04     		.2byte	0x43c
 7209 1845 B1000000 		.4byte	0xb1
 7210 1849 02       		.byte	0x2
 7211 184a 23       		.byte	0x23
 7212 184b 0C       		.uleb128 0xc
 7213 184c 18       		.uleb128 0x18
 7214 184d 3C1E0000 		.4byte	.LASF373
 7215 1851 0F       		.byte	0xf
 7216 1852 4004     		.2byte	0x440
 7217 1854 C1000000 		.4byte	0xc1
 7218 1858 02       		.byte	0x2
 7219 1859 23       		.byte	0x23
 7220 185a 0D       		.uleb128 0xd
 7221 185b 00       		.byte	0
 7222 185c 0C       		.uleb128 0xc
 7223 185d CE1F0000 		.4byte	.LASF374
 7224 1861 0F       		.byte	0xf
 7225 1862 4104     		.2byte	0x441
 7226 1864 D6170000 		.4byte	0x17d6
 7227 1868 19       		.uleb128 0x19
 7228 1869 15030000 		.4byte	.LASF375
 7229 186d 08       		.byte	0x8
 7230 186e 0F       		.byte	0xf
 7231 186f 4604     		.2byte	0x446
 7232 1871 A3180000 		.4byte	0x18a3
 7233 1875 18       		.uleb128 0x18
 7234 1876 AD1D0000 		.4byte	.LASF324
 7235 187a 0F       		.byte	0xf
ARM GAS  C:\Users\EBANO_~1\AppData\Local\Temp\ccEfOEMG.s 			page 156


 7236 187b 4B04     		.2byte	0x44b
 7237 187d B1000000 		.4byte	0xb1
 7238 1881 02       		.byte	0x2
 7239 1882 23       		.byte	0x23
 7240 1883 00       		.uleb128 0
 7241 1884 18       		.uleb128 0x18
 7242 1885 4D020000 		.4byte	.LASF355
 7243 1889 0F       		.byte	0xf
 7244 188a 4F04     		.2byte	0x44f
 7245 188c B1000000 		.4byte	0xb1
 7246 1890 02       		.byte	0x2
 7247 1891 23       		.byte	0x23
 7248 1892 01       		.uleb128 0x1
 7249 1893 18       		.uleb128 0x18
 7250 1894 DA1C0000 		.4byte	.LASF209
 7251 1898 0F       		.byte	0xf
 7252 1899 5304     		.2byte	0x453
 7253 189b F2000000 		.4byte	0xf2
 7254 189f 02       		.byte	0x2
 7255 18a0 23       		.byte	0x23
 7256 18a1 04       		.uleb128 0x4
 7257 18a2 00       		.byte	0
 7258 18a3 0C       		.uleb128 0xc
 7259 18a4 73030000 		.4byte	.LASF376
 7260 18a8 0F       		.byte	0xf
 7261 18a9 5404     		.2byte	0x454
 7262 18ab 68180000 		.4byte	0x1868
 7263 18af 19       		.uleb128 0x19
 7264 18b0 C6090000 		.4byte	.LASF377
 7265 18b4 08       		.byte	0x8
 7266 18b5 0F       		.byte	0xf
 7267 18b6 5904     		.2byte	0x459
 7268 18b8 DB180000 		.4byte	0x18db
 7269 18bc 18       		.uleb128 0x18
 7270 18bd 301D0000 		.4byte	.LASF378
 7271 18c1 0F       		.byte	0xf
 7272 18c2 5E04     		.2byte	0x45e
 7273 18c4 94110000 		.4byte	0x1194
 7274 18c8 02       		.byte	0x2
 7275 18c9 23       		.byte	0x23
 7276 18ca 00       		.uleb128 0
 7277 18cb 18       		.uleb128 0x18
 7278 18cc 0B030000 		.4byte	.LASF379
 7279 18d0 0F       		.byte	0xf
 7280 18d1 6204     		.2byte	0x462
 7281 18d3 B1000000 		.4byte	0xb1
 7282 18d7 02       		.byte	0x2
 7283 18d8 23       		.byte	0x23
 7284 18d9 04       		.uleb128 0x4
 7285 18da 00       		.byte	0
 7286 18db 0C       		.uleb128 0xc
 7287 18dc 400A0000 		.4byte	.LASF380
 7288 18e0 0F       		.byte	0xf
 7289 18e1 6304     		.2byte	0x463
 7290 18e3 AF180000 		.4byte	0x18af
 7291 18e7 19       		.uleb128 0x19
 7292 18e8 11120000 		.4byte	.LASF381
ARM GAS  C:\Users\EBANO_~1\AppData\Local\Temp\ccEfOEMG.s 			page 157


 7293 18ec 03       		.byte	0x3
 7294 18ed 0F       		.byte	0xf
 7295 18ee 6804     		.2byte	0x468
 7296 18f0 22190000 		.4byte	0x1922
 7297 18f4 18       		.uleb128 0x18
 7298 18f5 2F1A0000 		.4byte	.LASF325
 7299 18f9 0F       		.byte	0xf
 7300 18fa 6D04     		.2byte	0x46d
 7301 18fc C1000000 		.4byte	0xc1
 7302 1900 02       		.byte	0x2
 7303 1901 23       		.byte	0x23
 7304 1902 00       		.uleb128 0
 7305 1903 18       		.uleb128 0x18
 7306 1904 AF120000 		.4byte	.LASF326
 7307 1908 0F       		.byte	0xf
 7308 1909 7104     		.2byte	0x471
 7309 190b C1000000 		.4byte	0xc1
 7310 190f 02       		.byte	0x2
 7311 1910 23       		.byte	0x23
 7312 1911 01       		.uleb128 0x1
 7313 1912 18       		.uleb128 0x18
 7314 1913 E7030000 		.4byte	.LASF363
 7315 1917 0F       		.byte	0xf
 7316 1918 7504     		.2byte	0x475
 7317 191a C1000000 		.4byte	0xc1
 7318 191e 02       		.byte	0x2
 7319 191f 23       		.byte	0x23
 7320 1920 02       		.uleb128 0x2
 7321 1921 00       		.byte	0
 7322 1922 0C       		.uleb128 0xc
 7323 1923 75150000 		.4byte	.LASF382
 7324 1927 0F       		.byte	0xf
 7325 1928 7604     		.2byte	0x476
 7326 192a E7180000 		.4byte	0x18e7
 7327 192e 19       		.uleb128 0x19
 7328 192f BA1F0000 		.4byte	.LASF383
 7329 1933 08       		.byte	0x8
 7330 1934 0F       		.byte	0xf
 7331 1935 7B04     		.2byte	0x47b
 7332 1937 5A190000 		.4byte	0x195a
 7333 193b 18       		.uleb128 0x18
 7334 193c 0B030000 		.4byte	.LASF379
 7335 1940 0F       		.byte	0xf
 7336 1941 8004     		.2byte	0x480
 7337 1943 C1000000 		.4byte	0xc1
 7338 1947 02       		.byte	0x2
 7339 1948 23       		.byte	0x23
 7340 1949 00       		.uleb128 0
 7341 194a 18       		.uleb128 0x18
 7342 194b C6110000 		.4byte	.LASF210
 7343 194f 0F       		.byte	0xf
 7344 1950 8404     		.2byte	0x484
 7345 1952 F2000000 		.4byte	0xf2
 7346 1956 02       		.byte	0x2
 7347 1957 23       		.byte	0x23
 7348 1958 04       		.uleb128 0x4
 7349 1959 00       		.byte	0
ARM GAS  C:\Users\EBANO_~1\AppData\Local\Temp\ccEfOEMG.s 			page 158


 7350 195a 0C       		.uleb128 0xc
 7351 195b 41120000 		.4byte	.LASF384
 7352 195f 0F       		.byte	0xf
 7353 1960 8504     		.2byte	0x485
 7354 1962 2E190000 		.4byte	0x192e
 7355 1966 26       		.uleb128 0x26
 7356 1967 EE070000 		.4byte	.LASF385
 7357 196b 07       		.byte	0x7
 7358 196c 01       		.byte	0x1
 7359 196d 46000000 		.4byte	0x46
 7360 1971 0F       		.byte	0xf
 7361 1972 8A04     		.2byte	0x48a
 7362 1974 85190000 		.4byte	0x1985
 7363 1978 21       		.uleb128 0x21
 7364 1979 28170000 		.4byte	.LASF386
 7365 197d 00       		.byte	0
 7366 197e 21       		.uleb128 0x21
 7367 197f B40F0000 		.4byte	.LASF387
 7368 1983 01       		.byte	0x1
 7369 1984 00       		.byte	0
 7370 1985 0C       		.uleb128 0xc
 7371 1986 A31B0000 		.4byte	.LASF388
 7372 198a 0F       		.byte	0xf
 7373 198b 9404     		.2byte	0x494
 7374 198d 66190000 		.4byte	0x1966
 7375 1991 19       		.uleb128 0x19
 7376 1992 67060000 		.4byte	.LASF389
 7377 1996 0C       		.byte	0xc
 7378 1997 0F       		.byte	0xf
 7379 1998 9904     		.2byte	0x499
 7380 199a F9190000 		.4byte	0x19f9
 7381 199e 18       		.uleb128 0x18
 7382 199f 03110000 		.4byte	.LASF330
 7383 19a3 0F       		.byte	0xf
 7384 19a4 9E04     		.2byte	0x49e
 7385 19a6 1A0B0000 		.4byte	0xb1a
 7386 19aa 02       		.byte	0x2
 7387 19ab 23       		.byte	0x23
 7388 19ac 00       		.uleb128 0
 7389 19ad 18       		.uleb128 0x18
 7390 19ae 99210000 		.4byte	.LASF390
 7391 19b2 0F       		.byte	0xf
 7392 19b3 A204     		.2byte	0x4a2
 7393 19b5 1A0B0000 		.4byte	0xb1a
 7394 19b9 02       		.byte	0x2
 7395 19ba 23       		.byte	0x23
 7396 19bb 01       		.uleb128 0x1
 7397 19bc 18       		.uleb128 0x18
 7398 19bd 52130000 		.4byte	.LASF391
 7399 19c1 0F       		.byte	0xf
 7400 19c2 A604     		.2byte	0x4a6
 7401 19c4 1A0B0000 		.4byte	0xb1a
 7402 19c8 02       		.byte	0x2
 7403 19c9 23       		.byte	0x23
 7404 19ca 02       		.uleb128 0x2
 7405 19cb 18       		.uleb128 0x18
 7406 19cc 63190000 		.4byte	.LASF329
ARM GAS  C:\Users\EBANO_~1\AppData\Local\Temp\ccEfOEMG.s 			page 159


 7407 19d0 0F       		.byte	0xf
 7408 19d1 AA04     		.2byte	0x4aa
 7409 19d3 C1000000 		.4byte	0xc1
 7410 19d7 02       		.byte	0x2
 7411 19d8 23       		.byte	0x23
 7412 19d9 03       		.uleb128 0x3
 7413 19da 18       		.uleb128 0x18
 7414 19db 470E0000 		.4byte	.LASF392
 7415 19df 0F       		.byte	0xf
 7416 19e0 AE04     		.2byte	0x4ae
 7417 19e2 9C0A0000 		.4byte	0xa9c
 7418 19e6 02       		.byte	0x2
 7419 19e7 23       		.byte	0x23
 7420 19e8 04       		.uleb128 0x4
 7421 19e9 18       		.uleb128 0x18
 7422 19ea E1010000 		.4byte	.LASF393
 7423 19ee 0F       		.byte	0xf
 7424 19ef B204     		.2byte	0x4b2
 7425 19f1 9C0A0000 		.4byte	0xa9c
 7426 19f5 02       		.byte	0x2
 7427 19f6 23       		.byte	0x23
 7428 19f7 08       		.uleb128 0x8
 7429 19f8 00       		.byte	0
 7430 19f9 0C       		.uleb128 0xc
 7431 19fa 6D160000 		.4byte	.LASF394
 7432 19fe 0F       		.byte	0xf
 7433 19ff B304     		.2byte	0x4b3
 7434 1a01 91190000 		.4byte	0x1991
 7435 1a05 19       		.uleb128 0x19
 7436 1a06 961F0000 		.4byte	.LASF395
 7437 1a0a 0C       		.byte	0xc
 7438 1a0b 0F       		.byte	0xf
 7439 1a0c B804     		.2byte	0x4b8
 7440 1a0e 5E1A0000 		.4byte	0x1a5e
 7441 1a12 18       		.uleb128 0x18
 7442 1a13 9C020000 		.4byte	.LASF396
 7443 1a17 0F       		.byte	0xf
 7444 1a18 BD04     		.2byte	0x4bd
 7445 1a1a 9C0A0000 		.4byte	0xa9c
 7446 1a1e 02       		.byte	0x2
 7447 1a1f 23       		.byte	0x23
 7448 1a20 00       		.uleb128 0
 7449 1a21 18       		.uleb128 0x18
 7450 1a22 07020000 		.4byte	.LASF397
 7451 1a26 0F       		.byte	0xf
 7452 1a27 C104     		.2byte	0x4c1
 7453 1a29 9C0A0000 		.4byte	0xa9c
 7454 1a2d 02       		.byte	0x2
 7455 1a2e 23       		.byte	0x23
 7456 1a2f 04       		.uleb128 0x4
 7457 1a30 18       		.uleb128 0x18
 7458 1a31 AD1D0000 		.4byte	.LASF324
 7459 1a35 0F       		.byte	0xf
 7460 1a36 C504     		.2byte	0x4c5
 7461 1a38 B1000000 		.4byte	0xb1
 7462 1a3c 02       		.byte	0x2
 7463 1a3d 23       		.byte	0x23
ARM GAS  C:\Users\EBANO_~1\AppData\Local\Temp\ccEfOEMG.s 			page 160


 7464 1a3e 08       		.uleb128 0x8
 7465 1a3f 18       		.uleb128 0x18
 7466 1a40 03110000 		.4byte	.LASF330
 7467 1a44 0F       		.byte	0xf
 7468 1a45 C904     		.2byte	0x4c9
 7469 1a47 1A0B0000 		.4byte	0xb1a
 7470 1a4b 02       		.byte	0x2
 7471 1a4c 23       		.byte	0x23
 7472 1a4d 09       		.uleb128 0x9
 7473 1a4e 18       		.uleb128 0x18
 7474 1a4f 52130000 		.4byte	.LASF391
 7475 1a53 0F       		.byte	0xf
 7476 1a54 CD04     		.2byte	0x4cd
 7477 1a56 1A0B0000 		.4byte	0xb1a
 7478 1a5a 02       		.byte	0x2
 7479 1a5b 23       		.byte	0x23
 7480 1a5c 0A       		.uleb128 0xa
 7481 1a5d 00       		.byte	0
 7482 1a5e 0C       		.uleb128 0xc
 7483 1a5f 12020000 		.4byte	.LASF398
 7484 1a63 0F       		.byte	0xf
 7485 1a64 CE04     		.2byte	0x4ce
 7486 1a66 051A0000 		.4byte	0x1a05
 7487 1a6a 19       		.uleb128 0x19
 7488 1a6b 24050000 		.4byte	.LASF399
 7489 1a6f 08       		.byte	0x8
 7490 1a70 0F       		.byte	0xf
 7491 1a71 D304     		.2byte	0x4d3
 7492 1a73 961A0000 		.4byte	0x1a96
 7493 1a77 18       		.uleb128 0x18
 7494 1a78 301D0000 		.4byte	.LASF378
 7495 1a7c 0F       		.byte	0xf
 7496 1a7d D804     		.2byte	0x4d8
 7497 1a7f 94110000 		.4byte	0x1194
 7498 1a83 02       		.byte	0x2
 7499 1a84 23       		.byte	0x23
 7500 1a85 00       		.uleb128 0
 7501 1a86 18       		.uleb128 0x18
 7502 1a87 0B030000 		.4byte	.LASF379
 7503 1a8b 0F       		.byte	0xf
 7504 1a8c DC04     		.2byte	0x4dc
 7505 1a8e C1000000 		.4byte	0xc1
 7506 1a92 02       		.byte	0x2
 7507 1a93 23       		.byte	0x23
 7508 1a94 04       		.uleb128 0x4
 7509 1a95 00       		.byte	0
 7510 1a96 0C       		.uleb128 0xc
 7511 1a97 63120000 		.4byte	.LASF400
 7512 1a9b 0F       		.byte	0xf
 7513 1a9c DD04     		.2byte	0x4dd
 7514 1a9e 6A1A0000 		.4byte	0x1a6a
 7515 1aa2 19       		.uleb128 0x19
 7516 1aa3 741C0000 		.4byte	.LASF401
 7517 1aa7 01       		.byte	0x1
 7518 1aa8 0F       		.byte	0xf
 7519 1aa9 E204     		.2byte	0x4e2
 7520 1aab BF1A0000 		.4byte	0x1abf
ARM GAS  C:\Users\EBANO_~1\AppData\Local\Temp\ccEfOEMG.s 			page 161


 7521 1aaf 18       		.uleb128 0x18
 7522 1ab0 0B030000 		.4byte	.LASF379
 7523 1ab4 0F       		.byte	0xf
 7524 1ab5 E704     		.2byte	0x4e7
 7525 1ab7 C1000000 		.4byte	0xc1
 7526 1abb 02       		.byte	0x2
 7527 1abc 23       		.byte	0x23
 7528 1abd 00       		.uleb128 0
 7529 1abe 00       		.byte	0
 7530 1abf 0C       		.uleb128 0xc
 7531 1ac0 64080000 		.4byte	.LASF402
 7532 1ac4 0F       		.byte	0xf
 7533 1ac5 E804     		.2byte	0x4e8
 7534 1ac7 A21A0000 		.4byte	0x1aa2
 7535 1acb 19       		.uleb128 0x19
 7536 1acc 891C0000 		.4byte	.LASF403
 7537 1ad0 10       		.byte	0x10
 7538 1ad1 0F       		.byte	0xf
 7539 1ad2 ED04     		.2byte	0x4ed
 7540 1ad4 331B0000 		.4byte	0x1b33
 7541 1ad8 18       		.uleb128 0x18
 7542 1ad9 63190000 		.4byte	.LASF329
 7543 1add 0F       		.byte	0xf
 7544 1ade F204     		.2byte	0x4f2
 7545 1ae0 C1000000 		.4byte	0xc1
 7546 1ae4 02       		.byte	0x2
 7547 1ae5 23       		.byte	0x23
 7548 1ae6 00       		.uleb128 0
 7549 1ae7 18       		.uleb128 0x18
 7550 1ae8 AD1D0000 		.4byte	.LASF324
 7551 1aec 0F       		.byte	0xf
 7552 1aed F604     		.2byte	0x4f6
 7553 1aef B1000000 		.4byte	0xb1
 7554 1af3 02       		.byte	0x2
 7555 1af4 23       		.byte	0x23
 7556 1af5 01       		.uleb128 0x1
 7557 1af6 18       		.uleb128 0x18
 7558 1af7 9E1A0000 		.4byte	.LASF341
 7559 1afb 0F       		.byte	0xf
 7560 1afc FA04     		.2byte	0x4fa
 7561 1afe B1000000 		.4byte	0xb1
 7562 1b02 02       		.byte	0x2
 7563 1b03 23       		.byte	0x23
 7564 1b04 02       		.uleb128 0x2
 7565 1b05 18       		.uleb128 0x18
 7566 1b06 E7030000 		.4byte	.LASF363
 7567 1b0a 0F       		.byte	0xf
 7568 1b0b FE04     		.2byte	0x4fe
 7569 1b0d 8D110000 		.4byte	0x118d
 7570 1b11 02       		.byte	0x2
 7571 1b12 23       		.byte	0x23
 7572 1b13 04       		.uleb128 0x4
 7573 1b14 18       		.uleb128 0x18
 7574 1b15 FC120000 		.4byte	.LASF364
 7575 1b19 0F       		.byte	0xf
 7576 1b1a 0205     		.2byte	0x502
 7577 1b1c 8D110000 		.4byte	0x118d
ARM GAS  C:\Users\EBANO_~1\AppData\Local\Temp\ccEfOEMG.s 			page 162


 7578 1b20 02       		.byte	0x2
 7579 1b21 23       		.byte	0x23
 7580 1b22 08       		.uleb128 0x8
 7581 1b23 18       		.uleb128 0x18
 7582 1b24 A70A0000 		.4byte	.LASF404
 7583 1b28 0F       		.byte	0xf
 7584 1b29 0605     		.2byte	0x506
 7585 1b2b DC000000 		.4byte	0xdc
 7586 1b2f 02       		.byte	0x2
 7587 1b30 23       		.byte	0x23
 7588 1b31 0C       		.uleb128 0xc
 7589 1b32 00       		.byte	0
 7590 1b33 0C       		.uleb128 0xc
 7591 1b34 DE140000 		.4byte	.LASF405
 7592 1b38 0F       		.byte	0xf
 7593 1b39 0705     		.2byte	0x507
 7594 1b3b CB1A0000 		.4byte	0x1acb
 7595 1b3f 19       		.uleb128 0x19
 7596 1b40 FE050000 		.4byte	.LASF406
 7597 1b44 0C       		.byte	0xc
 7598 1b45 0F       		.byte	0xf
 7599 1b46 0C05     		.2byte	0x50c
 7600 1b48 7A1B0000 		.4byte	0x1b7a
 7601 1b4c 18       		.uleb128 0x18
 7602 1b4d 091D0000 		.4byte	.LASF407
 7603 1b51 0F       		.byte	0xf
 7604 1b52 1105     		.2byte	0x511
 7605 1b54 DC000000 		.4byte	0xdc
 7606 1b58 02       		.byte	0x2
 7607 1b59 23       		.byte	0x23
 7608 1b5a 00       		.uleb128 0
 7609 1b5b 18       		.uleb128 0x18
 7610 1b5c D70E0000 		.4byte	.LASF408
 7611 1b60 0F       		.byte	0xf
 7612 1b61 1505     		.2byte	0x515
 7613 1b63 F2000000 		.4byte	0xf2
 7614 1b67 02       		.byte	0x2
 7615 1b68 23       		.byte	0x23
 7616 1b69 04       		.uleb128 0x4
 7617 1b6a 18       		.uleb128 0x18
 7618 1b6b DA1C0000 		.4byte	.LASF209
 7619 1b6f 0F       		.byte	0xf
 7620 1b70 1905     		.2byte	0x519
 7621 1b72 F2000000 		.4byte	0xf2
 7622 1b76 02       		.byte	0x2
 7623 1b77 23       		.byte	0x23
 7624 1b78 08       		.uleb128 0x8
 7625 1b79 00       		.byte	0
 7626 1b7a 0C       		.uleb128 0xc
 7627 1b7b 311F0000 		.4byte	.LASF409
 7628 1b7f 0F       		.byte	0xf
 7629 1b80 1A05     		.2byte	0x51a
 7630 1b82 3F1B0000 		.4byte	0x1b3f
 7631 1b86 11       		.uleb128 0x11
 7632 1b87 171B0000 		.4byte	.LASF410
 7633 1b8b 06       		.byte	0x6
 7634 1b8c 10       		.byte	0x10
ARM GAS  C:\Users\EBANO_~1\AppData\Local\Temp\ccEfOEMG.s 			page 163


 7635 1b8d 2B       		.byte	0x2b
 7636 1b8e D91B0000 		.4byte	0x1bd9
 7637 1b92 10       		.uleb128 0x10
 7638 1b93 71040000 		.4byte	.LASF411
 7639 1b97 10       		.byte	0x10
 7640 1b98 30       		.byte	0x30
 7641 1b99 C1000000 		.4byte	0xc1
 7642 1b9d 02       		.byte	0x2
 7643 1b9e 23       		.byte	0x23
 7644 1b9f 00       		.uleb128 0
 7645 1ba0 10       		.uleb128 0x10
 7646 1ba1 AD1D0000 		.4byte	.LASF324
 7647 1ba5 10       		.byte	0x10
 7648 1ba6 34       		.byte	0x34
 7649 1ba7 B1000000 		.4byte	0xb1
 7650 1bab 02       		.byte	0x2
 7651 1bac 23       		.byte	0x23
 7652 1bad 01       		.uleb128 0x1
 7653 1bae 10       		.uleb128 0x10
 7654 1baf 9E1A0000 		.4byte	.LASF341
 7655 1bb3 10       		.byte	0x10
 7656 1bb4 38       		.byte	0x38
 7657 1bb5 B1000000 		.4byte	0xb1
 7658 1bb9 02       		.byte	0x2
 7659 1bba 23       		.byte	0x23
 7660 1bbb 02       		.uleb128 0x2
 7661 1bbc 10       		.uleb128 0x10
 7662 1bbd FF070000 		.4byte	.LASF412
 7663 1bc1 10       		.byte	0x10
 7664 1bc2 3C       		.byte	0x3c
 7665 1bc3 C1000000 		.4byte	0xc1
 7666 1bc7 02       		.byte	0x2
 7667 1bc8 23       		.byte	0x23
 7668 1bc9 03       		.uleb128 0x3
 7669 1bca 10       		.uleb128 0x10
 7670 1bcb BA0D0000 		.4byte	.LASF413
 7671 1bcf 10       		.byte	0x10
 7672 1bd0 40       		.byte	0x40
 7673 1bd1 DC000000 		.4byte	0xdc
 7674 1bd5 02       		.byte	0x2
 7675 1bd6 23       		.byte	0x23
 7676 1bd7 04       		.uleb128 0x4
 7677 1bd8 00       		.byte	0
 7678 1bd9 03       		.uleb128 0x3
 7679 1bda 000C0000 		.4byte	.LASF414
 7680 1bde 10       		.byte	0x10
 7681 1bdf 41       		.byte	0x41
 7682 1be0 861B0000 		.4byte	0x1b86
 7683 1be4 11       		.uleb128 0x11
 7684 1be5 14000000 		.4byte	.LASF415
 7685 1be9 20       		.byte	0x20
 7686 1bea 10       		.byte	0x10
 7687 1beb 43       		.byte	0x43
 7688 1bec D11C0000 		.4byte	0x1cd1
 7689 1bf0 10       		.uleb128 0x10
 7690 1bf1 C8070000 		.4byte	.LASF368
 7691 1bf5 10       		.byte	0x10
ARM GAS  C:\Users\EBANO_~1\AppData\Local\Temp\ccEfOEMG.s 			page 164


 7692 1bf6 48       		.byte	0x48
 7693 1bf7 0F0B0000 		.4byte	0xb0f
 7694 1bfb 02       		.byte	0x2
 7695 1bfc 23       		.byte	0x23
 7696 1bfd 00       		.uleb128 0
 7697 1bfe 10       		.uleb128 0x10
 7698 1bff B6140000 		.4byte	.LASF416
 7699 1c03 10       		.byte	0x10
 7700 1c04 4C       		.byte	0x4c
 7701 1c05 C1000000 		.4byte	0xc1
 7702 1c09 02       		.byte	0x2
 7703 1c0a 23       		.byte	0x23
 7704 1c0b 04       		.uleb128 0x4
 7705 1c0c 10       		.uleb128 0x10
 7706 1c0d C2010000 		.4byte	.LASF370
 7707 1c11 10       		.byte	0x10
 7708 1c12 50       		.byte	0x50
 7709 1c13 1A0B0000 		.4byte	0xb1a
 7710 1c17 02       		.byte	0x2
 7711 1c18 23       		.byte	0x23
 7712 1c19 05       		.uleb128 0x5
 7713 1c1a 10       		.uleb128 0x10
 7714 1c1b AD1D0000 		.4byte	.LASF324
 7715 1c1f 10       		.byte	0x10
 7716 1c20 54       		.byte	0x54
 7717 1c21 B1000000 		.4byte	0xb1
 7718 1c25 02       		.byte	0x2
 7719 1c26 23       		.byte	0x23
 7720 1c27 06       		.uleb128 0x6
 7721 1c28 10       		.uleb128 0x10
 7722 1c29 9E1A0000 		.4byte	.LASF341
 7723 1c2d 10       		.byte	0x10
 7724 1c2e 58       		.byte	0x58
 7725 1c2f B1000000 		.4byte	0xb1
 7726 1c33 02       		.byte	0x2
 7727 1c34 23       		.byte	0x23
 7728 1c35 07       		.uleb128 0x7
 7729 1c36 10       		.uleb128 0x10
 7730 1c37 71040000 		.4byte	.LASF411
 7731 1c3b 10       		.byte	0x10
 7732 1c3c 5C       		.byte	0x5c
 7733 1c3d C1000000 		.4byte	0xc1
 7734 1c41 02       		.byte	0x2
 7735 1c42 23       		.byte	0x23
 7736 1c43 08       		.uleb128 0x8
 7737 1c44 10       		.uleb128 0x10
 7738 1c45 C80A0000 		.4byte	.LASF371
 7739 1c49 10       		.byte	0x10
 7740 1c4a 60       		.byte	0x60
 7741 1c4b B1000000 		.4byte	0xb1
 7742 1c4f 02       		.byte	0x2
 7743 1c50 23       		.byte	0x23
 7744 1c51 09       		.uleb128 0x9
 7745 1c52 10       		.uleb128 0x10
 7746 1c53 11140000 		.4byte	.LASF372
 7747 1c57 10       		.byte	0x10
 7748 1c58 64       		.byte	0x64
ARM GAS  C:\Users\EBANO_~1\AppData\Local\Temp\ccEfOEMG.s 			page 165


 7749 1c59 B1000000 		.4byte	0xb1
 7750 1c5d 02       		.byte	0x2
 7751 1c5e 23       		.byte	0x23
 7752 1c5f 0A       		.uleb128 0xa
 7753 1c60 10       		.uleb128 0x10
 7754 1c61 3C1E0000 		.4byte	.LASF373
 7755 1c65 10       		.byte	0x10
 7756 1c66 68       		.byte	0x68
 7757 1c67 B1000000 		.4byte	0xb1
 7758 1c6b 02       		.byte	0x2
 7759 1c6c 23       		.byte	0x23
 7760 1c6d 0B       		.uleb128 0xb
 7761 1c6e 10       		.uleb128 0x10
 7762 1c6f 310C0000 		.4byte	.LASF417
 7763 1c73 10       		.byte	0x10
 7764 1c74 6C       		.byte	0x6c
 7765 1c75 C1000000 		.4byte	0xc1
 7766 1c79 02       		.byte	0x2
 7767 1c7a 23       		.byte	0x23
 7768 1c7b 0C       		.uleb128 0xc
 7769 1c7c 10       		.uleb128 0x10
 7770 1c7d 821D0000 		.4byte	.LASF318
 7771 1c81 10       		.byte	0x10
 7772 1c82 70       		.byte	0x70
 7773 1c83 9A110000 		.4byte	0x119a
 7774 1c87 02       		.byte	0x2
 7775 1c88 23       		.byte	0x23
 7776 1c89 10       		.uleb128 0x10
 7777 1c8a 10       		.uleb128 0x10
 7778 1c8b FE030000 		.4byte	.LASF418
 7779 1c8f 10       		.byte	0x10
 7780 1c90 74       		.byte	0x74
 7781 1c91 B1000000 		.4byte	0xb1
 7782 1c95 02       		.byte	0x2
 7783 1c96 23       		.byte	0x23
 7784 1c97 14       		.uleb128 0x14
 7785 1c98 10       		.uleb128 0x10
 7786 1c99 44080000 		.4byte	.LASF419
 7787 1c9d 10       		.byte	0x10
 7788 1c9e 78       		.byte	0x78
 7789 1c9f B1000000 		.4byte	0xb1
 7790 1ca3 02       		.byte	0x2
 7791 1ca4 23       		.byte	0x23
 7792 1ca5 15       		.uleb128 0x15
 7793 1ca6 10       		.uleb128 0x10
 7794 1ca7 6D0D0000 		.4byte	.LASF319
 7795 1cab 10       		.byte	0x10
 7796 1cac 7C       		.byte	0x7c
 7797 1cad 94110000 		.4byte	0x1194
 7798 1cb1 02       		.byte	0x2
 7799 1cb2 23       		.byte	0x23
 7800 1cb3 18       		.uleb128 0x18
 7801 1cb4 10       		.uleb128 0x10
 7802 1cb5 7C020000 		.4byte	.LASF420
 7803 1cb9 10       		.byte	0x10
 7804 1cba 80       		.byte	0x80
 7805 1cbb B1000000 		.4byte	0xb1
ARM GAS  C:\Users\EBANO_~1\AppData\Local\Temp\ccEfOEMG.s 			page 166


 7806 1cbf 02       		.byte	0x2
 7807 1cc0 23       		.byte	0x23
 7808 1cc1 1C       		.uleb128 0x1c
 7809 1cc2 10       		.uleb128 0x10
 7810 1cc3 AA040000 		.4byte	.LASF421
 7811 1cc7 10       		.byte	0x10
 7812 1cc8 84       		.byte	0x84
 7813 1cc9 B1000000 		.4byte	0xb1
 7814 1ccd 02       		.byte	0x2
 7815 1cce 23       		.byte	0x23
 7816 1ccf 1D       		.uleb128 0x1d
 7817 1cd0 00       		.byte	0
 7818 1cd1 03       		.uleb128 0x3
 7819 1cd2 EC130000 		.4byte	.LASF422
 7820 1cd6 10       		.byte	0x10
 7821 1cd7 85       		.byte	0x85
 7822 1cd8 E41B0000 		.4byte	0x1be4
 7823 1cdc 11       		.uleb128 0x11
 7824 1cdd 57180000 		.4byte	.LASF423
 7825 1ce1 14       		.byte	0x14
 7826 1ce2 10       		.byte	0x10
 7827 1ce3 87       		.byte	0x87
 7828 1ce4 591D0000 		.4byte	0x1d59
 7829 1ce8 10       		.uleb128 0x10
 7830 1ce9 6D0D0000 		.4byte	.LASF319
 7831 1ced 10       		.byte	0x10
 7832 1cee 8C       		.byte	0x8c
 7833 1cef 94110000 		.4byte	0x1194
 7834 1cf3 02       		.byte	0x2
 7835 1cf4 23       		.byte	0x23
 7836 1cf5 00       		.uleb128 0
 7837 1cf6 10       		.uleb128 0x10
 7838 1cf7 20140000 		.4byte	.LASF424
 7839 1cfb 10       		.byte	0x10
 7840 1cfc 90       		.byte	0x90
 7841 1cfd 591D0000 		.4byte	0x1d59
 7842 1d01 02       		.byte	0x2
 7843 1d02 23       		.byte	0x23
 7844 1d03 04       		.uleb128 0x4
 7845 1d04 10       		.uleb128 0x10
 7846 1d05 99210000 		.4byte	.LASF390
 7847 1d09 10       		.byte	0x10
 7848 1d0a 94       		.byte	0x94
 7849 1d0b 1A0B0000 		.4byte	0xb1a
 7850 1d0f 02       		.byte	0x2
 7851 1d10 23       		.byte	0x23
 7852 1d11 08       		.uleb128 0x8
 7853 1d12 10       		.uleb128 0x10
 7854 1d13 03110000 		.4byte	.LASF330
 7855 1d17 10       		.byte	0x10
 7856 1d18 98       		.byte	0x98
 7857 1d19 1A0B0000 		.4byte	0xb1a
 7858 1d1d 02       		.byte	0x2
 7859 1d1e 23       		.byte	0x23
 7860 1d1f 09       		.uleb128 0x9
 7861 1d20 10       		.uleb128 0x10
 7862 1d21 52130000 		.4byte	.LASF391
ARM GAS  C:\Users\EBANO_~1\AppData\Local\Temp\ccEfOEMG.s 			page 167


 7863 1d25 10       		.byte	0x10
 7864 1d26 9C       		.byte	0x9c
 7865 1d27 1A0B0000 		.4byte	0xb1a
 7866 1d2b 02       		.byte	0x2
 7867 1d2c 23       		.byte	0x23
 7868 1d2d 0A       		.uleb128 0xa
 7869 1d2e 10       		.uleb128 0x10
 7870 1d2f 63190000 		.4byte	.LASF329
 7871 1d33 10       		.byte	0x10
 7872 1d34 A0       		.byte	0xa0
 7873 1d35 C1000000 		.4byte	0xc1
 7874 1d39 02       		.byte	0x2
 7875 1d3a 23       		.byte	0x23
 7876 1d3b 0B       		.uleb128 0xb
 7877 1d3c 10       		.uleb128 0x10
 7878 1d3d 470E0000 		.4byte	.LASF392
 7879 1d41 10       		.byte	0x10
 7880 1d42 A4       		.byte	0xa4
 7881 1d43 9C0A0000 		.4byte	0xa9c
 7882 1d47 02       		.byte	0x2
 7883 1d48 23       		.byte	0x23
 7884 1d49 0C       		.uleb128 0xc
 7885 1d4a 10       		.uleb128 0x10
 7886 1d4b E1010000 		.4byte	.LASF393
 7887 1d4f 10       		.byte	0x10
 7888 1d50 A8       		.byte	0xa8
 7889 1d51 9C0A0000 		.4byte	0xa9c
 7890 1d55 02       		.byte	0x2
 7891 1d56 23       		.byte	0x23
 7892 1d57 10       		.uleb128 0x10
 7893 1d58 00       		.byte	0
 7894 1d59 0A       		.uleb128 0xa
 7895 1d5a 04       		.byte	0x4
 7896 1d5b 7A0B0000 		.4byte	0xb7a
 7897 1d5f 03       		.uleb128 0x3
 7898 1d60 701B0000 		.4byte	.LASF425
 7899 1d64 10       		.byte	0x10
 7900 1d65 A9       		.byte	0xa9
 7901 1d66 DC1C0000 		.4byte	0x1cdc
 7902 1d6a 11       		.uleb128 0x11
 7903 1d6b A7030000 		.4byte	.LASF426
 7904 1d6f 14       		.byte	0x14
 7905 1d70 10       		.byte	0x10
 7906 1d71 AB       		.byte	0xab
 7907 1d72 D91D0000 		.4byte	0x1dd9
 7908 1d76 10       		.uleb128 0x10
 7909 1d77 AB000000 		.4byte	.LASF427
 7910 1d7b 10       		.byte	0x10
 7911 1d7c B0       		.byte	0xb0
 7912 1d7d D91D0000 		.4byte	0x1dd9
 7913 1d81 02       		.byte	0x2
 7914 1d82 23       		.byte	0x23
 7915 1d83 00       		.uleb128 0
 7916 1d84 10       		.uleb128 0x10
 7917 1d85 DA1C0000 		.4byte	.LASF209
 7918 1d89 10       		.byte	0x10
 7919 1d8a B4       		.byte	0xb4
ARM GAS  C:\Users\EBANO_~1\AppData\Local\Temp\ccEfOEMG.s 			page 168


 7920 1d8b F2000000 		.4byte	0xf2
 7921 1d8f 02       		.byte	0x2
 7922 1d90 23       		.byte	0x23
 7923 1d91 04       		.uleb128 0x4
 7924 1d92 10       		.uleb128 0x10
 7925 1d93 C8030000 		.4byte	.LASF312
 7926 1d97 10       		.byte	0x10
 7927 1d98 B8       		.byte	0xb8
 7928 1d99 C1000000 		.4byte	0xc1
 7929 1d9d 02       		.byte	0x2
 7930 1d9e 23       		.byte	0x23
 7931 1d9f 08       		.uleb128 0x8
 7932 1da0 10       		.uleb128 0x10
 7933 1da1 4C060000 		.4byte	.LASF428
 7934 1da5 10       		.byte	0x10
 7935 1da6 BC       		.byte	0xbc
 7936 1da7 C1000000 		.4byte	0xc1
 7937 1dab 02       		.byte	0x2
 7938 1dac 23       		.byte	0x23
 7939 1dad 09       		.uleb128 0x9
 7940 1dae 10       		.uleb128 0x10
 7941 1daf 87120000 		.4byte	.LASF429
 7942 1db3 10       		.byte	0x10
 7943 1db4 C0       		.byte	0xc0
 7944 1db5 C1000000 		.4byte	0xc1
 7945 1db9 02       		.byte	0x2
 7946 1dba 23       		.byte	0x23
 7947 1dbb 0A       		.uleb128 0xa
 7948 1dbc 10       		.uleb128 0x10
 7949 1dbd D70E0000 		.4byte	.LASF408
 7950 1dc1 10       		.byte	0x10
 7951 1dc2 C4       		.byte	0xc4
 7952 1dc3 F2000000 		.4byte	0xf2
 7953 1dc7 02       		.byte	0x2
 7954 1dc8 23       		.byte	0x23
 7955 1dc9 0C       		.uleb128 0xc
 7956 1dca 10       		.uleb128 0x10
 7957 1dcb 091D0000 		.4byte	.LASF407
 7958 1dcf 10       		.byte	0x10
 7959 1dd0 C8       		.byte	0xc8
 7960 1dd1 DC000000 		.4byte	0xdc
 7961 1dd5 02       		.byte	0x2
 7962 1dd6 23       		.byte	0x23
 7963 1dd7 10       		.uleb128 0x10
 7964 1dd8 00       		.byte	0
 7965 1dd9 0A       		.uleb128 0xa
 7966 1dda 04       		.byte	0x4
 7967 1ddb CC000000 		.4byte	0xcc
 7968 1ddf 03       		.uleb128 0x3
 7969 1de0 57010000 		.4byte	.LASF430
 7970 1de4 10       		.byte	0x10
 7971 1de5 C9       		.byte	0xc9
 7972 1de6 6A1D0000 		.4byte	0x1d6a
 7973 1dea 29       		.uleb128 0x29
 7974 1deb 17150000 		.4byte	.LASF432
 7975 1def 11       		.byte	0x11
 7976 1df0 0A01     		.2byte	0x10a
ARM GAS  C:\Users\EBANO_~1\AppData\Local\Temp\ccEfOEMG.s 			page 169


 7977 1df2 41010000 		.4byte	0x141
 7978 1df6 05       		.byte	0x5
 7979 1df7 03       		.byte	0x3
 7980 1df8 F8000000 		.4byte	DataratesIN865
 7981 1dfc 07       		.uleb128 0x7
 7982 1dfd FD000000 		.4byte	0xfd
 7983 1e01 0C1E0000 		.4byte	0x1e0c
 7984 1e05 08       		.uleb128 0x8
 7985 1e06 AA000000 		.4byte	0xaa
 7986 1e0a 07       		.byte	0x7
 7987 1e0b 00       		.byte	0
 7988 1e0c 05       		.uleb128 0x5
 7989 1e0d FC1D0000 		.4byte	0x1dfc
 7990 1e11 29       		.uleb128 0x29
 7991 1e12 10170000 		.4byte	.LASF433
 7992 1e16 11       		.byte	0x11
 7993 1e17 0F01     		.2byte	0x10f
 7994 1e19 0C1E0000 		.4byte	0x1e0c
 7995 1e1d 05       		.byte	0x5
 7996 1e1e 03       		.byte	0x3
 7997 1e1f D8000000 		.4byte	BandwidthsIN865
 7998 1e23 29       		.uleb128 0x29
 7999 1e24 CE040000 		.4byte	.LASF434
 8000 1e28 11       		.byte	0x11
 8001 1e29 1401     		.2byte	0x114
 8002 1e2b 41010000 		.4byte	0x141
 8003 1e2f 05       		.byte	0x5
 8004 1e30 03       		.byte	0x3
 8005 1e31 08010000 		.4byte	MaxPayloadOfDatarateIN865
 8006 1e35 29       		.uleb128 0x29
 8007 1e36 F6200000 		.4byte	.LASF435
 8008 1e3a 11       		.byte	0x11
 8009 1e3b 1901     		.2byte	0x119
 8010 1e3d 41010000 		.4byte	0x141
 8011 1e41 05       		.byte	0x5
 8012 1e42 03       		.byte	0x3
 8013 1e43 10010000 		.4byte	MaxPayloadOfDatarateRepeaterIN865
 8014 1e47 07       		.uleb128 0x7
 8015 1e48 BC000000 		.4byte	0xbc
 8016 1e4c 571E0000 		.4byte	0x1e57
 8017 1e50 08       		.uleb128 0x8
 8018 1e51 AA000000 		.4byte	0xaa
 8019 1e55 07       		.byte	0x7
 8020 1e56 00       		.byte	0
 8021 1e57 05       		.uleb128 0x5
 8022 1e58 471E0000 		.4byte	0x1e47
 8023 1e5c 29       		.uleb128 0x29
 8024 1e5d 560A0000 		.4byte	.LASF436
 8025 1e61 11       		.byte	0x11
 8026 1e62 1E01     		.2byte	0x11e
 8027 1e64 571E0000 		.4byte	0x1e57
 8028 1e68 05       		.byte	0x5
 8029 1e69 03       		.byte	0x3
 8030 1e6a 00010000 		.4byte	EffectiveRx1DrOffsetIN865
 8031 1e6e 11       		.uleb128 0x11
 8032 1e6f 6D130000 		.4byte	.LASF437
 8033 1e73 D4       		.byte	0xd4
ARM GAS  C:\Users\EBANO_~1\AppData\Local\Temp\ccEfOEMG.s 			page 170


 8034 1e74 01       		.byte	0x1
 8035 1e75 2B       		.byte	0x2b
 8036 1e76 B61E0000 		.4byte	0x1eb6
 8037 1e7a 10       		.uleb128 0x10
 8038 1e7b 6D0D0000 		.4byte	.LASF319
 8039 1e7f 01       		.byte	0x1
 8040 1e80 30       		.byte	0x30
 8041 1e81 B61E0000 		.4byte	0x1eb6
 8042 1e85 02       		.byte	0x2
 8043 1e86 23       		.byte	0x23
 8044 1e87 00       		.uleb128 0
 8045 1e88 10       		.uleb128 0x10
 8046 1e89 20140000 		.4byte	.LASF424
 8047 1e8d 01       		.byte	0x1
 8048 1e8e 34       		.byte	0x34
 8049 1e8f C61E0000 		.4byte	0x1ec6
 8050 1e93 03       		.byte	0x3
 8051 1e94 23       		.byte	0x23
 8052 1e95 C001     		.uleb128 0xc0
 8053 1e97 10       		.uleb128 0x10
 8054 1e98 821D0000 		.4byte	.LASF318
 8055 1e9c 01       		.byte	0x1
 8056 1e9d 38       		.byte	0x38
 8057 1e9e D61E0000 		.4byte	0x1ed6
 8058 1ea2 03       		.byte	0x3
 8059 1ea3 23       		.byte	0x23
 8060 1ea4 D001     		.uleb128 0xd0
 8061 1ea6 10       		.uleb128 0x10
 8062 1ea7 9F150000 		.4byte	.LASF438
 8063 1eab 01       		.byte	0x1
 8064 1eac 3C       		.byte	0x3c
 8065 1ead D61E0000 		.4byte	0x1ed6
 8066 1eb1 03       		.byte	0x3
 8067 1eb2 23       		.byte	0x23
 8068 1eb3 D201     		.uleb128 0xd2
 8069 1eb5 00       		.byte	0
 8070 1eb6 07       		.uleb128 0x7
 8071 1eb7 46110000 		.4byte	0x1146
 8072 1ebb C61E0000 		.4byte	0x1ec6
 8073 1ebf 08       		.uleb128 0x8
 8074 1ec0 AA000000 		.4byte	0xaa
 8075 1ec4 0F       		.byte	0xf
 8076 1ec5 00       		.byte	0
 8077 1ec6 07       		.uleb128 0x7
 8078 1ec7 7A0B0000 		.4byte	0xb7a
 8079 1ecb D61E0000 		.4byte	0x1ed6
 8080 1ecf 08       		.uleb128 0x8
 8081 1ed0 AA000000 		.4byte	0xaa
 8082 1ed4 00       		.byte	0
 8083 1ed5 00       		.byte	0
 8084 1ed6 07       		.uleb128 0x7
 8085 1ed7 DC000000 		.4byte	0xdc
 8086 1edb E61E0000 		.4byte	0x1ee6
 8087 1edf 08       		.uleb128 0x8
 8088 1ee0 AA000000 		.4byte	0xaa
 8089 1ee4 00       		.byte	0
 8090 1ee5 00       		.byte	0
ARM GAS  C:\Users\EBANO_~1\AppData\Local\Temp\ccEfOEMG.s 			page 171


 8091 1ee6 03       		.uleb128 0x3
 8092 1ee7 D5150000 		.4byte	.LASF439
 8093 1eeb 01       		.byte	0x1
 8094 1eec 3D       		.byte	0x3d
 8095 1eed 6E1E0000 		.4byte	0x1e6e
 8096 1ef1 2A       		.uleb128 0x2a
 8097 1ef2 2A1F0000 		.4byte	.LASF333
 8098 1ef6 01       		.byte	0x1
 8099 1ef7 42       		.byte	0x42
 8100 1ef8 E61E0000 		.4byte	0x1ee6
 8101 1efc 05       		.byte	0x5
 8102 1efd 03       		.byte	0x3
 8103 1efe 00000000 		.4byte	NvmCtx
 8104 1f02 2B       		.uleb128 0x2b
 8105 1f03 01       		.byte	0x1
 8106 1f04 24200000 		.4byte	.LASF445
 8107 1f08 01       		.byte	0x1
 8108 1f09 0104     		.2byte	0x401
 8109 1f0b 01       		.byte	0x1
 8110 1f0c 00000000 		.4byte	.LFB66
 8111 1f10 38000000 		.4byte	.LFE66
 8112 1f14 00000000 		.4byte	.LLST114
 8113 1f18 01       		.byte	0x1
 8114 1f19 5D1F0000 		.4byte	0x1f5d
 8115 1f1d 2C       		.uleb128 0x2c
 8116 1f1e 661C0000 		.4byte	.LASF440
 8117 1f22 01       		.byte	0x1
 8118 1f23 0104     		.2byte	0x401
 8119 1f25 5D1F0000 		.4byte	0x1f5d
 8120 1f29 2C000000 		.4byte	.LLST115
 8121 1f2d 2C       		.uleb128 0x2c
 8122 1f2e 0A0E0000 		.4byte	.LASF441
 8123 1f32 01       		.byte	0x1
 8124 1f33 0104     		.2byte	0x401
 8125 1f35 890A0000 		.4byte	0xa89
 8126 1f39 4D000000 		.4byte	.LLST116
 8127 1f3d 29       		.uleb128 0x29
 8128 1f3e 121E0000 		.4byte	.LASF442
 8129 1f42 01       		.byte	0x1
 8130 1f43 0304     		.2byte	0x403
 8131 1f45 DF1D0000 		.4byte	0x1ddf
 8132 1f49 02       		.byte	0x2
 8133 1f4a 91       		.byte	0x91
 8134 1f4b 64       		.sleb128 -28
 8135 1f4c 2D       		.uleb128 0x2d
 8136 1f4d 28000000 		.4byte	.LVL341
 8137 1f51 A4320000 		.4byte	0x32a4
 8138 1f55 2E       		.uleb128 0x2e
 8139 1f56 01       		.byte	0x1
 8140 1f57 50       		.byte	0x50
 8141 1f58 02       		.byte	0x2
 8142 1f59 91       		.byte	0x91
 8143 1f5a 64       		.sleb128 -28
 8144 1f5b 00       		.byte	0
 8145 1f5c 00       		.byte	0
 8146 1f5d 0A       		.uleb128 0xa
 8147 1f5e 04       		.byte	0x4
ARM GAS  C:\Users\EBANO_~1\AppData\Local\Temp\ccEfOEMG.s 			page 172


 8148 1f5f 7A1B0000 		.4byte	0x1b7a
 8149 1f63 2F       		.uleb128 0x2f
 8150 1f64 01       		.byte	0x1
 8151 1f65 7D1F0000 		.4byte	.LASF457
 8152 1f69 01       		.byte	0x1
 8153 1f6a FB03     		.2byte	0x3fb
 8154 1f6c 01       		.byte	0x1
 8155 1f6d C1000000 		.4byte	0xc1
 8156 1f71 00000000 		.4byte	.LFB65
 8157 1f75 20000000 		.4byte	.LFE65
 8158 1f79 02       		.byte	0x2
 8159 1f7a 7D       		.byte	0x7d
 8160 1f7b 00       		.sleb128 0
 8161 1f7c 01       		.byte	0x1
 8162 1f7d B11F0000 		.4byte	0x1fb1
 8163 1f81 2C       		.uleb128 0x2c
 8164 1f82 871A0000 		.4byte	.LASF443
 8165 1f86 01       		.byte	0x1
 8166 1f87 FB03     		.2byte	0x3fb
 8167 1f89 C1000000 		.4byte	0xc1
 8168 1f8d 79000000 		.4byte	.LLST111
 8169 1f91 30       		.uleb128 0x30
 8170 1f92 647200   		.ascii	"dr\000"
 8171 1f95 01       		.byte	0x1
 8172 1f96 FB03     		.2byte	0x3fb
 8173 1f98 B1000000 		.4byte	0xb1
 8174 1f9c 9A000000 		.4byte	.LLST112
 8175 1fa0 2C       		.uleb128 0x2c
 8176 1fa1 18210000 		.4byte	.LASF444
 8177 1fa5 01       		.byte	0x1
 8178 1fa6 FB03     		.2byte	0x3fb
 8179 1fa8 B1000000 		.4byte	0xb1
 8180 1fac BB000000 		.4byte	.LLST113
 8181 1fb0 00       		.byte	0
 8182 1fb1 2B       		.uleb128 0x2b
 8183 1fb2 01       		.byte	0x1
 8184 1fb3 221C0000 		.4byte	.LASF446
 8185 1fb7 01       		.byte	0x1
 8186 1fb8 EF03     		.2byte	0x3ef
 8187 1fba 01       		.byte	0x1
 8188 1fbb 00000000 		.4byte	.LFB64
 8189 1fbf 50000000 		.4byte	.LFE64
 8190 1fc3 DC000000 		.4byte	.LLST106
 8191 1fc7 01       		.byte	0x1
 8192 1fc8 5D200000 		.4byte	0x205d
 8193 1fcc 2C       		.uleb128 0x2c
 8194 1fcd E4050000 		.4byte	.LASF447
 8195 1fd1 01       		.byte	0x1
 8196 1fd2 EF03     		.2byte	0x3ef
 8197 1fd4 5D200000 		.4byte	0x205d
 8198 1fd8 08010000 		.4byte	.LLST107
 8199 1fdc 31       		.uleb128 0x31
 8200 1fdd 9A130000 		.4byte	.LASF450
 8201 1fe1 01       		.byte	0x1
 8202 1fe2 F103     		.2byte	0x3f1
 8203 1fe4 B1000000 		.4byte	0xb1
 8204 1fe8 32       		.uleb128 0x32
ARM GAS  C:\Users\EBANO_~1\AppData\Local\Temp\ccEfOEMG.s 			page 173


 8205 1fe9 F3050000 		.4byte	.LASF448
 8206 1fed 01       		.byte	0x1
 8207 1fee F203     		.2byte	0x3f2
 8208 1ff0 B1000000 		.4byte	0xb1
 8209 1ff4 34010000 		.4byte	.LLST108
 8210 1ff8 32       		.uleb128 0x32
 8211 1ff9 0C200000 		.4byte	.LASF449
 8212 1ffd 01       		.byte	0x1
 8213 1ffe F303     		.2byte	0x3f3
 8214 2000 F2000000 		.4byte	0xf2
 8215 2004 53010000 		.4byte	.LLST109
 8216 2008 33       		.uleb128 0x33
 8217 2009 73300000 		.4byte	0x3073
 8218 200d 14000000 		.4byte	.LBB148
 8219 2011 38020000 		.4byte	.Ldebug_ranges0+0x238
 8220 2015 01       		.byte	0x1
 8221 2016 F103     		.2byte	0x3f1
 8222 2018 47200000 		.4byte	0x2047
 8223 201c 34       		.uleb128 0x34
 8224 201d 9A300000 		.4byte	0x309a
 8225 2021 66010000 		.4byte	.LLST110
 8226 2025 35       		.uleb128 0x35
 8227 2026 A5300000 		.4byte	0x30a5
 8228 202a 06       		.byte	0x6
 8229 202b 03       		.byte	0x3
 8230 202c D0000000 		.4byte	NvmCtx+208
 8231 2030 9F       		.byte	0x9f
 8232 2031 36       		.uleb128 0x36
 8233 2032 8F300000 		.4byte	0x308f
 8234 2036 36       		.uleb128 0x36
 8235 2037 84300000 		.4byte	0x3084
 8236 203b 37       		.uleb128 0x37
 8237 203c 38020000 		.4byte	.Ldebug_ranges0+0x238
 8238 2040 38       		.uleb128 0x38
 8239 2041 B0300000 		.4byte	0x30b0
 8240 2045 00       		.byte	0
 8241 2046 00       		.byte	0
 8242 2047 39       		.uleb128 0x39
 8243 2048 36000000 		.4byte	.LVL330
 8244 204c B2320000 		.4byte	0x32b2
 8245 2050 3A       		.uleb128 0x3a
 8246 2051 44000000 		.4byte	.LVL332
 8247 2055 2E       		.uleb128 0x2e
 8248 2056 01       		.byte	0x1
 8249 2057 50       		.byte	0x50
 8250 2058 02       		.byte	0x2
 8251 2059 75       		.byte	0x75
 8252 205a 00       		.sleb128 0
 8253 205b 00       		.byte	0
 8254 205c 00       		.byte	0
 8255 205d 0A       		.uleb128 0xa
 8256 205e 04       		.byte	0x4
 8257 205f 331B0000 		.4byte	0x1b33
 8258 2063 3B       		.uleb128 0x3b
 8259 2064 01       		.byte	0x1
 8260 2065 71140000 		.4byte	.LASF451
 8261 2069 01       		.byte	0x1
ARM GAS  C:\Users\EBANO_~1\AppData\Local\Temp\ccEfOEMG.s 			page 174


 8262 206a E003     		.2byte	0x3e0
 8263 206c 01       		.byte	0x1
 8264 206d 1A0B0000 		.4byte	0xb1a
 8265 2071 01       		.byte	0x1
 8266 2072 8E200000 		.4byte	0x208e
 8267 2076 3C       		.uleb128 0x3c
 8268 2077 E11F0000 		.4byte	.LASF453
 8269 207b 01       		.byte	0x1
 8270 207c E003     		.2byte	0x3e0
 8271 207e 8E200000 		.4byte	0x208e
 8272 2082 3D       		.uleb128 0x3d
 8273 2083 696400   		.ascii	"id\000"
 8274 2086 01       		.byte	0x1
 8275 2087 E203     		.2byte	0x3e2
 8276 2089 C1000000 		.4byte	0xc1
 8277 208d 00       		.byte	0
 8278 208e 0A       		.uleb128 0xa
 8279 208f 04       		.byte	0x4
 8280 2090 BF1A0000 		.4byte	0x1abf
 8281 2094 3B       		.uleb128 0x3b
 8282 2095 01       		.byte	0x1
 8283 2096 76180000 		.4byte	.LASF452
 8284 209a 01       		.byte	0x1
 8285 209b A503     		.2byte	0x3a5
 8286 209d 01       		.byte	0x1
 8287 209e 3D120000 		.4byte	0x123d
 8288 20a2 01       		.byte	0x1
 8289 20a3 D7200000 		.4byte	0x20d7
 8290 20a7 3C       		.uleb128 0x3c
 8291 20a8 36130000 		.4byte	.LASF454
 8292 20ac 01       		.byte	0x1
 8293 20ad A503     		.2byte	0x3a5
 8294 20af D7200000 		.4byte	0x20d7
 8295 20b3 31       		.uleb128 0x31
 8296 20b4 8F210000 		.4byte	.LASF455
 8297 20b8 01       		.byte	0x1
 8298 20b9 A703     		.2byte	0x3a7
 8299 20bb 1A0B0000 		.4byte	0xb1a
 8300 20bf 31       		.uleb128 0x31
 8301 20c0 63210000 		.4byte	.LASF456
 8302 20c4 01       		.byte	0x1
 8303 20c5 A803     		.2byte	0x3a8
 8304 20c7 1A0B0000 		.4byte	0xb1a
 8305 20cb 3D       		.uleb128 0x3d
 8306 20cc 696400   		.ascii	"id\000"
 8307 20cf 01       		.byte	0x1
 8308 20d0 A903     		.2byte	0x3a9
 8309 20d2 C1000000 		.4byte	0xc1
 8310 20d6 00       		.byte	0
 8311 20d7 0A       		.uleb128 0xa
 8312 20d8 04       		.byte	0x4
 8313 20d9 961A0000 		.4byte	0x1a96
 8314 20dd 3E       		.uleb128 0x3e
 8315 20de 01       		.byte	0x1
 8316 20df F30D0000 		.4byte	.LASF458
 8317 20e3 01       		.byte	0x1
 8318 20e4 6F03     		.2byte	0x36f
ARM GAS  C:\Users\EBANO_~1\AppData\Local\Temp\ccEfOEMG.s 			page 175


 8319 20e6 01       		.byte	0x1
 8320 20e7 3D120000 		.4byte	0x123d
 8321 20eb 00000000 		.4byte	.LFB61
 8322 20ef BC010000 		.4byte	.LFE61
 8323 20f3 86010000 		.4byte	.LLST77
 8324 20f7 01       		.byte	0x1
 8325 20f8 BD220000 		.4byte	0x22bd
 8326 20fc 2C       		.uleb128 0x2c
 8327 20fd A1180000 		.4byte	.LASF459
 8328 2101 01       		.byte	0x1
 8329 2102 6F03     		.2byte	0x36f
 8330 2104 BD220000 		.4byte	0x22bd
 8331 2108 BF010000 		.4byte	.LLST78
 8332 210c 2C       		.uleb128 0x2c
 8333 210d D60F0000 		.4byte	.LASF460
 8334 2111 01       		.byte	0x1
 8335 2112 6F03     		.2byte	0x36f
 8336 2114 890A0000 		.4byte	0xa89
 8337 2118 1D020000 		.4byte	.LLST79
 8338 211c 2C       		.uleb128 0x2c
 8339 211d F8090000 		.4byte	.LASF461
 8340 2121 01       		.byte	0x1
 8341 2122 6F03     		.2byte	0x36f
 8342 2124 C3220000 		.4byte	0x22c3
 8343 2128 3C020000 		.4byte	.LLST80
 8344 212c 2C       		.uleb128 0x2c
 8345 212d 8C0D0000 		.4byte	.LASF462
 8346 2131 01       		.byte	0x1
 8347 2132 6F03     		.2byte	0x36f
 8348 2134 C3220000 		.4byte	0x22c3
 8349 2138 73020000 		.4byte	.LLST81
 8350 213c 32       		.uleb128 0x32
 8351 213d 5B160000 		.4byte	.LASF463
 8352 2141 01       		.byte	0x1
 8353 2142 7103     		.2byte	0x371
 8354 2144 C1000000 		.4byte	0xc1
 8355 2148 D1020000 		.4byte	.LLST82
 8356 214c 32       		.uleb128 0x32
 8357 214d 8F060000 		.4byte	.LASF464
 8358 2151 01       		.byte	0x1
 8359 2152 7203     		.2byte	0x372
 8360 2154 C1000000 		.4byte	0xc1
 8361 2158 FD020000 		.4byte	.LLST83
 8362 215c 29       		.uleb128 0x29
 8363 215d 4F1A0000 		.4byte	.LASF465
 8364 2161 01       		.byte	0x1
 8365 2162 7303     		.2byte	0x373
 8366 2164 C9220000 		.4byte	0x22c9
 8367 2168 02       		.byte	0x2
 8368 2169 91       		.byte	0x91
 8369 216a 48       		.sleb128 -56
 8370 216b 32       		.uleb128 0x32
 8371 216c FD160000 		.4byte	.LASF466
 8372 2170 01       		.byte	0x1
 8373 2171 7403     		.2byte	0x374
 8374 2173 9C0A0000 		.4byte	0xa9c
 8375 2177 43030000 		.4byte	.LLST84
ARM GAS  C:\Users\EBANO_~1\AppData\Local\Temp\ccEfOEMG.s 			page 176


 8376 217b 33       		.uleb128 0x33
 8377 217c C22F0000 		.4byte	0x2fc2
 8378 2180 6A000000 		.4byte	.LBB124
 8379 2184 C0010000 		.4byte	.Ldebug_ranges0+0x1c0
 8380 2188 01       		.byte	0x1
 8381 2189 8403     		.2byte	0x384
 8382 218b 40220000 		.4byte	0x2240
 8383 218f 34       		.uleb128 0x34
 8384 2190 E92F0000 		.4byte	0x2fe9
 8385 2194 A0030000 		.4byte	.LLST85
 8386 2198 34       		.uleb128 0x34
 8387 2199 F42F0000 		.4byte	0x2ff4
 8388 219d C8030000 		.4byte	.LLST86
 8389 21a1 34       		.uleb128 0x34
 8390 21a2 FF2F0000 		.4byte	0x2fff
 8391 21a6 F0030000 		.4byte	.LLST87
 8392 21aa 34       		.uleb128 0x34
 8393 21ab 15300000 		.4byte	0x3015
 8394 21af 2A040000 		.4byte	.LLST88
 8395 21b3 34       		.uleb128 0x34
 8396 21b4 0A300000 		.4byte	0x300a
 8397 21b8 52040000 		.4byte	.LLST89
 8398 21bc 34       		.uleb128 0x34
 8399 21bd DE2F0000 		.4byte	0x2fde
 8400 21c1 A4040000 		.4byte	.LLST90
 8401 21c5 34       		.uleb128 0x34
 8402 21c6 D32F0000 		.4byte	0x2fd3
 8403 21ca C6040000 		.4byte	.LLST91
 8404 21ce 37       		.uleb128 0x37
 8405 21cf C0010000 		.4byte	.Ldebug_ranges0+0x1c0
 8406 21d3 3F       		.uleb128 0x3f
 8407 21d4 20300000 		.4byte	0x3020
 8408 21d8 0E050000 		.4byte	.LLST92
 8409 21dc 3F       		.uleb128 0x3f
 8410 21dd 2B300000 		.4byte	0x302b
 8411 21e1 86050000 		.4byte	.LLST93
 8412 21e5 40       		.uleb128 0x40
 8413 21e6 36300000 		.4byte	0x3036
 8414 21ea E8010000 		.4byte	.Ldebug_ranges0+0x1e8
 8415 21ee 3F       		.uleb128 0x3f
 8416 21ef 37300000 		.4byte	0x3037
 8417 21f3 DA050000 		.4byte	.LLST94
 8418 21f7 3F       		.uleb128 0x3f
 8419 21f8 40300000 		.4byte	0x3040
 8420 21fc DA050000 		.4byte	.LLST94
 8421 2200 40       		.uleb128 0x40
 8422 2201 49300000 		.4byte	0x3049
 8423 2205 E8010000 		.4byte	.Ldebug_ranges0+0x1e8
 8424 2209 3F       		.uleb128 0x3f
 8425 220a 4A300000 		.4byte	0x304a
 8426 220e FA050000 		.4byte	.LLST96
 8427 2212 41       		.uleb128 0x41
 8428 2213 BE000000 		.4byte	.LVL275
 8429 2217 C0320000 		.4byte	0x32c0
 8430 221b 29220000 		.4byte	0x2229
 8431 221f 2E       		.uleb128 0x2e
 8432 2220 01       		.byte	0x1
ARM GAS  C:\Users\EBANO_~1\AppData\Local\Temp\ccEfOEMG.s 			page 177


 8433 2221 50       		.byte	0x50
 8434 2222 05       		.byte	0x5
 8435 2223 91       		.byte	0x91
 8436 2224 B47F     		.sleb128 -76
 8437 2226 94       		.byte	0x94
 8438 2227 01       		.byte	0x1
 8439 2228 00       		.byte	0
 8440 2229 2D       		.uleb128 0x2d
 8441 222a 6A010000 		.4byte	.LVL290
 8442 222e C0320000 		.4byte	0x32c0
 8443 2232 2E       		.uleb128 0x2e
 8444 2233 01       		.byte	0x1
 8445 2234 50       		.byte	0x50
 8446 2235 05       		.byte	0x5
 8447 2236 91       		.byte	0x91
 8448 2237 B47F     		.sleb128 -76
 8449 2239 94       		.byte	0x94
 8450 223a 01       		.byte	0x1
 8451 223b 00       		.byte	0
 8452 223c 00       		.byte	0
 8453 223d 00       		.byte	0
 8454 223e 00       		.byte	0
 8455 223f 00       		.byte	0
 8456 2240 41       		.uleb128 0x41
 8457 2241 20000000 		.4byte	.LVL259
 8458 2245 CD320000 		.4byte	0x32cd
 8459 2249 5E220000 		.4byte	0x225e
 8460 224d 2E       		.uleb128 0x2e
 8461 224e 01       		.byte	0x1
 8462 224f 50       		.byte	0x50
 8463 2250 02       		.byte	0x2
 8464 2251 91       		.byte	0x91
 8465 2252 48       		.sleb128 -56
 8466 2253 2E       		.uleb128 0x2e
 8467 2254 01       		.byte	0x1
 8468 2255 51       		.byte	0x51
 8469 2256 01       		.byte	0x1
 8470 2257 30       		.byte	0x30
 8471 2258 2E       		.uleb128 0x2e
 8472 2259 01       		.byte	0x1
 8473 225a 52       		.byte	0x52
 8474 225b 01       		.byte	0x1
 8475 225c 40       		.byte	0x40
 8476 225d 00       		.byte	0
 8477 225e 41       		.uleb128 0x41
 8478 225f 2C000000 		.4byte	.LVL260
 8479 2263 DE320000 		.4byte	0x32de
 8480 2267 7C220000 		.4byte	0x227c
 8481 226b 2E       		.uleb128 0x2e
 8482 226c 01       		.byte	0x1
 8483 226d 50       		.byte	0x50
 8484 226e 02       		.byte	0x2
 8485 226f 75       		.byte	0x75
 8486 2270 00       		.sleb128 0
 8487 2271 2E       		.uleb128 0x2e
 8488 2272 01       		.byte	0x1
 8489 2273 51       		.byte	0x51
ARM GAS  C:\Users\EBANO_~1\AppData\Local\Temp\ccEfOEMG.s 			page 178


 8490 2274 01       		.byte	0x1
 8491 2275 30       		.byte	0x30
 8492 2276 2E       		.uleb128 0x2e
 8493 2277 01       		.byte	0x1
 8494 2278 52       		.byte	0x52
 8495 2279 01       		.byte	0x1
 8496 227a 31       		.byte	0x31
 8497 227b 00       		.byte	0
 8498 227c 39       		.uleb128 0x39
 8499 227d 44000000 		.4byte	.LVL261
 8500 2281 EC320000 		.4byte	0x32ec
 8501 2285 41       		.uleb128 0x41
 8502 2286 5A000000 		.4byte	.LVL262
 8503 228a F9320000 		.4byte	0x32f9
 8504 228e 9E220000 		.4byte	0x229e
 8505 2292 2E       		.uleb128 0x2e
 8506 2293 01       		.byte	0x1
 8507 2294 52       		.byte	0x52
 8508 2295 02       		.byte	0x2
 8509 2296 75       		.byte	0x75
 8510 2297 00       		.sleb128 0
 8511 2298 2E       		.uleb128 0x2e
 8512 2299 01       		.byte	0x1
 8513 229a 53       		.byte	0x53
 8514 229b 01       		.byte	0x1
 8515 229c 31       		.byte	0x31
 8516 229d 00       		.byte	0
 8517 229e 39       		.uleb128 0x39
 8518 229f 16010000 		.4byte	.LVL281
 8519 22a3 EC320000 		.4byte	0x32ec
 8520 22a7 2D       		.uleb128 0x2d
 8521 22a8 A2010000 		.4byte	.LVL296
 8522 22ac 07330000 		.4byte	0x3307
 8523 22b0 2E       		.uleb128 0x2e
 8524 22b1 01       		.byte	0x1
 8525 22b2 50       		.byte	0x50
 8526 22b3 01       		.byte	0x1
 8527 22b4 30       		.byte	0x30
 8528 22b5 2E       		.uleb128 0x2e
 8529 22b6 01       		.byte	0x1
 8530 22b7 51       		.byte	0x51
 8531 22b8 02       		.byte	0x2
 8532 22b9 78       		.byte	0x78
 8533 22ba 7F       		.sleb128 -1
 8534 22bb 00       		.byte	0
 8535 22bc 00       		.byte	0
 8536 22bd 0A       		.uleb128 0xa
 8537 22be 04       		.byte	0x4
 8538 22bf 5E1A0000 		.4byte	0x1a5e
 8539 22c3 0A       		.uleb128 0xa
 8540 22c4 04       		.byte	0x4
 8541 22c5 9C0A0000 		.4byte	0xa9c
 8542 22c9 07       		.uleb128 0x7
 8543 22ca C1000000 		.4byte	0xc1
 8544 22ce D9220000 		.4byte	0x22d9
 8545 22d2 08       		.uleb128 0x8
 8546 22d3 AA000000 		.4byte	0xaa
ARM GAS  C:\Users\EBANO_~1\AppData\Local\Temp\ccEfOEMG.s 			page 179


 8547 22d7 0F       		.byte	0xf
 8548 22d8 00       		.byte	0
 8549 22d9 2B       		.uleb128 0x2b
 8550 22da 01       		.byte	0x1
 8551 22db E9150000 		.4byte	.LASF467
 8552 22df 01       		.byte	0x1
 8553 22e0 5F03     		.2byte	0x35f
 8554 22e2 01       		.byte	0x1
 8555 22e3 00000000 		.4byte	.LFB60
 8556 22e7 34000000 		.4byte	.LFE60
 8557 22eb 6F060000 		.4byte	.LLST75
 8558 22ef 01       		.byte	0x1
 8559 22f0 24230000 		.4byte	0x2324
 8560 22f4 2C       		.uleb128 0x2c
 8561 22f5 AF0C0000 		.4byte	.LASF468
 8562 22f9 01       		.byte	0x1
 8563 22fa 5F03     		.2byte	0x35f
 8564 22fc 24230000 		.4byte	0x2324
 8565 2300 9B060000 		.4byte	.LLST76
 8566 2304 29       		.uleb128 0x29
 8567 2305 181F0000 		.4byte	.LASF469
 8568 2309 01       		.byte	0x1
 8569 230a 6103     		.2byte	0x361
 8570 230c 5F1D0000 		.4byte	0x1d5f
 8571 2310 02       		.byte	0x2
 8572 2311 91       		.byte	0x91
 8573 2312 64       		.sleb128 -28
 8574 2313 2D       		.uleb128 0x2d
 8575 2314 2C000000 		.4byte	.LVL254
 8576 2318 14330000 		.4byte	0x3314
 8577 231c 2E       		.uleb128 0x2e
 8578 231d 01       		.byte	0x1
 8579 231e 50       		.byte	0x50
 8580 231f 02       		.byte	0x2
 8581 2320 91       		.byte	0x91
 8582 2321 64       		.sleb128 -28
 8583 2322 00       		.byte	0
 8584 2323 00       		.byte	0
 8585 2324 0A       		.uleb128 0xa
 8586 2325 04       		.byte	0x4
 8587 2326 F9190000 		.4byte	0x19f9
 8588 232a 2F       		.uleb128 0x2f
 8589 232b 01       		.byte	0x1
 8590 232c CD020000 		.4byte	.LASF470
 8591 2330 01       		.byte	0x1
 8592 2331 5A03     		.2byte	0x35a
 8593 2333 01       		.byte	0x1
 8594 2334 B1000000 		.4byte	0xb1
 8595 2338 00000000 		.4byte	.LFB59
 8596 233c 02000000 		.4byte	.LFE59
 8597 2340 02       		.byte	0x2
 8598 2341 7D       		.byte	0x7d
 8599 2342 00       		.sleb128 0
 8600 2343 01       		.byte	0x1
 8601 2344 65230000 		.4byte	0x2365
 8602 2348 42       		.uleb128 0x42
 8603 2349 63130000 		.4byte	.LASF471
ARM GAS  C:\Users\EBANO_~1\AppData\Local\Temp\ccEfOEMG.s 			page 180


 8604 234d 01       		.byte	0x1
 8605 234e 5A03     		.2byte	0x35a
 8606 2350 B1000000 		.4byte	0xb1
 8607 2354 01       		.byte	0x1
 8608 2355 50       		.byte	0x50
 8609 2356 42       		.uleb128 0x42
 8610 2357 1F050000 		.4byte	.LASF472
 8611 235b 01       		.byte	0x1
 8612 235c 5A03     		.2byte	0x35a
 8613 235e 85190000 		.4byte	0x1985
 8614 2362 01       		.byte	0x1
 8615 2363 51       		.byte	0x51
 8616 2364 00       		.byte	0
 8617 2365 3E       		.uleb128 0x3e
 8618 2366 01       		.byte	0x1
 8619 2367 93000000 		.4byte	.LASF473
 8620 236b 01       		.byte	0x1
 8621 236c 4103     		.2byte	0x341
 8622 236e 01       		.byte	0x1
 8623 236f C1000000 		.4byte	0xc1
 8624 2373 00000000 		.4byte	.LFB58
 8625 2377 70000000 		.4byte	.LFE58
 8626 237b BC060000 		.4byte	.LLST71
 8627 237f 01       		.byte	0x1
 8628 2380 CB230000 		.4byte	0x23cb
 8629 2384 2C       		.uleb128 0x2c
 8630 2385 A1110000 		.4byte	.LASF474
 8631 2389 01       		.byte	0x1
 8632 238a 4103     		.2byte	0x341
 8633 238c CB230000 		.4byte	0x23cb
 8634 2390 E8060000 		.4byte	.LLST72
 8635 2394 32       		.uleb128 0x32
 8636 2395 3A120000 		.4byte	.LASF475
 8637 2399 01       		.byte	0x1
 8638 239a 4303     		.2byte	0x343
 8639 239c C1000000 		.4byte	0xc1
 8640 23a0 1F070000 		.4byte	.LLST73
 8641 23a4 43       		.uleb128 0x43
 8642 23a5 56300000 		.4byte	0x3056
 8643 23a9 02000000 		.4byte	.LBB114
 8644 23ad A0010000 		.4byte	.Ldebug_ranges0+0x1a0
 8645 23b1 01       		.byte	0x1
 8646 23b2 4603     		.2byte	0x346
 8647 23b4 34       		.uleb128 0x34
 8648 23b5 67300000 		.4byte	0x3067
 8649 23b9 57070000 		.4byte	.LLST74
 8650 23bd 3A       		.uleb128 0x3a
 8651 23be 12000000 		.4byte	.LVL244
 8652 23c2 2E       		.uleb128 0x2e
 8653 23c3 01       		.byte	0x1
 8654 23c4 50       		.byte	0x50
 8655 23c5 02       		.byte	0x2
 8656 23c6 74       		.byte	0x74
 8657 23c7 00       		.sleb128 0
 8658 23c8 00       		.byte	0
 8659 23c9 00       		.byte	0
 8660 23ca 00       		.byte	0
ARM GAS  C:\Users\EBANO_~1\AppData\Local\Temp\ccEfOEMG.s 			page 181


 8661 23cb 0A       		.uleb128 0xa
 8662 23cc 04       		.byte	0x4
 8663 23cd 5A190000 		.4byte	0x195a
 8664 23d1 2F       		.uleb128 0x2f
 8665 23d2 01       		.byte	0x1
 8666 23d3 38000000 		.4byte	.LASF476
 8667 23d7 01       		.byte	0x1
 8668 23d8 3C03     		.2byte	0x33c
 8669 23da 01       		.byte	0x1
 8670 23db B1000000 		.4byte	0xb1
 8671 23df 00000000 		.4byte	.LFB57
 8672 23e3 06000000 		.4byte	.LFE57
 8673 23e7 02       		.byte	0x2
 8674 23e8 7D       		.byte	0x7d
 8675 23e9 00       		.sleb128 0
 8676 23ea 01       		.byte	0x1
 8677 23eb 00240000 		.4byte	0x2400
 8678 23ef 2C       		.uleb128 0x2c
 8679 23f0 721D0000 		.4byte	.LASF477
 8680 23f4 01       		.byte	0x1
 8681 23f5 3C03     		.2byte	0x33c
 8682 23f7 00240000 		.4byte	0x2400
 8683 23fb 97070000 		.4byte	.LLST70
 8684 23ff 00       		.byte	0
 8685 2400 0A       		.uleb128 0xa
 8686 2401 04       		.byte	0x4
 8687 2402 22190000 		.4byte	0x1922
 8688 2406 3E       		.uleb128 0x3e
 8689 2407 01       		.byte	0x1
 8690 2408 9E190000 		.4byte	.LASF478
 8691 240c 01       		.byte	0x1
 8692 240d 0703     		.2byte	0x307
 8693 240f 01       		.byte	0x1
 8694 2410 C1000000 		.4byte	0xc1
 8695 2414 00000000 		.4byte	.LFB56
 8696 2418 08010000 		.4byte	.LFE56
 8697 241c B8070000 		.4byte	.LLST62
 8698 2420 01       		.byte	0x1
 8699 2421 85250000 		.4byte	0x2585
 8700 2425 2C       		.uleb128 0x2c
 8701 2426 87020000 		.4byte	.LASF479
 8702 242a 01       		.byte	0x1
 8703 242b 0703     		.2byte	0x307
 8704 242d 85250000 		.4byte	0x2585
 8705 2431 F0070000 		.4byte	.LLST63
 8706 2435 44       		.uleb128 0x44
 8707 2436 3A120000 		.4byte	.LASF475
 8708 243a 01       		.byte	0x1
 8709 243b 0903     		.2byte	0x309
 8710 243d C1000000 		.4byte	0xc1
 8711 2441 03       		.byte	0x3
 8712 2442 31       		.uleb128 0x31
 8713 2443 36130000 		.4byte	.LASF454
 8714 2447 01       		.byte	0x1
 8715 2448 0A03     		.2byte	0x30a
 8716 244a 961A0000 		.4byte	0x1a96
 8717 244e 31       		.uleb128 0x31
ARM GAS  C:\Users\EBANO_~1\AppData\Local\Temp\ccEfOEMG.s 			page 182


 8718 244f E11F0000 		.4byte	.LASF453
 8719 2453 01       		.byte	0x1
 8720 2454 0B03     		.2byte	0x30b
 8721 2456 BF1A0000 		.4byte	0x1abf
 8722 245a 33       		.uleb128 0x33
 8723 245b 63200000 		.4byte	0x2063
 8724 245f 12000000 		.4byte	.LBB96
 8725 2463 40010000 		.4byte	.Ldebug_ranges0+0x140
 8726 2467 01       		.byte	0x1
 8727 2468 1203     		.2byte	0x312
 8728 246a CB240000 		.4byte	0x24cb
 8729 246e 34       		.uleb128 0x34
 8730 246f 76200000 		.4byte	0x2076
 8731 2473 43080000 		.4byte	.LLST64
 8732 2477 37       		.uleb128 0x37
 8733 2478 40010000 		.4byte	.Ldebug_ranges0+0x140
 8734 247c 3F       		.uleb128 0x3f
 8735 247d 82200000 		.4byte	0x2082
 8736 2481 6B080000 		.4byte	.LLST65
 8737 2485 41       		.uleb128 0x41
 8738 2486 BE000000 		.4byte	.LVL232
 8739 248a CD320000 		.4byte	0x32cd
 8740 248e AD240000 		.4byte	0x24ad
 8741 2492 2E       		.uleb128 0x2e
 8742 2493 01       		.byte	0x1
 8743 2494 50       		.byte	0x50
 8744 2495 0C       		.byte	0xc
 8745 2496 75       		.byte	0x75
 8746 2497 00       		.sleb128 0
 8747 2498 31       		.byte	0x31
 8748 2499 24       		.byte	0x24
 8749 249a 75       		.byte	0x75
 8750 249b 00       		.sleb128 0
 8751 249c 22       		.byte	0x22
 8752 249d 32       		.byte	0x32
 8753 249e 24       		.byte	0x24
 8754 249f 74       		.byte	0x74
 8755 24a0 00       		.sleb128 0
 8756 24a1 22       		.byte	0x22
 8757 24a2 2E       		.uleb128 0x2e
 8758 24a3 01       		.byte	0x1
 8759 24a4 51       		.byte	0x51
 8760 24a5 01       		.byte	0x1
 8761 24a6 30       		.byte	0x30
 8762 24a7 2E       		.uleb128 0x2e
 8763 24a8 01       		.byte	0x1
 8764 24a9 52       		.byte	0x52
 8765 24aa 01       		.byte	0x1
 8766 24ab 3C       		.byte	0x3c
 8767 24ac 00       		.byte	0
 8768 24ad 2D       		.uleb128 0x2d
 8769 24ae CA000000 		.4byte	.LVL233
 8770 24b2 22330000 		.4byte	0x3322
 8771 24b6 2E       		.uleb128 0x2e
 8772 24b7 01       		.byte	0x1
 8773 24b8 50       		.byte	0x50
 8774 24b9 03       		.byte	0x3
ARM GAS  C:\Users\EBANO_~1\AppData\Local\Temp\ccEfOEMG.s 			page 183


 8775 24ba 74       		.byte	0x74
 8776 24bb D001     		.sleb128 208
 8777 24bd 2E       		.uleb128 0x2e
 8778 24be 01       		.byte	0x1
 8779 24bf 51       		.byte	0x51
 8780 24c0 02       		.byte	0x2
 8781 24c1 75       		.byte	0x75
 8782 24c2 00       		.sleb128 0
 8783 24c3 2E       		.uleb128 0x2e
 8784 24c4 01       		.byte	0x1
 8785 24c5 52       		.byte	0x52
 8786 24c6 01       		.byte	0x1
 8787 24c7 40       		.byte	0x40
 8788 24c8 00       		.byte	0
 8789 24c9 00       		.byte	0
 8790 24ca 00       		.byte	0
 8791 24cb 43       		.uleb128 0x43
 8792 24cc 94200000 		.4byte	0x2094
 8793 24d0 20000000 		.4byte	.LBB99
 8794 24d4 58010000 		.4byte	.Ldebug_ranges0+0x158
 8795 24d8 01       		.byte	0x1
 8796 24d9 1C03     		.2byte	0x31c
 8797 24db 34       		.uleb128 0x34
 8798 24dc A7200000 		.4byte	0x20a7
 8799 24e0 9A080000 		.4byte	.LLST66
 8800 24e4 37       		.uleb128 0x37
 8801 24e5 58010000 		.4byte	.Ldebug_ranges0+0x158
 8802 24e9 3F       		.uleb128 0x3f
 8803 24ea B3200000 		.4byte	0x20b3
 8804 24ee C2080000 		.4byte	.LLST67
 8805 24f2 3F       		.uleb128 0x3f
 8806 24f3 BF200000 		.4byte	0x20bf
 8807 24f7 09090000 		.4byte	.LLST68
 8808 24fb 3F       		.uleb128 0x3f
 8809 24fc CB200000 		.4byte	0x20cb
 8810 2500 35090000 		.4byte	.LLST69
 8811 2504 33       		.uleb128 0x33
 8812 2505 56300000 		.4byte	0x3056
 8813 2509 56000000 		.4byte	.LBB101
 8814 250d 80010000 		.4byte	.Ldebug_ranges0+0x180
 8815 2511 01       		.byte	0x1
 8816 2512 C603     		.2byte	0x3c6
 8817 2514 37250000 		.4byte	0x2537
 8818 2518 36       		.uleb128 0x36
 8819 2519 67300000 		.4byte	0x3067
 8820 251d 45       		.uleb128 0x45
 8821 251e 6C000000 		.4byte	.LVL227
 8822 2522 2D250000 		.4byte	0x252d
 8823 2526 2E       		.uleb128 0x2e
 8824 2527 01       		.byte	0x1
 8825 2528 50       		.byte	0x50
 8826 2529 02       		.byte	0x2
 8827 252a 76       		.byte	0x76
 8828 252b 00       		.sleb128 0
 8829 252c 00       		.byte	0
 8830 252d 46       		.uleb128 0x46
 8831 252e E0000000 		.4byte	.LVL237
ARM GAS  C:\Users\EBANO_~1\AppData\Local\Temp\ccEfOEMG.s 			page 184


 8832 2532 03       		.byte	0x3
 8833 2533 91       		.byte	0x91
 8834 2534 64       		.sleb128 -28
 8835 2535 06       		.byte	0x6
 8836 2536 00       		.byte	0
 8837 2537 41       		.uleb128 0x41
 8838 2538 34000000 		.4byte	.LVL221
 8839 253c C0320000 		.4byte	0x32c0
 8840 2540 4F250000 		.4byte	0x254f
 8841 2544 2E       		.uleb128 0x2e
 8842 2545 01       		.byte	0x1
 8843 2546 51       		.byte	0x51
 8844 2547 01       		.byte	0x1
 8845 2548 30       		.byte	0x30
 8846 2549 2E       		.uleb128 0x2e
 8847 254a 01       		.byte	0x1
 8848 254b 52       		.byte	0x52
 8849 254c 01       		.byte	0x1
 8850 254d 37       		.byte	0x37
 8851 254e 00       		.byte	0
 8852 254f 41       		.uleb128 0x41
 8853 2550 44000000 		.4byte	.LVL223
 8854 2554 C0320000 		.4byte	0x32c0
 8855 2558 67250000 		.4byte	0x2567
 8856 255c 2E       		.uleb128 0x2e
 8857 255d 01       		.byte	0x1
 8858 255e 51       		.byte	0x51
 8859 255f 01       		.byte	0x1
 8860 2560 30       		.byte	0x30
 8861 2561 2E       		.uleb128 0x2e
 8862 2562 01       		.byte	0x1
 8863 2563 52       		.byte	0x52
 8864 2564 01       		.byte	0x1
 8865 2565 37       		.byte	0x37
 8866 2566 00       		.byte	0
 8867 2567 2D       		.uleb128 0x2d
 8868 2568 96000000 		.4byte	.LVL228
 8869 256c 30330000 		.4byte	0x3330
 8870 2570 2E       		.uleb128 0x2e
 8871 2571 01       		.byte	0x1
 8872 2572 50       		.byte	0x50
 8873 2573 02       		.byte	0x2
 8874 2574 76       		.byte	0x76
 8875 2575 00       		.sleb128 0
 8876 2576 2E       		.uleb128 0x2e
 8877 2577 01       		.byte	0x1
 8878 2578 51       		.byte	0x51
 8879 2579 02       		.byte	0x2
 8880 257a 74       		.byte	0x74
 8881 257b 00       		.sleb128 0
 8882 257c 2E       		.uleb128 0x2e
 8883 257d 01       		.byte	0x1
 8884 257e 52       		.byte	0x52
 8885 257f 01       		.byte	0x1
 8886 2580 3C       		.byte	0x3c
 8887 2581 00       		.byte	0
 8888 2582 00       		.byte	0
ARM GAS  C:\Users\EBANO_~1\AppData\Local\Temp\ccEfOEMG.s 			page 185


 8889 2583 00       		.byte	0
 8890 2584 00       		.byte	0
 8891 2585 0A       		.uleb128 0xa
 8892 2586 04       		.byte	0x4
 8893 2587 DB180000 		.4byte	0x18db
 8894 258b 3E       		.uleb128 0x3e
 8895 258c 01       		.byte	0x1
 8896 258d 551B0000 		.4byte	.LASF480
 8897 2591 01       		.byte	0x1
 8898 2592 EE02     		.2byte	0x2ee
 8899 2594 01       		.byte	0x1
 8900 2595 C1000000 		.4byte	0xc1
 8901 2599 00000000 		.4byte	.LFB55
 8902 259d 64000000 		.4byte	.LFE55
 8903 25a1 58090000 		.4byte	.LLST58
 8904 25a5 01       		.byte	0x1
 8905 25a6 21260000 		.4byte	0x2621
 8906 25aa 2C       		.uleb128 0x2c
 8907 25ab B5020000 		.4byte	.LASF481
 8908 25af 01       		.byte	0x1
 8909 25b0 EE02     		.2byte	0x2ee
 8910 25b2 21260000 		.4byte	0x2621
 8911 25b6 84090000 		.4byte	.LLST59
 8912 25ba 32       		.uleb128 0x32
 8913 25bb 3A120000 		.4byte	.LASF475
 8914 25bf 01       		.byte	0x1
 8915 25c0 F002     		.2byte	0x2f0
 8916 25c2 C1000000 		.4byte	0xc1
 8917 25c6 BB090000 		.4byte	.LLST60
 8918 25ca 33       		.uleb128 0x33
 8919 25cb 56300000 		.4byte	0x3056
 8920 25cf 02000000 		.4byte	.LBB82
 8921 25d3 18010000 		.4byte	.Ldebug_ranges0+0x118
 8922 25d7 01       		.byte	0x1
 8923 25d8 F302     		.2byte	0x2f3
 8924 25da F4250000 		.4byte	0x25f4
 8925 25de 34       		.uleb128 0x34
 8926 25df 67300000 		.4byte	0x3067
 8927 25e3 F1090000 		.4byte	.LLST61
 8928 25e7 3A       		.uleb128 0x3a
 8929 25e8 12000000 		.4byte	.LVL204
 8930 25ec 2E       		.uleb128 0x2e
 8931 25ed 01       		.byte	0x1
 8932 25ee 50       		.byte	0x50
 8933 25ef 02       		.byte	0x2
 8934 25f0 75       		.byte	0x75
 8935 25f1 00       		.sleb128 0
 8936 25f2 00       		.byte	0
 8937 25f3 00       		.byte	0
 8938 25f4 41       		.uleb128 0x41
 8939 25f5 32000000 		.4byte	.LVL208
 8940 25f9 C0320000 		.4byte	0x32c0
 8941 25fd 0C260000 		.4byte	0x260c
 8942 2601 2E       		.uleb128 0x2e
 8943 2602 01       		.byte	0x1
 8944 2603 51       		.byte	0x51
 8945 2604 01       		.byte	0x1
ARM GAS  C:\Users\EBANO_~1\AppData\Local\Temp\ccEfOEMG.s 			page 186


 8946 2605 30       		.byte	0x30
 8947 2606 2E       		.uleb128 0x2e
 8948 2607 01       		.byte	0x1
 8949 2608 52       		.byte	0x52
 8950 2609 01       		.byte	0x1
 8951 260a 37       		.byte	0x37
 8952 260b 00       		.byte	0
 8953 260c 2D       		.uleb128 0x2d
 8954 260d 44000000 		.4byte	.LVL210
 8955 2611 C0320000 		.4byte	0x32c0
 8956 2615 2E       		.uleb128 0x2e
 8957 2616 01       		.byte	0x1
 8958 2617 51       		.byte	0x51
 8959 2618 01       		.byte	0x1
 8960 2619 30       		.byte	0x30
 8961 261a 2E       		.uleb128 0x2e
 8962 261b 01       		.byte	0x1
 8963 261c 52       		.byte	0x52
 8964 261d 01       		.byte	0x1
 8965 261e 37       		.byte	0x37
 8966 261f 00       		.byte	0
 8967 2620 00       		.byte	0
 8968 2621 0A       		.uleb128 0xa
 8969 2622 04       		.byte	0x4
 8970 2623 A3180000 		.4byte	0x18a3
 8971 2627 3E       		.uleb128 0x3e
 8972 2628 01       		.byte	0x1
 8973 2629 091A0000 		.4byte	.LASF482
 8974 262d 01       		.byte	0x1
 8975 262e 7E02     		.2byte	0x27e
 8976 2630 01       		.byte	0x1
 8977 2631 C1000000 		.4byte	0xc1
 8978 2635 00000000 		.4byte	.LFB54
 8979 2639 64030000 		.4byte	.LFE54
 8980 263d 260A0000 		.4byte	.LLST49
 8981 2641 01       		.byte	0x1
 8982 2642 82270000 		.4byte	0x2782
 8983 2646 2C       		.uleb128 0x2c
 8984 2647 F8100000 		.4byte	.LASF483
 8985 264b 01       		.byte	0x1
 8986 264c 7E02     		.2byte	0x27e
 8987 264e 82270000 		.4byte	0x2782
 8988 2652 5F0A0000 		.4byte	.LLST50
 8989 2656 2C       		.uleb128 0x2c
 8990 2657 EE180000 		.4byte	.LASF484
 8991 265b 01       		.byte	0x1
 8992 265c 7E02     		.2byte	0x27e
 8993 265e 88270000 		.4byte	0x2788
 8994 2662 AF0A0000 		.4byte	.LLST51
 8995 2666 2C       		.uleb128 0x2c
 8996 2667 64170000 		.4byte	.LASF485
 8997 266b 01       		.byte	0x1
 8998 266c 7E02     		.2byte	0x27e
 8999 266e 88270000 		.4byte	0x2788
 9000 2672 E60A0000 		.4byte	.LLST52
 9001 2676 2C       		.uleb128 0x2c
 9002 2677 7B100000 		.4byte	.LASF486
ARM GAS  C:\Users\EBANO_~1\AppData\Local\Temp\ccEfOEMG.s 			page 187


 9003 267b 01       		.byte	0x1
 9004 267c 7E02     		.2byte	0x27e
 9005 267e 890A0000 		.4byte	0xa89
 9006 2682 1D0B0000 		.4byte	.LLST53
 9007 2686 42       		.uleb128 0x42
 9008 2687 8E0E0000 		.4byte	.LASF487
 9009 268b 01       		.byte	0x1
 9010 268c 7E02     		.2byte	0x27e
 9011 268e 890A0000 		.4byte	0xa89
 9012 2692 02       		.byte	0x2
 9013 2693 91       		.byte	0x91
 9014 2694 00       		.sleb128 0
 9015 2695 32       		.uleb128 0x32
 9016 2696 3A120000 		.4byte	.LASF475
 9017 269a 01       		.byte	0x1
 9018 269b 8002     		.2byte	0x280
 9019 269d C1000000 		.4byte	0xc1
 9020 26a1 3D0B0000 		.4byte	.LLST54
 9021 26a5 29       		.uleb128 0x29
 9022 26a6 041E0000 		.4byte	.LASF488
 9023 26aa 01       		.byte	0x1
 9024 26ab 8102     		.2byte	0x281
 9025 26ad D91B0000 		.4byte	0x1bd9
 9026 26b1 03       		.byte	0x3
 9027 26b2 91       		.byte	0x91
 9028 26b3 B07F     		.sleb128 -80
 9029 26b5 32       		.uleb128 0x32
 9030 26b6 85090000 		.4byte	.LASF489
 9031 26ba 01       		.byte	0x1
 9032 26bb 8202     		.2byte	0x282
 9033 26bd C1000000 		.4byte	0xc1
 9034 26c1 AC0B0000 		.4byte	.LLST55
 9035 26c5 32       		.uleb128 0x32
 9036 26c6 760C0000 		.4byte	.LASF490
 9037 26ca 01       		.byte	0x1
 9038 26cb 8302     		.2byte	0x283
 9039 26cd C1000000 		.4byte	0xc1
 9040 26d1 CB0B0000 		.4byte	.LLST56
 9041 26d5 29       		.uleb128 0x29
 9042 26d6 390A0000 		.4byte	.LASF491
 9043 26da 01       		.byte	0x1
 9044 26db 8402     		.2byte	0x284
 9045 26dd DC000000 		.4byte	0xdc
 9046 26e1 03       		.byte	0x3
 9047 26e2 91       		.byte	0x91
 9048 26e3 AE7F     		.sleb128 -82
 9049 26e5 31       		.uleb128 0x31
 9050 26e6 B6180000 		.4byte	.LASF492
 9051 26ea 01       		.byte	0x1
 9052 26eb 8502     		.2byte	0x285
 9053 26ed 06150000 		.4byte	0x1506
 9054 26f1 31       		.uleb128 0x31
 9055 26f2 19040000 		.4byte	.LASF493
 9056 26f6 01       		.byte	0x1
 9057 26f7 8602     		.2byte	0x286
 9058 26f9 B0140000 		.4byte	0x14b0
 9059 26fd 29       		.uleb128 0x29
ARM GAS  C:\Users\EBANO_~1\AppData\Local\Temp\ccEfOEMG.s 			page 188


 9060 26fe 0E1C0000 		.4byte	.LASF494
 9061 2702 01       		.byte	0x1
 9062 2703 8702     		.2byte	0x287
 9063 2705 D11C0000 		.4byte	0x1cd1
 9064 2709 03       		.byte	0x3
 9065 270a 91       		.byte	0x91
 9066 270b B87F     		.sleb128 -72
 9067 270d 47       		.uleb128 0x47
 9068 270e E8000000 		.4byte	.Ldebug_ranges0+0xe8
 9069 2712 25270000 		.4byte	0x2725
 9070 2716 48       		.uleb128 0x48
 9071 2717 6900     		.ascii	"i\000"
 9072 2719 01       		.byte	0x1
 9073 271a A702     		.2byte	0x2a7
 9074 271c C1000000 		.4byte	0xc1
 9075 2720 0C0C0000 		.4byte	.LLST57
 9076 2724 00       		.byte	0
 9077 2725 41       		.uleb128 0x41
 9078 2726 3E000000 		.4byte	.LVL146
 9079 272a 3D330000 		.4byte	0x333d
 9080 272e 39270000 		.4byte	0x2739
 9081 2732 2E       		.uleb128 0x2e
 9082 2733 01       		.byte	0x1
 9083 2734 51       		.byte	0x51
 9084 2735 02       		.byte	0x2
 9085 2736 75       		.byte	0x75
 9086 2737 00       		.sleb128 0
 9087 2738 00       		.byte	0
 9088 2739 41       		.uleb128 0x41
 9089 273a 0A030000 		.4byte	.LVL192
 9090 273e 4B330000 		.4byte	0x334b
 9091 2742 66270000 		.4byte	0x2766
 9092 2746 2E       		.uleb128 0x2e
 9093 2747 01       		.byte	0x1
 9094 2748 50       		.byte	0x50
 9095 2749 03       		.byte	0x3
 9096 274a 91       		.byte	0x91
 9097 274b B87F     		.sleb128 -72
 9098 274d 2E       		.uleb128 0x2e
 9099 274e 01       		.byte	0x1
 9100 274f 51       		.byte	0x51
 9101 2750 05       		.byte	0x5
 9102 2751 7D       		.byte	0x7d
 9103 2752 00       		.sleb128 0
 9104 2753 06       		.byte	0x6
 9105 2754 23       		.byte	0x23
 9106 2755 03       		.uleb128 0x3
 9107 2756 2E       		.uleb128 0x2e
 9108 2757 01       		.byte	0x1
 9109 2758 52       		.byte	0x52
 9110 2759 05       		.byte	0x5
 9111 275a 7D       		.byte	0x7d
 9112 275b 00       		.sleb128 0
 9113 275c 06       		.byte	0x6
 9114 275d 23       		.byte	0x23
 9115 275e 04       		.uleb128 0x4
 9116 275f 2E       		.uleb128 0x2e
ARM GAS  C:\Users\EBANO_~1\AppData\Local\Temp\ccEfOEMG.s 			page 189


 9117 2760 01       		.byte	0x1
 9118 2761 53       		.byte	0x53
 9119 2762 02       		.byte	0x2
 9120 2763 75       		.byte	0x75
 9121 2764 00       		.sleb128 0
 9122 2765 00       		.byte	0
 9123 2766 2D       		.uleb128 0x2d
 9124 2767 1C030000 		.4byte	.LVL195
 9125 276b 59330000 		.4byte	0x3359
 9126 276f 2E       		.uleb128 0x2e
 9127 2770 01       		.byte	0x1
 9128 2771 50       		.byte	0x50
 9129 2772 03       		.byte	0x3
 9130 2773 79       		.byte	0x79
 9131 2774 D001     		.sleb128 208
 9132 2776 2E       		.uleb128 0x2e
 9133 2777 01       		.byte	0x1
 9134 2778 51       		.byte	0x51
 9135 2779 01       		.byte	0x1
 9136 277a 30       		.byte	0x30
 9137 277b 2E       		.uleb128 0x2e
 9138 277c 01       		.byte	0x1
 9139 277d 52       		.byte	0x52
 9140 277e 01       		.byte	0x1
 9141 277f 32       		.byte	0x32
 9142 2780 00       		.byte	0
 9143 2781 00       		.byte	0
 9144 2782 0A       		.uleb128 0xa
 9145 2783 04       		.byte	0x4
 9146 2784 5C180000 		.4byte	0x185c
 9147 2788 0A       		.uleb128 0xa
 9148 2789 04       		.byte	0x4
 9149 278a B1000000 		.4byte	0xb1
 9150 278e 3E       		.uleb128 0x3e
 9151 278f 01       		.byte	0x1
 9152 2790 B40A0000 		.4byte	.LASF495
 9153 2794 01       		.byte	0x1
 9154 2795 5B02     		.2byte	0x25b
 9155 2797 01       		.byte	0x1
 9156 2798 1A0B0000 		.4byte	0xb1a
 9157 279c 00000000 		.4byte	.LFB53
 9158 27a0 3C010000 		.4byte	.LFE53
 9159 27a4 D00D0000 		.4byte	.LLST38
 9160 27a8 01       		.byte	0x1
 9161 27a9 78290000 		.4byte	0x2978
 9162 27ad 2C       		.uleb128 0x2c
 9163 27ae 9A1B0000 		.4byte	.LASF496
 9164 27b2 01       		.byte	0x1
 9165 27b3 5B02     		.2byte	0x25b
 9166 27b5 78290000 		.4byte	0x2978
 9167 27b9 090E0000 		.4byte	.LLST39
 9168 27bd 2C       		.uleb128 0x2c
 9169 27be F0100000 		.4byte	.LASF497
 9170 27c2 01       		.byte	0x1
 9171 27c3 5B02     		.2byte	0x25b
 9172 27c5 88270000 		.4byte	0x2788
 9173 27c9 400E0000 		.4byte	.LLST40
ARM GAS  C:\Users\EBANO_~1\AppData\Local\Temp\ccEfOEMG.s 			page 190


 9174 27cd 2C       		.uleb128 0x2c
 9175 27ce 24130000 		.4byte	.LASF498
 9176 27d2 01       		.byte	0x1
 9177 27d3 5B02     		.2byte	0x25b
 9178 27d5 C3220000 		.4byte	0x22c3
 9179 27d9 5F0E0000 		.4byte	.LLST41
 9180 27dd 32       		.uleb128 0x32
 9181 27de F01D0000 		.4byte	.LASF499
 9182 27e2 01       		.byte	0x1
 9183 27e3 5D02     		.2byte	0x25d
 9184 27e5 D70B0000 		.4byte	0xbd7
 9185 27e9 960E0000 		.4byte	.LLST42
 9186 27ed 32       		.uleb128 0x32
 9187 27ee 6B040000 		.4byte	.LASF500
 9188 27f2 01       		.byte	0x1
 9189 27f3 5E02     		.2byte	0x25e
 9190 27f5 B1000000 		.4byte	0xb1
 9191 27f9 C10E0000 		.4byte	.LLST43
 9192 27fd 31       		.uleb128 0x31
 9193 27fe 9A130000 		.4byte	.LASF450
 9194 2802 01       		.byte	0x1
 9195 2803 5F02     		.2byte	0x25f
 9196 2805 B1000000 		.4byte	0xb1
 9197 2809 31       		.uleb128 0x31
 9198 280a 88190000 		.4byte	.LASF501
 9199 280e 01       		.byte	0x1
 9200 280f 6002     		.2byte	0x260
 9201 2811 F2000000 		.4byte	0xf2
 9202 2815 32       		.uleb128 0x32
 9203 2816 F3050000 		.4byte	.LASF448
 9204 281a 01       		.byte	0x1
 9205 281b 6102     		.2byte	0x261
 9206 281d B1000000 		.4byte	0xb1
 9207 2821 EB0E0000 		.4byte	.LLST44
 9208 2825 33       		.uleb128 0x33
 9209 2826 73300000 		.4byte	0x3073
 9210 282a 28000000 		.4byte	.LBB56
 9211 282e 98000000 		.4byte	.Ldebug_ranges0+0x98
 9212 2832 01       		.byte	0x1
 9213 2833 5F02     		.2byte	0x25f
 9214 2835 70280000 		.4byte	0x2870
 9215 2839 34       		.uleb128 0x34
 9216 283a 9A300000 		.4byte	0x309a
 9217 283e 150F0000 		.4byte	.LLST45
 9218 2842 35       		.uleb128 0x35
 9219 2843 A5300000 		.4byte	0x30a5
 9220 2847 06       		.byte	0x6
 9221 2848 03       		.byte	0x3
 9222 2849 D0000000 		.4byte	NvmCtx+208
 9223 284d 9F       		.byte	0x9f
 9224 284e 34       		.uleb128 0x34
 9225 284f 8F300000 		.4byte	0x308f
 9226 2853 4F0F0000 		.4byte	.LLST46
 9227 2857 34       		.uleb128 0x34
 9228 2858 84300000 		.4byte	0x3084
 9229 285c CA0F0000 		.4byte	.LLST47
 9230 2860 37       		.uleb128 0x37
ARM GAS  C:\Users\EBANO_~1\AppData\Local\Temp\ccEfOEMG.s 			page 191


 9231 2861 98000000 		.4byte	.Ldebug_ranges0+0x98
 9232 2865 3F       		.uleb128 0x3f
 9233 2866 B0300000 		.4byte	0x30b0
 9234 286a CA0F0000 		.4byte	.LLST47
 9235 286e 00       		.byte	0
 9236 286f 00       		.byte	0
 9237 2870 33       		.uleb128 0x33
 9238 2871 BC300000 		.4byte	0x30bc
 9239 2875 4A000000 		.4byte	.LBB65
 9240 2879 C8000000 		.4byte	.Ldebug_ranges0+0xc8
 9241 287d 01       		.byte	0x1
 9242 287e 6002     		.2byte	0x260
 9243 2880 8A280000 		.4byte	0x288a
 9244 2884 36       		.uleb128 0x36
 9245 2885 CD300000 		.4byte	0x30cd
 9246 2889 00       		.byte	0
 9247 288a 41       		.uleb128 0x41
 9248 288b 6E000000 		.4byte	.LVL124
 9249 288f B2320000 		.4byte	0x32b2
 9250 2893 9E280000 		.4byte	0x289e
 9251 2897 2E       		.uleb128 0x2e
 9252 2898 01       		.byte	0x1
 9253 2899 50       		.byte	0x50
 9254 289a 02       		.byte	0x2
 9255 289b 79       		.byte	0x79
 9256 289c 00       		.sleb128 0
 9257 289d 00       		.byte	0
 9258 289e 46       		.uleb128 0x46
 9259 289f 82000000 		.4byte	.LVL126
 9260 28a3 03       		.byte	0x3
 9261 28a4 75       		.byte	0x75
 9262 28a5 14       		.sleb128 20
 9263 28a6 06       		.byte	0x6
 9264 28a7 49       		.uleb128 0x49
 9265 28a8 B4000000 		.4byte	.LVL129
 9266 28ac 02       		.byte	0x2
 9267 28ad 76       		.byte	0x76
 9268 28ae 00       		.sleb128 0
 9269 28af FC280000 		.4byte	0x28fc
 9270 28b3 2E       		.uleb128 0x2e
 9271 28b4 01       		.byte	0x1
 9272 28b5 50       		.byte	0x50
 9273 28b6 01       		.byte	0x1
 9274 28b7 31       		.byte	0x31
 9275 28b8 2E       		.uleb128 0x2e
 9276 28b9 01       		.byte	0x1
 9277 28ba 51       		.byte	0x51
 9278 28bb 02       		.byte	0x2
 9279 28bc 7B       		.byte	0x7b
 9280 28bd 00       		.sleb128 0
 9281 28be 2E       		.uleb128 0x2e
 9282 28bf 01       		.byte	0x1
 9283 28c0 52       		.byte	0x52
 9284 28c1 01       		.byte	0x1
 9285 28c2 30       		.byte	0x30
 9286 28c3 2E       		.uleb128 0x2e
 9287 28c4 01       		.byte	0x1
ARM GAS  C:\Users\EBANO_~1\AppData\Local\Temp\ccEfOEMG.s 			page 192


 9288 28c5 53       		.byte	0x53
 9289 28c6 02       		.byte	0x2
 9290 28c7 7A       		.byte	0x7a
 9291 28c8 00       		.sleb128 0
 9292 28c9 2E       		.uleb128 0x2e
 9293 28ca 02       		.byte	0x2
 9294 28cb 7D       		.byte	0x7d
 9295 28cc 04       		.sleb128 4
 9296 28cd 01       		.byte	0x1
 9297 28ce 31       		.byte	0x31
 9298 28cf 2E       		.uleb128 0x2e
 9299 28d0 02       		.byte	0x2
 9300 28d1 7D       		.byte	0x7d
 9301 28d2 08       		.sleb128 8
 9302 28d3 01       		.byte	0x1
 9303 28d4 38       		.byte	0x38
 9304 28d5 2E       		.uleb128 0x2e
 9305 28d6 02       		.byte	0x2
 9306 28d7 7D       		.byte	0x7d
 9307 28d8 0C       		.sleb128 12
 9308 28d9 01       		.byte	0x1
 9309 28da 30       		.byte	0x30
 9310 28db 2E       		.uleb128 0x2e
 9311 28dc 02       		.byte	0x2
 9312 28dd 7D       		.byte	0x7d
 9313 28de 10       		.sleb128 16
 9314 28df 01       		.byte	0x1
 9315 28e0 31       		.byte	0x31
 9316 28e1 2E       		.uleb128 0x2e
 9317 28e2 02       		.byte	0x2
 9318 28e3 7D       		.byte	0x7d
 9319 28e4 14       		.sleb128 20
 9320 28e5 01       		.byte	0x1
 9321 28e6 30       		.byte	0x30
 9322 28e7 2E       		.uleb128 0x2e
 9323 28e8 02       		.byte	0x2
 9324 28e9 7D       		.byte	0x7d
 9325 28ea 18       		.sleb128 24
 9326 28eb 01       		.byte	0x1
 9327 28ec 30       		.byte	0x30
 9328 28ed 2E       		.uleb128 0x2e
 9329 28ee 02       		.byte	0x2
 9330 28ef 7D       		.byte	0x7d
 9331 28f0 1C       		.sleb128 28
 9332 28f1 01       		.byte	0x1
 9333 28f2 30       		.byte	0x30
 9334 28f3 2E       		.uleb128 0x2e
 9335 28f4 02       		.byte	0x2
 9336 28f5 7D       		.byte	0x7d
 9337 28f6 20       		.sleb128 32
 9338 28f7 03       		.byte	0x3
 9339 28f8 0A       		.byte	0xa
 9340 28f9 B80B     		.2byte	0xbb8
 9341 28fb 00       		.byte	0
 9342 28fc 49       		.uleb128 0x49
 9343 28fd C0000000 		.4byte	.LVL131
 9344 2901 03       		.byte	0x3
ARM GAS  C:\Users\EBANO_~1\AppData\Local\Temp\ccEfOEMG.s 			page 193


 9345 2902 91       		.byte	0x91
 9346 2903 54       		.sleb128 -44
 9347 2904 06       		.byte	0x6
 9348 2905 10290000 		.4byte	0x2910
 9349 2909 2E       		.uleb128 0x2e
 9350 290a 01       		.byte	0x1
 9351 290b 50       		.byte	0x50
 9352 290c 02       		.byte	0x2
 9353 290d 76       		.byte	0x76
 9354 290e 00       		.sleb128 0
 9355 290f 00       		.byte	0
 9356 2910 49       		.uleb128 0x49
 9357 2911 CA000000 		.4byte	.LVL132
 9358 2915 03       		.byte	0x3
 9359 2916 91       		.byte	0x91
 9360 2917 54       		.sleb128 -44
 9361 2918 06       		.byte	0x6
 9362 2919 24290000 		.4byte	0x2924
 9363 291d 2E       		.uleb128 0x2e
 9364 291e 01       		.byte	0x1
 9365 291f 50       		.byte	0x50
 9366 2920 02       		.byte	0x2
 9367 2921 76       		.byte	0x76
 9368 2922 00       		.sleb128 0
 9369 2923 00       		.byte	0
 9370 2924 4A       		.uleb128 0x4a
 9371 2925 1A010000 		.4byte	.LVL141
 9372 2929 02       		.byte	0x2
 9373 292a 76       		.byte	0x76
 9374 292b 00       		.sleb128 0
 9375 292c 2E       		.uleb128 0x2e
 9376 292d 01       		.byte	0x1
 9377 292e 50       		.byte	0x50
 9378 292f 01       		.byte	0x1
 9379 2930 30       		.byte	0x30
 9380 2931 2E       		.uleb128 0x2e
 9381 2932 01       		.byte	0x1
 9382 2933 51       		.byte	0x51
 9383 2934 02       		.byte	0x2
 9384 2935 7B       		.byte	0x7b
 9385 2936 00       		.sleb128 0
 9386 2937 2E       		.uleb128 0x2e
 9387 2938 01       		.byte	0x1
 9388 2939 52       		.byte	0x52
 9389 293a 03       		.byte	0x3
 9390 293b 0A       		.byte	0xa
 9391 293c A861     		.2byte	0x61a8
 9392 293e 2E       		.uleb128 0x2e
 9393 293f 01       		.byte	0x1
 9394 2940 53       		.byte	0x53
 9395 2941 02       		.byte	0x2
 9396 2942 7A       		.byte	0x7a
 9397 2943 00       		.sleb128 0
 9398 2944 2E       		.uleb128 0x2e
 9399 2945 02       		.byte	0x2
 9400 2946 7D       		.byte	0x7d
 9401 2947 04       		.sleb128 4
ARM GAS  C:\Users\EBANO_~1\AppData\Local\Temp\ccEfOEMG.s 			page 194


 9402 2948 01       		.byte	0x1
 9403 2949 30       		.byte	0x30
 9404 294a 2E       		.uleb128 0x2e
 9405 294b 02       		.byte	0x2
 9406 294c 7D       		.byte	0x7d
 9407 294d 08       		.sleb128 8
 9408 294e 01       		.byte	0x1
 9409 294f 35       		.byte	0x35
 9410 2950 2E       		.uleb128 0x2e
 9411 2951 02       		.byte	0x2
 9412 2952 7D       		.byte	0x7d
 9413 2953 0C       		.sleb128 12
 9414 2954 01       		.byte	0x1
 9415 2955 30       		.byte	0x30
 9416 2956 2E       		.uleb128 0x2e
 9417 2957 02       		.byte	0x2
 9418 2958 7D       		.byte	0x7d
 9419 2959 10       		.sleb128 16
 9420 295a 01       		.byte	0x1
 9421 295b 31       		.byte	0x31
 9422 295c 2E       		.uleb128 0x2e
 9423 295d 02       		.byte	0x2
 9424 295e 7D       		.byte	0x7d
 9425 295f 14       		.sleb128 20
 9426 2960 01       		.byte	0x1
 9427 2961 30       		.byte	0x30
 9428 2962 2E       		.uleb128 0x2e
 9429 2963 02       		.byte	0x2
 9430 2964 7D       		.byte	0x7d
 9431 2965 18       		.sleb128 24
 9432 2966 01       		.byte	0x1
 9433 2967 30       		.byte	0x30
 9434 2968 2E       		.uleb128 0x2e
 9435 2969 02       		.byte	0x2
 9436 296a 7D       		.byte	0x7d
 9437 296b 1C       		.sleb128 28
 9438 296c 01       		.byte	0x1
 9439 296d 30       		.byte	0x30
 9440 296e 2E       		.uleb128 0x2e
 9441 296f 02       		.byte	0x2
 9442 2970 7D       		.byte	0x7d
 9443 2971 20       		.sleb128 32
 9444 2972 03       		.byte	0x3
 9445 2973 0A       		.byte	0xa
 9446 2974 B80B     		.2byte	0xbb8
 9447 2976 00       		.byte	0
 9448 2977 00       		.byte	0
 9449 2978 0A       		.uleb128 0xa
 9450 2979 04       		.byte	0x4
 9451 297a CA170000 		.4byte	0x17ca
 9452 297e 3E       		.uleb128 0x3e
 9453 297f 01       		.byte	0x1
 9454 2980 50080000 		.4byte	.LASF502
 9455 2984 01       		.byte	0x1
 9456 2985 2302     		.2byte	0x223
 9457 2987 01       		.byte	0x1
 9458 2988 1A0B0000 		.4byte	0xb1a
ARM GAS  C:\Users\EBANO_~1\AppData\Local\Temp\ccEfOEMG.s 			page 195


 9459 298c 00000000 		.4byte	.LFB52
 9460 2990 0C010000 		.4byte	.LFE52
 9461 2994 DE0F0000 		.4byte	.LLST30
 9462 2998 01       		.byte	0x1
 9463 2999 DD2A0000 		.4byte	0x2add
 9464 299d 2C       		.uleb128 0x2c
 9465 299e F5190000 		.4byte	.LASF503
 9466 29a2 01       		.byte	0x1
 9467 29a3 2302     		.2byte	0x223
 9468 29a5 DD2A0000 		.4byte	0x2add
 9469 29a9 17100000 		.4byte	.LLST31
 9470 29ad 2C       		.uleb128 0x2c
 9471 29ae A1040000 		.4byte	.LASF504
 9472 29b2 01       		.byte	0x1
 9473 29b3 2302     		.2byte	0x223
 9474 29b5 88270000 		.4byte	0x2788
 9475 29b9 4E100000 		.4byte	.LLST32
 9476 29bd 32       		.uleb128 0x32
 9477 29be F01D0000 		.4byte	.LASF499
 9478 29c2 01       		.byte	0x1
 9479 29c3 2502     		.2byte	0x225
 9480 29c5 D70B0000 		.4byte	0xbd7
 9481 29c9 85100000 		.4byte	.LLST33
 9482 29cd 48       		.uleb128 0x48
 9483 29ce 647200   		.ascii	"dr\000"
 9484 29d1 01       		.byte	0x1
 9485 29d2 2602     		.2byte	0x226
 9486 29d4 B1000000 		.4byte	0xb1
 9487 29d8 BB100000 		.4byte	.LLST34
 9488 29dc 32       		.uleb128 0x32
 9489 29dd BD130000 		.4byte	.LASF505
 9490 29e1 01       		.byte	0x1
 9491 29e2 2702     		.2byte	0x227
 9492 29e4 C1000000 		.4byte	0xc1
 9493 29e8 D9100000 		.4byte	.LLST35
 9494 29ec 32       		.uleb128 0x32
 9495 29ed 6B040000 		.4byte	.LASF500
 9496 29f1 01       		.byte	0x1
 9497 29f2 2802     		.2byte	0x228
 9498 29f4 B1000000 		.4byte	0xb1
 9499 29f8 1B110000 		.4byte	.LLST36
 9500 29fc 32       		.uleb128 0x32
 9501 29fd 0C200000 		.4byte	.LASF449
 9502 2a01 01       		.byte	0x1
 9503 2a02 2902     		.2byte	0x229
 9504 2a04 F2000000 		.4byte	0xf2
 9505 2a08 51110000 		.4byte	.LLST37
 9506 2a0c 46       		.uleb128 0x46
 9507 2a0d 20000000 		.4byte	.LVL93
 9508 2a11 03       		.byte	0x3
 9509 2a12 75       		.byte	0x75
 9510 2a13 0C       		.sleb128 12
 9511 2a14 06       		.byte	0x6
 9512 2a15 49       		.uleb128 0x49
 9513 2a16 54000000 		.4byte	.LVL97
 9514 2a1a 03       		.byte	0x3
 9515 2a1b 91       		.byte	0x91
ARM GAS  C:\Users\EBANO_~1\AppData\Local\Temp\ccEfOEMG.s 			page 196


 9516 2a1c 5C       		.sleb128 -36
 9517 2a1d 06       		.byte	0x6
 9518 2a1e 292A0000 		.4byte	0x2a29
 9519 2a22 2E       		.uleb128 0x2e
 9520 2a23 01       		.byte	0x1
 9521 2a24 50       		.byte	0x50
 9522 2a25 02       		.byte	0x2
 9523 2a26 78       		.byte	0x78
 9524 2a27 00       		.sleb128 0
 9525 2a28 00       		.byte	0
 9526 2a29 49       		.uleb128 0x49
 9527 2a2a 86000000 		.4byte	.LVL99
 9528 2a2e 02       		.byte	0x2
 9529 2a2f 77       		.byte	0x77
 9530 2a30 00       		.sleb128 0
 9531 2a31 762A0000 		.4byte	0x2a76
 9532 2a35 2E       		.uleb128 0x2e
 9533 2a36 01       		.byte	0x1
 9534 2a37 50       		.byte	0x50
 9535 2a38 01       		.byte	0x1
 9536 2a39 31       		.byte	0x31
 9537 2a3a 2E       		.uleb128 0x2e
 9538 2a3b 01       		.byte	0x1
 9539 2a3c 52       		.byte	0x52
 9540 2a3d 02       		.byte	0x2
 9541 2a3e 79       		.byte	0x79
 9542 2a3f 00       		.sleb128 0
 9543 2a40 2E       		.uleb128 0x2e
 9544 2a41 01       		.byte	0x1
 9545 2a42 53       		.byte	0x53
 9546 2a43 01       		.byte	0x1
 9547 2a44 31       		.byte	0x31
 9548 2a45 2E       		.uleb128 0x2e
 9549 2a46 02       		.byte	0x2
 9550 2a47 7D       		.byte	0x7d
 9551 2a48 00       		.sleb128 0
 9552 2a49 01       		.byte	0x1
 9553 2a4a 30       		.byte	0x30
 9554 2a4b 2E       		.uleb128 0x2e
 9555 2a4c 02       		.byte	0x2
 9556 2a4d 7D       		.byte	0x7d
 9557 2a4e 04       		.sleb128 4
 9558 2a4f 01       		.byte	0x1
 9559 2a50 38       		.byte	0x38
 9560 2a51 2E       		.uleb128 0x2e
 9561 2a52 02       		.byte	0x2
 9562 2a53 7D       		.byte	0x7d
 9563 2a54 0C       		.sleb128 12
 9564 2a55 01       		.byte	0x1
 9565 2a56 30       		.byte	0x30
 9566 2a57 2E       		.uleb128 0x2e
 9567 2a58 02       		.byte	0x2
 9568 2a59 7D       		.byte	0x7d
 9569 2a5a 10       		.sleb128 16
 9570 2a5b 01       		.byte	0x1
 9571 2a5c 30       		.byte	0x30
 9572 2a5d 2E       		.uleb128 0x2e
ARM GAS  C:\Users\EBANO_~1\AppData\Local\Temp\ccEfOEMG.s 			page 197


 9573 2a5e 02       		.byte	0x2
 9574 2a5f 7D       		.byte	0x7d
 9575 2a60 14       		.sleb128 20
 9576 2a61 01       		.byte	0x1
 9577 2a62 30       		.byte	0x30
 9578 2a63 2E       		.uleb128 0x2e
 9579 2a64 02       		.byte	0x2
 9580 2a65 7D       		.byte	0x7d
 9581 2a66 18       		.sleb128 24
 9582 2a67 01       		.byte	0x1
 9583 2a68 30       		.byte	0x30
 9584 2a69 2E       		.uleb128 0x2e
 9585 2a6a 02       		.byte	0x2
 9586 2a6b 7D       		.byte	0x7d
 9587 2a6c 1C       		.sleb128 28
 9588 2a6d 01       		.byte	0x1
 9589 2a6e 30       		.byte	0x30
 9590 2a6f 2E       		.uleb128 0x2e
 9591 2a70 02       		.byte	0x2
 9592 2a71 7D       		.byte	0x7d
 9593 2a72 20       		.sleb128 32
 9594 2a73 01       		.byte	0x1
 9595 2a74 31       		.byte	0x31
 9596 2a75 00       		.byte	0
 9597 2a76 46       		.uleb128 0x46
 9598 2a77 9E000000 		.4byte	.LVL103
 9599 2a7b 03       		.byte	0x3
 9600 2a7c 91       		.byte	0x91
 9601 2a7d 5C       		.sleb128 -36
 9602 2a7e 06       		.byte	0x6
 9603 2a7f 3A       		.uleb128 0x3a
 9604 2a80 EC000000 		.4byte	.LVL112
 9605 2a84 2E       		.uleb128 0x2e
 9606 2a85 01       		.byte	0x1
 9607 2a86 50       		.byte	0x50
 9608 2a87 01       		.byte	0x1
 9609 2a88 30       		.byte	0x30
 9610 2a89 2E       		.uleb128 0x2e
 9611 2a8a 01       		.byte	0x1
 9612 2a8b 51       		.byte	0x51
 9613 2a8c 03       		.byte	0x3
 9614 2a8d 0A       		.byte	0xa
 9615 2a8e 50C3     		.2byte	0xc350
 9616 2a90 2E       		.uleb128 0x2e
 9617 2a91 01       		.byte	0x1
 9618 2a92 52       		.byte	0x52
 9619 2a93 0E       		.byte	0xe
 9620 2a94 79       		.byte	0x79
 9621 2a95 00       		.sleb128 0
 9622 2a96 35       		.byte	0x35
 9623 2a97 24       		.byte	0x24
 9624 2a98 79       		.byte	0x79
 9625 2a99 00       		.sleb128 0
 9626 2a9a 1C       		.byte	0x1c
 9627 2a9b 32       		.byte	0x32
 9628 2a9c 24       		.byte	0x24
 9629 2a9d 79       		.byte	0x79
ARM GAS  C:\Users\EBANO_~1\AppData\Local\Temp\ccEfOEMG.s 			page 198


 9630 2a9e 00       		.sleb128 0
 9631 2a9f 22       		.byte	0x22
 9632 2aa0 33       		.byte	0x33
 9633 2aa1 24       		.byte	0x24
 9634 2aa2 2E       		.uleb128 0x2e
 9635 2aa3 01       		.byte	0x1
 9636 2aa4 53       		.byte	0x53
 9637 2aa5 01       		.byte	0x1
 9638 2aa6 30       		.byte	0x30
 9639 2aa7 2E       		.uleb128 0x2e
 9640 2aa8 02       		.byte	0x2
 9641 2aa9 7D       		.byte	0x7d
 9642 2aaa 00       		.sleb128 0
 9643 2aab 05       		.byte	0x5
 9644 2aac 0C       		.byte	0xc
 9645 2aad 85450100 		.4byte	0x14585
 9646 2ab1 2E       		.uleb128 0x2e
 9647 2ab2 02       		.byte	0x2
 9648 2ab3 7D       		.byte	0x7d
 9649 2ab4 04       		.sleb128 4
 9650 2ab5 01       		.byte	0x1
 9651 2ab6 35       		.byte	0x35
 9652 2ab7 2E       		.uleb128 0x2e
 9653 2ab8 02       		.byte	0x2
 9654 2ab9 7D       		.byte	0x7d
 9655 2aba 0C       		.sleb128 12
 9656 2abb 01       		.byte	0x1
 9657 2abc 30       		.byte	0x30
 9658 2abd 2E       		.uleb128 0x2e
 9659 2abe 02       		.byte	0x2
 9660 2abf 7D       		.byte	0x7d
 9661 2ac0 10       		.sleb128 16
 9662 2ac1 01       		.byte	0x1
 9663 2ac2 30       		.byte	0x30
 9664 2ac3 2E       		.uleb128 0x2e
 9665 2ac4 02       		.byte	0x2
 9666 2ac5 7D       		.byte	0x7d
 9667 2ac6 14       		.sleb128 20
 9668 2ac7 01       		.byte	0x1
 9669 2ac8 31       		.byte	0x31
 9670 2ac9 2E       		.uleb128 0x2e
 9671 2aca 02       		.byte	0x2
 9672 2acb 7D       		.byte	0x7d
 9673 2acc 18       		.sleb128 24
 9674 2acd 01       		.byte	0x1
 9675 2ace 30       		.byte	0x30
 9676 2acf 2E       		.uleb128 0x2e
 9677 2ad0 02       		.byte	0x2
 9678 2ad1 7D       		.byte	0x7d
 9679 2ad2 1C       		.sleb128 28
 9680 2ad3 01       		.byte	0x1
 9681 2ad4 30       		.byte	0x30
 9682 2ad5 2E       		.uleb128 0x2e
 9683 2ad6 02       		.byte	0x2
 9684 2ad7 7D       		.byte	0x7d
 9685 2ad8 20       		.sleb128 32
 9686 2ad9 01       		.byte	0x1
ARM GAS  C:\Users\EBANO_~1\AppData\Local\Temp\ccEfOEMG.s 			page 199


 9687 2ada 30       		.byte	0x30
 9688 2adb 00       		.byte	0
 9689 2adc 00       		.byte	0
 9690 2add 0A       		.uleb128 0xa
 9691 2ade 04       		.byte	0x4
 9692 2adf 56170000 		.4byte	0x1756
 9693 2ae3 2B       		.uleb128 0x2b
 9694 2ae4 01       		.byte	0x1
 9695 2ae5 32150000 		.4byte	.LASF506
 9696 2ae9 01       		.byte	0x1
 9697 2aea 0F02     		.2byte	0x20f
 9698 2aec 01       		.byte	0x1
 9699 2aed 00000000 		.4byte	.LFB51
 9700 2af1 94000000 		.4byte	.LFE51
 9701 2af5 90110000 		.4byte	.LLST24
 9702 2af9 01       		.byte	0x1
 9703 2afa D12B0000 		.4byte	0x2bd1
 9704 2afe 2C       		.uleb128 0x2c
 9705 2aff A1040000 		.4byte	.LASF504
 9706 2b03 01       		.byte	0x1
 9707 2b04 0F02     		.2byte	0x20f
 9708 2b06 B1000000 		.4byte	0xb1
 9709 2b0a C8110000 		.4byte	.LLST25
 9710 2b0e 2C       		.uleb128 0x2c
 9711 2b0f 52140000 		.4byte	.LASF507
 9712 2b13 01       		.byte	0x1
 9713 2b14 0F02     		.2byte	0x20f
 9714 2b16 C1000000 		.4byte	0xc1
 9715 2b1a 02120000 		.4byte	.LLST26
 9716 2b1e 2C       		.uleb128 0x2c
 9717 2b1f FE180000 		.4byte	.LASF508
 9718 2b23 01       		.byte	0x1
 9719 2b24 0F02     		.2byte	0x20f
 9720 2b26 F2000000 		.4byte	0xf2
 9721 2b2a 23120000 		.4byte	.LLST27
 9722 2b2e 2C       		.uleb128 0x2c
 9723 2b2f E9090000 		.4byte	.LASF509
 9724 2b33 01       		.byte	0x1
 9725 2b34 0F02     		.2byte	0x20f
 9726 2b36 DD2A0000 		.4byte	0x2add
 9727 2b3a 5A120000 		.4byte	.LLST28
 9728 2b3e 32       		.uleb128 0x32
 9729 2b3f 3F1A0000 		.4byte	.LASF510
 9730 2b43 01       		.byte	0x1
 9731 2b44 1102     		.2byte	0x211
 9732 2b46 D12B0000 		.4byte	0x2bd1
 9733 2b4a C6120000 		.4byte	.LLST29
 9734 2b4e 33       		.uleb128 0x33
 9735 2b4f BC300000 		.4byte	0x30bc
 9736 2b53 18000000 		.4byte	.LBB50
 9737 2b57 78000000 		.4byte	.Ldebug_ranges0+0x78
 9738 2b5b 01       		.byte	0x1
 9739 2b5c 1502     		.2byte	0x215
 9740 2b5e 682B0000 		.4byte	0x2b68
 9741 2b62 36       		.uleb128 0x36
 9742 2b63 CD300000 		.4byte	0x30cd
 9743 2b67 00       		.byte	0
ARM GAS  C:\Users\EBANO_~1\AppData\Local\Temp\ccEfOEMG.s 			page 200


 9744 2b68 41       		.uleb128 0x41
 9745 2b69 44000000 		.4byte	.LVL77
 9746 2b6d 66330000 		.4byte	0x3366
 9747 2b71 932B0000 		.4byte	0x2b93
 9748 2b75 2E       		.uleb128 0x2e
 9749 2b76 01       		.byte	0x1
 9750 2b77 50       		.byte	0x50
 9751 2b78 0A       		.byte	0xa
 9752 2b79 76       		.byte	0x76
 9753 2b7a 00       		.sleb128 0
 9754 2b7b 03       		.byte	0x3
 9755 2b7c F8000000 		.4byte	.LANCHOR1+32
 9756 2b80 22       		.byte	0x22
 9757 2b81 94       		.byte	0x94
 9758 2b82 01       		.byte	0x1
 9759 2b83 2E       		.uleb128 0x2e
 9760 2b84 01       		.byte	0x1
 9761 2b85 51       		.byte	0x51
 9762 2b86 0B       		.byte	0xb
 9763 2b87 76       		.byte	0x76
 9764 2b88 00       		.sleb128 0
 9765 2b89 32       		.byte	0x32
 9766 2b8a 24       		.byte	0x24
 9767 2b8b 03       		.byte	0x3
 9768 2b8c D8000000 		.4byte	.LANCHOR1
 9769 2b90 22       		.byte	0x22
 9770 2b91 06       		.byte	0x6
 9771 2b92 00       		.byte	0
 9772 2b93 4B       		.uleb128 0x4b
 9773 2b94 50000000 		.4byte	.LVL79
 9774 2b98 41       		.uleb128 0x41
 9775 2b99 68000000 		.4byte	.LVL83
 9776 2b9d 74330000 		.4byte	0x3374
 9777 2ba1 C02B0000 		.4byte	0x2bc0
 9778 2ba5 2E       		.uleb128 0x2e
 9779 2ba6 01       		.byte	0x1
 9780 2ba7 52       		.byte	0x52
 9781 2ba8 02       		.byte	0x2
 9782 2ba9 75       		.byte	0x75
 9783 2baa 00       		.sleb128 0
 9784 2bab 2E       		.uleb128 0x2e
 9785 2bac 01       		.byte	0x1
 9786 2bad 53       		.byte	0x53
 9787 2bae 02       		.byte	0x2
 9788 2baf 78       		.byte	0x78
 9789 2bb0 00       		.sleb128 0
 9790 2bb1 2E       		.uleb128 0x2e
 9791 2bb2 02       		.byte	0x2
 9792 2bb3 7D       		.byte	0x7d
 9793 2bb4 04       		.sleb128 4
 9794 2bb5 02       		.byte	0x2
 9795 2bb6 74       		.byte	0x74
 9796 2bb7 00       		.sleb128 0
 9797 2bb8 2E       		.uleb128 0x2e
 9798 2bb9 02       		.byte	0x2
 9799 2bba 7D       		.byte	0x7d
 9800 2bbb 08       		.sleb128 8
ARM GAS  C:\Users\EBANO_~1\AppData\Local\Temp\ccEfOEMG.s 			page 201


 9801 2bbc 02       		.byte	0x2
 9802 2bbd 74       		.byte	0x74
 9803 2bbe 04       		.sleb128 4
 9804 2bbf 00       		.byte	0
 9805 2bc0 2D       		.uleb128 0x2d
 9806 2bc1 7E000000 		.4byte	.LVL89
 9807 2bc5 82330000 		.4byte	0x3382
 9808 2bc9 2E       		.uleb128 0x2e
 9809 2bca 01       		.byte	0x1
 9810 2bcb 50       		.byte	0x50
 9811 2bcc 02       		.byte	0x2
 9812 2bcd 08       		.byte	0x8
 9813 2bce 32       		.byte	0x32
 9814 2bcf 00       		.byte	0
 9815 2bd0 00       		.byte	0
 9816 2bd1 02       		.uleb128 0x2
 9817 2bd2 08       		.byte	0x8
 9818 2bd3 04       		.byte	0x4
 9819 2bd4 92190000 		.4byte	.LASF511
 9820 2bd8 3E       		.uleb128 0x3e
 9821 2bd9 01       		.byte	0x1
 9822 2bda 8F090000 		.4byte	.LASF512
 9823 2bde 01       		.byte	0x1
 9824 2bdf FB01     		.2byte	0x1fb
 9825 2be1 01       		.byte	0x1
 9826 2be2 1A0B0000 		.4byte	0xb1a
 9827 2be6 00000000 		.4byte	.LFB50
 9828 2bea 34000000 		.4byte	.LFE50
 9829 2bee 16130000 		.4byte	.LLST22
 9830 2bf2 01       		.byte	0x1
 9831 2bf3 3C2C0000 		.4byte	0x2c3c
 9832 2bf7 2C       		.uleb128 0x2c
 9833 2bf8 ED000000 		.4byte	.LASF513
 9834 2bfc 01       		.byte	0x1
 9835 2bfd FB01     		.2byte	0x1fb
 9836 2bff 3C2C0000 		.4byte	0x2c3c
 9837 2c03 36130000 		.4byte	.LLST23
 9838 2c07 41       		.uleb128 0x41
 9839 2c08 1A000000 		.4byte	.LVL67
 9840 2c0c 90330000 		.4byte	0x3390
 9841 2c10 232C0000 		.4byte	0x2c23
 9842 2c14 2E       		.uleb128 0x2e
 9843 2c15 01       		.byte	0x1
 9844 2c16 50       		.byte	0x50
 9845 2c17 05       		.byte	0x5
 9846 2c18 03       		.byte	0x3
 9847 2c19 D2000000 		.4byte	NvmCtx+210
 9848 2c1d 2E       		.uleb128 0x2e
 9849 2c1e 01       		.byte	0x1
 9850 2c1f 52       		.byte	0x52
 9851 2c20 01       		.byte	0x1
 9852 2c21 31       		.byte	0x31
 9853 2c22 00       		.byte	0
 9854 2c23 2D       		.uleb128 0x2d
 9855 2c24 28000000 		.4byte	.LVL70
 9856 2c28 90330000 		.4byte	0x3390
 9857 2c2c 2E       		.uleb128 0x2e
ARM GAS  C:\Users\EBANO_~1\AppData\Local\Temp\ccEfOEMG.s 			page 202


 9858 2c2d 01       		.byte	0x1
 9859 2c2e 50       		.byte	0x50
 9860 2c2f 05       		.byte	0x5
 9861 2c30 03       		.byte	0x3
 9862 2c31 D0000000 		.4byte	NvmCtx+208
 9863 2c35 2E       		.uleb128 0x2e
 9864 2c36 01       		.byte	0x1
 9865 2c37 52       		.byte	0x52
 9866 2c38 01       		.byte	0x1
 9867 2c39 31       		.byte	0x31
 9868 2c3a 00       		.byte	0
 9869 2c3b 00       		.byte	0
 9870 2c3c 0A       		.uleb128 0xa
 9871 2c3d 04       		.byte	0x4
 9872 2c3e 97160000 		.4byte	0x1697
 9873 2c42 2B       		.uleb128 0x2b
 9874 2c43 01       		.byte	0x1
 9875 2c44 D0070000 		.4byte	.LASF514
 9876 2c48 01       		.byte	0x1
 9877 2c49 C001     		.2byte	0x1c0
 9878 2c4b 01       		.byte	0x1
 9879 2c4c 00000000 		.4byte	.LFB49
 9880 2c50 44010000 		.4byte	.LFE49
 9881 2c54 89130000 		.4byte	.LLST13
 9882 2c58 01       		.byte	0x1
 9883 2c59 FB2D0000 		.4byte	0x2dfb
 9884 2c5d 2C       		.uleb128 0x2c
 9885 2c5e 83050000 		.4byte	.LASF515
 9886 2c62 01       		.byte	0x1
 9887 2c63 C001     		.2byte	0x1c0
 9888 2c65 FB2D0000 		.4byte	0x2dfb
 9889 2c69 C2130000 		.4byte	.LLST14
 9890 2c6d 29       		.uleb128 0x29
 9891 2c6e 58190000 		.4byte	.LASF516
 9892 2c72 01       		.byte	0x1
 9893 2c73 C201     		.2byte	0x1c2
 9894 2c75 46110000 		.4byte	0x1146
 9895 2c79 02       		.byte	0x2
 9896 2c7a 91       		.byte	0x91
 9897 2c7b 4C       		.sleb128 -52
 9898 2c7c 31       		.uleb128 0x31
 9899 2c7d 36130000 		.4byte	.LASF454
 9900 2c81 01       		.byte	0x1
 9901 2c82 C301     		.2byte	0x1c3
 9902 2c84 961A0000 		.4byte	0x1a96
 9903 2c88 31       		.uleb128 0x31
 9904 2c89 E11F0000 		.4byte	.LASF453
 9905 2c8d 01       		.byte	0x1
 9906 2c8e C401     		.2byte	0x1c4
 9907 2c90 BF1A0000 		.4byte	0x1abf
 9908 2c94 37       		.uleb128 0x37
 9909 2c95 18000000 		.4byte	.Ldebug_ranges0+0x18
 9910 2c99 48       		.uleb128 0x48
 9911 2c9a 6900     		.ascii	"i\000"
 9912 2c9c 01       		.byte	0x1
 9913 2c9d D601     		.2byte	0x1d6
 9914 2c9f C1000000 		.4byte	0xc1
ARM GAS  C:\Users\EBANO_~1\AppData\Local\Temp\ccEfOEMG.s 			page 203


 9915 2ca3 04140000 		.4byte	.LLST15
 9916 2ca7 32       		.uleb128 0x32
 9917 2ca8 8B030000 		.4byte	.LASF517
 9918 2cac 01       		.byte	0x1
 9919 2cad D601     		.2byte	0x1d6
 9920 2caf C1000000 		.4byte	0xc1
 9921 2cb3 33140000 		.4byte	.LLST16
 9922 2cb7 33       		.uleb128 0x33
 9923 2cb8 63200000 		.4byte	0x2063
 9924 2cbc 32000000 		.4byte	.LBB34
 9925 2cc0 38000000 		.4byte	.Ldebug_ranges0+0x38
 9926 2cc4 01       		.byte	0x1
 9927 2cc5 F601     		.2byte	0x1f6
 9928 2cc7 2A2D0000 		.4byte	0x2d2a
 9929 2ccb 34       		.uleb128 0x34
 9930 2ccc 76200000 		.4byte	0x2076
 9931 2cd0 7F140000 		.4byte	.LLST17
 9932 2cd4 37       		.uleb128 0x37
 9933 2cd5 38000000 		.4byte	.Ldebug_ranges0+0x38
 9934 2cd9 3F       		.uleb128 0x3f
 9935 2cda 82200000 		.4byte	0x2082
 9936 2cde 97140000 		.4byte	.LLST18
 9937 2ce2 41       		.uleb128 0x41
 9938 2ce3 58000000 		.4byte	.LVL47
 9939 2ce7 CD320000 		.4byte	0x32cd
 9940 2ceb 0A2D0000 		.4byte	0x2d0a
 9941 2cef 2E       		.uleb128 0x2e
 9942 2cf0 01       		.byte	0x1
 9943 2cf1 50       		.byte	0x50
 9944 2cf2 0C       		.byte	0xc
 9945 2cf3 75       		.byte	0x75
 9946 2cf4 00       		.sleb128 0
 9947 2cf5 31       		.byte	0x31
 9948 2cf6 24       		.byte	0x24
 9949 2cf7 75       		.byte	0x75
 9950 2cf8 00       		.sleb128 0
 9951 2cf9 22       		.byte	0x22
 9952 2cfa 32       		.byte	0x32
 9953 2cfb 24       		.byte	0x24
 9954 2cfc 79       		.byte	0x79
 9955 2cfd 00       		.sleb128 0
 9956 2cfe 22       		.byte	0x22
 9957 2cff 2E       		.uleb128 0x2e
 9958 2d00 01       		.byte	0x1
 9959 2d01 51       		.byte	0x51
 9960 2d02 01       		.byte	0x1
 9961 2d03 30       		.byte	0x30
 9962 2d04 2E       		.uleb128 0x2e
 9963 2d05 01       		.byte	0x1
 9964 2d06 52       		.byte	0x52
 9965 2d07 01       		.byte	0x1
 9966 2d08 3C       		.byte	0x3c
 9967 2d09 00       		.byte	0
 9968 2d0a 2D       		.uleb128 0x2d
 9969 2d0b 62000000 		.4byte	.LVL48
 9970 2d0f 22330000 		.4byte	0x3322
 9971 2d13 2E       		.uleb128 0x2e
ARM GAS  C:\Users\EBANO_~1\AppData\Local\Temp\ccEfOEMG.s 			page 204


 9972 2d14 01       		.byte	0x1
 9973 2d15 50       		.byte	0x50
 9974 2d16 05       		.byte	0x5
 9975 2d17 03       		.byte	0x3
 9976 2d18 D0000000 		.4byte	NvmCtx+208
 9977 2d1c 2E       		.uleb128 0x2e
 9978 2d1d 01       		.byte	0x1
 9979 2d1e 51       		.byte	0x51
 9980 2d1f 02       		.byte	0x2
 9981 2d20 78       		.byte	0x78
 9982 2d21 00       		.sleb128 0
 9983 2d22 2E       		.uleb128 0x2e
 9984 2d23 01       		.byte	0x1
 9985 2d24 52       		.byte	0x52
 9986 2d25 01       		.byte	0x1
 9987 2d26 40       		.byte	0x40
 9988 2d27 00       		.byte	0
 9989 2d28 00       		.byte	0
 9990 2d29 00       		.byte	0
 9991 2d2a 4C       		.uleb128 0x4c
 9992 2d2b 94200000 		.4byte	0x2094
 9993 2d2f 98000000 		.4byte	.LBB40
 9994 2d33 44010000 		.4byte	.LBE40
 9995 2d37 01       		.byte	0x1
 9996 2d38 F001     		.2byte	0x1f0
 9997 2d3a 35       		.uleb128 0x35
 9998 2d3b A7200000 		.4byte	0x20a7
 9999 2d3f 06       		.byte	0x6
 10000 2d40 F2       		.byte	0xf2
 10001 2d41 7C2C0000 		.4byte	.Ldebug_info0+11388
 10002 2d45 00       		.sleb128 0
 10003 2d46 4D       		.uleb128 0x4d
 10004 2d47 98000000 		.4byte	.LBB41
 10005 2d4b 44010000 		.4byte	.LBE41
 10006 2d4f 3F       		.uleb128 0x3f
 10007 2d50 B3200000 		.4byte	0x20b3
 10008 2d54 AA140000 		.4byte	.LLST19
 10009 2d58 4E       		.uleb128 0x4e
 10010 2d59 BF200000 		.4byte	0x20bf
 10011 2d5d 00       		.byte	0
 10012 2d5e 3F       		.uleb128 0x3f
 10013 2d5f CB200000 		.4byte	0x20cb
 10014 2d63 E6140000 		.4byte	.LLST20
 10015 2d67 33       		.uleb128 0x33
 10016 2d68 56300000 		.4byte	0x3056
 10017 2d6c D0000000 		.4byte	.LBB42
 10018 2d70 58000000 		.4byte	.Ldebug_ranges0+0x58
 10019 2d74 01       		.byte	0x1
 10020 2d75 C603     		.2byte	0x3c6
 10021 2d77 A22D0000 		.4byte	0x2da2
 10022 2d7b 34       		.uleb128 0x34
 10023 2d7c 67300000 		.4byte	0x3067
 10024 2d80 04150000 		.4byte	.LLST21
 10025 2d84 49       		.uleb128 0x49
 10026 2d85 E6000000 		.4byte	.LVL59
 10027 2d89 03       		.byte	0x3
 10028 2d8a 7B       		.byte	0x7b
ARM GAS  C:\Users\EBANO_~1\AppData\Local\Temp\ccEfOEMG.s 			page 205


 10029 2d8b 28       		.sleb128 40
 10030 2d8c 06       		.byte	0x6
 10031 2d8d 982D0000 		.4byte	0x2d98
 10032 2d91 2E       		.uleb128 0x2e
 10033 2d92 01       		.byte	0x1
 10034 2d93 50       		.byte	0x50
 10035 2d94 02       		.byte	0x2
 10036 2d95 78       		.byte	0x78
 10037 2d96 00       		.sleb128 0
 10038 2d97 00       		.byte	0
 10039 2d98 46       		.uleb128 0x46
 10040 2d99 2E010000 		.4byte	.LVL62
 10041 2d9d 03       		.byte	0x3
 10042 2d9e 91       		.byte	0x91
 10043 2d9f 44       		.sleb128 -60
 10044 2da0 06       		.byte	0x6
 10045 2da1 00       		.byte	0
 10046 2da2 41       		.uleb128 0x41
 10047 2da3 A6000000 		.4byte	.LVL54
 10048 2da7 C0320000 		.4byte	0x32c0
 10049 2dab BA2D0000 		.4byte	0x2dba
 10050 2daf 2E       		.uleb128 0x2e
 10051 2db0 01       		.byte	0x1
 10052 2db1 51       		.byte	0x51
 10053 2db2 01       		.byte	0x1
 10054 2db3 30       		.byte	0x30
 10055 2db4 2E       		.uleb128 0x2e
 10056 2db5 01       		.byte	0x1
 10057 2db6 52       		.byte	0x52
 10058 2db7 01       		.byte	0x1
 10059 2db8 37       		.byte	0x37
 10060 2db9 00       		.byte	0
 10061 2dba 41       		.uleb128 0x41
 10062 2dbb B6000000 		.4byte	.LVL56
 10063 2dbf C0320000 		.4byte	0x32c0
 10064 2dc3 D22D0000 		.4byte	0x2dd2
 10065 2dc7 2E       		.uleb128 0x2e
 10066 2dc8 01       		.byte	0x1
 10067 2dc9 51       		.byte	0x51
 10068 2dca 01       		.byte	0x1
 10069 2dcb 30       		.byte	0x30
 10070 2dcc 2E       		.uleb128 0x2e
 10071 2dcd 01       		.byte	0x1
 10072 2dce 52       		.byte	0x52
 10073 2dcf 01       		.byte	0x1
 10074 2dd0 37       		.byte	0x37
 10075 2dd1 00       		.byte	0
 10076 2dd2 2D       		.uleb128 0x2d
 10077 2dd3 0E010000 		.4byte	.LVL60
 10078 2dd7 30330000 		.4byte	0x3330
 10079 2ddb 2E       		.uleb128 0x2e
 10080 2ddc 01       		.byte	0x1
 10081 2ddd 50       		.byte	0x50
 10082 2dde 0C       		.byte	0xc
 10083 2ddf 75       		.byte	0x75
 10084 2de0 00       		.sleb128 0
 10085 2de1 31       		.byte	0x31
ARM GAS  C:\Users\EBANO_~1\AppData\Local\Temp\ccEfOEMG.s 			page 206


 10086 2de2 24       		.byte	0x24
 10087 2de3 75       		.byte	0x75
 10088 2de4 00       		.sleb128 0
 10089 2de5 22       		.byte	0x22
 10090 2de6 32       		.byte	0x32
 10091 2de7 24       		.byte	0x24
 10092 2de8 78       		.byte	0x78
 10093 2de9 00       		.sleb128 0
 10094 2dea 22       		.byte	0x22
 10095 2deb 2E       		.uleb128 0x2e
 10096 2dec 01       		.byte	0x1
 10097 2ded 51       		.byte	0x51
 10098 2dee 02       		.byte	0x2
 10099 2def 74       		.byte	0x74
 10100 2df0 00       		.sleb128 0
 10101 2df1 2E       		.uleb128 0x2e
 10102 2df2 01       		.byte	0x1
 10103 2df3 52       		.byte	0x52
 10104 2df4 01       		.byte	0x1
 10105 2df5 3C       		.byte	0x3c
 10106 2df6 00       		.byte	0
 10107 2df7 00       		.byte	0
 10108 2df8 00       		.byte	0
 10109 2df9 00       		.byte	0
 10110 2dfa 00       		.byte	0
 10111 2dfb 0A       		.uleb128 0xa
 10112 2dfc 04       		.byte	0x4
 10113 2dfd 5F160000 		.4byte	0x165f
 10114 2e01 3E       		.uleb128 0x3e
 10115 2e02 01       		.byte	0x1
 10116 2e03 9C0B0000 		.4byte	.LASF518
 10117 2e07 01       		.byte	0x1
 10118 2e08 9301     		.2byte	0x193
 10119 2e0a 01       		.byte	0x1
 10120 2e0b 1A0B0000 		.4byte	0xb1a
 10121 2e0f 00000000 		.4byte	.LFB48
 10122 2e13 64000000 		.4byte	.LFE48
 10123 2e17 24150000 		.4byte	.LLST10
 10124 2e1b 01       		.byte	0x1
 10125 2e1c 852E0000 		.4byte	0x2e85
 10126 2e20 2C       		.uleb128 0x2c
 10127 2e21 2C030000 		.4byte	.LASF519
 10128 2e25 01       		.byte	0x1
 10129 2e26 9301     		.2byte	0x193
 10130 2e28 852E0000 		.4byte	0x2e85
 10131 2e2c 44150000 		.4byte	.LLST11
 10132 2e30 2C       		.uleb128 0x2c
 10133 2e31 8B140000 		.4byte	.LASF520
 10134 2e35 01       		.byte	0x1
 10135 2e36 9301     		.2byte	0x193
 10136 2e38 B7130000 		.4byte	0x13b7
 10137 2e3c C9150000 		.4byte	.LLST12
 10138 2e40 41       		.uleb128 0x41
 10139 2e41 2E000000 		.4byte	.LVL33
 10140 2e45 C0320000 		.4byte	0x32c0
 10141 2e49 582E0000 		.4byte	0x2e58
 10142 2e4d 2E       		.uleb128 0x2e
ARM GAS  C:\Users\EBANO_~1\AppData\Local\Temp\ccEfOEMG.s 			page 207


 10143 2e4e 01       		.byte	0x1
 10144 2e4f 51       		.byte	0x51
 10145 2e50 01       		.byte	0x1
 10146 2e51 30       		.byte	0x30
 10147 2e52 2E       		.uleb128 0x2e
 10148 2e53 01       		.byte	0x1
 10149 2e54 52       		.byte	0x52
 10150 2e55 01       		.byte	0x1
 10151 2e56 3A       		.byte	0x3a
 10152 2e57 00       		.byte	0
 10153 2e58 41       		.uleb128 0x41
 10154 2e59 42000000 		.4byte	.LVL36
 10155 2e5d C0320000 		.4byte	0x32c0
 10156 2e61 702E0000 		.4byte	0x2e70
 10157 2e65 2E       		.uleb128 0x2e
 10158 2e66 01       		.byte	0x1
 10159 2e67 51       		.byte	0x51
 10160 2e68 01       		.byte	0x1
 10161 2e69 30       		.byte	0x30
 10162 2e6a 2E       		.uleb128 0x2e
 10163 2e6b 01       		.byte	0x1
 10164 2e6c 52       		.byte	0x52
 10165 2e6d 01       		.byte	0x1
 10166 2e6e 35       		.byte	0x35
 10167 2e6f 00       		.byte	0
 10168 2e70 2D       		.uleb128 0x2d
 10169 2e71 54000000 		.4byte	.LVL37
 10170 2e75 C0320000 		.4byte	0x32c0
 10171 2e79 2E       		.uleb128 0x2e
 10172 2e7a 01       		.byte	0x1
 10173 2e7b 51       		.byte	0x51
 10174 2e7c 01       		.byte	0x1
 10175 2e7d 30       		.byte	0x30
 10176 2e7e 2E       		.uleb128 0x2e
 10177 2e7f 01       		.byte	0x1
 10178 2e80 52       		.byte	0x52
 10179 2e81 01       		.byte	0x1
 10180 2e82 37       		.byte	0x37
 10181 2e83 00       		.byte	0
 10182 2e84 00       		.byte	0
 10183 2e85 0A       		.uleb128 0xa
 10184 2e86 04       		.byte	0x4
 10185 2e87 27160000 		.4byte	0x1627
 10186 2e8b 2F       		.uleb128 0x2f
 10187 2e8c 01       		.byte	0x1
 10188 2e8d 98140000 		.4byte	.LASF521
 10189 2e91 01       		.byte	0x1
 10190 2e92 8D01     		.2byte	0x18d
 10191 2e94 01       		.byte	0x1
 10192 2e95 87010000 		.4byte	0x187
 10193 2e99 00000000 		.4byte	.LFB47
 10194 2e9d 0C000000 		.4byte	.LFE47
 10195 2ea1 02       		.byte	0x2
 10196 2ea2 7D       		.byte	0x7d
 10197 2ea3 00       		.sleb128 0
 10198 2ea4 01       		.byte	0x1
 10199 2ea5 BA2E0000 		.4byte	0x2eba
ARM GAS  C:\Users\EBANO_~1\AppData\Local\Temp\ccEfOEMG.s 			page 208


 10200 2ea9 2C       		.uleb128 0x2c
 10201 2eaa 9C0E0000 		.4byte	.LASF522
 10202 2eae 01       		.byte	0x1
 10203 2eaf 8D01     		.2byte	0x18d
 10204 2eb1 BA2E0000 		.4byte	0x2eba
 10205 2eb5 EA150000 		.4byte	.LLST9
 10206 2eb9 00       		.byte	0
 10207 2eba 0A       		.uleb128 0xa
 10208 2ebb 04       		.byte	0x4
 10209 2ebc AE150000 		.4byte	0x15ae
 10210 2ec0 2B       		.uleb128 0x2b
 10211 2ec1 01       		.byte	0x1
 10212 2ec2 470D0000 		.4byte	.LASF523
 10213 2ec6 01       		.byte	0x1
 10214 2ec7 5F01     		.2byte	0x15f
 10215 2ec9 01       		.byte	0x1
 10216 2eca 00000000 		.4byte	.LFB46
 10217 2ece 94000000 		.4byte	.LFE46
 10218 2ed2 0B160000 		.4byte	.LLST7
 10219 2ed6 01       		.byte	0x1
 10220 2ed7 522F0000 		.4byte	0x2f52
 10221 2edb 2C       		.uleb128 0x2c
 10222 2edc 9C0E0000 		.4byte	.LASF522
 10223 2ee0 01       		.byte	0x1
 10224 2ee1 5F01     		.2byte	0x15f
 10225 2ee3 522F0000 		.4byte	0x2f52
 10226 2ee7 37160000 		.4byte	.LLST8
 10227 2eeb 29       		.uleb128 0x29
 10228 2eec FD140000 		.4byte	.LASF524
 10229 2ef0 01       		.byte	0x1
 10230 2ef1 6101     		.2byte	0x161
 10231 2ef3 C61E0000 		.4byte	0x1ec6
 10232 2ef7 02       		.byte	0x2
 10233 2ef8 91       		.byte	0x91
 10234 2ef9 58       		.sleb128 -40
 10235 2efa 41       		.uleb128 0x41
 10236 2efb 30000000 		.4byte	.LVL17
 10237 2eff 30330000 		.4byte	0x3330
 10238 2f03 172F0000 		.4byte	0x2f17
 10239 2f07 2E       		.uleb128 0x2e
 10240 2f08 01       		.byte	0x1
 10241 2f09 50       		.byte	0x50
 10242 2f0a 05       		.byte	0x5
 10243 2f0b 03       		.byte	0x3
 10244 2f0c 00000000 		.4byte	NvmCtx
 10245 2f10 2E       		.uleb128 0x2e
 10246 2f11 01       		.byte	0x1
 10247 2f12 52       		.byte	0x52
 10248 2f13 02       		.byte	0x2
 10249 2f14 08       		.byte	0x8
 10250 2f15 D4       		.byte	0xd4
 10251 2f16 00       		.byte	0
 10252 2f17 41       		.uleb128 0x41
 10253 2f18 40000000 		.4byte	.LVL20
 10254 2f1c 30330000 		.4byte	0x3330
 10255 2f20 362F0000 		.4byte	0x2f36
 10256 2f24 2E       		.uleb128 0x2e
ARM GAS  C:\Users\EBANO_~1\AppData\Local\Temp\ccEfOEMG.s 			page 209


 10257 2f25 01       		.byte	0x1
 10258 2f26 50       		.byte	0x50
 10259 2f27 02       		.byte	0x2
 10260 2f28 74       		.byte	0x74
 10261 2f29 00       		.sleb128 0
 10262 2f2a 2E       		.uleb128 0x2e
 10263 2f2b 01       		.byte	0x1
 10264 2f2c 51       		.byte	0x51
 10265 2f2d 02       		.byte	0x2
 10266 2f2e 7D       		.byte	0x7d
 10267 2f2f 00       		.sleb128 0
 10268 2f30 2E       		.uleb128 0x2e
 10269 2f31 01       		.byte	0x1
 10270 2f32 52       		.byte	0x52
 10271 2f33 01       		.byte	0x1
 10272 2f34 40       		.byte	0x40
 10273 2f35 00       		.byte	0
 10274 2f36 2D       		.uleb128 0x2d
 10275 2f37 76000000 		.4byte	.LVL21
 10276 2f3b 90330000 		.4byte	0x3390
 10277 2f3f 2E       		.uleb128 0x2e
 10278 2f40 01       		.byte	0x1
 10279 2f41 50       		.byte	0x50
 10280 2f42 02       		.byte	0x2
 10281 2f43 74       		.byte	0x74
 10282 2f44 10       		.sleb128 16
 10283 2f45 2E       		.uleb128 0x2e
 10284 2f46 01       		.byte	0x1
 10285 2f47 51       		.byte	0x51
 10286 2f48 02       		.byte	0x2
 10287 2f49 74       		.byte	0x74
 10288 2f4a 12       		.sleb128 18
 10289 2f4b 2E       		.uleb128 0x2e
 10290 2f4c 01       		.byte	0x1
 10291 2f4d 52       		.byte	0x52
 10292 2f4e 01       		.byte	0x1
 10293 2f4f 31       		.byte	0x31
 10294 2f50 00       		.byte	0
 10295 2f51 00       		.byte	0
 10296 2f52 0A       		.uleb128 0xa
 10297 2f53 04       		.byte	0x4
 10298 2f54 85150000 		.4byte	0x1585
 10299 2f58 2B       		.uleb128 0x2b
 10300 2f59 01       		.byte	0x1
 10301 2f5a 76170000 		.4byte	.LASF525
 10302 2f5e 01       		.byte	0x1
 10303 2f5f 5A01     		.2byte	0x15a
 10304 2f61 01       		.byte	0x1
 10305 2f62 00000000 		.4byte	.LFB45
 10306 2f66 24000000 		.4byte	.LFE45
 10307 2f6a 8A160000 		.4byte	.LLST5
 10308 2f6e 01       		.byte	0x1
 10309 2f6f 8D2F0000 		.4byte	0x2f8d
 10310 2f73 2C       		.uleb128 0x2c
 10311 2f74 0E050000 		.4byte	.LASF526
 10312 2f78 01       		.byte	0x1
 10313 2f79 5A01     		.2byte	0x15a
ARM GAS  C:\Users\EBANO_~1\AppData\Local\Temp\ccEfOEMG.s 			page 210


 10314 2f7b 8D2F0000 		.4byte	0x2f8d
 10315 2f7f AA160000 		.4byte	.LLST6
 10316 2f83 39       		.uleb128 0x39
 10317 2f84 1E000000 		.4byte	.LVL14
 10318 2f88 9E330000 		.4byte	0x339e
 10319 2f8c 00       		.byte	0
 10320 2f8d 0A       		.uleb128 0xa
 10321 2f8e 04       		.byte	0x4
 10322 2f8f 4D150000 		.4byte	0x154d
 10323 2f93 4F       		.uleb128 0x4f
 10324 2f94 01       		.byte	0x1
 10325 2f95 AF090000 		.4byte	.LASF527
 10326 2f99 01       		.byte	0x1
 10327 2f9a A8       		.byte	0xa8
 10328 2f9b 01       		.byte	0x1
 10329 2f9c B0140000 		.4byte	0x14b0
 10330 2fa0 01       		.byte	0x1
 10331 2fa1 BC2F0000 		.4byte	0x2fbc
 10332 2fa5 50       		.uleb128 0x50
 10333 2fa6 B6180000 		.4byte	.LASF492
 10334 2faa 01       		.byte	0x1
 10335 2fab A8       		.byte	0xa8
 10336 2fac BC2F0000 		.4byte	0x2fbc
 10337 2fb0 51       		.uleb128 0x51
 10338 2fb1 19040000 		.4byte	.LASF493
 10339 2fb5 01       		.byte	0x1
 10340 2fb6 AA       		.byte	0xaa
 10341 2fb7 B0140000 		.4byte	0x14b0
 10342 2fbb 00       		.byte	0
 10343 2fbc 0A       		.uleb128 0xa
 10344 2fbd 04       		.byte	0x4
 10345 2fbe 06150000 		.4byte	0x1506
 10346 2fc2 52       		.uleb128 0x52
 10347 2fc3 81080000 		.4byte	.LASF532
 10348 2fc7 01       		.byte	0x1
 10349 2fc8 7F       		.byte	0x7f
 10350 2fc9 01       		.byte	0x1
 10351 2fca C1000000 		.4byte	0xc1
 10352 2fce 01       		.byte	0x1
 10353 2fcf 56300000 		.4byte	0x3056
 10354 2fd3 50       		.uleb128 0x50
 10355 2fd4 09170000 		.4byte	.LASF528
 10356 2fd8 01       		.byte	0x1
 10357 2fd9 7F       		.byte	0x7f
 10358 2fda 1A0B0000 		.4byte	0xb1a
 10359 2fde 50       		.uleb128 0x50
 10360 2fdf A1040000 		.4byte	.LASF504
 10361 2fe3 01       		.byte	0x1
 10362 2fe4 7F       		.byte	0x7f
 10363 2fe5 C1000000 		.4byte	0xc1
 10364 2fe9 50       		.uleb128 0x50
 10365 2fea C8130000 		.4byte	.LASF529
 10366 2fee 01       		.byte	0x1
 10367 2fef 7F       		.byte	0x7f
 10368 2ff0 9A110000 		.4byte	0x119a
 10369 2ff4 50       		.uleb128 0x50
 10370 2ff5 3B1D0000 		.4byte	.LASF530
ARM GAS  C:\Users\EBANO_~1\AppData\Local\Temp\ccEfOEMG.s 			page 211


 10371 2ff9 01       		.byte	0x1
 10372 2ffa 7F       		.byte	0x7f
 10373 2ffb 94110000 		.4byte	0x1194
 10374 2fff 50       		.uleb128 0x50
 10375 3000 FD140000 		.4byte	.LASF524
 10376 3004 01       		.byte	0x1
 10377 3005 7F       		.byte	0x7f
 10378 3006 591D0000 		.4byte	0x1d59
 10379 300a 50       		.uleb128 0x50
 10380 300b 4F1A0000 		.4byte	.LASF465
 10381 300f 01       		.byte	0x1
 10382 3010 7F       		.byte	0x7f
 10383 3011 890A0000 		.4byte	0xa89
 10384 3015 50       		.uleb128 0x50
 10385 3016 8F060000 		.4byte	.LASF464
 10386 301a 01       		.byte	0x1
 10387 301b 7F       		.byte	0x7f
 10388 301c 890A0000 		.4byte	0xa89
 10389 3020 51       		.uleb128 0x51
 10390 3021 5B160000 		.4byte	.LASF463
 10391 3025 01       		.byte	0x1
 10392 3026 81       		.byte	0x81
 10393 3027 C1000000 		.4byte	0xc1
 10394 302b 51       		.uleb128 0x51
 10395 302c E41C0000 		.4byte	.LASF531
 10396 3030 01       		.byte	0x1
 10397 3031 82       		.byte	0x82
 10398 3032 C1000000 		.4byte	0xc1
 10399 3036 53       		.uleb128 0x53
 10400 3037 54       		.uleb128 0x54
 10401 3038 6900     		.ascii	"i\000"
 10402 303a 01       		.byte	0x1
 10403 303b 84       		.byte	0x84
 10404 303c C1000000 		.4byte	0xc1
 10405 3040 54       		.uleb128 0x54
 10406 3041 6B00     		.ascii	"k\000"
 10407 3043 01       		.byte	0x1
 10408 3044 84       		.byte	0x84
 10409 3045 C1000000 		.4byte	0xc1
 10410 3049 53       		.uleb128 0x53
 10411 304a 54       		.uleb128 0x54
 10412 304b 6A00     		.ascii	"j\000"
 10413 304d 01       		.byte	0x1
 10414 304e 86       		.byte	0x86
 10415 304f C1000000 		.4byte	0xc1
 10416 3053 00       		.byte	0
 10417 3054 00       		.byte	0
 10418 3055 00       		.byte	0
 10419 3056 52       		.uleb128 0x52
 10420 3057 34140000 		.4byte	.LASF533
 10421 305b 01       		.byte	0x1
 10422 305c 70       		.byte	0x70
 10423 305d 01       		.byte	0x1
 10424 305e 1A0B0000 		.4byte	0xb1a
 10425 3062 01       		.byte	0x1
 10426 3063 73300000 		.4byte	0x3073
 10427 3067 50       		.uleb128 0x50
ARM GAS  C:\Users\EBANO_~1\AppData\Local\Temp\ccEfOEMG.s 			page 212


 10428 3068 EF030000 		.4byte	.LASF534
 10429 306c 01       		.byte	0x1
 10430 306d 70       		.byte	0x70
 10431 306e F2000000 		.4byte	0xf2
 10432 3072 00       		.byte	0
 10433 3073 52       		.uleb128 0x52
 10434 3074 56120000 		.4byte	.LASF535
 10435 3078 01       		.byte	0x1
 10436 3079 66       		.byte	0x66
 10437 307a 01       		.byte	0x1
 10438 307b B1000000 		.4byte	0xb1
 10439 307f 01       		.byte	0x1
 10440 3080 BC300000 		.4byte	0x30bc
 10441 3084 50       		.uleb128 0x50
 10442 3085 F0100000 		.4byte	.LASF497
 10443 3089 01       		.byte	0x1
 10444 308a 66       		.byte	0x66
 10445 308b B1000000 		.4byte	0xb1
 10446 308f 50       		.uleb128 0x50
 10447 3090 76090000 		.4byte	.LASF536
 10448 3094 01       		.byte	0x1
 10449 3095 66       		.byte	0x66
 10450 3096 B1000000 		.4byte	0xb1
 10451 309a 50       		.uleb128 0x50
 10452 309b A1040000 		.4byte	.LASF504
 10453 309f 01       		.byte	0x1
 10454 30a0 66       		.byte	0x66
 10455 30a1 B1000000 		.4byte	0xb1
 10456 30a5 50       		.uleb128 0x50
 10457 30a6 C8130000 		.4byte	.LASF529
 10458 30aa 01       		.byte	0x1
 10459 30ab 66       		.byte	0x66
 10460 30ac 9A110000 		.4byte	0x119a
 10461 30b0 51       		.uleb128 0x51
 10462 30b1 99030000 		.4byte	.LASF537
 10463 30b5 01       		.byte	0x1
 10464 30b6 68       		.byte	0x68
 10465 30b7 B1000000 		.4byte	0xb1
 10466 30bb 00       		.byte	0
 10467 30bc 52       		.uleb128 0x52
 10468 30bd 35170000 		.4byte	.LASF538
 10469 30c1 01       		.byte	0x1
 10470 30c2 58       		.byte	0x58
 10471 30c3 01       		.byte	0x1
 10472 30c4 F2000000 		.4byte	0xf2
 10473 30c8 01       		.byte	0x1
 10474 30c9 D9300000 		.4byte	0x30d9
 10475 30cd 50       		.uleb128 0x50
 10476 30ce 170B0000 		.4byte	.LASF539
 10477 30d2 01       		.byte	0x1
 10478 30d3 58       		.byte	0x58
 10479 30d4 F2000000 		.4byte	0xf2
 10480 30d8 00       		.byte	0
 10481 30d9 52       		.uleb128 0x52
 10482 30da C60E0000 		.4byte	.LASF540
 10483 30de 01       		.byte	0x1
 10484 30df 45       		.byte	0x45
ARM GAS  C:\Users\EBANO_~1\AppData\Local\Temp\ccEfOEMG.s 			page 213


 10485 30e0 01       		.byte	0x1
 10486 30e1 B1000000 		.4byte	0xb1
 10487 30e5 01       		.byte	0x1
 10488 30e6 0B310000 		.4byte	0x310b
 10489 30ea 55       		.uleb128 0x55
 10490 30eb 647200   		.ascii	"dr\000"
 10491 30ee 01       		.byte	0x1
 10492 30ef 45       		.byte	0x45
 10493 30f0 B1000000 		.4byte	0xb1
 10494 30f4 50       		.uleb128 0x50
 10495 30f5 250E0000 		.4byte	.LASF541
 10496 30f9 01       		.byte	0x1
 10497 30fa 45       		.byte	0x45
 10498 30fb B1000000 		.4byte	0xb1
 10499 30ff 51       		.uleb128 0x51
 10500 3100 BF1D0000 		.4byte	.LASF542
 10501 3104 01       		.byte	0x1
 10502 3105 47       		.byte	0x47
 10503 3106 C1000000 		.4byte	0xc1
 10504 310a 00       		.byte	0
 10505 310b 56       		.uleb128 0x56
 10506 310c 932F0000 		.4byte	0x2f93
 10507 3110 00000000 		.4byte	.LFB44
 10508 3114 1C010000 		.4byte	.LFE44
 10509 3118 CB160000 		.4byte	.LLST0
 10510 311c 01       		.byte	0x1
 10511 311d 80310000 		.4byte	0x3180
 10512 3121 34       		.uleb128 0x34
 10513 3122 A52F0000 		.4byte	0x2fa5
 10514 3126 F7160000 		.4byte	.LLST1
 10515 312a 57       		.uleb128 0x57
 10516 312b B02F0000 		.4byte	0x2fb0
 10517 312f 02       		.byte	0x2
 10518 3130 91       		.byte	0x91
 10519 3131 70       		.sleb128 -16
 10520 3132 58       		.uleb128 0x58
 10521 3133 D9300000 		.4byte	0x30d9
 10522 3137 AE000000 		.4byte	.LBB22
 10523 313b 00000000 		.4byte	.Ldebug_ranges0+0
 10524 313f 01       		.byte	0x1
 10525 3140 BF       		.byte	0xbf
 10526 3141 67310000 		.4byte	0x3167
 10527 3145 34       		.uleb128 0x34
 10528 3146 F4300000 		.4byte	0x30f4
 10529 314a 3C170000 		.4byte	.LLST2
 10530 314e 34       		.uleb128 0x34
 10531 314f EA300000 		.4byte	0x30ea
 10532 3153 5C170000 		.4byte	.LLST3
 10533 3157 37       		.uleb128 0x37
 10534 3158 00000000 		.4byte	.Ldebug_ranges0+0
 10535 315c 3F       		.uleb128 0x3f
 10536 315d FF300000 		.4byte	0x30ff
 10537 3161 87170000 		.4byte	.LLST4
 10538 3165 00       		.byte	0
 10539 3166 00       		.byte	0
 10540 3167 2D       		.uleb128 0x2d
 10541 3168 8A000000 		.4byte	.LVL4
ARM GAS  C:\Users\EBANO_~1\AppData\Local\Temp\ccEfOEMG.s 			page 214


 10542 316c 07330000 		.4byte	0x3307
 10543 3170 2E       		.uleb128 0x2e
 10544 3171 01       		.byte	0x1
 10545 3172 50       		.byte	0x50
 10546 3173 03       		.byte	0x3
 10547 3174 0B       		.byte	0xb
 10548 3175 18FC     		.2byte	0xfc18
 10549 3177 2E       		.uleb128 0x2e
 10550 3178 01       		.byte	0x1
 10551 3179 51       		.byte	0x51
 10552 317a 03       		.byte	0x3
 10553 317b 0A       		.byte	0xa
 10554 317c E803     		.2byte	0x3e8
 10555 317e 00       		.byte	0
 10556 317f 00       		.byte	0
 10557 3180 56       		.uleb128 0x56
 10558 3181 94200000 		.4byte	0x2094
 10559 3185 00000000 		.4byte	.LFB62
 10560 3189 D8000000 		.4byte	.LFE62
 10561 318d C1170000 		.4byte	.LLST97
 10562 3191 01       		.byte	0x1
 10563 3192 37320000 		.4byte	0x3237
 10564 3196 34       		.uleb128 0x34
 10565 3197 A7200000 		.4byte	0x20a7
 10566 319b ED170000 		.4byte	.LLST98
 10567 319f 3F       		.uleb128 0x3f
 10568 31a0 B3200000 		.4byte	0x20b3
 10569 31a4 32180000 		.4byte	.LLST99
 10570 31a8 3F       		.uleb128 0x3f
 10571 31a9 BF200000 		.4byte	0x20bf
 10572 31ad 95180000 		.4byte	.LLST100
 10573 31b1 3F       		.uleb128 0x3f
 10574 31b2 CB200000 		.4byte	0x20cb
 10575 31b6 E5180000 		.4byte	.LLST101
 10576 31ba 33       		.uleb128 0x33
 10577 31bb 56300000 		.4byte	0x3056
 10578 31bf 4E000000 		.4byte	.LBB140
 10579 31c3 10020000 		.4byte	.Ldebug_ranges0+0x210
 10580 31c7 01       		.byte	0x1
 10581 31c8 C603     		.2byte	0x3c6
 10582 31ca F1310000 		.4byte	0x31f1
 10583 31ce 34       		.uleb128 0x34
 10584 31cf 67300000 		.4byte	0x3067
 10585 31d3 03190000 		.4byte	.LLST102
 10586 31d7 45       		.uleb128 0x45
 10587 31d8 58000000 		.4byte	.LVL305
 10588 31dc E7310000 		.4byte	0x31e7
 10589 31e0 2E       		.uleb128 0x2e
 10590 31e1 01       		.byte	0x1
 10591 31e2 50       		.byte	0x50
 10592 31e3 02       		.byte	0x2
 10593 31e4 76       		.byte	0x76
 10594 31e5 00       		.sleb128 0
 10595 31e6 00       		.byte	0
 10596 31e7 46       		.uleb128 0x46
 10597 31e8 6A000000 		.4byte	.LVL310
 10598 31ec 03       		.byte	0x3
ARM GAS  C:\Users\EBANO_~1\AppData\Local\Temp\ccEfOEMG.s 			page 215


 10599 31ed 91       		.byte	0x91
 10600 31ee 64       		.sleb128 -28
 10601 31ef 06       		.byte	0x6
 10602 31f0 00       		.byte	0
 10603 31f1 41       		.uleb128 0x41
 10604 31f2 22000000 		.4byte	.LVL300
 10605 31f6 C0320000 		.4byte	0x32c0
 10606 31fa 09320000 		.4byte	0x3209
 10607 31fe 2E       		.uleb128 0x2e
 10608 31ff 01       		.byte	0x1
 10609 3200 51       		.byte	0x51
 10610 3201 01       		.byte	0x1
 10611 3202 30       		.byte	0x30
 10612 3203 2E       		.uleb128 0x2e
 10613 3204 01       		.byte	0x1
 10614 3205 52       		.byte	0x52
 10615 3206 01       		.byte	0x1
 10616 3207 37       		.byte	0x37
 10617 3208 00       		.byte	0
 10618 3209 41       		.uleb128 0x41
 10619 320a 34000000 		.4byte	.LVL302
 10620 320e C0320000 		.4byte	0x32c0
 10621 3212 21320000 		.4byte	0x3221
 10622 3216 2E       		.uleb128 0x2e
 10623 3217 01       		.byte	0x1
 10624 3218 51       		.byte	0x51
 10625 3219 01       		.byte	0x1
 10626 321a 30       		.byte	0x30
 10627 321b 2E       		.uleb128 0x2e
 10628 321c 01       		.byte	0x1
 10629 321d 52       		.byte	0x52
 10630 321e 01       		.byte	0x1
 10631 321f 37       		.byte	0x37
 10632 3220 00       		.byte	0
 10633 3221 2D       		.uleb128 0x2d
 10634 3222 B6000000 		.4byte	.LVL319
 10635 3226 30330000 		.4byte	0x3330
 10636 322a 2E       		.uleb128 0x2e
 10637 322b 01       		.byte	0x1
 10638 322c 50       		.byte	0x50
 10639 322d 02       		.byte	0x2
 10640 322e 74       		.byte	0x74
 10641 322f 00       		.sleb128 0
 10642 3230 2E       		.uleb128 0x2e
 10643 3231 01       		.byte	0x1
 10644 3232 52       		.byte	0x52
 10645 3233 01       		.byte	0x1
 10646 3234 3C       		.byte	0x3c
 10647 3235 00       		.byte	0
 10648 3236 00       		.byte	0
 10649 3237 56       		.uleb128 0x56
 10650 3238 63200000 		.4byte	0x2063
 10651 323c 00000000 		.4byte	.LFB63
 10652 3240 30000000 		.4byte	.LFE63
 10653 3244 25190000 		.4byte	.LLST103
 10654 3248 01       		.byte	0x1
 10655 3249 A4320000 		.4byte	0x32a4
ARM GAS  C:\Users\EBANO_~1\AppData\Local\Temp\ccEfOEMG.s 			page 216


 10656 324d 34       		.uleb128 0x34
 10657 324e 76200000 		.4byte	0x2076
 10658 3252 45190000 		.4byte	.LLST104
 10659 3256 3F       		.uleb128 0x3f
 10660 3257 82200000 		.4byte	0x2082
 10661 325b 66190000 		.4byte	.LLST105
 10662 325f 41       		.uleb128 0x41
 10663 3260 1C000000 		.4byte	.LVL323
 10664 3264 CD320000 		.4byte	0x32cd
 10665 3268 87320000 		.4byte	0x3287
 10666 326c 2E       		.uleb128 0x2e
 10667 326d 01       		.byte	0x1
 10668 326e 50       		.byte	0x50
 10669 326f 0C       		.byte	0xc
 10670 3270 74       		.byte	0x74
 10671 3271 00       		.sleb128 0
 10672 3272 31       		.byte	0x31
 10673 3273 24       		.byte	0x24
 10674 3274 74       		.byte	0x74
 10675 3275 00       		.sleb128 0
 10676 3276 22       		.byte	0x22
 10677 3277 32       		.byte	0x32
 10678 3278 24       		.byte	0x24
 10679 3279 75       		.byte	0x75
 10680 327a 00       		.sleb128 0
 10681 327b 22       		.byte	0x22
 10682 327c 2E       		.uleb128 0x2e
 10683 327d 01       		.byte	0x1
 10684 327e 51       		.byte	0x51
 10685 327f 01       		.byte	0x1
 10686 3280 30       		.byte	0x30
 10687 3281 2E       		.uleb128 0x2e
 10688 3282 01       		.byte	0x1
 10689 3283 52       		.byte	0x52
 10690 3284 01       		.byte	0x1
 10691 3285 3C       		.byte	0x3c
 10692 3286 00       		.byte	0
 10693 3287 2D       		.uleb128 0x2d
 10694 3288 28000000 		.4byte	.LVL324
 10695 328c 22330000 		.4byte	0x3322
 10696 3290 2E       		.uleb128 0x2e
 10697 3291 01       		.byte	0x1
 10698 3292 50       		.byte	0x50
 10699 3293 03       		.byte	0x3
 10700 3294 75       		.byte	0x75
 10701 3295 D001     		.sleb128 208
 10702 3297 2E       		.uleb128 0x2e
 10703 3298 01       		.byte	0x1
 10704 3299 51       		.byte	0x51
 10705 329a 02       		.byte	0x2
 10706 329b 74       		.byte	0x74
 10707 329c 00       		.sleb128 0
 10708 329d 2E       		.uleb128 0x2e
 10709 329e 01       		.byte	0x1
 10710 329f 52       		.byte	0x52
 10711 32a0 01       		.byte	0x1
 10712 32a1 40       		.byte	0x40
ARM GAS  C:\Users\EBANO_~1\AppData\Local\Temp\ccEfOEMG.s 			page 217


 10713 32a2 00       		.byte	0
 10714 32a3 00       		.byte	0
 10715 32a4 59       		.uleb128 0x59
 10716 32a5 01       		.byte	0x1
 10717 32a6 01       		.byte	0x1
 10718 32a7 F41B0000 		.4byte	.LASF543
 10719 32ab F41B0000 		.4byte	.LASF543
 10720 32af 10       		.byte	0x10
 10721 32b0 9F01     		.2byte	0x19f
 10722 32b2 59       		.uleb128 0x59
 10723 32b3 01       		.byte	0x1
 10724 32b4 01       		.byte	0x1
 10725 32b5 9A160000 		.4byte	.LASF544
 10726 32b9 9A160000 		.4byte	.LASF544
 10727 32bd 10       		.byte	0x10
 10728 32be 9101     		.2byte	0x191
 10729 32c0 5A       		.uleb128 0x5a
 10730 32c1 01       		.byte	0x1
 10731 32c2 01       		.byte	0x1
 10732 32c3 B5160000 		.4byte	.LASF545
 10733 32c7 B5160000 		.4byte	.LASF545
 10734 32cb 10       		.byte	0x10
 10735 32cc E1       		.byte	0xe1
 10736 32cd 5B       		.uleb128 0x5b
 10737 32ce 01       		.byte	0x1
 10738 32cf 01       		.byte	0x1
 10739 32d0 C6100000 		.4byte	.LASF564
 10740 32d4 33030000 		.4byte	.LASF565
 10741 32d8 13       		.byte	0x13
 10742 32d9 00       		.byte	0
 10743 32da C6100000 		.4byte	.LASF564
 10744 32de 59       		.uleb128 0x59
 10745 32df 01       		.byte	0x1
 10746 32e0 01       		.byte	0x1
 10747 32e1 FD090000 		.4byte	.LASF546
 10748 32e5 FD090000 		.4byte	.LASF546
 10749 32e9 10       		.byte	0x10
 10750 32ea 1201     		.2byte	0x112
 10751 32ec 5A       		.uleb128 0x5a
 10752 32ed 01       		.byte	0x1
 10753 32ee 01       		.byte	0x1
 10754 32ef A9130000 		.4byte	.LASF547
 10755 32f3 A9130000 		.4byte	.LASF547
 10756 32f7 12       		.byte	0x12
 10757 32f8 94       		.byte	0x94
 10758 32f9 59       		.uleb128 0x59
 10759 32fa 01       		.byte	0x1
 10760 32fb 01       		.byte	0x1
 10761 32fc AE0B0000 		.4byte	.LASF548
 10762 3300 AE0B0000 		.4byte	.LASF548
 10763 3304 10       		.byte	0x10
 10764 3305 3A01     		.2byte	0x13a
 10765 3307 5A       		.uleb128 0x5a
 10766 3308 01       		.byte	0x1
 10767 3309 01       		.byte	0x1
 10768 330a 01020000 		.4byte	.LASF549
 10769 330e 01020000 		.4byte	.LASF549
ARM GAS  C:\Users\EBANO_~1\AppData\Local\Temp\ccEfOEMG.s 			page 218


 10770 3312 0A       		.byte	0xa
 10771 3313 77       		.byte	0x77
 10772 3314 59       		.uleb128 0x59
 10773 3315 01       		.byte	0x1
 10774 3316 01       		.byte	0x1
 10775 3317 38190000 		.4byte	.LASF550
 10776 331b 38190000 		.4byte	.LASF550
 10777 331f 10       		.byte	0x10
 10778 3320 9801     		.2byte	0x198
 10779 3322 59       		.uleb128 0x59
 10780 3323 01       		.byte	0x1
 10781 3324 01       		.byte	0x1
 10782 3325 6F210000 		.4byte	.LASF551
 10783 3329 6F210000 		.4byte	.LASF551
 10784 332d 10       		.byte	0x10
 10785 332e 0401     		.2byte	0x104
 10786 3330 5A       		.uleb128 0x5a
 10787 3331 01       		.byte	0x1
 10788 3332 01       		.byte	0x1
 10789 3333 6B030000 		.4byte	.LASF552
 10790 3337 6B030000 		.4byte	.LASF552
 10791 333b 0A       		.byte	0xa
 10792 333c 89       		.byte	0x89
 10793 333d 59       		.uleb128 0x59
 10794 333e 01       		.byte	0x1
 10795 333f 01       		.byte	0x1
 10796 3340 E8040000 		.4byte	.LASF553
 10797 3344 E8040000 		.4byte	.LASF553
 10798 3348 10       		.byte	0x10
 10799 3349 4801     		.2byte	0x148
 10800 334b 59       		.uleb128 0x59
 10801 334c 01       		.byte	0x1
 10802 334d 01       		.byte	0x1
 10803 334e CD100000 		.4byte	.LASF554
 10804 3352 CD100000 		.4byte	.LASF554
 10805 3356 10       		.byte	0x10
 10806 3357 5801     		.2byte	0x158
 10807 3359 5A       		.uleb128 0x5a
 10808 335a 01       		.byte	0x1
 10809 335b 01       		.byte	0x1
 10810 335c CE170000 		.4byte	.LASF555
 10811 3360 CE170000 		.4byte	.LASF555
 10812 3364 0A       		.byte	0xa
 10813 3365 9D       		.byte	0x9d
 10814 3366 59       		.uleb128 0x59
 10815 3367 01       		.byte	0x1
 10816 3368 01       		.byte	0x1
 10817 3369 B3150000 		.4byte	.LASF556
 10818 336d B3150000 		.4byte	.LASF556
 10819 3371 10       		.byte	0x10
 10820 3372 6301     		.2byte	0x163
 10821 3374 59       		.uleb128 0x59
 10822 3375 01       		.byte	0x1
 10823 3376 01       		.byte	0x1
 10824 3377 491F0000 		.4byte	.LASF557
 10825 337b 491F0000 		.4byte	.LASF557
 10826 337f 10       		.byte	0x10
ARM GAS  C:\Users\EBANO_~1\AppData\Local\Temp\ccEfOEMG.s 			page 219


 10827 3380 8001     		.2byte	0x180
 10828 3382 59       		.uleb128 0x59
 10829 3383 01       		.byte	0x1
 10830 3384 01       		.byte	0x1
 10831 3385 BD140000 		.4byte	.LASF558
 10832 3389 BD140000 		.4byte	.LASF558
 10833 338d 10       		.byte	0x10
 10834 338e 6E01     		.2byte	0x16e
 10835 3390 59       		.uleb128 0x59
 10836 3391 01       		.byte	0x1
 10837 3392 01       		.byte	0x1
 10838 3393 97060000 		.4byte	.LASF559
 10839 3397 97060000 		.4byte	.LASF559
 10840 339b 10       		.byte	0x10
 10841 339c 1E01     		.2byte	0x11e
 10842 339e 59       		.uleb128 0x59
 10843 339f 01       		.byte	0x1
 10844 33a0 01       		.byte	0x1
 10845 33a1 80130000 		.4byte	.LASF560
 10846 33a5 80130000 		.4byte	.LASF560
 10847 33a9 10       		.byte	0x10
 10848 33aa 2A01     		.2byte	0x12a
 10849 33ac 00       		.byte	0
 10850              		.section	.debug_abbrev,"",%progbits
 10851              	.Ldebug_abbrev0:
 10852 0000 01       		.uleb128 0x1
 10853 0001 11       		.uleb128 0x11
 10854 0002 01       		.byte	0x1
 10855 0003 25       		.uleb128 0x25
 10856 0004 0E       		.uleb128 0xe
 10857 0005 13       		.uleb128 0x13
 10858 0006 0B       		.uleb128 0xb
 10859 0007 03       		.uleb128 0x3
 10860 0008 0E       		.uleb128 0xe
 10861 0009 1B       		.uleb128 0x1b
 10862 000a 0E       		.uleb128 0xe
 10863 000b 55       		.uleb128 0x55
 10864 000c 06       		.uleb128 0x6
 10865 000d 11       		.uleb128 0x11
 10866 000e 01       		.uleb128 0x1
 10867 000f 52       		.uleb128 0x52
 10868 0010 01       		.uleb128 0x1
 10869 0011 10       		.uleb128 0x10
 10870 0012 06       		.uleb128 0x6
 10871 0013 00       		.byte	0
 10872 0014 00       		.byte	0
 10873 0015 02       		.uleb128 0x2
 10874 0016 24       		.uleb128 0x24
 10875 0017 00       		.byte	0
 10876 0018 0B       		.uleb128 0xb
 10877 0019 0B       		.uleb128 0xb
 10878 001a 3E       		.uleb128 0x3e
 10879 001b 0B       		.uleb128 0xb
 10880 001c 03       		.uleb128 0x3
 10881 001d 0E       		.uleb128 0xe
 10882 001e 00       		.byte	0
 10883 001f 00       		.byte	0
ARM GAS  C:\Users\EBANO_~1\AppData\Local\Temp\ccEfOEMG.s 			page 220


 10884 0020 03       		.uleb128 0x3
 10885 0021 16       		.uleb128 0x16
 10886 0022 00       		.byte	0
 10887 0023 03       		.uleb128 0x3
 10888 0024 0E       		.uleb128 0xe
 10889 0025 3A       		.uleb128 0x3a
 10890 0026 0B       		.uleb128 0xb
 10891 0027 3B       		.uleb128 0x3b
 10892 0028 0B       		.uleb128 0xb
 10893 0029 49       		.uleb128 0x49
 10894 002a 13       		.uleb128 0x13
 10895 002b 00       		.byte	0
 10896 002c 00       		.byte	0
 10897 002d 04       		.uleb128 0x4
 10898 002e 24       		.uleb128 0x24
 10899 002f 00       		.byte	0
 10900 0030 0B       		.uleb128 0xb
 10901 0031 0B       		.uleb128 0xb
 10902 0032 3E       		.uleb128 0x3e
 10903 0033 0B       		.uleb128 0xb
 10904 0034 03       		.uleb128 0x3
 10905 0035 08       		.uleb128 0x8
 10906 0036 00       		.byte	0
 10907 0037 00       		.byte	0
 10908 0038 05       		.uleb128 0x5
 10909 0039 26       		.uleb128 0x26
 10910 003a 00       		.byte	0
 10911 003b 49       		.uleb128 0x49
 10912 003c 13       		.uleb128 0x13
 10913 003d 00       		.byte	0
 10914 003e 00       		.byte	0
 10915 003f 06       		.uleb128 0x6
 10916 0040 34       		.uleb128 0x34
 10917 0041 00       		.byte	0
 10918 0042 03       		.uleb128 0x3
 10919 0043 0E       		.uleb128 0xe
 10920 0044 3A       		.uleb128 0x3a
 10921 0045 0B       		.uleb128 0xb
 10922 0046 3B       		.uleb128 0x3b
 10923 0047 0B       		.uleb128 0xb
 10924 0048 49       		.uleb128 0x49
 10925 0049 13       		.uleb128 0x13
 10926 004a 3F       		.uleb128 0x3f
 10927 004b 0C       		.uleb128 0xc
 10928 004c 3C       		.uleb128 0x3c
 10929 004d 0C       		.uleb128 0xc
 10930 004e 00       		.byte	0
 10931 004f 00       		.byte	0
 10932 0050 07       		.uleb128 0x7
 10933 0051 01       		.uleb128 0x1
 10934 0052 01       		.byte	0x1
 10935 0053 49       		.uleb128 0x49
 10936 0054 13       		.uleb128 0x13
 10937 0055 01       		.uleb128 0x1
 10938 0056 13       		.uleb128 0x13
 10939 0057 00       		.byte	0
 10940 0058 00       		.byte	0
ARM GAS  C:\Users\EBANO_~1\AppData\Local\Temp\ccEfOEMG.s 			page 221


 10941 0059 08       		.uleb128 0x8
 10942 005a 21       		.uleb128 0x21
 10943 005b 00       		.byte	0
 10944 005c 49       		.uleb128 0x49
 10945 005d 13       		.uleb128 0x13
 10946 005e 2F       		.uleb128 0x2f
 10947 005f 0B       		.uleb128 0xb
 10948 0060 00       		.byte	0
 10949 0061 00       		.byte	0
 10950 0062 09       		.uleb128 0x9
 10951 0063 0F       		.uleb128 0xf
 10952 0064 00       		.byte	0
 10953 0065 0B       		.uleb128 0xb
 10954 0066 0B       		.uleb128 0xb
 10955 0067 00       		.byte	0
 10956 0068 00       		.byte	0
 10957 0069 0A       		.uleb128 0xa
 10958 006a 0F       		.uleb128 0xf
 10959 006b 00       		.byte	0
 10960 006c 0B       		.uleb128 0xb
 10961 006d 0B       		.uleb128 0xb
 10962 006e 49       		.uleb128 0x49
 10963 006f 13       		.uleb128 0x13
 10964 0070 00       		.byte	0
 10965 0071 00       		.byte	0
 10966 0072 0B       		.uleb128 0xb
 10967 0073 13       		.uleb128 0x13
 10968 0074 00       		.byte	0
 10969 0075 03       		.uleb128 0x3
 10970 0076 0E       		.uleb128 0xe
 10971 0077 3C       		.uleb128 0x3c
 10972 0078 0C       		.uleb128 0xc
 10973 0079 00       		.byte	0
 10974 007a 00       		.byte	0
 10975 007b 0C       		.uleb128 0xc
 10976 007c 16       		.uleb128 0x16
 10977 007d 00       		.byte	0
 10978 007e 03       		.uleb128 0x3
 10979 007f 0E       		.uleb128 0xe
 10980 0080 3A       		.uleb128 0x3a
 10981 0081 0B       		.uleb128 0xb
 10982 0082 3B       		.uleb128 0x3b
 10983 0083 05       		.uleb128 0x5
 10984 0084 49       		.uleb128 0x49
 10985 0085 13       		.uleb128 0x13
 10986 0086 00       		.byte	0
 10987 0087 00       		.byte	0
 10988 0088 0D       		.uleb128 0xd
 10989 0089 17       		.uleb128 0x17
 10990 008a 01       		.byte	0x1
 10991 008b 0B       		.uleb128 0xb
 10992 008c 0B       		.uleb128 0xb
 10993 008d 3A       		.uleb128 0x3a
 10994 008e 0B       		.uleb128 0xb
 10995 008f 3B       		.uleb128 0x3b
 10996 0090 0B       		.uleb128 0xb
 10997 0091 01       		.uleb128 0x1
ARM GAS  C:\Users\EBANO_~1\AppData\Local\Temp\ccEfOEMG.s 			page 222


 10998 0092 13       		.uleb128 0x13
 10999 0093 00       		.byte	0
 11000 0094 00       		.byte	0
 11001 0095 0E       		.uleb128 0xe
 11002 0096 0D       		.uleb128 0xd
 11003 0097 00       		.byte	0
 11004 0098 03       		.uleb128 0x3
 11005 0099 0E       		.uleb128 0xe
 11006 009a 3A       		.uleb128 0x3a
 11007 009b 0B       		.uleb128 0xb
 11008 009c 3B       		.uleb128 0x3b
 11009 009d 0B       		.uleb128 0xb
 11010 009e 49       		.uleb128 0x49
 11011 009f 13       		.uleb128 0x13
 11012 00a0 00       		.byte	0
 11013 00a1 00       		.byte	0
 11014 00a2 0F       		.uleb128 0xf
 11015 00a3 13       		.uleb128 0x13
 11016 00a4 01       		.byte	0x1
 11017 00a5 0B       		.uleb128 0xb
 11018 00a6 0B       		.uleb128 0xb
 11019 00a7 3A       		.uleb128 0x3a
 11020 00a8 0B       		.uleb128 0xb
 11021 00a9 3B       		.uleb128 0x3b
 11022 00aa 0B       		.uleb128 0xb
 11023 00ab 01       		.uleb128 0x1
 11024 00ac 13       		.uleb128 0x13
 11025 00ad 00       		.byte	0
 11026 00ae 00       		.byte	0
 11027 00af 10       		.uleb128 0x10
 11028 00b0 0D       		.uleb128 0xd
 11029 00b1 00       		.byte	0
 11030 00b2 03       		.uleb128 0x3
 11031 00b3 0E       		.uleb128 0xe
 11032 00b4 3A       		.uleb128 0x3a
 11033 00b5 0B       		.uleb128 0xb
 11034 00b6 3B       		.uleb128 0x3b
 11035 00b7 0B       		.uleb128 0xb
 11036 00b8 49       		.uleb128 0x49
 11037 00b9 13       		.uleb128 0x13
 11038 00ba 38       		.uleb128 0x38
 11039 00bb 0A       		.uleb128 0xa
 11040 00bc 00       		.byte	0
 11041 00bd 00       		.byte	0
 11042 00be 11       		.uleb128 0x11
 11043 00bf 13       		.uleb128 0x13
 11044 00c0 01       		.byte	0x1
 11045 00c1 03       		.uleb128 0x3
 11046 00c2 0E       		.uleb128 0xe
 11047 00c3 0B       		.uleb128 0xb
 11048 00c4 0B       		.uleb128 0xb
 11049 00c5 3A       		.uleb128 0x3a
 11050 00c6 0B       		.uleb128 0xb
 11051 00c7 3B       		.uleb128 0x3b
 11052 00c8 0B       		.uleb128 0xb
 11053 00c9 01       		.uleb128 0x1
 11054 00ca 13       		.uleb128 0x13
ARM GAS  C:\Users\EBANO_~1\AppData\Local\Temp\ccEfOEMG.s 			page 223


 11055 00cb 00       		.byte	0
 11056 00cc 00       		.byte	0
 11057 00cd 12       		.uleb128 0x12
 11058 00ce 0D       		.uleb128 0xd
 11059 00cf 00       		.byte	0
 11060 00d0 03       		.uleb128 0x3
 11061 00d1 08       		.uleb128 0x8
 11062 00d2 3A       		.uleb128 0x3a
 11063 00d3 0B       		.uleb128 0xb
 11064 00d4 3B       		.uleb128 0x3b
 11065 00d5 0B       		.uleb128 0xb
 11066 00d6 49       		.uleb128 0x49
 11067 00d7 13       		.uleb128 0x13
 11068 00d8 38       		.uleb128 0x38
 11069 00d9 0A       		.uleb128 0xa
 11070 00da 00       		.byte	0
 11071 00db 00       		.byte	0
 11072 00dc 13       		.uleb128 0x13
 11073 00dd 13       		.uleb128 0x13
 11074 00de 01       		.byte	0x1
 11075 00df 03       		.uleb128 0x3
 11076 00e0 0E       		.uleb128 0xe
 11077 00e1 0B       		.uleb128 0xb
 11078 00e2 05       		.uleb128 0x5
 11079 00e3 3A       		.uleb128 0x3a
 11080 00e4 0B       		.uleb128 0xb
 11081 00e5 3B       		.uleb128 0x3b
 11082 00e6 0B       		.uleb128 0xb
 11083 00e7 01       		.uleb128 0x1
 11084 00e8 13       		.uleb128 0x13
 11085 00e9 00       		.byte	0
 11086 00ea 00       		.byte	0
 11087 00eb 14       		.uleb128 0x14
 11088 00ec 15       		.uleb128 0x15
 11089 00ed 00       		.byte	0
 11090 00ee 27       		.uleb128 0x27
 11091 00ef 0C       		.uleb128 0xc
 11092 00f0 00       		.byte	0
 11093 00f1 00       		.byte	0
 11094 00f2 15       		.uleb128 0x15
 11095 00f3 15       		.uleb128 0x15
 11096 00f4 01       		.byte	0x1
 11097 00f5 27       		.uleb128 0x27
 11098 00f6 0C       		.uleb128 0xc
 11099 00f7 49       		.uleb128 0x49
 11100 00f8 13       		.uleb128 0x13
 11101 00f9 01       		.uleb128 0x1
 11102 00fa 13       		.uleb128 0x13
 11103 00fb 00       		.byte	0
 11104 00fc 00       		.byte	0
 11105 00fd 16       		.uleb128 0x16
 11106 00fe 05       		.uleb128 0x5
 11107 00ff 00       		.byte	0
 11108 0100 49       		.uleb128 0x49
 11109 0101 13       		.uleb128 0x13
 11110 0102 00       		.byte	0
 11111 0103 00       		.byte	0
ARM GAS  C:\Users\EBANO_~1\AppData\Local\Temp\ccEfOEMG.s 			page 224


 11112 0104 17       		.uleb128 0x17
 11113 0105 13       		.uleb128 0x13
 11114 0106 01       		.byte	0x1
 11115 0107 03       		.uleb128 0x3
 11116 0108 0E       		.uleb128 0xe
 11117 0109 0B       		.uleb128 0xb
 11118 010a 05       		.uleb128 0x5
 11119 010b 3A       		.uleb128 0x3a
 11120 010c 0B       		.uleb128 0xb
 11121 010d 3B       		.uleb128 0x3b
 11122 010e 05       		.uleb128 0x5
 11123 010f 01       		.uleb128 0x1
 11124 0110 13       		.uleb128 0x13
 11125 0111 00       		.byte	0
 11126 0112 00       		.byte	0
 11127 0113 18       		.uleb128 0x18
 11128 0114 0D       		.uleb128 0xd
 11129 0115 00       		.byte	0
 11130 0116 03       		.uleb128 0x3
 11131 0117 0E       		.uleb128 0xe
 11132 0118 3A       		.uleb128 0x3a
 11133 0119 0B       		.uleb128 0xb
 11134 011a 3B       		.uleb128 0x3b
 11135 011b 05       		.uleb128 0x5
 11136 011c 49       		.uleb128 0x49
 11137 011d 13       		.uleb128 0x13
 11138 011e 38       		.uleb128 0x38
 11139 011f 0A       		.uleb128 0xa
 11140 0120 00       		.byte	0
 11141 0121 00       		.byte	0
 11142 0122 19       		.uleb128 0x19
 11143 0123 13       		.uleb128 0x13
 11144 0124 01       		.byte	0x1
 11145 0125 03       		.uleb128 0x3
 11146 0126 0E       		.uleb128 0xe
 11147 0127 0B       		.uleb128 0xb
 11148 0128 0B       		.uleb128 0xb
 11149 0129 3A       		.uleb128 0x3a
 11150 012a 0B       		.uleb128 0xb
 11151 012b 3B       		.uleb128 0x3b
 11152 012c 05       		.uleb128 0x5
 11153 012d 01       		.uleb128 0x1
 11154 012e 13       		.uleb128 0x13
 11155 012f 00       		.byte	0
 11156 0130 00       		.byte	0
 11157 0131 1A       		.uleb128 0x1a
 11158 0132 13       		.uleb128 0x13
 11159 0133 01       		.byte	0x1
 11160 0134 0B       		.uleb128 0xb
 11161 0135 0B       		.uleb128 0xb
 11162 0136 3A       		.uleb128 0x3a
 11163 0137 0B       		.uleb128 0xb
 11164 0138 3B       		.uleb128 0x3b
 11165 0139 05       		.uleb128 0x5
 11166 013a 01       		.uleb128 0x1
 11167 013b 13       		.uleb128 0x13
 11168 013c 00       		.byte	0
ARM GAS  C:\Users\EBANO_~1\AppData\Local\Temp\ccEfOEMG.s 			page 225


 11169 013d 00       		.byte	0
 11170 013e 1B       		.uleb128 0x1b
 11171 013f 17       		.uleb128 0x17
 11172 0140 01       		.byte	0x1
 11173 0141 0B       		.uleb128 0xb
 11174 0142 0B       		.uleb128 0xb
 11175 0143 3A       		.uleb128 0x3a
 11176 0144 0B       		.uleb128 0xb
 11177 0145 3B       		.uleb128 0x3b
 11178 0146 05       		.uleb128 0x5
 11179 0147 01       		.uleb128 0x1
 11180 0148 13       		.uleb128 0x13
 11181 0149 00       		.byte	0
 11182 014a 00       		.byte	0
 11183 014b 1C       		.uleb128 0x1c
 11184 014c 0D       		.uleb128 0xd
 11185 014d 00       		.byte	0
 11186 014e 03       		.uleb128 0x3
 11187 014f 0E       		.uleb128 0xe
 11188 0150 3A       		.uleb128 0x3a
 11189 0151 0B       		.uleb128 0xb
 11190 0152 3B       		.uleb128 0x3b
 11191 0153 05       		.uleb128 0x5
 11192 0154 49       		.uleb128 0x49
 11193 0155 13       		.uleb128 0x13
 11194 0156 00       		.byte	0
 11195 0157 00       		.byte	0
 11196 0158 1D       		.uleb128 0x1d
 11197 0159 15       		.uleb128 0x15
 11198 015a 01       		.byte	0x1
 11199 015b 27       		.uleb128 0x27
 11200 015c 0C       		.uleb128 0xc
 11201 015d 01       		.uleb128 0x1
 11202 015e 13       		.uleb128 0x13
 11203 015f 00       		.byte	0
 11204 0160 00       		.byte	0
 11205 0161 1E       		.uleb128 0x1e
 11206 0162 34       		.uleb128 0x34
 11207 0163 00       		.byte	0
 11208 0164 03       		.uleb128 0x3
 11209 0165 0E       		.uleb128 0xe
 11210 0166 3A       		.uleb128 0x3a
 11211 0167 0B       		.uleb128 0xb
 11212 0168 3B       		.uleb128 0x3b
 11213 0169 05       		.uleb128 0x5
 11214 016a 49       		.uleb128 0x49
 11215 016b 13       		.uleb128 0x13
 11216 016c 3F       		.uleb128 0x3f
 11217 016d 0C       		.uleb128 0xc
 11218 016e 3C       		.uleb128 0x3c
 11219 016f 0C       		.uleb128 0xc
 11220 0170 00       		.byte	0
 11221 0171 00       		.byte	0
 11222 0172 1F       		.uleb128 0x1f
 11223 0173 17       		.uleb128 0x17
 11224 0174 01       		.byte	0x1
 11225 0175 03       		.uleb128 0x3
ARM GAS  C:\Users\EBANO_~1\AppData\Local\Temp\ccEfOEMG.s 			page 226


 11226 0176 0E       		.uleb128 0xe
 11227 0177 0B       		.uleb128 0xb
 11228 0178 0B       		.uleb128 0xb
 11229 0179 3A       		.uleb128 0x3a
 11230 017a 0B       		.uleb128 0xb
 11231 017b 3B       		.uleb128 0x3b
 11232 017c 0B       		.uleb128 0xb
 11233 017d 01       		.uleb128 0x1
 11234 017e 13       		.uleb128 0x13
 11235 017f 00       		.byte	0
 11236 0180 00       		.byte	0
 11237 0181 20       		.uleb128 0x20
 11238 0182 04       		.uleb128 0x4
 11239 0183 01       		.byte	0x1
 11240 0184 3E       		.uleb128 0x3e
 11241 0185 0B       		.uleb128 0xb
 11242 0186 0B       		.uleb128 0xb
 11243 0187 0B       		.uleb128 0xb
 11244 0188 49       		.uleb128 0x49
 11245 0189 13       		.uleb128 0x13
 11246 018a 3A       		.uleb128 0x3a
 11247 018b 0B       		.uleb128 0xb
 11248 018c 3B       		.uleb128 0x3b
 11249 018d 0B       		.uleb128 0xb
 11250 018e 01       		.uleb128 0x1
 11251 018f 13       		.uleb128 0x13
 11252 0190 00       		.byte	0
 11253 0191 00       		.byte	0
 11254 0192 21       		.uleb128 0x21
 11255 0193 28       		.uleb128 0x28
 11256 0194 00       		.byte	0
 11257 0195 03       		.uleb128 0x3
 11258 0196 0E       		.uleb128 0xe
 11259 0197 1C       		.uleb128 0x1c
 11260 0198 0B       		.uleb128 0xb
 11261 0199 00       		.byte	0
 11262 019a 00       		.byte	0
 11263 019b 22       		.uleb128 0x22
 11264 019c 0D       		.uleb128 0xd
 11265 019d 00       		.byte	0
 11266 019e 03       		.uleb128 0x3
 11267 019f 08       		.uleb128 0x8
 11268 01a0 3A       		.uleb128 0x3a
 11269 01a1 0B       		.uleb128 0xb
 11270 01a2 3B       		.uleb128 0x3b
 11271 01a3 05       		.uleb128 0x5
 11272 01a4 49       		.uleb128 0x49
 11273 01a5 13       		.uleb128 0x13
 11274 01a6 38       		.uleb128 0x38
 11275 01a7 0A       		.uleb128 0xa
 11276 01a8 00       		.byte	0
 11277 01a9 00       		.byte	0
 11278 01aa 23       		.uleb128 0x23
 11279 01ab 15       		.uleb128 0x15
 11280 01ac 00       		.byte	0
 11281 01ad 27       		.uleb128 0x27
 11282 01ae 0C       		.uleb128 0xc
ARM GAS  C:\Users\EBANO_~1\AppData\Local\Temp\ccEfOEMG.s 			page 227


 11283 01af 49       		.uleb128 0x49
 11284 01b0 13       		.uleb128 0x13
 11285 01b1 00       		.byte	0
 11286 01b2 00       		.byte	0
 11287 01b3 24       		.uleb128 0x24
 11288 01b4 0D       		.uleb128 0xd
 11289 01b5 00       		.byte	0
 11290 01b6 03       		.uleb128 0x3
 11291 01b7 08       		.uleb128 0x8
 11292 01b8 3A       		.uleb128 0x3a
 11293 01b9 0B       		.uleb128 0xb
 11294 01ba 3B       		.uleb128 0x3b
 11295 01bb 0B       		.uleb128 0xb
 11296 01bc 49       		.uleb128 0x49
 11297 01bd 13       		.uleb128 0x13
 11298 01be 0B       		.uleb128 0xb
 11299 01bf 0B       		.uleb128 0xb
 11300 01c0 0D       		.uleb128 0xd
 11301 01c1 0B       		.uleb128 0xb
 11302 01c2 0C       		.uleb128 0xc
 11303 01c3 0B       		.uleb128 0xb
 11304 01c4 38       		.uleb128 0x38
 11305 01c5 0A       		.uleb128 0xa
 11306 01c6 00       		.byte	0
 11307 01c7 00       		.byte	0
 11308 01c8 25       		.uleb128 0x25
 11309 01c9 04       		.uleb128 0x4
 11310 01ca 01       		.byte	0x1
 11311 01cb 03       		.uleb128 0x3
 11312 01cc 0E       		.uleb128 0xe
 11313 01cd 3E       		.uleb128 0x3e
 11314 01ce 0B       		.uleb128 0xb
 11315 01cf 0B       		.uleb128 0xb
 11316 01d0 0B       		.uleb128 0xb
 11317 01d1 49       		.uleb128 0x49
 11318 01d2 13       		.uleb128 0x13
 11319 01d3 3A       		.uleb128 0x3a
 11320 01d4 0B       		.uleb128 0xb
 11321 01d5 3B       		.uleb128 0x3b
 11322 01d6 0B       		.uleb128 0xb
 11323 01d7 01       		.uleb128 0x1
 11324 01d8 13       		.uleb128 0x13
 11325 01d9 00       		.byte	0
 11326 01da 00       		.byte	0
 11327 01db 26       		.uleb128 0x26
 11328 01dc 04       		.uleb128 0x4
 11329 01dd 01       		.byte	0x1
 11330 01de 03       		.uleb128 0x3
 11331 01df 0E       		.uleb128 0xe
 11332 01e0 3E       		.uleb128 0x3e
 11333 01e1 0B       		.uleb128 0xb
 11334 01e2 0B       		.uleb128 0xb
 11335 01e3 0B       		.uleb128 0xb
 11336 01e4 49       		.uleb128 0x49
 11337 01e5 13       		.uleb128 0x13
 11338 01e6 3A       		.uleb128 0x3a
 11339 01e7 0B       		.uleb128 0xb
ARM GAS  C:\Users\EBANO_~1\AppData\Local\Temp\ccEfOEMG.s 			page 228


 11340 01e8 3B       		.uleb128 0x3b
 11341 01e9 05       		.uleb128 0x5
 11342 01ea 01       		.uleb128 0x1
 11343 01eb 13       		.uleb128 0x13
 11344 01ec 00       		.byte	0
 11345 01ed 00       		.byte	0
 11346 01ee 27       		.uleb128 0x27
 11347 01ef 34       		.uleb128 0x34
 11348 01f0 00       		.byte	0
 11349 01f1 03       		.uleb128 0x3
 11350 01f2 0E       		.uleb128 0xe
 11351 01f3 3A       		.uleb128 0x3a
 11352 01f4 0B       		.uleb128 0xb
 11353 01f5 3B       		.uleb128 0x3b
 11354 01f6 05       		.uleb128 0x5
 11355 01f7 49       		.uleb128 0x49
 11356 01f8 13       		.uleb128 0x13
 11357 01f9 1C       		.uleb128 0x1c
 11358 01fa 0A       		.uleb128 0xa
 11359 01fb 00       		.byte	0
 11360 01fc 00       		.byte	0
 11361 01fd 28       		.uleb128 0x28
 11362 01fe 17       		.uleb128 0x17
 11363 01ff 01       		.byte	0x1
 11364 0200 03       		.uleb128 0x3
 11365 0201 0E       		.uleb128 0xe
 11366 0202 0B       		.uleb128 0xb
 11367 0203 0B       		.uleb128 0xb
 11368 0204 3A       		.uleb128 0x3a
 11369 0205 0B       		.uleb128 0xb
 11370 0206 3B       		.uleb128 0x3b
 11371 0207 05       		.uleb128 0x5
 11372 0208 01       		.uleb128 0x1
 11373 0209 13       		.uleb128 0x13
 11374 020a 00       		.byte	0
 11375 020b 00       		.byte	0
 11376 020c 29       		.uleb128 0x29
 11377 020d 34       		.uleb128 0x34
 11378 020e 00       		.byte	0
 11379 020f 03       		.uleb128 0x3
 11380 0210 0E       		.uleb128 0xe
 11381 0211 3A       		.uleb128 0x3a
 11382 0212 0B       		.uleb128 0xb
 11383 0213 3B       		.uleb128 0x3b
 11384 0214 05       		.uleb128 0x5
 11385 0215 49       		.uleb128 0x49
 11386 0216 13       		.uleb128 0x13
 11387 0217 02       		.uleb128 0x2
 11388 0218 0A       		.uleb128 0xa
 11389 0219 00       		.byte	0
 11390 021a 00       		.byte	0
 11391 021b 2A       		.uleb128 0x2a
 11392 021c 34       		.uleb128 0x34
 11393 021d 00       		.byte	0
 11394 021e 03       		.uleb128 0x3
 11395 021f 0E       		.uleb128 0xe
 11396 0220 3A       		.uleb128 0x3a
ARM GAS  C:\Users\EBANO_~1\AppData\Local\Temp\ccEfOEMG.s 			page 229


 11397 0221 0B       		.uleb128 0xb
 11398 0222 3B       		.uleb128 0x3b
 11399 0223 0B       		.uleb128 0xb
 11400 0224 49       		.uleb128 0x49
 11401 0225 13       		.uleb128 0x13
 11402 0226 02       		.uleb128 0x2
 11403 0227 0A       		.uleb128 0xa
 11404 0228 00       		.byte	0
 11405 0229 00       		.byte	0
 11406 022a 2B       		.uleb128 0x2b
 11407 022b 2E       		.uleb128 0x2e
 11408 022c 01       		.byte	0x1
 11409 022d 3F       		.uleb128 0x3f
 11410 022e 0C       		.uleb128 0xc
 11411 022f 03       		.uleb128 0x3
 11412 0230 0E       		.uleb128 0xe
 11413 0231 3A       		.uleb128 0x3a
 11414 0232 0B       		.uleb128 0xb
 11415 0233 3B       		.uleb128 0x3b
 11416 0234 05       		.uleb128 0x5
 11417 0235 27       		.uleb128 0x27
 11418 0236 0C       		.uleb128 0xc
 11419 0237 11       		.uleb128 0x11
 11420 0238 01       		.uleb128 0x1
 11421 0239 12       		.uleb128 0x12
 11422 023a 01       		.uleb128 0x1
 11423 023b 40       		.uleb128 0x40
 11424 023c 06       		.uleb128 0x6
 11425 023d 9742     		.uleb128 0x2117
 11426 023f 0C       		.uleb128 0xc
 11427 0240 01       		.uleb128 0x1
 11428 0241 13       		.uleb128 0x13
 11429 0242 00       		.byte	0
 11430 0243 00       		.byte	0
 11431 0244 2C       		.uleb128 0x2c
 11432 0245 05       		.uleb128 0x5
 11433 0246 00       		.byte	0
 11434 0247 03       		.uleb128 0x3
 11435 0248 0E       		.uleb128 0xe
 11436 0249 3A       		.uleb128 0x3a
 11437 024a 0B       		.uleb128 0xb
 11438 024b 3B       		.uleb128 0x3b
 11439 024c 05       		.uleb128 0x5
 11440 024d 49       		.uleb128 0x49
 11441 024e 13       		.uleb128 0x13
 11442 024f 02       		.uleb128 0x2
 11443 0250 06       		.uleb128 0x6
 11444 0251 00       		.byte	0
 11445 0252 00       		.byte	0
 11446 0253 2D       		.uleb128 0x2d
 11447 0254 898201   		.uleb128 0x4109
 11448 0257 01       		.byte	0x1
 11449 0258 11       		.uleb128 0x11
 11450 0259 01       		.uleb128 0x1
 11451 025a 31       		.uleb128 0x31
 11452 025b 13       		.uleb128 0x13
 11453 025c 00       		.byte	0
ARM GAS  C:\Users\EBANO_~1\AppData\Local\Temp\ccEfOEMG.s 			page 230


 11454 025d 00       		.byte	0
 11455 025e 2E       		.uleb128 0x2e
 11456 025f 8A8201   		.uleb128 0x410a
 11457 0262 00       		.byte	0
 11458 0263 02       		.uleb128 0x2
 11459 0264 0A       		.uleb128 0xa
 11460 0265 9142     		.uleb128 0x2111
 11461 0267 0A       		.uleb128 0xa
 11462 0268 00       		.byte	0
 11463 0269 00       		.byte	0
 11464 026a 2F       		.uleb128 0x2f
 11465 026b 2E       		.uleb128 0x2e
 11466 026c 01       		.byte	0x1
 11467 026d 3F       		.uleb128 0x3f
 11468 026e 0C       		.uleb128 0xc
 11469 026f 03       		.uleb128 0x3
 11470 0270 0E       		.uleb128 0xe
 11471 0271 3A       		.uleb128 0x3a
 11472 0272 0B       		.uleb128 0xb
 11473 0273 3B       		.uleb128 0x3b
 11474 0274 05       		.uleb128 0x5
 11475 0275 27       		.uleb128 0x27
 11476 0276 0C       		.uleb128 0xc
 11477 0277 49       		.uleb128 0x49
 11478 0278 13       		.uleb128 0x13
 11479 0279 11       		.uleb128 0x11
 11480 027a 01       		.uleb128 0x1
 11481 027b 12       		.uleb128 0x12
 11482 027c 01       		.uleb128 0x1
 11483 027d 40       		.uleb128 0x40
 11484 027e 0A       		.uleb128 0xa
 11485 027f 9742     		.uleb128 0x2117
 11486 0281 0C       		.uleb128 0xc
 11487 0282 01       		.uleb128 0x1
 11488 0283 13       		.uleb128 0x13
 11489 0284 00       		.byte	0
 11490 0285 00       		.byte	0
 11491 0286 30       		.uleb128 0x30
 11492 0287 05       		.uleb128 0x5
 11493 0288 00       		.byte	0
 11494 0289 03       		.uleb128 0x3
 11495 028a 08       		.uleb128 0x8
 11496 028b 3A       		.uleb128 0x3a
 11497 028c 0B       		.uleb128 0xb
 11498 028d 3B       		.uleb128 0x3b
 11499 028e 05       		.uleb128 0x5
 11500 028f 49       		.uleb128 0x49
 11501 0290 13       		.uleb128 0x13
 11502 0291 02       		.uleb128 0x2
 11503 0292 06       		.uleb128 0x6
 11504 0293 00       		.byte	0
 11505 0294 00       		.byte	0
 11506 0295 31       		.uleb128 0x31
 11507 0296 34       		.uleb128 0x34
 11508 0297 00       		.byte	0
 11509 0298 03       		.uleb128 0x3
 11510 0299 0E       		.uleb128 0xe
ARM GAS  C:\Users\EBANO_~1\AppData\Local\Temp\ccEfOEMG.s 			page 231


 11511 029a 3A       		.uleb128 0x3a
 11512 029b 0B       		.uleb128 0xb
 11513 029c 3B       		.uleb128 0x3b
 11514 029d 05       		.uleb128 0x5
 11515 029e 49       		.uleb128 0x49
 11516 029f 13       		.uleb128 0x13
 11517 02a0 00       		.byte	0
 11518 02a1 00       		.byte	0
 11519 02a2 32       		.uleb128 0x32
 11520 02a3 34       		.uleb128 0x34
 11521 02a4 00       		.byte	0
 11522 02a5 03       		.uleb128 0x3
 11523 02a6 0E       		.uleb128 0xe
 11524 02a7 3A       		.uleb128 0x3a
 11525 02a8 0B       		.uleb128 0xb
 11526 02a9 3B       		.uleb128 0x3b
 11527 02aa 05       		.uleb128 0x5
 11528 02ab 49       		.uleb128 0x49
 11529 02ac 13       		.uleb128 0x13
 11530 02ad 02       		.uleb128 0x2
 11531 02ae 06       		.uleb128 0x6
 11532 02af 00       		.byte	0
 11533 02b0 00       		.byte	0
 11534 02b1 33       		.uleb128 0x33
 11535 02b2 1D       		.uleb128 0x1d
 11536 02b3 01       		.byte	0x1
 11537 02b4 31       		.uleb128 0x31
 11538 02b5 13       		.uleb128 0x13
 11539 02b6 52       		.uleb128 0x52
 11540 02b7 01       		.uleb128 0x1
 11541 02b8 55       		.uleb128 0x55
 11542 02b9 06       		.uleb128 0x6
 11543 02ba 58       		.uleb128 0x58
 11544 02bb 0B       		.uleb128 0xb
 11545 02bc 59       		.uleb128 0x59
 11546 02bd 05       		.uleb128 0x5
 11547 02be 01       		.uleb128 0x1
 11548 02bf 13       		.uleb128 0x13
 11549 02c0 00       		.byte	0
 11550 02c1 00       		.byte	0
 11551 02c2 34       		.uleb128 0x34
 11552 02c3 05       		.uleb128 0x5
 11553 02c4 00       		.byte	0
 11554 02c5 31       		.uleb128 0x31
 11555 02c6 13       		.uleb128 0x13
 11556 02c7 02       		.uleb128 0x2
 11557 02c8 06       		.uleb128 0x6
 11558 02c9 00       		.byte	0
 11559 02ca 00       		.byte	0
 11560 02cb 35       		.uleb128 0x35
 11561 02cc 05       		.uleb128 0x5
 11562 02cd 00       		.byte	0
 11563 02ce 31       		.uleb128 0x31
 11564 02cf 13       		.uleb128 0x13
 11565 02d0 02       		.uleb128 0x2
 11566 02d1 0A       		.uleb128 0xa
 11567 02d2 00       		.byte	0
ARM GAS  C:\Users\EBANO_~1\AppData\Local\Temp\ccEfOEMG.s 			page 232


 11568 02d3 00       		.byte	0
 11569 02d4 36       		.uleb128 0x36
 11570 02d5 05       		.uleb128 0x5
 11571 02d6 00       		.byte	0
 11572 02d7 31       		.uleb128 0x31
 11573 02d8 13       		.uleb128 0x13
 11574 02d9 00       		.byte	0
 11575 02da 00       		.byte	0
 11576 02db 37       		.uleb128 0x37
 11577 02dc 0B       		.uleb128 0xb
 11578 02dd 01       		.byte	0x1
 11579 02de 55       		.uleb128 0x55
 11580 02df 06       		.uleb128 0x6
 11581 02e0 00       		.byte	0
 11582 02e1 00       		.byte	0
 11583 02e2 38       		.uleb128 0x38
 11584 02e3 34       		.uleb128 0x34
 11585 02e4 00       		.byte	0
 11586 02e5 31       		.uleb128 0x31
 11587 02e6 13       		.uleb128 0x13
 11588 02e7 00       		.byte	0
 11589 02e8 00       		.byte	0
 11590 02e9 39       		.uleb128 0x39
 11591 02ea 898201   		.uleb128 0x4109
 11592 02ed 00       		.byte	0
 11593 02ee 11       		.uleb128 0x11
 11594 02ef 01       		.uleb128 0x1
 11595 02f0 31       		.uleb128 0x31
 11596 02f1 13       		.uleb128 0x13
 11597 02f2 00       		.byte	0
 11598 02f3 00       		.byte	0
 11599 02f4 3A       		.uleb128 0x3a
 11600 02f5 898201   		.uleb128 0x4109
 11601 02f8 01       		.byte	0x1
 11602 02f9 11       		.uleb128 0x11
 11603 02fa 01       		.uleb128 0x1
 11604 02fb 00       		.byte	0
 11605 02fc 00       		.byte	0
 11606 02fd 3B       		.uleb128 0x3b
 11607 02fe 2E       		.uleb128 0x2e
 11608 02ff 01       		.byte	0x1
 11609 0300 3F       		.uleb128 0x3f
 11610 0301 0C       		.uleb128 0xc
 11611 0302 03       		.uleb128 0x3
 11612 0303 0E       		.uleb128 0xe
 11613 0304 3A       		.uleb128 0x3a
 11614 0305 0B       		.uleb128 0xb
 11615 0306 3B       		.uleb128 0x3b
 11616 0307 05       		.uleb128 0x5
 11617 0308 27       		.uleb128 0x27
 11618 0309 0C       		.uleb128 0xc
 11619 030a 49       		.uleb128 0x49
 11620 030b 13       		.uleb128 0x13
 11621 030c 20       		.uleb128 0x20
 11622 030d 0B       		.uleb128 0xb
 11623 030e 01       		.uleb128 0x1
 11624 030f 13       		.uleb128 0x13
ARM GAS  C:\Users\EBANO_~1\AppData\Local\Temp\ccEfOEMG.s 			page 233


 11625 0310 00       		.byte	0
 11626 0311 00       		.byte	0
 11627 0312 3C       		.uleb128 0x3c
 11628 0313 05       		.uleb128 0x5
 11629 0314 00       		.byte	0
 11630 0315 03       		.uleb128 0x3
 11631 0316 0E       		.uleb128 0xe
 11632 0317 3A       		.uleb128 0x3a
 11633 0318 0B       		.uleb128 0xb
 11634 0319 3B       		.uleb128 0x3b
 11635 031a 05       		.uleb128 0x5
 11636 031b 49       		.uleb128 0x49
 11637 031c 13       		.uleb128 0x13
 11638 031d 00       		.byte	0
 11639 031e 00       		.byte	0
 11640 031f 3D       		.uleb128 0x3d
 11641 0320 34       		.uleb128 0x34
 11642 0321 00       		.byte	0
 11643 0322 03       		.uleb128 0x3
 11644 0323 08       		.uleb128 0x8
 11645 0324 3A       		.uleb128 0x3a
 11646 0325 0B       		.uleb128 0xb
 11647 0326 3B       		.uleb128 0x3b
 11648 0327 05       		.uleb128 0x5
 11649 0328 49       		.uleb128 0x49
 11650 0329 13       		.uleb128 0x13
 11651 032a 00       		.byte	0
 11652 032b 00       		.byte	0
 11653 032c 3E       		.uleb128 0x3e
 11654 032d 2E       		.uleb128 0x2e
 11655 032e 01       		.byte	0x1
 11656 032f 3F       		.uleb128 0x3f
 11657 0330 0C       		.uleb128 0xc
 11658 0331 03       		.uleb128 0x3
 11659 0332 0E       		.uleb128 0xe
 11660 0333 3A       		.uleb128 0x3a
 11661 0334 0B       		.uleb128 0xb
 11662 0335 3B       		.uleb128 0x3b
 11663 0336 05       		.uleb128 0x5
 11664 0337 27       		.uleb128 0x27
 11665 0338 0C       		.uleb128 0xc
 11666 0339 49       		.uleb128 0x49
 11667 033a 13       		.uleb128 0x13
 11668 033b 11       		.uleb128 0x11
 11669 033c 01       		.uleb128 0x1
 11670 033d 12       		.uleb128 0x12
 11671 033e 01       		.uleb128 0x1
 11672 033f 40       		.uleb128 0x40
 11673 0340 06       		.uleb128 0x6
 11674 0341 9742     		.uleb128 0x2117
 11675 0343 0C       		.uleb128 0xc
 11676 0344 01       		.uleb128 0x1
 11677 0345 13       		.uleb128 0x13
 11678 0346 00       		.byte	0
 11679 0347 00       		.byte	0
 11680 0348 3F       		.uleb128 0x3f
 11681 0349 34       		.uleb128 0x34
ARM GAS  C:\Users\EBANO_~1\AppData\Local\Temp\ccEfOEMG.s 			page 234


 11682 034a 00       		.byte	0
 11683 034b 31       		.uleb128 0x31
 11684 034c 13       		.uleb128 0x13
 11685 034d 02       		.uleb128 0x2
 11686 034e 06       		.uleb128 0x6
 11687 034f 00       		.byte	0
 11688 0350 00       		.byte	0
 11689 0351 40       		.uleb128 0x40
 11690 0352 0B       		.uleb128 0xb
 11691 0353 01       		.byte	0x1
 11692 0354 31       		.uleb128 0x31
 11693 0355 13       		.uleb128 0x13
 11694 0356 55       		.uleb128 0x55
 11695 0357 06       		.uleb128 0x6
 11696 0358 00       		.byte	0
 11697 0359 00       		.byte	0
 11698 035a 41       		.uleb128 0x41
 11699 035b 898201   		.uleb128 0x4109
 11700 035e 01       		.byte	0x1
 11701 035f 11       		.uleb128 0x11
 11702 0360 01       		.uleb128 0x1
 11703 0361 31       		.uleb128 0x31
 11704 0362 13       		.uleb128 0x13
 11705 0363 01       		.uleb128 0x1
 11706 0364 13       		.uleb128 0x13
 11707 0365 00       		.byte	0
 11708 0366 00       		.byte	0
 11709 0367 42       		.uleb128 0x42
 11710 0368 05       		.uleb128 0x5
 11711 0369 00       		.byte	0
 11712 036a 03       		.uleb128 0x3
 11713 036b 0E       		.uleb128 0xe
 11714 036c 3A       		.uleb128 0x3a
 11715 036d 0B       		.uleb128 0xb
 11716 036e 3B       		.uleb128 0x3b
 11717 036f 05       		.uleb128 0x5
 11718 0370 49       		.uleb128 0x49
 11719 0371 13       		.uleb128 0x13
 11720 0372 02       		.uleb128 0x2
 11721 0373 0A       		.uleb128 0xa
 11722 0374 00       		.byte	0
 11723 0375 00       		.byte	0
 11724 0376 43       		.uleb128 0x43
 11725 0377 1D       		.uleb128 0x1d
 11726 0378 01       		.byte	0x1
 11727 0379 31       		.uleb128 0x31
 11728 037a 13       		.uleb128 0x13
 11729 037b 52       		.uleb128 0x52
 11730 037c 01       		.uleb128 0x1
 11731 037d 55       		.uleb128 0x55
 11732 037e 06       		.uleb128 0x6
 11733 037f 58       		.uleb128 0x58
 11734 0380 0B       		.uleb128 0xb
 11735 0381 59       		.uleb128 0x59
 11736 0382 05       		.uleb128 0x5
 11737 0383 00       		.byte	0
 11738 0384 00       		.byte	0
ARM GAS  C:\Users\EBANO_~1\AppData\Local\Temp\ccEfOEMG.s 			page 235


 11739 0385 44       		.uleb128 0x44
 11740 0386 34       		.uleb128 0x34
 11741 0387 00       		.byte	0
 11742 0388 03       		.uleb128 0x3
 11743 0389 0E       		.uleb128 0xe
 11744 038a 3A       		.uleb128 0x3a
 11745 038b 0B       		.uleb128 0xb
 11746 038c 3B       		.uleb128 0x3b
 11747 038d 05       		.uleb128 0x5
 11748 038e 49       		.uleb128 0x49
 11749 038f 13       		.uleb128 0x13
 11750 0390 1C       		.uleb128 0x1c
 11751 0391 0B       		.uleb128 0xb
 11752 0392 00       		.byte	0
 11753 0393 00       		.byte	0
 11754 0394 45       		.uleb128 0x45
 11755 0395 898201   		.uleb128 0x4109
 11756 0398 01       		.byte	0x1
 11757 0399 11       		.uleb128 0x11
 11758 039a 01       		.uleb128 0x1
 11759 039b 01       		.uleb128 0x1
 11760 039c 13       		.uleb128 0x13
 11761 039d 00       		.byte	0
 11762 039e 00       		.byte	0
 11763 039f 46       		.uleb128 0x46
 11764 03a0 898201   		.uleb128 0x4109
 11765 03a3 00       		.byte	0
 11766 03a4 11       		.uleb128 0x11
 11767 03a5 01       		.uleb128 0x1
 11768 03a6 9342     		.uleb128 0x2113
 11769 03a8 0A       		.uleb128 0xa
 11770 03a9 00       		.byte	0
 11771 03aa 00       		.byte	0
 11772 03ab 47       		.uleb128 0x47
 11773 03ac 0B       		.uleb128 0xb
 11774 03ad 01       		.byte	0x1
 11775 03ae 55       		.uleb128 0x55
 11776 03af 06       		.uleb128 0x6
 11777 03b0 01       		.uleb128 0x1
 11778 03b1 13       		.uleb128 0x13
 11779 03b2 00       		.byte	0
 11780 03b3 00       		.byte	0
 11781 03b4 48       		.uleb128 0x48
 11782 03b5 34       		.uleb128 0x34
 11783 03b6 00       		.byte	0
 11784 03b7 03       		.uleb128 0x3
 11785 03b8 08       		.uleb128 0x8
 11786 03b9 3A       		.uleb128 0x3a
 11787 03ba 0B       		.uleb128 0xb
 11788 03bb 3B       		.uleb128 0x3b
 11789 03bc 05       		.uleb128 0x5
 11790 03bd 49       		.uleb128 0x49
 11791 03be 13       		.uleb128 0x13
 11792 03bf 02       		.uleb128 0x2
 11793 03c0 06       		.uleb128 0x6
 11794 03c1 00       		.byte	0
 11795 03c2 00       		.byte	0
ARM GAS  C:\Users\EBANO_~1\AppData\Local\Temp\ccEfOEMG.s 			page 236


 11796 03c3 49       		.uleb128 0x49
 11797 03c4 898201   		.uleb128 0x4109
 11798 03c7 01       		.byte	0x1
 11799 03c8 11       		.uleb128 0x11
 11800 03c9 01       		.uleb128 0x1
 11801 03ca 9342     		.uleb128 0x2113
 11802 03cc 0A       		.uleb128 0xa
 11803 03cd 01       		.uleb128 0x1
 11804 03ce 13       		.uleb128 0x13
 11805 03cf 00       		.byte	0
 11806 03d0 00       		.byte	0
 11807 03d1 4A       		.uleb128 0x4a
 11808 03d2 898201   		.uleb128 0x4109
 11809 03d5 01       		.byte	0x1
 11810 03d6 11       		.uleb128 0x11
 11811 03d7 01       		.uleb128 0x1
 11812 03d8 9342     		.uleb128 0x2113
 11813 03da 0A       		.uleb128 0xa
 11814 03db 00       		.byte	0
 11815 03dc 00       		.byte	0
 11816 03dd 4B       		.uleb128 0x4b
 11817 03de 898201   		.uleb128 0x4109
 11818 03e1 00       		.byte	0
 11819 03e2 11       		.uleb128 0x11
 11820 03e3 01       		.uleb128 0x1
 11821 03e4 00       		.byte	0
 11822 03e5 00       		.byte	0
 11823 03e6 4C       		.uleb128 0x4c
 11824 03e7 1D       		.uleb128 0x1d
 11825 03e8 01       		.byte	0x1
 11826 03e9 31       		.uleb128 0x31
 11827 03ea 13       		.uleb128 0x13
 11828 03eb 11       		.uleb128 0x11
 11829 03ec 01       		.uleb128 0x1
 11830 03ed 12       		.uleb128 0x12
 11831 03ee 01       		.uleb128 0x1
 11832 03ef 58       		.uleb128 0x58
 11833 03f0 0B       		.uleb128 0xb
 11834 03f1 59       		.uleb128 0x59
 11835 03f2 05       		.uleb128 0x5
 11836 03f3 00       		.byte	0
 11837 03f4 00       		.byte	0
 11838 03f5 4D       		.uleb128 0x4d
 11839 03f6 0B       		.uleb128 0xb
 11840 03f7 01       		.byte	0x1
 11841 03f8 11       		.uleb128 0x11
 11842 03f9 01       		.uleb128 0x1
 11843 03fa 12       		.uleb128 0x12
 11844 03fb 01       		.uleb128 0x1
 11845 03fc 00       		.byte	0
 11846 03fd 00       		.byte	0
 11847 03fe 4E       		.uleb128 0x4e
 11848 03ff 34       		.uleb128 0x34
 11849 0400 00       		.byte	0
 11850 0401 31       		.uleb128 0x31
 11851 0402 13       		.uleb128 0x13
 11852 0403 1C       		.uleb128 0x1c
ARM GAS  C:\Users\EBANO_~1\AppData\Local\Temp\ccEfOEMG.s 			page 237


 11853 0404 0B       		.uleb128 0xb
 11854 0405 00       		.byte	0
 11855 0406 00       		.byte	0
 11856 0407 4F       		.uleb128 0x4f
 11857 0408 2E       		.uleb128 0x2e
 11858 0409 01       		.byte	0x1
 11859 040a 3F       		.uleb128 0x3f
 11860 040b 0C       		.uleb128 0xc
 11861 040c 03       		.uleb128 0x3
 11862 040d 0E       		.uleb128 0xe
 11863 040e 3A       		.uleb128 0x3a
 11864 040f 0B       		.uleb128 0xb
 11865 0410 3B       		.uleb128 0x3b
 11866 0411 0B       		.uleb128 0xb
 11867 0412 27       		.uleb128 0x27
 11868 0413 0C       		.uleb128 0xc
 11869 0414 49       		.uleb128 0x49
 11870 0415 13       		.uleb128 0x13
 11871 0416 20       		.uleb128 0x20
 11872 0417 0B       		.uleb128 0xb
 11873 0418 01       		.uleb128 0x1
 11874 0419 13       		.uleb128 0x13
 11875 041a 00       		.byte	0
 11876 041b 00       		.byte	0
 11877 041c 50       		.uleb128 0x50
 11878 041d 05       		.uleb128 0x5
 11879 041e 00       		.byte	0
 11880 041f 03       		.uleb128 0x3
 11881 0420 0E       		.uleb128 0xe
 11882 0421 3A       		.uleb128 0x3a
 11883 0422 0B       		.uleb128 0xb
 11884 0423 3B       		.uleb128 0x3b
 11885 0424 0B       		.uleb128 0xb
 11886 0425 49       		.uleb128 0x49
 11887 0426 13       		.uleb128 0x13
 11888 0427 00       		.byte	0
 11889 0428 00       		.byte	0
 11890 0429 51       		.uleb128 0x51
 11891 042a 34       		.uleb128 0x34
 11892 042b 00       		.byte	0
 11893 042c 03       		.uleb128 0x3
 11894 042d 0E       		.uleb128 0xe
 11895 042e 3A       		.uleb128 0x3a
 11896 042f 0B       		.uleb128 0xb
 11897 0430 3B       		.uleb128 0x3b
 11898 0431 0B       		.uleb128 0xb
 11899 0432 49       		.uleb128 0x49
 11900 0433 13       		.uleb128 0x13
 11901 0434 00       		.byte	0
 11902 0435 00       		.byte	0
 11903 0436 52       		.uleb128 0x52
 11904 0437 2E       		.uleb128 0x2e
 11905 0438 01       		.byte	0x1
 11906 0439 03       		.uleb128 0x3
 11907 043a 0E       		.uleb128 0xe
 11908 043b 3A       		.uleb128 0x3a
 11909 043c 0B       		.uleb128 0xb
ARM GAS  C:\Users\EBANO_~1\AppData\Local\Temp\ccEfOEMG.s 			page 238


 11910 043d 3B       		.uleb128 0x3b
 11911 043e 0B       		.uleb128 0xb
 11912 043f 27       		.uleb128 0x27
 11913 0440 0C       		.uleb128 0xc
 11914 0441 49       		.uleb128 0x49
 11915 0442 13       		.uleb128 0x13
 11916 0443 20       		.uleb128 0x20
 11917 0444 0B       		.uleb128 0xb
 11918 0445 01       		.uleb128 0x1
 11919 0446 13       		.uleb128 0x13
 11920 0447 00       		.byte	0
 11921 0448 00       		.byte	0
 11922 0449 53       		.uleb128 0x53
 11923 044a 0B       		.uleb128 0xb
 11924 044b 01       		.byte	0x1
 11925 044c 00       		.byte	0
 11926 044d 00       		.byte	0
 11927 044e 54       		.uleb128 0x54
 11928 044f 34       		.uleb128 0x34
 11929 0450 00       		.byte	0
 11930 0451 03       		.uleb128 0x3
 11931 0452 08       		.uleb128 0x8
 11932 0453 3A       		.uleb128 0x3a
 11933 0454 0B       		.uleb128 0xb
 11934 0455 3B       		.uleb128 0x3b
 11935 0456 0B       		.uleb128 0xb
 11936 0457 49       		.uleb128 0x49
 11937 0458 13       		.uleb128 0x13
 11938 0459 00       		.byte	0
 11939 045a 00       		.byte	0
 11940 045b 55       		.uleb128 0x55
 11941 045c 05       		.uleb128 0x5
 11942 045d 00       		.byte	0
 11943 045e 03       		.uleb128 0x3
 11944 045f 08       		.uleb128 0x8
 11945 0460 3A       		.uleb128 0x3a
 11946 0461 0B       		.uleb128 0xb
 11947 0462 3B       		.uleb128 0x3b
 11948 0463 0B       		.uleb128 0xb
 11949 0464 49       		.uleb128 0x49
 11950 0465 13       		.uleb128 0x13
 11951 0466 00       		.byte	0
 11952 0467 00       		.byte	0
 11953 0468 56       		.uleb128 0x56
 11954 0469 2E       		.uleb128 0x2e
 11955 046a 01       		.byte	0x1
 11956 046b 31       		.uleb128 0x31
 11957 046c 13       		.uleb128 0x13
 11958 046d 11       		.uleb128 0x11
 11959 046e 01       		.uleb128 0x1
 11960 046f 12       		.uleb128 0x12
 11961 0470 01       		.uleb128 0x1
 11962 0471 40       		.uleb128 0x40
 11963 0472 06       		.uleb128 0x6
 11964 0473 9742     		.uleb128 0x2117
 11965 0475 0C       		.uleb128 0xc
 11966 0476 01       		.uleb128 0x1
ARM GAS  C:\Users\EBANO_~1\AppData\Local\Temp\ccEfOEMG.s 			page 239


 11967 0477 13       		.uleb128 0x13
 11968 0478 00       		.byte	0
 11969 0479 00       		.byte	0
 11970 047a 57       		.uleb128 0x57
 11971 047b 34       		.uleb128 0x34
 11972 047c 00       		.byte	0
 11973 047d 31       		.uleb128 0x31
 11974 047e 13       		.uleb128 0x13
 11975 047f 02       		.uleb128 0x2
 11976 0480 0A       		.uleb128 0xa
 11977 0481 00       		.byte	0
 11978 0482 00       		.byte	0
 11979 0483 58       		.uleb128 0x58
 11980 0484 1D       		.uleb128 0x1d
 11981 0485 01       		.byte	0x1
 11982 0486 31       		.uleb128 0x31
 11983 0487 13       		.uleb128 0x13
 11984 0488 52       		.uleb128 0x52
 11985 0489 01       		.uleb128 0x1
 11986 048a 55       		.uleb128 0x55
 11987 048b 06       		.uleb128 0x6
 11988 048c 58       		.uleb128 0x58
 11989 048d 0B       		.uleb128 0xb
 11990 048e 59       		.uleb128 0x59
 11991 048f 0B       		.uleb128 0xb
 11992 0490 01       		.uleb128 0x1
 11993 0491 13       		.uleb128 0x13
 11994 0492 00       		.byte	0
 11995 0493 00       		.byte	0
 11996 0494 59       		.uleb128 0x59
 11997 0495 2E       		.uleb128 0x2e
 11998 0496 00       		.byte	0
 11999 0497 3F       		.uleb128 0x3f
 12000 0498 0C       		.uleb128 0xc
 12001 0499 3C       		.uleb128 0x3c
 12002 049a 0C       		.uleb128 0xc
 12003 049b 8740     		.uleb128 0x2007
 12004 049d 0E       		.uleb128 0xe
 12005 049e 03       		.uleb128 0x3
 12006 049f 0E       		.uleb128 0xe
 12007 04a0 3A       		.uleb128 0x3a
 12008 04a1 0B       		.uleb128 0xb
 12009 04a2 3B       		.uleb128 0x3b
 12010 04a3 05       		.uleb128 0x5
 12011 04a4 00       		.byte	0
 12012 04a5 00       		.byte	0
 12013 04a6 5A       		.uleb128 0x5a
 12014 04a7 2E       		.uleb128 0x2e
 12015 04a8 00       		.byte	0
 12016 04a9 3F       		.uleb128 0x3f
 12017 04aa 0C       		.uleb128 0xc
 12018 04ab 3C       		.uleb128 0x3c
 12019 04ac 0C       		.uleb128 0xc
 12020 04ad 8740     		.uleb128 0x2007
 12021 04af 0E       		.uleb128 0xe
 12022 04b0 03       		.uleb128 0x3
 12023 04b1 0E       		.uleb128 0xe
ARM GAS  C:\Users\EBANO_~1\AppData\Local\Temp\ccEfOEMG.s 			page 240


 12024 04b2 3A       		.uleb128 0x3a
 12025 04b3 0B       		.uleb128 0xb
 12026 04b4 3B       		.uleb128 0x3b
 12027 04b5 0B       		.uleb128 0xb
 12028 04b6 00       		.byte	0
 12029 04b7 00       		.byte	0
 12030 04b8 5B       		.uleb128 0x5b
 12031 04b9 2E       		.uleb128 0x2e
 12032 04ba 00       		.byte	0
 12033 04bb 3F       		.uleb128 0x3f
 12034 04bc 0C       		.uleb128 0xc
 12035 04bd 3C       		.uleb128 0x3c
 12036 04be 0C       		.uleb128 0xc
 12037 04bf 8740     		.uleb128 0x2007
 12038 04c1 0E       		.uleb128 0xe
 12039 04c2 03       		.uleb128 0x3
 12040 04c3 0E       		.uleb128 0xe
 12041 04c4 3A       		.uleb128 0x3a
 12042 04c5 0B       		.uleb128 0xb
 12043 04c6 3B       		.uleb128 0x3b
 12044 04c7 0B       		.uleb128 0xb
 12045 04c8 8740     		.uleb128 0x2007
 12046 04ca 0E       		.uleb128 0xe
 12047 04cb 00       		.byte	0
 12048 04cc 00       		.byte	0
 12049 04cd 00       		.byte	0
 12050              		.section	.debug_loc,"",%progbits
 12051              	.Ldebug_loc0:
 12052              	.LLST114:
 12053 0000 00000000 		.4byte	.LFB66
 12054 0004 02000000 		.4byte	.LCFI39
 12055 0008 0200     		.2byte	0x2
 12056 000a 7D       		.byte	0x7d
 12057 000b 00       		.sleb128 0
 12058 000c 02000000 		.4byte	.LCFI39
 12059 0010 06000000 		.4byte	.LCFI40
 12060 0014 0200     		.2byte	0x2
 12061 0016 7D       		.byte	0x7d
 12062 0017 08       		.sleb128 8
 12063 0018 06000000 		.4byte	.LCFI40
 12064 001c 38000000 		.4byte	.LFE66
 12065 0020 0200     		.2byte	0x2
 12066 0022 7D       		.byte	0x7d
 12067 0023 20       		.sleb128 32
 12068 0024 00000000 		.4byte	0
 12069 0028 00000000 		.4byte	0
 12070              	.LLST115:
 12071 002c 00000000 		.4byte	.LVL339
 12072 0030 22000000 		.4byte	.LVL340
 12073 0034 0100     		.2byte	0x1
 12074 0036 50       		.byte	0x50
 12075 0037 22000000 		.4byte	.LVL340
 12076 003b 38000000 		.4byte	.LFE66
 12077 003f 0400     		.2byte	0x4
 12078 0041 F3       		.byte	0xf3
 12079 0042 01       		.uleb128 0x1
 12080 0043 50       		.byte	0x50
ARM GAS  C:\Users\EBANO_~1\AppData\Local\Temp\ccEfOEMG.s 			page 241


 12081 0044 9F       		.byte	0x9f
 12082 0045 00000000 		.4byte	0
 12083 0049 00000000 		.4byte	0
 12084              	.LLST116:
 12085 004d 00000000 		.4byte	.LVL339
 12086 0051 27000000 		.4byte	.LVL341-1
 12087 0055 0100     		.2byte	0x1
 12088 0057 51       		.byte	0x51
 12089 0058 27000000 		.4byte	.LVL341-1
 12090 005c 2E000000 		.4byte	.LVL342
 12091 0060 0100     		.2byte	0x1
 12092 0062 54       		.byte	0x54
 12093 0063 2E000000 		.4byte	.LVL342
 12094 0067 38000000 		.4byte	.LFE66
 12095 006b 0400     		.2byte	0x4
 12096 006d F3       		.byte	0xf3
 12097 006e 01       		.uleb128 0x1
 12098 006f 51       		.byte	0x51
 12099 0070 9F       		.byte	0x9f
 12100 0071 00000000 		.4byte	0
 12101 0075 00000000 		.4byte	0
 12102              	.LLST111:
 12103 0079 00000000 		.4byte	.LVL335
 12104 007d 08000000 		.4byte	.LVL337
 12105 0081 0100     		.2byte	0x1
 12106 0083 50       		.byte	0x50
 12107 0084 08000000 		.4byte	.LVL337
 12108 0088 20000000 		.4byte	.LFE65
 12109 008c 0400     		.2byte	0x4
 12110 008e F3       		.byte	0xf3
 12111 008f 01       		.uleb128 0x1
 12112 0090 50       		.byte	0x50
 12113 0091 9F       		.byte	0x9f
 12114 0092 00000000 		.4byte	0
 12115 0096 00000000 		.4byte	0
 12116              	.LLST112:
 12117 009a 00000000 		.4byte	.LVL335
 12118 009e 0A000000 		.4byte	.LVL338
 12119 00a2 0100     		.2byte	0x1
 12120 00a4 51       		.byte	0x51
 12121 00a5 0A000000 		.4byte	.LVL338
 12122 00a9 20000000 		.4byte	.LFE65
 12123 00ad 0400     		.2byte	0x4
 12124 00af F3       		.byte	0xf3
 12125 00b0 01       		.uleb128 0x1
 12126 00b1 51       		.byte	0x51
 12127 00b2 9F       		.byte	0x9f
 12128 00b3 00000000 		.4byte	0
 12129 00b7 00000000 		.4byte	0
 12130              	.LLST113:
 12131 00bb 00000000 		.4byte	.LVL335
 12132 00bf 04000000 		.4byte	.LVL336
 12133 00c3 0100     		.2byte	0x1
 12134 00c5 52       		.byte	0x52
 12135 00c6 04000000 		.4byte	.LVL336
 12136 00ca 20000000 		.4byte	.LFE65
 12137 00ce 0400     		.2byte	0x4
ARM GAS  C:\Users\EBANO_~1\AppData\Local\Temp\ccEfOEMG.s 			page 242


 12138 00d0 F3       		.byte	0xf3
 12139 00d1 01       		.uleb128 0x1
 12140 00d2 52       		.byte	0x52
 12141 00d3 9F       		.byte	0x9f
 12142 00d4 00000000 		.4byte	0
 12143 00d8 00000000 		.4byte	0
 12144              	.LLST106:
 12145 00dc 00000000 		.4byte	.LFB64
 12146 00e0 02000000 		.4byte	.LCFI37
 12147 00e4 0200     		.2byte	0x2
 12148 00e6 7D       		.byte	0x7d
 12149 00e7 00       		.sleb128 0
 12150 00e8 02000000 		.4byte	.LCFI37
 12151 00ec 26000000 		.4byte	.LCFI38
 12152 00f0 0200     		.2byte	0x2
 12153 00f2 7D       		.byte	0x7d
 12154 00f3 14       		.sleb128 20
 12155 00f4 26000000 		.4byte	.LCFI38
 12156 00f8 50000000 		.4byte	.LFE64
 12157 00fc 0200     		.2byte	0x2
 12158 00fe 7D       		.byte	0x7d
 12159 00ff 20       		.sleb128 32
 12160 0100 00000000 		.4byte	0
 12161 0104 00000000 		.4byte	0
 12162              	.LLST107:
 12163 0108 00000000 		.4byte	.LVL326
 12164 010c 08000000 		.4byte	.LVL328
 12165 0110 0100     		.2byte	0x1
 12166 0112 50       		.byte	0x50
 12167 0113 08000000 		.4byte	.LVL328
 12168 0117 46000000 		.4byte	.LVL333
 12169 011b 0100     		.2byte	0x1
 12170 011d 54       		.byte	0x54
 12171 011e 46000000 		.4byte	.LVL333
 12172 0122 50000000 		.4byte	.LFE64
 12173 0126 0400     		.2byte	0x4
 12174 0128 F3       		.byte	0xf3
 12175 0129 01       		.uleb128 0x1
 12176 012a 50       		.byte	0x50
 12177 012b 9F       		.byte	0x9f
 12178 012c 00000000 		.4byte	0
 12179 0130 00000000 		.4byte	0
 12180              	.LLST108:
 12181 0134 06000000 		.4byte	.LVL327
 12182 0138 3A000000 		.4byte	.LVL331
 12183 013c 0200     		.2byte	0x2
 12184 013e 30       		.byte	0x30
 12185 013f 9F       		.byte	0x9f
 12186 0140 3A000000 		.4byte	.LVL331
 12187 0144 43000000 		.4byte	.LVL332-1
 12188 0148 0100     		.2byte	0x1
 12189 014a 51       		.byte	0x51
 12190 014b 00000000 		.4byte	0
 12191 014f 00000000 		.4byte	0
 12192              	.LLST109:
 12193 0153 10000000 		.4byte	.LVL329
 12194 0157 46000000 		.4byte	.LVL334
ARM GAS  C:\Users\EBANO_~1\AppData\Local\Temp\ccEfOEMG.s 			page 243


 12195 015b 0100     		.2byte	0x1
 12196 015d 55       		.byte	0x55
 12197 015e 00000000 		.4byte	0
 12198 0162 00000000 		.4byte	0
 12199              	.LLST110:
 12200 0166 06000000 		.4byte	.LVL327
 12201 016a 08000000 		.4byte	.LVL328
 12202 016e 0200     		.2byte	0x2
 12203 0170 70       		.byte	0x70
 12204 0171 01       		.sleb128 1
 12205 0172 08000000 		.4byte	.LVL328
 12206 0176 35000000 		.4byte	.LVL330-1
 12207 017a 0200     		.2byte	0x2
 12208 017c 74       		.byte	0x74
 12209 017d 01       		.sleb128 1
 12210 017e 00000000 		.4byte	0
 12211 0182 00000000 		.4byte	0
 12212              	.LLST77:
 12213 0186 00000000 		.4byte	.LFB61
 12214 018a 02000000 		.4byte	.LCFI31
 12215 018e 0200     		.2byte	0x2
 12216 0190 7D       		.byte	0x7d
 12217 0191 00       		.sleb128 0
 12218 0192 02000000 		.4byte	.LCFI31
 12219 0196 0C000000 		.4byte	.LCFI32
 12220 019a 0200     		.2byte	0x2
 12221 019c 7D       		.byte	0x7d
 12222 019d 14       		.sleb128 20
 12223 019e 0C000000 		.4byte	.LCFI32
 12224 01a2 0E000000 		.4byte	.LCFI33
 12225 01a6 0200     		.2byte	0x2
 12226 01a8 7D       		.byte	0x7d
 12227 01a9 24       		.sleb128 36
 12228 01aa 0E000000 		.4byte	.LCFI33
 12229 01ae BC010000 		.4byte	.LFE61
 12230 01b2 0300     		.2byte	0x3
 12231 01b4 7D       		.byte	0x7d
 12232 01b5 D000     		.sleb128 80
 12233 01b7 00000000 		.4byte	0
 12234 01bb 00000000 		.4byte	0
 12235              	.LLST78:
 12236 01bf 00000000 		.4byte	.LVL255
 12237 01c3 18000000 		.4byte	.LVL257
 12238 01c7 0100     		.2byte	0x1
 12239 01c9 50       		.byte	0x50
 12240 01ca 18000000 		.4byte	.LVL257
 12241 01ce 72000000 		.4byte	.LVL266
 12242 01d2 0100     		.2byte	0x1
 12243 01d4 54       		.byte	0x54
 12244 01d5 72000000 		.4byte	.LVL266
 12245 01d9 0E010000 		.4byte	.LVL280
 12246 01dd 0400     		.2byte	0x4
 12247 01df F3       		.byte	0xf3
 12248 01e0 01       		.uleb128 0x1
 12249 01e1 50       		.byte	0x50
 12250 01e2 9F       		.byte	0x9f
 12251 01e3 0E010000 		.4byte	.LVL280
ARM GAS  C:\Users\EBANO_~1\AppData\Local\Temp\ccEfOEMG.s 			page 244


 12252 01e7 1A010000 		.4byte	.LVL282
 12253 01eb 0100     		.2byte	0x1
 12254 01ed 54       		.byte	0x54
 12255 01ee 1A010000 		.4byte	.LVL282
 12256 01f2 24010000 		.4byte	.LVL283
 12257 01f6 0400     		.2byte	0x4
 12258 01f8 F3       		.byte	0xf3
 12259 01f9 01       		.uleb128 0x1
 12260 01fa 50       		.byte	0x50
 12261 01fb 9F       		.byte	0x9f
 12262 01fc 24010000 		.4byte	.LVL283
 12263 0200 36010000 		.4byte	.LVL284
 12264 0204 0100     		.2byte	0x1
 12265 0206 54       		.byte	0x54
 12266 0207 36010000 		.4byte	.LVL284
 12267 020b BC010000 		.4byte	.LFE61
 12268 020f 0400     		.2byte	0x4
 12269 0211 F3       		.byte	0xf3
 12270 0212 01       		.uleb128 0x1
 12271 0213 50       		.byte	0x50
 12272 0214 9F       		.byte	0x9f
 12273 0215 00000000 		.4byte	0
 12274 0219 00000000 		.4byte	0
 12275              	.LLST79:
 12276 021d 00000000 		.4byte	.LVL255
 12277 0221 14000000 		.4byte	.LVL256
 12278 0225 0100     		.2byte	0x1
 12279 0227 51       		.byte	0x51
 12280 0228 14000000 		.4byte	.LVL256
 12281 022c BC010000 		.4byte	.LFE61
 12282 0230 0200     		.2byte	0x2
 12283 0232 91       		.byte	0x91
 12284 0233 40       		.sleb128 -64
 12285 0234 00000000 		.4byte	0
 12286 0238 00000000 		.4byte	0
 12287              	.LLST80:
 12288 023c 00000000 		.4byte	.LVL255
 12289 0240 1A000000 		.4byte	.LVL258
 12290 0244 0100     		.2byte	0x1
 12291 0246 52       		.byte	0x52
 12292 0247 1A000000 		.4byte	.LVL258
 12293 024b 02010000 		.4byte	.LVL279
 12294 024f 0100     		.2byte	0x1
 12295 0251 5B       		.byte	0x5b
 12296 0252 02010000 		.4byte	.LVL279
 12297 0256 0E010000 		.4byte	.LVL280
 12298 025a 0400     		.2byte	0x4
 12299 025c F3       		.byte	0xf3
 12300 025d 01       		.uleb128 0x1
 12301 025e 52       		.byte	0x52
 12302 025f 9F       		.byte	0x9f
 12303 0260 0E010000 		.4byte	.LVL280
 12304 0264 BC010000 		.4byte	.LFE61
 12305 0268 0100     		.2byte	0x1
 12306 026a 5B       		.byte	0x5b
 12307 026b 00000000 		.4byte	0
 12308 026f 00000000 		.4byte	0
ARM GAS  C:\Users\EBANO_~1\AppData\Local\Temp\ccEfOEMG.s 			page 245


 12309              	.LLST81:
 12310 0273 00000000 		.4byte	.LVL255
 12311 0277 1F000000 		.4byte	.LVL259-1
 12312 027b 0100     		.2byte	0x1
 12313 027d 53       		.byte	0x53
 12314 027e 1F000000 		.4byte	.LVL259-1
 12315 0282 74000000 		.4byte	.LVL267
 12316 0286 0100     		.2byte	0x1
 12317 0288 56       		.byte	0x56
 12318 0289 74000000 		.4byte	.LVL267
 12319 028d 0E010000 		.4byte	.LVL280
 12320 0291 0400     		.2byte	0x4
 12321 0293 F3       		.byte	0xf3
 12322 0294 01       		.uleb128 0x1
 12323 0295 53       		.byte	0x53
 12324 0296 9F       		.byte	0x9f
 12325 0297 0E010000 		.4byte	.LVL280
 12326 029b 1A010000 		.4byte	.LVL282
 12327 029f 0100     		.2byte	0x1
 12328 02a1 56       		.byte	0x56
 12329 02a2 1A010000 		.4byte	.LVL282
 12330 02a6 24010000 		.4byte	.LVL283
 12331 02aa 0400     		.2byte	0x4
 12332 02ac F3       		.byte	0xf3
 12333 02ad 01       		.uleb128 0x1
 12334 02ae 53       		.byte	0x53
 12335 02af 9F       		.byte	0x9f
 12336 02b0 24010000 		.4byte	.LVL283
 12337 02b4 38010000 		.4byte	.LVL285
 12338 02b8 0100     		.2byte	0x1
 12339 02ba 56       		.byte	0x56
 12340 02bb 38010000 		.4byte	.LVL285
 12341 02bf BC010000 		.4byte	.LFE61
 12342 02c3 0400     		.2byte	0x4
 12343 02c5 F3       		.byte	0xf3
 12344 02c6 01       		.uleb128 0x1
 12345 02c7 53       		.byte	0x53
 12346 02c8 9F       		.byte	0x9f
 12347 02c9 00000000 		.4byte	0
 12348 02cd 00000000 		.4byte	0
 12349              	.LLST82:
 12350 02d1 00000000 		.4byte	.LVL255
 12351 02d5 E2000000 		.4byte	.LVL277
 12352 02d9 0200     		.2byte	0x2
 12353 02db 30       		.byte	0x30
 12354 02dc 9F       		.byte	0x9f
 12355 02dd 0E010000 		.4byte	.LVL280
 12356 02e1 1A010000 		.4byte	.LVL282
 12357 02e5 0200     		.2byte	0x2
 12358 02e7 30       		.byte	0x30
 12359 02e8 9F       		.byte	0x9f
 12360 02e9 24010000 		.4byte	.LVL283
 12361 02ed 98010000 		.4byte	.LVL295
 12362 02f1 0200     		.2byte	0x2
 12363 02f3 30       		.byte	0x30
 12364 02f4 9F       		.byte	0x9f
 12365 02f5 00000000 		.4byte	0
ARM GAS  C:\Users\EBANO_~1\AppData\Local\Temp\ccEfOEMG.s 			page 246


 12366 02f9 00000000 		.4byte	0
 12367              	.LLST83:
 12368 02fd 00000000 		.4byte	.LVL255
 12369 0301 E2000000 		.4byte	.LVL277
 12370 0305 0200     		.2byte	0x2
 12371 0307 30       		.byte	0x30
 12372 0308 9F       		.byte	0x9f
 12373 0309 E2000000 		.4byte	.LVL277
 12374 030d 00010000 		.4byte	.LVL278
 12375 0311 0300     		.2byte	0x3
 12376 0313 91       		.byte	0x91
 12377 0314 B87F     		.sleb128 -72
 12378 0316 0E010000 		.4byte	.LVL280
 12379 031a 1A010000 		.4byte	.LVL282
 12380 031e 0200     		.2byte	0x2
 12381 0320 31       		.byte	0x31
 12382 0321 9F       		.byte	0x9f
 12383 0322 24010000 		.4byte	.LVL283
 12384 0326 98010000 		.4byte	.LVL295
 12385 032a 0200     		.2byte	0x2
 12386 032c 30       		.byte	0x30
 12387 032d 9F       		.byte	0x9f
 12388 032e 98010000 		.4byte	.LVL295
 12389 0332 BC010000 		.4byte	.LFE61
 12390 0336 0300     		.2byte	0x3
 12391 0338 91       		.byte	0x91
 12392 0339 B87F     		.sleb128 -72
 12393 033b 00000000 		.4byte	0
 12394 033f 00000000 		.4byte	0
 12395              	.LLST84:
 12396 0343 20000000 		.4byte	.LVL259
 12397 0347 5E000000 		.4byte	.LVL263
 12398 034b 0200     		.2byte	0x2
 12399 034d 30       		.byte	0x30
 12400 034e 9F       		.byte	0x9f
 12401 034f 5E000000 		.4byte	.LVL263
 12402 0353 7A000000 		.4byte	.LVL268
 12403 0357 0100     		.2byte	0x1
 12404 0359 50       		.byte	0x50
 12405 035a 7A000000 		.4byte	.LVL268
 12406 035e 0E010000 		.4byte	.LVL280
 12407 0362 0300     		.2byte	0x3
 12408 0364 91       		.byte	0x91
 12409 0365 BC7F     		.sleb128 -68
 12410 0367 0E010000 		.4byte	.LVL280
 12411 036b 1A010000 		.4byte	.LVL282
 12412 036f 0200     		.2byte	0x2
 12413 0371 30       		.byte	0x30
 12414 0372 9F       		.byte	0x9f
 12415 0373 1A010000 		.4byte	.LVL282
 12416 0377 24010000 		.4byte	.LVL283
 12417 037b 0300     		.2byte	0x3
 12418 037d 91       		.byte	0x91
 12419 037e BC7F     		.sleb128 -68
 12420 0380 24010000 		.4byte	.LVL283
 12421 0384 3E010000 		.4byte	.LVL286
 12422 0388 0100     		.2byte	0x1
ARM GAS  C:\Users\EBANO_~1\AppData\Local\Temp\ccEfOEMG.s 			page 247


 12423 038a 50       		.byte	0x50
 12424 038b 3E010000 		.4byte	.LVL286
 12425 038f BC010000 		.4byte	.LFE61
 12426 0393 0300     		.2byte	0x3
 12427 0395 91       		.byte	0x91
 12428 0396 BC7F     		.sleb128 -68
 12429 0398 00000000 		.4byte	0
 12430 039c 00000000 		.4byte	0
 12431              	.LLST85:
 12432 03a0 62000000 		.4byte	.LVL264
 12433 03a4 E2000000 		.4byte	.LVL277
 12434 03a8 0600     		.2byte	0x6
 12435 03aa 03       		.byte	0x3
 12436 03ab D0000000 		.4byte	NvmCtx+208
 12437 03af 9F       		.byte	0x9f
 12438 03b0 24010000 		.4byte	.LVL283
 12439 03b4 98010000 		.4byte	.LVL295
 12440 03b8 0600     		.2byte	0x6
 12441 03ba 03       		.byte	0x3
 12442 03bb D0000000 		.4byte	NvmCtx+208
 12443 03bf 9F       		.byte	0x9f
 12444 03c0 00000000 		.4byte	0
 12445 03c4 00000000 		.4byte	0
 12446              	.LLST86:
 12447 03c8 62000000 		.4byte	.LVL264
 12448 03cc E2000000 		.4byte	.LVL277
 12449 03d0 0600     		.2byte	0x6
 12450 03d2 03       		.byte	0x3
 12451 03d3 00000000 		.4byte	NvmCtx
 12452 03d7 9F       		.byte	0x9f
 12453 03d8 24010000 		.4byte	.LVL283
 12454 03dc 98010000 		.4byte	.LVL295
 12455 03e0 0600     		.2byte	0x6
 12456 03e2 03       		.byte	0x3
 12457 03e3 00000000 		.4byte	NvmCtx
 12458 03e7 9F       		.byte	0x9f
 12459 03e8 00000000 		.4byte	0
 12460 03ec 00000000 		.4byte	0
 12461              	.LLST87:
 12462 03f0 62000000 		.4byte	.LVL264
 12463 03f4 6A000000 		.4byte	.LVL265
 12464 03f8 0100     		.2byte	0x1
 12465 03fa 55       		.byte	0x55
 12466 03fb 6A000000 		.4byte	.LVL265
 12467 03ff E2000000 		.4byte	.LVL277
 12468 0403 0600     		.2byte	0x6
 12469 0405 03       		.byte	0x3
 12470 0406 C0000000 		.4byte	NvmCtx+192
 12471 040a 9F       		.byte	0x9f
 12472 040b 24010000 		.4byte	.LVL283
 12473 040f 3E010000 		.4byte	.LVL286
 12474 0413 0100     		.2byte	0x1
 12475 0415 55       		.byte	0x55
 12476 0416 3E010000 		.4byte	.LVL286
 12477 041a 98010000 		.4byte	.LVL295
 12478 041e 0200     		.2byte	0x2
 12479 0420 91       		.byte	0x91
ARM GAS  C:\Users\EBANO_~1\AppData\Local\Temp\ccEfOEMG.s 			page 248


 12480 0421 44       		.sleb128 -60
 12481 0422 00000000 		.4byte	0
 12482 0426 00000000 		.4byte	0
 12483              	.LLST88:
 12484 042a 62000000 		.4byte	.LVL264
 12485 042e E2000000 		.4byte	.LVL277
 12486 0432 0600     		.2byte	0x6
 12487 0434 F2       		.byte	0xf2
 12488 0435 4C210000 		.4byte	.Ldebug_info0+8524
 12489 0439 00       		.sleb128 0
 12490 043a 24010000 		.4byte	.LVL283
 12491 043e 98010000 		.4byte	.LVL295
 12492 0442 0600     		.2byte	0x6
 12493 0444 F2       		.byte	0xf2
 12494 0445 4C210000 		.4byte	.Ldebug_info0+8524
 12495 0449 00       		.sleb128 0
 12496 044a 00000000 		.4byte	0
 12497 044e 00000000 		.4byte	0
 12498              	.LLST89:
 12499 0452 62000000 		.4byte	.LVL264
 12500 0456 88000000 		.4byte	.LVL270
 12501 045a 0300     		.2byte	0x3
 12502 045c 91       		.byte	0x91
 12503 045d 48       		.sleb128 -56
 12504 045e 9F       		.byte	0x9f
 12505 045f 88000000 		.4byte	.LVL270
 12506 0463 8A000000 		.4byte	.LVL271
 12507 0467 0100     		.2byte	0x1
 12508 0469 52       		.byte	0x52
 12509 046a 8A000000 		.4byte	.LVL271
 12510 046e E2000000 		.4byte	.LVL277
 12511 0472 0300     		.2byte	0x3
 12512 0474 91       		.byte	0x91
 12513 0475 48       		.sleb128 -56
 12514 0476 9F       		.byte	0x9f
 12515 0477 24010000 		.4byte	.LVL283
 12516 047b 86010000 		.4byte	.LVL292
 12517 047f 0300     		.2byte	0x3
 12518 0481 91       		.byte	0x91
 12519 0482 48       		.sleb128 -56
 12520 0483 9F       		.byte	0x9f
 12521 0484 86010000 		.4byte	.LVL292
 12522 0488 8E010000 		.4byte	.LVL293
 12523 048c 0100     		.2byte	0x1
 12524 048e 52       		.byte	0x52
 12525 048f 8E010000 		.4byte	.LVL293
 12526 0493 98010000 		.4byte	.LVL295
 12527 0497 0300     		.2byte	0x3
 12528 0499 91       		.byte	0x91
 12529 049a 48       		.sleb128 -56
 12530 049b 9F       		.byte	0x9f
 12531 049c 00000000 		.4byte	0
 12532 04a0 00000000 		.4byte	0
 12533              	.LLST90:
 12534 04a4 62000000 		.4byte	.LVL264
 12535 04a8 E2000000 		.4byte	.LVL277
 12536 04ac 0300     		.2byte	0x3
ARM GAS  C:\Users\EBANO_~1\AppData\Local\Temp\ccEfOEMG.s 			page 249


 12537 04ae 91       		.byte	0x91
 12538 04af B47F     		.sleb128 -76
 12539 04b1 24010000 		.4byte	.LVL283
 12540 04b5 98010000 		.4byte	.LVL295
 12541 04b9 0300     		.2byte	0x3
 12542 04bb 91       		.byte	0x91
 12543 04bc B47F     		.sleb128 -76
 12544 04be 00000000 		.4byte	0
 12545 04c2 00000000 		.4byte	0
 12546              	.LLST91:
 12547 04c6 62000000 		.4byte	.LVL264
 12548 04ca 72000000 		.4byte	.LVL266
 12549 04ce 0200     		.2byte	0x2
 12550 04d0 74       		.byte	0x74
 12551 04d1 09       		.sleb128 9
 12552 04d2 72000000 		.4byte	.LVL266
 12553 04d6 7A000000 		.4byte	.LVL268
 12554 04da 0100     		.2byte	0x1
 12555 04dc 58       		.byte	0x58
 12556 04dd 7A000000 		.4byte	.LVL268
 12557 04e1 E2000000 		.4byte	.LVL277
 12558 04e5 0400     		.2byte	0x4
 12559 04e7 7A       		.byte	0x7a
 12560 04e8 B07E     		.sleb128 -208
 12561 04ea 9F       		.byte	0x9f
 12562 04eb 24010000 		.4byte	.LVL283
 12563 04ef 36010000 		.4byte	.LVL284
 12564 04f3 0200     		.2byte	0x2
 12565 04f5 74       		.byte	0x74
 12566 04f6 09       		.sleb128 9
 12567 04f7 36010000 		.4byte	.LVL284
 12568 04fb 3E010000 		.4byte	.LVL286
 12569 04ff 0500     		.2byte	0x5
 12570 0501 F3       		.byte	0xf3
 12571 0502 01       		.uleb128 0x1
 12572 0503 50       		.byte	0x50
 12573 0504 23       		.byte	0x23
 12574 0505 09       		.uleb128 0x9
 12575 0506 00000000 		.4byte	0
 12576 050a 00000000 		.4byte	0
 12577              	.LLST92:
 12578 050e 62000000 		.4byte	.LVL264
 12579 0512 7A000000 		.4byte	.LVL268
 12580 0516 0200     		.2byte	0x2
 12581 0518 30       		.byte	0x30
 12582 0519 9F       		.byte	0x9f
 12583 051a 7A000000 		.4byte	.LVL268
 12584 051e 7E000000 		.4byte	.LVL269
 12585 0522 0100     		.2byte	0x1
 12586 0524 58       		.byte	0x58
 12587 0525 7E000000 		.4byte	.LVL269
 12588 0529 8A000000 		.4byte	.LVL271
 12589 052d 0100     		.2byte	0x1
 12590 052f 53       		.byte	0x53
 12591 0530 8A000000 		.4byte	.LVL271
 12592 0534 92000000 		.4byte	.LVL273
 12593 0538 0100     		.2byte	0x1
ARM GAS  C:\Users\EBANO_~1\AppData\Local\Temp\ccEfOEMG.s 			page 250


 12594 053a 58       		.byte	0x58
 12595 053b 96000000 		.4byte	.LVL274
 12596 053f E2000000 		.4byte	.LVL277
 12597 0543 0100     		.2byte	0x1
 12598 0545 58       		.byte	0x58
 12599 0546 24010000 		.4byte	.LVL283
 12600 054a 3E010000 		.4byte	.LVL286
 12601 054e 0200     		.2byte	0x2
 12602 0550 30       		.byte	0x30
 12603 0551 9F       		.byte	0x9f
 12604 0552 3E010000 		.4byte	.LVL286
 12605 0556 46010000 		.4byte	.LVL288
 12606 055a 0100     		.2byte	0x1
 12607 055c 58       		.byte	0x58
 12608 055d 50010000 		.4byte	.LVL289
 12609 0561 84010000 		.4byte	.LVL291
 12610 0565 0100     		.2byte	0x1
 12611 0567 58       		.byte	0x58
 12612 0568 84010000 		.4byte	.LVL291
 12613 056c 8E010000 		.4byte	.LVL293
 12614 0570 0100     		.2byte	0x1
 12615 0572 53       		.byte	0x53
 12616 0573 8E010000 		.4byte	.LVL293
 12617 0577 98010000 		.4byte	.LVL295
 12618 057b 0100     		.2byte	0x1
 12619 057d 58       		.byte	0x58
 12620 057e 00000000 		.4byte	0
 12621 0582 00000000 		.4byte	0
 12622              	.LLST93:
 12623 0586 62000000 		.4byte	.LVL264
 12624 058a 7A000000 		.4byte	.LVL268
 12625 058e 0200     		.2byte	0x2
 12626 0590 30       		.byte	0x30
 12627 0591 9F       		.byte	0x9f
 12628 0592 7A000000 		.4byte	.LVL268
 12629 0596 92000000 		.4byte	.LVL273
 12630 059a 0300     		.2byte	0x3
 12631 059c 91       		.byte	0x91
 12632 059d B87F     		.sleb128 -72
 12633 059f 96000000 		.4byte	.LVL274
 12634 05a3 E2000000 		.4byte	.LVL277
 12635 05a7 0300     		.2byte	0x3
 12636 05a9 91       		.byte	0x91
 12637 05aa B87F     		.sleb128 -72
 12638 05ac 24010000 		.4byte	.LVL283
 12639 05b0 3E010000 		.4byte	.LVL286
 12640 05b4 0200     		.2byte	0x2
 12641 05b6 30       		.byte	0x30
 12642 05b7 9F       		.byte	0x9f
 12643 05b8 3E010000 		.4byte	.LVL286
 12644 05bc 46010000 		.4byte	.LVL288
 12645 05c0 0300     		.2byte	0x3
 12646 05c2 91       		.byte	0x91
 12647 05c3 B87F     		.sleb128 -72
 12648 05c5 50010000 		.4byte	.LVL289
 12649 05c9 98010000 		.4byte	.LVL295
 12650 05cd 0300     		.2byte	0x3
ARM GAS  C:\Users\EBANO_~1\AppData\Local\Temp\ccEfOEMG.s 			page 251


 12651 05cf 91       		.byte	0x91
 12652 05d0 B87F     		.sleb128 -72
 12653 05d2 00000000 		.4byte	0
 12654 05d6 00000000 		.4byte	0
 12655              	.LLST94:
 12656 05da 62000000 		.4byte	.LVL264
 12657 05de E2000000 		.4byte	.LVL277
 12658 05e2 0200     		.2byte	0x2
 12659 05e4 30       		.byte	0x30
 12660 05e5 9F       		.byte	0x9f
 12661 05e6 24010000 		.4byte	.LVL283
 12662 05ea 98010000 		.4byte	.LVL295
 12663 05ee 0200     		.2byte	0x2
 12664 05f0 30       		.byte	0x30
 12665 05f1 9F       		.byte	0x9f
 12666 05f2 00000000 		.4byte	0
 12667 05f6 00000000 		.4byte	0
 12668              	.LLST96:
 12669 05fa 62000000 		.4byte	.LVL264
 12670 05fe 7A000000 		.4byte	.LVL268
 12671 0602 0200     		.2byte	0x2
 12672 0604 30       		.byte	0x30
 12673 0605 9F       		.byte	0x9f
 12674 0606 7A000000 		.4byte	.LVL268
 12675 060a 8A000000 		.4byte	.LVL271
 12676 060e 0100     		.2byte	0x1
 12677 0610 59       		.byte	0x59
 12678 0611 8A000000 		.4byte	.LVL271
 12679 0615 8C000000 		.4byte	.LVL272
 12680 0619 0300     		.2byte	0x3
 12681 061b 74       		.byte	0x74
 12682 061c 01       		.sleb128 1
 12683 061d 9F       		.byte	0x9f
 12684 061e 8C000000 		.4byte	.LVL272
 12685 0622 92000000 		.4byte	.LVL273
 12686 0626 0300     		.2byte	0x3
 12687 0628 79       		.byte	0x79
 12688 0629 01       		.sleb128 1
 12689 062a 9F       		.byte	0x9f
 12690 062b 96000000 		.4byte	.LVL274
 12691 062f DC000000 		.4byte	.LVL276
 12692 0633 0100     		.2byte	0x1
 12693 0635 59       		.byte	0x59
 12694 0636 24010000 		.4byte	.LVL283
 12695 063a 3E010000 		.4byte	.LVL286
 12696 063e 0200     		.2byte	0x2
 12697 0640 30       		.byte	0x30
 12698 0641 9F       		.byte	0x9f
 12699 0642 3E010000 		.4byte	.LVL286
 12700 0646 40010000 		.4byte	.LVL287
 12701 064a 0300     		.2byte	0x3
 12702 064c 74       		.byte	0x74
 12703 064d 01       		.sleb128 1
 12704 064e 9F       		.byte	0x9f
 12705 064f 40010000 		.4byte	.LVL287
 12706 0653 46010000 		.4byte	.LVL288
 12707 0657 0300     		.2byte	0x3
ARM GAS  C:\Users\EBANO_~1\AppData\Local\Temp\ccEfOEMG.s 			page 252


 12708 0659 75       		.byte	0x75
 12709 065a 01       		.sleb128 1
 12710 065b 9F       		.byte	0x9f
 12711 065c 50010000 		.4byte	.LVL289
 12712 0660 98010000 		.4byte	.LVL295
 12713 0664 0100     		.2byte	0x1
 12714 0666 55       		.byte	0x55
 12715 0667 00000000 		.4byte	0
 12716 066b 00000000 		.4byte	0
 12717              	.LLST75:
 12718 066f 00000000 		.4byte	.LFB60
 12719 0673 02000000 		.4byte	.LCFI29
 12720 0677 0200     		.2byte	0x2
 12721 0679 7D       		.byte	0x7d
 12722 067a 00       		.sleb128 0
 12723 067b 02000000 		.4byte	.LCFI29
 12724 067f 06000000 		.4byte	.LCFI30
 12725 0683 0200     		.2byte	0x2
 12726 0685 7D       		.byte	0x7d
 12727 0686 04       		.sleb128 4
 12728 0687 06000000 		.4byte	.LCFI30
 12729 068b 34000000 		.4byte	.LFE60
 12730 068f 0200     		.2byte	0x2
 12731 0691 7D       		.byte	0x7d
 12732 0692 20       		.sleb128 32
 12733 0693 00000000 		.4byte	0
 12734 0697 00000000 		.4byte	0
 12735              	.LLST76:
 12736 069b 00000000 		.4byte	.LVL252
 12737 069f 26000000 		.4byte	.LVL253
 12738 06a3 0100     		.2byte	0x1
 12739 06a5 50       		.byte	0x50
 12740 06a6 26000000 		.4byte	.LVL253
 12741 06aa 34000000 		.4byte	.LFE60
 12742 06ae 0400     		.2byte	0x4
 12743 06b0 F3       		.byte	0xf3
 12744 06b1 01       		.uleb128 0x1
 12745 06b2 50       		.byte	0x50
 12746 06b3 9F       		.byte	0x9f
 12747 06b4 00000000 		.4byte	0
 12748 06b8 00000000 		.4byte	0
 12749              	.LLST71:
 12750 06bc 00000000 		.4byte	.LFB58
 12751 06c0 02000000 		.4byte	.LCFI27
 12752 06c4 0200     		.2byte	0x2
 12753 06c6 7D       		.byte	0x7d
 12754 06c7 00       		.sleb128 0
 12755 06c8 02000000 		.4byte	.LCFI27
 12756 06cc 0A000000 		.4byte	.LCFI28
 12757 06d0 0200     		.2byte	0x2
 12758 06d2 7D       		.byte	0x7d
 12759 06d3 0C       		.sleb128 12
 12760 06d4 0A000000 		.4byte	.LCFI28
 12761 06d8 70000000 		.4byte	.LFE58
 12762 06dc 0200     		.2byte	0x2
 12763 06de 7D       		.byte	0x7d
 12764 06df 18       		.sleb128 24
ARM GAS  C:\Users\EBANO_~1\AppData\Local\Temp\ccEfOEMG.s 			page 253


 12765 06e0 00000000 		.4byte	0
 12766 06e4 00000000 		.4byte	0
 12767              	.LLST72:
 12768 06e8 00000000 		.4byte	.LVL241
 12769 06ec 0E000000 		.4byte	.LVL243
 12770 06f0 0100     		.2byte	0x1
 12771 06f2 50       		.byte	0x50
 12772 06f3 0E000000 		.4byte	.LVL243
 12773 06f7 38000000 		.4byte	.LVL248
 12774 06fb 0100     		.2byte	0x1
 12775 06fd 55       		.byte	0x55
 12776 06fe 38000000 		.4byte	.LVL248
 12777 0702 3A000000 		.4byte	.LVL249
 12778 0706 0400     		.2byte	0x4
 12779 0708 F3       		.byte	0xf3
 12780 0709 01       		.uleb128 0x1
 12781 070a 50       		.byte	0x50
 12782 070b 9F       		.byte	0x9f
 12783 070c 3A000000 		.4byte	.LVL249
 12784 0710 70000000 		.4byte	.LFE58
 12785 0714 0100     		.2byte	0x1
 12786 0716 55       		.byte	0x55
 12787 0717 00000000 		.4byte	0
 12788 071b 00000000 		.4byte	0
 12789              	.LLST73:
 12790 071f 00000000 		.4byte	.LVL241
 12791 0723 2E000000 		.4byte	.LVL246
 12792 0727 0200     		.2byte	0x2
 12793 0729 33       		.byte	0x33
 12794 072a 9F       		.byte	0x9f
 12795 072b 2E000000 		.4byte	.LVL246
 12796 072f 36000000 		.4byte	.LVL247
 12797 0733 0200     		.2byte	0x2
 12798 0735 32       		.byte	0x32
 12799 0736 9F       		.byte	0x9f
 12800 0737 3A000000 		.4byte	.LVL249
 12801 073b 4A000000 		.4byte	.LVL250
 12802 073f 0200     		.2byte	0x2
 12803 0741 33       		.byte	0x33
 12804 0742 9F       		.byte	0x9f
 12805 0743 4A000000 		.4byte	.LVL250
 12806 0747 70000000 		.4byte	.LFE58
 12807 074b 0200     		.2byte	0x2
 12808 074d 32       		.byte	0x32
 12809 074e 9F       		.byte	0x9f
 12810 074f 00000000 		.4byte	0
 12811 0753 00000000 		.4byte	0
 12812              	.LLST74:
 12813 0757 06000000 		.4byte	.LVL242
 12814 075b 28000000 		.4byte	.LVL245
 12815 075f 0100     		.2byte	0x1
 12816 0761 54       		.byte	0x54
 12817 0762 28000000 		.4byte	.LVL245
 12818 0766 2E000000 		.4byte	.LVL246
 12819 076a 0700     		.2byte	0x7
 12820 076c 74       		.byte	0x74
 12821 076d C0B4BB9C 		.sleb128 865000000
ARM GAS  C:\Users\EBANO_~1\AppData\Local\Temp\ccEfOEMG.s 			page 254


 12821      03
 12822 0772 9F       		.byte	0x9f
 12823 0773 3A000000 		.4byte	.LVL249
 12824 0777 4A000000 		.4byte	.LVL250
 12825 077b 0700     		.2byte	0x7
 12826 077d 74       		.byte	0x74
 12827 077e C0B4BB9C 		.sleb128 865000000
 12827      03
 12828 0783 9F       		.byte	0x9f
 12829 0784 4A000000 		.4byte	.LVL250
 12830 0788 70000000 		.4byte	.LFE58
 12831 078c 0100     		.2byte	0x1
 12832 078e 54       		.byte	0x54
 12833 078f 00000000 		.4byte	0
 12834 0793 00000000 		.4byte	0
 12835              	.LLST70:
 12836 0797 00000000 		.4byte	.LVL239
 12837 079b 02000000 		.4byte	.LVL240
 12838 079f 0100     		.2byte	0x1
 12839 07a1 50       		.byte	0x50
 12840 07a2 02000000 		.4byte	.LVL240
 12841 07a6 06000000 		.4byte	.LFE57
 12842 07aa 0400     		.2byte	0x4
 12843 07ac F3       		.byte	0xf3
 12844 07ad 01       		.uleb128 0x1
 12845 07ae 50       		.byte	0x50
 12846 07af 9F       		.byte	0x9f
 12847 07b0 00000000 		.4byte	0
 12848 07b4 00000000 		.4byte	0
 12849              	.LLST62:
 12850 07b8 00000000 		.4byte	.LFB56
 12851 07bc 02000000 		.4byte	.LCFI24
 12852 07c0 0200     		.2byte	0x2
 12853 07c2 7D       		.byte	0x7d
 12854 07c3 00       		.sleb128 0
 12855 07c4 02000000 		.4byte	.LCFI24
 12856 07c8 06000000 		.4byte	.LCFI25
 12857 07cc 0200     		.2byte	0x2
 12858 07ce 7D       		.byte	0x7d
 12859 07cf 14       		.sleb128 20
 12860 07d0 06000000 		.4byte	.LCFI25
 12861 07d4 0A000000 		.4byte	.LCFI26
 12862 07d8 0200     		.2byte	0x2
 12863 07da 7D       		.byte	0x7d
 12864 07db 18       		.sleb128 24
 12865 07dc 0A000000 		.4byte	.LCFI26
 12866 07e0 08010000 		.4byte	.LFE56
 12867 07e4 0200     		.2byte	0x2
 12868 07e6 7D       		.byte	0x7d
 12869 07e7 20       		.sleb128 32
 12870 07e8 00000000 		.4byte	0
 12871 07ec 00000000 		.4byte	0
 12872              	.LLST63:
 12873 07f0 00000000 		.4byte	.LVL216
 12874 07f4 16000000 		.4byte	.LVL218
 12875 07f8 0100     		.2byte	0x1
 12876 07fa 50       		.byte	0x50
ARM GAS  C:\Users\EBANO_~1\AppData\Local\Temp\ccEfOEMG.s 			page 255


 12877 07fb 16000000 		.4byte	.LVL218
 12878 07ff 20000000 		.4byte	.LVL219
 12879 0803 0400     		.2byte	0x4
 12880 0805 F3       		.byte	0xf3
 12881 0806 01       		.uleb128 0x1
 12882 0807 50       		.byte	0x50
 12883 0808 9F       		.byte	0x9f
 12884 0809 20000000 		.4byte	.LVL219
 12885 080d 28000000 		.4byte	.LVL220
 12886 0811 0100     		.2byte	0x1
 12887 0813 50       		.byte	0x50
 12888 0814 28000000 		.4byte	.LVL220
 12889 0818 AC000000 		.4byte	.LVL230
 12890 081c 0400     		.2byte	0x4
 12891 081e F3       		.byte	0xf3
 12892 081f 01       		.uleb128 0x1
 12893 0820 50       		.byte	0x50
 12894 0821 9F       		.byte	0x9f
 12895 0822 AC000000 		.4byte	.LVL230
 12896 0826 AE000000 		.4byte	.LVL231
 12897 082a 0100     		.2byte	0x1
 12898 082c 50       		.byte	0x50
 12899 082d AE000000 		.4byte	.LVL231
 12900 0831 08010000 		.4byte	.LFE56
 12901 0835 0400     		.2byte	0x4
 12902 0837 F3       		.byte	0xf3
 12903 0838 01       		.uleb128 0x1
 12904 0839 50       		.byte	0x50
 12905 083a 9F       		.byte	0x9f
 12906 083b 00000000 		.4byte	0
 12907 083f 00000000 		.4byte	0
 12908              	.LLST64:
 12909 0843 12000000 		.4byte	.LVL217
 12910 0847 16000000 		.4byte	.LVL218
 12911 084b 0600     		.2byte	0x6
 12912 084d F2       		.byte	0xf2
 12913 084e 4E240000 		.4byte	.Ldebug_info0+9294
 12914 0852 00       		.sleb128 0
 12915 0853 AC000000 		.4byte	.LVL230
 12916 0857 CC000000 		.4byte	.LVL234
 12917 085b 0600     		.2byte	0x6
 12918 085d F2       		.byte	0xf2
 12919 085e 4E240000 		.4byte	.Ldebug_info0+9294
 12920 0862 00       		.sleb128 0
 12921 0863 00000000 		.4byte	0
 12922 0867 00000000 		.4byte	0
 12923              	.LLST65:
 12924 086b 12000000 		.4byte	.LVL217
 12925 086f 16000000 		.4byte	.LVL218
 12926 0873 0200     		.2byte	0x2
 12927 0875 70       		.byte	0x70
 12928 0876 04       		.sleb128 4
 12929 0877 AC000000 		.4byte	.LVL230
 12930 087b AE000000 		.4byte	.LVL231
 12931 087f 0200     		.2byte	0x2
 12932 0881 70       		.byte	0x70
 12933 0882 04       		.sleb128 4
ARM GAS  C:\Users\EBANO_~1\AppData\Local\Temp\ccEfOEMG.s 			page 256


 12934 0883 AE000000 		.4byte	.LVL231
 12935 0887 BD000000 		.4byte	.LVL232-1
 12936 088b 0500     		.2byte	0x5
 12937 088d F3       		.byte	0xf3
 12938 088e 01       		.uleb128 0x1
 12939 088f 50       		.byte	0x50
 12940 0890 23       		.byte	0x23
 12941 0891 04       		.uleb128 0x4
 12942 0892 00000000 		.4byte	0
 12943 0896 00000000 		.4byte	0
 12944              	.LLST66:
 12945 089a 20000000 		.4byte	.LVL219
 12946 089e AA000000 		.4byte	.LVL229
 12947 08a2 0600     		.2byte	0x6
 12948 08a4 F2       		.byte	0xf2
 12949 08a5 42240000 		.4byte	.Ldebug_info0+9282
 12950 08a9 00       		.sleb128 0
 12951 08aa D4000000 		.4byte	.LVL235
 12952 08ae 08010000 		.4byte	.LFE56
 12953 08b2 0600     		.2byte	0x6
 12954 08b4 F2       		.byte	0xf2
 12955 08b5 42240000 		.4byte	.Ldebug_info0+9282
 12956 08b9 00       		.sleb128 0
 12957 08ba 00000000 		.4byte	0
 12958 08be 00000000 		.4byte	0
 12959              	.LLST67:
 12960 08c2 20000000 		.4byte	.LVL219
 12961 08c6 36000000 		.4byte	.LVL222
 12962 08ca 0200     		.2byte	0x2
 12963 08cc 30       		.byte	0x30
 12964 08cd 9F       		.byte	0x9f
 12965 08ce 36000000 		.4byte	.LVL222
 12966 08d2 4E000000 		.4byte	.LVL224
 12967 08d6 0700     		.2byte	0x7
 12968 08d8 76       		.byte	0x76
 12969 08d9 00       		.sleb128 0
 12970 08da 48       		.byte	0x48
 12971 08db 24       		.byte	0x24
 12972 08dc 30       		.byte	0x30
 12973 08dd 29       		.byte	0x29
 12974 08de 9F       		.byte	0x9f
 12975 08df 50000000 		.4byte	.LVL225
 12976 08e3 AA000000 		.4byte	.LVL229
 12977 08e7 0100     		.2byte	0x1
 12978 08e9 57       		.byte	0x57
 12979 08ea D4000000 		.4byte	.LVL235
 12980 08ee DC000000 		.4byte	.LVL236
 12981 08f2 0100     		.2byte	0x1
 12982 08f4 57       		.byte	0x57
 12983 08f5 DC000000 		.4byte	.LVL236
 12984 08f9 F2000000 		.4byte	.LVL238
 12985 08fd 0200     		.2byte	0x2
 12986 08ff 31       		.byte	0x31
 12987 0900 9F       		.byte	0x9f
 12988 0901 00000000 		.4byte	0
 12989 0905 00000000 		.4byte	0
 12990              	.LLST68:
ARM GAS  C:\Users\EBANO_~1\AppData\Local\Temp\ccEfOEMG.s 			page 257


 12991 0909 20000000 		.4byte	.LVL219
 12992 090d AA000000 		.4byte	.LVL229
 12993 0911 0200     		.2byte	0x2
 12994 0913 30       		.byte	0x30
 12995 0914 9F       		.byte	0x9f
 12996 0915 D4000000 		.4byte	.LVL235
 12997 0919 DC000000 		.4byte	.LVL236
 12998 091d 0200     		.2byte	0x2
 12999 091f 31       		.byte	0x31
 13000 0920 9F       		.byte	0x9f
 13001 0921 DC000000 		.4byte	.LVL236
 13002 0925 08010000 		.4byte	.LFE56
 13003 0929 0200     		.2byte	0x2
 13004 092b 30       		.byte	0x30
 13005 092c 9F       		.byte	0x9f
 13006 092d 00000000 		.4byte	0
 13007 0931 00000000 		.4byte	0
 13008              	.LLST69:
 13009 0935 20000000 		.4byte	.LVL219
 13010 0939 28000000 		.4byte	.LVL220
 13011 093d 0200     		.2byte	0x2
 13012 093f 70       		.byte	0x70
 13013 0940 04       		.sleb128 4
 13014 0941 28000000 		.4byte	.LVL220
 13015 0945 33000000 		.4byte	.LVL221-1
 13016 0949 0500     		.2byte	0x5
 13017 094b F3       		.byte	0xf3
 13018 094c 01       		.uleb128 0x1
 13019 094d 50       		.byte	0x50
 13020 094e 23       		.byte	0x23
 13021 094f 04       		.uleb128 0x4
 13022 0950 00000000 		.4byte	0
 13023 0954 00000000 		.4byte	0
 13024              	.LLST58:
 13025 0958 00000000 		.4byte	.LFB55
 13026 095c 02000000 		.4byte	.LCFI22
 13027 0960 0200     		.2byte	0x2
 13028 0962 7D       		.byte	0x7d
 13029 0963 00       		.sleb128 0
 13030 0964 02000000 		.4byte	.LCFI22
 13031 0968 0A000000 		.4byte	.LCFI23
 13032 096c 0200     		.2byte	0x2
 13033 096e 7D       		.byte	0x7d
 13034 096f 10       		.sleb128 16
 13035 0970 0A000000 		.4byte	.LCFI23
 13036 0974 64000000 		.4byte	.LFE55
 13037 0978 0200     		.2byte	0x2
 13038 097a 7D       		.byte	0x7d
 13039 097b 18       		.sleb128 24
 13040 097c 00000000 		.4byte	0
 13041 0980 00000000 		.4byte	0
 13042              	.LLST59:
 13043 0984 00000000 		.4byte	.LVL201
 13044 0988 0E000000 		.4byte	.LVL203
 13045 098c 0100     		.2byte	0x1
 13046 098e 50       		.byte	0x50
 13047 098f 0E000000 		.4byte	.LVL203
ARM GAS  C:\Users\EBANO_~1\AppData\Local\Temp\ccEfOEMG.s 			page 258


 13048 0993 50000000 		.4byte	.LVL212
 13049 0997 0100     		.2byte	0x1
 13050 0999 54       		.byte	0x54
 13051 099a 50000000 		.4byte	.LVL212
 13052 099e 52000000 		.4byte	.LVL214
 13053 09a2 0400     		.2byte	0x4
 13054 09a4 F3       		.byte	0xf3
 13055 09a5 01       		.uleb128 0x1
 13056 09a6 50       		.byte	0x50
 13057 09a7 9F       		.byte	0x9f
 13058 09a8 52000000 		.4byte	.LVL214
 13059 09ac 64000000 		.4byte	.LFE55
 13060 09b0 0100     		.2byte	0x1
 13061 09b2 54       		.byte	0x54
 13062 09b3 00000000 		.4byte	0
 13063 09b7 00000000 		.4byte	0
 13064              	.LLST60:
 13065 09bb 00000000 		.4byte	.LVL201
 13066 09bf 26000000 		.4byte	.LVL207
 13067 09c3 0200     		.2byte	0x2
 13068 09c5 37       		.byte	0x37
 13069 09c6 9F       		.byte	0x9f
 13070 09c7 26000000 		.4byte	.LVL207
 13071 09cb 38000000 		.4byte	.LVL209
 13072 09cf 0100     		.2byte	0x1
 13073 09d1 56       		.byte	0x56
 13074 09d2 38000000 		.4byte	.LVL209
 13075 09d6 50000000 		.4byte	.LVL213
 13076 09da 0100     		.2byte	0x1
 13077 09dc 55       		.byte	0x55
 13078 09dd 52000000 		.4byte	.LVL214
 13079 09e1 64000000 		.4byte	.LFE55
 13080 09e5 0200     		.2byte	0x2
 13081 09e7 37       		.byte	0x37
 13082 09e8 9F       		.byte	0x9f
 13083 09e9 00000000 		.4byte	0
 13084 09ed 00000000 		.4byte	0
 13085              	.LLST61:
 13086 09f1 06000000 		.4byte	.LVL202
 13087 09f5 1E000000 		.4byte	.LVL205
 13088 09f9 0100     		.2byte	0x1
 13089 09fb 55       		.byte	0x55
 13090 09fc 1E000000 		.4byte	.LVL205
 13091 0a00 22000000 		.4byte	.LVL206
 13092 0a04 0700     		.2byte	0x7
 13093 0a06 75       		.byte	0x75
 13094 0a07 C0B4BB9C 		.sleb128 865000000
 13094      03
 13095 0a0c 9F       		.byte	0x9f
 13096 0a0d 52000000 		.4byte	.LVL214
 13097 0a11 54000000 		.4byte	.LVL215
 13098 0a15 0700     		.2byte	0x7
 13099 0a17 75       		.byte	0x75
 13100 0a18 C0B4BB9C 		.sleb128 865000000
 13100      03
 13101 0a1d 9F       		.byte	0x9f
 13102 0a1e 00000000 		.4byte	0
ARM GAS  C:\Users\EBANO_~1\AppData\Local\Temp\ccEfOEMG.s 			page 259


 13103 0a22 00000000 		.4byte	0
 13104              	.LLST49:
 13105 0a26 00000000 		.4byte	.LFB54
 13106 0a2a 02000000 		.4byte	.LCFI19
 13107 0a2e 0200     		.2byte	0x2
 13108 0a30 7D       		.byte	0x7d
 13109 0a31 00       		.sleb128 0
 13110 0a32 02000000 		.4byte	.LCFI19
 13111 0a36 0C000000 		.4byte	.LCFI20
 13112 0a3a 0200     		.2byte	0x2
 13113 0a3c 7D       		.byte	0x7d
 13114 0a3d 14       		.sleb128 20
 13115 0a3e 0C000000 		.4byte	.LCFI20
 13116 0a42 0E000000 		.4byte	.LCFI21
 13117 0a46 0200     		.2byte	0x2
 13118 0a48 7D       		.byte	0x7d
 13119 0a49 24       		.sleb128 36
 13120 0a4a 0E000000 		.4byte	.LCFI21
 13121 0a4e 64030000 		.4byte	.LFE54
 13122 0a52 0300     		.2byte	0x3
 13123 0a54 7D       		.byte	0x7d
 13124 0a55 E000     		.sleb128 96
 13125 0a57 00000000 		.4byte	0
 13126 0a5b 00000000 		.4byte	0
 13127              	.LLST50:
 13128 0a5f 00000000 		.4byte	.LVL142
 13129 0a63 2C000000 		.4byte	.LVL145
 13130 0a67 0100     		.2byte	0x1
 13131 0a69 50       		.byte	0x50
 13132 0a6a 2C000000 		.4byte	.LVL145
 13133 0a6e 90010000 		.4byte	.LVL168
 13134 0a72 0100     		.2byte	0x1
 13135 0a74 56       		.byte	0x56
 13136 0a75 90010000 		.4byte	.LVL168
 13137 0a79 B2010000 		.4byte	.LVL173
 13138 0a7d 0400     		.2byte	0x4
 13139 0a7f F3       		.byte	0xf3
 13140 0a80 01       		.uleb128 0x1
 13141 0a81 50       		.byte	0x50
 13142 0a82 9F       		.byte	0x9f
 13143 0a83 B2010000 		.4byte	.LVL173
 13144 0a87 0C030000 		.4byte	.LVL193
 13145 0a8b 0100     		.2byte	0x1
 13146 0a8d 56       		.byte	0x56
 13147 0a8e 0C030000 		.4byte	.LVL193
 13148 0a92 32030000 		.4byte	.LVL196
 13149 0a96 0400     		.2byte	0x4
 13150 0a98 F3       		.byte	0xf3
 13151 0a99 01       		.uleb128 0x1
 13152 0a9a 50       		.byte	0x50
 13153 0a9b 9F       		.byte	0x9f
 13154 0a9c 32030000 		.4byte	.LVL196
 13155 0aa0 64030000 		.4byte	.LFE54
 13156 0aa4 0100     		.2byte	0x1
 13157 0aa6 56       		.byte	0x56
 13158 0aa7 00000000 		.4byte	0
 13159 0aab 00000000 		.4byte	0
ARM GAS  C:\Users\EBANO_~1\AppData\Local\Temp\ccEfOEMG.s 			page 260


 13160              	.LLST51:
 13161 0aaf 00000000 		.4byte	.LVL142
 13162 0ab3 2C000000 		.4byte	.LVL145
 13163 0ab7 0100     		.2byte	0x1
 13164 0ab9 51       		.byte	0x51
 13165 0aba 2C000000 		.4byte	.LVL145
 13166 0abe A6010000 		.4byte	.LVL172
 13167 0ac2 0100     		.2byte	0x1
 13168 0ac4 5B       		.byte	0x5b
 13169 0ac5 A6010000 		.4byte	.LVL172
 13170 0ac9 B2010000 		.4byte	.LVL173
 13171 0acd 0400     		.2byte	0x4
 13172 0acf F3       		.byte	0xf3
 13173 0ad0 01       		.uleb128 0x1
 13174 0ad1 51       		.byte	0x51
 13175 0ad2 9F       		.byte	0x9f
 13176 0ad3 B2010000 		.4byte	.LVL173
 13177 0ad7 64030000 		.4byte	.LFE54
 13178 0adb 0100     		.2byte	0x1
 13179 0add 5B       		.byte	0x5b
 13180 0ade 00000000 		.4byte	0
 13181 0ae2 00000000 		.4byte	0
 13182              	.LLST52:
 13183 0ae6 00000000 		.4byte	.LVL142
 13184 0aea 16000000 		.4byte	.LVL144
 13185 0aee 0100     		.2byte	0x1
 13186 0af0 52       		.byte	0x52
 13187 0af1 16000000 		.4byte	.LVL144
 13188 0af5 A6010000 		.4byte	.LVL171
 13189 0af9 0100     		.2byte	0x1
 13190 0afb 5A       		.byte	0x5a
 13191 0afc A6010000 		.4byte	.LVL171
 13192 0b00 B2010000 		.4byte	.LVL173
 13193 0b04 0400     		.2byte	0x4
 13194 0b06 F3       		.byte	0xf3
 13195 0b07 01       		.uleb128 0x1
 13196 0b08 52       		.byte	0x52
 13197 0b09 9F       		.byte	0x9f
 13198 0b0a B2010000 		.4byte	.LVL173
 13199 0b0e 64030000 		.4byte	.LFE54
 13200 0b12 0100     		.2byte	0x1
 13201 0b14 5A       		.byte	0x5a
 13202 0b15 00000000 		.4byte	0
 13203 0b19 00000000 		.4byte	0
 13204              	.LLST53:
 13205 0b1d 00000000 		.4byte	.LVL142
 13206 0b21 12000000 		.4byte	.LVL143
 13207 0b25 0100     		.2byte	0x1
 13208 0b27 53       		.byte	0x53
 13209 0b28 12000000 		.4byte	.LVL143
 13210 0b2c 64030000 		.4byte	.LFE54
 13211 0b30 0300     		.2byte	0x3
 13212 0b32 91       		.byte	0x91
 13213 0b33 A47F     		.sleb128 -92
 13214 0b35 00000000 		.4byte	0
 13215 0b39 00000000 		.4byte	0
 13216              	.LLST54:
ARM GAS  C:\Users\EBANO_~1\AppData\Local\Temp\ccEfOEMG.s 			page 261


 13217 0b3d 00000000 		.4byte	.LVL142
 13218 0b41 2C000000 		.4byte	.LVL145
 13219 0b45 0200     		.2byte	0x2
 13220 0b47 37       		.byte	0x37
 13221 0b48 9F       		.byte	0x9f
 13222 0b49 2C000000 		.4byte	.LVL145
 13223 0b4d 50000000 		.4byte	.LVL148
 13224 0b51 0100     		.2byte	0x1
 13225 0b53 58       		.byte	0x58
 13226 0b54 50000000 		.4byte	.LVL148
 13227 0b58 74000000 		.4byte	.LVL151
 13228 0b5c 0200     		.2byte	0x2
 13229 0b5e 37       		.byte	0x37
 13230 0b5f 9F       		.byte	0x9f
 13231 0b60 74000000 		.4byte	.LVL151
 13232 0b64 92010000 		.4byte	.LVL169
 13233 0b68 0100     		.2byte	0x1
 13234 0b6a 58       		.byte	0x58
 13235 0b6b B2010000 		.4byte	.LVL173
 13236 0b6f C0020000 		.4byte	.LVL191
 13237 0b73 0200     		.2byte	0x2
 13238 0b75 37       		.byte	0x37
 13239 0b76 9F       		.byte	0x9f
 13240 0b77 C0020000 		.4byte	.LVL191
 13241 0b7b 0C030000 		.4byte	.LVL193
 13242 0b7f 0100     		.2byte	0x1
 13243 0b81 58       		.byte	0x58
 13244 0b82 0C030000 		.4byte	.LVL193
 13245 0b86 12030000 		.4byte	.LVL194
 13246 0b8a 0100     		.2byte	0x1
 13247 0b8c 50       		.byte	0x50
 13248 0b8d 12030000 		.4byte	.LVL194
 13249 0b91 32030000 		.4byte	.LVL196
 13250 0b95 0100     		.2byte	0x1
 13251 0b97 56       		.byte	0x56
 13252 0b98 32030000 		.4byte	.LVL196
 13253 0b9c 64030000 		.4byte	.LFE54
 13254 0ba0 0200     		.2byte	0x2
 13255 0ba2 37       		.byte	0x37
 13256 0ba3 9F       		.byte	0x9f
 13257 0ba4 00000000 		.4byte	0
 13258 0ba8 00000000 		.4byte	0
 13259              	.LLST55:
 13260 0bac 00000000 		.4byte	.LVL142
 13261 0bb0 2C000000 		.4byte	.LVL145
 13262 0bb4 0200     		.2byte	0x2
 13263 0bb6 30       		.byte	0x30
 13264 0bb7 9F       		.byte	0x9f
 13265 0bb8 3E000000 		.4byte	.LVL146
 13266 0bbc 52000000 		.4byte	.LVL149
 13267 0bc0 0100     		.2byte	0x1
 13268 0bc2 50       		.byte	0x50
 13269 0bc3 00000000 		.4byte	0
 13270 0bc7 00000000 		.4byte	0
 13271              	.LLST56:
 13272 0bcb 00000000 		.4byte	.LVL142
 13273 0bcf 2C000000 		.4byte	.LVL145
ARM GAS  C:\Users\EBANO_~1\AppData\Local\Temp\ccEfOEMG.s 			page 262


 13274 0bd3 0200     		.2byte	0x2
 13275 0bd5 30       		.byte	0x30
 13276 0bd6 9F       		.byte	0x9f
 13277 0bd7 2C000000 		.4byte	.LVL145
 13278 0bdb 4A000000 		.4byte	.LVL147
 13279 0bdf 0100     		.2byte	0x1
 13280 0be1 54       		.byte	0x54
 13281 0be2 50000000 		.4byte	.LVL148
 13282 0be6 A6010000 		.4byte	.LVL170
 13283 0bea 0100     		.2byte	0x1
 13284 0bec 54       		.byte	0x54
 13285 0bed A6010000 		.4byte	.LVL170
 13286 0bf1 B2010000 		.4byte	.LVL173
 13287 0bf5 0200     		.2byte	0x2
 13288 0bf7 73       		.byte	0x73
 13289 0bf8 00       		.sleb128 0
 13290 0bf9 B2010000 		.4byte	.LVL173
 13291 0bfd 64030000 		.4byte	.LFE54
 13292 0c01 0100     		.2byte	0x1
 13293 0c03 54       		.byte	0x54
 13294 0c04 00000000 		.4byte	0
 13295 0c08 00000000 		.4byte	0
 13296              	.LLST57:
 13297 0c0c 60000000 		.4byte	.LVL150
 13298 0c10 74000000 		.4byte	.LVL151
 13299 0c14 0200     		.2byte	0x2
 13300 0c16 30       		.byte	0x30
 13301 0c17 9F       		.byte	0x9f
 13302 0c18 74000000 		.4byte	.LVL151
 13303 0c1c 84000000 		.4byte	.LVL152
 13304 0c20 0200     		.2byte	0x2
 13305 0c22 31       		.byte	0x31
 13306 0c23 9F       		.byte	0x9f
 13307 0c24 84000000 		.4byte	.LVL152
 13308 0c28 94000000 		.4byte	.LVL153
 13309 0c2c 0200     		.2byte	0x2
 13310 0c2e 32       		.byte	0x32
 13311 0c2f 9F       		.byte	0x9f
 13312 0c30 94000000 		.4byte	.LVL153
 13313 0c34 A4000000 		.4byte	.LVL154
 13314 0c38 0200     		.2byte	0x2
 13315 0c3a 33       		.byte	0x33
 13316 0c3b 9F       		.byte	0x9f
 13317 0c3c A4000000 		.4byte	.LVL154
 13318 0c40 B4000000 		.4byte	.LVL155
 13319 0c44 0200     		.2byte	0x2
 13320 0c46 34       		.byte	0x34
 13321 0c47 9F       		.byte	0x9f
 13322 0c48 B4000000 		.4byte	.LVL155
 13323 0c4c C4000000 		.4byte	.LVL156
 13324 0c50 0200     		.2byte	0x2
 13325 0c52 35       		.byte	0x35
 13326 0c53 9F       		.byte	0x9f
 13327 0c54 C4000000 		.4byte	.LVL156
 13328 0c58 D4000000 		.4byte	.LVL157
 13329 0c5c 0200     		.2byte	0x2
 13330 0c5e 36       		.byte	0x36
ARM GAS  C:\Users\EBANO_~1\AppData\Local\Temp\ccEfOEMG.s 			page 263


 13331 0c5f 9F       		.byte	0x9f
 13332 0c60 D4000000 		.4byte	.LVL157
 13333 0c64 E4000000 		.4byte	.LVL158
 13334 0c68 0200     		.2byte	0x2
 13335 0c6a 37       		.byte	0x37
 13336 0c6b 9F       		.byte	0x9f
 13337 0c6c E4000000 		.4byte	.LVL158
 13338 0c70 F4000000 		.4byte	.LVL159
 13339 0c74 0200     		.2byte	0x2
 13340 0c76 38       		.byte	0x38
 13341 0c77 9F       		.byte	0x9f
 13342 0c78 F4000000 		.4byte	.LVL159
 13343 0c7c 04010000 		.4byte	.LVL160
 13344 0c80 0200     		.2byte	0x2
 13345 0c82 39       		.byte	0x39
 13346 0c83 9F       		.byte	0x9f
 13347 0c84 04010000 		.4byte	.LVL160
 13348 0c88 14010000 		.4byte	.LVL161
 13349 0c8c 0200     		.2byte	0x2
 13350 0c8e 3A       		.byte	0x3a
 13351 0c8f 9F       		.byte	0x9f
 13352 0c90 14010000 		.4byte	.LVL161
 13353 0c94 26010000 		.4byte	.LVL162
 13354 0c98 0200     		.2byte	0x2
 13355 0c9a 3B       		.byte	0x3b
 13356 0c9b 9F       		.byte	0x9f
 13357 0c9c 26010000 		.4byte	.LVL162
 13358 0ca0 38010000 		.4byte	.LVL163
 13359 0ca4 0200     		.2byte	0x2
 13360 0ca6 3C       		.byte	0x3c
 13361 0ca7 9F       		.byte	0x9f
 13362 0ca8 38010000 		.4byte	.LVL163
 13363 0cac 4A010000 		.4byte	.LVL164
 13364 0cb0 0200     		.2byte	0x2
 13365 0cb2 3D       		.byte	0x3d
 13366 0cb3 9F       		.byte	0x9f
 13367 0cb4 4A010000 		.4byte	.LVL164
 13368 0cb8 5C010000 		.4byte	.LVL165
 13369 0cbc 0200     		.2byte	0x2
 13370 0cbe 3E       		.byte	0x3e
 13371 0cbf 9F       		.byte	0x9f
 13372 0cc0 5C010000 		.4byte	.LVL165
 13373 0cc4 7C010000 		.4byte	.LVL167
 13374 0cc8 0200     		.2byte	0x2
 13375 0cca 3F       		.byte	0x3f
 13376 0ccb 9F       		.byte	0x9f
 13377 0ccc C4010000 		.4byte	.LVL174
 13378 0cd0 D4010000 		.4byte	.LVL175
 13379 0cd4 0200     		.2byte	0x2
 13380 0cd6 30       		.byte	0x30
 13381 0cd7 9F       		.byte	0x9f
 13382 0cd8 D4010000 		.4byte	.LVL175
 13383 0cdc E2010000 		.4byte	.LVL176
 13384 0ce0 0200     		.2byte	0x2
 13385 0ce2 31       		.byte	0x31
 13386 0ce3 9F       		.byte	0x9f
 13387 0ce4 E2010000 		.4byte	.LVL176
ARM GAS  C:\Users\EBANO_~1\AppData\Local\Temp\ccEfOEMG.s 			page 264


 13388 0ce8 F0010000 		.4byte	.LVL177
 13389 0cec 0200     		.2byte	0x2
 13390 0cee 32       		.byte	0x32
 13391 0cef 9F       		.byte	0x9f
 13392 0cf0 F0010000 		.4byte	.LVL177
 13393 0cf4 FE010000 		.4byte	.LVL178
 13394 0cf8 0200     		.2byte	0x2
 13395 0cfa 33       		.byte	0x33
 13396 0cfb 9F       		.byte	0x9f
 13397 0cfc FE010000 		.4byte	.LVL178
 13398 0d00 0C020000 		.4byte	.LVL179
 13399 0d04 0200     		.2byte	0x2
 13400 0d06 34       		.byte	0x34
 13401 0d07 9F       		.byte	0x9f
 13402 0d08 0C020000 		.4byte	.LVL179
 13403 0d0c 1A020000 		.4byte	.LVL180
 13404 0d10 0200     		.2byte	0x2
 13405 0d12 35       		.byte	0x35
 13406 0d13 9F       		.byte	0x9f
 13407 0d14 1A020000 		.4byte	.LVL180
 13408 0d18 28020000 		.4byte	.LVL181
 13409 0d1c 0200     		.2byte	0x2
 13410 0d1e 36       		.byte	0x36
 13411 0d1f 9F       		.byte	0x9f
 13412 0d20 28020000 		.4byte	.LVL181
 13413 0d24 36020000 		.4byte	.LVL182
 13414 0d28 0200     		.2byte	0x2
 13415 0d2a 37       		.byte	0x37
 13416 0d2b 9F       		.byte	0x9f
 13417 0d2c 36020000 		.4byte	.LVL182
 13418 0d30 46020000 		.4byte	.LVL183
 13419 0d34 0200     		.2byte	0x2
 13420 0d36 38       		.byte	0x38
 13421 0d37 9F       		.byte	0x9f
 13422 0d38 46020000 		.4byte	.LVL183
 13423 0d3c 56020000 		.4byte	.LVL184
 13424 0d40 0200     		.2byte	0x2
 13425 0d42 39       		.byte	0x39
 13426 0d43 9F       		.byte	0x9f
 13427 0d44 56020000 		.4byte	.LVL184
 13428 0d48 66020000 		.4byte	.LVL185
 13429 0d4c 0200     		.2byte	0x2
 13430 0d4e 3A       		.byte	0x3a
 13431 0d4f 9F       		.byte	0x9f
 13432 0d50 66020000 		.4byte	.LVL185
 13433 0d54 78020000 		.4byte	.LVL186
 13434 0d58 0200     		.2byte	0x2
 13435 0d5a 3B       		.byte	0x3b
 13436 0d5b 9F       		.byte	0x9f
 13437 0d5c 78020000 		.4byte	.LVL186
 13438 0d60 8A020000 		.4byte	.LVL187
 13439 0d64 0200     		.2byte	0x2
 13440 0d66 3C       		.byte	0x3c
 13441 0d67 9F       		.byte	0x9f
 13442 0d68 8A020000 		.4byte	.LVL187
 13443 0d6c 94020000 		.4byte	.LVL188
 13444 0d70 0200     		.2byte	0x2
ARM GAS  C:\Users\EBANO_~1\AppData\Local\Temp\ccEfOEMG.s 			page 265


 13445 0d72 3D       		.byte	0x3d
 13446 0d73 9F       		.byte	0x9f
 13447 0d74 94020000 		.4byte	.LVL188
 13448 0d78 A2020000 		.4byte	.LVL189
 13449 0d7c 0200     		.2byte	0x2
 13450 0d7e 3E       		.byte	0x3e
 13451 0d7f 9F       		.byte	0x9f
 13452 0d80 A2020000 		.4byte	.LVL189
 13453 0d84 B2020000 		.4byte	.LVL190
 13454 0d88 0200     		.2byte	0x2
 13455 0d8a 3F       		.byte	0x3f
 13456 0d8b 9F       		.byte	0x9f
 13457 0d8c 32030000 		.4byte	.LVL196
 13458 0d90 3A030000 		.4byte	.LVL197
 13459 0d94 0200     		.2byte	0x2
 13460 0d96 3F       		.byte	0x3f
 13461 0d97 9F       		.byte	0x9f
 13462 0d98 3A030000 		.4byte	.LVL197
 13463 0d9c 46030000 		.4byte	.LVL198
 13464 0da0 0200     		.2byte	0x2
 13465 0da2 40       		.byte	0x40
 13466 0da3 9F       		.byte	0x9f
 13467 0da4 46030000 		.4byte	.LVL198
 13468 0da8 4C030000 		.4byte	.LVL199
 13469 0dac 0200     		.2byte	0x2
 13470 0dae 3D       		.byte	0x3d
 13471 0daf 9F       		.byte	0x9f
 13472 0db0 4C030000 		.4byte	.LVL199
 13473 0db4 54030000 		.4byte	.LVL200
 13474 0db8 0200     		.2byte	0x2
 13475 0dba 3E       		.byte	0x3e
 13476 0dbb 9F       		.byte	0x9f
 13477 0dbc 54030000 		.4byte	.LVL200
 13478 0dc0 64030000 		.4byte	.LFE54
 13479 0dc4 0200     		.2byte	0x2
 13480 0dc6 3F       		.byte	0x3f
 13481 0dc7 9F       		.byte	0x9f
 13482 0dc8 00000000 		.4byte	0
 13483 0dcc 00000000 		.4byte	0
 13484              	.LLST38:
 13485 0dd0 00000000 		.4byte	.LFB53
 13486 0dd4 02000000 		.4byte	.LCFI16
 13487 0dd8 0200     		.2byte	0x2
 13488 0dda 7D       		.byte	0x7d
 13489 0ddb 00       		.sleb128 0
 13490 0ddc 02000000 		.4byte	.LCFI16
 13491 0de0 14000000 		.4byte	.LCFI17
 13492 0de4 0200     		.2byte	0x2
 13493 0de6 7D       		.byte	0x7d
 13494 0de7 14       		.sleb128 20
 13495 0de8 14000000 		.4byte	.LCFI17
 13496 0dec 16000000 		.4byte	.LCFI18
 13497 0df0 0200     		.2byte	0x2
 13498 0df2 7D       		.byte	0x7d
 13499 0df3 24       		.sleb128 36
 13500 0df4 16000000 		.4byte	.LCFI18
 13501 0df8 3C010000 		.4byte	.LFE53
ARM GAS  C:\Users\EBANO_~1\AppData\Local\Temp\ccEfOEMG.s 			page 266


 13502 0dfc 0300     		.2byte	0x3
 13503 0dfe 7D       		.byte	0x7d
 13504 0dff D800     		.sleb128 88
 13505 0e01 00000000 		.4byte	0
 13506 0e05 00000000 		.4byte	0
 13507              	.LLST39:
 13508 0e09 00000000 		.4byte	.LVL114
 13509 0e0d 20000000 		.4byte	.LVL117
 13510 0e11 0100     		.2byte	0x1
 13511 0e13 50       		.byte	0x50
 13512 0e14 20000000 		.4byte	.LVL117
 13513 0e18 D8000000 		.4byte	.LVL133
 13514 0e1c 0100     		.2byte	0x1
 13515 0e1e 54       		.byte	0x54
 13516 0e1f D8000000 		.4byte	.LVL133
 13517 0e23 E4000000 		.4byte	.LVL137
 13518 0e27 0400     		.2byte	0x4
 13519 0e29 F3       		.byte	0xf3
 13520 0e2a 01       		.uleb128 0x1
 13521 0e2b 50       		.byte	0x50
 13522 0e2c 9F       		.byte	0x9f
 13523 0e2d E4000000 		.4byte	.LVL137
 13524 0e31 3C010000 		.4byte	.LFE53
 13525 0e35 0100     		.2byte	0x1
 13526 0e37 54       		.byte	0x54
 13527 0e38 00000000 		.4byte	0
 13528 0e3c 00000000 		.4byte	0
 13529              	.LLST40:
 13530 0e40 00000000 		.4byte	.LVL114
 13531 0e44 1C000000 		.4byte	.LVL116
 13532 0e48 0100     		.2byte	0x1
 13533 0e4a 51       		.byte	0x51
 13534 0e4b 1C000000 		.4byte	.LVL116
 13535 0e4f 3C010000 		.4byte	.LFE53
 13536 0e53 0200     		.2byte	0x2
 13537 0e55 91       		.byte	0x91
 13538 0e56 50       		.sleb128 -48
 13539 0e57 00000000 		.4byte	0
 13540 0e5b 00000000 		.4byte	0
 13541              	.LLST41:
 13542 0e5f 00000000 		.4byte	.LVL114
 13543 0e63 0E000000 		.4byte	.LVL115
 13544 0e67 0100     		.2byte	0x1
 13545 0e69 52       		.byte	0x52
 13546 0e6a 0E000000 		.4byte	.LVL115
 13547 0e6e D8000000 		.4byte	.LVL135
 13548 0e72 0100     		.2byte	0x1
 13549 0e74 58       		.byte	0x58
 13550 0e75 D8000000 		.4byte	.LVL135
 13551 0e79 E4000000 		.4byte	.LVL137
 13552 0e7d 0400     		.2byte	0x4
 13553 0e7f F3       		.byte	0xf3
 13554 0e80 01       		.uleb128 0x1
 13555 0e81 52       		.byte	0x52
 13556 0e82 9F       		.byte	0x9f
 13557 0e83 E4000000 		.4byte	.LVL137
 13558 0e87 3C010000 		.4byte	.LFE53
ARM GAS  C:\Users\EBANO_~1\AppData\Local\Temp\ccEfOEMG.s 			page 267


 13559 0e8b 0100     		.2byte	0x1
 13560 0e8d 58       		.byte	0x58
 13561 0e8e 00000000 		.4byte	0
 13562 0e92 00000000 		.4byte	0
 13563              	.LLST42:
 13564 0e96 8E000000 		.4byte	.LVL127
 13565 0e9a B6000000 		.4byte	.LVL130
 13566 0e9e 0200     		.2byte	0x2
 13567 0ea0 31       		.byte	0x31
 13568 0ea1 9F       		.byte	0x9f
 13569 0ea2 B6000000 		.4byte	.LVL130
 13570 0ea6 D8000000 		.4byte	.LVL134
 13571 0eaa 0100     		.2byte	0x1
 13572 0eac 56       		.byte	0x56
 13573 0ead EA000000 		.4byte	.LVL139
 13574 0eb1 3C010000 		.4byte	.LFE53
 13575 0eb5 0200     		.2byte	0x2
 13576 0eb7 30       		.byte	0x30
 13577 0eb8 9F       		.byte	0x9f
 13578 0eb9 00000000 		.4byte	0
 13579 0ebd 00000000 		.4byte	0
 13580              	.LLST43:
 13581 0ec1 22000000 		.4byte	.LVL118
 13582 0ec5 AC000000 		.4byte	.LVL128
 13583 0ec9 0100     		.2byte	0x1
 13584 0ecb 56       		.byte	0x56
 13585 0ecc AC000000 		.4byte	.LVL128
 13586 0ed0 B3000000 		.4byte	.LVL129-1
 13587 0ed4 0200     		.2byte	0x2
 13588 0ed6 7D       		.byte	0x7d
 13589 0ed7 00       		.sleb128 0
 13590 0ed8 E4000000 		.4byte	.LVL137
 13591 0edc 04010000 		.4byte	.LVL140
 13592 0ee0 0100     		.2byte	0x1
 13593 0ee2 56       		.byte	0x56
 13594 0ee3 00000000 		.4byte	0
 13595 0ee7 00000000 		.4byte	0
 13596              	.LLST44:
 13597 0eeb 64000000 		.4byte	.LVL123
 13598 0eef 72000000 		.4byte	.LVL125
 13599 0ef3 0200     		.2byte	0x2
 13600 0ef5 30       		.byte	0x30
 13601 0ef6 9F       		.byte	0x9f
 13602 0ef7 72000000 		.4byte	.LVL125
 13603 0efb D8000000 		.4byte	.LVL136
 13604 0eff 0100     		.2byte	0x1
 13605 0f01 5B       		.byte	0x5b
 13606 0f02 EA000000 		.4byte	.LVL139
 13607 0f06 3C010000 		.4byte	.LFE53
 13608 0f0a 0100     		.2byte	0x1
 13609 0f0c 5B       		.byte	0x5b
 13610 0f0d 00000000 		.4byte	0
 13611 0f11 00000000 		.4byte	0
 13612              	.LLST45:
 13613 0f15 22000000 		.4byte	.LVL118
 13614 0f19 4C000000 		.4byte	.LVL121
 13615 0f1d 0100     		.2byte	0x1
ARM GAS  C:\Users\EBANO_~1\AppData\Local\Temp\ccEfOEMG.s 			page 268


 13616 0f1f 52       		.byte	0x52
 13617 0f20 4C000000 		.4byte	.LVL121
 13618 0f24 6D000000 		.4byte	.LVL124-1
 13619 0f28 0200     		.2byte	0x2
 13620 0f2a 74       		.byte	0x74
 13621 0f2b 01       		.sleb128 1
 13622 0f2c E4000000 		.4byte	.LVL137
 13623 0f30 E6000000 		.4byte	.LVL138
 13624 0f34 0200     		.2byte	0x2
 13625 0f36 74       		.byte	0x74
 13626 0f37 01       		.sleb128 1
 13627 0f38 E6000000 		.4byte	.LVL138
 13628 0f3c EA000000 		.4byte	.LVL139
 13629 0f40 0500     		.2byte	0x5
 13630 0f42 74       		.byte	0x74
 13631 0f43 00       		.sleb128 0
 13632 0f44 73       		.byte	0x73
 13633 0f45 00       		.sleb128 0
 13634 0f46 22       		.byte	0x22
 13635 0f47 00000000 		.4byte	0
 13636 0f4b 00000000 		.4byte	0
 13637              	.LLST46:
 13638 0f4f 22000000 		.4byte	.LVL118
 13639 0f53 24000000 		.4byte	.LVL119
 13640 0f57 1E00     		.2byte	0x1e
 13641 0f59 74       		.byte	0x74
 13642 0f5a 00       		.sleb128 0
 13643 0f5b 94       		.byte	0x94
 13644 0f5c 01       		.byte	0x1
 13645 0f5d 08       		.byte	0x8
 13646 0f5e FF       		.byte	0xff
 13647 0f5f 1A       		.byte	0x1a
 13648 0f60 3C       		.byte	0x3c
 13649 0f61 1E       		.byte	0x1e
 13650 0f62 03       		.byte	0x3
 13651 0f63 09000000 		.4byte	NvmCtx+9
 13652 0f67 22       		.byte	0x22
 13653 0f68 94       		.byte	0x94
 13654 0f69 01       		.byte	0x1
 13655 0f6a 08       		.byte	0x8
 13656 0f6b FF       		.byte	0xff
 13657 0f6c 1A       		.byte	0x1a
 13658 0f6d 23       		.byte	0x23
 13659 0f6e 0C       		.uleb128 0xc
 13660 0f6f 34       		.byte	0x34
 13661 0f70 24       		.byte	0x24
 13662 0f71 03       		.byte	0x3
 13663 0f72 02000000 		.4byte	NvmCtx+2
 13664 0f76 22       		.byte	0x22
 13665 0f77 24000000 		.4byte	.LVL119
 13666 0f7b 2A000000 		.4byte	.LVL120
 13667 0f7f 1900     		.2byte	0x19
 13668 0f81 70       		.byte	0x70
 13669 0f82 00       		.sleb128 0
 13670 0f83 3C       		.byte	0x3c
 13671 0f84 1E       		.byte	0x1e
 13672 0f85 03       		.byte	0x3
ARM GAS  C:\Users\EBANO_~1\AppData\Local\Temp\ccEfOEMG.s 			page 269


 13673 0f86 09000000 		.4byte	NvmCtx+9
 13674 0f8a 22       		.byte	0x22
 13675 0f8b 94       		.byte	0x94
 13676 0f8c 01       		.byte	0x1
 13677 0f8d 08       		.byte	0x8
 13678 0f8e FF       		.byte	0xff
 13679 0f8f 1A       		.byte	0x1a
 13680 0f90 23       		.byte	0x23
 13681 0f91 0C       		.uleb128 0xc
 13682 0f92 34       		.byte	0x34
 13683 0f93 24       		.byte	0x24
 13684 0f94 03       		.byte	0x3
 13685 0f95 02000000 		.4byte	NvmCtx+2
 13686 0f99 22       		.byte	0x22
 13687 0f9a 2A000000 		.4byte	.LVL120
 13688 0f9e 4E000000 		.4byte	.LVL122
 13689 0fa2 1E00     		.2byte	0x1e
 13690 0fa4 74       		.byte	0x74
 13691 0fa5 00       		.sleb128 0
 13692 0fa6 94       		.byte	0x94
 13693 0fa7 01       		.byte	0x1
 13694 0fa8 08       		.byte	0x8
 13695 0fa9 FF       		.byte	0xff
 13696 0faa 1A       		.byte	0x1a
 13697 0fab 3C       		.byte	0x3c
 13698 0fac 1E       		.byte	0x1e
 13699 0fad 03       		.byte	0x3
 13700 0fae 09000000 		.4byte	NvmCtx+9
 13701 0fb2 22       		.byte	0x22
 13702 0fb3 94       		.byte	0x94
 13703 0fb4 01       		.byte	0x1
 13704 0fb5 08       		.byte	0x8
 13705 0fb6 FF       		.byte	0xff
 13706 0fb7 1A       		.byte	0x1a
 13707 0fb8 23       		.byte	0x23
 13708 0fb9 0C       		.uleb128 0xc
 13709 0fba 34       		.byte	0x34
 13710 0fbb 24       		.byte	0x24
 13711 0fbc 03       		.byte	0x3
 13712 0fbd 02000000 		.4byte	NvmCtx+2
 13713 0fc1 22       		.byte	0x22
 13714 0fc2 00000000 		.4byte	0
 13715 0fc6 00000000 		.4byte	0
 13716              	.LLST47:
 13717 0fca 22000000 		.4byte	.LVL118
 13718 0fce 4E000000 		.4byte	.LVL122
 13719 0fd2 0200     		.2byte	0x2
 13720 0fd4 74       		.byte	0x74
 13721 0fd5 02       		.sleb128 2
 13722 0fd6 00000000 		.4byte	0
 13723 0fda 00000000 		.4byte	0
 13724              	.LLST30:
 13725 0fde 00000000 		.4byte	.LFB52
 13726 0fe2 02000000 		.4byte	.LCFI13
 13727 0fe6 0200     		.2byte	0x2
 13728 0fe8 7D       		.byte	0x7d
 13729 0fe9 00       		.sleb128 0
ARM GAS  C:\Users\EBANO_~1\AppData\Local\Temp\ccEfOEMG.s 			page 270


 13730 0fea 02000000 		.4byte	.LCFI13
 13731 0fee 0A000000 		.4byte	.LCFI14
 13732 0ff2 0200     		.2byte	0x2
 13733 0ff4 7D       		.byte	0x7d
 13734 0ff5 14       		.sleb128 20
 13735 0ff6 0A000000 		.4byte	.LCFI14
 13736 0ffa 16000000 		.4byte	.LCFI15
 13737 0ffe 0200     		.2byte	0x2
 13738 1000 7D       		.byte	0x7d
 13739 1001 20       		.sleb128 32
 13740 1002 16000000 		.4byte	.LCFI15
 13741 1006 0C010000 		.4byte	.LFE52
 13742 100a 0300     		.2byte	0x3
 13743 100c 7D       		.byte	0x7d
 13744 100d D000     		.sleb128 80
 13745 100f 00000000 		.4byte	0
 13746 1013 00000000 		.4byte	0
 13747              	.LLST31:
 13748 1017 00000000 		.4byte	.LVL91
 13749 101b 1F000000 		.4byte	.LVL93-1
 13750 101f 0100     		.2byte	0x1
 13751 1021 50       		.byte	0x50
 13752 1022 1F000000 		.4byte	.LVL93-1
 13753 1026 A8000000 		.4byte	.LVL105
 13754 102a 0100     		.2byte	0x1
 13755 102c 54       		.byte	0x54
 13756 102d A8000000 		.4byte	.LVL105
 13757 1031 B2000000 		.4byte	.LVL109
 13758 1035 0400     		.2byte	0x4
 13759 1037 F3       		.byte	0xf3
 13760 1038 01       		.uleb128 0x1
 13761 1039 50       		.byte	0x50
 13762 103a 9F       		.byte	0x9f
 13763 103b B2000000 		.4byte	.LVL109
 13764 103f 0C010000 		.4byte	.LFE52
 13765 1043 0100     		.2byte	0x1
 13766 1045 54       		.byte	0x54
 13767 1046 00000000 		.4byte	0
 13768 104a 00000000 		.4byte	0
 13769              	.LLST32:
 13770 104e 00000000 		.4byte	.LVL91
 13771 1052 1F000000 		.4byte	.LVL93-1
 13772 1056 0100     		.2byte	0x1
 13773 1058 51       		.byte	0x51
 13774 1059 1F000000 		.4byte	.LVL93-1
 13775 105d A8000000 		.4byte	.LVL108
 13776 1061 0100     		.2byte	0x1
 13777 1063 5A       		.byte	0x5a
 13778 1064 A8000000 		.4byte	.LVL108
 13779 1068 B2000000 		.4byte	.LVL109
 13780 106c 0400     		.2byte	0x4
 13781 106e F3       		.byte	0xf3
 13782 106f 01       		.uleb128 0x1
 13783 1070 51       		.byte	0x51
 13784 1071 9F       		.byte	0x9f
 13785 1072 B2000000 		.4byte	.LVL109
 13786 1076 0C010000 		.4byte	.LFE52
ARM GAS  C:\Users\EBANO_~1\AppData\Local\Temp\ccEfOEMG.s 			page 271


 13787 107a 0100     		.2byte	0x1
 13788 107c 5A       		.byte	0x5a
 13789 107d 00000000 		.4byte	0
 13790 1081 00000000 		.4byte	0
 13791              	.LLST33:
 13792 1085 5E000000 		.4byte	.LVL98
 13793 1089 88000000 		.4byte	.LVL100
 13794 108d 0200     		.2byte	0x2
 13795 108f 31       		.byte	0x31
 13796 1090 9F       		.byte	0x9f
 13797 1091 88000000 		.4byte	.LVL100
 13798 1095 9D000000 		.4byte	.LVL103-1
 13799 1099 0100     		.2byte	0x1
 13800 109b 50       		.byte	0x50
 13801 109c B2000000 		.4byte	.LVL109
 13802 10a0 B8000000 		.4byte	.LVL111
 13803 10a4 0100     		.2byte	0x1
 13804 10a6 50       		.byte	0x50
 13805 10a7 B8000000 		.4byte	.LVL111
 13806 10ab F0000000 		.4byte	.LVL113
 13807 10af 0200     		.2byte	0x2
 13808 10b1 30       		.byte	0x30
 13809 10b2 9F       		.byte	0x9f
 13810 10b3 00000000 		.4byte	0
 13811 10b7 00000000 		.4byte	0
 13812              	.LLST34:
 13813 10bb 18000000 		.4byte	.LVL92
 13814 10bf A8000000 		.4byte	.LVL106
 13815 10c3 0100     		.2byte	0x1
 13816 10c5 56       		.byte	0x56
 13817 10c6 B2000000 		.4byte	.LVL109
 13818 10ca 0C010000 		.4byte	.LFE52
 13819 10ce 0100     		.2byte	0x1
 13820 10d0 56       		.byte	0x56
 13821 10d1 00000000 		.4byte	0
 13822 10d5 00000000 		.4byte	0
 13823              	.LLST35:
 13824 10d9 18000000 		.4byte	.LVL92
 13825 10dd 94000000 		.4byte	.LVL101
 13826 10e1 0200     		.2byte	0x2
 13827 10e3 30       		.byte	0x30
 13828 10e4 9F       		.byte	0x9f
 13829 10e5 94000000 		.4byte	.LVL101
 13830 10e9 98000000 		.4byte	.LVL102
 13831 10ed 0100     		.2byte	0x1
 13832 10ef 51       		.byte	0x51
 13833 10f0 B2000000 		.4byte	.LVL109
 13834 10f4 B6000000 		.4byte	.LVL110
 13835 10f8 0200     		.2byte	0x2
 13836 10fa 30       		.byte	0x30
 13837 10fb 9F       		.byte	0x9f
 13838 10fc B6000000 		.4byte	.LVL110
 13839 1100 B8000000 		.4byte	.LVL111
 13840 1104 0100     		.2byte	0x1
 13841 1106 51       		.byte	0x51
 13842 1107 B8000000 		.4byte	.LVL111
 13843 110b 0C010000 		.4byte	.LFE52
ARM GAS  C:\Users\EBANO_~1\AppData\Local\Temp\ccEfOEMG.s 			page 272


 13844 110f 0200     		.2byte	0x2
 13845 1111 30       		.byte	0x30
 13846 1112 9F       		.byte	0x9f
 13847 1113 00000000 		.4byte	0
 13848 1117 00000000 		.4byte	0
 13849              	.LLST36:
 13850 111b 18000000 		.4byte	.LVL92
 13851 111f 4E000000 		.4byte	.LVL96
 13852 1123 0200     		.2byte	0x2
 13853 1125 30       		.byte	0x30
 13854 1126 9F       		.byte	0x9f
 13855 1127 4E000000 		.4byte	.LVL96
 13856 112b A4000000 		.4byte	.LVL104
 13857 112f 0100     		.2byte	0x1
 13858 1131 59       		.byte	0x59
 13859 1132 B2000000 		.4byte	.LVL109
 13860 1136 F0000000 		.4byte	.LVL113
 13861 113a 0100     		.2byte	0x1
 13862 113c 59       		.byte	0x59
 13863 113d F0000000 		.4byte	.LVL113
 13864 1141 0C010000 		.4byte	.LFE52
 13865 1145 0200     		.2byte	0x2
 13866 1147 30       		.byte	0x30
 13867 1148 9F       		.byte	0x9f
 13868 1149 00000000 		.4byte	0
 13869 114d 00000000 		.4byte	0
 13870              	.LLST37:
 13871 1151 18000000 		.4byte	.LVL92
 13872 1155 38000000 		.4byte	.LVL94
 13873 1159 0100     		.2byte	0x1
 13874 115b 58       		.byte	0x58
 13875 115c 38000000 		.4byte	.LVL94
 13876 1160 42000000 		.4byte	.LVL95
 13877 1164 0100     		.2byte	0x1
 13878 1166 51       		.byte	0x51
 13879 1167 42000000 		.4byte	.LVL95
 13880 116b A8000000 		.4byte	.LVL107
 13881 116f 0100     		.2byte	0x1
 13882 1171 58       		.byte	0x58
 13883 1172 B2000000 		.4byte	.LVL109
 13884 1176 F0000000 		.4byte	.LVL113
 13885 117a 0100     		.2byte	0x1
 13886 117c 58       		.byte	0x58
 13887 117d F0000000 		.4byte	.LVL113
 13888 1181 0C010000 		.4byte	.LFE52
 13889 1185 0100     		.2byte	0x1
 13890 1187 51       		.byte	0x51
 13891 1188 00000000 		.4byte	0
 13892 118c 00000000 		.4byte	0
 13893              	.LLST24:
 13894 1190 00000000 		.4byte	.LFB51
 13895 1194 02000000 		.4byte	.LCFI10
 13896 1198 0200     		.2byte	0x2
 13897 119a 7D       		.byte	0x7d
 13898 119b 00       		.sleb128 0
 13899 119c 02000000 		.4byte	.LCFI10
 13900 11a0 06000000 		.4byte	.LCFI11
ARM GAS  C:\Users\EBANO_~1\AppData\Local\Temp\ccEfOEMG.s 			page 273


 13901 11a4 0200     		.2byte	0x2
 13902 11a6 7D       		.byte	0x7d
 13903 11a7 14       		.sleb128 20
 13904 11a8 06000000 		.4byte	.LCFI11
 13905 11ac 0A000000 		.4byte	.LCFI12
 13906 11b0 0200     		.2byte	0x2
 13907 11b2 7D       		.byte	0x7d
 13908 11b3 18       		.sleb128 24
 13909 11b4 0A000000 		.4byte	.LCFI12
 13910 11b8 94000000 		.4byte	.LFE51
 13911 11bc 0200     		.2byte	0x2
 13912 11be 7D       		.byte	0x7d
 13913 11bf 30       		.sleb128 48
 13914 11c0 00000000 		.4byte	0
 13915 11c4 00000000 		.4byte	0
 13916              	.LLST25:
 13917 11c8 00000000 		.4byte	.LVL71
 13918 11cc 40000000 		.4byte	.LVL76
 13919 11d0 0100     		.2byte	0x1
 13920 11d2 50       		.byte	0x50
 13921 11d3 40000000 		.4byte	.LVL76
 13922 11d7 70000000 		.4byte	.LVL87
 13923 11db 0400     		.2byte	0x4
 13924 11dd F3       		.byte	0xf3
 13925 11de 01       		.uleb128 0x1
 13926 11df 50       		.byte	0x50
 13927 11e0 9F       		.byte	0x9f
 13928 11e1 70000000 		.4byte	.LVL87
 13929 11e5 7A000000 		.4byte	.LVL88
 13930 11e9 0100     		.2byte	0x1
 13931 11eb 50       		.byte	0x50
 13932 11ec 7A000000 		.4byte	.LVL88
 13933 11f0 94000000 		.4byte	.LFE51
 13934 11f4 0400     		.2byte	0x4
 13935 11f6 F3       		.byte	0xf3
 13936 11f7 01       		.uleb128 0x1
 13937 11f8 50       		.byte	0x50
 13938 11f9 9F       		.byte	0x9f
 13939 11fa 00000000 		.4byte	0
 13940 11fe 00000000 		.4byte	0
 13941              	.LLST26:
 13942 1202 00000000 		.4byte	.LVL71
 13943 1206 1C000000 		.4byte	.LVL74
 13944 120a 0100     		.2byte	0x1
 13945 120c 51       		.byte	0x51
 13946 120d 1C000000 		.4byte	.LVL74
 13947 1211 94000000 		.4byte	.LFE51
 13948 1215 0400     		.2byte	0x4
 13949 1217 F3       		.byte	0xf3
 13950 1218 01       		.uleb128 0x1
 13951 1219 51       		.byte	0x51
 13952 121a 9F       		.byte	0x9f
 13953 121b 00000000 		.4byte	0
 13954 121f 00000000 		.4byte	0
 13955              	.LLST27:
 13956 1223 00000000 		.4byte	.LVL71
 13957 1227 1A000000 		.4byte	.LVL73
ARM GAS  C:\Users\EBANO_~1\AppData\Local\Temp\ccEfOEMG.s 			page 274


 13958 122b 0100     		.2byte	0x1
 13959 122d 52       		.byte	0x52
 13960 122e 1A000000 		.4byte	.LVL73
 13961 1232 6A000000 		.4byte	.LVL86
 13962 1236 0100     		.2byte	0x1
 13963 1238 58       		.byte	0x58
 13964 1239 6A000000 		.4byte	.LVL86
 13965 123d 70000000 		.4byte	.LVL87
 13966 1241 0400     		.2byte	0x4
 13967 1243 F3       		.byte	0xf3
 13968 1244 01       		.uleb128 0x1
 13969 1245 52       		.byte	0x52
 13970 1246 9F       		.byte	0x9f
 13971 1247 70000000 		.4byte	.LVL87
 13972 124b 94000000 		.4byte	.LFE51
 13973 124f 0100     		.2byte	0x1
 13974 1251 58       		.byte	0x58
 13975 1252 00000000 		.4byte	0
 13976 1256 00000000 		.4byte	0
 13977              	.LLST28:
 13978 125a 00000000 		.4byte	.LVL71
 13979 125e 10000000 		.4byte	.LVL72
 13980 1262 0100     		.2byte	0x1
 13981 1264 53       		.byte	0x53
 13982 1265 10000000 		.4byte	.LVL72
 13983 1269 54000000 		.4byte	.LVL80
 13984 126d 0100     		.2byte	0x1
 13985 126f 54       		.byte	0x54
 13986 1270 54000000 		.4byte	.LVL80
 13987 1274 56000000 		.4byte	.LVL81
 13988 1278 0100     		.2byte	0x1
 13989 127a 53       		.byte	0x53
 13990 127b 56000000 		.4byte	.LVL81
 13991 127f 5E000000 		.4byte	.LVL82
 13992 1283 0300     		.2byte	0x3
 13993 1285 73       		.byte	0x73
 13994 1286 74       		.sleb128 -12
 13995 1287 9F       		.byte	0x9f
 13996 1288 5E000000 		.4byte	.LVL82
 13997 128c 67000000 		.4byte	.LVL83-1
 13998 1290 0600     		.2byte	0x6
 13999 1292 91       		.byte	0x91
 14000 1293 58       		.sleb128 -40
 14001 1294 06       		.byte	0x6
 14002 1295 3C       		.byte	0x3c
 14003 1296 1C       		.byte	0x1c
 14004 1297 9F       		.byte	0x9f
 14005 1298 67000000 		.4byte	.LVL83-1
 14006 129c 6A000000 		.4byte	.LVL84
 14007 12a0 0300     		.2byte	0x3
 14008 12a2 74       		.byte	0x74
 14009 12a3 78       		.sleb128 -8
 14010 12a4 9F       		.byte	0x9f
 14011 12a5 6A000000 		.4byte	.LVL84
 14012 12a9 70000000 		.4byte	.LVL87
 14013 12ad 0400     		.2byte	0x4
 14014 12af F3       		.byte	0xf3
ARM GAS  C:\Users\EBANO_~1\AppData\Local\Temp\ccEfOEMG.s 			page 275


 14015 12b0 01       		.uleb128 0x1
 14016 12b1 53       		.byte	0x53
 14017 12b2 9F       		.byte	0x9f
 14018 12b3 70000000 		.4byte	.LVL87
 14019 12b7 94000000 		.4byte	.LFE51
 14020 12bb 0100     		.2byte	0x1
 14021 12bd 54       		.byte	0x54
 14022 12be 00000000 		.4byte	0
 14023 12c2 00000000 		.4byte	0
 14024              	.LLST29:
 14025 12c6 00000000 		.4byte	.LVL71
 14026 12ca 48000000 		.4byte	.LVL78
 14027 12ce 0A00     		.2byte	0xa
 14028 12d0 9E       		.byte	0x9e
 14029 12d1 08       		.uleb128 0x8
 14030 12d2 00000000 		.4byte	0
 14031 12d6 00000000 		.4byte	0
 14032 12da 48000000 		.4byte	.LVL78
 14033 12de 6A000000 		.4byte	.LVL85
 14034 12e2 0600     		.2byte	0x6
 14035 12e4 56       		.byte	0x56
 14036 12e5 93       		.byte	0x93
 14037 12e6 04       		.uleb128 0x4
 14038 12e7 57       		.byte	0x57
 14039 12e8 93       		.byte	0x93
 14040 12e9 04       		.uleb128 0x4
 14041 12ea 70000000 		.4byte	.LVL87
 14042 12ee 82000000 		.4byte	.LVL90
 14043 12f2 0A00     		.2byte	0xa
 14044 12f4 9E       		.byte	0x9e
 14045 12f5 08       		.uleb128 0x8
 14046 12f6 00000000 		.4byte	0
 14047 12fa 00000000 		.4byte	0
 14048 12fe 82000000 		.4byte	.LVL90
 14049 1302 94000000 		.4byte	.LFE51
 14050 1306 0600     		.2byte	0x6
 14051 1308 56       		.byte	0x56
 14052 1309 93       		.byte	0x93
 14053 130a 04       		.uleb128 0x4
 14054 130b 57       		.byte	0x57
 14055 130c 93       		.byte	0x93
 14056 130d 04       		.uleb128 0x4
 14057 130e 00000000 		.4byte	0
 14058 1312 00000000 		.4byte	0
 14059              	.LLST22:
 14060 1316 00000000 		.4byte	.LFB50
 14061 131a 02000000 		.4byte	.LCFI9
 14062 131e 0200     		.2byte	0x2
 14063 1320 7D       		.byte	0x7d
 14064 1321 00       		.sleb128 0
 14065 1322 02000000 		.4byte	.LCFI9
 14066 1326 34000000 		.4byte	.LFE50
 14067 132a 0200     		.2byte	0x2
 14068 132c 7D       		.byte	0x7d
 14069 132d 08       		.sleb128 8
 14070 132e 00000000 		.4byte	0
 14071 1332 00000000 		.4byte	0
ARM GAS  C:\Users\EBANO_~1\AppData\Local\Temp\ccEfOEMG.s 			page 276


 14072              	.LLST23:
 14073 1336 00000000 		.4byte	.LVL63
 14074 133a 0E000000 		.4byte	.LVL64
 14075 133e 0100     		.2byte	0x1
 14076 1340 50       		.byte	0x50
 14077 1341 0E000000 		.4byte	.LVL64
 14078 1345 10000000 		.4byte	.LVL65
 14079 1349 0400     		.2byte	0x4
 14080 134b F3       		.byte	0xf3
 14081 134c 01       		.uleb128 0x1
 14082 134d 50       		.byte	0x50
 14083 134e 9F       		.byte	0x9f
 14084 134f 10000000 		.4byte	.LVL65
 14085 1353 16000000 		.4byte	.LVL66
 14086 1357 0100     		.2byte	0x1
 14087 1359 50       		.byte	0x50
 14088 135a 16000000 		.4byte	.LVL66
 14089 135e 1E000000 		.4byte	.LVL68
 14090 1362 0400     		.2byte	0x4
 14091 1364 F3       		.byte	0xf3
 14092 1365 01       		.uleb128 0x1
 14093 1366 50       		.byte	0x50
 14094 1367 9F       		.byte	0x9f
 14095 1368 1E000000 		.4byte	.LVL68
 14096 136c 24000000 		.4byte	.LVL69
 14097 1370 0100     		.2byte	0x1
 14098 1372 50       		.byte	0x50
 14099 1373 24000000 		.4byte	.LVL69
 14100 1377 34000000 		.4byte	.LFE50
 14101 137b 0400     		.2byte	0x4
 14102 137d F3       		.byte	0xf3
 14103 137e 01       		.uleb128 0x1
 14104 137f 50       		.byte	0x50
 14105 1380 9F       		.byte	0x9f
 14106 1381 00000000 		.4byte	0
 14107 1385 00000000 		.4byte	0
 14108              	.LLST13:
 14109 1389 00000000 		.4byte	.LFB49
 14110 138d 02000000 		.4byte	.LCFI6
 14111 1391 0200     		.2byte	0x2
 14112 1393 7D       		.byte	0x7d
 14113 1394 00       		.sleb128 0
 14114 1395 02000000 		.4byte	.LCFI6
 14115 1399 0E000000 		.4byte	.LCFI7
 14116 139d 0200     		.2byte	0x2
 14117 139f 7D       		.byte	0x7d
 14118 13a0 14       		.sleb128 20
 14119 13a1 0E000000 		.4byte	.LCFI7
 14120 13a5 10000000 		.4byte	.LCFI8
 14121 13a9 0200     		.2byte	0x2
 14122 13ab 7D       		.byte	0x7d
 14123 13ac 24       		.sleb128 36
 14124 13ad 10000000 		.4byte	.LCFI8
 14125 13b1 44010000 		.4byte	.LFE49
 14126 13b5 0300     		.2byte	0x3
 14127 13b7 7D       		.byte	0x7d
 14128 13b8 C000     		.sleb128 64
ARM GAS  C:\Users\EBANO_~1\AppData\Local\Temp\ccEfOEMG.s 			page 277


 14129 13ba 00000000 		.4byte	0
 14130 13be 00000000 		.4byte	0
 14131              	.LLST14:
 14132 13c2 00000000 		.4byte	.LVL40
 14133 13c6 1C000000 		.4byte	.LVL41
 14134 13ca 0100     		.2byte	0x1
 14135 13cc 50       		.byte	0x50
 14136 13cd 1C000000 		.4byte	.LVL41
 14137 13d1 1E000000 		.4byte	.LVL42
 14138 13d5 0100     		.2byte	0x1
 14139 13d7 57       		.byte	0x57
 14140 13d8 1E000000 		.4byte	.LVL42
 14141 13dc 2A000000 		.4byte	.LVL43
 14142 13e0 0400     		.2byte	0x4
 14143 13e2 F3       		.byte	0xf3
 14144 13e3 01       		.uleb128 0x1
 14145 13e4 50       		.byte	0x50
 14146 13e5 9F       		.byte	0x9f
 14147 13e6 2A000000 		.4byte	.LVL43
 14148 13ea 40000000 		.4byte	.LVL44
 14149 13ee 0100     		.2byte	0x1
 14150 13f0 50       		.byte	0x50
 14151 13f1 40000000 		.4byte	.LVL44
 14152 13f5 44010000 		.4byte	.LFE49
 14153 13f9 0100     		.2byte	0x1
 14154 13fb 57       		.byte	0x57
 14155 13fc 00000000 		.4byte	0
 14156 1400 00000000 		.4byte	0
 14157              	.LLST15:
 14158 1404 40000000 		.4byte	.LVL44
 14159 1408 62000000 		.4byte	.LVL48
 14160 140c 0300     		.2byte	0x3
 14161 140e 76       		.byte	0x76
 14162 140f 7F       		.sleb128 -1
 14163 1410 9F       		.byte	0x9f
 14164 1411 62000000 		.4byte	.LVL48
 14165 1415 64000000 		.4byte	.LVL49
 14166 1419 0300     		.2byte	0x3
 14167 141b 76       		.byte	0x76
 14168 141c 02       		.sleb128 2
 14169 141d 9F       		.byte	0x9f
 14170 141e 6E000000 		.4byte	.LVL51
 14171 1422 44010000 		.4byte	.LFE49
 14172 1426 0300     		.2byte	0x3
 14173 1428 76       		.byte	0x76
 14174 1429 7F       		.sleb128 -1
 14175 142a 9F       		.byte	0x9f
 14176 142b 00000000 		.4byte	0
 14177 142f 00000000 		.4byte	0
 14178              	.LLST16:
 14179 1433 40000000 		.4byte	.LVL44
 14180 1437 42000000 		.4byte	.LVL45
 14181 143b 0100     		.2byte	0x1
 14182 143d 53       		.byte	0x53
 14183 143e 42000000 		.4byte	.LVL45
 14184 1442 62000000 		.4byte	.LVL48
 14185 1446 0100     		.2byte	0x1
ARM GAS  C:\Users\EBANO_~1\AppData\Local\Temp\ccEfOEMG.s 			page 278


 14186 1448 58       		.byte	0x58
 14187 1449 62000000 		.4byte	.LVL48
 14188 144d 66000000 		.4byte	.LVL50
 14189 1451 0300     		.2byte	0x3
 14190 1453 75       		.byte	0x75
 14191 1454 01       		.sleb128 1
 14192 1455 9F       		.byte	0x9f
 14193 1456 6E000000 		.4byte	.LVL51
 14194 145a 74000000 		.4byte	.LVL52
 14195 145e 0100     		.2byte	0x1
 14196 1460 53       		.byte	0x53
 14197 1461 74000000 		.4byte	.LVL52
 14198 1465 A8000000 		.4byte	.LVL55
 14199 1469 0100     		.2byte	0x1
 14200 146b 58       		.byte	0x58
 14201 146c A8000000 		.4byte	.LVL55
 14202 1470 44010000 		.4byte	.LFE49
 14203 1474 0100     		.2byte	0x1
 14204 1476 55       		.byte	0x55
 14205 1477 00000000 		.4byte	0
 14206 147b 00000000 		.4byte	0
 14207              	.LLST17:
 14208 147f 48000000 		.4byte	.LVL46
 14209 1483 62000000 		.4byte	.LVL48
 14210 1487 0600     		.2byte	0x6
 14211 1489 F2       		.byte	0xf2
 14212 148a 882C0000 		.4byte	.Ldebug_info0+11400
 14213 148e 00       		.sleb128 0
 14214 148f 00000000 		.4byte	0
 14215 1493 00000000 		.4byte	0
 14216              	.LLST18:
 14217 1497 48000000 		.4byte	.LVL46
 14218 149b 62000000 		.4byte	.LVL48
 14219 149f 0100     		.2byte	0x1
 14220 14a1 58       		.byte	0x58
 14221 14a2 00000000 		.4byte	0
 14222 14a6 00000000 		.4byte	0
 14223              	.LLST19:
 14224 14aa 98000000 		.4byte	.LVL53
 14225 14ae A8000000 		.4byte	.LVL55
 14226 14b2 0200     		.2byte	0x2
 14227 14b4 30       		.byte	0x30
 14228 14b5 9F       		.byte	0x9f
 14229 14b6 A8000000 		.4byte	.LVL55
 14230 14ba C8000000 		.4byte	.LVL57
 14231 14be 0700     		.2byte	0x7
 14232 14c0 78       		.byte	0x78
 14233 14c1 00       		.sleb128 0
 14234 14c2 48       		.byte	0x48
 14235 14c3 24       		.byte	0x24
 14236 14c4 30       		.byte	0x30
 14237 14c5 29       		.byte	0x29
 14238 14c6 9F       		.byte	0x9f
 14239 14c7 C8000000 		.4byte	.LVL57
 14240 14cb 2A010000 		.4byte	.LVL61
 14241 14cf 0100     		.2byte	0x1
 14242 14d1 5A       		.byte	0x5a
ARM GAS  C:\Users\EBANO_~1\AppData\Local\Temp\ccEfOEMG.s 			page 279


 14243 14d2 2A010000 		.4byte	.LVL61
 14244 14d6 44010000 		.4byte	.LFE49
 14245 14da 0200     		.2byte	0x2
 14246 14dc 31       		.byte	0x31
 14247 14dd 9F       		.byte	0x9f
 14248 14de 00000000 		.4byte	0
 14249 14e2 00000000 		.4byte	0
 14250              	.LLST20:
 14251 14e6 98000000 		.4byte	.LVL53
 14252 14ea A8000000 		.4byte	.LVL55
 14253 14ee 0100     		.2byte	0x1
 14254 14f0 58       		.byte	0x58
 14255 14f1 A8000000 		.4byte	.LVL55
 14256 14f5 44010000 		.4byte	.LFE49
 14257 14f9 0100     		.2byte	0x1
 14258 14fb 55       		.byte	0x55
 14259 14fc 00000000 		.4byte	0
 14260 1500 00000000 		.4byte	0
 14261              	.LLST21:
 14262 1504 E2000000 		.4byte	.LVL58
 14263 1508 E5000000 		.4byte	.LVL59-1
 14264 150c 0200     		.2byte	0x2
 14265 150e 74       		.byte	0x74
 14266 150f 00       		.sleb128 0
 14267 1510 2A010000 		.4byte	.LVL61
 14268 1514 2D010000 		.4byte	.LVL62-1
 14269 1518 0200     		.2byte	0x2
 14270 151a 74       		.byte	0x74
 14271 151b 00       		.sleb128 0
 14272 151c 00000000 		.4byte	0
 14273 1520 00000000 		.4byte	0
 14274              	.LLST10:
 14275 1524 00000000 		.4byte	.LFB48
 14276 1528 06000000 		.4byte	.LCFI5
 14277 152c 0200     		.2byte	0x2
 14278 152e 7D       		.byte	0x7d
 14279 152f 00       		.sleb128 0
 14280 1530 06000000 		.4byte	.LCFI5
 14281 1534 64000000 		.4byte	.LFE48
 14282 1538 0200     		.2byte	0x2
 14283 153a 7D       		.byte	0x7d
 14284 153b 08       		.sleb128 8
 14285 153c 00000000 		.4byte	0
 14286 1540 00000000 		.4byte	0
 14287              	.LLST11:
 14288 1544 00000000 		.4byte	.LVL26
 14289 1548 18000000 		.4byte	.LVL28
 14290 154c 0100     		.2byte	0x1
 14291 154e 50       		.byte	0x50
 14292 154f 18000000 		.4byte	.LVL28
 14293 1553 1E000000 		.4byte	.LVL29
 14294 1557 0400     		.2byte	0x4
 14295 1559 F3       		.byte	0xf3
 14296 155a 01       		.uleb128 0x1
 14297 155b 50       		.byte	0x50
 14298 155c 9F       		.byte	0x9f
 14299 155d 1E000000 		.4byte	.LVL29
ARM GAS  C:\Users\EBANO_~1\AppData\Local\Temp\ccEfOEMG.s 			page 280


 14300 1561 20000000 		.4byte	.LVL30
 14301 1565 0100     		.2byte	0x1
 14302 1567 50       		.byte	0x50
 14303 1568 20000000 		.4byte	.LVL30
 14304 156c 22000000 		.4byte	.LVL31
 14305 1570 0400     		.2byte	0x4
 14306 1572 F3       		.byte	0xf3
 14307 1573 01       		.uleb128 0x1
 14308 1574 50       		.byte	0x50
 14309 1575 9F       		.byte	0x9f
 14310 1576 22000000 		.4byte	.LVL31
 14311 157a 24000000 		.4byte	.LVL32
 14312 157e 0100     		.2byte	0x1
 14313 1580 50       		.byte	0x50
 14314 1581 24000000 		.4byte	.LVL32
 14315 1585 36000000 		.4byte	.LVL34
 14316 1589 0400     		.2byte	0x4
 14317 158b F3       		.byte	0xf3
 14318 158c 01       		.uleb128 0x1
 14319 158d 50       		.byte	0x50
 14320 158e 9F       		.byte	0x9f
 14321 158f 36000000 		.4byte	.LVL34
 14322 1593 38000000 		.4byte	.LVL35
 14323 1597 0100     		.2byte	0x1
 14324 1599 50       		.byte	0x50
 14325 159a 38000000 		.4byte	.LVL35
 14326 159e 5C000000 		.4byte	.LVL38
 14327 15a2 0400     		.2byte	0x4
 14328 15a4 F3       		.byte	0xf3
 14329 15a5 01       		.uleb128 0x1
 14330 15a6 50       		.byte	0x50
 14331 15a7 9F       		.byte	0x9f
 14332 15a8 5C000000 		.4byte	.LVL38
 14333 15ac 5E000000 		.4byte	.LVL39
 14334 15b0 0100     		.2byte	0x1
 14335 15b2 50       		.byte	0x50
 14336 15b3 5E000000 		.4byte	.LVL39
 14337 15b7 64000000 		.4byte	.LFE48
 14338 15bb 0400     		.2byte	0x4
 14339 15bd F3       		.byte	0xf3
 14340 15be 01       		.uleb128 0x1
 14341 15bf 50       		.byte	0x50
 14342 15c0 9F       		.byte	0x9f
 14343 15c1 00000000 		.4byte	0
 14344 15c5 00000000 		.4byte	0
 14345              	.LLST12:
 14346 15c9 00000000 		.4byte	.LVL26
 14347 15cd 02000000 		.4byte	.LVL27
 14348 15d1 0100     		.2byte	0x1
 14349 15d3 51       		.byte	0x51
 14350 15d4 02000000 		.4byte	.LVL27
 14351 15d8 64000000 		.4byte	.LFE48
 14352 15dc 0400     		.2byte	0x4
 14353 15de F3       		.byte	0xf3
 14354 15df 01       		.uleb128 0x1
 14355 15e0 51       		.byte	0x51
 14356 15e1 9F       		.byte	0x9f
ARM GAS  C:\Users\EBANO_~1\AppData\Local\Temp\ccEfOEMG.s 			page 281


 14357 15e2 00000000 		.4byte	0
 14358 15e6 00000000 		.4byte	0
 14359              	.LLST9:
 14360 15ea 00000000 		.4byte	.LVL24
 14361 15ee 06000000 		.4byte	.LVL25
 14362 15f2 0100     		.2byte	0x1
 14363 15f4 50       		.byte	0x50
 14364 15f5 06000000 		.4byte	.LVL25
 14365 15f9 0C000000 		.4byte	.LFE47
 14366 15fd 0400     		.2byte	0x4
 14367 15ff F3       		.byte	0xf3
 14368 1600 01       		.uleb128 0x1
 14369 1601 50       		.byte	0x50
 14370 1602 9F       		.byte	0x9f
 14371 1603 00000000 		.4byte	0
 14372 1607 00000000 		.4byte	0
 14373              	.LLST7:
 14374 160b 00000000 		.4byte	.LFB46
 14375 160f 02000000 		.4byte	.LCFI3
 14376 1613 0200     		.2byte	0x2
 14377 1615 7D       		.byte	0x7d
 14378 1616 00       		.sleb128 0
 14379 1617 02000000 		.4byte	.LCFI3
 14380 161b 04000000 		.4byte	.LCFI4
 14381 161f 0200     		.2byte	0x2
 14382 1621 7D       		.byte	0x7d
 14383 1622 14       		.sleb128 20
 14384 1623 04000000 		.4byte	.LCFI4
 14385 1627 94000000 		.4byte	.LFE46
 14386 162b 0200     		.2byte	0x2
 14387 162d 7D       		.byte	0x7d
 14388 162e 28       		.sleb128 40
 14389 162f 00000000 		.4byte	0
 14390 1633 00000000 		.4byte	0
 14391              	.LLST8:
 14392 1637 00000000 		.4byte	.LVL15
 14393 163b 2C000000 		.4byte	.LVL16
 14394 163f 0100     		.2byte	0x1
 14395 1641 50       		.byte	0x50
 14396 1642 2C000000 		.4byte	.LVL16
 14397 1646 34000000 		.4byte	.LVL18
 14398 164a 0400     		.2byte	0x4
 14399 164c F3       		.byte	0xf3
 14400 164d 01       		.uleb128 0x1
 14401 164e 50       		.byte	0x50
 14402 164f 9F       		.byte	0x9f
 14403 1650 34000000 		.4byte	.LVL18
 14404 1654 3A000000 		.4byte	.LVL19
 14405 1658 0100     		.2byte	0x1
 14406 165a 50       		.byte	0x50
 14407 165b 3A000000 		.4byte	.LVL19
 14408 165f 78000000 		.4byte	.LVL22
 14409 1663 0400     		.2byte	0x4
 14410 1665 F3       		.byte	0xf3
 14411 1666 01       		.uleb128 0x1
 14412 1667 50       		.byte	0x50
 14413 1668 9F       		.byte	0x9f
ARM GAS  C:\Users\EBANO_~1\AppData\Local\Temp\ccEfOEMG.s 			page 282


 14414 1669 78000000 		.4byte	.LVL22
 14415 166d 7C000000 		.4byte	.LVL23
 14416 1671 0100     		.2byte	0x1
 14417 1673 50       		.byte	0x50
 14418 1674 7C000000 		.4byte	.LVL23
 14419 1678 94000000 		.4byte	.LFE46
 14420 167c 0400     		.2byte	0x4
 14421 167e F3       		.byte	0xf3
 14422 167f 01       		.uleb128 0x1
 14423 1680 50       		.byte	0x50
 14424 1681 9F       		.byte	0x9f
 14425 1682 00000000 		.4byte	0
 14426 1686 00000000 		.4byte	0
 14427              	.LLST5:
 14428 168a 00000000 		.4byte	.LFB45
 14429 168e 04000000 		.4byte	.LCFI2
 14430 1692 0200     		.2byte	0x2
 14431 1694 7D       		.byte	0x7d
 14432 1695 00       		.sleb128 0
 14433 1696 04000000 		.4byte	.LCFI2
 14434 169a 24000000 		.4byte	.LFE45
 14435 169e 0200     		.2byte	0x2
 14436 16a0 7D       		.byte	0x7d
 14437 16a1 08       		.sleb128 8
 14438 16a2 00000000 		.4byte	0
 14439 16a6 00000000 		.4byte	0
 14440              	.LLST6:
 14441 16aa 00000000 		.4byte	.LVL12
 14442 16ae 1A000000 		.4byte	.LVL13
 14443 16b2 0100     		.2byte	0x1
 14444 16b4 50       		.byte	0x50
 14445 16b5 1A000000 		.4byte	.LVL13
 14446 16b9 24000000 		.4byte	.LFE45
 14447 16bd 0400     		.2byte	0x4
 14448 16bf F3       		.byte	0xf3
 14449 16c0 01       		.uleb128 0x1
 14450 16c1 50       		.byte	0x50
 14451 16c2 9F       		.byte	0x9f
 14452 16c3 00000000 		.4byte	0
 14453 16c7 00000000 		.4byte	0
 14454              	.LLST0:
 14455 16cb 00000000 		.4byte	.LFB44
 14456 16cf 04000000 		.4byte	.LCFI0
 14457 16d3 0200     		.2byte	0x2
 14458 16d5 7D       		.byte	0x7d
 14459 16d6 00       		.sleb128 0
 14460 16d7 04000000 		.4byte	.LCFI0
 14461 16db 06000000 		.4byte	.LCFI1
 14462 16df 0200     		.2byte	0x2
 14463 16e1 7D       		.byte	0x7d
 14464 16e2 04       		.sleb128 4
 14465 16e3 06000000 		.4byte	.LCFI1
 14466 16e7 1C010000 		.4byte	.LFE44
 14467 16eb 0200     		.2byte	0x2
 14468 16ed 7D       		.byte	0x7d
 14469 16ee 10       		.sleb128 16
 14470 16ef 00000000 		.4byte	0
ARM GAS  C:\Users\EBANO_~1\AppData\Local\Temp\ccEfOEMG.s 			page 283


 14471 16f3 00000000 		.4byte	0
 14472              	.LLST1:
 14473 16f7 00000000 		.4byte	.LVL0
 14474 16fb 1E000000 		.4byte	.LVL1
 14475 16ff 0100     		.2byte	0x1
 14476 1701 50       		.byte	0x50
 14477 1702 1E000000 		.4byte	.LVL1
 14478 1706 24000000 		.4byte	.LVL2
 14479 170a 0400     		.2byte	0x4
 14480 170c F3       		.byte	0xf3
 14481 170d 01       		.uleb128 0x1
 14482 170e 50       		.byte	0x50
 14483 170f 9F       		.byte	0x9f
 14484 1710 24000000 		.4byte	.LVL2
 14485 1714 84000000 		.4byte	.LVL3
 14486 1718 0100     		.2byte	0x1
 14487 171a 50       		.byte	0x50
 14488 171b 84000000 		.4byte	.LVL3
 14489 171f 96000000 		.4byte	.LVL5
 14490 1723 0400     		.2byte	0x4
 14491 1725 F3       		.byte	0xf3
 14492 1726 01       		.uleb128 0x1
 14493 1727 50       		.byte	0x50
 14494 1728 9F       		.byte	0x9f
 14495 1729 96000000 		.4byte	.LVL5
 14496 172d 1C010000 		.4byte	.LFE44
 14497 1731 0100     		.2byte	0x1
 14498 1733 50       		.byte	0x50
 14499 1734 00000000 		.4byte	0
 14500 1738 00000000 		.4byte	0
 14501              	.LLST2:
 14502 173c AE000000 		.4byte	.LVL6
 14503 1740 BC000000 		.4byte	.LVL9
 14504 1744 0200     		.2byte	0x2
 14505 1746 30       		.byte	0x30
 14506 1747 9F       		.byte	0x9f
 14507 1748 E6000000 		.4byte	.LVL10
 14508 174c E8000000 		.4byte	.LVL11
 14509 1750 0200     		.2byte	0x2
 14510 1752 30       		.byte	0x30
 14511 1753 9F       		.byte	0x9f
 14512 1754 00000000 		.4byte	0
 14513 1758 00000000 		.4byte	0
 14514              	.LLST3:
 14515 175c AE000000 		.4byte	.LVL6
 14516 1760 BA000000 		.4byte	.LVL8
 14517 1764 0100     		.2byte	0x1
 14518 1766 53       		.byte	0x53
 14519 1767 BA000000 		.4byte	.LVL8
 14520 176b BC000000 		.4byte	.LVL9
 14521 176f 0300     		.2byte	0x3
 14522 1771 73       		.byte	0x73
 14523 1772 01       		.sleb128 1
 14524 1773 9F       		.byte	0x9f
 14525 1774 E6000000 		.4byte	.LVL10
 14526 1778 E8000000 		.4byte	.LVL11
 14527 177c 0100     		.2byte	0x1
ARM GAS  C:\Users\EBANO_~1\AppData\Local\Temp\ccEfOEMG.s 			page 284


 14528 177e 53       		.byte	0x53
 14529 177f 00000000 		.4byte	0
 14530 1783 00000000 		.4byte	0
 14531              	.LLST4:
 14532 1787 AE000000 		.4byte	.LVL6
 14533 178b B8000000 		.4byte	.LVL7
 14534 178f 0200     		.2byte	0x2
 14535 1791 30       		.byte	0x30
 14536 1792 9F       		.byte	0x9f
 14537 1793 B8000000 		.4byte	.LVL7
 14538 1797 BA000000 		.4byte	.LVL8
 14539 179b 0300     		.2byte	0x3
 14540 179d 73       		.byte	0x73
 14541 179e 7F       		.sleb128 -1
 14542 179f 9F       		.byte	0x9f
 14543 17a0 BA000000 		.4byte	.LVL8
 14544 17a4 BC000000 		.4byte	.LVL9
 14545 17a8 0300     		.2byte	0x3
 14546 17aa 73       		.byte	0x73
 14547 17ab 00       		.sleb128 0
 14548 17ac 9F       		.byte	0x9f
 14549 17ad E6000000 		.4byte	.LVL10
 14550 17b1 E8000000 		.4byte	.LVL11
 14551 17b5 0200     		.2byte	0x2
 14552 17b7 30       		.byte	0x30
 14553 17b8 9F       		.byte	0x9f
 14554 17b9 00000000 		.4byte	0
 14555 17bd 00000000 		.4byte	0
 14556              	.LLST97:
 14557 17c1 00000000 		.4byte	.LFB62
 14558 17c5 02000000 		.4byte	.LCFI34
 14559 17c9 0200     		.2byte	0x2
 14560 17cb 7D       		.byte	0x7d
 14561 17cc 00       		.sleb128 0
 14562 17cd 02000000 		.4byte	.LCFI34
 14563 17d1 06000000 		.4byte	.LCFI35
 14564 17d5 0200     		.2byte	0x2
 14565 17d7 7D       		.byte	0x7d
 14566 17d8 14       		.sleb128 20
 14567 17d9 06000000 		.4byte	.LCFI35
 14568 17dd D8000000 		.4byte	.LFE62
 14569 17e1 0200     		.2byte	0x2
 14570 17e3 7D       		.byte	0x7d
 14571 17e4 20       		.sleb128 32
 14572 17e5 00000000 		.4byte	0
 14573 17e9 00000000 		.4byte	0
 14574              	.LLST98:
 14575 17ed 00000000 		.4byte	.LVL297
 14576 17f1 0E000000 		.4byte	.LVL299
 14577 17f5 0100     		.2byte	0x1
 14578 17f7 50       		.byte	0x50
 14579 17f8 0E000000 		.4byte	.LVL299
 14580 17fc 62000000 		.4byte	.LVL307
 14581 1800 0100     		.2byte	0x1
 14582 1802 54       		.byte	0x54
 14583 1803 62000000 		.4byte	.LVL307
 14584 1807 66000000 		.4byte	.LVL309
ARM GAS  C:\Users\EBANO_~1\AppData\Local\Temp\ccEfOEMG.s 			page 285


 14585 180b 0400     		.2byte	0x4
 14586 180d F3       		.byte	0xf3
 14587 180e 01       		.uleb128 0x1
 14588 180f 50       		.byte	0x50
 14589 1810 9F       		.byte	0x9f
 14590 1811 66000000 		.4byte	.LVL309
 14591 1815 A6000000 		.4byte	.LVL318
 14592 1819 0100     		.2byte	0x1
 14593 181b 54       		.byte	0x54
 14594 181c A6000000 		.4byte	.LVL318
 14595 1820 D8000000 		.4byte	.LFE62
 14596 1824 0400     		.2byte	0x4
 14597 1826 F3       		.byte	0xf3
 14598 1827 01       		.uleb128 0x1
 14599 1828 50       		.byte	0x50
 14600 1829 9F       		.byte	0x9f
 14601 182a 00000000 		.4byte	0
 14602 182e 00000000 		.4byte	0
 14603              	.LLST99:
 14604 1832 00000000 		.4byte	.LVL297
 14605 1836 24000000 		.4byte	.LVL301
 14606 183a 0200     		.2byte	0x2
 14607 183c 30       		.byte	0x30
 14608 183d 9F       		.byte	0x9f
 14609 183e 24000000 		.4byte	.LVL301
 14610 1842 3A000000 		.4byte	.LVL303
 14611 1846 0700     		.2byte	0x7
 14612 1848 76       		.byte	0x76
 14613 1849 00       		.sleb128 0
 14614 184a 48       		.byte	0x48
 14615 184b 24       		.byte	0x24
 14616 184c 30       		.byte	0x30
 14617 184d 29       		.byte	0x29
 14618 184e 9F       		.byte	0x9f
 14619 184f 3A000000 		.4byte	.LVL303
 14620 1853 62000000 		.4byte	.LVL307
 14621 1857 0100     		.2byte	0x1
 14622 1859 57       		.byte	0x57
 14623 185a 66000000 		.4byte	.LVL309
 14624 185e 7A000000 		.4byte	.LVL311
 14625 1862 0200     		.2byte	0x2
 14626 1864 31       		.byte	0x31
 14627 1865 9F       		.byte	0x9f
 14628 1866 7E000000 		.4byte	.LVL312
 14629 186a 82000000 		.4byte	.LVL313
 14630 186e 0700     		.2byte	0x7
 14631 1870 76       		.byte	0x76
 14632 1871 00       		.sleb128 0
 14633 1872 48       		.byte	0x48
 14634 1873 24       		.byte	0x24
 14635 1874 30       		.byte	0x30
 14636 1875 29       		.byte	0x29
 14637 1876 9F       		.byte	0x9f
 14638 1877 86000000 		.4byte	.LVL314
 14639 187b 9A000000 		.4byte	.LVL316
 14640 187f 0100     		.2byte	0x1
 14641 1881 57       		.byte	0x57
ARM GAS  C:\Users\EBANO_~1\AppData\Local\Temp\ccEfOEMG.s 			page 286


 14642 1882 9E000000 		.4byte	.LVL317
 14643 1886 D8000000 		.4byte	.LFE62
 14644 188a 0100     		.2byte	0x1
 14645 188c 57       		.byte	0x57
 14646 188d 00000000 		.4byte	0
 14647 1891 00000000 		.4byte	0
 14648              	.LLST100:
 14649 1895 00000000 		.4byte	.LVL297
 14650 1899 5C000000 		.4byte	.LVL306
 14651 189d 0200     		.2byte	0x2
 14652 189f 30       		.byte	0x30
 14653 18a0 9F       		.byte	0x9f
 14654 18a1 5C000000 		.4byte	.LVL306
 14655 18a5 62000000 		.4byte	.LVL307
 14656 18a9 0200     		.2byte	0x2
 14657 18ab 31       		.byte	0x31
 14658 18ac 9F       		.byte	0x9f
 14659 18ad 66000000 		.4byte	.LVL309
 14660 18b1 7A000000 		.4byte	.LVL311
 14661 18b5 0200     		.2byte	0x2
 14662 18b7 30       		.byte	0x30
 14663 18b8 9F       		.byte	0x9f
 14664 18b9 7E000000 		.4byte	.LVL312
 14665 18bd 92000000 		.4byte	.LVL315
 14666 18c1 0200     		.2byte	0x2
 14667 18c3 30       		.byte	0x30
 14668 18c4 9F       		.byte	0x9f
 14669 18c5 92000000 		.4byte	.LVL315
 14670 18c9 9A000000 		.4byte	.LVL316
 14671 18cd 0200     		.2byte	0x2
 14672 18cf 31       		.byte	0x31
 14673 18d0 9F       		.byte	0x9f
 14674 18d1 9A000000 		.4byte	.LVL316
 14675 18d5 D8000000 		.4byte	.LFE62
 14676 18d9 0200     		.2byte	0x2
 14677 18db 30       		.byte	0x30
 14678 18dc 9F       		.byte	0x9f
 14679 18dd 00000000 		.4byte	0
 14680 18e1 00000000 		.4byte	0
 14681              	.LLST101:
 14682 18e5 04000000 		.4byte	.LVL298
 14683 18e9 64000000 		.4byte	.LVL308
 14684 18ed 0100     		.2byte	0x1
 14685 18ef 55       		.byte	0x55
 14686 18f0 66000000 		.4byte	.LVL309
 14687 18f4 D8000000 		.4byte	.LFE62
 14688 18f8 0100     		.2byte	0x1
 14689 18fa 55       		.byte	0x55
 14690 18fb 00000000 		.4byte	0
 14691 18ff 00000000 		.4byte	0
 14692              	.LLST102:
 14693 1903 54000000 		.4byte	.LVL304
 14694 1907 57000000 		.4byte	.LVL305-1
 14695 190b 0300     		.2byte	0x3
 14696 190d 74       		.byte	0x74
 14697 190e 00       		.sleb128 0
 14698 190f 06       		.byte	0x6
ARM GAS  C:\Users\EBANO_~1\AppData\Local\Temp\ccEfOEMG.s 			page 287


 14699 1910 66000000 		.4byte	.LVL309
 14700 1914 69000000 		.4byte	.LVL310-1
 14701 1918 0300     		.2byte	0x3
 14702 191a 74       		.byte	0x74
 14703 191b 00       		.sleb128 0
 14704 191c 06       		.byte	0x6
 14705 191d 00000000 		.4byte	0
 14706 1921 00000000 		.4byte	0
 14707              	.LLST103:
 14708 1925 00000000 		.4byte	.LFB63
 14709 1929 02000000 		.4byte	.LCFI36
 14710 192d 0200     		.2byte	0x2
 14711 192f 7D       		.byte	0x7d
 14712 1930 00       		.sleb128 0
 14713 1931 02000000 		.4byte	.LCFI36
 14714 1935 30000000 		.4byte	.LFE63
 14715 1939 0200     		.2byte	0x2
 14716 193b 7D       		.byte	0x7d
 14717 193c 10       		.sleb128 16
 14718 193d 00000000 		.4byte	0
 14719 1941 00000000 		.4byte	0
 14720              	.LLST104:
 14721 1945 00000000 		.4byte	.LVL320
 14722 1949 06000000 		.4byte	.LVL322
 14723 194d 0100     		.2byte	0x1
 14724 194f 50       		.byte	0x50
 14725 1950 06000000 		.4byte	.LVL322
 14726 1954 30000000 		.4byte	.LFE63
 14727 1958 0400     		.2byte	0x4
 14728 195a F3       		.byte	0xf3
 14729 195b 01       		.uleb128 0x1
 14730 195c 50       		.byte	0x50
 14731 195d 9F       		.byte	0x9f
 14732 195e 00000000 		.4byte	0
 14733 1962 00000000 		.4byte	0
 14734              	.LLST105:
 14735 1966 04000000 		.4byte	.LVL321
 14736 196a 28000000 		.4byte	.LVL325
 14737 196e 0100     		.2byte	0x1
 14738 1970 54       		.byte	0x54
 14739 1971 00000000 		.4byte	0
 14740 1975 00000000 		.4byte	0
 14741              		.section	.debug_aranges,"",%progbits
 14742 0000 CC000000 		.4byte	0xcc
 14743 0004 0200     		.2byte	0x2
 14744 0006 00000000 		.4byte	.Ldebug_info0
 14745 000a 04       		.byte	0x4
 14746 000b 00       		.byte	0
 14747 000c 0000     		.2byte	0
 14748 000e 0000     		.2byte	0
 14749 0010 00000000 		.4byte	.LFB44
 14750 0014 1C010000 		.4byte	.LFE44-.LFB44
 14751 0018 00000000 		.4byte	.LFB45
 14752 001c 24000000 		.4byte	.LFE45-.LFB45
 14753 0020 00000000 		.4byte	.LFB46
 14754 0024 94000000 		.4byte	.LFE46-.LFB46
 14755 0028 00000000 		.4byte	.LFB47
ARM GAS  C:\Users\EBANO_~1\AppData\Local\Temp\ccEfOEMG.s 			page 288


 14756 002c 0C000000 		.4byte	.LFE47-.LFB47
 14757 0030 00000000 		.4byte	.LFB48
 14758 0034 64000000 		.4byte	.LFE48-.LFB48
 14759 0038 00000000 		.4byte	.LFB49
 14760 003c 44010000 		.4byte	.LFE49-.LFB49
 14761 0040 00000000 		.4byte	.LFB50
 14762 0044 34000000 		.4byte	.LFE50-.LFB50
 14763 0048 00000000 		.4byte	.LFB51
 14764 004c 94000000 		.4byte	.LFE51-.LFB51
 14765 0050 00000000 		.4byte	.LFB52
 14766 0054 0C010000 		.4byte	.LFE52-.LFB52
 14767 0058 00000000 		.4byte	.LFB53
 14768 005c 3C010000 		.4byte	.LFE53-.LFB53
 14769 0060 00000000 		.4byte	.LFB54
 14770 0064 64030000 		.4byte	.LFE54-.LFB54
 14771 0068 00000000 		.4byte	.LFB55
 14772 006c 64000000 		.4byte	.LFE55-.LFB55
 14773 0070 00000000 		.4byte	.LFB56
 14774 0074 08010000 		.4byte	.LFE56-.LFB56
 14775 0078 00000000 		.4byte	.LFB57
 14776 007c 06000000 		.4byte	.LFE57-.LFB57
 14777 0080 00000000 		.4byte	.LFB58
 14778 0084 70000000 		.4byte	.LFE58-.LFB58
 14779 0088 00000000 		.4byte	.LFB59
 14780 008c 02000000 		.4byte	.LFE59-.LFB59
 14781 0090 00000000 		.4byte	.LFB60
 14782 0094 34000000 		.4byte	.LFE60-.LFB60
 14783 0098 00000000 		.4byte	.LFB61
 14784 009c BC010000 		.4byte	.LFE61-.LFB61
 14785 00a0 00000000 		.4byte	.LFB62
 14786 00a4 D8000000 		.4byte	.LFE62-.LFB62
 14787 00a8 00000000 		.4byte	.LFB63
 14788 00ac 30000000 		.4byte	.LFE63-.LFB63
 14789 00b0 00000000 		.4byte	.LFB64
 14790 00b4 50000000 		.4byte	.LFE64-.LFB64
 14791 00b8 00000000 		.4byte	.LFB65
 14792 00bc 20000000 		.4byte	.LFE65-.LFB65
 14793 00c0 00000000 		.4byte	.LFB66
 14794 00c4 38000000 		.4byte	.LFE66-.LFB66
 14795 00c8 00000000 		.4byte	0
 14796 00cc 00000000 		.4byte	0
 14797              		.section	.debug_ranges,"",%progbits
 14798              	.Ldebug_ranges0:
 14799 0000 AE000000 		.4byte	.LBB22
 14800 0004 BC000000 		.4byte	.LBE22
 14801 0008 E6000000 		.4byte	.LBB25
 14802 000c E8000000 		.4byte	.LBE25
 14803 0010 00000000 		.4byte	0
 14804 0014 00000000 		.4byte	0
 14805 0018 32000000 		.4byte	.LBB33
 14806 001c 34000000 		.4byte	.LBE33
 14807 0020 36000000 		.4byte	.LBB48
 14808 0024 3A000000 		.4byte	.LBE48
 14809 0028 40000000 		.4byte	.LBB49
 14810 002c 44010000 		.4byte	.LBE49
 14811 0030 00000000 		.4byte	0
 14812 0034 00000000 		.4byte	0
ARM GAS  C:\Users\EBANO_~1\AppData\Local\Temp\ccEfOEMG.s 			page 289


 14813 0038 32000000 		.4byte	.LBB34
 14814 003c 34000000 		.4byte	.LBE34
 14815 0040 36000000 		.4byte	.LBB38
 14816 0044 3A000000 		.4byte	.LBE38
 14817 0048 48000000 		.4byte	.LBB39
 14818 004c 66000000 		.4byte	.LBE39
 14819 0050 00000000 		.4byte	0
 14820 0054 00000000 		.4byte	0
 14821 0058 D0000000 		.4byte	.LBB42
 14822 005c D4000000 		.4byte	.LBE42
 14823 0060 E2000000 		.4byte	.LBB46
 14824 0064 F4000000 		.4byte	.LBE46
 14825 0068 2A010000 		.4byte	.LBB47
 14826 006c 44010000 		.4byte	.LBE47
 14827 0070 00000000 		.4byte	0
 14828 0074 00000000 		.4byte	0
 14829 0078 18000000 		.4byte	.LBB50
 14830 007c 1C000000 		.4byte	.LBE50
 14831 0080 1E000000 		.4byte	.LBB54
 14832 0084 32000000 		.4byte	.LBE54
 14833 0088 70000000 		.4byte	.LBB55
 14834 008c 72000000 		.4byte	.LBE55
 14835 0090 00000000 		.4byte	0
 14836 0094 00000000 		.4byte	0
 14837 0098 28000000 		.4byte	.LBB56
 14838 009c 2A000000 		.4byte	.LBE56
 14839 00a0 2C000000 		.4byte	.LBB62
 14840 00a4 30000000 		.4byte	.LBE62
 14841 00a8 34000000 		.4byte	.LBB63
 14842 00ac 36000000 		.4byte	.LBE63
 14843 00b0 3C000000 		.4byte	.LBB64
 14844 00b4 4A000000 		.4byte	.LBE64
 14845 00b8 4C000000 		.4byte	.LBB69
 14846 00bc 4E000000 		.4byte	.LBE69
 14847 00c0 00000000 		.4byte	0
 14848 00c4 00000000 		.4byte	0
 14849 00c8 4A000000 		.4byte	.LBB65
 14850 00cc 4C000000 		.4byte	.LBE65
 14851 00d0 4E000000 		.4byte	.LBB70
 14852 00d4 64000000 		.4byte	.LBE70
 14853 00d8 E4000000 		.4byte	.LBB71
 14854 00dc EA000000 		.4byte	.LBE71
 14855 00e0 00000000 		.4byte	0
 14856 00e4 00000000 		.4byte	0
 14857 00e8 1E000000 		.4byte	.LBB77
 14858 00ec 20000000 		.4byte	.LBE77
 14859 00f0 26000000 		.4byte	.LBB78
 14860 00f4 28000000 		.4byte	.LBE78
 14861 00f8 60000000 		.4byte	.LBB79
 14862 00fc 74010000 		.4byte	.LBE79
 14863 0100 C4010000 		.4byte	.LBB80
 14864 0104 C0020000 		.4byte	.LBE80
 14865 0108 32030000 		.4byte	.LBB81
 14866 010c 64030000 		.4byte	.LBE81
 14867 0110 00000000 		.4byte	0
 14868 0114 00000000 		.4byte	0
 14869 0118 02000000 		.4byte	.LBB82
ARM GAS  C:\Users\EBANO_~1\AppData\Local\Temp\ccEfOEMG.s 			page 290


 14870 011c 04000000 		.4byte	.LBE82
 14871 0120 06000000 		.4byte	.LBB87
 14872 0124 08000000 		.4byte	.LBE87
 14873 0128 0C000000 		.4byte	.LBB88
 14874 012c 24000000 		.4byte	.LBE88
 14875 0130 52000000 		.4byte	.LBB89
 14876 0134 54000000 		.4byte	.LBE89
 14877 0138 00000000 		.4byte	0
 14878 013c 00000000 		.4byte	0
 14879 0140 12000000 		.4byte	.LBB96
 14880 0144 16000000 		.4byte	.LBE96
 14881 0148 AC000000 		.4byte	.LBB111
 14882 014c CC000000 		.4byte	.LBE111
 14883 0150 00000000 		.4byte	0
 14884 0154 00000000 		.4byte	0
 14885 0158 20000000 		.4byte	.LBB99
 14886 015c A2000000 		.4byte	.LBE99
 14887 0160 A4000000 		.4byte	.LBB110
 14888 0164 AA000000 		.4byte	.LBE110
 14889 0168 D4000000 		.4byte	.LBB112
 14890 016c D8000000 		.4byte	.LBE112
 14891 0170 DC000000 		.4byte	.LBB113
 14892 0174 F2000000 		.4byte	.LBE113
 14893 0178 00000000 		.4byte	0
 14894 017c 00000000 		.4byte	0
 14895 0180 56000000 		.4byte	.LBB101
 14896 0184 5A000000 		.4byte	.LBE101
 14897 0188 68000000 		.4byte	.LBB105
 14898 018c 7C000000 		.4byte	.LBE105
 14899 0190 DC000000 		.4byte	.LBB106
 14900 0194 F2000000 		.4byte	.LBE106
 14901 0198 00000000 		.4byte	0
 14902 019c 00000000 		.4byte	0
 14903 01a0 02000000 		.4byte	.LBB114
 14904 01a4 04000000 		.4byte	.LBE114
 14905 01a8 06000000 		.4byte	.LBB118
 14906 01ac 08000000 		.4byte	.LBE118
 14907 01b0 0C000000 		.4byte	.LBB119
 14908 01b4 2E000000 		.4byte	.LBE119
 14909 01b8 00000000 		.4byte	0
 14910 01bc 00000000 		.4byte	0
 14911 01c0 6A000000 		.4byte	.LBB124
 14912 01c4 70000000 		.4byte	.LBE124
 14913 01c8 74000000 		.4byte	.LBB137
 14914 01cc E2000000 		.4byte	.LBE137
 14915 01d0 24010000 		.4byte	.LBB138
 14916 01d4 34010000 		.4byte	.LBE138
 14917 01d8 38010000 		.4byte	.LBB139
 14918 01dc 98010000 		.4byte	.LBE139
 14919 01e0 00000000 		.4byte	0
 14920 01e4 00000000 		.4byte	0
 14921 01e8 6E000000 		.4byte	.LBB126
 14922 01ec 70000000 		.4byte	.LBE126
 14923 01f0 74000000 		.4byte	.LBB131
 14924 01f4 E2000000 		.4byte	.LBE131
 14925 01f8 2C010000 		.4byte	.LBB132
 14926 01fc 34010000 		.4byte	.LBE132
ARM GAS  C:\Users\EBANO_~1\AppData\Local\Temp\ccEfOEMG.s 			page 291


 14927 0200 38010000 		.4byte	.LBB133
 14928 0204 98010000 		.4byte	.LBE133
 14929 0208 00000000 		.4byte	0
 14930 020c 00000000 		.4byte	0
 14931 0210 4E000000 		.4byte	.LBB140
 14932 0214 50000000 		.4byte	.LBE140
 14933 0218 54000000 		.4byte	.LBB145
 14934 021c 5C000000 		.4byte	.LBE145
 14935 0220 66000000 		.4byte	.LBB146
 14936 0224 7A000000 		.4byte	.LBE146
 14937 0228 86000000 		.4byte	.LBB147
 14938 022c 92000000 		.4byte	.LBE147
 14939 0230 00000000 		.4byte	0
 14940 0234 00000000 		.4byte	0
 14941 0238 14000000 		.4byte	.LBB148
 14942 023c 16000000 		.4byte	.LBE148
 14943 0240 1C000000 		.4byte	.LBB152
 14944 0244 24000000 		.4byte	.LBE152
 14945 0248 2A000000 		.4byte	.LBB153
 14946 024c 30000000 		.4byte	.LBE153
 14947 0250 00000000 		.4byte	0
 14948 0254 00000000 		.4byte	0
 14949 0258 00000000 		.4byte	.LFB44
 14950 025c 1C010000 		.4byte	.LFE44
 14951 0260 00000000 		.4byte	.LFB45
 14952 0264 24000000 		.4byte	.LFE45
 14953 0268 00000000 		.4byte	.LFB46
 14954 026c 94000000 		.4byte	.LFE46
 14955 0270 00000000 		.4byte	.LFB47
 14956 0274 0C000000 		.4byte	.LFE47
 14957 0278 00000000 		.4byte	.LFB48
 14958 027c 64000000 		.4byte	.LFE48
 14959 0280 00000000 		.4byte	.LFB49
 14960 0284 44010000 		.4byte	.LFE49
 14961 0288 00000000 		.4byte	.LFB50
 14962 028c 34000000 		.4byte	.LFE50
 14963 0290 00000000 		.4byte	.LFB51
 14964 0294 94000000 		.4byte	.LFE51
 14965 0298 00000000 		.4byte	.LFB52
 14966 029c 0C010000 		.4byte	.LFE52
 14967 02a0 00000000 		.4byte	.LFB53
 14968 02a4 3C010000 		.4byte	.LFE53
 14969 02a8 00000000 		.4byte	.LFB54
 14970 02ac 64030000 		.4byte	.LFE54
 14971 02b0 00000000 		.4byte	.LFB55
 14972 02b4 64000000 		.4byte	.LFE55
 14973 02b8 00000000 		.4byte	.LFB56
 14974 02bc 08010000 		.4byte	.LFE56
 14975 02c0 00000000 		.4byte	.LFB57
 14976 02c4 06000000 		.4byte	.LFE57
 14977 02c8 00000000 		.4byte	.LFB58
 14978 02cc 70000000 		.4byte	.LFE58
 14979 02d0 00000000 		.4byte	.LFB59
 14980 02d4 02000000 		.4byte	.LFE59
 14981 02d8 00000000 		.4byte	.LFB60
 14982 02dc 34000000 		.4byte	.LFE60
 14983 02e0 00000000 		.4byte	.LFB61
ARM GAS  C:\Users\EBANO_~1\AppData\Local\Temp\ccEfOEMG.s 			page 292


 14984 02e4 BC010000 		.4byte	.LFE61
 14985 02e8 00000000 		.4byte	.LFB62
 14986 02ec D8000000 		.4byte	.LFE62
 14987 02f0 00000000 		.4byte	.LFB63
 14988 02f4 30000000 		.4byte	.LFE63
 14989 02f8 00000000 		.4byte	.LFB64
 14990 02fc 50000000 		.4byte	.LFE64
 14991 0300 00000000 		.4byte	.LFB65
 14992 0304 20000000 		.4byte	.LFE65
 14993 0308 00000000 		.4byte	.LFB66
 14994 030c 38000000 		.4byte	.LFE66
 14995 0310 00000000 		.4byte	0
 14996 0314 00000000 		.4byte	0
 14997              		.section	.debug_line,"",%progbits
 14998              	.Ldebug_line0:
 14999 0000 61090000 		.section	.debug_str,"MS",%progbits,1
 14999      0200B303 
 14999      00000201 
 14999      FB0E0D00 
 14999      01010101 
 15000              	.LASF216:
 15001 0000 52585F53 		.ascii	"RX_SLOT_WIN_CLASS_C\000"
 15001      4C4F545F 
 15001      57494E5F 
 15001      434C4153 
 15001      535F4300 
 15002              	.LASF415:
 15003 0014 73526567 		.ascii	"sRegionCommonLinkAdrReqVerifyParams\000"
 15003      696F6E43 
 15003      6F6D6D6F 
 15003      6E4C696E 
 15003      6B416472 
 15004              	.LASF476:
 15005 0038 52656769 		.ascii	"RegionIN865TxParamSetupReq\000"
 15005      6F6E494E 
 15005      38363554 
 15005      78506172 
 15005      616D5365 
 15006              	.LASF266:
 15007 0053 5048595F 		.ascii	"PHY_JOIN_ACCEPT_DELAY1\000"
 15007      4A4F494E 
 15007      5F414343 
 15007      4550545F 
 15007      44454C41 
 15008              	.LASF267:
 15009 006a 5048595F 		.ascii	"PHY_JOIN_ACCEPT_DELAY2\000"
 15009      4A4F494E 
 15009      5F414343 
 15009      4550545F 
 15009      44454C41 
 15010              	.LASF313:
 15011 0081 52667531 		.ascii	"Rfu1Size\000"
 15011      53697A65 
 15011      00
 15012              	.LASF141:
 15013 008a 52657669 		.ascii	"Revision\000"
 15013      73696F6E 
ARM GAS  C:\Users\EBANO_~1\AppData\Local\Temp\ccEfOEMG.s 			page 293


 15013      00
 15014              	.LASF473:
 15015 0093 52656769 		.ascii	"RegionIN865DlChannelReq\000"
 15015      6F6E494E 
 15015      38363544 
 15015      6C436861 
 15015      6E6E656C 
 15016              	.LASF427:
 15017 00ab 44617461 		.ascii	"Datarates\000"
 15017      72617465 
 15017      7300
 15018              	.LASF1:
 15019 00b5 5F5F7569 		.ascii	"__uint8_t\000"
 15019      6E74385F 
 15019      7400
 15020              	.LASF311:
 15021 00bf 73426561 		.ascii	"sBeaconFormat\000"
 15021      636F6E46 
 15021      6F726D61 
 15021      7400
 15022              	.LASF361:
 15023 00cd 5278436F 		.ascii	"RxConfigParams_t\000"
 15023      6E666967 
 15023      50617261 
 15023      6D735F74 
 15023      00
 15024              	.LASF147:
 15025 00de 5F426F6F 		.ascii	"_Bool\000"
 15025      6C00
 15026              	.LASF79:
 15027 00e4 5F6D6273 		.ascii	"_mbstate\000"
 15027      74617465 
 15027      00
 15028              	.LASF513:
 15029 00ed 6368616E 		.ascii	"chanMaskSet\000"
 15029      4D61736B 
 15029      53657400 
 15030              	.LASF58:
 15031 00f9 5F617465 		.ascii	"_atexit\000"
 15031      78697400 
 15032              	.LASF296:
 15033 0101 5048595F 		.ascii	"PHY_BEACON_FORMAT\000"
 15033      42454143 
 15033      4F4E5F46 
 15033      4F524D41 
 15033      5400
 15034              	.LASF48:
 15035 0113 5F5F746D 		.ascii	"__tm_mon\000"
 15035      5F6D6F6E 
 15035      00
 15036              	.LASF56:
 15037 011c 5F666E74 		.ascii	"_fntypes\000"
 15037      79706573 
 15037      00
 15038              	.LASF86:
 15039 0125 5F696E63 		.ascii	"_inc\000"
 15039      00
ARM GAS  C:\Users\EBANO_~1\AppData\Local\Temp\ccEfOEMG.s 			page 294


 15040              	.LASF59:
 15041 012a 5F696E64 		.ascii	"_ind\000"
 15041      00
 15042              	.LASF195:
 15043 012f 57726974 		.ascii	"WriteBuffer\000"
 15043      65427566 
 15043      66657200 
 15044              	.LASF170:
 15045 013b 52784572 		.ascii	"RxError\000"
 15045      726F7200 
 15046              	.LASF18:
 15047 0143 75696E74 		.ascii	"uint16_t\000"
 15047      31365F74 
 15047      00
 15048              	.LASF196:
 15049 014c 52656164 		.ascii	"ReadBuffer\000"
 15049      42756666 
 15049      657200
 15050              	.LASF430:
 15051 0157 52656769 		.ascii	"RegionCommonRxBeaconSetupParams_t\000"
 15051      6F6E436F 
 15051      6D6D6F6E 
 15051      52784265 
 15051      61636F6E 
 15052              	.LASF65:
 15053 0179 5F666C61 		.ascii	"_flags\000"
 15053      677300
 15054              	.LASF310:
 15055 0180 4368616E 		.ascii	"ChannelsMask_t\000"
 15055      6E656C73 
 15055      4D61736B 
 15055      5F7400
 15056              	.LASF96:
 15057 018f 5F637674 		.ascii	"_cvtlen\000"
 15057      6C656E00 
 15058              	.LASF230:
 15059 0197 4C4F5241 		.ascii	"LORAMAC_STATUS_NO_NETWORK_JOINED\000"
 15059      4D41435F 
 15059      53544154 
 15059      55535F4E 
 15059      4F5F4E45 
 15060              	.LASF100:
 15061 01b8 5F736967 		.ascii	"_sig_func\000"
 15061      5F66756E 
 15061      6300
 15062              	.LASF370:
 15063 01c2 41647245 		.ascii	"AdrEnabled\000"
 15063      6E61626C 
 15063      656400
 15064              	.LASF283:
 15065 01cd 5048595F 		.ascii	"PHY_BEACON_RESERVED\000"
 15065      42454143 
 15065      4F4E5F52 
 15065      45534552 
 15065      56454400 
 15066              	.LASF393:
 15067 01e1 54785469 		.ascii	"TxTimeOnAir\000"
ARM GAS  C:\Users\EBANO_~1\AppData\Local\Temp\ccEfOEMG.s 			page 295


 15067      6D654F6E 
 15067      41697200 
 15068              	.LASF78:
 15069 01ed 5F6C6F63 		.ascii	"_lock\000"
 15069      6B00
 15070              	.LASF74:
 15071 01f3 5F6E6275 		.ascii	"_nbuf\000"
 15071      6600
 15072              	.LASF133:
 15073 01f9 5F756E75 		.ascii	"_unused\000"
 15073      73656400 
 15074              	.LASF549:
 15075 0201 72616E64 		.ascii	"randr\000"
 15075      7200
 15076              	.LASF397:
 15077 0207 4C617374 		.ascii	"LastAggrTx\000"
 15077      41676772 
 15077      547800
 15078              	.LASF398:
 15079 0212 4E657874 		.ascii	"NextChanParams_t\000"
 15079      4368616E 
 15079      50617261 
 15079      6D735F74 
 15079      00
 15080              	.LASF169:
 15081 0223 52785469 		.ascii	"RxTimeout\000"
 15081      6D656F75 
 15081      7400
 15082              	.LASF301:
 15083 022d 50687941 		.ascii	"PhyAttribute_t\000"
 15083      74747269 
 15083      62757465 
 15083      5F7400
 15084              	.LASF167:
 15085 023c 54785469 		.ascii	"TxTimeout\000"
 15085      6D656F75 
 15085      7400
 15086              	.LASF149:
 15087 0246 44437963 		.ascii	"DCycle\000"
 15087      6C6500
 15088              	.LASF355:
 15089 024d 44724F66 		.ascii	"DrOffset\000"
 15089      66736574 
 15089      00
 15090              	.LASF284:
 15091 0256 5048595F 		.ascii	"PHY_BEACON_GUARD\000"
 15091      42454143 
 15091      4F4E5F47 
 15091      55415244 
 15091      00
 15092              	.LASF343:
 15093 0267 44617461 		.ascii	"DatarateParams\000"
 15093      72617465 
 15093      50617261 
 15093      6D7300
 15094              	.LASF142:
 15095 0276 4D696E6F 		.ascii	"Minor\000"
ARM GAS  C:\Users\EBANO_~1\AppData\Local\Temp\ccEfOEMG.s 			page 296


 15095      7200
 15096              	.LASF420:
 15097 027c 4D696E54 		.ascii	"MinTxPower\000"
 15097      78506F77 
 15097      657200
 15098              	.LASF479:
 15099 0287 6E657743 		.ascii	"newChannelReq\000"
 15099      68616E6E 
 15099      656C5265 
 15099      7100
 15100              	.LASF154:
 15101 0295 42616E64 		.ascii	"Band_t\000"
 15101      5F7400
 15102              	.LASF396:
 15103 029c 41676772 		.ascii	"AggrTimeOff\000"
 15103      54696D65 
 15103      4F666600 
 15104              	.LASF19:
 15105 02a8 696E7433 		.ascii	"int32_t\000"
 15105      325F7400 
 15106              	.LASF111:
 15107 02b0 5F616464 		.ascii	"_add\000"
 15107      00
 15108              	.LASF481:
 15109 02b5 72785061 		.ascii	"rxParamSetupReq\000"
 15109      72616D53 
 15109      65747570 
 15109      52657100 
 15110              	.LASF161:
 15111 02c5 52465F49 		.ascii	"RF_IDLE\000"
 15111      444C4500 
 15112              	.LASF470:
 15113 02cd 52656769 		.ascii	"RegionIN865AlternateDr\000"
 15113      6F6E494E 
 15113      38363541 
 15113      6C746572 
 15113      6E617465 
 15114              	.LASF150:
 15115 02e4 54784D61 		.ascii	"TxMaxPower\000"
 15115      78506F77 
 15115      657200
 15116              	.LASF240:
 15117 02ef 4C4F5241 		.ascii	"LORAMAC_STATUS_CRYPTO_ERROR\000"
 15117      4D41435F 
 15117      53544154 
 15117      55535F43 
 15117      52595054 
 15118              	.LASF379:
 15119 030b 4368616E 		.ascii	"ChannelId\000"
 15119      6E656C49 
 15119      6400
 15120              	.LASF375:
 15121 0315 73527850 		.ascii	"sRxParamSetupReqParams\000"
 15121      6172616D 
 15121      53657475 
 15121      70526571 
 15121      50617261 
ARM GAS  C:\Users\EBANO_~1\AppData\Local\Temp\ccEfOEMG.s 			page 297


 15122              	.LASF519:
 15123 032c 76657269 		.ascii	"verify\000"
 15123      667900
 15124              	.LASF565:
 15125 0333 5F5F6275 		.ascii	"__builtin_memset\000"
 15125      696C7469 
 15125      6E5F6D65 
 15125      6D736574 
 15125      00
 15126              	.LASF67:
 15127 0344 5F6C6266 		.ascii	"_lbfsize\000"
 15127      73697A65 
 15127      00
 15128              	.LASF258:
 15129 034d 5048595F 		.ascii	"PHY_DEF_ADR_ACK_LIMIT\000"
 15129      4445465F 
 15129      4144525F 
 15129      41434B5F 
 15129      4C494D49 
 15130              	.LASF174:
 15131 0363 52616469 		.ascii	"Radio_s\000"
 15131      6F5F7300 
 15132              	.LASF552:
 15133 036b 6D656D63 		.ascii	"memcpy1\000"
 15133      70793100 
 15134              	.LASF376:
 15135 0373 52785061 		.ascii	"RxParamSetupReqParams_t\000"
 15135      72616D53 
 15135      65747570 
 15135      52657150 
 15135      6172616D 
 15136              	.LASF517:
 15137 038b 6368616E 		.ascii	"chanIdx\000"
 15137      49647800 
 15138              	.LASF77:
 15139 0393 5F646174 		.ascii	"_data\000"
 15139      6100
 15140              	.LASF537:
 15141 0399 7478506F 		.ascii	"txPowerResult\000"
 15141      77657252 
 15141      6573756C 
 15141      7400
 15142              	.LASF426:
 15143 03a7 73526567 		.ascii	"sRegionCommonRxBeaconSetupParams\000"
 15143      696F6E43 
 15143      6F6D6D6F 
 15143      6E527842 
 15143      6561636F 
 15144              	.LASF312:
 15145 03c8 42656163 		.ascii	"BeaconSize\000"
 15145      6F6E5369 
 15145      7A6500
 15146              	.LASF197:
 15147 03d3 5365744D 		.ascii	"SetMaxPayloadLength\000"
 15147      61785061 
 15147      796C6F61 
 15147      644C656E 
ARM GAS  C:\Users\EBANO_~1\AppData\Local\Temp\ccEfOEMG.s 			page 298


 15147      67746800 
 15148              	.LASF363:
 15149 03e7 4D617845 		.ascii	"MaxEirp\000"
 15149      69727000 
 15150              	.LASF534:
 15151 03ef 66726571 		.ascii	"freq\000"
 15151      00
 15152              	.LASF156:
 15153 03f4 5F646179 		.ascii	"_daylight\000"
 15153      6C696768 
 15153      7400
 15154              	.LASF418:
 15155 03fe 4D696E44 		.ascii	"MinDatarate\000"
 15155      61746172 
 15155      61746500 
 15156              	.LASF222:
 15157 040a 654C6F52 		.ascii	"eLoRaMacStatus\000"
 15157      614D6163 
 15157      53746174 
 15157      757300
 15158              	.LASF493:
 15159 0419 70687950 		.ascii	"phyParam\000"
 15159      6172616D 
 15159      00
 15160              	.LASF134:
 15161 0422 5F5F6C6F 		.ascii	"__lock\000"
 15161      636B00
 15162              	.LASF81:
 15163 0429 5F726565 		.ascii	"_reent\000"
 15163      6E7400
 15164              	.LASF234:
 15165 0430 4C4F5241 		.ascii	"LORAMAC_STATUS_DUTYCYCLE_RESTRICTED\000"
 15165      4D41435F 
 15165      53544154 
 15165      55535F44 
 15165      55545943 
 15166              	.LASF327:
 15167 0454 47657450 		.ascii	"GetPhyParams_t\000"
 15167      68795061 
 15167      72616D73 
 15167      5F7400
 15168              	.LASF189:
 15169 0463 5374616E 		.ascii	"Standby\000"
 15169      64627900 
 15170              	.LASF500:
 15171 046b 70687944 		.ascii	"phyDr\000"
 15171      7200
 15172              	.LASF411:
 15173 0471 4E625265 		.ascii	"NbRep\000"
 15173      7000
 15174              	.LASF102:
 15175 0477 5F5F7366 		.ascii	"__sf\000"
 15175      00
 15176              	.LASF62:
 15177 047c 5F626173 		.ascii	"_base\000"
 15177      6500
 15178              	.LASF193:
ARM GAS  C:\Users\EBANO_~1\AppData\Local\Temp\ccEfOEMG.s 			page 299


 15179 0482 57726974 		.ascii	"Write\000"
 15179      6500
 15180              	.LASF120:
 15181 0488 5F6D6274 		.ascii	"_mbtowc_state\000"
 15181      6F77635F 
 15181      73746174 
 15181      6500
 15182              	.LASF306:
 15183 0496 496E6974 		.ascii	"InitType_t\000"
 15183      54797065 
 15183      5F7400
 15184              	.LASF504:
 15185 04a1 64617461 		.ascii	"datarate\000"
 15185      72617465 
 15185      00
 15186              	.LASF421:
 15187 04aa 4D617854 		.ascii	"MaxTxPower\000"
 15187      78506F77 
 15187      657200
 15188              	.LASF152:
 15189 04b5 4C617374 		.ascii	"LastTxDoneTime\000"
 15189      5478446F 
 15189      6E655469 
 15189      6D6500
 15190              	.LASF194:
 15191 04c4 52656164 		.ascii	"Read\000"
 15191      00
 15192              	.LASF43:
 15193 04c9 5F5F746D 		.ascii	"__tm\000"
 15193      00
 15194              	.LASF434:
 15195 04ce 4D617850 		.ascii	"MaxPayloadOfDatarateIN865\000"
 15195      61796C6F 
 15195      61644F66 
 15195      44617461 
 15195      72617465 
 15196              	.LASF553:
 15197 04e8 52656769 		.ascii	"RegionCommonParseLinkAdrReq\000"
 15197      6F6E436F 
 15197      6D6D6F6E 
 15197      50617273 
 15197      654C696E 
 15198              	.LASF51:
 15199 0504 5F5F746D 		.ascii	"__tm_yday\000"
 15199      5F796461 
 15199      7900
 15200              	.LASF526:
 15201 050e 7478446F 		.ascii	"txDone\000"
 15201      6E6500
 15202              	.LASF254:
 15203 0515 5048595F 		.ascii	"PHY_RX_DR\000"
 15203      52585F44 
 15203      5200
 15204              	.LASF472:
 15205 051f 74797065 		.ascii	"type\000"
 15205      00
 15206              	.LASF399:
ARM GAS  C:\Users\EBANO_~1\AppData\Local\Temp\ccEfOEMG.s 			page 300


 15207 0524 73436861 		.ascii	"sChannelAddParams\000"
 15207      6E6E656C 
 15207      41646450 
 15207      6172616D 
 15207      7300
 15208              	.LASF27:
 15209 0536 5F4C4F43 		.ascii	"_LOCK_T\000"
 15209      4B5F5400 
 15210              	.LASF211:
 15211 053e 44725261 		.ascii	"DrRange\000"
 15211      6E676500 
 15212              	.LASF292:
 15213 0546 5048595F 		.ascii	"PHY_PING_SLOT_SYMBOL_TO_EXPANSION_FACTOR\000"
 15213      50494E47 
 15213      5F534C4F 
 15213      545F5359 
 15213      4D424F4C 
 15214              	.LASF201:
 15215 056f 5278426F 		.ascii	"RxBoosted\000"
 15215      6F737465 
 15215      6400
 15216              	.LASF4:
 15217 0579 5F5F696E 		.ascii	"__int16_t\000"
 15217      7431365F 
 15217      7400
 15218              	.LASF515:
 15219 0583 6170706C 		.ascii	"applyCFList\000"
 15219      7943464C 
 15219      69737400 
 15220              	.LASF6:
 15221 058f 5F5F7569 		.ascii	"__uint16_t\000"
 15221      6E743136 
 15221      5F7400
 15222              	.LASF270:
 15223 059a 5048595F 		.ascii	"PHY_DEF_DR1_OFFSET\000"
 15223      4445465F 
 15223      4452315F 
 15223      4F464653 
 15223      455400
 15224              	.LASF112:
 15225 05ad 5F756E75 		.ascii	"_unused_rand\000"
 15225      7365645F 
 15225      72616E64 
 15225      00
 15226              	.LASF339:
 15227 05ba 73446174 		.ascii	"sDatarateParams\000"
 15227      61726174 
 15227      65506172 
 15227      616D7300 
 15228              	.LASF274:
 15229 05ca 5048595F 		.ascii	"PHY_CHANNELS_DEFAULT_MASK\000"
 15229      4348414E 
 15229      4E454C53 
 15229      5F444546 
 15229      41554C54 
 15230              	.LASF447:
 15231 05e4 636F6E74 		.ascii	"continuousWave\000"
ARM GAS  C:\Users\EBANO_~1\AppData\Local\Temp\ccEfOEMG.s 			page 301


 15231      696E756F 
 15231      75735761 
 15231      766500
 15232              	.LASF448:
 15233 05f3 70687954 		.ascii	"phyTxPower\000"
 15233      78506F77 
 15233      657200
 15234              	.LASF406:
 15235 05fe 73527842 		.ascii	"sRxBeaconSetupParams\000"
 15235      6561636F 
 15235      6E536574 
 15235      75705061 
 15235      72616D73 
 15236              	.LASF357:
 15237 0613 57696E64 		.ascii	"WindowOffset\000"
 15237      6F774F66 
 15237      66736574 
 15237      00
 15238              	.LASF285:
 15239 0620 5048595F 		.ascii	"PHY_BEACON_WINDOW\000"
 15239      42454143 
 15239      4F4E5F57 
 15239      494E444F 
 15239      5700
 15240              	.LASF93:
 15241 0632 5F726573 		.ascii	"_result_k\000"
 15241      756C745F 
 15241      6B00
 15242              	.LASF85:
 15243 063c 5F737464 		.ascii	"_stderr\000"
 15243      65727200 
 15244              	.LASF92:
 15245 0644 5F726573 		.ascii	"_result\000"
 15245      756C7400 
 15246              	.LASF428:
 15247 064c 42656163 		.ascii	"BeaconDatarate\000"
 15247      6F6E4461 
 15247      74617261 
 15247      746500
 15248              	.LASF55:
 15249 065b 5F64736F 		.ascii	"_dso_handle\000"
 15249      5F68616E 
 15249      646C6500 
 15250              	.LASF389:
 15251 0667 7343616C 		.ascii	"sCalcBackOffParams\000"
 15251      63426163 
 15251      6B4F6666 
 15251      50617261 
 15251      6D7300
 15252              	.LASF50:
 15253 067a 5F5F746D 		.ascii	"__tm_wday\000"
 15253      5F776461 
 15253      7900
 15254              	.LASF52:
 15255 0684 5F5F746D 		.ascii	"__tm_isdst\000"
 15255      5F697364 
 15255      737400
ARM GAS  C:\Users\EBANO_~1\AppData\Local\Temp\ccEfOEMG.s 			page 302


 15256              	.LASF464:
 15257 068f 64656C61 		.ascii	"delayTx\000"
 15257      79547800 
 15258              	.LASF559:
 15259 0697 52656769 		.ascii	"RegionCommonChanMaskCopy\000"
 15259      6F6E436F 
 15259      6D6D6F6E 
 15259      4368616E 
 15259      4D61736B 
 15260              	.LASF231:
 15261 06b0 4C4F5241 		.ascii	"LORAMAC_STATUS_LENGTH_ERROR\000"
 15261      4D41435F 
 15261      53544154 
 15261      55535F4C 
 15261      454E4754 
 15262              	.LASF153:
 15263 06cc 54696D65 		.ascii	"TimeOff\000"
 15263      4F666600 
 15264              	.LASF3:
 15265 06d4 756E7369 		.ascii	"unsigned char\000"
 15265      676E6564 
 15265      20636861 
 15265      7200
 15266              	.LASF84:
 15267 06e2 5F737464 		.ascii	"_stdout\000"
 15267      6F757400 
 15268              	.LASF336:
 15269 06ea 73476574 		.ascii	"sGetNvmCtxParams\000"
 15269      4E766D43 
 15269      74785061 
 15269      72616D73 
 15269      00
 15270              	.LASF127:
 15271 06fb 5F6D6273 		.ascii	"_mbsrtowcs_state\000"
 15271      72746F77 
 15271      63735F73 
 15271      74617465 
 15271      00
 15272              	.LASF41:
 15273 070c 5F776473 		.ascii	"_wds\000"
 15273      00
 15274              	.LASF207:
 15275 0711 44725261 		.ascii	"DrRange_t\000"
 15275      6E67655F 
 15275      7400
 15276              	.LASF220:
 15277 071b 666C6F61 		.ascii	"float\000"
 15277      7400
 15278              	.LASF563:
 15279 0721 443A5C67 		.ascii	"D:\\git_pessoal\\keil_gcc\\STM32CubeExpansion_LRWAN"
 15279      69745F70 
 15279      6573736F 
 15279      616C5C6B 
 15279      65696C5F 
 15280 0751 5F56312E 		.ascii	"_V1.2.1\\Projects\\B-L072Z-LRWAN1\\Applications\\Lo"
 15280      322E315C 
 15280      50726F6A 
ARM GAS  C:\Users\EBANO_~1\AppData\Local\Temp\ccEfOEMG.s 			page 303


 15280      65637473 
 15280      5C422D4C 
 15281 0780 52615C45 		.ascii	"Ra\\End_Node\\MDK-ARM\000"
 15281      6E645F4E 
 15281      6F64655C 
 15281      4D444B2D 
 15281      41524D00 
 15282              	.LASF271:
 15283 0794 5048595F 		.ascii	"PHY_DEF_RX2_FREQUENCY\000"
 15283      4445465F 
 15283      5258325F 
 15283      46524551 
 15283      55454E43 
 15284              	.LASF323:
 15285 07aa 41747472 		.ascii	"Attribute\000"
 15285      69627574 
 15285      6500
 15286              	.LASF247:
 15287 07b4 65506879 		.ascii	"ePhyAttribute\000"
 15287      41747472 
 15287      69627574 
 15287      6500
 15288              	.LASF63:
 15289 07c2 5F73697A 		.ascii	"_size\000"
 15289      6500
 15290              	.LASF368:
 15291 07c8 56657273 		.ascii	"Version\000"
 15291      696F6E00 
 15292              	.LASF514:
 15293 07d0 52656769 		.ascii	"RegionIN865ApplyCFList\000"
 15293      6F6E494E 
 15293      38363541 
 15293      70706C79 
 15293      43464C69 
 15294              	.LASF70:
 15295 07e7 5F777269 		.ascii	"_write\000"
 15295      746500
 15296              	.LASF385:
 15297 07ee 65416C74 		.ascii	"eAlternateDrType\000"
 15297      65726E61 
 15297      74654472 
 15297      54797065 
 15297      00
 15298              	.LASF412:
 15299 07ff 43684D61 		.ascii	"ChMaskCtrl\000"
 15299      736B4374 
 15299      726C00
 15300              	.LASF176:
 15301 080a 496F4465 		.ascii	"IoDeInit\000"
 15301      496E6974 
 15301      00
 15302              	.LASF179:
 15303 0813 5365744D 		.ascii	"SetModem\000"
 15303      6F64656D 
 15303      00
 15304              	.LASF360:
 15305 081c 5278536C 		.ascii	"RxSlot\000"
ARM GAS  C:\Users\EBANO_~1\AppData\Local\Temp\ccEfOEMG.s 			page 304


 15305      6F7400
 15306              	.LASF226:
 15307 0823 4C4F5241 		.ascii	"LORAMAC_STATUS_PARAMETER_INVALID\000"
 15307      4D41435F 
 15307      53544154 
 15307      55535F50 
 15307      4152414D 
 15308              	.LASF419:
 15309 0844 4D617844 		.ascii	"MaxDatarate\000"
 15309      61746172 
 15309      61746500 
 15310              	.LASF502:
 15311 0850 52656769 		.ascii	"RegionIN865RxConfig\000"
 15311      6F6E494E 
 15311      38363552 
 15311      78436F6E 
 15311      66696700 
 15312              	.LASF402:
 15313 0864 4368616E 		.ascii	"ChannelRemoveParams_t\000"
 15313      6E656C52 
 15313      656D6F76 
 15313      65506172 
 15313      616D735F 
 15314              	.LASF166:
 15315 087a 5478446F 		.ascii	"TxDone\000"
 15315      6E6500
 15316              	.LASF532:
 15317 0881 436F756E 		.ascii	"CountNbOfEnabledChannels\000"
 15317      744E624F 
 15317      66456E61 
 15317      626C6564 
 15317      4368616E 
 15318              	.LASF49:
 15319 089a 5F5F746D 		.ascii	"__tm_year\000"
 15319      5F796561 
 15319      7200
 15320              	.LASF206:
 15321 08a4 75447252 		.ascii	"uDrRange\000"
 15321      616E6765 
 15321      00
 15322              	.LASF212:
 15323 08ad 42616E64 		.ascii	"Band\000"
 15323      00
 15324              	.LASF367:
 15325 08b2 734C696E 		.ascii	"sLinkAdrReqParams\000"
 15325      6B416472 
 15325      52657150 
 15325      6172616D 
 15325      7300
 15326              	.LASF356:
 15327 08c4 57696E64 		.ascii	"WindowTimeout\000"
 15327      6F775469 
 15327      6D656F75 
 15327      7400
 15328              	.LASF203:
 15329 08d2 52616469 		.ascii	"Radio\000"
 15329      6F00
ARM GAS  C:\Users\EBANO_~1\AppData\Local\Temp\ccEfOEMG.s 			page 305


 15330              	.LASF561:
 15331 08d8 474E5520 		.ascii	"GNU C11 7.3.1 20180622 (release) [ARM/embedded-7-br"
 15331      43313120 
 15331      372E332E 
 15331      31203230 
 15331      31383036 
 15332 090b 616E6368 		.ascii	"anch revision 261907] -mcpu=cortex-m0plus -mthumb -"
 15332      20726576 
 15332      6973696F 
 15332      6E203236 
 15332      31393037 
 15333 093e 6D666C6F 		.ascii	"mfloat-abi=soft -gdwarf-2 -O3 -ffunction-sections\000"
 15333      61742D61 
 15333      62693D73 
 15333      6F667420 
 15333      2D676477 
 15334              	.LASF110:
 15335 0970 5F6D756C 		.ascii	"_mult\000"
 15335      7400
 15336              	.LASF536:
 15337 0976 6D617842 		.ascii	"maxBandTxPower\000"
 15337      616E6454 
 15337      78506F77 
 15337      657200
 15338              	.LASF489:
 15339 0985 6E657874 		.ascii	"nextIndex\000"
 15339      496E6465 
 15339      7800
 15340              	.LASF512:
 15341 098f 52656769 		.ascii	"RegionIN865ChanMaskSet\000"
 15341      6F6E494E 
 15341      38363543 
 15341      68616E4D 
 15341      61736B53 
 15342              	.LASF190:
 15343 09a6 53746172 		.ascii	"StartCad\000"
 15343      74436164 
 15343      00
 15344              	.LASF527:
 15345 09af 52656769 		.ascii	"RegionIN865GetPhyParam\000"
 15345      6F6E494E 
 15345      38363547 
 15345      65745068 
 15345      79506172 
 15346              	.LASF377:
 15347 09c6 734E6577 		.ascii	"sNewChannelReqParams\000"
 15347      4368616E 
 15347      6E656C52 
 15347      65715061 
 15347      72616D73 
 15348              	.LASF125:
 15349 09db 5F6D6272 		.ascii	"_mbrlen_state\000"
 15349      6C656E5F 
 15349      73746174 
 15349      6500
 15350              	.LASF509:
 15351 09e9 7278436F 		.ascii	"rxConfigParams\000"
ARM GAS  C:\Users\EBANO_~1\AppData\Local\Temp\ccEfOEMG.s 			page 306


 15351      6E666967 
 15351      50617261 
 15351      6D7300
 15352              	.LASF461:
 15353 09f8 74696D65 		.ascii	"time\000"
 15353      00
 15354              	.LASF546:
 15355 09fd 52656769 		.ascii	"RegionCommonCountChannels\000"
 15355      6F6E436F 
 15355      6D6D6F6E 
 15355      436F756E 
 15355      74436861 
 15356              	.LASF241:
 15357 0a17 4C4F5241 		.ascii	"LORAMAC_STATUS_FCNT_HANDLER_ERROR\000"
 15357      4D41435F 
 15357      53544154 
 15357      55535F46 
 15357      434E545F 
 15358              	.LASF491:
 15359 0a39 63684D61 		.ascii	"chMask\000"
 15359      736B00
 15360              	.LASF380:
 15361 0a40 4E657743 		.ascii	"NewChannelReqParams_t\000"
 15361      68616E6E 
 15361      656C5265 
 15361      71506172 
 15361      616D735F 
 15362              	.LASF436:
 15363 0a56 45666665 		.ascii	"EffectiveRx1DrOffsetIN865\000"
 15363      63746976 
 15363      65527831 
 15363      44724F66 
 15363      66736574 
 15364              	.LASF168:
 15365 0a70 5278446F 		.ascii	"RxDone\000"
 15365      6E6500
 15366              	.LASF83:
 15367 0a77 5F737464 		.ascii	"_stdin\000"
 15367      696E00
 15368              	.LASF248:
 15369 0a7e 5048595F 		.ascii	"PHY_MIN_RX_DR\000"
 15369      4D494E5F 
 15369      52585F44 
 15369      5200
 15370              	.LASF132:
 15371 0a8c 5F6E6D61 		.ascii	"_nmalloc\000"
 15371      6C6C6F63 
 15371      00
 15372              	.LASF337:
 15373 0a95 6E766D43 		.ascii	"nvmCtxSize\000"
 15373      74785369 
 15373      7A6500
 15374              	.LASF182:
 15375 0aa0 52616E64 		.ascii	"Random\000"
 15375      6F6D00
 15376              	.LASF404:
 15377 0aa7 54696D65 		.ascii	"Timeout\000"
ARM GAS  C:\Users\EBANO_~1\AppData\Local\Temp\ccEfOEMG.s 			page 307


 15377      6F757400 
 15378              	.LASF334:
 15379 0aaf 54797065 		.ascii	"Type\000"
 15379      00
 15380              	.LASF495:
 15381 0ab4 52656769 		.ascii	"RegionIN865TxConfig\000"
 15381      6F6E494E 
 15381      38363554 
 15381      78436F6E 
 15381      66696700 
 15382              	.LASF371:
 15383 0ac8 43757272 		.ascii	"CurrentDatarate\000"
 15383      656E7444 
 15383      61746172 
 15383      61746500 
 15384              	.LASF346:
 15385 0ad8 5061796C 		.ascii	"Payload\000"
 15385      6F616400 
 15386              	.LASF263:
 15387 0ae0 5048595F 		.ascii	"PHY_MAX_RX_WINDOW\000"
 15387      4D41585F 
 15387      52585F57 
 15387      494E444F 
 15387      5700
 15388              	.LASF28:
 15389 0af2 5F6F6666 		.ascii	"_off_t\000"
 15389      5F7400
 15390              	.LASF140:
 15391 0af9 56657273 		.ascii	"Version_s\000"
 15391      696F6E5F 
 15391      7300
 15392              	.LASF146:
 15393 0b03 56657273 		.ascii	"Version_t\000"
 15393      696F6E5F 
 15393      7400
 15394              	.LASF205:
 15395 0b0d 56657273 		.ascii	"Version_u\000"
 15395      696F6E5F 
 15395      7500
 15396              	.LASF539:
 15397 0b17 6472496E 		.ascii	"drIndex\000"
 15397      64657800 
 15398              	.LASF25:
 15399 0b1f 73697A65 		.ascii	"size_t\000"
 15399      5F7400
 15400              	.LASF115:
 15401 0b26 5F6C6F63 		.ascii	"_localtime_buf\000"
 15401      616C7469 
 15401      6D655F62 
 15401      756600
 15402              	.LASF33:
 15403 0b35 5F5F636F 		.ascii	"__count\000"
 15403      756E7400 
 15404              	.LASF16:
 15405 0b3d 75696E74 		.ascii	"uint8_t\000"
 15405      385F7400 
 15406              	.LASF290:
ARM GAS  C:\Users\EBANO_~1\AppData\Local\Temp\ccEfOEMG.s 			page 308


 15407 0b45 5048595F 		.ascii	"PHY_PING_SLOT_SYMBOL_TO_EXPANSION_MAX\000"
 15407      50494E47 
 15407      5F534C4F 
 15407      545F5359 
 15407      4D424F4C 
 15408              	.LASF298:
 15409 0b6b 5048595F 		.ascii	"PHY_BEACON_CHANNEL_STEPWIDTH\000"
 15409      42454143 
 15409      4F4E5F43 
 15409      48414E4E 
 15409      454C5F53 
 15410              	.LASF148:
 15411 0b88 7342616E 		.ascii	"sBand\000"
 15411      6400
 15412              	.LASF249:
 15413 0b8e 5048595F 		.ascii	"PHY_MIN_TX_DR\000"
 15413      4D494E5F 
 15413      54585F44 
 15413      5200
 15414              	.LASF518:
 15415 0b9c 52656769 		.ascii	"RegionIN865Verify\000"
 15415      6F6E494E 
 15415      38363556 
 15415      65726966 
 15415      7900
 15416              	.LASF548:
 15417 0bae 52656769 		.ascii	"RegionCommonUpdateBandTimeOff\000"
 15417      6F6E436F 
 15417      6D6D6F6E 
 15417      55706461 
 15417      74654261 
 15418              	.LASF288:
 15419 0bcc 5048595F 		.ascii	"PHY_BEACON_SYMBOL_TO_DEFAULT\000"
 15419      42454143 
 15419      4F4E5F53 
 15419      594D424F 
 15419      4C5F544F 
 15420              	.LASF221:
 15421 0be9 654C6F52 		.ascii	"eLoRaMacRxSlot\000"
 15421      614D6163 
 15421      5278536C 
 15421      6F7400
 15422              	.LASF97:
 15423 0bf8 5F637674 		.ascii	"_cvtbuf\000"
 15423      62756600 
 15424              	.LASF414:
 15425 0c00 52656769 		.ascii	"RegionCommonLinkAdrParams_t\000"
 15425      6F6E436F 
 15425      6D6D6F6E 
 15425      4C696E6B 
 15425      41647250 
 15426              	.LASF335:
 15427 0c1c 496E6974 		.ascii	"InitDefaultsParams_t\000"
 15427      44656661 
 15427      756C7473 
 15427      50617261 
 15427      6D735F74 
ARM GAS  C:\Users\EBANO_~1\AppData\Local\Temp\ccEfOEMG.s 			page 309


 15428              	.LASF417:
 15429 0c31 4E624368 		.ascii	"NbChannels\000"
 15429      616E6E65 
 15429      6C7300
 15430              	.LASF358:
 15431 0c3c 52657065 		.ascii	"RepeaterSupport\000"
 15431      61746572 
 15431      53757070 
 15431      6F727400 
 15432              	.LASF218:
 15433 0c4c 52585F53 		.ascii	"RX_SLOT_WIN_MULTICAST_SLOT\000"
 15433      4C4F545F 
 15433      57494E5F 
 15433      4D554C54 
 15433      49434153 
 15434              	.LASF202:
 15435 0c67 53657452 		.ascii	"SetRxDutyCycle\000"
 15435      78447574 
 15435      79437963 
 15435      6C6500
 15436              	.LASF490:
 15437 0c76 62797465 		.ascii	"bytesProcessed\000"
 15437      7350726F 
 15437      63657373 
 15437      656400
 15438              	.LASF32:
 15439 0c85 5F5F7763 		.ascii	"__wchb\000"
 15439      686200
 15440              	.LASF126:
 15441 0c8c 5F6D6272 		.ascii	"_mbrtowc_state\000"
 15441      746F7763 
 15441      5F737461 
 15441      746500
 15442              	.LASF46:
 15443 0c9b 5F5F746D 		.ascii	"__tm_hour\000"
 15443      5F686F75 
 15443      7200
 15444              	.LASF158:
 15445 0ca5 4D4F4445 		.ascii	"MODEM_FSK\000"
 15445      4D5F4653 
 15445      4B00
 15446              	.LASF468:
 15447 0caf 63616C63 		.ascii	"calcBackOff\000"
 15447      4261636B 
 15447      4F666600 
 15448              	.LASF348:
 15449 0cbb 4170706C 		.ascii	"ApplyCFListParams_t\000"
 15449      7943464C 
 15449      69737450 
 15449      6172616D 
 15449      735F7400 
 15450              	.LASF162:
 15451 0ccf 52465F52 		.ascii	"RF_RX_RUNNING\000"
 15451      585F5255 
 15451      4E4E494E 
 15451      4700
 15452              	.LASF260:
ARM GAS  C:\Users\EBANO_~1\AppData\Local\Temp\ccEfOEMG.s 			page 310


 15453 0cdd 5048595F 		.ascii	"PHY_MAX_PAYLOAD\000"
 15453      4D41585F 
 15453      5041594C 
 15453      4F414400 
 15454              	.LASF30:
 15455 0ced 77696E74 		.ascii	"wint_t\000"
 15455      5F7400
 15456              	.LASF98:
 15457 0cf4 5F6E6577 		.ascii	"_new\000"
 15457      00
 15458              	.LASF188:
 15459 0cf9 536C6565 		.ascii	"Sleep\000"
 15459      7000
 15460              	.LASF345:
 15461 0cff 73417070 		.ascii	"sApplyCFListParams\000"
 15461      6C794346 
 15461      4C697374 
 15461      50617261 
 15461      6D7300
 15462              	.LASF106:
 15463 0d12 5F6E696F 		.ascii	"_niobs\000"
 15463      627300
 15464              	.LASF322:
 15465 0d19 73476574 		.ascii	"sGetPhyParams\000"
 15465      50687950 
 15465      6172616D 
 15465      7300
 15466              	.LASF242:
 15467 0d27 4C4F5241 		.ascii	"LORAMAC_STATUS_MAC_COMMAD_ERROR\000"
 15467      4D41435F 
 15467      53544154 
 15467      55535F4D 
 15467      41435F43 
 15468              	.LASF523:
 15469 0d47 52656769 		.ascii	"RegionIN865InitDefaults\000"
 15469      6F6E494E 
 15469      38363549 
 15469      6E697444 
 15469      65666175 
 15470              	.LASF160:
 15471 0d5f 52616469 		.ascii	"RadioModems_t\000"
 15471      6F4D6F64 
 15471      656D735F 
 15471      7400
 15472              	.LASF319:
 15473 0d6d 4368616E 		.ascii	"Channels\000"
 15473      6E656C73 
 15473      00
 15474              	.LASF331:
 15475 0d76 53657442 		.ascii	"SetBandTxDoneParams_t\000"
 15475      616E6454 
 15475      78446F6E 
 15475      65506172 
 15475      616D735F 
 15476              	.LASF462:
 15477 0d8c 61676772 		.ascii	"aggregatedTimeOff\000"
 15477      65676174 
ARM GAS  C:\Users\EBANO_~1\AppData\Local\Temp\ccEfOEMG.s 			page 311


 15477      65645469 
 15477      6D654F66 
 15477      6600
 15478              	.LASF82:
 15479 0d9e 5F657272 		.ascii	"_errno\000"
 15479      6E6F00
 15480              	.LASF287:
 15481 0da5 5048595F 		.ascii	"PHY_PING_SLOT_WINDOW\000"
 15481      50494E47 
 15481      5F534C4F 
 15481      545F5749 
 15481      4E444F57 
 15482              	.LASF413:
 15483 0dba 43684D61 		.ascii	"ChMask\000"
 15483      736B00
 15484              	.LASF47:
 15485 0dc1 5F5F746D 		.ascii	"__tm_mday\000"
 15485      5F6D6461 
 15485      7900
 15486              	.LASF54:
 15487 0dcb 5F666E61 		.ascii	"_fnargs\000"
 15487      72677300 
 15488              	.LASF303:
 15489 0dd3 494E4954 		.ascii	"INIT_TYPE_INIT\000"
 15489      5F545950 
 15489      455F494E 
 15489      495400
 15490              	.LASF255:
 15491 0de2 5048595F 		.ascii	"PHY_MAX_TX_POWER\000"
 15491      4D41585F 
 15491      54585F50 
 15491      4F574552 
 15491      00
 15492              	.LASF458:
 15493 0df3 52656769 		.ascii	"RegionIN865NextChannel\000"
 15493      6F6E494E 
 15493      3836354E 
 15493      65787443 
 15493      68616E6E 
 15494              	.LASF441:
 15495 0e0a 6F757444 		.ascii	"outDr\000"
 15495      7200
 15496              	.LASF281:
 15497 0e10 5048595F 		.ascii	"PHY_NEXT_LOWER_TX_DR\000"
 15497      4E455854 
 15497      5F4C4F57 
 15497      45525F54 
 15497      585F4452 
 15498              	.LASF541:
 15499 0e25 6D696E44 		.ascii	"minDr\000"
 15499      7200
 15500              	.LASF278:
 15501 0e2b 5048595F 		.ascii	"PHY_DEF_DOWNLINK_DWELL_TIME\000"
 15501      4445465F 
 15501      444F574E 
 15501      4C494E4B 
 15501      5F445745 
ARM GAS  C:\Users\EBANO_~1\AppData\Local\Temp\ccEfOEMG.s 			page 312


 15502              	.LASF392:
 15503 0e47 456C6170 		.ascii	"ElapsedTime\000"
 15503      73656454 
 15503      696D6500 
 15504              	.LASF289:
 15505 0e53 5048595F 		.ascii	"PHY_BEACON_SYMBOL_TO_EXPANSION_MAX\000"
 15505      42454143 
 15505      4F4E5F53 
 15505      594D424F 
 15505      4C5F544F 
 15506              	.LASF38:
 15507 0e76 5F6E6578 		.ascii	"_next\000"
 15507      7400
 15508              	.LASF171:
 15509 0e7c 46687373 		.ascii	"FhssChangeChannel\000"
 15509      4368616E 
 15509      67654368 
 15509      616E6E65 
 15509      6C00
 15510              	.LASF487:
 15511 0e8e 6E624279 		.ascii	"nbBytesParsed\000"
 15511      74657350 
 15511      61727365 
 15511      6400
 15512              	.LASF522:
 15513 0e9c 70617261 		.ascii	"params\000"
 15513      6D7300
 15514              	.LASF123:
 15515 0ea3 5F736967 		.ascii	"_signal_buf\000"
 15515      6E616C5F 
 15515      62756600 
 15516              	.LASF68:
 15517 0eaf 5F636F6F 		.ascii	"_cookie\000"
 15517      6B696500 
 15518              	.LASF272:
 15519 0eb7 5048595F 		.ascii	"PHY_DEF_RX2_DR\000"
 15519      4445465F 
 15519      5258325F 
 15519      445200
 15520              	.LASF540:
 15521 0ec6 4765744E 		.ascii	"GetNextLowerTxDr\000"
 15521      6578744C 
 15521      6F776572 
 15521      54784472 
 15521      00
 15522              	.LASF408:
 15523 0ed7 52785469 		.ascii	"RxTime\000"
 15523      6D6500
 15524              	.LASF264:
 15525 0ede 5048595F 		.ascii	"PHY_RECEIVE_DELAY1\000"
 15525      52454345 
 15525      4956455F 
 15525      44454C41 
 15525      593100
 15526              	.LASF265:
 15527 0ef1 5048595F 		.ascii	"PHY_RECEIVE_DELAY2\000"
 15527      52454345 
ARM GAS  C:\Users\EBANO_~1\AppData\Local\Temp\ccEfOEMG.s 			page 313


 15527      4956455F 
 15527      44454C41 
 15527      593200
 15528              	.LASF157:
 15529 0f04 5F747A6E 		.ascii	"_tzname\000"
 15529      616D6500 
 15530              	.LASF352:
 15531 0f0c 4368616E 		.ascii	"ChanMaskSetParams_t\000"
 15531      4D61736B 
 15531      53657450 
 15531      6172616D 
 15531      735F7400 
 15532              	.LASF232:
 15533 0f20 4C4F5241 		.ascii	"LORAMAC_STATUS_REGION_NOT_SUPPORTED\000"
 15533      4D41435F 
 15533      53544154 
 15533      55535F52 
 15533      4547494F 
 15534              	.LASF219:
 15535 0f44 4C6F5261 		.ascii	"LoRaMacRxSlot_t\000"
 15535      4D616352 
 15535      78536C6F 
 15535      745F7400 
 15536              	.LASF562:
 15537 0f54 2E2E2F2E 		.ascii	"../../../../../../Middlewares/Third_Party/LoRaWAN/M"
 15537      2E2F2E2E 
 15537      2F2E2E2F 
 15537      2E2E2F2E 
 15537      2E2F4D69 
 15538 0f87 61632F72 		.ascii	"ac/region/RegionIN865.c\000"
 15538      6567696F 
 15538      6E2F5265 
 15538      67696F6E 
 15538      494E3836 
 15539              	.LASF245:
 15540 0f9f 4C4F5241 		.ascii	"LORAMAC_STATUS_ERROR\000"
 15540      4D41435F 
 15540      53544154 
 15540      55535F45 
 15540      52524F52 
 15541              	.LASF387:
 15542 0fb4 414C5445 		.ascii	"ALTERNATE_DR_RESTORE\000"
 15542      524E4154 
 15542      455F4452 
 15542      5F524553 
 15542      544F5245 
 15543              	.LASF320:
 15544 0fc9 42656163 		.ascii	"BeaconFormat\000"
 15544      6F6E466F 
 15544      726D6174 
 15544      00
 15545              	.LASF460:
 15546 0fd6 6368616E 		.ascii	"channel\000"
 15546      6E656C00 
 15547              	.LASF365:
 15548 0fde 506B744C 		.ascii	"PktLen\000"
 15548      656E00
ARM GAS  C:\Users\EBANO_~1\AppData\Local\Temp\ccEfOEMG.s 			page 314


 15549              	.LASF178:
 15550 0fe5 47657453 		.ascii	"GetStatus\000"
 15550      74617475 
 15550      7300
 15551              	.LASF251:
 15552 0fef 5048595F 		.ascii	"PHY_MAX_TX_DR\000"
 15552      4D41585F 
 15552      54585F44 
 15552      5200
 15553              	.LASF314:
 15554 0ffd 52667532 		.ascii	"Rfu2Size\000"
 15554      53697A65 
 15554      00
 15555              	.LASF184:
 15556 1006 53657454 		.ascii	"SetTxConfig\000"
 15556      78436F6E 
 15556      66696700 
 15557              	.LASF213:
 15558 1012 4368616E 		.ascii	"ChannelParams_t\000"
 15558      6E656C50 
 15558      6172616D 
 15558      735F7400 
 15559              	.LASF224:
 15560 1022 4C4F5241 		.ascii	"LORAMAC_STATUS_BUSY\000"
 15560      4D41435F 
 15560      53544154 
 15560      55535F42 
 15560      55535900 
 15561              	.LASF347:
 15562 1036 53697A65 		.ascii	"Size\000"
 15562      00
 15563              	.LASF44:
 15564 103b 5F5F746D 		.ascii	"__tm_sec\000"
 15564      5F736563 
 15564      00
 15565              	.LASF53:
 15566 1044 5F6F6E5F 		.ascii	"_on_exit_args\000"
 15566      65786974 
 15566      5F617267 
 15566      7300
 15567              	.LASF237:
 15568 1052 4C4F5241 		.ascii	"LORAMAC_STATUS_BUSY_BEACON_RESERVED_TIME\000"
 15568      4D41435F 
 15568      53544154 
 15568      55535F42 
 15568      5553595F 
 15569              	.LASF486:
 15570 107b 6E625265 		.ascii	"nbRepOut\000"
 15570      704F7574 
 15570      00
 15571              	.LASF259:
 15572 1084 5048595F 		.ascii	"PHY_DEF_ADR_ACK_DELAY\000"
 15572      4445465F 
 15572      4144525F 
 15572      41434B5F 
 15572      44454C41 
 15573              	.LASF128:
ARM GAS  C:\Users\EBANO_~1\AppData\Local\Temp\ccEfOEMG.s 			page 315


 15574 109a 5F776372 		.ascii	"_wcrtomb_state\000"
 15574      746F6D62 
 15574      5F737461 
 15574      746500
 15575              	.LASF362:
 15576 10a9 73547843 		.ascii	"sTxConfigParams\000"
 15576      6F6E6669 
 15576      67506172 
 15576      616D7300 
 15577              	.LASF165:
 15578 10b9 52616469 		.ascii	"RadioState_t\000"
 15578      6F537461 
 15578      74655F74 
 15578      00
 15579              	.LASF564:
 15580 10c6 6D656D73 		.ascii	"memset\000"
 15580      657400
 15581              	.LASF554:
 15582 10cd 52656769 		.ascii	"RegionCommonLinkAdrReqVerifyParams\000"
 15582      6F6E436F 
 15582      6D6D6F6E 
 15582      4C696E6B 
 15582      41647252 
 15583              	.LASF497:
 15584 10f0 7478506F 		.ascii	"txPower\000"
 15584      77657200 
 15585              	.LASF483:
 15586 10f8 6C696E6B 		.ascii	"linkAdrReq\000"
 15586      41647252 
 15586      657100
 15587              	.LASF330:
 15588 1103 4A6F696E 		.ascii	"Joined\000"
 15588      656400
 15589              	.LASF15:
 15590 110a 696E7438 		.ascii	"int8_t\000"
 15590      5F7400
 15591              	.LASF236:
 15592 1111 4C4F5241 		.ascii	"LORAMAC_STATUS_NO_FREE_CHANNEL_FOUND\000"
 15592      4D41435F 
 15592      53544154 
 15592      55535F4E 
 15592      4F5F4652 
 15593              	.LASF37:
 15594 1136 5F5F554C 		.ascii	"__ULong\000"
 15594      6F6E6700 
 15595              	.LASF297:
 15596 113e 5048595F 		.ascii	"PHY_BEACON_CHANNEL_DR\000"
 15596      42454143 
 15596      4F4E5F43 
 15596      48414E4E 
 15596      454C5F44 
 15597              	.LASF353:
 15598 1154 73527843 		.ascii	"sRxConfigParams\000"
 15598      6F6E6669 
 15598      67506172 
 15598      616D7300 
 15599              	.LASF144:
ARM GAS  C:\Users\EBANO_~1\AppData\Local\Temp\ccEfOEMG.s 			page 316


 15600 1164 4669656C 		.ascii	"Fields\000"
 15600      647300
 15601              	.LASF286:
 15602 116b 5048595F 		.ascii	"PHY_BEACON_WINDOW_SLOTS\000"
 15602      42454143 
 15602      4F4E5F57 
 15602      494E444F 
 15602      575F534C 
 15603              	.LASF113:
 15604 1183 5F737472 		.ascii	"_strtok_last\000"
 15604      746F6B5F 
 15604      6C617374 
 15604      00
 15605              	.LASF185:
 15606 1190 43686563 		.ascii	"CheckRfFrequency\000"
 15606      6B526646 
 15606      72657175 
 15606      656E6379 
 15606      00
 15607              	.LASF474:
 15608 11a1 646C4368 		.ascii	"dlChannelReq\000"
 15608      616E6E65 
 15608      6C526571 
 15608      00
 15609              	.LASF109:
 15610 11ae 5F736565 		.ascii	"_seed\000"
 15610      6400
 15611              	.LASF369:
 15612 11b4 5061796C 		.ascii	"PayloadSize\000"
 15612      6F616453 
 15612      697A6500 
 15613              	.LASF71:
 15614 11c0 5F736565 		.ascii	"_seek\000"
 15614      6B00
 15615              	.LASF210:
 15616 11c6 52783146 		.ascii	"Rx1Frequency\000"
 15616      72657175 
 15616      656E6379 
 15616      00
 15617              	.LASF17:
 15618 11d3 696E7431 		.ascii	"int16_t\000"
 15618      365F7400 
 15619              	.LASF299:
 15620 11db 5048595F 		.ascii	"PHY_BEACON_NB_CHANNELS\000"
 15620      42454143 
 15620      4F4E5F4E 
 15620      425F4348 
 15620      414E4E45 
 15621              	.LASF7:
 15622 11f2 73686F72 		.ascii	"short unsigned int\000"
 15622      7420756E 
 15622      7369676E 
 15622      65642069 
 15622      6E7400
 15623              	.LASF2:
 15624 1205 7369676E 		.ascii	"signed char\000"
 15624      65642063 
ARM GAS  C:\Users\EBANO_~1\AppData\Local\Temp\ccEfOEMG.s 			page 317


 15624      68617200 
 15625              	.LASF381:
 15626 1211 73547850 		.ascii	"sTxParamSetupReqParams\000"
 15626      6172616D 
 15626      53657475 
 15626      70526571 
 15626      50617261 
 15627              	.LASF338:
 15628 1228 4765744E 		.ascii	"GetNvmCtxParams_t\000"
 15628      766D4374 
 15628      78506172 
 15628      616D735F 
 15628      7400
 15629              	.LASF475:
 15630 123a 73746174 		.ascii	"status\000"
 15630      757300
 15631              	.LASF384:
 15632 1241 446C4368 		.ascii	"DlChannelReqParams_t\000"
 15632      616E6E65 
 15632      6C526571 
 15632      50617261 
 15632      6D735F74 
 15633              	.LASF535:
 15634 1256 4C696D69 		.ascii	"LimitTxPower\000"
 15634      74547850 
 15634      6F776572 
 15634      00
 15635              	.LASF400:
 15636 1263 4368616E 		.ascii	"ChannelAddParams_t\000"
 15636      6E656C41 
 15636      64645061 
 15636      72616D73 
 15636      5F7400
 15637              	.LASF175:
 15638 1276 496F496E 		.ascii	"IoInit\000"
 15638      697400
 15639              	.LASF95:
 15640 127d 5F667265 		.ascii	"_freelist\000"
 15640      656C6973 
 15640      7400
 15641              	.LASF429:
 15642 1287 42656163 		.ascii	"BeaconChannelBW\000"
 15642      6F6E4368 
 15642      616E6E65 
 15642      6C425700 
 15643              	.LASF76:
 15644 1297 5F6F6666 		.ascii	"_offset\000"
 15644      73657400 
 15645              	.LASF21:
 15646 129f 53797374 		.ascii	"SystemCoreClock\000"
 15646      656D436F 
 15646      7265436C 
 15646      6F636B00 
 15647              	.LASF326:
 15648 12af 446F776E 		.ascii	"DownlinkDwellTime\000"
 15648      6C696E6B 
 15648      4477656C 
ARM GAS  C:\Users\EBANO_~1\AppData\Local\Temp\ccEfOEMG.s 			page 318


 15648      6C54696D 
 15648      6500
 15649              	.LASF186:
 15650 12c1 54696D65 		.ascii	"TimeOnAir\000"
 15650      4F6E4169 
 15650      7200
 15651              	.LASF61:
 15652 12cb 5F5F7362 		.ascii	"__sbuf\000"
 15652      756600
 15653              	.LASF122:
 15654 12d2 5F6C3634 		.ascii	"_l64a_buf\000"
 15654      615F6275 
 15654      6600
 15655              	.LASF321:
 15656 12dc 50687950 		.ascii	"PhyParam_t\000"
 15656      6172616D 
 15656      5F7400
 15657              	.LASF328:
 15658 12e7 73536574 		.ascii	"sSetBandTxDoneParams\000"
 15658      42616E64 
 15658      5478446F 
 15658      6E655061 
 15658      72616D73 
 15659              	.LASF364:
 15660 12fc 416E7465 		.ascii	"AntennaGain\000"
 15660      6E6E6147 
 15660      61696E00 
 15661              	.LASF262:
 15662 1308 5048595F 		.ascii	"PHY_DUTY_CYCLE\000"
 15662      44555459 
 15662      5F435943 
 15662      4C4500
 15663              	.LASF114:
 15664 1317 5F617363 		.ascii	"_asctime_buf\000"
 15664      74696D65 
 15664      5F627566 
 15664      00
 15665              	.LASF498:
 15666 1324 74785469 		.ascii	"txTimeOnAir\000"
 15666      6D654F6E 
 15666      41697200 
 15667              	.LASF31:
 15668 1330 5F5F7763 		.ascii	"__wch\000"
 15668      6800
 15669              	.LASF454:
 15670 1336 6368616E 		.ascii	"channelAdd\000"
 15670      6E656C41 
 15670      646400
 15671              	.LASF129:
 15672 1341 5F776373 		.ascii	"_wcsrtombs_state\000"
 15672      72746F6D 
 15672      62735F73 
 15672      74617465 
 15672      00
 15673              	.LASF391:
 15674 1352 44757479 		.ascii	"DutyCycleEnabled\000"
 15674      4379636C 
ARM GAS  C:\Users\EBANO_~1\AppData\Local\Temp\ccEfOEMG.s 			page 319


 15674      65456E61 
 15674      626C6564 
 15674      00
 15675              	.LASF471:
 15676 1363 63757272 		.ascii	"currentDr\000"
 15676      656E7444 
 15676      7200
 15677              	.LASF437:
 15678 136d 73526567 		.ascii	"sRegionIN865NvmCtx\000"
 15678      696F6E49 
 15678      4E383635 
 15678      4E766D43 
 15678      747800
 15679              	.LASF560:
 15680 1380 52656769 		.ascii	"RegionCommonSetBandTxDone\000"
 15680      6F6E436F 
 15680      6D6D6F6E 
 15680      53657442 
 15680      616E6454 
 15681              	.LASF450:
 15682 139a 7478506F 		.ascii	"txPowerLimited\000"
 15682      7765724C 
 15682      696D6974 
 15682      656400
 15683              	.LASF547:
 15684 13a9 54696D65 		.ascii	"TimerGetElapsedTime\000"
 15684      72476574 
 15684      456C6170 
 15684      73656454 
 15684      696D6500 
 15685              	.LASF505:
 15686 13bd 6D617850 		.ascii	"maxPayload\000"
 15686      61796C6F 
 15686      616400
 15687              	.LASF529:
 15688 13c8 6368616E 		.ascii	"channelsMask\000"
 15688      6E656C73 
 15688      4D61736B 
 15688      00
 15689              	.LASF9:
 15690 13d5 6C6F6E67 		.ascii	"long int\000"
 15690      20696E74 
 15690      00
 15691              	.LASF121:
 15692 13de 5F776374 		.ascii	"_wctomb_state\000"
 15692      6F6D625F 
 15692      73746174 
 15692      6500
 15693              	.LASF422:
 15694 13ec 52656769 		.ascii	"RegionCommonLinkAdrReqVerifyParams_t\000"
 15694      6F6E436F 
 15694      6D6D6F6E 
 15694      4C696E6B 
 15694      41647252 
 15695              	.LASF372:
 15696 1411 43757272 		.ascii	"CurrentTxPower\000"
 15696      656E7454 
ARM GAS  C:\Users\EBANO_~1\AppData\Local\Temp\ccEfOEMG.s 			page 320


 15696      78506F77 
 15696      657200
 15697              	.LASF424:
 15698 1420 42616E64 		.ascii	"Bands\000"
 15698      7300
 15699              	.LASF308:
 15700 1426 4348414E 		.ascii	"CHANNELS_MASK\000"
 15700      4E454C53 
 15700      5F4D4153 
 15700      4B00
 15701              	.LASF533:
 15702 1434 56657269 		.ascii	"VerifyRfFreq\000"
 15702      66795266 
 15702      46726571 
 15702      00
 15703              	.LASF107:
 15704 1441 5F696F62 		.ascii	"_iobs\000"
 15704      7300
 15705              	.LASF87:
 15706 1447 5F656D65 		.ascii	"_emergency\000"
 15706      7267656E 
 15706      637900
 15707              	.LASF507:
 15708 1452 6D696E52 		.ascii	"minRxSymbols\000"
 15708      7853796D 
 15708      626F6C73 
 15708      00
 15709              	.LASF131:
 15710 145f 5F6E6578 		.ascii	"_nextf\000"
 15710      746600
 15711              	.LASF117:
 15712 1466 5F72616E 		.ascii	"_rand_next\000"
 15712      645F6E65 
 15712      787400
 15713              	.LASF451:
 15714 1471 52656769 		.ascii	"RegionIN865ChannelsRemove\000"
 15714      6F6E494E 
 15714      38363543 
 15714      68616E6E 
 15714      656C7352 
 15715              	.LASF520:
 15716 148b 70687941 		.ascii	"phyAttribute\000"
 15716      74747269 
 15716      62757465 
 15716      00
 15717              	.LASF521:
 15718 1498 52656769 		.ascii	"RegionIN865GetNvmCtx\000"
 15718      6F6E494E 
 15718      38363547 
 15718      65744E76 
 15718      6D437478 
 15719              	.LASF20:
 15720 14ad 75696E74 		.ascii	"uint32_t\000"
 15720      33325F74 
 15720      00
 15721              	.LASF416:
 15722 14b6 53746174 		.ascii	"Status\000"
ARM GAS  C:\Users\EBANO_~1\AppData\Local\Temp\ccEfOEMG.s 			page 321


 15722      757300
 15723              	.LASF558:
 15724 14bd 52656769 		.ascii	"RegionCommonComputeSymbolTimeFsk\000"
 15724      6F6E436F 
 15724      6D6D6F6E 
 15724      436F6D70 
 15724      75746553 
 15725              	.LASF405:
 15726 14de 436F6E74 		.ascii	"ContinuousWaveParams_t\000"
 15726      696E756F 
 15726      75735761 
 15726      76655061 
 15726      72616D73 
 15727              	.LASF39:
 15728 14f5 5F6D6178 		.ascii	"_maxwds\000"
 15728      77647300 
 15729              	.LASF524:
 15730 14fd 62616E64 		.ascii	"bands\000"
 15730      7300
 15731              	.LASF191:
 15732 1503 53657454 		.ascii	"SetTxContinuousWave\000"
 15732      78436F6E 
 15732      74696E75 
 15732      6F757357 
 15732      61766500 
 15733              	.LASF432:
 15734 1517 44617461 		.ascii	"DataratesIN865\000"
 15734      72617465 
 15734      73494E38 
 15734      363500
 15735              	.LASF26:
 15736 1526 6C6F6E67 		.ascii	"long double\000"
 15736      20646F75 
 15736      626C6500 
 15737              	.LASF506:
 15738 1532 52656769 		.ascii	"RegionIN865ComputeRxWindowParameters\000"
 15738      6F6E494E 
 15738      38363543 
 15738      6F6D7075 
 15738      74655278 
 15739              	.LASF138:
 15740 1557 7375626F 		.ascii	"suboptarg\000"
 15740      70746172 
 15740      6700
 15741              	.LASF275:
 15742 1561 5048595F 		.ascii	"PHY_MAX_NB_CHANNELS\000"
 15742      4D41585F 
 15742      4E425F43 
 15742      48414E4E 
 15742      454C5300 
 15743              	.LASF382:
 15744 1575 54785061 		.ascii	"TxParamSetupReqParams_t\000"
 15744      72616D53 
 15744      65747570 
 15744      52657150 
 15744      6172616D 
 15745              	.LASF11:
ARM GAS  C:\Users\EBANO_~1\AppData\Local\Temp\ccEfOEMG.s 			page 322


 15746 158d 6C6F6E67 		.ascii	"long unsigned int\000"
 15746      20756E73 
 15746      69676E65 
 15746      6420696E 
 15746      7400
 15747              	.LASF438:
 15748 159f 4368616E 		.ascii	"ChannelsDefaultMask\000"
 15748      6E656C73 
 15748      44656661 
 15748      756C744D 
 15748      61736B00 
 15749              	.LASF556:
 15750 15b3 52656769 		.ascii	"RegionCommonComputeSymbolTimeLoRa\000"
 15750      6F6E436F 
 15750      6D6D6F6E 
 15750      436F6D70 
 15750      75746553 
 15751              	.LASF439:
 15752 15d5 52656769 		.ascii	"RegionIN865NvmCtx_t\000"
 15752      6F6E494E 
 15752      3836354E 
 15752      766D4374 
 15752      785F7400 
 15753              	.LASF467:
 15754 15e9 52656769 		.ascii	"RegionIN865CalcBackOff\000"
 15754      6F6E494E 
 15754      38363543 
 15754      616C6342 
 15754      61636B4F 
 15755              	.LASF307:
 15756 1600 65436861 		.ascii	"eChannelsMask\000"
 15756      6E6E656C 
 15756      734D6173 
 15756      6B00
 15757              	.LASF181:
 15758 160e 49734368 		.ascii	"IsChannelFree\000"
 15758      616E6E65 
 15758      6C467265 
 15758      6500
 15759              	.LASF72:
 15760 161c 5F636C6F 		.ascii	"_close\000"
 15760      736500
 15761              	.LASF198:
 15762 1623 53657450 		.ascii	"SetPublicNetwork\000"
 15762      75626C69 
 15762      634E6574 
 15762      776F726B 
 15762      00
 15763              	.LASF103:
 15764 1634 63686172 		.ascii	"char\000"
 15764      00
 15765              	.LASF280:
 15766 1639 5048595F 		.ascii	"PHY_DEF_ANTENNA_GAIN\000"
 15766      4445465F 
 15766      414E5445 
 15766      4E4E415F 
 15766      4741494E 
ARM GAS  C:\Users\EBANO_~1\AppData\Local\Temp\ccEfOEMG.s 			page 323


 15767              	.LASF164:
 15768 164e 52465F43 		.ascii	"RF_CAD\000"
 15768      414400
 15769              	.LASF105:
 15770 1655 5F676C75 		.ascii	"_glue\000"
 15770      6500
 15771              	.LASF463:
 15772 165b 6E62456E 		.ascii	"nbEnabledChannels\000"
 15772      61626C65 
 15772      64436861 
 15772      6E6E656C 
 15772      7300
 15773              	.LASF394:
 15774 166d 43616C63 		.ascii	"CalcBackOffParams_t\000"
 15774      4261636B 
 15774      4F666650 
 15774      6172616D 
 15774      735F7400 
 15775              	.LASF23:
 15776 1681 41504250 		.ascii	"APBPrescTable\000"
 15776      72657363 
 15776      5461626C 
 15776      6500
 15777              	.LASF200:
 15778 168f 49727150 		.ascii	"IrqProcess\000"
 15778      726F6365 
 15778      737300
 15779              	.LASF544:
 15780 169a 52656769 		.ascii	"RegionCommonComputeTxPower\000"
 15780      6F6E436F 
 15780      6D6D6F6E 
 15780      436F6D70 
 15780      75746554 
 15781              	.LASF545:
 15782 16b5 52656769 		.ascii	"RegionCommonValueInRange\000"
 15782      6F6E436F 
 15782      6D6D6F6E 
 15782      56616C75 
 15782      65496E52 
 15783              	.LASF253:
 15784 16ce 5048595F 		.ascii	"PHY_DEF_TX_DR\000"
 15784      4445465F 
 15784      54585F44 
 15784      5200
 15785              	.LASF227:
 15786 16dc 4C4F5241 		.ascii	"LORAMAC_STATUS_FREQUENCY_INVALID\000"
 15786      4D41435F 
 15786      53544154 
 15786      55535F46 
 15786      52455155 
 15787              	.LASF466:
 15788 16fd 6E657874 		.ascii	"nextTxDelay\000"
 15788      54784465 
 15788      6C617900 
 15789              	.LASF528:
 15790 1709 6A6F696E 		.ascii	"joined\000"
 15790      656400
ARM GAS  C:\Users\EBANO_~1\AppData\Local\Temp\ccEfOEMG.s 			page 324


 15791              	.LASF433:
 15792 1710 42616E64 		.ascii	"BandwidthsIN865\000"
 15792      77696474 
 15792      6873494E 
 15792      38363500 
 15793              	.LASF42:
 15794 1720 5F426967 		.ascii	"_Bigint\000"
 15794      696E7400 
 15795              	.LASF386:
 15796 1728 414C5445 		.ascii	"ALTERNATE_DR\000"
 15796      524E4154 
 15796      455F4452 
 15796      00
 15797              	.LASF538:
 15798 1735 47657442 		.ascii	"GetBandwidth\000"
 15798      616E6477 
 15798      69647468 
 15798      00
 15799              	.LASF256:
 15800 1742 5048595F 		.ascii	"PHY_TX_POWER\000"
 15800      54585F50 
 15800      4F574552 
 15800      00
 15801              	.LASF180:
 15802 174f 53657443 		.ascii	"SetChannel\000"
 15802      68616E6E 
 15802      656C00
 15803              	.LASF316:
 15804 175a 75506879 		.ascii	"uPhyParam\000"
 15804      50617261 
 15804      6D00
 15805              	.LASF485:
 15806 1764 7478506F 		.ascii	"txPowOut\000"
 15806      774F7574 
 15806      00
 15807              	.LASF99:
 15808 176d 5F617465 		.ascii	"_atexit0\000"
 15808      78697430 
 15808      00
 15809              	.LASF525:
 15810 1776 52656769 		.ascii	"RegionIN865SetBandTxDone\000"
 15810      6F6E494E 
 15810      38363553 
 15810      65744261 
 15810      6E645478 
 15811              	.LASF350:
 15812 178f 4368616E 		.ascii	"ChannelsMaskIn\000"
 15812      6E656C73 
 15812      4D61736B 
 15812      496E00
 15813              	.LASF223:
 15814 179e 4C4F5241 		.ascii	"LORAMAC_STATUS_OK\000"
 15814      4D41435F 
 15814      53544154 
 15814      55535F4F 
 15814      4B00
 15815              	.LASF257:
ARM GAS  C:\Users\EBANO_~1\AppData\Local\Temp\ccEfOEMG.s 			page 325


 15816 17b0 5048595F 		.ascii	"PHY_DEF_TX_POWER\000"
 15816      4445465F 
 15816      54585F50 
 15816      4F574552 
 15816      00
 15817              	.LASF124:
 15818 17c1 5F676574 		.ascii	"_getdate_err\000"
 15818      64617465 
 15818      5F657272 
 15818      00
 15819              	.LASF555:
 15820 17ce 6D656D73 		.ascii	"memset1\000"
 15820      65743100 
 15821              	.LASF295:
 15822 17d6 5048595F 		.ascii	"PHY_BEACON_CHANNEL_FREQ\000"
 15822      42454143 
 15822      4F4E5F43 
 15822      48414E4E 
 15822      454C5F46 
 15823              	.LASF282:
 15824 17ee 5048595F 		.ascii	"PHY_BEACON_INTERVAL\000"
 15824      42454143 
 15824      4F4E5F49 
 15824      4E544552 
 15824      56414C00 
 15825              	.LASF277:
 15826 1802 5048595F 		.ascii	"PHY_DEF_UPLINK_DWELL_TIME\000"
 15826      4445465F 
 15826      55504C49 
 15826      4E4B5F44 
 15826      57454C4C 
 15827              	.LASF309:
 15828 181c 4348414E 		.ascii	"CHANNELS_DEFAULT_MASK\000"
 15828      4E454C53 
 15828      5F444546 
 15828      41554C54 
 15828      5F4D4153 
 15829              	.LASF268:
 15830 1832 5048595F 		.ascii	"PHY_MAX_FCNT_GAP\000"
 15830      4D41585F 
 15830      46434E54 
 15830      5F474150 
 15830      00
 15831              	.LASF332:
 15832 1843 73496E69 		.ascii	"sInitDefaultsParams\000"
 15832      74446566 
 15832      61756C74 
 15832      73506172 
 15832      616D7300 
 15833              	.LASF423:
 15834 1857 73526567 		.ascii	"sRegionCommonCalcBackOffParams\000"
 15834      696F6E43 
 15834      6F6D6D6F 
 15834      6E43616C 
 15834      63426163 
 15835              	.LASF452:
 15836 1876 52656769 		.ascii	"RegionIN865ChannelAdd\000"
ARM GAS  C:\Users\EBANO_~1\AppData\Local\Temp\ccEfOEMG.s 			page 326


 15836      6F6E494E 
 15836      38363543 
 15836      68616E6E 
 15836      656C4164 
 15837              	.LASF136:
 15838 188c 5F696D70 		.ascii	"_impure_ptr\000"
 15838      7572655F 
 15838      70747200 
 15839              	.LASF75:
 15840 1898 5F626C6B 		.ascii	"_blksize\000"
 15840      73697A65 
 15840      00
 15841              	.LASF459:
 15842 18a1 6E657874 		.ascii	"nextChanParams\000"
 15842      4368616E 
 15842      50617261 
 15842      6D7300
 15843              	.LASF73:
 15844 18b0 5F756275 		.ascii	"_ubuf\000"
 15844      6600
 15845              	.LASF492:
 15846 18b6 67657450 		.ascii	"getPhy\000"
 15846      687900
 15847              	.LASF279:
 15848 18bd 5048595F 		.ascii	"PHY_DEF_MAX_EIRP\000"
 15848      4445465F 
 15848      4D41585F 
 15848      45495250 
 15848      00
 15849              	.LASF119:
 15850 18ce 5F6D626C 		.ascii	"_mblen_state\000"
 15850      656E5F73 
 15850      74617465 
 15850      00
 15851              	.LASF101:
 15852 18db 5F5F7367 		.ascii	"__sglue\000"
 15852      6C756500 
 15853              	.LASF135:
 15854 18e3 5F5F6C6F 		.ascii	"__locale_t\000"
 15854      63616C65 
 15854      5F7400
 15855              	.LASF484:
 15856 18ee 64724F75 		.ascii	"drOut\000"
 15856      7400
 15857              	.LASF91:
 15858 18f4 5F5F636C 		.ascii	"__cleanup\000"
 15858      65616E75 
 15858      7000
 15859              	.LASF508:
 15860 18fe 72784572 		.ascii	"rxError\000"
 15860      726F7200 
 15861              	.LASF214:
 15862 1906 52585F53 		.ascii	"RX_SLOT_WIN_1\000"
 15862      4C4F545F 
 15862      57494E5F 
 15862      3100
 15863              	.LASF215:
ARM GAS  C:\Users\EBANO_~1\AppData\Local\Temp\ccEfOEMG.s 			page 327


 15864 1914 52585F53 		.ascii	"RX_SLOT_WIN_2\000"
 15864      4C4F545F 
 15864      57494E5F 
 15864      3200
 15865              	.LASF302:
 15866 1922 65496E69 		.ascii	"eInitType\000"
 15866      74547970 
 15866      6500
 15867              	.LASF24:
 15868 192c 504C4C4D 		.ascii	"PLLMulTable\000"
 15868      756C5461 
 15868      626C6500 
 15869              	.LASF550:
 15870 1938 52656769 		.ascii	"RegionCommonCalcBackOff\000"
 15870      6F6E436F 
 15870      6D6D6F6E 
 15870      43616C63 
 15870      4261636B 
 15871              	.LASF29:
 15872 1950 5F66706F 		.ascii	"_fpos_t\000"
 15872      735F7400 
 15873              	.LASF516:
 15874 1958 6E657743 		.ascii	"newChannel\000"
 15874      68616E6E 
 15874      656C00
 15875              	.LASF329:
 15876 1963 4368616E 		.ascii	"Channel\000"
 15876      6E656C00 
 15877              	.LASF66:
 15878 196b 5F66696C 		.ascii	"_file\000"
 15878      6500
 15879              	.LASF208:
 15880 1971 73436861 		.ascii	"sChannelParams\000"
 15880      6E6E656C 
 15880      50617261 
 15880      6D7300
 15881              	.LASF64:
 15882 1980 5F5F7346 		.ascii	"__sFILE\000"
 15882      494C4500 
 15883              	.LASF501:
 15884 1988 62616E64 		.ascii	"bandwidth\000"
 15884      77696474 
 15884      6800
 15885              	.LASF511:
 15886 1992 646F7562 		.ascii	"double\000"
 15886      6C6500
 15887              	.LASF60:
 15888 1999 5F666E73 		.ascii	"_fns\000"
 15888      00
 15889              	.LASF478:
 15890 199e 52656769 		.ascii	"RegionIN865NewChannelReq\000"
 15890      6F6E494E 
 15890      3836354E 
 15890      65774368 
 15890      616E6E65 
 15891              	.LASF351:
 15892 19b7 4368616E 		.ascii	"ChannelsMaskType\000"
ARM GAS  C:\Users\EBANO_~1\AppData\Local\Temp\ccEfOEMG.s 			page 328


 15892      6E656C73 
 15892      4D61736B 
 15892      54797065 
 15892      00
 15893              	.LASF35:
 15894 19c8 5F6D6273 		.ascii	"_mbstate_t\000"
 15894      74617465 
 15894      5F7400
 15895              	.LASF130:
 15896 19d3 5F685F65 		.ascii	"_h_errno\000"
 15896      72726E6F 
 15896      00
 15897              	.LASF315:
 15898 19dc 42656163 		.ascii	"BeaconFormat_t\000"
 15898      6F6E466F 
 15898      726D6174 
 15898      5F7400
 15899              	.LASF8:
 15900 19eb 5F5F696E 		.ascii	"__int32_t\000"
 15900      7433325F 
 15900      7400
 15901              	.LASF503:
 15902 19f5 7278436F 		.ascii	"rxConfig\000"
 15902      6E666967 
 15902      00
 15903              	.LASF10:
 15904 19fe 5F5F7569 		.ascii	"__uint32_t\000"
 15904      6E743332 
 15904      5F7400
 15905              	.LASF482:
 15906 1a09 52656769 		.ascii	"RegionIN865LinkAdrReq\000"
 15906      6F6E494E 
 15906      3836354C 
 15906      696E6B41 
 15906      64725265 
 15907              	.LASF269:
 15908 1a1f 5048595F 		.ascii	"PHY_ACK_TIMEOUT\000"
 15908      41434B5F 
 15908      54494D45 
 15908      4F555400 
 15909              	.LASF325:
 15910 1a2f 55706C69 		.ascii	"UplinkDwellTime\000"
 15910      6E6B4477 
 15910      656C6C54 
 15910      696D6500 
 15911              	.LASF510:
 15912 1a3f 7453796D 		.ascii	"tSymbol\000"
 15912      626F6C00 
 15913              	.LASF34:
 15914 1a47 5F5F7661 		.ascii	"__value\000"
 15914      6C756500 
 15915              	.LASF465:
 15916 1a4f 656E6162 		.ascii	"enabledChannels\000"
 15916      6C656443 
 15916      68616E6E 
 15916      656C7300 
 15917              	.LASF57:
ARM GAS  C:\Users\EBANO_~1\AppData\Local\Temp\ccEfOEMG.s 			page 329


 15918 1a5f 5F69735F 		.ascii	"_is_cxa\000"
 15918      63786100 
 15919              	.LASF235:
 15920 1a67 4C4F5241 		.ascii	"LORAMAC_STATUS_NO_CHANNEL_FOUND\000"
 15920      4D41435F 
 15920      53544154 
 15920      55535F4E 
 15920      4F5F4348 
 15921              	.LASF443:
 15922 1a87 646F776E 		.ascii	"downlinkDwellTime\000"
 15922      6C696E6B 
 15922      4477656C 
 15922      6C54696D 
 15922      6500
 15923              	.LASF94:
 15924 1a99 5F703573 		.ascii	"_p5s\000"
 15924      00
 15925              	.LASF341:
 15926 1a9e 5478506F 		.ascii	"TxPower\000"
 15926      77657200 
 15927              	.LASF163:
 15928 1aa6 52465F54 		.ascii	"RF_TX_RUNNING\000"
 15928      585F5255 
 15928      4E4E494E 
 15928      4700
 15929              	.LASF261:
 15930 1ab4 5048595F 		.ascii	"PHY_MAX_PAYLOAD_REPEATER\000"
 15930      4D41585F 
 15930      5041594C 
 15930      4F41445F 
 15930      52455045 
 15931              	.LASF294:
 15932 1acd 5048595F 		.ascii	"PHY_BEACON_DELAY_BEACON_TIMING_ANS\000"
 15932      42454143 
 15932      4F4E5F44 
 15932      454C4159 
 15932      5F424541 
 15933              	.LASF354:
 15934 1af0 42616E64 		.ascii	"Bandwidth\000"
 15934      77696474 
 15934      6800
 15935              	.LASF342:
 15936 1afa 44757479 		.ascii	"DutyCycle\000"
 15936      4379636C 
 15936      6500
 15937              	.LASF317:
 15938 1b04 6656616C 		.ascii	"fValue\000"
 15938      756500
 15939              	.LASF139:
 15940 1b0b 54696D65 		.ascii	"TimerTime_t\000"
 15940      7254696D 
 15940      655F7400 
 15941              	.LASF410:
 15942 1b17 73526567 		.ascii	"sRegionCommonLinkAdrParams\000"
 15942      696F6E43 
 15942      6F6D6D6F 
 15942      6E4C696E 
ARM GAS  C:\Users\EBANO_~1\AppData\Local\Temp\ccEfOEMG.s 			page 330


 15942      6B416472 
 15943              	.LASF359:
 15944 1b32 5278436F 		.ascii	"RxContinuous\000"
 15944      6E74696E 
 15944      756F7573 
 15944      00
 15945              	.LASF305:
 15946 1b3f 494E4954 		.ascii	"INIT_TYPE_RESTORE_CTX\000"
 15946      5F545950 
 15946      455F5245 
 15946      53544F52 
 15946      455F4354 
 15947              	.LASF480:
 15948 1b55 52656769 		.ascii	"RegionIN865RxParamSetupReq\000"
 15948      6F6E494E 
 15948      38363552 
 15948      78506172 
 15948      616D5365 
 15949              	.LASF425:
 15950 1b70 52656769 		.ascii	"RegionCommonCalcBackOffParams_t\000"
 15950      6F6E436F 
 15950      6D6D6F6E 
 15950      43616C63 
 15950      4261636B 
 15951              	.LASF252:
 15952 1b90 5048595F 		.ascii	"PHY_TX_DR\000"
 15952      54585F44 
 15952      5200
 15953              	.LASF496:
 15954 1b9a 7478436F 		.ascii	"txConfig\000"
 15954      6E666967 
 15954      00
 15955              	.LASF388:
 15956 1ba3 416C7465 		.ascii	"AlternateDrType_t\000"
 15956      726E6174 
 15956      65447254 
 15956      7970655F 
 15956      7400
 15957              	.LASF155:
 15958 1bb5 5F74696D 		.ascii	"_timezone\000"
 15958      657A6F6E 
 15958      6500
 15959              	.LASF250:
 15960 1bbf 5048595F 		.ascii	"PHY_MAX_RX_DR\000"
 15960      4D41585F 
 15960      52585F44 
 15960      5200
 15961              	.LASF192:
 15962 1bcd 52737369 		.ascii	"Rssi\000"
 15962      00
 15963              	.LASF159:
 15964 1bd2 4D4F4445 		.ascii	"MODEM_LORA\000"
 15964      4D5F4C4F 
 15964      524100
 15965              	.LASF13:
 15966 1bdd 6C6F6E67 		.ascii	"long long unsigned int\000"
 15966      206C6F6E 
ARM GAS  C:\Users\EBANO_~1\AppData\Local\Temp\ccEfOEMG.s 			page 331


 15966      6720756E 
 15966      7369676E 
 15966      65642069 
 15967              	.LASF543:
 15968 1bf4 52656769 		.ascii	"RegionCommonRxBeaconSetup\000"
 15968      6F6E436F 
 15968      6D6D6F6E 
 15968      52784265 
 15968      61636F6E 
 15969              	.LASF494:
 15970 1c0e 6C696E6B 		.ascii	"linkAdrVerifyParams\000"
 15970      41647256 
 15970      65726966 
 15970      79506172 
 15970      616D7300 
 15971              	.LASF446:
 15972 1c22 52656769 		.ascii	"RegionIN865SetContinuousWave\000"
 15972      6F6E494E 
 15972      38363553 
 15972      6574436F 
 15972      6E74696E 
 15973              	.LASF116:
 15974 1c3f 5F67616D 		.ascii	"_gamma_signgam\000"
 15974      6D615F73 
 15974      69676E67 
 15974      616D00
 15975              	.LASF151:
 15976 1c4e 4C617374 		.ascii	"LastJoinTxDoneTime\000"
 15976      4A6F696E 
 15976      5478446F 
 15976      6E655469 
 15976      6D6500
 15977              	.LASF177:
 15978 1c61 496E6974 		.ascii	"Init\000"
 15978      00
 15979              	.LASF440:
 15980 1c66 72784265 		.ascii	"rxBeaconSetup\000"
 15980      61636F6E 
 15980      53657475 
 15980      7000
 15981              	.LASF401:
 15982 1c74 73436861 		.ascii	"sChannelRemoveParams\000"
 15982      6E6E656C 
 15982      52656D6F 
 15982      76655061 
 15982      72616D73 
 15983              	.LASF403:
 15984 1c89 73436F6E 		.ascii	"sContinuousWaveParams\000"
 15984      74696E75 
 15984      6F757357 
 15984      61766550 
 15984      6172616D 
 15985              	.LASF244:
 15986 1c9f 4C4F5241 		.ascii	"LORAMAC_STATUS_CONFIRM_QUEUE_ERROR\000"
 15986      4D41435F 
 15986      53544154 
 15986      55535F43 
ARM GAS  C:\Users\EBANO_~1\AppData\Local\Temp\ccEfOEMG.s 			page 332


 15986      4F4E4649 
 15987              	.LASF273:
 15988 1cc2 5048595F 		.ascii	"PHY_CHANNELS_MASK\000"
 15988      4348414E 
 15988      4E454C53 
 15988      5F4D4153 
 15988      4B00
 15989              	.LASF143:
 15990 1cd4 4D616A6F 		.ascii	"Major\000"
 15990      7200
 15991              	.LASF209:
 15992 1cda 46726571 		.ascii	"Frequency\000"
 15992      75656E63 
 15992      7900
 15993              	.LASF531:
 15994 1ce4 64656C61 		.ascii	"delayTransmission\000"
 15994      79547261 
 15994      6E736D69 
 15994      7373696F 
 15994      6E00
 15995              	.LASF137:
 15996 1cf6 5F676C6F 		.ascii	"_global_impure_ptr\000"
 15996      62616C5F 
 15996      696D7075 
 15996      72655F70 
 15996      747200
 15997              	.LASF407:
 15998 1d09 53796D62 		.ascii	"SymbolTimeout\000"
 15998      6F6C5469 
 15998      6D656F75 
 15998      7400
 15999              	.LASF88:
 16000 1d17 5F756E73 		.ascii	"_unspecified_locale_info\000"
 16000      70656369 
 16000      66696564 
 16000      5F6C6F63 
 16000      616C655F 
 16001              	.LASF378:
 16002 1d30 4E657743 		.ascii	"NewChannel\000"
 16002      68616E6E 
 16002      656C00
 16003              	.LASF530:
 16004 1d3b 6368616E 		.ascii	"channels\000"
 16004      6E656C73 
 16004      00
 16005              	.LASF304:
 16006 1d44 494E4954 		.ascii	"INIT_TYPE_RESTORE_DEFAULT_CHANNELS\000"
 16006      5F545950 
 16006      455F5245 
 16006      53544F52 
 16006      455F4445 
 16007              	.LASF90:
 16008 1d67 5F5F7364 		.ascii	"__sdidinit\000"
 16008      6964696E 
 16008      697400
 16009              	.LASF477:
 16010 1d72 74785061 		.ascii	"txParamSetupReq\000"
ARM GAS  C:\Users\EBANO_~1\AppData\Local\Temp\ccEfOEMG.s 			page 333


 16010      72616D53 
 16010      65747570 
 16010      52657100 
 16011              	.LASF318:
 16012 1d82 4368616E 		.ascii	"ChannelsMask\000"
 16012      6E656C73 
 16012      4D61736B 
 16012      00
 16013              	.LASF187:
 16014 1d8f 53656E64 		.ascii	"Send\000"
 16014      00
 16015              	.LASF300:
 16016 1d94 5048595F 		.ascii	"PHY_PING_SLOT_CHANNEL_DR\000"
 16016      50494E47 
 16016      5F534C4F 
 16016      545F4348 
 16016      414E4E45 
 16017              	.LASF324:
 16018 1dad 44617461 		.ascii	"Datarate\000"
 16018      72617465 
 16018      00
 16019              	.LASF36:
 16020 1db6 5F666C6F 		.ascii	"_flock_t\000"
 16020      636B5F74 
 16020      00
 16021              	.LASF542:
 16022 1dbf 6E657874 		.ascii	"nextLowerDr\000"
 16022      4C6F7765 
 16022      72447200 
 16023              	.LASF239:
 16024 1dcb 4C4F5241 		.ascii	"LORAMAC_STATUS_BUSY_UPLINK_COLLISION\000"
 16024      4D41435F 
 16024      53544154 
 16024      55535F42 
 16024      5553595F 
 16025              	.LASF499:
 16026 1df0 6D6F6465 		.ascii	"modem\000"
 16026      6D00
 16027              	.LASF173:
 16028 1df6 52616469 		.ascii	"RadioEvents_t\000"
 16028      6F457665 
 16028      6E74735F 
 16028      7400
 16029              	.LASF488:
 16030 1e04 6C696E6B 		.ascii	"linkAdrParams\000"
 16030      41647250 
 16030      6172616D 
 16030      7300
 16031              	.LASF442:
 16032 1e12 72656769 		.ascii	"regionCommonRxBeaconSetup\000"
 16032      6F6E436F 
 16032      6D6D6F6E 
 16032      52784265 
 16032      61636F6E 
 16033              	.LASF246:
 16034 1e2c 4C6F5261 		.ascii	"LoRaMacStatus_t\000"
 16034      4D616353 
ARM GAS  C:\Users\EBANO_~1\AppData\Local\Temp\ccEfOEMG.s 			page 334


 16034      74617475 
 16034      735F7400 
 16035              	.LASF373:
 16036 1e3c 43757272 		.ascii	"CurrentNbRep\000"
 16036      656E744E 
 16036      62526570 
 16036      00
 16037              	.LASF12:
 16038 1e49 6C6F6E67 		.ascii	"long long int\000"
 16038      206C6F6E 
 16038      6720696E 
 16038      7400
 16039              	.LASF229:
 16040 1e57 4C4F5241 		.ascii	"LORAMAC_STATUS_FREQ_AND_DR_INVALID\000"
 16040      4D41435F 
 16040      53544154 
 16040      55535F46 
 16040      5245515F 
 16041              	.LASF243:
 16042 1e7a 4C4F5241 		.ascii	"LORAMAC_STATUS_CLASS_B_ERROR\000"
 16042      4D41435F 
 16042      53544154 
 16042      55535F43 
 16042      4C415353 
 16043              	.LASF80:
 16044 1e97 5F666C61 		.ascii	"_flags2\000"
 16044      67733200 
 16045              	.LASF293:
 16046 1e9f 5048595F 		.ascii	"PHY_MAX_BEACON_LESS_PERIOD\000"
 16046      4D41585F 
 16046      42454143 
 16046      4F4E5F4C 
 16046      4553535F 
 16047              	.LASF172:
 16048 1eba 43616444 		.ascii	"CadDone\000"
 16048      6F6E6500 
 16049              	.LASF89:
 16050 1ec2 5F6C6F63 		.ascii	"_locale\000"
 16050      616C6500 
 16051              	.LASF228:
 16052 1eca 4C4F5241 		.ascii	"LORAMAC_STATUS_DATARATE_INVALID\000"
 16052      4D41435F 
 16052      53544154 
 16052      55535F44 
 16052      41544152 
 16053              	.LASF349:
 16054 1eea 73436861 		.ascii	"sChanMaskSetParams\000"
 16054      6E4D6173 
 16054      6B536574 
 16054      50617261 
 16054      6D7300
 16055              	.LASF22:
 16056 1efd 41484250 		.ascii	"AHBPrescTable\000"
 16056      72657363 
 16056      5461626C 
 16056      6500
 16057              	.LASF276:
ARM GAS  C:\Users\EBANO_~1\AppData\Local\Temp\ccEfOEMG.s 			page 335


 16058 1f0b 5048595F 		.ascii	"PHY_CHANNELS\000"
 16058      4348414E 
 16058      4E454C53 
 16058      00
 16059              	.LASF469:
 16060 1f18 63616C63 		.ascii	"calcBackOffParams\000"
 16060      4261636B 
 16060      4F666650 
 16060      6172616D 
 16060      7300
 16061              	.LASF333:
 16062 1f2a 4E766D43 		.ascii	"NvmCtx\000"
 16062      747800
 16063              	.LASF409:
 16064 1f31 52784265 		.ascii	"RxBeaconSetup_t\000"
 16064      61636F6E 
 16064      53657475 
 16064      705F7400 
 16065              	.LASF204:
 16066 1f41 73466965 		.ascii	"sFields\000"
 16066      6C647300 
 16067              	.LASF557:
 16068 1f49 52656769 		.ascii	"RegionCommonComputeRxWindowParameters\000"
 16068      6F6E436F 
 16068      6D6D6F6E 
 16068      436F6D70 
 16068      75746552 
 16069              	.LASF199:
 16070 1f6f 47657457 		.ascii	"GetWakeupTime\000"
 16070      616B6575 
 16070      7054696D 
 16070      6500
 16071              	.LASF457:
 16072 1f7d 52656769 		.ascii	"RegionIN865ApplyDrOffset\000"
 16072      6F6E494E 
 16072      38363541 
 16072      70706C79 
 16072      44724F66 
 16073              	.LASF395:
 16074 1f96 734E6578 		.ascii	"sNextChanParams\000"
 16074      74436861 
 16074      6E506172 
 16074      616D7300 
 16075              	.LASF431:
 16076 1fa6 4C6F5261 		.ascii	"LoRaMacMaxEirpTable\000"
 16076      4D61634D 
 16076      61784569 
 16076      72705461 
 16076      626C6500 
 16077              	.LASF383:
 16078 1fba 73446C43 		.ascii	"sDlChannelReqParams\000"
 16078      68616E6E 
 16078      656C5265 
 16078      71506172 
 16078      616D7300 
 16079              	.LASF374:
 16080 1fce 4C696E6B 		.ascii	"LinkAdrReqParams_t\000"
ARM GAS  C:\Users\EBANO_~1\AppData\Local\Temp\ccEfOEMG.s 			page 336


 16080      41647252 
 16080      65715061 
 16080      72616D73 
 16080      5F7400
 16081              	.LASF453:
 16082 1fe1 6368616E 		.ascii	"channelRemove\000"
 16082      6E656C52 
 16082      656D6F76 
 16082      6500
 16083              	.LASF104:
 16084 1fef 5F5F4649 		.ascii	"__FILE\000"
 16084      4C4500
 16085              	.LASF217:
 16086 1ff6 52585F53 		.ascii	"RX_SLOT_WIN_PING_SLOT\000"
 16086      4C4F545F 
 16086      57494E5F 
 16086      50494E47 
 16086      5F534C4F 
 16087              	.LASF449:
 16088 200c 66726571 		.ascii	"frequency\000"
 16088      75656E63 
 16088      7900
 16089              	.LASF340:
 16090 2016 75566572 		.ascii	"uVerifyParams\000"
 16090      69667950 
 16090      6172616D 
 16090      7300
 16091              	.LASF445:
 16092 2024 52656769 		.ascii	"RegionIN865RxBeaconSetup\000"
 16092      6F6E494E 
 16092      38363552 
 16092      78426561 
 16092      636F6E53 
 16093              	.LASF238:
 16094 203d 4C4F5241 		.ascii	"LORAMAC_STATUS_BUSY_PING_SLOT_WINDOW_TIME\000"
 16094      4D41435F 
 16094      53544154 
 16094      55535F42 
 16094      5553595F 
 16095              	.LASF40:
 16096 2067 5F736967 		.ascii	"_sign\000"
 16096      6E00
 16097              	.LASF0:
 16098 206d 5F5F696E 		.ascii	"__int8_t\000"
 16098      74385F74 
 16098      00
 16099              	.LASF45:
 16100 2076 5F5F746D 		.ascii	"__tm_min\000"
 16100      5F6D696E 
 16100      00
 16101              	.LASF344:
 16102 207f 56657269 		.ascii	"VerifyParams_t\000"
 16102      66795061 
 16102      72616D73 
 16102      5F7400
 16103              	.LASF14:
 16104 208e 756E7369 		.ascii	"unsigned int\000"
ARM GAS  C:\Users\EBANO_~1\AppData\Local\Temp\ccEfOEMG.s 			page 337


 16104      676E6564 
 16104      20696E74 
 16104      00
 16105              	.LASF118:
 16106 209b 5F723438 		.ascii	"_r48\000"
 16106      00
 16107              	.LASF145:
 16108 20a0 56616C75 		.ascii	"Value\000"
 16108      6500
 16109              	.LASF225:
 16110 20a6 4C4F5241 		.ascii	"LORAMAC_STATUS_SERVICE_UNKNOWN\000"
 16110      4D41435F 
 16110      53544154 
 16110      55535F53 
 16110      45525649 
 16111              	.LASF366:
 16112 20c5 5478436F 		.ascii	"TxConfigParams_t\000"
 16112      6E666967 
 16112      50617261 
 16112      6D735F74 
 16112      00
 16113              	.LASF233:
 16114 20d6 4C4F5241 		.ascii	"LORAMAC_STATUS_SKIPPED_APP_DATA\000"
 16114      4D41435F 
 16114      53544154 
 16114      55535F53 
 16114      4B495050 
 16115              	.LASF435:
 16116 20f6 4D617850 		.ascii	"MaxPayloadOfDatarateRepeaterIN865\000"
 16116      61796C6F 
 16116      61644F66 
 16116      44617461 
 16116      72617465 
 16117              	.LASF444:
 16118 2118 64724F66 		.ascii	"drOffset\000"
 16118      66736574 
 16118      00
 16119              	.LASF5:
 16120 2121 73686F72 		.ascii	"short int\000"
 16120      7420696E 
 16120      7400
 16121              	.LASF291:
 16122 212b 5048595F 		.ascii	"PHY_BEACON_SYMBOL_TO_EXPANSION_FACTOR\000"
 16122      42454143 
 16122      4F4E5F53 
 16122      594D424F 
 16122      4C5F544F 
 16123              	.LASF183:
 16124 2151 53657452 		.ascii	"SetRxConfig\000"
 16124      78436F6E 
 16124      66696700 
 16125              	.LASF69:
 16126 215d 5F726561 		.ascii	"_read\000"
 16126      6400
 16127              	.LASF456:
 16128 2163 66726571 		.ascii	"freqInvalid\000"
 16128      496E7661 
ARM GAS  C:\Users\EBANO_~1\AppData\Local\Temp\ccEfOEMG.s 			page 338


 16128      6C696400 
 16129              	.LASF551:
 16130 216f 52656769 		.ascii	"RegionCommonChanDisable\000"
 16130      6F6E436F 
 16130      6D6D6F6E 
 16130      4368616E 
 16130      44697361 
 16131              	.LASF108:
 16132 2187 5F72616E 		.ascii	"_rand48\000"
 16132      64343800 
 16133              	.LASF455:
 16134 218f 6472496E 		.ascii	"drInvalid\000"
 16134      76616C69 
 16134      6400
 16135              	.LASF390:
 16136 2199 4C617374 		.ascii	"LastTxIsJoinRequest\000"
 16136      54784973 
 16136      4A6F696E 
 16136      52657175 
 16136      65737400 
 16137              		.ident	"GCC: (GNU Tools for Arm Embedded Processors 7-2018-q2-update) 7.3.1 20180622 (release) [AR
ARM GAS  C:\Users\EBANO_~1\AppData\Local\Temp\ccEfOEMG.s 			page 339


DEFINED SYMBOLS
                            *ABS*:00000000 RegionIN865.c
C:\Users\EBANO_~1\AppData\Local\Temp\ccEfOEMG.s:16     .text.RegionIN865GetPhyParam:00000000 $t
C:\Users\EBANO_~1\AppData\Local\Temp\ccEfOEMG.s:24     .text.RegionIN865GetPhyParam:00000000 RegionIN865GetPhyParam
C:\Users\EBANO_~1\AppData\Local\Temp\ccEfOEMG.s:55     .rodata:00000000 $d
C:\Users\EBANO_~1\AppData\Local\Temp\ccEfOEMG.s:307    .text.RegionIN865GetPhyParam:000000ec $d
C:\Users\EBANO_~1\AppData\Local\Temp\ccEfOEMG.s:3945   .bss:00000000 NvmCtx
C:\Users\EBANO_~1\AppData\Local\Temp\ccEfOEMG.s:323    .text.RegionIN865SetBandTxDone:00000000 $t
C:\Users\EBANO_~1\AppData\Local\Temp\ccEfOEMG.s:331    .text.RegionIN865SetBandTxDone:00000000 RegionIN865SetBandTxDone
C:\Users\EBANO_~1\AppData\Local\Temp\ccEfOEMG.s:367    .text.RegionIN865SetBandTxDone:00000020 $d
C:\Users\EBANO_~1\AppData\Local\Temp\ccEfOEMG.s:372    .text.RegionIN865InitDefaults:00000000 $t
C:\Users\EBANO_~1\AppData\Local\Temp\ccEfOEMG.s:380    .text.RegionIN865InitDefaults:00000000 RegionIN865InitDefaults
C:\Users\EBANO_~1\AppData\Local\Temp\ccEfOEMG.s:492    .text.RegionIN865InitDefaults:00000088 $d
C:\Users\EBANO_~1\AppData\Local\Temp\ccEfOEMG.s:499    .text.RegionIN865GetNvmCtx:00000000 $t
C:\Users\EBANO_~1\AppData\Local\Temp\ccEfOEMG.s:507    .text.RegionIN865GetNvmCtx:00000000 RegionIN865GetNvmCtx
C:\Users\EBANO_~1\AppData\Local\Temp\ccEfOEMG.s:528    .text.RegionIN865GetNvmCtx:00000008 $d
C:\Users\EBANO_~1\AppData\Local\Temp\ccEfOEMG.s:533    .text.RegionIN865Verify:00000000 $t
C:\Users\EBANO_~1\AppData\Local\Temp\ccEfOEMG.s:541    .text.RegionIN865Verify:00000000 RegionIN865Verify
C:\Users\EBANO_~1\AppData\Local\Temp\ccEfOEMG.s:648    .text.RegionIN865Verify:00000060 $d
C:\Users\EBANO_~1\AppData\Local\Temp\ccEfOEMG.s:653    .text.RegionIN865ApplyCFList:00000000 $t
C:\Users\EBANO_~1\AppData\Local\Temp\ccEfOEMG.s:661    .text.RegionIN865ApplyCFList:00000000 RegionIN865ApplyCFList
C:\Users\EBANO_~1\AppData\Local\Temp\ccEfOEMG.s:931    .text.RegionIN865ApplyCFList:00000130 $d
C:\Users\EBANO_~1\AppData\Local\Temp\ccEfOEMG.s:945    .text.RegionIN865ChanMaskSet:00000000 $t
C:\Users\EBANO_~1\AppData\Local\Temp\ccEfOEMG.s:953    .text.RegionIN865ChanMaskSet:00000000 RegionIN865ChanMaskSet
C:\Users\EBANO_~1\AppData\Local\Temp\ccEfOEMG.s:1007   .text.RegionIN865ChanMaskSet:0000002c $d
C:\Users\EBANO_~1\AppData\Local\Temp\ccEfOEMG.s:1013   .text.RegionIN865ComputeRxWindowParameters:00000000 $t
C:\Users\EBANO_~1\AppData\Local\Temp\ccEfOEMG.s:1021   .text.RegionIN865ComputeRxWindowParameters:00000000 RegionIN865ComputeRxWindowParameters
C:\Users\EBANO_~1\AppData\Local\Temp\ccEfOEMG.s:1157   .text.RegionIN865ComputeRxWindowParameters:00000084 $d
C:\Users\EBANO_~1\AppData\Local\Temp\ccEfOEMG.s:1165   .text.RegionIN865RxConfig:00000000 $t
C:\Users\EBANO_~1\AppData\Local\Temp\ccEfOEMG.s:1173   .text.RegionIN865RxConfig:00000000 RegionIN865RxConfig
C:\Users\EBANO_~1\AppData\Local\Temp\ccEfOEMG.s:1382   .text.RegionIN865RxConfig:000000f4 $d
C:\Users\EBANO_~1\AppData\Local\Temp\ccEfOEMG.s:1392   .text.RegionIN865TxConfig:00000000 $t
C:\Users\EBANO_~1\AppData\Local\Temp\ccEfOEMG.s:1400   .text.RegionIN865TxConfig:00000000 RegionIN865TxConfig
C:\Users\EBANO_~1\AppData\Local\Temp\ccEfOEMG.s:1668   .text.RegionIN865TxConfig:00000120 $d
C:\Users\EBANO_~1\AppData\Local\Temp\ccEfOEMG.s:1679   .text.RegionIN865LinkAdrReq:00000000 $t
C:\Users\EBANO_~1\AppData\Local\Temp\ccEfOEMG.s:1687   .text.RegionIN865LinkAdrReq:00000000 RegionIN865LinkAdrReq
C:\Users\EBANO_~1\AppData\Local\Temp\ccEfOEMG.s:2284   .text.RegionIN865LinkAdrReq:000002bc $d
C:\Users\EBANO_~1\AppData\Local\Temp\ccEfOEMG.s:2289   .text.RegionIN865LinkAdrReq:000002c0 $t
C:\Users\EBANO_~1\AppData\Local\Temp\ccEfOEMG.s:2416   .text.RegionIN865LinkAdrReq:00000360 $d
C:\Users\EBANO_~1\AppData\Local\Temp\ccEfOEMG.s:2422   .text.RegionIN865RxParamSetupReq:00000000 $t
C:\Users\EBANO_~1\AppData\Local\Temp\ccEfOEMG.s:2430   .text.RegionIN865RxParamSetupReq:00000000 RegionIN865RxParamSetupReq
C:\Users\EBANO_~1\AppData\Local\Temp\ccEfOEMG.s:2540   .text.RegionIN865RxParamSetupReq:00000058 $d
C:\Users\EBANO_~1\AppData\Local\Temp\ccEfOEMG.s:2547   .text.RegionIN865NewChannelReq:00000000 $t
C:\Users\EBANO_~1\AppData\Local\Temp\ccEfOEMG.s:2555   .text.RegionIN865NewChannelReq:00000000 RegionIN865NewChannelReq
C:\Users\EBANO_~1\AppData\Local\Temp\ccEfOEMG.s:2796   .text.RegionIN865NewChannelReq:000000f8 $d
C:\Users\EBANO_~1\AppData\Local\Temp\ccEfOEMG.s:2804   .text.RegionIN865TxParamSetupReq:00000000 $t
C:\Users\EBANO_~1\AppData\Local\Temp\ccEfOEMG.s:2812   .text.RegionIN865TxParamSetupReq:00000000 RegionIN865TxParamSetupReq
C:\Users\EBANO_~1\AppData\Local\Temp\ccEfOEMG.s:2831   .text.RegionIN865DlChannelReq:00000000 $t
C:\Users\EBANO_~1\AppData\Local\Temp\ccEfOEMG.s:2839   .text.RegionIN865DlChannelReq:00000000 RegionIN865DlChannelReq
C:\Users\EBANO_~1\AppData\Local\Temp\ccEfOEMG.s:2940   .text.RegionIN865DlChannelReq:00000060 $d
C:\Users\EBANO_~1\AppData\Local\Temp\ccEfOEMG.s:2948   .text.RegionIN865AlternateDr:00000000 $t
C:\Users\EBANO_~1\AppData\Local\Temp\ccEfOEMG.s:2956   .text.RegionIN865AlternateDr:00000000 RegionIN865AlternateDr
C:\Users\EBANO_~1\AppData\Local\Temp\ccEfOEMG.s:2971   .text.RegionIN865CalcBackOff:00000000 $t
C:\Users\EBANO_~1\AppData\Local\Temp\ccEfOEMG.s:2979   .text.RegionIN865CalcBackOff:00000000 RegionIN865CalcBackOff
C:\Users\EBANO_~1\AppData\Local\Temp\ccEfOEMG.s:3036   .text.RegionIN865CalcBackOff:00000030 $d
C:\Users\EBANO_~1\AppData\Local\Temp\ccEfOEMG.s:3041   .text.RegionIN865NextChannel:00000000 $t
C:\Users\EBANO_~1\AppData\Local\Temp\ccEfOEMG.s:3049   .text.RegionIN865NextChannel:00000000 RegionIN865NextChannel
ARM GAS  C:\Users\EBANO_~1\AppData\Local\Temp\ccEfOEMG.s 			page 340


C:\Users\EBANO_~1\AppData\Local\Temp\ccEfOEMG.s:3437   .text.RegionIN865NextChannel:000001b4 $d
C:\Users\EBANO_~1\AppData\Local\Temp\ccEfOEMG.s:3443   .text.RegionIN865ChannelAdd:00000000 $t
C:\Users\EBANO_~1\AppData\Local\Temp\ccEfOEMG.s:3451   .text.RegionIN865ChannelAdd:00000000 RegionIN865ChannelAdd
C:\Users\EBANO_~1\AppData\Local\Temp\ccEfOEMG.s:3647   .text.RegionIN865ChannelAdd:000000c8 $d
C:\Users\EBANO_~1\AppData\Local\Temp\ccEfOEMG.s:3655   .text.RegionIN865ChannelsRemove:00000000 $t
C:\Users\EBANO_~1\AppData\Local\Temp\ccEfOEMG.s:3663   .text.RegionIN865ChannelsRemove:00000000 RegionIN865ChannelsRemove
C:\Users\EBANO_~1\AppData\Local\Temp\ccEfOEMG.s:3711   .text.RegionIN865ChannelsRemove:0000002c $d
C:\Users\EBANO_~1\AppData\Local\Temp\ccEfOEMG.s:3716   .text.RegionIN865SetContinuousWave:00000000 $t
C:\Users\EBANO_~1\AppData\Local\Temp\ccEfOEMG.s:3724   .text.RegionIN865SetContinuousWave:00000000 RegionIN865SetContinuousWave
C:\Users\EBANO_~1\AppData\Local\Temp\ccEfOEMG.s:3814   .text.RegionIN865SetContinuousWave:00000048 $d
C:\Users\EBANO_~1\AppData\Local\Temp\ccEfOEMG.s:3820   .text.RegionIN865ApplyDrOffset:00000000 $t
C:\Users\EBANO_~1\AppData\Local\Temp\ccEfOEMG.s:3828   .text.RegionIN865ApplyDrOffset:00000000 RegionIN865ApplyDrOffset
C:\Users\EBANO_~1\AppData\Local\Temp\ccEfOEMG.s:3863   .text.RegionIN865ApplyDrOffset:0000001c $d
C:\Users\EBANO_~1\AppData\Local\Temp\ccEfOEMG.s:3868   .text.RegionIN865RxBeaconSetup:00000000 $t
C:\Users\EBANO_~1\AppData\Local\Temp\ccEfOEMG.s:3876   .text.RegionIN865RxBeaconSetup:00000000 RegionIN865RxBeaconSetup
C:\Users\EBANO_~1\AppData\Local\Temp\ccEfOEMG.s:3936   .text.RegionIN865RxBeaconSetup:00000030 $d
C:\Users\EBANO_~1\AppData\Local\Temp\ccEfOEMG.s:3942   .bss:00000000 $d
C:\Users\EBANO_~1\AppData\Local\Temp\ccEfOEMG.s:3952   .rodata:000000d8 BandwidthsIN865
C:\Users\EBANO_~1\AppData\Local\Temp\ccEfOEMG.s:3963   .rodata:000000f8 DataratesIN865
C:\Users\EBANO_~1\AppData\Local\Temp\ccEfOEMG.s:3974   .rodata:00000100 EffectiveRx1DrOffsetIN865
C:\Users\EBANO_~1\AppData\Local\Temp\ccEfOEMG.s:3987   .rodata:00000108 MaxPayloadOfDatarateIN865
C:\Users\EBANO_~1\AppData\Local\Temp\ccEfOEMG.s:3998   .rodata:00000110 MaxPayloadOfDatarateRepeaterIN865

UNDEFINED SYMBOLS
randr
RegionCommonSetBandTxDone
memcpy1
RegionCommonChanMaskCopy
RegionCommonValueInRange
memset
RegionCommonChanDisable
Radio
RegionCommonComputeSymbolTimeLoRa
RegionCommonComputeRxWindowParameters
RegionCommonComputeSymbolTimeFsk
RegionCommonComputeTxPower
RegionCommonParseLinkAdrReq
RegionCommonLinkAdrReqVerifyParams
memset1
RegionCommonCalcBackOff
RegionCommonCountChannels
TimerGetElapsedTime
RegionCommonUpdateBandTimeOff
RegionCommonRxBeaconSetup
