ARM GAS  C:\Users\EBANO_~1\AppData\Local\Temp\ccFRmLE5.s 			page 1


   1              		.cpu cortex-m0plus
   2              		.eabi_attribute 20, 1
   3              		.eabi_attribute 21, 1
   4              		.eabi_attribute 23, 3
   5              		.eabi_attribute 24, 1
   6              		.eabi_attribute 25, 1
   7              		.eabi_attribute 26, 1
   8              		.eabi_attribute 30, 2
   9              		.eabi_attribute 34, 0
  10              		.eabi_attribute 18, 4
  11              		.file	"RegionUS915.c"
  12              		.text
  13              	.Ltext0:
  14              		.cfi_sections	.debug_frame
  15              		.section	.text.RegionUS915GetPhyParam,"ax",%progbits
  16              		.align	1
  17              		.p2align 2,,3
  18              		.global	RegionUS915GetPhyParam
  19              		.syntax unified
  20              		.code	16
  21              		.thumb_func
  22              		.fpu softvfp
  23              		.type	RegionUS915GetPhyParam, %function
  24              	RegionUS915GetPhyParam:
  25              	.LFB46:
  26              		.file 1 "../../../../../../Middlewares/Third_Party/LoRaWAN/Mac/region/RegionUS915.c"
   1:../../../../../../Middlewares/Third_Party/LoRaWAN/Mac/region/RegionUS915.c **** /*!
   2:../../../../../../Middlewares/Third_Party/LoRaWAN/Mac/region/RegionUS915.c ****  * \file      RegionUS915.c
   3:../../../../../../Middlewares/Third_Party/LoRaWAN/Mac/region/RegionUS915.c ****  *
   4:../../../../../../Middlewares/Third_Party/LoRaWAN/Mac/region/RegionUS915.c ****  * \brief     Region implementation for US915
   5:../../../../../../Middlewares/Third_Party/LoRaWAN/Mac/region/RegionUS915.c ****  *
   6:../../../../../../Middlewares/Third_Party/LoRaWAN/Mac/region/RegionUS915.c ****  * \copyright Revised BSD License, see section \ref LICENSE.
   7:../../../../../../Middlewares/Third_Party/LoRaWAN/Mac/region/RegionUS915.c ****  *
   8:../../../../../../Middlewares/Third_Party/LoRaWAN/Mac/region/RegionUS915.c ****  * \code
   9:../../../../../../Middlewares/Third_Party/LoRaWAN/Mac/region/RegionUS915.c ****  *                ______                              _
  10:../../../../../../Middlewares/Third_Party/LoRaWAN/Mac/region/RegionUS915.c ****  *               / _____)             _              | |
  11:../../../../../../Middlewares/Third_Party/LoRaWAN/Mac/region/RegionUS915.c ****  *              ( (____  _____ ____ _| |_ _____  ____| |__
  12:../../../../../../Middlewares/Third_Party/LoRaWAN/Mac/region/RegionUS915.c ****  *               \____ \| ___ |    (_   _) ___ |/ ___)  _ \
  13:../../../../../../Middlewares/Third_Party/LoRaWAN/Mac/region/RegionUS915.c ****  *               _____) ) ____| | | || |_| ____( (___| | | |
  14:../../../../../../Middlewares/Third_Party/LoRaWAN/Mac/region/RegionUS915.c ****  *              (______/|_____)_|_|_| \__)_____)\____)_| |_|
  15:../../../../../../Middlewares/Third_Party/LoRaWAN/Mac/region/RegionUS915.c ****  *              (C)2013-2017 Semtech
  16:../../../../../../Middlewares/Third_Party/LoRaWAN/Mac/region/RegionUS915.c ****  *
  17:../../../../../../Middlewares/Third_Party/LoRaWAN/Mac/region/RegionUS915.c ****  *               ___ _____ _   ___ _  _____ ___  ___  ___ ___
  18:../../../../../../Middlewares/Third_Party/LoRaWAN/Mac/region/RegionUS915.c ****  *              / __|_   _/_\ / __| |/ / __/ _ \| _ \/ __| __|
  19:../../../../../../Middlewares/Third_Party/LoRaWAN/Mac/region/RegionUS915.c ****  *              \__ \ | |/ _ \ (__| ' <| _| (_) |   / (__| _|
  20:../../../../../../Middlewares/Third_Party/LoRaWAN/Mac/region/RegionUS915.c ****  *              |___/ |_/_/ \_\___|_|\_\_| \___/|_|_\\___|___|
  21:../../../../../../Middlewares/Third_Party/LoRaWAN/Mac/region/RegionUS915.c ****  *              embedded.connectivity.solutions===============
  22:../../../../../../Middlewares/Third_Party/LoRaWAN/Mac/region/RegionUS915.c ****  *
  23:../../../../../../Middlewares/Third_Party/LoRaWAN/Mac/region/RegionUS915.c ****  * \endcode
  24:../../../../../../Middlewares/Third_Party/LoRaWAN/Mac/region/RegionUS915.c ****  *
  25:../../../../../../Middlewares/Third_Party/LoRaWAN/Mac/region/RegionUS915.c ****  * \author    Miguel Luis ( Semtech )
  26:../../../../../../Middlewares/Third_Party/LoRaWAN/Mac/region/RegionUS915.c ****  *
  27:../../../../../../Middlewares/Third_Party/LoRaWAN/Mac/region/RegionUS915.c ****  * \author    Gregory Cristian ( Semtech )
  28:../../../../../../Middlewares/Third_Party/LoRaWAN/Mac/region/RegionUS915.c ****  *
  29:../../../../../../Middlewares/Third_Party/LoRaWAN/Mac/region/RegionUS915.c ****  * \author    Daniel Jaeckle ( STACKFORCE )
  30:../../../../../../Middlewares/Third_Party/LoRaWAN/Mac/region/RegionUS915.c **** */
  31:../../../../../../Middlewares/Third_Party/LoRaWAN/Mac/region/RegionUS915.c **** #include "utilities.h"
ARM GAS  C:\Users\EBANO_~1\AppData\Local\Temp\ccFRmLE5.s 			page 2


  32:../../../../../../Middlewares/Third_Party/LoRaWAN/Mac/region/RegionUS915.c **** 
  33:../../../../../../Middlewares/Third_Party/LoRaWAN/Mac/region/RegionUS915.c **** #include "RegionCommon.h"
  34:../../../../../../Middlewares/Third_Party/LoRaWAN/Mac/region/RegionUS915.c **** #include "RegionUS915.h"
  35:../../../../../../Middlewares/Third_Party/LoRaWAN/Mac/region/RegionUS915.c **** #include "util_console.h"
  36:../../../../../../Middlewares/Third_Party/LoRaWAN/Mac/region/RegionUS915.c **** 
  37:../../../../../../Middlewares/Third_Party/LoRaWAN/Mac/region/RegionUS915.c **** // Definitions
  38:../../../../../../Middlewares/Third_Party/LoRaWAN/Mac/region/RegionUS915.c **** #define CHANNELS_MASK_SIZE              6
  39:../../../../../../Middlewares/Third_Party/LoRaWAN/Mac/region/RegionUS915.c **** 
  40:../../../../../../Middlewares/Third_Party/LoRaWAN/Mac/region/RegionUS915.c **** // A mask to select only valid 500KHz channels
  41:../../../../../../Middlewares/Third_Party/LoRaWAN/Mac/region/RegionUS915.c **** #define CHANNELS_MASK_500KHZ_MASK       0x00FF
  42:../../../../../../Middlewares/Third_Party/LoRaWAN/Mac/region/RegionUS915.c **** 
  43:../../../../../../Middlewares/Third_Party/LoRaWAN/Mac/region/RegionUS915.c **** /*!
  44:../../../../../../Middlewares/Third_Party/LoRaWAN/Mac/region/RegionUS915.c ****  * Region specific context
  45:../../../../../../Middlewares/Third_Party/LoRaWAN/Mac/region/RegionUS915.c ****  */
  46:../../../../../../Middlewares/Third_Party/LoRaWAN/Mac/region/RegionUS915.c **** typedef struct sRegionUS915NvmCtx
  47:../../../../../../Middlewares/Third_Party/LoRaWAN/Mac/region/RegionUS915.c **** {
  48:../../../../../../Middlewares/Third_Party/LoRaWAN/Mac/region/RegionUS915.c ****     /*!
  49:../../../../../../Middlewares/Third_Party/LoRaWAN/Mac/region/RegionUS915.c ****      * LoRaMAC channels
  50:../../../../../../Middlewares/Third_Party/LoRaWAN/Mac/region/RegionUS915.c ****      */
  51:../../../../../../Middlewares/Third_Party/LoRaWAN/Mac/region/RegionUS915.c ****     ChannelParams_t Channels[ US915_MAX_NB_CHANNELS ];
  52:../../../../../../Middlewares/Third_Party/LoRaWAN/Mac/region/RegionUS915.c ****     /*!
  53:../../../../../../Middlewares/Third_Party/LoRaWAN/Mac/region/RegionUS915.c ****      * LoRaMac bands
  54:../../../../../../Middlewares/Third_Party/LoRaWAN/Mac/region/RegionUS915.c ****      */
  55:../../../../../../Middlewares/Third_Party/LoRaWAN/Mac/region/RegionUS915.c ****     Band_t Bands[ US915_MAX_NB_BANDS ];
  56:../../../../../../Middlewares/Third_Party/LoRaWAN/Mac/region/RegionUS915.c ****     /*!
  57:../../../../../../Middlewares/Third_Party/LoRaWAN/Mac/region/RegionUS915.c ****      * LoRaMac channels mask
  58:../../../../../../Middlewares/Third_Party/LoRaWAN/Mac/region/RegionUS915.c ****      */
  59:../../../../../../Middlewares/Third_Party/LoRaWAN/Mac/region/RegionUS915.c ****     uint16_t ChannelsMask[ CHANNELS_MASK_SIZE ];
  60:../../../../../../Middlewares/Third_Party/LoRaWAN/Mac/region/RegionUS915.c ****     /*!
  61:../../../../../../Middlewares/Third_Party/LoRaWAN/Mac/region/RegionUS915.c ****      * LoRaMac channels remaining
  62:../../../../../../Middlewares/Third_Party/LoRaWAN/Mac/region/RegionUS915.c ****      */
  63:../../../../../../Middlewares/Third_Party/LoRaWAN/Mac/region/RegionUS915.c ****     uint16_t ChannelsMaskRemaining[CHANNELS_MASK_SIZE];
  64:../../../../../../Middlewares/Third_Party/LoRaWAN/Mac/region/RegionUS915.c ****     /*!
  65:../../../../../../Middlewares/Third_Party/LoRaWAN/Mac/region/RegionUS915.c ****      * LoRaMac channels default mask
  66:../../../../../../Middlewares/Third_Party/LoRaWAN/Mac/region/RegionUS915.c ****      */
  67:../../../../../../Middlewares/Third_Party/LoRaWAN/Mac/region/RegionUS915.c ****     uint16_t ChannelsDefaultMask[ CHANNELS_MASK_SIZE ];
  68:../../../../../../Middlewares/Third_Party/LoRaWAN/Mac/region/RegionUS915.c ****     /*!
  69:../../../../../../Middlewares/Third_Party/LoRaWAN/Mac/region/RegionUS915.c ****      * Index of current in use 8 bit group (0: bit 0 - 7, 1: bit 8 - 15, ..., 7: bit 56 - 63)
  70:../../../../../../Middlewares/Third_Party/LoRaWAN/Mac/region/RegionUS915.c ****      */
  71:../../../../../../Middlewares/Third_Party/LoRaWAN/Mac/region/RegionUS915.c ****     uint8_t JoinChannelGroupsCurrentIndex;
  72:../../../../../../Middlewares/Third_Party/LoRaWAN/Mac/region/RegionUS915.c ****     /*!
  73:../../../../../../Middlewares/Third_Party/LoRaWAN/Mac/region/RegionUS915.c ****      * Counter of join trials needed to alternate between DR0 and DR4, see \ref RegionUS915Alternat
  74:../../../../../../Middlewares/Third_Party/LoRaWAN/Mac/region/RegionUS915.c ****      */
  75:../../../../../../Middlewares/Third_Party/LoRaWAN/Mac/region/RegionUS915.c ****     uint8_t JoinTrialsCounter;
  76:../../../../../../Middlewares/Third_Party/LoRaWAN/Mac/region/RegionUS915.c **** }RegionUS915NvmCtx_t;
  77:../../../../../../Middlewares/Third_Party/LoRaWAN/Mac/region/RegionUS915.c **** 
  78:../../../../../../Middlewares/Third_Party/LoRaWAN/Mac/region/RegionUS915.c **** /*
  79:../../../../../../Middlewares/Third_Party/LoRaWAN/Mac/region/RegionUS915.c ****  * Non-volatile module context.
  80:../../../../../../Middlewares/Third_Party/LoRaWAN/Mac/region/RegionUS915.c ****  */
  81:../../../../../../Middlewares/Third_Party/LoRaWAN/Mac/region/RegionUS915.c **** static RegionUS915NvmCtx_t NvmCtx;
  82:../../../../../../Middlewares/Third_Party/LoRaWAN/Mac/region/RegionUS915.c **** 
  83:../../../../../../Middlewares/Third_Party/LoRaWAN/Mac/region/RegionUS915.c **** // Static functions
  84:../../../../../../Middlewares/Third_Party/LoRaWAN/Mac/region/RegionUS915.c **** static int8_t GetNextLowerTxDr( int8_t dr, int8_t minDr )
  85:../../../../../../Middlewares/Third_Party/LoRaWAN/Mac/region/RegionUS915.c **** {
  86:../../../../../../Middlewares/Third_Party/LoRaWAN/Mac/region/RegionUS915.c ****     uint8_t nextLowerDr = 0;
  87:../../../../../../Middlewares/Third_Party/LoRaWAN/Mac/region/RegionUS915.c **** 
  88:../../../../../../Middlewares/Third_Party/LoRaWAN/Mac/region/RegionUS915.c ****     if( dr == minDr )
ARM GAS  C:\Users\EBANO_~1\AppData\Local\Temp\ccFRmLE5.s 			page 3


  89:../../../../../../Middlewares/Third_Party/LoRaWAN/Mac/region/RegionUS915.c ****     {
  90:../../../../../../Middlewares/Third_Party/LoRaWAN/Mac/region/RegionUS915.c ****         nextLowerDr = minDr;
  91:../../../../../../Middlewares/Third_Party/LoRaWAN/Mac/region/RegionUS915.c ****     }
  92:../../../../../../Middlewares/Third_Party/LoRaWAN/Mac/region/RegionUS915.c ****     else
  93:../../../../../../Middlewares/Third_Party/LoRaWAN/Mac/region/RegionUS915.c ****     {
  94:../../../../../../Middlewares/Third_Party/LoRaWAN/Mac/region/RegionUS915.c ****         nextLowerDr = dr - 1;
  95:../../../../../../Middlewares/Third_Party/LoRaWAN/Mac/region/RegionUS915.c ****     }
  96:../../../../../../Middlewares/Third_Party/LoRaWAN/Mac/region/RegionUS915.c ****     return nextLowerDr;
  97:../../../../../../Middlewares/Third_Party/LoRaWAN/Mac/region/RegionUS915.c **** }
  98:../../../../../../Middlewares/Third_Party/LoRaWAN/Mac/region/RegionUS915.c **** 
  99:../../../../../../Middlewares/Third_Party/LoRaWAN/Mac/region/RegionUS915.c **** /*!
 100:../../../../../../Middlewares/Third_Party/LoRaWAN/Mac/region/RegionUS915.c ****  * \brief Searches for available 125 kHz channels in the given channel mask.
 101:../../../../../../Middlewares/Third_Party/LoRaWAN/Mac/region/RegionUS915.c ****  *
 102:../../../../../../Middlewares/Third_Party/LoRaWAN/Mac/region/RegionUS915.c ****  * \param [IN] channelMaskRemaining The remaining channel mask.
 103:../../../../../../Middlewares/Third_Party/LoRaWAN/Mac/region/RegionUS915.c ****  *
 104:../../../../../../Middlewares/Third_Party/LoRaWAN/Mac/region/RegionUS915.c ****  * \param [OUT] findAvailableChannelsIndex List containing the indexes of all available 125 kHz cha
 105:../../../../../../Middlewares/Third_Party/LoRaWAN/Mac/region/RegionUS915.c ****  *
 106:../../../../../../Middlewares/Third_Party/LoRaWAN/Mac/region/RegionUS915.c ****  * \param [OUT] availableChannels Number of available 125 kHz channels.
 107:../../../../../../Middlewares/Third_Party/LoRaWAN/Mac/region/RegionUS915.c ****  *
 108:../../../../../../Middlewares/Third_Party/LoRaWAN/Mac/region/RegionUS915.c ****  * \retval Status
 109:../../../../../../Middlewares/Third_Party/LoRaWAN/Mac/region/RegionUS915.c ****  */
 110:../../../../../../Middlewares/Third_Party/LoRaWAN/Mac/region/RegionUS915.c **** static LoRaMacStatus_t FindAvailable125kHzChannels( uint8_t* findAvailableChannelsIndex, uint16_t c
 111:../../../../../../Middlewares/Third_Party/LoRaWAN/Mac/region/RegionUS915.c **** {
 112:../../../../../../Middlewares/Third_Party/LoRaWAN/Mac/region/RegionUS915.c ****     // Nullpointer check
 113:../../../../../../Middlewares/Third_Party/LoRaWAN/Mac/region/RegionUS915.c ****     if( findAvailableChannelsIndex == NULL || availableChannels == NULL )
 114:../../../../../../Middlewares/Third_Party/LoRaWAN/Mac/region/RegionUS915.c ****     {
 115:../../../../../../Middlewares/Third_Party/LoRaWAN/Mac/region/RegionUS915.c ****         return LORAMAC_STATUS_PARAMETER_INVALID;
 116:../../../../../../Middlewares/Third_Party/LoRaWAN/Mac/region/RegionUS915.c ****     }
 117:../../../../../../Middlewares/Third_Party/LoRaWAN/Mac/region/RegionUS915.c **** 
 118:../../../../../../Middlewares/Third_Party/LoRaWAN/Mac/region/RegionUS915.c ****     // Initialize counter
 119:../../../../../../Middlewares/Third_Party/LoRaWAN/Mac/region/RegionUS915.c ****     *availableChannels = 0;
 120:../../../../../../Middlewares/Third_Party/LoRaWAN/Mac/region/RegionUS915.c ****     for( uint8_t i = 0; i < 8; i++ )
 121:../../../../../../Middlewares/Third_Party/LoRaWAN/Mac/region/RegionUS915.c ****     {
 122:../../../../../../Middlewares/Third_Party/LoRaWAN/Mac/region/RegionUS915.c ****         // Find available channels
 123:../../../../../../Middlewares/Third_Party/LoRaWAN/Mac/region/RegionUS915.c ****         if( ( channelMaskRemaining & ( 1 << i ) ) != 0 )
 124:../../../../../../Middlewares/Third_Party/LoRaWAN/Mac/region/RegionUS915.c ****         {
 125:../../../../../../Middlewares/Third_Party/LoRaWAN/Mac/region/RegionUS915.c ****             // Save available channel index
 126:../../../../../../Middlewares/Third_Party/LoRaWAN/Mac/region/RegionUS915.c ****             findAvailableChannelsIndex[*availableChannels] = i;
 127:../../../../../../Middlewares/Third_Party/LoRaWAN/Mac/region/RegionUS915.c ****             // Increment counter of available channels if the current channel is available
 128:../../../../../../Middlewares/Third_Party/LoRaWAN/Mac/region/RegionUS915.c ****             ( *availableChannels )++;
 129:../../../../../../Middlewares/Third_Party/LoRaWAN/Mac/region/RegionUS915.c ****         }
 130:../../../../../../Middlewares/Third_Party/LoRaWAN/Mac/region/RegionUS915.c ****     }
 131:../../../../../../Middlewares/Third_Party/LoRaWAN/Mac/region/RegionUS915.c **** 
 132:../../../../../../Middlewares/Third_Party/LoRaWAN/Mac/region/RegionUS915.c ****     return LORAMAC_STATUS_OK;
 133:../../../../../../Middlewares/Third_Party/LoRaWAN/Mac/region/RegionUS915.c **** }
 134:../../../../../../Middlewares/Third_Party/LoRaWAN/Mac/region/RegionUS915.c **** 
 135:../../../../../../Middlewares/Third_Party/LoRaWAN/Mac/region/RegionUS915.c **** /*!
 136:../../../../../../Middlewares/Third_Party/LoRaWAN/Mac/region/RegionUS915.c ****  * \brief Computes the next 125kHz channel used for join requests.
 137:../../../../../../Middlewares/Third_Party/LoRaWAN/Mac/region/RegionUS915.c ****  *
 138:../../../../../../Middlewares/Third_Party/LoRaWAN/Mac/region/RegionUS915.c ****  * \param [OUT] newChannelIndex Index of available channel.
 139:../../../../../../Middlewares/Third_Party/LoRaWAN/Mac/region/RegionUS915.c ****  *
 140:../../../../../../Middlewares/Third_Party/LoRaWAN/Mac/region/RegionUS915.c ****  * \retval Status
 141:../../../../../../Middlewares/Third_Party/LoRaWAN/Mac/region/RegionUS915.c ****  */
 142:../../../../../../Middlewares/Third_Party/LoRaWAN/Mac/region/RegionUS915.c **** static LoRaMacStatus_t ComputeNext125kHzJoinChannel( uint8_t* newChannelIndex )
 143:../../../../../../Middlewares/Third_Party/LoRaWAN/Mac/region/RegionUS915.c **** {
 144:../../../../../../Middlewares/Third_Party/LoRaWAN/Mac/region/RegionUS915.c ****     uint8_t currentChannelsMaskRemainingIndex;
 145:../../../../../../Middlewares/Third_Party/LoRaWAN/Mac/region/RegionUS915.c ****     uint16_t channelMaskRemaining;
ARM GAS  C:\Users\EBANO_~1\AppData\Local\Temp\ccFRmLE5.s 			page 4


 146:../../../../../../Middlewares/Third_Party/LoRaWAN/Mac/region/RegionUS915.c ****     uint8_t findAvailableChannelsIndex[8] = { 0 };
 147:../../../../../../Middlewares/Third_Party/LoRaWAN/Mac/region/RegionUS915.c ****     uint8_t availableChannels = 0;
 148:../../../../../../Middlewares/Third_Party/LoRaWAN/Mac/region/RegionUS915.c ****     uint8_t startIndex = NvmCtx.JoinChannelGroupsCurrentIndex;
 149:../../../../../../Middlewares/Third_Party/LoRaWAN/Mac/region/RegionUS915.c **** 
 150:../../../../../../Middlewares/Third_Party/LoRaWAN/Mac/region/RegionUS915.c ****     // Null pointer check
 151:../../../../../../Middlewares/Third_Party/LoRaWAN/Mac/region/RegionUS915.c ****     if( newChannelIndex == NULL )
 152:../../../../../../Middlewares/Third_Party/LoRaWAN/Mac/region/RegionUS915.c ****     {
 153:../../../../../../Middlewares/Third_Party/LoRaWAN/Mac/region/RegionUS915.c ****         return LORAMAC_STATUS_PARAMETER_INVALID;
 154:../../../../../../Middlewares/Third_Party/LoRaWAN/Mac/region/RegionUS915.c ****     }
 155:../../../../../../Middlewares/Third_Party/LoRaWAN/Mac/region/RegionUS915.c **** 
 156:../../../../../../Middlewares/Third_Party/LoRaWAN/Mac/region/RegionUS915.c ****     do {
 157:../../../../../../Middlewares/Third_Party/LoRaWAN/Mac/region/RegionUS915.c ****         // Current ChannelMaskRemaining, two groups per channel mask. For example Group 0 and 1 (8 
 158:../../../../../../Middlewares/Third_Party/LoRaWAN/Mac/region/RegionUS915.c ****         currentChannelsMaskRemainingIndex = (uint8_t) startIndex / 2;
 159:../../../../../../Middlewares/Third_Party/LoRaWAN/Mac/region/RegionUS915.c **** 
 160:../../../../../../Middlewares/Third_Party/LoRaWAN/Mac/region/RegionUS915.c ****         // For even numbers we need the 8 LSBs and for uneven the 8 MSBs
 161:../../../../../../Middlewares/Third_Party/LoRaWAN/Mac/region/RegionUS915.c ****         if( ( startIndex % 2 ) == 0 )
 162:../../../../../../Middlewares/Third_Party/LoRaWAN/Mac/region/RegionUS915.c ****         {
 163:../../../../../../Middlewares/Third_Party/LoRaWAN/Mac/region/RegionUS915.c ****             channelMaskRemaining = ( NvmCtx.ChannelsMaskRemaining[currentChannelsMaskRemainingIndex
 164:../../../../../../Middlewares/Third_Party/LoRaWAN/Mac/region/RegionUS915.c ****         }
 165:../../../../../../Middlewares/Third_Party/LoRaWAN/Mac/region/RegionUS915.c ****         else
 166:../../../../../../Middlewares/Third_Party/LoRaWAN/Mac/region/RegionUS915.c ****         {
 167:../../../../../../Middlewares/Third_Party/LoRaWAN/Mac/region/RegionUS915.c ****             channelMaskRemaining = ( ( NvmCtx.ChannelsMaskRemaining[currentChannelsMaskRemainingInd
 168:../../../../../../Middlewares/Third_Party/LoRaWAN/Mac/region/RegionUS915.c ****         }
 169:../../../../../../Middlewares/Third_Party/LoRaWAN/Mac/region/RegionUS915.c **** 
 170:../../../../../../Middlewares/Third_Party/LoRaWAN/Mac/region/RegionUS915.c **** 
 171:../../../../../../Middlewares/Third_Party/LoRaWAN/Mac/region/RegionUS915.c ****         if( FindAvailable125kHzChannels( findAvailableChannelsIndex, channelMaskRemaining, &availab
 172:../../../../../../Middlewares/Third_Party/LoRaWAN/Mac/region/RegionUS915.c ****         {
 173:../../../../../../Middlewares/Third_Party/LoRaWAN/Mac/region/RegionUS915.c ****             return LORAMAC_STATUS_PARAMETER_INVALID;
 174:../../../../../../Middlewares/Third_Party/LoRaWAN/Mac/region/RegionUS915.c ****         }
 175:../../../../../../Middlewares/Third_Party/LoRaWAN/Mac/region/RegionUS915.c **** 
 176:../../../../../../Middlewares/Third_Party/LoRaWAN/Mac/region/RegionUS915.c ****         if ( availableChannels > 0 )
 177:../../../../../../Middlewares/Third_Party/LoRaWAN/Mac/region/RegionUS915.c ****         {
 178:../../../../../../Middlewares/Third_Party/LoRaWAN/Mac/region/RegionUS915.c ****             // Choose randomly a free channel 125kHz
 179:../../../../../../Middlewares/Third_Party/LoRaWAN/Mac/region/RegionUS915.c ****             *newChannelIndex = ( startIndex * 8 ) + findAvailableChannelsIndex[randr( 0, ( availabl
 180:../../../../../../Middlewares/Third_Party/LoRaWAN/Mac/region/RegionUS915.c ****         }
 181:../../../../../../Middlewares/Third_Party/LoRaWAN/Mac/region/RegionUS915.c **** 
 182:../../../../../../Middlewares/Third_Party/LoRaWAN/Mac/region/RegionUS915.c ****         // Increment start index
 183:../../../../../../Middlewares/Third_Party/LoRaWAN/Mac/region/RegionUS915.c ****         startIndex++;
 184:../../../../../../Middlewares/Third_Party/LoRaWAN/Mac/region/RegionUS915.c ****         if ( startIndex > 7 )
 185:../../../../../../Middlewares/Third_Party/LoRaWAN/Mac/region/RegionUS915.c ****         {
 186:../../../../../../Middlewares/Third_Party/LoRaWAN/Mac/region/RegionUS915.c ****             startIndex = 0;
 187:../../../../../../Middlewares/Third_Party/LoRaWAN/Mac/region/RegionUS915.c ****         }
 188:../../../../../../Middlewares/Third_Party/LoRaWAN/Mac/region/RegionUS915.c ****     } while( ( availableChannels == 0 ) && ( startIndex != NvmCtx.JoinChannelGroupsCurrentIndex ) )
 189:../../../../../../Middlewares/Third_Party/LoRaWAN/Mac/region/RegionUS915.c **** 
 190:../../../../../../Middlewares/Third_Party/LoRaWAN/Mac/region/RegionUS915.c ****     if ( availableChannels > 0 )
 191:../../../../../../Middlewares/Third_Party/LoRaWAN/Mac/region/RegionUS915.c ****     {
 192:../../../../../../Middlewares/Third_Party/LoRaWAN/Mac/region/RegionUS915.c ****         NvmCtx.JoinChannelGroupsCurrentIndex = startIndex;
 193:../../../../../../Middlewares/Third_Party/LoRaWAN/Mac/region/RegionUS915.c ****         return LORAMAC_STATUS_OK;
 194:../../../../../../Middlewares/Third_Party/LoRaWAN/Mac/region/RegionUS915.c ****     }
 195:../../../../../../Middlewares/Third_Party/LoRaWAN/Mac/region/RegionUS915.c **** 
 196:../../../../../../Middlewares/Third_Party/LoRaWAN/Mac/region/RegionUS915.c ****     return LORAMAC_STATUS_PARAMETER_INVALID;
 197:../../../../../../Middlewares/Third_Party/LoRaWAN/Mac/region/RegionUS915.c **** }
 198:../../../../../../Middlewares/Third_Party/LoRaWAN/Mac/region/RegionUS915.c **** 
 199:../../../../../../Middlewares/Third_Party/LoRaWAN/Mac/region/RegionUS915.c **** static uint32_t GetBandwidth( uint32_t drIndex )
 200:../../../../../../Middlewares/Third_Party/LoRaWAN/Mac/region/RegionUS915.c **** {
 201:../../../../../../Middlewares/Third_Party/LoRaWAN/Mac/region/RegionUS915.c ****     switch( BandwidthsUS915[drIndex] )
 202:../../../../../../Middlewares/Third_Party/LoRaWAN/Mac/region/RegionUS915.c ****     {
ARM GAS  C:\Users\EBANO_~1\AppData\Local\Temp\ccFRmLE5.s 			page 5


 203:../../../../../../Middlewares/Third_Party/LoRaWAN/Mac/region/RegionUS915.c ****         default:
 204:../../../../../../Middlewares/Third_Party/LoRaWAN/Mac/region/RegionUS915.c ****         case 125000:
 205:../../../../../../Middlewares/Third_Party/LoRaWAN/Mac/region/RegionUS915.c ****             return 0;
 206:../../../../../../Middlewares/Third_Party/LoRaWAN/Mac/region/RegionUS915.c ****         case 250000:
 207:../../../../../../Middlewares/Third_Party/LoRaWAN/Mac/region/RegionUS915.c ****             return 1;
 208:../../../../../../Middlewares/Third_Party/LoRaWAN/Mac/region/RegionUS915.c ****         case 500000:
 209:../../../../../../Middlewares/Third_Party/LoRaWAN/Mac/region/RegionUS915.c ****             return 2;
 210:../../../../../../Middlewares/Third_Party/LoRaWAN/Mac/region/RegionUS915.c ****     }
 211:../../../../../../Middlewares/Third_Party/LoRaWAN/Mac/region/RegionUS915.c **** }
 212:../../../../../../Middlewares/Third_Party/LoRaWAN/Mac/region/RegionUS915.c **** 
 213:../../../../../../Middlewares/Third_Party/LoRaWAN/Mac/region/RegionUS915.c **** static int8_t LimitTxPower( int8_t txPower, int8_t maxBandTxPower, int8_t datarate, uint16_t* chann
 214:../../../../../../Middlewares/Third_Party/LoRaWAN/Mac/region/RegionUS915.c **** {
 215:../../../../../../Middlewares/Third_Party/LoRaWAN/Mac/region/RegionUS915.c ****     int8_t txPowerResult = txPower;
 216:../../../../../../Middlewares/Third_Party/LoRaWAN/Mac/region/RegionUS915.c **** 
 217:../../../../../../Middlewares/Third_Party/LoRaWAN/Mac/region/RegionUS915.c ****     // Limit tx power to the band max
 218:../../../../../../Middlewares/Third_Party/LoRaWAN/Mac/region/RegionUS915.c ****     txPowerResult =  MAX( txPower, maxBandTxPower );
 219:../../../../../../Middlewares/Third_Party/LoRaWAN/Mac/region/RegionUS915.c **** 
 220:../../../../../../Middlewares/Third_Party/LoRaWAN/Mac/region/RegionUS915.c ****     if( datarate == DR_4 )
 221:../../../../../../Middlewares/Third_Party/LoRaWAN/Mac/region/RegionUS915.c ****     {// Limit tx power to max 26dBm
 222:../../../../../../Middlewares/Third_Party/LoRaWAN/Mac/region/RegionUS915.c ****         txPowerResult = MAX( txPower, TX_POWER_2 );
 223:../../../../../../Middlewares/Third_Party/LoRaWAN/Mac/region/RegionUS915.c ****     }
 224:../../../../../../Middlewares/Third_Party/LoRaWAN/Mac/region/RegionUS915.c ****     else
 225:../../../../../../Middlewares/Third_Party/LoRaWAN/Mac/region/RegionUS915.c ****     {
 226:../../../../../../Middlewares/Third_Party/LoRaWAN/Mac/region/RegionUS915.c ****         if( RegionCommonCountChannels( channelsMask, 0, 4 ) < 50 )
 227:../../../../../../Middlewares/Third_Party/LoRaWAN/Mac/region/RegionUS915.c ****         {// Limit tx power to max 21dBm
 228:../../../../../../Middlewares/Third_Party/LoRaWAN/Mac/region/RegionUS915.c ****             txPowerResult = MAX( txPower, TX_POWER_5 );
 229:../../../../../../Middlewares/Third_Party/LoRaWAN/Mac/region/RegionUS915.c ****         }
 230:../../../../../../Middlewares/Third_Party/LoRaWAN/Mac/region/RegionUS915.c ****     }
 231:../../../../../../Middlewares/Third_Party/LoRaWAN/Mac/region/RegionUS915.c ****     return txPowerResult;
 232:../../../../../../Middlewares/Third_Party/LoRaWAN/Mac/region/RegionUS915.c **** }
 233:../../../../../../Middlewares/Third_Party/LoRaWAN/Mac/region/RegionUS915.c **** 
 234:../../../../../../Middlewares/Third_Party/LoRaWAN/Mac/region/RegionUS915.c **** static bool VerifyRfFreq( uint32_t freq )
 235:../../../../../../Middlewares/Third_Party/LoRaWAN/Mac/region/RegionUS915.c **** {
 236:../../../../../../Middlewares/Third_Party/LoRaWAN/Mac/region/RegionUS915.c ****     // Check radio driver support
 237:../../../../../../Middlewares/Third_Party/LoRaWAN/Mac/region/RegionUS915.c ****     if( Radio.CheckRfFrequency( freq ) == false )
 238:../../../../../../Middlewares/Third_Party/LoRaWAN/Mac/region/RegionUS915.c ****     {
 239:../../../../../../Middlewares/Third_Party/LoRaWAN/Mac/region/RegionUS915.c ****         return false;
 240:../../../../../../Middlewares/Third_Party/LoRaWAN/Mac/region/RegionUS915.c ****     }
 241:../../../../../../Middlewares/Third_Party/LoRaWAN/Mac/region/RegionUS915.c **** 
 242:../../../../../../Middlewares/Third_Party/LoRaWAN/Mac/region/RegionUS915.c ****     // Rx frequencies
 243:../../../../../../Middlewares/Third_Party/LoRaWAN/Mac/region/RegionUS915.c ****     if( ( freq < US915_FIRST_RX1_CHANNEL ) ||
 244:../../../../../../Middlewares/Third_Party/LoRaWAN/Mac/region/RegionUS915.c ****         ( freq > US915_LAST_RX1_CHANNEL ) ||
 245:../../../../../../Middlewares/Third_Party/LoRaWAN/Mac/region/RegionUS915.c ****         ( ( ( freq - ( uint32_t ) US915_FIRST_RX1_CHANNEL ) % ( uint32_t ) US915_STEPWIDTH_RX1_CHAN
 246:../../../../../../Middlewares/Third_Party/LoRaWAN/Mac/region/RegionUS915.c ****     {
 247:../../../../../../Middlewares/Third_Party/LoRaWAN/Mac/region/RegionUS915.c ****         return false;
 248:../../../../../../Middlewares/Third_Party/LoRaWAN/Mac/region/RegionUS915.c ****     }
 249:../../../../../../Middlewares/Third_Party/LoRaWAN/Mac/region/RegionUS915.c **** 
 250:../../../../../../Middlewares/Third_Party/LoRaWAN/Mac/region/RegionUS915.c ****     // Test for frequency range - take RX and TX freqencies into account
 251:../../../../../../Middlewares/Third_Party/LoRaWAN/Mac/region/RegionUS915.c ****     if( ( freq < 902300000 ) ||  ( freq > 927500000 ) )
 252:../../../../../../Middlewares/Third_Party/LoRaWAN/Mac/region/RegionUS915.c ****     {
 253:../../../../../../Middlewares/Third_Party/LoRaWAN/Mac/region/RegionUS915.c ****         return false;
 254:../../../../../../Middlewares/Third_Party/LoRaWAN/Mac/region/RegionUS915.c ****     }
 255:../../../../../../Middlewares/Third_Party/LoRaWAN/Mac/region/RegionUS915.c ****     return true;
 256:../../../../../../Middlewares/Third_Party/LoRaWAN/Mac/region/RegionUS915.c **** }
 257:../../../../../../Middlewares/Third_Party/LoRaWAN/Mac/region/RegionUS915.c **** 
 258:../../../../../../Middlewares/Third_Party/LoRaWAN/Mac/region/RegionUS915.c **** static uint8_t CountNbOfEnabledChannels( uint8_t datarate, uint16_t* channelsMask, ChannelParams_t*
 259:../../../../../../Middlewares/Third_Party/LoRaWAN/Mac/region/RegionUS915.c **** {
ARM GAS  C:\Users\EBANO_~1\AppData\Local\Temp\ccFRmLE5.s 			page 6


 260:../../../../../../Middlewares/Third_Party/LoRaWAN/Mac/region/RegionUS915.c ****     uint8_t nbEnabledChannels = 0;
 261:../../../../../../Middlewares/Third_Party/LoRaWAN/Mac/region/RegionUS915.c ****     uint8_t delayTransmission = 0;
 262:../../../../../../Middlewares/Third_Party/LoRaWAN/Mac/region/RegionUS915.c **** 
 263:../../../../../../Middlewares/Third_Party/LoRaWAN/Mac/region/RegionUS915.c ****     for( uint8_t i = 0, k = 0; i < US915_MAX_NB_CHANNELS; i += 16, k++ )
 264:../../../../../../Middlewares/Third_Party/LoRaWAN/Mac/region/RegionUS915.c ****     {
 265:../../../../../../Middlewares/Third_Party/LoRaWAN/Mac/region/RegionUS915.c ****         for( uint8_t j = 0; j < 16; j++ )
 266:../../../../../../Middlewares/Third_Party/LoRaWAN/Mac/region/RegionUS915.c ****         {
 267:../../../../../../Middlewares/Third_Party/LoRaWAN/Mac/region/RegionUS915.c ****             if( ( channelsMask[k] & ( 1 << j ) ) != 0 )
 268:../../../../../../Middlewares/Third_Party/LoRaWAN/Mac/region/RegionUS915.c ****             {
 269:../../../../../../Middlewares/Third_Party/LoRaWAN/Mac/region/RegionUS915.c ****                 if( channels[i + j].Frequency == 0 )
 270:../../../../../../Middlewares/Third_Party/LoRaWAN/Mac/region/RegionUS915.c ****                 { // Check if the channel is enabled
 271:../../../../../../Middlewares/Third_Party/LoRaWAN/Mac/region/RegionUS915.c ****                     continue;
 272:../../../../../../Middlewares/Third_Party/LoRaWAN/Mac/region/RegionUS915.c ****                 }
 273:../../../../../../Middlewares/Third_Party/LoRaWAN/Mac/region/RegionUS915.c ****                 if( RegionCommonValueInRange( datarate, channels[i + j].DrRange.Fields.Min,
 274:../../../../../../Middlewares/Third_Party/LoRaWAN/Mac/region/RegionUS915.c ****                                               channels[i + j].DrRange.Fields.Max ) == false )
 275:../../../../../../Middlewares/Third_Party/LoRaWAN/Mac/region/RegionUS915.c ****                 { // Check if the current channel selection supports the given datarate
 276:../../../../../../Middlewares/Third_Party/LoRaWAN/Mac/region/RegionUS915.c ****                     continue;
 277:../../../../../../Middlewares/Third_Party/LoRaWAN/Mac/region/RegionUS915.c ****                 }
 278:../../../../../../Middlewares/Third_Party/LoRaWAN/Mac/region/RegionUS915.c ****                 if( bands[channels[i + j].Band].TimeOff > 0 )
 279:../../../../../../Middlewares/Third_Party/LoRaWAN/Mac/region/RegionUS915.c ****                 { // Check if the band is available for transmission
 280:../../../../../../Middlewares/Third_Party/LoRaWAN/Mac/region/RegionUS915.c ****                     delayTransmission++;
 281:../../../../../../Middlewares/Third_Party/LoRaWAN/Mac/region/RegionUS915.c ****                     continue;
 282:../../../../../../Middlewares/Third_Party/LoRaWAN/Mac/region/RegionUS915.c ****                 }
 283:../../../../../../Middlewares/Third_Party/LoRaWAN/Mac/region/RegionUS915.c ****                 enabledChannels[nbEnabledChannels++] = i + j;
 284:../../../../../../Middlewares/Third_Party/LoRaWAN/Mac/region/RegionUS915.c ****             }
 285:../../../../../../Middlewares/Third_Party/LoRaWAN/Mac/region/RegionUS915.c ****         }
 286:../../../../../../Middlewares/Third_Party/LoRaWAN/Mac/region/RegionUS915.c ****     }
 287:../../../../../../Middlewares/Third_Party/LoRaWAN/Mac/region/RegionUS915.c **** 
 288:../../../../../../Middlewares/Third_Party/LoRaWAN/Mac/region/RegionUS915.c ****     *delayTx = delayTransmission;
 289:../../../../../../Middlewares/Third_Party/LoRaWAN/Mac/region/RegionUS915.c ****     return nbEnabledChannels;
 290:../../../../../../Middlewares/Third_Party/LoRaWAN/Mac/region/RegionUS915.c **** }
 291:../../../../../../Middlewares/Third_Party/LoRaWAN/Mac/region/RegionUS915.c **** 
 292:../../../../../../Middlewares/Third_Party/LoRaWAN/Mac/region/RegionUS915.c **** PhyParam_t RegionUS915GetPhyParam( GetPhyParams_t* getPhy )
 293:../../../../../../Middlewares/Third_Party/LoRaWAN/Mac/region/RegionUS915.c **** {
  27              		.loc 1 293 0
  28              		.cfi_startproc
  29              		@ args = 0, pretend = 0, frame = 8
  30              		@ frame_needed = 0, uses_anonymous_args = 0
  31              	.LVL0:
 294:../../../../../../Middlewares/Third_Party/LoRaWAN/Mac/region/RegionUS915.c ****     PhyParam_t phyParam = { 0 };
  32              		.loc 1 294 0
  33 0000 0023     		movs	r3, #0
 293:../../../../../../Middlewares/Third_Party/LoRaWAN/Mac/region/RegionUS915.c ****     PhyParam_t phyParam = { 0 };
  34              		.loc 1 293 0
  35 0002 00B5     		push	{lr}
  36              	.LCFI0:
  37              		.cfi_def_cfa_offset 4
  38              		.cfi_offset 14, -4
  39 0004 83B0     		sub	sp, sp, #12
  40              	.LCFI1:
  41              		.cfi_def_cfa_offset 16
  42              		.loc 1 294 0
  43 0006 0093     		str	r3, [sp]
 295:../../../../../../Middlewares/Third_Party/LoRaWAN/Mac/region/RegionUS915.c **** 
 296:../../../../../../Middlewares/Third_Party/LoRaWAN/Mac/region/RegionUS915.c ****     switch( getPhy->Attribute )
  44              		.loc 1 296 0
  45 0008 0378     		ldrb	r3, [r0]
ARM GAS  C:\Users\EBANO_~1\AppData\Local\Temp\ccFRmLE5.s 			page 7


  46 000a 342B     		cmp	r3, #52
  47 000c 05D8     		bhi	.L2
  48 000e 314A     		ldr	r2, .L30
  49 0010 9B00     		lsls	r3, r3, #2
  50 0012 D358     		ldr	r3, [r2, r3]
  51 0014 9F46     		mov	pc, r3
  52              		.section	.rodata
  53              		.align	2
  54              	.L4:
  55 0000 20000000 		.word	.L3
  56 0004 1A000000 		.word	.L2
  57 0008 1A000000 		.word	.L2
  58 000c 1A000000 		.word	.L2
  59 0010 1A000000 		.word	.L2
  60 0014 1A000000 		.word	.L2
  61 0018 1A000000 		.word	.L2
  62 001c 1A000000 		.word	.L2
  63 0020 1A000000 		.word	.L2
  64 0024 1A000000 		.word	.L2
  65 0028 C2000000 		.word	.L5
  66 002c 80000000 		.word	.L6
  67 0030 74000000 		.word	.L7
  68 0034 66000000 		.word	.L8
  69 0038 1A000000 		.word	.L2
  70 003c 54000000 		.word	.L9
  71 0040 4C000000 		.word	.L10
  72 0044 44000000 		.word	.L11
  73 0048 3E000000 		.word	.L12
  74 004c AA000000 		.word	.L13
  75 0050 A2000000 		.word	.L14
  76 0054 8C000000 		.word	.L15
  77 0058 1A000000 		.word	.L2
  78 005c 26000000 		.word	.L16
  79 0060 20000000 		.word	.L3
  80 0064 B0000000 		.word	.L17
  81 0068 B6000000 		.word	.L18
  82 006c 16000000 		.word	.L19
  83 0070 BC000000 		.word	.L20
  84 0074 1A000000 		.word	.L2
  85 0078 1A000000 		.word	.L2
  86 007c C8000000 		.word	.L21
  87 0080 86000000 		.word	.L22
  88 0084 2C000000 		.word	.L23
  89 0088 1A000000 		.word	.L2
  90 008c 1A000000 		.word	.L2
  91 0090 1A000000 		.word	.L2
  92 0094 1A000000 		.word	.L2
  93 0098 1A000000 		.word	.L2
  94 009c 1A000000 		.word	.L2
  95 00a0 1A000000 		.word	.L2
  96 00a4 1A000000 		.word	.L2
  97 00a8 1A000000 		.word	.L2
  98 00ac 1A000000 		.word	.L2
  99 00b0 1A000000 		.word	.L2
 100 00b4 1A000000 		.word	.L2
 101 00b8 1A000000 		.word	.L2
 102 00bc 26000000 		.word	.L16
ARM GAS  C:\Users\EBANO_~1\AppData\Local\Temp\ccFRmLE5.s 			page 8


 103 00c0 5A000000 		.word	.L24
 104 00c4 20000000 		.word	.L3
 105 00c8 CE000000 		.word	.L25
 106 00cc 20000000 		.word	.L3
 107 00d0 20000000 		.word	.L3
 108              		.section	.text.RegionUS915GetPhyParam
 109              	.L19:
 297:../../../../../../Middlewares/Third_Party/LoRaWAN/Mac/region/RegionUS915.c ****     {
 298:../../../../../../Middlewares/Third_Party/LoRaWAN/Mac/region/RegionUS915.c ****         case PHY_MIN_RX_DR:
 299:../../../../../../Middlewares/Third_Party/LoRaWAN/Mac/region/RegionUS915.c ****         {
 300:../../../../../../Middlewares/Third_Party/LoRaWAN/Mac/region/RegionUS915.c ****             phyParam.Value = US915_RX_MIN_DATARATE;
 301:../../../../../../Middlewares/Third_Party/LoRaWAN/Mac/region/RegionUS915.c ****             break;
 302:../../../../../../Middlewares/Third_Party/LoRaWAN/Mac/region/RegionUS915.c ****         }
 303:../../../../../../Middlewares/Third_Party/LoRaWAN/Mac/region/RegionUS915.c ****         case PHY_MIN_TX_DR:
 304:../../../../../../Middlewares/Third_Party/LoRaWAN/Mac/region/RegionUS915.c ****         {
 305:../../../../../../Middlewares/Third_Party/LoRaWAN/Mac/region/RegionUS915.c ****             phyParam.Value = US915_TX_MIN_DATARATE;
 306:../../../../../../Middlewares/Third_Party/LoRaWAN/Mac/region/RegionUS915.c ****             break;
 307:../../../../../../Middlewares/Third_Party/LoRaWAN/Mac/region/RegionUS915.c ****         }
 308:../../../../../../Middlewares/Third_Party/LoRaWAN/Mac/region/RegionUS915.c ****         case PHY_DEF_TX_DR:
 309:../../../../../../Middlewares/Third_Party/LoRaWAN/Mac/region/RegionUS915.c ****         {
 310:../../../../../../Middlewares/Third_Party/LoRaWAN/Mac/region/RegionUS915.c ****             phyParam.Value = US915_DEFAULT_DATARATE;
 311:../../../../../../Middlewares/Third_Party/LoRaWAN/Mac/region/RegionUS915.c ****             break;
 312:../../../../../../Middlewares/Third_Party/LoRaWAN/Mac/region/RegionUS915.c ****         }
 313:../../../../../../Middlewares/Third_Party/LoRaWAN/Mac/region/RegionUS915.c ****         case PHY_NEXT_LOWER_TX_DR:
 314:../../../../../../Middlewares/Third_Party/LoRaWAN/Mac/region/RegionUS915.c ****         {
 315:../../../../../../Middlewares/Third_Party/LoRaWAN/Mac/region/RegionUS915.c ****             phyParam.Value = GetNextLowerTxDr( getPhy->Datarate, US915_TX_MIN_DATARATE );
 316:../../../../../../Middlewares/Third_Party/LoRaWAN/Mac/region/RegionUS915.c ****             break;
 317:../../../../../../Middlewares/Third_Party/LoRaWAN/Mac/region/RegionUS915.c ****         }
 318:../../../../../../Middlewares/Third_Party/LoRaWAN/Mac/region/RegionUS915.c ****         case PHY_MAX_TX_POWER:
 319:../../../../../../Middlewares/Third_Party/LoRaWAN/Mac/region/RegionUS915.c ****         {
 320:../../../../../../Middlewares/Third_Party/LoRaWAN/Mac/region/RegionUS915.c ****             phyParam.Value = US915_MAX_TX_POWER;
 321:../../../../../../Middlewares/Third_Party/LoRaWAN/Mac/region/RegionUS915.c ****             break;
 322:../../../../../../Middlewares/Third_Party/LoRaWAN/Mac/region/RegionUS915.c ****         }
 323:../../../../../../Middlewares/Third_Party/LoRaWAN/Mac/region/RegionUS915.c ****         case PHY_DEF_TX_POWER:
 324:../../../../../../Middlewares/Third_Party/LoRaWAN/Mac/region/RegionUS915.c ****         {
 325:../../../../../../Middlewares/Third_Party/LoRaWAN/Mac/region/RegionUS915.c ****             phyParam.Value = US915_DEFAULT_TX_POWER;
 326:../../../../../../Middlewares/Third_Party/LoRaWAN/Mac/region/RegionUS915.c ****             break;
 327:../../../../../../Middlewares/Third_Party/LoRaWAN/Mac/region/RegionUS915.c ****         }
 328:../../../../../../Middlewares/Third_Party/LoRaWAN/Mac/region/RegionUS915.c ****         case PHY_DEF_ADR_ACK_LIMIT:
 329:../../../../../../Middlewares/Third_Party/LoRaWAN/Mac/region/RegionUS915.c ****         {
 330:../../../../../../Middlewares/Third_Party/LoRaWAN/Mac/region/RegionUS915.c ****             phyParam.Value = US915_ADR_ACK_LIMIT;
 331:../../../../../../Middlewares/Third_Party/LoRaWAN/Mac/region/RegionUS915.c ****             break;
 332:../../../../../../Middlewares/Third_Party/LoRaWAN/Mac/region/RegionUS915.c ****         }
 333:../../../../../../Middlewares/Third_Party/LoRaWAN/Mac/region/RegionUS915.c ****         case PHY_DEF_ADR_ACK_DELAY:
 334:../../../../../../Middlewares/Third_Party/LoRaWAN/Mac/region/RegionUS915.c ****         {
 335:../../../../../../Middlewares/Third_Party/LoRaWAN/Mac/region/RegionUS915.c ****             phyParam.Value = US915_ADR_ACK_DELAY;
 336:../../../../../../Middlewares/Third_Party/LoRaWAN/Mac/region/RegionUS915.c ****             break;
 337:../../../../../../Middlewares/Third_Party/LoRaWAN/Mac/region/RegionUS915.c ****         }
 338:../../../../../../Middlewares/Third_Party/LoRaWAN/Mac/region/RegionUS915.c ****         case PHY_MAX_PAYLOAD:
 339:../../../../../../Middlewares/Third_Party/LoRaWAN/Mac/region/RegionUS915.c ****         {
 340:../../../../../../Middlewares/Third_Party/LoRaWAN/Mac/region/RegionUS915.c ****             phyParam.Value = MaxPayloadOfDatarateUS915[getPhy->Datarate];
 341:../../../../../../Middlewares/Third_Party/LoRaWAN/Mac/region/RegionUS915.c ****             break;
 342:../../../../../../Middlewares/Third_Party/LoRaWAN/Mac/region/RegionUS915.c ****         }
 343:../../../../../../Middlewares/Third_Party/LoRaWAN/Mac/region/RegionUS915.c ****         case PHY_MAX_PAYLOAD_REPEATER:
 344:../../../../../../Middlewares/Third_Party/LoRaWAN/Mac/region/RegionUS915.c ****         {
 345:../../../../../../Middlewares/Third_Party/LoRaWAN/Mac/region/RegionUS915.c ****             phyParam.Value = MaxPayloadOfDatarateRepeaterUS915[getPhy->Datarate];
 346:../../../../../../Middlewares/Third_Party/LoRaWAN/Mac/region/RegionUS915.c ****             break;
ARM GAS  C:\Users\EBANO_~1\AppData\Local\Temp\ccFRmLE5.s 			page 9


 347:../../../../../../Middlewares/Third_Party/LoRaWAN/Mac/region/RegionUS915.c ****         }
 348:../../../../../../Middlewares/Third_Party/LoRaWAN/Mac/region/RegionUS915.c ****         case PHY_DUTY_CYCLE:
 349:../../../../../../Middlewares/Third_Party/LoRaWAN/Mac/region/RegionUS915.c ****         {
 350:../../../../../../Middlewares/Third_Party/LoRaWAN/Mac/region/RegionUS915.c ****             phyParam.Value = US915_DUTY_CYCLE_ENABLED;
 351:../../../../../../Middlewares/Third_Party/LoRaWAN/Mac/region/RegionUS915.c ****             break;
 352:../../../../../../Middlewares/Third_Party/LoRaWAN/Mac/region/RegionUS915.c ****         }
 353:../../../../../../Middlewares/Third_Party/LoRaWAN/Mac/region/RegionUS915.c ****         case PHY_MAX_RX_WINDOW:
 354:../../../../../../Middlewares/Third_Party/LoRaWAN/Mac/region/RegionUS915.c ****         {
 355:../../../../../../Middlewares/Third_Party/LoRaWAN/Mac/region/RegionUS915.c ****             phyParam.Value = US915_MAX_RX_WINDOW;
 356:../../../../../../Middlewares/Third_Party/LoRaWAN/Mac/region/RegionUS915.c ****             break;
 357:../../../../../../Middlewares/Third_Party/LoRaWAN/Mac/region/RegionUS915.c ****         }
 358:../../../../../../Middlewares/Third_Party/LoRaWAN/Mac/region/RegionUS915.c ****         case PHY_RECEIVE_DELAY1:
 359:../../../../../../Middlewares/Third_Party/LoRaWAN/Mac/region/RegionUS915.c ****         {
 360:../../../../../../Middlewares/Third_Party/LoRaWAN/Mac/region/RegionUS915.c ****             phyParam.Value = US915_RECEIVE_DELAY1;
 361:../../../../../../Middlewares/Third_Party/LoRaWAN/Mac/region/RegionUS915.c ****             break;
 362:../../../../../../Middlewares/Third_Party/LoRaWAN/Mac/region/RegionUS915.c ****         }
 363:../../../../../../Middlewares/Third_Party/LoRaWAN/Mac/region/RegionUS915.c ****         case PHY_RECEIVE_DELAY2:
 364:../../../../../../Middlewares/Third_Party/LoRaWAN/Mac/region/RegionUS915.c ****         {
 365:../../../../../../Middlewares/Third_Party/LoRaWAN/Mac/region/RegionUS915.c ****             phyParam.Value = US915_RECEIVE_DELAY2;
 366:../../../../../../Middlewares/Third_Party/LoRaWAN/Mac/region/RegionUS915.c ****             break;
 367:../../../../../../Middlewares/Third_Party/LoRaWAN/Mac/region/RegionUS915.c ****         }
 368:../../../../../../Middlewares/Third_Party/LoRaWAN/Mac/region/RegionUS915.c ****         case PHY_JOIN_ACCEPT_DELAY1:
 369:../../../../../../Middlewares/Third_Party/LoRaWAN/Mac/region/RegionUS915.c ****         {
 370:../../../../../../Middlewares/Third_Party/LoRaWAN/Mac/region/RegionUS915.c ****             phyParam.Value = US915_JOIN_ACCEPT_DELAY1;
 371:../../../../../../Middlewares/Third_Party/LoRaWAN/Mac/region/RegionUS915.c ****             break;
 372:../../../../../../Middlewares/Third_Party/LoRaWAN/Mac/region/RegionUS915.c ****         }
 373:../../../../../../Middlewares/Third_Party/LoRaWAN/Mac/region/RegionUS915.c ****         case PHY_JOIN_ACCEPT_DELAY2:
 374:../../../../../../Middlewares/Third_Party/LoRaWAN/Mac/region/RegionUS915.c ****         {
 375:../../../../../../Middlewares/Third_Party/LoRaWAN/Mac/region/RegionUS915.c ****             phyParam.Value = US915_JOIN_ACCEPT_DELAY2;
 376:../../../../../../Middlewares/Third_Party/LoRaWAN/Mac/region/RegionUS915.c ****             break;
 377:../../../../../../Middlewares/Third_Party/LoRaWAN/Mac/region/RegionUS915.c ****         }
 378:../../../../../../Middlewares/Third_Party/LoRaWAN/Mac/region/RegionUS915.c ****         case PHY_MAX_FCNT_GAP:
 379:../../../../../../Middlewares/Third_Party/LoRaWAN/Mac/region/RegionUS915.c ****         {
 380:../../../../../../Middlewares/Third_Party/LoRaWAN/Mac/region/RegionUS915.c ****             phyParam.Value = US915_MAX_FCNT_GAP;
 381:../../../../../../Middlewares/Third_Party/LoRaWAN/Mac/region/RegionUS915.c ****             break;
 382:../../../../../../Middlewares/Third_Party/LoRaWAN/Mac/region/RegionUS915.c ****         }
 383:../../../../../../Middlewares/Third_Party/LoRaWAN/Mac/region/RegionUS915.c ****         case PHY_ACK_TIMEOUT:
 384:../../../../../../Middlewares/Third_Party/LoRaWAN/Mac/region/RegionUS915.c ****         {
 385:../../../../../../Middlewares/Third_Party/LoRaWAN/Mac/region/RegionUS915.c ****             phyParam.Value = ( US915_ACKTIMEOUT + randr( -US915_ACK_TIMEOUT_RND, US915_ACK_TIMEOUT_
 386:../../../../../../Middlewares/Third_Party/LoRaWAN/Mac/region/RegionUS915.c ****             break;
 387:../../../../../../Middlewares/Third_Party/LoRaWAN/Mac/region/RegionUS915.c ****         }
 388:../../../../../../Middlewares/Third_Party/LoRaWAN/Mac/region/RegionUS915.c ****         case PHY_DEF_DR1_OFFSET:
 389:../../../../../../Middlewares/Third_Party/LoRaWAN/Mac/region/RegionUS915.c ****         {
 390:../../../../../../Middlewares/Third_Party/LoRaWAN/Mac/region/RegionUS915.c ****             phyParam.Value = US915_DEFAULT_RX1_DR_OFFSET;
 391:../../../../../../Middlewares/Third_Party/LoRaWAN/Mac/region/RegionUS915.c ****             break;
 392:../../../../../../Middlewares/Third_Party/LoRaWAN/Mac/region/RegionUS915.c ****         }
 393:../../../../../../Middlewares/Third_Party/LoRaWAN/Mac/region/RegionUS915.c ****         case PHY_DEF_RX2_FREQUENCY:
 394:../../../../../../Middlewares/Third_Party/LoRaWAN/Mac/region/RegionUS915.c ****         {
 395:../../../../../../Middlewares/Third_Party/LoRaWAN/Mac/region/RegionUS915.c ****             phyParam.Value = US915_RX_WND_2_FREQ;
 396:../../../../../../Middlewares/Third_Party/LoRaWAN/Mac/region/RegionUS915.c ****             break;
 397:../../../../../../Middlewares/Third_Party/LoRaWAN/Mac/region/RegionUS915.c ****         }
 398:../../../../../../Middlewares/Third_Party/LoRaWAN/Mac/region/RegionUS915.c ****         case PHY_DEF_RX2_DR:
 399:../../../../../../Middlewares/Third_Party/LoRaWAN/Mac/region/RegionUS915.c ****         {
 400:../../../../../../Middlewares/Third_Party/LoRaWAN/Mac/region/RegionUS915.c ****             phyParam.Value = US915_RX_WND_2_DR;
 401:../../../../../../Middlewares/Third_Party/LoRaWAN/Mac/region/RegionUS915.c ****             break;
 402:../../../../../../Middlewares/Third_Party/LoRaWAN/Mac/region/RegionUS915.c ****         }
 403:../../../../../../Middlewares/Third_Party/LoRaWAN/Mac/region/RegionUS915.c ****         case PHY_CHANNELS_MASK:
ARM GAS  C:\Users\EBANO_~1\AppData\Local\Temp\ccFRmLE5.s 			page 10


 404:../../../../../../Middlewares/Third_Party/LoRaWAN/Mac/region/RegionUS915.c ****         {
 405:../../../../../../Middlewares/Third_Party/LoRaWAN/Mac/region/RegionUS915.c ****             phyParam.ChannelsMask = NvmCtx.ChannelsMask;
 406:../../../../../../Middlewares/Third_Party/LoRaWAN/Mac/region/RegionUS915.c ****             break;
 407:../../../../../../Middlewares/Third_Party/LoRaWAN/Mac/region/RegionUS915.c ****         }
 408:../../../../../../Middlewares/Third_Party/LoRaWAN/Mac/region/RegionUS915.c ****         case PHY_CHANNELS_DEFAULT_MASK:
 409:../../../../../../Middlewares/Third_Party/LoRaWAN/Mac/region/RegionUS915.c ****         {
 410:../../../../../../Middlewares/Third_Party/LoRaWAN/Mac/region/RegionUS915.c ****             phyParam.ChannelsMask = NvmCtx.ChannelsDefaultMask;
 411:../../../../../../Middlewares/Third_Party/LoRaWAN/Mac/region/RegionUS915.c ****             break;
 412:../../../../../../Middlewares/Third_Party/LoRaWAN/Mac/region/RegionUS915.c ****         }
 413:../../../../../../Middlewares/Third_Party/LoRaWAN/Mac/region/RegionUS915.c ****         case PHY_MAX_NB_CHANNELS:
 414:../../../../../../Middlewares/Third_Party/LoRaWAN/Mac/region/RegionUS915.c ****         {
 415:../../../../../../Middlewares/Third_Party/LoRaWAN/Mac/region/RegionUS915.c ****             phyParam.Value = US915_MAX_NB_CHANNELS;
 110              		.loc 1 415 0
 111 0016 4823     		movs	r3, #72
 112 0018 0093     		str	r3, [sp]
 113              	.LVL1:
 114              	.L2:
 416:../../../../../../Middlewares/Third_Party/LoRaWAN/Mac/region/RegionUS915.c ****             break;
 417:../../../../../../Middlewares/Third_Party/LoRaWAN/Mac/region/RegionUS915.c ****         }
 418:../../../../../../Middlewares/Third_Party/LoRaWAN/Mac/region/RegionUS915.c ****         case PHY_CHANNELS:
 419:../../../../../../Middlewares/Third_Party/LoRaWAN/Mac/region/RegionUS915.c ****         {
 420:../../../../../../Middlewares/Third_Party/LoRaWAN/Mac/region/RegionUS915.c ****             phyParam.Channels = NvmCtx.Channels;
 421:../../../../../../Middlewares/Third_Party/LoRaWAN/Mac/region/RegionUS915.c ****             break;
 422:../../../../../../Middlewares/Third_Party/LoRaWAN/Mac/region/RegionUS915.c ****         }
 423:../../../../../../Middlewares/Third_Party/LoRaWAN/Mac/region/RegionUS915.c ****         case PHY_DEF_UPLINK_DWELL_TIME:
 424:../../../../../../Middlewares/Third_Party/LoRaWAN/Mac/region/RegionUS915.c ****         case PHY_DEF_DOWNLINK_DWELL_TIME:
 425:../../../../../../Middlewares/Third_Party/LoRaWAN/Mac/region/RegionUS915.c ****         {
 426:../../../../../../Middlewares/Third_Party/LoRaWAN/Mac/region/RegionUS915.c ****             phyParam.Value = 0;
 427:../../../../../../Middlewares/Third_Party/LoRaWAN/Mac/region/RegionUS915.c ****             break;
 428:../../../../../../Middlewares/Third_Party/LoRaWAN/Mac/region/RegionUS915.c ****         }
 429:../../../../../../Middlewares/Third_Party/LoRaWAN/Mac/region/RegionUS915.c ****         case PHY_DEF_MAX_EIRP:
 430:../../../../../../Middlewares/Third_Party/LoRaWAN/Mac/region/RegionUS915.c ****         {
 431:../../../../../../Middlewares/Third_Party/LoRaWAN/Mac/region/RegionUS915.c ****             phyParam.fValue = US915_DEFAULT_MAX_ERP + (float) 2.15;
 432:../../../../../../Middlewares/Third_Party/LoRaWAN/Mac/region/RegionUS915.c ****             break;
 433:../../../../../../Middlewares/Third_Party/LoRaWAN/Mac/region/RegionUS915.c ****         }
 434:../../../../../../Middlewares/Third_Party/LoRaWAN/Mac/region/RegionUS915.c ****         case PHY_DEF_ANTENNA_GAIN:
 435:../../../../../../Middlewares/Third_Party/LoRaWAN/Mac/region/RegionUS915.c ****         {
 436:../../../../../../Middlewares/Third_Party/LoRaWAN/Mac/region/RegionUS915.c ****             phyParam.fValue = 0;
 437:../../../../../../Middlewares/Third_Party/LoRaWAN/Mac/region/RegionUS915.c ****             break;
 438:../../../../../../Middlewares/Third_Party/LoRaWAN/Mac/region/RegionUS915.c ****         }
 439:../../../../../../Middlewares/Third_Party/LoRaWAN/Mac/region/RegionUS915.c ****         case PHY_BEACON_CHANNEL_FREQ:
 440:../../../../../../Middlewares/Third_Party/LoRaWAN/Mac/region/RegionUS915.c ****         {
 441:../../../../../../Middlewares/Third_Party/LoRaWAN/Mac/region/RegionUS915.c ****             phyParam.Value = US915_BEACON_CHANNEL_FREQ;
 442:../../../../../../Middlewares/Third_Party/LoRaWAN/Mac/region/RegionUS915.c ****             break;
 443:../../../../../../Middlewares/Third_Party/LoRaWAN/Mac/region/RegionUS915.c ****         }
 444:../../../../../../Middlewares/Third_Party/LoRaWAN/Mac/region/RegionUS915.c ****         case PHY_BEACON_FORMAT:
 445:../../../../../../Middlewares/Third_Party/LoRaWAN/Mac/region/RegionUS915.c ****         {
 446:../../../../../../Middlewares/Third_Party/LoRaWAN/Mac/region/RegionUS915.c ****             phyParam.BeaconFormat.BeaconSize = US915_BEACON_SIZE;
 447:../../../../../../Middlewares/Third_Party/LoRaWAN/Mac/region/RegionUS915.c ****             phyParam.BeaconFormat.Rfu1Size = US915_RFU1_SIZE;
 448:../../../../../../Middlewares/Third_Party/LoRaWAN/Mac/region/RegionUS915.c ****             phyParam.BeaconFormat.Rfu2Size = US915_RFU2_SIZE;
 449:../../../../../../Middlewares/Third_Party/LoRaWAN/Mac/region/RegionUS915.c ****             break;
 450:../../../../../../Middlewares/Third_Party/LoRaWAN/Mac/region/RegionUS915.c ****         }
 451:../../../../../../Middlewares/Third_Party/LoRaWAN/Mac/region/RegionUS915.c ****         case PHY_BEACON_CHANNEL_DR:
 452:../../../../../../Middlewares/Third_Party/LoRaWAN/Mac/region/RegionUS915.c ****         {
 453:../../../../../../Middlewares/Third_Party/LoRaWAN/Mac/region/RegionUS915.c ****             phyParam.Value = US915_BEACON_CHANNEL_DR;
 454:../../../../../../Middlewares/Third_Party/LoRaWAN/Mac/region/RegionUS915.c ****             break;
 455:../../../../../../Middlewares/Third_Party/LoRaWAN/Mac/region/RegionUS915.c ****         }
ARM GAS  C:\Users\EBANO_~1\AppData\Local\Temp\ccFRmLE5.s 			page 11


 456:../../../../../../Middlewares/Third_Party/LoRaWAN/Mac/region/RegionUS915.c ****         case PHY_BEACON_CHANNEL_STEPWIDTH:
 457:../../../../../../Middlewares/Third_Party/LoRaWAN/Mac/region/RegionUS915.c ****         {
 458:../../../../../../Middlewares/Third_Party/LoRaWAN/Mac/region/RegionUS915.c ****             phyParam.Value = US915_BEACON_CHANNEL_STEPWIDTH;
 459:../../../../../../Middlewares/Third_Party/LoRaWAN/Mac/region/RegionUS915.c ****             break;
 460:../../../../../../Middlewares/Third_Party/LoRaWAN/Mac/region/RegionUS915.c ****         }
 461:../../../../../../Middlewares/Third_Party/LoRaWAN/Mac/region/RegionUS915.c ****         case PHY_BEACON_NB_CHANNELS:
 462:../../../../../../Middlewares/Third_Party/LoRaWAN/Mac/region/RegionUS915.c ****         {
 463:../../../../../../Middlewares/Third_Party/LoRaWAN/Mac/region/RegionUS915.c ****             phyParam.Value = US915_BEACON_NB_CHANNELS;
 464:../../../../../../Middlewares/Third_Party/LoRaWAN/Mac/region/RegionUS915.c ****             break;
 465:../../../../../../Middlewares/Third_Party/LoRaWAN/Mac/region/RegionUS915.c ****         }
 466:../../../../../../Middlewares/Third_Party/LoRaWAN/Mac/region/RegionUS915.c ****         case PHY_PING_SLOT_CHANNEL_DR:
 467:../../../../../../Middlewares/Third_Party/LoRaWAN/Mac/region/RegionUS915.c ****         {
 468:../../../../../../Middlewares/Third_Party/LoRaWAN/Mac/region/RegionUS915.c ****             phyParam.Value = US915_PING_SLOT_CHANNEL_DR;
 469:../../../../../../Middlewares/Third_Party/LoRaWAN/Mac/region/RegionUS915.c ****             break;
 470:../../../../../../Middlewares/Third_Party/LoRaWAN/Mac/region/RegionUS915.c ****         }
 471:../../../../../../Middlewares/Third_Party/LoRaWAN/Mac/region/RegionUS915.c ****         default:
 472:../../../../../../Middlewares/Third_Party/LoRaWAN/Mac/region/RegionUS915.c ****         {
 473:../../../../../../Middlewares/Third_Party/LoRaWAN/Mac/region/RegionUS915.c ****             break;
 474:../../../../../../Middlewares/Third_Party/LoRaWAN/Mac/region/RegionUS915.c ****         }
 475:../../../../../../Middlewares/Third_Party/LoRaWAN/Mac/region/RegionUS915.c ****     }
 476:../../../../../../Middlewares/Third_Party/LoRaWAN/Mac/region/RegionUS915.c **** 
 477:../../../../../../Middlewares/Third_Party/LoRaWAN/Mac/region/RegionUS915.c ****     return phyParam;
 478:../../../../../../Middlewares/Third_Party/LoRaWAN/Mac/region/RegionUS915.c **** }
 115              		.loc 1 478 0
 116 001a 0098     		ldr	r0, [sp]
 117 001c 03B0     		add	sp, sp, #12
 118              		@ sp needed
 119 001e 00BD     		pop	{pc}
 120              	.LVL2:
 121              	.L3:
 300:../../../../../../Middlewares/Third_Party/LoRaWAN/Mac/region/RegionUS915.c ****             break;
 122              		.loc 1 300 0
 123 0020 0823     		movs	r3, #8
 124 0022 0093     		str	r3, [sp]
 301:../../../../../../Middlewares/Third_Party/LoRaWAN/Mac/region/RegionUS915.c ****         }
 125              		.loc 1 301 0
 126 0024 F9E7     		b	.L2
 127              	.L16:
 395:../../../../../../Middlewares/Third_Party/LoRaWAN/Mac/region/RegionUS915.c ****             break;
 128              		.loc 1 395 0
 129 0026 2C4B     		ldr	r3, .L30+4
 130 0028 0093     		str	r3, [sp]
 396:../../../../../../Middlewares/Third_Party/LoRaWAN/Mac/region/RegionUS915.c ****         }
 131              		.loc 1 396 0
 132 002a F6E7     		b	.L2
 133              	.L23:
 315:../../../../../../Middlewares/Third_Party/LoRaWAN/Mac/region/RegionUS915.c ****             break;
 134              		.loc 1 315 0
 135 002c 0123     		movs	r3, #1
 136 002e C356     		ldrsb	r3, [r0, r3]
 137              	.LVL3:
 138              	.LBB21:
 139              	.LBB22:
  88:../../../../../../Middlewares/Third_Party/LoRaWAN/Mac/region/RegionUS915.c ****     {
 140              		.loc 1 88 0
 141 0030 0022     		movs	r2, #0
 142 0032 002B     		cmp	r3, #0
ARM GAS  C:\Users\EBANO_~1\AppData\Local\Temp\ccFRmLE5.s 			page 12


 143 0034 01D0     		beq	.L26
 144              	.LVL4:
  94:../../../../../../Middlewares/Third_Party/LoRaWAN/Mac/region/RegionUS915.c ****     }
 145              		.loc 1 94 0
 146 0036 013B     		subs	r3, r3, #1
 147              	.LVL5:
 148 0038 5AB2     		sxtb	r2, r3
 149              	.LVL6:
 150              	.L26:
 151              	.LBE22:
 152              	.LBE21:
 315:../../../../../../Middlewares/Third_Party/LoRaWAN/Mac/region/RegionUS915.c ****             break;
 153              		.loc 1 315 0
 154 003a 0092     		str	r2, [sp]
 316:../../../../../../Middlewares/Third_Party/LoRaWAN/Mac/region/RegionUS915.c ****         }
 155              		.loc 1 316 0
 156 003c EDE7     		b	.L2
 157              	.L12:
 370:../../../../../../Middlewares/Third_Party/LoRaWAN/Mac/region/RegionUS915.c ****             break;
 158              		.loc 1 370 0
 159 003e 274B     		ldr	r3, .L30+8
 160 0040 0093     		str	r3, [sp]
 371:../../../../../../Middlewares/Third_Party/LoRaWAN/Mac/region/RegionUS915.c ****         }
 161              		.loc 1 371 0
 162 0042 EAE7     		b	.L2
 163              	.L11:
 365:../../../../../../Middlewares/Third_Party/LoRaWAN/Mac/region/RegionUS915.c ****             break;
 164              		.loc 1 365 0
 165 0044 FA23     		movs	r3, #250
 166 0046 DB00     		lsls	r3, r3, #3
 167 0048 0093     		str	r3, [sp]
 366:../../../../../../Middlewares/Third_Party/LoRaWAN/Mac/region/RegionUS915.c ****         }
 168              		.loc 1 366 0
 169 004a E6E7     		b	.L2
 170              	.L10:
 360:../../../../../../Middlewares/Third_Party/LoRaWAN/Mac/region/RegionUS915.c ****             break;
 171              		.loc 1 360 0
 172 004c FA23     		movs	r3, #250
 173 004e 9B00     		lsls	r3, r3, #2
 174 0050 0093     		str	r3, [sp]
 361:../../../../../../Middlewares/Third_Party/LoRaWAN/Mac/region/RegionUS915.c ****         }
 175              		.loc 1 361 0
 176 0052 E2E7     		b	.L2
 177              	.L9:
 355:../../../../../../Middlewares/Third_Party/LoRaWAN/Mac/region/RegionUS915.c ****             break;
 178              		.loc 1 355 0
 179 0054 224B     		ldr	r3, .L30+12
 180 0056 0093     		str	r3, [sp]
 356:../../../../../../Middlewares/Third_Party/LoRaWAN/Mac/region/RegionUS915.c ****         }
 181              		.loc 1 356 0
 182 0058 DFE7     		b	.L2
 183              	.L24:
 446:../../../../../../Middlewares/Third_Party/LoRaWAN/Mac/region/RegionUS915.c ****             phyParam.BeaconFormat.Rfu1Size = US915_RFU1_SIZE;
 184              		.loc 1 446 0
 185 005a 6A46     		mov	r2, sp
 186 005c 214B     		ldr	r3, .L30+16
 187 005e 1380     		strh	r3, [r2]
ARM GAS  C:\Users\EBANO_~1\AppData\Local\Temp\ccFRmLE5.s 			page 13


 447:../../../../../../Middlewares/Third_Party/LoRaWAN/Mac/region/RegionUS915.c ****             phyParam.BeaconFormat.Rfu2Size = US915_RFU2_SIZE;
 188              		.loc 1 447 0
 189 0060 0323     		movs	r3, #3
 190 0062 9370     		strb	r3, [r2, #2]
 449:../../../../../../Middlewares/Third_Party/LoRaWAN/Mac/region/RegionUS915.c ****         }
 191              		.loc 1 449 0
 192 0064 D9E7     		b	.L2
 193              	.L8:
 345:../../../../../../Middlewares/Third_Party/LoRaWAN/Mac/region/RegionUS915.c ****             break;
 194              		.loc 1 345 0
 195 0066 0122     		movs	r2, #1
 196 0068 1F4B     		ldr	r3, .L30+20
 197 006a 8256     		ldrsb	r2, [r0, r2]
 198 006c 9B18     		adds	r3, r3, r2
 199 006e 1B7C     		ldrb	r3, [r3, #16]
 200 0070 0093     		str	r3, [sp]
 346:../../../../../../Middlewares/Third_Party/LoRaWAN/Mac/region/RegionUS915.c ****         }
 201              		.loc 1 346 0
 202 0072 D2E7     		b	.L2
 203              	.L7:
 340:../../../../../../Middlewares/Third_Party/LoRaWAN/Mac/region/RegionUS915.c ****             break;
 204              		.loc 1 340 0
 205 0074 0123     		movs	r3, #1
 206 0076 1C4A     		ldr	r2, .L30+20
 207 0078 C356     		ldrsb	r3, [r0, r3]
 208 007a D35C     		ldrb	r3, [r2, r3]
 209 007c 0093     		str	r3, [sp]
 341:../../../../../../Middlewares/Third_Party/LoRaWAN/Mac/region/RegionUS915.c ****         }
 210              		.loc 1 341 0
 211 007e CCE7     		b	.L2
 212              	.L6:
 335:../../../../../../Middlewares/Third_Party/LoRaWAN/Mac/region/RegionUS915.c ****             break;
 213              		.loc 1 335 0
 214 0080 2023     		movs	r3, #32
 215 0082 0093     		str	r3, [sp]
 336:../../../../../../Middlewares/Third_Party/LoRaWAN/Mac/region/RegionUS915.c ****         }
 216              		.loc 1 336 0
 217 0084 C9E7     		b	.L2
 218              	.L22:
 436:../../../../../../Middlewares/Third_Party/LoRaWAN/Mac/region/RegionUS915.c ****             break;
 219              		.loc 1 436 0
 220 0086 0023     		movs	r3, #0
 221 0088 0093     		str	r3, [sp]
 437:../../../../../../Middlewares/Third_Party/LoRaWAN/Mac/region/RegionUS915.c ****         }
 222              		.loc 1 437 0
 223 008a C6E7     		b	.L2
 224              	.L15:
 385:../../../../../../Middlewares/Third_Party/LoRaWAN/Mac/region/RegionUS915.c ****             break;
 225              		.loc 1 385 0
 226 008c FA21     		movs	r1, #250
 227 008e 1748     		ldr	r0, .L30+24
 228              	.LVL7:
 229 0090 8900     		lsls	r1, r1, #2
 230 0092 FFF7FEFF 		bl	randr
 231              	.LVL8:
 232 0096 FA23     		movs	r3, #250
 233 0098 DB00     		lsls	r3, r3, #3
ARM GAS  C:\Users\EBANO_~1\AppData\Local\Temp\ccFRmLE5.s 			page 14


 234 009a 9C46     		mov	ip, r3
 235 009c 6044     		add	r0, r0, ip
 236 009e 0090     		str	r0, [sp]
 386:../../../../../../Middlewares/Third_Party/LoRaWAN/Mac/region/RegionUS915.c ****         }
 237              		.loc 1 386 0
 238 00a0 BBE7     		b	.L2
 239              	.LVL9:
 240              	.L14:
 380:../../../../../../Middlewares/Third_Party/LoRaWAN/Mac/region/RegionUS915.c ****             break;
 241              		.loc 1 380 0
 242 00a2 8023     		movs	r3, #128
 243 00a4 DB01     		lsls	r3, r3, #7
 244 00a6 0093     		str	r3, [sp]
 381:../../../../../../Middlewares/Third_Party/LoRaWAN/Mac/region/RegionUS915.c ****         }
 245              		.loc 1 381 0
 246 00a8 B7E7     		b	.L2
 247              	.L13:
 375:../../../../../../Middlewares/Third_Party/LoRaWAN/Mac/region/RegionUS915.c ****             break;
 248              		.loc 1 375 0
 249 00aa 114B     		ldr	r3, .L30+28
 250 00ac 0093     		str	r3, [sp]
 376:../../../../../../Middlewares/Third_Party/LoRaWAN/Mac/region/RegionUS915.c ****         }
 251              		.loc 1 376 0
 252 00ae B4E7     		b	.L2
 253              	.L17:
 405:../../../../../../Middlewares/Third_Party/LoRaWAN/Mac/region/RegionUS915.c ****             break;
 254              		.loc 1 405 0
 255 00b0 104B     		ldr	r3, .L30+32
 256 00b2 0093     		str	r3, [sp]
 406:../../../../../../Middlewares/Third_Party/LoRaWAN/Mac/region/RegionUS915.c ****         }
 257              		.loc 1 406 0
 258 00b4 B1E7     		b	.L2
 259              	.L18:
 410:../../../../../../Middlewares/Third_Party/LoRaWAN/Mac/region/RegionUS915.c ****             break;
 260              		.loc 1 410 0
 261 00b6 104B     		ldr	r3, .L30+36
 262 00b8 0093     		str	r3, [sp]
 411:../../../../../../Middlewares/Third_Party/LoRaWAN/Mac/region/RegionUS915.c ****         }
 263              		.loc 1 411 0
 264 00ba AEE7     		b	.L2
 265              	.L20:
 420:../../../../../../Middlewares/Third_Party/LoRaWAN/Mac/region/RegionUS915.c ****             break;
 266              		.loc 1 420 0
 267 00bc 0F4B     		ldr	r3, .L30+40
 268 00be 0093     		str	r3, [sp]
 421:../../../../../../Middlewares/Third_Party/LoRaWAN/Mac/region/RegionUS915.c ****         }
 269              		.loc 1 421 0
 270 00c0 ABE7     		b	.L2
 271              	.L5:
 330:../../../../../../Middlewares/Third_Party/LoRaWAN/Mac/region/RegionUS915.c ****             break;
 272              		.loc 1 330 0
 273 00c2 4023     		movs	r3, #64
 274 00c4 0093     		str	r3, [sp]
 331:../../../../../../Middlewares/Third_Party/LoRaWAN/Mac/region/RegionUS915.c ****         }
 275              		.loc 1 331 0
 276 00c6 A8E7     		b	.L2
 277              	.L21:
ARM GAS  C:\Users\EBANO_~1\AppData\Local\Temp\ccFRmLE5.s 			page 15


 431:../../../../../../Middlewares/Third_Party/LoRaWAN/Mac/region/RegionUS915.c ****             break;
 278              		.loc 1 431 0
 279 00c8 0D4B     		ldr	r3, .L30+44
 280 00ca 0093     		str	r3, [sp]
 432:../../../../../../Middlewares/Third_Party/LoRaWAN/Mac/region/RegionUS915.c ****         }
 281              		.loc 1 432 0
 282 00cc A5E7     		b	.L2
 283              	.L25:
 458:../../../../../../Middlewares/Third_Party/LoRaWAN/Mac/region/RegionUS915.c ****             break;
 284              		.loc 1 458 0
 285 00ce 0D4B     		ldr	r3, .L30+48
 286 00d0 0093     		str	r3, [sp]
 459:../../../../../../Middlewares/Third_Party/LoRaWAN/Mac/region/RegionUS915.c ****         }
 287              		.loc 1 459 0
 288 00d2 A2E7     		b	.L2
 289              	.L31:
 290              		.align	2
 291              	.L30:
 292 00d4 00000000 		.word	.L4
 293 00d8 A0700837 		.word	923300000
 294 00dc 88130000 		.word	5000
 295 00e0 B80B0000 		.word	3000
 296 00e4 17050000 		.word	1303
 297 00e8 50010000 		.word	.LANCHOR0
 298 00ec 18FCFFFF 		.word	-1000
 299 00f0 70170000 		.word	6000
 300 00f4 70030000 		.word	NvmCtx+880
 301 00f8 88030000 		.word	NvmCtx+904
 302 00fc 00000000 		.word	NvmCtx
 303 0100 9A990042 		.word	1107335578
 304 0104 C0270900 		.word	600000
 305              		.cfi_endproc
 306              	.LFE46:
 307              		.size	RegionUS915GetPhyParam, .-RegionUS915GetPhyParam
 308              		.section	.text.RegionUS915SetBandTxDone,"ax",%progbits
 309              		.align	1
 310              		.p2align 2,,3
 311              		.global	RegionUS915SetBandTxDone
 312              		.syntax unified
 313              		.code	16
 314              		.thumb_func
 315              		.fpu softvfp
 316              		.type	RegionUS915SetBandTxDone, %function
 317              	RegionUS915SetBandTxDone:
 318              	.LFB47:
 479:../../../../../../Middlewares/Third_Party/LoRaWAN/Mac/region/RegionUS915.c **** 
 480:../../../../../../Middlewares/Third_Party/LoRaWAN/Mac/region/RegionUS915.c **** void RegionUS915SetBandTxDone( SetBandTxDoneParams_t* txDone )
 481:../../../../../../Middlewares/Third_Party/LoRaWAN/Mac/region/RegionUS915.c **** {
 319              		.loc 1 481 0
 320              		.cfi_startproc
 321              		@ args = 0, pretend = 0, frame = 0
 322              		@ frame_needed = 0, uses_anonymous_args = 0
 323              	.LVL10:
 482:../../../../../../Middlewares/Third_Party/LoRaWAN/Mac/region/RegionUS915.c ****     RegionCommonSetBandTxDone( txDone->Joined, &NvmCtx.Bands[NvmCtx.Channels[txDone->Channel].Band]
 324              		.loc 1 482 0
 325 0000 0178     		ldrb	r1, [r0]
 481:../../../../../../Middlewares/Third_Party/LoRaWAN/Mac/region/RegionUS915.c ****     RegionCommonSetBandTxDone( txDone->Joined, &NvmCtx.Bands[NvmCtx.Channels[txDone->Channel].Band]
ARM GAS  C:\Users\EBANO_~1\AppData\Local\Temp\ccFRmLE5.s 			page 16


 326              		.loc 1 481 0
 327 0002 10B5     		push	{r4, lr}
 328              	.LCFI2:
 329              		.cfi_def_cfa_offset 8
 330              		.cfi_offset 4, -8
 331              		.cfi_offset 14, -4
 332              		.loc 1 482 0
 333 0004 4B00     		lsls	r3, r1, #1
 334 0006 064C     		ldr	r4, .L33
 335 0008 5B18     		adds	r3, r3, r1
 336 000a 9B00     		lsls	r3, r3, #2
 337 000c E318     		adds	r3, r4, r3
 338 000e 597A     		ldrb	r1, [r3, #9]
 339 0010 4268     		ldr	r2, [r0, #4]
 340 0012 3631     		adds	r1, r1, #54
 341 0014 0901     		lsls	r1, r1, #4
 342 0016 0919     		adds	r1, r1, r4
 343 0018 4078     		ldrb	r0, [r0, #1]
 344              	.LVL11:
 345 001a FFF7FEFF 		bl	RegionCommonSetBandTxDone
 346              	.LVL12:
 483:../../../../../../Middlewares/Third_Party/LoRaWAN/Mac/region/RegionUS915.c **** }
 347              		.loc 1 483 0
 348              		@ sp needed
 349 001e 10BD     		pop	{r4, pc}
 350              	.L34:
 351              		.align	2
 352              	.L33:
 353 0020 00000000 		.word	NvmCtx
 354              		.cfi_endproc
 355              	.LFE47:
 356              		.size	RegionUS915SetBandTxDone, .-RegionUS915SetBandTxDone
 357              		.section	.text.RegionUS915InitDefaults,"ax",%progbits
 358              		.align	1
 359              		.p2align 2,,3
 360              		.global	RegionUS915InitDefaults
 361              		.syntax unified
 362              		.code	16
 363              		.thumb_func
 364              		.fpu softvfp
 365              		.type	RegionUS915InitDefaults, %function
 366              	RegionUS915InitDefaults:
 367              	.LFB48:
 484:../../../../../../Middlewares/Third_Party/LoRaWAN/Mac/region/RegionUS915.c **** 
 485:../../../../../../Middlewares/Third_Party/LoRaWAN/Mac/region/RegionUS915.c **** void RegionUS915InitDefaults( InitDefaultsParams_t* params )
 486:../../../../../../Middlewares/Third_Party/LoRaWAN/Mac/region/RegionUS915.c **** {
 368              		.loc 1 486 0
 369              		.cfi_startproc
 370              		@ args = 0, pretend = 0, frame = 16
 371              		@ frame_needed = 0, uses_anonymous_args = 0
 372              	.LVL13:
 373 0000 30B5     		push	{r4, r5, lr}
 374              	.LCFI3:
 375              		.cfi_def_cfa_offset 12
 376              		.cfi_offset 4, -12
 377              		.cfi_offset 5, -8
 378              		.cfi_offset 14, -4
ARM GAS  C:\Users\EBANO_~1\AppData\Local\Temp\ccFRmLE5.s 			page 17


 379 0002 85B0     		sub	sp, sp, #20
 380              	.LCFI4:
 381              		.cfi_def_cfa_offset 32
 487:../../../../../../Middlewares/Third_Party/LoRaWAN/Mac/region/RegionUS915.c ****     Band_t bands[US915_MAX_NB_BANDS] =
 382              		.loc 1 487 0
 383 0004 0123     		movs	r3, #1
 384 0006 6A46     		mov	r2, sp
 385 0008 1380     		strh	r3, [r2]
 386 000a 0023     		movs	r3, #0
 387 000c 9370     		strb	r3, [r2, #2]
 388 000e 0193     		str	r3, [sp, #4]
 389 0010 0293     		str	r3, [sp, #8]
 390 0012 0393     		str	r3, [sp, #12]
 488:../../../../../../Middlewares/Third_Party/LoRaWAN/Mac/region/RegionUS915.c ****     {
 489:../../../../../../Middlewares/Third_Party/LoRaWAN/Mac/region/RegionUS915.c ****        US915_BAND0
 490:../../../../../../Middlewares/Third_Party/LoRaWAN/Mac/region/RegionUS915.c ****     };
 491:../../../../../../Middlewares/Third_Party/LoRaWAN/Mac/region/RegionUS915.c **** 
 492:../../../../../../Middlewares/Third_Party/LoRaWAN/Mac/region/RegionUS915.c ****     switch( params->Type )
 391              		.loc 1 492 0
 392 0014 0579     		ldrb	r5, [r0, #4]
 393 0016 012D     		cmp	r5, #1
 394 0018 69D0     		beq	.L37
 395 001a 002D     		cmp	r5, #0
 396 001c 0BD0     		beq	.L38
 397 001e 022D     		cmp	r5, #2
 398 0020 07D1     		bne	.L35
 493:../../../../../../Middlewares/Third_Party/LoRaWAN/Mac/region/RegionUS915.c ****     {
 494:../../../../../../Middlewares/Third_Party/LoRaWAN/Mac/region/RegionUS915.c ****         case INIT_TYPE_INIT:
 495:../../../../../../Middlewares/Third_Party/LoRaWAN/Mac/region/RegionUS915.c ****         {
 496:../../../../../../Middlewares/Third_Party/LoRaWAN/Mac/region/RegionUS915.c ****             // Initialize bands
 497:../../../../../../Middlewares/Third_Party/LoRaWAN/Mac/region/RegionUS915.c ****             memcpy1( ( uint8_t* )NvmCtx.Bands, ( uint8_t* )bands, sizeof( Band_t ) * US915_MAX_NB_B
 498:../../../../../../Middlewares/Third_Party/LoRaWAN/Mac/region/RegionUS915.c **** 
 499:../../../../../../Middlewares/Third_Party/LoRaWAN/Mac/region/RegionUS915.c ****             // Initialize 8 bit channel groups index
 500:../../../../../../Middlewares/Third_Party/LoRaWAN/Mac/region/RegionUS915.c ****             NvmCtx.JoinChannelGroupsCurrentIndex = 0;
 501:../../../../../../Middlewares/Third_Party/LoRaWAN/Mac/region/RegionUS915.c **** 
 502:../../../../../../Middlewares/Third_Party/LoRaWAN/Mac/region/RegionUS915.c ****             // Initialize the join trials counter
 503:../../../../../../Middlewares/Third_Party/LoRaWAN/Mac/region/RegionUS915.c ****             NvmCtx.JoinTrialsCounter = 0;
 504:../../../../../../Middlewares/Third_Party/LoRaWAN/Mac/region/RegionUS915.c **** 
 505:../../../../../../Middlewares/Third_Party/LoRaWAN/Mac/region/RegionUS915.c ****             // Channels
 506:../../../../../../Middlewares/Third_Party/LoRaWAN/Mac/region/RegionUS915.c ****             // 125 kHz channels
 507:../../../../../../Middlewares/Third_Party/LoRaWAN/Mac/region/RegionUS915.c ****             for( uint8_t i = 0; i < US915_MAX_NB_CHANNELS - 8; i++ )
 508:../../../../../../Middlewares/Third_Party/LoRaWAN/Mac/region/RegionUS915.c ****             {
 509:../../../../../../Middlewares/Third_Party/LoRaWAN/Mac/region/RegionUS915.c ****                 NvmCtx.Channels[i].Frequency = 902300000 + i * 200000;
 510:../../../../../../Middlewares/Third_Party/LoRaWAN/Mac/region/RegionUS915.c ****                 NvmCtx.Channels[i].DrRange.Value = ( DR_3 << 4 ) | DR_0;
 511:../../../../../../Middlewares/Third_Party/LoRaWAN/Mac/region/RegionUS915.c ****                 NvmCtx.Channels[i].Band = 0;
 512:../../../../../../Middlewares/Third_Party/LoRaWAN/Mac/region/RegionUS915.c ****             }
 513:../../../../../../Middlewares/Third_Party/LoRaWAN/Mac/region/RegionUS915.c ****             // 500 kHz channels
 514:../../../../../../Middlewares/Third_Party/LoRaWAN/Mac/region/RegionUS915.c ****             for( uint8_t i = US915_MAX_NB_CHANNELS - 8; i < US915_MAX_NB_CHANNELS; i++ )
 515:../../../../../../Middlewares/Third_Party/LoRaWAN/Mac/region/RegionUS915.c ****             {
 516:../../../../../../Middlewares/Third_Party/LoRaWAN/Mac/region/RegionUS915.c ****                 NvmCtx.Channels[i].Frequency = 903000000 + ( i - ( US915_MAX_NB_CHANNELS - 8 ) ) * 
 517:../../../../../../Middlewares/Third_Party/LoRaWAN/Mac/region/RegionUS915.c ****                 NvmCtx.Channels[i].DrRange.Value = ( DR_4 << 4 ) | DR_4;
 518:../../../../../../Middlewares/Third_Party/LoRaWAN/Mac/region/RegionUS915.c ****                 NvmCtx.Channels[i].Band = 0;
 519:../../../../../../Middlewares/Third_Party/LoRaWAN/Mac/region/RegionUS915.c ****             }
 520:../../../../../../Middlewares/Third_Party/LoRaWAN/Mac/region/RegionUS915.c **** 
 521:../../../../../../Middlewares/Third_Party/LoRaWAN/Mac/region/RegionUS915.c ****             // ChannelsMask
 522:../../../../../../Middlewares/Third_Party/LoRaWAN/Mac/region/RegionUS915.c ****             NvmCtx.ChannelsDefaultMask[0] = 0xFFFF;
 523:../../../../../../Middlewares/Third_Party/LoRaWAN/Mac/region/RegionUS915.c ****             NvmCtx.ChannelsDefaultMask[1] = 0xFFFF;
ARM GAS  C:\Users\EBANO_~1\AppData\Local\Temp\ccFRmLE5.s 			page 18


 524:../../../../../../Middlewares/Third_Party/LoRaWAN/Mac/region/RegionUS915.c ****             NvmCtx.ChannelsDefaultMask[2] = 0xFFFF;
 525:../../../../../../Middlewares/Third_Party/LoRaWAN/Mac/region/RegionUS915.c ****             NvmCtx.ChannelsDefaultMask[3] = 0xFFFF;
 526:../../../../../../Middlewares/Third_Party/LoRaWAN/Mac/region/RegionUS915.c ****             NvmCtx.ChannelsDefaultMask[4] = 0x00FF;
 527:../../../../../../Middlewares/Third_Party/LoRaWAN/Mac/region/RegionUS915.c ****             NvmCtx.ChannelsDefaultMask[5] = 0x0000;
 528:../../../../../../Middlewares/Third_Party/LoRaWAN/Mac/region/RegionUS915.c **** 
 529:../../../../../../Middlewares/Third_Party/LoRaWAN/Mac/region/RegionUS915.c ****             // Copy channels default mask
 530:../../../../../../Middlewares/Third_Party/LoRaWAN/Mac/region/RegionUS915.c ****             RegionCommonChanMaskCopy( NvmCtx.ChannelsMask, NvmCtx.ChannelsDefaultMask, 6 );
 531:../../../../../../Middlewares/Third_Party/LoRaWAN/Mac/region/RegionUS915.c **** 
 532:../../../../../../Middlewares/Third_Party/LoRaWAN/Mac/region/RegionUS915.c ****             // Copy into channels mask remaining
 533:../../../../../../Middlewares/Third_Party/LoRaWAN/Mac/region/RegionUS915.c ****             RegionCommonChanMaskCopy( NvmCtx.ChannelsMaskRemaining, NvmCtx.ChannelsMask, 6 );
 534:../../../../../../Middlewares/Third_Party/LoRaWAN/Mac/region/RegionUS915.c ****             break;
 535:../../../../../../Middlewares/Third_Party/LoRaWAN/Mac/region/RegionUS915.c ****         }
 536:../../../../../../Middlewares/Third_Party/LoRaWAN/Mac/region/RegionUS915.c ****         case INIT_TYPE_RESTORE_CTX:
 537:../../../../../../Middlewares/Third_Party/LoRaWAN/Mac/region/RegionUS915.c ****         {
 538:../../../../../../Middlewares/Third_Party/LoRaWAN/Mac/region/RegionUS915.c ****             if( params->NvmCtx != 0 )
 399              		.loc 1 538 0
 400 0022 0168     		ldr	r1, [r0]
 401 0024 0029     		cmp	r1, #0
 402 0026 04D0     		beq	.L35
 539:../../../../../../Middlewares/Third_Party/LoRaWAN/Mac/region/RegionUS915.c ****             {
 540:../../../../../../Middlewares/Third_Party/LoRaWAN/Mac/region/RegionUS915.c ****                 memcpy1( (uint8_t*) &NvmCtx, (uint8_t*) params->NvmCtx, sizeof( NvmCtx ) );
 403              		.loc 1 540 0
 404 0028 E622     		movs	r2, #230
 405 002a 4148     		ldr	r0, .L44
 406              	.LVL14:
 407 002c 9200     		lsls	r2, r2, #2
 408 002e FFF7FEFF 		bl	memcpy1
 409              	.LVL15:
 410              	.L35:
 541:../../../../../../Middlewares/Third_Party/LoRaWAN/Mac/region/RegionUS915.c ****             }
 542:../../../../../../Middlewares/Third_Party/LoRaWAN/Mac/region/RegionUS915.c ****             break;
 543:../../../../../../Middlewares/Third_Party/LoRaWAN/Mac/region/RegionUS915.c ****         }
 544:../../../../../../Middlewares/Third_Party/LoRaWAN/Mac/region/RegionUS915.c ****         case INIT_TYPE_RESTORE_DEFAULT_CHANNELS:
 545:../../../../../../Middlewares/Third_Party/LoRaWAN/Mac/region/RegionUS915.c ****         {
 546:../../../../../../Middlewares/Third_Party/LoRaWAN/Mac/region/RegionUS915.c ****             // Copy channels default mask
 547:../../../../../../Middlewares/Third_Party/LoRaWAN/Mac/region/RegionUS915.c ****             RegionCommonChanMaskCopy( NvmCtx.ChannelsMask, NvmCtx.ChannelsDefaultMask, 6 );
 548:../../../../../../Middlewares/Third_Party/LoRaWAN/Mac/region/RegionUS915.c **** 
 549:../../../../../../Middlewares/Third_Party/LoRaWAN/Mac/region/RegionUS915.c ****             for( uint8_t i = 0; i < 6; i++ )
 550:../../../../../../Middlewares/Third_Party/LoRaWAN/Mac/region/RegionUS915.c ****             { // Copy-And the channels mask
 551:../../../../../../Middlewares/Third_Party/LoRaWAN/Mac/region/RegionUS915.c ****                 NvmCtx.ChannelsMaskRemaining[i] &= NvmCtx.ChannelsMask[i];
 552:../../../../../../Middlewares/Third_Party/LoRaWAN/Mac/region/RegionUS915.c ****             }
 553:../../../../../../Middlewares/Third_Party/LoRaWAN/Mac/region/RegionUS915.c ****             break;
 554:../../../../../../Middlewares/Third_Party/LoRaWAN/Mac/region/RegionUS915.c ****         }
 555:../../../../../../Middlewares/Third_Party/LoRaWAN/Mac/region/RegionUS915.c ****         default:
 556:../../../../../../Middlewares/Third_Party/LoRaWAN/Mac/region/RegionUS915.c ****         {
 557:../../../../../../Middlewares/Third_Party/LoRaWAN/Mac/region/RegionUS915.c ****             break;
 558:../../../../../../Middlewares/Third_Party/LoRaWAN/Mac/region/RegionUS915.c ****         }
 559:../../../../../../Middlewares/Third_Party/LoRaWAN/Mac/region/RegionUS915.c ****     }
 560:../../../../../../Middlewares/Third_Party/LoRaWAN/Mac/region/RegionUS915.c **** }
 411              		.loc 1 560 0
 412 0032 05B0     		add	sp, sp, #20
 413              		@ sp needed
 414 0034 30BD     		pop	{r4, r5, pc}
 415              	.LVL16:
 416              	.L38:
 497:../../../../../../Middlewares/Third_Party/LoRaWAN/Mac/region/RegionUS915.c **** 
 417              		.loc 1 497 0
ARM GAS  C:\Users\EBANO_~1\AppData\Local\Temp\ccFRmLE5.s 			page 19


 418 0036 3F4C     		ldr	r4, .L44+4
 419 0038 1022     		movs	r2, #16
 420 003a 2000     		movs	r0, r4
 421              	.LVL17:
 422 003c 6946     		mov	r1, sp
 423 003e FFF7FEFF 		bl	memcpy1
 424              	.LVL18:
 425 0042 3D4B     		ldr	r3, .L44+8
 426 0044 2100     		movs	r1, r4
 500:../../../../../../Middlewares/Third_Party/LoRaWAN/Mac/region/RegionUS915.c **** 
 427              		.loc 1 500 0
 428 0046 A586     		strh	r5, [r4, #52]
 429              	.LVL19:
 430 0048 E318     		adds	r3, r4, r3
 431              	.LBB23:
 511:../../../../../../Middlewares/Third_Party/LoRaWAN/Mac/region/RegionUS915.c ****             }
 432              		.loc 1 511 0
 433 004a 0020     		movs	r0, #0
 510:../../../../../../Middlewares/Third_Party/LoRaWAN/Mac/region/RegionUS915.c ****                 NvmCtx.Channels[i].Band = 0;
 434              		.loc 1 510 0
 435 004c 3024     		movs	r4, #48
 436              	.LBE23:
 500:../../../../../../Middlewares/Third_Party/LoRaWAN/Mac/region/RegionUS915.c **** 
 437              		.loc 1 500 0
 438 004e 3B4A     		ldr	r2, .L44+12
 439 0050 6039     		subs	r1, r1, #96
 440              	.LVL20:
 441              	.L40:
 442 0052 3B4D     		ldr	r5, .L44+16
 443              	.LBB24:
 509:../../../../../../Middlewares/Third_Party/LoRaWAN/Mac/region/RegionUS915.c ****                 NvmCtx.Channels[i].DrRange.Value = ( DR_3 << 4 ) | DR_0;
 444              		.loc 1 509 0 discriminator 3
 445 0054 1A60     		str	r2, [r3]
 446 0056 AC46     		mov	ip, r5
 510:../../../../../../Middlewares/Third_Party/LoRaWAN/Mac/region/RegionUS915.c ****                 NvmCtx.Channels[i].Band = 0;
 447              		.loc 1 510 0 discriminator 3
 448 0058 1C72     		strb	r4, [r3, #8]
 511:../../../../../../Middlewares/Third_Party/LoRaWAN/Mac/region/RegionUS915.c ****             }
 449              		.loc 1 511 0 discriminator 3
 450 005a 5872     		strb	r0, [r3, #9]
 451 005c 0C33     		adds	r3, r3, #12
 452 005e 6244     		add	r2, r2, ip
 507:../../../../../../Middlewares/Third_Party/LoRaWAN/Mac/region/RegionUS915.c ****             {
 453              		.loc 1 507 0 discriminator 3
 454 0060 8B42     		cmp	r3, r1
 455 0062 F6D1     		bne	.L40
 456              	.LVL21:
 457              	.LBE24:
 458              	.LBB25:
 516:../../../../../../Middlewares/Third_Party/LoRaWAN/Mac/region/RegionUS915.c ****                 NvmCtx.Channels[i].DrRange.Value = ( DR_4 << 4 ) | DR_4;
 459              		.loc 1 516 0
 460 0064 C023     		movs	r3, #192
 461 0066 324C     		ldr	r4, .L44
 462 0068 364A     		ldr	r2, .L44+20
 463 006a 9B00     		lsls	r3, r3, #2
 464 006c E250     		str	r2, [r4, r3]
 517:../../../../../../Middlewares/Third_Party/LoRaWAN/Mac/region/RegionUS915.c ****                 NvmCtx.Channels[i].Band = 0;
ARM GAS  C:\Users\EBANO_~1\AppData\Local\Temp\ccFRmLE5.s 			page 20


 465              		.loc 1 517 0
 466 006e C222     		movs	r2, #194
 467 0070 4423     		movs	r3, #68
 468 0072 9200     		lsls	r2, r2, #2
 516:../../../../../../Middlewares/Third_Party/LoRaWAN/Mac/region/RegionUS915.c ****                 NvmCtx.Channels[i].DrRange.Value = ( DR_4 << 4 ) | DR_4;
 469              		.loc 1 516 0
 470 0074 3449     		ldr	r1, .L44+24
 517:../../../../../../Middlewares/Third_Party/LoRaWAN/Mac/region/RegionUS915.c ****                 NvmCtx.Channels[i].Band = 0;
 471              		.loc 1 517 0
 472 0076 A352     		strh	r3, [r4, r2]
 473              	.LVL22:
 516:../../../../../../Middlewares/Third_Party/LoRaWAN/Mac/region/RegionUS915.c ****                 NvmCtx.Channels[i].DrRange.Value = ( DR_4 << 4 ) | DR_4;
 474              		.loc 1 516 0
 475 0078 0432     		adds	r2, r2, #4
 476 007a A150     		str	r1, [r4, r2]
 517:../../../../../../Middlewares/Third_Party/LoRaWAN/Mac/region/RegionUS915.c ****                 NvmCtx.Channels[i].Band = 0;
 477              		.loc 1 517 0
 478 007c 0832     		adds	r2, r2, #8
 516:../../../../../../Middlewares/Third_Party/LoRaWAN/Mac/region/RegionUS915.c ****                 NvmCtx.Channels[i].DrRange.Value = ( DR_4 << 4 ) | DR_4;
 479              		.loc 1 516 0
 480 007e 3349     		ldr	r1, .L44+28
 517:../../../../../../Middlewares/Third_Party/LoRaWAN/Mac/region/RegionUS915.c ****                 NvmCtx.Channels[i].Band = 0;
 481              		.loc 1 517 0
 482 0080 A352     		strh	r3, [r4, r2]
 483              	.LVL23:
 516:../../../../../../Middlewares/Third_Party/LoRaWAN/Mac/region/RegionUS915.c ****                 NvmCtx.Channels[i].DrRange.Value = ( DR_4 << 4 ) | DR_4;
 484              		.loc 1 516 0
 485 0082 0432     		adds	r2, r2, #4
 486 0084 A150     		str	r1, [r4, r2]
 517:../../../../../../Middlewares/Third_Party/LoRaWAN/Mac/region/RegionUS915.c ****                 NvmCtx.Channels[i].Band = 0;
 487              		.loc 1 517 0
 488 0086 0832     		adds	r2, r2, #8
 516:../../../../../../Middlewares/Third_Party/LoRaWAN/Mac/region/RegionUS915.c ****                 NvmCtx.Channels[i].DrRange.Value = ( DR_4 << 4 ) | DR_4;
 489              		.loc 1 516 0
 490 0088 3149     		ldr	r1, .L44+32
 517:../../../../../../Middlewares/Third_Party/LoRaWAN/Mac/region/RegionUS915.c ****                 NvmCtx.Channels[i].Band = 0;
 491              		.loc 1 517 0
 492 008a A352     		strh	r3, [r4, r2]
 493              	.LVL24:
 516:../../../../../../Middlewares/Third_Party/LoRaWAN/Mac/region/RegionUS915.c ****                 NvmCtx.Channels[i].DrRange.Value = ( DR_4 << 4 ) | DR_4;
 494              		.loc 1 516 0
 495 008c 0432     		adds	r2, r2, #4
 496 008e A150     		str	r1, [r4, r2]
 517:../../../../../../Middlewares/Third_Party/LoRaWAN/Mac/region/RegionUS915.c ****                 NvmCtx.Channels[i].Band = 0;
 497              		.loc 1 517 0
 498 0090 0832     		adds	r2, r2, #8
 516:../../../../../../Middlewares/Third_Party/LoRaWAN/Mac/region/RegionUS915.c ****                 NvmCtx.Channels[i].DrRange.Value = ( DR_4 << 4 ) | DR_4;
 499              		.loc 1 516 0
 500 0092 3049     		ldr	r1, .L44+36
 517:../../../../../../Middlewares/Third_Party/LoRaWAN/Mac/region/RegionUS915.c ****                 NvmCtx.Channels[i].Band = 0;
 501              		.loc 1 517 0
 502 0094 A352     		strh	r3, [r4, r2]
 503              	.LVL25:
 516:../../../../../../Middlewares/Third_Party/LoRaWAN/Mac/region/RegionUS915.c ****                 NvmCtx.Channels[i].DrRange.Value = ( DR_4 << 4 ) | DR_4;
 504              		.loc 1 516 0
 505 0096 0432     		adds	r2, r2, #4
 506 0098 A150     		str	r1, [r4, r2]
ARM GAS  C:\Users\EBANO_~1\AppData\Local\Temp\ccFRmLE5.s 			page 21


 517:../../../../../../Middlewares/Third_Party/LoRaWAN/Mac/region/RegionUS915.c ****                 NvmCtx.Channels[i].Band = 0;
 507              		.loc 1 517 0
 508 009a 0832     		adds	r2, r2, #8
 516:../../../../../../Middlewares/Third_Party/LoRaWAN/Mac/region/RegionUS915.c ****                 NvmCtx.Channels[i].DrRange.Value = ( DR_4 << 4 ) | DR_4;
 509              		.loc 1 516 0
 510 009c 2E49     		ldr	r1, .L44+40
 517:../../../../../../Middlewares/Third_Party/LoRaWAN/Mac/region/RegionUS915.c ****                 NvmCtx.Channels[i].Band = 0;
 511              		.loc 1 517 0
 512 009e A352     		strh	r3, [r4, r2]
 513              	.LVL26:
 516:../../../../../../Middlewares/Third_Party/LoRaWAN/Mac/region/RegionUS915.c ****                 NvmCtx.Channels[i].DrRange.Value = ( DR_4 << 4 ) | DR_4;
 514              		.loc 1 516 0
 515 00a0 0432     		adds	r2, r2, #4
 516 00a2 A150     		str	r1, [r4, r2]
 517:../../../../../../Middlewares/Third_Party/LoRaWAN/Mac/region/RegionUS915.c ****                 NvmCtx.Channels[i].Band = 0;
 517              		.loc 1 517 0
 518 00a4 0832     		adds	r2, r2, #8
 516:../../../../../../Middlewares/Third_Party/LoRaWAN/Mac/region/RegionUS915.c ****                 NvmCtx.Channels[i].DrRange.Value = ( DR_4 << 4 ) | DR_4;
 519              		.loc 1 516 0
 520 00a6 2D49     		ldr	r1, .L44+44
 517:../../../../../../Middlewares/Third_Party/LoRaWAN/Mac/region/RegionUS915.c ****                 NvmCtx.Channels[i].Band = 0;
 521              		.loc 1 517 0
 522 00a8 A352     		strh	r3, [r4, r2]
 523              	.LVL27:
 516:../../../../../../Middlewares/Third_Party/LoRaWAN/Mac/region/RegionUS915.c ****                 NvmCtx.Channels[i].DrRange.Value = ( DR_4 << 4 ) | DR_4;
 524              		.loc 1 516 0
 525 00aa 0432     		adds	r2, r2, #4
 526 00ac A150     		str	r1, [r4, r2]
 517:../../../../../../Middlewares/Third_Party/LoRaWAN/Mac/region/RegionUS915.c ****                 NvmCtx.Channels[i].Band = 0;
 527              		.loc 1 517 0
 528 00ae 0832     		adds	r2, r2, #8
 516:../../../../../../Middlewares/Third_Party/LoRaWAN/Mac/region/RegionUS915.c ****                 NvmCtx.Channels[i].DrRange.Value = ( DR_4 << 4 ) | DR_4;
 529              		.loc 1 516 0
 530 00b0 2B49     		ldr	r1, .L44+48
 517:../../../../../../Middlewares/Third_Party/LoRaWAN/Mac/region/RegionUS915.c ****                 NvmCtx.Channels[i].Band = 0;
 531              		.loc 1 517 0
 532 00b2 A352     		strh	r3, [r4, r2]
 533              	.LVL28:
 516:../../../../../../Middlewares/Third_Party/LoRaWAN/Mac/region/RegionUS915.c ****                 NvmCtx.Channels[i].DrRange.Value = ( DR_4 << 4 ) | DR_4;
 534              		.loc 1 516 0
 535 00b4 0432     		adds	r2, r2, #4
 536 00b6 A150     		str	r1, [r4, r2]
 517:../../../../../../Middlewares/Third_Party/LoRaWAN/Mac/region/RegionUS915.c ****                 NvmCtx.Channels[i].Band = 0;
 537              		.loc 1 517 0
 538 00b8 0832     		adds	r2, r2, #8
 539 00ba A352     		strh	r3, [r4, r2]
 540              	.LVL29:
 541              	.LBE25:
 522:../../../../../../Middlewares/Third_Party/LoRaWAN/Mac/region/RegionUS915.c ****             NvmCtx.ChannelsDefaultMask[1] = 0xFFFF;
 542              		.loc 1 522 0
 543 00bc 453B     		subs	r3, r3, #69
 544 00be 2C32     		adds	r2, r2, #44
 545 00c0 A350     		str	r3, [r4, r2]
 546 00c2 0432     		adds	r2, r2, #4
 547 00c4 A350     		str	r3, [r4, r2]
 548 00c6 E423     		movs	r3, #228
 549 00c8 FF22     		movs	r2, #255
ARM GAS  C:\Users\EBANO_~1\AppData\Local\Temp\ccFRmLE5.s 			page 22


 550 00ca 9B00     		lsls	r3, r3, #2
 551 00cc E250     		str	r2, [r4, r3]
 530:../../../../../../Middlewares/Third_Party/LoRaWAN/Mac/region/RegionUS915.c **** 
 552              		.loc 1 530 0
 553 00ce 083B     		subs	r3, r3, #8
 554 00d0 E118     		adds	r1, r4, r3
 555 00d2 183B     		subs	r3, r3, #24
 556 00d4 E518     		adds	r5, r4, r3
 557 00d6 2800     		movs	r0, r5
 558 00d8 F93A     		subs	r2, r2, #249
 559 00da FFF7FEFF 		bl	RegionCommonChanMaskCopy
 560              	.LVL30:
 533:../../../../../../Middlewares/Third_Party/LoRaWAN/Mac/region/RegionUS915.c ****             break;
 561              		.loc 1 533 0
 562 00de DF23     		movs	r3, #223
 563 00e0 9B00     		lsls	r3, r3, #2
 564 00e2 E018     		adds	r0, r4, r3
 565 00e4 0622     		movs	r2, #6
 566 00e6 2900     		movs	r1, r5
 567 00e8 FFF7FEFF 		bl	RegionCommonChanMaskCopy
 568              	.LVL31:
 534:../../../../../../Middlewares/Third_Party/LoRaWAN/Mac/region/RegionUS915.c ****         }
 569              		.loc 1 534 0
 570 00ec A1E7     		b	.L35
 571              	.LVL32:
 572              	.L37:
 547:../../../../../../Middlewares/Third_Party/LoRaWAN/Mac/region/RegionUS915.c **** 
 573              		.loc 1 547 0
 574 00ee 1D4C     		ldr	r4, .L44+52
 575 00f0 0622     		movs	r2, #6
 576 00f2 2000     		movs	r0, r4
 577              	.LVL33:
 578 00f4 2100     		movs	r1, r4
 579 00f6 1838     		subs	r0, r0, #24
 580 00f8 FFF7FEFF 		bl	RegionCommonChanMaskCopy
 581              	.LVL34:
 582              	.LBB26:
 551:../../../../../../Middlewares/Third_Party/LoRaWAN/Mac/region/RegionUS915.c ****             }
 583              		.loc 1 551 0
 584 00fc 1A4B     		ldr	r3, .L44+56
 585 00fe DF22     		movs	r2, #223
 586 0100 9C46     		mov	ip, r3
 587 0102 DC23     		movs	r3, #220
 588 0104 6444     		add	r4, r4, ip
 589 0106 9200     		lsls	r2, r2, #2
 590 0108 9B00     		lsls	r3, r3, #2
 591 010a A158     		ldr	r1, [r4, r2]
 592 010c E358     		ldr	r3, [r4, r3]
 593 010e 0B40     		ands	r3, r1
 594 0110 A350     		str	r3, [r4, r2]
 595 0112 DD23     		movs	r3, #221
 596 0114 0432     		adds	r2, r2, #4
 597 0116 9B00     		lsls	r3, r3, #2
 598 0118 A158     		ldr	r1, [r4, r2]
 599 011a E358     		ldr	r3, [r4, r3]
 600 011c 0B40     		ands	r3, r1
 601 011e A350     		str	r3, [r4, r2]
ARM GAS  C:\Users\EBANO_~1\AppData\Local\Temp\ccFRmLE5.s 			page 23


 602 0120 DE23     		movs	r3, #222
 603 0122 0432     		adds	r2, r2, #4
 604 0124 9B00     		lsls	r3, r3, #2
 605 0126 A158     		ldr	r1, [r4, r2]
 606 0128 E358     		ldr	r3, [r4, r3]
 607 012a 0B40     		ands	r3, r1
 608 012c A350     		str	r3, [r4, r2]
 609              	.LVL35:
 610 012e 80E7     		b	.L35
 611              	.L45:
 612              		.align	2
 613              	.L44:
 614 0130 00000000 		.word	NvmCtx
 615 0134 60030000 		.word	NvmCtx+864
 616 0138 A0FCFFFF 		.word	-864
 617 013c 6001C835 		.word	902300000
 618 0140 400D0300 		.word	200000
 619 0144 C0AFD235 		.word	903000000
 620 0148 C019EB35 		.word	904600000
 621 014c C0830336 		.word	906200000
 622 0150 C0ED1B36 		.word	907800000
 623 0154 C0573436 		.word	909400000
 624 0158 C0C14C36 		.word	911000000
 625 015c C02B6536 		.word	912600000
 626 0160 C0957D36 		.word	914200000
 627 0164 88030000 		.word	NvmCtx+904
 628 0168 78FCFFFF 		.word	-904
 629              	.LBE26:
 630              		.cfi_endproc
 631              	.LFE48:
 632              		.size	RegionUS915InitDefaults, .-RegionUS915InitDefaults
 633              		.section	.text.RegionUS915GetNvmCtx,"ax",%progbits
 634              		.align	1
 635              		.p2align 2,,3
 636              		.global	RegionUS915GetNvmCtx
 637              		.syntax unified
 638              		.code	16
 639              		.thumb_func
 640              		.fpu softvfp
 641              		.type	RegionUS915GetNvmCtx, %function
 642              	RegionUS915GetNvmCtx:
 643              	.LFB49:
 561:../../../../../../Middlewares/Third_Party/LoRaWAN/Mac/region/RegionUS915.c **** 
 562:../../../../../../Middlewares/Third_Party/LoRaWAN/Mac/region/RegionUS915.c **** void* RegionUS915GetNvmCtx( GetNvmCtxParams_t* params )
 563:../../../../../../Middlewares/Third_Party/LoRaWAN/Mac/region/RegionUS915.c **** {
 644              		.loc 1 563 0
 645              		.cfi_startproc
 646              		@ args = 0, pretend = 0, frame = 0
 647              		@ frame_needed = 0, uses_anonymous_args = 0
 648              		@ link register save eliminated.
 649              	.LVL36:
 564:../../../../../../Middlewares/Third_Party/LoRaWAN/Mac/region/RegionUS915.c ****     params->nvmCtxSize = sizeof( RegionUS915NvmCtx_t );
 650              		.loc 1 564 0
 651 0000 E623     		movs	r3, #230
 652 0002 9B00     		lsls	r3, r3, #2
 653 0004 0360     		str	r3, [r0]
 565:../../../../../../Middlewares/Third_Party/LoRaWAN/Mac/region/RegionUS915.c ****     return &NvmCtx;
ARM GAS  C:\Users\EBANO_~1\AppData\Local\Temp\ccFRmLE5.s 			page 24


 566:../../../../../../Middlewares/Third_Party/LoRaWAN/Mac/region/RegionUS915.c **** }
 654              		.loc 1 566 0
 655              		@ sp needed
 656 0006 0148     		ldr	r0, .L47
 657              	.LVL37:
 658 0008 7047     		bx	lr
 659              	.L48:
 660 000a C046     		.align	2
 661              	.L47:
 662 000c 00000000 		.word	NvmCtx
 663              		.cfi_endproc
 664              	.LFE49:
 665              		.size	RegionUS915GetNvmCtx, .-RegionUS915GetNvmCtx
 666              		.section	.text.RegionUS915Verify,"ax",%progbits
 667              		.align	1
 668              		.p2align 2,,3
 669              		.global	RegionUS915Verify
 670              		.syntax unified
 671              		.code	16
 672              		.thumb_func
 673              		.fpu softvfp
 674              		.type	RegionUS915Verify, %function
 675              	RegionUS915Verify:
 676              	.LFB50:
 567:../../../../../../Middlewares/Third_Party/LoRaWAN/Mac/region/RegionUS915.c **** 
 568:../../../../../../Middlewares/Third_Party/LoRaWAN/Mac/region/RegionUS915.c **** bool RegionUS915Verify( VerifyParams_t* verify, PhyAttribute_t phyAttribute )
 569:../../../../../../Middlewares/Third_Party/LoRaWAN/Mac/region/RegionUS915.c **** {
 677              		.loc 1 569 0
 678              		.cfi_startproc
 679              		@ args = 0, pretend = 0, frame = 0
 680              		@ frame_needed = 0, uses_anonymous_args = 0
 681              	.LVL38:
 570:../../../../../../Middlewares/Third_Party/LoRaWAN/Mac/region/RegionUS915.c ****     switch( phyAttribute )
 682              		.loc 1 570 0
 683 0000 0439     		subs	r1, r1, #4
 684              	.LVL39:
 685 0002 C9B2     		uxtb	r1, r1
 569:../../../../../../Middlewares/Third_Party/LoRaWAN/Mac/region/RegionUS915.c ****     switch( phyAttribute )
 686              		.loc 1 569 0
 687 0004 10B5     		push	{r4, lr}
 688              	.LCFI5:
 689              		.cfi_def_cfa_offset 8
 690              		.cfi_offset 4, -8
 691              		.cfi_offset 14, -4
 692              		.loc 1 570 0
 693 0006 0529     		cmp	r1, #5
 694 0008 2BD8     		bhi	.L56
 695 000a 174B     		ldr	r3, .L57
 696 000c 8900     		lsls	r1, r1, #2
 697 000e 5B58     		ldr	r3, [r3, r1]
 698 0010 9F46     		mov	pc, r3
 699              		.section	.rodata
 700              		.align	2
 701              	.L52:
 702 00d4 4E000000 		.word	.L51
 703 00d8 3A000000 		.word	.L53
 704 00dc 26000000 		.word	.L54
ARM GAS  C:\Users\EBANO_~1\AppData\Local\Temp\ccFRmLE5.s 			page 25


 705 00e0 62000000 		.word	.L56
 706 00e4 12000000 		.word	.L55
 707 00e8 12000000 		.word	.L55
 708              		.section	.text.RegionUS915Verify
 709              	.L55:
 571:../../../../../../Middlewares/Third_Party/LoRaWAN/Mac/region/RegionUS915.c ****     {
 572:../../../../../../Middlewares/Third_Party/LoRaWAN/Mac/region/RegionUS915.c ****         case PHY_TX_DR:
 573:../../../../../../Middlewares/Third_Party/LoRaWAN/Mac/region/RegionUS915.c ****         {
 574:../../../../../../Middlewares/Third_Party/LoRaWAN/Mac/region/RegionUS915.c ****             return RegionCommonValueInRange( verify->DatarateParams.Datarate, US915_TX_MIN_DATARATE
 575:../../../../../../Middlewares/Third_Party/LoRaWAN/Mac/region/RegionUS915.c ****         }
 576:../../../../../../Middlewares/Third_Party/LoRaWAN/Mac/region/RegionUS915.c ****         case PHY_DEF_TX_DR:
 577:../../../../../../Middlewares/Third_Party/LoRaWAN/Mac/region/RegionUS915.c ****         {
 578:../../../../../../Middlewares/Third_Party/LoRaWAN/Mac/region/RegionUS915.c ****             return RegionCommonValueInRange( verify->DatarateParams.Datarate, DR_0, DR_5 );
 579:../../../../../../Middlewares/Third_Party/LoRaWAN/Mac/region/RegionUS915.c ****         }
 580:../../../../../../Middlewares/Third_Party/LoRaWAN/Mac/region/RegionUS915.c ****         case PHY_RX_DR:
 581:../../../../../../Middlewares/Third_Party/LoRaWAN/Mac/region/RegionUS915.c ****         {
 582:../../../../../../Middlewares/Third_Party/LoRaWAN/Mac/region/RegionUS915.c ****             return RegionCommonValueInRange( verify->DatarateParams.Datarate, US915_RX_MIN_DATARATE
 583:../../../../../../Middlewares/Third_Party/LoRaWAN/Mac/region/RegionUS915.c ****         }
 584:../../../../../../Middlewares/Third_Party/LoRaWAN/Mac/region/RegionUS915.c ****         case PHY_DEF_TX_POWER:
 585:../../../../../../Middlewares/Third_Party/LoRaWAN/Mac/region/RegionUS915.c ****         case PHY_TX_POWER:
 586:../../../../../../Middlewares/Third_Party/LoRaWAN/Mac/region/RegionUS915.c ****         {
 587:../../../../../../Middlewares/Third_Party/LoRaWAN/Mac/region/RegionUS915.c ****             // Remark: switched min and max!
 588:../../../../../../Middlewares/Third_Party/LoRaWAN/Mac/region/RegionUS915.c ****             return RegionCommonValueInRange( verify->TxPower, US915_MAX_TX_POWER, US915_MIN_TX_POWE
 710              		.loc 1 588 0
 711 0012 0078     		ldrb	r0, [r0]
 712              	.LVL40:
 713 0014 0A22     		movs	r2, #10
 714 0016 40B2     		sxtb	r0, r0
 715 0018 0021     		movs	r1, #0
 716 001a FFF7FEFF 		bl	RegionCommonValueInRange
 717              	.LVL41:
 718 001e 431E     		subs	r3, r0, #1
 719 0020 9841     		sbcs	r0, r0, r3
 720 0022 C0B2     		uxtb	r0, r0
 721              	.L50:
 589:../../../../../../Middlewares/Third_Party/LoRaWAN/Mac/region/RegionUS915.c ****         }
 590:../../../../../../Middlewares/Third_Party/LoRaWAN/Mac/region/RegionUS915.c ****         case PHY_DUTY_CYCLE:
 591:../../../../../../Middlewares/Third_Party/LoRaWAN/Mac/region/RegionUS915.c ****         {
 592:../../../../../../Middlewares/Third_Party/LoRaWAN/Mac/region/RegionUS915.c ****             return US915_DUTY_CYCLE_ENABLED;
 593:../../../../../../Middlewares/Third_Party/LoRaWAN/Mac/region/RegionUS915.c ****         }
 594:../../../../../../Middlewares/Third_Party/LoRaWAN/Mac/region/RegionUS915.c ****         default:
 595:../../../../../../Middlewares/Third_Party/LoRaWAN/Mac/region/RegionUS915.c ****             return false;
 596:../../../../../../Middlewares/Third_Party/LoRaWAN/Mac/region/RegionUS915.c ****     }
 597:../../../../../../Middlewares/Third_Party/LoRaWAN/Mac/region/RegionUS915.c **** }
 722              		.loc 1 597 0
 723              		@ sp needed
 724 0024 10BD     		pop	{r4, pc}
 725              	.LVL42:
 726              	.L54:
 582:../../../../../../Middlewares/Third_Party/LoRaWAN/Mac/region/RegionUS915.c ****         }
 727              		.loc 1 582 0
 728 0026 0078     		ldrb	r0, [r0]
 729              	.LVL43:
 730 0028 0D22     		movs	r2, #13
 731 002a 40B2     		sxtb	r0, r0
 732 002c 0821     		movs	r1, #8
 733 002e FFF7FEFF 		bl	RegionCommonValueInRange
ARM GAS  C:\Users\EBANO_~1\AppData\Local\Temp\ccFRmLE5.s 			page 26


 734              	.LVL44:
 735 0032 431E     		subs	r3, r0, #1
 736 0034 9841     		sbcs	r0, r0, r3
 737 0036 C0B2     		uxtb	r0, r0
 738 0038 F4E7     		b	.L50
 739              	.LVL45:
 740              	.L53:
 578:../../../../../../Middlewares/Third_Party/LoRaWAN/Mac/region/RegionUS915.c ****         }
 741              		.loc 1 578 0
 742 003a 0078     		ldrb	r0, [r0]
 743              	.LVL46:
 744 003c 0522     		movs	r2, #5
 745 003e 40B2     		sxtb	r0, r0
 746 0040 0021     		movs	r1, #0
 747 0042 FFF7FEFF 		bl	RegionCommonValueInRange
 748              	.LVL47:
 749 0046 431E     		subs	r3, r0, #1
 750 0048 9841     		sbcs	r0, r0, r3
 751 004a C0B2     		uxtb	r0, r0
 752 004c EAE7     		b	.L50
 753              	.LVL48:
 754              	.L51:
 574:../../../../../../Middlewares/Third_Party/LoRaWAN/Mac/region/RegionUS915.c ****         }
 755              		.loc 1 574 0
 756 004e 0078     		ldrb	r0, [r0]
 757              	.LVL49:
 758 0050 0422     		movs	r2, #4
 759 0052 40B2     		sxtb	r0, r0
 760 0054 0021     		movs	r1, #0
 761 0056 FFF7FEFF 		bl	RegionCommonValueInRange
 762              	.LVL50:
 763 005a 431E     		subs	r3, r0, #1
 764 005c 9841     		sbcs	r0, r0, r3
 765 005e C0B2     		uxtb	r0, r0
 766 0060 E0E7     		b	.L50
 767              	.LVL51:
 768              	.L56:
 592:../../../../../../Middlewares/Third_Party/LoRaWAN/Mac/region/RegionUS915.c ****         }
 769              		.loc 1 592 0
 770 0062 0020     		movs	r0, #0
 771              	.LVL52:
 772 0064 DEE7     		b	.L50
 773              	.L58:
 774 0066 C046     		.align	2
 775              	.L57:
 776 0068 D4000000 		.word	.L52
 777              		.cfi_endproc
 778              	.LFE50:
 779              		.size	RegionUS915Verify, .-RegionUS915Verify
 780              		.section	.text.RegionUS915ApplyCFList,"ax",%progbits
 781              		.align	1
 782              		.p2align 2,,3
 783              		.global	RegionUS915ApplyCFList
 784              		.syntax unified
 785              		.code	16
 786              		.thumb_func
 787              		.fpu softvfp
ARM GAS  C:\Users\EBANO_~1\AppData\Local\Temp\ccFRmLE5.s 			page 27


 788              		.type	RegionUS915ApplyCFList, %function
 789              	RegionUS915ApplyCFList:
 790              	.LFB51:
 598:../../../../../../Middlewares/Third_Party/LoRaWAN/Mac/region/RegionUS915.c **** 
 599:../../../../../../Middlewares/Third_Party/LoRaWAN/Mac/region/RegionUS915.c **** void RegionUS915ApplyCFList( ApplyCFListParams_t* applyCFList )
 600:../../../../../../Middlewares/Third_Party/LoRaWAN/Mac/region/RegionUS915.c **** {
 791              		.loc 1 600 0
 792              		.cfi_startproc
 793              		@ args = 0, pretend = 0, frame = 0
 794              		@ frame_needed = 0, uses_anonymous_args = 0
 795              	.LVL53:
 796 0000 10B5     		push	{r4, lr}
 797              	.LCFI6:
 798              		.cfi_def_cfa_offset 8
 799              		.cfi_offset 4, -8
 800              		.cfi_offset 14, -4
 601:../../../../../../Middlewares/Third_Party/LoRaWAN/Mac/region/RegionUS915.c ****     // Size of the optional CF list must be 16 byte
 602:../../../../../../Middlewares/Third_Party/LoRaWAN/Mac/region/RegionUS915.c ****     if( applyCFList->Size != 16 )
 801              		.loc 1 602 0
 802 0002 0379     		ldrb	r3, [r0, #4]
 803 0004 102B     		cmp	r3, #16
 804 0006 00D0     		beq	.L61
 805              	.LVL54:
 806              	.L59:
 603:../../../../../../Middlewares/Third_Party/LoRaWAN/Mac/region/RegionUS915.c ****     {
 604:../../../../../../Middlewares/Third_Party/LoRaWAN/Mac/region/RegionUS915.c ****         return;
 605:../../../../../../Middlewares/Third_Party/LoRaWAN/Mac/region/RegionUS915.c ****     }
 606:../../../../../../Middlewares/Third_Party/LoRaWAN/Mac/region/RegionUS915.c **** 
 607:../../../../../../Middlewares/Third_Party/LoRaWAN/Mac/region/RegionUS915.c ****     // Last byte CFListType must be 0x01 to indicate the CFList contains a series of ChMask fields
 608:../../../../../../Middlewares/Third_Party/LoRaWAN/Mac/region/RegionUS915.c ****     if( applyCFList->Payload[15] != 0x01 )
 609:../../../../../../Middlewares/Third_Party/LoRaWAN/Mac/region/RegionUS915.c ****     {
 610:../../../../../../Middlewares/Third_Party/LoRaWAN/Mac/region/RegionUS915.c ****         return;
 611:../../../../../../Middlewares/Third_Party/LoRaWAN/Mac/region/RegionUS915.c ****     }
 612:../../../../../../Middlewares/Third_Party/LoRaWAN/Mac/region/RegionUS915.c **** 
 613:../../../../../../Middlewares/Third_Party/LoRaWAN/Mac/region/RegionUS915.c ****     // ChMask0 - ChMask4 must be set (every ChMask has 16 bit)
 614:../../../../../../Middlewares/Third_Party/LoRaWAN/Mac/region/RegionUS915.c ****     for( uint8_t chMaskItr = 0, cntPayload = 0; chMaskItr <= 4; chMaskItr++, cntPayload+=2 )
 615:../../../../../../Middlewares/Third_Party/LoRaWAN/Mac/region/RegionUS915.c ****     {
 616:../../../../../../Middlewares/Third_Party/LoRaWAN/Mac/region/RegionUS915.c ****         NvmCtx.ChannelsMask[chMaskItr] = (uint16_t) (0x00FF & applyCFList->Payload[cntPayload]);
 617:../../../../../../Middlewares/Third_Party/LoRaWAN/Mac/region/RegionUS915.c ****         NvmCtx.ChannelsMask[chMaskItr] |= (uint16_t) (applyCFList->Payload[cntPayload+1] << 8);
 618:../../../../../../Middlewares/Third_Party/LoRaWAN/Mac/region/RegionUS915.c ****         if( chMaskItr == 4 )
 619:../../../../../../Middlewares/Third_Party/LoRaWAN/Mac/region/RegionUS915.c ****         {
 620:../../../../../../Middlewares/Third_Party/LoRaWAN/Mac/region/RegionUS915.c ****             NvmCtx.ChannelsMask[chMaskItr] = NvmCtx.ChannelsMask[chMaskItr] & CHANNELS_MASK_500KHZ_
 621:../../../../../../Middlewares/Third_Party/LoRaWAN/Mac/region/RegionUS915.c ****         }
 622:../../../../../../Middlewares/Third_Party/LoRaWAN/Mac/region/RegionUS915.c ****         // Set the channel mask to the remaining
 623:../../../../../../Middlewares/Third_Party/LoRaWAN/Mac/region/RegionUS915.c ****         NvmCtx.ChannelsMaskRemaining[chMaskItr] &= NvmCtx.ChannelsMask[chMaskItr];
 624:../../../../../../Middlewares/Third_Party/LoRaWAN/Mac/region/RegionUS915.c ****     }
 625:../../../../../../Middlewares/Third_Party/LoRaWAN/Mac/region/RegionUS915.c **** }
 807              		.loc 1 625 0
 808              		@ sp needed
 809 0008 10BD     		pop	{r4, pc}
 810              	.LVL55:
 811              	.L61:
 608:../../../../../../Middlewares/Third_Party/LoRaWAN/Mac/region/RegionUS915.c ****     {
 812              		.loc 1 608 0
 813 000a 0268     		ldr	r2, [r0]
 814 000c D37B     		ldrb	r3, [r2, #15]
 815 000e 012B     		cmp	r3, #1
ARM GAS  C:\Users\EBANO_~1\AppData\Local\Temp\ccFRmLE5.s 			page 28


 816 0010 FAD1     		bne	.L59
 817              	.LVL56:
 818              	.LBB27:
 616:../../../../../../Middlewares/Third_Party/LoRaWAN/Mac/region/RegionUS915.c ****         NvmCtx.ChannelsMask[chMaskItr] |= (uint16_t) (applyCFList->Payload[cntPayload+1] << 8);
 819              		.loc 1 616 0
 820 0012 DC24     		movs	r4, #220
 821 0014 1A4B     		ldr	r3, .L62
 822 0016 1178     		ldrb	r1, [r2]
 823 0018 A400     		lsls	r4, r4, #2
 824 001a 1953     		strh	r1, [r3, r4]
 617:../../../../../../Middlewares/Third_Party/LoRaWAN/Mac/region/RegionUS915.c ****         if( chMaskItr == 4 )
 825              		.loc 1 617 0
 826 001c 5078     		ldrb	r0, [r2, #1]
 827              	.LVL57:
 828 001e 0002     		lsls	r0, r0, #8
 829 0020 0143     		orrs	r1, r0
 830 0022 1953     		strh	r1, [r3, r4]
 623:../../../../../../Middlewares/Third_Party/LoRaWAN/Mac/region/RegionUS915.c ****     }
 831              		.loc 1 623 0
 832 0024 0C34     		adds	r4, r4, #12
 833 0026 185B     		ldrh	r0, [r3, r4]
 834 0028 0140     		ands	r1, r0
 835 002a 1953     		strh	r1, [r3, r4]
 836              	.LVL58:
 616:../../../../../../Middlewares/Third_Party/LoRaWAN/Mac/region/RegionUS915.c ****         NvmCtx.ChannelsMask[chMaskItr] |= (uint16_t) (applyCFList->Payload[cntPayload+1] << 8);
 837              		.loc 1 616 0
 838 002c 9178     		ldrb	r1, [r2, #2]
 839 002e 154C     		ldr	r4, .L62+4
 840 0030 1953     		strh	r1, [r3, r4]
 617:../../../../../../Middlewares/Third_Party/LoRaWAN/Mac/region/RegionUS915.c ****         if( chMaskItr == 4 )
 841              		.loc 1 617 0
 842 0032 D078     		ldrb	r0, [r2, #3]
 843 0034 0002     		lsls	r0, r0, #8
 844 0036 0143     		orrs	r1, r0
 845 0038 1953     		strh	r1, [r3, r4]
 623:../../../../../../Middlewares/Third_Party/LoRaWAN/Mac/region/RegionUS915.c ****     }
 846              		.loc 1 623 0
 847 003a 134C     		ldr	r4, .L62+8
 848 003c 185B     		ldrh	r0, [r3, r4]
 849 003e 0140     		ands	r1, r0
 850 0040 1953     		strh	r1, [r3, r4]
 851              	.LVL59:
 616:../../../../../../Middlewares/Third_Party/LoRaWAN/Mac/region/RegionUS915.c ****         NvmCtx.ChannelsMask[chMaskItr] |= (uint16_t) (applyCFList->Payload[cntPayload+1] << 8);
 852              		.loc 1 616 0
 853 0042 1179     		ldrb	r1, [r2, #4]
 854 0044 0A3C     		subs	r4, r4, #10
 855 0046 1953     		strh	r1, [r3, r4]
 617:../../../../../../Middlewares/Third_Party/LoRaWAN/Mac/region/RegionUS915.c ****         if( chMaskItr == 4 )
 856              		.loc 1 617 0
 857 0048 5079     		ldrb	r0, [r2, #5]
 858 004a 0002     		lsls	r0, r0, #8
 859 004c 0143     		orrs	r1, r0
 860 004e 1953     		strh	r1, [r3, r4]
 623:../../../../../../Middlewares/Third_Party/LoRaWAN/Mac/region/RegionUS915.c ****     }
 861              		.loc 1 623 0
 862 0050 0C34     		adds	r4, r4, #12
 863 0052 185B     		ldrh	r0, [r3, r4]
ARM GAS  C:\Users\EBANO_~1\AppData\Local\Temp\ccFRmLE5.s 			page 29


 864 0054 0140     		ands	r1, r0
 865 0056 1953     		strh	r1, [r3, r4]
 866              	.LVL60:
 616:../../../../../../Middlewares/Third_Party/LoRaWAN/Mac/region/RegionUS915.c ****         NvmCtx.ChannelsMask[chMaskItr] |= (uint16_t) (applyCFList->Payload[cntPayload+1] << 8);
 867              		.loc 1 616 0
 868 0058 9179     		ldrb	r1, [r2, #6]
 869 005a 0C4C     		ldr	r4, .L62+12
 870 005c 1953     		strh	r1, [r3, r4]
 617:../../../../../../Middlewares/Third_Party/LoRaWAN/Mac/region/RegionUS915.c ****         if( chMaskItr == 4 )
 871              		.loc 1 617 0
 872 005e D079     		ldrb	r0, [r2, #7]
 873 0060 0002     		lsls	r0, r0, #8
 874 0062 0143     		orrs	r1, r0
 875 0064 1953     		strh	r1, [r3, r4]
 623:../../../../../../Middlewares/Third_Party/LoRaWAN/Mac/region/RegionUS915.c ****     }
 876              		.loc 1 623 0
 877 0066 0A4C     		ldr	r4, .L62+16
 878 0068 185B     		ldrh	r0, [r3, r4]
 879 006a 0140     		ands	r1, r0
 880 006c E120     		movs	r0, #225
 881 006e 1953     		strh	r1, [r3, r4]
 882              	.LVL61:
 616:../../../../../../Middlewares/Third_Party/LoRaWAN/Mac/region/RegionUS915.c ****         NvmCtx.ChannelsMask[chMaskItr] |= (uint16_t) (applyCFList->Payload[cntPayload+1] << 8);
 883              		.loc 1 616 0
 884 0070 127A     		ldrb	r2, [r2, #8]
 885 0072 0A3C     		subs	r4, r4, #10
 886 0074 1A53     		strh	r2, [r3, r4]
 887 0076 8000     		lsls	r0, r0, #2
 888 0078 195A     		ldrh	r1, [r3, r0]
 623:../../../../../../Middlewares/Third_Party/LoRaWAN/Mac/region/RegionUS915.c ****     }
 889              		.loc 1 623 0
 890 007a 0A40     		ands	r2, r1
 891 007c 1A52     		strh	r2, [r3, r0]
 892              	.LVL62:
 893 007e C3E7     		b	.L59
 894              	.L63:
 895              		.align	2
 896              	.L62:
 897 0080 00000000 		.word	NvmCtx
 898 0084 72030000 		.word	882
 899 0088 7E030000 		.word	894
 900 008c 76030000 		.word	886
 901 0090 82030000 		.word	898
 902              	.LBE27:
 903              		.cfi_endproc
 904              	.LFE51:
 905              		.size	RegionUS915ApplyCFList, .-RegionUS915ApplyCFList
 906              		.section	.text.RegionUS915ChanMaskSet,"ax",%progbits
 907              		.align	1
 908              		.p2align 2,,3
 909              		.global	RegionUS915ChanMaskSet
 910              		.syntax unified
 911              		.code	16
 912              		.thumb_func
 913              		.fpu softvfp
 914              		.type	RegionUS915ChanMaskSet, %function
 915              	RegionUS915ChanMaskSet:
ARM GAS  C:\Users\EBANO_~1\AppData\Local\Temp\ccFRmLE5.s 			page 30


 916              	.LFB52:
 626:../../../../../../Middlewares/Third_Party/LoRaWAN/Mac/region/RegionUS915.c **** 
 627:../../../../../../Middlewares/Third_Party/LoRaWAN/Mac/region/RegionUS915.c **** bool RegionUS915ChanMaskSet( ChanMaskSetParams_t* chanMaskSet )
 628:../../../../../../Middlewares/Third_Party/LoRaWAN/Mac/region/RegionUS915.c **** {
 917              		.loc 1 628 0
 918              		.cfi_startproc
 919              		@ args = 0, pretend = 0, frame = 0
 920              		@ frame_needed = 0, uses_anonymous_args = 0
 921              	.LVL63:
 922 0000 70B5     		push	{r4, r5, r6, lr}
 923              	.LCFI7:
 924              		.cfi_def_cfa_offset 16
 925              		.cfi_offset 4, -16
 926              		.cfi_offset 5, -12
 927              		.cfi_offset 6, -8
 928              		.cfi_offset 14, -4
 629:../../../../../../Middlewares/Third_Party/LoRaWAN/Mac/region/RegionUS915.c ****     uint8_t nbChannels = RegionCommonCountChannels( chanMaskSet->ChannelsMaskIn, 0, 4 );
 929              		.loc 1 629 0
 930 0002 0422     		movs	r2, #4
 628:../../../../../../Middlewares/Third_Party/LoRaWAN/Mac/region/RegionUS915.c ****     uint8_t nbChannels = RegionCommonCountChannels( chanMaskSet->ChannelsMaskIn, 0, 4 );
 931              		.loc 1 628 0
 932 0004 0400     		movs	r4, r0
 933              		.loc 1 629 0
 934 0006 0021     		movs	r1, #0
 935 0008 0068     		ldr	r0, [r0]
 936              	.LVL64:
 937 000a FFF7FEFF 		bl	RegionCommonCountChannels
 938              	.LVL65:
 630:../../../../../../Middlewares/Third_Party/LoRaWAN/Mac/region/RegionUS915.c **** 
 631:../../../../../../Middlewares/Third_Party/LoRaWAN/Mac/region/RegionUS915.c ****     // Check the number of active channels
 632:../../../../../../Middlewares/Third_Party/LoRaWAN/Mac/region/RegionUS915.c ****     if( ( nbChannels < 2 ) &&
 939              		.loc 1 632 0
 940 000e 0128     		cmp	r0, #1
 941 0010 0BD0     		beq	.L70
 633:../../../../../../Middlewares/Third_Party/LoRaWAN/Mac/region/RegionUS915.c ****         ( nbChannels > 0 ) )
 634:../../../../../../Middlewares/Third_Party/LoRaWAN/Mac/region/RegionUS915.c ****     {
 635:../../../../../../Middlewares/Third_Party/LoRaWAN/Mac/region/RegionUS915.c ****         return false;
 636:../../../../../../Middlewares/Third_Party/LoRaWAN/Mac/region/RegionUS915.c ****     }
 637:../../../../../../Middlewares/Third_Party/LoRaWAN/Mac/region/RegionUS915.c **** 
 638:../../../../../../Middlewares/Third_Party/LoRaWAN/Mac/region/RegionUS915.c ****     switch( chanMaskSet->ChannelsMaskType )
 942              		.loc 1 638 0
 943 0012 2579     		ldrb	r5, [r4, #4]
 944 0014 002D     		cmp	r5, #0
 945 0016 0AD0     		beq	.L66
 946 0018 012D     		cmp	r5, #1
 947 001a 06D1     		bne	.L70
 639:../../../../../../Middlewares/Third_Party/LoRaWAN/Mac/region/RegionUS915.c ****     {
 640:../../../../../../Middlewares/Third_Party/LoRaWAN/Mac/region/RegionUS915.c ****         case CHANNELS_MASK:
 641:../../../../../../Middlewares/Third_Party/LoRaWAN/Mac/region/RegionUS915.c ****         {
 642:../../../../../../Middlewares/Third_Party/LoRaWAN/Mac/region/RegionUS915.c ****             RegionCommonChanMaskCopy( NvmCtx.ChannelsMask, chanMaskSet->ChannelsMaskIn, CHANNELS_MA
 643:../../../../../../Middlewares/Third_Party/LoRaWAN/Mac/region/RegionUS915.c **** 
 644:../../../../../../Middlewares/Third_Party/LoRaWAN/Mac/region/RegionUS915.c ****             NvmCtx.ChannelsDefaultMask[4] = NvmCtx.ChannelsDefaultMask[4] & CHANNELS_MASK_500KHZ_MA
 645:../../../../../../Middlewares/Third_Party/LoRaWAN/Mac/region/RegionUS915.c ****             NvmCtx.ChannelsDefaultMask[5] = 0x0000;
 646:../../../../../../Middlewares/Third_Party/LoRaWAN/Mac/region/RegionUS915.c **** 
 647:../../../../../../Middlewares/Third_Party/LoRaWAN/Mac/region/RegionUS915.c ****             for( uint8_t i = 0; i < CHANNELS_MASK_SIZE; i++ )
 648:../../../../../../Middlewares/Third_Party/LoRaWAN/Mac/region/RegionUS915.c ****             { // Copy-And the channels mask
 649:../../../../../../Middlewares/Third_Party/LoRaWAN/Mac/region/RegionUS915.c ****                 NvmCtx.ChannelsMaskRemaining[i] &= NvmCtx.ChannelsMask[i];
ARM GAS  C:\Users\EBANO_~1\AppData\Local\Temp\ccFRmLE5.s 			page 31


 650:../../../../../../Middlewares/Third_Party/LoRaWAN/Mac/region/RegionUS915.c ****             }
 651:../../../../../../Middlewares/Third_Party/LoRaWAN/Mac/region/RegionUS915.c ****             break;
 652:../../../../../../Middlewares/Third_Party/LoRaWAN/Mac/region/RegionUS915.c ****         }
 653:../../../../../../Middlewares/Third_Party/LoRaWAN/Mac/region/RegionUS915.c ****         case CHANNELS_DEFAULT_MASK:
 654:../../../../../../Middlewares/Third_Party/LoRaWAN/Mac/region/RegionUS915.c ****         {
 655:../../../../../../Middlewares/Third_Party/LoRaWAN/Mac/region/RegionUS915.c ****             RegionCommonChanMaskCopy( NvmCtx.ChannelsDefaultMask, chanMaskSet->ChannelsMaskIn, CHAN
 948              		.loc 1 655 0
 949 001c 1748     		ldr	r0, .L71
 950              	.LVL66:
 951 001e 2168     		ldr	r1, [r4]
 952 0020 0622     		movs	r2, #6
 953 0022 FFF7FEFF 		bl	RegionCommonChanMaskCopy
 954              	.LVL67:
 656:../../../../../../Middlewares/Third_Party/LoRaWAN/Mac/region/RegionUS915.c ****             break;
 657:../../../../../../Middlewares/Third_Party/LoRaWAN/Mac/region/RegionUS915.c ****         }
 658:../../../../../../Middlewares/Third_Party/LoRaWAN/Mac/region/RegionUS915.c ****         default:
 659:../../../../../../Middlewares/Third_Party/LoRaWAN/Mac/region/RegionUS915.c ****             return false;
 660:../../../../../../Middlewares/Third_Party/LoRaWAN/Mac/region/RegionUS915.c ****     }
 661:../../../../../../Middlewares/Third_Party/LoRaWAN/Mac/region/RegionUS915.c ****     return true;
 955              		.loc 1 661 0
 956 0026 0120     		movs	r0, #1
 656:../../../../../../Middlewares/Third_Party/LoRaWAN/Mac/region/RegionUS915.c ****             break;
 957              		.loc 1 656 0
 958 0028 00E0     		b	.L65
 959              	.LVL68:
 960              	.L70:
 659:../../../../../../Middlewares/Third_Party/LoRaWAN/Mac/region/RegionUS915.c ****     }
 961              		.loc 1 659 0
 962 002a 0020     		movs	r0, #0
 963              	.LVL69:
 964              	.L65:
 662:../../../../../../Middlewares/Third_Party/LoRaWAN/Mac/region/RegionUS915.c **** }
 965              		.loc 1 662 0
 966              		@ sp needed
 967 002c 70BD     		pop	{r4, r5, r6, pc}
 968              	.LVL70:
 969              	.L66:
 642:../../../../../../Middlewares/Third_Party/LoRaWAN/Mac/region/RegionUS915.c **** 
 970              		.loc 1 642 0
 971 002e 2168     		ldr	r1, [r4]
 972 0030 134C     		ldr	r4, .L71+4
 973              	.LVL71:
 974 0032 0622     		movs	r2, #6
 975 0034 2000     		movs	r0, r4
 976              	.LVL72:
 977 0036 FFF7FEFF 		bl	RegionCommonChanMaskCopy
 978              	.LVL73:
 644:../../../../../../Middlewares/Third_Party/LoRaWAN/Mac/region/RegionUS915.c ****             NvmCtx.ChannelsDefaultMask[5] = 0x0000;
 979              		.loc 1 644 0
 980 003a 124B     		ldr	r3, .L71+8
 661:../../../../../../Middlewares/Third_Party/LoRaWAN/Mac/region/RegionUS915.c **** }
 981              		.loc 1 661 0
 982 003c 0120     		movs	r0, #1
 644:../../../../../../Middlewares/Third_Party/LoRaWAN/Mac/region/RegionUS915.c ****             NvmCtx.ChannelsDefaultMask[5] = 0x0000;
 983              		.loc 1 644 0
 984 003e 9C46     		mov	ip, r3
 985 0040 E423     		movs	r3, #228
ARM GAS  C:\Users\EBANO_~1\AppData\Local\Temp\ccFRmLE5.s 			page 32


 986 0042 6444     		add	r4, r4, ip
 987 0044 9B00     		lsls	r3, r3, #2
 988 0046 E25C     		ldrb	r2, [r4, r3]
 989 0048 E252     		strh	r2, [r4, r3]
 990              	.LBB28:
 649:../../../../../../Middlewares/Third_Party/LoRaWAN/Mac/region/RegionUS915.c ****             }
 991              		.loc 1 649 0
 992 004a DF22     		movs	r2, #223
 993              	.LBE28:
 645:../../../../../../Middlewares/Third_Party/LoRaWAN/Mac/region/RegionUS915.c **** 
 994              		.loc 1 645 0
 995 004c 0E4B     		ldr	r3, .L71+12
 996              	.LBB29:
 649:../../../../../../Middlewares/Third_Party/LoRaWAN/Mac/region/RegionUS915.c ****             }
 997              		.loc 1 649 0
 998 004e 9200     		lsls	r2, r2, #2
 999              	.LBE29:
 645:../../../../../../Middlewares/Third_Party/LoRaWAN/Mac/region/RegionUS915.c **** 
 1000              		.loc 1 645 0
 1001 0050 E552     		strh	r5, [r4, r3]
 1002              	.LBB30:
 649:../../../../../../Middlewares/Third_Party/LoRaWAN/Mac/region/RegionUS915.c ****             }
 1003              		.loc 1 649 0
 1004 0052 223B     		subs	r3, r3, #34
 1005 0054 A158     		ldr	r1, [r4, r2]
 1006 0056 E358     		ldr	r3, [r4, r3]
 1007 0058 0B40     		ands	r3, r1
 1008 005a A350     		str	r3, [r4, r2]
 1009 005c DD23     		movs	r3, #221
 1010 005e 0432     		adds	r2, r2, #4
 1011 0060 9B00     		lsls	r3, r3, #2
 1012 0062 A158     		ldr	r1, [r4, r2]
 1013 0064 E358     		ldr	r3, [r4, r3]
 1014 0066 0B40     		ands	r3, r1
 1015 0068 A350     		str	r3, [r4, r2]
 1016 006a DE23     		movs	r3, #222
 1017 006c 0432     		adds	r2, r2, #4
 1018 006e 9B00     		lsls	r3, r3, #2
 1019 0070 A158     		ldr	r1, [r4, r2]
 1020 0072 E358     		ldr	r3, [r4, r3]
 1021 0074 0B40     		ands	r3, r1
 1022 0076 A350     		str	r3, [r4, r2]
 1023              	.LVL74:
 1024 0078 D8E7     		b	.L65
 1025              	.L72:
 1026 007a C046     		.align	2
 1027              	.L71:
 1028 007c 88030000 		.word	NvmCtx+904
 1029 0080 70030000 		.word	NvmCtx+880
 1030 0084 90FCFFFF 		.word	-880
 1031 0088 92030000 		.word	914
 1032              	.LBE30:
 1033              		.cfi_endproc
 1034              	.LFE52:
 1035              		.size	RegionUS915ChanMaskSet, .-RegionUS915ChanMaskSet
 1036              		.section	.text.RegionUS915ComputeRxWindowParameters,"ax",%progbits
 1037              		.align	1
ARM GAS  C:\Users\EBANO_~1\AppData\Local\Temp\ccFRmLE5.s 			page 33


 1038              		.p2align 2,,3
 1039              		.global	RegionUS915ComputeRxWindowParameters
 1040              		.syntax unified
 1041              		.code	16
 1042              		.thumb_func
 1043              		.fpu softvfp
 1044              		.type	RegionUS915ComputeRxWindowParameters, %function
 1045              	RegionUS915ComputeRxWindowParameters:
 1046              	.LFB53:
 663:../../../../../../Middlewares/Third_Party/LoRaWAN/Mac/region/RegionUS915.c **** 
 664:../../../../../../Middlewares/Third_Party/LoRaWAN/Mac/region/RegionUS915.c **** void RegionUS915ComputeRxWindowParameters( int8_t datarate, uint8_t minRxSymbols, uint32_t rxError,
 665:../../../../../../Middlewares/Third_Party/LoRaWAN/Mac/region/RegionUS915.c **** {
 1047              		.loc 1 665 0
 1048              		.cfi_startproc
 1049              		@ args = 0, pretend = 0, frame = 8
 1050              		@ frame_needed = 0, uses_anonymous_args = 0
 1051              	.LVL75:
 1052 0000 F0B5     		push	{r4, r5, r6, r7, lr}
 1053              	.LCFI8:
 1054              		.cfi_def_cfa_offset 20
 1055              		.cfi_offset 4, -20
 1056              		.cfi_offset 5, -16
 1057              		.cfi_offset 6, -12
 1058              		.cfi_offset 7, -8
 1059              		.cfi_offset 14, -4
 1060 0002 C646     		mov	lr, r8
 1061 0004 00B5     		push	{lr}
 1062              	.LCFI9:
 1063              		.cfi_def_cfa_offset 24
 1064              		.cfi_offset 8, -24
 1065 0006 1C00     		movs	r4, r3
 1066 0008 86B0     		sub	sp, sp, #24
 1067              	.LCFI10:
 1068              		.cfi_def_cfa_offset 48
 1069              		.loc 1 665 0
 1070 000a 0D00     		movs	r5, r1
 1071 000c 9046     		mov	r8, r2
 666:../../../../../../Middlewares/Third_Party/LoRaWAN/Mac/region/RegionUS915.c ****     double tSymbol = 0.0;
 667:../../../../../../Middlewares/Third_Party/LoRaWAN/Mac/region/RegionUS915.c **** 
 668:../../../../../../Middlewares/Third_Party/LoRaWAN/Mac/region/RegionUS915.c ****     // Get the datarate, perform a boundary check
 669:../../../../../../Middlewares/Third_Party/LoRaWAN/Mac/region/RegionUS915.c ****     rxConfigParams->Datarate = MIN( datarate, US915_RX_MAX_DATARATE );
 1072              		.loc 1 669 0
 1073 000e 031C     		adds	r3, r0, #0
 1074              	.LVL76:
 1075 0010 0D28     		cmp	r0, #13
 1076 0012 00DD     		ble	.L74
 1077 0014 0D23     		movs	r3, #13
 1078              	.L74:
 1079 0016 58B2     		sxtb	r0, r3
 1080              	.LVL77:
 1081              	.LBB31:
 1082              	.LBB32:
 201:../../../../../../Middlewares/Third_Party/LoRaWAN/Mac/region/RegionUS915.c ****     {
 1083              		.loc 1 201 0
 1084 0018 154A     		ldr	r2, .L79
 1085              	.LVL78:
 1086 001a 8100     		lsls	r1, r0, #2
ARM GAS  C:\Users\EBANO_~1\AppData\Local\Temp\ccFRmLE5.s 			page 34


 1087              	.LVL79:
 1088              	.LBE32:
 1089              	.LBE31:
 1090              		.loc 1 669 0
 1091 001c 6370     		strb	r3, [r4, #1]
 1092              	.LVL80:
 1093              	.LBB35:
 1094              	.LBB33:
 201:../../../../../../Middlewares/Third_Party/LoRaWAN/Mac/region/RegionUS915.c ****     {
 1095              		.loc 1 201 0
 1096 001e 154E     		ldr	r6, .L79+4
 1097 0020 5358     		ldr	r3, [r2, r1]
 1098 0022 B342     		cmp	r3, r6
 1099 0024 22D0     		beq	.L78
 1100 0026 144E     		ldr	r6, .L79+8
 1101 0028 B446     		mov	ip, r6
 1102 002a 6344     		add	r3, r3, ip
 1103 002c 5E42     		rsbs	r6, r3, #0
 1104 002e 7341     		adcs	r3, r3, r6
 1105 0030 5B00     		lsls	r3, r3, #1
 1106              	.L76:
 1107              	.LBE33:
 1108              	.LBE35:
 670:../../../../../../Middlewares/Third_Party/LoRaWAN/Mac/region/RegionUS915.c ****     rxConfigParams->Bandwidth = GetBandwidth( rxConfigParams->Datarate );
 1109              		.loc 1 670 0
 1110 0032 A370     		strb	r3, [r4, #2]
 671:../../../../../../Middlewares/Third_Party/LoRaWAN/Mac/region/RegionUS915.c **** 
 672:../../../../../../Middlewares/Third_Party/LoRaWAN/Mac/region/RegionUS915.c ****     tSymbol = RegionCommonComputeSymbolTimeLoRa( DataratesUS915[rxConfigParams->Datarate], Bandwidt
 1111              		.loc 1 672 0
 1112 0034 4023     		movs	r3, #64
 1113 0036 5158     		ldr	r1, [r2, r1]
 1114 0038 1218     		adds	r2, r2, r0
 1115 003a D05C     		ldrb	r0, [r2, r3]
 1116 003c FFF7FEFF 		bl	RegionCommonComputeSymbolTimeLoRa
 1117              	.LVL81:
 673:../../../../../../Middlewares/Third_Party/LoRaWAN/Mac/region/RegionUS915.c **** 
 674:../../../../../../Middlewares/Third_Party/LoRaWAN/Mac/region/RegionUS915.c ****     RegionCommonComputeRxWindowParameters( tSymbol, minRxSymbols, rxError, Radio.GetWakeupTime( ), 
 1118              		.loc 1 674 0
 1119 0040 0E4B     		ldr	r3, .L79+12
 672:../../../../../../Middlewares/Third_Party/LoRaWAN/Mac/region/RegionUS915.c **** 
 1120              		.loc 1 672 0
 1121 0042 0600     		movs	r6, r0
 1122              		.loc 1 674 0
 1123 0044 5B6E     		ldr	r3, [r3, #100]
 672:../../../../../../Middlewares/Third_Party/LoRaWAN/Mac/region/RegionUS915.c **** 
 1124              		.loc 1 672 0
 1125 0046 0F00     		movs	r7, r1
 1126              	.LVL82:
 1127              		.loc 1 674 0
 1128 0048 0593     		str	r3, [sp, #20]
 1129 004a 9847     		blx	r3
 1130              	.LVL83:
 1131 004c 2300     		movs	r3, r4
 1132 004e 0834     		adds	r4, r4, #8
 1133              	.LVL84:
 1134 0050 0C33     		adds	r3, r3, #12
 1135              	.LVL85:
ARM GAS  C:\Users\EBANO_~1\AppData\Local\Temp\ccFRmLE5.s 			page 35


 1136 0052 0293     		str	r3, [sp, #8]
 1137 0054 0090     		str	r0, [sp]
 1138 0056 0194     		str	r4, [sp, #4]
 1139 0058 4346     		mov	r3, r8
 1140              	.LVL86:
 1141 005a 2A00     		movs	r2, r5
 1142 005c 3000     		movs	r0, r6
 1143 005e 3900     		movs	r1, r7
 1144 0060 FFF7FEFF 		bl	RegionCommonComputeRxWindowParameters
 1145              	.LVL87:
 675:../../../../../../Middlewares/Third_Party/LoRaWAN/Mac/region/RegionUS915.c **** }
 1146              		.loc 1 675 0
 1147 0064 06B0     		add	sp, sp, #24
 1148              		@ sp needed
 1149              	.LVL88:
 1150              	.LVL89:
 1151              	.LVL90:
 1152 0066 04BC     		pop	{r2}
 1153 0068 9046     		mov	r8, r2
 1154 006a F0BD     		pop	{r4, r5, r6, r7, pc}
 1155              	.LVL91:
 1156              	.L78:
 1157              	.LBB36:
 1158              	.LBB34:
 201:../../../../../../Middlewares/Third_Party/LoRaWAN/Mac/region/RegionUS915.c ****     {
 1159              		.loc 1 201 0
 1160 006c 0123     		movs	r3, #1
 1161 006e E0E7     		b	.L76
 1162              	.L80:
 1163              		.align	2
 1164              	.L79:
 1165 0070 EC000000 		.word	.LANCHOR1
 1166 0074 90D00300 		.word	250000
 1167 0078 E05EF8FF 		.word	-500000
 1168 007c 00000000 		.word	Radio
 1169              	.LBE34:
 1170              	.LBE36:
 1171              		.cfi_endproc
 1172              	.LFE53:
 1173              		.size	RegionUS915ComputeRxWindowParameters, .-RegionUS915ComputeRxWindowParameters
 1174              		.section	.text.RegionUS915RxConfig,"ax",%progbits
 1175              		.align	1
 1176              		.p2align 2,,3
 1177              		.global	RegionUS915RxConfig
 1178              		.syntax unified
 1179              		.code	16
 1180              		.thumb_func
 1181              		.fpu softvfp
 1182              		.type	RegionUS915RxConfig, %function
 1183              	RegionUS915RxConfig:
 1184              	.LFB54:
 676:../../../../../../Middlewares/Third_Party/LoRaWAN/Mac/region/RegionUS915.c **** 
 677:../../../../../../Middlewares/Third_Party/LoRaWAN/Mac/region/RegionUS915.c **** bool RegionUS915RxConfig( RxConfigParams_t* rxConfig, int8_t* datarate )
 678:../../../../../../Middlewares/Third_Party/LoRaWAN/Mac/region/RegionUS915.c **** {
 1185              		.loc 1 678 0
 1186              		.cfi_startproc
 1187              		@ args = 0, pretend = 0, frame = 8
ARM GAS  C:\Users\EBANO_~1\AppData\Local\Temp\ccFRmLE5.s 			page 36


 1188              		@ frame_needed = 0, uses_anonymous_args = 0
 1189              	.LVL92:
 1190 0000 F0B5     		push	{r4, r5, r6, r7, lr}
 1191              	.LCFI11:
 1192              		.cfi_def_cfa_offset 20
 1193              		.cfi_offset 4, -20
 1194              		.cfi_offset 5, -16
 1195              		.cfi_offset 6, -12
 1196              		.cfi_offset 7, -8
 1197              		.cfi_offset 14, -4
 1198 0002 D646     		mov	lr, r10
 1199 0004 4646     		mov	r6, r8
 1200 0006 4F46     		mov	r7, r9
 1201 0008 C0B5     		push	{r6, r7, lr}
 1202              	.LCFI12:
 1203              		.cfi_def_cfa_offset 32
 1204              		.cfi_offset 8, -32
 1205              		.cfi_offset 9, -28
 1206              		.cfi_offset 10, -24
 679:../../../../../../Middlewares/Third_Party/LoRaWAN/Mac/region/RegionUS915.c ****     int8_t dr = rxConfig->Datarate;
 1207              		.loc 1 679 0
 1208 000a 0126     		movs	r6, #1
 680:../../../../../../Middlewares/Third_Party/LoRaWAN/Mac/region/RegionUS915.c ****     uint8_t maxPayload = 0;
 681:../../../../../../Middlewares/Third_Party/LoRaWAN/Mac/region/RegionUS915.c ****     int8_t phyDr = 0;
 682:../../../../../../Middlewares/Third_Party/LoRaWAN/Mac/region/RegionUS915.c ****     uint32_t frequency = rxConfig->Frequency;
 1209              		.loc 1 682 0
 1210 000c 4368     		ldr	r3, [r0, #4]
 683:../../../../../../Middlewares/Third_Party/LoRaWAN/Mac/region/RegionUS915.c **** 
 684:../../../../../../Middlewares/Third_Party/LoRaWAN/Mac/region/RegionUS915.c ****     if( Radio.GetStatus( ) != RF_IDLE )
 1211              		.loc 1 684 0
 1212 000e 284D     		ldr	r5, .L88
 682:../../../../../../Middlewares/Third_Party/LoRaWAN/Mac/region/RegionUS915.c **** 
 1213              		.loc 1 682 0
 1214 0010 9846     		mov	r8, r3
 1215              		.loc 1 684 0
 1216 0012 EB68     		ldr	r3, [r5, #12]
 678:../../../../../../Middlewares/Third_Party/LoRaWAN/Mac/region/RegionUS915.c ****     int8_t dr = rxConfig->Datarate;
 1217              		.loc 1 678 0
 1218 0014 8CB0     		sub	sp, sp, #48
 1219              	.LCFI13:
 1220              		.cfi_def_cfa_offset 80
 679:../../../../../../Middlewares/Third_Party/LoRaWAN/Mac/region/RegionUS915.c ****     uint8_t maxPayload = 0;
 1221              		.loc 1 679 0
 1222 0016 8657     		ldrsb	r6, [r0, r6]
 1223              	.LVL93:
 678:../../../../../../Middlewares/Third_Party/LoRaWAN/Mac/region/RegionUS915.c ****     int8_t dr = rxConfig->Datarate;
 1224              		.loc 1 678 0
 1225 0018 0400     		movs	r4, r0
 1226              		.loc 1 684 0
 1227 001a 0B93     		str	r3, [sp, #44]
 678:../../../../../../Middlewares/Third_Party/LoRaWAN/Mac/region/RegionUS915.c ****     int8_t dr = rxConfig->Datarate;
 1228              		.loc 1 678 0
 1229 001c 8A46     		mov	r10, r1
 1230              		.loc 1 684 0
 1231 001e 9847     		blx	r3
 1232              	.LVL94:
 685:../../../../../../Middlewares/Third_Party/LoRaWAN/Mac/region/RegionUS915.c ****     {
ARM GAS  C:\Users\EBANO_~1\AppData\Local\Temp\ccFRmLE5.s 			page 37


 686:../../../../../../Middlewares/Third_Party/LoRaWAN/Mac/region/RegionUS915.c ****         return false;
 1233              		.loc 1 686 0
 1234 0020 0023     		movs	r3, #0
 684:../../../../../../Middlewares/Third_Party/LoRaWAN/Mac/region/RegionUS915.c ****     {
 1235              		.loc 1 684 0
 1236 0022 0028     		cmp	r0, #0
 1237 0024 38D1     		bne	.L82
 687:../../../../../../Middlewares/Third_Party/LoRaWAN/Mac/region/RegionUS915.c ****     }
 688:../../../../../../Middlewares/Third_Party/LoRaWAN/Mac/region/RegionUS915.c **** 
 689:../../../../../../Middlewares/Third_Party/LoRaWAN/Mac/region/RegionUS915.c ****     if( rxConfig->RxSlot == RX_SLOT_WIN_1 )
 1238              		.loc 1 689 0
 1239 0026 E37C     		ldrb	r3, [r4, #19]
 1240 0028 002B     		cmp	r3, #0
 1241 002a 07D1     		bne	.L83
 690:../../../../../../Middlewares/Third_Party/LoRaWAN/Mac/region/RegionUS915.c ****     {
 691:../../../../../../Middlewares/Third_Party/LoRaWAN/Mac/region/RegionUS915.c ****         // Apply window 1 frequency
 692:../../../../../../Middlewares/Third_Party/LoRaWAN/Mac/region/RegionUS915.c ****         frequency = US915_FIRST_RX1_CHANNEL + ( rxConfig->Channel % 8 ) * US915_STEPWIDTH_RX1_CHANN
 1242              		.loc 1 692 0
 1243 002c 2278     		ldrb	r2, [r4]
 1244 002e 0733     		adds	r3, r3, #7
 1245 0030 1A40     		ands	r2, r3
 1246 0032 204B     		ldr	r3, .L88+4
 1247 0034 5343     		muls	r3, r2
 1248 0036 204A     		ldr	r2, .L88+8
 1249 0038 9046     		mov	r8, r2
 1250              	.LVL95:
 1251 003a 9844     		add	r8, r8, r3
 1252              	.LVL96:
 1253              	.L83:
 693:../../../../../../Middlewares/Third_Party/LoRaWAN/Mac/region/RegionUS915.c ****     }
 694:../../../../../../Middlewares/Third_Party/LoRaWAN/Mac/region/RegionUS915.c **** 
 695:../../../../../../Middlewares/Third_Party/LoRaWAN/Mac/region/RegionUS915.c ****     // Read the physical datarate from the datarates table
 696:../../../../../../Middlewares/Third_Party/LoRaWAN/Mac/region/RegionUS915.c ****     phyDr = DataratesUS915[dr];
 1254              		.loc 1 696 0
 1255 003c 4022     		movs	r2, #64
 1256 003e 1F4B     		ldr	r3, .L88+12
 697:../../../../../../Middlewares/Third_Party/LoRaWAN/Mac/region/RegionUS915.c **** 
 698:../../../../../../Middlewares/Third_Party/LoRaWAN/Mac/region/RegionUS915.c ****     Radio.SetChannel( frequency );
 1257              		.loc 1 698 0
 1258 0040 4046     		mov	r0, r8
 696:../../../../../../Middlewares/Third_Party/LoRaWAN/Mac/region/RegionUS915.c **** 
 1259              		.loc 1 696 0
 1260 0042 9B19     		adds	r3, r3, r6
 1261 0044 9B56     		ldrsb	r3, [r3, r2]
 1262 0046 9946     		mov	r9, r3
 1263              	.LVL97:
 1264              		.loc 1 698 0
 1265 0048 6B69     		ldr	r3, [r5, #20]
 1266 004a 0B93     		str	r3, [sp, #44]
 1267 004c 9847     		blx	r3
 1268              	.LVL98:
 699:../../../../../../Middlewares/Third_Party/LoRaWAN/Mac/region/RegionUS915.c **** 
 700:../../../../../../Middlewares/Third_Party/LoRaWAN/Mac/region/RegionUS915.c ****     // Radio configuration
 701:../../../../../../Middlewares/Third_Party/LoRaWAN/Mac/region/RegionUS915.c ****     Radio.SetRxConfig( MODEM_LORA, rxConfig->Bandwidth, phyDr, 1, 0, 8, rxConfig->WindowTimeout, fa
 1269              		.loc 1 701 0
 1270 004e A37C     		ldrb	r3, [r4, #18]
 1271 0050 2289     		ldrh	r2, [r4, #8]
ARM GAS  C:\Users\EBANO_~1\AppData\Local\Temp\ccFRmLE5.s 			page 38


 1272 0052 0993     		str	r3, [sp, #36]
 1273 0054 0123     		movs	r3, #1
 1274 0056 0893     		str	r3, [sp, #32]
 1275 0058 0023     		movs	r3, #0
 1276 005a 0292     		str	r2, [sp, #8]
 1277 005c 0822     		movs	r2, #8
 1278 005e 0793     		str	r3, [sp, #28]
 1279 0060 0693     		str	r3, [sp, #24]
 1280 0062 0593     		str	r3, [sp, #20]
 1281 0064 0493     		str	r3, [sp, #16]
 1282 0066 0393     		str	r3, [sp, #12]
 1283 0068 0093     		str	r3, [sp]
 1284 006a 2B6A     		ldr	r3, [r5, #32]
 1285 006c 0192     		str	r2, [sp, #4]
 1286 006e 0B93     		str	r3, [sp, #44]
 1287 0070 A178     		ldrb	r1, [r4, #2]
 1288 0072 0123     		movs	r3, #1
 1289 0074 4A46     		mov	r2, r9
 1290 0076 0120     		movs	r0, #1
 1291 0078 0B9F     		ldr	r7, [sp, #44]
 1292 007a B847     		blx	r7
 1293              	.LVL99:
 702:../../../../../../Middlewares/Third_Party/LoRaWAN/Mac/region/RegionUS915.c **** 
 703:../../../../../../Middlewares/Third_Party/LoRaWAN/Mac/region/RegionUS915.c ****     if( rxConfig->RepeaterSupport == true )
 1294              		.loc 1 703 0
 1295 007c 637C     		ldrb	r3, [r4, #17]
 1296 007e 002B     		cmp	r3, #0
 1297 0080 11D1     		bne	.L87
 704:../../../../../../Middlewares/Third_Party/LoRaWAN/Mac/region/RegionUS915.c ****     {
 705:../../../../../../Middlewares/Third_Party/LoRaWAN/Mac/region/RegionUS915.c ****         maxPayload = MaxPayloadOfDatarateRepeaterUS915[dr];
 706:../../../../../../Middlewares/Third_Party/LoRaWAN/Mac/region/RegionUS915.c ****     }
 707:../../../../../../Middlewares/Third_Party/LoRaWAN/Mac/region/RegionUS915.c ****     else
 708:../../../../../../Middlewares/Third_Party/LoRaWAN/Mac/region/RegionUS915.c ****     {
 709:../../../../../../Middlewares/Third_Party/LoRaWAN/Mac/region/RegionUS915.c ****         maxPayload = MaxPayloadOfDatarateUS915[dr];
 1298              		.loc 1 709 0
 1299 0082 0F4B     		ldr	r3, .L88+16
 1300 0084 995D     		ldrb	r1, [r3, r6]
 1301              	.LVL100:
 1302              	.L85:
 710:../../../../../../Middlewares/Third_Party/LoRaWAN/Mac/region/RegionUS915.c ****     }
 711:../../../../../../Middlewares/Third_Party/LoRaWAN/Mac/region/RegionUS915.c ****     Radio.SetMaxPayloadLength( MODEM_LORA, maxPayload + LORA_MAC_FRMPAYLOAD_OVERHEAD );
 1303              		.loc 1 711 0
 1304 0086 EB6D     		ldr	r3, [r5, #92]
 1305 0088 0D31     		adds	r1, r1, #13
 1306              	.LVL101:
 1307 008a C9B2     		uxtb	r1, r1
 1308 008c 0120     		movs	r0, #1
 1309 008e 0B93     		str	r3, [sp, #44]
 1310 0090 9847     		blx	r3
 1311              	.LVL102:
 712:../../../../../../Middlewares/Third_Party/LoRaWAN/Mac/region/RegionUS915.c ****     TVL1( PRINTF( "RX on freq %d Hz at DR %d\n\r", frequency, dr );)
 713:../../../../../../Middlewares/Third_Party/LoRaWAN/Mac/region/RegionUS915.c **** 
 714:../../../../../../Middlewares/Third_Party/LoRaWAN/Mac/region/RegionUS915.c ****     *datarate = (uint8_t) dr;
 1312              		.loc 1 714 0
 1313 0092 5346     		mov	r3, r10
 1314 0094 1E70     		strb	r6, [r3]
 715:../../../../../../Middlewares/Third_Party/LoRaWAN/Mac/region/RegionUS915.c ****     return true;
ARM GAS  C:\Users\EBANO_~1\AppData\Local\Temp\ccFRmLE5.s 			page 39


 1315              		.loc 1 715 0
 1316 0096 0123     		movs	r3, #1
 1317              	.LVL103:
 1318              	.L82:
 716:../../../../../../Middlewares/Third_Party/LoRaWAN/Mac/region/RegionUS915.c **** }
 1319              		.loc 1 716 0
 1320 0098 1800     		movs	r0, r3
 1321 009a 0CB0     		add	sp, sp, #48
 1322              		@ sp needed
 1323              	.LVL104:
 1324              	.LVL105:
 1325              	.LVL106:
 1326              	.LVL107:
 1327 009c 1CBC     		pop	{r2, r3, r4}
 1328 009e 9046     		mov	r8, r2
 1329 00a0 9946     		mov	r9, r3
 1330 00a2 A246     		mov	r10, r4
 1331 00a4 F0BD     		pop	{r4, r5, r6, r7, pc}
 1332              	.LVL108:
 1333              	.L87:
 705:../../../../../../Middlewares/Third_Party/LoRaWAN/Mac/region/RegionUS915.c ****     }
 1334              		.loc 1 705 0
 1335 00a6 064B     		ldr	r3, .L88+16
 1336 00a8 9B19     		adds	r3, r3, r6
 1337 00aa 197C     		ldrb	r1, [r3, #16]
 1338              	.LVL109:
 1339 00ac EBE7     		b	.L85
 1340              	.L89:
 1341 00ae C046     		.align	2
 1342              	.L88:
 1343 00b0 00000000 		.word	Radio
 1344 00b4 C0270900 		.word	600000
 1345 00b8 A0700837 		.word	923300000
 1346 00bc EC000000 		.word	.LANCHOR1
 1347 00c0 50010000 		.word	.LANCHOR0
 1348              		.cfi_endproc
 1349              	.LFE54:
 1350              		.size	RegionUS915RxConfig, .-RegionUS915RxConfig
 1351              		.section	.text.RegionUS915TxConfig,"ax",%progbits
 1352              		.align	1
 1353              		.p2align 2,,3
 1354              		.global	RegionUS915TxConfig
 1355              		.syntax unified
 1356              		.code	16
 1357              		.thumb_func
 1358              		.fpu softvfp
 1359              		.type	RegionUS915TxConfig, %function
 1360              	RegionUS915TxConfig:
 1361              	.LFB55:
 717:../../../../../../Middlewares/Third_Party/LoRaWAN/Mac/region/RegionUS915.c **** 
 718:../../../../../../Middlewares/Third_Party/LoRaWAN/Mac/region/RegionUS915.c **** bool RegionUS915TxConfig( TxConfigParams_t* txConfig, int8_t* txPower, TimerTime_t* txTimeOnAir )
 719:../../../../../../Middlewares/Third_Party/LoRaWAN/Mac/region/RegionUS915.c **** {
 1362              		.loc 1 719 0
 1363              		.cfi_startproc
 1364              		@ args = 0, pretend = 0, frame = 8
 1365              		@ frame_needed = 0, uses_anonymous_args = 0
 1366              	.LVL110:
ARM GAS  C:\Users\EBANO_~1\AppData\Local\Temp\ccFRmLE5.s 			page 40


 1367 0000 F0B5     		push	{r4, r5, r6, r7, lr}
 1368              	.LCFI14:
 1369              		.cfi_def_cfa_offset 20
 1370              		.cfi_offset 4, -20
 1371              		.cfi_offset 5, -16
 1372              		.cfi_offset 6, -12
 1373              		.cfi_offset 7, -8
 1374              		.cfi_offset 14, -4
 1375 0002 5746     		mov	r7, r10
 1376 0004 4546     		mov	r5, r8
 1377 0006 4E46     		mov	r6, r9
 1378 0008 DE46     		mov	lr, fp
 720:../../../../../../Middlewares/Third_Party/LoRaWAN/Mac/region/RegionUS915.c ****     int8_t phyDr = DataratesUS915[txConfig->Datarate];
 1379              		.loc 1 720 0
 1380 000a 0123     		movs	r3, #1
 719:../../../../../../Middlewares/Third_Party/LoRaWAN/Mac/region/RegionUS915.c ****     int8_t phyDr = DataratesUS915[txConfig->Datarate];
 1381              		.loc 1 719 0
 1382 000c 9146     		mov	r9, r2
 1383              		.loc 1 720 0
 1384 000e 4022     		movs	r2, #64
 1385              	.LVL111:
 719:../../../../../../Middlewares/Third_Party/LoRaWAN/Mac/region/RegionUS915.c ****     int8_t phyDr = DataratesUS915[txConfig->Datarate];
 1386              		.loc 1 719 0
 1387 0010 E0B5     		push	{r5, r6, r7, lr}
 1388              	.LCFI15:
 1389              		.cfi_def_cfa_offset 36
 1390              		.cfi_offset 8, -36
 1391              		.cfi_offset 9, -32
 1392              		.cfi_offset 10, -28
 1393              		.cfi_offset 11, -24
 721:../../../../../../Middlewares/Third_Party/LoRaWAN/Mac/region/RegionUS915.c ****     int8_t txPowerLimited = LimitTxPower( txConfig->TxPower, NvmCtx.Bands[NvmCtx.Channels[txConfig-
 1394              		.loc 1 721 0
 1395 0012 0225     		movs	r5, #2
 720:../../../../../../Middlewares/Third_Party/LoRaWAN/Mac/region/RegionUS915.c ****     int8_t phyDr = DataratesUS915[txConfig->Datarate];
 1396              		.loc 1 720 0
 1397 0014 C356     		ldrsb	r3, [r0, r3]
 1398 0016 3E4F     		ldr	r7, .L104
 719:../../../../../../Middlewares/Third_Party/LoRaWAN/Mac/region/RegionUS915.c ****     int8_t phyDr = DataratesUS915[txConfig->Datarate];
 1399              		.loc 1 719 0
 1400 0018 8846     		mov	r8, r1
 720:../../../../../../Middlewares/Third_Party/LoRaWAN/Mac/region/RegionUS915.c ****     int8_t phyDr = DataratesUS915[txConfig->Datarate];
 1401              		.loc 1 720 0
 1402 001a F918     		adds	r1, r7, r3
 1403              	.LVL112:
 1404 001c 8A56     		ldrsb	r2, [r1, r2]
 719:../../../../../../Middlewares/Third_Party/LoRaWAN/Mac/region/RegionUS915.c ****     int8_t phyDr = DataratesUS915[txConfig->Datarate];
 1405              		.loc 1 719 0
 1406 001e 8DB0     		sub	sp, sp, #52
 1407              	.LCFI16:
 1408              		.cfi_def_cfa_offset 88
 719:../../../../../../Middlewares/Third_Party/LoRaWAN/Mac/region/RegionUS915.c ****     int8_t phyDr = DataratesUS915[txConfig->Datarate];
 1409              		.loc 1 719 0
 1410 0020 0400     		movs	r4, r0
 720:../../../../../../Middlewares/Third_Party/LoRaWAN/Mac/region/RegionUS915.c ****     int8_t phyDr = DataratesUS915[txConfig->Datarate];
 1411              		.loc 1 720 0
 1412 0022 9246     		mov	r10, r2
 1413              	.LVL113:
ARM GAS  C:\Users\EBANO_~1\AppData\Local\Temp\ccFRmLE5.s 			page 41


 1414              		.loc 1 721 0
 1415 0024 4557     		ldrsb	r5, [r0, r5]
 1416              	.LVL114:
 1417              	.LBB37:
 1418              	.LBB38:
 220:../../../../../../Middlewares/Third_Party/LoRaWAN/Mac/region/RegionUS915.c ****     {// Limit tx power to max 26dBm
 1419              		.loc 1 220 0
 1420 0026 042B     		cmp	r3, #4
 1421 0028 40D1     		bne	.L91
 222:../../../../../../Middlewares/Third_Party/LoRaWAN/Mac/region/RegionUS915.c ****     }
 1422              		.loc 1 222 0
 1423 002a 2B1C     		adds	r3, r5, #0
 1424              	.LVL115:
 1425 002c 022D     		cmp	r5, #2
 1426 002e 68DB     		blt	.L102
 1427 0030 384E     		ldr	r6, .L104+4
 1428 0032 5DB2     		sxtb	r5, r3
 1429              	.LVL116:
 1430              	.L93:
 1431              	.LBE38:
 1432              	.LBE37:
 1433              	.LBB43:
 1434              	.LBB44:
 209:../../../../../../Middlewares/Third_Party/LoRaWAN/Mac/region/RegionUS915.c ****     }
 1435              		.loc 1 209 0
 1436 0034 0227     		movs	r7, #2
 1437              	.L98:
 1438              	.LVL117:
 1439              	.LBE44:
 1440              	.LBE43:
 722:../../../../../../Middlewares/Third_Party/LoRaWAN/Mac/region/RegionUS915.c ****     uint32_t bandwidth = GetBandwidth( txConfig->Datarate );
 723:../../../../../../Middlewares/Third_Party/LoRaWAN/Mac/region/RegionUS915.c ****     int8_t phyTxPower = 0;
 724:../../../../../../Middlewares/Third_Party/LoRaWAN/Mac/region/RegionUS915.c **** 
 725:../../../../../../Middlewares/Third_Party/LoRaWAN/Mac/region/RegionUS915.c ****     // Calculate physical TX power
 726:../../../../../../Middlewares/Third_Party/LoRaWAN/Mac/region/RegionUS915.c ****     phyTxPower = RegionCommonComputeTxPower( txPowerLimited, US915_DEFAULT_MAX_ERP, 0 );
 1441              		.loc 1 726 0
 1442 0036 3849     		ldr	r1, .L104+8
 1443 0038 0022     		movs	r2, #0
 1444 003a 2800     		movs	r0, r5
 1445 003c FFF7FEFF 		bl	RegionCommonComputeTxPower
 1446              	.LVL118:
 727:../../../../../../Middlewares/Third_Party/LoRaWAN/Mac/region/RegionUS915.c **** 
 728:../../../../../../Middlewares/Third_Party/LoRaWAN/Mac/region/RegionUS915.c ****     // Setup the radio frequency
 729:../../../../../../Middlewares/Third_Party/LoRaWAN/Mac/region/RegionUS915.c ****     Radio.SetChannel( NvmCtx.Channels[txConfig->Channel].Frequency );
 1447              		.loc 1 729 0
 1448 0040 2278     		ldrb	r2, [r4]
 726:../../../../../../Middlewares/Third_Party/LoRaWAN/Mac/region/RegionUS915.c **** 
 1449              		.loc 1 726 0
 1450 0042 8346     		mov	fp, r0
 1451              	.LVL119:
 1452              		.loc 1 729 0
 1453 0044 5300     		lsls	r3, r2, #1
 1454 0046 9B18     		adds	r3, r3, r2
 1455 0048 9B00     		lsls	r3, r3, #2
 1456 004a F058     		ldr	r0, [r6, r3]
 1457 004c 334E     		ldr	r6, .L104+12
 1458 004e 7369     		ldr	r3, [r6, #20]
ARM GAS  C:\Users\EBANO_~1\AppData\Local\Temp\ccFRmLE5.s 			page 42


 1459 0050 0B93     		str	r3, [sp, #44]
 1460 0052 9847     		blx	r3
 1461              	.LVL120:
 730:../../../../../../Middlewares/Third_Party/LoRaWAN/Mac/region/RegionUS915.c **** 
 731:../../../../../../Middlewares/Third_Party/LoRaWAN/Mac/region/RegionUS915.c ****     Radio.SetTxConfig( MODEM_LORA, phyTxPower, 0, bandwidth, phyDr, 1, 8, false, true, 0, 0, false,
 1462              		.loc 1 731 0
 1463 0054 324B     		ldr	r3, .L104+16
 1464 0056 0122     		movs	r2, #1
 1465 0058 0893     		str	r3, [sp, #32]
 1466 005a 0023     		movs	r3, #0
 1467 005c 0793     		str	r3, [sp, #28]
 1468 005e 0693     		str	r3, [sp, #24]
 1469 0060 0593     		str	r3, [sp, #20]
 1470 0062 0393     		str	r3, [sp, #12]
 1471 0064 0833     		adds	r3, r3, #8
 1472 0066 0293     		str	r3, [sp, #8]
 1473 0068 5346     		mov	r3, r10
 1474 006a 0093     		str	r3, [sp]
 1475 006c 736A     		ldr	r3, [r6, #36]
 1476 006e 0492     		str	r2, [sp, #16]
 1477 0070 0B93     		str	r3, [sp, #44]
 1478 0072 0192     		str	r2, [sp, #4]
 1479 0074 3B00     		movs	r3, r7
 1480 0076 0022     		movs	r2, #0
 1481 0078 5946     		mov	r1, fp
 1482 007a 0120     		movs	r0, #1
 1483 007c 0B9F     		ldr	r7, [sp, #44]
 1484 007e B847     		blx	r7
 1485              	.LVL121:
 732:../../../../../../Middlewares/Third_Party/LoRaWAN/Mac/region/RegionUS915.c ****     TVL1( PRINTF( "TX on freq %d Hz at DR %d\n\r", NvmCtx.Channels[txConfig->Channel].Frequency, tx
 733:../../../../../../Middlewares/Third_Party/LoRaWAN/Mac/region/RegionUS915.c **** 
 734:../../../../../../Middlewares/Third_Party/LoRaWAN/Mac/region/RegionUS915.c ****     // Setup maximum payload lenght of the radio driver
 735:../../../../../../Middlewares/Third_Party/LoRaWAN/Mac/region/RegionUS915.c ****     Radio.SetMaxPayloadLength( MODEM_LORA, txConfig->PktLen );
 1486              		.loc 1 735 0
 1487 0080 F36D     		ldr	r3, [r6, #92]
 1488 0082 217B     		ldrb	r1, [r4, #12]
 1489 0084 0120     		movs	r0, #1
 1490 0086 0B93     		str	r3, [sp, #44]
 1491 0088 9847     		blx	r3
 1492              	.LVL122:
 736:../../../../../../Middlewares/Third_Party/LoRaWAN/Mac/region/RegionUS915.c ****     // Get the time-on-air of the next tx frame
 737:../../../../../../Middlewares/Third_Party/LoRaWAN/Mac/region/RegionUS915.c ****     *txTimeOnAir = Radio.TimeOnAir( MODEM_LORA, txConfig->PktLen );
 1493              		.loc 1 737 0
 1494 008a F36A     		ldr	r3, [r6, #44]
 1495 008c 217B     		ldrb	r1, [r4, #12]
 1496 008e 0120     		movs	r0, #1
 1497 0090 0B93     		str	r3, [sp, #44]
 1498 0092 9847     		blx	r3
 1499              	.LVL123:
 1500 0094 4B46     		mov	r3, r9
 1501 0096 1860     		str	r0, [r3]
 738:../../../../../../Middlewares/Third_Party/LoRaWAN/Mac/region/RegionUS915.c ****     *txPower = txPowerLimited;
 1502              		.loc 1 738 0
 1503 0098 4346     		mov	r3, r8
 739:../../../../../../Middlewares/Third_Party/LoRaWAN/Mac/region/RegionUS915.c **** 
 740:../../../../../../Middlewares/Third_Party/LoRaWAN/Mac/region/RegionUS915.c ****     return true;
 741:../../../../../../Middlewares/Third_Party/LoRaWAN/Mac/region/RegionUS915.c **** }
ARM GAS  C:\Users\EBANO_~1\AppData\Local\Temp\ccFRmLE5.s 			page 43


 1504              		.loc 1 741 0
 1505 009a 0120     		movs	r0, #1
 738:../../../../../../Middlewares/Third_Party/LoRaWAN/Mac/region/RegionUS915.c ****     *txPower = txPowerLimited;
 1506              		.loc 1 738 0
 1507 009c 1D70     		strb	r5, [r3]
 1508              		.loc 1 741 0
 1509 009e 0DB0     		add	sp, sp, #52
 1510              		@ sp needed
 1511              	.LVL124:
 1512              	.LVL125:
 1513              	.LVL126:
 1514              	.LVL127:
 1515              	.LVL128:
 1516 00a0 3CBC     		pop	{r2, r3, r4, r5}
 1517 00a2 9046     		mov	r8, r2
 1518 00a4 9946     		mov	r9, r3
 1519 00a6 A246     		mov	r10, r4
 1520 00a8 AB46     		mov	fp, r5
 1521 00aa F0BD     		pop	{r4, r5, r6, r7, pc}
 1522              	.LVL129:
 1523              	.L91:
 721:../../../../../../Middlewares/Third_Party/LoRaWAN/Mac/region/RegionUS915.c ****     uint32_t bandwidth = GetBandwidth( txConfig->Datarate );
 1524              		.loc 1 721 0
 1525 00ac 0278     		ldrb	r2, [r0]
 1526 00ae 194E     		ldr	r6, .L104+4
 1527 00b0 5300     		lsls	r3, r2, #1
 1528              	.LVL130:
 1529 00b2 9B18     		adds	r3, r3, r2
 1530 00b4 9B00     		lsls	r3, r3, #2
 1531 00b6 F318     		adds	r3, r6, r3
 1532 00b8 5B7A     		ldrb	r3, [r3, #9]
 1533              	.LBB46:
 1534              	.LBB39:
 226:../../../../../../Middlewares/Third_Party/LoRaWAN/Mac/region/RegionUS915.c ****         {// Limit tx power to max 21dBm
 1535              		.loc 1 226 0
 1536 00ba 0422     		movs	r2, #4
 1537              	.LBE39:
 1538              	.LBE46:
 721:../../../../../../Middlewares/Third_Party/LoRaWAN/Mac/region/RegionUS915.c ****     uint32_t bandwidth = GetBandwidth( txConfig->Datarate );
 1539              		.loc 1 721 0
 1540 00bc 3633     		adds	r3, r3, #54
 1541 00be 1B01     		lsls	r3, r3, #4
 1542 00c0 F318     		adds	r3, r6, r3
 1543 00c2 9B78     		ldrb	r3, [r3, #2]
 1544              	.LBB47:
 1545              	.LBB40:
 226:../../../../../../Middlewares/Third_Party/LoRaWAN/Mac/region/RegionUS915.c ****         {// Limit tx power to max 21dBm
 1546              		.loc 1 226 0
 1547 00c4 0021     		movs	r1, #0
 1548              	.LBE40:
 1549              	.LBE47:
 721:../../../../../../Middlewares/Third_Party/LoRaWAN/Mac/region/RegionUS915.c ****     uint32_t bandwidth = GetBandwidth( txConfig->Datarate );
 1550              		.loc 1 721 0
 1551 00c6 5BB2     		sxtb	r3, r3
 1552 00c8 9B46     		mov	fp, r3
 1553              	.LBB48:
 1554              	.LBB41:
ARM GAS  C:\Users\EBANO_~1\AppData\Local\Temp\ccFRmLE5.s 			page 44


 226:../../../../../../Middlewares/Third_Party/LoRaWAN/Mac/region/RegionUS915.c ****         {// Limit tx power to max 21dBm
 1555              		.loc 1 226 0
 1556 00ca DC23     		movs	r3, #220
 1557 00cc 9B00     		lsls	r3, r3, #2
 1558 00ce F018     		adds	r0, r6, r3
 1559              	.LVL131:
 1560 00d0 FFF7FEFF 		bl	RegionCommonCountChannels
 1561              	.LVL132:
 228:../../../../../../Middlewares/Third_Party/LoRaWAN/Mac/region/RegionUS915.c ****         }
 1562              		.loc 1 228 0
 1563 00d4 2B1C     		adds	r3, r5, #0
 226:../../../../../../Middlewares/Third_Party/LoRaWAN/Mac/region/RegionUS915.c ****         {// Limit tx power to max 21dBm
 1564              		.loc 1 226 0
 1565 00d6 3128     		cmp	r0, #49
 1566 00d8 0FD9     		bls	.L94
 1567              	.LVL133:
 218:../../../../../../Middlewares/Third_Party/LoRaWAN/Mac/region/RegionUS915.c **** 
 1568              		.loc 1 218 0
 1569 00da 5D45     		cmp	r5, fp
 1570 00dc 15DB     		blt	.L103
 1571              	.LVL134:
 1572              	.L97:
 228:../../../../../../Middlewares/Third_Party/LoRaWAN/Mac/region/RegionUS915.c ****         }
 1573              		.loc 1 228 0
 1574 00de 5DB2     		sxtb	r5, r3
 1575              	.LVL135:
 1576              	.LBE41:
 1577              	.LBE48:
 722:../../../../../../Middlewares/Third_Party/LoRaWAN/Mac/region/RegionUS915.c ****     int8_t phyTxPower = 0;
 1578              		.loc 1 722 0
 1579 00e0 0123     		movs	r3, #1
 1580 00e2 E356     		ldrsb	r3, [r4, r3]
 1581              	.LVL136:
 1582              	.LBB49:
 1583              	.LBB45:
 201:../../../../../../Middlewares/Third_Party/LoRaWAN/Mac/region/RegionUS915.c ****     {
 1584              		.loc 1 201 0
 1585 00e4 0F4A     		ldr	r2, .L104+20
 1586 00e6 9B00     		lsls	r3, r3, #2
 1587              	.LVL137:
 1588 00e8 FB58     		ldr	r3, [r7, r3]
 207:../../../../../../Middlewares/Third_Party/LoRaWAN/Mac/region/RegionUS915.c ****         case 500000:
 1589              		.loc 1 207 0
 1590 00ea 0127     		movs	r7, #1
 201:../../../../../../Middlewares/Third_Party/LoRaWAN/Mac/region/RegionUS915.c ****     {
 1591              		.loc 1 201 0
 1592 00ec 9342     		cmp	r3, r2
 1593 00ee A2D0     		beq	.L98
 1594 00f0 0D4A     		ldr	r2, .L104+24
 205:../../../../../../Middlewares/Third_Party/LoRaWAN/Mac/region/RegionUS915.c ****         case 250000:
 1595              		.loc 1 205 0
 1596 00f2 0027     		movs	r7, #0
 201:../../../../../../Middlewares/Third_Party/LoRaWAN/Mac/region/RegionUS915.c ****     {
 1597              		.loc 1 201 0
 1598 00f4 9342     		cmp	r3, r2
 1599 00f6 9ED1     		bne	.L98
 1600 00f8 9CE7     		b	.L93
ARM GAS  C:\Users\EBANO_~1\AppData\Local\Temp\ccFRmLE5.s 			page 45


 1601              	.LVL138:
 1602              	.L94:
 1603              	.LBE45:
 1604              	.LBE49:
 1605              	.LBB50:
 1606              	.LBB42:
 228:../../../../../../Middlewares/Third_Party/LoRaWAN/Mac/region/RegionUS915.c ****         }
 1607              		.loc 1 228 0
 1608 00fa 052D     		cmp	r5, #5
 1609 00fc EFDA     		bge	.L97
 1610 00fe 0523     		movs	r3, #5
 1611              	.LVL139:
 1612 0100 EDE7     		b	.L97
 1613              	.LVL140:
 1614              	.L102:
 222:../../../../../../Middlewares/Third_Party/LoRaWAN/Mac/region/RegionUS915.c ****     }
 1615              		.loc 1 222 0
 1616 0102 0223     		movs	r3, #2
 1617              	.LVL141:
 1618 0104 034E     		ldr	r6, .L104+4
 1619 0106 5DB2     		sxtb	r5, r3
 1620              	.LVL142:
 1621 0108 94E7     		b	.L93
 1622              	.LVL143:
 1623              	.L103:
 218:../../../../../../Middlewares/Third_Party/LoRaWAN/Mac/region/RegionUS915.c **** 
 1624              		.loc 1 218 0
 1625 010a 5B46     		mov	r3, fp
 1626              	.LVL144:
 1627 010c E7E7     		b	.L97
 1628              	.L105:
 1629 010e C046     		.align	2
 1630              	.L104:
 1631 0110 EC000000 		.word	.LANCHOR1
 1632 0114 00000000 		.word	NvmCtx
 1633 0118 0000F041 		.word	1106247680
 1634 011c 00000000 		.word	Radio
 1635 0120 B80B0000 		.word	3000
 1636 0124 90D00300 		.word	250000
 1637 0128 20A10700 		.word	500000
 1638              	.LBE42:
 1639              	.LBE50:
 1640              		.cfi_endproc
 1641              	.LFE55:
 1642              		.size	RegionUS915TxConfig, .-RegionUS915TxConfig
 1643              		.section	.text.RegionUS915LinkAdrReq,"ax",%progbits
 1644              		.align	1
 1645              		.p2align 2,,3
 1646              		.global	RegionUS915LinkAdrReq
 1647              		.syntax unified
 1648              		.code	16
 1649              		.thumb_func
 1650              		.fpu softvfp
 1651              		.type	RegionUS915LinkAdrReq, %function
 1652              	RegionUS915LinkAdrReq:
 1653              	.LFB56:
 742:../../../../../../Middlewares/Third_Party/LoRaWAN/Mac/region/RegionUS915.c **** 
ARM GAS  C:\Users\EBANO_~1\AppData\Local\Temp\ccFRmLE5.s 			page 46


 743:../../../../../../Middlewares/Third_Party/LoRaWAN/Mac/region/RegionUS915.c **** uint8_t RegionUS915LinkAdrReq( LinkAdrReqParams_t* linkAdrReq, int8_t* drOut, int8_t* txPowOut, uin
 744:../../../../../../Middlewares/Third_Party/LoRaWAN/Mac/region/RegionUS915.c **** {
 1654              		.loc 1 744 0
 1655              		.cfi_startproc
 1656              		@ args = 4, pretend = 0, frame = 56
 1657              		@ frame_needed = 0, uses_anonymous_args = 0
 1658              	.LVL145:
 1659 0000 F0B5     		push	{r4, r5, r6, r7, lr}
 1660              	.LCFI17:
 1661              		.cfi_def_cfa_offset 20
 1662              		.cfi_offset 4, -20
 1663              		.cfi_offset 5, -16
 1664              		.cfi_offset 6, -12
 1665              		.cfi_offset 7, -8
 1666              		.cfi_offset 14, -4
 1667 0002 DE46     		mov	lr, fp
 1668 0004 5746     		mov	r7, r10
 1669 0006 4E46     		mov	r6, r9
 1670 0008 4546     		mov	r5, r8
 1671 000a E0B5     		push	{r5, r6, r7, lr}
 1672              	.LCFI18:
 1673              		.cfi_def_cfa_offset 36
 1674              		.cfi_offset 8, -36
 1675              		.cfi_offset 9, -32
 1676              		.cfi_offset 10, -28
 1677              		.cfi_offset 11, -24
 1678 000c 8FB0     		sub	sp, sp, #60
 1679              	.LCFI19:
 1680              		.cfi_def_cfa_offset 96
 745:../../../../../../Middlewares/Third_Party/LoRaWAN/Mac/region/RegionUS915.c ****     uint8_t status = 0x07;
 746:../../../../../../Middlewares/Third_Party/LoRaWAN/Mac/region/RegionUS915.c ****     RegionCommonLinkAdrParams_t linkAdrParams;
 747:../../../../../../Middlewares/Third_Party/LoRaWAN/Mac/region/RegionUS915.c ****     uint8_t nextIndex = 0;
 748:../../../../../../Middlewares/Third_Party/LoRaWAN/Mac/region/RegionUS915.c ****     uint8_t bytesProcessed = 0;
 749:../../../../../../Middlewares/Third_Party/LoRaWAN/Mac/region/RegionUS915.c ****     uint16_t channelsMask[6] = { 0, 0, 0, 0, 0, 0 };
 1681              		.loc 1 749 0
 1682 000e 03AF     		add	r7, sp, #12
 744:../../../../../../Middlewares/Third_Party/LoRaWAN/Mac/region/RegionUS915.c ****     uint8_t status = 0x07;
 1683              		.loc 1 744 0
 1684 0010 0600     		movs	r6, r0
 1685 0012 8A46     		mov	r10, r1
 1686 0014 9146     		mov	r9, r2
 1687              		.loc 1 749 0
 1688 0016 0021     		movs	r1, #0
 1689              	.LVL146:
 1690 0018 0C22     		movs	r2, #12
 1691              	.LVL147:
 1692 001a 3800     		movs	r0, r7
 1693              	.LVL148:
 744:../../../../../../Middlewares/Third_Party/LoRaWAN/Mac/region/RegionUS915.c ****     uint8_t status = 0x07;
 1694              		.loc 1 744 0
 1695 001c 9846     		mov	r8, r3
 1696              		.loc 1 749 0
 1697 001e FFF7FEFF 		bl	memset
 1698              	.LVL149:
 750:../../../../../../Middlewares/Third_Party/LoRaWAN/Mac/region/RegionUS915.c ****     GetPhyParams_t getPhy;
 751:../../../../../../Middlewares/Third_Party/LoRaWAN/Mac/region/RegionUS915.c ****     PhyParam_t phyParam;
 752:../../../../../../Middlewares/Third_Party/LoRaWAN/Mac/region/RegionUS915.c ****     RegionCommonLinkAdrReqVerifyParams_t linkAdrVerifyParams;
ARM GAS  C:\Users\EBANO_~1\AppData\Local\Temp\ccFRmLE5.s 			page 47


 753:../../../../../../Middlewares/Third_Party/LoRaWAN/Mac/region/RegionUS915.c **** 
 754:../../../../../../Middlewares/Third_Party/LoRaWAN/Mac/region/RegionUS915.c ****     // Initialize local copy of channels mask
 755:../../../../../../Middlewares/Third_Party/LoRaWAN/Mac/region/RegionUS915.c ****     RegionCommonChanMaskCopy( channelsMask, NvmCtx.ChannelsMask, 6 );
 1699              		.loc 1 755 0
 1700 0022 0622     		movs	r2, #6
 1701 0024 A149     		ldr	r1, .L146
 1702 0026 3800     		movs	r0, r7
 1703 0028 FFF7FEFF 		bl	RegionCommonChanMaskCopy
 1704              	.LVL150:
 1705              	.LBB57:
 1706              	.LBB58:
 756:../../../../../../Middlewares/Third_Party/LoRaWAN/Mac/region/RegionUS915.c **** 
 757:../../../../../../Middlewares/Third_Party/LoRaWAN/Mac/region/RegionUS915.c ****     while( bytesProcessed < linkAdrReq->PayloadSize )
 758:../../../../../../Middlewares/Third_Party/LoRaWAN/Mac/region/RegionUS915.c ****     {
 759:../../../../../../Middlewares/Third_Party/LoRaWAN/Mac/region/RegionUS915.c ****         nextIndex = RegionCommonParseLinkAdrReq( &( linkAdrReq->Payload[bytesProcessed] ), &linkAdr
 760:../../../../../../Middlewares/Third_Party/LoRaWAN/Mac/region/RegionUS915.c **** 
 761:../../../../../../Middlewares/Third_Party/LoRaWAN/Mac/region/RegionUS915.c ****         if( nextIndex == 0 )
 762:../../../../../../Middlewares/Third_Party/LoRaWAN/Mac/region/RegionUS915.c ****             break; // break loop, since no more request has been found
 763:../../../../../../Middlewares/Third_Party/LoRaWAN/Mac/region/RegionUS915.c **** 
 764:../../../../../../Middlewares/Third_Party/LoRaWAN/Mac/region/RegionUS915.c ****         // Update bytes processed
 765:../../../../../../Middlewares/Third_Party/LoRaWAN/Mac/region/RegionUS915.c ****         bytesProcessed += nextIndex;
 766:../../../../../../Middlewares/Third_Party/LoRaWAN/Mac/region/RegionUS915.c **** 
 767:../../../../../../Middlewares/Third_Party/LoRaWAN/Mac/region/RegionUS915.c ****         // Revert status, as we only check the last ADR request for the channel mask KO
 768:../../../../../../Middlewares/Third_Party/LoRaWAN/Mac/region/RegionUS915.c ****         status = 0x07;
 769:../../../../../../Middlewares/Third_Party/LoRaWAN/Mac/region/RegionUS915.c **** 
 770:../../../../../../Middlewares/Third_Party/LoRaWAN/Mac/region/RegionUS915.c ****         if( linkAdrParams.ChMaskCtrl == 6 )
 771:../../../../../../Middlewares/Third_Party/LoRaWAN/Mac/region/RegionUS915.c ****         {
 772:../../../../../../Middlewares/Third_Party/LoRaWAN/Mac/region/RegionUS915.c ****             // Enable all 125 kHz channels
 773:../../../../../../Middlewares/Third_Party/LoRaWAN/Mac/region/RegionUS915.c ****             channelsMask[0] = 0xFFFF;
 774:../../../../../../Middlewares/Third_Party/LoRaWAN/Mac/region/RegionUS915.c ****             channelsMask[1] = 0xFFFF;
 775:../../../../../../Middlewares/Third_Party/LoRaWAN/Mac/region/RegionUS915.c ****             channelsMask[2] = 0xFFFF;
 776:../../../../../../Middlewares/Third_Party/LoRaWAN/Mac/region/RegionUS915.c ****             channelsMask[3] = 0xFFFF;
 777:../../../../../../Middlewares/Third_Party/LoRaWAN/Mac/region/RegionUS915.c ****             // Apply chMask to channels 64 to 71
 778:../../../../../../Middlewares/Third_Party/LoRaWAN/Mac/region/RegionUS915.c ****             channelsMask[4] = linkAdrParams.ChMask & CHANNELS_MASK_500KHZ_MASK;
 779:../../../../../../Middlewares/Third_Party/LoRaWAN/Mac/region/RegionUS915.c ****         }
 780:../../../../../../Middlewares/Third_Party/LoRaWAN/Mac/region/RegionUS915.c ****         else if( linkAdrParams.ChMaskCtrl == 7 )
 781:../../../../../../Middlewares/Third_Party/LoRaWAN/Mac/region/RegionUS915.c ****         {
 782:../../../../../../Middlewares/Third_Party/LoRaWAN/Mac/region/RegionUS915.c ****             // Disable all 125 kHz channels
 783:../../../../../../Middlewares/Third_Party/LoRaWAN/Mac/region/RegionUS915.c ****             channelsMask[0] = 0x0000;
 784:../../../../../../Middlewares/Third_Party/LoRaWAN/Mac/region/RegionUS915.c ****             channelsMask[1] = 0x0000;
 785:../../../../../../Middlewares/Third_Party/LoRaWAN/Mac/region/RegionUS915.c ****             channelsMask[2] = 0x0000;
 786:../../../../../../Middlewares/Third_Party/LoRaWAN/Mac/region/RegionUS915.c ****             channelsMask[3] = 0x0000;
 787:../../../../../../Middlewares/Third_Party/LoRaWAN/Mac/region/RegionUS915.c ****             // Apply chMask to channels 64 to 71
 788:../../../../../../Middlewares/Third_Party/LoRaWAN/Mac/region/RegionUS915.c ****             channelsMask[4] = linkAdrParams.ChMask & CHANNELS_MASK_500KHZ_MASK;
 789:../../../../../../Middlewares/Third_Party/LoRaWAN/Mac/region/RegionUS915.c ****         }
 790:../../../../../../Middlewares/Third_Party/LoRaWAN/Mac/region/RegionUS915.c ****         else if( linkAdrParams.ChMaskCtrl == 5 )
 791:../../../../../../Middlewares/Third_Party/LoRaWAN/Mac/region/RegionUS915.c ****         {
 792:../../../../../../Middlewares/Third_Party/LoRaWAN/Mac/region/RegionUS915.c ****             // Start value for comparision
 793:../../../../../../Middlewares/Third_Party/LoRaWAN/Mac/region/RegionUS915.c ****             uint8_t bitMask = 1;
 794:../../../../../../Middlewares/Third_Party/LoRaWAN/Mac/region/RegionUS915.c **** 
 795:../../../../../../Middlewares/Third_Party/LoRaWAN/Mac/region/RegionUS915.c ****             // cntChannelMask for channelsMask[0] until channelsMask[3]
 796:../../../../../../Middlewares/Third_Party/LoRaWAN/Mac/region/RegionUS915.c ****             uint8_t cntChannelMask = 0;
 797:../../../../../../Middlewares/Third_Party/LoRaWAN/Mac/region/RegionUS915.c **** 
 798:../../../../../../Middlewares/Third_Party/LoRaWAN/Mac/region/RegionUS915.c ****             // i will be 1, 2, 3, ..., 7
 799:../../../../../../Middlewares/Third_Party/LoRaWAN/Mac/region/RegionUS915.c ****             for( uint8_t i = 0; i <= 7; i++ )
 800:../../../../../../Middlewares/Third_Party/LoRaWAN/Mac/region/RegionUS915.c ****             {
 801:../../../../../../Middlewares/Third_Party/LoRaWAN/Mac/region/RegionUS915.c ****                 // 8 MSBs of ChMask are RFU
ARM GAS  C:\Users\EBANO_~1\AppData\Local\Temp\ccFRmLE5.s 			page 48


 802:../../../../../../Middlewares/Third_Party/LoRaWAN/Mac/region/RegionUS915.c ****                 // Checking if the ChMask is set, then true
 803:../../../../../../Middlewares/Third_Party/LoRaWAN/Mac/region/RegionUS915.c ****                 if( ( ( linkAdrParams.ChMask & 0x00FF ) & ( bitMask << i ) ) != 0 )
 1707              		.loc 1 803 0
 1708 002c 0123     		movs	r3, #1
 1709              	.LBE58:
 1710              	.LBE57:
 748:../../../../../../Middlewares/Third_Party/LoRaWAN/Mac/region/RegionUS915.c ****     uint16_t channelsMask[6] = { 0, 0, 0, 0, 0, 0 };
 1711              		.loc 1 748 0
 1712 002e 0024     		movs	r4, #0
 1713              	.LBB62:
 1714              	.LBB59:
 1715              		.loc 1 803 0
 1716 0030 9B46     		mov	fp, r3
 1717 0032 01AD     		add	r5, sp, #4
 1718              	.LVL151:
 1719              	.L107:
 1720              	.LBE59:
 1721              	.LBE62:
 757:../../../../../../Middlewares/Third_Party/LoRaWAN/Mac/region/RegionUS915.c ****     {
 1722              		.loc 1 757 0
 1723 0034 337A     		ldrb	r3, [r6, #8]
 1724 0036 A342     		cmp	r3, r4
 1725 0038 15D9     		bls	.L131
 1726              	.L130:
 759:../../../../../../Middlewares/Third_Party/LoRaWAN/Mac/region/RegionUS915.c **** 
 1727              		.loc 1 759 0
 1728 003a 7368     		ldr	r3, [r6, #4]
 1729 003c 2900     		movs	r1, r5
 1730 003e 1819     		adds	r0, r3, r4
 1731 0040 FFF7FEFF 		bl	RegionCommonParseLinkAdrReq
 1732              	.LVL152:
 761:../../../../../../Middlewares/Third_Party/LoRaWAN/Mac/region/RegionUS915.c ****             break; // break loop, since no more request has been found
 1733              		.loc 1 761 0
 1734 0044 0028     		cmp	r0, #0
 1735 0046 0ED0     		beq	.L131
 770:../../../../../../Middlewares/Third_Party/LoRaWAN/Mac/region/RegionUS915.c ****         {
 1736              		.loc 1 770 0
 1737 0048 EB78     		ldrb	r3, [r5, #3]
 765:../../../../../../Middlewares/Third_Party/LoRaWAN/Mac/region/RegionUS915.c **** 
 1738              		.loc 1 765 0
 1739 004a 2418     		adds	r4, r4, r0
 1740              	.LVL153:
 1741 004c E4B2     		uxtb	r4, r4
 1742              	.LVL154:
 1743 004e AA88     		ldrh	r2, [r5, #4]
 770:../../../../../../Middlewares/Third_Party/LoRaWAN/Mac/region/RegionUS915.c ****         {
 1744              		.loc 1 770 0
 1745 0050 062B     		cmp	r3, #6
 1746 0052 48D0     		beq	.L135
 780:../../../../../../Middlewares/Third_Party/LoRaWAN/Mac/region/RegionUS915.c ****         {
 1747              		.loc 1 780 0
 1748 0054 072B     		cmp	r3, #7
 1749 0056 4ED0     		beq	.L136
 790:../../../../../../Middlewares/Third_Party/LoRaWAN/Mac/region/RegionUS915.c ****         {
 1750              		.loc 1 790 0
 1751 0058 052B     		cmp	r3, #5
 1752 005a 53D0     		beq	.L137
ARM GAS  C:\Users\EBANO_~1\AppData\Local\Temp\ccFRmLE5.s 			page 49


 804:../../../../../../Middlewares/Third_Party/LoRaWAN/Mac/region/RegionUS915.c ****                 {
 805:../../../../../../Middlewares/Third_Party/LoRaWAN/Mac/region/RegionUS915.c ****                     if( ( i % 2 ) == 0 )
 806:../../../../../../Middlewares/Third_Party/LoRaWAN/Mac/region/RegionUS915.c ****                     {
 807:../../../../../../Middlewares/Third_Party/LoRaWAN/Mac/region/RegionUS915.c ****                         // Enable a bank of 8 125kHz channels, 8 LSBs
 808:../../../../../../Middlewares/Third_Party/LoRaWAN/Mac/region/RegionUS915.c ****                         channelsMask[cntChannelMask] |= 0x00FF;
 809:../../../../../../Middlewares/Third_Party/LoRaWAN/Mac/region/RegionUS915.c ****                         // Enable the corresponding 500kHz channel
 810:../../../../../../Middlewares/Third_Party/LoRaWAN/Mac/region/RegionUS915.c ****                         channelsMask[4] |= ( bitMask << i );
 811:../../../../../../Middlewares/Third_Party/LoRaWAN/Mac/region/RegionUS915.c ****                     }
 812:../../../../../../Middlewares/Third_Party/LoRaWAN/Mac/region/RegionUS915.c ****                     else
 813:../../../../../../Middlewares/Third_Party/LoRaWAN/Mac/region/RegionUS915.c ****                     {
 814:../../../../../../Middlewares/Third_Party/LoRaWAN/Mac/region/RegionUS915.c ****                         // Enable a bank of 8 125kHz channels, 8 MSBs
 815:../../../../../../Middlewares/Third_Party/LoRaWAN/Mac/region/RegionUS915.c ****                         channelsMask[cntChannelMask] |= 0xFF00;
 816:../../../../../../Middlewares/Third_Party/LoRaWAN/Mac/region/RegionUS915.c ****                         // Enable the corresponding 500kHz channel
 817:../../../../../../Middlewares/Third_Party/LoRaWAN/Mac/region/RegionUS915.c ****                         channelsMask[4] |= ( bitMask << i );
 818:../../../../../../Middlewares/Third_Party/LoRaWAN/Mac/region/RegionUS915.c ****                         // cntChannelMask increment for uneven i
 819:../../../../../../Middlewares/Third_Party/LoRaWAN/Mac/region/RegionUS915.c ****                         cntChannelMask++;
 820:../../../../../../Middlewares/Third_Party/LoRaWAN/Mac/region/RegionUS915.c ****                     }
 821:../../../../../../Middlewares/Third_Party/LoRaWAN/Mac/region/RegionUS915.c ****                 }
 822:../../../../../../Middlewares/Third_Party/LoRaWAN/Mac/region/RegionUS915.c ****                 // ChMask is not set
 823:../../../../../../Middlewares/Third_Party/LoRaWAN/Mac/region/RegionUS915.c ****                 else
 824:../../../../../../Middlewares/Third_Party/LoRaWAN/Mac/region/RegionUS915.c ****                 {
 825:../../../../../../Middlewares/Third_Party/LoRaWAN/Mac/region/RegionUS915.c ****                     if( ( i % 2 ) == 0 )
 826:../../../../../../Middlewares/Third_Party/LoRaWAN/Mac/region/RegionUS915.c ****                     {
 827:../../../../../../Middlewares/Third_Party/LoRaWAN/Mac/region/RegionUS915.c ****                         // Disable a bank of 8 125kHz channels, 8 LSBs
 828:../../../../../../Middlewares/Third_Party/LoRaWAN/Mac/region/RegionUS915.c ****                         channelsMask[cntChannelMask] &= 0xFF00;
 829:../../../../../../Middlewares/Third_Party/LoRaWAN/Mac/region/RegionUS915.c ****                         // Disable the corresponding 500kHz channel
 830:../../../../../../Middlewares/Third_Party/LoRaWAN/Mac/region/RegionUS915.c ****                         channelsMask[4] &= ~( bitMask << i );
 831:../../../../../../Middlewares/Third_Party/LoRaWAN/Mac/region/RegionUS915.c ****                     }
 832:../../../../../../Middlewares/Third_Party/LoRaWAN/Mac/region/RegionUS915.c ****                     else
 833:../../../../../../Middlewares/Third_Party/LoRaWAN/Mac/region/RegionUS915.c ****                     {
 834:../../../../../../Middlewares/Third_Party/LoRaWAN/Mac/region/RegionUS915.c ****                         // Enable a bank of 8 125kHz channels, 8 MSBs
 835:../../../../../../Middlewares/Third_Party/LoRaWAN/Mac/region/RegionUS915.c ****                         channelsMask[cntChannelMask] &= 0x00FF;
 836:../../../../../../Middlewares/Third_Party/LoRaWAN/Mac/region/RegionUS915.c ****                         // Disable the corresponding 500kHz channel
 837:../../../../../../Middlewares/Third_Party/LoRaWAN/Mac/region/RegionUS915.c ****                         channelsMask[4] &= ~( bitMask << i );
 838:../../../../../../Middlewares/Third_Party/LoRaWAN/Mac/region/RegionUS915.c ****                         // cntChannelMask increment for uneven i
 839:../../../../../../Middlewares/Third_Party/LoRaWAN/Mac/region/RegionUS915.c ****                         cntChannelMask++;
 840:../../../../../../Middlewares/Third_Party/LoRaWAN/Mac/region/RegionUS915.c ****                     }
 841:../../../../../../Middlewares/Third_Party/LoRaWAN/Mac/region/RegionUS915.c ****                 }
 842:../../../../../../Middlewares/Third_Party/LoRaWAN/Mac/region/RegionUS915.c ****             }
 843:../../../../../../Middlewares/Third_Party/LoRaWAN/Mac/region/RegionUS915.c ****         }
 844:../../../../../../Middlewares/Third_Party/LoRaWAN/Mac/region/RegionUS915.c ****         else
 845:../../../../../../Middlewares/Third_Party/LoRaWAN/Mac/region/RegionUS915.c ****         {
 846:../../../../../../Middlewares/Third_Party/LoRaWAN/Mac/region/RegionUS915.c ****             channelsMask[linkAdrParams.ChMaskCtrl] = linkAdrParams.ChMask;
 1753              		.loc 1 846 0
 1754 005c 5B00     		lsls	r3, r3, #1
 1755 005e FA52     		strh	r2, [r7, r3]
 757:../../../../../../Middlewares/Third_Party/LoRaWAN/Mac/region/RegionUS915.c ****     {
 1756              		.loc 1 757 0
 1757 0060 337A     		ldrb	r3, [r6, #8]
 1758 0062 A342     		cmp	r3, r4
 1759 0064 E9D8     		bhi	.L130
 1760              	.LVL155:
 1761              	.L131:
 847:../../../../../../Middlewares/Third_Party/LoRaWAN/Mac/region/RegionUS915.c ****         }
 848:../../../../../../Middlewares/Third_Party/LoRaWAN/Mac/region/RegionUS915.c ****     }
 849:../../../../../../Middlewares/Third_Party/LoRaWAN/Mac/region/RegionUS915.c **** 
 850:../../../../../../Middlewares/Third_Party/LoRaWAN/Mac/region/RegionUS915.c ****     // FCC 15.247 paragraph F mandates to hop on at least 2 125 kHz channels
ARM GAS  C:\Users\EBANO_~1\AppData\Local\Temp\ccFRmLE5.s 			page 50


 851:../../../../../../Middlewares/Third_Party/LoRaWAN/Mac/region/RegionUS915.c ****     if( ( linkAdrParams.Datarate < DR_4 ) && ( RegionCommonCountChannels( channelsMask, 0, 4 ) < 2 
 1762              		.loc 1 851 0
 1763 0066 0123     		movs	r3, #1
 1764 0068 EB56     		ldrsb	r3, [r5, r3]
 1765 006a 032B     		cmp	r3, #3
 1766 006c 00DC     		bgt	.LCB1611
 1767 006e 97E0     		b	.L109	@long jump
 1768              	.LCB1611:
 1769              	.L134:
 1770 0070 0722     		movs	r2, #7
 1771              	.LVL156:
 1772              	.L110:
 852:../../../../../../Middlewares/Third_Party/LoRaWAN/Mac/region/RegionUS915.c ****     {
 853:../../../../../../Middlewares/Third_Party/LoRaWAN/Mac/region/RegionUS915.c ****         status &= 0xFE; // Channel mask KO
 854:../../../../../../Middlewares/Third_Party/LoRaWAN/Mac/region/RegionUS915.c ****     }
 855:../../../../../../Middlewares/Third_Party/LoRaWAN/Mac/region/RegionUS915.c **** 
 856:../../../../../../Middlewares/Third_Party/LoRaWAN/Mac/region/RegionUS915.c ****     // Get the minimum possible datarate
 857:../../../../../../Middlewares/Third_Party/LoRaWAN/Mac/region/RegionUS915.c ****     getPhy.Attribute = PHY_MIN_TX_DR;
 858:../../../../../../Middlewares/Third_Party/LoRaWAN/Mac/region/RegionUS915.c ****     getPhy.UplinkDwellTime = linkAdrReq->UplinkDwellTime;
 859:../../../../../../Middlewares/Third_Party/LoRaWAN/Mac/region/RegionUS915.c ****     phyParam = RegionUS915GetPhyParam( &getPhy );
 860:../../../../../../Middlewares/Third_Party/LoRaWAN/Mac/region/RegionUS915.c **** 
 861:../../../../../../Middlewares/Third_Party/LoRaWAN/Mac/region/RegionUS915.c ****     linkAdrVerifyParams.Status = status;
 1773              		.loc 1 861 0
 1774 0072 06A8     		add	r0, sp, #24
 1775 0074 0271     		strb	r2, [r0, #4]
 862:../../../../../../Middlewares/Third_Party/LoRaWAN/Mac/region/RegionUS915.c ****     linkAdrVerifyParams.AdrEnabled = linkAdrReq->AdrEnabled;
 1776              		.loc 1 862 0
 1777 0076 B27A     		ldrb	r2, [r6, #10]
 1778              	.LVL157:
 863:../../../../../../Middlewares/Third_Party/LoRaWAN/Mac/region/RegionUS915.c ****     linkAdrVerifyParams.Datarate = linkAdrParams.Datarate;
 1779              		.loc 1 863 0
 1780 0078 8371     		strb	r3, [r0, #6]
 862:../../../../../../Middlewares/Third_Party/LoRaWAN/Mac/region/RegionUS915.c ****     linkAdrVerifyParams.AdrEnabled = linkAdrReq->AdrEnabled;
 1781              		.loc 1 862 0
 1782 007a 4271     		strb	r2, [r0, #5]
 864:../../../../../../Middlewares/Third_Party/LoRaWAN/Mac/region/RegionUS915.c ****     linkAdrVerifyParams.TxPower = linkAdrParams.TxPower;
 1783              		.loc 1 864 0
 1784 007c AB78     		ldrb	r3, [r5, #2]
 865:../../../../../../Middlewares/Third_Party/LoRaWAN/Mac/region/RegionUS915.c ****     linkAdrVerifyParams.NbRep = linkAdrParams.NbRep;
 866:../../../../../../Middlewares/Third_Party/LoRaWAN/Mac/region/RegionUS915.c ****     linkAdrVerifyParams.CurrentDatarate = linkAdrReq->CurrentDatarate;
 867:../../../../../../Middlewares/Third_Party/LoRaWAN/Mac/region/RegionUS915.c ****     linkAdrVerifyParams.CurrentTxPower = linkAdrReq->CurrentTxPower;
 868:../../../../../../Middlewares/Third_Party/LoRaWAN/Mac/region/RegionUS915.c ****     linkAdrVerifyParams.CurrentNbRep = linkAdrReq->CurrentNbRep;
 869:../../../../../../Middlewares/Third_Party/LoRaWAN/Mac/region/RegionUS915.c ****     linkAdrVerifyParams.NbChannels = US915_MAX_NB_CHANNELS;
 870:../../../../../../Middlewares/Third_Party/LoRaWAN/Mac/region/RegionUS915.c ****     linkAdrVerifyParams.ChannelsMask = channelsMask;
 871:../../../../../../Middlewares/Third_Party/LoRaWAN/Mac/region/RegionUS915.c ****     linkAdrVerifyParams.MinDatarate = ( int8_t )phyParam.Value;
 872:../../../../../../Middlewares/Third_Party/LoRaWAN/Mac/region/RegionUS915.c ****     linkAdrVerifyParams.MaxDatarate = US915_TX_MAX_DATARATE;
 873:../../../../../../Middlewares/Third_Party/LoRaWAN/Mac/region/RegionUS915.c ****     linkAdrVerifyParams.Channels = NvmCtx.Channels;
 874:../../../../../../Middlewares/Third_Party/LoRaWAN/Mac/region/RegionUS915.c ****     linkAdrVerifyParams.MinTxPower = US915_MIN_TX_POWER;
 875:../../../../../../Middlewares/Third_Party/LoRaWAN/Mac/region/RegionUS915.c ****     linkAdrVerifyParams.MaxTxPower = US915_MAX_TX_POWER;
 876:../../../../../../Middlewares/Third_Party/LoRaWAN/Mac/region/RegionUS915.c ****     linkAdrVerifyParams.Version = linkAdrReq->Version;
 877:../../../../../../Middlewares/Third_Party/LoRaWAN/Mac/region/RegionUS915.c **** 
 878:../../../../../../Middlewares/Third_Party/LoRaWAN/Mac/region/RegionUS915.c ****     // Verify the parameters and update, if necessary
 879:../../../../../../Middlewares/Third_Party/LoRaWAN/Mac/region/RegionUS915.c ****     status = RegionCommonLinkAdrReqVerifyParams( &linkAdrVerifyParams, &linkAdrParams.Datarate, &li
 1785              		.loc 1 879 0
 1786 007e 6A46     		mov	r2, sp
 864:../../../../../../Middlewares/Third_Party/LoRaWAN/Mac/region/RegionUS915.c ****     linkAdrVerifyParams.TxPower = linkAdrParams.TxPower;
 1787              		.loc 1 864 0
ARM GAS  C:\Users\EBANO_~1\AppData\Local\Temp\ccFRmLE5.s 			page 51


 1788 0080 C371     		strb	r3, [r0, #7]
 865:../../../../../../Middlewares/Third_Party/LoRaWAN/Mac/region/RegionUS915.c ****     linkAdrVerifyParams.NbRep = linkAdrParams.NbRep;
 1789              		.loc 1 865 0
 1790 0082 2B78     		ldrb	r3, [r5]
 1791              		.loc 1 879 0
 1792 0084 6946     		mov	r1, sp
 865:../../../../../../Middlewares/Third_Party/LoRaWAN/Mac/region/RegionUS915.c ****     linkAdrVerifyParams.NbRep = linkAdrParams.NbRep;
 1793              		.loc 1 865 0
 1794 0086 0372     		strb	r3, [r0, #8]
 866:../../../../../../Middlewares/Third_Party/LoRaWAN/Mac/region/RegionUS915.c ****     linkAdrVerifyParams.CurrentTxPower = linkAdrReq->CurrentTxPower;
 1795              		.loc 1 866 0
 1796 0088 F37A     		ldrb	r3, [r6, #11]
 1797              		.loc 1 879 0
 1798 008a 0632     		adds	r2, r2, #6
 866:../../../../../../Middlewares/Third_Party/LoRaWAN/Mac/region/RegionUS915.c ****     linkAdrVerifyParams.CurrentTxPower = linkAdrReq->CurrentTxPower;
 1799              		.loc 1 866 0
 1800 008c 4372     		strb	r3, [r0, #9]
 867:../../../../../../Middlewares/Third_Party/LoRaWAN/Mac/region/RegionUS915.c ****     linkAdrVerifyParams.CurrentNbRep = linkAdrReq->CurrentNbRep;
 1801              		.loc 1 867 0
 1802 008e 337B     		ldrb	r3, [r6, #12]
 1803              		.loc 1 879 0
 1804 0090 0531     		adds	r1, r1, #5
 867:../../../../../../Middlewares/Third_Party/LoRaWAN/Mac/region/RegionUS915.c ****     linkAdrVerifyParams.CurrentNbRep = linkAdrReq->CurrentNbRep;
 1805              		.loc 1 867 0
 1806 0092 8372     		strb	r3, [r0, #10]
 868:../../../../../../Middlewares/Third_Party/LoRaWAN/Mac/region/RegionUS915.c ****     linkAdrVerifyParams.NbChannels = US915_MAX_NB_CHANNELS;
 1807              		.loc 1 868 0
 1808 0094 737B     		ldrb	r3, [r6, #13]
 870:../../../../../../Middlewares/Third_Party/LoRaWAN/Mac/region/RegionUS915.c ****     linkAdrVerifyParams.MinDatarate = ( int8_t )phyParam.Value;
 1809              		.loc 1 870 0
 1810 0096 0761     		str	r7, [r0, #16]
 868:../../../../../../Middlewares/Third_Party/LoRaWAN/Mac/region/RegionUS915.c ****     linkAdrVerifyParams.NbChannels = US915_MAX_NB_CHANNELS;
 1811              		.loc 1 868 0
 1812 0098 C372     		strb	r3, [r0, #11]
 869:../../../../../../Middlewares/Third_Party/LoRaWAN/Mac/region/RegionUS915.c ****     linkAdrVerifyParams.ChannelsMask = channelsMask;
 1813              		.loc 1 869 0
 1814 009a 4823     		movs	r3, #72
 1815 009c 0373     		strb	r3, [r0, #12]
 871:../../../../../../Middlewares/Third_Party/LoRaWAN/Mac/region/RegionUS915.c ****     linkAdrVerifyParams.MaxDatarate = US915_TX_MAX_DATARATE;
 1816              		.loc 1 871 0
 1817 009e 8023     		movs	r3, #128
 1818 00a0 DB00     		lsls	r3, r3, #3
 1819 00a2 8382     		strh	r3, [r0, #20]
 873:../../../../../../Middlewares/Third_Party/LoRaWAN/Mac/region/RegionUS915.c ****     linkAdrVerifyParams.MinTxPower = US915_MIN_TX_POWER;
 1820              		.loc 1 873 0
 1821 00a4 824B     		ldr	r3, .L146+4
 1822 00a6 8361     		str	r3, [r0, #24]
 1823 00a8 9B46     		mov	fp, r3
 874:../../../../../../Middlewares/Third_Party/LoRaWAN/Mac/region/RegionUS915.c ****     linkAdrVerifyParams.MaxTxPower = US915_MAX_TX_POWER;
 1824              		.loc 1 874 0
 1825 00aa 0A23     		movs	r3, #10
 1826 00ac 8383     		strh	r3, [r0, #28]
 876:../../../../../../Middlewares/Third_Party/LoRaWAN/Mac/region/RegionUS915.c **** 
 1827              		.loc 1 876 0
 1828 00ae 3368     		ldr	r3, [r6]
 1829 00b0 0693     		str	r3, [sp, #24]
 1830              		.loc 1 879 0
ARM GAS  C:\Users\EBANO_~1\AppData\Local\Temp\ccFRmLE5.s 			page 52


 1831 00b2 2B00     		movs	r3, r5
 1832 00b4 FFF7FEFF 		bl	RegionCommonLinkAdrReqVerifyParams
 1833              	.LVL158:
 1834 00b8 0600     		movs	r6, r0
 1835              	.LVL159:
 880:../../../../../../Middlewares/Third_Party/LoRaWAN/Mac/region/RegionUS915.c **** 
 881:../../../../../../Middlewares/Third_Party/LoRaWAN/Mac/region/RegionUS915.c ****     // Update channelsMask if everything is correct
 882:../../../../../../Middlewares/Third_Party/LoRaWAN/Mac/region/RegionUS915.c ****     if( status == 0x07 )
 1836              		.loc 1 882 0
 1837 00ba 0728     		cmp	r0, #7
 1838 00bc 00D1     		bne	.LCB1660
 1839 00be 7BE0     		b	.L138	@long jump
 1840              	.LCB1660:
 1841              	.LVL160:
 1842              	.L133:
 883:../../../../../../Middlewares/Third_Party/LoRaWAN/Mac/region/RegionUS915.c ****     {
 884:../../../../../../Middlewares/Third_Party/LoRaWAN/Mac/region/RegionUS915.c ****         // Copy Mask
 885:../../../../../../Middlewares/Third_Party/LoRaWAN/Mac/region/RegionUS915.c ****         RegionCommonChanMaskCopy( NvmCtx.ChannelsMask, channelsMask, 6 );
 886:../../../../../../Middlewares/Third_Party/LoRaWAN/Mac/region/RegionUS915.c **** 
 887:../../../../../../Middlewares/Third_Party/LoRaWAN/Mac/region/RegionUS915.c ****         NvmCtx.ChannelsMaskRemaining[0] &= NvmCtx.ChannelsMask[0];
 888:../../../../../../Middlewares/Third_Party/LoRaWAN/Mac/region/RegionUS915.c ****         NvmCtx.ChannelsMaskRemaining[1] &= NvmCtx.ChannelsMask[1];
 889:../../../../../../Middlewares/Third_Party/LoRaWAN/Mac/region/RegionUS915.c ****         NvmCtx.ChannelsMaskRemaining[2] &= NvmCtx.ChannelsMask[2];
 890:../../../../../../Middlewares/Third_Party/LoRaWAN/Mac/region/RegionUS915.c ****         NvmCtx.ChannelsMaskRemaining[3] &= NvmCtx.ChannelsMask[3];
 891:../../../../../../Middlewares/Third_Party/LoRaWAN/Mac/region/RegionUS915.c ****         NvmCtx.ChannelsMaskRemaining[4] = NvmCtx.ChannelsMask[4];
 892:../../../../../../Middlewares/Third_Party/LoRaWAN/Mac/region/RegionUS915.c ****         NvmCtx.ChannelsMaskRemaining[5] = NvmCtx.ChannelsMask[5];
 893:../../../../../../Middlewares/Third_Party/LoRaWAN/Mac/region/RegionUS915.c ****     }
 894:../../../../../../Middlewares/Third_Party/LoRaWAN/Mac/region/RegionUS915.c **** 
 895:../../../../../../Middlewares/Third_Party/LoRaWAN/Mac/region/RegionUS915.c ****     // Update status variables
 896:../../../../../../Middlewares/Third_Party/LoRaWAN/Mac/region/RegionUS915.c ****     *drOut = linkAdrParams.Datarate;
 1843              		.loc 1 896 0
 1844 00c0 5246     		mov	r2, r10
 1845 00c2 6B78     		ldrb	r3, [r5, #1]
 897:../../../../../../Middlewares/Third_Party/LoRaWAN/Mac/region/RegionUS915.c ****     *txPowOut = linkAdrParams.TxPower;
 898:../../../../../../Middlewares/Third_Party/LoRaWAN/Mac/region/RegionUS915.c ****     *nbRepOut = linkAdrParams.NbRep;
 899:../../../../../../Middlewares/Third_Party/LoRaWAN/Mac/region/RegionUS915.c ****     *nbBytesParsed = bytesProcessed;
 900:../../../../../../Middlewares/Third_Party/LoRaWAN/Mac/region/RegionUS915.c **** 
 901:../../../../../../Middlewares/Third_Party/LoRaWAN/Mac/region/RegionUS915.c ****     return status;
 902:../../../../../../Middlewares/Third_Party/LoRaWAN/Mac/region/RegionUS915.c **** }
 1846              		.loc 1 902 0
 1847 00c4 3000     		movs	r0, r6
 896:../../../../../../Middlewares/Third_Party/LoRaWAN/Mac/region/RegionUS915.c ****     *txPowOut = linkAdrParams.TxPower;
 1848              		.loc 1 896 0
 1849 00c6 1370     		strb	r3, [r2]
 897:../../../../../../Middlewares/Third_Party/LoRaWAN/Mac/region/RegionUS915.c ****     *txPowOut = linkAdrParams.TxPower;
 1850              		.loc 1 897 0
 1851 00c8 4A46     		mov	r2, r9
 1852 00ca AB78     		ldrb	r3, [r5, #2]
 1853 00cc 1370     		strb	r3, [r2]
 898:../../../../../../Middlewares/Third_Party/LoRaWAN/Mac/region/RegionUS915.c ****     *nbBytesParsed = bytesProcessed;
 1854              		.loc 1 898 0
 1855 00ce 4246     		mov	r2, r8
 1856 00d0 2B78     		ldrb	r3, [r5]
 1857 00d2 1370     		strb	r3, [r2]
 899:../../../../../../Middlewares/Third_Party/LoRaWAN/Mac/region/RegionUS915.c **** 
 1858              		.loc 1 899 0
 1859 00d4 189B     		ldr	r3, [sp, #96]
 1860 00d6 1C70     		strb	r4, [r3]
ARM GAS  C:\Users\EBANO_~1\AppData\Local\Temp\ccFRmLE5.s 			page 53


 1861              		.loc 1 902 0
 1862 00d8 0FB0     		add	sp, sp, #60
 1863              		@ sp needed
 1864              	.LVL161:
 1865              	.LVL162:
 1866              	.LVL163:
 1867              	.LVL164:
 1868 00da 3CBC     		pop	{r2, r3, r4, r5}
 1869 00dc 9046     		mov	r8, r2
 1870 00de 9946     		mov	r9, r3
 1871 00e0 A246     		mov	r10, r4
 1872 00e2 AB46     		mov	fp, r5
 1873 00e4 F0BD     		pop	{r4, r5, r6, r7, pc}
 1874              	.LVL165:
 1875              	.L135:
 773:../../../../../../Middlewares/Third_Party/LoRaWAN/Mac/region/RegionUS915.c ****             channelsMask[1] = 0xFFFF;
 1876              		.loc 1 773 0
 1877 00e6 073B     		subs	r3, r3, #7
 1878 00e8 0393     		str	r3, [sp, #12]
 1879 00ea 0493     		str	r3, [sp, #16]
 778:../../../../../../Middlewares/Third_Party/LoRaWAN/Mac/region/RegionUS915.c ****         }
 1880              		.loc 1 778 0
 1881 00ec 0133     		adds	r3, r3, #1
 1882 00ee FF33     		adds	r3, r3, #255
 1883 00f0 1A40     		ands	r2, r3
 1884 00f2 3A81     		strh	r2, [r7, #8]
 1885 00f4 9EE7     		b	.L107
 1886              	.L136:
 783:../../../../../../Middlewares/Third_Party/LoRaWAN/Mac/region/RegionUS915.c ****             channelsMask[1] = 0x0000;
 1887              		.loc 1 783 0
 1888 00f6 0023     		movs	r3, #0
 1889 00f8 0393     		str	r3, [sp, #12]
 1890 00fa 0493     		str	r3, [sp, #16]
 788:../../../../../../Middlewares/Third_Party/LoRaWAN/Mac/region/RegionUS915.c ****         }
 1891              		.loc 1 788 0
 1892 00fc FF33     		adds	r3, r3, #255
 1893 00fe 1A40     		ands	r2, r3
 1894 0100 3A81     		strh	r2, [r7, #8]
 1895 0102 97E7     		b	.L107
 1896              	.L137:
 1897              	.LVL166:
 1898 0104 0821     		movs	r1, #8
 1899 0106 7B5E     		ldrsh	r3, [r7, r1]
 1900              	.LBB63:
 1901              	.LBB60:
 803:../../../../../../Middlewares/Third_Party/LoRaWAN/Mac/region/RegionUS915.c ****                 {
 1902              		.loc 1 803 0
 1903 0108 5946     		mov	r1, fp
 1904 010a 1142     		tst	r1, r2
 1905 010c 00D0     		beq	.LCB1734
 1906 010e 7DE0     		b	.L115	@long jump
 1907              	.LCB1734:
 830:../../../../../../Middlewares/Third_Party/LoRaWAN/Mac/region/RegionUS915.c ****                     }
 1908              		.loc 1 830 0
 1909 0110 8B43     		bics	r3, r1
 1910 0112 FF21     		movs	r1, #255
 803:../../../../../../Middlewares/Third_Party/LoRaWAN/Mac/region/RegionUS915.c ****                 {
ARM GAS  C:\Users\EBANO_~1\AppData\Local\Temp\ccFRmLE5.s 			page 54


 1911              		.loc 1 803 0
 1912 0114 0220     		movs	r0, #2
 1913              	.LVL167:
 830:../../../../../../Middlewares/Third_Party/LoRaWAN/Mac/region/RegionUS915.c ****                     }
 1914              		.loc 1 830 0
 1915 0116 0902     		lsls	r1, r1, #8
 1916 0118 9BB2     		uxth	r3, r3
 1917 011a 8C46     		mov	ip, r1
 1918 011c 1BB2     		sxth	r3, r3
 1919 011e 0021     		movs	r1, #0
 1920              	.LVL168:
 803:../../../../../../Middlewares/Third_Party/LoRaWAN/Mac/region/RegionUS915.c ****                 {
 1921              		.loc 1 803 0
 1922 0120 1042     		tst	r0, r2
 1923 0122 00D0     		beq	.LCB1749
 1924 0124 7DE0     		b	.L117	@long jump
 1925              	.LCB1749:
 1926              	.L139:
 1927 0126 3980     		strh	r1, [r7]
 1928 0128 0421     		movs	r1, #4
 837:../../../../../../Middlewares/Third_Party/LoRaWAN/Mac/region/RegionUS915.c ****                         // cntChannelMask increment for uneven i
 1929              		.loc 1 837 0
 1930 012a 8343     		bics	r3, r0
 1931 012c 9BB2     		uxth	r3, r3
 1932              	.LVL169:
 1933 012e 1BB2     		sxth	r3, r3
 803:../../../../../../Middlewares/Third_Party/LoRaWAN/Mac/region/RegionUS915.c ****                 {
 1934              		.loc 1 803 0
 1935 0130 1142     		tst	r1, r2
 1936 0132 00D0     		beq	.LCB1763
 1937 0134 7FE0     		b	.L119	@long jump
 1938              	.LCB1763:
 1939              	.L140:
 830:../../../../../../Middlewares/Third_Party/LoRaWAN/Mac/region/RegionUS915.c ****                     }
 1940              		.loc 1 830 0
 1941 0136 8B43     		bics	r3, r1
 1942 0138 FF21     		movs	r1, #255
 803:../../../../../../Middlewares/Third_Party/LoRaWAN/Mac/region/RegionUS915.c ****                 {
 1943              		.loc 1 803 0
 1944 013a 0820     		movs	r0, #8
 830:../../../../../../Middlewares/Third_Party/LoRaWAN/Mac/region/RegionUS915.c ****                     }
 1945              		.loc 1 830 0
 1946 013c 0902     		lsls	r1, r1, #8
 1947 013e 9BB2     		uxth	r3, r3
 1948 0140 8C46     		mov	ip, r1
 1949 0142 1BB2     		sxth	r3, r3
 1950 0144 0021     		movs	r1, #0
 1951              	.LVL170:
 803:../../../../../../Middlewares/Third_Party/LoRaWAN/Mac/region/RegionUS915.c ****                 {
 1952              		.loc 1 803 0
 1953 0146 1042     		tst	r0, r2
 1954 0148 00D0     		beq	.LCB1778
 1955 014a 7FE0     		b	.L121	@long jump
 1956              	.LCB1778:
 1957              	.L141:
 1958 014c 7980     		strh	r1, [r7, #2]
 1959 014e 1021     		movs	r1, #16
ARM GAS  C:\Users\EBANO_~1\AppData\Local\Temp\ccFRmLE5.s 			page 55


 837:../../../../../../Middlewares/Third_Party/LoRaWAN/Mac/region/RegionUS915.c ****                         // cntChannelMask increment for uneven i
 1960              		.loc 1 837 0
 1961 0150 8343     		bics	r3, r0
 1962 0152 9BB2     		uxth	r3, r3
 1963              	.LVL171:
 1964 0154 1BB2     		sxth	r3, r3
 803:../../../../../../Middlewares/Third_Party/LoRaWAN/Mac/region/RegionUS915.c ****                 {
 1965              		.loc 1 803 0
 1966 0156 1142     		tst	r1, r2
 1967 0158 00D0     		beq	.LCB1791
 1968 015a 81E0     		b	.L123	@long jump
 1969              	.LCB1791:
 1970              	.L142:
 830:../../../../../../Middlewares/Third_Party/LoRaWAN/Mac/region/RegionUS915.c ****                     }
 1971              		.loc 1 830 0
 1972 015c 8B43     		bics	r3, r1
 1973 015e FF21     		movs	r1, #255
 1974 0160 0902     		lsls	r1, r1, #8
 1975 0162 8C46     		mov	ip, r1
 803:../../../../../../Middlewares/Third_Party/LoRaWAN/Mac/region/RegionUS915.c ****                 {
 1976              		.loc 1 803 0
 1977 0164 2021     		movs	r1, #32
 830:../../../../../../Middlewares/Third_Party/LoRaWAN/Mac/region/RegionUS915.c ****                     }
 1978              		.loc 1 830 0
 1979 0166 9BB2     		uxth	r3, r3
 1980 0168 0020     		movs	r0, #0
 1981              	.LVL172:
 1982 016a 1BB2     		sxth	r3, r3
 803:../../../../../../Middlewares/Third_Party/LoRaWAN/Mac/region/RegionUS915.c ****                 {
 1983              		.loc 1 803 0
 1984 016c 1142     		tst	r1, r2
 1985 016e 00D0     		beq	.LCB1806
 1986 0170 81E0     		b	.L125	@long jump
 1987              	.LCB1806:
 1988              	.L143:
 837:../../../../../../Middlewares/Third_Party/LoRaWAN/Mac/region/RegionUS915.c ****                         // cntChannelMask increment for uneven i
 1989              		.loc 1 837 0
 1990 0172 8B43     		bics	r3, r1
 803:../../../../../../Middlewares/Third_Party/LoRaWAN/Mac/region/RegionUS915.c ****                 {
 1991              		.loc 1 803 0
 1992 0174 4021     		movs	r1, #64
 837:../../../../../../Middlewares/Third_Party/LoRaWAN/Mac/region/RegionUS915.c ****                         // cntChannelMask increment for uneven i
 1993              		.loc 1 837 0
 1994 0176 9BB2     		uxth	r3, r3
 1995              	.LVL173:
 1996 0178 B880     		strh	r0, [r7, #4]
 1997              	.LVL174:
 1998 017a 1BB2     		sxth	r3, r3
 803:../../../../../../Middlewares/Third_Party/LoRaWAN/Mac/region/RegionUS915.c ****                 {
 1999              		.loc 1 803 0
 2000 017c 1142     		tst	r1, r2
 2001 017e 00D0     		beq	.LCB1819
 2002 0180 83E0     		b	.L127	@long jump
 2003              	.LCB1819:
 2004              	.L144:
 830:../../../../../../Middlewares/Third_Party/LoRaWAN/Mac/region/RegionUS915.c ****                     }
 2005              		.loc 1 830 0
ARM GAS  C:\Users\EBANO_~1\AppData\Local\Temp\ccFRmLE5.s 			page 56


 2006 0182 8B43     		bics	r3, r1
 2007 0184 FF21     		movs	r1, #255
 2008 0186 0902     		lsls	r1, r1, #8
 2009 0188 8C46     		mov	ip, r1
 803:../../../../../../Middlewares/Third_Party/LoRaWAN/Mac/region/RegionUS915.c ****                 {
 2010              		.loc 1 803 0
 2011 018a 8021     		movs	r1, #128
 830:../../../../../../Middlewares/Third_Party/LoRaWAN/Mac/region/RegionUS915.c ****                     }
 2012              		.loc 1 830 0
 2013 018c 9BB2     		uxth	r3, r3
 2014 018e 0020     		movs	r0, #0
 2015              	.LVL175:
 2016 0190 1BB2     		sxth	r3, r3
 803:../../../../../../Middlewares/Third_Party/LoRaWAN/Mac/region/RegionUS915.c ****                 {
 2017              		.loc 1 803 0
 2018 0192 1142     		tst	r1, r2
 2019 0194 00D0     		beq	.LCB1834
 2020 0196 83E0     		b	.L129	@long jump
 2021              	.LCB1834:
 2022              	.L145:
 837:../../../../../../Middlewares/Third_Party/LoRaWAN/Mac/region/RegionUS915.c ****                         // cntChannelMask increment for uneven i
 2023              		.loc 1 837 0
 2024 0198 8B43     		bics	r3, r1
 835:../../../../../../Middlewares/Third_Party/LoRaWAN/Mac/region/RegionUS915.c ****                         // Disable the corresponding 500kHz channel
 2025              		.loc 1 835 0
 2026 019a F880     		strh	r0, [r7, #6]
 837:../../../../../../Middlewares/Third_Party/LoRaWAN/Mac/region/RegionUS915.c ****                         // cntChannelMask increment for uneven i
 2027              		.loc 1 837 0
 2028 019c 3B81     		strh	r3, [r7, #8]
 2029              	.LVL176:
 2030 019e 49E7     		b	.L107
 2031              	.LVL177:
 2032              	.L109:
 2033              	.LBE60:
 2034              	.LBE63:
 851:../../../../../../Middlewares/Third_Party/LoRaWAN/Mac/region/RegionUS915.c ****     {
 2035              		.loc 1 851 0 discriminator 1
 2036 01a0 0422     		movs	r2, #4
 2037 01a2 0021     		movs	r1, #0
 2038 01a4 3800     		movs	r0, r7
 2039 01a6 FFF7FEFF 		bl	RegionCommonCountChannels
 2040              	.LVL178:
 2041 01aa 0123     		movs	r3, #1
 2042 01ac EB56     		ldrsb	r3, [r5, r3]
 2043 01ae 0128     		cmp	r0, #1
 2044 01b0 00D9     		bls	.LCB1859
 2045 01b2 5DE7     		b	.L134	@long jump
 2046              	.LCB1859:
 2047              	.LVL179:
 853:../../../../../../Middlewares/Third_Party/LoRaWAN/Mac/region/RegionUS915.c ****     }
 2048              		.loc 1 853 0
 2049 01b4 0622     		movs	r2, #6
 2050 01b6 5CE7     		b	.L110
 2051              	.LVL180:
 2052              	.L138:
 885:../../../../../../Middlewares/Third_Party/LoRaWAN/Mac/region/RegionUS915.c **** 
 2053              		.loc 1 885 0
ARM GAS  C:\Users\EBANO_~1\AppData\Local\Temp\ccFRmLE5.s 			page 57


 2054 01b8 DC20     		movs	r0, #220
 2055              	.LVL181:
 2056 01ba 8000     		lsls	r0, r0, #2
 2057 01bc 5844     		add	r0, r0, fp
 2058 01be 0622     		movs	r2, #6
 2059 01c0 3900     		movs	r1, r7
 2060 01c2 FFF7FEFF 		bl	RegionCommonChanMaskCopy
 2061              	.LVL182:
 887:../../../../../../Middlewares/Third_Party/LoRaWAN/Mac/region/RegionUS915.c ****         NvmCtx.ChannelsMaskRemaining[1] &= NvmCtx.ChannelsMask[1];
 2062              		.loc 1 887 0
 2063 01c6 DF22     		movs	r2, #223
 2064 01c8 5B46     		mov	r3, fp
 2065 01ca 9200     		lsls	r2, r2, #2
 2066 01cc 995A     		ldrh	r1, [r3, r2]
 2067 01ce DC23     		movs	r3, #220
 2068 01d0 5846     		mov	r0, fp
 2069 01d2 9B00     		lsls	r3, r3, #2
 2070 01d4 C35A     		ldrh	r3, [r0, r3]
 2071 01d6 0B40     		ands	r3, r1
 2072 01d8 8352     		strh	r3, [r0, r2]
 888:../../../../../../Middlewares/Third_Party/LoRaWAN/Mac/region/RegionUS915.c ****         NvmCtx.ChannelsMaskRemaining[2] &= NvmCtx.ChannelsMask[2];
 2073              		.loc 1 888 0
 2074 01da 364A     		ldr	r2, .L146+8
 2075 01dc 364B     		ldr	r3, .L146+12
 2076 01de 815A     		ldrh	r1, [r0, r2]
 2077 01e0 C35A     		ldrh	r3, [r0, r3]
 2078 01e2 0B40     		ands	r3, r1
 2079 01e4 8352     		strh	r3, [r0, r2]
 889:../../../../../../Middlewares/Third_Party/LoRaWAN/Mac/region/RegionUS915.c ****         NvmCtx.ChannelsMaskRemaining[3] &= NvmCtx.ChannelsMask[3];
 2080              		.loc 1 889 0
 2081 01e6 DD23     		movs	r3, #221
 2082 01e8 0232     		adds	r2, r2, #2
 2083 01ea 9B00     		lsls	r3, r3, #2
 2084 01ec 815A     		ldrh	r1, [r0, r2]
 2085 01ee C35A     		ldrh	r3, [r0, r3]
 2086 01f0 0B40     		ands	r3, r1
 2087 01f2 8352     		strh	r3, [r0, r2]
 890:../../../../../../Middlewares/Third_Party/LoRaWAN/Mac/region/RegionUS915.c ****         NvmCtx.ChannelsMaskRemaining[4] = NvmCtx.ChannelsMask[4];
 2088              		.loc 1 890 0
 2089 01f4 314A     		ldr	r2, .L146+16
 2090 01f6 324B     		ldr	r3, .L146+20
 2091 01f8 815A     		ldrh	r1, [r0, r2]
 2092 01fa C35A     		ldrh	r3, [r0, r3]
 2093 01fc 0B40     		ands	r3, r1
 2094 01fe 8352     		strh	r3, [r0, r2]
 891:../../../../../../Middlewares/Third_Party/LoRaWAN/Mac/region/RegionUS915.c ****         NvmCtx.ChannelsMaskRemaining[5] = NvmCtx.ChannelsMask[5];
 2095              		.loc 1 891 0
 2096 0200 DE23     		movs	r3, #222
 2097 0202 9B00     		lsls	r3, r3, #2
 2098 0204 C258     		ldr	r2, [r0, r3]
 2099 0206 0C33     		adds	r3, r3, #12
 2100 0208 C250     		str	r2, [r0, r3]
 2101 020a 59E7     		b	.L133
 2102              	.LVL183:
 2103              	.L115:
 2104              	.LBB64:
 2105              	.LBB61:
ARM GAS  C:\Users\EBANO_~1\AppData\Local\Temp\ccFRmLE5.s 			page 58


 810:../../../../../../Middlewares/Third_Party/LoRaWAN/Mac/region/RegionUS915.c ****                     }
 2106              		.loc 1 810 0
 2107 020c 0121     		movs	r1, #1
 803:../../../../../../Middlewares/Third_Party/LoRaWAN/Mac/region/RegionUS915.c ****                 {
 2108              		.loc 1 803 0
 2109 020e 0220     		movs	r0, #2
 2110              	.LVL184:
 810:../../../../../../Middlewares/Third_Party/LoRaWAN/Mac/region/RegionUS915.c ****                     }
 2111              		.loc 1 810 0
 2112 0210 0B43     		orrs	r3, r1
 2113 0212 2C49     		ldr	r1, .L146+24
 2114 0214 9BB2     		uxth	r3, r3
 2115 0216 8C46     		mov	ip, r1
 2116 0218 1BB2     		sxth	r3, r3
 2117 021a FF21     		movs	r1, #255
 2118              	.LVL185:
 803:../../../../../../Middlewares/Third_Party/LoRaWAN/Mac/region/RegionUS915.c ****                 {
 2119              		.loc 1 803 0
 2120 021c 1042     		tst	r0, r2
 2121 021e 00D1     		bne	.LCB1934
 2122 0220 81E7     		b	.L139	@long jump
 2123              	.LCB1934:
 2124              	.L117:
 817:../../../../../../Middlewares/Third_Party/LoRaWAN/Mac/region/RegionUS915.c ****                         // cntChannelMask increment for uneven i
 2125              		.loc 1 817 0
 2126 0222 0221     		movs	r1, #2
 2127 0224 0B43     		orrs	r3, r1
 815:../../../../../../Middlewares/Third_Party/LoRaWAN/Mac/region/RegionUS915.c ****                         // Enable the corresponding 500kHz channel
 2128              		.loc 1 815 0
 2129 0226 6146     		mov	r1, ip
 2130 0228 3980     		strh	r1, [r7]
 803:../../../../../../Middlewares/Third_Party/LoRaWAN/Mac/region/RegionUS915.c ****                 {
 2131              		.loc 1 803 0
 2132 022a 0421     		movs	r1, #4
 817:../../../../../../Middlewares/Third_Party/LoRaWAN/Mac/region/RegionUS915.c ****                         // cntChannelMask increment for uneven i
 2133              		.loc 1 817 0
 2134 022c 9BB2     		uxth	r3, r3
 2135              	.LVL186:
 2136 022e 1BB2     		sxth	r3, r3
 803:../../../../../../Middlewares/Third_Party/LoRaWAN/Mac/region/RegionUS915.c ****                 {
 2137              		.loc 1 803 0
 2138 0230 1142     		tst	r1, r2
 2139 0232 00D1     		bne	.LCB1947
 2140 0234 7FE7     		b	.L140	@long jump
 2141              	.LCB1947:
 2142              	.L119:
 810:../../../../../../Middlewares/Third_Party/LoRaWAN/Mac/region/RegionUS915.c ****                     }
 2143              		.loc 1 810 0
 2144 0236 0421     		movs	r1, #4
 803:../../../../../../Middlewares/Third_Party/LoRaWAN/Mac/region/RegionUS915.c ****                 {
 2145              		.loc 1 803 0
 2146 0238 0820     		movs	r0, #8
 810:../../../../../../Middlewares/Third_Party/LoRaWAN/Mac/region/RegionUS915.c ****                     }
 2147              		.loc 1 810 0
 2148 023a 0B43     		orrs	r3, r1
 2149 023c 2149     		ldr	r1, .L146+24
 2150 023e 9BB2     		uxth	r3, r3
ARM GAS  C:\Users\EBANO_~1\AppData\Local\Temp\ccFRmLE5.s 			page 59


 2151 0240 8C46     		mov	ip, r1
 2152 0242 1BB2     		sxth	r3, r3
 2153 0244 FF21     		movs	r1, #255
 2154              	.LVL187:
 803:../../../../../../Middlewares/Third_Party/LoRaWAN/Mac/region/RegionUS915.c ****                 {
 2155              		.loc 1 803 0
 2156 0246 1042     		tst	r0, r2
 2157 0248 00D1     		bne	.LCB1960
 2158 024a 7FE7     		b	.L141	@long jump
 2159              	.LCB1960:
 2160              	.L121:
 817:../../../../../../Middlewares/Third_Party/LoRaWAN/Mac/region/RegionUS915.c ****                         // cntChannelMask increment for uneven i
 2161              		.loc 1 817 0
 2162 024c 0821     		movs	r1, #8
 2163 024e 0B43     		orrs	r3, r1
 815:../../../../../../Middlewares/Third_Party/LoRaWAN/Mac/region/RegionUS915.c ****                         // Enable the corresponding 500kHz channel
 2164              		.loc 1 815 0
 2165 0250 6146     		mov	r1, ip
 2166 0252 7980     		strh	r1, [r7, #2]
 803:../../../../../../Middlewares/Third_Party/LoRaWAN/Mac/region/RegionUS915.c ****                 {
 2167              		.loc 1 803 0
 2168 0254 1021     		movs	r1, #16
 817:../../../../../../Middlewares/Third_Party/LoRaWAN/Mac/region/RegionUS915.c ****                         // cntChannelMask increment for uneven i
 2169              		.loc 1 817 0
 2170 0256 9BB2     		uxth	r3, r3
 2171              	.LVL188:
 2172 0258 1BB2     		sxth	r3, r3
 803:../../../../../../Middlewares/Third_Party/LoRaWAN/Mac/region/RegionUS915.c ****                 {
 2173              		.loc 1 803 0
 2174 025a 1142     		tst	r1, r2
 2175 025c 00D1     		bne	.LCB1973
 2176 025e 7DE7     		b	.L142	@long jump
 2177              	.LCB1973:
 2178              	.L123:
 810:../../../../../../Middlewares/Third_Party/LoRaWAN/Mac/region/RegionUS915.c ****                     }
 2179              		.loc 1 810 0
 2180 0260 1021     		movs	r1, #16
 2181 0262 0B43     		orrs	r3, r1
 2182 0264 1749     		ldr	r1, .L146+24
 2183 0266 9BB2     		uxth	r3, r3
 2184 0268 8C46     		mov	ip, r1
 803:../../../../../../Middlewares/Third_Party/LoRaWAN/Mac/region/RegionUS915.c ****                 {
 2185              		.loc 1 803 0
 2186 026a 2021     		movs	r1, #32
 810:../../../../../../Middlewares/Third_Party/LoRaWAN/Mac/region/RegionUS915.c ****                     }
 2187              		.loc 1 810 0
 2188 026c FF20     		movs	r0, #255
 2189              	.LVL189:
 2190 026e 1BB2     		sxth	r3, r3
 803:../../../../../../Middlewares/Third_Party/LoRaWAN/Mac/region/RegionUS915.c ****                 {
 2191              		.loc 1 803 0
 2192 0270 1142     		tst	r1, r2
 2193 0272 00D1     		bne	.LCB1986
 2194 0274 7DE7     		b	.L143	@long jump
 2195              	.LCB1986:
 2196              	.L125:
 817:../../../../../../Middlewares/Third_Party/LoRaWAN/Mac/region/RegionUS915.c ****                         // cntChannelMask increment for uneven i
ARM GAS  C:\Users\EBANO_~1\AppData\Local\Temp\ccFRmLE5.s 			page 60


 2197              		.loc 1 817 0
 2198 0276 2020     		movs	r0, #32
 803:../../../../../../Middlewares/Third_Party/LoRaWAN/Mac/region/RegionUS915.c ****                 {
 2199              		.loc 1 803 0
 2200 0278 4021     		movs	r1, #64
 817:../../../../../../Middlewares/Third_Party/LoRaWAN/Mac/region/RegionUS915.c ****                         // cntChannelMask increment for uneven i
 2201              		.loc 1 817 0
 2202 027a 0343     		orrs	r3, r0
 815:../../../../../../Middlewares/Third_Party/LoRaWAN/Mac/region/RegionUS915.c ****                         // Enable the corresponding 500kHz channel
 2203              		.loc 1 815 0
 2204 027c 6046     		mov	r0, ip
 817:../../../../../../Middlewares/Third_Party/LoRaWAN/Mac/region/RegionUS915.c ****                         // cntChannelMask increment for uneven i
 2205              		.loc 1 817 0
 2206 027e 9BB2     		uxth	r3, r3
 2207              	.LVL190:
 2208 0280 B880     		strh	r0, [r7, #4]
 2209              	.LVL191:
 2210 0282 1BB2     		sxth	r3, r3
 803:../../../../../../Middlewares/Third_Party/LoRaWAN/Mac/region/RegionUS915.c ****                 {
 2211              		.loc 1 803 0
 2212 0284 1142     		tst	r1, r2
 2213 0286 00D1     		bne	.LCB1999
 2214 0288 7BE7     		b	.L144	@long jump
 2215              	.LCB1999:
 2216              	.L127:
 810:../../../../../../Middlewares/Third_Party/LoRaWAN/Mac/region/RegionUS915.c ****                     }
 2217              		.loc 1 810 0
 2218 028a 4021     		movs	r1, #64
 2219 028c 0B43     		orrs	r3, r1
 2220 028e 0D49     		ldr	r1, .L146+24
 2221 0290 9BB2     		uxth	r3, r3
 2222 0292 8C46     		mov	ip, r1
 803:../../../../../../Middlewares/Third_Party/LoRaWAN/Mac/region/RegionUS915.c ****                 {
 2223              		.loc 1 803 0
 2224 0294 8021     		movs	r1, #128
 810:../../../../../../Middlewares/Third_Party/LoRaWAN/Mac/region/RegionUS915.c ****                     }
 2225              		.loc 1 810 0
 2226 0296 FF20     		movs	r0, #255
 2227              	.LVL192:
 2228 0298 1BB2     		sxth	r3, r3
 803:../../../../../../Middlewares/Third_Party/LoRaWAN/Mac/region/RegionUS915.c ****                 {
 2229              		.loc 1 803 0
 2230 029a 1142     		tst	r1, r2
 2231 029c 00D1     		bne	.LCB2012
 2232 029e 7BE7     		b	.L145	@long jump
 2233              	.LCB2012:
 2234              	.L129:
 815:../../../../../../Middlewares/Third_Party/LoRaWAN/Mac/region/RegionUS915.c ****                         // Enable the corresponding 500kHz channel
 2235              		.loc 1 815 0
 2236 02a0 6246     		mov	r2, ip
 2237 02a2 FA80     		strh	r2, [r7, #6]
 817:../../../../../../Middlewares/Third_Party/LoRaWAN/Mac/region/RegionUS915.c ****                         // cntChannelMask increment for uneven i
 2238              		.loc 1 817 0
 2239 02a4 8022     		movs	r2, #128
 2240 02a6 1343     		orrs	r3, r2
 2241 02a8 3B81     		strh	r3, [r7, #8]
 2242              	.LVL193:
ARM GAS  C:\Users\EBANO_~1\AppData\Local\Temp\ccFRmLE5.s 			page 61


 2243 02aa C3E6     		b	.L107
 2244              	.L147:
 2245              		.align	2
 2246              	.L146:
 2247 02ac 70030000 		.word	NvmCtx+880
 2248 02b0 00000000 		.word	NvmCtx
 2249 02b4 7E030000 		.word	894
 2250 02b8 72030000 		.word	882
 2251 02bc 82030000 		.word	898
 2252 02c0 76030000 		.word	886
 2253 02c4 FFFF0000 		.word	65535
 2254              	.LBE61:
 2255              	.LBE64:
 2256              		.cfi_endproc
 2257              	.LFE56:
 2258              		.size	RegionUS915LinkAdrReq, .-RegionUS915LinkAdrReq
 2259              		.global	__aeabi_uidivmod
 2260              		.section	.text.RegionUS915RxParamSetupReq,"ax",%progbits
 2261              		.align	1
 2262              		.p2align 2,,3
 2263              		.global	RegionUS915RxParamSetupReq
 2264              		.syntax unified
 2265              		.code	16
 2266              		.thumb_func
 2267              		.fpu softvfp
 2268              		.type	RegionUS915RxParamSetupReq, %function
 2269              	RegionUS915RxParamSetupReq:
 2270              	.LFB57:
 903:../../../../../../Middlewares/Third_Party/LoRaWAN/Mac/region/RegionUS915.c **** 
 904:../../../../../../Middlewares/Third_Party/LoRaWAN/Mac/region/RegionUS915.c **** uint8_t RegionUS915RxParamSetupReq( RxParamSetupReqParams_t* rxParamSetupReq )
 905:../../../../../../Middlewares/Third_Party/LoRaWAN/Mac/region/RegionUS915.c **** {
 2271              		.loc 1 905 0
 2272              		.cfi_startproc
 2273              		@ args = 0, pretend = 0, frame = 8
 2274              		@ frame_needed = 0, uses_anonymous_args = 0
 2275              	.LVL194:
 2276 0000 70B5     		push	{r4, r5, r6, lr}
 2277              	.LCFI20:
 2278              		.cfi_def_cfa_offset 16
 2279              		.cfi_offset 4, -16
 2280              		.cfi_offset 5, -12
 2281              		.cfi_offset 6, -8
 2282              		.cfi_offset 14, -4
 2283              	.LBB65:
 2284              	.LBB66:
 237:../../../../../../Middlewares/Third_Party/LoRaWAN/Mac/region/RegionUS915.c ****     {
 2285              		.loc 1 237 0
 2286 0002 1F4B     		ldr	r3, .L164
 2287              	.LBE66:
 2288              	.LBE65:
 906:../../../../../../Middlewares/Third_Party/LoRaWAN/Mac/region/RegionUS915.c ****     uint8_t status = 0x07;
 907:../../../../../../Middlewares/Third_Party/LoRaWAN/Mac/region/RegionUS915.c **** 
 908:../../../../../../Middlewares/Third_Party/LoRaWAN/Mac/region/RegionUS915.c ****     // Verify radio frequency
 909:../../../../../../Middlewares/Third_Party/LoRaWAN/Mac/region/RegionUS915.c ****     if( VerifyRfFreq( rxParamSetupReq->Frequency ) == false )
 2289              		.loc 1 909 0
 2290 0004 4568     		ldr	r5, [r0, #4]
 2291              	.LVL195:
ARM GAS  C:\Users\EBANO_~1\AppData\Local\Temp\ccFRmLE5.s 			page 62


 2292              	.LBB70:
 2293              	.LBB67:
 237:../../../../../../Middlewares/Third_Party/LoRaWAN/Mac/region/RegionUS915.c ****     {
 2294              		.loc 1 237 0
 2295 0006 9B6A     		ldr	r3, [r3, #40]
 2296              	.LBE67:
 2297              	.LBE70:
 905:../../../../../../Middlewares/Third_Party/LoRaWAN/Mac/region/RegionUS915.c ****     uint8_t status = 0x07;
 2298              		.loc 1 905 0
 2299 0008 82B0     		sub	sp, sp, #8
 2300              	.LCFI21:
 2301              		.cfi_def_cfa_offset 24
 905:../../../../../../Middlewares/Third_Party/LoRaWAN/Mac/region/RegionUS915.c ****     uint8_t status = 0x07;
 2302              		.loc 1 905 0
 2303 000a 0400     		movs	r4, r0
 2304              	.LBB71:
 2305              	.LBB68:
 237:../../../../../../Middlewares/Third_Party/LoRaWAN/Mac/region/RegionUS915.c ****     {
 2306              		.loc 1 237 0
 2307 000c 2800     		movs	r0, r5
 2308              	.LVL196:
 2309 000e 0193     		str	r3, [sp, #4]
 2310 0010 9847     		blx	r3
 2311              	.LVL197:
 2312 0012 0028     		cmp	r0, #0
 2313 0014 04D0     		beq	.L155
 243:../../../../../../Middlewares/Third_Party/LoRaWAN/Mac/region/RegionUS915.c ****         ( freq > US915_LAST_RX1_CHANNEL ) ||
 2314              		.loc 1 243 0
 2315 0016 1B4B     		ldr	r3, .L164+4
 2316 0018 E818     		adds	r0, r5, r3
 2317 001a 1B4B     		ldr	r3, .L164+8
 2318 001c 9842     		cmp	r0, r3
 2319 001e 26D9     		bls	.L163
 2320              	.L155:
 2321 0020 0425     		movs	r5, #4
 2322              	.LVL198:
 2323              	.LBE68:
 2324              	.LBE71:
 910:../../../../../../Middlewares/Third_Party/LoRaWAN/Mac/region/RegionUS915.c ****     {
 911:../../../../../../Middlewares/Third_Party/LoRaWAN/Mac/region/RegionUS915.c ****         status &= 0xFE; // Channel frequency KO
 2325              		.loc 1 911 0
 2326 0022 0626     		movs	r6, #6
 2327              	.L149:
 2328              	.LVL199:
 912:../../../../../../Middlewares/Third_Party/LoRaWAN/Mac/region/RegionUS915.c ****     }
 913:../../../../../../Middlewares/Third_Party/LoRaWAN/Mac/region/RegionUS915.c **** 
 914:../../../../../../Middlewares/Third_Party/LoRaWAN/Mac/region/RegionUS915.c ****     // Verify datarate
 915:../../../../../../Middlewares/Third_Party/LoRaWAN/Mac/region/RegionUS915.c ****     if( RegionCommonValueInRange( rxParamSetupReq->Datarate, US915_RX_MIN_DATARATE, US915_RX_MAX_DA
 2329              		.loc 1 915 0
 2330 0024 0020     		movs	r0, #0
 2331 0026 0D22     		movs	r2, #13
 2332 0028 2056     		ldrsb	r0, [r4, r0]
 2333 002a 0821     		movs	r1, #8
 2334 002c FFF7FEFF 		bl	RegionCommonValueInRange
 2335              	.LVL200:
 2336 0030 0028     		cmp	r0, #0
 2337 0032 00D0     		beq	.L150
ARM GAS  C:\Users\EBANO_~1\AppData\Local\Temp\ccFRmLE5.s 			page 63


 2338 0034 3500     		movs	r5, r6
 2339              	.L150:
 2340              	.LVL201:
 916:../../../../../../Middlewares/Third_Party/LoRaWAN/Mac/region/RegionUS915.c ****     {
 917:../../../../../../Middlewares/Third_Party/LoRaWAN/Mac/region/RegionUS915.c ****         status &= 0xFD; // Datarate KO
 918:../../../../../../Middlewares/Third_Party/LoRaWAN/Mac/region/RegionUS915.c ****     }
 919:../../../../../../Middlewares/Third_Party/LoRaWAN/Mac/region/RegionUS915.c ****     if( ( RegionCommonValueInRange( rxParamSetupReq->Datarate, DR_5, DR_7 ) == true ) ||
 2341              		.loc 1 919 0
 2342 0036 0020     		movs	r0, #0
 2343 0038 0722     		movs	r2, #7
 2344 003a 2056     		ldrsb	r0, [r4, r0]
 2345 003c 0521     		movs	r1, #5
 2346 003e FFF7FEFF 		bl	RegionCommonValueInRange
 2347              	.LVL202:
 2348 0042 0128     		cmp	r0, #1
 2349 0044 10D0     		beq	.L151
 2350              		.loc 1 919 0 is_stmt 0 discriminator 1
 2351 0046 0023     		movs	r3, #0
 2352 0048 E356     		ldrsb	r3, [r4, r3]
 2353 004a 0D2B     		cmp	r3, #13
 2354 004c 0CDC     		bgt	.L151
 2355              	.L152:
 920:../../../../../../Middlewares/Third_Party/LoRaWAN/Mac/region/RegionUS915.c ****         ( rxParamSetupReq->Datarate > DR_13 ) )
 921:../../../../../../Middlewares/Third_Party/LoRaWAN/Mac/region/RegionUS915.c ****     {
 922:../../../../../../Middlewares/Third_Party/LoRaWAN/Mac/region/RegionUS915.c ****         status &= 0xFD; // Datarate KO
 923:../../../../../../Middlewares/Third_Party/LoRaWAN/Mac/region/RegionUS915.c ****     }
 924:../../../../../../Middlewares/Third_Party/LoRaWAN/Mac/region/RegionUS915.c **** 
 925:../../../../../../Middlewares/Third_Party/LoRaWAN/Mac/region/RegionUS915.c ****     // Verify datarate offset
 926:../../../../../../Middlewares/Third_Party/LoRaWAN/Mac/region/RegionUS915.c ****     if( RegionCommonValueInRange( rxParamSetupReq->DrOffset, US915_MIN_RX1_DR_OFFSET, US915_MAX_RX1
 2356              		.loc 1 926 0 is_stmt 1
 2357 004e 0120     		movs	r0, #1
 2358 0050 0322     		movs	r2, #3
 2359 0052 2056     		ldrsb	r0, [r4, r0]
 2360 0054 0021     		movs	r1, #0
 2361 0056 FFF7FEFF 		bl	RegionCommonValueInRange
 2362              	.LVL203:
 2363 005a 0028     		cmp	r0, #0
 2364 005c 01D1     		bne	.L153
 927:../../../../../../Middlewares/Third_Party/LoRaWAN/Mac/region/RegionUS915.c ****     {
 928:../../../../../../Middlewares/Third_Party/LoRaWAN/Mac/region/RegionUS915.c ****         status &= 0xFB; // Rx1DrOffset range KO
 2365              		.loc 1 928 0
 2366 005e FB23     		movs	r3, #251
 2367 0060 1D40     		ands	r5, r3
 2368              	.LVL204:
 2369              	.L153:
 929:../../../../../../Middlewares/Third_Party/LoRaWAN/Mac/region/RegionUS915.c ****     }
 930:../../../../../../Middlewares/Third_Party/LoRaWAN/Mac/region/RegionUS915.c **** 
 931:../../../../../../Middlewares/Third_Party/LoRaWAN/Mac/region/RegionUS915.c ****     return status;
 932:../../../../../../Middlewares/Third_Party/LoRaWAN/Mac/region/RegionUS915.c **** }
 2370              		.loc 1 932 0
 2371 0062 2800     		movs	r0, r5
 2372 0064 02B0     		add	sp, sp, #8
 2373              		@ sp needed
 2374              	.LVL205:
 2375              	.LVL206:
 2376 0066 70BD     		pop	{r4, r5, r6, pc}
 2377              	.LVL207:
ARM GAS  C:\Users\EBANO_~1\AppData\Local\Temp\ccFRmLE5.s 			page 64


 2378              	.L151:
 922:../../../../../../Middlewares/Third_Party/LoRaWAN/Mac/region/RegionUS915.c ****     }
 2379              		.loc 1 922 0
 2380 0068 FD23     		movs	r3, #253
 2381 006a 1D40     		ands	r5, r3
 2382              	.LVL208:
 2383 006c EFE7     		b	.L152
 2384              	.LVL209:
 2385              	.L163:
 2386              	.LBB72:
 2387              	.LBB69:
 245:../../../../../../Middlewares/Third_Party/LoRaWAN/Mac/region/RegionUS915.c ****     {
 2388              		.loc 1 245 0
 2389 006e 0749     		ldr	r1, .L164+12
 2390 0070 FFF7FEFF 		bl	__aeabi_uidivmod
 2391              	.LVL210:
 244:../../../../../../Middlewares/Third_Party/LoRaWAN/Mac/region/RegionUS915.c ****         ( ( ( freq - ( uint32_t ) US915_FIRST_RX1_CHANNEL ) % ( uint32_t ) US915_STEPWIDTH_RX1_CHAN
 2392              		.loc 1 244 0
 2393 0074 0029     		cmp	r1, #0
 2394 0076 D3D1     		bne	.L155
 2395 0078 0525     		movs	r5, #5
 2396              	.LVL211:
 2397              	.LBE69:
 2398              	.LBE72:
 906:../../../../../../Middlewares/Third_Party/LoRaWAN/Mac/region/RegionUS915.c **** 
 2399              		.loc 1 906 0
 2400 007a 0726     		movs	r6, #7
 2401 007c D2E7     		b	.L149
 2402              	.L165:
 2403 007e C046     		.align	2
 2404              	.L164:
 2405 0080 00000000 		.word	Radio
 2406 0084 608FF7C8 		.word	-923300000
 2407 0088 40164000 		.word	4200000
 2408 008c C0270900 		.word	600000
 2409              		.cfi_endproc
 2410              	.LFE57:
 2411              		.size	RegionUS915RxParamSetupReq, .-RegionUS915RxParamSetupReq
 2412              		.section	.text.RegionUS915NewChannelReq,"ax",%progbits
 2413              		.align	1
 2414              		.p2align 2,,3
 2415              		.global	RegionUS915NewChannelReq
 2416              		.syntax unified
 2417              		.code	16
 2418              		.thumb_func
 2419              		.fpu softvfp
 2420              		.type	RegionUS915NewChannelReq, %function
 2421              	RegionUS915NewChannelReq:
 2422              	.LFB58:
 933:../../../../../../Middlewares/Third_Party/LoRaWAN/Mac/region/RegionUS915.c **** 
 934:../../../../../../Middlewares/Third_Party/LoRaWAN/Mac/region/RegionUS915.c **** uint8_t RegionUS915NewChannelReq( NewChannelReqParams_t* newChannelReq )
 935:../../../../../../Middlewares/Third_Party/LoRaWAN/Mac/region/RegionUS915.c **** {
 2423              		.loc 1 935 0
 2424              		.cfi_startproc
 2425              		@ args = 0, pretend = 0, frame = 0
 2426              		@ frame_needed = 0, uses_anonymous_args = 0
 2427              		@ link register save eliminated.
ARM GAS  C:\Users\EBANO_~1\AppData\Local\Temp\ccFRmLE5.s 			page 65


 2428              	.LVL212:
 936:../../../../../../Middlewares/Third_Party/LoRaWAN/Mac/region/RegionUS915.c ****     // Datarate and frequency KO
 937:../../../../../../Middlewares/Third_Party/LoRaWAN/Mac/region/RegionUS915.c ****     return 0;
 938:../../../../../../Middlewares/Third_Party/LoRaWAN/Mac/region/RegionUS915.c **** }
 2429              		.loc 1 938 0
 2430 0000 0020     		movs	r0, #0
 2431              	.LVL213:
 2432              		@ sp needed
 2433 0002 7047     		bx	lr
 2434              		.cfi_endproc
 2435              	.LFE58:
 2436              		.size	RegionUS915NewChannelReq, .-RegionUS915NewChannelReq
 2437              		.section	.text.RegionUS915TxParamSetupReq,"ax",%progbits
 2438              		.align	1
 2439              		.p2align 2,,3
 2440              		.global	RegionUS915TxParamSetupReq
 2441              		.syntax unified
 2442              		.code	16
 2443              		.thumb_func
 2444              		.fpu softvfp
 2445              		.type	RegionUS915TxParamSetupReq, %function
 2446              	RegionUS915TxParamSetupReq:
 2447              	.LFB59:
 939:../../../../../../Middlewares/Third_Party/LoRaWAN/Mac/region/RegionUS915.c **** 
 940:../../../../../../Middlewares/Third_Party/LoRaWAN/Mac/region/RegionUS915.c **** int8_t RegionUS915TxParamSetupReq( TxParamSetupReqParams_t* txParamSetupReq )
 941:../../../../../../Middlewares/Third_Party/LoRaWAN/Mac/region/RegionUS915.c **** {
 2448              		.loc 1 941 0
 2449              		.cfi_startproc
 2450              		@ args = 0, pretend = 0, frame = 0
 2451              		@ frame_needed = 0, uses_anonymous_args = 0
 2452              		@ link register save eliminated.
 2453              	.LVL214:
 942:../../../../../../Middlewares/Third_Party/LoRaWAN/Mac/region/RegionUS915.c ****     return -1;
 2454              		.loc 1 942 0
 2455 0000 0120     		movs	r0, #1
 2456              	.LVL215:
 943:../../../../../../Middlewares/Third_Party/LoRaWAN/Mac/region/RegionUS915.c **** }
 2457              		.loc 1 943 0
 2458              		@ sp needed
 2459 0002 4042     		rsbs	r0, r0, #0
 2460 0004 7047     		bx	lr
 2461              		.cfi_endproc
 2462              	.LFE59:
 2463              		.size	RegionUS915TxParamSetupReq, .-RegionUS915TxParamSetupReq
 2464 0006 C046     		.section	.text.RegionUS915DlChannelReq,"ax",%progbits
 2465              		.align	1
 2466              		.p2align 2,,3
 2467              		.global	RegionUS915DlChannelReq
 2468              		.syntax unified
 2469              		.code	16
 2470              		.thumb_func
 2471              		.fpu softvfp
 2472              		.type	RegionUS915DlChannelReq, %function
 2473              	RegionUS915DlChannelReq:
 2474              	.LFB70:
 2475              		.cfi_startproc
 2476              		@ args = 0, pretend = 0, frame = 0
ARM GAS  C:\Users\EBANO_~1\AppData\Local\Temp\ccFRmLE5.s 			page 66


 2477              		@ frame_needed = 0, uses_anonymous_args = 0
 2478              		@ link register save eliminated.
 2479 0000 0020     		movs	r0, #0
 2480              		@ sp needed
 2481 0002 7047     		bx	lr
 2482              		.cfi_endproc
 2483              	.LFE70:
 2484              		.size	RegionUS915DlChannelReq, .-RegionUS915DlChannelReq
 2485              		.section	.text.RegionUS915AlternateDr,"ax",%progbits
 2486              		.align	1
 2487              		.p2align 2,,3
 2488              		.global	RegionUS915AlternateDr
 2489              		.syntax unified
 2490              		.code	16
 2491              		.thumb_func
 2492              		.fpu softvfp
 2493              		.type	RegionUS915AlternateDr, %function
 2494              	RegionUS915AlternateDr:
 2495              	.LFB61:
 944:../../../../../../Middlewares/Third_Party/LoRaWAN/Mac/region/RegionUS915.c **** 
 945:../../../../../../Middlewares/Third_Party/LoRaWAN/Mac/region/RegionUS915.c **** uint8_t RegionUS915DlChannelReq( DlChannelReqParams_t* dlChannelReq )
 946:../../../../../../Middlewares/Third_Party/LoRaWAN/Mac/region/RegionUS915.c **** {
 947:../../../../../../Middlewares/Third_Party/LoRaWAN/Mac/region/RegionUS915.c ****     return 0;
 948:../../../../../../Middlewares/Third_Party/LoRaWAN/Mac/region/RegionUS915.c **** }
 949:../../../../../../Middlewares/Third_Party/LoRaWAN/Mac/region/RegionUS915.c **** 
 950:../../../../../../Middlewares/Third_Party/LoRaWAN/Mac/region/RegionUS915.c **** int8_t RegionUS915AlternateDr( int8_t currentDr, AlternateDrType_t type )
 951:../../../../../../Middlewares/Third_Party/LoRaWAN/Mac/region/RegionUS915.c **** {
 2496              		.loc 1 951 0
 2497              		.cfi_startproc
 2498              		@ args = 0, pretend = 0, frame = 0
 2499              		@ frame_needed = 0, uses_anonymous_args = 0
 2500              	.LVL216:
 2501              		.loc 1 951 0
 2502 0000 10B5     		push	{r4, lr}
 2503              	.LCFI22:
 2504              		.cfi_def_cfa_offset 8
 2505              		.cfi_offset 4, -8
 2506              		.cfi_offset 14, -4
 2507 0002 0A4B     		ldr	r3, .L174
 2508 0004 0A4A     		ldr	r2, .L174+4
 2509 0006 985C     		ldrb	r0, [r3, r2]
 2510              	.LVL217:
 952:../../../../../../Middlewares/Third_Party/LoRaWAN/Mac/region/RegionUS915.c ****     // Alternates the data rate according to the channel sequence:
 953:../../../../../../Middlewares/Third_Party/LoRaWAN/Mac/region/RegionUS915.c ****     // Eight times a 125kHz DR_0 and then one 500kHz DR_4 channel
 954:../../../../../../Middlewares/Third_Party/LoRaWAN/Mac/region/RegionUS915.c ****     if( type == ALTERNATE_DR )
 2511              		.loc 1 954 0
 2512 0008 0029     		cmp	r1, #0
 2513 000a 0BD1     		bne	.L170
 955:../../../../../../Middlewares/Third_Party/LoRaWAN/Mac/region/RegionUS915.c ****     {
 956:../../../../../../Middlewares/Third_Party/LoRaWAN/Mac/region/RegionUS915.c ****         NvmCtx.JoinTrialsCounter++;
 2514              		.loc 1 956 0
 2515 000c 0130     		adds	r0, r0, #1
 2516 000e C0B2     		uxtb	r0, r0
 2517              	.L171:
 2518 0010 074A     		ldr	r2, .L174+4
 957:../../../../../../Middlewares/Third_Party/LoRaWAN/Mac/region/RegionUS915.c ****     }
 958:../../../../../../Middlewares/Third_Party/LoRaWAN/Mac/region/RegionUS915.c ****     else
ARM GAS  C:\Users\EBANO_~1\AppData\Local\Temp\ccFRmLE5.s 			page 67


 959:../../../../../../Middlewares/Third_Party/LoRaWAN/Mac/region/RegionUS915.c ****     {
 960:../../../../../../Middlewares/Third_Party/LoRaWAN/Mac/region/RegionUS915.c ****         NvmCtx.JoinTrialsCounter--;
 961:../../../../../../Middlewares/Third_Party/LoRaWAN/Mac/region/RegionUS915.c ****     }
 962:../../../../../../Middlewares/Third_Party/LoRaWAN/Mac/region/RegionUS915.c **** 
 963:../../../../../../Middlewares/Third_Party/LoRaWAN/Mac/region/RegionUS915.c ****     if( NvmCtx.JoinTrialsCounter % 9 == 0 )
 2519              		.loc 1 963 0
 2520 0012 0921     		movs	r1, #9
 2521              	.LVL218:
 2522 0014 9854     		strb	r0, [r3, r2]
 2523 0016 FFF7FEFF 		bl	__aeabi_uidivmod
 2524              	.LVL219:
 2525 001a C9B2     		uxtb	r1, r1
 964:../../../../../../Middlewares/Third_Party/LoRaWAN/Mac/region/RegionUS915.c ****     {
 965:../../../../../../Middlewares/Third_Party/LoRaWAN/Mac/region/RegionUS915.c ****         // Use DR_4 every 9th times.
 966:../../../../../../Middlewares/Third_Party/LoRaWAN/Mac/region/RegionUS915.c ****         currentDr = DR_4;
 2526              		.loc 1 966 0
 2527 001c 4842     		rsbs	r0, r1, #0
 2528 001e 4841     		adcs	r0, r0, r1
 967:../../../../../../Middlewares/Third_Party/LoRaWAN/Mac/region/RegionUS915.c ****     }
 968:../../../../../../Middlewares/Third_Party/LoRaWAN/Mac/region/RegionUS915.c ****     else
 969:../../../../../../Middlewares/Third_Party/LoRaWAN/Mac/region/RegionUS915.c ****     {
 970:../../../../../../Middlewares/Third_Party/LoRaWAN/Mac/region/RegionUS915.c ****         currentDr = DR_0;
 971:../../../../../../Middlewares/Third_Party/LoRaWAN/Mac/region/RegionUS915.c ****     }
 972:../../../../../../Middlewares/Third_Party/LoRaWAN/Mac/region/RegionUS915.c ****     return currentDr;
 973:../../../../../../Middlewares/Third_Party/LoRaWAN/Mac/region/RegionUS915.c **** }
 2529              		.loc 1 973 0
 2530              		@ sp needed
 966:../../../../../../Middlewares/Third_Party/LoRaWAN/Mac/region/RegionUS915.c ****     }
 2531              		.loc 1 966 0
 2532 0020 8000     		lsls	r0, r0, #2
 2533              	.LVL220:
 2534              		.loc 1 973 0
 2535 0022 10BD     		pop	{r4, pc}
 2536              	.LVL221:
 2537              	.L170:
 960:../../../../../../Middlewares/Third_Party/LoRaWAN/Mac/region/RegionUS915.c ****     }
 2538              		.loc 1 960 0
 2539 0024 0138     		subs	r0, r0, #1
 2540 0026 C0B2     		uxtb	r0, r0
 2541 0028 F2E7     		b	.L171
 2542              	.L175:
 2543 002a C046     		.align	2
 2544              	.L174:
 2545 002c 00000000 		.word	NvmCtx
 2546 0030 95030000 		.word	917
 2547              		.cfi_endproc
 2548              	.LFE61:
 2549              		.size	RegionUS915AlternateDr, .-RegionUS915AlternateDr
 2550              		.section	.text.RegionUS915CalcBackOff,"ax",%progbits
 2551              		.align	1
 2552              		.p2align 2,,3
 2553              		.global	RegionUS915CalcBackOff
 2554              		.syntax unified
 2555              		.code	16
 2556              		.thumb_func
 2557              		.fpu softvfp
 2558              		.type	RegionUS915CalcBackOff, %function
ARM GAS  C:\Users\EBANO_~1\AppData\Local\Temp\ccFRmLE5.s 			page 68


 2559              	RegionUS915CalcBackOff:
 2560              	.LFB62:
 974:../../../../../../Middlewares/Third_Party/LoRaWAN/Mac/region/RegionUS915.c **** 
 975:../../../../../../Middlewares/Third_Party/LoRaWAN/Mac/region/RegionUS915.c **** void RegionUS915CalcBackOff( CalcBackOffParams_t* calcBackOff )
 976:../../../../../../Middlewares/Third_Party/LoRaWAN/Mac/region/RegionUS915.c **** {
 2561              		.loc 1 976 0
 2562              		.cfi_startproc
 2563              		@ args = 0, pretend = 0, frame = 24
 2564              		@ frame_needed = 0, uses_anonymous_args = 0
 2565              	.LVL222:
 977:../../../../../../Middlewares/Third_Party/LoRaWAN/Mac/region/RegionUS915.c ****     RegionCommonCalcBackOffParams_t calcBackOffParams;
 978:../../../../../../Middlewares/Third_Party/LoRaWAN/Mac/region/RegionUS915.c **** 
 979:../../../../../../Middlewares/Third_Party/LoRaWAN/Mac/region/RegionUS915.c ****     calcBackOffParams.Channels = NvmCtx.Channels;
 980:../../../../../../Middlewares/Third_Party/LoRaWAN/Mac/region/RegionUS915.c ****     calcBackOffParams.Bands = NvmCtx.Bands;
 2566              		.loc 1 980 0
 2567 0000 D821     		movs	r1, #216
 2568 0002 8900     		lsls	r1, r1, #2
 2569 0004 8C46     		mov	ip, r1
 976:../../../../../../Middlewares/Third_Party/LoRaWAN/Mac/region/RegionUS915.c ****     RegionCommonCalcBackOffParams_t calcBackOffParams;
 2570              		.loc 1 976 0
 2571 0006 00B5     		push	{lr}
 2572              	.LCFI23:
 2573              		.cfi_def_cfa_offset 4
 2574              		.cfi_offset 14, -4
 979:../../../../../../Middlewares/Third_Party/LoRaWAN/Mac/region/RegionUS915.c ****     calcBackOffParams.Bands = NvmCtx.Bands;
 2575              		.loc 1 979 0
 2576 0008 0B4A     		ldr	r2, .L177
 976:../../../../../../Middlewares/Third_Party/LoRaWAN/Mac/region/RegionUS915.c ****     RegionCommonCalcBackOffParams_t calcBackOffParams;
 2577              		.loc 1 976 0
 2578 000a 87B0     		sub	sp, sp, #28
 2579              	.LCFI24:
 2580              		.cfi_def_cfa_offset 32
 979:../../../../../../Middlewares/Third_Party/LoRaWAN/Mac/region/RegionUS915.c ****     calcBackOffParams.Bands = NvmCtx.Bands;
 2581              		.loc 1 979 0
 2582 000c 0192     		str	r2, [sp, #4]
 2583              		.loc 1 980 0
 2584 000e 6244     		add	r2, r2, ip
 2585 0010 0292     		str	r2, [sp, #8]
 981:../../../../../../Middlewares/Third_Party/LoRaWAN/Mac/region/RegionUS915.c ****     calcBackOffParams.LastTxIsJoinRequest = calcBackOff->LastTxIsJoinRequest;
 2586              		.loc 1 981 0
 2587 0012 4278     		ldrb	r2, [r0, #1]
 979:../../../../../../Middlewares/Third_Party/LoRaWAN/Mac/region/RegionUS915.c ****     calcBackOffParams.Bands = NvmCtx.Bands;
 2588              		.loc 1 979 0
 2589 0014 01AB     		add	r3, sp, #4
 2590              		.loc 1 981 0
 2591 0016 1A72     		strb	r2, [r3, #8]
 982:../../../../../../Middlewares/Third_Party/LoRaWAN/Mac/region/RegionUS915.c ****     calcBackOffParams.Joined = calcBackOff->Joined;
 2592              		.loc 1 982 0
 2593 0018 0278     		ldrb	r2, [r0]
 2594 001a 5A72     		strb	r2, [r3, #9]
 983:../../../../../../Middlewares/Third_Party/LoRaWAN/Mac/region/RegionUS915.c ****     calcBackOffParams.DutyCycleEnabled = calcBackOff->DutyCycleEnabled;
 2595              		.loc 1 983 0
 2596 001c 8278     		ldrb	r2, [r0, #2]
 2597 001e 9A72     		strb	r2, [r3, #10]
 984:../../../../../../Middlewares/Third_Party/LoRaWAN/Mac/region/RegionUS915.c ****     calcBackOffParams.Channel = calcBackOff->Channel;
 2598              		.loc 1 984 0
 2599 0020 C278     		ldrb	r2, [r0, #3]
ARM GAS  C:\Users\EBANO_~1\AppData\Local\Temp\ccFRmLE5.s 			page 69


 2600 0022 DA72     		strb	r2, [r3, #11]
 985:../../../../../../Middlewares/Third_Party/LoRaWAN/Mac/region/RegionUS915.c ****     calcBackOffParams.ElapsedTime = calcBackOff->ElapsedTime;
 2601              		.loc 1 985 0
 2602 0024 4268     		ldr	r2, [r0, #4]
 2603 0026 0492     		str	r2, [sp, #16]
 986:../../../../../../Middlewares/Third_Party/LoRaWAN/Mac/region/RegionUS915.c ****     calcBackOffParams.TxTimeOnAir = calcBackOff->TxTimeOnAir;
 2604              		.loc 1 986 0
 2605 0028 8268     		ldr	r2, [r0, #8]
 987:../../../../../../Middlewares/Third_Party/LoRaWAN/Mac/region/RegionUS915.c **** 
 988:../../../../../../Middlewares/Third_Party/LoRaWAN/Mac/region/RegionUS915.c ****     RegionCommonCalcBackOff( &calcBackOffParams );
 2606              		.loc 1 988 0
 2607 002a 1800     		movs	r0, r3
 2608              	.LVL223:
 986:../../../../../../Middlewares/Third_Party/LoRaWAN/Mac/region/RegionUS915.c ****     calcBackOffParams.TxTimeOnAir = calcBackOff->TxTimeOnAir;
 2609              		.loc 1 986 0
 2610 002c 0592     		str	r2, [sp, #20]
 2611              		.loc 1 988 0
 2612 002e FFF7FEFF 		bl	RegionCommonCalcBackOff
 2613              	.LVL224:
 989:../../../../../../Middlewares/Third_Party/LoRaWAN/Mac/region/RegionUS915.c **** }
 2614              		.loc 1 989 0
 2615 0032 07B0     		add	sp, sp, #28
 2616              		@ sp needed
 2617 0034 00BD     		pop	{pc}
 2618              	.L178:
 2619 0036 C046     		.align	2
 2620              	.L177:
 2621 0038 00000000 		.word	NvmCtx
 2622              		.cfi_endproc
 2623              	.LFE62:
 2624              		.size	RegionUS915CalcBackOff, .-RegionUS915CalcBackOff
 2625              		.section	.text.RegionUS915NextChannel,"ax",%progbits
 2626              		.align	1
 2627              		.p2align 2,,3
 2628              		.global	RegionUS915NextChannel
 2629              		.syntax unified
 2630              		.code	16
 2631              		.thumb_func
 2632              		.fpu softvfp
 2633              		.type	RegionUS915NextChannel, %function
 2634              	RegionUS915NextChannel:
 2635              	.LFB63:
 990:../../../../../../Middlewares/Third_Party/LoRaWAN/Mac/region/RegionUS915.c **** 
 991:../../../../../../Middlewares/Third_Party/LoRaWAN/Mac/region/RegionUS915.c **** LoRaMacStatus_t RegionUS915NextChannel( NextChanParams_t* nextChanParams, uint8_t* channel, TimerTi
 992:../../../../../../Middlewares/Third_Party/LoRaWAN/Mac/region/RegionUS915.c **** {
 2636              		.loc 1 992 0
 2637              		.cfi_startproc
 2638              		@ args = 0, pretend = 0, frame = 112
 2639              		@ frame_needed = 0, uses_anonymous_args = 0
 2640              	.LVL225:
 2641 0000 F0B5     		push	{r4, r5, r6, r7, lr}
 2642              	.LCFI25:
 2643              		.cfi_def_cfa_offset 20
 2644              		.cfi_offset 4, -20
 2645              		.cfi_offset 5, -16
 2646              		.cfi_offset 6, -12
 2647              		.cfi_offset 7, -8
ARM GAS  C:\Users\EBANO_~1\AppData\Local\Temp\ccFRmLE5.s 			page 70


 2648              		.cfi_offset 14, -4
 2649 0002 DE46     		mov	lr, fp
 2650 0004 4546     		mov	r5, r8
 2651 0006 5746     		mov	r7, r10
 2652 0008 4E46     		mov	r6, r9
 2653 000a E0B5     		push	{r5, r6, r7, lr}
 2654              	.LCFI26:
 2655              		.cfi_def_cfa_offset 36
 2656              		.cfi_offset 8, -36
 2657              		.cfi_offset 9, -32
 2658              		.cfi_offset 10, -28
 2659              		.cfi_offset 11, -24
 2660 000c 9DB0     		sub	sp, sp, #116
 2661              	.LCFI27:
 2662              		.cfi_def_cfa_offset 152
 2663              		.loc 1 992 0
 2664 000e 0691     		str	r1, [sp, #24]
 2665 0010 0492     		str	r2, [sp, #16]
 993:../../../../../../Middlewares/Third_Party/LoRaWAN/Mac/region/RegionUS915.c ****     uint8_t nbEnabledChannels = 0;
 994:../../../../../../Middlewares/Third_Party/LoRaWAN/Mac/region/RegionUS915.c ****     uint8_t delayTx = 0;
 995:../../../../../../Middlewares/Third_Party/LoRaWAN/Mac/region/RegionUS915.c ****     uint8_t enabledChannels[US915_MAX_NB_CHANNELS] = { 0 };
 2666              		.loc 1 995 0
 2667 0012 0021     		movs	r1, #0
 2668              	.LVL226:
 2669 0014 4822     		movs	r2, #72
 2670              	.LVL227:
 992:../../../../../../Middlewares/Third_Party/LoRaWAN/Mac/region/RegionUS915.c ****     uint8_t nbEnabledChannels = 0;
 2671              		.loc 1 992 0
 2672 0016 8346     		mov	fp, r0
 2673              		.loc 1 995 0
 2674 0018 0AA8     		add	r0, sp, #40
 2675              	.LVL228:
 992:../../../../../../Middlewares/Third_Party/LoRaWAN/Mac/region/RegionUS915.c ****     uint8_t nbEnabledChannels = 0;
 2676              		.loc 1 992 0
 2677 001a 1D00     		movs	r5, r3
 2678              		.loc 1 995 0
 2679 001c FFF7FEFF 		bl	memset
 2680              	.LVL229:
 996:../../../../../../Middlewares/Third_Party/LoRaWAN/Mac/region/RegionUS915.c ****     TimerTime_t nextTxDelay = 0;
 997:../../../../../../Middlewares/Third_Party/LoRaWAN/Mac/region/RegionUS915.c ****     uint8_t newChannelIndex;
 998:../../../../../../Middlewares/Third_Party/LoRaWAN/Mac/region/RegionUS915.c **** 
 999:../../../../../../Middlewares/Third_Party/LoRaWAN/Mac/region/RegionUS915.c ****     // Count 125kHz channels
1000:../../../../../../Middlewares/Third_Party/LoRaWAN/Mac/region/RegionUS915.c ****     if( RegionCommonCountChannels( NvmCtx.ChannelsMaskRemaining, 0, 4 ) == 0 )
 2681              		.loc 1 1000 0
 2682 0020 0422     		movs	r2, #4
 2683 0022 0021     		movs	r1, #0
 2684 0024 B748     		ldr	r0, .L263
 2685 0026 FFF7FEFF 		bl	RegionCommonCountChannels
 2686              	.LVL230:
 2687 002a 041E     		subs	r4, r0, #0
 2688 002c 00D1     		bne	.LCB2388
 2689 002e BEE0     		b	.L256	@long jump
 2690              	.LCB2388:
 2691              	.L180:
