ARM GAS  C:\Users\EBANO_~1\AppData\Local\Temp\ccOSDu2a.s 			page 1


   1              		.cpu cortex-m0plus
   2              		.eabi_attribute 20, 1
   3              		.eabi_attribute 21, 1
   4              		.eabi_attribute 23, 3
   5              		.eabi_attribute 24, 1
   6              		.eabi_attribute 25, 1
   7              		.eabi_attribute 26, 1
   8              		.eabi_attribute 30, 2
   9              		.eabi_attribute 34, 0
  10              		.eabi_attribute 18, 4
  11              		.file	"Region.c"
  12              		.text
  13              	.Ltext0:
  14              		.cfi_sections	.debug_frame
  15              		.section	.text.RegionIsActive,"ax",%progbits
  16              		.align	1
  17              		.p2align 2,,3
  18              		.global	RegionIsActive
  19              		.syntax unified
  20              		.code	16
  21              		.thumb_func
  22              		.fpu softvfp
  23              		.type	RegionIsActive, %function
  24              	RegionIsActive:
  25              	.LFB39:
  26              		.file 1 "../../../../../../Middlewares/Third_Party/LoRaWAN/Mac/region/Region.c"
   1:../../../../../../Middlewares/Third_Party/LoRaWAN/Mac/region/Region.c **** /*!
   2:../../../../../../Middlewares/Third_Party/LoRaWAN/Mac/region/Region.c ****  * \file      Region.c
   3:../../../../../../Middlewares/Third_Party/LoRaWAN/Mac/region/Region.c ****  *
   4:../../../../../../Middlewares/Third_Party/LoRaWAN/Mac/region/Region.c ****  * \brief     Region implementation.
   5:../../../../../../Middlewares/Third_Party/LoRaWAN/Mac/region/Region.c ****  *
   6:../../../../../../Middlewares/Third_Party/LoRaWAN/Mac/region/Region.c ****  * \copyright Revised BSD License, see section \ref LICENSE.
   7:../../../../../../Middlewares/Third_Party/LoRaWAN/Mac/region/Region.c ****  *
   8:../../../../../../Middlewares/Third_Party/LoRaWAN/Mac/region/Region.c ****  * \code
   9:../../../../../../Middlewares/Third_Party/LoRaWAN/Mac/region/Region.c ****  *                ______                              _
  10:../../../../../../Middlewares/Third_Party/LoRaWAN/Mac/region/Region.c ****  *               / _____)             _              | |
  11:../../../../../../Middlewares/Third_Party/LoRaWAN/Mac/region/Region.c ****  *              ( (____  _____ ____ _| |_ _____  ____| |__
  12:../../../../../../Middlewares/Third_Party/LoRaWAN/Mac/region/Region.c ****  *               \____ \| ___ |    (_   _) ___ |/ ___)  _ \
  13:../../../../../../Middlewares/Third_Party/LoRaWAN/Mac/region/Region.c ****  *               _____) ) ____| | | || |_| ____( (___| | | |
  14:../../../../../../Middlewares/Third_Party/LoRaWAN/Mac/region/Region.c ****  *              (______/|_____)_|_|_| \__)_____)\____)_| |_|
  15:../../../../../../Middlewares/Third_Party/LoRaWAN/Mac/region/Region.c ****  *              (C)2013-2017 Semtech
  16:../../../../../../Middlewares/Third_Party/LoRaWAN/Mac/region/Region.c ****  *
  17:../../../../../../Middlewares/Third_Party/LoRaWAN/Mac/region/Region.c ****  *               ___ _____ _   ___ _  _____ ___  ___  ___ ___
  18:../../../../../../Middlewares/Third_Party/LoRaWAN/Mac/region/Region.c ****  *              / __|_   _/_\ / __| |/ / __/ _ \| _ \/ __| __|
  19:../../../../../../Middlewares/Third_Party/LoRaWAN/Mac/region/Region.c ****  *              \__ \ | |/ _ \ (__| ' <| _| (_) |   / (__| _|
  20:../../../../../../Middlewares/Third_Party/LoRaWAN/Mac/region/Region.c ****  *              |___/ |_/_/ \_\___|_|\_\_| \___/|_|_\\___|___|
  21:../../../../../../Middlewares/Third_Party/LoRaWAN/Mac/region/Region.c ****  *              embedded.connectivity.solutions===============
  22:../../../../../../Middlewares/Third_Party/LoRaWAN/Mac/region/Region.c ****  *
  23:../../../../../../Middlewares/Third_Party/LoRaWAN/Mac/region/Region.c ****  * \endcode
  24:../../../../../../Middlewares/Third_Party/LoRaWAN/Mac/region/Region.c ****  *
  25:../../../../../../Middlewares/Third_Party/LoRaWAN/Mac/region/Region.c ****  * \author    Miguel Luis ( Semtech )
  26:../../../../../../Middlewares/Third_Party/LoRaWAN/Mac/region/Region.c ****  *
  27:../../../../../../Middlewares/Third_Party/LoRaWAN/Mac/region/Region.c ****  * \author    Gregory Cristian ( Semtech )
  28:../../../../../../Middlewares/Third_Party/LoRaWAN/Mac/region/Region.c ****  *
  29:../../../../../../Middlewares/Third_Party/LoRaWAN/Mac/region/Region.c ****  * \author    Daniel Jaeckle ( STACKFORCE )
  30:../../../../../../Middlewares/Third_Party/LoRaWAN/Mac/region/Region.c ****  */
  31:../../../../../../Middlewares/Third_Party/LoRaWAN/Mac/region/Region.c **** #include "LoRaMac.h"
ARM GAS  C:\Users\EBANO_~1\AppData\Local\Temp\ccOSDu2a.s 			page 2


  32:../../../../../../Middlewares/Third_Party/LoRaWAN/Mac/region/Region.c **** 
  33:../../../../../../Middlewares/Third_Party/LoRaWAN/Mac/region/Region.c **** // Setup regions
  34:../../../../../../Middlewares/Third_Party/LoRaWAN/Mac/region/Region.c **** #ifdef REGION_AS923
  35:../../../../../../Middlewares/Third_Party/LoRaWAN/Mac/region/Region.c **** #include "RegionAS923.h"
  36:../../../../../../Middlewares/Third_Party/LoRaWAN/Mac/region/Region.c **** #define AS923_CASE                                 case LORAMAC_REGION_AS923:
  37:../../../../../../Middlewares/Third_Party/LoRaWAN/Mac/region/Region.c **** #define AS923_IS_ACTIVE( )                         AS923_CASE { return true; }
  38:../../../../../../Middlewares/Third_Party/LoRaWAN/Mac/region/Region.c **** #define AS923_GET_PHY_PARAM( )                     AS923_CASE { return RegionAS923GetPhyParam( getP
  39:../../../../../../Middlewares/Third_Party/LoRaWAN/Mac/region/Region.c **** #define AS923_SET_BAND_TX_DONE( )                  AS923_CASE { RegionAS923SetBandTxDone( txDone );
  40:../../../../../../Middlewares/Third_Party/LoRaWAN/Mac/region/Region.c **** #define AS923_INIT_DEFAULTS( )                     AS923_CASE { RegionAS923InitDefaults( params ); 
  41:../../../../../../Middlewares/Third_Party/LoRaWAN/Mac/region/Region.c **** #define AS923_GET_NVM_CTX( )                       AS923_CASE { return RegionAS923GetNvmCtx( params
  42:../../../../../../Middlewares/Third_Party/LoRaWAN/Mac/region/Region.c **** #define AS923_VERIFY( )                            AS923_CASE { return RegionAS923Verify( verify, p
  43:../../../../../../Middlewares/Third_Party/LoRaWAN/Mac/region/Region.c **** #define AS923_APPLY_CF_LIST( )                     AS923_CASE { RegionAS923ApplyCFList( applyCFList
  44:../../../../../../Middlewares/Third_Party/LoRaWAN/Mac/region/Region.c **** #define AS923_CHAN_MASK_SET( )                     AS923_CASE { return RegionAS923ChanMaskSet( chan
  45:../../../../../../Middlewares/Third_Party/LoRaWAN/Mac/region/Region.c **** #define AS923_COMPUTE_RX_WINDOW_PARAMETERS( )      AS923_CASE { RegionAS923ComputeRxWindowParameter
  46:../../../../../../Middlewares/Third_Party/LoRaWAN/Mac/region/Region.c **** #define AS923_RX_CONFIG( )                         AS923_CASE { return RegionAS923RxConfig( rxConfi
  47:../../../../../../Middlewares/Third_Party/LoRaWAN/Mac/region/Region.c **** #define AS923_TX_CONFIG( )                         AS923_CASE { return RegionAS923TxConfig( txConfi
  48:../../../../../../Middlewares/Third_Party/LoRaWAN/Mac/region/Region.c **** #define AS923_LINK_ADR_REQ( )                      AS923_CASE { return RegionAS923LinkAdrReq( linkA
  49:../../../../../../Middlewares/Third_Party/LoRaWAN/Mac/region/Region.c **** #define AS923_RX_PARAM_SETUP_REQ( )                AS923_CASE { return RegionAS923RxParamSetupReq( 
  50:../../../../../../Middlewares/Third_Party/LoRaWAN/Mac/region/Region.c **** #define AS923_NEW_CHANNEL_REQ( )                   AS923_CASE { return RegionAS923NewChannelReq( ne
  51:../../../../../../Middlewares/Third_Party/LoRaWAN/Mac/region/Region.c **** #define AS923_TX_PARAM_SETUP_REQ( )                AS923_CASE { return RegionAS923TxParamSetupReq( 
  52:../../../../../../Middlewares/Third_Party/LoRaWAN/Mac/region/Region.c **** #define AS923_DL_CHANNEL_REQ( )                    AS923_CASE { return RegionAS923DlChannelReq( dlC
  53:../../../../../../Middlewares/Third_Party/LoRaWAN/Mac/region/Region.c **** #define AS923_ALTERNATE_DR( )                      AS923_CASE { return RegionAS923AlternateDr( curr
  54:../../../../../../Middlewares/Third_Party/LoRaWAN/Mac/region/Region.c **** #define AS923_CALC_BACKOFF( )                      AS923_CASE { RegionAS923CalcBackOff( calcBackOff
  55:../../../../../../Middlewares/Third_Party/LoRaWAN/Mac/region/Region.c **** #define AS923_NEXT_CHANNEL( )                      AS923_CASE { return RegionAS923NextChannel( next
  56:../../../../../../Middlewares/Third_Party/LoRaWAN/Mac/region/Region.c **** #define AS923_CHANNEL_ADD( )                       AS923_CASE { return RegionAS923ChannelAdd( chann
  57:../../../../../../Middlewares/Third_Party/LoRaWAN/Mac/region/Region.c **** #define AS923_CHANNEL_REMOVE( )                    AS923_CASE { return RegionAS923ChannelsRemove( c
  58:../../../../../../Middlewares/Third_Party/LoRaWAN/Mac/region/Region.c **** #define AS923_SET_CONTINUOUS_WAVE( )               AS923_CASE { RegionAS923SetContinuousWave( conti
  59:../../../../../../Middlewares/Third_Party/LoRaWAN/Mac/region/Region.c **** #define AS923_APPLY_DR_OFFSET( )                   AS923_CASE { return RegionAS923ApplyDrOffset( do
  60:../../../../../../Middlewares/Third_Party/LoRaWAN/Mac/region/Region.c **** #define AS923_RX_BEACON_SETUP( )                   AS923_CASE { RegionAS923RxBeaconSetup( rxBeaconS
  61:../../../../../../Middlewares/Third_Party/LoRaWAN/Mac/region/Region.c **** #else
  62:../../../../../../Middlewares/Third_Party/LoRaWAN/Mac/region/Region.c **** #define AS923_IS_ACTIVE( )
  63:../../../../../../Middlewares/Third_Party/LoRaWAN/Mac/region/Region.c **** #define AS923_GET_PHY_PARAM( )
  64:../../../../../../Middlewares/Third_Party/LoRaWAN/Mac/region/Region.c **** #define AS923_SET_BAND_TX_DONE( )
  65:../../../../../../Middlewares/Third_Party/LoRaWAN/Mac/region/Region.c **** #define AS923_INIT_DEFAULTS( )
  66:../../../../../../Middlewares/Third_Party/LoRaWAN/Mac/region/Region.c **** #define AS923_GET_NVM_CTX( )
  67:../../../../../../Middlewares/Third_Party/LoRaWAN/Mac/region/Region.c **** #define AS923_VERIFY( )
  68:../../../../../../Middlewares/Third_Party/LoRaWAN/Mac/region/Region.c **** #define AS923_APPLY_CF_LIST( )
  69:../../../../../../Middlewares/Third_Party/LoRaWAN/Mac/region/Region.c **** #define AS923_CHAN_MASK_SET( )
  70:../../../../../../Middlewares/Third_Party/LoRaWAN/Mac/region/Region.c **** #define AS923_COMPUTE_RX_WINDOW_PARAMETERS( )
  71:../../../../../../Middlewares/Third_Party/LoRaWAN/Mac/region/Region.c **** #define AS923_RX_CONFIG( )
  72:../../../../../../Middlewares/Third_Party/LoRaWAN/Mac/region/Region.c **** #define AS923_TX_CONFIG( )
  73:../../../../../../Middlewares/Third_Party/LoRaWAN/Mac/region/Region.c **** #define AS923_LINK_ADR_REQ( )
  74:../../../../../../Middlewares/Third_Party/LoRaWAN/Mac/region/Region.c **** #define AS923_RX_PARAM_SETUP_REQ( )
  75:../../../../../../Middlewares/Third_Party/LoRaWAN/Mac/region/Region.c **** #define AS923_NEW_CHANNEL_REQ( )
  76:../../../../../../Middlewares/Third_Party/LoRaWAN/Mac/region/Region.c **** #define AS923_TX_PARAM_SETUP_REQ( )
  77:../../../../../../Middlewares/Third_Party/LoRaWAN/Mac/region/Region.c **** #define AS923_DL_CHANNEL_REQ( )
  78:../../../../../../Middlewares/Third_Party/LoRaWAN/Mac/region/Region.c **** #define AS923_ALTERNATE_DR( )
  79:../../../../../../Middlewares/Third_Party/LoRaWAN/Mac/region/Region.c **** #define AS923_CALC_BACKOFF( )
  80:../../../../../../Middlewares/Third_Party/LoRaWAN/Mac/region/Region.c **** #define AS923_NEXT_CHANNEL( )
  81:../../../../../../Middlewares/Third_Party/LoRaWAN/Mac/region/Region.c **** #define AS923_CHANNEL_ADD( )
  82:../../../../../../Middlewares/Third_Party/LoRaWAN/Mac/region/Region.c **** #define AS923_CHANNEL_REMOVE( )
  83:../../../../../../Middlewares/Third_Party/LoRaWAN/Mac/region/Region.c **** #define AS923_SET_CONTINUOUS_WAVE( )
  84:../../../../../../Middlewares/Third_Party/LoRaWAN/Mac/region/Region.c **** #define AS923_APPLY_DR_OFFSET( )
  85:../../../../../../Middlewares/Third_Party/LoRaWAN/Mac/region/Region.c **** #define AS923_RX_BEACON_SETUP( )
  86:../../../../../../Middlewares/Third_Party/LoRaWAN/Mac/region/Region.c **** #endif
  87:../../../../../../Middlewares/Third_Party/LoRaWAN/Mac/region/Region.c **** 
  88:../../../../../../Middlewares/Third_Party/LoRaWAN/Mac/region/Region.c **** #ifdef REGION_AU915
ARM GAS  C:\Users\EBANO_~1\AppData\Local\Temp\ccOSDu2a.s 			page 3


  89:../../../../../../Middlewares/Third_Party/LoRaWAN/Mac/region/Region.c **** #include "RegionAU915.h"
  90:../../../../../../Middlewares/Third_Party/LoRaWAN/Mac/region/Region.c **** #define AU915_CASE                                 case LORAMAC_REGION_AU915:
  91:../../../../../../Middlewares/Third_Party/LoRaWAN/Mac/region/Region.c **** #define AU915_IS_ACTIVE( )                         AU915_CASE { return true; }
  92:../../../../../../Middlewares/Third_Party/LoRaWAN/Mac/region/Region.c **** #define AU915_GET_PHY_PARAM( )                     AU915_CASE { return RegionAU915GetPhyParam( getP
  93:../../../../../../Middlewares/Third_Party/LoRaWAN/Mac/region/Region.c **** #define AU915_SET_BAND_TX_DONE( )                  AU915_CASE { RegionAU915SetBandTxDone( txDone );
  94:../../../../../../Middlewares/Third_Party/LoRaWAN/Mac/region/Region.c **** #define AU915_INIT_DEFAULTS( )                     AU915_CASE { RegionAU915InitDefaults( params ); 
  95:../../../../../../Middlewares/Third_Party/LoRaWAN/Mac/region/Region.c **** #define AU915_GET_NVM_CTX( )                       AU915_CASE { return RegionAU915GetNvmCtx( params
  96:../../../../../../Middlewares/Third_Party/LoRaWAN/Mac/region/Region.c **** #define AU915_VERIFY( )                            AU915_CASE { return RegionAU915Verify( verify, p
  97:../../../../../../Middlewares/Third_Party/LoRaWAN/Mac/region/Region.c **** #define AU915_APPLY_CF_LIST( )                     AU915_CASE { RegionAU915ApplyCFList( applyCFList
  98:../../../../../../Middlewares/Third_Party/LoRaWAN/Mac/region/Region.c **** #define AU915_CHAN_MASK_SET( )                     AU915_CASE { return RegionAU915ChanMaskSet( chan
  99:../../../../../../Middlewares/Third_Party/LoRaWAN/Mac/region/Region.c **** #define AU915_COMPUTE_RX_WINDOW_PARAMETERS( )      AU915_CASE { RegionAU915ComputeRxWindowParameter
 100:../../../../../../Middlewares/Third_Party/LoRaWAN/Mac/region/Region.c **** #define AU915_RX_CONFIG( )                         AU915_CASE { return RegionAU915RxConfig( rxConfi
 101:../../../../../../Middlewares/Third_Party/LoRaWAN/Mac/region/Region.c **** #define AU915_TX_CONFIG( )                         AU915_CASE { return RegionAU915TxConfig( txConfi
 102:../../../../../../Middlewares/Third_Party/LoRaWAN/Mac/region/Region.c **** #define AU915_LINK_ADR_REQ( )                      AU915_CASE { return RegionAU915LinkAdrReq( linkA
 103:../../../../../../Middlewares/Third_Party/LoRaWAN/Mac/region/Region.c **** #define AU915_RX_PARAM_SETUP_REQ( )                AU915_CASE { return RegionAU915RxParamSetupReq( 
 104:../../../../../../Middlewares/Third_Party/LoRaWAN/Mac/region/Region.c **** #define AU915_NEW_CHANNEL_REQ( )                   AU915_CASE { return RegionAU915NewChannelReq( ne
 105:../../../../../../Middlewares/Third_Party/LoRaWAN/Mac/region/Region.c **** #define AU915_TX_PARAM_SETUP_REQ( )                AU915_CASE { return RegionAU915TxParamSetupReq( 
 106:../../../../../../Middlewares/Third_Party/LoRaWAN/Mac/region/Region.c **** #define AU915_DL_CHANNEL_REQ( )                    AU915_CASE { return RegionAU915DlChannelReq( dlC
 107:../../../../../../Middlewares/Third_Party/LoRaWAN/Mac/region/Region.c **** #define AU915_ALTERNATE_DR( )                      AU915_CASE { return RegionAU915AlternateDr( curr
 108:../../../../../../Middlewares/Third_Party/LoRaWAN/Mac/region/Region.c **** #define AU915_CALC_BACKOFF( )                      AU915_CASE { RegionAU915CalcBackOff( calcBackOff
 109:../../../../../../Middlewares/Third_Party/LoRaWAN/Mac/region/Region.c **** #define AU915_NEXT_CHANNEL( )                      AU915_CASE { return RegionAU915NextChannel( next
 110:../../../../../../Middlewares/Third_Party/LoRaWAN/Mac/region/Region.c **** #define AU915_CHANNEL_ADD( )                       AU915_CASE { return RegionAU915ChannelAdd( chann
 111:../../../../../../Middlewares/Third_Party/LoRaWAN/Mac/region/Region.c **** #define AU915_CHANNEL_REMOVE( )                    AU915_CASE { return RegionAU915ChannelsRemove( c
 112:../../../../../../Middlewares/Third_Party/LoRaWAN/Mac/region/Region.c **** #define AU915_SET_CONTINUOUS_WAVE( )               AU915_CASE { RegionAU915SetContinuousWave( conti
 113:../../../../../../Middlewares/Third_Party/LoRaWAN/Mac/region/Region.c **** #define AU915_APPLY_DR_OFFSET( )                   AU915_CASE { return RegionAU915ApplyDrOffset( do
 114:../../../../../../Middlewares/Third_Party/LoRaWAN/Mac/region/Region.c **** #define AU915_RX_BEACON_SETUP( )                   AU915_CASE { RegionAU915RxBeaconSetup( rxBeaconS
 115:../../../../../../Middlewares/Third_Party/LoRaWAN/Mac/region/Region.c **** #else
 116:../../../../../../Middlewares/Third_Party/LoRaWAN/Mac/region/Region.c **** #define AU915_IS_ACTIVE( )
 117:../../../../../../Middlewares/Third_Party/LoRaWAN/Mac/region/Region.c **** #define AU915_GET_PHY_PARAM( )
 118:../../../../../../Middlewares/Third_Party/LoRaWAN/Mac/region/Region.c **** #define AU915_SET_BAND_TX_DONE( )
 119:../../../../../../Middlewares/Third_Party/LoRaWAN/Mac/region/Region.c **** #define AU915_INIT_DEFAULTS( )
 120:../../../../../../Middlewares/Third_Party/LoRaWAN/Mac/region/Region.c **** #define AU915_GET_NVM_CTX( )
 121:../../../../../../Middlewares/Third_Party/LoRaWAN/Mac/region/Region.c **** #define AU915_VERIFY( )
 122:../../../../../../Middlewares/Third_Party/LoRaWAN/Mac/region/Region.c **** #define AU915_APPLY_CF_LIST( )
 123:../../../../../../Middlewares/Third_Party/LoRaWAN/Mac/region/Region.c **** #define AU915_CHAN_MASK_SET( )
 124:../../../../../../Middlewares/Third_Party/LoRaWAN/Mac/region/Region.c **** #define AU915_COMPUTE_RX_WINDOW_PARAMETERS( )
 125:../../../../../../Middlewares/Third_Party/LoRaWAN/Mac/region/Region.c **** #define AU915_RX_CONFIG( )
 126:../../../../../../Middlewares/Third_Party/LoRaWAN/Mac/region/Region.c **** #define AU915_TX_CONFIG( )
 127:../../../../../../Middlewares/Third_Party/LoRaWAN/Mac/region/Region.c **** #define AU915_LINK_ADR_REQ( )
 128:../../../../../../Middlewares/Third_Party/LoRaWAN/Mac/region/Region.c **** #define AU915_RX_PARAM_SETUP_REQ( )
 129:../../../../../../Middlewares/Third_Party/LoRaWAN/Mac/region/Region.c **** #define AU915_NEW_CHANNEL_REQ( )
 130:../../../../../../Middlewares/Third_Party/LoRaWAN/Mac/region/Region.c **** #define AU915_TX_PARAM_SETUP_REQ( )
 131:../../../../../../Middlewares/Third_Party/LoRaWAN/Mac/region/Region.c **** #define AU915_DL_CHANNEL_REQ( )
 132:../../../../../../Middlewares/Third_Party/LoRaWAN/Mac/region/Region.c **** #define AU915_ALTERNATE_DR( )
 133:../../../../../../Middlewares/Third_Party/LoRaWAN/Mac/region/Region.c **** #define AU915_CALC_BACKOFF( )
 134:../../../../../../Middlewares/Third_Party/LoRaWAN/Mac/region/Region.c **** #define AU915_NEXT_CHANNEL( )
 135:../../../../../../Middlewares/Third_Party/LoRaWAN/Mac/region/Region.c **** #define AU915_CHANNEL_ADD( )
 136:../../../../../../Middlewares/Third_Party/LoRaWAN/Mac/region/Region.c **** #define AU915_CHANNEL_REMOVE( )
 137:../../../../../../Middlewares/Third_Party/LoRaWAN/Mac/region/Region.c **** #define AU915_SET_CONTINUOUS_WAVE( )
 138:../../../../../../Middlewares/Third_Party/LoRaWAN/Mac/region/Region.c **** #define AU915_APPLY_DR_OFFSET( )
 139:../../../../../../Middlewares/Third_Party/LoRaWAN/Mac/region/Region.c **** #define AU915_RX_BEACON_SETUP( )
 140:../../../../../../Middlewares/Third_Party/LoRaWAN/Mac/region/Region.c **** #endif
 141:../../../../../../Middlewares/Third_Party/LoRaWAN/Mac/region/Region.c **** 
 142:../../../../../../Middlewares/Third_Party/LoRaWAN/Mac/region/Region.c **** #ifdef REGION_CN470
 143:../../../../../../Middlewares/Third_Party/LoRaWAN/Mac/region/Region.c **** #include "RegionCN470.h"
 144:../../../../../../Middlewares/Third_Party/LoRaWAN/Mac/region/Region.c **** #define CN470_CASE                                 case LORAMAC_REGION_CN470:
 145:../../../../../../Middlewares/Third_Party/LoRaWAN/Mac/region/Region.c **** #define CN470_IS_ACTIVE( )                         CN470_CASE { return true; }
ARM GAS  C:\Users\EBANO_~1\AppData\Local\Temp\ccOSDu2a.s 			page 4


 146:../../../../../../Middlewares/Third_Party/LoRaWAN/Mac/region/Region.c **** #define CN470_GET_PHY_PARAM( )                     CN470_CASE { return RegionCN470GetPhyParam( getP
 147:../../../../../../Middlewares/Third_Party/LoRaWAN/Mac/region/Region.c **** #define CN470_SET_BAND_TX_DONE( )                  CN470_CASE { RegionCN470SetBandTxDone( txDone );
 148:../../../../../../Middlewares/Third_Party/LoRaWAN/Mac/region/Region.c **** #define CN470_INIT_DEFAULTS( )                     CN470_CASE { RegionCN470InitDefaults( params ); 
 149:../../../../../../Middlewares/Third_Party/LoRaWAN/Mac/region/Region.c **** #define CN470_GET_NVM_CTX( )                       CN470_CASE { return RegionCN470GetNvmCtx( params
 150:../../../../../../Middlewares/Third_Party/LoRaWAN/Mac/region/Region.c **** #define CN470_VERIFY( )                            CN470_CASE { return RegionCN470Verify( verify, p
 151:../../../../../../Middlewares/Third_Party/LoRaWAN/Mac/region/Region.c **** #define CN470_APPLY_CF_LIST( )                     CN470_CASE { RegionCN470ApplyCFList( applyCFList
 152:../../../../../../Middlewares/Third_Party/LoRaWAN/Mac/region/Region.c **** #define CN470_CHAN_MASK_SET( )                     CN470_CASE { return RegionCN470ChanMaskSet( chan
 153:../../../../../../Middlewares/Third_Party/LoRaWAN/Mac/region/Region.c **** #define CN470_COMPUTE_RX_WINDOW_PARAMETERS( )      CN470_CASE { RegionCN470ComputeRxWindowParameter
 154:../../../../../../Middlewares/Third_Party/LoRaWAN/Mac/region/Region.c **** #define CN470_RX_CONFIG( )                         CN470_CASE { return RegionCN470RxConfig( rxConfi
 155:../../../../../../Middlewares/Third_Party/LoRaWAN/Mac/region/Region.c **** #define CN470_TX_CONFIG( )                         CN470_CASE { return RegionCN470TxConfig( txConfi
 156:../../../../../../Middlewares/Third_Party/LoRaWAN/Mac/region/Region.c **** #define CN470_LINK_ADR_REQ( )                      CN470_CASE { return RegionCN470LinkAdrReq( linkA
 157:../../../../../../Middlewares/Third_Party/LoRaWAN/Mac/region/Region.c **** #define CN470_RX_PARAM_SETUP_REQ( )                CN470_CASE { return RegionCN470RxParamSetupReq( 
 158:../../../../../../Middlewares/Third_Party/LoRaWAN/Mac/region/Region.c **** #define CN470_NEW_CHANNEL_REQ( )                   CN470_CASE { return RegionCN470NewChannelReq( ne
 159:../../../../../../Middlewares/Third_Party/LoRaWAN/Mac/region/Region.c **** #define CN470_TX_PARAM_SETUP_REQ( )                CN470_CASE { return RegionCN470TxParamSetupReq( 
 160:../../../../../../Middlewares/Third_Party/LoRaWAN/Mac/region/Region.c **** #define CN470_DL_CHANNEL_REQ( )                    CN470_CASE { return RegionCN470DlChannelReq( dlC
 161:../../../../../../Middlewares/Third_Party/LoRaWAN/Mac/region/Region.c **** #define CN470_ALTERNATE_DR( )                      CN470_CASE { return RegionCN470AlternateDr( curr
 162:../../../../../../Middlewares/Third_Party/LoRaWAN/Mac/region/Region.c **** #define CN470_CALC_BACKOFF( )                      CN470_CASE { RegionCN470CalcBackOff( calcBackOff
 163:../../../../../../Middlewares/Third_Party/LoRaWAN/Mac/region/Region.c **** #define CN470_NEXT_CHANNEL( )                      CN470_CASE { return RegionCN470NextChannel( next
 164:../../../../../../Middlewares/Third_Party/LoRaWAN/Mac/region/Region.c **** #define CN470_CHANNEL_ADD( )                       CN470_CASE { return RegionCN470ChannelAdd( chann
 165:../../../../../../Middlewares/Third_Party/LoRaWAN/Mac/region/Region.c **** #define CN470_CHANNEL_REMOVE( )                    CN470_CASE { return RegionCN470ChannelsRemove( c
 166:../../../../../../Middlewares/Third_Party/LoRaWAN/Mac/region/Region.c **** #define CN470_SET_CONTINUOUS_WAVE( )               CN470_CASE { RegionCN470SetContinuousWave( conti
 167:../../../../../../Middlewares/Third_Party/LoRaWAN/Mac/region/Region.c **** #define CN470_APPLY_DR_OFFSET( )                   CN470_CASE { return RegionCN470ApplyDrOffset( do
 168:../../../../../../Middlewares/Third_Party/LoRaWAN/Mac/region/Region.c **** #define CN470_RX_BEACON_SETUP( )                   CN470_CASE { RegionCN470RxBeaconSetup( rxBeaconS
 169:../../../../../../Middlewares/Third_Party/LoRaWAN/Mac/region/Region.c **** #else
 170:../../../../../../Middlewares/Third_Party/LoRaWAN/Mac/region/Region.c **** #define CN470_IS_ACTIVE( )
 171:../../../../../../Middlewares/Third_Party/LoRaWAN/Mac/region/Region.c **** #define CN470_GET_PHY_PARAM( )
 172:../../../../../../Middlewares/Third_Party/LoRaWAN/Mac/region/Region.c **** #define CN470_SET_BAND_TX_DONE( )
 173:../../../../../../Middlewares/Third_Party/LoRaWAN/Mac/region/Region.c **** #define CN470_INIT_DEFAULTS( )
 174:../../../../../../Middlewares/Third_Party/LoRaWAN/Mac/region/Region.c **** #define CN470_GET_NVM_CTX( )
 175:../../../../../../Middlewares/Third_Party/LoRaWAN/Mac/region/Region.c **** #define CN470_VERIFY( )
 176:../../../../../../Middlewares/Third_Party/LoRaWAN/Mac/region/Region.c **** #define CN470_APPLY_CF_LIST( )
 177:../../../../../../Middlewares/Third_Party/LoRaWAN/Mac/region/Region.c **** #define CN470_CHAN_MASK_SET( )
 178:../../../../../../Middlewares/Third_Party/LoRaWAN/Mac/region/Region.c **** #define CN470_COMPUTE_RX_WINDOW_PARAMETERS( )
 179:../../../../../../Middlewares/Third_Party/LoRaWAN/Mac/region/Region.c **** #define CN470_RX_CONFIG( )
 180:../../../../../../Middlewares/Third_Party/LoRaWAN/Mac/region/Region.c **** #define CN470_TX_CONFIG( )
 181:../../../../../../Middlewares/Third_Party/LoRaWAN/Mac/region/Region.c **** #define CN470_LINK_ADR_REQ( )
 182:../../../../../../Middlewares/Third_Party/LoRaWAN/Mac/region/Region.c **** #define CN470_RX_PARAM_SETUP_REQ( )
 183:../../../../../../Middlewares/Third_Party/LoRaWAN/Mac/region/Region.c **** #define CN470_NEW_CHANNEL_REQ( )
 184:../../../../../../Middlewares/Third_Party/LoRaWAN/Mac/region/Region.c **** #define CN470_TX_PARAM_SETUP_REQ( )
 185:../../../../../../Middlewares/Third_Party/LoRaWAN/Mac/region/Region.c **** #define CN470_DL_CHANNEL_REQ( )
 186:../../../../../../Middlewares/Third_Party/LoRaWAN/Mac/region/Region.c **** #define CN470_ALTERNATE_DR( )
 187:../../../../../../Middlewares/Third_Party/LoRaWAN/Mac/region/Region.c **** #define CN470_CALC_BACKOFF( )
 188:../../../../../../Middlewares/Third_Party/LoRaWAN/Mac/region/Region.c **** #define CN470_NEXT_CHANNEL( )
 189:../../../../../../Middlewares/Third_Party/LoRaWAN/Mac/region/Region.c **** #define CN470_CHANNEL_ADD( )
 190:../../../../../../Middlewares/Third_Party/LoRaWAN/Mac/region/Region.c **** #define CN470_CHANNEL_REMOVE( )
 191:../../../../../../Middlewares/Third_Party/LoRaWAN/Mac/region/Region.c **** #define CN470_SET_CONTINUOUS_WAVE( )
 192:../../../../../../Middlewares/Third_Party/LoRaWAN/Mac/region/Region.c **** #define CN470_APPLY_DR_OFFSET( )
 193:../../../../../../Middlewares/Third_Party/LoRaWAN/Mac/region/Region.c **** #define CN470_RX_BEACON_SETUP( )
 194:../../../../../../Middlewares/Third_Party/LoRaWAN/Mac/region/Region.c **** #endif
 195:../../../../../../Middlewares/Third_Party/LoRaWAN/Mac/region/Region.c **** 
 196:../../../../../../Middlewares/Third_Party/LoRaWAN/Mac/region/Region.c **** #ifdef REGION_CN779
 197:../../../../../../Middlewares/Third_Party/LoRaWAN/Mac/region/Region.c **** #include "RegionCN779.h"
 198:../../../../../../Middlewares/Third_Party/LoRaWAN/Mac/region/Region.c **** #define CN779_CASE                                 case LORAMAC_REGION_CN779:
 199:../../../../../../Middlewares/Third_Party/LoRaWAN/Mac/region/Region.c **** #define CN779_IS_ACTIVE( )                         CN779_CASE { return true; }
 200:../../../../../../Middlewares/Third_Party/LoRaWAN/Mac/region/Region.c **** #define CN779_GET_PHY_PARAM( )                     CN779_CASE { return RegionCN779GetPhyParam( getP
 201:../../../../../../Middlewares/Third_Party/LoRaWAN/Mac/region/Region.c **** #define CN779_SET_BAND_TX_DONE( )                  CN779_CASE { RegionCN779SetBandTxDone( txDone );
 202:../../../../../../Middlewares/Third_Party/LoRaWAN/Mac/region/Region.c **** #define CN779_INIT_DEFAULTS( )                     CN779_CASE { RegionCN779InitDefaults( params ); 
ARM GAS  C:\Users\EBANO_~1\AppData\Local\Temp\ccOSDu2a.s 			page 5


 203:../../../../../../Middlewares/Third_Party/LoRaWAN/Mac/region/Region.c **** #define CN779_GET_NVM_CTX( )                       CN779_CASE { return RegionCN779GetNvmCtx( params
 204:../../../../../../Middlewares/Third_Party/LoRaWAN/Mac/region/Region.c **** #define CN779_VERIFY( )                            CN779_CASE { return RegionCN779Verify( verify, p
 205:../../../../../../Middlewares/Third_Party/LoRaWAN/Mac/region/Region.c **** #define CN779_APPLY_CF_LIST( )                     CN779_CASE { RegionCN779ApplyCFList( applyCFList
 206:../../../../../../Middlewares/Third_Party/LoRaWAN/Mac/region/Region.c **** #define CN779_CHAN_MASK_SET( )                     CN779_CASE { return RegionCN779ChanMaskSet( chan
 207:../../../../../../Middlewares/Third_Party/LoRaWAN/Mac/region/Region.c **** #define CN779_COMPUTE_RX_WINDOW_PARAMETERS( )      CN779_CASE { RegionCN779ComputeRxWindowParameter
 208:../../../../../../Middlewares/Third_Party/LoRaWAN/Mac/region/Region.c **** #define CN779_RX_CONFIG( )                         CN779_CASE { return RegionCN779RxConfig( rxConfi
 209:../../../../../../Middlewares/Third_Party/LoRaWAN/Mac/region/Region.c **** #define CN779_TX_CONFIG( )                         CN779_CASE { return RegionCN779TxConfig( txConfi
 210:../../../../../../Middlewares/Third_Party/LoRaWAN/Mac/region/Region.c **** #define CN779_LINK_ADR_REQ( )                      CN779_CASE { return RegionCN779LinkAdrReq( linkA
 211:../../../../../../Middlewares/Third_Party/LoRaWAN/Mac/region/Region.c **** #define CN779_RX_PARAM_SETUP_REQ( )                CN779_CASE { return RegionCN779RxParamSetupReq( 
 212:../../../../../../Middlewares/Third_Party/LoRaWAN/Mac/region/Region.c **** #define CN779_NEW_CHANNEL_REQ( )                   CN779_CASE { return RegionCN779NewChannelReq( ne
 213:../../../../../../Middlewares/Third_Party/LoRaWAN/Mac/region/Region.c **** #define CN779_TX_PARAM_SETUP_REQ( )                CN779_CASE { return RegionCN779TxParamSetupReq( 
 214:../../../../../../Middlewares/Third_Party/LoRaWAN/Mac/region/Region.c **** #define CN779_DL_CHANNEL_REQ( )                    CN779_CASE { return RegionCN779DlChannelReq( dlC
 215:../../../../../../Middlewares/Third_Party/LoRaWAN/Mac/region/Region.c **** #define CN779_ALTERNATE_DR( )                      CN779_CASE { return RegionCN779AlternateDr( curr
 216:../../../../../../Middlewares/Third_Party/LoRaWAN/Mac/region/Region.c **** #define CN779_CALC_BACKOFF( )                      CN779_CASE { RegionCN779CalcBackOff( calcBackOff
 217:../../../../../../Middlewares/Third_Party/LoRaWAN/Mac/region/Region.c **** #define CN779_NEXT_CHANNEL( )                      CN779_CASE { return RegionCN779NextChannel( next
 218:../../../../../../Middlewares/Third_Party/LoRaWAN/Mac/region/Region.c **** #define CN779_CHANNEL_ADD( )                       CN779_CASE { return RegionCN779ChannelAdd( chann
 219:../../../../../../Middlewares/Third_Party/LoRaWAN/Mac/region/Region.c **** #define CN779_CHANNEL_REMOVE( )                    CN779_CASE { return RegionCN779ChannelsRemove( c
 220:../../../../../../Middlewares/Third_Party/LoRaWAN/Mac/region/Region.c **** #define CN779_SET_CONTINUOUS_WAVE( )               CN779_CASE { RegionCN779SetContinuousWave( conti
 221:../../../../../../Middlewares/Third_Party/LoRaWAN/Mac/region/Region.c **** #define CN779_APPLY_DR_OFFSET( )                   CN779_CASE { return RegionCN779ApplyDrOffset( do
 222:../../../../../../Middlewares/Third_Party/LoRaWAN/Mac/region/Region.c **** #define CN779_RX_BEACON_SETUP( )                   CN779_CASE { RegionCN779RxBeaconSetup( rxBeaconS
 223:../../../../../../Middlewares/Third_Party/LoRaWAN/Mac/region/Region.c **** #else
 224:../../../../../../Middlewares/Third_Party/LoRaWAN/Mac/region/Region.c **** #define CN779_IS_ACTIVE( )
 225:../../../../../../Middlewares/Third_Party/LoRaWAN/Mac/region/Region.c **** #define CN779_GET_PHY_PARAM( )
 226:../../../../../../Middlewares/Third_Party/LoRaWAN/Mac/region/Region.c **** #define CN779_SET_BAND_TX_DONE( )
 227:../../../../../../Middlewares/Third_Party/LoRaWAN/Mac/region/Region.c **** #define CN779_INIT_DEFAULTS( )
 228:../../../../../../Middlewares/Third_Party/LoRaWAN/Mac/region/Region.c **** #define CN779_GET_NVM_CTX( )
 229:../../../../../../Middlewares/Third_Party/LoRaWAN/Mac/region/Region.c **** #define CN779_VERIFY( )
 230:../../../../../../Middlewares/Third_Party/LoRaWAN/Mac/region/Region.c **** #define CN779_APPLY_CF_LIST( )
 231:../../../../../../Middlewares/Third_Party/LoRaWAN/Mac/region/Region.c **** #define CN779_CHAN_MASK_SET( )
 232:../../../../../../Middlewares/Third_Party/LoRaWAN/Mac/region/Region.c **** #define CN779_COMPUTE_RX_WINDOW_PARAMETERS( )
 233:../../../../../../Middlewares/Third_Party/LoRaWAN/Mac/region/Region.c **** #define CN779_RX_CONFIG( )
 234:../../../../../../Middlewares/Third_Party/LoRaWAN/Mac/region/Region.c **** #define CN779_TX_CONFIG( )
 235:../../../../../../Middlewares/Third_Party/LoRaWAN/Mac/region/Region.c **** #define CN779_LINK_ADR_REQ( )
 236:../../../../../../Middlewares/Third_Party/LoRaWAN/Mac/region/Region.c **** #define CN779_RX_PARAM_SETUP_REQ( )
 237:../../../../../../Middlewares/Third_Party/LoRaWAN/Mac/region/Region.c **** #define CN779_NEW_CHANNEL_REQ( )
 238:../../../../../../Middlewares/Third_Party/LoRaWAN/Mac/region/Region.c **** #define CN779_TX_PARAM_SETUP_REQ( )
 239:../../../../../../Middlewares/Third_Party/LoRaWAN/Mac/region/Region.c **** #define CN779_DL_CHANNEL_REQ( )
 240:../../../../../../Middlewares/Third_Party/LoRaWAN/Mac/region/Region.c **** #define CN779_ALTERNATE_DR( )
 241:../../../../../../Middlewares/Third_Party/LoRaWAN/Mac/region/Region.c **** #define CN779_CALC_BACKOFF( )
 242:../../../../../../Middlewares/Third_Party/LoRaWAN/Mac/region/Region.c **** #define CN779_NEXT_CHANNEL( )
 243:../../../../../../Middlewares/Third_Party/LoRaWAN/Mac/region/Region.c **** #define CN779_CHANNEL_ADD( )
 244:../../../../../../Middlewares/Third_Party/LoRaWAN/Mac/region/Region.c **** #define CN779_CHANNEL_REMOVE( )
 245:../../../../../../Middlewares/Third_Party/LoRaWAN/Mac/region/Region.c **** #define CN779_SET_CONTINUOUS_WAVE( )
 246:../../../../../../Middlewares/Third_Party/LoRaWAN/Mac/region/Region.c **** #define CN779_APPLY_DR_OFFSET( )
 247:../../../../../../Middlewares/Third_Party/LoRaWAN/Mac/region/Region.c **** #define CN779_RX_BEACON_SETUP( )
 248:../../../../../../Middlewares/Third_Party/LoRaWAN/Mac/region/Region.c **** #endif
 249:../../../../../../Middlewares/Third_Party/LoRaWAN/Mac/region/Region.c **** 
 250:../../../../../../Middlewares/Third_Party/LoRaWAN/Mac/region/Region.c **** #ifdef REGION_EU433
 251:../../../../../../Middlewares/Third_Party/LoRaWAN/Mac/region/Region.c **** #include "RegionEU433.h"
 252:../../../../../../Middlewares/Third_Party/LoRaWAN/Mac/region/Region.c **** #define EU433_CASE                                 case LORAMAC_REGION_EU433:
 253:../../../../../../Middlewares/Third_Party/LoRaWAN/Mac/region/Region.c **** #define EU433_IS_ACTIVE( )                         EU433_CASE { return true; }
 254:../../../../../../Middlewares/Third_Party/LoRaWAN/Mac/region/Region.c **** #define EU433_GET_PHY_PARAM( )                     EU433_CASE { return RegionEU433GetPhyParam( getP
 255:../../../../../../Middlewares/Third_Party/LoRaWAN/Mac/region/Region.c **** #define EU433_SET_BAND_TX_DONE( )                  EU433_CASE { RegionEU433SetBandTxDone( txDone );
 256:../../../../../../Middlewares/Third_Party/LoRaWAN/Mac/region/Region.c **** #define EU433_INIT_DEFAULTS( )                     EU433_CASE { RegionEU433InitDefaults( params ); 
 257:../../../../../../Middlewares/Third_Party/LoRaWAN/Mac/region/Region.c **** #define EU433_GET_NVM_CTX( )                       EU433_CASE { return RegionEU433GetNvmCtx( params
 258:../../../../../../Middlewares/Third_Party/LoRaWAN/Mac/region/Region.c **** #define EU433_VERIFY( )                            EU433_CASE { return RegionEU433Verify( verify, p
 259:../../../../../../Middlewares/Third_Party/LoRaWAN/Mac/region/Region.c **** #define EU433_APPLY_CF_LIST( )                     EU433_CASE { RegionEU433ApplyCFList( applyCFList
ARM GAS  C:\Users\EBANO_~1\AppData\Local\Temp\ccOSDu2a.s 			page 6


 260:../../../../../../Middlewares/Third_Party/LoRaWAN/Mac/region/Region.c **** #define EU433_CHAN_MASK_SET( )                     EU433_CASE { return RegionEU433ChanMaskSet( chan
 261:../../../../../../Middlewares/Third_Party/LoRaWAN/Mac/region/Region.c **** #define EU433_COMPUTE_RX_WINDOW_PARAMETERS( )      EU433_CASE { RegionEU433ComputeRxWindowParameter
 262:../../../../../../Middlewares/Third_Party/LoRaWAN/Mac/region/Region.c **** #define EU433_RX_CONFIG( )                         EU433_CASE { return RegionEU433RxConfig( rxConfi
 263:../../../../../../Middlewares/Third_Party/LoRaWAN/Mac/region/Region.c **** #define EU433_TX_CONFIG( )                         EU433_CASE { return RegionEU433TxConfig( txConfi
 264:../../../../../../Middlewares/Third_Party/LoRaWAN/Mac/region/Region.c **** #define EU433_LINK_ADR_REQ( )                      EU433_CASE { return RegionEU433LinkAdrReq( linkA
 265:../../../../../../Middlewares/Third_Party/LoRaWAN/Mac/region/Region.c **** #define EU433_RX_PARAM_SETUP_REQ( )                EU433_CASE { return RegionEU433RxParamSetupReq( 
 266:../../../../../../Middlewares/Third_Party/LoRaWAN/Mac/region/Region.c **** #define EU433_NEW_CHANNEL_REQ( )                   EU433_CASE { return RegionEU433NewChannelReq( ne
 267:../../../../../../Middlewares/Third_Party/LoRaWAN/Mac/region/Region.c **** #define EU433_TX_PARAM_SETUP_REQ( )                EU433_CASE { return RegionEU433TxParamSetupReq( 
 268:../../../../../../Middlewares/Third_Party/LoRaWAN/Mac/region/Region.c **** #define EU433_DL_CHANNEL_REQ( )                    EU433_CASE { return RegionEU433DlChannelReq( dlC
 269:../../../../../../Middlewares/Third_Party/LoRaWAN/Mac/region/Region.c **** #define EU433_ALTERNATE_DR( )                      EU433_CASE { return RegionEU433AlternateDr( curr
 270:../../../../../../Middlewares/Third_Party/LoRaWAN/Mac/region/Region.c **** #define EU433_CALC_BACKOFF( )                      EU433_CASE { RegionEU433CalcBackOff( calcBackOff
 271:../../../../../../Middlewares/Third_Party/LoRaWAN/Mac/region/Region.c **** #define EU433_NEXT_CHANNEL( )                      EU433_CASE { return RegionEU433NextChannel( next
 272:../../../../../../Middlewares/Third_Party/LoRaWAN/Mac/region/Region.c **** #define EU433_CHANNEL_ADD( )                       EU433_CASE { return RegionEU433ChannelAdd( chann
 273:../../../../../../Middlewares/Third_Party/LoRaWAN/Mac/region/Region.c **** #define EU433_CHANNEL_REMOVE( )                    EU433_CASE { return RegionEU433ChannelsRemove( c
 274:../../../../../../Middlewares/Third_Party/LoRaWAN/Mac/region/Region.c **** #define EU433_SET_CONTINUOUS_WAVE( )               EU433_CASE { RegionEU433SetContinuousWave( conti
 275:../../../../../../Middlewares/Third_Party/LoRaWAN/Mac/region/Region.c **** #define EU433_APPLY_DR_OFFSET( )                   EU433_CASE { return RegionEU433ApplyDrOffset( do
 276:../../../../../../Middlewares/Third_Party/LoRaWAN/Mac/region/Region.c **** #define EU433_RX_BEACON_SETUP( )                   EU433_CASE { RegionEU433RxBeaconSetup( rxBeaconS
 277:../../../../../../Middlewares/Third_Party/LoRaWAN/Mac/region/Region.c **** #else
 278:../../../../../../Middlewares/Third_Party/LoRaWAN/Mac/region/Region.c **** #define EU433_IS_ACTIVE( )
 279:../../../../../../Middlewares/Third_Party/LoRaWAN/Mac/region/Region.c **** #define EU433_GET_PHY_PARAM( )
 280:../../../../../../Middlewares/Third_Party/LoRaWAN/Mac/region/Region.c **** #define EU433_SET_BAND_TX_DONE( )
 281:../../../../../../Middlewares/Third_Party/LoRaWAN/Mac/region/Region.c **** #define EU433_INIT_DEFAULTS( )
 282:../../../../../../Middlewares/Third_Party/LoRaWAN/Mac/region/Region.c **** #define EU433_GET_NVM_CTX( )
 283:../../../../../../Middlewares/Third_Party/LoRaWAN/Mac/region/Region.c **** #define EU433_VERIFY( )
 284:../../../../../../Middlewares/Third_Party/LoRaWAN/Mac/region/Region.c **** #define EU433_APPLY_CF_LIST( )
 285:../../../../../../Middlewares/Third_Party/LoRaWAN/Mac/region/Region.c **** #define EU433_CHAN_MASK_SET( )
 286:../../../../../../Middlewares/Third_Party/LoRaWAN/Mac/region/Region.c **** #define EU433_COMPUTE_RX_WINDOW_PARAMETERS( )
 287:../../../../../../Middlewares/Third_Party/LoRaWAN/Mac/region/Region.c **** #define EU433_RX_CONFIG( )
 288:../../../../../../Middlewares/Third_Party/LoRaWAN/Mac/region/Region.c **** #define EU433_TX_CONFIG( )
 289:../../../../../../Middlewares/Third_Party/LoRaWAN/Mac/region/Region.c **** #define EU433_LINK_ADR_REQ( )
 290:../../../../../../Middlewares/Third_Party/LoRaWAN/Mac/region/Region.c **** #define EU433_RX_PARAM_SETUP_REQ( )
 291:../../../../../../Middlewares/Third_Party/LoRaWAN/Mac/region/Region.c **** #define EU433_NEW_CHANNEL_REQ( )
 292:../../../../../../Middlewares/Third_Party/LoRaWAN/Mac/region/Region.c **** #define EU433_TX_PARAM_SETUP_REQ( )
 293:../../../../../../Middlewares/Third_Party/LoRaWAN/Mac/region/Region.c **** #define EU433_DL_CHANNEL_REQ( )
 294:../../../../../../Middlewares/Third_Party/LoRaWAN/Mac/region/Region.c **** #define EU433_ALTERNATE_DR( )
 295:../../../../../../Middlewares/Third_Party/LoRaWAN/Mac/region/Region.c **** #define EU433_CALC_BACKOFF( )
 296:../../../../../../Middlewares/Third_Party/LoRaWAN/Mac/region/Region.c **** #define EU433_NEXT_CHANNEL( )
 297:../../../../../../Middlewares/Third_Party/LoRaWAN/Mac/region/Region.c **** #define EU433_CHANNEL_ADD( )
 298:../../../../../../Middlewares/Third_Party/LoRaWAN/Mac/region/Region.c **** #define EU433_CHANNEL_REMOVE( )
 299:../../../../../../Middlewares/Third_Party/LoRaWAN/Mac/region/Region.c **** #define EU433_SET_CONTINUOUS_WAVE( )
 300:../../../../../../Middlewares/Third_Party/LoRaWAN/Mac/region/Region.c **** #define EU433_APPLY_DR_OFFSET( )
 301:../../../../../../Middlewares/Third_Party/LoRaWAN/Mac/region/Region.c **** #define EU433_RX_BEACON_SETUP( )
 302:../../../../../../Middlewares/Third_Party/LoRaWAN/Mac/region/Region.c **** #endif
 303:../../../../../../Middlewares/Third_Party/LoRaWAN/Mac/region/Region.c **** 
 304:../../../../../../Middlewares/Third_Party/LoRaWAN/Mac/region/Region.c **** #ifdef REGION_EU868
 305:../../../../../../Middlewares/Third_Party/LoRaWAN/Mac/region/Region.c **** #include "RegionEU868.h"
 306:../../../../../../Middlewares/Third_Party/LoRaWAN/Mac/region/Region.c **** #define EU868_CASE                                 case LORAMAC_REGION_EU868:
 307:../../../../../../Middlewares/Third_Party/LoRaWAN/Mac/region/Region.c **** #define EU868_IS_ACTIVE( )                         EU868_CASE { return true; }
 308:../../../../../../Middlewares/Third_Party/LoRaWAN/Mac/region/Region.c **** #define EU868_GET_PHY_PARAM( )                     EU868_CASE { return RegionEU868GetPhyParam( getP
 309:../../../../../../Middlewares/Third_Party/LoRaWAN/Mac/region/Region.c **** #define EU868_SET_BAND_TX_DONE( )                  EU868_CASE { RegionEU868SetBandTxDone( txDone );
 310:../../../../../../Middlewares/Third_Party/LoRaWAN/Mac/region/Region.c **** #define EU868_INIT_DEFAULTS( )                     EU868_CASE { RegionEU868InitDefaults( params ); 
 311:../../../../../../Middlewares/Third_Party/LoRaWAN/Mac/region/Region.c **** #define EU868_GET_NVM_CTX( )                       EU868_CASE { return RegionEU868GetNvmCtx( params
 312:../../../../../../Middlewares/Third_Party/LoRaWAN/Mac/region/Region.c **** #define EU868_VERIFY( )                            EU868_CASE { return RegionEU868Verify( verify, p
 313:../../../../../../Middlewares/Third_Party/LoRaWAN/Mac/region/Region.c **** #define EU868_APPLY_CF_LIST( )                     EU868_CASE { RegionEU868ApplyCFList( applyCFList
 314:../../../../../../Middlewares/Third_Party/LoRaWAN/Mac/region/Region.c **** #define EU868_CHAN_MASK_SET( )                     EU868_CASE { return RegionEU868ChanMaskSet( chan
 315:../../../../../../Middlewares/Third_Party/LoRaWAN/Mac/region/Region.c **** #define EU868_COMPUTE_RX_WINDOW_PARAMETERS( )      EU868_CASE { RegionEU868ComputeRxWindowParameter
 316:../../../../../../Middlewares/Third_Party/LoRaWAN/Mac/region/Region.c **** #define EU868_RX_CONFIG( )                         EU868_CASE { return RegionEU868RxConfig( rxConfi
ARM GAS  C:\Users\EBANO_~1\AppData\Local\Temp\ccOSDu2a.s 			page 7


 317:../../../../../../Middlewares/Third_Party/LoRaWAN/Mac/region/Region.c **** #define EU868_TX_CONFIG( )                         EU868_CASE { return RegionEU868TxConfig( txConfi
 318:../../../../../../Middlewares/Third_Party/LoRaWAN/Mac/region/Region.c **** #define EU868_LINK_ADR_REQ( )                      EU868_CASE { return RegionEU868LinkAdrReq( linkA
 319:../../../../../../Middlewares/Third_Party/LoRaWAN/Mac/region/Region.c **** #define EU868_RX_PARAM_SETUP_REQ( )                EU868_CASE { return RegionEU868RxParamSetupReq( 
 320:../../../../../../Middlewares/Third_Party/LoRaWAN/Mac/region/Region.c **** #define EU868_NEW_CHANNEL_REQ( )                   EU868_CASE { return RegionEU868NewChannelReq( ne
 321:../../../../../../Middlewares/Third_Party/LoRaWAN/Mac/region/Region.c **** #define EU868_TX_PARAM_SETUP_REQ( )                EU868_CASE { return RegionEU868TxParamSetupReq( 
 322:../../../../../../Middlewares/Third_Party/LoRaWAN/Mac/region/Region.c **** #define EU868_DL_CHANNEL_REQ( )                    EU868_CASE { return RegionEU868DlChannelReq( dlC
 323:../../../../../../Middlewares/Third_Party/LoRaWAN/Mac/region/Region.c **** #define EU868_ALTERNATE_DR( )                      EU868_CASE { return RegionEU868AlternateDr( curr
 324:../../../../../../Middlewares/Third_Party/LoRaWAN/Mac/region/Region.c **** #define EU868_CALC_BACKOFF( )                      EU868_CASE { RegionEU868CalcBackOff( calcBackOff
 325:../../../../../../Middlewares/Third_Party/LoRaWAN/Mac/region/Region.c **** #define EU868_NEXT_CHANNEL( )                      EU868_CASE { return RegionEU868NextChannel( next
 326:../../../../../../Middlewares/Third_Party/LoRaWAN/Mac/region/Region.c **** #define EU868_CHANNEL_ADD( )                       EU868_CASE { return RegionEU868ChannelAdd( chann
 327:../../../../../../Middlewares/Third_Party/LoRaWAN/Mac/region/Region.c **** #define EU868_CHANNEL_REMOVE( )                    EU868_CASE { return RegionEU868ChannelsRemove( c
 328:../../../../../../Middlewares/Third_Party/LoRaWAN/Mac/region/Region.c **** #define EU868_SET_CONTINUOUS_WAVE( )               EU868_CASE { RegionEU868SetContinuousWave( conti
 329:../../../../../../Middlewares/Third_Party/LoRaWAN/Mac/region/Region.c **** #define EU868_APPLY_DR_OFFSET( )                   EU868_CASE { return RegionEU868ApplyDrOffset( do
 330:../../../../../../Middlewares/Third_Party/LoRaWAN/Mac/region/Region.c **** #define EU868_RX_BEACON_SETUP( )                   EU868_CASE { RegionEU868RxBeaconSetup( rxBeaconS
 331:../../../../../../Middlewares/Third_Party/LoRaWAN/Mac/region/Region.c **** #else
 332:../../../../../../Middlewares/Third_Party/LoRaWAN/Mac/region/Region.c **** #define EU868_IS_ACTIVE( )
 333:../../../../../../Middlewares/Third_Party/LoRaWAN/Mac/region/Region.c **** #define EU868_GET_PHY_PARAM( )
 334:../../../../../../Middlewares/Third_Party/LoRaWAN/Mac/region/Region.c **** #define EU868_SET_BAND_TX_DONE( )
 335:../../../../../../Middlewares/Third_Party/LoRaWAN/Mac/region/Region.c **** #define EU868_INIT_DEFAULTS( )
 336:../../../../../../Middlewares/Third_Party/LoRaWAN/Mac/region/Region.c **** #define EU868_GET_NVM_CTX( )
 337:../../../../../../Middlewares/Third_Party/LoRaWAN/Mac/region/Region.c **** #define EU868_VERIFY( )
 338:../../../../../../Middlewares/Third_Party/LoRaWAN/Mac/region/Region.c **** #define EU868_APPLY_CF_LIST( )
 339:../../../../../../Middlewares/Third_Party/LoRaWAN/Mac/region/Region.c **** #define EU868_CHAN_MASK_SET( )
 340:../../../../../../Middlewares/Third_Party/LoRaWAN/Mac/region/Region.c **** #define EU868_COMPUTE_RX_WINDOW_PARAMETERS( )
 341:../../../../../../Middlewares/Third_Party/LoRaWAN/Mac/region/Region.c **** #define EU868_RX_CONFIG( )
 342:../../../../../../Middlewares/Third_Party/LoRaWAN/Mac/region/Region.c **** #define EU868_TX_CONFIG( )
 343:../../../../../../Middlewares/Third_Party/LoRaWAN/Mac/region/Region.c **** #define EU868_LINK_ADR_REQ( )
 344:../../../../../../Middlewares/Third_Party/LoRaWAN/Mac/region/Region.c **** #define EU868_RX_PARAM_SETUP_REQ( )
 345:../../../../../../Middlewares/Third_Party/LoRaWAN/Mac/region/Region.c **** #define EU868_NEW_CHANNEL_REQ( )
 346:../../../../../../Middlewares/Third_Party/LoRaWAN/Mac/region/Region.c **** #define EU868_TX_PARAM_SETUP_REQ( )
 347:../../../../../../Middlewares/Third_Party/LoRaWAN/Mac/region/Region.c **** #define EU868_DL_CHANNEL_REQ( )
 348:../../../../../../Middlewares/Third_Party/LoRaWAN/Mac/region/Region.c **** #define EU868_ALTERNATE_DR( )
 349:../../../../../../Middlewares/Third_Party/LoRaWAN/Mac/region/Region.c **** #define EU868_CALC_BACKOFF( )
 350:../../../../../../Middlewares/Third_Party/LoRaWAN/Mac/region/Region.c **** #define EU868_NEXT_CHANNEL( )
 351:../../../../../../Middlewares/Third_Party/LoRaWAN/Mac/region/Region.c **** #define EU868_CHANNEL_ADD( )
 352:../../../../../../Middlewares/Third_Party/LoRaWAN/Mac/region/Region.c **** #define EU868_CHANNEL_REMOVE( )
 353:../../../../../../Middlewares/Third_Party/LoRaWAN/Mac/region/Region.c **** #define EU868_SET_CONTINUOUS_WAVE( )
 354:../../../../../../Middlewares/Third_Party/LoRaWAN/Mac/region/Region.c **** #define EU868_APPLY_DR_OFFSET( )
 355:../../../../../../Middlewares/Third_Party/LoRaWAN/Mac/region/Region.c **** #define EU868_RX_BEACON_SETUP( )
 356:../../../../../../Middlewares/Third_Party/LoRaWAN/Mac/region/Region.c **** #endif
 357:../../../../../../Middlewares/Third_Party/LoRaWAN/Mac/region/Region.c **** 
 358:../../../../../../Middlewares/Third_Party/LoRaWAN/Mac/region/Region.c **** #ifdef REGION_KR920
 359:../../../../../../Middlewares/Third_Party/LoRaWAN/Mac/region/Region.c **** #include "RegionKR920.h"
 360:../../../../../../Middlewares/Third_Party/LoRaWAN/Mac/region/Region.c **** #define KR920_CASE                                 case LORAMAC_REGION_KR920:
 361:../../../../../../Middlewares/Third_Party/LoRaWAN/Mac/region/Region.c **** #define KR920_IS_ACTIVE( )                         KR920_CASE { return true; }
 362:../../../../../../Middlewares/Third_Party/LoRaWAN/Mac/region/Region.c **** #define KR920_GET_PHY_PARAM( )                     KR920_CASE { return RegionKR920GetPhyParam( getP
 363:../../../../../../Middlewares/Third_Party/LoRaWAN/Mac/region/Region.c **** #define KR920_SET_BAND_TX_DONE( )                  KR920_CASE { RegionKR920SetBandTxDone( txDone );
 364:../../../../../../Middlewares/Third_Party/LoRaWAN/Mac/region/Region.c **** #define KR920_INIT_DEFAULTS( )                     KR920_CASE { RegionKR920InitDefaults( params ); 
 365:../../../../../../Middlewares/Third_Party/LoRaWAN/Mac/region/Region.c **** #define KR920_GET_NVM_CTX( )                       KR920_CASE { return RegionKR920GetNvmCtx( params
 366:../../../../../../Middlewares/Third_Party/LoRaWAN/Mac/region/Region.c **** #define KR920_VERIFY( )                            KR920_CASE { return RegionKR920Verify( verify, p
 367:../../../../../../Middlewares/Third_Party/LoRaWAN/Mac/region/Region.c **** #define KR920_APPLY_CF_LIST( )                     KR920_CASE { RegionKR920ApplyCFList( applyCFList
 368:../../../../../../Middlewares/Third_Party/LoRaWAN/Mac/region/Region.c **** #define KR920_CHAN_MASK_SET( )                     KR920_CASE { return RegionKR920ChanMaskSet( chan
 369:../../../../../../Middlewares/Third_Party/LoRaWAN/Mac/region/Region.c **** #define KR920_COMPUTE_RX_WINDOW_PARAMETERS( )      KR920_CASE { RegionKR920ComputeRxWindowParameter
 370:../../../../../../Middlewares/Third_Party/LoRaWAN/Mac/region/Region.c **** #define KR920_RX_CONFIG( )                         KR920_CASE { return RegionKR920RxConfig( rxConfi
 371:../../../../../../Middlewares/Third_Party/LoRaWAN/Mac/region/Region.c **** #define KR920_TX_CONFIG( )                         KR920_CASE { return RegionKR920TxConfig( txConfi
 372:../../../../../../Middlewares/Third_Party/LoRaWAN/Mac/region/Region.c **** #define KR920_LINK_ADR_REQ( )                      KR920_CASE { return RegionKR920LinkAdrReq( linkA
 373:../../../../../../Middlewares/Third_Party/LoRaWAN/Mac/region/Region.c **** #define KR920_RX_PARAM_SETUP_REQ( )                KR920_CASE { return RegionKR920RxParamSetupReq( 
ARM GAS  C:\Users\EBANO_~1\AppData\Local\Temp\ccOSDu2a.s 			page 8


 374:../../../../../../Middlewares/Third_Party/LoRaWAN/Mac/region/Region.c **** #define KR920_NEW_CHANNEL_REQ( )                   KR920_CASE { return RegionKR920NewChannelReq( ne
 375:../../../../../../Middlewares/Third_Party/LoRaWAN/Mac/region/Region.c **** #define KR920_TX_PARAM_SETUP_REQ( )                KR920_CASE { return RegionKR920TxParamSetupReq( 
 376:../../../../../../Middlewares/Third_Party/LoRaWAN/Mac/region/Region.c **** #define KR920_DL_CHANNEL_REQ( )                    KR920_CASE { return RegionKR920DlChannelReq( dlC
 377:../../../../../../Middlewares/Third_Party/LoRaWAN/Mac/region/Region.c **** #define KR920_ALTERNATE_DR( )                      KR920_CASE { return RegionKR920AlternateDr( curr
 378:../../../../../../Middlewares/Third_Party/LoRaWAN/Mac/region/Region.c **** #define KR920_CALC_BACKOFF( )                      KR920_CASE { RegionKR920CalcBackOff( calcBackOff
 379:../../../../../../Middlewares/Third_Party/LoRaWAN/Mac/region/Region.c **** #define KR920_NEXT_CHANNEL( )                      KR920_CASE { return RegionKR920NextChannel( next
 380:../../../../../../Middlewares/Third_Party/LoRaWAN/Mac/region/Region.c **** #define KR920_CHANNEL_ADD( )                       KR920_CASE { return RegionKR920ChannelAdd( chann
 381:../../../../../../Middlewares/Third_Party/LoRaWAN/Mac/region/Region.c **** #define KR920_CHANNEL_REMOVE( )                    KR920_CASE { return RegionKR920ChannelsRemove( c
 382:../../../../../../Middlewares/Third_Party/LoRaWAN/Mac/region/Region.c **** #define KR920_SET_CONTINUOUS_WAVE( )               KR920_CASE { RegionKR920SetContinuousWave( conti
 383:../../../../../../Middlewares/Third_Party/LoRaWAN/Mac/region/Region.c **** #define KR920_APPLY_DR_OFFSET( )                   KR920_CASE { return RegionKR920ApplyDrOffset( do
 384:../../../../../../Middlewares/Third_Party/LoRaWAN/Mac/region/Region.c **** #define KR920_RX_BEACON_SETUP( )                   KR920_CASE { RegionKR920RxBeaconSetup( rxBeaconS
 385:../../../../../../Middlewares/Third_Party/LoRaWAN/Mac/region/Region.c **** #else
 386:../../../../../../Middlewares/Third_Party/LoRaWAN/Mac/region/Region.c **** #define KR920_IS_ACTIVE( )
 387:../../../../../../Middlewares/Third_Party/LoRaWAN/Mac/region/Region.c **** #define KR920_GET_PHY_PARAM( )
 388:../../../../../../Middlewares/Third_Party/LoRaWAN/Mac/region/Region.c **** #define KR920_SET_BAND_TX_DONE( )
 389:../../../../../../Middlewares/Third_Party/LoRaWAN/Mac/region/Region.c **** #define KR920_INIT_DEFAULTS( )
 390:../../../../../../Middlewares/Third_Party/LoRaWAN/Mac/region/Region.c **** #define KR920_GET_NVM_CTX( )
 391:../../../../../../Middlewares/Third_Party/LoRaWAN/Mac/region/Region.c **** #define KR920_VERIFY( )
 392:../../../../../../Middlewares/Third_Party/LoRaWAN/Mac/region/Region.c **** #define KR920_APPLY_CF_LIST( )
 393:../../../../../../Middlewares/Third_Party/LoRaWAN/Mac/region/Region.c **** #define KR920_CHAN_MASK_SET( )
 394:../../../../../../Middlewares/Third_Party/LoRaWAN/Mac/region/Region.c **** #define KR920_COMPUTE_RX_WINDOW_PARAMETERS( )
 395:../../../../../../Middlewares/Third_Party/LoRaWAN/Mac/region/Region.c **** #define KR920_RX_CONFIG( )
 396:../../../../../../Middlewares/Third_Party/LoRaWAN/Mac/region/Region.c **** #define KR920_TX_CONFIG( )
 397:../../../../../../Middlewares/Third_Party/LoRaWAN/Mac/region/Region.c **** #define KR920_LINK_ADR_REQ( )
 398:../../../../../../Middlewares/Third_Party/LoRaWAN/Mac/region/Region.c **** #define KR920_RX_PARAM_SETUP_REQ( )
 399:../../../../../../Middlewares/Third_Party/LoRaWAN/Mac/region/Region.c **** #define KR920_NEW_CHANNEL_REQ( )
 400:../../../../../../Middlewares/Third_Party/LoRaWAN/Mac/region/Region.c **** #define KR920_TX_PARAM_SETUP_REQ( )
 401:../../../../../../Middlewares/Third_Party/LoRaWAN/Mac/region/Region.c **** #define KR920_DL_CHANNEL_REQ( )
 402:../../../../../../Middlewares/Third_Party/LoRaWAN/Mac/region/Region.c **** #define KR920_ALTERNATE_DR( )
 403:../../../../../../Middlewares/Third_Party/LoRaWAN/Mac/region/Region.c **** #define KR920_CALC_BACKOFF( )
 404:../../../../../../Middlewares/Third_Party/LoRaWAN/Mac/region/Region.c **** #define KR920_NEXT_CHANNEL( )
 405:../../../../../../Middlewares/Third_Party/LoRaWAN/Mac/region/Region.c **** #define KR920_CHANNEL_ADD( )
 406:../../../../../../Middlewares/Third_Party/LoRaWAN/Mac/region/Region.c **** #define KR920_CHANNEL_REMOVE( )
 407:../../../../../../Middlewares/Third_Party/LoRaWAN/Mac/region/Region.c **** #define KR920_SET_CONTINUOUS_WAVE( )
 408:../../../../../../Middlewares/Third_Party/LoRaWAN/Mac/region/Region.c **** #define KR920_APPLY_DR_OFFSET( )
 409:../../../../../../Middlewares/Third_Party/LoRaWAN/Mac/region/Region.c **** #define KR920_RX_BEACON_SETUP( )
 410:../../../../../../Middlewares/Third_Party/LoRaWAN/Mac/region/Region.c **** #endif
 411:../../../../../../Middlewares/Third_Party/LoRaWAN/Mac/region/Region.c **** 
 412:../../../../../../Middlewares/Third_Party/LoRaWAN/Mac/region/Region.c **** #ifdef REGION_IN865
 413:../../../../../../Middlewares/Third_Party/LoRaWAN/Mac/region/Region.c **** #include "RegionIN865.h"
 414:../../../../../../Middlewares/Third_Party/LoRaWAN/Mac/region/Region.c **** #define IN865_CASE                                 case LORAMAC_REGION_IN865:
 415:../../../../../../Middlewares/Third_Party/LoRaWAN/Mac/region/Region.c **** #define IN865_IS_ACTIVE( )                         IN865_CASE { return true; }
 416:../../../../../../Middlewares/Third_Party/LoRaWAN/Mac/region/Region.c **** #define IN865_GET_PHY_PARAM( )                     IN865_CASE { return RegionIN865GetPhyParam( getP
 417:../../../../../../Middlewares/Third_Party/LoRaWAN/Mac/region/Region.c **** #define IN865_SET_BAND_TX_DONE( )                  IN865_CASE { RegionIN865SetBandTxDone( txDone );
 418:../../../../../../Middlewares/Third_Party/LoRaWAN/Mac/region/Region.c **** #define IN865_INIT_DEFAULTS( )                     IN865_CASE { RegionIN865InitDefaults( params ); 
 419:../../../../../../Middlewares/Third_Party/LoRaWAN/Mac/region/Region.c **** #define IN865_GET_NVM_CTX( )                       IN865_CASE { return RegionIN865GetNvmCtx( params
 420:../../../../../../Middlewares/Third_Party/LoRaWAN/Mac/region/Region.c **** #define IN865_VERIFY( )                            IN865_CASE { return RegionIN865Verify( verify, p
 421:../../../../../../Middlewares/Third_Party/LoRaWAN/Mac/region/Region.c **** #define IN865_APPLY_CF_LIST( )                     IN865_CASE { RegionIN865ApplyCFList( applyCFList
 422:../../../../../../Middlewares/Third_Party/LoRaWAN/Mac/region/Region.c **** #define IN865_CHAN_MASK_SET( )                     IN865_CASE { return RegionIN865ChanMaskSet( chan
 423:../../../../../../Middlewares/Third_Party/LoRaWAN/Mac/region/Region.c **** #define IN865_COMPUTE_RX_WINDOW_PARAMETERS( )      IN865_CASE { RegionIN865ComputeRxWindowParameter
 424:../../../../../../Middlewares/Third_Party/LoRaWAN/Mac/region/Region.c **** #define IN865_RX_CONFIG( )                         IN865_CASE { return RegionIN865RxConfig( rxConfi
 425:../../../../../../Middlewares/Third_Party/LoRaWAN/Mac/region/Region.c **** #define IN865_TX_CONFIG( )                         IN865_CASE { return RegionIN865TxConfig( txConfi
 426:../../../../../../Middlewares/Third_Party/LoRaWAN/Mac/region/Region.c **** #define IN865_LINK_ADR_REQ( )                      IN865_CASE { return RegionIN865LinkAdrReq( linkA
 427:../../../../../../Middlewares/Third_Party/LoRaWAN/Mac/region/Region.c **** #define IN865_RX_PARAM_SETUP_REQ( )                IN865_CASE { return RegionIN865RxParamSetupReq( 
 428:../../../../../../Middlewares/Third_Party/LoRaWAN/Mac/region/Region.c **** #define IN865_NEW_CHANNEL_REQ( )                   IN865_CASE { return RegionIN865NewChannelReq( ne
 429:../../../../../../Middlewares/Third_Party/LoRaWAN/Mac/region/Region.c **** #define IN865_TX_PARAM_SETUP_REQ( )                IN865_CASE { return RegionIN865TxParamSetupReq( 
 430:../../../../../../Middlewares/Third_Party/LoRaWAN/Mac/region/Region.c **** #define IN865_DL_CHANNEL_REQ( )                    IN865_CASE { return RegionIN865DlChannelReq( dlC
ARM GAS  C:\Users\EBANO_~1\AppData\Local\Temp\ccOSDu2a.s 			page 9


 431:../../../../../../Middlewares/Third_Party/LoRaWAN/Mac/region/Region.c **** #define IN865_ALTERNATE_DR( )                      IN865_CASE { return RegionIN865AlternateDr( curr
 432:../../../../../../Middlewares/Third_Party/LoRaWAN/Mac/region/Region.c **** #define IN865_CALC_BACKOFF( )                      IN865_CASE { RegionIN865CalcBackOff( calcBackOff
 433:../../../../../../Middlewares/Third_Party/LoRaWAN/Mac/region/Region.c **** #define IN865_NEXT_CHANNEL( )                      IN865_CASE { return RegionIN865NextChannel( next
 434:../../../../../../Middlewares/Third_Party/LoRaWAN/Mac/region/Region.c **** #define IN865_CHANNEL_ADD( )                       IN865_CASE { return RegionIN865ChannelAdd( chann
 435:../../../../../../Middlewares/Third_Party/LoRaWAN/Mac/region/Region.c **** #define IN865_CHANNEL_REMOVE( )                    IN865_CASE { return RegionIN865ChannelsRemove( c
 436:../../../../../../Middlewares/Third_Party/LoRaWAN/Mac/region/Region.c **** #define IN865_SET_CONTINUOUS_WAVE( )               IN865_CASE { RegionIN865SetContinuousWave( conti
 437:../../../../../../Middlewares/Third_Party/LoRaWAN/Mac/region/Region.c **** #define IN865_APPLY_DR_OFFSET( )                   IN865_CASE { return RegionIN865ApplyDrOffset( do
 438:../../../../../../Middlewares/Third_Party/LoRaWAN/Mac/region/Region.c **** #define IN865_RX_BEACON_SETUP( )                   IN865_CASE { RegionIN865RxBeaconSetup( rxBeaconS
 439:../../../../../../Middlewares/Third_Party/LoRaWAN/Mac/region/Region.c **** #else
 440:../../../../../../Middlewares/Third_Party/LoRaWAN/Mac/region/Region.c **** #define IN865_IS_ACTIVE( )
 441:../../../../../../Middlewares/Third_Party/LoRaWAN/Mac/region/Region.c **** #define IN865_GET_PHY_PARAM( )
 442:../../../../../../Middlewares/Third_Party/LoRaWAN/Mac/region/Region.c **** #define IN865_SET_BAND_TX_DONE( )
 443:../../../../../../Middlewares/Third_Party/LoRaWAN/Mac/region/Region.c **** #define IN865_INIT_DEFAULTS( )
 444:../../../../../../Middlewares/Third_Party/LoRaWAN/Mac/region/Region.c **** #define IN865_GET_NVM_CTX( )
 445:../../../../../../Middlewares/Third_Party/LoRaWAN/Mac/region/Region.c **** #define IN865_VERIFY( )
 446:../../../../../../Middlewares/Third_Party/LoRaWAN/Mac/region/Region.c **** #define IN865_APPLY_CF_LIST( )
 447:../../../../../../Middlewares/Third_Party/LoRaWAN/Mac/region/Region.c **** #define IN865_CHAN_MASK_SET( )
 448:../../../../../../Middlewares/Third_Party/LoRaWAN/Mac/region/Region.c **** #define IN865_COMPUTE_RX_WINDOW_PARAMETERS( )
 449:../../../../../../Middlewares/Third_Party/LoRaWAN/Mac/region/Region.c **** #define IN865_RX_CONFIG( )
 450:../../../../../../Middlewares/Third_Party/LoRaWAN/Mac/region/Region.c **** #define IN865_TX_CONFIG( )
 451:../../../../../../Middlewares/Third_Party/LoRaWAN/Mac/region/Region.c **** #define IN865_LINK_ADR_REQ( )
 452:../../../../../../Middlewares/Third_Party/LoRaWAN/Mac/region/Region.c **** #define IN865_RX_PARAM_SETUP_REQ( )
 453:../../../../../../Middlewares/Third_Party/LoRaWAN/Mac/region/Region.c **** #define IN865_NEW_CHANNEL_REQ( )
 454:../../../../../../Middlewares/Third_Party/LoRaWAN/Mac/region/Region.c **** #define IN865_TX_PARAM_SETUP_REQ( )
 455:../../../../../../Middlewares/Third_Party/LoRaWAN/Mac/region/Region.c **** #define IN865_DL_CHANNEL_REQ( )
 456:../../../../../../Middlewares/Third_Party/LoRaWAN/Mac/region/Region.c **** #define IN865_ALTERNATE_DR( )
 457:../../../../../../Middlewares/Third_Party/LoRaWAN/Mac/region/Region.c **** #define IN865_CALC_BACKOFF( )
 458:../../../../../../Middlewares/Third_Party/LoRaWAN/Mac/region/Region.c **** #define IN865_NEXT_CHANNEL( )
 459:../../../../../../Middlewares/Third_Party/LoRaWAN/Mac/region/Region.c **** #define IN865_CHANNEL_ADD( )
 460:../../../../../../Middlewares/Third_Party/LoRaWAN/Mac/region/Region.c **** #define IN865_CHANNEL_REMOVE( )
 461:../../../../../../Middlewares/Third_Party/LoRaWAN/Mac/region/Region.c **** #define IN865_SET_CONTINUOUS_WAVE( )
 462:../../../../../../Middlewares/Third_Party/LoRaWAN/Mac/region/Region.c **** #define IN865_APPLY_DR_OFFSET( )
 463:../../../../../../Middlewares/Third_Party/LoRaWAN/Mac/region/Region.c **** #define IN865_RX_BEACON_SETUP( )
 464:../../../../../../Middlewares/Third_Party/LoRaWAN/Mac/region/Region.c **** #endif
 465:../../../../../../Middlewares/Third_Party/LoRaWAN/Mac/region/Region.c **** 
 466:../../../../../../Middlewares/Third_Party/LoRaWAN/Mac/region/Region.c **** #ifdef REGION_US915
 467:../../../../../../Middlewares/Third_Party/LoRaWAN/Mac/region/Region.c **** #include "RegionUS915.h"
 468:../../../../../../Middlewares/Third_Party/LoRaWAN/Mac/region/Region.c **** #define US915_CASE                                 case LORAMAC_REGION_US915:
 469:../../../../../../Middlewares/Third_Party/LoRaWAN/Mac/region/Region.c **** #define US915_IS_ACTIVE( )                         US915_CASE { return true; }
 470:../../../../../../Middlewares/Third_Party/LoRaWAN/Mac/region/Region.c **** #define US915_GET_PHY_PARAM( )                     US915_CASE { return RegionUS915GetPhyParam( getP
 471:../../../../../../Middlewares/Third_Party/LoRaWAN/Mac/region/Region.c **** #define US915_SET_BAND_TX_DONE( )                  US915_CASE { RegionUS915SetBandTxDone( txDone );
 472:../../../../../../Middlewares/Third_Party/LoRaWAN/Mac/region/Region.c **** #define US915_INIT_DEFAULTS( )                     US915_CASE { RegionUS915InitDefaults( params ); 
 473:../../../../../../Middlewares/Third_Party/LoRaWAN/Mac/region/Region.c **** #define US915_GET_NVM_CTX( )                       US915_CASE { return RegionUS915GetNvmCtx( params
 474:../../../../../../Middlewares/Third_Party/LoRaWAN/Mac/region/Region.c **** #define US915_VERIFY( )                            US915_CASE { return RegionUS915Verify( verify, p
 475:../../../../../../Middlewares/Third_Party/LoRaWAN/Mac/region/Region.c **** #define US915_APPLY_CF_LIST( )                     US915_CASE { RegionUS915ApplyCFList( applyCFList
 476:../../../../../../Middlewares/Third_Party/LoRaWAN/Mac/region/Region.c **** #define US915_CHAN_MASK_SET( )                     US915_CASE { return RegionUS915ChanMaskSet( chan
 477:../../../../../../Middlewares/Third_Party/LoRaWAN/Mac/region/Region.c **** #define US915_COMPUTE_RX_WINDOW_PARAMETERS( )      US915_CASE { RegionUS915ComputeRxWindowParameter
 478:../../../../../../Middlewares/Third_Party/LoRaWAN/Mac/region/Region.c **** #define US915_RX_CONFIG( )                         US915_CASE { return RegionUS915RxConfig( rxConfi
 479:../../../../../../Middlewares/Third_Party/LoRaWAN/Mac/region/Region.c **** #define US915_TX_CONFIG( )                         US915_CASE { return RegionUS915TxConfig( txConfi
 480:../../../../../../Middlewares/Third_Party/LoRaWAN/Mac/region/Region.c **** #define US915_LINK_ADR_REQ( )                      US915_CASE { return RegionUS915LinkAdrReq( linkA
 481:../../../../../../Middlewares/Third_Party/LoRaWAN/Mac/region/Region.c **** #define US915_RX_PARAM_SETUP_REQ( )                US915_CASE { return RegionUS915RxParamSetupReq( 
 482:../../../../../../Middlewares/Third_Party/LoRaWAN/Mac/region/Region.c **** #define US915_NEW_CHANNEL_REQ( )                   US915_CASE { return RegionUS915NewChannelReq( ne
 483:../../../../../../Middlewares/Third_Party/LoRaWAN/Mac/region/Region.c **** #define US915_TX_PARAM_SETUP_REQ( )                US915_CASE { return RegionUS915TxParamSetupReq( 
 484:../../../../../../Middlewares/Third_Party/LoRaWAN/Mac/region/Region.c **** #define US915_DL_CHANNEL_REQ( )                    US915_CASE { return RegionUS915DlChannelReq( dlC
 485:../../../../../../Middlewares/Third_Party/LoRaWAN/Mac/region/Region.c **** #define US915_ALTERNATE_DR( )                      US915_CASE { return RegionUS915AlternateDr( curr
 486:../../../../../../Middlewares/Third_Party/LoRaWAN/Mac/region/Region.c **** #define US915_CALC_BACKOFF( )                      US915_CASE { RegionUS915CalcBackOff( calcBackOff
 487:../../../../../../Middlewares/Third_Party/LoRaWAN/Mac/region/Region.c **** #define US915_NEXT_CHANNEL( )                      US915_CASE { return RegionUS915NextChannel( next
ARM GAS  C:\Users\EBANO_~1\AppData\Local\Temp\ccOSDu2a.s 			page 10


 488:../../../../../../Middlewares/Third_Party/LoRaWAN/Mac/region/Region.c **** #define US915_CHANNEL_ADD( )                       US915_CASE { return RegionUS915ChannelAdd( chann
 489:../../../../../../Middlewares/Third_Party/LoRaWAN/Mac/region/Region.c **** #define US915_CHANNEL_REMOVE( )                    US915_CASE { return RegionUS915ChannelsRemove( c
 490:../../../../../../Middlewares/Third_Party/LoRaWAN/Mac/region/Region.c **** #define US915_SET_CONTINUOUS_WAVE( )               US915_CASE { RegionUS915SetContinuousWave( conti
 491:../../../../../../Middlewares/Third_Party/LoRaWAN/Mac/region/Region.c **** #define US915_APPLY_DR_OFFSET( )                   US915_CASE { return RegionUS915ApplyDrOffset( do
 492:../../../../../../Middlewares/Third_Party/LoRaWAN/Mac/region/Region.c **** #define US915_RX_BEACON_SETUP( )                   US915_CASE { RegionUS915RxBeaconSetup( rxBeaconS
 493:../../../../../../Middlewares/Third_Party/LoRaWAN/Mac/region/Region.c **** #else
 494:../../../../../../Middlewares/Third_Party/LoRaWAN/Mac/region/Region.c **** #define US915_IS_ACTIVE( )
 495:../../../../../../Middlewares/Third_Party/LoRaWAN/Mac/region/Region.c **** #define US915_GET_PHY_PARAM( )
 496:../../../../../../Middlewares/Third_Party/LoRaWAN/Mac/region/Region.c **** #define US915_SET_BAND_TX_DONE( )
 497:../../../../../../Middlewares/Third_Party/LoRaWAN/Mac/region/Region.c **** #define US915_INIT_DEFAULTS( )
 498:../../../../../../Middlewares/Third_Party/LoRaWAN/Mac/region/Region.c **** #define US915_GET_NVM_CTX( )
 499:../../../../../../Middlewares/Third_Party/LoRaWAN/Mac/region/Region.c **** #define US915_VERIFY( )
 500:../../../../../../Middlewares/Third_Party/LoRaWAN/Mac/region/Region.c **** #define US915_APPLY_CF_LIST( )
 501:../../../../../../Middlewares/Third_Party/LoRaWAN/Mac/region/Region.c **** #define US915_CHAN_MASK_SET( )
 502:../../../../../../Middlewares/Third_Party/LoRaWAN/Mac/region/Region.c **** #define US915_COMPUTE_RX_WINDOW_PARAMETERS( )
 503:../../../../../../Middlewares/Third_Party/LoRaWAN/Mac/region/Region.c **** #define US915_RX_CONFIG( )
 504:../../../../../../Middlewares/Third_Party/LoRaWAN/Mac/region/Region.c **** #define US915_TX_CONFIG( )
 505:../../../../../../Middlewares/Third_Party/LoRaWAN/Mac/region/Region.c **** #define US915_LINK_ADR_REQ( )
 506:../../../../../../Middlewares/Third_Party/LoRaWAN/Mac/region/Region.c **** #define US915_RX_PARAM_SETUP_REQ( )
 507:../../../../../../Middlewares/Third_Party/LoRaWAN/Mac/region/Region.c **** #define US915_NEW_CHANNEL_REQ( )
 508:../../../../../../Middlewares/Third_Party/LoRaWAN/Mac/region/Region.c **** #define US915_TX_PARAM_SETUP_REQ( )
 509:../../../../../../Middlewares/Third_Party/LoRaWAN/Mac/region/Region.c **** #define US915_DL_CHANNEL_REQ( )
 510:../../../../../../Middlewares/Third_Party/LoRaWAN/Mac/region/Region.c **** #define US915_ALTERNATE_DR( )
 511:../../../../../../Middlewares/Third_Party/LoRaWAN/Mac/region/Region.c **** #define US915_CALC_BACKOFF( )
 512:../../../../../../Middlewares/Third_Party/LoRaWAN/Mac/region/Region.c **** #define US915_NEXT_CHANNEL( )
 513:../../../../../../Middlewares/Third_Party/LoRaWAN/Mac/region/Region.c **** #define US915_CHANNEL_ADD( )
 514:../../../../../../Middlewares/Third_Party/LoRaWAN/Mac/region/Region.c **** #define US915_CHANNEL_REMOVE( )
 515:../../../../../../Middlewares/Third_Party/LoRaWAN/Mac/region/Region.c **** #define US915_SET_CONTINUOUS_WAVE( )
 516:../../../../../../Middlewares/Third_Party/LoRaWAN/Mac/region/Region.c **** #define US915_APPLY_DR_OFFSET( )
 517:../../../../../../Middlewares/Third_Party/LoRaWAN/Mac/region/Region.c **** #define US915_RX_BEACON_SETUP( )
 518:../../../../../../Middlewares/Third_Party/LoRaWAN/Mac/region/Region.c **** #endif
 519:../../../../../../Middlewares/Third_Party/LoRaWAN/Mac/region/Region.c **** 
 520:../../../../../../Middlewares/Third_Party/LoRaWAN/Mac/region/Region.c **** #ifdef REGION_RU864
 521:../../../../../../Middlewares/Third_Party/LoRaWAN/Mac/region/Region.c **** #include "RegionRU864.h"
 522:../../../../../../Middlewares/Third_Party/LoRaWAN/Mac/region/Region.c **** #define RU864_CASE                                 case LORAMAC_REGION_RU864:
 523:../../../../../../Middlewares/Third_Party/LoRaWAN/Mac/region/Region.c **** #define RU864_IS_ACTIVE( )                         RU864_CASE { return true; }
 524:../../../../../../Middlewares/Third_Party/LoRaWAN/Mac/region/Region.c **** #define RU864_GET_PHY_PARAM( )                     RU864_CASE { return RegionRU864GetPhyParam( getP
 525:../../../../../../Middlewares/Third_Party/LoRaWAN/Mac/region/Region.c **** #define RU864_SET_BAND_TX_DONE( )                  RU864_CASE { RegionRU864SetBandTxDone( txDone );
 526:../../../../../../Middlewares/Third_Party/LoRaWAN/Mac/region/Region.c **** #define RU864_INIT_DEFAULTS( )                     RU864_CASE { RegionRU864InitDefaults( params ); 
 527:../../../../../../Middlewares/Third_Party/LoRaWAN/Mac/region/Region.c **** #define RU864_GET_NVM_CTX( )                       RU864_CASE { return RegionRU864GetNvmCtx( params
 528:../../../../../../Middlewares/Third_Party/LoRaWAN/Mac/region/Region.c **** #define RU864_VERIFY( )                            RU864_CASE { return RegionRU864Verify( verify, p
 529:../../../../../../Middlewares/Third_Party/LoRaWAN/Mac/region/Region.c **** #define RU864_APPLY_CF_LIST( )                     RU864_CASE { RegionRU864ApplyCFList( applyCFList
 530:../../../../../../Middlewares/Third_Party/LoRaWAN/Mac/region/Region.c **** #define RU864_CHAN_MASK_SET( )                     RU864_CASE { return RegionRU864ChanMaskSet( chan
 531:../../../../../../Middlewares/Third_Party/LoRaWAN/Mac/region/Region.c **** #define RU864_COMPUTE_RX_WINDOW_PARAMETERS( )      RU864_CASE { RegionRU864ComputeRxWindowParameter
 532:../../../../../../Middlewares/Third_Party/LoRaWAN/Mac/region/Region.c **** #define RU864_RX_CONFIG( )                         RU864_CASE { return RegionRU864RxConfig( rxConfi
 533:../../../../../../Middlewares/Third_Party/LoRaWAN/Mac/region/Region.c **** #define RU864_TX_CONFIG( )                         RU864_CASE { return RegionRU864TxConfig( txConfi
 534:../../../../../../Middlewares/Third_Party/LoRaWAN/Mac/region/Region.c **** #define RU864_LINK_ADR_REQ( )                      RU864_CASE { return RegionRU864LinkAdrReq( linkA
 535:../../../../../../Middlewares/Third_Party/LoRaWAN/Mac/region/Region.c **** #define RU864_RX_PARAM_SETUP_REQ( )                RU864_CASE { return RegionRU864RxParamSetupReq( 
 536:../../../../../../Middlewares/Third_Party/LoRaWAN/Mac/region/Region.c **** #define RU864_NEW_CHANNEL_REQ( )                   RU864_CASE { return RegionRU864NewChannelReq( ne
 537:../../../../../../Middlewares/Third_Party/LoRaWAN/Mac/region/Region.c **** #define RU864_TX_PARAM_SETUP_REQ( )                RU864_CASE { return RegionRU864TxParamSetupReq( 
 538:../../../../../../Middlewares/Third_Party/LoRaWAN/Mac/region/Region.c **** #define RU864_DL_CHANNEL_REQ( )                    RU864_CASE { return RegionRU864DlChannelReq( dlC
 539:../../../../../../Middlewares/Third_Party/LoRaWAN/Mac/region/Region.c **** #define RU864_ALTERNATE_DR( )                      RU864_CASE { return RegionRU864AlternateDr( curr
 540:../../../../../../Middlewares/Third_Party/LoRaWAN/Mac/region/Region.c **** #define RU864_CALC_BACKOFF( )                      RU864_CASE { RegionRU864CalcBackOff( calcBackOff
 541:../../../../../../Middlewares/Third_Party/LoRaWAN/Mac/region/Region.c **** #define RU864_NEXT_CHANNEL( )                      RU864_CASE { return RegionRU864NextChannel( next
 542:../../../../../../Middlewares/Third_Party/LoRaWAN/Mac/region/Region.c **** #define RU864_CHANNEL_ADD( )                       RU864_CASE { return RegionRU864ChannelAdd( chann
 543:../../../../../../Middlewares/Third_Party/LoRaWAN/Mac/region/Region.c **** #define RU864_CHANNEL_REMOVE( )                    RU864_CASE { return RegionRU864ChannelsRemove( c
 544:../../../../../../Middlewares/Third_Party/LoRaWAN/Mac/region/Region.c **** #define RU864_SET_CONTINUOUS_WAVE( )               RU864_CASE { RegionRU864SetContinuousWave( conti
ARM GAS  C:\Users\EBANO_~1\AppData\Local\Temp\ccOSDu2a.s 			page 11


 545:../../../../../../Middlewares/Third_Party/LoRaWAN/Mac/region/Region.c **** #define RU864_APPLY_DR_OFFSET( )                   RU864_CASE { return RegionRU864ApplyDrOffset( do
 546:../../../../../../Middlewares/Third_Party/LoRaWAN/Mac/region/Region.c **** #define RU864_RX_BEACON_SETUP( )                   RU864_CASE { RegionRU864RxBeaconSetup( rxBeaconS
 547:../../../../../../Middlewares/Third_Party/LoRaWAN/Mac/region/Region.c **** #else
 548:../../../../../../Middlewares/Third_Party/LoRaWAN/Mac/region/Region.c **** #define RU864_IS_ACTIVE( )
 549:../../../../../../Middlewares/Third_Party/LoRaWAN/Mac/region/Region.c **** #define RU864_GET_PHY_PARAM( )
 550:../../../../../../Middlewares/Third_Party/LoRaWAN/Mac/region/Region.c **** #define RU864_SET_BAND_TX_DONE( )
 551:../../../../../../Middlewares/Third_Party/LoRaWAN/Mac/region/Region.c **** #define RU864_INIT_DEFAULTS( )
 552:../../../../../../Middlewares/Third_Party/LoRaWAN/Mac/region/Region.c **** #define RU864_GET_NVM_CTX( )
 553:../../../../../../Middlewares/Third_Party/LoRaWAN/Mac/region/Region.c **** #define RU864_VERIFY( )
 554:../../../../../../Middlewares/Third_Party/LoRaWAN/Mac/region/Region.c **** #define RU864_APPLY_CF_LIST( )
 555:../../../../../../Middlewares/Third_Party/LoRaWAN/Mac/region/Region.c **** #define RU864_CHAN_MASK_SET( )
 556:../../../../../../Middlewares/Third_Party/LoRaWAN/Mac/region/Region.c **** #define RU864_COMPUTE_RX_WINDOW_PARAMETERS( )
 557:../../../../../../Middlewares/Third_Party/LoRaWAN/Mac/region/Region.c **** #define RU864_RX_CONFIG( )
 558:../../../../../../Middlewares/Third_Party/LoRaWAN/Mac/region/Region.c **** #define RU864_TX_CONFIG( )
 559:../../../../../../Middlewares/Third_Party/LoRaWAN/Mac/region/Region.c **** #define RU864_LINK_ADR_REQ( )
 560:../../../../../../Middlewares/Third_Party/LoRaWAN/Mac/region/Region.c **** #define RU864_RX_PARAM_SETUP_REQ( )
 561:../../../../../../Middlewares/Third_Party/LoRaWAN/Mac/region/Region.c **** #define RU864_NEW_CHANNEL_REQ( )
 562:../../../../../../Middlewares/Third_Party/LoRaWAN/Mac/region/Region.c **** #define RU864_TX_PARAM_SETUP_REQ( )
 563:../../../../../../Middlewares/Third_Party/LoRaWAN/Mac/region/Region.c **** #define RU864_DL_CHANNEL_REQ( )
 564:../../../../../../Middlewares/Third_Party/LoRaWAN/Mac/region/Region.c **** #define RU864_ALTERNATE_DR( )
 565:../../../../../../Middlewares/Third_Party/LoRaWAN/Mac/region/Region.c **** #define RU864_CALC_BACKOFF( )
 566:../../../../../../Middlewares/Third_Party/LoRaWAN/Mac/region/Region.c **** #define RU864_NEXT_CHANNEL( )
 567:../../../../../../Middlewares/Third_Party/LoRaWAN/Mac/region/Region.c **** #define RU864_CHANNEL_ADD( )
 568:../../../../../../Middlewares/Third_Party/LoRaWAN/Mac/region/Region.c **** #define RU864_CHANNEL_REMOVE( )
 569:../../../../../../Middlewares/Third_Party/LoRaWAN/Mac/region/Region.c **** #define RU864_SET_CONTINUOUS_WAVE( )
 570:../../../../../../Middlewares/Third_Party/LoRaWAN/Mac/region/Region.c **** #define RU864_APPLY_DR_OFFSET( )
 571:../../../../../../Middlewares/Third_Party/LoRaWAN/Mac/region/Region.c **** #define RU864_RX_BEACON_SETUP( )
 572:../../../../../../Middlewares/Third_Party/LoRaWAN/Mac/region/Region.c **** #endif
 573:../../../../../../Middlewares/Third_Party/LoRaWAN/Mac/region/Region.c **** 
 574:../../../../../../Middlewares/Third_Party/LoRaWAN/Mac/region/Region.c **** bool RegionIsActive( LoRaMacRegion_t region )
 575:../../../../../../Middlewares/Third_Party/LoRaWAN/Mac/region/Region.c **** {
  27              		.loc 1 575 0
  28              		.cfi_startproc
  29              		@ args = 0, pretend = 0, frame = 0
  30              		@ frame_needed = 0, uses_anonymous_args = 0
  31              		@ link register save eliminated.
  32              	.LVL0:
 576:../../../../../../Middlewares/Third_Party/LoRaWAN/Mac/region/Region.c ****     switch( region )
 577:../../../../../../Middlewares/Third_Party/LoRaWAN/Mac/region/Region.c ****     {
 578:../../../../../../Middlewares/Third_Party/LoRaWAN/Mac/region/Region.c ****         AS923_IS_ACTIVE( );
 579:../../../../../../Middlewares/Third_Party/LoRaWAN/Mac/region/Region.c ****         AU915_IS_ACTIVE( );
 580:../../../../../../Middlewares/Third_Party/LoRaWAN/Mac/region/Region.c ****         CN470_IS_ACTIVE( );
 581:../../../../../../Middlewares/Third_Party/LoRaWAN/Mac/region/Region.c ****         CN779_IS_ACTIVE( );
 582:../../../../../../Middlewares/Third_Party/LoRaWAN/Mac/region/Region.c ****         EU433_IS_ACTIVE( );
 583:../../../../../../Middlewares/Third_Party/LoRaWAN/Mac/region/Region.c ****         EU868_IS_ACTIVE( );
 584:../../../../../../Middlewares/Third_Party/LoRaWAN/Mac/region/Region.c ****         KR920_IS_ACTIVE( );
 585:../../../../../../Middlewares/Third_Party/LoRaWAN/Mac/region/Region.c ****         IN865_IS_ACTIVE( );
 586:../../../../../../Middlewares/Third_Party/LoRaWAN/Mac/region/Region.c ****         US915_IS_ACTIVE( );
 587:../../../../../../Middlewares/Third_Party/LoRaWAN/Mac/region/Region.c ****         RU864_IS_ACTIVE( );
 588:../../../../../../Middlewares/Third_Party/LoRaWAN/Mac/region/Region.c ****         default:
 589:../../../../../../Middlewares/Third_Party/LoRaWAN/Mac/region/Region.c ****         {
 590:../../../../../../Middlewares/Third_Party/LoRaWAN/Mac/region/Region.c ****             return false;
  33              		.loc 1 590 0
  34 0000 0538     		subs	r0, r0, #5
  35              	.LVL1:
  36 0002 4342     		rsbs	r3, r0, #0
  37 0004 5841     		adcs	r0, r0, r3
ARM GAS  C:\Users\EBANO_~1\AppData\Local\Temp\ccOSDu2a.s 			page 12


 591:../../../../../../Middlewares/Third_Party/LoRaWAN/Mac/region/Region.c ****         }
 592:../../../../../../Middlewares/Third_Party/LoRaWAN/Mac/region/Region.c ****     }
 593:../../../../../../Middlewares/Third_Party/LoRaWAN/Mac/region/Region.c **** }
  38              		.loc 1 593 0
  39              		@ sp needed
  40 0006 7047     		bx	lr
  41              		.cfi_endproc
  42              	.LFE39:
  43              		.size	RegionIsActive, .-RegionIsActive
  44              		.section	.text.RegionGetPhyParam,"ax",%progbits
  45              		.align	1
  46              		.p2align 2,,3
  47              		.global	RegionGetPhyParam
  48              		.syntax unified
  49              		.code	16
  50              		.thumb_func
  51              		.fpu softvfp
  52              		.type	RegionGetPhyParam, %function
  53              	RegionGetPhyParam:
  54              	.LFB40:
 594:../../../../../../Middlewares/Third_Party/LoRaWAN/Mac/region/Region.c **** 
 595:../../../../../../Middlewares/Third_Party/LoRaWAN/Mac/region/Region.c **** PhyParam_t RegionGetPhyParam( LoRaMacRegion_t region, GetPhyParams_t* getPhy )
 596:../../../../../../Middlewares/Third_Party/LoRaWAN/Mac/region/Region.c **** {
  55              		.loc 1 596 0
  56              		.cfi_startproc
  57              		@ args = 0, pretend = 0, frame = 8
  58              		@ frame_needed = 0, uses_anonymous_args = 0
  59              	.LVL2:
  60 0000 00B5     		push	{lr}
  61              	.LCFI0:
  62              		.cfi_def_cfa_offset 4
  63              		.cfi_offset 14, -4
  64 0002 83B0     		sub	sp, sp, #12
  65              	.LCFI1:
  66              		.cfi_def_cfa_offset 16
 597:../../../../../../Middlewares/Third_Party/LoRaWAN/Mac/region/Region.c ****     PhyParam_t phyParam = { 0 };
 598:../../../../../../Middlewares/Third_Party/LoRaWAN/Mac/region/Region.c ****     switch( region )
  67              		.loc 1 598 0
  68 0004 0528     		cmp	r0, #5
  69 0006 04D0     		beq	.L11
 599:../../../../../../Middlewares/Third_Party/LoRaWAN/Mac/region/Region.c ****     {
 600:../../../../../../Middlewares/Third_Party/LoRaWAN/Mac/region/Region.c ****         AS923_GET_PHY_PARAM( );
 601:../../../../../../Middlewares/Third_Party/LoRaWAN/Mac/region/Region.c ****         AU915_GET_PHY_PARAM( );
 602:../../../../../../Middlewares/Third_Party/LoRaWAN/Mac/region/Region.c ****         CN470_GET_PHY_PARAM( );
 603:../../../../../../Middlewares/Third_Party/LoRaWAN/Mac/region/Region.c ****         CN779_GET_PHY_PARAM( );
 604:../../../../../../Middlewares/Third_Party/LoRaWAN/Mac/region/Region.c ****         EU433_GET_PHY_PARAM( );
 605:../../../../../../Middlewares/Third_Party/LoRaWAN/Mac/region/Region.c ****         EU868_GET_PHY_PARAM( );
 606:../../../../../../Middlewares/Third_Party/LoRaWAN/Mac/region/Region.c ****         KR920_GET_PHY_PARAM( );
 607:../../../../../../Middlewares/Third_Party/LoRaWAN/Mac/region/Region.c ****         IN865_GET_PHY_PARAM( );
 608:../../../../../../Middlewares/Third_Party/LoRaWAN/Mac/region/Region.c ****         US915_GET_PHY_PARAM( );
 609:../../../../../../Middlewares/Third_Party/LoRaWAN/Mac/region/Region.c ****         RU864_GET_PHY_PARAM( );
 610:../../../../../../Middlewares/Third_Party/LoRaWAN/Mac/region/Region.c ****         default:
 611:../../../../../../Middlewares/Third_Party/LoRaWAN/Mac/region/Region.c ****         {
 612:../../../../../../Middlewares/Third_Party/LoRaWAN/Mac/region/Region.c ****             return phyParam;
  70              		.loc 1 612 0
  71 0008 0023     		movs	r3, #0
  72 000a 0193     		str	r3, [sp, #4]
ARM GAS  C:\Users\EBANO_~1\AppData\Local\Temp\ccOSDu2a.s 			page 13


  73 000c 0198     		ldr	r0, [sp, #4]
  74              	.LVL3:
  75              	.L9:
 613:../../../../../../Middlewares/Third_Party/LoRaWAN/Mac/region/Region.c ****         }
 614:../../../../../../Middlewares/Third_Party/LoRaWAN/Mac/region/Region.c ****     }
 615:../../../../../../Middlewares/Third_Party/LoRaWAN/Mac/region/Region.c **** }
  76              		.loc 1 615 0
  77 000e 03B0     		add	sp, sp, #12
  78              		@ sp needed
  79 0010 00BD     		pop	{pc}
  80              	.LVL4:
  81              	.L11:
 605:../../../../../../Middlewares/Third_Party/LoRaWAN/Mac/region/Region.c ****         KR920_GET_PHY_PARAM( );
  82              		.loc 1 605 0
  83 0012 0800     		movs	r0, r1
  84              	.LVL5:
  85 0014 FFF7FEFF 		bl	RegionEU868GetPhyParam
  86              	.LVL6:
  87 0018 0190     		str	r0, [sp, #4]
  88 001a F8E7     		b	.L9
  89              		.cfi_endproc
  90              	.LFE40:
  91              		.size	RegionGetPhyParam, .-RegionGetPhyParam
  92              		.section	.text.RegionSetBandTxDone,"ax",%progbits
  93              		.align	1
  94              		.p2align 2,,3
  95              		.global	RegionSetBandTxDone
  96              		.syntax unified
  97              		.code	16
  98              		.thumb_func
  99              		.fpu softvfp
 100              		.type	RegionSetBandTxDone, %function
 101              	RegionSetBandTxDone:
 102              	.LFB41:
 616:../../../../../../Middlewares/Third_Party/LoRaWAN/Mac/region/Region.c **** 
 617:../../../../../../Middlewares/Third_Party/LoRaWAN/Mac/region/Region.c **** void RegionSetBandTxDone( LoRaMacRegion_t region, SetBandTxDoneParams_t* txDone )
 618:../../../../../../Middlewares/Third_Party/LoRaWAN/Mac/region/Region.c **** {
 103              		.loc 1 618 0
 104              		.cfi_startproc
 105              		@ args = 0, pretend = 0, frame = 0
 106              		@ frame_needed = 0, uses_anonymous_args = 0
 107              	.LVL7:
 108 0000 10B5     		push	{r4, lr}
 109              	.LCFI2:
 110              		.cfi_def_cfa_offset 8
 111              		.cfi_offset 4, -8
 112              		.cfi_offset 14, -4
 619:../../../../../../Middlewares/Third_Party/LoRaWAN/Mac/region/Region.c ****     switch( region )
 113              		.loc 1 619 0
 114 0002 0528     		cmp	r0, #5
 115 0004 02D1     		bne	.L12
 620:../../../../../../Middlewares/Third_Party/LoRaWAN/Mac/region/Region.c ****     {
 621:../../../../../../Middlewares/Third_Party/LoRaWAN/Mac/region/Region.c ****         AS923_SET_BAND_TX_DONE( );
 622:../../../../../../Middlewares/Third_Party/LoRaWAN/Mac/region/Region.c ****         AU915_SET_BAND_TX_DONE( );
 623:../../../../../../Middlewares/Third_Party/LoRaWAN/Mac/region/Region.c ****         CN470_SET_BAND_TX_DONE( );
 624:../../../../../../Middlewares/Third_Party/LoRaWAN/Mac/region/Region.c ****         CN779_SET_BAND_TX_DONE( );
 625:../../../../../../Middlewares/Third_Party/LoRaWAN/Mac/region/Region.c ****         EU433_SET_BAND_TX_DONE( );
ARM GAS  C:\Users\EBANO_~1\AppData\Local\Temp\ccOSDu2a.s 			page 14


 626:../../../../../../Middlewares/Third_Party/LoRaWAN/Mac/region/Region.c ****         EU868_SET_BAND_TX_DONE( );
 116              		.loc 1 626 0
 117 0006 0800     		movs	r0, r1
 118              	.LVL8:
 119 0008 FFF7FEFF 		bl	RegionEU868SetBandTxDone
 120              	.LVL9:
 121              	.L12:
 627:../../../../../../Middlewares/Third_Party/LoRaWAN/Mac/region/Region.c ****         KR920_SET_BAND_TX_DONE( );
 628:../../../../../../Middlewares/Third_Party/LoRaWAN/Mac/region/Region.c ****         IN865_SET_BAND_TX_DONE( );
 629:../../../../../../Middlewares/Third_Party/LoRaWAN/Mac/region/Region.c ****         US915_SET_BAND_TX_DONE( );
 630:../../../../../../Middlewares/Third_Party/LoRaWAN/Mac/region/Region.c ****         RU864_SET_BAND_TX_DONE( );
 631:../../../../../../Middlewares/Third_Party/LoRaWAN/Mac/region/Region.c ****         default:
 632:../../../../../../Middlewares/Third_Party/LoRaWAN/Mac/region/Region.c ****         {
 633:../../../../../../Middlewares/Third_Party/LoRaWAN/Mac/region/Region.c ****             return;
 634:../../../../../../Middlewares/Third_Party/LoRaWAN/Mac/region/Region.c ****         }
 635:../../../../../../Middlewares/Third_Party/LoRaWAN/Mac/region/Region.c ****     }
 636:../../../../../../Middlewares/Third_Party/LoRaWAN/Mac/region/Region.c **** }
 122              		.loc 1 636 0
 123              		@ sp needed
 124 000c 10BD     		pop	{r4, pc}
 125              		.cfi_endproc
 126              	.LFE41:
 127              		.size	RegionSetBandTxDone, .-RegionSetBandTxDone
 128 000e C046     		.section	.text.RegionInitDefaults,"ax",%progbits
 129              		.align	1
 130              		.p2align 2,,3
 131              		.global	RegionInitDefaults
 132              		.syntax unified
 133              		.code	16
 134              		.thumb_func
 135              		.fpu softvfp
 136              		.type	RegionInitDefaults, %function
 137              	RegionInitDefaults:
 138              	.LFB42:
 637:../../../../../../Middlewares/Third_Party/LoRaWAN/Mac/region/Region.c **** 
 638:../../../../../../Middlewares/Third_Party/LoRaWAN/Mac/region/Region.c **** void RegionInitDefaults( LoRaMacRegion_t region, InitDefaultsParams_t* params )
 639:../../../../../../Middlewares/Third_Party/LoRaWAN/Mac/region/Region.c **** {
 139              		.loc 1 639 0
 140              		.cfi_startproc
 141              		@ args = 0, pretend = 0, frame = 0
 142              		@ frame_needed = 0, uses_anonymous_args = 0
 143              	.LVL10:
 144 0000 10B5     		push	{r4, lr}
 145              	.LCFI3:
 146              		.cfi_def_cfa_offset 8
 147              		.cfi_offset 4, -8
 148              		.cfi_offset 14, -4
 640:../../../../../../Middlewares/Third_Party/LoRaWAN/Mac/region/Region.c ****     switch( region )
 149              		.loc 1 640 0
 150 0002 0528     		cmp	r0, #5
 151 0004 02D1     		bne	.L15
 641:../../../../../../Middlewares/Third_Party/LoRaWAN/Mac/region/Region.c ****     {
 642:../../../../../../Middlewares/Third_Party/LoRaWAN/Mac/region/Region.c ****         AS923_INIT_DEFAULTS( );
 643:../../../../../../Middlewares/Third_Party/LoRaWAN/Mac/region/Region.c ****         AU915_INIT_DEFAULTS( );
 644:../../../../../../Middlewares/Third_Party/LoRaWAN/Mac/region/Region.c ****         CN470_INIT_DEFAULTS( );
 645:../../../../../../Middlewares/Third_Party/LoRaWAN/Mac/region/Region.c ****         CN779_INIT_DEFAULTS( );
 646:../../../../../../Middlewares/Third_Party/LoRaWAN/Mac/region/Region.c ****         EU433_INIT_DEFAULTS( );
ARM GAS  C:\Users\EBANO_~1\AppData\Local\Temp\ccOSDu2a.s 			page 15


 647:../../../../../../Middlewares/Third_Party/LoRaWAN/Mac/region/Region.c ****         EU868_INIT_DEFAULTS( );
 152              		.loc 1 647 0
 153 0006 0800     		movs	r0, r1
 154              	.LVL11:
 155 0008 FFF7FEFF 		bl	RegionEU868InitDefaults
 156              	.LVL12:
 157              	.L15:
 648:../../../../../../Middlewares/Third_Party/LoRaWAN/Mac/region/Region.c ****         KR920_INIT_DEFAULTS( );
 649:../../../../../../Middlewares/Third_Party/LoRaWAN/Mac/region/Region.c ****         IN865_INIT_DEFAULTS( );
 650:../../../../../../Middlewares/Third_Party/LoRaWAN/Mac/region/Region.c ****         US915_INIT_DEFAULTS( );
 651:../../../../../../Middlewares/Third_Party/LoRaWAN/Mac/region/Region.c ****         RU864_INIT_DEFAULTS( );
 652:../../../../../../Middlewares/Third_Party/LoRaWAN/Mac/region/Region.c ****         default:
 653:../../../../../../Middlewares/Third_Party/LoRaWAN/Mac/region/Region.c ****         {
 654:../../../../../../Middlewares/Third_Party/LoRaWAN/Mac/region/Region.c ****             break;
 655:../../../../../../Middlewares/Third_Party/LoRaWAN/Mac/region/Region.c ****         }
 656:../../../../../../Middlewares/Third_Party/LoRaWAN/Mac/region/Region.c ****     }
 657:../../../../../../Middlewares/Third_Party/LoRaWAN/Mac/region/Region.c **** }
 158              		.loc 1 657 0
 159              		@ sp needed
 160 000c 10BD     		pop	{r4, pc}
 161              		.cfi_endproc
 162              	.LFE42:
 163              		.size	RegionInitDefaults, .-RegionInitDefaults
 164 000e C046     		.section	.text.RegionGetNvmCtx,"ax",%progbits
 165              		.align	1
 166              		.p2align 2,,3
 167              		.global	RegionGetNvmCtx
 168              		.syntax unified
 169              		.code	16
 170              		.thumb_func
 171              		.fpu softvfp
 172              		.type	RegionGetNvmCtx, %function
 173              	RegionGetNvmCtx:
 174              	.LFB43:
 658:../../../../../../Middlewares/Third_Party/LoRaWAN/Mac/region/Region.c **** 
 659:../../../../../../Middlewares/Third_Party/LoRaWAN/Mac/region/Region.c **** void* RegionGetNvmCtx( LoRaMacRegion_t region, GetNvmCtxParams_t* params )
 660:../../../../../../Middlewares/Third_Party/LoRaWAN/Mac/region/Region.c **** {
 175              		.loc 1 660 0
 176              		.cfi_startproc
 177              		@ args = 0, pretend = 0, frame = 0
 178              		@ frame_needed = 0, uses_anonymous_args = 0
 179              	.LVL13:
 180 0000 10B5     		push	{r4, lr}
 181              	.LCFI4:
 182              		.cfi_def_cfa_offset 8
 183              		.cfi_offset 4, -8
 184              		.cfi_offset 14, -4
 661:../../../../../../Middlewares/Third_Party/LoRaWAN/Mac/region/Region.c ****     switch( region )
 185              		.loc 1 661 0
 186 0002 0528     		cmp	r0, #5
 187 0004 03D1     		bne	.L22
 662:../../../../../../Middlewares/Third_Party/LoRaWAN/Mac/region/Region.c ****     {
 663:../../../../../../Middlewares/Third_Party/LoRaWAN/Mac/region/Region.c ****         AS923_GET_NVM_CTX( );
 664:../../../../../../Middlewares/Third_Party/LoRaWAN/Mac/region/Region.c ****         AU915_GET_NVM_CTX( );
 665:../../../../../../Middlewares/Third_Party/LoRaWAN/Mac/region/Region.c ****         CN470_GET_NVM_CTX( );
 666:../../../../../../Middlewares/Third_Party/LoRaWAN/Mac/region/Region.c ****         CN779_GET_NVM_CTX( );
 667:../../../../../../Middlewares/Third_Party/LoRaWAN/Mac/region/Region.c ****         EU433_GET_NVM_CTX( );
ARM GAS  C:\Users\EBANO_~1\AppData\Local\Temp\ccOSDu2a.s 			page 16


 668:../../../../../../Middlewares/Third_Party/LoRaWAN/Mac/region/Region.c ****         EU868_GET_NVM_CTX( );
 188              		.loc 1 668 0
 189 0006 0800     		movs	r0, r1
 190              	.LVL14:
 191 0008 FFF7FEFF 		bl	RegionEU868GetNvmCtx
 192              	.LVL15:
 193              	.L18:
 669:../../../../../../Middlewares/Third_Party/LoRaWAN/Mac/region/Region.c ****         KR920_GET_NVM_CTX( );
 670:../../../../../../Middlewares/Third_Party/LoRaWAN/Mac/region/Region.c ****         IN865_GET_NVM_CTX( );
 671:../../../../../../Middlewares/Third_Party/LoRaWAN/Mac/region/Region.c ****         US915_GET_NVM_CTX( );
 672:../../../../../../Middlewares/Third_Party/LoRaWAN/Mac/region/Region.c ****         RU864_GET_NVM_CTX( );
 673:../../../../../../Middlewares/Third_Party/LoRaWAN/Mac/region/Region.c ****         default:
 674:../../../../../../Middlewares/Third_Party/LoRaWAN/Mac/region/Region.c ****         {
 675:../../../../../../Middlewares/Third_Party/LoRaWAN/Mac/region/Region.c ****            return 0;
 676:../../../../../../Middlewares/Third_Party/LoRaWAN/Mac/region/Region.c ****         }
 677:../../../../../../Middlewares/Third_Party/LoRaWAN/Mac/region/Region.c ****     }
 678:../../../../../../Middlewares/Third_Party/LoRaWAN/Mac/region/Region.c **** }
 194              		.loc 1 678 0
 195              		@ sp needed
 196 000c 10BD     		pop	{r4, pc}
 197              	.LVL16:
 198              	.L22:
 675:../../../../../../Middlewares/Third_Party/LoRaWAN/Mac/region/Region.c ****         }
 199              		.loc 1 675 0
 200 000e 0020     		movs	r0, #0
 201              	.LVL17:
 202 0010 FCE7     		b	.L18
 203              		.cfi_endproc
 204              	.LFE43:
 205              		.size	RegionGetNvmCtx, .-RegionGetNvmCtx
 206 0012 C046     		.section	.text.RegionVerify,"ax",%progbits
 207              		.align	1
 208              		.p2align 2,,3
 209              		.global	RegionVerify
 210              		.syntax unified
 211              		.code	16
 212              		.thumb_func
 213              		.fpu softvfp
 214              		.type	RegionVerify, %function
 215              	RegionVerify:
 216              	.LFB44:
 679:../../../../../../Middlewares/Third_Party/LoRaWAN/Mac/region/Region.c **** 
 680:../../../../../../Middlewares/Third_Party/LoRaWAN/Mac/region/Region.c **** bool RegionVerify( LoRaMacRegion_t region, VerifyParams_t* verify, PhyAttribute_t phyAttribute )
 681:../../../../../../Middlewares/Third_Party/LoRaWAN/Mac/region/Region.c **** {
 217              		.loc 1 681 0
 218              		.cfi_startproc
 219              		@ args = 0, pretend = 0, frame = 0
 220              		@ frame_needed = 0, uses_anonymous_args = 0
 221              	.LVL18:
 222 0000 10B5     		push	{r4, lr}
 223              	.LCFI5:
 224              		.cfi_def_cfa_offset 8
 225              		.cfi_offset 4, -8
 226              		.cfi_offset 14, -4
 227              		.loc 1 681 0
 228 0002 0B00     		movs	r3, r1
 682:../../../../../../Middlewares/Third_Party/LoRaWAN/Mac/region/Region.c ****     switch( region )
ARM GAS  C:\Users\EBANO_~1\AppData\Local\Temp\ccOSDu2a.s 			page 17


 229              		.loc 1 682 0
 230 0004 0528     		cmp	r0, #5
 231 0006 01D0     		beq	.L28
 683:../../../../../../Middlewares/Third_Party/LoRaWAN/Mac/region/Region.c ****     {
 684:../../../../../../Middlewares/Third_Party/LoRaWAN/Mac/region/Region.c ****         AS923_VERIFY( );
 685:../../../../../../Middlewares/Third_Party/LoRaWAN/Mac/region/Region.c ****         AU915_VERIFY( );
 686:../../../../../../Middlewares/Third_Party/LoRaWAN/Mac/region/Region.c ****         CN470_VERIFY( );
 687:../../../../../../Middlewares/Third_Party/LoRaWAN/Mac/region/Region.c ****         CN779_VERIFY( );
 688:../../../../../../Middlewares/Third_Party/LoRaWAN/Mac/region/Region.c ****         EU433_VERIFY( );
 689:../../../../../../Middlewares/Third_Party/LoRaWAN/Mac/region/Region.c ****         EU868_VERIFY( );
 690:../../../../../../Middlewares/Third_Party/LoRaWAN/Mac/region/Region.c ****         KR920_VERIFY( );
 691:../../../../../../Middlewares/Third_Party/LoRaWAN/Mac/region/Region.c ****         IN865_VERIFY( );
 692:../../../../../../Middlewares/Third_Party/LoRaWAN/Mac/region/Region.c ****         US915_VERIFY( );
 693:../../../../../../Middlewares/Third_Party/LoRaWAN/Mac/region/Region.c ****         RU864_VERIFY( );
 694:../../../../../../Middlewares/Third_Party/LoRaWAN/Mac/region/Region.c ****         default:
 695:../../../../../../Middlewares/Third_Party/LoRaWAN/Mac/region/Region.c ****         {
 696:../../../../../../Middlewares/Third_Party/LoRaWAN/Mac/region/Region.c ****             return false;
 232              		.loc 1 696 0
 233 0008 0020     		movs	r0, #0
 234              	.LVL19:
 235              	.L24:
 697:../../../../../../Middlewares/Third_Party/LoRaWAN/Mac/region/Region.c ****         }
 698:../../../../../../Middlewares/Third_Party/LoRaWAN/Mac/region/Region.c ****     }
 699:../../../../../../Middlewares/Third_Party/LoRaWAN/Mac/region/Region.c **** }
 236              		.loc 1 699 0
 237              		@ sp needed
 238 000a 10BD     		pop	{r4, pc}
 239              	.LVL20:
 240              	.L28:
 689:../../../../../../Middlewares/Third_Party/LoRaWAN/Mac/region/Region.c ****         KR920_VERIFY( );
 241              		.loc 1 689 0
 242 000c 1100     		movs	r1, r2
 243              	.LVL21:
 244 000e 1800     		movs	r0, r3
 245              	.LVL22:
 246 0010 FFF7FEFF 		bl	RegionEU868Verify
 247              	.LVL23:
 248 0014 F9E7     		b	.L24
 249              		.cfi_endproc
 250              	.LFE44:
 251              		.size	RegionVerify, .-RegionVerify
 252 0016 C046     		.section	.text.RegionApplyCFList,"ax",%progbits
 253              		.align	1
 254              		.p2align 2,,3
 255              		.global	RegionApplyCFList
 256              		.syntax unified
 257              		.code	16
 258              		.thumb_func
 259              		.fpu softvfp
 260              		.type	RegionApplyCFList, %function
 261              	RegionApplyCFList:
 262              	.LFB45:
 700:../../../../../../Middlewares/Third_Party/LoRaWAN/Mac/region/Region.c **** 
 701:../../../../../../Middlewares/Third_Party/LoRaWAN/Mac/region/Region.c **** void RegionApplyCFList( LoRaMacRegion_t region, ApplyCFListParams_t* applyCFList )
 702:../../../../../../Middlewares/Third_Party/LoRaWAN/Mac/region/Region.c **** {
 263              		.loc 1 702 0
 264              		.cfi_startproc
ARM GAS  C:\Users\EBANO_~1\AppData\Local\Temp\ccOSDu2a.s 			page 18


 265              		@ args = 0, pretend = 0, frame = 0
 266              		@ frame_needed = 0, uses_anonymous_args = 0
 267              	.LVL24:
 268 0000 10B5     		push	{r4, lr}
 269              	.LCFI6:
 270              		.cfi_def_cfa_offset 8
 271              		.cfi_offset 4, -8
 272              		.cfi_offset 14, -4
 703:../../../../../../Middlewares/Third_Party/LoRaWAN/Mac/region/Region.c ****     switch( region )
 273              		.loc 1 703 0
 274 0002 0528     		cmp	r0, #5
 275 0004 02D1     		bne	.L29
 704:../../../../../../Middlewares/Third_Party/LoRaWAN/Mac/region/Region.c ****     {
 705:../../../../../../Middlewares/Third_Party/LoRaWAN/Mac/region/Region.c ****         AS923_APPLY_CF_LIST( );
 706:../../../../../../Middlewares/Third_Party/LoRaWAN/Mac/region/Region.c ****         AU915_APPLY_CF_LIST( );
 707:../../../../../../Middlewares/Third_Party/LoRaWAN/Mac/region/Region.c ****         CN470_APPLY_CF_LIST( );
 708:../../../../../../Middlewares/Third_Party/LoRaWAN/Mac/region/Region.c ****         CN779_APPLY_CF_LIST( );
 709:../../../../../../Middlewares/Third_Party/LoRaWAN/Mac/region/Region.c ****         EU433_APPLY_CF_LIST( );
 710:../../../../../../Middlewares/Third_Party/LoRaWAN/Mac/region/Region.c ****         EU868_APPLY_CF_LIST( );
 276              		.loc 1 710 0
 277 0006 0800     		movs	r0, r1
 278              	.LVL25:
 279 0008 FFF7FEFF 		bl	RegionEU868ApplyCFList
 280              	.LVL26:
 281              	.L29:
 711:../../../../../../Middlewares/Third_Party/LoRaWAN/Mac/region/Region.c ****         KR920_APPLY_CF_LIST( );
 712:../../../../../../Middlewares/Third_Party/LoRaWAN/Mac/region/Region.c ****         IN865_APPLY_CF_LIST( );
 713:../../../../../../Middlewares/Third_Party/LoRaWAN/Mac/region/Region.c ****         US915_APPLY_CF_LIST( );
 714:../../../../../../Middlewares/Third_Party/LoRaWAN/Mac/region/Region.c ****         RU864_APPLY_CF_LIST( );
 715:../../../../../../Middlewares/Third_Party/LoRaWAN/Mac/region/Region.c ****         default:
 716:../../../../../../Middlewares/Third_Party/LoRaWAN/Mac/region/Region.c ****         {
 717:../../../../../../Middlewares/Third_Party/LoRaWAN/Mac/region/Region.c ****             break;
 718:../../../../../../Middlewares/Third_Party/LoRaWAN/Mac/region/Region.c ****         }
 719:../../../../../../Middlewares/Third_Party/LoRaWAN/Mac/region/Region.c ****     }
 720:../../../../../../Middlewares/Third_Party/LoRaWAN/Mac/region/Region.c **** }
 282              		.loc 1 720 0
 283              		@ sp needed
 284 000c 10BD     		pop	{r4, pc}
 285              		.cfi_endproc
 286              	.LFE45:
 287              		.size	RegionApplyCFList, .-RegionApplyCFList
 288 000e C046     		.section	.text.RegionChanMaskSet,"ax",%progbits
 289              		.align	1
 290              		.p2align 2,,3
 291              		.global	RegionChanMaskSet
 292              		.syntax unified
 293              		.code	16
 294              		.thumb_func
 295              		.fpu softvfp
 296              		.type	RegionChanMaskSet, %function
 297              	RegionChanMaskSet:
 298              	.LFB46:
 721:../../../../../../Middlewares/Third_Party/LoRaWAN/Mac/region/Region.c **** 
 722:../../../../../../Middlewares/Third_Party/LoRaWAN/Mac/region/Region.c **** bool RegionChanMaskSet( LoRaMacRegion_t region, ChanMaskSetParams_t* chanMaskSet )
 723:../../../../../../Middlewares/Third_Party/LoRaWAN/Mac/region/Region.c **** {
 299              		.loc 1 723 0
 300              		.cfi_startproc
ARM GAS  C:\Users\EBANO_~1\AppData\Local\Temp\ccOSDu2a.s 			page 19


 301              		@ args = 0, pretend = 0, frame = 0
 302              		@ frame_needed = 0, uses_anonymous_args = 0
 303              	.LVL27:
 304 0000 10B5     		push	{r4, lr}
 305              	.LCFI7:
 306              		.cfi_def_cfa_offset 8
 307              		.cfi_offset 4, -8
 308              		.cfi_offset 14, -4
 724:../../../../../../Middlewares/Third_Party/LoRaWAN/Mac/region/Region.c ****     switch( region )
 309              		.loc 1 724 0
 310 0002 0528     		cmp	r0, #5
 311 0004 01D0     		beq	.L37
 725:../../../../../../Middlewares/Third_Party/LoRaWAN/Mac/region/Region.c ****     {
 726:../../../../../../Middlewares/Third_Party/LoRaWAN/Mac/region/Region.c ****         AS923_CHAN_MASK_SET( );
 727:../../../../../../Middlewares/Third_Party/LoRaWAN/Mac/region/Region.c ****         AU915_CHAN_MASK_SET( );
 728:../../../../../../Middlewares/Third_Party/LoRaWAN/Mac/region/Region.c ****         CN470_CHAN_MASK_SET( );
 729:../../../../../../Middlewares/Third_Party/LoRaWAN/Mac/region/Region.c ****         CN779_CHAN_MASK_SET( );
 730:../../../../../../Middlewares/Third_Party/LoRaWAN/Mac/region/Region.c ****         EU433_CHAN_MASK_SET( );
 731:../../../../../../Middlewares/Third_Party/LoRaWAN/Mac/region/Region.c ****         EU868_CHAN_MASK_SET( );
 732:../../../../../../Middlewares/Third_Party/LoRaWAN/Mac/region/Region.c ****         KR920_CHAN_MASK_SET( );
 733:../../../../../../Middlewares/Third_Party/LoRaWAN/Mac/region/Region.c ****         IN865_CHAN_MASK_SET( );
 734:../../../../../../Middlewares/Third_Party/LoRaWAN/Mac/region/Region.c ****         US915_CHAN_MASK_SET( );
 735:../../../../../../Middlewares/Third_Party/LoRaWAN/Mac/region/Region.c ****         RU864_CHAN_MASK_SET( );
 736:../../../../../../Middlewares/Third_Party/LoRaWAN/Mac/region/Region.c ****         default:
 737:../../../../../../Middlewares/Third_Party/LoRaWAN/Mac/region/Region.c ****         {
 738:../../../../../../Middlewares/Third_Party/LoRaWAN/Mac/region/Region.c ****             return false;
 312              		.loc 1 738 0
 313 0006 0020     		movs	r0, #0
 314              	.LVL28:
 315              	.L33:
 739:../../../../../../Middlewares/Third_Party/LoRaWAN/Mac/region/Region.c ****         }
 740:../../../../../../Middlewares/Third_Party/LoRaWAN/Mac/region/Region.c ****     }
 741:../../../../../../Middlewares/Third_Party/LoRaWAN/Mac/region/Region.c **** }
 316              		.loc 1 741 0
 317              		@ sp needed
 318 0008 10BD     		pop	{r4, pc}
 319              	.LVL29:
 320              	.L37:
 731:../../../../../../Middlewares/Third_Party/LoRaWAN/Mac/region/Region.c ****         KR920_CHAN_MASK_SET( );
 321              		.loc 1 731 0
 322 000a 0800     		movs	r0, r1
 323              	.LVL30:
 324 000c FFF7FEFF 		bl	RegionEU868ChanMaskSet
 325              	.LVL31:
 326 0010 FAE7     		b	.L33
 327              		.cfi_endproc
 328              	.LFE46:
 329              		.size	RegionChanMaskSet, .-RegionChanMaskSet
 330 0012 C046     		.section	.text.RegionComputeRxWindowParameters,"ax",%progbits
 331              		.align	1
 332              		.p2align 2,,3
 333              		.global	RegionComputeRxWindowParameters
 334              		.syntax unified
 335              		.code	16
 336              		.thumb_func
 337              		.fpu softvfp
 338              		.type	RegionComputeRxWindowParameters, %function
ARM GAS  C:\Users\EBANO_~1\AppData\Local\Temp\ccOSDu2a.s 			page 20


 339              	RegionComputeRxWindowParameters:
 340              	.LFB47:
 742:../../../../../../Middlewares/Third_Party/LoRaWAN/Mac/region/Region.c **** 
 743:../../../../../../Middlewares/Third_Party/LoRaWAN/Mac/region/Region.c **** void RegionComputeRxWindowParameters( LoRaMacRegion_t region, int8_t datarate, uint8_t minRxSymbols
 744:../../../../../../Middlewares/Third_Party/LoRaWAN/Mac/region/Region.c **** {
 341              		.loc 1 744 0
 342              		.cfi_startproc
 343              		@ args = 4, pretend = 0, frame = 0
 344              		@ frame_needed = 0, uses_anonymous_args = 0
 345              	.LVL32:
 346 0000 10B5     		push	{r4, lr}
 347              	.LCFI8:
 348              		.cfi_def_cfa_offset 8
 349              		.cfi_offset 4, -8
 350              		.cfi_offset 14, -4
 351              		.loc 1 744 0
 352 0002 0C00     		movs	r4, r1
 353 0004 1100     		movs	r1, r2
 354              	.LVL33:
 355 0006 1A00     		movs	r2, r3
 356              	.LVL34:
 745:../../../../../../Middlewares/Third_Party/LoRaWAN/Mac/region/Region.c ****     switch( region )
 357              		.loc 1 745 0
 358 0008 0528     		cmp	r0, #5
 359 000a 03D1     		bne	.L38
 746:../../../../../../Middlewares/Third_Party/LoRaWAN/Mac/region/Region.c ****     {
 747:../../../../../../Middlewares/Third_Party/LoRaWAN/Mac/region/Region.c ****         AS923_COMPUTE_RX_WINDOW_PARAMETERS( );
 748:../../../../../../Middlewares/Third_Party/LoRaWAN/Mac/region/Region.c ****         AU915_COMPUTE_RX_WINDOW_PARAMETERS( );
 749:../../../../../../Middlewares/Third_Party/LoRaWAN/Mac/region/Region.c ****         CN470_COMPUTE_RX_WINDOW_PARAMETERS( );
 750:../../../../../../Middlewares/Third_Party/LoRaWAN/Mac/region/Region.c ****         CN779_COMPUTE_RX_WINDOW_PARAMETERS( );
 751:../../../../../../Middlewares/Third_Party/LoRaWAN/Mac/region/Region.c ****         EU433_COMPUTE_RX_WINDOW_PARAMETERS( );
 752:../../../../../../Middlewares/Third_Party/LoRaWAN/Mac/region/Region.c ****         EU868_COMPUTE_RX_WINDOW_PARAMETERS( );
 360              		.loc 1 752 0
 361 000c 029B     		ldr	r3, [sp, #8]
 362              	.LVL35:
 363 000e 2000     		movs	r0, r4
 364              	.LVL36:
 365 0010 FFF7FEFF 		bl	RegionEU868ComputeRxWindowParameters
 366              	.LVL37:
 367              	.L38:
 753:../../../../../../Middlewares/Third_Party/LoRaWAN/Mac/region/Region.c ****         KR920_COMPUTE_RX_WINDOW_PARAMETERS( );
 754:../../../../../../Middlewares/Third_Party/LoRaWAN/Mac/region/Region.c ****         IN865_COMPUTE_RX_WINDOW_PARAMETERS( );
 755:../../../../../../Middlewares/Third_Party/LoRaWAN/Mac/region/Region.c ****         US915_COMPUTE_RX_WINDOW_PARAMETERS( );
 756:../../../../../../Middlewares/Third_Party/LoRaWAN/Mac/region/Region.c ****         RU864_COMPUTE_RX_WINDOW_PARAMETERS( );
 757:../../../../../../Middlewares/Third_Party/LoRaWAN/Mac/region/Region.c ****         default:
 758:../../../../../../Middlewares/Third_Party/LoRaWAN/Mac/region/Region.c ****         {
 759:../../../../../../Middlewares/Third_Party/LoRaWAN/Mac/region/Region.c ****             break;
 760:../../../../../../Middlewares/Third_Party/LoRaWAN/Mac/region/Region.c ****         }
 761:../../../../../../Middlewares/Third_Party/LoRaWAN/Mac/region/Region.c ****     }
 762:../../../../../../Middlewares/Third_Party/LoRaWAN/Mac/region/Region.c **** }
 368              		.loc 1 762 0
 369              		@ sp needed
 370 0014 10BD     		pop	{r4, pc}
 371              		.cfi_endproc
 372              	.LFE47:
 373              		.size	RegionComputeRxWindowParameters, .-RegionComputeRxWindowParameters
 374 0016 C046     		.section	.text.RegionRxConfig,"ax",%progbits
ARM GAS  C:\Users\EBANO_~1\AppData\Local\Temp\ccOSDu2a.s 			page 21


 375              		.align	1
 376              		.p2align 2,,3
 377              		.global	RegionRxConfig
 378              		.syntax unified
 379              		.code	16
 380              		.thumb_func
 381              		.fpu softvfp
 382              		.type	RegionRxConfig, %function
 383              	RegionRxConfig:
 384              	.LFB48:
 763:../../../../../../Middlewares/Third_Party/LoRaWAN/Mac/region/Region.c **** 
 764:../../../../../../Middlewares/Third_Party/LoRaWAN/Mac/region/Region.c **** bool RegionRxConfig( LoRaMacRegion_t region, RxConfigParams_t* rxConfig, int8_t* datarate )
 765:../../../../../../Middlewares/Third_Party/LoRaWAN/Mac/region/Region.c **** {
 385              		.loc 1 765 0
 386              		.cfi_startproc
 387              		@ args = 0, pretend = 0, frame = 0
 388              		@ frame_needed = 0, uses_anonymous_args = 0
 389              	.LVL38:
 390 0000 10B5     		push	{r4, lr}
 391              	.LCFI9:
 392              		.cfi_def_cfa_offset 8
 393              		.cfi_offset 4, -8
 394              		.cfi_offset 14, -4
 395              		.loc 1 765 0
 396 0002 0B00     		movs	r3, r1
 766:../../../../../../Middlewares/Third_Party/LoRaWAN/Mac/region/Region.c ****     switch( region )
 397              		.loc 1 766 0
 398 0004 0528     		cmp	r0, #5
 399 0006 01D0     		beq	.L46
 767:../../../../../../Middlewares/Third_Party/LoRaWAN/Mac/region/Region.c ****     {
 768:../../../../../../Middlewares/Third_Party/LoRaWAN/Mac/region/Region.c ****         AS923_RX_CONFIG( );
 769:../../../../../../Middlewares/Third_Party/LoRaWAN/Mac/region/Region.c ****         AU915_RX_CONFIG( );
 770:../../../../../../Middlewares/Third_Party/LoRaWAN/Mac/region/Region.c ****         CN470_RX_CONFIG( );
 771:../../../../../../Middlewares/Third_Party/LoRaWAN/Mac/region/Region.c ****         CN779_RX_CONFIG( );
 772:../../../../../../Middlewares/Third_Party/LoRaWAN/Mac/region/Region.c ****         EU433_RX_CONFIG( );
 773:../../../../../../Middlewares/Third_Party/LoRaWAN/Mac/region/Region.c ****         EU868_RX_CONFIG( );
 774:../../../../../../Middlewares/Third_Party/LoRaWAN/Mac/region/Region.c ****         KR920_RX_CONFIG( );
 775:../../../../../../Middlewares/Third_Party/LoRaWAN/Mac/region/Region.c ****         IN865_RX_CONFIG( );
 776:../../../../../../Middlewares/Third_Party/LoRaWAN/Mac/region/Region.c ****         US915_RX_CONFIG( );
 777:../../../../../../Middlewares/Third_Party/LoRaWAN/Mac/region/Region.c ****         RU864_RX_CONFIG( );
 778:../../../../../../Middlewares/Third_Party/LoRaWAN/Mac/region/Region.c ****         default:
 779:../../../../../../Middlewares/Third_Party/LoRaWAN/Mac/region/Region.c ****         {
 780:../../../../../../Middlewares/Third_Party/LoRaWAN/Mac/region/Region.c ****             return false;
 400              		.loc 1 780 0
 401 0008 0020     		movs	r0, #0
 402              	.LVL39:
 403              	.L42:
 781:../../../../../../Middlewares/Third_Party/LoRaWAN/Mac/region/Region.c ****         }
 782:../../../../../../Middlewares/Third_Party/LoRaWAN/Mac/region/Region.c ****     }
 783:../../../../../../Middlewares/Third_Party/LoRaWAN/Mac/region/Region.c **** }
 404              		.loc 1 783 0
 405              		@ sp needed
 406 000a 10BD     		pop	{r4, pc}
 407              	.LVL40:
 408              	.L46:
 773:../../../../../../Middlewares/Third_Party/LoRaWAN/Mac/region/Region.c ****         KR920_RX_CONFIG( );
 409              		.loc 1 773 0
ARM GAS  C:\Users\EBANO_~1\AppData\Local\Temp\ccOSDu2a.s 			page 22


 410 000c 1100     		movs	r1, r2
 411              	.LVL41:
 412 000e 1800     		movs	r0, r3
 413              	.LVL42:
 414 0010 FFF7FEFF 		bl	RegionEU868RxConfig
 415              	.LVL43:
 416 0014 F9E7     		b	.L42
 417              		.cfi_endproc
 418              	.LFE48:
 419              		.size	RegionRxConfig, .-RegionRxConfig
 420 0016 C046     		.section	.text.RegionTxConfig,"ax",%progbits
 421              		.align	1
 422              		.p2align 2,,3
 423              		.global	RegionTxConfig
 424              		.syntax unified
 425              		.code	16
 426              		.thumb_func
 427              		.fpu softvfp
 428              		.type	RegionTxConfig, %function
 429              	RegionTxConfig:
 430              	.LFB49:
 784:../../../../../../Middlewares/Third_Party/LoRaWAN/Mac/region/Region.c **** 
 785:../../../../../../Middlewares/Third_Party/LoRaWAN/Mac/region/Region.c **** bool RegionTxConfig( LoRaMacRegion_t region, TxConfigParams_t* txConfig, int8_t* txPower, TimerTime
 786:../../../../../../Middlewares/Third_Party/LoRaWAN/Mac/region/Region.c **** {
 431              		.loc 1 786 0
 432              		.cfi_startproc
 433              		@ args = 0, pretend = 0, frame = 0
 434              		@ frame_needed = 0, uses_anonymous_args = 0
 435              	.LVL44:
 436 0000 10B5     		push	{r4, lr}
 437              	.LCFI10:
 438              		.cfi_def_cfa_offset 8
 439              		.cfi_offset 4, -8
 440              		.cfi_offset 14, -4
 441              		.loc 1 786 0
 442 0002 0C00     		movs	r4, r1
 443 0004 1100     		movs	r1, r2
 444              	.LVL45:
 787:../../../../../../Middlewares/Third_Party/LoRaWAN/Mac/region/Region.c ****     switch( region )
 445              		.loc 1 787 0
 446 0006 0528     		cmp	r0, #5
 447 0008 01D0     		beq	.L52
 788:../../../../../../Middlewares/Third_Party/LoRaWAN/Mac/region/Region.c ****     {
 789:../../../../../../Middlewares/Third_Party/LoRaWAN/Mac/region/Region.c ****         AS923_TX_CONFIG( );
 790:../../../../../../Middlewares/Third_Party/LoRaWAN/Mac/region/Region.c ****         AU915_TX_CONFIG( );
 791:../../../../../../Middlewares/Third_Party/LoRaWAN/Mac/region/Region.c ****         CN470_TX_CONFIG( );
 792:../../../../../../Middlewares/Third_Party/LoRaWAN/Mac/region/Region.c ****         CN779_TX_CONFIG( );
 793:../../../../../../Middlewares/Third_Party/LoRaWAN/Mac/region/Region.c ****         EU433_TX_CONFIG( );
 794:../../../../../../Middlewares/Third_Party/LoRaWAN/Mac/region/Region.c ****         EU868_TX_CONFIG( );
 795:../../../../../../Middlewares/Third_Party/LoRaWAN/Mac/region/Region.c ****         KR920_TX_CONFIG( );
 796:../../../../../../Middlewares/Third_Party/LoRaWAN/Mac/region/Region.c ****         IN865_TX_CONFIG( );
 797:../../../../../../Middlewares/Third_Party/LoRaWAN/Mac/region/Region.c ****         US915_TX_CONFIG( );
 798:../../../../../../Middlewares/Third_Party/LoRaWAN/Mac/region/Region.c ****         RU864_TX_CONFIG( );
 799:../../../../../../Middlewares/Third_Party/LoRaWAN/Mac/region/Region.c ****         default:
 800:../../../../../../Middlewares/Third_Party/LoRaWAN/Mac/region/Region.c ****         {
 801:../../../../../../Middlewares/Third_Party/LoRaWAN/Mac/region/Region.c ****             return false;
 448              		.loc 1 801 0
ARM GAS  C:\Users\EBANO_~1\AppData\Local\Temp\ccOSDu2a.s 			page 23


 449 000a 0020     		movs	r0, #0
 450              	.LVL46:
 451              	.L48:
 802:../../../../../../Middlewares/Third_Party/LoRaWAN/Mac/region/Region.c ****         }
 803:../../../../../../Middlewares/Third_Party/LoRaWAN/Mac/region/Region.c ****     }
 804:../../../../../../Middlewares/Third_Party/LoRaWAN/Mac/region/Region.c **** }
 452              		.loc 1 804 0
 453              		@ sp needed
 454              	.LVL47:
 455 000c 10BD     		pop	{r4, pc}
 456              	.LVL48:
 457              	.L52:
 794:../../../../../../Middlewares/Third_Party/LoRaWAN/Mac/region/Region.c ****         KR920_TX_CONFIG( );
 458              		.loc 1 794 0
 459 000e 1A00     		movs	r2, r3
 460 0010 2000     		movs	r0, r4
 461              	.LVL49:
 462 0012 FFF7FEFF 		bl	RegionEU868TxConfig
 463              	.LVL50:
 464 0016 F9E7     		b	.L48
 465              		.cfi_endproc
 466              	.LFE49:
 467              		.size	RegionTxConfig, .-RegionTxConfig
 468              		.section	.text.RegionLinkAdrReq,"ax",%progbits
 469              		.align	1
 470              		.p2align 2,,3
 471              		.global	RegionLinkAdrReq
 472              		.syntax unified
 473              		.code	16
 474              		.thumb_func
 475              		.fpu softvfp
 476              		.type	RegionLinkAdrReq, %function
 477              	RegionLinkAdrReq:
 478              	.LFB50:
 805:../../../../../../Middlewares/Third_Party/LoRaWAN/Mac/region/Region.c **** 
 806:../../../../../../Middlewares/Third_Party/LoRaWAN/Mac/region/Region.c **** uint8_t RegionLinkAdrReq( LoRaMacRegion_t region, LinkAdrReqParams_t* linkAdrReq, int8_t* drOut, in
 807:../../../../../../Middlewares/Third_Party/LoRaWAN/Mac/region/Region.c **** {
 479              		.loc 1 807 0
 480              		.cfi_startproc
 481              		@ args = 8, pretend = 0, frame = 0
 482              		@ frame_needed = 0, uses_anonymous_args = 0
 483              	.LVL51:
 484 0000 10B5     		push	{r4, lr}
 485              	.LCFI11:
 486              		.cfi_def_cfa_offset 8
 487              		.cfi_offset 4, -8
 488              		.cfi_offset 14, -4
 489 0002 0C00     		movs	r4, r1
 490 0004 82B0     		sub	sp, sp, #8
 491              	.LCFI12:
 492              		.cfi_def_cfa_offset 16
 493              		.loc 1 807 0
 494 0006 1100     		movs	r1, r2
 495              	.LVL52:
 496 0008 1A00     		movs	r2, r3
 497              	.LVL53:
 808:../../../../../../Middlewares/Third_Party/LoRaWAN/Mac/region/Region.c ****     switch( region )
ARM GAS  C:\Users\EBANO_~1\AppData\Local\Temp\ccOSDu2a.s 			page 24


 498              		.loc 1 808 0
 499 000a 0528     		cmp	r0, #5
 500 000c 02D0     		beq	.L58
 809:../../../../../../Middlewares/Third_Party/LoRaWAN/Mac/region/Region.c ****     {
 810:../../../../../../Middlewares/Third_Party/LoRaWAN/Mac/region/Region.c ****         AS923_LINK_ADR_REQ( );
 811:../../../../../../Middlewares/Third_Party/LoRaWAN/Mac/region/Region.c ****         AU915_LINK_ADR_REQ( );
 812:../../../../../../Middlewares/Third_Party/LoRaWAN/Mac/region/Region.c ****         CN470_LINK_ADR_REQ( );
 813:../../../../../../Middlewares/Third_Party/LoRaWAN/Mac/region/Region.c ****         CN779_LINK_ADR_REQ( );
 814:../../../../../../Middlewares/Third_Party/LoRaWAN/Mac/region/Region.c ****         EU433_LINK_ADR_REQ( );
 815:../../../../../../Middlewares/Third_Party/LoRaWAN/Mac/region/Region.c ****         EU868_LINK_ADR_REQ( );
 816:../../../../../../Middlewares/Third_Party/LoRaWAN/Mac/region/Region.c ****         KR920_LINK_ADR_REQ( );
 817:../../../../../../Middlewares/Third_Party/LoRaWAN/Mac/region/Region.c ****         IN865_LINK_ADR_REQ( );
 818:../../../../../../Middlewares/Third_Party/LoRaWAN/Mac/region/Region.c ****         US915_LINK_ADR_REQ( );
 819:../../../../../../Middlewares/Third_Party/LoRaWAN/Mac/region/Region.c ****         RU864_LINK_ADR_REQ( );
 820:../../../../../../Middlewares/Third_Party/LoRaWAN/Mac/region/Region.c ****         default:
 821:../../../../../../Middlewares/Third_Party/LoRaWAN/Mac/region/Region.c ****         {
 822:../../../../../../Middlewares/Third_Party/LoRaWAN/Mac/region/Region.c ****             return 0;
 501              		.loc 1 822 0
 502 000e 0020     		movs	r0, #0
 503              	.LVL54:
 504              	.L54:
 823:../../../../../../Middlewares/Third_Party/LoRaWAN/Mac/region/Region.c ****         }
 824:../../../../../../Middlewares/Third_Party/LoRaWAN/Mac/region/Region.c ****     }
 825:../../../../../../Middlewares/Third_Party/LoRaWAN/Mac/region/Region.c **** }
 505              		.loc 1 825 0
 506 0010 02B0     		add	sp, sp, #8
 507              		@ sp needed
 508              	.LVL55:
 509 0012 10BD     		pop	{r4, pc}
 510              	.LVL56:
 511              	.L58:
 815:../../../../../../Middlewares/Third_Party/LoRaWAN/Mac/region/Region.c ****         KR920_LINK_ADR_REQ( );
 512              		.loc 1 815 0
 513 0014 059B     		ldr	r3, [sp, #20]
 514 0016 2000     		movs	r0, r4
 515              	.LVL57:
 516 0018 0093     		str	r3, [sp]
 517 001a 049B     		ldr	r3, [sp, #16]
 518 001c FFF7FEFF 		bl	RegionEU868LinkAdrReq
 519              	.LVL58:
 520 0020 F6E7     		b	.L54
 521              		.cfi_endproc
 522              	.LFE50:
 523              		.size	RegionLinkAdrReq, .-RegionLinkAdrReq
 524 0022 C046     		.section	.text.RegionRxParamSetupReq,"ax",%progbits
 525              		.align	1
 526              		.p2align 2,,3
 527              		.global	RegionRxParamSetupReq
 528              		.syntax unified
 529              		.code	16
 530              		.thumb_func
 531              		.fpu softvfp
 532              		.type	RegionRxParamSetupReq, %function
 533              	RegionRxParamSetupReq:
 534              	.LFB51:
 826:../../../../../../Middlewares/Third_Party/LoRaWAN/Mac/region/Region.c **** 
 827:../../../../../../Middlewares/Third_Party/LoRaWAN/Mac/region/Region.c **** uint8_t RegionRxParamSetupReq( LoRaMacRegion_t region, RxParamSetupReqParams_t* rxParamSetupReq )
ARM GAS  C:\Users\EBANO_~1\AppData\Local\Temp\ccOSDu2a.s 			page 25


 828:../../../../../../Middlewares/Third_Party/LoRaWAN/Mac/region/Region.c **** {
 535              		.loc 1 828 0
 536              		.cfi_startproc
 537              		@ args = 0, pretend = 0, frame = 0
 538              		@ frame_needed = 0, uses_anonymous_args = 0
 539              	.LVL59:
 540 0000 10B5     		push	{r4, lr}
 541              	.LCFI13:
 542              		.cfi_def_cfa_offset 8
 543              		.cfi_offset 4, -8
 544              		.cfi_offset 14, -4
 829:../../../../../../Middlewares/Third_Party/LoRaWAN/Mac/region/Region.c ****     switch( region )
 545              		.loc 1 829 0
 546 0002 0528     		cmp	r0, #5
 547 0004 01D0     		beq	.L64
 830:../../../../../../Middlewares/Third_Party/LoRaWAN/Mac/region/Region.c ****     {
 831:../../../../../../Middlewares/Third_Party/LoRaWAN/Mac/region/Region.c ****         AS923_RX_PARAM_SETUP_REQ( );
 832:../../../../../../Middlewares/Third_Party/LoRaWAN/Mac/region/Region.c ****         AU915_RX_PARAM_SETUP_REQ( );
 833:../../../../../../Middlewares/Third_Party/LoRaWAN/Mac/region/Region.c ****         CN470_RX_PARAM_SETUP_REQ( );
 834:../../../../../../Middlewares/Third_Party/LoRaWAN/Mac/region/Region.c ****         CN779_RX_PARAM_SETUP_REQ( );
 835:../../../../../../Middlewares/Third_Party/LoRaWAN/Mac/region/Region.c ****         EU433_RX_PARAM_SETUP_REQ( );
 836:../../../../../../Middlewares/Third_Party/LoRaWAN/Mac/region/Region.c ****         EU868_RX_PARAM_SETUP_REQ( );
 837:../../../../../../Middlewares/Third_Party/LoRaWAN/Mac/region/Region.c ****         KR920_RX_PARAM_SETUP_REQ( );
 838:../../../../../../Middlewares/Third_Party/LoRaWAN/Mac/region/Region.c ****         IN865_RX_PARAM_SETUP_REQ( );
 839:../../../../../../Middlewares/Third_Party/LoRaWAN/Mac/region/Region.c ****         US915_RX_PARAM_SETUP_REQ( );
 840:../../../../../../Middlewares/Third_Party/LoRaWAN/Mac/region/Region.c ****         RU864_RX_PARAM_SETUP_REQ( );
 841:../../../../../../Middlewares/Third_Party/LoRaWAN/Mac/region/Region.c ****         default:
 842:../../../../../../Middlewares/Third_Party/LoRaWAN/Mac/region/Region.c ****         {
 843:../../../../../../Middlewares/Third_Party/LoRaWAN/Mac/region/Region.c ****             return 0;
 548              		.loc 1 843 0
 549 0006 0020     		movs	r0, #0
 550              	.LVL60:
 551              	.L60:
 844:../../../../../../Middlewares/Third_Party/LoRaWAN/Mac/region/Region.c ****         }
 845:../../../../../../Middlewares/Third_Party/LoRaWAN/Mac/region/Region.c ****     }
 846:../../../../../../Middlewares/Third_Party/LoRaWAN/Mac/region/Region.c **** }
 552              		.loc 1 846 0
 553              		@ sp needed
 554 0008 10BD     		pop	{r4, pc}
 555              	.LVL61:
 556              	.L64:
 836:../../../../../../Middlewares/Third_Party/LoRaWAN/Mac/region/Region.c ****         KR920_RX_PARAM_SETUP_REQ( );
 557              		.loc 1 836 0
 558 000a 0800     		movs	r0, r1
 559              	.LVL62:
 560 000c FFF7FEFF 		bl	RegionEU868RxParamSetupReq
 561              	.LVL63:
 562 0010 FAE7     		b	.L60
 563              		.cfi_endproc
 564              	.LFE51:
 565              		.size	RegionRxParamSetupReq, .-RegionRxParamSetupReq
 566 0012 C046     		.section	.text.RegionNewChannelReq,"ax",%progbits
 567              		.align	1
 568              		.p2align 2,,3
 569              		.global	RegionNewChannelReq
 570              		.syntax unified
 571              		.code	16
ARM GAS  C:\Users\EBANO_~1\AppData\Local\Temp\ccOSDu2a.s 			page 26


 572              		.thumb_func
 573              		.fpu softvfp
 574              		.type	RegionNewChannelReq, %function
 575              	RegionNewChannelReq:
 576              	.LFB52:
 847:../../../../../../Middlewares/Third_Party/LoRaWAN/Mac/region/Region.c **** 
 848:../../../../../../Middlewares/Third_Party/LoRaWAN/Mac/region/Region.c **** uint8_t RegionNewChannelReq( LoRaMacRegion_t region, NewChannelReqParams_t* newChannelReq )
 849:../../../../../../Middlewares/Third_Party/LoRaWAN/Mac/region/Region.c **** {
 577              		.loc 1 849 0
 578              		.cfi_startproc
 579              		@ args = 0, pretend = 0, frame = 0
 580              		@ frame_needed = 0, uses_anonymous_args = 0
 581              	.LVL64:
 582 0000 10B5     		push	{r4, lr}
 583              	.LCFI14:
 584              		.cfi_def_cfa_offset 8
 585              		.cfi_offset 4, -8
 586              		.cfi_offset 14, -4
 850:../../../../../../Middlewares/Third_Party/LoRaWAN/Mac/region/Region.c ****     switch( region )
 587              		.loc 1 850 0
 588 0002 0528     		cmp	r0, #5
 589 0004 01D0     		beq	.L70
 851:../../../../../../Middlewares/Third_Party/LoRaWAN/Mac/region/Region.c ****     {
 852:../../../../../../Middlewares/Third_Party/LoRaWAN/Mac/region/Region.c ****         AS923_NEW_CHANNEL_REQ( );
 853:../../../../../../Middlewares/Third_Party/LoRaWAN/Mac/region/Region.c ****         AU915_NEW_CHANNEL_REQ( );
 854:../../../../../../Middlewares/Third_Party/LoRaWAN/Mac/region/Region.c ****         CN470_NEW_CHANNEL_REQ( );
 855:../../../../../../Middlewares/Third_Party/LoRaWAN/Mac/region/Region.c ****         CN779_NEW_CHANNEL_REQ( );
 856:../../../../../../Middlewares/Third_Party/LoRaWAN/Mac/region/Region.c ****         EU433_NEW_CHANNEL_REQ( );
 857:../../../../../../Middlewares/Third_Party/LoRaWAN/Mac/region/Region.c ****         EU868_NEW_CHANNEL_REQ( );
 858:../../../../../../Middlewares/Third_Party/LoRaWAN/Mac/region/Region.c ****         KR920_NEW_CHANNEL_REQ( );
 859:../../../../../../Middlewares/Third_Party/LoRaWAN/Mac/region/Region.c ****         IN865_NEW_CHANNEL_REQ( );
 860:../../../../../../Middlewares/Third_Party/LoRaWAN/Mac/region/Region.c ****         US915_NEW_CHANNEL_REQ( );
 861:../../../../../../Middlewares/Third_Party/LoRaWAN/Mac/region/Region.c ****         RU864_NEW_CHANNEL_REQ( );
 862:../../../../../../Middlewares/Third_Party/LoRaWAN/Mac/region/Region.c ****         default:
 863:../../../../../../Middlewares/Third_Party/LoRaWAN/Mac/region/Region.c ****         {
 864:../../../../../../Middlewares/Third_Party/LoRaWAN/Mac/region/Region.c ****             return 0;
 590              		.loc 1 864 0
 591 0006 0020     		movs	r0, #0
 592              	.LVL65:
 593              	.L66:
 865:../../../../../../Middlewares/Third_Party/LoRaWAN/Mac/region/Region.c ****         }
 866:../../../../../../Middlewares/Third_Party/LoRaWAN/Mac/region/Region.c ****     }
 867:../../../../../../Middlewares/Third_Party/LoRaWAN/Mac/region/Region.c **** }
 594              		.loc 1 867 0
 595              		@ sp needed
 596 0008 10BD     		pop	{r4, pc}
 597              	.LVL66:
 598              	.L70:
 857:../../../../../../Middlewares/Third_Party/LoRaWAN/Mac/region/Region.c ****         KR920_NEW_CHANNEL_REQ( );
 599              		.loc 1 857 0
 600 000a 0800     		movs	r0, r1
 601              	.LVL67:
 602 000c FFF7FEFF 		bl	RegionEU868NewChannelReq
 603              	.LVL68:
 604 0010 FAE7     		b	.L66
 605              		.cfi_endproc
 606              	.LFE52:
ARM GAS  C:\Users\EBANO_~1\AppData\Local\Temp\ccOSDu2a.s 			page 27


 607              		.size	RegionNewChannelReq, .-RegionNewChannelReq
 608 0012 C046     		.section	.text.RegionTxParamSetupReq,"ax",%progbits
 609              		.align	1
 610              		.p2align 2,,3
 611              		.global	RegionTxParamSetupReq
 612              		.syntax unified
 613              		.code	16
 614              		.thumb_func
 615              		.fpu softvfp
 616              		.type	RegionTxParamSetupReq, %function
 617              	RegionTxParamSetupReq:
 618              	.LFB53:
 868:../../../../../../Middlewares/Third_Party/LoRaWAN/Mac/region/Region.c **** 
 869:../../../../../../Middlewares/Third_Party/LoRaWAN/Mac/region/Region.c **** int8_t RegionTxParamSetupReq( LoRaMacRegion_t region, TxParamSetupReqParams_t* txParamSetupReq )
 870:../../../../../../Middlewares/Third_Party/LoRaWAN/Mac/region/Region.c **** {
 619              		.loc 1 870 0
 620              		.cfi_startproc
 621              		@ args = 0, pretend = 0, frame = 0
 622              		@ frame_needed = 0, uses_anonymous_args = 0
 623              	.LVL69:
 624 0000 10B5     		push	{r4, lr}
 625              	.LCFI15:
 626              		.cfi_def_cfa_offset 8
 627              		.cfi_offset 4, -8
 628              		.cfi_offset 14, -4
 871:../../../../../../Middlewares/Third_Party/LoRaWAN/Mac/region/Region.c ****     switch( region )
 629              		.loc 1 871 0
 630 0002 0528     		cmp	r0, #5
 631 0004 01D0     		beq	.L76
 872:../../../../../../Middlewares/Third_Party/LoRaWAN/Mac/region/Region.c ****     {
 873:../../../../../../Middlewares/Third_Party/LoRaWAN/Mac/region/Region.c ****         AS923_TX_PARAM_SETUP_REQ( );
 874:../../../../../../Middlewares/Third_Party/LoRaWAN/Mac/region/Region.c ****         AU915_TX_PARAM_SETUP_REQ( );
 875:../../../../../../Middlewares/Third_Party/LoRaWAN/Mac/region/Region.c ****         CN470_TX_PARAM_SETUP_REQ( );
 876:../../../../../../Middlewares/Third_Party/LoRaWAN/Mac/region/Region.c ****         CN779_TX_PARAM_SETUP_REQ( );
 877:../../../../../../Middlewares/Third_Party/LoRaWAN/Mac/region/Region.c ****         EU433_TX_PARAM_SETUP_REQ( );
 878:../../../../../../Middlewares/Third_Party/LoRaWAN/Mac/region/Region.c ****         EU868_TX_PARAM_SETUP_REQ( );
 879:../../../../../../Middlewares/Third_Party/LoRaWAN/Mac/region/Region.c ****         KR920_TX_PARAM_SETUP_REQ( );
 880:../../../../../../Middlewares/Third_Party/LoRaWAN/Mac/region/Region.c ****         IN865_TX_PARAM_SETUP_REQ( );
 881:../../../../../../Middlewares/Third_Party/LoRaWAN/Mac/region/Region.c ****         US915_TX_PARAM_SETUP_REQ( );
 882:../../../../../../Middlewares/Third_Party/LoRaWAN/Mac/region/Region.c ****         RU864_TX_PARAM_SETUP_REQ( );
 883:../../../../../../Middlewares/Third_Party/LoRaWAN/Mac/region/Region.c ****         default:
 884:../../../../../../Middlewares/Third_Party/LoRaWAN/Mac/region/Region.c ****         {
 885:../../../../../../Middlewares/Third_Party/LoRaWAN/Mac/region/Region.c ****             return 0;
 632              		.loc 1 885 0
 633 0006 0020     		movs	r0, #0
 634              	.LVL70:
 635              	.L72:
 886:../../../../../../Middlewares/Third_Party/LoRaWAN/Mac/region/Region.c ****         }
 887:../../../../../../Middlewares/Third_Party/LoRaWAN/Mac/region/Region.c ****     }
 888:../../../../../../Middlewares/Third_Party/LoRaWAN/Mac/region/Region.c **** }
 636              		.loc 1 888 0
 637              		@ sp needed
 638 0008 10BD     		pop	{r4, pc}
 639              	.LVL71:
 640              	.L76:
 878:../../../../../../Middlewares/Third_Party/LoRaWAN/Mac/region/Region.c ****         KR920_TX_PARAM_SETUP_REQ( );
 641              		.loc 1 878 0
ARM GAS  C:\Users\EBANO_~1\AppData\Local\Temp\ccOSDu2a.s 			page 28


 642 000a 0800     		movs	r0, r1
 643              	.LVL72:
 644 000c FFF7FEFF 		bl	RegionEU868TxParamSetupReq
 645              	.LVL73:
 646 0010 FAE7     		b	.L72
 647              		.cfi_endproc
 648              	.LFE53:
 649              		.size	RegionTxParamSetupReq, .-RegionTxParamSetupReq
 650 0012 C046     		.section	.text.RegionDlChannelReq,"ax",%progbits
 651              		.align	1
 652              		.p2align 2,,3
 653              		.global	RegionDlChannelReq
 654              		.syntax unified
 655              		.code	16
 656              		.thumb_func
 657              		.fpu softvfp
 658              		.type	RegionDlChannelReq, %function
 659              	RegionDlChannelReq:
 660              	.LFB54:
 889:../../../../../../Middlewares/Third_Party/LoRaWAN/Mac/region/Region.c **** 
 890:../../../../../../Middlewares/Third_Party/LoRaWAN/Mac/region/Region.c **** uint8_t RegionDlChannelReq( LoRaMacRegion_t region, DlChannelReqParams_t* dlChannelReq )
 891:../../../../../../Middlewares/Third_Party/LoRaWAN/Mac/region/Region.c **** {
 661              		.loc 1 891 0
 662              		.cfi_startproc
 663              		@ args = 0, pretend = 0, frame = 0
 664              		@ frame_needed = 0, uses_anonymous_args = 0
 665              	.LVL74:
 666 0000 10B5     		push	{r4, lr}
 667              	.LCFI16:
 668              		.cfi_def_cfa_offset 8
 669              		.cfi_offset 4, -8
 670              		.cfi_offset 14, -4
 892:../../../../../../Middlewares/Third_Party/LoRaWAN/Mac/region/Region.c ****     switch( region )
 671              		.loc 1 892 0
 672 0002 0528     		cmp	r0, #5
 673 0004 01D0     		beq	.L82
 893:../../../../../../Middlewares/Third_Party/LoRaWAN/Mac/region/Region.c ****     {
 894:../../../../../../Middlewares/Third_Party/LoRaWAN/Mac/region/Region.c ****         AS923_DL_CHANNEL_REQ( );
 895:../../../../../../Middlewares/Third_Party/LoRaWAN/Mac/region/Region.c ****         AU915_DL_CHANNEL_REQ( );
 896:../../../../../../Middlewares/Third_Party/LoRaWAN/Mac/region/Region.c ****         CN470_DL_CHANNEL_REQ( );
 897:../../../../../../Middlewares/Third_Party/LoRaWAN/Mac/region/Region.c ****         CN779_DL_CHANNEL_REQ( );
 898:../../../../../../Middlewares/Third_Party/LoRaWAN/Mac/region/Region.c ****         EU433_DL_CHANNEL_REQ( );
 899:../../../../../../Middlewares/Third_Party/LoRaWAN/Mac/region/Region.c ****         EU868_DL_CHANNEL_REQ( );
 900:../../../../../../Middlewares/Third_Party/LoRaWAN/Mac/region/Region.c ****         KR920_DL_CHANNEL_REQ( );
 901:../../../../../../Middlewares/Third_Party/LoRaWAN/Mac/region/Region.c ****         IN865_DL_CHANNEL_REQ( );
 902:../../../../../../Middlewares/Third_Party/LoRaWAN/Mac/region/Region.c ****         US915_DL_CHANNEL_REQ( );
 903:../../../../../../Middlewares/Third_Party/LoRaWAN/Mac/region/Region.c ****         RU864_DL_CHANNEL_REQ( );
 904:../../../../../../Middlewares/Third_Party/LoRaWAN/Mac/region/Region.c ****         default:
 905:../../../../../../Middlewares/Third_Party/LoRaWAN/Mac/region/Region.c ****         {
 906:../../../../../../Middlewares/Third_Party/LoRaWAN/Mac/region/Region.c ****             return 0;
 674              		.loc 1 906 0
 675 0006 0020     		movs	r0, #0
 676              	.LVL75:
 677              	.L78:
 907:../../../../../../Middlewares/Third_Party/LoRaWAN/Mac/region/Region.c ****         }
 908:../../../../../../Middlewares/Third_Party/LoRaWAN/Mac/region/Region.c ****     }
 909:../../../../../../Middlewares/Third_Party/LoRaWAN/Mac/region/Region.c **** }
ARM GAS  C:\Users\EBANO_~1\AppData\Local\Temp\ccOSDu2a.s 			page 29


 678              		.loc 1 909 0
 679              		@ sp needed
 680 0008 10BD     		pop	{r4, pc}
 681              	.LVL76:
 682              	.L82:
 899:../../../../../../Middlewares/Third_Party/LoRaWAN/Mac/region/Region.c ****         KR920_DL_CHANNEL_REQ( );
 683              		.loc 1 899 0
 684 000a 0800     		movs	r0, r1
 685              	.LVL77:
 686 000c FFF7FEFF 		bl	RegionEU868DlChannelReq
 687              	.LVL78:
 688 0010 FAE7     		b	.L78
 689              		.cfi_endproc
 690              	.LFE54:
 691              		.size	RegionDlChannelReq, .-RegionDlChannelReq
 692 0012 C046     		.section	.text.RegionAlternateDr,"ax",%progbits
 693              		.align	1
 694              		.p2align 2,,3
 695              		.global	RegionAlternateDr
 696              		.syntax unified
 697              		.code	16
 698              		.thumb_func
 699              		.fpu softvfp
 700              		.type	RegionAlternateDr, %function
 701              	RegionAlternateDr:
 702              	.LFB55:
 910:../../../../../../Middlewares/Third_Party/LoRaWAN/Mac/region/Region.c **** 
 911:../../../../../../Middlewares/Third_Party/LoRaWAN/Mac/region/Region.c **** int8_t RegionAlternateDr( LoRaMacRegion_t region, int8_t currentDr, AlternateDrType_t type )
 912:../../../../../../Middlewares/Third_Party/LoRaWAN/Mac/region/Region.c **** {
 703              		.loc 1 912 0
 704              		.cfi_startproc
 705              		@ args = 0, pretend = 0, frame = 0
 706              		@ frame_needed = 0, uses_anonymous_args = 0
 707              	.LVL79:
 708 0000 10B5     		push	{r4, lr}
 709              	.LCFI17:
 710              		.cfi_def_cfa_offset 8
 711              		.cfi_offset 4, -8
 712              		.cfi_offset 14, -4
 713              		.loc 1 912 0
 714 0002 0B00     		movs	r3, r1
 913:../../../../../../Middlewares/Third_Party/LoRaWAN/Mac/region/Region.c ****     switch( region )
 715              		.loc 1 913 0
 716 0004 0528     		cmp	r0, #5
 717 0006 01D0     		beq	.L88
 914:../../../../../../Middlewares/Third_Party/LoRaWAN/Mac/region/Region.c ****     {
 915:../../../../../../Middlewares/Third_Party/LoRaWAN/Mac/region/Region.c ****         AS923_ALTERNATE_DR( );
 916:../../../../../../Middlewares/Third_Party/LoRaWAN/Mac/region/Region.c ****         AU915_ALTERNATE_DR( );
 917:../../../../../../Middlewares/Third_Party/LoRaWAN/Mac/region/Region.c ****         CN470_ALTERNATE_DR( );
 918:../../../../../../Middlewares/Third_Party/LoRaWAN/Mac/region/Region.c ****         CN779_ALTERNATE_DR( );
 919:../../../../../../Middlewares/Third_Party/LoRaWAN/Mac/region/Region.c ****         EU433_ALTERNATE_DR( );
 920:../../../../../../Middlewares/Third_Party/LoRaWAN/Mac/region/Region.c ****         EU868_ALTERNATE_DR( );
 921:../../../../../../Middlewares/Third_Party/LoRaWAN/Mac/region/Region.c ****         KR920_ALTERNATE_DR( );
 922:../../../../../../Middlewares/Third_Party/LoRaWAN/Mac/region/Region.c ****         IN865_ALTERNATE_DR( );
 923:../../../../../../Middlewares/Third_Party/LoRaWAN/Mac/region/Region.c ****         US915_ALTERNATE_DR( );
 924:../../../../../../Middlewares/Third_Party/LoRaWAN/Mac/region/Region.c ****         RU864_ALTERNATE_DR( );
 925:../../../../../../Middlewares/Third_Party/LoRaWAN/Mac/region/Region.c ****         default:
ARM GAS  C:\Users\EBANO_~1\AppData\Local\Temp\ccOSDu2a.s 			page 30


 926:../../../../../../Middlewares/Third_Party/LoRaWAN/Mac/region/Region.c ****         {
 927:../../../../../../Middlewares/Third_Party/LoRaWAN/Mac/region/Region.c ****             return 0;
 718              		.loc 1 927 0
 719 0008 0020     		movs	r0, #0
 720              	.LVL80:
 721              	.L84:
 928:../../../../../../Middlewares/Third_Party/LoRaWAN/Mac/region/Region.c ****         }
 929:../../../../../../Middlewares/Third_Party/LoRaWAN/Mac/region/Region.c ****     }
 930:../../../../../../Middlewares/Third_Party/LoRaWAN/Mac/region/Region.c **** }
 722              		.loc 1 930 0
 723              		@ sp needed
 724 000a 10BD     		pop	{r4, pc}
 725              	.LVL81:
 726              	.L88:
 920:../../../../../../Middlewares/Third_Party/LoRaWAN/Mac/region/Region.c ****         KR920_ALTERNATE_DR( );
 727              		.loc 1 920 0
 728 000c 1100     		movs	r1, r2
 729              	.LVL82:
 730 000e 1800     		movs	r0, r3
 731              	.LVL83:
 732 0010 FFF7FEFF 		bl	RegionEU868AlternateDr
 733              	.LVL84:
 734 0014 F9E7     		b	.L84
 735              		.cfi_endproc
 736              	.LFE55:
 737              		.size	RegionAlternateDr, .-RegionAlternateDr
 738 0016 C046     		.section	.text.RegionCalcBackOff,"ax",%progbits
 739              		.align	1
 740              		.p2align 2,,3
 741              		.global	RegionCalcBackOff
 742              		.syntax unified
 743              		.code	16
 744              		.thumb_func
 745              		.fpu softvfp
 746              		.type	RegionCalcBackOff, %function
 747              	RegionCalcBackOff:
 748              	.LFB56:
 931:../../../../../../Middlewares/Third_Party/LoRaWAN/Mac/region/Region.c **** 
 932:../../../../../../Middlewares/Third_Party/LoRaWAN/Mac/region/Region.c **** void RegionCalcBackOff( LoRaMacRegion_t region, CalcBackOffParams_t* calcBackOff )
 933:../../../../../../Middlewares/Third_Party/LoRaWAN/Mac/region/Region.c **** {
 749              		.loc 1 933 0
 750              		.cfi_startproc
 751              		@ args = 0, pretend = 0, frame = 0
 752              		@ frame_needed = 0, uses_anonymous_args = 0
 753              	.LVL85:
 754 0000 10B5     		push	{r4, lr}
 755              	.LCFI18:
 756              		.cfi_def_cfa_offset 8
 757              		.cfi_offset 4, -8
 758              		.cfi_offset 14, -4
 934:../../../../../../Middlewares/Third_Party/LoRaWAN/Mac/region/Region.c ****     switch( region )
 759              		.loc 1 934 0
 760 0002 0528     		cmp	r0, #5
 761 0004 02D1     		bne	.L89
 935:../../../../../../Middlewares/Third_Party/LoRaWAN/Mac/region/Region.c ****     {
 936:../../../../../../Middlewares/Third_Party/LoRaWAN/Mac/region/Region.c ****         AS923_CALC_BACKOFF( );
 937:../../../../../../Middlewares/Third_Party/LoRaWAN/Mac/region/Region.c ****         AU915_CALC_BACKOFF( );
ARM GAS  C:\Users\EBANO_~1\AppData\Local\Temp\ccOSDu2a.s 			page 31


 938:../../../../../../Middlewares/Third_Party/LoRaWAN/Mac/region/Region.c ****         CN470_CALC_BACKOFF( );
 939:../../../../../../Middlewares/Third_Party/LoRaWAN/Mac/region/Region.c ****         CN779_CALC_BACKOFF( );
 940:../../../../../../Middlewares/Third_Party/LoRaWAN/Mac/region/Region.c ****         EU433_CALC_BACKOFF( );
 941:../../../../../../Middlewares/Third_Party/LoRaWAN/Mac/region/Region.c ****         EU868_CALC_BACKOFF( );
 762              		.loc 1 941 0
 763 0006 0800     		movs	r0, r1
 764              	.LVL86:
 765 0008 FFF7FEFF 		bl	RegionEU868CalcBackOff
 766              	.LVL87:
 767              	.L89:
 942:../../../../../../Middlewares/Third_Party/LoRaWAN/Mac/region/Region.c ****         KR920_CALC_BACKOFF( );
 943:../../../../../../Middlewares/Third_Party/LoRaWAN/Mac/region/Region.c ****         IN865_CALC_BACKOFF( );
 944:../../../../../../Middlewares/Third_Party/LoRaWAN/Mac/region/Region.c ****         US915_CALC_BACKOFF( );
 945:../../../../../../Middlewares/Third_Party/LoRaWAN/Mac/region/Region.c ****         RU864_CALC_BACKOFF( );
 946:../../../../../../Middlewares/Third_Party/LoRaWAN/Mac/region/Region.c ****         default:
 947:../../../../../../Middlewares/Third_Party/LoRaWAN/Mac/region/Region.c ****         {
 948:../../../../../../Middlewares/Third_Party/LoRaWAN/Mac/region/Region.c ****             break;
 949:../../../../../../Middlewares/Third_Party/LoRaWAN/Mac/region/Region.c ****         }
 950:../../../../../../Middlewares/Third_Party/LoRaWAN/Mac/region/Region.c ****     }
 951:../../../../../../Middlewares/Third_Party/LoRaWAN/Mac/region/Region.c **** }
 768              		.loc 1 951 0
 769              		@ sp needed
 770 000c 10BD     		pop	{r4, pc}
 771              		.cfi_endproc
 772              	.LFE56:
 773              		.size	RegionCalcBackOff, .-RegionCalcBackOff
 774 000e C046     		.section	.text.RegionNextChannel,"ax",%progbits
 775              		.align	1
 776              		.p2align 2,,3
 777              		.global	RegionNextChannel
 778              		.syntax unified
 779              		.code	16
 780              		.thumb_func
 781              		.fpu softvfp
 782              		.type	RegionNextChannel, %function
 783              	RegionNextChannel:
 784              	.LFB57:
 952:../../../../../../Middlewares/Third_Party/LoRaWAN/Mac/region/Region.c **** 
 953:../../../../../../Middlewares/Third_Party/LoRaWAN/Mac/region/Region.c **** LoRaMacStatus_t RegionNextChannel( LoRaMacRegion_t region, NextChanParams_t* nextChanParams, uint8_
 954:../../../../../../Middlewares/Third_Party/LoRaWAN/Mac/region/Region.c **** {
 785              		.loc 1 954 0
 786              		.cfi_startproc
 787              		@ args = 4, pretend = 0, frame = 0
 788              		@ frame_needed = 0, uses_anonymous_args = 0
 789              	.LVL88:
 790 0000 10B5     		push	{r4, lr}
 791              	.LCFI19:
 792              		.cfi_def_cfa_offset 8
 793              		.cfi_offset 4, -8
 794              		.cfi_offset 14, -4
 795              		.loc 1 954 0
 796 0002 0C00     		movs	r4, r1
 797 0004 1100     		movs	r1, r2
 798              	.LVL89:
 799 0006 1A00     		movs	r2, r3
 800              	.LVL90:
 955:../../../../../../Middlewares/Third_Party/LoRaWAN/Mac/region/Region.c ****     switch( region )
ARM GAS  C:\Users\EBANO_~1\AppData\Local\Temp\ccOSDu2a.s 			page 32


 801              		.loc 1 955 0
 802 0008 0528     		cmp	r0, #5
 803 000a 04D1     		bne	.L96
 956:../../../../../../Middlewares/Third_Party/LoRaWAN/Mac/region/Region.c ****     {
 957:../../../../../../Middlewares/Third_Party/LoRaWAN/Mac/region/Region.c ****         AS923_NEXT_CHANNEL( );
 958:../../../../../../Middlewares/Third_Party/LoRaWAN/Mac/region/Region.c ****         AU915_NEXT_CHANNEL( );
 959:../../../../../../Middlewares/Third_Party/LoRaWAN/Mac/region/Region.c ****         CN470_NEXT_CHANNEL( );
 960:../../../../../../Middlewares/Third_Party/LoRaWAN/Mac/region/Region.c ****         CN779_NEXT_CHANNEL( );
 961:../../../../../../Middlewares/Third_Party/LoRaWAN/Mac/region/Region.c ****         EU433_NEXT_CHANNEL( );
 962:../../../../../../Middlewares/Third_Party/LoRaWAN/Mac/region/Region.c ****         EU868_NEXT_CHANNEL( );
 804              		.loc 1 962 0
 805 000c 029B     		ldr	r3, [sp, #8]
 806              	.LVL91:
 807 000e 2000     		movs	r0, r4
 808              	.LVL92:
 809 0010 FFF7FEFF 		bl	RegionEU868NextChannel
 810              	.LVL93:
 811              	.L93:
 963:../../../../../../Middlewares/Third_Party/LoRaWAN/Mac/region/Region.c ****         KR920_NEXT_CHANNEL( );
 964:../../../../../../Middlewares/Third_Party/LoRaWAN/Mac/region/Region.c ****         IN865_NEXT_CHANNEL( );
 965:../../../../../../Middlewares/Third_Party/LoRaWAN/Mac/region/Region.c ****         US915_NEXT_CHANNEL( );
 966:../../../../../../Middlewares/Third_Party/LoRaWAN/Mac/region/Region.c ****         RU864_NEXT_CHANNEL( );
 967:../../../../../../Middlewares/Third_Party/LoRaWAN/Mac/region/Region.c ****         default:
 968:../../../../../../Middlewares/Third_Party/LoRaWAN/Mac/region/Region.c ****         {
 969:../../../../../../Middlewares/Third_Party/LoRaWAN/Mac/region/Region.c ****             return LORAMAC_STATUS_REGION_NOT_SUPPORTED;
 970:../../../../../../Middlewares/Third_Party/LoRaWAN/Mac/region/Region.c ****         }
 971:../../../../../../Middlewares/Third_Party/LoRaWAN/Mac/region/Region.c ****     }
 972:../../../../../../Middlewares/Third_Party/LoRaWAN/Mac/region/Region.c **** }
 812              		.loc 1 972 0
 813              		@ sp needed
 814              	.LVL94:
 815 0014 10BD     		pop	{r4, pc}
 816              	.LVL95:
 817              	.L96:
 969:../../../../../../Middlewares/Third_Party/LoRaWAN/Mac/region/Region.c ****         }
 818              		.loc 1 969 0
 819 0016 0920     		movs	r0, #9
 820              	.LVL96:
 821 0018 FCE7     		b	.L93
 822              		.cfi_endproc
 823              	.LFE57:
 824              		.size	RegionNextChannel, .-RegionNextChannel
 825 001a C046     		.section	.text.RegionChannelAdd,"ax",%progbits
 826              		.align	1
 827              		.p2align 2,,3
 828              		.global	RegionChannelAdd
 829              		.syntax unified
 830              		.code	16
 831              		.thumb_func
 832              		.fpu softvfp
 833              		.type	RegionChannelAdd, %function
 834              	RegionChannelAdd:
 835              	.LFB58:
 973:../../../../../../Middlewares/Third_Party/LoRaWAN/Mac/region/Region.c **** 
 974:../../../../../../Middlewares/Third_Party/LoRaWAN/Mac/region/Region.c **** LoRaMacStatus_t RegionChannelAdd( LoRaMacRegion_t region, ChannelAddParams_t* channelAdd )
 975:../../../../../../Middlewares/Third_Party/LoRaWAN/Mac/region/Region.c **** {
 836              		.loc 1 975 0
ARM GAS  C:\Users\EBANO_~1\AppData\Local\Temp\ccOSDu2a.s 			page 33


 837              		.cfi_startproc
 838              		@ args = 0, pretend = 0, frame = 0
 839              		@ frame_needed = 0, uses_anonymous_args = 0
 840              	.LVL97:
 841 0000 10B5     		push	{r4, lr}
 842              	.LCFI20:
 843              		.cfi_def_cfa_offset 8
 844              		.cfi_offset 4, -8
 845              		.cfi_offset 14, -4
 976:../../../../../../Middlewares/Third_Party/LoRaWAN/Mac/region/Region.c ****     switch( region )
 846              		.loc 1 976 0
 847 0002 0528     		cmp	r0, #5
 848 0004 03D1     		bne	.L101
 977:../../../../../../Middlewares/Third_Party/LoRaWAN/Mac/region/Region.c ****     {
 978:../../../../../../Middlewares/Third_Party/LoRaWAN/Mac/region/Region.c ****         AS923_CHANNEL_ADD( );
 979:../../../../../../Middlewares/Third_Party/LoRaWAN/Mac/region/Region.c ****         AU915_CHANNEL_ADD( );
 980:../../../../../../Middlewares/Third_Party/LoRaWAN/Mac/region/Region.c ****         CN470_CHANNEL_ADD( );
 981:../../../../../../Middlewares/Third_Party/LoRaWAN/Mac/region/Region.c ****         CN779_CHANNEL_ADD( );
 982:../../../../../../Middlewares/Third_Party/LoRaWAN/Mac/region/Region.c ****         EU433_CHANNEL_ADD( );
 983:../../../../../../Middlewares/Third_Party/LoRaWAN/Mac/region/Region.c ****         EU868_CHANNEL_ADD( );
 849              		.loc 1 983 0
 850 0006 0800     		movs	r0, r1
 851              	.LVL98:
 852 0008 FFF7FEFF 		bl	RegionEU868ChannelAdd
 853              	.LVL99:
 854              	.L98:
 984:../../../../../../Middlewares/Third_Party/LoRaWAN/Mac/region/Region.c ****         KR920_CHANNEL_ADD( );
 985:../../../../../../Middlewares/Third_Party/LoRaWAN/Mac/region/Region.c ****         IN865_CHANNEL_ADD( );
 986:../../../../../../Middlewares/Third_Party/LoRaWAN/Mac/region/Region.c ****         US915_CHANNEL_ADD( );
 987:../../../../../../Middlewares/Third_Party/LoRaWAN/Mac/region/Region.c ****         RU864_CHANNEL_ADD( );
 988:../../../../../../Middlewares/Third_Party/LoRaWAN/Mac/region/Region.c ****         default:
 989:../../../../../../Middlewares/Third_Party/LoRaWAN/Mac/region/Region.c ****         {
 990:../../../../../../Middlewares/Third_Party/LoRaWAN/Mac/region/Region.c ****             return LORAMAC_STATUS_PARAMETER_INVALID;
 991:../../../../../../Middlewares/Third_Party/LoRaWAN/Mac/region/Region.c ****         }
 992:../../../../../../Middlewares/Third_Party/LoRaWAN/Mac/region/Region.c ****     }
 993:../../../../../../Middlewares/Third_Party/LoRaWAN/Mac/region/Region.c **** }
 855              		.loc 1 993 0
 856              		@ sp needed
 857 000c 10BD     		pop	{r4, pc}
 858              	.LVL100:
 859              	.L101:
 990:../../../../../../Middlewares/Third_Party/LoRaWAN/Mac/region/Region.c ****         }
 860              		.loc 1 990 0
 861 000e 0320     		movs	r0, #3
 862              	.LVL101:
 863 0010 FCE7     		b	.L98
 864              		.cfi_endproc
 865              	.LFE58:
 866              		.size	RegionChannelAdd, .-RegionChannelAdd
 867 0012 C046     		.section	.text.RegionChannelsRemove,"ax",%progbits
 868              		.align	1
 869              		.p2align 2,,3
 870              		.global	RegionChannelsRemove
 871              		.syntax unified
 872              		.code	16
 873              		.thumb_func
 874              		.fpu softvfp
ARM GAS  C:\Users\EBANO_~1\AppData\Local\Temp\ccOSDu2a.s 			page 34


 875              		.type	RegionChannelsRemove, %function
 876              	RegionChannelsRemove:
 877              	.LFB59:
 994:../../../../../../Middlewares/Third_Party/LoRaWAN/Mac/region/Region.c **** 
 995:../../../../../../Middlewares/Third_Party/LoRaWAN/Mac/region/Region.c **** bool RegionChannelsRemove( LoRaMacRegion_t region, ChannelRemoveParams_t* channelRemove )
 996:../../../../../../Middlewares/Third_Party/LoRaWAN/Mac/region/Region.c **** {
 878              		.loc 1 996 0
 879              		.cfi_startproc
 880              		@ args = 0, pretend = 0, frame = 0
 881              		@ frame_needed = 0, uses_anonymous_args = 0
 882              	.LVL102:
 883 0000 10B5     		push	{r4, lr}
 884              	.LCFI21:
 885              		.cfi_def_cfa_offset 8
 886              		.cfi_offset 4, -8
 887              		.cfi_offset 14, -4
 997:../../../../../../Middlewares/Third_Party/LoRaWAN/Mac/region/Region.c ****     switch( region )
 888              		.loc 1 997 0
 889 0002 0528     		cmp	r0, #5
 890 0004 01D0     		beq	.L107
 998:../../../../../../Middlewares/Third_Party/LoRaWAN/Mac/region/Region.c ****     {
 999:../../../../../../Middlewares/Third_Party/LoRaWAN/Mac/region/Region.c ****         AS923_CHANNEL_REMOVE( );
1000:../../../../../../Middlewares/Third_Party/LoRaWAN/Mac/region/Region.c ****         AU915_CHANNEL_REMOVE( );
1001:../../../../../../Middlewares/Third_Party/LoRaWAN/Mac/region/Region.c ****         CN470_CHANNEL_REMOVE( );
1002:../../../../../../Middlewares/Third_Party/LoRaWAN/Mac/region/Region.c ****         CN779_CHANNEL_REMOVE( );
1003:../../../../../../Middlewares/Third_Party/LoRaWAN/Mac/region/Region.c ****         EU433_CHANNEL_REMOVE( );
1004:../../../../../../Middlewares/Third_Party/LoRaWAN/Mac/region/Region.c ****         EU868_CHANNEL_REMOVE( );
1005:../../../../../../Middlewares/Third_Party/LoRaWAN/Mac/region/Region.c ****         KR920_CHANNEL_REMOVE( );
1006:../../../../../../Middlewares/Third_Party/LoRaWAN/Mac/region/Region.c ****         IN865_CHANNEL_REMOVE( );
1007:../../../../../../Middlewares/Third_Party/LoRaWAN/Mac/region/Region.c ****         US915_CHANNEL_REMOVE( );
1008:../../../../../../Middlewares/Third_Party/LoRaWAN/Mac/region/Region.c ****         RU864_CHANNEL_REMOVE( );
1009:../../../../../../Middlewares/Third_Party/LoRaWAN/Mac/region/Region.c ****         default:
1010:../../../../../../Middlewares/Third_Party/LoRaWAN/Mac/region/Region.c ****         {
1011:../../../../../../Middlewares/Third_Party/LoRaWAN/Mac/region/Region.c ****             return false;
 891              		.loc 1 1011 0
 892 0006 0020     		movs	r0, #0
 893              	.LVL103:
 894              	.L103:
1012:../../../../../../Middlewares/Third_Party/LoRaWAN/Mac/region/Region.c ****         }
1013:../../../../../../Middlewares/Third_Party/LoRaWAN/Mac/region/Region.c ****     }
1014:../../../../../../Middlewares/Third_Party/LoRaWAN/Mac/region/Region.c **** }
 895              		.loc 1 1014 0
 896              		@ sp needed
 897 0008 10BD     		pop	{r4, pc}
 898              	.LVL104:
 899              	.L107:
1004:../../../../../../Middlewares/Third_Party/LoRaWAN/Mac/region/Region.c ****         KR920_CHANNEL_REMOVE( );
 900              		.loc 1 1004 0
 901 000a 0800     		movs	r0, r1
 902              	.LVL105:
 903 000c FFF7FEFF 		bl	RegionEU868ChannelsRemove
 904              	.LVL106:
 905 0010 FAE7     		b	.L103
 906              		.cfi_endproc
 907              	.LFE59:
 908              		.size	RegionChannelsRemove, .-RegionChannelsRemove
 909 0012 C046     		.section	.text.RegionSetContinuousWave,"ax",%progbits
ARM GAS  C:\Users\EBANO_~1\AppData\Local\Temp\ccOSDu2a.s 			page 35


 910              		.align	1
 911              		.p2align 2,,3
 912              		.global	RegionSetContinuousWave
 913              		.syntax unified
 914              		.code	16
 915              		.thumb_func
 916              		.fpu softvfp
 917              		.type	RegionSetContinuousWave, %function
 918              	RegionSetContinuousWave:
 919              	.LFB60:
1015:../../../../../../Middlewares/Third_Party/LoRaWAN/Mac/region/Region.c **** 
1016:../../../../../../Middlewares/Third_Party/LoRaWAN/Mac/region/Region.c **** void RegionSetContinuousWave( LoRaMacRegion_t region, ContinuousWaveParams_t* continuousWave )
1017:../../../../../../Middlewares/Third_Party/LoRaWAN/Mac/region/Region.c **** {
 920              		.loc 1 1017 0
 921              		.cfi_startproc
 922              		@ args = 0, pretend = 0, frame = 0
 923              		@ frame_needed = 0, uses_anonymous_args = 0
 924              	.LVL107:
 925 0000 10B5     		push	{r4, lr}
 926              	.LCFI22:
 927              		.cfi_def_cfa_offset 8
 928              		.cfi_offset 4, -8
 929              		.cfi_offset 14, -4
1018:../../../../../../Middlewares/Third_Party/LoRaWAN/Mac/region/Region.c ****     switch( region )
 930              		.loc 1 1018 0
 931 0002 0528     		cmp	r0, #5
 932 0004 02D1     		bne	.L108
1019:../../../../../../Middlewares/Third_Party/LoRaWAN/Mac/region/Region.c ****     {
1020:../../../../../../Middlewares/Third_Party/LoRaWAN/Mac/region/Region.c ****         AS923_SET_CONTINUOUS_WAVE( );
1021:../../../../../../Middlewares/Third_Party/LoRaWAN/Mac/region/Region.c ****         AU915_SET_CONTINUOUS_WAVE( );
1022:../../../../../../Middlewares/Third_Party/LoRaWAN/Mac/region/Region.c ****         CN470_SET_CONTINUOUS_WAVE( );
1023:../../../../../../Middlewares/Third_Party/LoRaWAN/Mac/region/Region.c ****         CN779_SET_CONTINUOUS_WAVE( );
1024:../../../../../../Middlewares/Third_Party/LoRaWAN/Mac/region/Region.c ****         EU433_SET_CONTINUOUS_WAVE( );
1025:../../../../../../Middlewares/Third_Party/LoRaWAN/Mac/region/Region.c ****         EU868_SET_CONTINUOUS_WAVE( );
 933              		.loc 1 1025 0
 934 0006 0800     		movs	r0, r1
 935              	.LVL108:
 936 0008 FFF7FEFF 		bl	RegionEU868SetContinuousWave
 937              	.LVL109:
 938              	.L108:
1026:../../../../../../Middlewares/Third_Party/LoRaWAN/Mac/region/Region.c ****         KR920_SET_CONTINUOUS_WAVE( );
1027:../../../../../../Middlewares/Third_Party/LoRaWAN/Mac/region/Region.c ****         IN865_SET_CONTINUOUS_WAVE( );
1028:../../../../../../Middlewares/Third_Party/LoRaWAN/Mac/region/Region.c ****         US915_SET_CONTINUOUS_WAVE( );
1029:../../../../../../Middlewares/Third_Party/LoRaWAN/Mac/region/Region.c ****         RU864_SET_CONTINUOUS_WAVE( );
1030:../../../../../../Middlewares/Third_Party/LoRaWAN/Mac/region/Region.c ****         default:
1031:../../../../../../Middlewares/Third_Party/LoRaWAN/Mac/region/Region.c ****         {
1032:../../../../../../Middlewares/Third_Party/LoRaWAN/Mac/region/Region.c ****             break;
1033:../../../../../../Middlewares/Third_Party/LoRaWAN/Mac/region/Region.c ****         }
1034:../../../../../../Middlewares/Third_Party/LoRaWAN/Mac/region/Region.c ****     }
1035:../../../../../../Middlewares/Third_Party/LoRaWAN/Mac/region/Region.c **** }
 939              		.loc 1 1035 0
 940              		@ sp needed
 941 000c 10BD     		pop	{r4, pc}
 942              		.cfi_endproc
 943              	.LFE60:
 944              		.size	RegionSetContinuousWave, .-RegionSetContinuousWave
 945 000e C046     		.section	.text.RegionApplyDrOffset,"ax",%progbits
ARM GAS  C:\Users\EBANO_~1\AppData\Local\Temp\ccOSDu2a.s 			page 36


 946              		.align	1
 947              		.p2align 2,,3
 948              		.global	RegionApplyDrOffset
 949              		.syntax unified
 950              		.code	16
 951              		.thumb_func
 952              		.fpu softvfp
 953              		.type	RegionApplyDrOffset, %function
 954              	RegionApplyDrOffset:
 955              	.LFB61:
1036:../../../../../../Middlewares/Third_Party/LoRaWAN/Mac/region/Region.c **** 
1037:../../../../../../Middlewares/Third_Party/LoRaWAN/Mac/region/Region.c **** uint8_t RegionApplyDrOffset( LoRaMacRegion_t region, uint8_t downlinkDwellTime, int8_t dr, int8_t d
1038:../../../../../../Middlewares/Third_Party/LoRaWAN/Mac/region/Region.c **** {
 956              		.loc 1 1038 0
 957              		.cfi_startproc
 958              		@ args = 0, pretend = 0, frame = 0
 959              		@ frame_needed = 0, uses_anonymous_args = 0
 960              	.LVL110:
 961 0000 10B5     		push	{r4, lr}
 962              	.LCFI23:
 963              		.cfi_def_cfa_offset 8
 964              		.cfi_offset 4, -8
 965              		.cfi_offset 14, -4
 966              		.loc 1 1038 0
 967 0002 0C00     		movs	r4, r1
 968 0004 1100     		movs	r1, r2
 969              	.LVL111:
1039:../../../../../../Middlewares/Third_Party/LoRaWAN/Mac/region/Region.c ****     switch( region )
 970              		.loc 1 1039 0
 971 0006 0528     		cmp	r0, #5
 972 0008 01D0     		beq	.L116
1040:../../../../../../Middlewares/Third_Party/LoRaWAN/Mac/region/Region.c ****     {
1041:../../../../../../Middlewares/Third_Party/LoRaWAN/Mac/region/Region.c ****         AS923_APPLY_DR_OFFSET( );
1042:../../../../../../Middlewares/Third_Party/LoRaWAN/Mac/region/Region.c ****         AU915_APPLY_DR_OFFSET( );
1043:../../../../../../Middlewares/Third_Party/LoRaWAN/Mac/region/Region.c ****         CN470_APPLY_DR_OFFSET( );
1044:../../../../../../Middlewares/Third_Party/LoRaWAN/Mac/region/Region.c ****         CN779_APPLY_DR_OFFSET( );
1045:../../../../../../Middlewares/Third_Party/LoRaWAN/Mac/region/Region.c ****         EU433_APPLY_DR_OFFSET( );
1046:../../../../../../Middlewares/Third_Party/LoRaWAN/Mac/region/Region.c ****         EU868_APPLY_DR_OFFSET( );
1047:../../../../../../Middlewares/Third_Party/LoRaWAN/Mac/region/Region.c ****         KR920_APPLY_DR_OFFSET( );
1048:../../../../../../Middlewares/Third_Party/LoRaWAN/Mac/region/Region.c ****         IN865_APPLY_DR_OFFSET( );
1049:../../../../../../Middlewares/Third_Party/LoRaWAN/Mac/region/Region.c ****         US915_APPLY_DR_OFFSET( );
1050:../../../../../../Middlewares/Third_Party/LoRaWAN/Mac/region/Region.c ****         RU864_APPLY_DR_OFFSET( );
1051:../../../../../../Middlewares/Third_Party/LoRaWAN/Mac/region/Region.c ****         default:
1052:../../../../../../Middlewares/Third_Party/LoRaWAN/Mac/region/Region.c ****         {
1053:../../../../../../Middlewares/Third_Party/LoRaWAN/Mac/region/Region.c ****             return dr;
 973              		.loc 1 1053 0
 974 000a D0B2     		uxtb	r0, r2
 975              	.LVL112:
 976              	.L114:
1054:../../../../../../Middlewares/Third_Party/LoRaWAN/Mac/region/Region.c ****         }
1055:../../../../../../Middlewares/Third_Party/LoRaWAN/Mac/region/Region.c ****     }
1056:../../../../../../Middlewares/Third_Party/LoRaWAN/Mac/region/Region.c **** }
 977              		.loc 1 1056 0
 978              		@ sp needed
 979 000c 10BD     		pop	{r4, pc}
 980              	.LVL113:
 981              	.L116:
ARM GAS  C:\Users\EBANO_~1\AppData\Local\Temp\ccOSDu2a.s 			page 37


1046:../../../../../../Middlewares/Third_Party/LoRaWAN/Mac/region/Region.c ****         KR920_APPLY_DR_OFFSET( );
 982              		.loc 1 1046 0
 983 000e 1A00     		movs	r2, r3
 984              	.LVL114:
 985 0010 2000     		movs	r0, r4
 986              	.LVL115:
 987 0012 FFF7FEFF 		bl	RegionEU868ApplyDrOffset
 988              	.LVL116:
 989 0016 F9E7     		b	.L114
 990              		.cfi_endproc
 991              	.LFE61:
 992              		.size	RegionApplyDrOffset, .-RegionApplyDrOffset
 993              		.section	.text.RegionRxBeaconSetup,"ax",%progbits
 994              		.align	1
 995              		.p2align 2,,3
 996              		.global	RegionRxBeaconSetup
 997              		.syntax unified
 998              		.code	16
 999              		.thumb_func
 1000              		.fpu softvfp
 1001              		.type	RegionRxBeaconSetup, %function
 1002              	RegionRxBeaconSetup:
 1003              	.LFB62:
1057:../../../../../../Middlewares/Third_Party/LoRaWAN/Mac/region/Region.c **** 
1058:../../../../../../Middlewares/Third_Party/LoRaWAN/Mac/region/Region.c **** void RegionRxBeaconSetup( LoRaMacRegion_t region, RxBeaconSetup_t* rxBeaconSetup, uint8_t* outDr )
1059:../../../../../../Middlewares/Third_Party/LoRaWAN/Mac/region/Region.c **** {
 1004              		.loc 1 1059 0
 1005              		.cfi_startproc
 1006              		@ args = 0, pretend = 0, frame = 0
 1007              		@ frame_needed = 0, uses_anonymous_args = 0
 1008              	.LVL117:
 1009 0000 10B5     		push	{r4, lr}
 1010              	.LCFI24:
 1011              		.cfi_def_cfa_offset 8
 1012              		.cfi_offset 4, -8
 1013              		.cfi_offset 14, -4
 1014              		.loc 1 1059 0
 1015 0002 0B00     		movs	r3, r1
1060:../../../../../../Middlewares/Third_Party/LoRaWAN/Mac/region/Region.c ****     switch( region )
 1016              		.loc 1 1060 0
 1017 0004 0528     		cmp	r0, #5
 1018 0006 03D1     		bne	.L117
1061:../../../../../../Middlewares/Third_Party/LoRaWAN/Mac/region/Region.c ****     {
1062:../../../../../../Middlewares/Third_Party/LoRaWAN/Mac/region/Region.c ****         AS923_RX_BEACON_SETUP( );
1063:../../../../../../Middlewares/Third_Party/LoRaWAN/Mac/region/Region.c ****         AU915_RX_BEACON_SETUP( );
1064:../../../../../../Middlewares/Third_Party/LoRaWAN/Mac/region/Region.c ****         CN470_RX_BEACON_SETUP( );
1065:../../../../../../Middlewares/Third_Party/LoRaWAN/Mac/region/Region.c ****         CN779_RX_BEACON_SETUP( );
1066:../../../../../../Middlewares/Third_Party/LoRaWAN/Mac/region/Region.c ****         EU433_RX_BEACON_SETUP( );
1067:../../../../../../Middlewares/Third_Party/LoRaWAN/Mac/region/Region.c ****         EU868_RX_BEACON_SETUP( );
 1019              		.loc 1 1067 0
 1020 0008 1100     		movs	r1, r2
 1021              	.LVL118:
 1022 000a 1800     		movs	r0, r3
 1023              	.LVL119:
 1024 000c FFF7FEFF 		bl	RegionEU868RxBeaconSetup
 1025              	.LVL120:
 1026              	.L117:
ARM GAS  C:\Users\EBANO_~1\AppData\Local\Temp\ccOSDu2a.s 			page 38


1068:../../../../../../Middlewares/Third_Party/LoRaWAN/Mac/region/Region.c ****         KR920_RX_BEACON_SETUP( );
1069:../../../../../../Middlewares/Third_Party/LoRaWAN/Mac/region/Region.c ****         IN865_RX_BEACON_SETUP( );
1070:../../../../../../Middlewares/Third_Party/LoRaWAN/Mac/region/Region.c ****         US915_RX_BEACON_SETUP( );
1071:../../../../../../Middlewares/Third_Party/LoRaWAN/Mac/region/Region.c ****         RU864_RX_BEACON_SETUP( );
1072:../../../../../../Middlewares/Third_Party/LoRaWAN/Mac/region/Region.c ****         default:
1073:../../../../../../Middlewares/Third_Party/LoRaWAN/Mac/region/Region.c ****         {
1074:../../../../../../Middlewares/Third_Party/LoRaWAN/Mac/region/Region.c ****             break;
1075:../../../../../../Middlewares/Third_Party/LoRaWAN/Mac/region/Region.c ****         }
1076:../../../../../../Middlewares/Third_Party/LoRaWAN/Mac/region/Region.c ****     }
1077:../../../../../../Middlewares/Third_Party/LoRaWAN/Mac/region/Region.c **** }
 1027              		.loc 1 1077 0
 1028              		@ sp needed
 1029 0010 10BD     		pop	{r4, pc}
 1030              		.cfi_endproc
 1031              	.LFE62:
 1032              		.size	RegionRxBeaconSetup, .-RegionRxBeaconSetup
 1033 0012 C046     		.text
 1034              	.Letext0:
 1035              		.file 2 "c:\\program files (x86)\\gnu tools arm embedded\\7 2018-q2-update\\arm-none-eabi\\include
 1036              		.file 3 "c:\\program files (x86)\\gnu tools arm embedded\\7 2018-q2-update\\arm-none-eabi\\include
 1037              		.file 4 "../../../../../../Drivers/CMSIS/Device/ST/STM32L0xx/Include/system_stm32l0xx.h"
 1038              		.file 5 "c:\\program files (x86)\\gnu tools arm embedded\\7 2018-q2-update\\lib\\gcc\\arm-none-eab
 1039              		.file 6 "c:\\program files (x86)\\gnu tools arm embedded\\7 2018-q2-update\\arm-none-eabi\\include
 1040              		.file 7 "c:\\program files (x86)\\gnu tools arm embedded\\7 2018-q2-update\\arm-none-eabi\\include
 1041              		.file 8 "c:\\program files (x86)\\gnu tools arm embedded\\7 2018-q2-update\\arm-none-eabi\\include
 1042              		.file 9 "c:\\program files (x86)\\gnu tools arm embedded\\7 2018-q2-update\\arm-none-eabi\\include
 1043              		.file 10 "../../../../../../Middlewares/Third_Party/LoRaWAN/Utilities/utilities.h"
 1044              		.file 11 "c:\\program files (x86)\\gnu tools arm embedded\\7 2018-q2-update\\arm-none-eabi\\includ
 1045              		.file 12 "../../../../../../Middlewares/Third_Party/LoRaWAN/Phy/radio.h"
 1046              		.file 13 "../../../../../../Middlewares/Third_Party/LoRaWAN/Mac/LoRaMac.h"
 1047              		.file 14 "../../../../../../Middlewares/Third_Party/LoRaWAN/Mac/region/Region.h"
 1048              		.file 15 "../../../../../../Middlewares/Third_Party/LoRaWAN/Mac/region/RegionEU868.h"
 1049              		.section	.debug_info,"",%progbits
 1050              	.Ldebug_info0:
 1051 0000 7A260000 		.4byte	0x267a
 1052 0004 0200     		.2byte	0x2
 1053 0006 00000000 		.4byte	.Ldebug_abbrev0
 1054 000a 04       		.byte	0x4
 1055 000b 01       		.uleb128 0x1
 1056 000c F2070000 		.4byte	.LASF508
 1057 0010 0C       		.byte	0xc
 1058 0011 4A110000 		.4byte	.LASF509
 1059 0015 6F060000 		.4byte	.LASF510
 1060 0019 00000000 		.4byte	.Ldebug_ranges0+0
 1061 001d 00000000 		.4byte	0
 1062 0021 00000000 		.4byte	0
 1063 0025 00000000 		.4byte	.Ldebug_line0
 1064 0029 02       		.uleb128 0x2
 1065 002a 3D1D0000 		.4byte	.LASF0
 1066 002e 02       		.byte	0x2
 1067 002f 29       		.byte	0x29
 1068 0030 34000000 		.4byte	0x34
 1069 0034 03       		.uleb128 0x3
 1070 0035 01       		.byte	0x1
 1071 0036 06       		.byte	0x6
 1072 0037 88100000 		.4byte	.LASF2
 1073 003b 02       		.uleb128 0x2
ARM GAS  C:\Users\EBANO_~1\AppData\Local\Temp\ccOSDu2a.s 			page 39


 1074 003c 6F000000 		.4byte	.LASF1
 1075 0040 02       		.byte	0x2
 1076 0041 2B       		.byte	0x2b
 1077 0042 46000000 		.4byte	0x46
 1078 0046 03       		.uleb128 0x3
 1079 0047 01       		.byte	0x1
 1080 0048 08       		.byte	0x8
 1081 0049 0D060000 		.4byte	.LASF3
 1082 004d 02       		.uleb128 0x2
 1083 004e CE040000 		.4byte	.LASF4
 1084 0052 02       		.byte	0x2
 1085 0053 37       		.byte	0x37
 1086 0054 58000000 		.4byte	0x58
 1087 0058 03       		.uleb128 0x3
 1088 0059 02       		.byte	0x2
 1089 005a 05       		.byte	0x5
 1090 005b 0E1E0000 		.4byte	.LASF5
 1091 005f 02       		.uleb128 0x2
 1092 0060 FB040000 		.4byte	.LASF6
 1093 0064 02       		.byte	0x2
 1094 0065 39       		.byte	0x39
 1095 0066 6A000000 		.4byte	0x6a
 1096 006a 03       		.uleb128 0x3
 1097 006b 02       		.byte	0x2
 1098 006c 07       		.byte	0x7
 1099 006d 75100000 		.4byte	.LASF7
 1100 0071 02       		.uleb128 0x2
 1101 0072 54170000 		.4byte	.LASF8
 1102 0076 02       		.byte	0x2
 1103 0077 4D       		.byte	0x4d
 1104 0078 7C000000 		.4byte	0x7c
 1105 007c 03       		.uleb128 0x3
 1106 007d 04       		.byte	0x4
 1107 007e 05       		.byte	0x5
 1108 007f 96120000 		.4byte	.LASF9
 1109 0083 02       		.uleb128 0x2
 1110 0084 67170000 		.4byte	.LASF10
 1111 0088 02       		.byte	0x2
 1112 0089 4F       		.byte	0x4f
 1113 008a 8E000000 		.4byte	0x8e
 1114 008e 03       		.uleb128 0x3
 1115 008f 04       		.byte	0x4
 1116 0090 07       		.byte	0x7
 1117 0091 C6130000 		.4byte	.LASF11
 1118 0095 03       		.uleb128 0x3
 1119 0096 08       		.byte	0x8
 1120 0097 05       		.byte	0x5
 1121 0098 231B0000 		.4byte	.LASF12
 1122 009c 03       		.uleb128 0x3
 1123 009d 08       		.byte	0x8
 1124 009e 07       		.byte	0x7
 1125 009f E7180000 		.4byte	.LASF13
 1126 00a3 04       		.uleb128 0x4
 1127 00a4 04       		.byte	0x4
 1128 00a5 05       		.byte	0x5
 1129 00a6 696E7400 		.ascii	"int\000"
 1130 00aa 03       		.uleb128 0x3
ARM GAS  C:\Users\EBANO_~1\AppData\Local\Temp\ccOSDu2a.s 			page 40


 1131 00ab 04       		.byte	0x4
 1132 00ac 07       		.byte	0x7
 1133 00ad 8B1D0000 		.4byte	.LASF14
 1134 00b1 02       		.uleb128 0x2
 1135 00b2 570F0000 		.4byte	.LASF15
 1136 00b6 03       		.byte	0x3
 1137 00b7 14       		.byte	0x14
 1138 00b8 29000000 		.4byte	0x29
 1139 00bc 02       		.uleb128 0x2
 1140 00bd E0090000 		.4byte	.LASF16
 1141 00c1 03       		.byte	0x3
 1142 00c2 18       		.byte	0x18
 1143 00c3 3B000000 		.4byte	0x3b
 1144 00c7 05       		.uleb128 0x5
 1145 00c8 BC000000 		.4byte	0xbc
 1146 00cc 02       		.uleb128 0x2
 1147 00cd 56100000 		.4byte	.LASF17
 1148 00d1 03       		.byte	0x3
 1149 00d2 20       		.byte	0x20
 1150 00d3 4D000000 		.4byte	0x4d
 1151 00d7 02       		.uleb128 0x2
 1152 00d8 15010000 		.4byte	.LASF18
 1153 00dc 03       		.byte	0x3
 1154 00dd 24       		.byte	0x24
 1155 00de 5F000000 		.4byte	0x5f
 1156 00e2 02       		.uleb128 0x2
 1157 00e3 8C020000 		.4byte	.LASF19
 1158 00e7 03       		.byte	0x3
 1159 00e8 2C       		.byte	0x2c
 1160 00e9 71000000 		.4byte	0x71
 1161 00ed 02       		.uleb128 0x2
 1162 00ee 36130000 		.4byte	.LASF20
 1163 00f2 03       		.byte	0x3
 1164 00f3 30       		.byte	0x30
 1165 00f4 83000000 		.4byte	0x83
 1166 00f8 05       		.uleb128 0x5
 1167 00f9 ED000000 		.4byte	0xed
 1168 00fd 06       		.uleb128 0x6
 1169 00fe 3A110000 		.4byte	.LASF21
 1170 0102 04       		.byte	0x4
 1171 0103 4A       		.byte	0x4a
 1172 0104 ED000000 		.4byte	0xed
 1173 0108 01       		.byte	0x1
 1174 0109 01       		.byte	0x1
 1175 010a 07       		.uleb128 0x7
 1176 010b C7000000 		.4byte	0xc7
 1177 010f 1A010000 		.4byte	0x11a
 1178 0113 08       		.uleb128 0x8
 1179 0114 AA000000 		.4byte	0xaa
 1180 0118 0F       		.byte	0xf
 1181 0119 00       		.byte	0
 1182 011a 05       		.uleb128 0x5
 1183 011b 0A010000 		.4byte	0x10a
 1184 011f 06       		.uleb128 0x6
 1185 0120 021C0000 		.4byte	.LASF22
 1186 0124 04       		.byte	0x4
 1187 0125 4D       		.byte	0x4d
ARM GAS  C:\Users\EBANO_~1\AppData\Local\Temp\ccOSDu2a.s 			page 41


 1188 0126 1A010000 		.4byte	0x11a
 1189 012a 01       		.byte	0x1
 1190 012b 01       		.byte	0x1
 1191 012c 07       		.uleb128 0x7
 1192 012d C7000000 		.4byte	0xc7
 1193 0131 3C010000 		.4byte	0x13c
 1194 0135 08       		.uleb128 0x8
 1195 0136 AA000000 		.4byte	0xaa
 1196 013a 07       		.byte	0x7
 1197 013b 00       		.byte	0
 1198 013c 05       		.uleb128 0x5
 1199 013d 2C010000 		.4byte	0x12c
 1200 0141 06       		.uleb128 0x6
 1201 0142 6E140000 		.4byte	.LASF23
 1202 0146 04       		.byte	0x4
 1203 0147 4E       		.byte	0x4e
 1204 0148 3C010000 		.4byte	0x13c
 1205 014c 01       		.byte	0x1
 1206 014d 01       		.byte	0x1
 1207 014e 07       		.uleb128 0x7
 1208 014f C7000000 		.4byte	0xc7
 1209 0153 5E010000 		.4byte	0x15e
 1210 0157 08       		.uleb128 0x8
 1211 0158 AA000000 		.4byte	0xaa
 1212 015c 08       		.byte	0x8
 1213 015d 00       		.byte	0
 1214 015e 05       		.uleb128 0x5
 1215 015f 4E010000 		.4byte	0x14e
 1216 0163 06       		.uleb128 0x6
 1217 0164 D3160000 		.4byte	.LASF24
 1218 0168 04       		.byte	0x4
 1219 0169 4F       		.byte	0x4f
 1220 016a 5E010000 		.4byte	0x15e
 1221 016e 01       		.byte	0x1
 1222 016f 01       		.byte	0x1
 1223 0170 02       		.uleb128 0x2
 1224 0171 C2090000 		.4byte	.LASF25
 1225 0175 05       		.byte	0x5
 1226 0176 D8       		.byte	0xd8
 1227 0177 AA000000 		.4byte	0xaa
 1228 017b 03       		.uleb128 0x3
 1229 017c 08       		.byte	0x8
 1230 017d 04       		.byte	0x4
 1231 017e 84130000 		.4byte	.LASF26
 1232 0182 09       		.uleb128 0x9
 1233 0183 04       		.byte	0x4
 1234 0184 02       		.uleb128 0x2
 1235 0185 76040000 		.4byte	.LASF27
 1236 0189 06       		.byte	0x6
 1237 018a 22       		.byte	0x22
 1238 018b 8F010000 		.4byte	0x18f
 1239 018f 0A       		.uleb128 0xa
 1240 0190 04       		.byte	0x4
 1241 0191 95010000 		.4byte	0x195
 1242 0195 0B       		.uleb128 0xb
 1243 0196 A2030000 		.4byte	.LASF134
 1244 019a 01       		.byte	0x1
ARM GAS  C:\Users\EBANO_~1\AppData\Local\Temp\ccOSDu2a.s 			page 42


 1245 019b 02       		.uleb128 0x2
 1246 019c 9D090000 		.4byte	.LASF28
 1247 01a0 07       		.byte	0x7
 1248 01a1 2C       		.byte	0x2c
 1249 01a2 7C000000 		.4byte	0x7c
 1250 01a6 02       		.uleb128 0x2
 1251 01a7 DF160000 		.4byte	.LASF29
 1252 01ab 07       		.byte	0x7
 1253 01ac 72       		.byte	0x72
 1254 01ad 7C000000 		.4byte	0x7c
 1255 01b1 0C       		.uleb128 0xc
 1256 01b2 600B0000 		.4byte	.LASF30
 1257 01b6 05       		.byte	0x5
 1258 01b7 6501     		.2byte	0x165
 1259 01b9 AA000000 		.4byte	0xaa
 1260 01bd 0D       		.uleb128 0xd
 1261 01be 04       		.byte	0x4
 1262 01bf 07       		.byte	0x7
 1263 01c0 A6       		.byte	0xa6
 1264 01c1 DC010000 		.4byte	0x1dc
 1265 01c5 0E       		.uleb128 0xe
 1266 01c6 28120000 		.4byte	.LASF31
 1267 01ca 07       		.byte	0x7
 1268 01cb A8       		.byte	0xa8
 1269 01cc B1010000 		.4byte	0x1b1
 1270 01d0 0E       		.uleb128 0xe
 1271 01d1 060B0000 		.4byte	.LASF32
 1272 01d5 07       		.byte	0x7
 1273 01d6 A9       		.byte	0xa9
 1274 01d7 DC010000 		.4byte	0x1dc
 1275 01db 00       		.byte	0
 1276 01dc 07       		.uleb128 0x7
 1277 01dd 46000000 		.4byte	0x46
 1278 01e1 EC010000 		.4byte	0x1ec
 1279 01e5 08       		.uleb128 0x8
 1280 01e6 AA000000 		.4byte	0xaa
 1281 01ea 03       		.byte	0x3
 1282 01eb 00       		.byte	0
 1283 01ec 0F       		.uleb128 0xf
 1284 01ed 08       		.byte	0x8
 1285 01ee 07       		.byte	0x7
 1286 01ef A3       		.byte	0xa3
 1287 01f0 11020000 		.4byte	0x211
 1288 01f4 10       		.uleb128 0x10
 1289 01f5 D8090000 		.4byte	.LASF33
 1290 01f9 07       		.byte	0x7
 1291 01fa A5       		.byte	0xa5
 1292 01fb A3000000 		.4byte	0xa3
 1293 01ff 02       		.byte	0x2
 1294 0200 23       		.byte	0x23
 1295 0201 00       		.uleb128 0
 1296 0202 10       		.uleb128 0x10
 1297 0203 A7170000 		.4byte	.LASF34
 1298 0207 07       		.byte	0x7
 1299 0208 AA       		.byte	0xaa
 1300 0209 BD010000 		.4byte	0x1bd
 1301 020d 02       		.byte	0x2
ARM GAS  C:\Users\EBANO_~1\AppData\Local\Temp\ccOSDu2a.s 			page 43


 1302 020e 23       		.byte	0x23
 1303 020f 04       		.uleb128 0x4
 1304 0210 00       		.byte	0
 1305 0211 02       		.uleb128 0x2
 1306 0212 31170000 		.4byte	.LASF35
 1307 0216 07       		.byte	0x7
 1308 0217 AB       		.byte	0xab
 1309 0218 EC010000 		.4byte	0x1ec
 1310 021c 02       		.uleb128 0x2
 1311 021d 731A0000 		.4byte	.LASF36
 1312 0221 07       		.byte	0x7
 1313 0222 AF       		.byte	0xaf
 1314 0223 84010000 		.4byte	0x184
 1315 0227 02       		.uleb128 0x2
 1316 0228 830F0000 		.4byte	.LASF37
 1317 022c 08       		.byte	0x8
 1318 022d 16       		.byte	0x16
 1319 022e 8E000000 		.4byte	0x8e
 1320 0232 11       		.uleb128 0x11
 1321 0233 CD140000 		.4byte	.LASF42
 1322 0237 18       		.byte	0x18
 1323 0238 08       		.byte	0x8
 1324 0239 2F       		.byte	0x2f
 1325 023a 91020000 		.4byte	0x291
 1326 023e 10       		.uleb128 0x10
 1327 023f D90C0000 		.4byte	.LASF38
 1328 0243 08       		.byte	0x8
 1329 0244 31       		.byte	0x31
 1330 0245 91020000 		.4byte	0x291
 1331 0249 02       		.byte	0x2
 1332 024a 23       		.byte	0x23
 1333 024b 00       		.uleb128 0
 1334 024c 12       		.uleb128 0x12
 1335 024d 5F6B00   		.ascii	"_k\000"
 1336 0250 08       		.byte	0x8
 1337 0251 32       		.byte	0x32
 1338 0252 A3000000 		.4byte	0xa3
 1339 0256 02       		.byte	0x2
 1340 0257 23       		.byte	0x23
 1341 0258 04       		.uleb128 0x4
 1342 0259 10       		.uleb128 0x10
 1343 025a 68130000 		.4byte	.LASF39
 1344 025e 08       		.byte	0x8
 1345 025f 32       		.byte	0x32
 1346 0260 A3000000 		.4byte	0xa3
 1347 0264 02       		.byte	0x2
 1348 0265 23       		.byte	0x23
 1349 0266 08       		.uleb128 0x8
 1350 0267 10       		.uleb128 0x10
 1351 0268 371D0000 		.4byte	.LASF40
 1352 026c 08       		.byte	0x8
 1353 026d 32       		.byte	0x32
 1354 026e A3000000 		.4byte	0xa3
 1355 0272 02       		.byte	0x2
 1356 0273 23       		.byte	0x23
 1357 0274 0C       		.uleb128 0xc
 1358 0275 10       		.uleb128 0x10
ARM GAS  C:\Users\EBANO_~1\AppData\Local\Temp\ccOSDu2a.s 			page 44


 1359 0276 45060000 		.4byte	.LASF41
 1360 027a 08       		.byte	0x8
 1361 027b 32       		.byte	0x32
 1362 027c A3000000 		.4byte	0xa3
 1363 0280 02       		.byte	0x2
 1364 0281 23       		.byte	0x23
 1365 0282 10       		.uleb128 0x10
 1366 0283 12       		.uleb128 0x12
 1367 0284 5F7800   		.ascii	"_x\000"
 1368 0287 08       		.byte	0x8
 1369 0288 33       		.byte	0x33
 1370 0289 97020000 		.4byte	0x297
 1371 028d 02       		.byte	0x2
 1372 028e 23       		.byte	0x23
 1373 028f 14       		.uleb128 0x14
 1374 0290 00       		.byte	0
 1375 0291 0A       		.uleb128 0xa
 1376 0292 04       		.byte	0x4
 1377 0293 32020000 		.4byte	0x232
 1378 0297 07       		.uleb128 0x7
 1379 0298 27020000 		.4byte	0x227
 1380 029c A7020000 		.4byte	0x2a7
 1381 02a0 08       		.uleb128 0x8
 1382 02a1 AA000000 		.4byte	0xaa
 1383 02a5 00       		.byte	0
 1384 02a6 00       		.byte	0
 1385 02a7 11       		.uleb128 0x11
 1386 02a8 3F040000 		.4byte	.LASF43
 1387 02ac 24       		.byte	0x24
 1388 02ad 08       		.byte	0x8
 1389 02ae 37       		.byte	0x37
 1390 02af 32030000 		.4byte	0x332
 1391 02b3 10       		.uleb128 0x10
 1392 02b4 790E0000 		.4byte	.LASF44
 1393 02b8 08       		.byte	0x8
 1394 02b9 39       		.byte	0x39
 1395 02ba A3000000 		.4byte	0xa3
 1396 02be 02       		.byte	0x2
 1397 02bf 23       		.byte	0x23
 1398 02c0 00       		.uleb128 0
 1399 02c1 10       		.uleb128 0x10
 1400 02c2 461D0000 		.4byte	.LASF45
 1401 02c6 08       		.byte	0x8
 1402 02c7 3A       		.byte	0x3a
 1403 02c8 A3000000 		.4byte	0xa3
 1404 02cc 02       		.byte	0x2
 1405 02cd 23       		.byte	0x23
 1406 02ce 04       		.uleb128 0x4
 1407 02cf 10       		.uleb128 0x10
 1408 02d0 1C0B0000 		.4byte	.LASF46
 1409 02d4 08       		.byte	0x8
 1410 02d5 3B       		.byte	0x3b
 1411 02d6 A3000000 		.4byte	0xa3
 1412 02da 02       		.byte	0x2
 1413 02db 23       		.byte	0x23
 1414 02dc 08       		.uleb128 0x8
 1415 02dd 10       		.uleb128 0x10
ARM GAS  C:\Users\EBANO_~1\AppData\Local\Temp\ccOSDu2a.s 			page 45


 1416 02de 150C0000 		.4byte	.LASF47
 1417 02e2 08       		.byte	0x8
 1418 02e3 3C       		.byte	0x3c
 1419 02e4 A3000000 		.4byte	0xa3
 1420 02e8 02       		.byte	0x2
 1421 02e9 23       		.byte	0x23
 1422 02ea 0C       		.uleb128 0xc
 1423 02eb 10       		.uleb128 0x10
 1424 02ec CD000000 		.4byte	.LASF48
 1425 02f0 08       		.byte	0x8
 1426 02f1 3D       		.byte	0x3d
 1427 02f2 A3000000 		.4byte	0xa3
 1428 02f6 02       		.byte	0x2
 1429 02f7 23       		.byte	0x23
 1430 02f8 10       		.uleb128 0x10
 1431 02f9 10       		.uleb128 0x10
 1432 02fa A0070000 		.4byte	.LASF49
 1433 02fe 08       		.byte	0x8
 1434 02ff 3E       		.byte	0x3e
 1435 0300 A3000000 		.4byte	0xa3
 1436 0304 02       		.byte	0x2
 1437 0305 23       		.byte	0x23
 1438 0306 14       		.uleb128 0x14
 1439 0307 10       		.uleb128 0x10
 1440 0308 DC050000 		.4byte	.LASF50
 1441 030c 08       		.byte	0x8
 1442 030d 3F       		.byte	0x3f
 1443 030e A3000000 		.4byte	0xa3
 1444 0312 02       		.byte	0x2
 1445 0313 23       		.byte	0x23
 1446 0314 18       		.uleb128 0x18
 1447 0315 10       		.uleb128 0x10
 1448 0316 44040000 		.4byte	.LASF51
 1449 031a 08       		.byte	0x8
 1450 031b 40       		.byte	0x40
 1451 031c A3000000 		.4byte	0xa3
 1452 0320 02       		.byte	0x2
 1453 0321 23       		.byte	0x23
 1454 0322 1C       		.uleb128 0x1c
 1455 0323 10       		.uleb128 0x10
 1456 0324 E6050000 		.4byte	.LASF52
 1457 0328 08       		.byte	0x8
 1458 0329 41       		.byte	0x41
 1459 032a A3000000 		.4byte	0xa3
 1460 032e 02       		.byte	0x2
 1461 032f 23       		.byte	0x23
 1462 0330 20       		.uleb128 0x20
 1463 0331 00       		.byte	0
 1464 0332 13       		.uleb128 0x13
 1465 0333 820E0000 		.4byte	.LASF53
 1466 0337 0801     		.2byte	0x108
 1467 0339 08       		.byte	0x8
 1468 033a 4A       		.byte	0x4a
 1469 033b 7B030000 		.4byte	0x37b
 1470 033f 10       		.uleb128 0x10
 1471 0340 1F0C0000 		.4byte	.LASF54
 1472 0344 08       		.byte	0x8
ARM GAS  C:\Users\EBANO_~1\AppData\Local\Temp\ccOSDu2a.s 			page 46


 1473 0345 4B       		.byte	0x4b
 1474 0346 7B030000 		.4byte	0x37b
 1475 034a 02       		.byte	0x2
 1476 034b 23       		.byte	0x23
 1477 034c 00       		.uleb128 0
 1478 034d 10       		.uleb128 0x10
 1479 034e BD050000 		.4byte	.LASF55
 1480 0352 08       		.byte	0x8
 1481 0353 4C       		.byte	0x4c
 1482 0354 7B030000 		.4byte	0x37b
 1483 0358 03       		.byte	0x3
 1484 0359 23       		.byte	0x23
 1485 035a 8001     		.uleb128 0x80
 1486 035c 10       		.uleb128 0x10
 1487 035d D6000000 		.4byte	.LASF56
 1488 0361 08       		.byte	0x8
 1489 0362 4E       		.byte	0x4e
 1490 0363 27020000 		.4byte	0x227
 1491 0367 03       		.byte	0x3
 1492 0368 23       		.byte	0x23
 1493 0369 8002     		.uleb128 0x100
 1494 036b 10       		.uleb128 0x10
 1495 036c AF170000 		.4byte	.LASF57
 1496 0370 08       		.byte	0x8
 1497 0371 51       		.byte	0x51
 1498 0372 27020000 		.4byte	0x227
 1499 0376 03       		.byte	0x3
 1500 0377 23       		.byte	0x23
 1501 0378 8402     		.uleb128 0x104
 1502 037a 00       		.byte	0
 1503 037b 07       		.uleb128 0x7
 1504 037c 82010000 		.4byte	0x182
 1505 0380 8B030000 		.4byte	0x38b
 1506 0384 08       		.uleb128 0x8
 1507 0385 AA000000 		.4byte	0xaa
 1508 0389 1F       		.byte	0x1f
 1509 038a 00       		.byte	0
 1510 038b 13       		.uleb128 0x13
 1511 038c B3000000 		.4byte	.LASF58
 1512 0390 9001     		.2byte	0x190
 1513 0392 08       		.byte	0x8
 1514 0393 5D       		.byte	0x5d
 1515 0394 D2030000 		.4byte	0x3d2
 1516 0398 10       		.uleb128 0x10
 1517 0399 D90C0000 		.4byte	.LASF38
 1518 039d 08       		.byte	0x8
 1519 039e 5E       		.byte	0x5e
 1520 039f D2030000 		.4byte	0x3d2
 1521 03a3 02       		.byte	0x2
 1522 03a4 23       		.byte	0x23
 1523 03a5 00       		.uleb128 0
 1524 03a6 10       		.uleb128 0x10
 1525 03a7 E4000000 		.4byte	.LASF59
 1526 03ab 08       		.byte	0x8
 1527 03ac 5F       		.byte	0x5f
 1528 03ad A3000000 		.4byte	0xa3
 1529 03b1 02       		.byte	0x2
ARM GAS  C:\Users\EBANO_~1\AppData\Local\Temp\ccOSDu2a.s 			page 47


 1530 03b2 23       		.byte	0x23
 1531 03b3 04       		.uleb128 0x4
 1532 03b4 10       		.uleb128 0x10
 1533 03b5 0C170000 		.4byte	.LASF60
 1534 03b9 08       		.byte	0x8
 1535 03ba 61       		.byte	0x61
 1536 03bb D8030000 		.4byte	0x3d8
 1537 03bf 02       		.byte	0x2
 1538 03c0 23       		.byte	0x23
 1539 03c1 08       		.uleb128 0x8
 1540 03c2 10       		.uleb128 0x10
 1541 03c3 820E0000 		.4byte	.LASF53
 1542 03c7 08       		.byte	0x8
 1543 03c8 62       		.byte	0x62
 1544 03c9 32030000 		.4byte	0x332
 1545 03cd 03       		.byte	0x3
 1546 03ce 23       		.byte	0x23
 1547 03cf 8801     		.uleb128 0x88
 1548 03d1 00       		.byte	0
 1549 03d2 0A       		.uleb128 0xa
 1550 03d3 04       		.byte	0x4
 1551 03d4 8B030000 		.4byte	0x38b
 1552 03d8 07       		.uleb128 0x7
 1553 03d9 E8030000 		.4byte	0x3e8
 1554 03dd E8030000 		.4byte	0x3e8
 1555 03e1 08       		.uleb128 0x8
 1556 03e2 AA000000 		.4byte	0xaa
 1557 03e6 1F       		.byte	0x1f
 1558 03e7 00       		.byte	0
 1559 03e8 0A       		.uleb128 0xa
 1560 03e9 04       		.byte	0x4
 1561 03ea EE030000 		.4byte	0x3ee
 1562 03ee 14       		.uleb128 0x14
 1563 03ef 01       		.byte	0x1
 1564 03f0 11       		.uleb128 0x11
 1565 03f1 AC110000 		.4byte	.LASF61
 1566 03f5 08       		.byte	0x8
 1567 03f6 08       		.byte	0x8
 1568 03f7 75       		.byte	0x75
 1569 03f8 19040000 		.4byte	0x419
 1570 03fc 10       		.uleb128 0x10
 1571 03fd FD030000 		.4byte	.LASF62
 1572 0401 08       		.byte	0x8
 1573 0402 76       		.byte	0x76
 1574 0403 19040000 		.4byte	0x419
 1575 0407 02       		.byte	0x2
 1576 0408 23       		.byte	0x23
 1577 0409 00       		.uleb128 0
 1578 040a 10       		.uleb128 0x10
 1579 040b 24070000 		.4byte	.LASF63
 1580 040f 08       		.byte	0x8
 1581 0410 77       		.byte	0x77
 1582 0411 A3000000 		.4byte	0xa3
 1583 0415 02       		.byte	0x2
 1584 0416 23       		.byte	0x23
 1585 0417 04       		.uleb128 0x4
 1586 0418 00       		.byte	0
ARM GAS  C:\Users\EBANO_~1\AppData\Local\Temp\ccOSDu2a.s 			page 48


 1587 0419 0A       		.uleb128 0xa
 1588 041a 04       		.byte	0x4
 1589 041b 46000000 		.4byte	0x46
 1590 041f 11       		.uleb128 0x11
 1591 0420 04170000 		.4byte	.LASF64
 1592 0424 68       		.byte	0x68
 1593 0425 08       		.byte	0x8
 1594 0426 B5       		.byte	0xb5
 1595 0427 79050000 		.4byte	0x579
 1596 042b 12       		.uleb128 0x12
 1597 042c 5F7000   		.ascii	"_p\000"
 1598 042f 08       		.byte	0x8
 1599 0430 B6       		.byte	0xb6
 1600 0431 19040000 		.4byte	0x419
 1601 0435 02       		.byte	0x2
 1602 0436 23       		.byte	0x23
 1603 0437 00       		.uleb128 0
 1604 0438 12       		.uleb128 0x12
 1605 0439 5F7200   		.ascii	"_r\000"
 1606 043c 08       		.byte	0x8
 1607 043d B7       		.byte	0xb7
 1608 043e A3000000 		.4byte	0xa3
 1609 0442 02       		.byte	0x2
 1610 0443 23       		.byte	0x23
 1611 0444 04       		.uleb128 0x4
 1612 0445 12       		.uleb128 0x12
 1613 0446 5F7700   		.ascii	"_w\000"
 1614 0449 08       		.byte	0x8
 1615 044a B8       		.byte	0xb8
 1616 044b A3000000 		.4byte	0xa3
 1617 044f 02       		.byte	0x2
 1618 0450 23       		.byte	0x23
 1619 0451 08       		.uleb128 0x8
 1620 0452 10       		.uleb128 0x10
 1621 0453 29010000 		.4byte	.LASF65
 1622 0457 08       		.byte	0x8
 1623 0458 B9       		.byte	0xb9
 1624 0459 58000000 		.4byte	0x58
 1625 045d 02       		.byte	0x2
 1626 045e 23       		.byte	0x23
 1627 045f 0C       		.uleb128 0xc
 1628 0460 10       		.uleb128 0x10
 1629 0461 EF160000 		.4byte	.LASF66
 1630 0465 08       		.byte	0x8
 1631 0466 BA       		.byte	0xba
 1632 0467 58000000 		.4byte	0x58
 1633 046b 02       		.byte	0x2
 1634 046c 23       		.byte	0x23
 1635 046d 0E       		.uleb128 0xe
 1636 046e 12       		.uleb128 0x12
 1637 046f 5F626600 		.ascii	"_bf\000"
 1638 0473 08       		.byte	0x8
 1639 0474 BB       		.byte	0xbb
 1640 0475 F0030000 		.4byte	0x3f0
 1641 0479 02       		.byte	0x2
 1642 047a 23       		.byte	0x23
 1643 047b 10       		.uleb128 0x10
ARM GAS  C:\Users\EBANO_~1\AppData\Local\Temp\ccOSDu2a.s 			page 49


 1644 047c 10       		.uleb128 0x10
 1645 047d 08030000 		.4byte	.LASF67
 1646 0481 08       		.byte	0x8
 1647 0482 BC       		.byte	0xbc
 1648 0483 A3000000 		.4byte	0xa3
 1649 0487 02       		.byte	0x2
 1650 0488 23       		.byte	0x23
 1651 0489 18       		.uleb128 0x18
 1652 048a 10       		.uleb128 0x10
 1653 048b 120D0000 		.4byte	.LASF68
 1654 048f 08       		.byte	0x8
 1655 0490 C3       		.byte	0xc3
 1656 0491 82010000 		.4byte	0x182
 1657 0495 02       		.byte	0x2
 1658 0496 23       		.byte	0x23
 1659 0497 1C       		.uleb128 0x1c
 1660 0498 10       		.uleb128 0x10
 1661 0499 4A1E0000 		.4byte	.LASF69
 1662 049d 08       		.byte	0x8
 1663 049e C5       		.byte	0xc5
 1664 049f 13070000 		.4byte	0x713
 1665 04a3 02       		.byte	0x2
 1666 04a4 23       		.byte	0x23
 1667 04a5 20       		.uleb128 0x20
 1668 04a6 10       		.uleb128 0x10
 1669 04a7 32070000 		.4byte	.LASF70
 1670 04ab 08       		.byte	0x8
 1671 04ac C7       		.byte	0xc7
 1672 04ad 3E070000 		.4byte	0x73e
 1673 04b1 02       		.byte	0x2
 1674 04b2 23       		.byte	0x23
 1675 04b3 24       		.uleb128 0x24
 1676 04b4 10       		.uleb128 0x10
 1677 04b5 43100000 		.4byte	.LASF71
 1678 04b9 08       		.byte	0x8
 1679 04ba CA       		.byte	0xca
 1680 04bb 63070000 		.4byte	0x763
 1681 04bf 02       		.byte	0x2
 1682 04c0 23       		.byte	0x23
 1683 04c1 28       		.uleb128 0x28
 1684 04c2 10       		.uleb128 0x10
 1685 04c3 1B140000 		.4byte	.LASF72
 1686 04c7 08       		.byte	0x8
 1687 04c8 CB       		.byte	0xcb
 1688 04c9 7E070000 		.4byte	0x77e
 1689 04cd 02       		.byte	0x2
 1690 04ce 23       		.byte	0x23
 1691 04cf 2C       		.uleb128 0x2c
 1692 04d0 12       		.uleb128 0x12
 1693 04d1 5F756200 		.ascii	"_ub\000"
 1694 04d5 08       		.byte	0x8
 1695 04d6 CE       		.byte	0xce
 1696 04d7 F0030000 		.4byte	0x3f0
 1697 04db 02       		.byte	0x2
 1698 04dc 23       		.byte	0x23
 1699 04dd 30       		.uleb128 0x30
 1700 04de 12       		.uleb128 0x12
ARM GAS  C:\Users\EBANO_~1\AppData\Local\Temp\ccOSDu2a.s 			page 50


 1701 04df 5F757000 		.ascii	"_up\000"
 1702 04e3 08       		.byte	0x8
 1703 04e4 CF       		.byte	0xcf
 1704 04e5 19040000 		.4byte	0x419
 1705 04e9 02       		.byte	0x2
 1706 04ea 23       		.byte	0x23
 1707 04eb 38       		.uleb128 0x38
 1708 04ec 12       		.uleb128 0x12
 1709 04ed 5F757200 		.ascii	"_ur\000"
 1710 04f1 08       		.byte	0x8
 1711 04f2 D0       		.byte	0xd0
 1712 04f3 A3000000 		.4byte	0xa3
 1713 04f7 02       		.byte	0x2
 1714 04f8 23       		.byte	0x23
 1715 04f9 3C       		.uleb128 0x3c
 1716 04fa 10       		.uleb128 0x10
 1717 04fb 3F160000 		.4byte	.LASF73
 1718 04ff 08       		.byte	0x8
 1719 0500 D3       		.byte	0xd3
 1720 0501 84070000 		.4byte	0x784
 1721 0505 02       		.byte	0x2
 1722 0506 23       		.byte	0x23
 1723 0507 40       		.uleb128 0x40
 1724 0508 10       		.uleb128 0x10
 1725 0509 A3010000 		.4byte	.LASF74
 1726 050d 08       		.byte	0x8
 1727 050e D4       		.byte	0xd4
 1728 050f 94070000 		.4byte	0x794
 1729 0513 02       		.byte	0x2
 1730 0514 23       		.byte	0x23
 1731 0515 43       		.uleb128 0x43
 1732 0516 12       		.uleb128 0x12
 1733 0517 5F6C6200 		.ascii	"_lb\000"
 1734 051b 08       		.byte	0x8
 1735 051c D7       		.byte	0xd7
 1736 051d F0030000 		.4byte	0x3f0
 1737 0521 02       		.byte	0x2
 1738 0522 23       		.byte	0x23
 1739 0523 44       		.uleb128 0x44
 1740 0524 10       		.uleb128 0x10
 1741 0525 27160000 		.4byte	.LASF75
 1742 0529 08       		.byte	0x8
 1743 052a DA       		.byte	0xda
 1744 052b A3000000 		.4byte	0xa3
 1745 052f 02       		.byte	0x2
 1746 0530 23       		.byte	0x23
 1747 0531 4C       		.uleb128 0x4c
 1748 0532 10       		.uleb128 0x10
 1749 0533 32110000 		.4byte	.LASF76
 1750 0537 08       		.byte	0x8
 1751 0538 DB       		.byte	0xdb
 1752 0539 9B010000 		.4byte	0x19b
 1753 053d 02       		.byte	0x2
 1754 053e 23       		.byte	0x23
 1755 053f 50       		.uleb128 0x50
 1756 0540 10       		.uleb128 0x10
 1757 0541 5B030000 		.4byte	.LASF77
ARM GAS  C:\Users\EBANO_~1\AppData\Local\Temp\ccOSDu2a.s 			page 51


 1758 0545 08       		.byte	0x8
 1759 0546 DE       		.byte	0xde
 1760 0547 98050000 		.4byte	0x598
 1761 054b 02       		.byte	0x2
 1762 054c 23       		.byte	0x23
 1763 054d 54       		.uleb128 0x54
 1764 054e 10       		.uleb128 0x10
 1765 054f 9D010000 		.4byte	.LASF78
 1766 0553 08       		.byte	0x8
 1767 0554 E2       		.byte	0xe2
 1768 0555 1C020000 		.4byte	0x21c
 1769 0559 02       		.byte	0x2
 1770 055a 23       		.byte	0x23
 1771 055b 58       		.uleb128 0x58
 1772 055c 10       		.uleb128 0x10
 1773 055d 9E000000 		.4byte	.LASF79
 1774 0561 08       		.byte	0x8
 1775 0562 E4       		.byte	0xe4
 1776 0563 11020000 		.4byte	0x211
 1777 0567 02       		.byte	0x2
 1778 0568 23       		.byte	0x23
 1779 0569 5C       		.uleb128 0x5c
 1780 056a 10       		.uleb128 0x10
 1781 056b 851B0000 		.4byte	.LASF80
 1782 056f 08       		.byte	0x8
 1783 0570 E5       		.byte	0xe5
 1784 0571 A3000000 		.4byte	0xa3
 1785 0575 02       		.byte	0x2
 1786 0576 23       		.byte	0x23
 1787 0577 64       		.uleb128 0x64
 1788 0578 00       		.byte	0
 1789 0579 15       		.uleb128 0x15
 1790 057a 01       		.byte	0x1
 1791 057b A3000000 		.4byte	0xa3
 1792 057f 98050000 		.4byte	0x598
 1793 0583 16       		.uleb128 0x16
 1794 0584 98050000 		.4byte	0x598
 1795 0588 16       		.uleb128 0x16
 1796 0589 82010000 		.4byte	0x182
 1797 058d 16       		.uleb128 0x16
 1798 058e 01070000 		.4byte	0x701
 1799 0592 16       		.uleb128 0x16
 1800 0593 A3000000 		.4byte	0xa3
 1801 0597 00       		.byte	0
 1802 0598 0A       		.uleb128 0xa
 1803 0599 04       		.byte	0x4
 1804 059a A3050000 		.4byte	0x5a3
 1805 059e 05       		.uleb128 0x5
 1806 059f 98050000 		.4byte	0x598
 1807 05a3 17       		.uleb128 0x17
 1808 05a4 A9030000 		.4byte	.LASF81
 1809 05a8 2804     		.2byte	0x428
 1810 05aa 08       		.byte	0x8
 1811 05ab 6002     		.2byte	0x260
 1812 05ad 01070000 		.4byte	0x701
 1813 05b1 18       		.uleb128 0x18
 1814 05b2 F90B0000 		.4byte	.LASF82
ARM GAS  C:\Users\EBANO_~1\AppData\Local\Temp\ccOSDu2a.s 			page 52


 1815 05b6 08       		.byte	0x8
 1816 05b7 6202     		.2byte	0x262
 1817 05b9 A3000000 		.4byte	0xa3
 1818 05bd 02       		.byte	0x2
 1819 05be 23       		.byte	0x23
 1820 05bf 00       		.uleb128 0
 1821 05c0 18       		.uleb128 0x18
 1822 05c1 24090000 		.4byte	.LASF83
 1823 05c5 08       		.byte	0x8
 1824 05c6 6702     		.2byte	0x267
 1825 05c8 F1070000 		.4byte	0x7f1
 1826 05cc 02       		.byte	0x2
 1827 05cd 23       		.byte	0x23
 1828 05ce 04       		.uleb128 0x4
 1829 05cf 18       		.uleb128 0x18
 1830 05d0 1B060000 		.4byte	.LASF84
 1831 05d4 08       		.byte	0x8
 1832 05d5 6702     		.2byte	0x267
 1833 05d7 F1070000 		.4byte	0x7f1
 1834 05db 02       		.byte	0x2
 1835 05dc 23       		.byte	0x23
 1836 05dd 08       		.uleb128 0x8
 1837 05de 18       		.uleb128 0x18
 1838 05df 9D050000 		.4byte	.LASF85
 1839 05e3 08       		.byte	0x8
 1840 05e4 6702     		.2byte	0x267
 1841 05e6 F1070000 		.4byte	0x7f1
 1842 05ea 02       		.byte	0x2
 1843 05eb 23       		.byte	0x23
 1844 05ec 0C       		.uleb128 0xc
 1845 05ed 18       		.uleb128 0x18
 1846 05ee DF000000 		.4byte	.LASF86
 1847 05f2 08       		.byte	0x8
 1848 05f3 6902     		.2byte	0x269
 1849 05f5 A3000000 		.4byte	0xa3
 1850 05f9 02       		.byte	0x2
 1851 05fa 23       		.byte	0x23
 1852 05fb 10       		.uleb128 0x10
 1853 05fc 18       		.uleb128 0x18
 1854 05fd E2120000 		.4byte	.LASF87
 1855 0601 08       		.byte	0x8
 1856 0602 6A02     		.2byte	0x26a
 1857 0604 0C0A0000 		.4byte	0xa0c
 1858 0608 02       		.byte	0x2
 1859 0609 23       		.byte	0x23
 1860 060a 14       		.uleb128 0x14
 1861 060b 18       		.uleb128 0x18
 1862 060c ED190000 		.4byte	.LASF88
 1863 0610 08       		.byte	0x8
 1864 0611 6D02     		.2byte	0x26d
 1865 0613 A3000000 		.4byte	0xa3
 1866 0617 02       		.byte	0x2
 1867 0618 23       		.byte	0x23
 1868 0619 30       		.uleb128 0x30
 1869 061a 18       		.uleb128 0x18
 1870 061b C71B0000 		.4byte	.LASF89
 1871 061f 08       		.byte	0x8
ARM GAS  C:\Users\EBANO_~1\AppData\Local\Temp\ccOSDu2a.s 			page 53


 1872 0620 6E02     		.2byte	0x26e
 1873 0622 220A0000 		.4byte	0xa22
 1874 0626 02       		.byte	0x2
 1875 0627 23       		.byte	0x23
 1876 0628 34       		.uleb128 0x34
 1877 0629 18       		.uleb128 0x18
 1878 062a 341A0000 		.4byte	.LASF90
 1879 062e 08       		.byte	0x8
 1880 062f 7002     		.2byte	0x270
 1881 0631 A3000000 		.4byte	0xa3
 1882 0635 02       		.byte	0x2
 1883 0636 23       		.byte	0x23
 1884 0637 38       		.uleb128 0x38
 1885 0638 18       		.uleb128 0x18
 1886 0639 9B160000 		.4byte	.LASF91
 1887 063d 08       		.byte	0x8
 1888 063e 7202     		.2byte	0x272
 1889 0640 340A0000 		.4byte	0xa34
 1890 0644 02       		.byte	0x2
 1891 0645 23       		.byte	0x23
 1892 0646 3C       		.uleb128 0x3c
 1893 0647 18       		.uleb128 0x18
 1894 0648 A5050000 		.4byte	.LASF92
 1895 064c 08       		.byte	0x8
 1896 064d 7502     		.2byte	0x275
 1897 064f 91020000 		.4byte	0x291
 1898 0653 02       		.byte	0x2
 1899 0654 23       		.byte	0x23
 1900 0655 40       		.uleb128 0x40
 1901 0656 18       		.uleb128 0x18
 1902 0657 93050000 		.4byte	.LASF93
 1903 065b 08       		.byte	0x8
 1904 065c 7602     		.2byte	0x276
 1905 065e A3000000 		.4byte	0xa3
 1906 0662 02       		.byte	0x2
 1907 0663 23       		.byte	0x23
 1908 0664 44       		.uleb128 0x44
 1909 0665 18       		.uleb128 0x18
 1910 0666 E9170000 		.4byte	.LASF94
 1911 066a 08       		.byte	0x8
 1912 066b 7702     		.2byte	0x277
 1913 066d 91020000 		.4byte	0x291
 1914 0671 02       		.byte	0x2
 1915 0672 23       		.byte	0x23
 1916 0673 48       		.uleb128 0x48
 1917 0674 18       		.uleb128 0x18
 1918 0675 17110000 		.4byte	.LASF95
 1919 0679 08       		.byte	0x8
 1920 067a 7802     		.2byte	0x278
 1921 067c 3A0A0000 		.4byte	0xa3a
 1922 0680 02       		.byte	0x2
 1923 0681 23       		.byte	0x23
 1924 0682 4C       		.uleb128 0x4c
 1925 0683 18       		.uleb128 0x18
 1926 0684 3F010000 		.4byte	.LASF96
 1927 0688 08       		.byte	0x8
 1928 0689 7B02     		.2byte	0x27b
ARM GAS  C:\Users\EBANO_~1\AppData\Local\Temp\ccOSDu2a.s 			page 54


 1929 068b A3000000 		.4byte	0xa3
 1930 068f 02       		.byte	0x2
 1931 0690 23       		.byte	0x23
 1932 0691 50       		.uleb128 0x50
 1933 0692 18       		.uleb128 0x18
 1934 0693 9A0A0000 		.4byte	.LASF97
 1935 0697 08       		.byte	0x8
 1936 0698 7C02     		.2byte	0x27c
 1937 069a 01070000 		.4byte	0x701
 1938 069e 02       		.byte	0x2
 1939 069f 23       		.byte	0x23
 1940 06a0 54       		.uleb128 0x54
 1941 06a1 18       		.uleb128 0x18
 1942 06a2 670B0000 		.4byte	.LASF98
 1943 06a6 08       		.byte	0x8
 1944 06a7 9F02     		.2byte	0x29f
 1945 06a9 EA090000 		.4byte	0x9ea
 1946 06ad 02       		.byte	0x2
 1947 06ae 23       		.byte	0x23
 1948 06af 58       		.uleb128 0x58
 1949 06b0 18       		.uleb128 0x18
 1950 06b1 B3000000 		.4byte	.LASF58
 1951 06b5 08       		.byte	0x8
 1952 06b6 A302     		.2byte	0x2a3
 1953 06b8 D2030000 		.4byte	0x3d2
 1954 06bc 03       		.byte	0x3
 1955 06bd 23       		.byte	0x23
 1956 06be C802     		.uleb128 0x148
 1957 06c0 18       		.uleb128 0x18
 1958 06c1 26150000 		.4byte	.LASF99
 1959 06c5 08       		.byte	0x8
 1960 06c6 A402     		.2byte	0x2a4
 1961 06c8 8B030000 		.4byte	0x38b
 1962 06cc 03       		.byte	0x3
 1963 06cd 23       		.byte	0x23
 1964 06ce CC02     		.uleb128 0x14c
 1965 06d0 18       		.uleb128 0x18
 1966 06d1 68010000 		.4byte	.LASF100
 1967 06d5 08       		.byte	0x8
 1968 06d6 A802     		.2byte	0x2a8
 1969 06d8 4C0A0000 		.4byte	0xa4c
 1970 06dc 03       		.byte	0x3
 1971 06dd 23       		.byte	0x23
 1972 06de DC05     		.uleb128 0x2dc
 1973 06e0 18       		.uleb128 0x18
 1974 06e1 82160000 		.4byte	.LASF101
 1975 06e5 08       		.byte	0x8
 1976 06e6 AD02     		.2byte	0x2ad
 1977 06e8 B0070000 		.4byte	0x7b0
 1978 06ec 03       		.byte	0x3
 1979 06ed 23       		.byte	0x23
 1980 06ee E005     		.uleb128 0x2e0
 1981 06f0 18       		.uleb128 0x18
 1982 06f1 F8030000 		.4byte	.LASF102
 1983 06f5 08       		.byte	0x8
 1984 06f6 AF02     		.2byte	0x2af
 1985 06f8 580A0000 		.4byte	0xa58
ARM GAS  C:\Users\EBANO_~1\AppData\Local\Temp\ccOSDu2a.s 			page 55


 1986 06fc 03       		.byte	0x3
 1987 06fd 23       		.byte	0x23
 1988 06fe EC05     		.uleb128 0x2ec
 1989 0700 00       		.byte	0
 1990 0701 0A       		.uleb128 0xa
 1991 0702 04       		.byte	0x4
 1992 0703 07070000 		.4byte	0x707
 1993 0707 03       		.uleb128 0x3
 1994 0708 01       		.byte	0x1
 1995 0709 08       		.byte	0x8
 1996 070a 33140000 		.4byte	.LASF103
 1997 070e 05       		.uleb128 0x5
 1998 070f 07070000 		.4byte	0x707
 1999 0713 0A       		.uleb128 0xa
 2000 0714 04       		.byte	0x4
 2001 0715 79050000 		.4byte	0x579
 2002 0719 15       		.uleb128 0x15
 2003 071a 01       		.byte	0x1
 2004 071b A3000000 		.4byte	0xa3
 2005 071f 38070000 		.4byte	0x738
 2006 0723 16       		.uleb128 0x16
 2007 0724 98050000 		.4byte	0x598
 2008 0728 16       		.uleb128 0x16
 2009 0729 82010000 		.4byte	0x182
 2010 072d 16       		.uleb128 0x16
 2011 072e 38070000 		.4byte	0x738
 2012 0732 16       		.uleb128 0x16
 2013 0733 A3000000 		.4byte	0xa3
 2014 0737 00       		.byte	0
 2015 0738 0A       		.uleb128 0xa
 2016 0739 04       		.byte	0x4
 2017 073a 0E070000 		.4byte	0x70e
 2018 073e 0A       		.uleb128 0xa
 2019 073f 04       		.byte	0x4
 2020 0740 19070000 		.4byte	0x719
 2021 0744 15       		.uleb128 0x15
 2022 0745 01       		.byte	0x1
 2023 0746 A6010000 		.4byte	0x1a6
 2024 074a 63070000 		.4byte	0x763
 2025 074e 16       		.uleb128 0x16
 2026 074f 98050000 		.4byte	0x598
 2027 0753 16       		.uleb128 0x16
 2028 0754 82010000 		.4byte	0x182
 2029 0758 16       		.uleb128 0x16
 2030 0759 A6010000 		.4byte	0x1a6
 2031 075d 16       		.uleb128 0x16
 2032 075e A3000000 		.4byte	0xa3
 2033 0762 00       		.byte	0
 2034 0763 0A       		.uleb128 0xa
 2035 0764 04       		.byte	0x4
 2036 0765 44070000 		.4byte	0x744
 2037 0769 15       		.uleb128 0x15
 2038 076a 01       		.byte	0x1
 2039 076b A3000000 		.4byte	0xa3
 2040 076f 7E070000 		.4byte	0x77e
 2041 0773 16       		.uleb128 0x16
 2042 0774 98050000 		.4byte	0x598
ARM GAS  C:\Users\EBANO_~1\AppData\Local\Temp\ccOSDu2a.s 			page 56


 2043 0778 16       		.uleb128 0x16
 2044 0779 82010000 		.4byte	0x182
 2045 077d 00       		.byte	0
 2046 077e 0A       		.uleb128 0xa
 2047 077f 04       		.byte	0x4
 2048 0780 69070000 		.4byte	0x769
 2049 0784 07       		.uleb128 0x7
 2050 0785 46000000 		.4byte	0x46
 2051 0789 94070000 		.4byte	0x794
 2052 078d 08       		.uleb128 0x8
 2053 078e AA000000 		.4byte	0xaa
 2054 0792 02       		.byte	0x2
 2055 0793 00       		.byte	0
 2056 0794 07       		.uleb128 0x7
 2057 0795 46000000 		.4byte	0x46
 2058 0799 A4070000 		.4byte	0x7a4
 2059 079d 08       		.uleb128 0x8
 2060 079e AA000000 		.4byte	0xaa
 2061 07a2 00       		.byte	0
 2062 07a3 00       		.byte	0
 2063 07a4 0C       		.uleb128 0xc
 2064 07a5 E21C0000 		.4byte	.LASF104
 2065 07a9 08       		.byte	0x8
 2066 07aa 1F01     		.2byte	0x11f
 2067 07ac 1F040000 		.4byte	0x41f
 2068 07b0 19       		.uleb128 0x19
 2069 07b1 54140000 		.4byte	.LASF105
 2070 07b5 0C       		.byte	0xc
 2071 07b6 08       		.byte	0x8
 2072 07b7 2301     		.2byte	0x123
 2073 07b9 EB070000 		.4byte	0x7eb
 2074 07bd 18       		.uleb128 0x18
 2075 07be D90C0000 		.4byte	.LASF38
 2076 07c2 08       		.byte	0x8
 2077 07c3 2501     		.2byte	0x125
 2078 07c5 EB070000 		.4byte	0x7eb
 2079 07c9 02       		.byte	0x2
 2080 07ca 23       		.byte	0x23
 2081 07cb 00       		.uleb128 0
 2082 07cc 18       		.uleb128 0x18
 2083 07cd 850B0000 		.4byte	.LASF106
 2084 07d1 08       		.byte	0x8
 2085 07d2 2601     		.2byte	0x126
 2086 07d4 A3000000 		.4byte	0xa3
 2087 07d8 02       		.byte	0x2
 2088 07d9 23       		.byte	0x23
 2089 07da 04       		.uleb128 0x4
 2090 07db 18       		.uleb128 0x18
 2091 07dc DC120000 		.4byte	.LASF107
 2092 07e0 08       		.byte	0x8
 2093 07e1 2701     		.2byte	0x127
 2094 07e3 F1070000 		.4byte	0x7f1
 2095 07e7 02       		.byte	0x2
 2096 07e8 23       		.byte	0x23
 2097 07e9 08       		.uleb128 0x8
 2098 07ea 00       		.byte	0
 2099 07eb 0A       		.uleb128 0xa
ARM GAS  C:\Users\EBANO_~1\AppData\Local\Temp\ccOSDu2a.s 			page 57


 2100 07ec 04       		.byte	0x4
 2101 07ed B0070000 		.4byte	0x7b0
 2102 07f1 0A       		.uleb128 0xa
 2103 07f2 04       		.byte	0x4
 2104 07f3 A4070000 		.4byte	0x7a4
 2105 07f7 19       		.uleb128 0x19
 2106 07f8 661E0000 		.4byte	.LASF108
 2107 07fc 0E       		.byte	0xe
 2108 07fd 08       		.byte	0x8
 2109 07fe 3F01     		.2byte	0x13f
 2110 0800 32080000 		.4byte	0x832
 2111 0804 18       		.uleb128 0x18
 2112 0805 31100000 		.4byte	.LASF109
 2113 0809 08       		.byte	0x8
 2114 080a 4001     		.2byte	0x140
 2115 080c 32080000 		.4byte	0x832
 2116 0810 02       		.byte	0x2
 2117 0811 23       		.byte	0x23
 2118 0812 00       		.uleb128 0
 2119 0813 18       		.uleb128 0x18
 2120 0814 8A080000 		.4byte	.LASF110
 2121 0818 08       		.byte	0x8
 2122 0819 4101     		.2byte	0x141
 2123 081b 32080000 		.4byte	0x832
 2124 081f 02       		.byte	0x2
 2125 0820 23       		.byte	0x23
 2126 0821 06       		.uleb128 0x6
 2127 0822 18       		.uleb128 0x18
 2128 0823 A7020000 		.4byte	.LASF111
 2129 0827 08       		.byte	0x8
 2130 0828 4201     		.2byte	0x142
 2131 082a 6A000000 		.4byte	0x6a
 2132 082e 02       		.byte	0x2
 2133 082f 23       		.byte	0x23
 2134 0830 0C       		.uleb128 0xc
 2135 0831 00       		.byte	0
 2136 0832 07       		.uleb128 0x7
 2137 0833 6A000000 		.4byte	0x6a
 2138 0837 42080000 		.4byte	0x842
 2139 083b 08       		.uleb128 0x8
 2140 083c AA000000 		.4byte	0xaa
 2141 0840 02       		.byte	0x2
 2142 0841 00       		.byte	0
 2143 0842 1A       		.uleb128 0x1a
 2144 0843 D0       		.byte	0xd0
 2145 0844 08       		.byte	0x8
 2146 0845 8002     		.2byte	0x280
 2147 0847 72090000 		.4byte	0x972
 2148 084b 18       		.uleb128 0x18
 2149 084c 19050000 		.4byte	.LASF112
 2150 0850 08       		.byte	0x8
 2151 0851 8202     		.2byte	0x282
 2152 0853 AA000000 		.4byte	0xaa
 2153 0857 02       		.byte	0x2
 2154 0858 23       		.byte	0x23
 2155 0859 00       		.uleb128 0
 2156 085a 18       		.uleb128 0x18
ARM GAS  C:\Users\EBANO_~1\AppData\Local\Temp\ccOSDu2a.s 			page 58


 2157 085b F50F0000 		.4byte	.LASF113
 2158 085f 08       		.byte	0x8
 2159 0860 8302     		.2byte	0x283
 2160 0862 01070000 		.4byte	0x701
 2161 0866 02       		.byte	0x2
 2162 0867 23       		.byte	0x23
 2163 0868 04       		.uleb128 0x4
 2164 0869 18       		.uleb128 0x18
 2165 086a 0F120000 		.4byte	.LASF114
 2166 086e 08       		.byte	0x8
 2167 086f 8402     		.2byte	0x284
 2168 0871 72090000 		.4byte	0x972
 2169 0875 02       		.byte	0x2
 2170 0876 23       		.byte	0x23
 2171 0877 08       		.uleb128 0x8
 2172 0878 18       		.uleb128 0x18
 2173 0879 C9090000 		.4byte	.LASF115
 2174 087d 08       		.byte	0x8
 2175 087e 8502     		.2byte	0x285
 2176 0880 A7020000 		.4byte	0x2a7
 2177 0884 02       		.byte	0x2
 2178 0885 23       		.byte	0x23
 2179 0886 24       		.uleb128 0x24
 2180 0887 18       		.uleb128 0x18
 2181 0888 FE180000 		.4byte	.LASF116
 2182 088c 08       		.byte	0x8
 2183 088d 8602     		.2byte	0x286
 2184 088f A3000000 		.4byte	0xa3
 2185 0893 02       		.byte	0x2
 2186 0894 23       		.byte	0x23
 2187 0895 48       		.uleb128 0x48
 2188 0896 18       		.uleb128 0x18
 2189 0897 1E130000 		.4byte	.LASF117
 2190 089b 08       		.byte	0x8
 2191 089c 8702     		.2byte	0x287
 2192 089e 9C000000 		.4byte	0x9c
 2193 08a2 02       		.byte	0x2
 2194 08a3 23       		.byte	0x23
 2195 08a4 50       		.uleb128 0x50
 2196 08a5 18       		.uleb128 0x18
 2197 08a6 981D0000 		.4byte	.LASF118
 2198 08aa 08       		.byte	0x8
 2199 08ab 8802     		.2byte	0x288
 2200 08ad F7070000 		.4byte	0x7f7
 2201 08b1 02       		.byte	0x2
 2202 08b2 23       		.byte	0x23
 2203 08b3 58       		.uleb128 0x58
 2204 08b4 18       		.uleb128 0x18
 2205 08b5 75160000 		.4byte	.LASF119
 2206 08b9 08       		.byte	0x8
 2207 08ba 8902     		.2byte	0x289
 2208 08bc 11020000 		.4byte	0x211
 2209 08c0 02       		.byte	0x2
 2210 08c1 23       		.byte	0x23
 2211 08c2 68       		.uleb128 0x68
 2212 08c3 18       		.uleb128 0x18
 2213 08c4 09040000 		.4byte	.LASF120
ARM GAS  C:\Users\EBANO_~1\AppData\Local\Temp\ccOSDu2a.s 			page 59


 2214 08c8 08       		.byte	0x8
 2215 08c9 8A02     		.2byte	0x28a
 2216 08cb 11020000 		.4byte	0x211
 2217 08cf 02       		.byte	0x2
 2218 08d0 23       		.byte	0x23
 2219 08d1 70       		.uleb128 0x70
 2220 08d2 18       		.uleb128 0x18
 2221 08d3 9F120000 		.4byte	.LASF121
 2222 08d7 08       		.byte	0x8
 2223 08d8 8B02     		.2byte	0x28b
 2224 08da 11020000 		.4byte	0x211
 2225 08de 02       		.byte	0x2
 2226 08df 23       		.byte	0x23
 2227 08e0 78       		.uleb128 0x78
 2228 08e1 18       		.uleb128 0x18
 2229 08e2 B3110000 		.4byte	.LASF122
 2230 08e6 08       		.byte	0x8
 2231 08e7 8C02     		.2byte	0x28c
 2232 08e9 82090000 		.4byte	0x982
 2233 08ed 03       		.byte	0x3
 2234 08ee 23       		.byte	0x23
 2235 08ef 8001     		.uleb128 0x80
 2236 08f1 18       		.uleb128 0x18
 2237 08f2 060D0000 		.4byte	.LASF123
 2238 08f6 08       		.byte	0x8
 2239 08f7 8D02     		.2byte	0x28d
 2240 08f9 92090000 		.4byte	0x992
 2241 08fd 03       		.byte	0x3
 2242 08fe 23       		.byte	0x23
 2243 08ff 8801     		.uleb128 0x88
 2244 0901 18       		.uleb128 0x18
 2245 0902 76150000 		.4byte	.LASF124
 2246 0906 08       		.byte	0x8
 2247 0907 8E02     		.2byte	0x28e
 2248 0909 A3000000 		.4byte	0xa3
 2249 090d 03       		.byte	0x3
 2250 090e 23       		.byte	0x23
 2251 090f A001     		.uleb128 0xa0
 2252 0911 18       		.uleb128 0x18
 2253 0912 AE080000 		.4byte	.LASF125
 2254 0916 08       		.byte	0x8
 2255 0917 8F02     		.2byte	0x28f
 2256 0919 11020000 		.4byte	0x211
 2257 091d 03       		.byte	0x3
 2258 091e 23       		.byte	0x23
 2259 091f A401     		.uleb128 0xa4
 2260 0921 18       		.uleb128 0x18
 2261 0922 0D0B0000 		.4byte	.LASF126
 2262 0926 08       		.byte	0x8
 2263 0927 9002     		.2byte	0x290
 2264 0929 11020000 		.4byte	0x211
 2265 092d 03       		.byte	0x3
 2266 092e 23       		.byte	0x23
 2267 092f AC01     		.uleb128 0xac
 2268 0931 18       		.uleb128 0x18
 2269 0932 34060000 		.4byte	.LASF127
 2270 0936 08       		.byte	0x8
ARM GAS  C:\Users\EBANO_~1\AppData\Local\Temp\ccOSDu2a.s 			page 60


 2271 0937 9102     		.2byte	0x291
 2272 0939 11020000 		.4byte	0x211
 2273 093d 03       		.byte	0x3
 2274 093e 23       		.byte	0x23
 2275 093f B401     		.uleb128 0xb4
 2276 0941 18       		.uleb128 0x18
 2277 0942 020F0000 		.4byte	.LASF128
 2278 0946 08       		.byte	0x8
 2279 0947 9202     		.2byte	0x292
 2280 0949 11020000 		.4byte	0x211
 2281 094d 03       		.byte	0x3
 2282 094e 23       		.byte	0x23
 2283 094f BC01     		.uleb128 0xbc
 2284 0951 18       		.uleb128 0x18
 2285 0952 39120000 		.4byte	.LASF129
 2286 0956 08       		.byte	0x8
 2287 0957 9302     		.2byte	0x293
 2288 0959 11020000 		.4byte	0x211
 2289 095d 03       		.byte	0x3
 2290 095e 23       		.byte	0x23
 2291 095f C401     		.uleb128 0xc4
 2292 0961 18       		.uleb128 0x18
 2293 0962 3C170000 		.4byte	.LASF130
 2294 0966 08       		.byte	0x8
 2295 0967 9402     		.2byte	0x294
 2296 0969 A3000000 		.4byte	0xa3
 2297 096d 03       		.byte	0x3
 2298 096e 23       		.byte	0x23
 2299 096f CC01     		.uleb128 0xcc
 2300 0971 00       		.byte	0
 2301 0972 07       		.uleb128 0x7
 2302 0973 07070000 		.4byte	0x707
 2303 0977 82090000 		.4byte	0x982
 2304 097b 08       		.uleb128 0x8
 2305 097c AA000000 		.4byte	0xaa
 2306 0980 19       		.byte	0x19
 2307 0981 00       		.byte	0
 2308 0982 07       		.uleb128 0x7
 2309 0983 07070000 		.4byte	0x707
 2310 0987 92090000 		.4byte	0x992
 2311 098b 08       		.uleb128 0x8
 2312 098c AA000000 		.4byte	0xaa
 2313 0990 07       		.byte	0x7
 2314 0991 00       		.byte	0
 2315 0992 07       		.uleb128 0x7
 2316 0993 07070000 		.4byte	0x707
 2317 0997 A2090000 		.4byte	0x9a2
 2318 099b 08       		.uleb128 0x8
 2319 099c AA000000 		.4byte	0xaa
 2320 09a0 17       		.byte	0x17
 2321 09a1 00       		.byte	0
 2322 09a2 1A       		.uleb128 0x1a
 2323 09a3 F0       		.byte	0xf0
 2324 09a4 08       		.byte	0x8
 2325 09a5 9902     		.2byte	0x299
 2326 09a7 CA090000 		.4byte	0x9ca
 2327 09ab 18       		.uleb128 0x18
ARM GAS  C:\Users\EBANO_~1\AppData\Local\Temp\ccOSDu2a.s 			page 61


 2328 09ac 17130000 		.4byte	.LASF131
 2329 09b0 08       		.byte	0x8
 2330 09b1 9C02     		.2byte	0x29c
 2331 09b3 CA090000 		.4byte	0x9ca
 2332 09b7 02       		.byte	0x2
 2333 09b8 23       		.byte	0x23
 2334 09b9 00       		.uleb128 0
 2335 09ba 18       		.uleb128 0x18
 2336 09bb 39090000 		.4byte	.LASF132
 2337 09bf 08       		.byte	0x8
 2338 09c0 9D02     		.2byte	0x29d
 2339 09c2 DA090000 		.4byte	0x9da
 2340 09c6 02       		.byte	0x2
 2341 09c7 23       		.byte	0x23
 2342 09c8 78       		.uleb128 0x78
 2343 09c9 00       		.byte	0
 2344 09ca 07       		.uleb128 0x7
 2345 09cb 19040000 		.4byte	0x419
 2346 09cf DA090000 		.4byte	0x9da
 2347 09d3 08       		.uleb128 0x8
 2348 09d4 AA000000 		.4byte	0xaa
 2349 09d8 1D       		.byte	0x1d
 2350 09d9 00       		.byte	0
 2351 09da 07       		.uleb128 0x7
 2352 09db AA000000 		.4byte	0xaa
 2353 09df EA090000 		.4byte	0x9ea
 2354 09e3 08       		.uleb128 0x8
 2355 09e4 AA000000 		.4byte	0xaa
 2356 09e8 1D       		.byte	0x1d
 2357 09e9 00       		.byte	0
 2358 09ea 1B       		.uleb128 0x1b
 2359 09eb F0       		.byte	0xf0
 2360 09ec 08       		.byte	0x8
 2361 09ed 7E02     		.2byte	0x27e
 2362 09ef 0C0A0000 		.4byte	0xa0c
 2363 09f3 1C       		.uleb128 0x1c
 2364 09f4 A9030000 		.4byte	.LASF81
 2365 09f8 08       		.byte	0x8
 2366 09f9 9502     		.2byte	0x295
 2367 09fb 42080000 		.4byte	0x842
 2368 09ff 1C       		.uleb128 0x1c
 2369 0a00 C1010000 		.4byte	.LASF133
 2370 0a04 08       		.byte	0x8
 2371 0a05 9E02     		.2byte	0x29e
 2372 0a07 A2090000 		.4byte	0x9a2
 2373 0a0b 00       		.byte	0
 2374 0a0c 07       		.uleb128 0x7
 2375 0a0d 07070000 		.4byte	0x707
 2376 0a11 1C0A0000 		.4byte	0xa1c
 2377 0a15 08       		.uleb128 0x8
 2378 0a16 AA000000 		.4byte	0xaa
 2379 0a1a 18       		.byte	0x18
 2380 0a1b 00       		.byte	0
 2381 0a1c 0B       		.uleb128 0xb
 2382 0a1d 8A160000 		.4byte	.LASF135
 2383 0a21 01       		.byte	0x1
 2384 0a22 0A       		.uleb128 0xa
ARM GAS  C:\Users\EBANO_~1\AppData\Local\Temp\ccOSDu2a.s 			page 62


 2385 0a23 04       		.byte	0x4
 2386 0a24 1C0A0000 		.4byte	0xa1c
 2387 0a28 1D       		.uleb128 0x1d
 2388 0a29 01       		.byte	0x1
 2389 0a2a 340A0000 		.4byte	0xa34
 2390 0a2e 16       		.uleb128 0x16
 2391 0a2f 98050000 		.4byte	0x598
 2392 0a33 00       		.byte	0
 2393 0a34 0A       		.uleb128 0xa
 2394 0a35 04       		.byte	0x4
 2395 0a36 280A0000 		.4byte	0xa28
 2396 0a3a 0A       		.uleb128 0xa
 2397 0a3b 04       		.byte	0x4
 2398 0a3c 91020000 		.4byte	0x291
 2399 0a40 1D       		.uleb128 0x1d
 2400 0a41 01       		.byte	0x1
 2401 0a42 4C0A0000 		.4byte	0xa4c
 2402 0a46 16       		.uleb128 0x16
 2403 0a47 A3000000 		.4byte	0xa3
 2404 0a4b 00       		.byte	0
 2405 0a4c 0A       		.uleb128 0xa
 2406 0a4d 04       		.byte	0x4
 2407 0a4e 520A0000 		.4byte	0xa52
 2408 0a52 0A       		.uleb128 0xa
 2409 0a53 04       		.byte	0x4
 2410 0a54 400A0000 		.4byte	0xa40
 2411 0a58 07       		.uleb128 0x7
 2412 0a59 A4070000 		.4byte	0x7a4
 2413 0a5d 680A0000 		.4byte	0xa68
 2414 0a61 08       		.uleb128 0x8
 2415 0a62 AA000000 		.4byte	0xaa
 2416 0a66 02       		.byte	0x2
 2417 0a67 00       		.byte	0
 2418 0a68 1E       		.uleb128 0x1e
 2419 0a69 1B160000 		.4byte	.LASF136
 2420 0a6d 08       		.byte	0x8
 2421 0a6e 2E03     		.2byte	0x32e
 2422 0a70 98050000 		.4byte	0x598
 2423 0a74 01       		.byte	0x1
 2424 0a75 01       		.byte	0x1
 2425 0a76 1E       		.uleb128 0x1e
 2426 0a77 CC190000 		.4byte	.LASF137
 2427 0a7b 08       		.byte	0x8
 2428 0a7c 2F03     		.2byte	0x32f
 2429 0a7e 9E050000 		.4byte	0x59e
 2430 0a82 01       		.byte	0x1
 2431 0a83 01       		.byte	0x1
 2432 0a84 0A       		.uleb128 0xa
 2433 0a85 04       		.byte	0x4
 2434 0a86 BC000000 		.4byte	0xbc
 2435 0a8a 06       		.uleb128 0x6
 2436 0a8b 90130000 		.4byte	.LASF138
 2437 0a8f 09       		.byte	0x9
 2438 0a90 63       		.byte	0x63
 2439 0a91 01070000 		.4byte	0x701
 2440 0a95 01       		.byte	0x1
 2441 0a96 01       		.byte	0x1
ARM GAS  C:\Users\EBANO_~1\AppData\Local\Temp\ccOSDu2a.s 			page 63


 2442 0a97 02       		.uleb128 0x2
 2443 0a98 5B180000 		.4byte	.LASF139
 2444 0a9c 0A       		.byte	0xa
 2445 0a9d 3D       		.byte	0x3d
 2446 0a9e ED000000 		.4byte	0xed
 2447 0aa2 11       		.uleb128 0x11
 2448 0aa3 A4090000 		.4byte	.LASF140
 2449 0aa7 04       		.byte	0x4
 2450 0aa8 0A       		.byte	0xa
 2451 0aa9 5F       		.byte	0x5f
 2452 0aaa E70A0000 		.4byte	0xae7
 2453 0aae 12       		.uleb128 0x12
 2454 0aaf 52667500 		.ascii	"Rfu\000"
 2455 0ab3 0A       		.byte	0xa
 2456 0ab4 61       		.byte	0x61
 2457 0ab5 BC000000 		.4byte	0xbc
 2458 0ab9 02       		.byte	0x2
 2459 0aba 23       		.byte	0x23
 2460 0abb 00       		.uleb128 0
 2461 0abc 10       		.uleb128 0x10
 2462 0abd 66000000 		.4byte	.LASF141
 2463 0ac1 0A       		.byte	0xa
 2464 0ac2 62       		.byte	0x62
 2465 0ac3 BC000000 		.4byte	0xbc
 2466 0ac7 02       		.byte	0x2
 2467 0ac8 23       		.byte	0x23
 2468 0ac9 01       		.uleb128 0x1
 2469 0aca 10       		.uleb128 0x10
 2470 0acb 53020000 		.4byte	.LASF142
 2471 0acf 0A       		.byte	0xa
 2472 0ad0 63       		.byte	0x63
 2473 0ad1 BC000000 		.4byte	0xbc
 2474 0ad5 02       		.byte	0x2
 2475 0ad6 23       		.byte	0x23
 2476 0ad7 02       		.uleb128 0x2
 2477 0ad8 10       		.uleb128 0x10
 2478 0ad9 A7190000 		.4byte	.LASF143
 2479 0add 0A       		.byte	0xa
 2480 0ade 64       		.byte	0x64
 2481 0adf BC000000 		.4byte	0xbc
 2482 0ae3 02       		.byte	0x2
 2483 0ae4 23       		.byte	0x23
 2484 0ae5 03       		.uleb128 0x3
 2485 0ae6 00       		.byte	0
 2486 0ae7 1F       		.uleb128 0x1f
 2487 0ae8 B8090000 		.4byte	.LASF198
 2488 0aec 04       		.byte	0x4
 2489 0aed 0A       		.byte	0xa
 2490 0aee 5D       		.byte	0x5d
 2491 0aef 0A0B0000 		.4byte	0xb0a
 2492 0af3 0E       		.uleb128 0xe
 2493 0af4 D60F0000 		.4byte	.LASF144
 2494 0af8 0A       		.byte	0xa
 2495 0af9 65       		.byte	0x65
 2496 0afa A20A0000 		.4byte	0xaa2
 2497 0afe 0E       		.uleb128 0xe
 2498 0aff AF1D0000 		.4byte	.LASF145
ARM GAS  C:\Users\EBANO_~1\AppData\Local\Temp\ccOSDu2a.s 			page 64


 2499 0b03 0A       		.byte	0xa
 2500 0b04 66       		.byte	0x66
 2501 0b05 ED000000 		.4byte	0xed
 2502 0b09 00       		.byte	0
 2503 0b0a 02       		.uleb128 0x2
 2504 0b0b AE090000 		.4byte	.LASF146
 2505 0b0f 0A       		.byte	0xa
 2506 0b10 67       		.byte	0x67
 2507 0b11 E70A0000 		.4byte	0xae7
 2508 0b15 03       		.uleb128 0x3
 2509 0b16 01       		.byte	0x1
 2510 0b17 02       		.byte	0x2
 2511 0b18 98000000 		.4byte	.LASF147
 2512 0b1c 06       		.uleb128 0x6
 2513 0b1d BF180000 		.4byte	.LASF148
 2514 0b21 0B       		.byte	0xb
 2515 0b22 9A       		.byte	0x9a
 2516 0b23 7C000000 		.4byte	0x7c
 2517 0b27 01       		.byte	0x1
 2518 0b28 01       		.byte	0x1
 2519 0b29 06       		.uleb128 0x6
 2520 0b2a 80030000 		.4byte	.LASF149
 2521 0b2e 0B       		.byte	0xb
 2522 0b2f 9B       		.byte	0x9b
 2523 0b30 A3000000 		.4byte	0xa3
 2524 0b34 01       		.byte	0x1
 2525 0b35 01       		.byte	0x1
 2526 0b36 07       		.uleb128 0x7
 2527 0b37 01070000 		.4byte	0x701
 2528 0b3b 460B0000 		.4byte	0xb46
 2529 0b3f 08       		.uleb128 0x8
 2530 0b40 AA000000 		.4byte	0xaa
 2531 0b44 01       		.byte	0x1
 2532 0b45 00       		.byte	0
 2533 0b46 06       		.uleb128 0x6
 2534 0b47 560D0000 		.4byte	.LASF150
 2535 0b4b 0B       		.byte	0xb
 2536 0b4c 9E       		.byte	0x9e
 2537 0b4d 360B0000 		.4byte	0xb36
 2538 0b51 01       		.byte	0x1
 2539 0b52 01       		.byte	0x1
 2540 0b53 20       		.uleb128 0x20
 2541 0b54 07       		.byte	0x7
 2542 0b55 01       		.byte	0x1
 2543 0b56 46000000 		.4byte	0x46
 2544 0b5a 0C       		.byte	0xc
 2545 0b5b 21       		.byte	0x21
 2546 0b5c 6D0B0000 		.4byte	0xb6d
 2547 0b60 21       		.uleb128 0x21
 2548 0b61 260B0000 		.4byte	.LASF151
 2549 0b65 00       		.byte	0
 2550 0b66 21       		.uleb128 0x21
 2551 0b67 DC180000 		.4byte	.LASF152
 2552 0b6b 01       		.byte	0x1
 2553 0b6c 00       		.byte	0
 2554 0b6d 02       		.uleb128 0x2
 2555 0b6e BA0B0000 		.4byte	.LASF153
ARM GAS  C:\Users\EBANO_~1\AppData\Local\Temp\ccOSDu2a.s 			page 65


 2556 0b72 0C       		.byte	0xc
 2557 0b73 24       		.byte	0x24
 2558 0b74 530B0000 		.4byte	0xb53
 2559 0b78 20       		.uleb128 0x20
 2560 0b79 07       		.byte	0x7
 2561 0b7a 01       		.byte	0x1
 2562 0b7b 46000000 		.4byte	0x46
 2563 0b7f 0C       		.byte	0xc
 2564 0b80 2A       		.byte	0x2a
 2565 0b81 9E0B0000 		.4byte	0xb9e
 2566 0b85 21       		.uleb128 0x21
 2567 0b86 BC020000 		.4byte	.LASF154
 2568 0b8a 00       		.byte	0
 2569 0b8b 21       		.uleb128 0x21
 2570 0b8c A60D0000 		.4byte	.LASF155
 2571 0b90 01       		.byte	0x1
 2572 0b91 21       		.uleb128 0x21
 2573 0b92 F6170000 		.4byte	.LASF156
 2574 0b96 02       		.byte	0x2
 2575 0b97 21       		.uleb128 0x21
 2576 0b98 4D140000 		.4byte	.LASF157
 2577 0b9c 03       		.byte	0x3
 2578 0b9d 00       		.byte	0
 2579 0b9e 02       		.uleb128 0x2
 2580 0b9f 210F0000 		.4byte	.LASF158
 2581 0ba3 0C       		.byte	0xc
 2582 0ba4 2F       		.byte	0x2f
 2583 0ba5 780B0000 		.4byte	0xb78
 2584 0ba9 0F       		.uleb128 0xf
 2585 0baa 1C       		.byte	0x1c
 2586 0bab 0C       		.byte	0xc
 2587 0bac 34       		.byte	0x34
 2588 0bad 140C0000 		.4byte	0xc14
 2589 0bb1 10       		.uleb128 0x10
 2590 0bb2 99070000 		.4byte	.LASF159
 2591 0bb6 0C       		.byte	0xc
 2592 0bb7 39       		.byte	0x39
 2593 0bb8 E8030000 		.4byte	0x3e8
 2594 0bbc 02       		.byte	0x2
 2595 0bbd 23       		.byte	0x23
 2596 0bbe 00       		.uleb128 0
 2597 0bbf 10       		.uleb128 0x10
 2598 0bc0 20020000 		.4byte	.LASF160
 2599 0bc4 0C       		.byte	0xc
 2600 0bc5 3D       		.byte	0x3d
 2601 0bc6 E8030000 		.4byte	0x3e8
 2602 0bca 02       		.byte	0x2
 2603 0bcb 23       		.byte	0x23
 2604 0bcc 04       		.uleb128 0x4
 2605 0bcd 10       		.uleb128 0x10
 2606 0bce 1D090000 		.4byte	.LASF161
 2607 0bd2 0C       		.byte	0xc
 2608 0bd3 48       		.byte	0x48
 2609 0bd4 2F0C0000 		.4byte	0xc2f
 2610 0bd8 02       		.byte	0x2
 2611 0bd9 23       		.byte	0x23
 2612 0bda 08       		.uleb128 0x8
ARM GAS  C:\Users\EBANO_~1\AppData\Local\Temp\ccOSDu2a.s 			page 66


 2613 0bdb 10       		.uleb128 0x10
 2614 0bdc E5010000 		.4byte	.LASF162
 2615 0be0 0C       		.byte	0xc
 2616 0be1 4C       		.byte	0x4c
 2617 0be2 E8030000 		.4byte	0x3e8
 2618 0be6 02       		.byte	0x2
 2619 0be7 23       		.byte	0x23
 2620 0be8 0C       		.uleb128 0xc
 2621 0be9 10       		.uleb128 0x10
 2622 0bea 0D010000 		.4byte	.LASF163
 2623 0bee 0C       		.byte	0xc
 2624 0bef 50       		.byte	0x50
 2625 0bf0 E8030000 		.4byte	0x3e8
 2626 0bf4 02       		.byte	0x2
 2627 0bf5 23       		.byte	0x23
 2628 0bf6 10       		.uleb128 0x10
 2629 0bf7 10       		.uleb128 0x10
 2630 0bf8 DF0C0000 		.4byte	.LASF164
 2631 0bfc 0C       		.byte	0xc
 2632 0bfd 56       		.byte	0x56
 2633 0bfe 410C0000 		.4byte	0xc41
 2634 0c02 02       		.byte	0x2
 2635 0c03 23       		.byte	0x23
 2636 0c04 14       		.uleb128 0x14
 2637 0c05 10       		.uleb128 0x10
 2638 0c06 BF1B0000 		.4byte	.LASF165
 2639 0c0a 0C       		.byte	0xc
 2640 0c0b 5D       		.byte	0x5d
 2641 0c0c 530C0000 		.4byte	0xc53
 2642 0c10 02       		.byte	0x2
 2643 0c11 23       		.byte	0x23
 2644 0c12 18       		.uleb128 0x18
 2645 0c13 00       		.byte	0
 2646 0c14 1D       		.uleb128 0x1d
 2647 0c15 01       		.byte	0x1
 2648 0c16 2F0C0000 		.4byte	0xc2f
 2649 0c1a 16       		.uleb128 0x16
 2650 0c1b 840A0000 		.4byte	0xa84
 2651 0c1f 16       		.uleb128 0x16
 2652 0c20 D7000000 		.4byte	0xd7
 2653 0c24 16       		.uleb128 0x16
 2654 0c25 CC000000 		.4byte	0xcc
 2655 0c29 16       		.uleb128 0x16
 2656 0c2a B1000000 		.4byte	0xb1
 2657 0c2e 00       		.byte	0
 2658 0c2f 0A       		.uleb128 0xa
 2659 0c30 04       		.byte	0x4
 2660 0c31 140C0000 		.4byte	0xc14
 2661 0c35 1D       		.uleb128 0x1d
 2662 0c36 01       		.byte	0x1
 2663 0c37 410C0000 		.4byte	0xc41
 2664 0c3b 16       		.uleb128 0x16
 2665 0c3c BC000000 		.4byte	0xbc
 2666 0c40 00       		.byte	0
 2667 0c41 0A       		.uleb128 0xa
 2668 0c42 04       		.byte	0x4
 2669 0c43 350C0000 		.4byte	0xc35
ARM GAS  C:\Users\EBANO_~1\AppData\Local\Temp\ccOSDu2a.s 			page 67


 2670 0c47 1D       		.uleb128 0x1d
 2671 0c48 01       		.byte	0x1
 2672 0c49 530C0000 		.4byte	0xc53
 2673 0c4d 16       		.uleb128 0x16
 2674 0c4e 150B0000 		.4byte	0xb15
 2675 0c52 00       		.byte	0
 2676 0c53 0A       		.uleb128 0xa
 2677 0c54 04       		.byte	0x4
 2678 0c55 470C0000 		.4byte	0xc47
 2679 0c59 02       		.uleb128 0x2
 2680 0c5a BC1A0000 		.4byte	.LASF166
 2681 0c5e 0C       		.byte	0xc
 2682 0c5f 5E       		.byte	0x5e
 2683 0c60 A90B0000 		.4byte	0xba9
 2684 0c64 11       		.uleb128 0x11
 2685 0c65 3B030000 		.4byte	.LASF167
 2686 0c69 74       		.byte	0x74
 2687 0c6a 0C       		.byte	0xc
 2688 0c6b 63       		.byte	0x63
 2689 0c6c 180E0000 		.4byte	0xe18
 2690 0c70 10       		.uleb128 0x10
 2691 0c71 10110000 		.4byte	.LASF168
 2692 0c75 0C       		.byte	0xc
 2693 0c76 68       		.byte	0x68
 2694 0c77 E8030000 		.4byte	0x3e8
 2695 0c7b 02       		.byte	0x2
 2696 0c7c 23       		.byte	0x23
 2697 0c7d 00       		.uleb128 0
 2698 0c7e 10       		.uleb128 0x10
 2699 0c7f 77020000 		.4byte	.LASF169
 2700 0c83 0C       		.byte	0xc
 2701 0c84 6C       		.byte	0x6c
 2702 0c85 E8030000 		.4byte	0x3e8
 2703 0c89 02       		.byte	0x2
 2704 0c8a 23       		.byte	0x23
 2705 0c8b 04       		.uleb128 0x4
 2706 0c8c 10       		.uleb128 0x10
 2707 0c8d 0D190000 		.4byte	.LASF170
 2708 0c91 0C       		.byte	0xc
 2709 0c92 73       		.byte	0x73
 2710 0c93 330E0000 		.4byte	0xe33
 2711 0c97 02       		.byte	0x2
 2712 0c98 23       		.byte	0x23
 2713 0c99 08       		.uleb128 0x8
 2714 0c9a 10       		.uleb128 0x10
 2715 0c9b 230E0000 		.4byte	.LASF171
 2716 0c9f 0C       		.byte	0xc
 2717 0ca0 79       		.byte	0x79
 2718 0ca1 3F0E0000 		.4byte	0xe3f
 2719 0ca5 02       		.byte	0x2
 2720 0ca6 23       		.byte	0x23
 2721 0ca7 0C       		.uleb128 0xc
 2722 0ca8 10       		.uleb128 0x10
 2723 0ca9 52070000 		.4byte	.LASF172
 2724 0cad 0C       		.byte	0xc
 2725 0cae 7F       		.byte	0x7f
 2726 0caf 510E0000 		.4byte	0xe51
ARM GAS  C:\Users\EBANO_~1\AppData\Local\Temp\ccOSDu2a.s 			page 68


 2727 0cb3 02       		.byte	0x2
 2728 0cb4 23       		.byte	0x23
 2729 0cb5 10       		.uleb128 0x10
 2730 0cb6 10       		.uleb128 0x10
 2731 0cb7 08150000 		.4byte	.LASF173
 2732 0cbb 0C       		.byte	0xc
 2733 0cbc 85       		.byte	0x85
 2734 0cbd 630E0000 		.4byte	0xe63
 2735 0cc1 02       		.byte	0x2
 2736 0cc2 23       		.byte	0x23
 2737 0cc3 14       		.uleb128 0x14
 2738 0cc4 10       		.uleb128 0x10
 2739 0cc5 0D140000 		.4byte	.LASF174
 2740 0cc9 0C       		.byte	0xc
 2741 0cca 90       		.byte	0x90
 2742 0ccb 880E0000 		.4byte	0xe88
 2743 0ccf 02       		.byte	0x2
 2744 0cd0 23       		.byte	0x23
 2745 0cd1 18       		.uleb128 0x18
 2746 0cd2 10       		.uleb128 0x10
 2747 0cd3 4D090000 		.4byte	.LASF175
 2748 0cd7 0C       		.byte	0xc
 2749 0cd8 9B       		.byte	0x9b
 2750 0cd9 940E0000 		.4byte	0xe94
 2751 0cdd 02       		.byte	0x2
 2752 0cde 23       		.byte	0x23
 2753 0cdf 1C       		.uleb128 0x1c
 2754 0ce0 10       		.uleb128 0x10
 2755 0ce1 3E1E0000 		.4byte	.LASF176
 2756 0ce5 0C       		.byte	0xc
 2757 0ce6 C3       		.byte	0xc3
 2758 0ce7 E70E0000 		.4byte	0xee7
 2759 0ceb 02       		.byte	0x2
 2760 0cec 23       		.byte	0x23
 2761 0ced 20       		.uleb128 0x20
 2762 0cee 10       		.uleb128 0x10
 2763 0cef 440E0000 		.4byte	.LASF177
 2764 0cf3 0C       		.byte	0xc
 2765 0cf4 ED       		.byte	0xed
 2766 0cf5 350F0000 		.4byte	0xf35
 2767 0cf9 02       		.byte	0x2
 2768 0cfa 23       		.byte	0x23
 2769 0cfb 24       		.uleb128 0x24
 2770 0cfc 10       		.uleb128 0x10
 2771 0cfd 02100000 		.4byte	.LASF178
 2772 0d01 0C       		.byte	0xc
 2773 0d02 F8       		.byte	0xf8
 2774 0d03 4B0F0000 		.4byte	0xf4b
 2775 0d07 02       		.byte	0x2
 2776 0d08 23       		.byte	0x23
 2777 0d09 28       		.uleb128 0x28
 2778 0d0a 18       		.uleb128 0x18
 2779 0d0b A2110000 		.4byte	.LASF179
 2780 0d0f 0C       		.byte	0xc
 2781 0d10 0301     		.2byte	0x103
 2782 0d12 660F0000 		.4byte	0xf66
 2783 0d16 02       		.byte	0x2
ARM GAS  C:\Users\EBANO_~1\AppData\Local\Temp\ccOSDu2a.s 			page 69


 2784 0d17 23       		.byte	0x23
 2785 0d18 2C       		.uleb128 0x2c
 2786 0d19 18       		.uleb128 0x18
 2787 0d1a 4C1A0000 		.4byte	.LASF180
 2788 0d1e 0C       		.byte	0xc
 2789 0d1f 0B01     		.2byte	0x10b
 2790 0d21 7D0F0000 		.4byte	0xf7d
 2791 0d25 02       		.byte	0x2
 2792 0d26 23       		.byte	0x23
 2793 0d27 30       		.uleb128 0x30
 2794 0d28 18       		.uleb128 0x18
 2795 0d29 6C0B0000 		.4byte	.LASF181
 2796 0d2d 0C       		.byte	0xc
 2797 0d2e 0F01     		.2byte	0x10f
 2798 0d30 E8030000 		.4byte	0x3e8
 2799 0d34 02       		.byte	0x2
 2800 0d35 23       		.byte	0x23
 2801 0d36 34       		.uleb128 0x34
 2802 0d37 18       		.uleb128 0x18
 2803 0d38 F0030000 		.4byte	.LASF182
 2804 0d3c 0C       		.byte	0xc
 2805 0d3d 1301     		.2byte	0x113
 2806 0d3f E8030000 		.4byte	0x3e8
 2807 0d43 02       		.byte	0x2
 2808 0d44 23       		.byte	0x23
 2809 0d45 38       		.uleb128 0x38
 2810 0d46 22       		.uleb128 0x22
 2811 0d47 527800   		.ascii	"Rx\000"
 2812 0d4a 0C       		.byte	0xc
 2813 0d4b 1901     		.2byte	0x119
 2814 0d4d 630E0000 		.4byte	0xe63
 2815 0d51 02       		.byte	0x2
 2816 0d52 23       		.byte	0x23
 2817 0d53 3C       		.uleb128 0x3c
 2818 0d54 18       		.uleb128 0x18
 2819 0d55 90080000 		.4byte	.LASF183
 2820 0d59 0C       		.byte	0xc
 2821 0d5a 1D01     		.2byte	0x11d
 2822 0d5c E8030000 		.4byte	0x3e8
 2823 0d60 02       		.byte	0x2
 2824 0d61 23       		.byte	0x23
 2825 0d62 40       		.uleb128 0x40
 2826 0d63 18       		.uleb128 0x18
 2827 0d64 70130000 		.4byte	.LASF184
 2828 0d68 0C       		.byte	0xc
 2829 0d69 2501     		.2byte	0x125
 2830 0d6b 990F0000 		.4byte	0xf99
 2831 0d6f 02       		.byte	0x2
 2832 0d70 23       		.byte	0x23
 2833 0d71 44       		.uleb128 0x44
 2834 0d72 18       		.uleb128 0x18
 2835 0d73 D7180000 		.4byte	.LASF185
 2836 0d77 0C       		.byte	0xc
 2837 0d78 2B01     		.2byte	0x12b
 2838 0d7a AF0F0000 		.4byte	0xfaf
 2839 0d7e 02       		.byte	0x2
 2840 0d7f 23       		.byte	0x23
ARM GAS  C:\Users\EBANO_~1\AppData\Local\Temp\ccOSDu2a.s 			page 70


 2841 0d80 48       		.uleb128 0x48
 2842 0d81 18       		.uleb128 0x18
 2843 0d82 03040000 		.4byte	.LASF186
 2844 0d86 0C       		.byte	0xc
 2845 0d87 3201     		.2byte	0x132
 2846 0d89 C60F0000 		.4byte	0xfc6
 2847 0d8d 02       		.byte	0x2
 2848 0d8e 23       		.byte	0x23
 2849 0d8f 4C       		.uleb128 0x4c
 2850 0d90 18       		.uleb128 0x18
 2851 0d91 3A040000 		.4byte	.LASF187
 2852 0d95 0C       		.byte	0xc
 2853 0d96 3901     		.2byte	0x139
 2854 0d98 DC0F0000 		.4byte	0xfdc
 2855 0d9c 02       		.byte	0x2
 2856 0d9d 23       		.byte	0x23
 2857 0d9e 50       		.uleb128 0x50
 2858 0d9f 18       		.uleb128 0x18
 2859 0da0 01010000 		.4byte	.LASF188
 2860 0da4 0C       		.byte	0xc
 2861 0da5 4101     		.2byte	0x141
 2862 0da7 F80F0000 		.4byte	0xff8
 2863 0dab 02       		.byte	0x2
 2864 0dac 23       		.byte	0x23
 2865 0dad 54       		.uleb128 0x54
 2866 0dae 18       		.uleb128 0x18
 2867 0daf 1E010000 		.4byte	.LASF189
 2868 0db3 0C       		.byte	0xc
 2869 0db4 4901     		.2byte	0x149
 2870 0db6 F80F0000 		.4byte	0xff8
 2871 0dba 02       		.byte	0x2
 2872 0dbb 23       		.byte	0x23
 2873 0dbc 58       		.uleb128 0x58
 2874 0dbd 18       		.uleb128 0x18
 2875 0dbe 6C030000 		.4byte	.LASF190
 2876 0dc2 0C       		.byte	0xc
 2877 0dc3 5001     		.2byte	0x150
 2878 0dc5 0F100000 		.4byte	0x100f
 2879 0dc9 02       		.byte	0x2
 2880 0dca 23       		.byte	0x23
 2881 0dcb 5C       		.uleb128 0x5c
 2882 0dcc 18       		.uleb128 0x18
 2883 0dcd 22140000 		.4byte	.LASF191
 2884 0dd1 0C       		.byte	0xc
 2885 0dd2 5801     		.2byte	0x158
 2886 0dd4 530C0000 		.4byte	0xc53
 2887 0dd8 02       		.byte	0x2
 2888 0dd9 23       		.byte	0x23
 2889 0dda 60       		.uleb128 0x60
 2890 0ddb 18       		.uleb128 0x18
 2891 0ddc 521C0000 		.4byte	.LASF192
 2892 0de0 0C       		.byte	0xc
 2893 0de1 5E01     		.2byte	0x15e
 2894 0de3 940E0000 		.4byte	0xe94
 2895 0de7 02       		.byte	0x2
 2896 0de8 23       		.byte	0x23
 2897 0de9 64       		.uleb128 0x64
ARM GAS  C:\Users\EBANO_~1\AppData\Local\Temp\ccOSDu2a.s 			page 71


 2898 0dea 18       		.uleb128 0x18
 2899 0deb 7C140000 		.4byte	.LASF193
 2900 0def 0C       		.byte	0xc
 2901 0df0 6201     		.2byte	0x162
 2902 0df2 E8030000 		.4byte	0x3e8
 2903 0df6 02       		.byte	0x2
 2904 0df7 23       		.byte	0x23
 2905 0df8 68       		.uleb128 0x68
 2906 0df9 18       		.uleb128 0x18
 2907 0dfa C4040000 		.4byte	.LASF194
 2908 0dfe 0C       		.byte	0xc
 2909 0dff 6E01     		.2byte	0x16e
 2910 0e01 630E0000 		.4byte	0xe63
 2911 0e05 02       		.byte	0x2
 2912 0e06 23       		.byte	0x23
 2913 0e07 6C       		.uleb128 0x6c
 2914 0e08 18       		.uleb128 0x18
 2915 0e09 F70A0000 		.4byte	.LASF195
 2916 0e0d 0C       		.byte	0xc
 2917 0e0e 7701     		.2byte	0x177
 2918 0e10 26100000 		.4byte	0x1026
 2919 0e14 02       		.byte	0x2
 2920 0e15 23       		.byte	0x23
 2921 0e16 70       		.uleb128 0x70
 2922 0e17 00       		.byte	0
 2923 0e18 05       		.uleb128 0x5
 2924 0e19 640C0000 		.4byte	0xc64
 2925 0e1d 15       		.uleb128 0x15
 2926 0e1e 01       		.byte	0x1
 2927 0e1f ED000000 		.4byte	0xed
 2928 0e23 2D0E0000 		.4byte	0xe2d
 2929 0e27 16       		.uleb128 0x16
 2930 0e28 2D0E0000 		.4byte	0xe2d
 2931 0e2c 00       		.byte	0
 2932 0e2d 0A       		.uleb128 0xa
 2933 0e2e 04       		.byte	0x4
 2934 0e2f 590C0000 		.4byte	0xc59
 2935 0e33 0A       		.uleb128 0xa
 2936 0e34 04       		.byte	0x4
 2937 0e35 1D0E0000 		.4byte	0xe1d
 2938 0e39 23       		.uleb128 0x23
 2939 0e3a 01       		.byte	0x1
 2940 0e3b 9E0B0000 		.4byte	0xb9e
 2941 0e3f 0A       		.uleb128 0xa
 2942 0e40 04       		.byte	0x4
 2943 0e41 390E0000 		.4byte	0xe39
 2944 0e45 1D       		.uleb128 0x1d
 2945 0e46 01       		.byte	0x1
 2946 0e47 510E0000 		.4byte	0xe51
 2947 0e4b 16       		.uleb128 0x16
 2948 0e4c 6D0B0000 		.4byte	0xb6d
 2949 0e50 00       		.byte	0
 2950 0e51 0A       		.uleb128 0xa
 2951 0e52 04       		.byte	0x4
 2952 0e53 450E0000 		.4byte	0xe45
 2953 0e57 1D       		.uleb128 0x1d
 2954 0e58 01       		.byte	0x1
ARM GAS  C:\Users\EBANO_~1\AppData\Local\Temp\ccOSDu2a.s 			page 72


 2955 0e59 630E0000 		.4byte	0xe63
 2956 0e5d 16       		.uleb128 0x16
 2957 0e5e ED000000 		.4byte	0xed
 2958 0e62 00       		.byte	0
 2959 0e63 0A       		.uleb128 0xa
 2960 0e64 04       		.byte	0x4
 2961 0e65 570E0000 		.4byte	0xe57
 2962 0e69 15       		.uleb128 0x15
 2963 0e6a 01       		.byte	0x1
 2964 0e6b 150B0000 		.4byte	0xb15
 2965 0e6f 880E0000 		.4byte	0xe88
 2966 0e73 16       		.uleb128 0x16
 2967 0e74 6D0B0000 		.4byte	0xb6d
 2968 0e78 16       		.uleb128 0x16
 2969 0e79 ED000000 		.4byte	0xed
 2970 0e7d 16       		.uleb128 0x16
 2971 0e7e CC000000 		.4byte	0xcc
 2972 0e82 16       		.uleb128 0x16
 2973 0e83 ED000000 		.4byte	0xed
 2974 0e87 00       		.byte	0
 2975 0e88 0A       		.uleb128 0xa
 2976 0e89 04       		.byte	0x4
 2977 0e8a 690E0000 		.4byte	0xe69
 2978 0e8e 23       		.uleb128 0x23
 2979 0e8f 01       		.byte	0x1
 2980 0e90 ED000000 		.4byte	0xed
 2981 0e94 0A       		.uleb128 0xa
 2982 0e95 04       		.byte	0x4
 2983 0e96 8E0E0000 		.4byte	0xe8e
 2984 0e9a 1D       		.uleb128 0x1d
 2985 0e9b 01       		.byte	0x1
 2986 0e9c E70E0000 		.4byte	0xee7
 2987 0ea0 16       		.uleb128 0x16
 2988 0ea1 6D0B0000 		.4byte	0xb6d
 2989 0ea5 16       		.uleb128 0x16
 2990 0ea6 ED000000 		.4byte	0xed
 2991 0eaa 16       		.uleb128 0x16
 2992 0eab ED000000 		.4byte	0xed
 2993 0eaf 16       		.uleb128 0x16
 2994 0eb0 BC000000 		.4byte	0xbc
 2995 0eb4 16       		.uleb128 0x16
 2996 0eb5 ED000000 		.4byte	0xed
 2997 0eb9 16       		.uleb128 0x16
 2998 0eba D7000000 		.4byte	0xd7
 2999 0ebe 16       		.uleb128 0x16
 3000 0ebf D7000000 		.4byte	0xd7
 3001 0ec3 16       		.uleb128 0x16
 3002 0ec4 150B0000 		.4byte	0xb15
 3003 0ec8 16       		.uleb128 0x16
 3004 0ec9 BC000000 		.4byte	0xbc
 3005 0ecd 16       		.uleb128 0x16
 3006 0ece 150B0000 		.4byte	0xb15
 3007 0ed2 16       		.uleb128 0x16
 3008 0ed3 150B0000 		.4byte	0xb15
 3009 0ed7 16       		.uleb128 0x16
 3010 0ed8 BC000000 		.4byte	0xbc
 3011 0edc 16       		.uleb128 0x16
ARM GAS  C:\Users\EBANO_~1\AppData\Local\Temp\ccOSDu2a.s 			page 73


 3012 0edd 150B0000 		.4byte	0xb15
 3013 0ee1 16       		.uleb128 0x16
 3014 0ee2 150B0000 		.4byte	0xb15
 3015 0ee6 00       		.byte	0
 3016 0ee7 0A       		.uleb128 0xa
 3017 0ee8 04       		.byte	0x4
 3018 0ee9 9A0E0000 		.4byte	0xe9a
 3019 0eed 1D       		.uleb128 0x1d
 3020 0eee 01       		.byte	0x1
 3021 0eef 350F0000 		.4byte	0xf35
 3022 0ef3 16       		.uleb128 0x16
 3023 0ef4 6D0B0000 		.4byte	0xb6d
 3024 0ef8 16       		.uleb128 0x16
 3025 0ef9 B1000000 		.4byte	0xb1
 3026 0efd 16       		.uleb128 0x16
 3027 0efe ED000000 		.4byte	0xed
 3028 0f02 16       		.uleb128 0x16
 3029 0f03 ED000000 		.4byte	0xed
 3030 0f07 16       		.uleb128 0x16
 3031 0f08 ED000000 		.4byte	0xed
 3032 0f0c 16       		.uleb128 0x16
 3033 0f0d BC000000 		.4byte	0xbc
 3034 0f11 16       		.uleb128 0x16
 3035 0f12 D7000000 		.4byte	0xd7
 3036 0f16 16       		.uleb128 0x16
 3037 0f17 150B0000 		.4byte	0xb15
 3038 0f1b 16       		.uleb128 0x16
 3039 0f1c 150B0000 		.4byte	0xb15
 3040 0f20 16       		.uleb128 0x16
 3041 0f21 150B0000 		.4byte	0xb15
 3042 0f25 16       		.uleb128 0x16
 3043 0f26 BC000000 		.4byte	0xbc
 3044 0f2a 16       		.uleb128 0x16
 3045 0f2b 150B0000 		.4byte	0xb15
 3046 0f2f 16       		.uleb128 0x16
 3047 0f30 ED000000 		.4byte	0xed
 3048 0f34 00       		.byte	0
 3049 0f35 0A       		.uleb128 0xa
 3050 0f36 04       		.byte	0x4
 3051 0f37 ED0E0000 		.4byte	0xeed
 3052 0f3b 15       		.uleb128 0x15
 3053 0f3c 01       		.byte	0x1
 3054 0f3d 150B0000 		.4byte	0xb15
 3055 0f41 4B0F0000 		.4byte	0xf4b
 3056 0f45 16       		.uleb128 0x16
 3057 0f46 ED000000 		.4byte	0xed
 3058 0f4a 00       		.byte	0
 3059 0f4b 0A       		.uleb128 0xa
 3060 0f4c 04       		.byte	0x4
 3061 0f4d 3B0F0000 		.4byte	0xf3b
 3062 0f51 15       		.uleb128 0x15
 3063 0f52 01       		.byte	0x1
 3064 0f53 ED000000 		.4byte	0xed
 3065 0f57 660F0000 		.4byte	0xf66
 3066 0f5b 16       		.uleb128 0x16
 3067 0f5c 6D0B0000 		.4byte	0xb6d
 3068 0f60 16       		.uleb128 0x16
ARM GAS  C:\Users\EBANO_~1\AppData\Local\Temp\ccOSDu2a.s 			page 74


 3069 0f61 BC000000 		.4byte	0xbc
 3070 0f65 00       		.byte	0
 3071 0f66 0A       		.uleb128 0xa
 3072 0f67 04       		.byte	0x4
 3073 0f68 510F0000 		.4byte	0xf51
 3074 0f6c 1D       		.uleb128 0x1d
 3075 0f6d 01       		.byte	0x1
 3076 0f6e 7D0F0000 		.4byte	0xf7d
 3077 0f72 16       		.uleb128 0x16
 3078 0f73 840A0000 		.4byte	0xa84
 3079 0f77 16       		.uleb128 0x16
 3080 0f78 BC000000 		.4byte	0xbc
 3081 0f7c 00       		.byte	0
 3082 0f7d 0A       		.uleb128 0xa
 3083 0f7e 04       		.byte	0x4
 3084 0f7f 6C0F0000 		.4byte	0xf6c
 3085 0f83 1D       		.uleb128 0x1d
 3086 0f84 01       		.byte	0x1
 3087 0f85 990F0000 		.4byte	0xf99
 3088 0f89 16       		.uleb128 0x16
 3089 0f8a ED000000 		.4byte	0xed
 3090 0f8e 16       		.uleb128 0x16
 3091 0f8f B1000000 		.4byte	0xb1
 3092 0f93 16       		.uleb128 0x16
 3093 0f94 D7000000 		.4byte	0xd7
 3094 0f98 00       		.byte	0
 3095 0f99 0A       		.uleb128 0xa
 3096 0f9a 04       		.byte	0x4
 3097 0f9b 830F0000 		.4byte	0xf83
 3098 0f9f 15       		.uleb128 0x15
 3099 0fa0 01       		.byte	0x1
 3100 0fa1 CC000000 		.4byte	0xcc
 3101 0fa5 AF0F0000 		.4byte	0xfaf
 3102 0fa9 16       		.uleb128 0x16
 3103 0faa 6D0B0000 		.4byte	0xb6d
 3104 0fae 00       		.byte	0
 3105 0faf 0A       		.uleb128 0xa
 3106 0fb0 04       		.byte	0x4
 3107 0fb1 9F0F0000 		.4byte	0xf9f
 3108 0fb5 1D       		.uleb128 0x1d
 3109 0fb6 01       		.byte	0x1
 3110 0fb7 C60F0000 		.4byte	0xfc6
 3111 0fbb 16       		.uleb128 0x16
 3112 0fbc D7000000 		.4byte	0xd7
 3113 0fc0 16       		.uleb128 0x16
 3114 0fc1 BC000000 		.4byte	0xbc
 3115 0fc5 00       		.byte	0
 3116 0fc6 0A       		.uleb128 0xa
 3117 0fc7 04       		.byte	0x4
 3118 0fc8 B50F0000 		.4byte	0xfb5
 3119 0fcc 15       		.uleb128 0x15
 3120 0fcd 01       		.byte	0x1
 3121 0fce BC000000 		.4byte	0xbc
 3122 0fd2 DC0F0000 		.4byte	0xfdc
 3123 0fd6 16       		.uleb128 0x16
 3124 0fd7 D7000000 		.4byte	0xd7
 3125 0fdb 00       		.byte	0
ARM GAS  C:\Users\EBANO_~1\AppData\Local\Temp\ccOSDu2a.s 			page 75


 3126 0fdc 0A       		.uleb128 0xa
 3127 0fdd 04       		.byte	0x4
 3128 0fde CC0F0000 		.4byte	0xfcc
 3129 0fe2 1D       		.uleb128 0x1d
 3130 0fe3 01       		.byte	0x1
 3131 0fe4 F80F0000 		.4byte	0xff8
 3132 0fe8 16       		.uleb128 0x16
 3133 0fe9 D7000000 		.4byte	0xd7
 3134 0fed 16       		.uleb128 0x16
 3135 0fee 840A0000 		.4byte	0xa84
 3136 0ff2 16       		.uleb128 0x16
 3137 0ff3 BC000000 		.4byte	0xbc
 3138 0ff7 00       		.byte	0
 3139 0ff8 0A       		.uleb128 0xa
 3140 0ff9 04       		.byte	0x4
 3141 0ffa E20F0000 		.4byte	0xfe2
 3142 0ffe 1D       		.uleb128 0x1d
 3143 0fff 01       		.byte	0x1
 3144 1000 0F100000 		.4byte	0x100f
 3145 1004 16       		.uleb128 0x16
 3146 1005 6D0B0000 		.4byte	0xb6d
 3147 1009 16       		.uleb128 0x16
 3148 100a BC000000 		.4byte	0xbc
 3149 100e 00       		.byte	0
 3150 100f 0A       		.uleb128 0xa
 3151 1010 04       		.byte	0x4
 3152 1011 FE0F0000 		.4byte	0xffe
 3153 1015 1D       		.uleb128 0x1d
 3154 1016 01       		.byte	0x1
 3155 1017 26100000 		.4byte	0x1026
 3156 101b 16       		.uleb128 0x16
 3157 101c ED000000 		.4byte	0xed
 3158 1020 16       		.uleb128 0x16
 3159 1021 ED000000 		.4byte	0xed
 3160 1025 00       		.byte	0
 3161 1026 0A       		.uleb128 0xa
 3162 1027 04       		.byte	0x4
 3163 1028 15100000 		.4byte	0x1015
 3164 102c 1E       		.uleb128 0x1e
 3165 102d D8070000 		.4byte	.LASF196
 3166 1031 0C       		.byte	0xc
 3167 1032 8001     		.2byte	0x180
 3168 1034 180E0000 		.4byte	0xe18
 3169 1038 01       		.byte	0x1
 3170 1039 01       		.byte	0x1
 3171 103a 11       		.uleb128 0x11
 3172 103b 4A1C0000 		.4byte	.LASF197
 3173 103f 01       		.byte	0x1
 3174 1040 0D       		.byte	0xd
 3175 1041 B4       		.byte	0xb4
 3176 1042 69100000 		.4byte	0x1069
 3177 1046 24       		.uleb128 0x24
 3178 1047 4D696E00 		.ascii	"Min\000"
 3179 104b 0D       		.byte	0xd
 3180 104c BD       		.byte	0xbd
 3181 104d B1000000 		.4byte	0xb1
 3182 1051 01       		.byte	0x1
ARM GAS  C:\Users\EBANO_~1\AppData\Local\Temp\ccOSDu2a.s 			page 76


 3183 1052 04       		.byte	0x4
 3184 1053 04       		.byte	0x4
 3185 1054 02       		.byte	0x2
 3186 1055 23       		.byte	0x23
 3187 1056 00       		.uleb128 0
 3188 1057 24       		.uleb128 0x24
 3189 1058 4D617800 		.ascii	"Max\000"
 3190 105c 0D       		.byte	0xd
 3191 105d C5       		.byte	0xc5
 3192 105e B1000000 		.4byte	0xb1
 3193 1062 01       		.byte	0x1
 3194 1063 04       		.byte	0x4
 3195 1064 00       		.byte	0
 3196 1065 02       		.byte	0x2
 3197 1066 23       		.byte	0x23
 3198 1067 00       		.uleb128 0
 3199 1068 00       		.byte	0
 3200 1069 1F       		.uleb128 0x1f
 3201 106a AA070000 		.4byte	.LASF199
 3202 106e 01       		.byte	0x1
 3203 106f 0D       		.byte	0xd
 3204 1070 AB       		.byte	0xab
 3205 1071 8C100000 		.4byte	0x108c
 3206 1075 0E       		.uleb128 0xe
 3207 1076 AF1D0000 		.4byte	.LASF145
 3208 107a 0D       		.byte	0xd
 3209 107b B0       		.byte	0xb0
 3210 107c B1000000 		.4byte	0xb1
 3211 1080 0E       		.uleb128 0xe
 3212 1081 D60F0000 		.4byte	.LASF144
 3213 1085 0D       		.byte	0xd
 3214 1086 C6       		.byte	0xc6
 3215 1087 3A100000 		.4byte	0x103a
 3216 108b 00       		.byte	0
 3217 108c 02       		.uleb128 0x2
 3218 108d 4A060000 		.4byte	.LASF200
 3219 1091 0D       		.byte	0xd
 3220 1092 C7       		.byte	0xc7
 3221 1093 69100000 		.4byte	0x1069
 3222 1097 11       		.uleb128 0x11
 3223 1098 F5160000 		.4byte	.LASF201
 3224 109c 0C       		.byte	0xc
 3225 109d 0D       		.byte	0xd
 3226 109e CC       		.byte	0xcc
 3227 109f DC100000 		.4byte	0x10dc
 3228 10a3 10       		.uleb128 0x10
 3229 10a4 AD190000 		.4byte	.LASF202
 3230 10a8 0D       		.byte	0xd
 3231 10a9 D1       		.byte	0xd1
 3232 10aa ED000000 		.4byte	0xed
 3233 10ae 02       		.byte	0x2
 3234 10af 23       		.byte	0x23
 3235 10b0 00       		.uleb128 0
 3236 10b1 10       		.uleb128 0x10
 3237 10b2 49100000 		.4byte	.LASF203
 3238 10b6 0D       		.byte	0xd
 3239 10b7 D5       		.byte	0xd5
ARM GAS  C:\Users\EBANO_~1\AppData\Local\Temp\ccOSDu2a.s 			page 77


 3240 10b8 ED000000 		.4byte	0xed
 3241 10bc 02       		.byte	0x2
 3242 10bd 23       		.byte	0x23
 3243 10be 04       		.uleb128 0x4
 3244 10bf 10       		.uleb128 0x10
 3245 10c0 7E040000 		.4byte	.LASF204
 3246 10c4 0D       		.byte	0xd
 3247 10c5 D9       		.byte	0xd9
 3248 10c6 8C100000 		.4byte	0x108c
 3249 10ca 02       		.byte	0x2
 3250 10cb 23       		.byte	0x23
 3251 10cc 08       		.uleb128 0x8
 3252 10cd 10       		.uleb128 0x10
 3253 10ce B3070000 		.4byte	.LASF205
 3254 10d2 0D       		.byte	0xd
 3255 10d3 DD       		.byte	0xdd
 3256 10d4 BC000000 		.4byte	0xbc
 3257 10d8 02       		.byte	0x2
 3258 10d9 23       		.byte	0x23
 3259 10da 09       		.uleb128 0x9
 3260 10db 00       		.byte	0
 3261 10dc 02       		.uleb128 0x2
 3262 10dd 500E0000 		.4byte	.LASF206
 3263 10e1 0D       		.byte	0xd
 3264 10e2 DE       		.byte	0xde
 3265 10e3 97100000 		.4byte	0x1097
 3266 10e7 25       		.uleb128 0x25
 3267 10e8 8B0A0000 		.4byte	.LASF214
 3268 10ec 07       		.byte	0x7
 3269 10ed 01       		.byte	0x1
 3270 10ee 46000000 		.4byte	0x46
 3271 10f2 0D       		.byte	0xd
 3272 10f3 F6       		.byte	0xf6
 3273 10f4 17110000 		.4byte	0x1117
 3274 10f8 21       		.uleb128 0x21
 3275 10f9 AD160000 		.4byte	.LASF207
 3276 10fd 00       		.byte	0
 3277 10fe 21       		.uleb128 0x21
 3278 10ff BB160000 		.4byte	.LASF208
 3279 1103 01       		.byte	0x1
 3280 1104 21       		.uleb128 0x21
 3281 1105 1B000000 		.4byte	.LASF209
 3282 1109 02       		.byte	0x2
 3283 110a 21       		.uleb128 0x21
 3284 110b E91C0000 		.4byte	.LASF210
 3285 110f 03       		.byte	0x3
 3286 1110 21       		.uleb128 0x21
 3287 1111 DC0A0000 		.4byte	.LASF211
 3288 1115 04       		.byte	0x4
 3289 1116 00       		.byte	0
 3290 1117 0C       		.uleb128 0xc
 3291 1118 960D0000 		.4byte	.LASF212
 3292 111c 0D       		.byte	0xd
 3293 111d 0C01     		.2byte	0x10c
 3294 111f E7100000 		.4byte	0x10e7
 3295 1123 03       		.uleb128 0x3
 3296 1124 04       		.byte	0x4
ARM GAS  C:\Users\EBANO_~1\AppData\Local\Temp\ccOSDu2a.s 			page 78


 3297 1125 04       		.byte	0x4
 3298 1126 54060000 		.4byte	.LASF213
 3299 112a 0A       		.uleb128 0xa
 3300 112b 04       		.byte	0x4
 3301 112c DC100000 		.4byte	0x10dc
 3302 1130 0A       		.uleb128 0xa
 3303 1131 04       		.byte	0x4
 3304 1132 D7000000 		.4byte	0xd7
 3305 1136 26       		.uleb128 0x26
 3306 1137 8A030000 		.4byte	.LASF215
 3307 113b 07       		.byte	0x7
 3308 113c 01       		.byte	0x1
 3309 113d 46000000 		.4byte	0x46
 3310 1141 0D       		.byte	0xd
 3311 1142 2508     		.2byte	0x825
 3312 1144 D3110000 		.4byte	0x11d3
 3313 1148 21       		.uleb128 0x21
 3314 1149 53150000 		.4byte	.LASF216
 3315 114d 00       		.byte	0
 3316 114e 21       		.uleb128 0x21
 3317 114f 600E0000 		.4byte	.LASF217
 3318 1153 01       		.byte	0x1
 3319 1154 21       		.uleb128 0x21
 3320 1155 B51D0000 		.4byte	.LASF218
 3321 1159 02       		.byte	0x2
 3322 115a 21       		.uleb128 0x21
 3323 115b 62070000 		.4byte	.LASF219
 3324 115f 03       		.byte	0x3
 3325 1160 21       		.uleb128 0x21
 3326 1161 AC140000 		.4byte	.LASF220
 3327 1165 04       		.byte	0x4
 3328 1166 21       		.uleb128 0x21
 3329 1167 CF1B0000 		.4byte	.LASF221
 3330 116b 05       		.byte	0x5
 3331 116c 21       		.uleb128 0x21
 3332 116d 311B0000 		.4byte	.LASF222
 3333 1171 06       		.byte	0x6
 3334 1172 21       		.uleb128 0x21
 3335 1173 47010000 		.4byte	.LASF223
 3336 1177 07       		.byte	0x7
 3337 1178 21       		.uleb128 0x21
 3338 1179 F1050000 		.4byte	.LASF224
 3339 117d 08       		.byte	0x8
 3340 117e 21       		.uleb128 0x21
 3341 117f 720D0000 		.4byte	.LASF225
 3342 1183 09       		.byte	0x9
 3343 1184 21       		.uleb128 0x21
 3344 1185 E51D0000 		.4byte	.LASF226
 3345 1189 0A       		.byte	0xa
 3346 118a 21       		.uleb128 0x21
 3347 118b BD030000 		.4byte	.LASF227
 3348 118f 0B       		.byte	0xb
 3349 1190 21       		.uleb128 0x21
 3350 1191 B7170000 		.4byte	.LASF228
 3351 1195 0C       		.byte	0xc
 3352 1196 21       		.uleb128 0x21
 3353 1197 5E0F0000 		.4byte	.LASF229
ARM GAS  C:\Users\EBANO_~1\AppData\Local\Temp\ccOSDu2a.s 			page 79


 3354 119b 0D       		.byte	0xd
 3355 119c 21       		.uleb128 0x21
 3356 119d A90E0000 		.4byte	.LASF230
 3357 11a1 0E       		.byte	0xe
 3358 11a2 21       		.uleb128 0x21
 3359 11a3 0D1D0000 		.4byte	.LASF231
 3360 11a7 0F       		.byte	0xf
 3361 11a8 21       		.uleb128 0x21
 3362 11a9 7C1A0000 		.4byte	.LASF232
 3363 11ad 10       		.byte	0x10
 3364 11ae 21       		.uleb128 0x21
 3365 11af C4020000 		.4byte	.LASF233
 3366 11b3 11       		.byte	0x11
 3367 11b4 21       		.uleb128 0x21
 3368 11b5 E5080000 		.4byte	.LASF234
 3369 11b9 12       		.byte	0x12
 3370 11ba 21       		.uleb128 0x21
 3371 11bb 9A0B0000 		.4byte	.LASF235
 3372 11bf 13       		.byte	0x13
 3373 11c0 21       		.uleb128 0x21
 3374 11c1 541B0000 		.4byte	.LASF236
 3375 11c5 14       		.byte	0x14
 3376 11c6 21       		.uleb128 0x21
 3377 11c7 60190000 		.4byte	.LASF237
 3378 11cb 15       		.byte	0x15
 3379 11cc 21       		.uleb128 0x21
 3380 11cd CA0D0000 		.4byte	.LASF238
 3381 11d1 16       		.byte	0x16
 3382 11d2 00       		.byte	0
 3383 11d3 0C       		.uleb128 0xc
 3384 11d4 D91A0000 		.4byte	.LASF239
 3385 11d8 0D       		.byte	0xd
 3386 11d9 8508     		.2byte	0x885
 3387 11db 36110000 		.4byte	0x1136
 3388 11df 26       		.uleb128 0x26
 3389 11e0 21110000 		.4byte	.LASF240
 3390 11e4 07       		.byte	0x7
 3391 11e5 01       		.byte	0x1
 3392 11e6 46000000 		.4byte	0x46
 3393 11ea 0D       		.byte	0xd
 3394 11eb 8A08     		.2byte	0x88a
 3395 11ed 2E120000 		.4byte	0x122e
 3396 11f1 21       		.uleb128 0x21
 3397 11f2 6A120000 		.4byte	.LASF241
 3398 11f6 00       		.byte	0
 3399 11f7 21       		.uleb128 0x21
 3400 11f8 D2100000 		.4byte	.LASF242
 3401 11fc 01       		.byte	0x1
 3402 11fd 21       		.uleb128 0x21
 3403 11fe 470C0000 		.4byte	.LASF243
 3404 1202 02       		.byte	0x2
 3405 1203 21       		.uleb128 0x21
 3406 1204 2F150000 		.4byte	.LASF244
 3407 1208 03       		.byte	0x3
 3408 1209 21       		.uleb128 0x21
 3409 120a E8090000 		.4byte	.LASF245
 3410 120e 04       		.byte	0x4
ARM GAS  C:\Users\EBANO_~1\AppData\Local\Temp\ccOSDu2a.s 			page 80


 3411 120f 21       		.uleb128 0x21
 3412 1210 92170000 		.4byte	.LASF246
 3413 1214 05       		.byte	0x5
 3414 1215 21       		.uleb128 0x21
 3415 1216 5A060000 		.4byte	.LASF247
 3416 121a 06       		.byte	0x6
 3417 121b 21       		.uleb128 0x21
 3418 121c D8130000 		.4byte	.LASF248
 3419 1220 07       		.byte	0x7
 3420 1221 21       		.uleb128 0x21
 3421 1222 35190000 		.4byte	.LASF249
 3422 1226 08       		.byte	0x8
 3423 1227 21       		.uleb128 0x21
 3424 1228 B7190000 		.4byte	.LASF250
 3425 122c 09       		.byte	0x9
 3426 122d 00       		.byte	0
 3427 122e 0C       		.uleb128 0xc
 3428 122f D8040000 		.4byte	.LASF251
 3429 1233 0D       		.byte	0xd
 3430 1234 B408     		.2byte	0x8b4
 3431 1236 DF110000 		.4byte	0x11df
 3432 123a 27       		.uleb128 0x27
 3433 123b 7F1C0000 		.4byte	.LASF416
 3434 123f 0D       		.byte	0xd
 3435 1240 2509     		.2byte	0x925
 3436 1242 1A010000 		.4byte	0x11a
 3437 1246 10       		.byte	0x10
 3438 1247 08       		.byte	0x8
 3439 1248 0A       		.byte	0xa
 3440 1249 0C       		.byte	0xc
 3441 124a 0D       		.byte	0xd
 3442 124b 0E       		.byte	0xe
 3443 124c 10       		.byte	0x10
 3444 124d 12       		.byte	0x12
 3445 124e 14       		.byte	0x14
 3446 124f 15       		.byte	0x15
 3447 1250 18       		.byte	0x18
 3448 1251 1A       		.byte	0x1a
 3449 1252 1B       		.byte	0x1b
 3450 1253 1D       		.byte	0x1d
 3451 1254 1E       		.byte	0x1e
 3452 1255 21       		.byte	0x21
 3453 1256 24       		.byte	0x24
 3454 1257 26       		.uleb128 0x26
 3455 1258 16070000 		.4byte	.LASF252
 3456 125c 07       		.byte	0x7
 3457 125d 01       		.byte	0x1
 3458 125e 46000000 		.4byte	0x46
 3459 1262 0E       		.byte	0xe
 3460 1263 1202     		.2byte	0x212
 3461 1265 A8130000 		.4byte	0x13a8
 3462 1269 21       		.uleb128 0x21
 3463 126a 2B090000 		.4byte	.LASF253
 3464 126e 00       		.byte	0
 3465 126f 21       		.uleb128 0x21
 3466 1270 600A0000 		.4byte	.LASF254
 3467 1274 01       		.byte	0x1
ARM GAS  C:\Users\EBANO_~1\AppData\Local\Temp\ccOSDu2a.s 			page 81


 3468 1275 21       		.uleb128 0x21
 3469 1276 C9180000 		.4byte	.LASF255
 3470 127a 02       		.byte	0x2
 3471 127b 21       		.uleb128 0x21
 3472 127c 2D0E0000 		.4byte	.LASF256
 3473 1280 03       		.byte	0x3
 3474 1281 21       		.uleb128 0x21
 3475 1282 9A180000 		.4byte	.LASF257
 3476 1286 04       		.byte	0x4
 3477 1287 21       		.uleb128 0x21
 3478 1288 9E140000 		.4byte	.LASF258
 3479 128c 05       		.byte	0x5
 3480 128d 21       		.uleb128 0x21
 3481 128e 55040000 		.4byte	.LASF259
 3482 1292 06       		.byte	0x6
 3483 1293 21       		.uleb128 0x21
 3484 1294 360C0000 		.4byte	.LASF260
 3485 1298 07       		.byte	0x7
 3486 1299 21       		.uleb128 0x21
 3487 129a E2140000 		.4byte	.LASF261
 3488 129e 08       		.byte	0x8
 3489 129f 21       		.uleb128 0x21
 3490 12a0 65150000 		.4byte	.LASF262
 3491 12a4 09       		.byte	0x9
 3492 12a5 21       		.uleb128 0x21
 3493 12a6 25030000 		.4byte	.LASF263
 3494 12aa 0A       		.byte	0xa
 3495 12ab 21       		.uleb128 0x21
 3496 12ac EC0E0000 		.4byte	.LASF264
 3497 12b0 0B       		.byte	0xb
 3498 12b1 21       		.uleb128 0x21
 3499 12b2 500B0000 		.4byte	.LASF265
 3500 12b6 0C       		.byte	0xc
 3501 12b7 21       		.uleb128 0x21
 3502 12b8 04180000 		.4byte	.LASF266
 3503 12bc 0D       		.byte	0xd
 3504 12bd 21       		.uleb128 0x21
 3505 12be 00120000 		.4byte	.LASF267
 3506 12c2 0E       		.byte	0xe
 3507 12c3 21       		.uleb128 0x21
 3508 12c4 8B090000 		.4byte	.LASF268
 3509 12c8 0F       		.byte	0xf
 3510 12c9 21       		.uleb128 0x21
 3511 12ca 300D0000 		.4byte	.LASF269
 3512 12ce 10       		.byte	0x10
 3513 12cf 21       		.uleb128 0x21
 3514 12d0 430D0000 		.4byte	.LASF270
 3515 12d4 11       		.byte	0x11
 3516 12d5 21       		.uleb128 0x21
 3517 12d6 2F000000 		.4byte	.LASF271
 3518 12da 12       		.byte	0x12
 3519 12db 21       		.uleb128 0x21
 3520 12dc 46000000 		.4byte	.LASF272
 3521 12e0 13       		.byte	0x13
 3522 12e1 21       		.uleb128 0x21
 3523 12e2 F6150000 		.4byte	.LASF273
 3524 12e6 14       		.byte	0x14
ARM GAS  C:\Users\EBANO_~1\AppData\Local\Temp\ccOSDu2a.s 			page 82


 3525 12e7 21       		.uleb128 0x21
 3526 12e8 72170000 		.4byte	.LASF274
 3527 12ec 15       		.byte	0x15
 3528 12ed 21       		.uleb128 0x21
 3529 12ee 06050000 		.4byte	.LASF275
 3530 12f2 16       		.byte	0x16
 3531 12f3 21       		.uleb128 0x21
 3532 12f4 E2060000 		.4byte	.LASF276
 3533 12f8 17       		.byte	0x17
 3534 12f9 21       		.uleb128 0x21
 3535 12fa 1A0D0000 		.4byte	.LASF277
 3536 12fe 18       		.byte	0x18
 3537 12ff 21       		.uleb128 0x21
 3538 1300 95190000 		.4byte	.LASF278
 3539 1304 19       		.byte	0x19
 3540 1305 21       		.uleb128 0x21
 3541 1306 36050000 		.4byte	.LASF279
 3542 130a 1A       		.byte	0x1a
 3543 130b 21       		.uleb128 0x21
 3544 130c 9A130000 		.4byte	.LASF280
 3545 1310 1B       		.byte	0x1b
 3546 1311 21       		.uleb128 0x21
 3547 1312 101C0000 		.4byte	.LASF281
 3548 1316 1C       		.byte	0x1c
 3549 1317 21       		.uleb128 0x21
 3550 1318 C6150000 		.4byte	.LASF282
 3551 131c 1D       		.byte	0x1d
 3552 131d 21       		.uleb128 0x21
 3553 131e 8E0C0000 		.4byte	.LASF283
 3554 1322 1E       		.byte	0x1e
 3555 1323 21       		.uleb128 0x21
 3556 1324 4C160000 		.4byte	.LASF284
 3557 1328 1F       		.byte	0x1f
 3558 1329 21       		.uleb128 0x21
 3559 132a 38140000 		.4byte	.LASF285
 3560 132e 20       		.byte	0x20
 3561 132f 21       		.uleb128 0x21
 3562 1330 620C0000 		.4byte	.LASF286
 3563 1334 21       		.byte	0x21
 3564 1335 21       		.uleb128 0x21
 3565 1336 9B150000 		.4byte	.LASF287
 3566 133a 22       		.byte	0x22
 3567 133b 21       		.uleb128 0x21
 3568 133c 7D010000 		.4byte	.LASF288
 3569 1340 23       		.byte	0x23
 3570 1341 21       		.uleb128 0x21
 3571 1342 33020000 		.4byte	.LASF289
 3572 1346 24       		.byte	0x24
 3573 1347 21       		.uleb128 0x21
 3574 1348 81050000 		.4byte	.LASF290
 3575 134c 25       		.byte	0x25
 3576 134d 21       		.uleb128 0x21
 3577 134e DD0F0000 		.4byte	.LASF291
 3578 1352 26       		.byte	0x26
 3579 1353 21       		.uleb128 0x21
 3580 1354 000C0000 		.4byte	.LASF292
 3581 1358 27       		.byte	0x27
ARM GAS  C:\Users\EBANO_~1\AppData\Local\Temp\ccOSDu2a.s 			page 83


 3582 1359 21       		.uleb128 0x21
 3583 135a 6E0A0000 		.4byte	.LASF293
 3584 135e 28       		.byte	0x28
 3585 135f 21       		.uleb128 0x21
 3586 1360 B60C0000 		.4byte	.LASF294
 3587 1364 29       		.byte	0x29
 3588 1365 21       		.uleb128 0x21
 3589 1366 FD090000 		.4byte	.LASF295
 3590 136a 2A       		.byte	0x2a
 3591 136b 21       		.uleb128 0x21
 3592 136c 181E0000 		.4byte	.LASF296
 3593 1370 2B       		.byte	0x2b
 3594 1371 21       		.uleb128 0x21
 3595 1372 86040000 		.4byte	.LASF297
 3596 1376 2C       		.byte	0x2c
 3597 1377 21       		.uleb128 0x21
 3598 1378 A41B0000 		.4byte	.LASF298
 3599 137c 2D       		.byte	0x2d
 3600 137d 21       		.uleb128 0x21
 3601 137e 1D180000 		.4byte	.LASF299
 3602 1382 2E       		.byte	0x2e
 3603 1383 21       		.uleb128 0x21
 3604 1384 83150000 		.4byte	.LASF300
 3605 1388 2F       		.byte	0x2f
 3606 1389 21       		.uleb128 0x21
 3607 138a BB000000 		.4byte	.LASF301
 3608 138e 30       		.byte	0x30
 3609 138f 21       		.uleb128 0x21
 3610 1390 B00F0000 		.4byte	.LASF302
 3611 1394 31       		.byte	0x31
 3612 1395 21       		.uleb128 0x21
 3613 1396 230A0000 		.4byte	.LASF303
 3614 139a 32       		.byte	0x32
 3615 139b 21       		.uleb128 0x21
 3616 139c 5E100000 		.4byte	.LASF304
 3617 13a0 33       		.byte	0x33
 3618 13a1 21       		.uleb128 0x21
 3619 13a2 511A0000 		.4byte	.LASF305
 3620 13a6 34       		.byte	0x34
 3621 13a7 00       		.byte	0
 3622 13a8 0C       		.uleb128 0xc
 3623 13a9 EF010000 		.4byte	.LASF306
 3624 13ad 0E       		.byte	0xe
 3625 13ae EE02     		.2byte	0x2ee
 3626 13b0 57120000 		.4byte	0x1257
 3627 13b4 26       		.uleb128 0x26
 3628 13b5 C9160000 		.4byte	.LASF307
 3629 13b9 07       		.byte	0x7
 3630 13ba 01       		.byte	0x1
 3631 13bb 46000000 		.4byte	0x46
 3632 13bf 0E       		.byte	0xe
 3633 13c0 F302     		.2byte	0x2f3
 3634 13c2 D9130000 		.4byte	0x13d9
 3635 13c6 21       		.uleb128 0x21
 3636 13c7 270C0000 		.4byte	.LASF308
 3637 13cb 00       		.byte	0
 3638 13cc 21       		.uleb128 0x21
ARM GAS  C:\Users\EBANO_~1\AppData\Local\Temp\ccOSDu2a.s 			page 84


 3639 13cd 111A0000 		.4byte	.LASF309
 3640 13d1 01       		.byte	0x1
 3641 13d2 21       		.uleb128 0x21
 3642 13d3 84180000 		.4byte	.LASF310
 3643 13d7 02       		.byte	0x2
 3644 13d8 00       		.byte	0
 3645 13d9 0C       		.uleb128 0xc
 3646 13da 17040000 		.4byte	.LASF311
 3647 13de 0E       		.byte	0xe
 3648 13df 0203     		.2byte	0x302
 3649 13e1 B4130000 		.4byte	0x13b4
 3650 13e5 26       		.uleb128 0x26
 3651 13e6 ED130000 		.4byte	.LASF312
 3652 13ea 07       		.byte	0x7
 3653 13eb 01       		.byte	0x1
 3654 13ec 46000000 		.4byte	0x46
 3655 13f0 0E       		.byte	0xe
 3656 13f1 0403     		.2byte	0x304
 3657 13f3 04140000 		.4byte	0x1404
 3658 13f7 21       		.uleb128 0x21
 3659 13f8 CE120000 		.4byte	.LASF313
 3660 13fc 00       		.byte	0
 3661 13fd 21       		.uleb128 0x21
 3662 13fe E0150000 		.4byte	.LASF314
 3663 1402 01       		.byte	0x1
 3664 1403 00       		.byte	0
 3665 1404 0C       		.uleb128 0xc
 3666 1405 30010000 		.4byte	.LASF315
 3667 1409 0E       		.byte	0xe
 3668 140a 0E03     		.2byte	0x30e
 3669 140c E5130000 		.4byte	0x13e5
 3670 1410 19       		.uleb128 0x19
 3671 1411 79000000 		.4byte	.LASF316
 3672 1415 03       		.byte	0x3
 3673 1416 0E       		.byte	0xe
 3674 1417 1303     		.2byte	0x313
 3675 1419 4B140000 		.4byte	0x144b
 3676 141d 18       		.uleb128 0x18
 3677 141e 61030000 		.4byte	.LASF317
 3678 1422 0E       		.byte	0xe
 3679 1423 1803     		.2byte	0x318
 3680 1425 BC000000 		.4byte	0xbc
 3681 1429 02       		.byte	0x2
 3682 142a 23       		.byte	0x23
 3683 142b 00       		.uleb128 0
 3684 142c 18       		.uleb128 0x18
 3685 142d 5D000000 		.4byte	.LASF318
 3686 1431 0E       		.byte	0xe
 3687 1432 1C03     		.2byte	0x31c
 3688 1434 BC000000 		.4byte	0xbc
 3689 1438 02       		.byte	0x2
 3690 1439 23       		.byte	0x23
 3691 143a 01       		.uleb128 0x1
 3692 143b 18       		.uleb128 0x18
 3693 143c 3B0E0000 		.4byte	.LASF319
 3694 1440 0E       		.byte	0xe
 3695 1441 2003     		.2byte	0x320
ARM GAS  C:\Users\EBANO_~1\AppData\Local\Temp\ccOSDu2a.s 			page 85


 3696 1443 BC000000 		.4byte	0xbc
 3697 1447 02       		.byte	0x2
 3698 1448 23       		.byte	0x23
 3699 1449 02       		.uleb128 0x2
 3700 144a 00       		.byte	0
 3701 144b 0C       		.uleb128 0xc
 3702 144c 45170000 		.4byte	.LASF320
 3703 1450 0E       		.byte	0xe
 3704 1451 2103     		.2byte	0x321
 3705 1453 10140000 		.4byte	0x1410
 3706 1457 28       		.uleb128 0x28
 3707 1458 13150000 		.4byte	.LASF321
 3708 145c 04       		.byte	0x4
 3709 145d 0E       		.byte	0xe
 3710 145e 2603     		.2byte	0x326
 3711 1460 A1140000 		.4byte	0x14a1
 3712 1464 1C       		.uleb128 0x1c
 3713 1465 AF1D0000 		.4byte	.LASF145
 3714 1469 0E       		.byte	0xe
 3715 146a 2B03     		.2byte	0x32b
 3716 146c ED000000 		.4byte	0xed
 3717 1470 1C       		.uleb128 0x1c
 3718 1471 54180000 		.4byte	.LASF322
 3719 1475 0E       		.byte	0xe
 3720 1476 2F03     		.2byte	0x32f
 3721 1478 23110000 		.4byte	0x1123
 3722 147c 1C       		.uleb128 0x1c
 3723 147d 3F1A0000 		.4byte	.LASF323
 3724 1481 0E       		.byte	0xe
 3725 1482 3303     		.2byte	0x333
 3726 1484 30110000 		.4byte	0x1130
 3727 1488 1C       		.uleb128 0x1c
 3728 1489 C80B0000 		.4byte	.LASF324
 3729 148d 0E       		.byte	0xe
 3730 148e 3703     		.2byte	0x337
 3731 1490 2A110000 		.4byte	0x112a
 3732 1494 1C       		.uleb128 0x1c
 3733 1495 F40D0000 		.4byte	.LASF325
 3734 1499 0E       		.byte	0xe
 3735 149a 3B03     		.2byte	0x33b
 3736 149c 4B140000 		.4byte	0x144b
 3737 14a0 00       		.byte	0
 3738 14a1 0C       		.uleb128 0xc
 3739 14a2 D4110000 		.4byte	.LASF326
 3740 14a6 0E       		.byte	0xe
 3741 14a7 3C03     		.2byte	0x33c
 3742 14a9 57140000 		.4byte	0x1457
 3743 14ad 19       		.uleb128 0x19
 3744 14ae 8C0B0000 		.4byte	.LASF327
 3745 14b2 04       		.byte	0x4
 3746 14b3 0E       		.byte	0xe
 3747 14b4 4103     		.2byte	0x341
 3748 14b6 F7140000 		.4byte	0x14f7
 3749 14ba 18       		.uleb128 0x18
 3750 14bb 0C070000 		.4byte	.LASF328
 3751 14bf 0E       		.byte	0xe
 3752 14c0 4603     		.2byte	0x346
ARM GAS  C:\Users\EBANO_~1\AppData\Local\Temp\ccOSDu2a.s 			page 86


 3753 14c2 A8130000 		.4byte	0x13a8
 3754 14c6 02       		.byte	0x2
 3755 14c7 23       		.byte	0x23
 3756 14c8 00       		.uleb128 0
 3757 14c9 18       		.uleb128 0x18
 3758 14ca 6A1A0000 		.4byte	.LASF329
 3759 14ce 0E       		.byte	0xe
 3760 14cf 4C03     		.2byte	0x34c
 3761 14d1 B1000000 		.4byte	0xb1
 3762 14d5 02       		.byte	0x2
 3763 14d6 23       		.byte	0x23
 3764 14d7 01       		.uleb128 0x1
 3765 14d8 18       		.uleb128 0x18
 3766 14d9 82170000 		.4byte	.LASF330
 3767 14dd 0E       		.byte	0xe
 3768 14de 5303     		.2byte	0x353
 3769 14e0 BC000000 		.4byte	0xbc
 3770 14e4 02       		.byte	0x2
 3771 14e5 23       		.byte	0x23
 3772 14e6 02       		.uleb128 0x2
 3773 14e7 18       		.uleb128 0x18
 3774 14e8 90110000 		.4byte	.LASF331
 3775 14ec 0E       		.byte	0xe
 3776 14ed 5A03     		.2byte	0x35a
 3777 14ef BC000000 		.4byte	0xbc
 3778 14f3 02       		.byte	0x2
 3779 14f4 23       		.byte	0x23
 3780 14f5 03       		.uleb128 0x3
 3781 14f6 00       		.byte	0
 3782 14f7 0C       		.uleb128 0xc
 3783 14f8 E1030000 		.4byte	.LASF332
 3784 14fc 0E       		.byte	0xe
 3785 14fd 5B03     		.2byte	0x35b
 3786 14ff AD140000 		.4byte	0x14ad
 3787 1503 19       		.uleb128 0x19
 3788 1504 DF110000 		.4byte	.LASF333
 3789 1508 08       		.byte	0x8
 3790 1509 0E       		.byte	0xe
 3791 150a 6003     		.2byte	0x360
 3792 150c 3E150000 		.4byte	0x153e
 3793 1510 18       		.uleb128 0x18
 3794 1511 E7160000 		.4byte	.LASF334
 3795 1515 0E       		.byte	0xe
 3796 1516 6503     		.2byte	0x365
 3797 1518 BC000000 		.4byte	0xbc
 3798 151c 02       		.byte	0x2
 3799 151d 23       		.byte	0x23
 3800 151e 00       		.uleb128 0
 3801 151f 18       		.uleb128 0x18
 3802 1520 500F0000 		.4byte	.LASF335
 3803 1524 0E       		.byte	0xe
 3804 1525 6903     		.2byte	0x369
 3805 1527 150B0000 		.4byte	0xb15
 3806 152b 02       		.byte	0x2
 3807 152c 23       		.byte	0x23
 3808 152d 01       		.uleb128 0x1
 3809 152e 18       		.uleb128 0x18
ARM GAS  C:\Users\EBANO_~1\AppData\Local\Temp\ccOSDu2a.s 			page 87


 3810 152f 2B040000 		.4byte	.LASF336
 3811 1533 0E       		.byte	0xe
 3812 1534 6D03     		.2byte	0x36d
 3813 1536 970A0000 		.4byte	0xa97
 3814 153a 02       		.byte	0x2
 3815 153b 23       		.byte	0x23
 3816 153c 04       		.uleb128 0x4
 3817 153d 00       		.byte	0
 3818 153e 0C       		.uleb128 0xc
 3819 153f D10B0000 		.4byte	.LASF337
 3820 1543 0E       		.byte	0xe
 3821 1544 6E03     		.2byte	0x36e
 3822 1546 03150000 		.4byte	0x1503
 3823 154a 19       		.uleb128 0x19
 3824 154b 07160000 		.4byte	.LASF338
 3825 154f 08       		.byte	0x8
 3826 1550 0E       		.byte	0xe
 3827 1551 7303     		.2byte	0x373
 3828 1553 76150000 		.4byte	0x1576
 3829 1557 18       		.uleb128 0x18
 3830 1558 1D1C0000 		.4byte	.LASF339
 3831 155c 0E       		.byte	0xe
 3832 155d 7803     		.2byte	0x378
 3833 155f 82010000 		.4byte	0x182
 3834 1563 02       		.byte	0x2
 3835 1564 23       		.byte	0x23
 3836 1565 00       		.uleb128 0
 3837 1566 18       		.uleb128 0x18
 3838 1567 5C090000 		.4byte	.LASF340
 3839 156b 0E       		.byte	0xe
 3840 156c 7C03     		.2byte	0x37c
 3841 156e D9130000 		.4byte	0x13d9
 3842 1572 02       		.byte	0x2
 3843 1573 23       		.byte	0x23
 3844 1574 04       		.uleb128 0x4
 3845 1575 00       		.byte	0
 3846 1576 0C       		.uleb128 0xc
 3847 1577 A20A0000 		.4byte	.LASF341
 3848 157b 0E       		.byte	0xe
 3849 157c 7D03     		.2byte	0x37d
 3850 157e 4A150000 		.4byte	0x154a
 3851 1582 19       		.uleb128 0x19
 3852 1583 23060000 		.4byte	.LASF342
 3853 1587 04       		.byte	0x4
 3854 1588 0E       		.byte	0xe
 3855 1589 8203     		.2byte	0x382
 3856 158b 9F150000 		.4byte	0x159f
 3857 158f 18       		.uleb128 0x18
 3858 1590 42090000 		.4byte	.LASF343
 3859 1594 0E       		.byte	0xe
 3860 1595 8703     		.2byte	0x387
 3861 1597 70010000 		.4byte	0x170
 3862 159b 02       		.byte	0x2
 3863 159c 23       		.byte	0x23
 3864 159d 00       		.uleb128 0
 3865 159e 00       		.byte	0
 3866 159f 0C       		.uleb128 0xc
ARM GAS  C:\Users\EBANO_~1\AppData\Local\Temp\ccOSDu2a.s 			page 88


 3867 15a0 AB100000 		.4byte	.LASF344
 3868 15a4 0E       		.byte	0xe
 3869 15a5 8803     		.2byte	0x388
 3870 15a7 82150000 		.4byte	0x1582
 3871 15ab 19       		.uleb128 0x19
 3872 15ac 26050000 		.4byte	.LASF345
 3873 15b0 03       		.byte	0x3
 3874 15b1 0E       		.byte	0xe
 3875 15b2 9B03     		.2byte	0x39b
 3876 15b4 E6150000 		.4byte	0x15e6
 3877 15b8 18       		.uleb128 0x18
 3878 15b9 6A1A0000 		.4byte	.LASF329
 3879 15bd 0E       		.byte	0xe
 3880 15be A003     		.2byte	0x3a0
 3881 15c0 B1000000 		.4byte	0xb1
 3882 15c4 02       		.byte	0x2
 3883 15c5 23       		.byte	0x23
 3884 15c6 00       		.uleb128 0
 3885 15c7 18       		.uleb128 0x18
 3886 15c8 90110000 		.4byte	.LASF331
 3887 15cc 0E       		.byte	0xe
 3888 15cd A403     		.2byte	0x3a4
 3889 15cf BC000000 		.4byte	0xbc
 3890 15d3 02       		.byte	0x2
 3891 15d4 23       		.byte	0x23
 3892 15d5 01       		.uleb128 0x1
 3893 15d6 18       		.uleb128 0x18
 3894 15d7 82170000 		.4byte	.LASF330
 3895 15db 0E       		.byte	0xe
 3896 15dc A803     		.2byte	0x3a8
 3897 15de BC000000 		.4byte	0xbc
 3898 15e2 02       		.byte	0x2
 3899 15e3 23       		.byte	0x23
 3900 15e4 02       		.uleb128 0x2
 3901 15e5 00       		.byte	0
 3902 15e6 28       		.uleb128 0x28
 3903 15e7 FF1C0000 		.4byte	.LASF346
 3904 15eb 03       		.byte	0x3
 3905 15ec 0E       		.byte	0xe
 3906 15ed 8E03     		.2byte	0x38e
 3907 15ef 18160000 		.4byte	0x1618
 3908 15f3 1C       		.uleb128 0x1c
 3909 15f4 EE170000 		.4byte	.LASF347
 3910 15f8 0E       		.byte	0xe
 3911 15f9 9303     		.2byte	0x393
 3912 15fb B1000000 		.4byte	0xb1
 3913 15ff 1C       		.uleb128 0x1c
 3914 1600 4A180000 		.4byte	.LASF348
 3915 1604 0E       		.byte	0xe
 3916 1605 9703     		.2byte	0x397
 3917 1607 150B0000 		.4byte	0xb15
 3918 160b 1C       		.uleb128 0x1c
 3919 160c 44020000 		.4byte	.LASF349
 3920 1610 0E       		.byte	0xe
 3921 1611 A903     		.2byte	0x3a9
 3922 1613 AB150000 		.4byte	0x15ab
 3923 1617 00       		.byte	0
ARM GAS  C:\Users\EBANO_~1\AppData\Local\Temp\ccOSDu2a.s 			page 89


 3924 1618 0C       		.uleb128 0xc
 3925 1619 4F1D0000 		.4byte	.LASF350
 3926 161d 0E       		.byte	0xe
 3927 161e AA03     		.2byte	0x3aa
 3928 1620 E6150000 		.4byte	0x15e6
 3929 1624 19       		.uleb128 0x19
 3930 1625 720B0000 		.4byte	.LASF351
 3931 1629 08       		.byte	0x8
 3932 162a 0E       		.byte	0xe
 3933 162b AF03     		.2byte	0x3af
 3934 162d 50160000 		.4byte	0x1650
 3935 1631 18       		.uleb128 0x18
 3936 1632 83090000 		.4byte	.LASF352
 3937 1636 0E       		.byte	0xe
 3938 1637 B403     		.2byte	0x3b4
 3939 1639 840A0000 		.4byte	0xa84
 3940 163d 02       		.byte	0x2
 3941 163e 23       		.byte	0x23
 3942 163f 00       		.uleb128 0
 3943 1640 18       		.uleb128 0x18
 3944 1641 740E0000 		.4byte	.LASF353
 3945 1645 0E       		.byte	0xe
 3946 1646 B803     		.2byte	0x3b8
 3947 1648 BC000000 		.4byte	0xbc
 3948 164c 02       		.byte	0x2
 3949 164d 23       		.byte	0x23
 3950 164e 04       		.uleb128 0x4
 3951 164f 00       		.byte	0
 3952 1650 0C       		.uleb128 0xc
 3953 1651 3C0B0000 		.4byte	.LASF354
 3954 1655 0E       		.byte	0xe
 3955 1656 B903     		.2byte	0x3b9
 3956 1658 24160000 		.4byte	0x1624
 3957 165c 19       		.uleb128 0x19
 3958 165d EF1B0000 		.4byte	.LASF355
 3959 1661 08       		.byte	0x8
 3960 1662 0E       		.byte	0xe
 3961 1663 BE03     		.2byte	0x3be
 3962 1665 88160000 		.4byte	0x1688
 3963 1669 18       		.uleb128 0x18
 3964 166a 44150000 		.4byte	.LASF356
 3965 166e 0E       		.byte	0xe
 3966 166f C303     		.2byte	0x3c3
 3967 1671 30110000 		.4byte	0x1130
 3968 1675 02       		.byte	0x2
 3969 1676 23       		.byte	0x23
 3970 1677 00       		.uleb128 0
 3971 1678 18       		.uleb128 0x18
 3972 1679 20170000 		.4byte	.LASF357
 3973 167d 0E       		.byte	0xe
 3974 167e C703     		.2byte	0x3c7
 3975 1680 04140000 		.4byte	0x1404
 3976 1684 02       		.byte	0x2
 3977 1685 23       		.byte	0x23
 3978 1686 04       		.uleb128 0x4
 3979 1687 00       		.byte	0
 3980 1688 0C       		.uleb128 0xc
ARM GAS  C:\Users\EBANO_~1\AppData\Local\Temp\ccOSDu2a.s 			page 90


 3981 1689 5E0D0000 		.4byte	.LASF358
 3982 168d 0E       		.byte	0xe
 3983 168e C803     		.2byte	0x3c8
 3984 1690 5C160000 		.4byte	0x165c
 3985 1694 19       		.uleb128 0x19
 3986 1695 C60F0000 		.4byte	.LASF359
 3987 1699 14       		.byte	0x14
 3988 169a 0E       		.byte	0xe
 3989 169b CD03     		.2byte	0x3cd
 3990 169d 47170000 		.4byte	0x1747
 3991 16a1 18       		.uleb128 0x18
 3992 16a2 E7160000 		.4byte	.LASF334
 3993 16a6 0E       		.byte	0xe
 3994 16a7 D203     		.2byte	0x3d2
 3995 16a9 BC000000 		.4byte	0xbc
 3996 16ad 02       		.byte	0x2
 3997 16ae 23       		.byte	0x23
 3998 16af 00       		.uleb128 0
 3999 16b0 18       		.uleb128 0x18
 4000 16b1 6A1A0000 		.4byte	.LASF329
 4001 16b5 0E       		.byte	0xe
 4002 16b6 D603     		.2byte	0x3d6
 4003 16b8 B1000000 		.4byte	0xb1
 4004 16bc 02       		.byte	0x2
 4005 16bd 23       		.byte	0x23
 4006 16be 01       		.uleb128 0x1
 4007 16bf 18       		.uleb128 0x18
 4008 16c0 40180000 		.4byte	.LASF360
 4009 16c4 0E       		.byte	0xe
 4010 16c5 DA03     		.2byte	0x3da
 4011 16c7 BC000000 		.4byte	0xbc
 4012 16cb 02       		.byte	0x2
 4013 16cc 23       		.byte	0x23
 4014 16cd 02       		.uleb128 0x2
 4015 16ce 18       		.uleb128 0x18
 4016 16cf 2A020000 		.4byte	.LASF361
 4017 16d3 0E       		.byte	0xe
 4018 16d4 DE03     		.2byte	0x3de
 4019 16d6 B1000000 		.4byte	0xb1
 4020 16da 02       		.byte	0x2
 4021 16db 23       		.byte	0x23
 4022 16dc 03       		.uleb128 0x3
 4023 16dd 18       		.uleb128 0x18
 4024 16de AD190000 		.4byte	.LASF202
 4025 16e2 0E       		.byte	0xe
 4026 16e3 E203     		.2byte	0x3e2
 4027 16e5 ED000000 		.4byte	0xed
 4028 16e9 02       		.byte	0x2
 4029 16ea 23       		.byte	0x23
 4030 16eb 04       		.uleb128 0x4
 4031 16ec 18       		.uleb128 0x18
 4032 16ed CA070000 		.4byte	.LASF362
 4033 16f1 0E       		.byte	0xe
 4034 16f2 E603     		.2byte	0x3e6
 4035 16f4 ED000000 		.4byte	0xed
 4036 16f8 02       		.byte	0x2
 4037 16f9 23       		.byte	0x23
ARM GAS  C:\Users\EBANO_~1\AppData\Local\Temp\ccOSDu2a.s 			page 91


 4038 16fa 08       		.uleb128 0x8
 4039 16fb 18       		.uleb128 0x18
 4040 16fc 74050000 		.4byte	.LASF363
 4041 1700 0E       		.byte	0xe
 4042 1701 EA03     		.2byte	0x3ea
 4043 1703 E2000000 		.4byte	0xe2
 4044 1707 02       		.byte	0x2
 4045 1708 23       		.byte	0x23
 4046 1709 0C       		.uleb128 0xc
 4047 170a 18       		.uleb128 0x18
 4048 170b 90110000 		.4byte	.LASF331
 4049 170f 0E       		.byte	0xe
 4050 1710 EE03     		.2byte	0x3ee
 4051 1712 BC000000 		.4byte	0xbc
 4052 1716 02       		.byte	0x2
 4053 1717 23       		.byte	0x23
 4054 1718 10       		.uleb128 0x10
 4055 1719 18       		.uleb128 0x18
 4056 171a CC0A0000 		.4byte	.LASF364
 4057 171e 0E       		.byte	0xe
 4058 171f F203     		.2byte	0x3f2
 4059 1721 150B0000 		.4byte	0xb15
 4060 1725 02       		.byte	0x2
 4061 1726 23       		.byte	0x23
 4062 1727 11       		.uleb128 0x11
 4063 1728 18       		.uleb128 0x18
 4064 1729 77180000 		.4byte	.LASF365
 4065 172d 0E       		.byte	0xe
 4066 172e F603     		.2byte	0x3f6
 4067 1730 150B0000 		.4byte	0xb15
 4068 1734 02       		.byte	0x2
 4069 1735 23       		.byte	0x23
 4070 1736 12       		.uleb128 0x12
 4071 1737 18       		.uleb128 0x18
 4072 1738 5B070000 		.4byte	.LASF366
 4073 173c 0E       		.byte	0xe
 4074 173d FA03     		.2byte	0x3fa
 4075 173f 17110000 		.4byte	0x1117
 4076 1743 02       		.byte	0x2
 4077 1744 23       		.byte	0x23
 4078 1745 13       		.uleb128 0x13
 4079 1746 00       		.byte	0
 4080 1747 0C       		.uleb128 0xc
 4081 1748 87000000 		.4byte	.LASF367
 4082 174c 0E       		.byte	0xe
 4083 174d FB03     		.2byte	0x3fb
 4084 174f 94160000 		.4byte	0x1694
 4085 1753 19       		.uleb128 0x19
 4086 1754 110F0000 		.4byte	.LASF368
 4087 1758 10       		.byte	0x10
 4088 1759 0E       		.byte	0xe
 4089 175a 0004     		.2byte	0x400
 4090 175c BB170000 		.4byte	0x17bb
 4091 1760 18       		.uleb128 0x18
 4092 1761 E7160000 		.4byte	.LASF334
 4093 1765 0E       		.byte	0xe
 4094 1766 0504     		.2byte	0x405
ARM GAS  C:\Users\EBANO_~1\AppData\Local\Temp\ccOSDu2a.s 			page 92


 4095 1768 BC000000 		.4byte	0xbc
 4096 176c 02       		.byte	0x2
 4097 176d 23       		.byte	0x23
 4098 176e 00       		.uleb128 0
 4099 176f 18       		.uleb128 0x18
 4100 1770 6A1A0000 		.4byte	.LASF329
 4101 1774 0E       		.byte	0xe
 4102 1775 0904     		.2byte	0x409
 4103 1777 B1000000 		.4byte	0xb1
 4104 177b 02       		.byte	0x2
 4105 177c 23       		.byte	0x23
 4106 177d 01       		.uleb128 0x1
 4107 177e 18       		.uleb128 0x18
 4108 177f EE170000 		.4byte	.LASF347
 4109 1783 0E       		.byte	0xe
 4110 1784 0D04     		.2byte	0x40d
 4111 1786 B1000000 		.4byte	0xb1
 4112 178a 02       		.byte	0x2
 4113 178b 23       		.byte	0x23
 4114 178c 02       		.uleb128 0x2
 4115 178d 18       		.uleb128 0x18
 4116 178e 4A070000 		.4byte	.LASF369
 4117 1792 0E       		.byte	0xe
 4118 1793 1104     		.2byte	0x411
 4119 1795 23110000 		.4byte	0x1123
 4120 1799 02       		.byte	0x2
 4121 179a 23       		.byte	0x23
 4122 179b 04       		.uleb128 0x4
 4123 179c 18       		.uleb128 0x18
 4124 179d F4110000 		.4byte	.LASF370
 4125 17a1 0E       		.byte	0xe
 4126 17a2 1504     		.2byte	0x415
 4127 17a4 23110000 		.4byte	0x1123
 4128 17a8 02       		.byte	0x2
 4129 17a9 23       		.byte	0x23
 4130 17aa 08       		.uleb128 0x8
 4131 17ab 18       		.uleb128 0x18
 4132 17ac 090E0000 		.4byte	.LASF371
 4133 17b0 0E       		.byte	0xe
 4134 17b1 1904     		.2byte	0x419
 4135 17b3 D7000000 		.4byte	0xd7
 4136 17b7 02       		.byte	0x2
 4137 17b8 23       		.byte	0x23
 4138 17b9 0C       		.uleb128 0xc
 4139 17ba 00       		.byte	0
 4140 17bb 0C       		.uleb128 0xc
 4141 17bc D41D0000 		.4byte	.LASF372
 4142 17c0 0E       		.byte	0xe
 4143 17c1 1A04     		.2byte	0x41a
 4144 17c3 53170000 		.4byte	0x1753
 4145 17c7 19       		.uleb128 0x19
 4146 17c8 B8070000 		.4byte	.LASF373
 4147 17cc 10       		.byte	0x10
 4148 17cd 0E       		.byte	0xe
 4149 17ce 1F04     		.2byte	0x41f
 4150 17d0 4D180000 		.4byte	0x184d
 4151 17d4 18       		.uleb128 0x18
ARM GAS  C:\Users\EBANO_~1\AppData\Local\Temp\ccOSDu2a.s 			page 93


 4152 17d5 2A070000 		.4byte	.LASF374
 4153 17d9 0E       		.byte	0xe
 4154 17da 2404     		.2byte	0x424
 4155 17dc 0A0B0000 		.4byte	0xb0a
 4156 17e0 02       		.byte	0x2
 4157 17e1 23       		.byte	0x23
 4158 17e2 00       		.uleb128 0
 4159 17e3 18       		.uleb128 0x18
 4160 17e4 83090000 		.4byte	.LASF352
 4161 17e8 0E       		.byte	0xe
 4162 17e9 2804     		.2byte	0x428
 4163 17eb 840A0000 		.4byte	0xa84
 4164 17ef 02       		.byte	0x2
 4165 17f0 23       		.byte	0x23
 4166 17f1 04       		.uleb128 0x4
 4167 17f2 18       		.uleb128 0x18
 4168 17f3 37100000 		.4byte	.LASF375
 4169 17f7 0E       		.byte	0xe
 4170 17f8 2C04     		.2byte	0x42c
 4171 17fa BC000000 		.4byte	0xbc
 4172 17fe 02       		.byte	0x2
 4173 17ff 23       		.byte	0x23
 4174 1800 08       		.uleb128 0x8
 4175 1801 18       		.uleb128 0x18
 4176 1802 82170000 		.4byte	.LASF330
 4177 1806 0E       		.byte	0xe
 4178 1807 3004     		.2byte	0x430
 4179 1809 BC000000 		.4byte	0xbc
 4180 180d 02       		.byte	0x2
 4181 180e 23       		.byte	0x23
 4182 180f 09       		.uleb128 0x9
 4183 1810 18       		.uleb128 0x18
 4184 1811 72010000 		.4byte	.LASF376
 4185 1815 0E       		.byte	0xe
 4186 1816 3404     		.2byte	0x434
 4187 1818 150B0000 		.4byte	0xb15
 4188 181c 02       		.byte	0x2
 4189 181d 23       		.byte	0x23
 4190 181e 0A       		.uleb128 0xa
 4191 181f 18       		.uleb128 0x18
 4192 1820 73090000 		.4byte	.LASF377
 4193 1824 0E       		.byte	0xe
 4194 1825 3804     		.2byte	0x438
 4195 1827 B1000000 		.4byte	0xb1
 4196 182b 02       		.byte	0x2
 4197 182c 23       		.byte	0x23
 4198 182d 0B       		.uleb128 0xb
 4199 182e 18       		.uleb128 0x18
 4200 182f AD120000 		.4byte	.LASF378
 4201 1833 0E       		.byte	0xe
 4202 1834 3C04     		.2byte	0x43c
 4203 1836 B1000000 		.4byte	0xb1
 4204 183a 02       		.byte	0x2
 4205 183b 23       		.byte	0x23
 4206 183c 0C       		.uleb128 0xc
 4207 183d 18       		.uleb128 0x18
 4208 183e E91A0000 		.4byte	.LASF379
ARM GAS  C:\Users\EBANO_~1\AppData\Local\Temp\ccOSDu2a.s 			page 94


 4209 1842 0E       		.byte	0xe
 4210 1843 4004     		.2byte	0x440
 4211 1845 BC000000 		.4byte	0xbc
 4212 1849 02       		.byte	0x2
 4213 184a 23       		.byte	0x23
 4214 184b 0D       		.uleb128 0xd
 4215 184c 00       		.byte	0
 4216 184d 0C       		.uleb128 0xc
 4217 184e A71C0000 		.4byte	.LASF380
 4218 1852 0E       		.byte	0xe
 4219 1853 4104     		.2byte	0x441
 4220 1855 C7170000 		.4byte	0x17c7
 4221 1859 19       		.uleb128 0x19
 4222 185a EA020000 		.4byte	.LASF381
 4223 185e 08       		.byte	0x8
 4224 185f 0E       		.byte	0xe
 4225 1860 4604     		.2byte	0x446
 4226 1862 94180000 		.4byte	0x1894
 4227 1866 18       		.uleb128 0x18
 4228 1867 6A1A0000 		.4byte	.LASF329
 4229 186b 0E       		.byte	0xe
 4230 186c 4B04     		.2byte	0x44b
 4231 186e B1000000 		.4byte	0xb1
 4232 1872 02       		.byte	0x2
 4233 1873 23       		.byte	0x23
 4234 1874 00       		.uleb128 0
 4235 1875 18       		.uleb128 0x18
 4236 1876 2A020000 		.4byte	.LASF361
 4237 187a 0E       		.byte	0xe
 4238 187b 4F04     		.2byte	0x44f
 4239 187d B1000000 		.4byte	0xb1
 4240 1881 02       		.byte	0x2
 4241 1882 23       		.byte	0x23
 4242 1883 01       		.uleb128 0x1
 4243 1884 18       		.uleb128 0x18
 4244 1885 AD190000 		.4byte	.LASF202
 4245 1889 0E       		.byte	0xe
 4246 188a 5304     		.2byte	0x453
 4247 188c ED000000 		.4byte	0xed
 4248 1890 02       		.byte	0x2
 4249 1891 23       		.byte	0x23
 4250 1892 04       		.uleb128 0x4
 4251 1893 00       		.byte	0
 4252 1894 0C       		.uleb128 0xc
 4253 1895 43030000 		.4byte	.LASF382
 4254 1899 0E       		.byte	0xe
 4255 189a 5404     		.2byte	0x454
 4256 189c 59180000 		.4byte	0x1859
 4257 18a0 19       		.uleb128 0x19
 4258 18a1 99080000 		.4byte	.LASF383
 4259 18a5 08       		.byte	0x8
 4260 18a6 0E       		.byte	0xe
 4261 18a7 5904     		.2byte	0x459
 4262 18a9 CC180000 		.4byte	0x18cc
 4263 18ad 18       		.uleb128 0x18
 4264 18ae 061A0000 		.4byte	.LASF384
 4265 18b2 0E       		.byte	0xe
ARM GAS  C:\Users\EBANO_~1\AppData\Local\Temp\ccOSDu2a.s 			page 95


 4266 18b3 5E04     		.2byte	0x45e
 4267 18b5 2A110000 		.4byte	0x112a
 4268 18b9 02       		.byte	0x2
 4269 18ba 23       		.byte	0x23
 4270 18bb 00       		.uleb128 0
 4271 18bc 18       		.uleb128 0x18
 4272 18bd E0020000 		.4byte	.LASF385
 4273 18c1 0E       		.byte	0xe
 4274 18c2 6204     		.2byte	0x462
 4275 18c4 B1000000 		.4byte	0xb1
 4276 18c8 02       		.byte	0x2
 4277 18c9 23       		.byte	0x23
 4278 18ca 04       		.uleb128 0x4
 4279 18cb 00       		.byte	0
 4280 18cc 0C       		.uleb128 0xc
 4281 18cd 07090000 		.4byte	.LASF386
 4282 18d1 0E       		.byte	0xe
 4283 18d2 6304     		.2byte	0x463
 4284 18d4 A0180000 		.4byte	0x18a0
 4285 18d8 19       		.uleb128 0x19
 4286 18d9 94100000 		.4byte	.LASF387
 4287 18dd 03       		.byte	0x3
 4288 18de 0E       		.byte	0xe
 4289 18df 6804     		.2byte	0x468
 4290 18e1 13190000 		.4byte	0x1913
 4291 18e5 18       		.uleb128 0x18
 4292 18e6 82170000 		.4byte	.LASF330
 4293 18ea 0E       		.byte	0xe
 4294 18eb 6D04     		.2byte	0x46d
 4295 18ed BC000000 		.4byte	0xbc
 4296 18f1 02       		.byte	0x2
 4297 18f2 23       		.byte	0x23
 4298 18f3 00       		.uleb128 0
 4299 18f4 18       		.uleb128 0x18
 4300 18f5 90110000 		.4byte	.LASF331
 4301 18f9 0E       		.byte	0xe
 4302 18fa 7104     		.2byte	0x471
 4303 18fc BC000000 		.4byte	0xbc
 4304 1900 02       		.byte	0x2
 4305 1901 23       		.byte	0x23
 4306 1902 01       		.uleb128 0x1
 4307 1903 18       		.uleb128 0x18
 4308 1904 4A070000 		.4byte	.LASF369
 4309 1908 0E       		.byte	0xe
 4310 1909 7504     		.2byte	0x475
 4311 190b BC000000 		.4byte	0xbc
 4312 190f 02       		.byte	0x2
 4313 1910 23       		.byte	0x23
 4314 1911 02       		.uleb128 0x2
 4315 1912 00       		.byte	0
 4316 1913 0C       		.uleb128 0xc
 4317 1914 AE130000 		.4byte	.LASF388
 4318 1918 0E       		.byte	0xe
 4319 1919 7604     		.2byte	0x476
 4320 191b D8180000 		.4byte	0x18d8
 4321 191f 19       		.uleb128 0x19
 4322 1920 931C0000 		.4byte	.LASF389
ARM GAS  C:\Users\EBANO_~1\AppData\Local\Temp\ccOSDu2a.s 			page 96


 4323 1924 08       		.byte	0x8
 4324 1925 0E       		.byte	0xe
 4325 1926 7B04     		.2byte	0x47b
 4326 1928 4B190000 		.4byte	0x194b
 4327 192c 18       		.uleb128 0x18
 4328 192d E0020000 		.4byte	.LASF385
 4329 1931 0E       		.byte	0xe
 4330 1932 8004     		.2byte	0x480
 4331 1934 BC000000 		.4byte	0xbc
 4332 1938 02       		.byte	0x2
 4333 1939 23       		.byte	0x23
 4334 193a 00       		.uleb128 0
 4335 193b 18       		.uleb128 0x18
 4336 193c 49100000 		.4byte	.LASF203
 4337 1940 0E       		.byte	0xe
 4338 1941 8404     		.2byte	0x484
 4339 1943 ED000000 		.4byte	0xed
 4340 1947 02       		.byte	0x2
 4341 1948 23       		.byte	0x23
 4342 1949 04       		.uleb128 0x4
 4343 194a 00       		.byte	0
 4344 194b 0C       		.uleb128 0xc
 4345 194c BD100000 		.4byte	.LASF390
 4346 1950 0E       		.byte	0xe
 4347 1951 8504     		.2byte	0x485
 4348 1953 1F190000 		.4byte	0x191f
 4349 1957 26       		.uleb128 0x26
 4350 1958 39070000 		.4byte	.LASF391
 4351 195c 07       		.byte	0x7
 4352 195d 01       		.byte	0x1
 4353 195e 46000000 		.4byte	0x46
 4354 1962 0E       		.byte	0xe
 4355 1963 8A04     		.2byte	0x48a
 4356 1965 76190000 		.4byte	0x1976
 4357 1969 21       		.uleb128 0x21
 4358 196a D5140000 		.4byte	.LASF392
 4359 196e 00       		.byte	0
 4360 196f 21       		.uleb128 0x21
 4361 1970 DF0D0000 		.4byte	.LASF393
 4362 1974 01       		.byte	0x1
 4363 1975 00       		.byte	0
 4364 1976 0C       		.uleb128 0xc
 4365 1977 AD180000 		.4byte	.LASF394
 4366 197b 0E       		.byte	0xe
 4367 197c 9404     		.2byte	0x494
 4368 197e 57190000 		.4byte	0x1957
 4369 1982 19       		.uleb128 0x19
 4370 1983 C9050000 		.4byte	.LASF395
 4371 1987 0C       		.byte	0xc
 4372 1988 0E       		.byte	0xe
 4373 1989 9904     		.2byte	0x499
 4374 198b EA190000 		.4byte	0x19ea
 4375 198f 18       		.uleb128 0x18
 4376 1990 500F0000 		.4byte	.LASF335
 4377 1994 0E       		.byte	0xe
 4378 1995 9E04     		.2byte	0x49e
 4379 1997 150B0000 		.4byte	0xb15
ARM GAS  C:\Users\EBANO_~1\AppData\Local\Temp\ccOSDu2a.s 			page 97


 4380 199b 02       		.byte	0x2
 4381 199c 23       		.byte	0x23
 4382 199d 00       		.uleb128 0
 4383 199e 18       		.uleb128 0x18
 4384 199f 801E0000 		.4byte	.LASF396
 4385 19a3 0E       		.byte	0xe
 4386 19a4 A204     		.2byte	0x4a2
 4387 19a6 150B0000 		.4byte	0xb15
 4388 19aa 02       		.byte	0x2
 4389 19ab 23       		.byte	0x23
 4390 19ac 01       		.uleb128 0x1
 4391 19ad 18       		.uleb128 0x18
 4392 19ae 4A120000 		.4byte	.LASF397
 4393 19b2 0E       		.byte	0xe
 4394 19b3 A604     		.2byte	0x4a6
 4395 19b5 150B0000 		.4byte	0xb15
 4396 19b9 02       		.byte	0x2
 4397 19ba 23       		.byte	0x23
 4398 19bb 02       		.uleb128 0x2
 4399 19bc 18       		.uleb128 0x18
 4400 19bd E7160000 		.4byte	.LASF334
 4401 19c1 0E       		.byte	0xe
 4402 19c2 AA04     		.2byte	0x4aa
 4403 19c4 BC000000 		.4byte	0xbc
 4404 19c8 02       		.byte	0x2
 4405 19c9 23       		.byte	0x23
 4406 19ca 03       		.uleb128 0x3
 4407 19cb 18       		.uleb128 0x18
 4408 19cc AA0C0000 		.4byte	.LASF398
 4409 19d0 0E       		.byte	0xe
 4410 19d1 AE04     		.2byte	0x4ae
 4411 19d3 970A0000 		.4byte	0xa97
 4412 19d7 02       		.byte	0x2
 4413 19d8 23       		.byte	0x23
 4414 19d9 04       		.uleb128 0x4
 4415 19da 18       		.uleb128 0x18
 4416 19db 91010000 		.4byte	.LASF399
 4417 19df 0E       		.byte	0xe
 4418 19e0 B204     		.2byte	0x4b2
 4419 19e2 970A0000 		.4byte	0xa97
 4420 19e6 02       		.byte	0x2
 4421 19e7 23       		.byte	0x23
 4422 19e8 08       		.uleb128 0x8
 4423 19e9 00       		.byte	0
 4424 19ea 0C       		.uleb128 0xc
 4425 19eb 5A140000 		.4byte	.LASF400
 4426 19ef 0E       		.byte	0xe
 4427 19f0 B304     		.2byte	0x4b3
 4428 19f2 82190000 		.4byte	0x1982
 4429 19f6 19       		.uleb128 0x19
 4430 19f7 6F1C0000 		.4byte	.LASF401
 4431 19fb 0C       		.byte	0xc
 4432 19fc 0E       		.byte	0xe
 4433 19fd B804     		.2byte	0x4b8
 4434 19ff 4F1A0000 		.4byte	0x1a4f
 4435 1a03 18       		.uleb128 0x18
 4436 1a04 80020000 		.4byte	.LASF402
ARM GAS  C:\Users\EBANO_~1\AppData\Local\Temp\ccOSDu2a.s 			page 98


 4437 1a08 0E       		.byte	0xe
 4438 1a09 BD04     		.2byte	0x4bd
 4439 1a0b 970A0000 		.4byte	0xa97
 4440 1a0f 02       		.byte	0x2
 4441 1a10 23       		.byte	0x23
 4442 1a11 00       		.uleb128 0
 4443 1a12 18       		.uleb128 0x18
 4444 1a13 C9010000 		.4byte	.LASF403
 4445 1a17 0E       		.byte	0xe
 4446 1a18 C104     		.2byte	0x4c1
 4447 1a1a 970A0000 		.4byte	0xa97
 4448 1a1e 02       		.byte	0x2
 4449 1a1f 23       		.byte	0x23
 4450 1a20 04       		.uleb128 0x4
 4451 1a21 18       		.uleb128 0x18
 4452 1a22 6A1A0000 		.4byte	.LASF329
 4453 1a26 0E       		.byte	0xe
 4454 1a27 C504     		.2byte	0x4c5
 4455 1a29 B1000000 		.4byte	0xb1
 4456 1a2d 02       		.byte	0x2
 4457 1a2e 23       		.byte	0x23
 4458 1a2f 08       		.uleb128 0x8
 4459 1a30 18       		.uleb128 0x18
 4460 1a31 500F0000 		.4byte	.LASF335
 4461 1a35 0E       		.byte	0xe
 4462 1a36 C904     		.2byte	0x4c9
 4463 1a38 150B0000 		.4byte	0xb15
 4464 1a3c 02       		.byte	0x2
 4465 1a3d 23       		.byte	0x23
 4466 1a3e 09       		.uleb128 0x9
 4467 1a3f 18       		.uleb128 0x18
 4468 1a40 4A120000 		.4byte	.LASF397
 4469 1a44 0E       		.byte	0xe
 4470 1a45 CD04     		.2byte	0x4cd
 4471 1a47 150B0000 		.4byte	0xb15
 4472 1a4b 02       		.byte	0x2
 4473 1a4c 23       		.byte	0x23
 4474 1a4d 0A       		.uleb128 0xa
 4475 1a4e 00       		.byte	0
 4476 1a4f 0C       		.uleb128 0xc
 4477 1a50 D4010000 		.4byte	.LASF404
 4478 1a54 0E       		.byte	0xe
 4479 1a55 CE04     		.2byte	0x4ce
 4480 1a57 F6190000 		.4byte	0x19f6
 4481 1a5b 19       		.uleb128 0x19
 4482 1a5c 64040000 		.4byte	.LASF405
 4483 1a60 08       		.byte	0x8
 4484 1a61 0E       		.byte	0xe
 4485 1a62 D304     		.2byte	0x4d3
 4486 1a64 871A0000 		.4byte	0x1a87
 4487 1a68 18       		.uleb128 0x18
 4488 1a69 061A0000 		.4byte	.LASF384
 4489 1a6d 0E       		.byte	0xe
 4490 1a6e D804     		.2byte	0x4d8
 4491 1a70 2A110000 		.4byte	0x112a
 4492 1a74 02       		.byte	0x2
 4493 1a75 23       		.byte	0x23
ARM GAS  C:\Users\EBANO_~1\AppData\Local\Temp\ccOSDu2a.s 			page 99


 4494 1a76 00       		.uleb128 0
 4495 1a77 18       		.uleb128 0x18
 4496 1a78 E0020000 		.4byte	.LASF385
 4497 1a7c 0E       		.byte	0xe
 4498 1a7d DC04     		.2byte	0x4dc
 4499 1a7f BC000000 		.4byte	0xbc
 4500 1a83 02       		.byte	0x2
 4501 1a84 23       		.byte	0x23
 4502 1a85 04       		.uleb128 0x4
 4503 1a86 00       		.byte	0
 4504 1a87 0C       		.uleb128 0xc
 4505 1a88 E7100000 		.4byte	.LASF406
 4506 1a8c 0E       		.byte	0xe
 4507 1a8d DD04     		.2byte	0x4dd
 4508 1a8f 5B1A0000 		.4byte	0x1a5b
 4509 1a93 19       		.uleb128 0x19
 4510 1a94 20190000 		.4byte	.LASF407
 4511 1a98 01       		.byte	0x1
 4512 1a99 0E       		.byte	0xe
 4513 1a9a E204     		.2byte	0x4e2
 4514 1a9c B01A0000 		.4byte	0x1ab0
 4515 1aa0 18       		.uleb128 0x18
 4516 1aa1 E0020000 		.4byte	.LASF385
 4517 1aa5 0E       		.byte	0xe
 4518 1aa6 E704     		.2byte	0x4e7
 4519 1aa8 BC000000 		.4byte	0xbc
 4520 1aac 02       		.byte	0x2
 4521 1aad 23       		.byte	0x23
 4522 1aae 00       		.uleb128 0
 4523 1aaf 00       		.byte	0
 4524 1ab0 0C       		.uleb128 0xc
 4525 1ab1 83070000 		.4byte	.LASF408
 4526 1ab5 0E       		.byte	0xe
 4527 1ab6 E804     		.2byte	0x4e8
 4528 1ab8 931A0000 		.4byte	0x1a93
 4529 1abc 19       		.uleb128 0x19
 4530 1abd 4A190000 		.4byte	.LASF409
 4531 1ac1 10       		.byte	0x10
 4532 1ac2 0E       		.byte	0xe
 4533 1ac3 ED04     		.2byte	0x4ed
 4534 1ac5 241B0000 		.4byte	0x1b24
 4535 1ac9 18       		.uleb128 0x18
 4536 1aca E7160000 		.4byte	.LASF334
 4537 1ace 0E       		.byte	0xe
 4538 1acf F204     		.2byte	0x4f2
 4539 1ad1 BC000000 		.4byte	0xbc
 4540 1ad5 02       		.byte	0x2
 4541 1ad6 23       		.byte	0x23
 4542 1ad7 00       		.uleb128 0
 4543 1ad8 18       		.uleb128 0x18
 4544 1ad9 6A1A0000 		.4byte	.LASF329
 4545 1add 0E       		.byte	0xe
 4546 1ade F604     		.2byte	0x4f6
 4547 1ae0 B1000000 		.4byte	0xb1
 4548 1ae4 02       		.byte	0x2
 4549 1ae5 23       		.byte	0x23
 4550 1ae6 01       		.uleb128 0x1
ARM GAS  C:\Users\EBANO_~1\AppData\Local\Temp\ccOSDu2a.s 			page 100


 4551 1ae7 18       		.uleb128 0x18
 4552 1ae8 EE170000 		.4byte	.LASF347
 4553 1aec 0E       		.byte	0xe
 4554 1aed FA04     		.2byte	0x4fa
 4555 1aef B1000000 		.4byte	0xb1
 4556 1af3 02       		.byte	0x2
 4557 1af4 23       		.byte	0x23
 4558 1af5 02       		.uleb128 0x2
 4559 1af6 18       		.uleb128 0x18
 4560 1af7 4A070000 		.4byte	.LASF369
 4561 1afb 0E       		.byte	0xe
 4562 1afc FE04     		.2byte	0x4fe
 4563 1afe 23110000 		.4byte	0x1123
 4564 1b02 02       		.byte	0x2
 4565 1b03 23       		.byte	0x23
 4566 1b04 04       		.uleb128 0x4
 4567 1b05 18       		.uleb128 0x18
 4568 1b06 F4110000 		.4byte	.LASF370
 4569 1b0a 0E       		.byte	0xe
 4570 1b0b 0205     		.2byte	0x502
 4571 1b0d 23110000 		.4byte	0x1123
 4572 1b11 02       		.byte	0x2
 4573 1b12 23       		.byte	0x23
 4574 1b13 08       		.uleb128 0x8
 4575 1b14 18       		.uleb128 0x18
 4576 1b15 54090000 		.4byte	.LASF410
 4577 1b19 0E       		.byte	0xe
 4578 1b1a 0605     		.2byte	0x506
 4579 1b1c D7000000 		.4byte	0xd7
 4580 1b20 02       		.byte	0x2
 4581 1b21 23       		.byte	0x23
 4582 1b22 0C       		.uleb128 0xc
 4583 1b23 00       		.byte	0
 4584 1b24 0C       		.uleb128 0xc
 4585 1b25 51130000 		.4byte	.LASF411
 4586 1b29 0E       		.byte	0xe
 4587 1b2a 0705     		.2byte	0x507
 4588 1b2c BC1A0000 		.4byte	0x1abc
 4589 1b30 19       		.uleb128 0x19
 4590 1b31 5F050000 		.4byte	.LASF412
 4591 1b35 0C       		.byte	0xc
 4592 1b36 0E       		.byte	0xe
 4593 1b37 0C05     		.2byte	0x50c
 4594 1b39 6B1B0000 		.4byte	0x1b6b
 4595 1b3d 18       		.uleb128 0x18
 4596 1b3e DF190000 		.4byte	.LASF413
 4597 1b42 0E       		.byte	0xe
 4598 1b43 1105     		.2byte	0x511
 4599 1b45 D7000000 		.4byte	0xd7
 4600 1b49 02       		.byte	0x2
 4601 1b4a 23       		.byte	0x23
 4602 1b4b 00       		.uleb128 0
 4603 1b4c 18       		.uleb128 0x18
 4604 1b4d 290D0000 		.4byte	.LASF414
 4605 1b51 0E       		.byte	0xe
 4606 1b52 1505     		.2byte	0x515
 4607 1b54 ED000000 		.4byte	0xed
ARM GAS  C:\Users\EBANO_~1\AppData\Local\Temp\ccOSDu2a.s 			page 101


 4608 1b58 02       		.byte	0x2
 4609 1b59 23       		.byte	0x23
 4610 1b5a 04       		.uleb128 0x4
 4611 1b5b 18       		.uleb128 0x18
 4612 1b5c AD190000 		.4byte	.LASF202
 4613 1b60 0E       		.byte	0xe
 4614 1b61 1905     		.2byte	0x519
 4615 1b63 ED000000 		.4byte	0xed
 4616 1b67 02       		.byte	0x2
 4617 1b68 23       		.byte	0x23
 4618 1b69 08       		.uleb128 0x8
 4619 1b6a 00       		.byte	0
 4620 1b6b 0C       		.uleb128 0xc
 4621 1b6c 3A1C0000 		.4byte	.LASF415
 4622 1b70 0E       		.byte	0xe
 4623 1b71 1A05     		.2byte	0x51a
 4624 1b73 301B0000 		.4byte	0x1b30
 4625 1b77 27       		.uleb128 0x27
 4626 1b78 11170000 		.4byte	.LASF417
 4627 1b7c 0F       		.byte	0xf
 4628 1b7d 2201     		.2byte	0x122
 4629 1b7f 3C010000 		.4byte	0x13c
 4630 1b83 08       		.byte	0x8
 4631 1b84 0C       		.byte	0xc
 4632 1b85 0B       		.byte	0xb
 4633 1b86 0A       		.byte	0xa
 4634 1b87 09       		.byte	0x9
 4635 1b88 08       		.byte	0x8
 4636 1b89 07       		.byte	0x7
 4637 1b8a 07       		.byte	0x7
 4638 1b8b 32       		.byte	0x32
 4639 1b8c 07       		.uleb128 0x7
 4640 1b8d F8000000 		.4byte	0xf8
 4641 1b91 9C1B0000 		.4byte	0x1b9c
 4642 1b95 08       		.uleb128 0x8
 4643 1b96 AA000000 		.4byte	0xaa
 4644 1b9a 07       		.byte	0x7
 4645 1b9b 00       		.byte	0
 4646 1b9c 05       		.uleb128 0x5
 4647 1b9d 8C1B0000 		.4byte	0x1b8c
 4648 1ba1 27       		.uleb128 0x27
 4649 1ba2 67180000 		.4byte	.LASF418
 4650 1ba6 0F       		.byte	0xf
 4651 1ba7 2701     		.2byte	0x127
 4652 1ba9 9C1B0000 		.4byte	0x1b9c
 4653 1bad 20       		.byte	0x20
 4654 1bae 48       		.byte	0x48
 4655 1baf E8       		.byte	0xe8
 4656 1bb0 01       		.byte	0x1
 4657 1bb1 00       		.byte	0
 4658 1bb2 48       		.byte	0x48
 4659 1bb3 E8       		.byte	0xe8
 4660 1bb4 01       		.byte	0x1
 4661 1bb5 00       		.byte	0
 4662 1bb6 48       		.byte	0x48
 4663 1bb7 E8       		.byte	0xe8
 4664 1bb8 01       		.byte	0x1
ARM GAS  C:\Users\EBANO_~1\AppData\Local\Temp\ccOSDu2a.s 			page 102


 4665 1bb9 00       		.byte	0
 4666 1bba 48       		.byte	0x48
 4667 1bbb E8       		.byte	0xe8
 4668 1bbc 01       		.byte	0x1
 4669 1bbd 00       		.byte	0
 4670 1bbe 48       		.byte	0x48
 4671 1bbf E8       		.byte	0xe8
 4672 1bc0 01       		.byte	0x1
 4673 1bc1 00       		.byte	0
 4674 1bc2 48       		.byte	0x48
 4675 1bc3 E8       		.byte	0xe8
 4676 1bc4 01       		.byte	0x1
 4677 1bc5 00       		.byte	0
 4678 1bc6 90       		.byte	0x90
 4679 1bc7 D0       		.byte	0xd0
 4680 1bc8 03       		.byte	0x3
 4681 1bc9 00       		.byte	0
 4682 1bca 00       		.byte	0
 4683 1bcb 00       		.byte	0
 4684 1bcc 00       		.byte	0
 4685 1bcd 00       		.byte	0
 4686 1bce 27       		.uleb128 0x27
 4687 1bcf CB080000 		.4byte	.LASF419
 4688 1bd3 0F       		.byte	0xf
 4689 1bd4 2C01     		.2byte	0x12c
 4690 1bd6 3C010000 		.4byte	0x13c
 4691 1bda 08       		.byte	0x8
 4692 1bdb 33       		.byte	0x33
 4693 1bdc 33       		.byte	0x33
 4694 1bdd 33       		.byte	0x33
 4695 1bde 73       		.byte	0x73
 4696 1bdf F2       		.byte	0xf2
 4697 1be0 F2       		.byte	0xf2
 4698 1be1 F2       		.byte	0xf2
 4699 1be2 F2       		.byte	0xf2
 4700 1be3 27       		.uleb128 0x27
 4701 1be4 FE010000 		.4byte	.LASF420
 4702 1be8 0F       		.byte	0xf
 4703 1be9 3101     		.2byte	0x131
 4704 1beb 3C010000 		.4byte	0x13c
 4705 1bef 08       		.byte	0x8
 4706 1bf0 33       		.byte	0x33
 4707 1bf1 33       		.byte	0x33
 4708 1bf2 33       		.byte	0x33
 4709 1bf3 73       		.byte	0x73
 4710 1bf4 DE       		.byte	0xde
 4711 1bf5 DE       		.byte	0xde
 4712 1bf6 DE       		.byte	0xde
 4713 1bf7 DE       		.byte	0xde
 4714 1bf8 29       		.uleb128 0x29
 4715 1bf9 01       		.byte	0x1
 4716 1bfa 11030000 		.4byte	.LASF426
 4717 1bfe 01       		.byte	0x1
 4718 1bff 2204     		.2byte	0x422
 4719 1c01 01       		.byte	0x1
 4720 1c02 00000000 		.4byte	.LFB62
 4721 1c06 12000000 		.4byte	.LFE62
ARM GAS  C:\Users\EBANO_~1\AppData\Local\Temp\ccOSDu2a.s 			page 103


 4722 1c0a 00000000 		.4byte	.LLST81
 4723 1c0e 01       		.byte	0x1
 4724 1c0f 5C1C0000 		.4byte	0x1c5c
 4725 1c13 2A       		.uleb128 0x2a
 4726 1c14 E8040000 		.4byte	.LASF421
 4727 1c18 01       		.byte	0x1
 4728 1c19 2204     		.2byte	0x422
 4729 1c1b 2E120000 		.4byte	0x122e
 4730 1c1f 20000000 		.4byte	.LLST82
 4731 1c23 2A       		.uleb128 0x2a
 4732 1c24 12190000 		.4byte	.LASF422
 4733 1c28 01       		.byte	0x1
 4734 1c29 2204     		.2byte	0x422
 4735 1c2b 5C1C0000 		.4byte	0x1c5c
 4736 1c2f 41000000 		.4byte	.LLST83
 4737 1c33 2A       		.uleb128 0x2a
 4738 1c34 5C0C0000 		.4byte	.LASF423
 4739 1c38 01       		.byte	0x1
 4740 1c39 2204     		.2byte	0x422
 4741 1c3b 840A0000 		.4byte	0xa84
 4742 1c3f 6D000000 		.4byte	.LLST84
 4743 1c43 2B       		.uleb128 0x2b
 4744 1c44 10000000 		.4byte	.LVL120
 4745 1c48 3B250000 		.4byte	0x253b
 4746 1c4c 2C       		.uleb128 0x2c
 4747 1c4d 01       		.byte	0x1
 4748 1c4e 50       		.byte	0x50
 4749 1c4f 03       		.byte	0x3
 4750 1c50 F3       		.byte	0xf3
 4751 1c51 01       		.uleb128 0x1
 4752 1c52 51       		.byte	0x51
 4753 1c53 2C       		.uleb128 0x2c
 4754 1c54 01       		.byte	0x1
 4755 1c55 51       		.byte	0x51
 4756 1c56 03       		.byte	0x3
 4757 1c57 F3       		.byte	0xf3
 4758 1c58 01       		.uleb128 0x1
 4759 1c59 52       		.byte	0x52
 4760 1c5a 00       		.byte	0
 4761 1c5b 00       		.byte	0
 4762 1c5c 0A       		.uleb128 0xa
 4763 1c5d 04       		.byte	0x4
 4764 1c5e 6B1B0000 		.4byte	0x1b6b
 4765 1c62 2D       		.uleb128 0x2d
 4766 1c63 01       		.byte	0x1
 4767 1c64 711B0000 		.4byte	.LASF429
 4768 1c68 01       		.byte	0x1
 4769 1c69 0D04     		.2byte	0x40d
 4770 1c6b 01       		.byte	0x1
 4771 1c6c BC000000 		.4byte	0xbc
 4772 1c70 00000000 		.4byte	.LFB61
 4773 1c74 18000000 		.4byte	.LFE61
 4774 1c78 8E000000 		.4byte	.LLST76
 4775 1c7c 01       		.byte	0x1
 4776 1c7d D11C0000 		.4byte	0x1cd1
 4777 1c81 2A       		.uleb128 0x2a
 4778 1c82 E8040000 		.4byte	.LASF421
ARM GAS  C:\Users\EBANO_~1\AppData\Local\Temp\ccOSDu2a.s 			page 104


 4779 1c86 01       		.byte	0x1
 4780 1c87 0D04     		.2byte	0x40d
 4781 1c89 2E120000 		.4byte	0x122e
 4782 1c8d AE000000 		.4byte	.LLST77
 4783 1c91 2A       		.uleb128 0x2a
 4784 1c92 D7170000 		.4byte	.LASF424
 4785 1c96 01       		.byte	0x1
 4786 1c97 0D04     		.2byte	0x40d
 4787 1c99 BC000000 		.4byte	0xbc
 4788 1c9d E8000000 		.4byte	.LLST78
 4789 1ca1 2E       		.uleb128 0x2e
 4790 1ca2 647200   		.ascii	"dr\000"
 4791 1ca5 01       		.byte	0x1
 4792 1ca6 0D04     		.2byte	0x40d
 4793 1ca8 B1000000 		.4byte	0xb1
 4794 1cac 09010000 		.4byte	.LLST79
 4795 1cb0 2A       		.uleb128 0x2a
 4796 1cb1 051E0000 		.4byte	.LASF425
 4797 1cb5 01       		.byte	0x1
 4798 1cb6 0D04     		.2byte	0x40d
 4799 1cb8 B1000000 		.4byte	0xb1
 4800 1cbc 43010000 		.4byte	.LLST80
 4801 1cc0 2B       		.uleb128 0x2b
 4802 1cc1 16000000 		.4byte	.LVL116
 4803 1cc5 49250000 		.4byte	0x2549
 4804 1cc9 2C       		.uleb128 0x2c
 4805 1cca 01       		.byte	0x1
 4806 1ccb 50       		.byte	0x50
 4807 1ccc 02       		.byte	0x2
 4808 1ccd 74       		.byte	0x74
 4809 1cce 00       		.sleb128 0
 4810 1ccf 00       		.byte	0
 4811 1cd0 00       		.byte	0
 4812 1cd1 29       		.uleb128 0x29
 4813 1cd2 01       		.byte	0x1
 4814 1cd3 E9000000 		.4byte	.LASF427
 4815 1cd7 01       		.byte	0x1
 4816 1cd8 F803     		.2byte	0x3f8
 4817 1cda 01       		.byte	0x1
 4818 1cdb 00000000 		.4byte	.LFB60
 4819 1cdf 0E000000 		.4byte	.LFE60
 4820 1ce3 7D010000 		.4byte	.LLST73
 4821 1ce7 01       		.byte	0x1
 4822 1ce8 1E1D0000 		.4byte	0x1d1e
 4823 1cec 2A       		.uleb128 0x2a
 4824 1ced E8040000 		.4byte	.LASF421
 4825 1cf1 01       		.byte	0x1
 4826 1cf2 F803     		.2byte	0x3f8
 4827 1cf4 2E120000 		.4byte	0x122e
 4828 1cf8 9D010000 		.4byte	.LLST74
 4829 1cfc 2A       		.uleb128 0x2a
 4830 1cfd 50050000 		.4byte	.LASF428
 4831 1d01 01       		.byte	0x1
 4832 1d02 F803     		.2byte	0x3f8
 4833 1d04 1E1D0000 		.4byte	0x1d1e
 4834 1d08 BE010000 		.4byte	.LLST75
 4835 1d0c 2B       		.uleb128 0x2b
ARM GAS  C:\Users\EBANO_~1\AppData\Local\Temp\ccOSDu2a.s 			page 105


 4836 1d0d 0C000000 		.4byte	.LVL109
 4837 1d11 57250000 		.4byte	0x2557
 4838 1d15 2C       		.uleb128 0x2c
 4839 1d16 01       		.byte	0x1
 4840 1d17 50       		.byte	0x50
 4841 1d18 03       		.byte	0x3
 4842 1d19 F3       		.byte	0xf3
 4843 1d1a 01       		.uleb128 0x1
 4844 1d1b 51       		.byte	0x51
 4845 1d1c 00       		.byte	0
 4846 1d1d 00       		.byte	0
 4847 1d1e 0A       		.uleb128 0xa
 4848 1d1f 04       		.byte	0x4
 4849 1d20 241B0000 		.4byte	0x1b24
 4850 1d24 2D       		.uleb128 0x2d
 4851 1d25 01       		.byte	0x1
 4852 1d26 B70A0000 		.4byte	.LASF430
 4853 1d2a 01       		.byte	0x1
 4854 1d2b E303     		.2byte	0x3e3
 4855 1d2d 01       		.byte	0x1
 4856 1d2e 150B0000 		.4byte	0xb15
 4857 1d32 00000000 		.4byte	.LFB59
 4858 1d36 12000000 		.4byte	.LFE59
 4859 1d3a DF010000 		.4byte	.LLST70
 4860 1d3e 01       		.byte	0x1
 4861 1d3f 751D0000 		.4byte	0x1d75
 4862 1d43 2A       		.uleb128 0x2a
 4863 1d44 E8040000 		.4byte	.LASF421
 4864 1d48 01       		.byte	0x1
 4865 1d49 E303     		.2byte	0x3e3
 4866 1d4b 2E120000 		.4byte	0x122e
 4867 1d4f FF010000 		.4byte	.LLST71
 4868 1d53 2A       		.uleb128 0x2a
 4869 1d54 BA1C0000 		.4byte	.LASF431
 4870 1d58 01       		.byte	0x1
 4871 1d59 E303     		.2byte	0x3e3
 4872 1d5b 751D0000 		.4byte	0x1d75
 4873 1d5f 39020000 		.4byte	.LLST72
 4874 1d63 2B       		.uleb128 0x2b
 4875 1d64 10000000 		.4byte	.LVL106
 4876 1d68 65250000 		.4byte	0x2565
 4877 1d6c 2C       		.uleb128 0x2c
 4878 1d6d 01       		.byte	0x1
 4879 1d6e 50       		.byte	0x50
 4880 1d6f 03       		.byte	0x3
 4881 1d70 F3       		.byte	0xf3
 4882 1d71 01       		.uleb128 0x1
 4883 1d72 51       		.byte	0x51
 4884 1d73 00       		.byte	0
 4885 1d74 00       		.byte	0
 4886 1d75 0A       		.uleb128 0xa
 4887 1d76 04       		.byte	0x4
 4888 1d77 B01A0000 		.4byte	0x1ab0
 4889 1d7b 2D       		.uleb128 0x2d
 4890 1d7c 01       		.byte	0x1
 4891 1d7d D20E0000 		.4byte	.LASF432
 4892 1d81 01       		.byte	0x1
ARM GAS  C:\Users\EBANO_~1\AppData\Local\Temp\ccOSDu2a.s 			page 106


 4893 1d82 CE03     		.2byte	0x3ce
 4894 1d84 01       		.byte	0x1
 4895 1d85 D3110000 		.4byte	0x11d3
 4896 1d89 00000000 		.4byte	.LFB58
 4897 1d8d 12000000 		.4byte	.LFE58
 4898 1d91 73020000 		.4byte	.LLST67
 4899 1d95 01       		.byte	0x1
 4900 1d96 CC1D0000 		.4byte	0x1dcc
 4901 1d9a 2A       		.uleb128 0x2a
 4902 1d9b E8040000 		.4byte	.LASF421
 4903 1d9f 01       		.byte	0x1
 4904 1da0 CE03     		.2byte	0x3ce
 4905 1da2 2E120000 		.4byte	0x122e
 4906 1da6 93020000 		.4byte	.LLST68
 4907 1daa 2A       		.uleb128 0x2a
 4908 1dab 2E120000 		.4byte	.LASF433
 4909 1daf 01       		.byte	0x1
 4910 1db0 CE03     		.2byte	0x3ce
 4911 1db2 CC1D0000 		.4byte	0x1dcc
 4912 1db6 CD020000 		.4byte	.LLST69
 4913 1dba 2B       		.uleb128 0x2b
 4914 1dbb 0C000000 		.4byte	.LVL99
 4915 1dbf 73250000 		.4byte	0x2573
 4916 1dc3 2C       		.uleb128 0x2c
 4917 1dc4 01       		.byte	0x1
 4918 1dc5 50       		.byte	0x50
 4919 1dc6 03       		.byte	0x3
 4920 1dc7 F3       		.byte	0xf3
 4921 1dc8 01       		.uleb128 0x1
 4922 1dc9 51       		.byte	0x51
 4923 1dca 00       		.byte	0
 4924 1dcb 00       		.byte	0
 4925 1dcc 0A       		.uleb128 0xa
 4926 1dcd 04       		.byte	0x4
 4927 1dce 871A0000 		.4byte	0x1a87
 4928 1dd2 2D       		.uleb128 0x2d
 4929 1dd3 01       		.byte	0x1
 4930 1dd4 9D1D0000 		.4byte	.LASF434
 4931 1dd8 01       		.byte	0x1
 4932 1dd9 B903     		.2byte	0x3b9
 4933 1ddb 01       		.byte	0x1
 4934 1ddc D3110000 		.4byte	0x11d3
 4935 1de0 00000000 		.4byte	.LFB57
 4936 1de4 1A000000 		.4byte	.LFE57
 4937 1de8 F9020000 		.4byte	.LLST62
 4938 1dec 01       		.byte	0x1
 4939 1ded 661E0000 		.4byte	0x1e66
 4940 1df1 2A       		.uleb128 0x2a
 4941 1df2 E8040000 		.4byte	.LASF421
 4942 1df6 01       		.byte	0x1
 4943 1df7 B903     		.2byte	0x3b9
 4944 1df9 2E120000 		.4byte	0x122e
 4945 1dfd 19030000 		.4byte	.LLST63
 4946 1e01 2A       		.uleb128 0x2a
 4947 1e02 30160000 		.4byte	.LASF435
 4948 1e06 01       		.byte	0x1
 4949 1e07 B903     		.2byte	0x3b9
ARM GAS  C:\Users\EBANO_~1\AppData\Local\Temp\ccOSDu2a.s 			page 107


 4950 1e09 661E0000 		.4byte	0x1e66
 4951 1e0d 53030000 		.4byte	.LLST64
 4952 1e11 2A       		.uleb128 0x2a
 4953 1e12 010E0000 		.4byte	.LASF436
 4954 1e16 01       		.byte	0x1
 4955 1e17 B903     		.2byte	0x3b9
 4956 1e19 840A0000 		.4byte	0xa84
 4957 1e1d 8A030000 		.4byte	.LLST65
 4958 1e21 2A       		.uleb128 0x2a
 4959 1e22 65120000 		.4byte	.LASF437
 4960 1e26 01       		.byte	0x1
 4961 1e27 B903     		.2byte	0x3b9
 4962 1e29 6C1E0000 		.4byte	0x1e6c
 4963 1e2d C1030000 		.4byte	.LLST66
 4964 1e31 2F       		.uleb128 0x2f
 4965 1e32 E70B0000 		.4byte	.LASF438
 4966 1e36 01       		.byte	0x1
 4967 1e37 B903     		.2byte	0x3b9
 4968 1e39 6C1E0000 		.4byte	0x1e6c
 4969 1e3d 02       		.byte	0x2
 4970 1e3e 91       		.byte	0x91
 4971 1e3f 00       		.sleb128 0
 4972 1e40 2B       		.uleb128 0x2b
 4973 1e41 14000000 		.4byte	.LVL93
 4974 1e45 81250000 		.4byte	0x2581
 4975 1e49 2C       		.uleb128 0x2c
 4976 1e4a 01       		.byte	0x1
 4977 1e4b 50       		.byte	0x50
 4978 1e4c 02       		.byte	0x2
 4979 1e4d 74       		.byte	0x74
 4980 1e4e 00       		.sleb128 0
 4981 1e4f 2C       		.uleb128 0x2c
 4982 1e50 01       		.byte	0x1
 4983 1e51 51       		.byte	0x51
 4984 1e52 03       		.byte	0x3
 4985 1e53 F3       		.byte	0xf3
 4986 1e54 01       		.uleb128 0x1
 4987 1e55 52       		.byte	0x52
 4988 1e56 2C       		.uleb128 0x2c
 4989 1e57 01       		.byte	0x1
 4990 1e58 52       		.byte	0x52
 4991 1e59 03       		.byte	0x3
 4992 1e5a F3       		.byte	0xf3
 4993 1e5b 01       		.uleb128 0x1
 4994 1e5c 53       		.byte	0x53
 4995 1e5d 2C       		.uleb128 0x2c
 4996 1e5e 01       		.byte	0x1
 4997 1e5f 53       		.byte	0x53
 4998 1e60 03       		.byte	0x3
 4999 1e61 91       		.byte	0x91
 5000 1e62 00       		.sleb128 0
 5001 1e63 06       		.byte	0x6
 5002 1e64 00       		.byte	0
 5003 1e65 00       		.byte	0
 5004 1e66 0A       		.uleb128 0xa
 5005 1e67 04       		.byte	0x4
 5006 1e68 4F1A0000 		.4byte	0x1a4f
ARM GAS  C:\Users\EBANO_~1\AppData\Local\Temp\ccOSDu2a.s 			page 108


 5007 1e6c 0A       		.uleb128 0xa
 5008 1e6d 04       		.byte	0x4
 5009 1e6e 970A0000 		.4byte	0xa97
 5010 1e72 29       		.uleb128 0x29
 5011 1e73 01       		.byte	0x1
 5012 1e74 6E1E0000 		.4byte	.LASF439
 5013 1e78 01       		.byte	0x1
 5014 1e79 A403     		.2byte	0x3a4
 5015 1e7b 01       		.byte	0x1
 5016 1e7c 00000000 		.4byte	.LFB56
 5017 1e80 0E000000 		.4byte	.LFE56
 5018 1e84 F8030000 		.4byte	.LLST59
 5019 1e88 01       		.byte	0x1
 5020 1e89 BF1E0000 		.4byte	0x1ebf
 5021 1e8d 2A       		.uleb128 0x2a
 5022 1e8e E8040000 		.4byte	.LASF421
 5023 1e92 01       		.byte	0x1
 5024 1e93 A403     		.2byte	0x3a4
 5025 1e95 2E120000 		.4byte	0x122e
 5026 1e99 18040000 		.4byte	.LLST60
 5027 1e9d 2A       		.uleb128 0x2a
 5028 1e9e 300B0000 		.4byte	.LASF440
 5029 1ea2 01       		.byte	0x1
 5030 1ea3 A403     		.2byte	0x3a4
 5031 1ea5 BF1E0000 		.4byte	0x1ebf
 5032 1ea9 39040000 		.4byte	.LLST61
 5033 1ead 2B       		.uleb128 0x2b
 5034 1eae 0C000000 		.4byte	.LVL87
 5035 1eb2 8F250000 		.4byte	0x258f
 5036 1eb6 2C       		.uleb128 0x2c
 5037 1eb7 01       		.byte	0x1
 5038 1eb8 50       		.byte	0x50
 5039 1eb9 03       		.byte	0x3
 5040 1eba F3       		.byte	0xf3
 5041 1ebb 01       		.uleb128 0x1
 5042 1ebc 51       		.byte	0x51
 5043 1ebd 00       		.byte	0
 5044 1ebe 00       		.byte	0
 5045 1ebf 0A       		.uleb128 0xa
 5046 1ec0 04       		.byte	0x4
 5047 1ec1 EA190000 		.4byte	0x19ea
 5048 1ec5 2D       		.uleb128 0x2d
 5049 1ec6 01       		.byte	0x1
 5050 1ec7 FB130000 		.4byte	.LASF441
 5051 1ecb 01       		.byte	0x1
 5052 1ecc 8F03     		.2byte	0x38f
 5053 1ece 01       		.byte	0x1
 5054 1ecf B1000000 		.4byte	0xb1
 5055 1ed3 00000000 		.4byte	.LFB55
 5056 1ed7 16000000 		.4byte	.LFE55
 5057 1edb 5A040000 		.4byte	.LLST55
 5058 1edf 01       		.byte	0x1
 5059 1ee0 1E1F0000 		.4byte	0x1f1e
 5060 1ee4 2A       		.uleb128 0x2a
 5061 1ee5 E8040000 		.4byte	.LASF421
 5062 1ee9 01       		.byte	0x1
 5063 1eea 8F03     		.2byte	0x38f
ARM GAS  C:\Users\EBANO_~1\AppData\Local\Temp\ccOSDu2a.s 			page 109


 5064 1eec 2E120000 		.4byte	0x122e
 5065 1ef0 7A040000 		.4byte	.LLST56
 5066 1ef4 2A       		.uleb128 0x2a
 5067 1ef5 5B120000 		.4byte	.LASF442
 5068 1ef9 01       		.byte	0x1
 5069 1efa 8F03     		.2byte	0x38f
 5070 1efc B1000000 		.4byte	0xb1
 5071 1f00 B4040000 		.4byte	.LLST57
 5072 1f04 2A       		.uleb128 0x2a
 5073 1f05 5F040000 		.4byte	.LASF443
 5074 1f09 01       		.byte	0x1
 5075 1f0a 8F03     		.2byte	0x38f
 5076 1f0c 76190000 		.4byte	0x1976
 5077 1f10 EE040000 		.4byte	.LLST58
 5078 1f14 30       		.uleb128 0x30
 5079 1f15 14000000 		.4byte	.LVL84
 5080 1f19 9D250000 		.4byte	0x259d
 5081 1f1d 00       		.byte	0
 5082 1f1e 2D       		.uleb128 0x2d
 5083 1f1f 01       		.byte	0x1
 5084 1f20 100E0000 		.4byte	.LASF444
 5085 1f24 01       		.byte	0x1
 5086 1f25 7A03     		.2byte	0x37a
 5087 1f27 01       		.byte	0x1
 5088 1f28 BC000000 		.4byte	0xbc
 5089 1f2c 00000000 		.4byte	.LFB54
 5090 1f30 12000000 		.4byte	.LFE54
 5091 1f34 28050000 		.4byte	.LLST52
 5092 1f38 01       		.byte	0x1
 5093 1f39 6F1F0000 		.4byte	0x1f6f
 5094 1f3d 2A       		.uleb128 0x2a
 5095 1f3e E8040000 		.4byte	.LASF421
 5096 1f42 01       		.byte	0x1
 5097 1f43 7A03     		.2byte	0x37a
 5098 1f45 2E120000 		.4byte	0x122e
 5099 1f49 48050000 		.4byte	.LLST53
 5100 1f4d 2A       		.uleb128 0x2a
 5101 1f4e 24100000 		.4byte	.LASF445
 5102 1f52 01       		.byte	0x1
 5103 1f53 7A03     		.2byte	0x37a
 5104 1f55 6F1F0000 		.4byte	0x1f6f
 5105 1f59 82050000 		.4byte	.LLST54
 5106 1f5d 2B       		.uleb128 0x2b
 5107 1f5e 10000000 		.4byte	.LVL78
 5108 1f62 AB250000 		.4byte	0x25ab
 5109 1f66 2C       		.uleb128 0x2c
 5110 1f67 01       		.byte	0x1
 5111 1f68 50       		.byte	0x50
 5112 1f69 03       		.byte	0x3
 5113 1f6a F3       		.byte	0xf3
 5114 1f6b 01       		.uleb128 0x1
 5115 1f6c 51       		.byte	0x51
 5116 1f6d 00       		.byte	0
 5117 1f6e 00       		.byte	0
 5118 1f6f 0A       		.uleb128 0xa
 5119 1f70 04       		.byte	0x4
 5120 1f71 4B190000 		.4byte	0x194b
ARM GAS  C:\Users\EBANO_~1\AppData\Local\Temp\ccOSDu2a.s 			page 110


 5121 1f75 2D       		.uleb128 0x2d
 5122 1f76 01       		.byte	0x1
 5123 1f77 FA100000 		.4byte	.LASF446
 5124 1f7b 01       		.byte	0x1
 5125 1f7c 6503     		.2byte	0x365
 5126 1f7e 01       		.byte	0x1
 5127 1f7f B1000000 		.4byte	0xb1
 5128 1f83 00000000 		.4byte	.LFB53
 5129 1f87 12000000 		.4byte	.LFE53
 5130 1f8b BC050000 		.4byte	.LLST49
 5131 1f8f 01       		.byte	0x1
 5132 1f90 C61F0000 		.4byte	0x1fc6
 5133 1f94 2A       		.uleb128 0x2a
 5134 1f95 E8040000 		.4byte	.LASF421
 5135 1f99 01       		.byte	0x1
 5136 1f9a 6503     		.2byte	0x365
 5137 1f9c 2E120000 		.4byte	0x122e
 5138 1fa0 DC050000 		.4byte	.LLST50
 5139 1fa4 2A       		.uleb128 0x2a
 5140 1fa5 AD050000 		.4byte	.LASF447
 5141 1fa9 01       		.byte	0x1
 5142 1faa 6503     		.2byte	0x365
 5143 1fac C61F0000 		.4byte	0x1fc6
 5144 1fb0 16060000 		.4byte	.LLST51
 5145 1fb4 2B       		.uleb128 0x2b
 5146 1fb5 10000000 		.4byte	.LVL73
 5147 1fb9 B9250000 		.4byte	0x25b9
 5148 1fbd 2C       		.uleb128 0x2c
 5149 1fbe 01       		.byte	0x1
 5150 1fbf 50       		.byte	0x50
 5151 1fc0 03       		.byte	0x3
 5152 1fc1 F3       		.byte	0xf3
 5153 1fc2 01       		.uleb128 0x1
 5154 1fc3 51       		.byte	0x51
 5155 1fc4 00       		.byte	0
 5156 1fc5 00       		.byte	0
 5157 1fc6 0A       		.uleb128 0xa
 5158 1fc7 04       		.byte	0x4
 5159 1fc8 13190000 		.4byte	0x1913
 5160 1fcc 2D       		.uleb128 0x2d
 5161 1fcd 01       		.byte	0x1
 5162 1fce 5E1D0000 		.4byte	.LASF448
 5163 1fd2 01       		.byte	0x1
 5164 1fd3 5003     		.2byte	0x350
 5165 1fd5 01       		.byte	0x1
 5166 1fd6 BC000000 		.4byte	0xbc
 5167 1fda 00000000 		.4byte	.LFB52
 5168 1fde 12000000 		.4byte	.LFE52
 5169 1fe2 50060000 		.4byte	.LLST46
 5170 1fe6 01       		.byte	0x1
 5171 1fe7 1D200000 		.4byte	0x201d
 5172 1feb 2A       		.uleb128 0x2a
 5173 1fec E8040000 		.4byte	.LASF421
 5174 1ff0 01       		.byte	0x1
 5175 1ff1 5003     		.2byte	0x350
 5176 1ff3 2E120000 		.4byte	0x122e
 5177 1ff7 70060000 		.4byte	.LLST47
ARM GAS  C:\Users\EBANO_~1\AppData\Local\Temp\ccOSDu2a.s 			page 111


 5178 1ffb 2A       		.uleb128 0x2a
 5179 1ffc 69020000 		.4byte	.LASF449
 5180 2000 01       		.byte	0x1
 5181 2001 5003     		.2byte	0x350
 5182 2003 1D200000 		.4byte	0x201d
 5183 2007 AA060000 		.4byte	.LLST48
 5184 200b 2B       		.uleb128 0x2b
 5185 200c 10000000 		.4byte	.LVL68
 5186 2010 C7250000 		.4byte	0x25c7
 5187 2014 2C       		.uleb128 0x2c
 5188 2015 01       		.byte	0x1
 5189 2016 50       		.byte	0x50
 5190 2017 03       		.byte	0x3
 5191 2018 F3       		.byte	0xf3
 5192 2019 01       		.uleb128 0x1
 5193 201a 51       		.byte	0x51
 5194 201b 00       		.byte	0
 5195 201c 00       		.byte	0
 5196 201d 0A       		.uleb128 0xa
 5197 201e 04       		.byte	0x4
 5198 201f CC180000 		.4byte	0x18cc
 5199 2023 2D       		.uleb128 0x2d
 5200 2024 01       		.byte	0x1
 5201 2025 B40D0000 		.4byte	.LASF450
 5202 2029 01       		.byte	0x1
 5203 202a 3B03     		.2byte	0x33b
 5204 202c 01       		.byte	0x1
 5205 202d BC000000 		.4byte	0xbc
 5206 2031 00000000 		.4byte	.LFB51
 5207 2035 12000000 		.4byte	.LFE51
 5208 2039 E4060000 		.4byte	.LLST43
 5209 203d 01       		.byte	0x1
 5210 203e 74200000 		.4byte	0x2074
 5211 2042 2A       		.uleb128 0x2a
 5212 2043 E8040000 		.4byte	.LASF421
 5213 2047 01       		.byte	0x1
 5214 2048 3B03     		.2byte	0x33b
 5215 204a 2E120000 		.4byte	0x122e
 5216 204e 04070000 		.4byte	.LLST44
 5217 2052 2A       		.uleb128 0x2a
 5218 2053 AC020000 		.4byte	.LASF451
 5219 2057 01       		.byte	0x1
 5220 2058 3B03     		.2byte	0x33b
 5221 205a 74200000 		.4byte	0x2074
 5222 205e 3E070000 		.4byte	.LLST45
 5223 2062 2B       		.uleb128 0x2b
 5224 2063 10000000 		.4byte	.LVL63
 5225 2067 D5250000 		.4byte	0x25d5
 5226 206b 2C       		.uleb128 0x2c
 5227 206c 01       		.byte	0x1
 5228 206d 50       		.byte	0x50
 5229 206e 03       		.byte	0x3
 5230 206f F3       		.byte	0xf3
 5231 2070 01       		.uleb128 0x1
 5232 2071 51       		.byte	0x51
 5233 2072 00       		.byte	0
 5234 2073 00       		.byte	0
ARM GAS  C:\Users\EBANO_~1\AppData\Local\Temp\ccOSDu2a.s 			page 112


 5235 2074 0A       		.uleb128 0xa
 5236 2075 04       		.byte	0x4
 5237 2076 94180000 		.4byte	0x1894
 5238 207a 2D       		.uleb128 0x2d
 5239 207b 01       		.byte	0x1
 5240 207c 13100000 		.4byte	.LASF452
 5241 2080 01       		.byte	0x1
 5242 2081 2603     		.2byte	0x326
 5243 2083 01       		.byte	0x1
 5244 2084 BC000000 		.4byte	0xbc
 5245 2088 00000000 		.4byte	.LFB50
 5246 208c 22000000 		.4byte	.LFE50
 5247 2090 78070000 		.4byte	.LLST38
 5248 2094 01       		.byte	0x1
 5249 2095 17210000 		.4byte	0x2117
 5250 2099 2A       		.uleb128 0x2a
 5251 209a E8040000 		.4byte	.LASF421
 5252 209e 01       		.byte	0x1
 5253 209f 2603     		.2byte	0x326
 5254 20a1 2E120000 		.4byte	0x122e
 5255 20a5 A4070000 		.4byte	.LLST39
 5256 20a9 2A       		.uleb128 0x2a
 5257 20aa 450F0000 		.4byte	.LASF453
 5258 20ae 01       		.byte	0x1
 5259 20af 2603     		.2byte	0x326
 5260 20b1 17210000 		.4byte	0x2117
 5261 20b5 DE070000 		.4byte	.LLST40
 5262 20b9 2A       		.uleb128 0x2a
 5263 20ba 95160000 		.4byte	.LASF454
 5264 20be 01       		.byte	0x1
 5265 20bf 2603     		.2byte	0x326
 5266 20c1 1D210000 		.4byte	0x211d
 5267 20c5 15080000 		.4byte	.LLST41
 5268 20c9 2A       		.uleb128 0x2a
 5269 20ca 1D150000 		.4byte	.LASF455
 5270 20ce 01       		.byte	0x1
 5271 20cf 2603     		.2byte	0x326
 5272 20d1 1D210000 		.4byte	0x211d
 5273 20d5 5A080000 		.4byte	.LLST42
 5274 20d9 2F       		.uleb128 0x2f
 5275 20da E30E0000 		.4byte	.LASF456
 5276 20de 01       		.byte	0x1
 5277 20df 2603     		.2byte	0x326
 5278 20e1 840A0000 		.4byte	0xa84
 5279 20e5 02       		.byte	0x2
 5280 20e6 91       		.byte	0x91
 5281 20e7 00       		.sleb128 0
 5282 20e8 2F       		.uleb128 0x2f
 5283 20e9 F10C0000 		.4byte	.LASF457
 5284 20ed 01       		.byte	0x1
 5285 20ee 2603     		.2byte	0x326
 5286 20f0 840A0000 		.4byte	0xa84
 5287 20f4 02       		.byte	0x2
 5288 20f5 91       		.byte	0x91
 5289 20f6 04       		.sleb128 4
 5290 20f7 2B       		.uleb128 0x2b
 5291 20f8 20000000 		.4byte	.LVL58
ARM GAS  C:\Users\EBANO_~1\AppData\Local\Temp\ccOSDu2a.s 			page 113


 5292 20fc E3250000 		.4byte	0x25e3
 5293 2100 2C       		.uleb128 0x2c
 5294 2101 01       		.byte	0x1
 5295 2102 50       		.byte	0x50
 5296 2103 02       		.byte	0x2
 5297 2104 74       		.byte	0x74
 5298 2105 00       		.sleb128 0
 5299 2106 2C       		.uleb128 0x2c
 5300 2107 01       		.byte	0x1
 5301 2108 53       		.byte	0x53
 5302 2109 03       		.byte	0x3
 5303 210a 91       		.byte	0x91
 5304 210b 00       		.sleb128 0
 5305 210c 06       		.byte	0x6
 5306 210d 2C       		.uleb128 0x2c
 5307 210e 02       		.byte	0x2
 5308 210f 7D       		.byte	0x7d
 5309 2110 00       		.sleb128 0
 5310 2111 03       		.byte	0x3
 5311 2112 91       		.byte	0x91
 5312 2113 04       		.sleb128 4
 5313 2114 06       		.byte	0x6
 5314 2115 00       		.byte	0
 5315 2116 00       		.byte	0
 5316 2117 0A       		.uleb128 0xa
 5317 2118 04       		.byte	0x4
 5318 2119 4D180000 		.4byte	0x184d
 5319 211d 0A       		.uleb128 0xa
 5320 211e 04       		.byte	0x4
 5321 211f B1000000 		.4byte	0xb1
 5322 2123 2D       		.uleb128 0x2d
 5323 2124 01       		.byte	0x1
 5324 2125 CA1A0000 		.4byte	.LASF458
 5325 2129 01       		.byte	0x1
 5326 212a 1103     		.2byte	0x311
 5327 212c 01       		.byte	0x1
 5328 212d 150B0000 		.4byte	0xb15
 5329 2131 00000000 		.4byte	.LFB49
 5330 2135 18000000 		.4byte	.LFE49
 5331 2139 94080000 		.4byte	.LLST33
 5332 213d 01       		.byte	0x1
 5333 213e 9A210000 		.4byte	0x219a
 5334 2142 2A       		.uleb128 0x2a
 5335 2143 E8040000 		.4byte	.LASF421
 5336 2147 01       		.byte	0x1
 5337 2148 1103     		.2byte	0x311
 5338 214a 2E120000 		.4byte	0x122e
 5339 214e B4080000 		.4byte	.LLST34
 5340 2152 2A       		.uleb128 0x2a
 5341 2153 A4180000 		.4byte	.LASF459
 5342 2157 01       		.byte	0x1
 5343 2158 1103     		.2byte	0x311
 5344 215a 9A210000 		.4byte	0x219a
 5345 215e EE080000 		.4byte	.LLST35
 5346 2162 2A       		.uleb128 0x2a
 5347 2163 3D0F0000 		.4byte	.LASF460
 5348 2167 01       		.byte	0x1
ARM GAS  C:\Users\EBANO_~1\AppData\Local\Temp\ccOSDu2a.s 			page 114


 5349 2168 1103     		.2byte	0x311
 5350 216a 1D210000 		.4byte	0x211d
 5351 216e 25090000 		.4byte	.LLST36
 5352 2172 2A       		.uleb128 0x2a
 5353 2173 1C120000 		.4byte	.LASF461
 5354 2177 01       		.byte	0x1
 5355 2178 1103     		.2byte	0x311
 5356 217a 6C1E0000 		.4byte	0x1e6c
 5357 217e 5F090000 		.4byte	.LLST37
 5358 2182 2B       		.uleb128 0x2b
 5359 2183 16000000 		.4byte	.LVL50
 5360 2187 F1250000 		.4byte	0x25f1
 5361 218b 2C       		.uleb128 0x2c
 5362 218c 01       		.byte	0x1
 5363 218d 50       		.byte	0x50
 5364 218e 02       		.byte	0x2
 5365 218f 74       		.byte	0x74
 5366 2190 00       		.sleb128 0
 5367 2191 2C       		.uleb128 0x2c
 5368 2192 01       		.byte	0x1
 5369 2193 52       		.byte	0x52
 5370 2194 03       		.byte	0x3
 5371 2195 F3       		.byte	0xf3
 5372 2196 01       		.uleb128 0x1
 5373 2197 53       		.byte	0x53
 5374 2198 00       		.byte	0
 5375 2199 00       		.byte	0
 5376 219a 0A       		.uleb128 0xa
 5377 219b 04       		.byte	0x4
 5378 219c BB170000 		.4byte	0x17bb
 5379 21a0 2D       		.uleb128 0x2d
 5380 21a1 01       		.byte	0x1
 5381 21a2 2E0F0000 		.4byte	.LASF462
 5382 21a6 01       		.byte	0x1
 5383 21a7 FC02     		.2byte	0x2fc
 5384 21a9 01       		.byte	0x1
 5385 21aa 150B0000 		.4byte	0xb15
 5386 21ae 00000000 		.4byte	.LFB48
 5387 21b2 16000000 		.4byte	.LFE48
 5388 21b6 99090000 		.4byte	.LLST29
 5389 21ba 01       		.byte	0x1
 5390 21bb 08220000 		.4byte	0x2208
 5391 21bf 2A       		.uleb128 0x2a
 5392 21c0 E8040000 		.4byte	.LASF421
 5393 21c4 01       		.byte	0x1
 5394 21c5 FC02     		.2byte	0x2fc
 5395 21c7 2E120000 		.4byte	0x122e
 5396 21cb B9090000 		.4byte	.LLST30
 5397 21cf 2A       		.uleb128 0x2a
 5398 21d0 5E170000 		.4byte	.LASF463
 5399 21d4 01       		.byte	0x1
 5400 21d5 FC02     		.2byte	0x2fc
 5401 21d7 08220000 		.4byte	0x2208
 5402 21db F3090000 		.4byte	.LLST31
 5403 21df 2A       		.uleb128 0x2a
 5404 21e0 22040000 		.4byte	.LASF464
 5405 21e4 01       		.byte	0x1
ARM GAS  C:\Users\EBANO_~1\AppData\Local\Temp\ccOSDu2a.s 			page 115


 5406 21e5 FC02     		.2byte	0x2fc
 5407 21e7 1D210000 		.4byte	0x211d
 5408 21eb 380A0000 		.4byte	.LLST32
 5409 21ef 2B       		.uleb128 0x2b
 5410 21f0 14000000 		.4byte	.LVL43
 5411 21f4 FF250000 		.4byte	0x25ff
 5412 21f8 2C       		.uleb128 0x2c
 5413 21f9 01       		.byte	0x1
 5414 21fa 50       		.byte	0x50
 5415 21fb 03       		.byte	0x3
 5416 21fc F3       		.byte	0xf3
 5417 21fd 01       		.uleb128 0x1
 5418 21fe 51       		.byte	0x51
 5419 21ff 2C       		.uleb128 0x2c
 5420 2200 01       		.byte	0x1
 5421 2201 51       		.byte	0x51
 5422 2202 03       		.byte	0x3
 5423 2203 F3       		.byte	0xf3
 5424 2204 01       		.uleb128 0x1
 5425 2205 52       		.byte	0x52
 5426 2206 00       		.byte	0
 5427 2207 00       		.byte	0
 5428 2208 0A       		.uleb128 0xa
 5429 2209 04       		.byte	0x4
 5430 220a 47170000 		.4byte	0x1747
 5431 220e 29       		.uleb128 0x29
 5432 220f 01       		.byte	0x1
 5433 2210 400A0000 		.4byte	.LASF465
 5434 2214 01       		.byte	0x1
 5435 2215 E702     		.2byte	0x2e7
 5436 2217 01       		.byte	0x1
 5437 2218 00000000 		.4byte	.LFB47
 5438 221c 16000000 		.4byte	.LFE47
 5439 2220 720A0000 		.4byte	.LLST24
 5440 2224 01       		.byte	0x1
 5441 2225 97220000 		.4byte	0x2297
 5442 2229 2A       		.uleb128 0x2a
 5443 222a E8040000 		.4byte	.LASF421
 5444 222e 01       		.byte	0x1
 5445 222f E702     		.2byte	0x2e7
 5446 2231 2E120000 		.4byte	0x122e
 5447 2235 920A0000 		.4byte	.LLST25
 5448 2239 2A       		.uleb128 0x2a
 5449 223a 22040000 		.4byte	.LASF464
 5450 223e 01       		.byte	0x1
 5451 223f E702     		.2byte	0x2e7
 5452 2241 B1000000 		.4byte	0xb1
 5453 2245 B30A0000 		.4byte	.LLST26
 5454 2249 2A       		.uleb128 0x2a
 5455 224a 0A130000 		.4byte	.LASF466
 5456 224e 01       		.byte	0x1
 5457 224f E702     		.2byte	0x2e7
 5458 2251 BC000000 		.4byte	0xbc
 5459 2255 D40A0000 		.4byte	.LLST27
 5460 2259 2A       		.uleb128 0x2a
 5461 225a A5160000 		.4byte	.LASF467
 5462 225e 01       		.byte	0x1
ARM GAS  C:\Users\EBANO_~1\AppData\Local\Temp\ccOSDu2a.s 			page 116


 5463 225f E702     		.2byte	0x2e7
 5464 2261 ED000000 		.4byte	0xed
 5465 2265 F50A0000 		.4byte	.LLST28
 5466 2269 2F       		.uleb128 0x2f
 5467 226a BC080000 		.4byte	.LASF468
 5468 226e 01       		.byte	0x1
 5469 226f E702     		.2byte	0x2e7
 5470 2271 08220000 		.4byte	0x2208
 5471 2275 02       		.byte	0x2
 5472 2276 91       		.byte	0x91
 5473 2277 00       		.sleb128 0
 5474 2278 2B       		.uleb128 0x2b
 5475 2279 14000000 		.4byte	.LVL37
 5476 227d 0D260000 		.4byte	0x260d
 5477 2281 2C       		.uleb128 0x2c
 5478 2282 01       		.byte	0x1
 5479 2283 50       		.byte	0x50
 5480 2284 02       		.byte	0x2
 5481 2285 74       		.byte	0x74
 5482 2286 00       		.sleb128 0
 5483 2287 2C       		.uleb128 0x2c
 5484 2288 01       		.byte	0x1
 5485 2289 52       		.byte	0x52
 5486 228a 03       		.byte	0x3
 5487 228b F3       		.byte	0xf3
 5488 228c 01       		.uleb128 0x1
 5489 228d 53       		.byte	0x53
 5490 228e 2C       		.uleb128 0x2c
 5491 228f 01       		.byte	0x1
 5492 2290 53       		.byte	0x53
 5493 2291 03       		.byte	0x3
 5494 2292 91       		.byte	0x91
 5495 2293 00       		.sleb128 0
 5496 2294 06       		.byte	0x6
 5497 2295 00       		.byte	0
 5498 2296 00       		.byte	0
 5499 2297 2D       		.uleb128 0x2d
 5500 2298 01       		.byte	0x1
 5501 2299 3F130000 		.4byte	.LASF469
 5502 229d 01       		.byte	0x1
 5503 229e D202     		.2byte	0x2d2
 5504 22a0 01       		.byte	0x1
 5505 22a1 150B0000 		.4byte	0xb15
 5506 22a5 00000000 		.4byte	.LFB46
 5507 22a9 12000000 		.4byte	.LFE46
 5508 22ad 210B0000 		.4byte	.LLST21
 5509 22b1 01       		.byte	0x1
 5510 22b2 E8220000 		.4byte	0x22e8
 5511 22b6 2A       		.uleb128 0x2a
 5512 22b7 E8040000 		.4byte	.LASF421
 5513 22bb 01       		.byte	0x1
 5514 22bc D202     		.2byte	0x2d2
 5515 22be 2E120000 		.4byte	0x122e
 5516 22c2 410B0000 		.4byte	.LLST22
 5517 22c6 2A       		.uleb128 0x2a
 5518 22c7 A7000000 		.4byte	.LASF470
 5519 22cb 01       		.byte	0x1
ARM GAS  C:\Users\EBANO_~1\AppData\Local\Temp\ccOSDu2a.s 			page 117


 5520 22cc D202     		.2byte	0x2d2
 5521 22ce E8220000 		.4byte	0x22e8
 5522 22d2 7B0B0000 		.4byte	.LLST23
 5523 22d6 2B       		.uleb128 0x2b
 5524 22d7 10000000 		.4byte	.LVL31
 5525 22db 1B260000 		.4byte	0x261b
 5526 22df 2C       		.uleb128 0x2c
 5527 22e0 01       		.byte	0x1
 5528 22e1 50       		.byte	0x50
 5529 22e2 03       		.byte	0x3
 5530 22e3 F3       		.byte	0xf3
 5531 22e4 01       		.uleb128 0x1
 5532 22e5 51       		.byte	0x51
 5533 22e6 00       		.byte	0
 5534 22e7 00       		.byte	0
 5535 22e8 0A       		.uleb128 0xa
 5536 22e9 04       		.byte	0x4
 5537 22ea 88160000 		.4byte	0x1688
 5538 22ee 29       		.uleb128 0x29
 5539 22ef 01       		.byte	0x1
 5540 22f0 61090000 		.4byte	.LASF471
 5541 22f4 01       		.byte	0x1
 5542 22f5 BD02     		.2byte	0x2bd
 5543 22f7 01       		.byte	0x1
 5544 22f8 00000000 		.4byte	.LFB45
 5545 22fc 0E000000 		.4byte	.LFE45
 5546 2300 B50B0000 		.4byte	.LLST18
 5547 2304 01       		.byte	0x1
 5548 2305 3B230000 		.4byte	0x233b
 5549 2309 2A       		.uleb128 0x2a
 5550 230a E8040000 		.4byte	.LASF421
 5551 230e 01       		.byte	0x1
 5552 230f BD02     		.2byte	0x2bd
 5553 2311 2E120000 		.4byte	0x122e
 5554 2315 D50B0000 		.4byte	.LLST19
 5555 2319 2A       		.uleb128 0x2a
 5556 231a EF040000 		.4byte	.LASF472
 5557 231e 01       		.byte	0x1
 5558 231f BD02     		.2byte	0x2bd
 5559 2321 3B230000 		.4byte	0x233b
 5560 2325 F60B0000 		.4byte	.LLST20
 5561 2329 2B       		.uleb128 0x2b
 5562 232a 0C000000 		.4byte	.LVL26
 5563 232e 29260000 		.4byte	0x2629
 5564 2332 2C       		.uleb128 0x2c
 5565 2333 01       		.byte	0x1
 5566 2334 50       		.byte	0x50
 5567 2335 03       		.byte	0x3
 5568 2336 F3       		.byte	0xf3
 5569 2337 01       		.uleb128 0x1
 5570 2338 51       		.byte	0x51
 5571 2339 00       		.byte	0
 5572 233a 00       		.byte	0
 5573 233b 0A       		.uleb128 0xa
 5574 233c 04       		.byte	0x4
 5575 233d 50160000 		.4byte	0x1650
 5576 2341 2D       		.uleb128 0x2d
ARM GAS  C:\Users\EBANO_~1\AppData\Local\Temp\ccOSDu2a.s 			page 118


 5577 2342 01       		.byte	0x1
 5578 2343 B0030000 		.4byte	.LASF473
 5579 2347 01       		.byte	0x1
 5580 2348 A802     		.2byte	0x2a8
 5581 234a 01       		.byte	0x1
 5582 234b 150B0000 		.4byte	0xb15
 5583 234f 00000000 		.4byte	.LFB44
 5584 2353 16000000 		.4byte	.LFE44
 5585 2357 170C0000 		.4byte	.LLST14
 5586 235b 01       		.byte	0x1
 5587 235c A2230000 		.4byte	0x23a2
 5588 2360 2A       		.uleb128 0x2a
 5589 2361 E8040000 		.4byte	.LASF421
 5590 2365 01       		.byte	0x1
 5591 2366 A802     		.2byte	0x2a8
 5592 2368 2E120000 		.4byte	0x122e
 5593 236c 370C0000 		.4byte	.LLST15
 5594 2370 2A       		.uleb128 0x2a
 5595 2371 01030000 		.4byte	.LASF474
 5596 2375 01       		.byte	0x1
 5597 2376 A802     		.2byte	0x2a8
 5598 2378 A2230000 		.4byte	0x23a2
 5599 237c 710C0000 		.4byte	.LLST16
 5600 2380 2A       		.uleb128 0x2a
 5601 2381 29130000 		.4byte	.LASF475
 5602 2385 01       		.byte	0x1
 5603 2386 A802     		.2byte	0x2a8
 5604 2388 A8130000 		.4byte	0x13a8
 5605 238c B60C0000 		.4byte	.LLST17
 5606 2390 2B       		.uleb128 0x2b
 5607 2391 14000000 		.4byte	.LVL23
 5608 2395 37260000 		.4byte	0x2637
 5609 2399 2C       		.uleb128 0x2c
 5610 239a 01       		.byte	0x1
 5611 239b 50       		.byte	0x50
 5612 239c 03       		.byte	0x3
 5613 239d F3       		.byte	0xf3
 5614 239e 01       		.uleb128 0x1
 5615 239f 51       		.byte	0x51
 5616 23a0 00       		.byte	0
 5617 23a1 00       		.byte	0
 5618 23a2 0A       		.uleb128 0xa
 5619 23a3 04       		.byte	0x4
 5620 23a4 18160000 		.4byte	0x1618
 5621 23a8 2D       		.uleb128 0x2d
 5622 23a9 01       		.byte	0x1
 5623 23aa 59020000 		.4byte	.LASF476
 5624 23ae 01       		.byte	0x1
 5625 23af 9302     		.2byte	0x293
 5626 23b1 01       		.byte	0x1
 5627 23b2 82010000 		.4byte	0x182
 5628 23b6 00000000 		.4byte	.LFB43
 5629 23ba 12000000 		.4byte	.LFE43
 5630 23be F00C0000 		.4byte	.LLST11
 5631 23c2 01       		.byte	0x1
 5632 23c3 F9230000 		.4byte	0x23f9
 5633 23c7 2A       		.uleb128 0x2a
ARM GAS  C:\Users\EBANO_~1\AppData\Local\Temp\ccOSDu2a.s 			page 119


 5634 23c8 E8040000 		.4byte	.LASF421
 5635 23cc 01       		.byte	0x1
 5636 23cd 9302     		.2byte	0x293
 5637 23cf 2E120000 		.4byte	0x122e
 5638 23d3 100D0000 		.4byte	.LLST12
 5639 23d7 2A       		.uleb128 0x2a
 5640 23d8 FF0C0000 		.4byte	.LASF477
 5641 23dc 01       		.byte	0x1
 5642 23dd 9302     		.2byte	0x293
 5643 23df F9230000 		.4byte	0x23f9
 5644 23e3 4A0D0000 		.4byte	.LLST13
 5645 23e7 2B       		.uleb128 0x2b
 5646 23e8 0C000000 		.4byte	.LVL15
 5647 23ec 45260000 		.4byte	0x2645
 5648 23f0 2C       		.uleb128 0x2c
 5649 23f1 01       		.byte	0x1
 5650 23f2 50       		.byte	0x50
 5651 23f3 03       		.byte	0x3
 5652 23f4 F3       		.byte	0xf3
 5653 23f5 01       		.uleb128 0x1
 5654 23f6 51       		.byte	0x51
 5655 23f7 00       		.byte	0
 5656 23f8 00       		.byte	0
 5657 23f9 0A       		.uleb128 0xa
 5658 23fa 04       		.byte	0x4
 5659 23fb 9F150000 		.4byte	0x159f
 5660 23ff 29       		.uleb128 0x29
 5661 2400 01       		.byte	0x1
 5662 2401 94020000 		.4byte	.LASF478
 5663 2405 01       		.byte	0x1
 5664 2406 7E02     		.2byte	0x27e
 5665 2408 01       		.byte	0x1
 5666 2409 00000000 		.4byte	.LFB42
 5667 240d 0E000000 		.4byte	.LFE42
 5668 2411 760D0000 		.4byte	.LLST8
 5669 2415 01       		.byte	0x1
 5670 2416 4C240000 		.4byte	0x244c
 5671 241a 2A       		.uleb128 0x2a
 5672 241b E8040000 		.4byte	.LASF421
 5673 241f 01       		.byte	0x1
 5674 2420 7E02     		.2byte	0x27e
 5675 2422 2E120000 		.4byte	0x122e
 5676 2426 960D0000 		.4byte	.LLST9
 5677 242a 2A       		.uleb128 0x2a
 5678 242b FF0C0000 		.4byte	.LASF477
 5679 242f 01       		.byte	0x1
 5680 2430 7E02     		.2byte	0x27e
 5681 2432 4C240000 		.4byte	0x244c
 5682 2436 B70D0000 		.4byte	.LLST10
 5683 243a 2B       		.uleb128 0x2b
 5684 243b 0C000000 		.4byte	.LVL12
 5685 243f 53260000 		.4byte	0x2653
 5686 2443 2C       		.uleb128 0x2c
 5687 2444 01       		.byte	0x1
 5688 2445 50       		.byte	0x50
 5689 2446 03       		.byte	0x3
 5690 2447 F3       		.byte	0xf3
ARM GAS  C:\Users\EBANO_~1\AppData\Local\Temp\ccOSDu2a.s 			page 120


 5691 2448 01       		.uleb128 0x1
 5692 2449 51       		.byte	0x51
 5693 244a 00       		.byte	0
 5694 244b 00       		.byte	0
 5695 244c 0A       		.uleb128 0xa
 5696 244d 04       		.byte	0x4
 5697 244e 76150000 		.4byte	0x1576
 5698 2452 29       		.uleb128 0x29
 5699 2453 01       		.byte	0x1
 5700 2454 F61A0000 		.4byte	.LASF479
 5701 2458 01       		.byte	0x1
 5702 2459 6902     		.2byte	0x269
 5703 245b 01       		.byte	0x1
 5704 245c 00000000 		.4byte	.LFB41
 5705 2460 0E000000 		.4byte	.LFE41
 5706 2464 D80D0000 		.4byte	.LLST5
 5707 2468 01       		.byte	0x1
 5708 2469 9F240000 		.4byte	0x249f
 5709 246d 2A       		.uleb128 0x2a
 5710 246e E8040000 		.4byte	.LASF421
 5711 2472 01       		.byte	0x1
 5712 2473 6902     		.2byte	0x269
 5713 2475 2E120000 		.4byte	0x122e
 5714 2479 F80D0000 		.4byte	.LLST6
 5715 247d 2A       		.uleb128 0x2a
 5716 247e 4E040000 		.4byte	.LASF480
 5717 2482 01       		.byte	0x1
 5718 2483 6902     		.2byte	0x269
 5719 2485 9F240000 		.4byte	0x249f
 5720 2489 190E0000 		.4byte	.LLST7
 5721 248d 2B       		.uleb128 0x2b
 5722 248e 0C000000 		.4byte	.LVL9
 5723 2492 61260000 		.4byte	0x2661
 5724 2496 2C       		.uleb128 0x2c
 5725 2497 01       		.byte	0x1
 5726 2498 50       		.byte	0x50
 5727 2499 03       		.byte	0x3
 5728 249a F3       		.byte	0xf3
 5729 249b 01       		.uleb128 0x1
 5730 249c 51       		.byte	0x51
 5731 249d 00       		.byte	0
 5732 249e 00       		.byte	0
 5733 249f 0A       		.uleb128 0xa
 5734 24a0 04       		.byte	0x4
 5735 24a1 3E150000 		.4byte	0x153e
 5736 24a5 2D       		.uleb128 0x2d
 5737 24a6 01       		.byte	0x1
 5738 24a7 83190000 		.4byte	.LASF481
 5739 24ab 01       		.byte	0x1
 5740 24ac 5302     		.2byte	0x253
 5741 24ae 01       		.byte	0x1
 5742 24af A1140000 		.4byte	0x14a1
 5743 24b3 00000000 		.4byte	.LFB40
 5744 24b7 1C000000 		.4byte	.LFE40
 5745 24bb 3A0E0000 		.4byte	.LLST1
 5746 24bf 01       		.byte	0x1
 5747 24c0 06250000 		.4byte	0x2506
ARM GAS  C:\Users\EBANO_~1\AppData\Local\Temp\ccOSDu2a.s 			page 121


 5748 24c4 2A       		.uleb128 0x2a
 5749 24c5 E8040000 		.4byte	.LASF421
 5750 24c9 01       		.byte	0x1
 5751 24ca 5302     		.2byte	0x253
 5752 24cc 2E120000 		.4byte	0x122e
 5753 24d0 660E0000 		.4byte	.LLST2
 5754 24d4 2A       		.uleb128 0x2a
 5755 24d5 45160000 		.4byte	.LASF482
 5756 24d9 01       		.byte	0x1
 5757 24da 5302     		.2byte	0x253
 5758 24dc 06250000 		.4byte	0x2506
 5759 24e0 A00E0000 		.4byte	.LLST3
 5760 24e4 31       		.uleb128 0x31
 5761 24e5 99030000 		.4byte	.LASF483
 5762 24e9 01       		.byte	0x1
 5763 24ea 5502     		.2byte	0x255
 5764 24ec A1140000 		.4byte	0x14a1
 5765 24f0 DA0E0000 		.4byte	.LLST4
 5766 24f4 2B       		.uleb128 0x2b
 5767 24f5 18000000 		.4byte	.LVL6
 5768 24f9 6F260000 		.4byte	0x266f
 5769 24fd 2C       		.uleb128 0x2c
 5770 24fe 01       		.byte	0x1
 5771 24ff 50       		.byte	0x50
 5772 2500 03       		.byte	0x3
 5773 2501 F3       		.byte	0xf3
 5774 2502 01       		.uleb128 0x1
 5775 2503 51       		.byte	0x51
 5776 2504 00       		.byte	0
 5777 2505 00       		.byte	0
 5778 2506 0A       		.uleb128 0xa
 5779 2507 04       		.byte	0x4
 5780 2508 F7140000 		.4byte	0x14f7
 5781 250c 32       		.uleb128 0x32
 5782 250d 01       		.byte	0x1
 5783 250e 601C0000 		.4byte	.LASF484
 5784 2512 01       		.byte	0x1
 5785 2513 3E02     		.2byte	0x23e
 5786 2515 01       		.byte	0x1
 5787 2516 150B0000 		.4byte	0xb15
 5788 251a 00000000 		.4byte	.LFB39
 5789 251e 08000000 		.4byte	.LFE39
 5790 2522 02       		.byte	0x2
 5791 2523 7D       		.byte	0x7d
 5792 2524 00       		.sleb128 0
 5793 2525 01       		.byte	0x1
 5794 2526 3B250000 		.4byte	0x253b
 5795 252a 2A       		.uleb128 0x2a
 5796 252b E8040000 		.4byte	.LASF421
 5797 252f 01       		.byte	0x1
 5798 2530 3E02     		.2byte	0x23e
 5799 2532 2E120000 		.4byte	0x122e
 5800 2536 FE0E0000 		.4byte	.LLST0
 5801 253a 00       		.byte	0
 5802 253b 33       		.uleb128 0x33
 5803 253c 01       		.byte	0x1
 5804 253d 01       		.byte	0x1
ARM GAS  C:\Users\EBANO_~1\AppData\Local\Temp\ccOSDu2a.s 			page 122


 5805 253e EF140000 		.4byte	.LASF485
 5806 2542 EF140000 		.4byte	.LASF485
 5807 2546 0F       		.byte	0xf
 5808 2547 0E02     		.2byte	0x20e
 5809 2549 33       		.uleb128 0x33
 5810 254a 01       		.byte	0x1
 5811 254b 01       		.byte	0x1
 5812 254c 900E0000 		.4byte	.LASF486
 5813 2550 900E0000 		.4byte	.LASF486
 5814 2554 0F       		.byte	0xf
 5815 2555 0702     		.2byte	0x207
 5816 2557 33       		.uleb128 0x33
 5817 2558 01       		.byte	0x1
 5818 2559 01       		.byte	0x1
 5819 255a ED120000 		.4byte	.LASF487
 5820 255e ED120000 		.4byte	.LASF487
 5821 2562 0F       		.byte	0xf
 5822 2563 FA01     		.2byte	0x1fa
 5823 2565 33       		.uleb128 0x33
 5824 2566 01       		.byte	0x1
 5825 2567 01       		.byte	0x1
 5826 2568 C81C0000 		.4byte	.LASF488
 5827 256c C81C0000 		.4byte	.LASF488
 5828 2570 0F       		.byte	0xf
 5829 2571 F301     		.2byte	0x1f3
 5830 2573 33       		.uleb128 0x33
 5831 2574 01       		.byte	0x1
 5832 2575 01       		.byte	0x1
 5833 2576 241C0000 		.4byte	.LASF489
 5834 257a 241C0000 		.4byte	.LASF489
 5835 257e 0F       		.byte	0xf
 5836 257f EA01     		.2byte	0x1ea
 5837 2581 33       		.uleb128 0x33
 5838 2582 01       		.byte	0x1
 5839 2583 01       		.byte	0x1
 5840 2584 BD110000 		.4byte	.LASF490
 5841 2588 BD110000 		.4byte	.LASF490
 5842 258c 0F       		.byte	0xf
 5843 258d E101     		.2byte	0x1e1
 5844 258f 33       		.uleb128 0x33
 5845 2590 01       		.byte	0x1
 5846 2591 01       		.byte	0x1
 5847 2592 7F120000 		.4byte	.LASF491
 5848 2596 7F120000 		.4byte	.LASF491
 5849 259a 0F       		.byte	0xf
 5850 259b D301     		.2byte	0x1d3
 5851 259d 33       		.uleb128 0x33
 5852 259e 01       		.byte	0x1
 5853 259f 01       		.byte	0x1
 5854 25a0 AF150000 		.4byte	.LASF492
 5855 25a4 AF150000 		.4byte	.LASF492
 5856 25a8 0F       		.byte	0xf
 5857 25a9 CC01     		.2byte	0x1cc
 5858 25ab 33       		.uleb128 0x33
 5859 25ac 01       		.byte	0x1
 5860 25ad 01       		.byte	0x1
 5861 25ae A9010000 		.4byte	.LASF493
ARM GAS  C:\Users\EBANO_~1\AppData\Local\Temp\ccOSDu2a.s 			page 123


 5862 25b2 A9010000 		.4byte	.LASF493
 5863 25b6 0F       		.byte	0xf
 5864 25b7 C301     		.2byte	0x1c3
 5865 25b9 33       		.uleb128 0x33
 5866 25ba 01       		.byte	0x1
 5867 25bb 01       		.byte	0x1
 5868 25bc 00000000 		.4byte	.LASF494
 5869 25c0 00000000 		.4byte	.LASF494
 5870 25c4 0F       		.byte	0xf
 5871 25c5 BA01     		.2byte	0x1ba
 5872 25c7 33       		.uleb128 0x33
 5873 25c8 01       		.byte	0x1
 5874 25c9 01       		.byte	0x1
 5875 25ca 721D0000 		.4byte	.LASF495
 5876 25ce 721D0000 		.4byte	.LASF495
 5877 25d2 0F       		.byte	0xf
 5878 25d3 AF01     		.2byte	0x1af
 5879 25d5 33       		.uleb128 0x33
 5880 25d6 01       		.byte	0x1
 5881 25d7 01       		.byte	0x1
 5882 25d8 A11A0000 		.4byte	.LASF496
 5883 25dc A11A0000 		.4byte	.LASF496
 5884 25e0 0F       		.byte	0xf
 5885 25e1 A601     		.2byte	0x1a6
 5886 25e3 33       		.uleb128 0x33
 5887 25e4 01       		.byte	0x1
 5888 25e5 01       		.byte	0x1
 5889 25e6 501E0000 		.4byte	.LASF497
 5890 25ea 501E0000 		.4byte	.LASF497
 5891 25ee 0F       		.byte	0xf
 5892 25ef 9D01     		.2byte	0x19d
 5893 25f1 33       		.uleb128 0x33
 5894 25f2 01       		.byte	0x1
 5895 25f3 01       		.byte	0x1
 5896 25f4 DE070000 		.4byte	.LASF498
 5897 25f8 DE070000 		.4byte	.LASF498
 5898 25fc 0F       		.byte	0xf
 5899 25fd 9401     		.2byte	0x194
 5900 25ff 33       		.uleb128 0x33
 5901 2600 01       		.byte	0x1
 5902 2601 01       		.byte	0x1
 5903 2602 F8060000 		.4byte	.LASF499
 5904 2606 F8060000 		.4byte	.LASF499
 5905 260a 0F       		.byte	0xf
 5906 260b 8701     		.2byte	0x187
 5907 260d 33       		.uleb128 0x33
 5908 260e 01       		.byte	0x1
 5909 260f 01       		.byte	0x1
 5910 2610 8B0F0000 		.4byte	.LASF500
 5911 2614 8B0F0000 		.4byte	.LASF500
 5912 2618 0F       		.byte	0xf
 5913 2619 7C01     		.2byte	0x17c
 5914 261b 33       		.uleb128 0x33
 5915 261c 01       		.byte	0x1
 5916 261d 01       		.byte	0x1
 5917 261e 87140000 		.4byte	.LASF501
 5918 2622 87140000 		.4byte	.LASF501
ARM GAS  C:\Users\EBANO_~1\AppData\Local\Temp\ccOSDu2a.s 			page 124


 5919 2626 0F       		.byte	0xf
 5920 2627 6D01     		.2byte	0x16d
 5921 2629 33       		.uleb128 0x33
 5922 262a 01       		.byte	0x1
 5923 262b 01       		.byte	0x1
 5924 262c 770C0000 		.4byte	.LASF502
 5925 2630 770C0000 		.4byte	.LASF502
 5926 2634 0F       		.byte	0xf
 5927 2635 6401     		.2byte	0x164
 5928 2637 33       		.uleb128 0x33
 5929 2638 01       		.byte	0x1
 5930 2639 01       		.byte	0x1
 5931 263a BC120000 		.4byte	.LASF503
 5932 263e BC120000 		.4byte	.LASF503
 5933 2642 0F       		.byte	0xf
 5934 2643 5C01     		.2byte	0x15c
 5935 2645 33       		.uleb128 0x33
 5936 2646 01       		.byte	0x1
 5937 2647 01       		.byte	0x1
 5938 2648 AF040000 		.4byte	.LASF504
 5939 264c AF040000 		.4byte	.LASF504
 5940 2650 0F       		.byte	0xf
 5941 2651 5101     		.2byte	0x151
 5942 2653 33       		.uleb128 0x33
 5943 2654 01       		.byte	0x1
 5944 2655 01       		.byte	0x1
 5945 2656 5D160000 		.4byte	.LASF505
 5946 265a 5D160000 		.4byte	.LASF505
 5947 265e 0F       		.byte	0xf
 5948 265f 4801     		.2byte	0x148
 5949 2661 33       		.uleb128 0x33
 5950 2662 01       		.byte	0x1
 5951 2663 01       		.byte	0x1
 5952 2664 0A1B0000 		.4byte	.LASF506
 5953 2668 0A1B0000 		.4byte	.LASF506
 5954 266c 0F       		.byte	0xf
 5955 266d 4101     		.2byte	0x141
 5956 266f 33       		.uleb128 0x33
 5957 2670 01       		.byte	0x1
 5958 2671 01       		.byte	0x1
 5959 2672 8D1B0000 		.4byte	.LASF507
 5960 2676 8D1B0000 		.4byte	.LASF507
 5961 267a 0F       		.byte	0xf
 5962 267b 3A01     		.2byte	0x13a
 5963 267d 00       		.byte	0
 5964              		.section	.debug_abbrev,"",%progbits
 5965              	.Ldebug_abbrev0:
 5966 0000 01       		.uleb128 0x1
 5967 0001 11       		.uleb128 0x11
 5968 0002 01       		.byte	0x1
 5969 0003 25       		.uleb128 0x25
 5970 0004 0E       		.uleb128 0xe
 5971 0005 13       		.uleb128 0x13
 5972 0006 0B       		.uleb128 0xb
 5973 0007 03       		.uleb128 0x3
 5974 0008 0E       		.uleb128 0xe
 5975 0009 1B       		.uleb128 0x1b
ARM GAS  C:\Users\EBANO_~1\AppData\Local\Temp\ccOSDu2a.s 			page 125


 5976 000a 0E       		.uleb128 0xe
 5977 000b 55       		.uleb128 0x55
 5978 000c 06       		.uleb128 0x6
 5979 000d 11       		.uleb128 0x11
 5980 000e 01       		.uleb128 0x1
 5981 000f 52       		.uleb128 0x52
 5982 0010 01       		.uleb128 0x1
 5983 0011 10       		.uleb128 0x10
 5984 0012 06       		.uleb128 0x6
 5985 0013 00       		.byte	0
 5986 0014 00       		.byte	0
 5987 0015 02       		.uleb128 0x2
 5988 0016 16       		.uleb128 0x16
 5989 0017 00       		.byte	0
 5990 0018 03       		.uleb128 0x3
 5991 0019 0E       		.uleb128 0xe
 5992 001a 3A       		.uleb128 0x3a
 5993 001b 0B       		.uleb128 0xb
 5994 001c 3B       		.uleb128 0x3b
 5995 001d 0B       		.uleb128 0xb
 5996 001e 49       		.uleb128 0x49
 5997 001f 13       		.uleb128 0x13
 5998 0020 00       		.byte	0
 5999 0021 00       		.byte	0
 6000 0022 03       		.uleb128 0x3
 6001 0023 24       		.uleb128 0x24
 6002 0024 00       		.byte	0
 6003 0025 0B       		.uleb128 0xb
 6004 0026 0B       		.uleb128 0xb
 6005 0027 3E       		.uleb128 0x3e
 6006 0028 0B       		.uleb128 0xb
 6007 0029 03       		.uleb128 0x3
 6008 002a 0E       		.uleb128 0xe
 6009 002b 00       		.byte	0
 6010 002c 00       		.byte	0
 6011 002d 04       		.uleb128 0x4
 6012 002e 24       		.uleb128 0x24
 6013 002f 00       		.byte	0
 6014 0030 0B       		.uleb128 0xb
 6015 0031 0B       		.uleb128 0xb
 6016 0032 3E       		.uleb128 0x3e
 6017 0033 0B       		.uleb128 0xb
 6018 0034 03       		.uleb128 0x3
 6019 0035 08       		.uleb128 0x8
 6020 0036 00       		.byte	0
 6021 0037 00       		.byte	0
 6022 0038 05       		.uleb128 0x5
 6023 0039 26       		.uleb128 0x26
 6024 003a 00       		.byte	0
 6025 003b 49       		.uleb128 0x49
 6026 003c 13       		.uleb128 0x13
 6027 003d 00       		.byte	0
 6028 003e 00       		.byte	0
 6029 003f 06       		.uleb128 0x6
 6030 0040 34       		.uleb128 0x34
 6031 0041 00       		.byte	0
 6032 0042 03       		.uleb128 0x3
ARM GAS  C:\Users\EBANO_~1\AppData\Local\Temp\ccOSDu2a.s 			page 126


 6033 0043 0E       		.uleb128 0xe
 6034 0044 3A       		.uleb128 0x3a
 6035 0045 0B       		.uleb128 0xb
 6036 0046 3B       		.uleb128 0x3b
 6037 0047 0B       		.uleb128 0xb
 6038 0048 49       		.uleb128 0x49
 6039 0049 13       		.uleb128 0x13
 6040 004a 3F       		.uleb128 0x3f
 6041 004b 0C       		.uleb128 0xc
 6042 004c 3C       		.uleb128 0x3c
 6043 004d 0C       		.uleb128 0xc
 6044 004e 00       		.byte	0
 6045 004f 00       		.byte	0
 6046 0050 07       		.uleb128 0x7
 6047 0051 01       		.uleb128 0x1
 6048 0052 01       		.byte	0x1
 6049 0053 49       		.uleb128 0x49
 6050 0054 13       		.uleb128 0x13
 6051 0055 01       		.uleb128 0x1
 6052 0056 13       		.uleb128 0x13
 6053 0057 00       		.byte	0
 6054 0058 00       		.byte	0
 6055 0059 08       		.uleb128 0x8
 6056 005a 21       		.uleb128 0x21
 6057 005b 00       		.byte	0
 6058 005c 49       		.uleb128 0x49
 6059 005d 13       		.uleb128 0x13
 6060 005e 2F       		.uleb128 0x2f
 6061 005f 0B       		.uleb128 0xb
 6062 0060 00       		.byte	0
 6063 0061 00       		.byte	0
 6064 0062 09       		.uleb128 0x9
 6065 0063 0F       		.uleb128 0xf
 6066 0064 00       		.byte	0
 6067 0065 0B       		.uleb128 0xb
 6068 0066 0B       		.uleb128 0xb
 6069 0067 00       		.byte	0
 6070 0068 00       		.byte	0
 6071 0069 0A       		.uleb128 0xa
 6072 006a 0F       		.uleb128 0xf
 6073 006b 00       		.byte	0
 6074 006c 0B       		.uleb128 0xb
 6075 006d 0B       		.uleb128 0xb
 6076 006e 49       		.uleb128 0x49
 6077 006f 13       		.uleb128 0x13
 6078 0070 00       		.byte	0
 6079 0071 00       		.byte	0
 6080 0072 0B       		.uleb128 0xb
 6081 0073 13       		.uleb128 0x13
 6082 0074 00       		.byte	0
 6083 0075 03       		.uleb128 0x3
 6084 0076 0E       		.uleb128 0xe
 6085 0077 3C       		.uleb128 0x3c
 6086 0078 0C       		.uleb128 0xc
 6087 0079 00       		.byte	0
 6088 007a 00       		.byte	0
 6089 007b 0C       		.uleb128 0xc
ARM GAS  C:\Users\EBANO_~1\AppData\Local\Temp\ccOSDu2a.s 			page 127


 6090 007c 16       		.uleb128 0x16
 6091 007d 00       		.byte	0
 6092 007e 03       		.uleb128 0x3
 6093 007f 0E       		.uleb128 0xe
 6094 0080 3A       		.uleb128 0x3a
 6095 0081 0B       		.uleb128 0xb
 6096 0082 3B       		.uleb128 0x3b
 6097 0083 05       		.uleb128 0x5
 6098 0084 49       		.uleb128 0x49
 6099 0085 13       		.uleb128 0x13
 6100 0086 00       		.byte	0
 6101 0087 00       		.byte	0
 6102 0088 0D       		.uleb128 0xd
 6103 0089 17       		.uleb128 0x17
 6104 008a 01       		.byte	0x1
 6105 008b 0B       		.uleb128 0xb
 6106 008c 0B       		.uleb128 0xb
 6107 008d 3A       		.uleb128 0x3a
 6108 008e 0B       		.uleb128 0xb
 6109 008f 3B       		.uleb128 0x3b
 6110 0090 0B       		.uleb128 0xb
 6111 0091 01       		.uleb128 0x1
 6112 0092 13       		.uleb128 0x13
 6113 0093 00       		.byte	0
 6114 0094 00       		.byte	0
 6115 0095 0E       		.uleb128 0xe
 6116 0096 0D       		.uleb128 0xd
 6117 0097 00       		.byte	0
 6118 0098 03       		.uleb128 0x3
 6119 0099 0E       		.uleb128 0xe
 6120 009a 3A       		.uleb128 0x3a
 6121 009b 0B       		.uleb128 0xb
 6122 009c 3B       		.uleb128 0x3b
 6123 009d 0B       		.uleb128 0xb
 6124 009e 49       		.uleb128 0x49
 6125 009f 13       		.uleb128 0x13
 6126 00a0 00       		.byte	0
 6127 00a1 00       		.byte	0
 6128 00a2 0F       		.uleb128 0xf
 6129 00a3 13       		.uleb128 0x13
 6130 00a4 01       		.byte	0x1
 6131 00a5 0B       		.uleb128 0xb
 6132 00a6 0B       		.uleb128 0xb
 6133 00a7 3A       		.uleb128 0x3a
 6134 00a8 0B       		.uleb128 0xb
 6135 00a9 3B       		.uleb128 0x3b
 6136 00aa 0B       		.uleb128 0xb
 6137 00ab 01       		.uleb128 0x1
 6138 00ac 13       		.uleb128 0x13
 6139 00ad 00       		.byte	0
 6140 00ae 00       		.byte	0
 6141 00af 10       		.uleb128 0x10
 6142 00b0 0D       		.uleb128 0xd
 6143 00b1 00       		.byte	0
 6144 00b2 03       		.uleb128 0x3
 6145 00b3 0E       		.uleb128 0xe
 6146 00b4 3A       		.uleb128 0x3a
ARM GAS  C:\Users\EBANO_~1\AppData\Local\Temp\ccOSDu2a.s 			page 128


 6147 00b5 0B       		.uleb128 0xb
 6148 00b6 3B       		.uleb128 0x3b
 6149 00b7 0B       		.uleb128 0xb
 6150 00b8 49       		.uleb128 0x49
 6151 00b9 13       		.uleb128 0x13
 6152 00ba 38       		.uleb128 0x38
 6153 00bb 0A       		.uleb128 0xa
 6154 00bc 00       		.byte	0
 6155 00bd 00       		.byte	0
 6156 00be 11       		.uleb128 0x11
 6157 00bf 13       		.uleb128 0x13
 6158 00c0 01       		.byte	0x1
 6159 00c1 03       		.uleb128 0x3
 6160 00c2 0E       		.uleb128 0xe
 6161 00c3 0B       		.uleb128 0xb
 6162 00c4 0B       		.uleb128 0xb
 6163 00c5 3A       		.uleb128 0x3a
 6164 00c6 0B       		.uleb128 0xb
 6165 00c7 3B       		.uleb128 0x3b
 6166 00c8 0B       		.uleb128 0xb
 6167 00c9 01       		.uleb128 0x1
 6168 00ca 13       		.uleb128 0x13
 6169 00cb 00       		.byte	0
 6170 00cc 00       		.byte	0
 6171 00cd 12       		.uleb128 0x12
 6172 00ce 0D       		.uleb128 0xd
 6173 00cf 00       		.byte	0
 6174 00d0 03       		.uleb128 0x3
 6175 00d1 08       		.uleb128 0x8
 6176 00d2 3A       		.uleb128 0x3a
 6177 00d3 0B       		.uleb128 0xb
 6178 00d4 3B       		.uleb128 0x3b
 6179 00d5 0B       		.uleb128 0xb
 6180 00d6 49       		.uleb128 0x49
 6181 00d7 13       		.uleb128 0x13
 6182 00d8 38       		.uleb128 0x38
 6183 00d9 0A       		.uleb128 0xa
 6184 00da 00       		.byte	0
 6185 00db 00       		.byte	0
 6186 00dc 13       		.uleb128 0x13
 6187 00dd 13       		.uleb128 0x13
 6188 00de 01       		.byte	0x1
 6189 00df 03       		.uleb128 0x3
 6190 00e0 0E       		.uleb128 0xe
 6191 00e1 0B       		.uleb128 0xb
 6192 00e2 05       		.uleb128 0x5
 6193 00e3 3A       		.uleb128 0x3a
 6194 00e4 0B       		.uleb128 0xb
 6195 00e5 3B       		.uleb128 0x3b
 6196 00e6 0B       		.uleb128 0xb
 6197 00e7 01       		.uleb128 0x1
 6198 00e8 13       		.uleb128 0x13
 6199 00e9 00       		.byte	0
 6200 00ea 00       		.byte	0
 6201 00eb 14       		.uleb128 0x14
 6202 00ec 15       		.uleb128 0x15
 6203 00ed 00       		.byte	0
ARM GAS  C:\Users\EBANO_~1\AppData\Local\Temp\ccOSDu2a.s 			page 129


 6204 00ee 27       		.uleb128 0x27
 6205 00ef 0C       		.uleb128 0xc
 6206 00f0 00       		.byte	0
 6207 00f1 00       		.byte	0
 6208 00f2 15       		.uleb128 0x15
 6209 00f3 15       		.uleb128 0x15
 6210 00f4 01       		.byte	0x1
 6211 00f5 27       		.uleb128 0x27
 6212 00f6 0C       		.uleb128 0xc
 6213 00f7 49       		.uleb128 0x49
 6214 00f8 13       		.uleb128 0x13
 6215 00f9 01       		.uleb128 0x1
 6216 00fa 13       		.uleb128 0x13
 6217 00fb 00       		.byte	0
 6218 00fc 00       		.byte	0
 6219 00fd 16       		.uleb128 0x16
 6220 00fe 05       		.uleb128 0x5
 6221 00ff 00       		.byte	0
 6222 0100 49       		.uleb128 0x49
 6223 0101 13       		.uleb128 0x13
 6224 0102 00       		.byte	0
 6225 0103 00       		.byte	0
 6226 0104 17       		.uleb128 0x17
 6227 0105 13       		.uleb128 0x13
 6228 0106 01       		.byte	0x1
 6229 0107 03       		.uleb128 0x3
 6230 0108 0E       		.uleb128 0xe
 6231 0109 0B       		.uleb128 0xb
 6232 010a 05       		.uleb128 0x5
 6233 010b 3A       		.uleb128 0x3a
 6234 010c 0B       		.uleb128 0xb
 6235 010d 3B       		.uleb128 0x3b
 6236 010e 05       		.uleb128 0x5
 6237 010f 01       		.uleb128 0x1
 6238 0110 13       		.uleb128 0x13
 6239 0111 00       		.byte	0
 6240 0112 00       		.byte	0
 6241 0113 18       		.uleb128 0x18
 6242 0114 0D       		.uleb128 0xd
 6243 0115 00       		.byte	0
 6244 0116 03       		.uleb128 0x3
 6245 0117 0E       		.uleb128 0xe
 6246 0118 3A       		.uleb128 0x3a
 6247 0119 0B       		.uleb128 0xb
 6248 011a 3B       		.uleb128 0x3b
 6249 011b 05       		.uleb128 0x5
 6250 011c 49       		.uleb128 0x49
 6251 011d 13       		.uleb128 0x13
 6252 011e 38       		.uleb128 0x38
 6253 011f 0A       		.uleb128 0xa
 6254 0120 00       		.byte	0
 6255 0121 00       		.byte	0
 6256 0122 19       		.uleb128 0x19
 6257 0123 13       		.uleb128 0x13
 6258 0124 01       		.byte	0x1
 6259 0125 03       		.uleb128 0x3
 6260 0126 0E       		.uleb128 0xe
ARM GAS  C:\Users\EBANO_~1\AppData\Local\Temp\ccOSDu2a.s 			page 130


 6261 0127 0B       		.uleb128 0xb
 6262 0128 0B       		.uleb128 0xb
 6263 0129 3A       		.uleb128 0x3a
 6264 012a 0B       		.uleb128 0xb
 6265 012b 3B       		.uleb128 0x3b
 6266 012c 05       		.uleb128 0x5
 6267 012d 01       		.uleb128 0x1
 6268 012e 13       		.uleb128 0x13
 6269 012f 00       		.byte	0
 6270 0130 00       		.byte	0
 6271 0131 1A       		.uleb128 0x1a
 6272 0132 13       		.uleb128 0x13
 6273 0133 01       		.byte	0x1
 6274 0134 0B       		.uleb128 0xb
 6275 0135 0B       		.uleb128 0xb
 6276 0136 3A       		.uleb128 0x3a
 6277 0137 0B       		.uleb128 0xb
 6278 0138 3B       		.uleb128 0x3b
 6279 0139 05       		.uleb128 0x5
 6280 013a 01       		.uleb128 0x1
 6281 013b 13       		.uleb128 0x13
 6282 013c 00       		.byte	0
 6283 013d 00       		.byte	0
 6284 013e 1B       		.uleb128 0x1b
 6285 013f 17       		.uleb128 0x17
 6286 0140 01       		.byte	0x1
 6287 0141 0B       		.uleb128 0xb
 6288 0142 0B       		.uleb128 0xb
 6289 0143 3A       		.uleb128 0x3a
 6290 0144 0B       		.uleb128 0xb
 6291 0145 3B       		.uleb128 0x3b
 6292 0146 05       		.uleb128 0x5
 6293 0147 01       		.uleb128 0x1
 6294 0148 13       		.uleb128 0x13
 6295 0149 00       		.byte	0
 6296 014a 00       		.byte	0
 6297 014b 1C       		.uleb128 0x1c
 6298 014c 0D       		.uleb128 0xd
 6299 014d 00       		.byte	0
 6300 014e 03       		.uleb128 0x3
 6301 014f 0E       		.uleb128 0xe
 6302 0150 3A       		.uleb128 0x3a
 6303 0151 0B       		.uleb128 0xb
 6304 0152 3B       		.uleb128 0x3b
 6305 0153 05       		.uleb128 0x5
 6306 0154 49       		.uleb128 0x49
 6307 0155 13       		.uleb128 0x13
 6308 0156 00       		.byte	0
 6309 0157 00       		.byte	0
 6310 0158 1D       		.uleb128 0x1d
 6311 0159 15       		.uleb128 0x15
 6312 015a 01       		.byte	0x1
 6313 015b 27       		.uleb128 0x27
 6314 015c 0C       		.uleb128 0xc
 6315 015d 01       		.uleb128 0x1
 6316 015e 13       		.uleb128 0x13
 6317 015f 00       		.byte	0
ARM GAS  C:\Users\EBANO_~1\AppData\Local\Temp\ccOSDu2a.s 			page 131


 6318 0160 00       		.byte	0
 6319 0161 1E       		.uleb128 0x1e
 6320 0162 34       		.uleb128 0x34
 6321 0163 00       		.byte	0
 6322 0164 03       		.uleb128 0x3
 6323 0165 0E       		.uleb128 0xe
 6324 0166 3A       		.uleb128 0x3a
 6325 0167 0B       		.uleb128 0xb
 6326 0168 3B       		.uleb128 0x3b
 6327 0169 05       		.uleb128 0x5
 6328 016a 49       		.uleb128 0x49
 6329 016b 13       		.uleb128 0x13
 6330 016c 3F       		.uleb128 0x3f
 6331 016d 0C       		.uleb128 0xc
 6332 016e 3C       		.uleb128 0x3c
 6333 016f 0C       		.uleb128 0xc
 6334 0170 00       		.byte	0
 6335 0171 00       		.byte	0
 6336 0172 1F       		.uleb128 0x1f
 6337 0173 17       		.uleb128 0x17
 6338 0174 01       		.byte	0x1
 6339 0175 03       		.uleb128 0x3
 6340 0176 0E       		.uleb128 0xe
 6341 0177 0B       		.uleb128 0xb
 6342 0178 0B       		.uleb128 0xb
 6343 0179 3A       		.uleb128 0x3a
 6344 017a 0B       		.uleb128 0xb
 6345 017b 3B       		.uleb128 0x3b
 6346 017c 0B       		.uleb128 0xb
 6347 017d 01       		.uleb128 0x1
 6348 017e 13       		.uleb128 0x13
 6349 017f 00       		.byte	0
 6350 0180 00       		.byte	0
 6351 0181 20       		.uleb128 0x20
 6352 0182 04       		.uleb128 0x4
 6353 0183 01       		.byte	0x1
 6354 0184 3E       		.uleb128 0x3e
 6355 0185 0B       		.uleb128 0xb
 6356 0186 0B       		.uleb128 0xb
 6357 0187 0B       		.uleb128 0xb
 6358 0188 49       		.uleb128 0x49
 6359 0189 13       		.uleb128 0x13
 6360 018a 3A       		.uleb128 0x3a
 6361 018b 0B       		.uleb128 0xb
 6362 018c 3B       		.uleb128 0x3b
 6363 018d 0B       		.uleb128 0xb
 6364 018e 01       		.uleb128 0x1
 6365 018f 13       		.uleb128 0x13
 6366 0190 00       		.byte	0
 6367 0191 00       		.byte	0
 6368 0192 21       		.uleb128 0x21
 6369 0193 28       		.uleb128 0x28
 6370 0194 00       		.byte	0
 6371 0195 03       		.uleb128 0x3
 6372 0196 0E       		.uleb128 0xe
 6373 0197 1C       		.uleb128 0x1c
 6374 0198 0B       		.uleb128 0xb
ARM GAS  C:\Users\EBANO_~1\AppData\Local\Temp\ccOSDu2a.s 			page 132


 6375 0199 00       		.byte	0
 6376 019a 00       		.byte	0
 6377 019b 22       		.uleb128 0x22
 6378 019c 0D       		.uleb128 0xd
 6379 019d 00       		.byte	0
 6380 019e 03       		.uleb128 0x3
 6381 019f 08       		.uleb128 0x8
 6382 01a0 3A       		.uleb128 0x3a
 6383 01a1 0B       		.uleb128 0xb
 6384 01a2 3B       		.uleb128 0x3b
 6385 01a3 05       		.uleb128 0x5
 6386 01a4 49       		.uleb128 0x49
 6387 01a5 13       		.uleb128 0x13
 6388 01a6 38       		.uleb128 0x38
 6389 01a7 0A       		.uleb128 0xa
 6390 01a8 00       		.byte	0
 6391 01a9 00       		.byte	0
 6392 01aa 23       		.uleb128 0x23
 6393 01ab 15       		.uleb128 0x15
 6394 01ac 00       		.byte	0
 6395 01ad 27       		.uleb128 0x27
 6396 01ae 0C       		.uleb128 0xc
 6397 01af 49       		.uleb128 0x49
 6398 01b0 13       		.uleb128 0x13
 6399 01b1 00       		.byte	0
 6400 01b2 00       		.byte	0
 6401 01b3 24       		.uleb128 0x24
 6402 01b4 0D       		.uleb128 0xd
 6403 01b5 00       		.byte	0
 6404 01b6 03       		.uleb128 0x3
 6405 01b7 08       		.uleb128 0x8
 6406 01b8 3A       		.uleb128 0x3a
 6407 01b9 0B       		.uleb128 0xb
 6408 01ba 3B       		.uleb128 0x3b
 6409 01bb 0B       		.uleb128 0xb
 6410 01bc 49       		.uleb128 0x49
 6411 01bd 13       		.uleb128 0x13
 6412 01be 0B       		.uleb128 0xb
 6413 01bf 0B       		.uleb128 0xb
 6414 01c0 0D       		.uleb128 0xd
 6415 01c1 0B       		.uleb128 0xb
 6416 01c2 0C       		.uleb128 0xc
 6417 01c3 0B       		.uleb128 0xb
 6418 01c4 38       		.uleb128 0x38
 6419 01c5 0A       		.uleb128 0xa
 6420 01c6 00       		.byte	0
 6421 01c7 00       		.byte	0
 6422 01c8 25       		.uleb128 0x25
 6423 01c9 04       		.uleb128 0x4
 6424 01ca 01       		.byte	0x1
 6425 01cb 03       		.uleb128 0x3
 6426 01cc 0E       		.uleb128 0xe
 6427 01cd 3E       		.uleb128 0x3e
 6428 01ce 0B       		.uleb128 0xb
 6429 01cf 0B       		.uleb128 0xb
 6430 01d0 0B       		.uleb128 0xb
 6431 01d1 49       		.uleb128 0x49
ARM GAS  C:\Users\EBANO_~1\AppData\Local\Temp\ccOSDu2a.s 			page 133


 6432 01d2 13       		.uleb128 0x13
 6433 01d3 3A       		.uleb128 0x3a
 6434 01d4 0B       		.uleb128 0xb
 6435 01d5 3B       		.uleb128 0x3b
 6436 01d6 0B       		.uleb128 0xb
 6437 01d7 01       		.uleb128 0x1
 6438 01d8 13       		.uleb128 0x13
 6439 01d9 00       		.byte	0
 6440 01da 00       		.byte	0
 6441 01db 26       		.uleb128 0x26
 6442 01dc 04       		.uleb128 0x4
 6443 01dd 01       		.byte	0x1
 6444 01de 03       		.uleb128 0x3
 6445 01df 0E       		.uleb128 0xe
 6446 01e0 3E       		.uleb128 0x3e
 6447 01e1 0B       		.uleb128 0xb
 6448 01e2 0B       		.uleb128 0xb
 6449 01e3 0B       		.uleb128 0xb
 6450 01e4 49       		.uleb128 0x49
 6451 01e5 13       		.uleb128 0x13
 6452 01e6 3A       		.uleb128 0x3a
 6453 01e7 0B       		.uleb128 0xb
 6454 01e8 3B       		.uleb128 0x3b
 6455 01e9 05       		.uleb128 0x5
 6456 01ea 01       		.uleb128 0x1
 6457 01eb 13       		.uleb128 0x13
 6458 01ec 00       		.byte	0
 6459 01ed 00       		.byte	0
 6460 01ee 27       		.uleb128 0x27
 6461 01ef 34       		.uleb128 0x34
 6462 01f0 00       		.byte	0
 6463 01f1 03       		.uleb128 0x3
 6464 01f2 0E       		.uleb128 0xe
 6465 01f3 3A       		.uleb128 0x3a
 6466 01f4 0B       		.uleb128 0xb
 6467 01f5 3B       		.uleb128 0x3b
 6468 01f6 05       		.uleb128 0x5
 6469 01f7 49       		.uleb128 0x49
 6470 01f8 13       		.uleb128 0x13
 6471 01f9 1C       		.uleb128 0x1c
 6472 01fa 0A       		.uleb128 0xa
 6473 01fb 00       		.byte	0
 6474 01fc 00       		.byte	0
 6475 01fd 28       		.uleb128 0x28
 6476 01fe 17       		.uleb128 0x17
 6477 01ff 01       		.byte	0x1
 6478 0200 03       		.uleb128 0x3
 6479 0201 0E       		.uleb128 0xe
 6480 0202 0B       		.uleb128 0xb
 6481 0203 0B       		.uleb128 0xb
 6482 0204 3A       		.uleb128 0x3a
 6483 0205 0B       		.uleb128 0xb
 6484 0206 3B       		.uleb128 0x3b
 6485 0207 05       		.uleb128 0x5
 6486 0208 01       		.uleb128 0x1
 6487 0209 13       		.uleb128 0x13
 6488 020a 00       		.byte	0
ARM GAS  C:\Users\EBANO_~1\AppData\Local\Temp\ccOSDu2a.s 			page 134


 6489 020b 00       		.byte	0
 6490 020c 29       		.uleb128 0x29
 6491 020d 2E       		.uleb128 0x2e
 6492 020e 01       		.byte	0x1
 6493 020f 3F       		.uleb128 0x3f
 6494 0210 0C       		.uleb128 0xc
 6495 0211 03       		.uleb128 0x3
 6496 0212 0E       		.uleb128 0xe
 6497 0213 3A       		.uleb128 0x3a
 6498 0214 0B       		.uleb128 0xb
 6499 0215 3B       		.uleb128 0x3b
 6500 0216 05       		.uleb128 0x5
 6501 0217 27       		.uleb128 0x27
 6502 0218 0C       		.uleb128 0xc
 6503 0219 11       		.uleb128 0x11
 6504 021a 01       		.uleb128 0x1
 6505 021b 12       		.uleb128 0x12
 6506 021c 01       		.uleb128 0x1
 6507 021d 40       		.uleb128 0x40
 6508 021e 06       		.uleb128 0x6
 6509 021f 9742     		.uleb128 0x2117
 6510 0221 0C       		.uleb128 0xc
 6511 0222 01       		.uleb128 0x1
 6512 0223 13       		.uleb128 0x13
 6513 0224 00       		.byte	0
 6514 0225 00       		.byte	0
 6515 0226 2A       		.uleb128 0x2a
 6516 0227 05       		.uleb128 0x5
 6517 0228 00       		.byte	0
 6518 0229 03       		.uleb128 0x3
 6519 022a 0E       		.uleb128 0xe
 6520 022b 3A       		.uleb128 0x3a
 6521 022c 0B       		.uleb128 0xb
 6522 022d 3B       		.uleb128 0x3b
 6523 022e 05       		.uleb128 0x5
 6524 022f 49       		.uleb128 0x49
 6525 0230 13       		.uleb128 0x13
 6526 0231 02       		.uleb128 0x2
 6527 0232 06       		.uleb128 0x6
 6528 0233 00       		.byte	0
 6529 0234 00       		.byte	0
 6530 0235 2B       		.uleb128 0x2b
 6531 0236 898201   		.uleb128 0x4109
 6532 0239 01       		.byte	0x1
 6533 023a 11       		.uleb128 0x11
 6534 023b 01       		.uleb128 0x1
 6535 023c 31       		.uleb128 0x31
 6536 023d 13       		.uleb128 0x13
 6537 023e 00       		.byte	0
 6538 023f 00       		.byte	0
 6539 0240 2C       		.uleb128 0x2c
 6540 0241 8A8201   		.uleb128 0x410a
 6541 0244 00       		.byte	0
 6542 0245 02       		.uleb128 0x2
 6543 0246 0A       		.uleb128 0xa
 6544 0247 9142     		.uleb128 0x2111
 6545 0249 0A       		.uleb128 0xa
ARM GAS  C:\Users\EBANO_~1\AppData\Local\Temp\ccOSDu2a.s 			page 135


 6546 024a 00       		.byte	0
 6547 024b 00       		.byte	0
 6548 024c 2D       		.uleb128 0x2d
 6549 024d 2E       		.uleb128 0x2e
 6550 024e 01       		.byte	0x1
 6551 024f 3F       		.uleb128 0x3f
 6552 0250 0C       		.uleb128 0xc
 6553 0251 03       		.uleb128 0x3
 6554 0252 0E       		.uleb128 0xe
 6555 0253 3A       		.uleb128 0x3a
 6556 0254 0B       		.uleb128 0xb
 6557 0255 3B       		.uleb128 0x3b
 6558 0256 05       		.uleb128 0x5
 6559 0257 27       		.uleb128 0x27
 6560 0258 0C       		.uleb128 0xc
 6561 0259 49       		.uleb128 0x49
 6562 025a 13       		.uleb128 0x13
 6563 025b 11       		.uleb128 0x11
 6564 025c 01       		.uleb128 0x1
 6565 025d 12       		.uleb128 0x12
 6566 025e 01       		.uleb128 0x1
 6567 025f 40       		.uleb128 0x40
 6568 0260 06       		.uleb128 0x6
 6569 0261 9742     		.uleb128 0x2117
 6570 0263 0C       		.uleb128 0xc
 6571 0264 01       		.uleb128 0x1
 6572 0265 13       		.uleb128 0x13
 6573 0266 00       		.byte	0
 6574 0267 00       		.byte	0
 6575 0268 2E       		.uleb128 0x2e
 6576 0269 05       		.uleb128 0x5
 6577 026a 00       		.byte	0
 6578 026b 03       		.uleb128 0x3
 6579 026c 08       		.uleb128 0x8
 6580 026d 3A       		.uleb128 0x3a
 6581 026e 0B       		.uleb128 0xb
 6582 026f 3B       		.uleb128 0x3b
 6583 0270 05       		.uleb128 0x5
 6584 0271 49       		.uleb128 0x49
 6585 0272 13       		.uleb128 0x13
 6586 0273 02       		.uleb128 0x2
 6587 0274 06       		.uleb128 0x6
 6588 0275 00       		.byte	0
 6589 0276 00       		.byte	0
 6590 0277 2F       		.uleb128 0x2f
 6591 0278 05       		.uleb128 0x5
 6592 0279 00       		.byte	0
 6593 027a 03       		.uleb128 0x3
 6594 027b 0E       		.uleb128 0xe
 6595 027c 3A       		.uleb128 0x3a
 6596 027d 0B       		.uleb128 0xb
 6597 027e 3B       		.uleb128 0x3b
 6598 027f 05       		.uleb128 0x5
 6599 0280 49       		.uleb128 0x49
 6600 0281 13       		.uleb128 0x13
 6601 0282 02       		.uleb128 0x2
 6602 0283 0A       		.uleb128 0xa
ARM GAS  C:\Users\EBANO_~1\AppData\Local\Temp\ccOSDu2a.s 			page 136


 6603 0284 00       		.byte	0
 6604 0285 00       		.byte	0
 6605 0286 30       		.uleb128 0x30
 6606 0287 898201   		.uleb128 0x4109
 6607 028a 00       		.byte	0
 6608 028b 11       		.uleb128 0x11
 6609 028c 01       		.uleb128 0x1
 6610 028d 31       		.uleb128 0x31
 6611 028e 13       		.uleb128 0x13
 6612 028f 00       		.byte	0
 6613 0290 00       		.byte	0
 6614 0291 31       		.uleb128 0x31
 6615 0292 34       		.uleb128 0x34
 6616 0293 00       		.byte	0
 6617 0294 03       		.uleb128 0x3
 6618 0295 0E       		.uleb128 0xe
 6619 0296 3A       		.uleb128 0x3a
 6620 0297 0B       		.uleb128 0xb
 6621 0298 3B       		.uleb128 0x3b
 6622 0299 05       		.uleb128 0x5
 6623 029a 49       		.uleb128 0x49
 6624 029b 13       		.uleb128 0x13
 6625 029c 02       		.uleb128 0x2
 6626 029d 06       		.uleb128 0x6
 6627 029e 00       		.byte	0
 6628 029f 00       		.byte	0
 6629 02a0 32       		.uleb128 0x32
 6630 02a1 2E       		.uleb128 0x2e
 6631 02a2 01       		.byte	0x1
 6632 02a3 3F       		.uleb128 0x3f
 6633 02a4 0C       		.uleb128 0xc
 6634 02a5 03       		.uleb128 0x3
 6635 02a6 0E       		.uleb128 0xe
 6636 02a7 3A       		.uleb128 0x3a
 6637 02a8 0B       		.uleb128 0xb
 6638 02a9 3B       		.uleb128 0x3b
 6639 02aa 05       		.uleb128 0x5
 6640 02ab 27       		.uleb128 0x27
 6641 02ac 0C       		.uleb128 0xc
 6642 02ad 49       		.uleb128 0x49
 6643 02ae 13       		.uleb128 0x13
 6644 02af 11       		.uleb128 0x11
 6645 02b0 01       		.uleb128 0x1
 6646 02b1 12       		.uleb128 0x12
 6647 02b2 01       		.uleb128 0x1
 6648 02b3 40       		.uleb128 0x40
 6649 02b4 0A       		.uleb128 0xa
 6650 02b5 9742     		.uleb128 0x2117
 6651 02b7 0C       		.uleb128 0xc
 6652 02b8 01       		.uleb128 0x1
 6653 02b9 13       		.uleb128 0x13
 6654 02ba 00       		.byte	0
 6655 02bb 00       		.byte	0
 6656 02bc 33       		.uleb128 0x33
 6657 02bd 2E       		.uleb128 0x2e
 6658 02be 00       		.byte	0
 6659 02bf 3F       		.uleb128 0x3f
ARM GAS  C:\Users\EBANO_~1\AppData\Local\Temp\ccOSDu2a.s 			page 137


 6660 02c0 0C       		.uleb128 0xc
 6661 02c1 3C       		.uleb128 0x3c
 6662 02c2 0C       		.uleb128 0xc
 6663 02c3 8740     		.uleb128 0x2007
 6664 02c5 0E       		.uleb128 0xe
 6665 02c6 03       		.uleb128 0x3
 6666 02c7 0E       		.uleb128 0xe
 6667 02c8 3A       		.uleb128 0x3a
 6668 02c9 0B       		.uleb128 0xb
 6669 02ca 3B       		.uleb128 0x3b
 6670 02cb 05       		.uleb128 0x5
 6671 02cc 00       		.byte	0
 6672 02cd 00       		.byte	0
 6673 02ce 00       		.byte	0
 6674              		.section	.debug_loc,"",%progbits
 6675              	.Ldebug_loc0:
 6676              	.LLST81:
 6677 0000 00000000 		.4byte	.LFB62
 6678 0004 02000000 		.4byte	.LCFI24
 6679 0008 0200     		.2byte	0x2
 6680 000a 7D       		.byte	0x7d
 6681 000b 00       		.sleb128 0
 6682 000c 02000000 		.4byte	.LCFI24
 6683 0010 12000000 		.4byte	.LFE62
 6684 0014 0200     		.2byte	0x2
 6685 0016 7D       		.byte	0x7d
 6686 0017 08       		.sleb128 8
 6687 0018 00000000 		.4byte	0
 6688 001c 00000000 		.4byte	0
 6689              	.LLST82:
 6690 0020 00000000 		.4byte	.LVL117
 6691 0024 0C000000 		.4byte	.LVL119
 6692 0028 0100     		.2byte	0x1
 6693 002a 50       		.byte	0x50
 6694 002b 0C000000 		.4byte	.LVL119
 6695 002f 12000000 		.4byte	.LFE62
 6696 0033 0400     		.2byte	0x4
 6697 0035 F3       		.byte	0xf3
 6698 0036 01       		.uleb128 0x1
 6699 0037 50       		.byte	0x50
 6700 0038 9F       		.byte	0x9f
 6701 0039 00000000 		.4byte	0
 6702 003d 00000000 		.4byte	0
 6703              	.LLST83:
 6704 0041 00000000 		.4byte	.LVL117
 6705 0045 0A000000 		.4byte	.LVL118
 6706 0049 0100     		.2byte	0x1
 6707 004b 51       		.byte	0x51
 6708 004c 0A000000 		.4byte	.LVL118
 6709 0050 0F000000 		.4byte	.LVL120-1
 6710 0054 0100     		.2byte	0x1
 6711 0056 53       		.byte	0x53
 6712 0057 0F000000 		.4byte	.LVL120-1
 6713 005b 12000000 		.4byte	.LFE62
 6714 005f 0400     		.2byte	0x4
 6715 0061 F3       		.byte	0xf3
 6716 0062 01       		.uleb128 0x1
ARM GAS  C:\Users\EBANO_~1\AppData\Local\Temp\ccOSDu2a.s 			page 138


 6717 0063 51       		.byte	0x51
 6718 0064 9F       		.byte	0x9f
 6719 0065 00000000 		.4byte	0
 6720 0069 00000000 		.4byte	0
 6721              	.LLST84:
 6722 006d 00000000 		.4byte	.LVL117
 6723 0071 0F000000 		.4byte	.LVL120-1
 6724 0075 0100     		.2byte	0x1
 6725 0077 52       		.byte	0x52
 6726 0078 0F000000 		.4byte	.LVL120-1
 6727 007c 12000000 		.4byte	.LFE62
 6728 0080 0400     		.2byte	0x4
 6729 0082 F3       		.byte	0xf3
 6730 0083 01       		.uleb128 0x1
 6731 0084 52       		.byte	0x52
 6732 0085 9F       		.byte	0x9f
 6733 0086 00000000 		.4byte	0
 6734 008a 00000000 		.4byte	0
 6735              	.LLST76:
 6736 008e 00000000 		.4byte	.LFB61
 6737 0092 02000000 		.4byte	.LCFI23
 6738 0096 0200     		.2byte	0x2
 6739 0098 7D       		.byte	0x7d
 6740 0099 00       		.sleb128 0
 6741 009a 02000000 		.4byte	.LCFI23
 6742 009e 18000000 		.4byte	.LFE61
 6743 00a2 0200     		.2byte	0x2
 6744 00a4 7D       		.byte	0x7d
 6745 00a5 08       		.sleb128 8
 6746 00a6 00000000 		.4byte	0
 6747 00aa 00000000 		.4byte	0
 6748              	.LLST77:
 6749 00ae 00000000 		.4byte	.LVL110
 6750 00b2 0C000000 		.4byte	.LVL112
 6751 00b6 0100     		.2byte	0x1
 6752 00b8 50       		.byte	0x50
 6753 00b9 0C000000 		.4byte	.LVL112
 6754 00bd 0E000000 		.4byte	.LVL113
 6755 00c1 0400     		.2byte	0x4
 6756 00c3 F3       		.byte	0xf3
 6757 00c4 01       		.uleb128 0x1
 6758 00c5 50       		.byte	0x50
 6759 00c6 9F       		.byte	0x9f
 6760 00c7 0E000000 		.4byte	.LVL113
 6761 00cb 12000000 		.4byte	.LVL115
 6762 00cf 0100     		.2byte	0x1
 6763 00d1 50       		.byte	0x50
 6764 00d2 12000000 		.4byte	.LVL115
 6765 00d6 18000000 		.4byte	.LFE61
 6766 00da 0400     		.2byte	0x4
 6767 00dc F3       		.byte	0xf3
 6768 00dd 01       		.uleb128 0x1
 6769 00de 50       		.byte	0x50
 6770 00df 9F       		.byte	0x9f
 6771 00e0 00000000 		.4byte	0
 6772 00e4 00000000 		.4byte	0
 6773              	.LLST78:
ARM GAS  C:\Users\EBANO_~1\AppData\Local\Temp\ccOSDu2a.s 			page 139


 6774 00e8 00000000 		.4byte	.LVL110
 6775 00ec 06000000 		.4byte	.LVL111
 6776 00f0 0100     		.2byte	0x1
 6777 00f2 51       		.byte	0x51
 6778 00f3 06000000 		.4byte	.LVL111
 6779 00f7 18000000 		.4byte	.LFE61
 6780 00fb 0400     		.2byte	0x4
 6781 00fd F3       		.byte	0xf3
 6782 00fe 01       		.uleb128 0x1
 6783 00ff 51       		.byte	0x51
 6784 0100 9F       		.byte	0x9f
 6785 0101 00000000 		.4byte	0
 6786 0105 00000000 		.4byte	0
 6787              	.LLST79:
 6788 0109 00000000 		.4byte	.LVL110
 6789 010d 0C000000 		.4byte	.LVL112
 6790 0111 0100     		.2byte	0x1
 6791 0113 52       		.byte	0x52
 6792 0114 0C000000 		.4byte	.LVL112
 6793 0118 0E000000 		.4byte	.LVL113
 6794 011c 0400     		.2byte	0x4
 6795 011e F3       		.byte	0xf3
 6796 011f 01       		.uleb128 0x1
 6797 0120 52       		.byte	0x52
 6798 0121 9F       		.byte	0x9f
 6799 0122 0E000000 		.4byte	.LVL113
 6800 0126 10000000 		.4byte	.LVL114
 6801 012a 0100     		.2byte	0x1
 6802 012c 52       		.byte	0x52
 6803 012d 10000000 		.4byte	.LVL114
 6804 0131 18000000 		.4byte	.LFE61
 6805 0135 0400     		.2byte	0x4
 6806 0137 F3       		.byte	0xf3
 6807 0138 01       		.uleb128 0x1
 6808 0139 52       		.byte	0x52
 6809 013a 9F       		.byte	0x9f
 6810 013b 00000000 		.4byte	0
 6811 013f 00000000 		.4byte	0
 6812              	.LLST80:
 6813 0143 00000000 		.4byte	.LVL110
 6814 0147 0C000000 		.4byte	.LVL112
 6815 014b 0100     		.2byte	0x1
 6816 014d 53       		.byte	0x53
 6817 014e 0C000000 		.4byte	.LVL112
 6818 0152 0E000000 		.4byte	.LVL113
 6819 0156 0400     		.2byte	0x4
 6820 0158 F3       		.byte	0xf3
 6821 0159 01       		.uleb128 0x1
 6822 015a 53       		.byte	0x53
 6823 015b 9F       		.byte	0x9f
 6824 015c 0E000000 		.4byte	.LVL113
 6825 0160 15000000 		.4byte	.LVL116-1
 6826 0164 0100     		.2byte	0x1
 6827 0166 53       		.byte	0x53
 6828 0167 15000000 		.4byte	.LVL116-1
 6829 016b 18000000 		.4byte	.LFE61
 6830 016f 0400     		.2byte	0x4
ARM GAS  C:\Users\EBANO_~1\AppData\Local\Temp\ccOSDu2a.s 			page 140


 6831 0171 F3       		.byte	0xf3
 6832 0172 01       		.uleb128 0x1
 6833 0173 53       		.byte	0x53
 6834 0174 9F       		.byte	0x9f
 6835 0175 00000000 		.4byte	0
 6836 0179 00000000 		.4byte	0
 6837              	.LLST73:
 6838 017d 00000000 		.4byte	.LFB60
 6839 0181 02000000 		.4byte	.LCFI22
 6840 0185 0200     		.2byte	0x2
 6841 0187 7D       		.byte	0x7d
 6842 0188 00       		.sleb128 0
 6843 0189 02000000 		.4byte	.LCFI22
 6844 018d 0E000000 		.4byte	.LFE60
 6845 0191 0200     		.2byte	0x2
 6846 0193 7D       		.byte	0x7d
 6847 0194 08       		.sleb128 8
 6848 0195 00000000 		.4byte	0
 6849 0199 00000000 		.4byte	0
 6850              	.LLST74:
 6851 019d 00000000 		.4byte	.LVL107
 6852 01a1 08000000 		.4byte	.LVL108
 6853 01a5 0100     		.2byte	0x1
 6854 01a7 50       		.byte	0x50
 6855 01a8 08000000 		.4byte	.LVL108
 6856 01ac 0E000000 		.4byte	.LFE60
 6857 01b0 0400     		.2byte	0x4
 6858 01b2 F3       		.byte	0xf3
 6859 01b3 01       		.uleb128 0x1
 6860 01b4 50       		.byte	0x50
 6861 01b5 9F       		.byte	0x9f
 6862 01b6 00000000 		.4byte	0
 6863 01ba 00000000 		.4byte	0
 6864              	.LLST75:
 6865 01be 00000000 		.4byte	.LVL107
 6866 01c2 0B000000 		.4byte	.LVL109-1
 6867 01c6 0100     		.2byte	0x1
 6868 01c8 51       		.byte	0x51
 6869 01c9 0B000000 		.4byte	.LVL109-1
 6870 01cd 0E000000 		.4byte	.LFE60
 6871 01d1 0400     		.2byte	0x4
 6872 01d3 F3       		.byte	0xf3
 6873 01d4 01       		.uleb128 0x1
 6874 01d5 51       		.byte	0x51
 6875 01d6 9F       		.byte	0x9f
 6876 01d7 00000000 		.4byte	0
 6877 01db 00000000 		.4byte	0
 6878              	.LLST70:
 6879 01df 00000000 		.4byte	.LFB59
 6880 01e3 02000000 		.4byte	.LCFI21
 6881 01e7 0200     		.2byte	0x2
 6882 01e9 7D       		.byte	0x7d
 6883 01ea 00       		.sleb128 0
 6884 01eb 02000000 		.4byte	.LCFI21
 6885 01ef 12000000 		.4byte	.LFE59
 6886 01f3 0200     		.2byte	0x2
 6887 01f5 7D       		.byte	0x7d
ARM GAS  C:\Users\EBANO_~1\AppData\Local\Temp\ccOSDu2a.s 			page 141


 6888 01f6 08       		.sleb128 8
 6889 01f7 00000000 		.4byte	0
 6890 01fb 00000000 		.4byte	0
 6891              	.LLST71:
 6892 01ff 00000000 		.4byte	.LVL102
 6893 0203 08000000 		.4byte	.LVL103
 6894 0207 0100     		.2byte	0x1
 6895 0209 50       		.byte	0x50
 6896 020a 08000000 		.4byte	.LVL103
 6897 020e 0A000000 		.4byte	.LVL104
 6898 0212 0400     		.2byte	0x4
 6899 0214 F3       		.byte	0xf3
 6900 0215 01       		.uleb128 0x1
 6901 0216 50       		.byte	0x50
 6902 0217 9F       		.byte	0x9f
 6903 0218 0A000000 		.4byte	.LVL104
 6904 021c 0C000000 		.4byte	.LVL105
 6905 0220 0100     		.2byte	0x1
 6906 0222 50       		.byte	0x50
 6907 0223 0C000000 		.4byte	.LVL105
 6908 0227 12000000 		.4byte	.LFE59
 6909 022b 0400     		.2byte	0x4
 6910 022d F3       		.byte	0xf3
 6911 022e 01       		.uleb128 0x1
 6912 022f 50       		.byte	0x50
 6913 0230 9F       		.byte	0x9f
 6914 0231 00000000 		.4byte	0
 6915 0235 00000000 		.4byte	0
 6916              	.LLST72:
 6917 0239 00000000 		.4byte	.LVL102
 6918 023d 08000000 		.4byte	.LVL103
 6919 0241 0100     		.2byte	0x1
 6920 0243 51       		.byte	0x51
 6921 0244 08000000 		.4byte	.LVL103
 6922 0248 0A000000 		.4byte	.LVL104
 6923 024c 0400     		.2byte	0x4
 6924 024e F3       		.byte	0xf3
 6925 024f 01       		.uleb128 0x1
 6926 0250 51       		.byte	0x51
 6927 0251 9F       		.byte	0x9f
 6928 0252 0A000000 		.4byte	.LVL104
 6929 0256 0F000000 		.4byte	.LVL106-1
 6930 025a 0100     		.2byte	0x1
 6931 025c 51       		.byte	0x51
 6932 025d 0F000000 		.4byte	.LVL106-1
 6933 0261 12000000 		.4byte	.LFE59
 6934 0265 0400     		.2byte	0x4
 6935 0267 F3       		.byte	0xf3
 6936 0268 01       		.uleb128 0x1
 6937 0269 51       		.byte	0x51
 6938 026a 9F       		.byte	0x9f
 6939 026b 00000000 		.4byte	0
 6940 026f 00000000 		.4byte	0
 6941              	.LLST67:
 6942 0273 00000000 		.4byte	.LFB58
 6943 0277 02000000 		.4byte	.LCFI20
 6944 027b 0200     		.2byte	0x2
ARM GAS  C:\Users\EBANO_~1\AppData\Local\Temp\ccOSDu2a.s 			page 142


 6945 027d 7D       		.byte	0x7d
 6946 027e 00       		.sleb128 0
 6947 027f 02000000 		.4byte	.LCFI20
 6948 0283 12000000 		.4byte	.LFE58
 6949 0287 0200     		.2byte	0x2
 6950 0289 7D       		.byte	0x7d
 6951 028a 08       		.sleb128 8
 6952 028b 00000000 		.4byte	0
 6953 028f 00000000 		.4byte	0
 6954              	.LLST68:
 6955 0293 00000000 		.4byte	.LVL97
 6956 0297 08000000 		.4byte	.LVL98
 6957 029b 0100     		.2byte	0x1
 6958 029d 50       		.byte	0x50
 6959 029e 08000000 		.4byte	.LVL98
 6960 02a2 0E000000 		.4byte	.LVL100
 6961 02a6 0400     		.2byte	0x4
 6962 02a8 F3       		.byte	0xf3
 6963 02a9 01       		.uleb128 0x1
 6964 02aa 50       		.byte	0x50
 6965 02ab 9F       		.byte	0x9f
 6966 02ac 0E000000 		.4byte	.LVL100
 6967 02b0 10000000 		.4byte	.LVL101
 6968 02b4 0100     		.2byte	0x1
 6969 02b6 50       		.byte	0x50
 6970 02b7 10000000 		.4byte	.LVL101
 6971 02bb 12000000 		.4byte	.LFE58
 6972 02bf 0400     		.2byte	0x4
 6973 02c1 F3       		.byte	0xf3
 6974 02c2 01       		.uleb128 0x1
 6975 02c3 50       		.byte	0x50
 6976 02c4 9F       		.byte	0x9f
 6977 02c5 00000000 		.4byte	0
 6978 02c9 00000000 		.4byte	0
 6979              	.LLST69:
 6980 02cd 00000000 		.4byte	.LVL97
 6981 02d1 0B000000 		.4byte	.LVL99-1
 6982 02d5 0100     		.2byte	0x1
 6983 02d7 51       		.byte	0x51
 6984 02d8 0B000000 		.4byte	.LVL99-1
 6985 02dc 0E000000 		.4byte	.LVL100
 6986 02e0 0400     		.2byte	0x4
 6987 02e2 F3       		.byte	0xf3
 6988 02e3 01       		.uleb128 0x1
 6989 02e4 51       		.byte	0x51
 6990 02e5 9F       		.byte	0x9f
 6991 02e6 0E000000 		.4byte	.LVL100
 6992 02ea 12000000 		.4byte	.LFE58
 6993 02ee 0100     		.2byte	0x1
 6994 02f0 51       		.byte	0x51
 6995 02f1 00000000 		.4byte	0
 6996 02f5 00000000 		.4byte	0
 6997              	.LLST62:
 6998 02f9 00000000 		.4byte	.LFB57
 6999 02fd 02000000 		.4byte	.LCFI19
 7000 0301 0200     		.2byte	0x2
 7001 0303 7D       		.byte	0x7d
ARM GAS  C:\Users\EBANO_~1\AppData\Local\Temp\ccOSDu2a.s 			page 143


 7002 0304 00       		.sleb128 0
 7003 0305 02000000 		.4byte	.LCFI19
 7004 0309 1A000000 		.4byte	.LFE57
 7005 030d 0200     		.2byte	0x2
 7006 030f 7D       		.byte	0x7d
 7007 0310 08       		.sleb128 8
 7008 0311 00000000 		.4byte	0
 7009 0315 00000000 		.4byte	0
 7010              	.LLST63:
 7011 0319 00000000 		.4byte	.LVL88
 7012 031d 10000000 		.4byte	.LVL92
 7013 0321 0100     		.2byte	0x1
 7014 0323 50       		.byte	0x50
 7015 0324 10000000 		.4byte	.LVL92
 7016 0328 16000000 		.4byte	.LVL95
 7017 032c 0400     		.2byte	0x4
 7018 032e F3       		.byte	0xf3
 7019 032f 01       		.uleb128 0x1
 7020 0330 50       		.byte	0x50
 7021 0331 9F       		.byte	0x9f
 7022 0332 16000000 		.4byte	.LVL95
 7023 0336 18000000 		.4byte	.LVL96
 7024 033a 0100     		.2byte	0x1
 7025 033c 50       		.byte	0x50
 7026 033d 18000000 		.4byte	.LVL96
 7027 0341 1A000000 		.4byte	.LFE57
 7028 0345 0400     		.2byte	0x4
 7029 0347 F3       		.byte	0xf3
 7030 0348 01       		.uleb128 0x1
 7031 0349 50       		.byte	0x50
 7032 034a 9F       		.byte	0x9f
 7033 034b 00000000 		.4byte	0
 7034 034f 00000000 		.4byte	0
 7035              	.LLST64:
 7036 0353 00000000 		.4byte	.LVL88
 7037 0357 06000000 		.4byte	.LVL89
 7038 035b 0100     		.2byte	0x1
 7039 035d 51       		.byte	0x51
 7040 035e 06000000 		.4byte	.LVL89
 7041 0362 14000000 		.4byte	.LVL94
 7042 0366 0100     		.2byte	0x1
 7043 0368 54       		.byte	0x54
 7044 0369 14000000 		.4byte	.LVL94
 7045 036d 16000000 		.4byte	.LVL95
 7046 0371 0400     		.2byte	0x4
 7047 0373 F3       		.byte	0xf3
 7048 0374 01       		.uleb128 0x1
 7049 0375 51       		.byte	0x51
 7050 0376 9F       		.byte	0x9f
 7051 0377 16000000 		.4byte	.LVL95
 7052 037b 1A000000 		.4byte	.LFE57
 7053 037f 0100     		.2byte	0x1
 7054 0381 54       		.byte	0x54
 7055 0382 00000000 		.4byte	0
 7056 0386 00000000 		.4byte	0
 7057              	.LLST65:
 7058 038a 00000000 		.4byte	.LVL88
ARM GAS  C:\Users\EBANO_~1\AppData\Local\Temp\ccOSDu2a.s 			page 144


 7059 038e 08000000 		.4byte	.LVL90
 7060 0392 0100     		.2byte	0x1
 7061 0394 52       		.byte	0x52
 7062 0395 08000000 		.4byte	.LVL90
 7063 0399 13000000 		.4byte	.LVL93-1
 7064 039d 0100     		.2byte	0x1
 7065 039f 51       		.byte	0x51
 7066 03a0 13000000 		.4byte	.LVL93-1
 7067 03a4 16000000 		.4byte	.LVL95
 7068 03a8 0400     		.2byte	0x4
 7069 03aa F3       		.byte	0xf3
 7070 03ab 01       		.uleb128 0x1
 7071 03ac 52       		.byte	0x52
 7072 03ad 9F       		.byte	0x9f
 7073 03ae 16000000 		.4byte	.LVL95
 7074 03b2 1A000000 		.4byte	.LFE57
 7075 03b6 0100     		.2byte	0x1
 7076 03b8 51       		.byte	0x51
 7077 03b9 00000000 		.4byte	0
 7078 03bd 00000000 		.4byte	0
 7079              	.LLST66:
 7080 03c1 00000000 		.4byte	.LVL88
 7081 03c5 0E000000 		.4byte	.LVL91
 7082 03c9 0100     		.2byte	0x1
 7083 03cb 53       		.byte	0x53
 7084 03cc 0E000000 		.4byte	.LVL91
 7085 03d0 13000000 		.4byte	.LVL93-1
 7086 03d4 0100     		.2byte	0x1
 7087 03d6 52       		.byte	0x52
 7088 03d7 13000000 		.4byte	.LVL93-1
 7089 03db 16000000 		.4byte	.LVL95
 7090 03df 0400     		.2byte	0x4
 7091 03e1 F3       		.byte	0xf3
 7092 03e2 01       		.uleb128 0x1
 7093 03e3 53       		.byte	0x53
 7094 03e4 9F       		.byte	0x9f
 7095 03e5 16000000 		.4byte	.LVL95
 7096 03e9 1A000000 		.4byte	.LFE57
 7097 03ed 0100     		.2byte	0x1
 7098 03ef 52       		.byte	0x52
 7099 03f0 00000000 		.4byte	0
 7100 03f4 00000000 		.4byte	0
 7101              	.LLST59:
 7102 03f8 00000000 		.4byte	.LFB56
 7103 03fc 02000000 		.4byte	.LCFI18
 7104 0400 0200     		.2byte	0x2
 7105 0402 7D       		.byte	0x7d
 7106 0403 00       		.sleb128 0
 7107 0404 02000000 		.4byte	.LCFI18
 7108 0408 0E000000 		.4byte	.LFE56
 7109 040c 0200     		.2byte	0x2
 7110 040e 7D       		.byte	0x7d
 7111 040f 08       		.sleb128 8
 7112 0410 00000000 		.4byte	0
 7113 0414 00000000 		.4byte	0
 7114              	.LLST60:
 7115 0418 00000000 		.4byte	.LVL85
ARM GAS  C:\Users\EBANO_~1\AppData\Local\Temp\ccOSDu2a.s 			page 145


 7116 041c 08000000 		.4byte	.LVL86
 7117 0420 0100     		.2byte	0x1
 7118 0422 50       		.byte	0x50
 7119 0423 08000000 		.4byte	.LVL86
 7120 0427 0E000000 		.4byte	.LFE56
 7121 042b 0400     		.2byte	0x4
 7122 042d F3       		.byte	0xf3
 7123 042e 01       		.uleb128 0x1
 7124 042f 50       		.byte	0x50
 7125 0430 9F       		.byte	0x9f
 7126 0431 00000000 		.4byte	0
 7127 0435 00000000 		.4byte	0
 7128              	.LLST61:
 7129 0439 00000000 		.4byte	.LVL85
 7130 043d 0B000000 		.4byte	.LVL87-1
 7131 0441 0100     		.2byte	0x1
 7132 0443 51       		.byte	0x51
 7133 0444 0B000000 		.4byte	.LVL87-1
 7134 0448 0E000000 		.4byte	.LFE56
 7135 044c 0400     		.2byte	0x4
 7136 044e F3       		.byte	0xf3
 7137 044f 01       		.uleb128 0x1
 7138 0450 51       		.byte	0x51
 7139 0451 9F       		.byte	0x9f
 7140 0452 00000000 		.4byte	0
 7141 0456 00000000 		.4byte	0
 7142              	.LLST55:
 7143 045a 00000000 		.4byte	.LFB55
 7144 045e 02000000 		.4byte	.LCFI17
 7145 0462 0200     		.2byte	0x2
 7146 0464 7D       		.byte	0x7d
 7147 0465 00       		.sleb128 0
 7148 0466 02000000 		.4byte	.LCFI17
 7149 046a 16000000 		.4byte	.LFE55
 7150 046e 0200     		.2byte	0x2
 7151 0470 7D       		.byte	0x7d
 7152 0471 08       		.sleb128 8
 7153 0472 00000000 		.4byte	0
 7154 0476 00000000 		.4byte	0
 7155              	.LLST56:
 7156 047a 00000000 		.4byte	.LVL79
 7157 047e 0A000000 		.4byte	.LVL80
 7158 0482 0100     		.2byte	0x1
 7159 0484 50       		.byte	0x50
 7160 0485 0A000000 		.4byte	.LVL80
 7161 0489 0C000000 		.4byte	.LVL81
 7162 048d 0400     		.2byte	0x4
 7163 048f F3       		.byte	0xf3
 7164 0490 01       		.uleb128 0x1
 7165 0491 50       		.byte	0x50
 7166 0492 9F       		.byte	0x9f
 7167 0493 0C000000 		.4byte	.LVL81
 7168 0497 10000000 		.4byte	.LVL83
 7169 049b 0100     		.2byte	0x1
 7170 049d 50       		.byte	0x50
 7171 049e 10000000 		.4byte	.LVL83
 7172 04a2 16000000 		.4byte	.LFE55
ARM GAS  C:\Users\EBANO_~1\AppData\Local\Temp\ccOSDu2a.s 			page 146


 7173 04a6 0400     		.2byte	0x4
 7174 04a8 F3       		.byte	0xf3
 7175 04a9 01       		.uleb128 0x1
 7176 04aa 50       		.byte	0x50
 7177 04ab 9F       		.byte	0x9f
 7178 04ac 00000000 		.4byte	0
 7179 04b0 00000000 		.4byte	0
 7180              	.LLST57:
 7181 04b4 00000000 		.4byte	.LVL79
 7182 04b8 0A000000 		.4byte	.LVL80
 7183 04bc 0100     		.2byte	0x1
 7184 04be 51       		.byte	0x51
 7185 04bf 0A000000 		.4byte	.LVL80
 7186 04c3 0C000000 		.4byte	.LVL81
 7187 04c7 0400     		.2byte	0x4
 7188 04c9 F3       		.byte	0xf3
 7189 04ca 01       		.uleb128 0x1
 7190 04cb 51       		.byte	0x51
 7191 04cc 9F       		.byte	0x9f
 7192 04cd 0C000000 		.4byte	.LVL81
 7193 04d1 0E000000 		.4byte	.LVL82
 7194 04d5 0100     		.2byte	0x1
 7195 04d7 51       		.byte	0x51
 7196 04d8 0E000000 		.4byte	.LVL82
 7197 04dc 16000000 		.4byte	.LFE55
 7198 04e0 0400     		.2byte	0x4
 7199 04e2 F3       		.byte	0xf3
 7200 04e3 01       		.uleb128 0x1
 7201 04e4 51       		.byte	0x51
 7202 04e5 9F       		.byte	0x9f
 7203 04e6 00000000 		.4byte	0
 7204 04ea 00000000 		.4byte	0
 7205              	.LLST58:
 7206 04ee 00000000 		.4byte	.LVL79
 7207 04f2 0A000000 		.4byte	.LVL80
 7208 04f6 0100     		.2byte	0x1
 7209 04f8 52       		.byte	0x52
 7210 04f9 0A000000 		.4byte	.LVL80
 7211 04fd 0C000000 		.4byte	.LVL81
 7212 0501 0400     		.2byte	0x4
 7213 0503 F3       		.byte	0xf3
 7214 0504 01       		.uleb128 0x1
 7215 0505 52       		.byte	0x52
 7216 0506 9F       		.byte	0x9f
 7217 0507 0C000000 		.4byte	.LVL81
 7218 050b 13000000 		.4byte	.LVL84-1
 7219 050f 0100     		.2byte	0x1
 7220 0511 52       		.byte	0x52
 7221 0512 13000000 		.4byte	.LVL84-1
 7222 0516 16000000 		.4byte	.LFE55
 7223 051a 0400     		.2byte	0x4
 7224 051c F3       		.byte	0xf3
 7225 051d 01       		.uleb128 0x1
 7226 051e 52       		.byte	0x52
 7227 051f 9F       		.byte	0x9f
 7228 0520 00000000 		.4byte	0
 7229 0524 00000000 		.4byte	0
ARM GAS  C:\Users\EBANO_~1\AppData\Local\Temp\ccOSDu2a.s 			page 147


 7230              	.LLST52:
 7231 0528 00000000 		.4byte	.LFB54
 7232 052c 02000000 		.4byte	.LCFI16
 7233 0530 0200     		.2byte	0x2
 7234 0532 7D       		.byte	0x7d
 7235 0533 00       		.sleb128 0
 7236 0534 02000000 		.4byte	.LCFI16
 7237 0538 12000000 		.4byte	.LFE54
 7238 053c 0200     		.2byte	0x2
 7239 053e 7D       		.byte	0x7d
 7240 053f 08       		.sleb128 8
 7241 0540 00000000 		.4byte	0
 7242 0544 00000000 		.4byte	0
 7243              	.LLST53:
 7244 0548 00000000 		.4byte	.LVL74
 7245 054c 08000000 		.4byte	.LVL75
 7246 0550 0100     		.2byte	0x1
 7247 0552 50       		.byte	0x50
 7248 0553 08000000 		.4byte	.LVL75
 7249 0557 0A000000 		.4byte	.LVL76
 7250 055b 0400     		.2byte	0x4
 7251 055d F3       		.byte	0xf3
 7252 055e 01       		.uleb128 0x1
 7253 055f 50       		.byte	0x50
 7254 0560 9F       		.byte	0x9f
 7255 0561 0A000000 		.4byte	.LVL76
 7256 0565 0C000000 		.4byte	.LVL77
 7257 0569 0100     		.2byte	0x1
 7258 056b 50       		.byte	0x50
 7259 056c 0C000000 		.4byte	.LVL77
 7260 0570 12000000 		.4byte	.LFE54
 7261 0574 0400     		.2byte	0x4
 7262 0576 F3       		.byte	0xf3
 7263 0577 01       		.uleb128 0x1
 7264 0578 50       		.byte	0x50
 7265 0579 9F       		.byte	0x9f
 7266 057a 00000000 		.4byte	0
 7267 057e 00000000 		.4byte	0
 7268              	.LLST54:
 7269 0582 00000000 		.4byte	.LVL74
 7270 0586 08000000 		.4byte	.LVL75
 7271 058a 0100     		.2byte	0x1
 7272 058c 51       		.byte	0x51
 7273 058d 08000000 		.4byte	.LVL75
 7274 0591 0A000000 		.4byte	.LVL76
 7275 0595 0400     		.2byte	0x4
 7276 0597 F3       		.byte	0xf3
 7277 0598 01       		.uleb128 0x1
 7278 0599 51       		.byte	0x51
 7279 059a 9F       		.byte	0x9f
 7280 059b 0A000000 		.4byte	.LVL76
 7281 059f 0F000000 		.4byte	.LVL78-1
 7282 05a3 0100     		.2byte	0x1
 7283 05a5 51       		.byte	0x51
 7284 05a6 0F000000 		.4byte	.LVL78-1
 7285 05aa 12000000 		.4byte	.LFE54
 7286 05ae 0400     		.2byte	0x4
ARM GAS  C:\Users\EBANO_~1\AppData\Local\Temp\ccOSDu2a.s 			page 148


 7287 05b0 F3       		.byte	0xf3
 7288 05b1 01       		.uleb128 0x1
 7289 05b2 51       		.byte	0x51
 7290 05b3 9F       		.byte	0x9f
 7291 05b4 00000000 		.4byte	0
 7292 05b8 00000000 		.4byte	0
 7293              	.LLST49:
 7294 05bc 00000000 		.4byte	.LFB53
 7295 05c0 02000000 		.4byte	.LCFI15
 7296 05c4 0200     		.2byte	0x2
 7297 05c6 7D       		.byte	0x7d
 7298 05c7 00       		.sleb128 0
 7299 05c8 02000000 		.4byte	.LCFI15
 7300 05cc 12000000 		.4byte	.LFE53
 7301 05d0 0200     		.2byte	0x2
 7302 05d2 7D       		.byte	0x7d
 7303 05d3 08       		.sleb128 8
 7304 05d4 00000000 		.4byte	0
 7305 05d8 00000000 		.4byte	0
 7306              	.LLST50:
 7307 05dc 00000000 		.4byte	.LVL69
 7308 05e0 08000000 		.4byte	.LVL70
 7309 05e4 0100     		.2byte	0x1
 7310 05e6 50       		.byte	0x50
 7311 05e7 08000000 		.4byte	.LVL70
 7312 05eb 0A000000 		.4byte	.LVL71
 7313 05ef 0400     		.2byte	0x4
 7314 05f1 F3       		.byte	0xf3
 7315 05f2 01       		.uleb128 0x1
 7316 05f3 50       		.byte	0x50
 7317 05f4 9F       		.byte	0x9f
 7318 05f5 0A000000 		.4byte	.LVL71
 7319 05f9 0C000000 		.4byte	.LVL72
 7320 05fd 0100     		.2byte	0x1
 7321 05ff 50       		.byte	0x50
 7322 0600 0C000000 		.4byte	.LVL72
 7323 0604 12000000 		.4byte	.LFE53
 7324 0608 0400     		.2byte	0x4
 7325 060a F3       		.byte	0xf3
 7326 060b 01       		.uleb128 0x1
 7327 060c 50       		.byte	0x50
 7328 060d 9F       		.byte	0x9f
 7329 060e 00000000 		.4byte	0
 7330 0612 00000000 		.4byte	0
 7331              	.LLST51:
 7332 0616 00000000 		.4byte	.LVL69
 7333 061a 08000000 		.4byte	.LVL70
 7334 061e 0100     		.2byte	0x1
 7335 0620 51       		.byte	0x51
 7336 0621 08000000 		.4byte	.LVL70
 7337 0625 0A000000 		.4byte	.LVL71
 7338 0629 0400     		.2byte	0x4
 7339 062b F3       		.byte	0xf3
 7340 062c 01       		.uleb128 0x1
 7341 062d 51       		.byte	0x51
 7342 062e 9F       		.byte	0x9f
 7343 062f 0A000000 		.4byte	.LVL71
ARM GAS  C:\Users\EBANO_~1\AppData\Local\Temp\ccOSDu2a.s 			page 149


 7344 0633 0F000000 		.4byte	.LVL73-1
 7345 0637 0100     		.2byte	0x1
 7346 0639 51       		.byte	0x51
 7347 063a 0F000000 		.4byte	.LVL73-1
 7348 063e 12000000 		.4byte	.LFE53
 7349 0642 0400     		.2byte	0x4
 7350 0644 F3       		.byte	0xf3
 7351 0645 01       		.uleb128 0x1
 7352 0646 51       		.byte	0x51
 7353 0647 9F       		.byte	0x9f
 7354 0648 00000000 		.4byte	0
 7355 064c 00000000 		.4byte	0
 7356              	.LLST46:
 7357 0650 00000000 		.4byte	.LFB52
 7358 0654 02000000 		.4byte	.LCFI14
 7359 0658 0200     		.2byte	0x2
 7360 065a 7D       		.byte	0x7d
 7361 065b 00       		.sleb128 0
 7362 065c 02000000 		.4byte	.LCFI14
 7363 0660 12000000 		.4byte	.LFE52
 7364 0664 0200     		.2byte	0x2
 7365 0666 7D       		.byte	0x7d
 7366 0667 08       		.sleb128 8
 7367 0668 00000000 		.4byte	0
 7368 066c 00000000 		.4byte	0
 7369              	.LLST47:
 7370 0670 00000000 		.4byte	.LVL64
 7371 0674 08000000 		.4byte	.LVL65
 7372 0678 0100     		.2byte	0x1
 7373 067a 50       		.byte	0x50
 7374 067b 08000000 		.4byte	.LVL65
 7375 067f 0A000000 		.4byte	.LVL66
 7376 0683 0400     		.2byte	0x4
 7377 0685 F3       		.byte	0xf3
 7378 0686 01       		.uleb128 0x1
 7379 0687 50       		.byte	0x50
 7380 0688 9F       		.byte	0x9f
 7381 0689 0A000000 		.4byte	.LVL66
 7382 068d 0C000000 		.4byte	.LVL67
 7383 0691 0100     		.2byte	0x1
 7384 0693 50       		.byte	0x50
 7385 0694 0C000000 		.4byte	.LVL67
 7386 0698 12000000 		.4byte	.LFE52
 7387 069c 0400     		.2byte	0x4
 7388 069e F3       		.byte	0xf3
 7389 069f 01       		.uleb128 0x1
 7390 06a0 50       		.byte	0x50
 7391 06a1 9F       		.byte	0x9f
 7392 06a2 00000000 		.4byte	0
 7393 06a6 00000000 		.4byte	0
 7394              	.LLST48:
 7395 06aa 00000000 		.4byte	.LVL64
 7396 06ae 08000000 		.4byte	.LVL65
 7397 06b2 0100     		.2byte	0x1
 7398 06b4 51       		.byte	0x51
 7399 06b5 08000000 		.4byte	.LVL65
 7400 06b9 0A000000 		.4byte	.LVL66
ARM GAS  C:\Users\EBANO_~1\AppData\Local\Temp\ccOSDu2a.s 			page 150


 7401 06bd 0400     		.2byte	0x4
 7402 06bf F3       		.byte	0xf3
 7403 06c0 01       		.uleb128 0x1
 7404 06c1 51       		.byte	0x51
 7405 06c2 9F       		.byte	0x9f
 7406 06c3 0A000000 		.4byte	.LVL66
 7407 06c7 0F000000 		.4byte	.LVL68-1
 7408 06cb 0100     		.2byte	0x1
 7409 06cd 51       		.byte	0x51
 7410 06ce 0F000000 		.4byte	.LVL68-1
 7411 06d2 12000000 		.4byte	.LFE52
 7412 06d6 0400     		.2byte	0x4
 7413 06d8 F3       		.byte	0xf3
 7414 06d9 01       		.uleb128 0x1
 7415 06da 51       		.byte	0x51
 7416 06db 9F       		.byte	0x9f
 7417 06dc 00000000 		.4byte	0
 7418 06e0 00000000 		.4byte	0
 7419              	.LLST43:
 7420 06e4 00000000 		.4byte	.LFB51
 7421 06e8 02000000 		.4byte	.LCFI13
 7422 06ec 0200     		.2byte	0x2
 7423 06ee 7D       		.byte	0x7d
 7424 06ef 00       		.sleb128 0
 7425 06f0 02000000 		.4byte	.LCFI13
 7426 06f4 12000000 		.4byte	.LFE51
 7427 06f8 0200     		.2byte	0x2
 7428 06fa 7D       		.byte	0x7d
 7429 06fb 08       		.sleb128 8
 7430 06fc 00000000 		.4byte	0
 7431 0700 00000000 		.4byte	0
 7432              	.LLST44:
 7433 0704 00000000 		.4byte	.LVL59
 7434 0708 08000000 		.4byte	.LVL60
 7435 070c 0100     		.2byte	0x1
 7436 070e 50       		.byte	0x50
 7437 070f 08000000 		.4byte	.LVL60
 7438 0713 0A000000 		.4byte	.LVL61
 7439 0717 0400     		.2byte	0x4
 7440 0719 F3       		.byte	0xf3
 7441 071a 01       		.uleb128 0x1
 7442 071b 50       		.byte	0x50
 7443 071c 9F       		.byte	0x9f
 7444 071d 0A000000 		.4byte	.LVL61
 7445 0721 0C000000 		.4byte	.LVL62
 7446 0725 0100     		.2byte	0x1
 7447 0727 50       		.byte	0x50
 7448 0728 0C000000 		.4byte	.LVL62
 7449 072c 12000000 		.4byte	.LFE51
 7450 0730 0400     		.2byte	0x4
 7451 0732 F3       		.byte	0xf3
 7452 0733 01       		.uleb128 0x1
 7453 0734 50       		.byte	0x50
 7454 0735 9F       		.byte	0x9f
 7455 0736 00000000 		.4byte	0
 7456 073a 00000000 		.4byte	0
 7457              	.LLST45:
ARM GAS  C:\Users\EBANO_~1\AppData\Local\Temp\ccOSDu2a.s 			page 151


 7458 073e 00000000 		.4byte	.LVL59
 7459 0742 08000000 		.4byte	.LVL60
 7460 0746 0100     		.2byte	0x1
 7461 0748 51       		.byte	0x51
 7462 0749 08000000 		.4byte	.LVL60
 7463 074d 0A000000 		.4byte	.LVL61
 7464 0751 0400     		.2byte	0x4
 7465 0753 F3       		.byte	0xf3
 7466 0754 01       		.uleb128 0x1
 7467 0755 51       		.byte	0x51
 7468 0756 9F       		.byte	0x9f
 7469 0757 0A000000 		.4byte	.LVL61
 7470 075b 0F000000 		.4byte	.LVL63-1
 7471 075f 0100     		.2byte	0x1
 7472 0761 51       		.byte	0x51
 7473 0762 0F000000 		.4byte	.LVL63-1
 7474 0766 12000000 		.4byte	.LFE51
 7475 076a 0400     		.2byte	0x4
 7476 076c F3       		.byte	0xf3
 7477 076d 01       		.uleb128 0x1
 7478 076e 51       		.byte	0x51
 7479 076f 9F       		.byte	0x9f
 7480 0770 00000000 		.4byte	0
 7481 0774 00000000 		.4byte	0
 7482              	.LLST38:
 7483 0778 00000000 		.4byte	.LFB50
 7484 077c 02000000 		.4byte	.LCFI11
 7485 0780 0200     		.2byte	0x2
 7486 0782 7D       		.byte	0x7d
 7487 0783 00       		.sleb128 0
 7488 0784 02000000 		.4byte	.LCFI11
 7489 0788 06000000 		.4byte	.LCFI12
 7490 078c 0200     		.2byte	0x2
 7491 078e 7D       		.byte	0x7d
 7492 078f 08       		.sleb128 8
 7493 0790 06000000 		.4byte	.LCFI12
 7494 0794 22000000 		.4byte	.LFE50
 7495 0798 0200     		.2byte	0x2
 7496 079a 7D       		.byte	0x7d
 7497 079b 10       		.sleb128 16
 7498 079c 00000000 		.4byte	0
 7499 07a0 00000000 		.4byte	0
 7500              	.LLST39:
 7501 07a4 00000000 		.4byte	.LVL51
 7502 07a8 10000000 		.4byte	.LVL54
 7503 07ac 0100     		.2byte	0x1
 7504 07ae 50       		.byte	0x50
 7505 07af 10000000 		.4byte	.LVL54
 7506 07b3 14000000 		.4byte	.LVL56
 7507 07b7 0400     		.2byte	0x4
 7508 07b9 F3       		.byte	0xf3
 7509 07ba 01       		.uleb128 0x1
 7510 07bb 50       		.byte	0x50
 7511 07bc 9F       		.byte	0x9f
 7512 07bd 14000000 		.4byte	.LVL56
 7513 07c1 18000000 		.4byte	.LVL57
 7514 07c5 0100     		.2byte	0x1
ARM GAS  C:\Users\EBANO_~1\AppData\Local\Temp\ccOSDu2a.s 			page 152


 7515 07c7 50       		.byte	0x50
 7516 07c8 18000000 		.4byte	.LVL57
 7517 07cc 22000000 		.4byte	.LFE50
 7518 07d0 0400     		.2byte	0x4
 7519 07d2 F3       		.byte	0xf3
 7520 07d3 01       		.uleb128 0x1
 7521 07d4 50       		.byte	0x50
 7522 07d5 9F       		.byte	0x9f
 7523 07d6 00000000 		.4byte	0
 7524 07da 00000000 		.4byte	0
 7525              	.LLST40:
 7526 07de 00000000 		.4byte	.LVL51
 7527 07e2 08000000 		.4byte	.LVL52
 7528 07e6 0100     		.2byte	0x1
 7529 07e8 51       		.byte	0x51
 7530 07e9 08000000 		.4byte	.LVL52
 7531 07ed 12000000 		.4byte	.LVL55
 7532 07f1 0100     		.2byte	0x1
 7533 07f3 54       		.byte	0x54
 7534 07f4 12000000 		.4byte	.LVL55
 7535 07f8 14000000 		.4byte	.LVL56
 7536 07fc 0400     		.2byte	0x4
 7537 07fe F3       		.byte	0xf3
 7538 07ff 01       		.uleb128 0x1
 7539 0800 51       		.byte	0x51
 7540 0801 9F       		.byte	0x9f
 7541 0802 14000000 		.4byte	.LVL56
 7542 0806 22000000 		.4byte	.LFE50
 7543 080a 0100     		.2byte	0x1
 7544 080c 54       		.byte	0x54
 7545 080d 00000000 		.4byte	0
 7546 0811 00000000 		.4byte	0
 7547              	.LLST41:
 7548 0815 00000000 		.4byte	.LVL51
 7549 0819 0A000000 		.4byte	.LVL53
 7550 081d 0100     		.2byte	0x1
 7551 081f 52       		.byte	0x52
 7552 0820 0A000000 		.4byte	.LVL53
 7553 0824 10000000 		.4byte	.LVL54
 7554 0828 0100     		.2byte	0x1
 7555 082a 51       		.byte	0x51
 7556 082b 10000000 		.4byte	.LVL54
 7557 082f 14000000 		.4byte	.LVL56
 7558 0833 0400     		.2byte	0x4
 7559 0835 F3       		.byte	0xf3
 7560 0836 01       		.uleb128 0x1
 7561 0837 52       		.byte	0x52
 7562 0838 9F       		.byte	0x9f
 7563 0839 14000000 		.4byte	.LVL56
 7564 083d 1F000000 		.4byte	.LVL58-1
 7565 0841 0100     		.2byte	0x1
 7566 0843 51       		.byte	0x51
 7567 0844 1F000000 		.4byte	.LVL58-1
 7568 0848 22000000 		.4byte	.LFE50
 7569 084c 0400     		.2byte	0x4
 7570 084e F3       		.byte	0xf3
 7571 084f 01       		.uleb128 0x1
ARM GAS  C:\Users\EBANO_~1\AppData\Local\Temp\ccOSDu2a.s 			page 153


 7572 0850 52       		.byte	0x52
 7573 0851 9F       		.byte	0x9f
 7574 0852 00000000 		.4byte	0
 7575 0856 00000000 		.4byte	0
 7576              	.LLST42:
 7577 085a 00000000 		.4byte	.LVL51
 7578 085e 10000000 		.4byte	.LVL54
 7579 0862 0100     		.2byte	0x1
 7580 0864 53       		.byte	0x53
 7581 0865 10000000 		.4byte	.LVL54
 7582 0869 14000000 		.4byte	.LVL56
 7583 086d 0400     		.2byte	0x4
 7584 086f F3       		.byte	0xf3
 7585 0870 01       		.uleb128 0x1
 7586 0871 53       		.byte	0x53
 7587 0872 9F       		.byte	0x9f
 7588 0873 14000000 		.4byte	.LVL56
 7589 0877 1F000000 		.4byte	.LVL58-1
 7590 087b 0100     		.2byte	0x1
 7591 087d 52       		.byte	0x52
 7592 087e 1F000000 		.4byte	.LVL58-1
 7593 0882 22000000 		.4byte	.LFE50
 7594 0886 0400     		.2byte	0x4
 7595 0888 F3       		.byte	0xf3
 7596 0889 01       		.uleb128 0x1
 7597 088a 53       		.byte	0x53
 7598 088b 9F       		.byte	0x9f
 7599 088c 00000000 		.4byte	0
 7600 0890 00000000 		.4byte	0
 7601              	.LLST33:
 7602 0894 00000000 		.4byte	.LFB49
 7603 0898 02000000 		.4byte	.LCFI10
 7604 089c 0200     		.2byte	0x2
 7605 089e 7D       		.byte	0x7d
 7606 089f 00       		.sleb128 0
 7607 08a0 02000000 		.4byte	.LCFI10
 7608 08a4 18000000 		.4byte	.LFE49
 7609 08a8 0200     		.2byte	0x2
 7610 08aa 7D       		.byte	0x7d
 7611 08ab 08       		.sleb128 8
 7612 08ac 00000000 		.4byte	0
 7613 08b0 00000000 		.4byte	0
 7614              	.LLST34:
 7615 08b4 00000000 		.4byte	.LVL44
 7616 08b8 0C000000 		.4byte	.LVL46
 7617 08bc 0100     		.2byte	0x1
 7618 08be 50       		.byte	0x50
 7619 08bf 0C000000 		.4byte	.LVL46
 7620 08c3 0E000000 		.4byte	.LVL48
 7621 08c7 0400     		.2byte	0x4
 7622 08c9 F3       		.byte	0xf3
 7623 08ca 01       		.uleb128 0x1
 7624 08cb 50       		.byte	0x50
 7625 08cc 9F       		.byte	0x9f
 7626 08cd 0E000000 		.4byte	.LVL48
 7627 08d1 12000000 		.4byte	.LVL49
 7628 08d5 0100     		.2byte	0x1
ARM GAS  C:\Users\EBANO_~1\AppData\Local\Temp\ccOSDu2a.s 			page 154


 7629 08d7 50       		.byte	0x50
 7630 08d8 12000000 		.4byte	.LVL49
 7631 08dc 18000000 		.4byte	.LFE49
 7632 08e0 0400     		.2byte	0x4
 7633 08e2 F3       		.byte	0xf3
 7634 08e3 01       		.uleb128 0x1
 7635 08e4 50       		.byte	0x50
 7636 08e5 9F       		.byte	0x9f
 7637 08e6 00000000 		.4byte	0
 7638 08ea 00000000 		.4byte	0
 7639              	.LLST35:
 7640 08ee 00000000 		.4byte	.LVL44
 7641 08f2 06000000 		.4byte	.LVL45
 7642 08f6 0100     		.2byte	0x1
 7643 08f8 51       		.byte	0x51
 7644 08f9 06000000 		.4byte	.LVL45
 7645 08fd 0C000000 		.4byte	.LVL47
 7646 0901 0100     		.2byte	0x1
 7647 0903 54       		.byte	0x54
 7648 0904 0C000000 		.4byte	.LVL47
 7649 0908 0E000000 		.4byte	.LVL48
 7650 090c 0400     		.2byte	0x4
 7651 090e F3       		.byte	0xf3
 7652 090f 01       		.uleb128 0x1
 7653 0910 51       		.byte	0x51
 7654 0911 9F       		.byte	0x9f
 7655 0912 0E000000 		.4byte	.LVL48
 7656 0916 18000000 		.4byte	.LFE49
 7657 091a 0100     		.2byte	0x1
 7658 091c 54       		.byte	0x54
 7659 091d 00000000 		.4byte	0
 7660 0921 00000000 		.4byte	0
 7661              	.LLST36:
 7662 0925 00000000 		.4byte	.LVL44
 7663 0929 0C000000 		.4byte	.LVL46
 7664 092d 0100     		.2byte	0x1
 7665 092f 52       		.byte	0x52
 7666 0930 0C000000 		.4byte	.LVL46
 7667 0934 0E000000 		.4byte	.LVL48
 7668 0938 0400     		.2byte	0x4
 7669 093a F3       		.byte	0xf3
 7670 093b 01       		.uleb128 0x1
 7671 093c 52       		.byte	0x52
 7672 093d 9F       		.byte	0x9f
 7673 093e 0E000000 		.4byte	.LVL48
 7674 0942 15000000 		.4byte	.LVL50-1
 7675 0946 0100     		.2byte	0x1
 7676 0948 51       		.byte	0x51
 7677 0949 15000000 		.4byte	.LVL50-1
 7678 094d 18000000 		.4byte	.LFE49
 7679 0951 0400     		.2byte	0x4
 7680 0953 F3       		.byte	0xf3
 7681 0954 01       		.uleb128 0x1
 7682 0955 52       		.byte	0x52
 7683 0956 9F       		.byte	0x9f
 7684 0957 00000000 		.4byte	0
 7685 095b 00000000 		.4byte	0
ARM GAS  C:\Users\EBANO_~1\AppData\Local\Temp\ccOSDu2a.s 			page 155


 7686              	.LLST37:
 7687 095f 00000000 		.4byte	.LVL44
 7688 0963 0C000000 		.4byte	.LVL46
 7689 0967 0100     		.2byte	0x1
 7690 0969 53       		.byte	0x53
 7691 096a 0C000000 		.4byte	.LVL46
 7692 096e 0E000000 		.4byte	.LVL48
 7693 0972 0400     		.2byte	0x4
 7694 0974 F3       		.byte	0xf3
 7695 0975 01       		.uleb128 0x1
 7696 0976 53       		.byte	0x53
 7697 0977 9F       		.byte	0x9f
 7698 0978 0E000000 		.4byte	.LVL48
 7699 097c 15000000 		.4byte	.LVL50-1
 7700 0980 0100     		.2byte	0x1
 7701 0982 53       		.byte	0x53
 7702 0983 15000000 		.4byte	.LVL50-1
 7703 0987 18000000 		.4byte	.LFE49
 7704 098b 0400     		.2byte	0x4
 7705 098d F3       		.byte	0xf3
 7706 098e 01       		.uleb128 0x1
 7707 098f 53       		.byte	0x53
 7708 0990 9F       		.byte	0x9f
 7709 0991 00000000 		.4byte	0
 7710 0995 00000000 		.4byte	0
 7711              	.LLST29:
 7712 0999 00000000 		.4byte	.LFB48
 7713 099d 02000000 		.4byte	.LCFI9
 7714 09a1 0200     		.2byte	0x2
 7715 09a3 7D       		.byte	0x7d
 7716 09a4 00       		.sleb128 0
 7717 09a5 02000000 		.4byte	.LCFI9
 7718 09a9 16000000 		.4byte	.LFE48
 7719 09ad 0200     		.2byte	0x2
 7720 09af 7D       		.byte	0x7d
 7721 09b0 08       		.sleb128 8
 7722 09b1 00000000 		.4byte	0
 7723 09b5 00000000 		.4byte	0
 7724              	.LLST30:
 7725 09b9 00000000 		.4byte	.LVL38
 7726 09bd 0A000000 		.4byte	.LVL39
 7727 09c1 0100     		.2byte	0x1
 7728 09c3 50       		.byte	0x50
 7729 09c4 0A000000 		.4byte	.LVL39
 7730 09c8 0C000000 		.4byte	.LVL40
 7731 09cc 0400     		.2byte	0x4
 7732 09ce F3       		.byte	0xf3
 7733 09cf 01       		.uleb128 0x1
 7734 09d0 50       		.byte	0x50
 7735 09d1 9F       		.byte	0x9f
 7736 09d2 0C000000 		.4byte	.LVL40
 7737 09d6 10000000 		.4byte	.LVL42
 7738 09da 0100     		.2byte	0x1
 7739 09dc 50       		.byte	0x50
 7740 09dd 10000000 		.4byte	.LVL42
 7741 09e1 16000000 		.4byte	.LFE48
 7742 09e5 0400     		.2byte	0x4
ARM GAS  C:\Users\EBANO_~1\AppData\Local\Temp\ccOSDu2a.s 			page 156


 7743 09e7 F3       		.byte	0xf3
 7744 09e8 01       		.uleb128 0x1
 7745 09e9 50       		.byte	0x50
 7746 09ea 9F       		.byte	0x9f
 7747 09eb 00000000 		.4byte	0
 7748 09ef 00000000 		.4byte	0
 7749              	.LLST31:
 7750 09f3 00000000 		.4byte	.LVL38
 7751 09f7 0A000000 		.4byte	.LVL39
 7752 09fb 0100     		.2byte	0x1
 7753 09fd 51       		.byte	0x51
 7754 09fe 0A000000 		.4byte	.LVL39
 7755 0a02 0C000000 		.4byte	.LVL40
 7756 0a06 0400     		.2byte	0x4
 7757 0a08 F3       		.byte	0xf3
 7758 0a09 01       		.uleb128 0x1
 7759 0a0a 51       		.byte	0x51
 7760 0a0b 9F       		.byte	0x9f
 7761 0a0c 0C000000 		.4byte	.LVL40
 7762 0a10 0E000000 		.4byte	.LVL41
 7763 0a14 0100     		.2byte	0x1
 7764 0a16 51       		.byte	0x51
 7765 0a17 0E000000 		.4byte	.LVL41
 7766 0a1b 13000000 		.4byte	.LVL43-1
 7767 0a1f 0100     		.2byte	0x1
 7768 0a21 53       		.byte	0x53
 7769 0a22 13000000 		.4byte	.LVL43-1
 7770 0a26 16000000 		.4byte	.LFE48
 7771 0a2a 0400     		.2byte	0x4
 7772 0a2c F3       		.byte	0xf3
 7773 0a2d 01       		.uleb128 0x1
 7774 0a2e 51       		.byte	0x51
 7775 0a2f 9F       		.byte	0x9f
 7776 0a30 00000000 		.4byte	0
 7777 0a34 00000000 		.4byte	0
 7778              	.LLST32:
 7779 0a38 00000000 		.4byte	.LVL38
 7780 0a3c 0A000000 		.4byte	.LVL39
 7781 0a40 0100     		.2byte	0x1
 7782 0a42 52       		.byte	0x52
 7783 0a43 0A000000 		.4byte	.LVL39
 7784 0a47 0C000000 		.4byte	.LVL40
 7785 0a4b 0400     		.2byte	0x4
 7786 0a4d F3       		.byte	0xf3
 7787 0a4e 01       		.uleb128 0x1
 7788 0a4f 52       		.byte	0x52
 7789 0a50 9F       		.byte	0x9f
 7790 0a51 0C000000 		.4byte	.LVL40
 7791 0a55 13000000 		.4byte	.LVL43-1
 7792 0a59 0100     		.2byte	0x1
 7793 0a5b 52       		.byte	0x52
 7794 0a5c 13000000 		.4byte	.LVL43-1
 7795 0a60 16000000 		.4byte	.LFE48
 7796 0a64 0400     		.2byte	0x4
 7797 0a66 F3       		.byte	0xf3
 7798 0a67 01       		.uleb128 0x1
 7799 0a68 52       		.byte	0x52
ARM GAS  C:\Users\EBANO_~1\AppData\Local\Temp\ccOSDu2a.s 			page 157


 7800 0a69 9F       		.byte	0x9f
 7801 0a6a 00000000 		.4byte	0
 7802 0a6e 00000000 		.4byte	0
 7803              	.LLST24:
 7804 0a72 00000000 		.4byte	.LFB47
 7805 0a76 02000000 		.4byte	.LCFI8
 7806 0a7a 0200     		.2byte	0x2
 7807 0a7c 7D       		.byte	0x7d
 7808 0a7d 00       		.sleb128 0
 7809 0a7e 02000000 		.4byte	.LCFI8
 7810 0a82 16000000 		.4byte	.LFE47
 7811 0a86 0200     		.2byte	0x2
 7812 0a88 7D       		.byte	0x7d
 7813 0a89 08       		.sleb128 8
 7814 0a8a 00000000 		.4byte	0
 7815 0a8e 00000000 		.4byte	0
 7816              	.LLST25:
 7817 0a92 00000000 		.4byte	.LVL32
 7818 0a96 10000000 		.4byte	.LVL36
 7819 0a9a 0100     		.2byte	0x1
 7820 0a9c 50       		.byte	0x50
 7821 0a9d 10000000 		.4byte	.LVL36
 7822 0aa1 16000000 		.4byte	.LFE47
 7823 0aa5 0400     		.2byte	0x4
 7824 0aa7 F3       		.byte	0xf3
 7825 0aa8 01       		.uleb128 0x1
 7826 0aa9 50       		.byte	0x50
 7827 0aaa 9F       		.byte	0x9f
 7828 0aab 00000000 		.4byte	0
 7829 0aaf 00000000 		.4byte	0
 7830              	.LLST26:
 7831 0ab3 00000000 		.4byte	.LVL32
 7832 0ab7 06000000 		.4byte	.LVL33
 7833 0abb 0100     		.2byte	0x1
 7834 0abd 51       		.byte	0x51
 7835 0abe 06000000 		.4byte	.LVL33
 7836 0ac2 16000000 		.4byte	.LFE47
 7837 0ac6 0400     		.2byte	0x4
 7838 0ac8 F3       		.byte	0xf3
 7839 0ac9 01       		.uleb128 0x1
 7840 0aca 51       		.byte	0x51
 7841 0acb 9F       		.byte	0x9f
 7842 0acc 00000000 		.4byte	0
 7843 0ad0 00000000 		.4byte	0
 7844              	.LLST27:
 7845 0ad4 00000000 		.4byte	.LVL32
 7846 0ad8 08000000 		.4byte	.LVL34
 7847 0adc 0100     		.2byte	0x1
 7848 0ade 52       		.byte	0x52
 7849 0adf 08000000 		.4byte	.LVL34
 7850 0ae3 16000000 		.4byte	.LFE47
 7851 0ae7 0400     		.2byte	0x4
 7852 0ae9 F3       		.byte	0xf3
 7853 0aea 01       		.uleb128 0x1
 7854 0aeb 52       		.byte	0x52
 7855 0aec 9F       		.byte	0x9f
 7856 0aed 00000000 		.4byte	0
ARM GAS  C:\Users\EBANO_~1\AppData\Local\Temp\ccOSDu2a.s 			page 158


 7857 0af1 00000000 		.4byte	0
 7858              	.LLST28:
 7859 0af5 00000000 		.4byte	.LVL32
 7860 0af9 0E000000 		.4byte	.LVL35
 7861 0afd 0100     		.2byte	0x1
 7862 0aff 53       		.byte	0x53
 7863 0b00 0E000000 		.4byte	.LVL35
 7864 0b04 13000000 		.4byte	.LVL37-1
 7865 0b08 0100     		.2byte	0x1
 7866 0b0a 52       		.byte	0x52
 7867 0b0b 13000000 		.4byte	.LVL37-1
 7868 0b0f 16000000 		.4byte	.LFE47
 7869 0b13 0400     		.2byte	0x4
 7870 0b15 F3       		.byte	0xf3
 7871 0b16 01       		.uleb128 0x1
 7872 0b17 53       		.byte	0x53
 7873 0b18 9F       		.byte	0x9f
 7874 0b19 00000000 		.4byte	0
 7875 0b1d 00000000 		.4byte	0
 7876              	.LLST21:
 7877 0b21 00000000 		.4byte	.LFB46
 7878 0b25 02000000 		.4byte	.LCFI7
 7879 0b29 0200     		.2byte	0x2
 7880 0b2b 7D       		.byte	0x7d
 7881 0b2c 00       		.sleb128 0
 7882 0b2d 02000000 		.4byte	.LCFI7
 7883 0b31 12000000 		.4byte	.LFE46
 7884 0b35 0200     		.2byte	0x2
 7885 0b37 7D       		.byte	0x7d
 7886 0b38 08       		.sleb128 8
 7887 0b39 00000000 		.4byte	0
 7888 0b3d 00000000 		.4byte	0
 7889              	.LLST22:
 7890 0b41 00000000 		.4byte	.LVL27
 7891 0b45 08000000 		.4byte	.LVL28
 7892 0b49 0100     		.2byte	0x1
 7893 0b4b 50       		.byte	0x50
 7894 0b4c 08000000 		.4byte	.LVL28
 7895 0b50 0A000000 		.4byte	.LVL29
 7896 0b54 0400     		.2byte	0x4
 7897 0b56 F3       		.byte	0xf3
 7898 0b57 01       		.uleb128 0x1
 7899 0b58 50       		.byte	0x50
 7900 0b59 9F       		.byte	0x9f
 7901 0b5a 0A000000 		.4byte	.LVL29
 7902 0b5e 0C000000 		.4byte	.LVL30
 7903 0b62 0100     		.2byte	0x1
 7904 0b64 50       		.byte	0x50
 7905 0b65 0C000000 		.4byte	.LVL30
 7906 0b69 12000000 		.4byte	.LFE46
 7907 0b6d 0400     		.2byte	0x4
 7908 0b6f F3       		.byte	0xf3
 7909 0b70 01       		.uleb128 0x1
 7910 0b71 50       		.byte	0x50
 7911 0b72 9F       		.byte	0x9f
 7912 0b73 00000000 		.4byte	0
 7913 0b77 00000000 		.4byte	0
ARM GAS  C:\Users\EBANO_~1\AppData\Local\Temp\ccOSDu2a.s 			page 159


 7914              	.LLST23:
 7915 0b7b 00000000 		.4byte	.LVL27
 7916 0b7f 08000000 		.4byte	.LVL28
 7917 0b83 0100     		.2byte	0x1
 7918 0b85 51       		.byte	0x51
 7919 0b86 08000000 		.4byte	.LVL28
 7920 0b8a 0A000000 		.4byte	.LVL29
 7921 0b8e 0400     		.2byte	0x4
 7922 0b90 F3       		.byte	0xf3
 7923 0b91 01       		.uleb128 0x1
 7924 0b92 51       		.byte	0x51
 7925 0b93 9F       		.byte	0x9f
 7926 0b94 0A000000 		.4byte	.LVL29
 7927 0b98 0F000000 		.4byte	.LVL31-1
 7928 0b9c 0100     		.2byte	0x1
 7929 0b9e 51       		.byte	0x51
 7930 0b9f 0F000000 		.4byte	.LVL31-1
 7931 0ba3 12000000 		.4byte	.LFE46
 7932 0ba7 0400     		.2byte	0x4
 7933 0ba9 F3       		.byte	0xf3
 7934 0baa 01       		.uleb128 0x1
 7935 0bab 51       		.byte	0x51
 7936 0bac 9F       		.byte	0x9f
 7937 0bad 00000000 		.4byte	0
 7938 0bb1 00000000 		.4byte	0
 7939              	.LLST18:
 7940 0bb5 00000000 		.4byte	.LFB45
 7941 0bb9 02000000 		.4byte	.LCFI6
 7942 0bbd 0200     		.2byte	0x2
 7943 0bbf 7D       		.byte	0x7d
 7944 0bc0 00       		.sleb128 0
 7945 0bc1 02000000 		.4byte	.LCFI6
 7946 0bc5 0E000000 		.4byte	.LFE45
 7947 0bc9 0200     		.2byte	0x2
 7948 0bcb 7D       		.byte	0x7d
 7949 0bcc 08       		.sleb128 8
 7950 0bcd 00000000 		.4byte	0
 7951 0bd1 00000000 		.4byte	0
 7952              	.LLST19:
 7953 0bd5 00000000 		.4byte	.LVL24
 7954 0bd9 08000000 		.4byte	.LVL25
 7955 0bdd 0100     		.2byte	0x1
 7956 0bdf 50       		.byte	0x50
 7957 0be0 08000000 		.4byte	.LVL25
 7958 0be4 0E000000 		.4byte	.LFE45
 7959 0be8 0400     		.2byte	0x4
 7960 0bea F3       		.byte	0xf3
 7961 0beb 01       		.uleb128 0x1
 7962 0bec 50       		.byte	0x50
 7963 0bed 9F       		.byte	0x9f
 7964 0bee 00000000 		.4byte	0
 7965 0bf2 00000000 		.4byte	0
 7966              	.LLST20:
 7967 0bf6 00000000 		.4byte	.LVL24
 7968 0bfa 0B000000 		.4byte	.LVL26-1
 7969 0bfe 0100     		.2byte	0x1
 7970 0c00 51       		.byte	0x51
ARM GAS  C:\Users\EBANO_~1\AppData\Local\Temp\ccOSDu2a.s 			page 160


 7971 0c01 0B000000 		.4byte	.LVL26-1
 7972 0c05 0E000000 		.4byte	.LFE45
 7973 0c09 0400     		.2byte	0x4
 7974 0c0b F3       		.byte	0xf3
 7975 0c0c 01       		.uleb128 0x1
 7976 0c0d 51       		.byte	0x51
 7977 0c0e 9F       		.byte	0x9f
 7978 0c0f 00000000 		.4byte	0
 7979 0c13 00000000 		.4byte	0
 7980              	.LLST14:
 7981 0c17 00000000 		.4byte	.LFB44
 7982 0c1b 02000000 		.4byte	.LCFI5
 7983 0c1f 0200     		.2byte	0x2
 7984 0c21 7D       		.byte	0x7d
 7985 0c22 00       		.sleb128 0
 7986 0c23 02000000 		.4byte	.LCFI5
 7987 0c27 16000000 		.4byte	.LFE44
 7988 0c2b 0200     		.2byte	0x2
 7989 0c2d 7D       		.byte	0x7d
 7990 0c2e 08       		.sleb128 8
 7991 0c2f 00000000 		.4byte	0
 7992 0c33 00000000 		.4byte	0
 7993              	.LLST15:
 7994 0c37 00000000 		.4byte	.LVL18
 7995 0c3b 0A000000 		.4byte	.LVL19
 7996 0c3f 0100     		.2byte	0x1
 7997 0c41 50       		.byte	0x50
 7998 0c42 0A000000 		.4byte	.LVL19
 7999 0c46 0C000000 		.4byte	.LVL20
 8000 0c4a 0400     		.2byte	0x4
 8001 0c4c F3       		.byte	0xf3
 8002 0c4d 01       		.uleb128 0x1
 8003 0c4e 50       		.byte	0x50
 8004 0c4f 9F       		.byte	0x9f
 8005 0c50 0C000000 		.4byte	.LVL20
 8006 0c54 10000000 		.4byte	.LVL22
 8007 0c58 0100     		.2byte	0x1
 8008 0c5a 50       		.byte	0x50
 8009 0c5b 10000000 		.4byte	.LVL22
 8010 0c5f 16000000 		.4byte	.LFE44
 8011 0c63 0400     		.2byte	0x4
 8012 0c65 F3       		.byte	0xf3
 8013 0c66 01       		.uleb128 0x1
 8014 0c67 50       		.byte	0x50
 8015 0c68 9F       		.byte	0x9f
 8016 0c69 00000000 		.4byte	0
 8017 0c6d 00000000 		.4byte	0
 8018              	.LLST16:
 8019 0c71 00000000 		.4byte	.LVL18
 8020 0c75 0A000000 		.4byte	.LVL19
 8021 0c79 0100     		.2byte	0x1
 8022 0c7b 51       		.byte	0x51
 8023 0c7c 0A000000 		.4byte	.LVL19
 8024 0c80 0C000000 		.4byte	.LVL20
 8025 0c84 0400     		.2byte	0x4
 8026 0c86 F3       		.byte	0xf3
 8027 0c87 01       		.uleb128 0x1
ARM GAS  C:\Users\EBANO_~1\AppData\Local\Temp\ccOSDu2a.s 			page 161


 8028 0c88 51       		.byte	0x51
 8029 0c89 9F       		.byte	0x9f
 8030 0c8a 0C000000 		.4byte	.LVL20
 8031 0c8e 0E000000 		.4byte	.LVL21
 8032 0c92 0100     		.2byte	0x1
 8033 0c94 51       		.byte	0x51
 8034 0c95 0E000000 		.4byte	.LVL21
 8035 0c99 13000000 		.4byte	.LVL23-1
 8036 0c9d 0100     		.2byte	0x1
 8037 0c9f 53       		.byte	0x53
 8038 0ca0 13000000 		.4byte	.LVL23-1
 8039 0ca4 16000000 		.4byte	.LFE44
 8040 0ca8 0400     		.2byte	0x4
 8041 0caa F3       		.byte	0xf3
 8042 0cab 01       		.uleb128 0x1
 8043 0cac 51       		.byte	0x51
 8044 0cad 9F       		.byte	0x9f
 8045 0cae 00000000 		.4byte	0
 8046 0cb2 00000000 		.4byte	0
 8047              	.LLST17:
 8048 0cb6 00000000 		.4byte	.LVL18
 8049 0cba 0A000000 		.4byte	.LVL19
 8050 0cbe 0100     		.2byte	0x1
 8051 0cc0 52       		.byte	0x52
 8052 0cc1 0A000000 		.4byte	.LVL19
 8053 0cc5 0C000000 		.4byte	.LVL20
 8054 0cc9 0400     		.2byte	0x4
 8055 0ccb F3       		.byte	0xf3
 8056 0ccc 01       		.uleb128 0x1
 8057 0ccd 52       		.byte	0x52
 8058 0cce 9F       		.byte	0x9f
 8059 0ccf 0C000000 		.4byte	.LVL20
 8060 0cd3 13000000 		.4byte	.LVL23-1
 8061 0cd7 0100     		.2byte	0x1
 8062 0cd9 52       		.byte	0x52
 8063 0cda 13000000 		.4byte	.LVL23-1
 8064 0cde 16000000 		.4byte	.LFE44
 8065 0ce2 0400     		.2byte	0x4
 8066 0ce4 F3       		.byte	0xf3
 8067 0ce5 01       		.uleb128 0x1
 8068 0ce6 52       		.byte	0x52
 8069 0ce7 9F       		.byte	0x9f
 8070 0ce8 00000000 		.4byte	0
 8071 0cec 00000000 		.4byte	0
 8072              	.LLST11:
 8073 0cf0 00000000 		.4byte	.LFB43
 8074 0cf4 02000000 		.4byte	.LCFI4
 8075 0cf8 0200     		.2byte	0x2
 8076 0cfa 7D       		.byte	0x7d
 8077 0cfb 00       		.sleb128 0
 8078 0cfc 02000000 		.4byte	.LCFI4
 8079 0d00 12000000 		.4byte	.LFE43
 8080 0d04 0200     		.2byte	0x2
 8081 0d06 7D       		.byte	0x7d
 8082 0d07 08       		.sleb128 8
 8083 0d08 00000000 		.4byte	0
 8084 0d0c 00000000 		.4byte	0
ARM GAS  C:\Users\EBANO_~1\AppData\Local\Temp\ccOSDu2a.s 			page 162


 8085              	.LLST12:
 8086 0d10 00000000 		.4byte	.LVL13
 8087 0d14 08000000 		.4byte	.LVL14
 8088 0d18 0100     		.2byte	0x1
 8089 0d1a 50       		.byte	0x50
 8090 0d1b 08000000 		.4byte	.LVL14
 8091 0d1f 0E000000 		.4byte	.LVL16
 8092 0d23 0400     		.2byte	0x4
 8093 0d25 F3       		.byte	0xf3
 8094 0d26 01       		.uleb128 0x1
 8095 0d27 50       		.byte	0x50
 8096 0d28 9F       		.byte	0x9f
 8097 0d29 0E000000 		.4byte	.LVL16
 8098 0d2d 10000000 		.4byte	.LVL17
 8099 0d31 0100     		.2byte	0x1
 8100 0d33 50       		.byte	0x50
 8101 0d34 10000000 		.4byte	.LVL17
 8102 0d38 12000000 		.4byte	.LFE43
 8103 0d3c 0400     		.2byte	0x4
 8104 0d3e F3       		.byte	0xf3
 8105 0d3f 01       		.uleb128 0x1
 8106 0d40 50       		.byte	0x50
 8107 0d41 9F       		.byte	0x9f
 8108 0d42 00000000 		.4byte	0
 8109 0d46 00000000 		.4byte	0
 8110              	.LLST13:
 8111 0d4a 00000000 		.4byte	.LVL13
 8112 0d4e 0B000000 		.4byte	.LVL15-1
 8113 0d52 0100     		.2byte	0x1
 8114 0d54 51       		.byte	0x51
 8115 0d55 0B000000 		.4byte	.LVL15-1
 8116 0d59 0E000000 		.4byte	.LVL16
 8117 0d5d 0400     		.2byte	0x4
 8118 0d5f F3       		.byte	0xf3
 8119 0d60 01       		.uleb128 0x1
 8120 0d61 51       		.byte	0x51
 8121 0d62 9F       		.byte	0x9f
 8122 0d63 0E000000 		.4byte	.LVL16
 8123 0d67 12000000 		.4byte	.LFE43
 8124 0d6b 0100     		.2byte	0x1
 8125 0d6d 51       		.byte	0x51
 8126 0d6e 00000000 		.4byte	0
 8127 0d72 00000000 		.4byte	0
 8128              	.LLST8:
 8129 0d76 00000000 		.4byte	.LFB42
 8130 0d7a 02000000 		.4byte	.LCFI3
 8131 0d7e 0200     		.2byte	0x2
 8132 0d80 7D       		.byte	0x7d
 8133 0d81 00       		.sleb128 0
 8134 0d82 02000000 		.4byte	.LCFI3
 8135 0d86 0E000000 		.4byte	.LFE42
 8136 0d8a 0200     		.2byte	0x2
 8137 0d8c 7D       		.byte	0x7d
 8138 0d8d 08       		.sleb128 8
 8139 0d8e 00000000 		.4byte	0
 8140 0d92 00000000 		.4byte	0
 8141              	.LLST9:
ARM GAS  C:\Users\EBANO_~1\AppData\Local\Temp\ccOSDu2a.s 			page 163


 8142 0d96 00000000 		.4byte	.LVL10
 8143 0d9a 08000000 		.4byte	.LVL11
 8144 0d9e 0100     		.2byte	0x1
 8145 0da0 50       		.byte	0x50
 8146 0da1 08000000 		.4byte	.LVL11
 8147 0da5 0E000000 		.4byte	.LFE42
 8148 0da9 0400     		.2byte	0x4
 8149 0dab F3       		.byte	0xf3
 8150 0dac 01       		.uleb128 0x1
 8151 0dad 50       		.byte	0x50
 8152 0dae 9F       		.byte	0x9f
 8153 0daf 00000000 		.4byte	0
 8154 0db3 00000000 		.4byte	0
 8155              	.LLST10:
 8156 0db7 00000000 		.4byte	.LVL10
 8157 0dbb 0B000000 		.4byte	.LVL12-1
 8158 0dbf 0100     		.2byte	0x1
 8159 0dc1 51       		.byte	0x51
 8160 0dc2 0B000000 		.4byte	.LVL12-1
 8161 0dc6 0E000000 		.4byte	.LFE42
 8162 0dca 0400     		.2byte	0x4
 8163 0dcc F3       		.byte	0xf3
 8164 0dcd 01       		.uleb128 0x1
 8165 0dce 51       		.byte	0x51
 8166 0dcf 9F       		.byte	0x9f
 8167 0dd0 00000000 		.4byte	0
 8168 0dd4 00000000 		.4byte	0
 8169              	.LLST5:
 8170 0dd8 00000000 		.4byte	.LFB41
 8171 0ddc 02000000 		.4byte	.LCFI2
 8172 0de0 0200     		.2byte	0x2
 8173 0de2 7D       		.byte	0x7d
 8174 0de3 00       		.sleb128 0
 8175 0de4 02000000 		.4byte	.LCFI2
 8176 0de8 0E000000 		.4byte	.LFE41
 8177 0dec 0200     		.2byte	0x2
 8178 0dee 7D       		.byte	0x7d
 8179 0def 08       		.sleb128 8
 8180 0df0 00000000 		.4byte	0
 8181 0df4 00000000 		.4byte	0
 8182              	.LLST6:
 8183 0df8 00000000 		.4byte	.LVL7
 8184 0dfc 08000000 		.4byte	.LVL8
 8185 0e00 0100     		.2byte	0x1
 8186 0e02 50       		.byte	0x50
 8187 0e03 08000000 		.4byte	.LVL8
 8188 0e07 0E000000 		.4byte	.LFE41
 8189 0e0b 0400     		.2byte	0x4
 8190 0e0d F3       		.byte	0xf3
 8191 0e0e 01       		.uleb128 0x1
 8192 0e0f 50       		.byte	0x50
 8193 0e10 9F       		.byte	0x9f
 8194 0e11 00000000 		.4byte	0
 8195 0e15 00000000 		.4byte	0
 8196              	.LLST7:
 8197 0e19 00000000 		.4byte	.LVL7
 8198 0e1d 0B000000 		.4byte	.LVL9-1
ARM GAS  C:\Users\EBANO_~1\AppData\Local\Temp\ccOSDu2a.s 			page 164


 8199 0e21 0100     		.2byte	0x1
 8200 0e23 51       		.byte	0x51
 8201 0e24 0B000000 		.4byte	.LVL9-1
 8202 0e28 0E000000 		.4byte	.LFE41
 8203 0e2c 0400     		.2byte	0x4
 8204 0e2e F3       		.byte	0xf3
 8205 0e2f 01       		.uleb128 0x1
 8206 0e30 51       		.byte	0x51
 8207 0e31 9F       		.byte	0x9f
 8208 0e32 00000000 		.4byte	0
 8209 0e36 00000000 		.4byte	0
 8210              	.LLST1:
 8211 0e3a 00000000 		.4byte	.LFB40
 8212 0e3e 02000000 		.4byte	.LCFI0
 8213 0e42 0200     		.2byte	0x2
 8214 0e44 7D       		.byte	0x7d
 8215 0e45 00       		.sleb128 0
 8216 0e46 02000000 		.4byte	.LCFI0
 8217 0e4a 04000000 		.4byte	.LCFI1
 8218 0e4e 0200     		.2byte	0x2
 8219 0e50 7D       		.byte	0x7d
 8220 0e51 04       		.sleb128 4
 8221 0e52 04000000 		.4byte	.LCFI1
 8222 0e56 1C000000 		.4byte	.LFE40
 8223 0e5a 0200     		.2byte	0x2
 8224 0e5c 7D       		.byte	0x7d
 8225 0e5d 10       		.sleb128 16
 8226 0e5e 00000000 		.4byte	0
 8227 0e62 00000000 		.4byte	0
 8228              	.LLST2:
 8229 0e66 00000000 		.4byte	.LVL2
 8230 0e6a 0E000000 		.4byte	.LVL3
 8231 0e6e 0100     		.2byte	0x1
 8232 0e70 50       		.byte	0x50
 8233 0e71 0E000000 		.4byte	.LVL3
 8234 0e75 12000000 		.4byte	.LVL4
 8235 0e79 0400     		.2byte	0x4
 8236 0e7b F3       		.byte	0xf3
 8237 0e7c 01       		.uleb128 0x1
 8238 0e7d 50       		.byte	0x50
 8239 0e7e 9F       		.byte	0x9f
 8240 0e7f 12000000 		.4byte	.LVL4
 8241 0e83 14000000 		.4byte	.LVL5
 8242 0e87 0100     		.2byte	0x1
 8243 0e89 50       		.byte	0x50
 8244 0e8a 14000000 		.4byte	.LVL5
 8245 0e8e 1C000000 		.4byte	.LFE40
 8246 0e92 0400     		.2byte	0x4
 8247 0e94 F3       		.byte	0xf3
 8248 0e95 01       		.uleb128 0x1
 8249 0e96 50       		.byte	0x50
 8250 0e97 9F       		.byte	0x9f
 8251 0e98 00000000 		.4byte	0
 8252 0e9c 00000000 		.4byte	0
 8253              	.LLST3:
 8254 0ea0 00000000 		.4byte	.LVL2
 8255 0ea4 0E000000 		.4byte	.LVL3
ARM GAS  C:\Users\EBANO_~1\AppData\Local\Temp\ccOSDu2a.s 			page 165


 8256 0ea8 0100     		.2byte	0x1
 8257 0eaa 51       		.byte	0x51
 8258 0eab 0E000000 		.4byte	.LVL3
 8259 0eaf 12000000 		.4byte	.LVL4
 8260 0eb3 0400     		.2byte	0x4
 8261 0eb5 F3       		.byte	0xf3
 8262 0eb6 01       		.uleb128 0x1
 8263 0eb7 51       		.byte	0x51
 8264 0eb8 9F       		.byte	0x9f
 8265 0eb9 12000000 		.4byte	.LVL4
 8266 0ebd 17000000 		.4byte	.LVL6-1
 8267 0ec1 0100     		.2byte	0x1
 8268 0ec3 51       		.byte	0x51
 8269 0ec4 17000000 		.4byte	.LVL6-1
 8270 0ec8 1C000000 		.4byte	.LFE40
 8271 0ecc 0400     		.2byte	0x4
 8272 0ece F3       		.byte	0xf3
 8273 0ecf 01       		.uleb128 0x1
 8274 0ed0 51       		.byte	0x51
 8275 0ed1 9F       		.byte	0x9f
 8276 0ed2 00000000 		.4byte	0
 8277 0ed6 00000000 		.4byte	0
 8278              	.LLST4:
 8279 0eda 00000000 		.4byte	.LVL2
 8280 0ede 0E000000 		.4byte	.LVL3
 8281 0ee2 0400     		.2byte	0x4
 8282 0ee4 30       		.byte	0x30
 8283 0ee5 9F       		.byte	0x9f
 8284 0ee6 93       		.byte	0x93
 8285 0ee7 04       		.uleb128 0x4
 8286 0ee8 12000000 		.4byte	.LVL4
 8287 0eec 1C000000 		.4byte	.LFE40
 8288 0ef0 0400     		.2byte	0x4
 8289 0ef2 30       		.byte	0x30
 8290 0ef3 9F       		.byte	0x9f
 8291 0ef4 93       		.byte	0x93
 8292 0ef5 04       		.uleb128 0x4
 8293 0ef6 00000000 		.4byte	0
 8294 0efa 00000000 		.4byte	0
 8295              	.LLST0:
 8296 0efe 00000000 		.4byte	.LVL0
 8297 0f02 02000000 		.4byte	.LVL1
 8298 0f06 0100     		.2byte	0x1
 8299 0f08 50       		.byte	0x50
 8300 0f09 02000000 		.4byte	.LVL1
 8301 0f0d 08000000 		.4byte	.LFE39
 8302 0f11 0400     		.2byte	0x4
 8303 0f13 F3       		.byte	0xf3
 8304 0f14 01       		.uleb128 0x1
 8305 0f15 50       		.byte	0x50
 8306 0f16 9F       		.byte	0x9f
 8307 0f17 00000000 		.4byte	0
 8308 0f1b 00000000 		.4byte	0
 8309              		.section	.debug_aranges,"",%progbits
 8310 0000 D4000000 		.4byte	0xd4
 8311 0004 0200     		.2byte	0x2
 8312 0006 00000000 		.4byte	.Ldebug_info0
ARM GAS  C:\Users\EBANO_~1\AppData\Local\Temp\ccOSDu2a.s 			page 166


 8313 000a 04       		.byte	0x4
 8314 000b 00       		.byte	0
 8315 000c 0000     		.2byte	0
 8316 000e 0000     		.2byte	0
 8317 0010 00000000 		.4byte	.LFB39
 8318 0014 08000000 		.4byte	.LFE39-.LFB39
 8319 0018 00000000 		.4byte	.LFB40
 8320 001c 1C000000 		.4byte	.LFE40-.LFB40
 8321 0020 00000000 		.4byte	.LFB41
 8322 0024 0E000000 		.4byte	.LFE41-.LFB41
 8323 0028 00000000 		.4byte	.LFB42
 8324 002c 0E000000 		.4byte	.LFE42-.LFB42
 8325 0030 00000000 		.4byte	.LFB43
 8326 0034 12000000 		.4byte	.LFE43-.LFB43
 8327 0038 00000000 		.4byte	.LFB44
 8328 003c 16000000 		.4byte	.LFE44-.LFB44
 8329 0040 00000000 		.4byte	.LFB45
 8330 0044 0E000000 		.4byte	.LFE45-.LFB45
 8331 0048 00000000 		.4byte	.LFB46
 8332 004c 12000000 		.4byte	.LFE46-.LFB46
 8333 0050 00000000 		.4byte	.LFB47
 8334 0054 16000000 		.4byte	.LFE47-.LFB47
 8335 0058 00000000 		.4byte	.LFB48
 8336 005c 16000000 		.4byte	.LFE48-.LFB48
 8337 0060 00000000 		.4byte	.LFB49
 8338 0064 18000000 		.4byte	.LFE49-.LFB49
 8339 0068 00000000 		.4byte	.LFB50
 8340 006c 22000000 		.4byte	.LFE50-.LFB50
 8341 0070 00000000 		.4byte	.LFB51
 8342 0074 12000000 		.4byte	.LFE51-.LFB51
 8343 0078 00000000 		.4byte	.LFB52
 8344 007c 12000000 		.4byte	.LFE52-.LFB52
 8345 0080 00000000 		.4byte	.LFB53
 8346 0084 12000000 		.4byte	.LFE53-.LFB53
 8347 0088 00000000 		.4byte	.LFB54
 8348 008c 12000000 		.4byte	.LFE54-.LFB54
 8349 0090 00000000 		.4byte	.LFB55
 8350 0094 16000000 		.4byte	.LFE55-.LFB55
 8351 0098 00000000 		.4byte	.LFB56
 8352 009c 0E000000 		.4byte	.LFE56-.LFB56
 8353 00a0 00000000 		.4byte	.LFB57
 8354 00a4 1A000000 		.4byte	.LFE57-.LFB57
 8355 00a8 00000000 		.4byte	.LFB58
 8356 00ac 12000000 		.4byte	.LFE58-.LFB58
 8357 00b0 00000000 		.4byte	.LFB59
 8358 00b4 12000000 		.4byte	.LFE59-.LFB59
 8359 00b8 00000000 		.4byte	.LFB60
 8360 00bc 0E000000 		.4byte	.LFE60-.LFB60
 8361 00c0 00000000 		.4byte	.LFB61
 8362 00c4 18000000 		.4byte	.LFE61-.LFB61
 8363 00c8 00000000 		.4byte	.LFB62
 8364 00cc 12000000 		.4byte	.LFE62-.LFB62
 8365 00d0 00000000 		.4byte	0
 8366 00d4 00000000 		.4byte	0
 8367              		.section	.debug_ranges,"",%progbits
 8368              	.Ldebug_ranges0:
 8369 0000 00000000 		.4byte	.LFB39
ARM GAS  C:\Users\EBANO_~1\AppData\Local\Temp\ccOSDu2a.s 			page 167


 8370 0004 08000000 		.4byte	.LFE39
 8371 0008 00000000 		.4byte	.LFB40
 8372 000c 1C000000 		.4byte	.LFE40
 8373 0010 00000000 		.4byte	.LFB41
 8374 0014 0E000000 		.4byte	.LFE41
 8375 0018 00000000 		.4byte	.LFB42
 8376 001c 0E000000 		.4byte	.LFE42
 8377 0020 00000000 		.4byte	.LFB43
 8378 0024 12000000 		.4byte	.LFE43
 8379 0028 00000000 		.4byte	.LFB44
 8380 002c 16000000 		.4byte	.LFE44
 8381 0030 00000000 		.4byte	.LFB45
 8382 0034 0E000000 		.4byte	.LFE45
 8383 0038 00000000 		.4byte	.LFB46
 8384 003c 12000000 		.4byte	.LFE46
 8385 0040 00000000 		.4byte	.LFB47
 8386 0044 16000000 		.4byte	.LFE47
 8387 0048 00000000 		.4byte	.LFB48
 8388 004c 16000000 		.4byte	.LFE48
 8389 0050 00000000 		.4byte	.LFB49
 8390 0054 18000000 		.4byte	.LFE49
 8391 0058 00000000 		.4byte	.LFB50
 8392 005c 22000000 		.4byte	.LFE50
 8393 0060 00000000 		.4byte	.LFB51
 8394 0064 12000000 		.4byte	.LFE51
 8395 0068 00000000 		.4byte	.LFB52
 8396 006c 12000000 		.4byte	.LFE52
 8397 0070 00000000 		.4byte	.LFB53
 8398 0074 12000000 		.4byte	.LFE53
 8399 0078 00000000 		.4byte	.LFB54
 8400 007c 12000000 		.4byte	.LFE54
 8401 0080 00000000 		.4byte	.LFB55
 8402 0084 16000000 		.4byte	.LFE55
 8403 0088 00000000 		.4byte	.LFB56
 8404 008c 0E000000 		.4byte	.LFE56
 8405 0090 00000000 		.4byte	.LFB57
 8406 0094 1A000000 		.4byte	.LFE57
 8407 0098 00000000 		.4byte	.LFB58
 8408 009c 12000000 		.4byte	.LFE58
 8409 00a0 00000000 		.4byte	.LFB59
 8410 00a4 12000000 		.4byte	.LFE59
 8411 00a8 00000000 		.4byte	.LFB60
 8412 00ac 0E000000 		.4byte	.LFE60
 8413 00b0 00000000 		.4byte	.LFB61
 8414 00b4 18000000 		.4byte	.LFE61
 8415 00b8 00000000 		.4byte	.LFB62
 8416 00bc 12000000 		.4byte	.LFE62
 8417 00c0 00000000 		.4byte	0
 8418 00c4 00000000 		.4byte	0
 8419              		.section	.debug_line,"",%progbits
 8420              	.Ldebug_line0:
 8421 0000 9C050000 		.section	.debug_str,"MS",%progbits,1
 8421      02006C03 
 8421      00000201 
 8421      FB0E0D00 
 8421      01010101 
 8422              	.LASF494:
ARM GAS  C:\Users\EBANO_~1\AppData\Local\Temp\ccOSDu2a.s 			page 168


 8423 0000 52656769 		.ascii	"RegionEU868TxParamSetupReq\000"
 8423      6F6E4555 
 8423      38363854 
 8423      78506172 
 8423      616D5365 
 8424              	.LASF209:
 8425 001b 52585F53 		.ascii	"RX_SLOT_WIN_CLASS_C\000"
 8425      4C4F545F 
 8425      57494E5F 
 8425      434C4153 
 8425      535F4300 
 8426              	.LASF271:
 8427 002f 5048595F 		.ascii	"PHY_JOIN_ACCEPT_DELAY1\000"
 8427      4A4F494E 
 8427      5F414343 
 8427      4550545F 
 8427      44454C41 
 8428              	.LASF272:
 8429 0046 5048595F 		.ascii	"PHY_JOIN_ACCEPT_DELAY2\000"
 8429      4A4F494E 
 8429      5F414343 
 8429      4550545F 
 8429      44454C41 
 8430              	.LASF318:
 8431 005d 52667531 		.ascii	"Rfu1Size\000"
 8431      53697A65 
 8431      00
 8432              	.LASF141:
 8433 0066 52657669 		.ascii	"Revision\000"
 8433      73696F6E 
 8433      00
 8434              	.LASF1:
 8435 006f 5F5F7569 		.ascii	"__uint8_t\000"
 8435      6E74385F 
 8435      7400
 8436              	.LASF316:
 8437 0079 73426561 		.ascii	"sBeaconFormat\000"
 8437      636F6E46 
 8437      6F726D61 
 8437      7400
 8438              	.LASF367:
 8439 0087 5278436F 		.ascii	"RxConfigParams_t\000"
 8439      6E666967 
 8439      50617261 
 8439      6D735F74 
 8439      00
 8440              	.LASF147:
 8441 0098 5F426F6F 		.ascii	"_Bool\000"
 8441      6C00
 8442              	.LASF79:
 8443 009e 5F6D6273 		.ascii	"_mbstate\000"
 8443      74617465 
 8443      00
 8444              	.LASF470:
 8445 00a7 6368616E 		.ascii	"chanMaskSet\000"
 8445      4D61736B 
 8445      53657400 
ARM GAS  C:\Users\EBANO_~1\AppData\Local\Temp\ccOSDu2a.s 			page 169


 8446              	.LASF58:
 8447 00b3 5F617465 		.ascii	"_atexit\000"
 8447      78697400 
 8448              	.LASF301:
 8449 00bb 5048595F 		.ascii	"PHY_BEACON_FORMAT\000"
 8449      42454143 
 8449      4F4E5F46 
 8449      4F524D41 
 8449      5400
 8450              	.LASF48:
 8451 00cd 5F5F746D 		.ascii	"__tm_mon\000"
 8451      5F6D6F6E 
 8451      00
 8452              	.LASF56:
 8453 00d6 5F666E74 		.ascii	"_fntypes\000"
 8453      79706573 
 8453      00
 8454              	.LASF86:
 8455 00df 5F696E63 		.ascii	"_inc\000"
 8455      00
 8456              	.LASF59:
 8457 00e4 5F696E64 		.ascii	"_ind\000"
 8457      00
 8458              	.LASF427:
 8459 00e9 52656769 		.ascii	"RegionSetContinuousWave\000"
 8459      6F6E5365 
 8459      74436F6E 
 8459      74696E75 
 8459      6F757357 
 8460              	.LASF188:
 8461 0101 57726974 		.ascii	"WriteBuffer\000"
 8461      65427566 
 8461      66657200 
 8462              	.LASF163:
 8463 010d 52784572 		.ascii	"RxError\000"
 8463      726F7200 
 8464              	.LASF18:
 8465 0115 75696E74 		.ascii	"uint16_t\000"
 8465      31365F74 
 8465      00
 8466              	.LASF189:
 8467 011e 52656164 		.ascii	"ReadBuffer\000"
 8467      42756666 
 8467      657200
 8468              	.LASF65:
 8469 0129 5F666C61 		.ascii	"_flags\000"
 8469      677300
 8470              	.LASF315:
 8471 0130 4368616E 		.ascii	"ChannelsMask_t\000"
 8471      6E656C73 
 8471      4D61736B 
 8471      5F7400
 8472              	.LASF96:
 8473 013f 5F637674 		.ascii	"_cvtlen\000"
 8473      6C656E00 
 8474              	.LASF223:
 8475 0147 4C4F5241 		.ascii	"LORAMAC_STATUS_NO_NETWORK_JOINED\000"
ARM GAS  C:\Users\EBANO_~1\AppData\Local\Temp\ccOSDu2a.s 			page 170


 8475      4D41435F 
 8475      53544154 
 8475      55535F4E 
 8475      4F5F4E45 
 8476              	.LASF100:
 8477 0168 5F736967 		.ascii	"_sig_func\000"
 8477      5F66756E 
 8477      6300
 8478              	.LASF376:
 8479 0172 41647245 		.ascii	"AdrEnabled\000"
 8479      6E61626C 
 8479      656400
 8480              	.LASF288:
 8481 017d 5048595F 		.ascii	"PHY_BEACON_RESERVED\000"
 8481      42454143 
 8481      4F4E5F52 
 8481      45534552 
 8481      56454400 
 8482              	.LASF399:
 8483 0191 54785469 		.ascii	"TxTimeOnAir\000"
 8483      6D654F6E 
 8483      41697200 
 8484              	.LASF78:
 8485 019d 5F6C6F63 		.ascii	"_lock\000"
 8485      6B00
 8486              	.LASF74:
 8487 01a3 5F6E6275 		.ascii	"_nbuf\000"
 8487      6600
 8488              	.LASF493:
 8489 01a9 52656769 		.ascii	"RegionEU868DlChannelReq\000"
 8489      6F6E4555 
 8489      38363844 
 8489      6C436861 
 8489      6E6E656C 
 8490              	.LASF133:
 8491 01c1 5F756E75 		.ascii	"_unused\000"
 8491      73656400 
 8492              	.LASF403:
 8493 01c9 4C617374 		.ascii	"LastAggrTx\000"
 8493      41676772 
 8493      547800
 8494              	.LASF404:
 8495 01d4 4E657874 		.ascii	"NextChanParams_t\000"
 8495      4368616E 
 8495      50617261 
 8495      6D735F74 
 8495      00
 8496              	.LASF162:
 8497 01e5 52785469 		.ascii	"RxTimeout\000"
 8497      6D656F75 
 8497      7400
 8498              	.LASF306:
 8499 01ef 50687941 		.ascii	"PhyAttribute_t\000"
 8499      74747269 
 8499      62757465 
 8499      5F7400
 8500              	.LASF420:
ARM GAS  C:\Users\EBANO_~1\AppData\Local\Temp\ccOSDu2a.s 			page 171


 8501 01fe 4D617850 		.ascii	"MaxPayloadOfDatarateRepeaterEU868\000"
 8501      61796C6F 
 8501      61644F66 
 8501      44617461 
 8501      72617465 
 8502              	.LASF160:
 8503 0220 54785469 		.ascii	"TxTimeout\000"
 8503      6D656F75 
 8503      7400
 8504              	.LASF361:
 8505 022a 44724F66 		.ascii	"DrOffset\000"
 8505      66736574 
 8505      00
 8506              	.LASF289:
 8507 0233 5048595F 		.ascii	"PHY_BEACON_GUARD\000"
 8507      42454143 
 8507      4F4E5F47 
 8507      55415244 
 8507      00
 8508              	.LASF349:
 8509 0244 44617461 		.ascii	"DatarateParams\000"
 8509      72617465 
 8509      50617261 
 8509      6D7300
 8510              	.LASF142:
 8511 0253 4D696E6F 		.ascii	"Minor\000"
 8511      7200
 8512              	.LASF476:
 8513 0259 52656769 		.ascii	"RegionGetNvmCtx\000"
 8513      6F6E4765 
 8513      744E766D 
 8513      43747800 
 8514              	.LASF449:
 8515 0269 6E657743 		.ascii	"newChannelReq\000"
 8515      68616E6E 
 8515      656C5265 
 8515      7100
 8516              	.LASF169:
 8517 0277 496F4465 		.ascii	"IoDeInit\000"
 8517      496E6974 
 8517      00
 8518              	.LASF402:
 8519 0280 41676772 		.ascii	"AggrTimeOff\000"
 8519      54696D65 
 8519      4F666600 
 8520              	.LASF19:
 8521 028c 696E7433 		.ascii	"int32_t\000"
 8521      325F7400 
 8522              	.LASF478:
 8523 0294 52656769 		.ascii	"RegionInitDefaults\000"
 8523      6F6E496E 
 8523      69744465 
 8523      6661756C 
 8523      747300
 8524              	.LASF111:
 8525 02a7 5F616464 		.ascii	"_add\000"
 8525      00
ARM GAS  C:\Users\EBANO_~1\AppData\Local\Temp\ccOSDu2a.s 			page 172


 8526              	.LASF451:
 8527 02ac 72785061 		.ascii	"rxParamSetupReq\000"
 8527      72616D53 
 8527      65747570 
 8527      52657100 
 8528              	.LASF154:
 8529 02bc 52465F49 		.ascii	"RF_IDLE\000"
 8529      444C4500 
 8530              	.LASF233:
 8531 02c4 4C4F5241 		.ascii	"LORAMAC_STATUS_CRYPTO_ERROR\000"
 8531      4D41435F 
 8531      53544154 
 8531      55535F43 
 8531      52595054 
 8532              	.LASF385:
 8533 02e0 4368616E 		.ascii	"ChannelId\000"
 8533      6E656C49 
 8533      6400
 8534              	.LASF381:
 8535 02ea 73527850 		.ascii	"sRxParamSetupReqParams\000"
 8535      6172616D 
 8535      53657475 
 8535      70526571 
 8535      50617261 
 8536              	.LASF474:
 8537 0301 76657269 		.ascii	"verify\000"
 8537      667900
 8538              	.LASF67:
 8539 0308 5F6C6266 		.ascii	"_lbfsize\000"
 8539      73697A65 
 8539      00
 8540              	.LASF426:
 8541 0311 52656769 		.ascii	"RegionRxBeaconSetup\000"
 8541      6F6E5278 
 8541      42656163 
 8541      6F6E5365 
 8541      74757000 
 8542              	.LASF263:
 8543 0325 5048595F 		.ascii	"PHY_DEF_ADR_ACK_LIMIT\000"
 8543      4445465F 
 8543      4144525F 
 8543      41434B5F 
 8543      4C494D49 
 8544              	.LASF167:
 8545 033b 52616469 		.ascii	"Radio_s\000"
 8545      6F5F7300 
 8546              	.LASF382:
 8547 0343 52785061 		.ascii	"RxParamSetupReqParams_t\000"
 8547      72616D53 
 8547      65747570 
 8547      52657150 
 8547      6172616D 
 8548              	.LASF77:
 8549 035b 5F646174 		.ascii	"_data\000"
 8549      6100
 8550              	.LASF317:
 8551 0361 42656163 		.ascii	"BeaconSize\000"
ARM GAS  C:\Users\EBANO_~1\AppData\Local\Temp\ccOSDu2a.s 			page 173


 8551      6F6E5369 
 8551      7A6500
 8552              	.LASF190:
 8553 036c 5365744D 		.ascii	"SetMaxPayloadLength\000"
 8553      61785061 
 8553      796C6F61 
 8553      644C656E 
 8553      67746800 
 8554              	.LASF149:
 8555 0380 5F646179 		.ascii	"_daylight\000"
 8555      6C696768 
 8555      7400
 8556              	.LASF215:
 8557 038a 654C6F52 		.ascii	"eLoRaMacStatus\000"
 8557      614D6163 
 8557      53746174 
 8557      757300
 8558              	.LASF483:
 8559 0399 70687950 		.ascii	"phyParam\000"
 8559      6172616D 
 8559      00
 8560              	.LASF134:
 8561 03a2 5F5F6C6F 		.ascii	"__lock\000"
 8561      636B00
 8562              	.LASF81:
 8563 03a9 5F726565 		.ascii	"_reent\000"
 8563      6E7400
 8564              	.LASF473:
 8565 03b0 52656769 		.ascii	"RegionVerify\000"
 8565      6F6E5665 
 8565      72696679 
 8565      00
 8566              	.LASF227:
 8567 03bd 4C4F5241 		.ascii	"LORAMAC_STATUS_DUTYCYCLE_RESTRICTED\000"
 8567      4D41435F 
 8567      53544154 
 8567      55535F44 
 8567      55545943 
 8568              	.LASF332:
 8569 03e1 47657450 		.ascii	"GetPhyParams_t\000"
 8569      68795061 
 8569      72616D73 
 8569      5F7400
 8570              	.LASF182:
 8571 03f0 5374616E 		.ascii	"Standby\000"
 8571      64627900 
 8572              	.LASF102:
 8573 03f8 5F5F7366 		.ascii	"__sf\000"
 8573      00
 8574              	.LASF62:
 8575 03fd 5F626173 		.ascii	"_base\000"
 8575      6500
 8576              	.LASF186:
 8577 0403 57726974 		.ascii	"Write\000"
 8577      6500
 8578              	.LASF120:
 8579 0409 5F6D6274 		.ascii	"_mbtowc_state\000"
ARM GAS  C:\Users\EBANO_~1\AppData\Local\Temp\ccOSDu2a.s 			page 174


 8579      6F77635F 
 8579      73746174 
 8579      6500
 8580              	.LASF311:
 8581 0417 496E6974 		.ascii	"InitType_t\000"
 8581      54797065 
 8581      5F7400
 8582              	.LASF464:
 8583 0422 64617461 		.ascii	"datarate\000"
 8583      72617465 
 8583      00
 8584              	.LASF336:
 8585 042b 4C617374 		.ascii	"LastTxDoneTime\000"
 8585      5478446F 
 8585      6E655469 
 8585      6D6500
 8586              	.LASF187:
 8587 043a 52656164 		.ascii	"Read\000"
 8587      00
 8588              	.LASF43:
 8589 043f 5F5F746D 		.ascii	"__tm\000"
 8589      00
 8590              	.LASF51:
 8591 0444 5F5F746D 		.ascii	"__tm_yday\000"
 8591      5F796461 
 8591      7900
 8592              	.LASF480:
 8593 044e 7478446F 		.ascii	"txDone\000"
 8593      6E6500
 8594              	.LASF259:
 8595 0455 5048595F 		.ascii	"PHY_RX_DR\000"
 8595      52585F44 
 8595      5200
 8596              	.LASF443:
 8597 045f 74797065 		.ascii	"type\000"
 8597      00
 8598              	.LASF405:
 8599 0464 73436861 		.ascii	"sChannelAddParams\000"
 8599      6E6E656C 
 8599      41646450 
 8599      6172616D 
 8599      7300
 8600              	.LASF27:
 8601 0476 5F4C4F43 		.ascii	"_LOCK_T\000"
 8601      4B5F5400 
 8602              	.LASF204:
 8603 047e 44725261 		.ascii	"DrRange\000"
 8603      6E676500 
 8604              	.LASF297:
 8605 0486 5048595F 		.ascii	"PHY_PING_SLOT_SYMBOL_TO_EXPANSION_FACTOR\000"
 8605      50494E47 
 8605      5F534C4F 
 8605      545F5359 
 8605      4D424F4C 
 8606              	.LASF504:
 8607 04af 52656769 		.ascii	"RegionEU868GetNvmCtx\000"
 8607      6F6E4555 
ARM GAS  C:\Users\EBANO_~1\AppData\Local\Temp\ccOSDu2a.s 			page 175


 8607      38363847 
 8607      65744E76 
 8607      6D437478 
 8608              	.LASF194:
 8609 04c4 5278426F 		.ascii	"RxBoosted\000"
 8609      6F737465 
 8609      6400
 8610              	.LASF4:
 8611 04ce 5F5F696E 		.ascii	"__int16_t\000"
 8611      7431365F 
 8611      7400
 8612              	.LASF251:
 8613 04d8 4C6F5261 		.ascii	"LoRaMacRegion_t\000"
 8613      4D616352 
 8613      6567696F 
 8613      6E5F7400 
 8614              	.LASF421:
 8615 04e8 72656769 		.ascii	"region\000"
 8615      6F6E00
 8616              	.LASF472:
 8617 04ef 6170706C 		.ascii	"applyCFList\000"
 8617      7943464C 
 8617      69737400 
 8618              	.LASF6:
 8619 04fb 5F5F7569 		.ascii	"__uint16_t\000"
 8619      6E743136 
 8619      5F7400
 8620              	.LASF275:
 8621 0506 5048595F 		.ascii	"PHY_DEF_DR1_OFFSET\000"
 8621      4445465F 
 8621      4452315F 
 8621      4F464653 
 8621      455400
 8622              	.LASF112:
 8623 0519 5F756E75 		.ascii	"_unused_rand\000"
 8623      7365645F 
 8623      72616E64 
 8623      00
 8624              	.LASF345:
 8625 0526 73446174 		.ascii	"sDatarateParams\000"
 8625      61726174 
 8625      65506172 
 8625      616D7300 
 8626              	.LASF279:
 8627 0536 5048595F 		.ascii	"PHY_CHANNELS_DEFAULT_MASK\000"
 8627      4348414E 
 8627      4E454C53 
 8627      5F444546 
 8627      41554C54 
 8628              	.LASF428:
 8629 0550 636F6E74 		.ascii	"continuousWave\000"
 8629      696E756F 
 8629      75735761 
 8629      766500
 8630              	.LASF412:
 8631 055f 73527842 		.ascii	"sRxBeaconSetupParams\000"
 8631      6561636F 
ARM GAS  C:\Users\EBANO_~1\AppData\Local\Temp\ccOSDu2a.s 			page 176


 8631      6E536574 
 8631      75705061 
 8631      72616D73 
 8632              	.LASF363:
 8633 0574 57696E64 		.ascii	"WindowOffset\000"
 8633      6F774F66 
 8633      66736574 
 8633      00
 8634              	.LASF290:
 8635 0581 5048595F 		.ascii	"PHY_BEACON_WINDOW\000"
 8635      42454143 
 8635      4F4E5F57 
 8635      494E444F 
 8635      5700
 8636              	.LASF93:
 8637 0593 5F726573 		.ascii	"_result_k\000"
 8637      756C745F 
 8637      6B00
 8638              	.LASF85:
 8639 059d 5F737464 		.ascii	"_stderr\000"
 8639      65727200 
 8640              	.LASF92:
 8641 05a5 5F726573 		.ascii	"_result\000"
 8641      756C7400 
 8642              	.LASF447:
 8643 05ad 74785061 		.ascii	"txParamSetupReq\000"
 8643      72616D53 
 8643      65747570 
 8643      52657100 
 8644              	.LASF55:
 8645 05bd 5F64736F 		.ascii	"_dso_handle\000"
 8645      5F68616E 
 8645      646C6500 
 8646              	.LASF395:
 8647 05c9 7343616C 		.ascii	"sCalcBackOffParams\000"
 8647      63426163 
 8647      6B4F6666 
 8647      50617261 
 8647      6D7300
 8648              	.LASF50:
 8649 05dc 5F5F746D 		.ascii	"__tm_wday\000"
 8649      5F776461 
 8649      7900
 8650              	.LASF52:
 8651 05e6 5F5F746D 		.ascii	"__tm_isdst\000"
 8651      5F697364 
 8651      737400
 8652              	.LASF224:
 8653 05f1 4C4F5241 		.ascii	"LORAMAC_STATUS_LENGTH_ERROR\000"
 8653      4D41435F 
 8653      53544154 
 8653      55535F4C 
 8653      454E4754 
 8654              	.LASF3:
 8655 060d 756E7369 		.ascii	"unsigned char\000"
 8655      676E6564 
 8655      20636861 
ARM GAS  C:\Users\EBANO_~1\AppData\Local\Temp\ccOSDu2a.s 			page 177


 8655      7200
 8656              	.LASF84:
 8657 061b 5F737464 		.ascii	"_stdout\000"
 8657      6F757400 
 8658              	.LASF342:
 8659 0623 73476574 		.ascii	"sGetNvmCtxParams\000"
 8659      4E766D43 
 8659      74785061 
 8659      72616D73 
 8659      00
 8660              	.LASF127:
 8661 0634 5F6D6273 		.ascii	"_mbsrtowcs_state\000"
 8661      72746F77 
 8661      63735F73 
 8661      74617465 
 8661      00
 8662              	.LASF41:
 8663 0645 5F776473 		.ascii	"_wds\000"
 8663      00
 8664              	.LASF200:
 8665 064a 44725261 		.ascii	"DrRange_t\000"
 8665      6E67655F 
 8665      7400
 8666              	.LASF213:
 8667 0654 666C6F61 		.ascii	"float\000"
 8667      7400
 8668              	.LASF247:
 8669 065a 4C4F5241 		.ascii	"LORAMAC_REGION_KR920\000"
 8669      4D41435F 
 8669      52454749 
 8669      4F4E5F4B 
 8669      52393230 
 8670              	.LASF510:
 8671 066f 443A5C67 		.ascii	"D:\\git_pessoal\\keil_gcc\\STM32CubeExpansion_LRWAN"
 8671      69745F70 
 8671      6573736F 
 8671      616C5C6B 
 8671      65696C5F 
 8672 069f 5F56312E 		.ascii	"_V1.2.1\\Projects\\B-L072Z-LRWAN1\\Applications\\Lo"
 8672      322E315C 
 8672      50726F6A 
 8672      65637473 
 8672      5C422D4C 
 8673 06ce 52615C45 		.ascii	"Ra\\End_Node\\MDK-ARM\000"
 8673      6E645F4E 
 8673      6F64655C 
 8673      4D444B2D 
 8673      41524D00 
 8674              	.LASF276:
 8675 06e2 5048595F 		.ascii	"PHY_DEF_RX2_FREQUENCY\000"
 8675      4445465F 
 8675      5258325F 
 8675      46524551 
 8675      55454E43 
 8676              	.LASF499:
 8677 06f8 52656769 		.ascii	"RegionEU868RxConfig\000"
 8677      6F6E4555 
ARM GAS  C:\Users\EBANO_~1\AppData\Local\Temp\ccOSDu2a.s 			page 178


 8677      38363852 
 8677      78436F6E 
 8677      66696700 
 8678              	.LASF328:
 8679 070c 41747472 		.ascii	"Attribute\000"
 8679      69627574 
 8679      6500
 8680              	.LASF252:
 8681 0716 65506879 		.ascii	"ePhyAttribute\000"
 8681      41747472 
 8681      69627574 
 8681      6500
 8682              	.LASF63:
 8683 0724 5F73697A 		.ascii	"_size\000"
 8683      6500
 8684              	.LASF374:
 8685 072a 56657273 		.ascii	"Version\000"
 8685      696F6E00 
 8686              	.LASF70:
 8687 0732 5F777269 		.ascii	"_write\000"
 8687      746500
 8688              	.LASF391:
 8689 0739 65416C74 		.ascii	"eAlternateDrType\000"
 8689      65726E61 
 8689      74654472 
 8689      54797065 
 8689      00
 8690              	.LASF369:
 8691 074a 4D617845 		.ascii	"MaxEirp\000"
 8691      69727000 
 8692              	.LASF172:
 8693 0752 5365744D 		.ascii	"SetModem\000"
 8693      6F64656D 
 8693      00
 8694              	.LASF366:
 8695 075b 5278536C 		.ascii	"RxSlot\000"
 8695      6F7400
 8696              	.LASF219:
 8697 0762 4C4F5241 		.ascii	"LORAMAC_STATUS_PARAMETER_INVALID\000"
 8697      4D41435F 
 8697      53544154 
 8697      55535F50 
 8697      4152414D 
 8698              	.LASF408:
 8699 0783 4368616E 		.ascii	"ChannelRemoveParams_t\000"
 8699      6E656C52 
 8699      656D6F76 
 8699      65506172 
 8699      616D735F 
 8700              	.LASF159:
 8701 0799 5478446F 		.ascii	"TxDone\000"
 8701      6E6500
 8702              	.LASF49:
 8703 07a0 5F5F746D 		.ascii	"__tm_year\000"
 8703      5F796561 
 8703      7200
 8704              	.LASF199:
ARM GAS  C:\Users\EBANO_~1\AppData\Local\Temp\ccOSDu2a.s 			page 179


 8705 07aa 75447252 		.ascii	"uDrRange\000"
 8705      616E6765 
 8705      00
 8706              	.LASF205:
 8707 07b3 42616E64 		.ascii	"Band\000"
 8707      00
 8708              	.LASF373:
 8709 07b8 734C696E 		.ascii	"sLinkAdrReqParams\000"
 8709      6B416472 
 8709      52657150 
 8709      6172616D 
 8709      7300
 8710              	.LASF362:
 8711 07ca 57696E64 		.ascii	"WindowTimeout\000"
 8711      6F775469 
 8711      6D656F75 
 8711      7400
 8712              	.LASF196:
 8713 07d8 52616469 		.ascii	"Radio\000"
 8713      6F00
 8714              	.LASF498:
 8715 07de 52656769 		.ascii	"RegionEU868TxConfig\000"
 8715      6F6E4555 
 8715      38363854 
 8715      78436F6E 
 8715      66696700 
 8716              	.LASF508:
 8717 07f2 474E5520 		.ascii	"GNU C11 7.3.1 20180622 (release) [ARM/embedded-7-br"
 8717      43313120 
 8717      372E332E 
 8717      31203230 
 8717      31383036 
 8718 0825 616E6368 		.ascii	"anch revision 261907] -mcpu=cortex-m0plus -mthumb -"
 8718      20726576 
 8718      6973696F 
 8718      6E203236 
 8718      31393037 
 8719 0858 6D666C6F 		.ascii	"mfloat-abi=soft -gdwarf-2 -O3 -ffunction-sections\000"
 8719      61742D61 
 8719      62693D73 
 8719      6F667420 
 8719      2D676477 
 8720              	.LASF110:
 8721 088a 5F6D756C 		.ascii	"_mult\000"
 8721      7400
 8722              	.LASF183:
 8723 0890 53746172 		.ascii	"StartCad\000"
 8723      74436164 
 8723      00
 8724              	.LASF383:
 8725 0899 734E6577 		.ascii	"sNewChannelReqParams\000"
 8725      4368616E 
 8725      6E656C52 
 8725      65715061 
 8725      72616D73 
 8726              	.LASF125:
 8727 08ae 5F6D6272 		.ascii	"_mbrlen_state\000"
ARM GAS  C:\Users\EBANO_~1\AppData\Local\Temp\ccOSDu2a.s 			page 180


 8727      6C656E5F 
 8727      73746174 
 8727      6500
 8728              	.LASF468:
 8729 08bc 7278436F 		.ascii	"rxConfigParams\000"
 8729      6E666967 
 8729      50617261 
 8729      6D7300
 8730              	.LASF419:
 8731 08cb 4D617850 		.ascii	"MaxPayloadOfDatarateEU868\000"
 8731      61796C6F 
 8731      61644F66 
 8731      44617461 
 8731      72617465 
 8732              	.LASF234:
 8733 08e5 4C4F5241 		.ascii	"LORAMAC_STATUS_FCNT_HANDLER_ERROR\000"
 8733      4D41435F 
 8733      53544154 
 8733      55535F46 
 8733      434E545F 
 8734              	.LASF386:
 8735 0907 4E657743 		.ascii	"NewChannelReqParams_t\000"
 8735      68616E6E 
 8735      656C5265 
 8735      71506172 
 8735      616D735F 
 8736              	.LASF161:
 8737 091d 5278446F 		.ascii	"RxDone\000"
 8737      6E6500
 8738              	.LASF83:
 8739 0924 5F737464 		.ascii	"_stdin\000"
 8739      696E00
 8740              	.LASF253:
 8741 092b 5048595F 		.ascii	"PHY_MIN_RX_DR\000"
 8741      4D494E5F 
 8741      52585F44 
 8741      5200
 8742              	.LASF132:
 8743 0939 5F6E6D61 		.ascii	"_nmalloc\000"
 8743      6C6C6F63 
 8743      00
 8744              	.LASF343:
 8745 0942 6E766D43 		.ascii	"nvmCtxSize\000"
 8745      74785369 
 8745      7A6500
 8746              	.LASF175:
 8747 094d 52616E64 		.ascii	"Random\000"
 8747      6F6D00
 8748              	.LASF410:
 8749 0954 54696D65 		.ascii	"Timeout\000"
 8749      6F757400 
 8750              	.LASF340:
 8751 095c 54797065 		.ascii	"Type\000"
 8751      00
 8752              	.LASF471:
 8753 0961 52656769 		.ascii	"RegionApplyCFList\000"
 8753      6F6E4170 
ARM GAS  C:\Users\EBANO_~1\AppData\Local\Temp\ccOSDu2a.s 			page 181


 8753      706C7943 
 8753      464C6973 
 8753      7400
 8754              	.LASF377:
 8755 0973 43757272 		.ascii	"CurrentDatarate\000"
 8755      656E7444 
 8755      61746172 
 8755      61746500 
 8756              	.LASF352:
 8757 0983 5061796C 		.ascii	"Payload\000"
 8757      6F616400 
 8758              	.LASF268:
 8759 098b 5048595F 		.ascii	"PHY_MAX_RX_WINDOW\000"
 8759      4D41585F 
 8759      52585F57 
 8759      494E444F 
 8759      5700
 8760              	.LASF28:
 8761 099d 5F6F6666 		.ascii	"_off_t\000"
 8761      5F7400
 8762              	.LASF140:
 8763 09a4 56657273 		.ascii	"Version_s\000"
 8763      696F6E5F 
 8763      7300
 8764              	.LASF146:
 8765 09ae 56657273 		.ascii	"Version_t\000"
 8765      696F6E5F 
 8765      7400
 8766              	.LASF198:
 8767 09b8 56657273 		.ascii	"Version_u\000"
 8767      696F6E5F 
 8767      7500
 8768              	.LASF25:
 8769 09c2 73697A65 		.ascii	"size_t\000"
 8769      5F7400
 8770              	.LASF115:
 8771 09c9 5F6C6F63 		.ascii	"_localtime_buf\000"
 8771      616C7469 
 8771      6D655F62 
 8771      756600
 8772              	.LASF33:
 8773 09d8 5F5F636F 		.ascii	"__count\000"
 8773      756E7400 
 8774              	.LASF16:
 8775 09e0 75696E74 		.ascii	"uint8_t\000"
 8775      385F7400 
 8776              	.LASF245:
 8777 09e8 4C4F5241 		.ascii	"LORAMAC_REGION_EU433\000"
 8777      4D41435F 
 8777      52454749 
 8777      4F4E5F45 
 8777      55343333 
 8778              	.LASF295:
 8779 09fd 5048595F 		.ascii	"PHY_PING_SLOT_SYMBOL_TO_EXPANSION_MAX\000"
 8779      50494E47 
 8779      5F534C4F 
 8779      545F5359 
ARM GAS  C:\Users\EBANO_~1\AppData\Local\Temp\ccOSDu2a.s 			page 182


 8779      4D424F4C 
 8780              	.LASF303:
 8781 0a23 5048595F 		.ascii	"PHY_BEACON_CHANNEL_STEPWIDTH\000"
 8781      42454143 
 8781      4F4E5F43 
 8781      48414E4E 
 8781      454C5F53 
 8782              	.LASF465:
 8783 0a40 52656769 		.ascii	"RegionComputeRxWindowParameters\000"
 8783      6F6E436F 
 8783      6D707574 
 8783      65527857 
 8783      696E646F 
 8784              	.LASF254:
 8785 0a60 5048595F 		.ascii	"PHY_MIN_TX_DR\000"
 8785      4D494E5F 
 8785      54585F44 
 8785      5200
 8786              	.LASF293:
 8787 0a6e 5048595F 		.ascii	"PHY_BEACON_SYMBOL_TO_DEFAULT\000"
 8787      42454143 
 8787      4F4E5F53 
 8787      594D424F 
 8787      4C5F544F 
 8788              	.LASF214:
 8789 0a8b 654C6F52 		.ascii	"eLoRaMacRxSlot\000"
 8789      614D6163 
 8789      5278536C 
 8789      6F7400
 8790              	.LASF97:
 8791 0a9a 5F637674 		.ascii	"_cvtbuf\000"
 8791      62756600 
 8792              	.LASF341:
 8793 0aa2 496E6974 		.ascii	"InitDefaultsParams_t\000"
 8793      44656661 
 8793      756C7473 
 8793      50617261 
 8793      6D735F74 
 8794              	.LASF430:
 8795 0ab7 52656769 		.ascii	"RegionChannelsRemove\000"
 8795      6F6E4368 
 8795      616E6E65 
 8795      6C735265 
 8795      6D6F7665 
 8796              	.LASF364:
 8797 0acc 52657065 		.ascii	"RepeaterSupport\000"
 8797      61746572 
 8797      53757070 
 8797      6F727400 
 8798              	.LASF211:
 8799 0adc 52585F53 		.ascii	"RX_SLOT_WIN_MULTICAST_SLOT\000"
 8799      4C4F545F 
 8799      57494E5F 
 8799      4D554C54 
 8799      49434153 
 8800              	.LASF195:
 8801 0af7 53657452 		.ascii	"SetRxDutyCycle\000"
ARM GAS  C:\Users\EBANO_~1\AppData\Local\Temp\ccOSDu2a.s 			page 183


 8801      78447574 
 8801      79437963 
 8801      6C6500
 8802              	.LASF32:
 8803 0b06 5F5F7763 		.ascii	"__wchb\000"
 8803      686200
 8804              	.LASF126:
 8805 0b0d 5F6D6272 		.ascii	"_mbrtowc_state\000"
 8805      746F7763 
 8805      5F737461 
 8805      746500
 8806              	.LASF46:
 8807 0b1c 5F5F746D 		.ascii	"__tm_hour\000"
 8807      5F686F75 
 8807      7200
 8808              	.LASF151:
 8809 0b26 4D4F4445 		.ascii	"MODEM_FSK\000"
 8809      4D5F4653 
 8809      4B00
 8810              	.LASF440:
 8811 0b30 63616C63 		.ascii	"calcBackOff\000"
 8811      4261636B 
 8811      4F666600 
 8812              	.LASF354:
 8813 0b3c 4170706C 		.ascii	"ApplyCFListParams_t\000"
 8813      7943464C 
 8813      69737450 
 8813      6172616D 
 8813      735F7400 
 8814              	.LASF265:
 8815 0b50 5048595F 		.ascii	"PHY_MAX_PAYLOAD\000"
 8815      4D41585F 
 8815      5041594C 
 8815      4F414400 
 8816              	.LASF30:
 8817 0b60 77696E74 		.ascii	"wint_t\000"
 8817      5F7400
 8818              	.LASF98:
 8819 0b67 5F6E6577 		.ascii	"_new\000"
 8819      00
 8820              	.LASF181:
 8821 0b6c 536C6565 		.ascii	"Sleep\000"
 8821      7000
 8822              	.LASF351:
 8823 0b72 73417070 		.ascii	"sApplyCFListParams\000"
 8823      6C794346 
 8823      4C697374 
 8823      50617261 
 8823      6D7300
 8824              	.LASF106:
 8825 0b85 5F6E696F 		.ascii	"_niobs\000"
 8825      627300
 8826              	.LASF327:
 8827 0b8c 73476574 		.ascii	"sGetPhyParams\000"
 8827      50687950 
 8827      6172616D 
 8827      7300
ARM GAS  C:\Users\EBANO_~1\AppData\Local\Temp\ccOSDu2a.s 			page 184


 8828              	.LASF235:
 8829 0b9a 4C4F5241 		.ascii	"LORAMAC_STATUS_MAC_COMMAD_ERROR\000"
 8829      4D41435F 
 8829      53544154 
 8829      55535F4D 
 8829      41435F43 
 8830              	.LASF153:
 8831 0bba 52616469 		.ascii	"RadioModems_t\000"
 8831      6F4D6F64 
 8831      656D735F 
 8831      7400
 8832              	.LASF324:
 8833 0bc8 4368616E 		.ascii	"Channels\000"
 8833      6E656C73 
 8833      00
 8834              	.LASF337:
 8835 0bd1 53657442 		.ascii	"SetBandTxDoneParams_t\000"
 8835      616E6454 
 8835      78446F6E 
 8835      65506172 
 8835      616D735F 
 8836              	.LASF438:
 8837 0be7 61676772 		.ascii	"aggregatedTimeOff\000"
 8837      65676174 
 8837      65645469 
 8837      6D654F66 
 8837      6600
 8838              	.LASF82:
 8839 0bf9 5F657272 		.ascii	"_errno\000"
 8839      6E6F00
 8840              	.LASF292:
 8841 0c00 5048595F 		.ascii	"PHY_PING_SLOT_WINDOW\000"
 8841      50494E47 
 8841      5F534C4F 
 8841      545F5749 
 8841      4E444F57 
 8842              	.LASF47:
 8843 0c15 5F5F746D 		.ascii	"__tm_mday\000"
 8843      5F6D6461 
 8843      7900
 8844              	.LASF54:
 8845 0c1f 5F666E61 		.ascii	"_fnargs\000"
 8845      72677300 
 8846              	.LASF308:
 8847 0c27 494E4954 		.ascii	"INIT_TYPE_INIT\000"
 8847      5F545950 
 8847      455F494E 
 8847      495400
 8848              	.LASF260:
 8849 0c36 5048595F 		.ascii	"PHY_MAX_TX_POWER\000"
 8849      4D41585F 
 8849      54585F50 
 8849      4F574552 
 8849      00
 8850              	.LASF243:
 8851 0c47 4C4F5241 		.ascii	"LORAMAC_REGION_CN470\000"
 8851      4D41435F 
ARM GAS  C:\Users\EBANO_~1\AppData\Local\Temp\ccOSDu2a.s 			page 185


 8851      52454749 
 8851      4F4E5F43 
 8851      4E343730 
 8852              	.LASF423:
 8853 0c5c 6F757444 		.ascii	"outDr\000"
 8853      7200
 8854              	.LASF286:
 8855 0c62 5048595F 		.ascii	"PHY_NEXT_LOWER_TX_DR\000"
 8855      4E455854 
 8855      5F4C4F57 
 8855      45525F54 
 8855      585F4452 
 8856              	.LASF502:
 8857 0c77 52656769 		.ascii	"RegionEU868ApplyCFList\000"
 8857      6F6E4555 
 8857      38363841 
 8857      70706C79 
 8857      43464C69 
 8858              	.LASF283:
 8859 0c8e 5048595F 		.ascii	"PHY_DEF_DOWNLINK_DWELL_TIME\000"
 8859      4445465F 
 8859      444F574E 
 8859      4C494E4B 
 8859      5F445745 
 8860              	.LASF398:
 8861 0caa 456C6170 		.ascii	"ElapsedTime\000"
 8861      73656454 
 8861      696D6500 
 8862              	.LASF294:
 8863 0cb6 5048595F 		.ascii	"PHY_BEACON_SYMBOL_TO_EXPANSION_MAX\000"
 8863      42454143 
 8863      4F4E5F53 
 8863      594D424F 
 8863      4C5F544F 
 8864              	.LASF38:
 8865 0cd9 5F6E6578 		.ascii	"_next\000"
 8865      7400
 8866              	.LASF164:
 8867 0cdf 46687373 		.ascii	"FhssChangeChannel\000"
 8867      4368616E 
 8867      67654368 
 8867      616E6E65 
 8867      6C00
 8868              	.LASF457:
 8869 0cf1 6E624279 		.ascii	"nbBytesParsed\000"
 8869      74657350 
 8869      61727365 
 8869      6400
 8870              	.LASF477:
 8871 0cff 70617261 		.ascii	"params\000"
 8871      6D7300
 8872              	.LASF123:
 8873 0d06 5F736967 		.ascii	"_signal_buf\000"
 8873      6E616C5F 
 8873      62756600 
 8874              	.LASF68:
 8875 0d12 5F636F6F 		.ascii	"_cookie\000"
ARM GAS  C:\Users\EBANO_~1\AppData\Local\Temp\ccOSDu2a.s 			page 186


 8875      6B696500 
 8876              	.LASF277:
 8877 0d1a 5048595F 		.ascii	"PHY_DEF_RX2_DR\000"
 8877      4445465F 
 8877      5258325F 
 8877      445200
 8878              	.LASF414:
 8879 0d29 52785469 		.ascii	"RxTime\000"
 8879      6D6500
 8880              	.LASF269:
 8881 0d30 5048595F 		.ascii	"PHY_RECEIVE_DELAY1\000"
 8881      52454345 
 8881      4956455F 
 8881      44454C41 
 8881      593100
 8882              	.LASF270:
 8883 0d43 5048595F 		.ascii	"PHY_RECEIVE_DELAY2\000"
 8883      52454345 
 8883      4956455F 
 8883      44454C41 
 8883      593200
 8884              	.LASF150:
 8885 0d56 5F747A6E 		.ascii	"_tzname\000"
 8885      616D6500 
 8886              	.LASF358:
 8887 0d5e 4368616E 		.ascii	"ChanMaskSetParams_t\000"
 8887      4D61736B 
 8887      53657450 
 8887      6172616D 
 8887      735F7400 
 8888              	.LASF225:
 8889 0d72 4C4F5241 		.ascii	"LORAMAC_STATUS_REGION_NOT_SUPPORTED\000"
 8889      4D41435F 
 8889      53544154 
 8889      55535F52 
 8889      4547494F 
 8890              	.LASF212:
 8891 0d96 4C6F5261 		.ascii	"LoRaMacRxSlot_t\000"
 8891      4D616352 
 8891      78536C6F 
 8891      745F7400 
 8892              	.LASF155:
 8893 0da6 52465F52 		.ascii	"RF_RX_RUNNING\000"
 8893      585F5255 
 8893      4E4E494E 
 8893      4700
 8894              	.LASF450:
 8895 0db4 52656769 		.ascii	"RegionRxParamSetupReq\000"
 8895      6F6E5278 
 8895      50617261 
 8895      6D536574 
 8895      75705265 
 8896              	.LASF238:
 8897 0dca 4C4F5241 		.ascii	"LORAMAC_STATUS_ERROR\000"
 8897      4D41435F 
 8897      53544154 
 8897      55535F45 
ARM GAS  C:\Users\EBANO_~1\AppData\Local\Temp\ccOSDu2a.s 			page 187


 8897      52524F52 
 8898              	.LASF393:
 8899 0ddf 414C5445 		.ascii	"ALTERNATE_DR_RESTORE\000"
 8899      524E4154 
 8899      455F4452 
 8899      5F524553 
 8899      544F5245 
 8900              	.LASF325:
 8901 0df4 42656163 		.ascii	"BeaconFormat\000"
 8901      6F6E466F 
 8901      726D6174 
 8901      00
 8902              	.LASF436:
 8903 0e01 6368616E 		.ascii	"channel\000"
 8903      6E656C00 
 8904              	.LASF371:
 8905 0e09 506B744C 		.ascii	"PktLen\000"
 8905      656E00
 8906              	.LASF444:
 8907 0e10 52656769 		.ascii	"RegionDlChannelReq\000"
 8907      6F6E446C 
 8907      4368616E 
 8907      6E656C52 
 8907      657100
 8908              	.LASF171:
 8909 0e23 47657453 		.ascii	"GetStatus\000"
 8909      74617475 
 8909      7300
 8910              	.LASF256:
 8911 0e2d 5048595F 		.ascii	"PHY_MAX_TX_DR\000"
 8911      4D41585F 
 8911      54585F44 
 8911      5200
 8912              	.LASF319:
 8913 0e3b 52667532 		.ascii	"Rfu2Size\000"
 8913      53697A65 
 8913      00
 8914              	.LASF177:
 8915 0e44 53657454 		.ascii	"SetTxConfig\000"
 8915      78436F6E 
 8915      66696700 
 8916              	.LASF206:
 8917 0e50 4368616E 		.ascii	"ChannelParams_t\000"
 8917      6E656C50 
 8917      6172616D 
 8917      735F7400 
 8918              	.LASF217:
 8919 0e60 4C4F5241 		.ascii	"LORAMAC_STATUS_BUSY\000"
 8919      4D41435F 
 8919      53544154 
 8919      55535F42 
 8919      55535900 
 8920              	.LASF353:
 8921 0e74 53697A65 		.ascii	"Size\000"
 8921      00
 8922              	.LASF44:
 8923 0e79 5F5F746D 		.ascii	"__tm_sec\000"
ARM GAS  C:\Users\EBANO_~1\AppData\Local\Temp\ccOSDu2a.s 			page 188


 8923      5F736563 
 8923      00
 8924              	.LASF53:
 8925 0e82 5F6F6E5F 		.ascii	"_on_exit_args\000"
 8925      65786974 
 8925      5F617267 
 8925      7300
 8926              	.LASF486:
 8927 0e90 52656769 		.ascii	"RegionEU868ApplyDrOffset\000"
 8927      6F6E4555 
 8927      38363841 
 8927      70706C79 
 8927      44724F66 
 8928              	.LASF230:
 8929 0ea9 4C4F5241 		.ascii	"LORAMAC_STATUS_BUSY_BEACON_RESERVED_TIME\000"
 8929      4D41435F 
 8929      53544154 
 8929      55535F42 
 8929      5553595F 
 8930              	.LASF432:
 8931 0ed2 52656769 		.ascii	"RegionChannelAdd\000"
 8931      6F6E4368 
 8931      616E6E65 
 8931      6C416464 
 8931      00
 8932              	.LASF456:
 8933 0ee3 6E625265 		.ascii	"nbRepOut\000"
 8933      704F7574 
 8933      00
 8934              	.LASF264:
 8935 0eec 5048595F 		.ascii	"PHY_DEF_ADR_ACK_DELAY\000"
 8935      4445465F 
 8935      4144525F 
 8935      41434B5F 
 8935      44454C41 
 8936              	.LASF128:
 8937 0f02 5F776372 		.ascii	"_wcrtomb_state\000"
 8937      746F6D62 
 8937      5F737461 
 8937      746500
 8938              	.LASF368:
 8939 0f11 73547843 		.ascii	"sTxConfigParams\000"
 8939      6F6E6669 
 8939      67506172 
 8939      616D7300 
 8940              	.LASF158:
 8941 0f21 52616469 		.ascii	"RadioState_t\000"
 8941      6F537461 
 8941      74655F74 
 8941      00
 8942              	.LASF462:
 8943 0f2e 52656769 		.ascii	"RegionRxConfig\000"
 8943      6F6E5278 
 8943      436F6E66 
 8943      696700
 8944              	.LASF460:
 8945 0f3d 7478506F 		.ascii	"txPower\000"
ARM GAS  C:\Users\EBANO_~1\AppData\Local\Temp\ccOSDu2a.s 			page 189


 8945      77657200 
 8946              	.LASF453:
 8947 0f45 6C696E6B 		.ascii	"linkAdrReq\000"
 8947      41647252 
 8947      657100
 8948              	.LASF335:
 8949 0f50 4A6F696E 		.ascii	"Joined\000"
 8949      656400
 8950              	.LASF15:
 8951 0f57 696E7438 		.ascii	"int8_t\000"
 8951      5F7400
 8952              	.LASF229:
 8953 0f5e 4C4F5241 		.ascii	"LORAMAC_STATUS_NO_FREE_CHANNEL_FOUND\000"
 8953      4D41435F 
 8953      53544154 
 8953      55535F4E 
 8953      4F5F4652 
 8954              	.LASF37:
 8955 0f83 5F5F554C 		.ascii	"__ULong\000"
 8955      6F6E6700 
 8956              	.LASF500:
 8957 0f8b 52656769 		.ascii	"RegionEU868ComputeRxWindowParameters\000"
 8957      6F6E4555 
 8957      38363843 
 8957      6F6D7075 
 8957      74655278 
 8958              	.LASF302:
 8959 0fb0 5048595F 		.ascii	"PHY_BEACON_CHANNEL_DR\000"
 8959      42454143 
 8959      4F4E5F43 
 8959      48414E4E 
 8959      454C5F44 
 8960              	.LASF359:
 8961 0fc6 73527843 		.ascii	"sRxConfigParams\000"
 8961      6F6E6669 
 8961      67506172 
 8961      616D7300 
 8962              	.LASF144:
 8963 0fd6 4669656C 		.ascii	"Fields\000"
 8963      647300
 8964              	.LASF291:
 8965 0fdd 5048595F 		.ascii	"PHY_BEACON_WINDOW_SLOTS\000"
 8965      42454143 
 8965      4F4E5F57 
 8965      494E444F 
 8965      575F534C 
 8966              	.LASF113:
 8967 0ff5 5F737472 		.ascii	"_strtok_last\000"
 8967      746F6B5F 
 8967      6C617374 
 8967      00
 8968              	.LASF178:
 8969 1002 43686563 		.ascii	"CheckRfFrequency\000"
 8969      6B526646 
 8969      72657175 
 8969      656E6379 
 8969      00
ARM GAS  C:\Users\EBANO_~1\AppData\Local\Temp\ccOSDu2a.s 			page 190


 8970              	.LASF452:
 8971 1013 52656769 		.ascii	"RegionLinkAdrReq\000"
 8971      6F6E4C69 
 8971      6E6B4164 
 8971      72526571 
 8971      00
 8972              	.LASF445:
 8973 1024 646C4368 		.ascii	"dlChannelReq\000"
 8973      616E6E65 
 8973      6C526571 
 8973      00
 8974              	.LASF109:
 8975 1031 5F736565 		.ascii	"_seed\000"
 8975      6400
 8976              	.LASF375:
 8977 1037 5061796C 		.ascii	"PayloadSize\000"
 8977      6F616453 
 8977      697A6500 
 8978              	.LASF71:
 8979 1043 5F736565 		.ascii	"_seek\000"
 8979      6B00
 8980              	.LASF203:
 8981 1049 52783146 		.ascii	"Rx1Frequency\000"
 8981      72657175 
 8981      656E6379 
 8981      00
 8982              	.LASF17:
 8983 1056 696E7431 		.ascii	"int16_t\000"
 8983      365F7400 
 8984              	.LASF304:
 8985 105e 5048595F 		.ascii	"PHY_BEACON_NB_CHANNELS\000"
 8985      42454143 
 8985      4F4E5F4E 
 8985      425F4348 
 8985      414E4E45 
 8986              	.LASF7:
 8987 1075 73686F72 		.ascii	"short unsigned int\000"
 8987      7420756E 
 8987      7369676E 
 8987      65642069 
 8987      6E7400
 8988              	.LASF2:
 8989 1088 7369676E 		.ascii	"signed char\000"
 8989      65642063 
 8989      68617200 
 8990              	.LASF387:
 8991 1094 73547850 		.ascii	"sTxParamSetupReqParams\000"
 8991      6172616D 
 8991      53657475 
 8991      70526571 
 8991      50617261 
 8992              	.LASF344:
 8993 10ab 4765744E 		.ascii	"GetNvmCtxParams_t\000"
 8993      766D4374 
 8993      78506172 
 8993      616D735F 
 8993      7400
ARM GAS  C:\Users\EBANO_~1\AppData\Local\Temp\ccOSDu2a.s 			page 191


 8994              	.LASF390:
 8995 10bd 446C4368 		.ascii	"DlChannelReqParams_t\000"
 8995      616E6E65 
 8995      6C526571 
 8995      50617261 
 8995      6D735F74 
 8996              	.LASF242:
 8997 10d2 4C4F5241 		.ascii	"LORAMAC_REGION_AU915\000"
 8997      4D41435F 
 8997      52454749 
 8997      4F4E5F41 
 8997      55393135 
 8998              	.LASF406:
 8999 10e7 4368616E 		.ascii	"ChannelAddParams_t\000"
 8999      6E656C41 
 8999      64645061 
 8999      72616D73 
 8999      5F7400
 9000              	.LASF446:
 9001 10fa 52656769 		.ascii	"RegionTxParamSetupReq\000"
 9001      6F6E5478 
 9001      50617261 
 9001      6D536574 
 9001      75705265 
 9002              	.LASF168:
 9003 1110 496F496E 		.ascii	"IoInit\000"
 9003      697400
 9004              	.LASF95:
 9005 1117 5F667265 		.ascii	"_freelist\000"
 9005      656C6973 
 9005      7400
 9006              	.LASF240:
 9007 1121 654C6F52 		.ascii	"eLoRaMacRegion_t\000"
 9007      614D6163 
 9007      52656769 
 9007      6F6E5F74 
 9007      00
 9008              	.LASF76:
 9009 1132 5F6F6666 		.ascii	"_offset\000"
 9009      73657400 
 9010              	.LASF21:
 9011 113a 53797374 		.ascii	"SystemCoreClock\000"
 9011      656D436F 
 9011      7265436C 
 9011      6F636B00 
 9012              	.LASF509:
 9013 114a 2E2E2F2E 		.ascii	"../../../../../../Middlewares/Third_Party/LoRaWAN/M"
 9013      2E2F2E2E 
 9013      2F2E2E2F 
 9013      2E2E2F2E 
 9013      2E2F4D69 
 9014 117d 61632F72 		.ascii	"ac/region/Region.c\000"
 9014      6567696F 
 9014      6E2F5265 
 9014      67696F6E 
 9014      2E6300
 9015              	.LASF331:
ARM GAS  C:\Users\EBANO_~1\AppData\Local\Temp\ccOSDu2a.s 			page 192


 9016 1190 446F776E 		.ascii	"DownlinkDwellTime\000"
 9016      6C696E6B 
 9016      4477656C 
 9016      6C54696D 
 9016      6500
 9017              	.LASF179:
 9018 11a2 54696D65 		.ascii	"TimeOnAir\000"
 9018      4F6E4169 
 9018      7200
 9019              	.LASF61:
 9020 11ac 5F5F7362 		.ascii	"__sbuf\000"
 9020      756600
 9021              	.LASF122:
 9022 11b3 5F6C3634 		.ascii	"_l64a_buf\000"
 9022      615F6275 
 9022      6600
 9023              	.LASF490:
 9024 11bd 52656769 		.ascii	"RegionEU868NextChannel\000"
 9024      6F6E4555 
 9024      3836384E 
 9024      65787443 
 9024      68616E6E 
 9025              	.LASF326:
 9026 11d4 50687950 		.ascii	"PhyParam_t\000"
 9026      6172616D 
 9026      5F7400
 9027              	.LASF333:
 9028 11df 73536574 		.ascii	"sSetBandTxDoneParams\000"
 9028      42616E64 
 9028      5478446F 
 9028      6E655061 
 9028      72616D73 
 9029              	.LASF370:
 9030 11f4 416E7465 		.ascii	"AntennaGain\000"
 9030      6E6E6147 
 9030      61696E00 
 9031              	.LASF267:
 9032 1200 5048595F 		.ascii	"PHY_DUTY_CYCLE\000"
 9032      44555459 
 9032      5F435943 
 9032      4C4500
 9033              	.LASF114:
 9034 120f 5F617363 		.ascii	"_asctime_buf\000"
 9034      74696D65 
 9034      5F627566 
 9034      00
 9035              	.LASF461:
 9036 121c 74785469 		.ascii	"txTimeOnAir\000"
 9036      6D654F6E 
 9036      41697200 
 9037              	.LASF31:
 9038 1228 5F5F7763 		.ascii	"__wch\000"
 9038      6800
 9039              	.LASF433:
 9040 122e 6368616E 		.ascii	"channelAdd\000"
 9040      6E656C41 
 9040      646400
ARM GAS  C:\Users\EBANO_~1\AppData\Local\Temp\ccOSDu2a.s 			page 193


 9041              	.LASF129:
 9042 1239 5F776373 		.ascii	"_wcsrtombs_state\000"
 9042      72746F6D 
 9042      62735F73 
 9042      74617465 
 9042      00
 9043              	.LASF397:
 9044 124a 44757479 		.ascii	"DutyCycleEnabled\000"
 9044      4379636C 
 9044      65456E61 
 9044      626C6564 
 9044      00
 9045              	.LASF442:
 9046 125b 63757272 		.ascii	"currentDr\000"
 9046      656E7444 
 9046      7200
 9047              	.LASF437:
 9048 1265 74696D65 		.ascii	"time\000"
 9048      00
 9049              	.LASF241:
 9050 126a 4C4F5241 		.ascii	"LORAMAC_REGION_AS923\000"
 9050      4D41435F 
 9050      52454749 
 9050      4F4E5F41 
 9050      53393233 
 9051              	.LASF491:
 9052 127f 52656769 		.ascii	"RegionEU868CalcBackOff\000"
 9052      6F6E4555 
 9052      38363843 
 9052      616C6342 
 9052      61636B4F 
 9053              	.LASF9:
 9054 1296 6C6F6E67 		.ascii	"long int\000"
 9054      20696E74 
 9054      00
 9055              	.LASF121:
 9056 129f 5F776374 		.ascii	"_wctomb_state\000"
 9056      6F6D625F 
 9056      73746174 
 9056      6500
 9057              	.LASF378:
 9058 12ad 43757272 		.ascii	"CurrentTxPower\000"
 9058      656E7454 
 9058      78506F77 
 9058      657200
 9059              	.LASF503:
 9060 12bc 52656769 		.ascii	"RegionEU868Verify\000"
 9060      6F6E4555 
 9060      38363856 
 9060      65726966 
 9060      7900
 9061              	.LASF313:
 9062 12ce 4348414E 		.ascii	"CHANNELS_MASK\000"
 9062      4E454C53 
 9062      5F4D4153 
 9062      4B00
 9063              	.LASF107:
ARM GAS  C:\Users\EBANO_~1\AppData\Local\Temp\ccOSDu2a.s 			page 194


 9064 12dc 5F696F62 		.ascii	"_iobs\000"
 9064      7300
 9065              	.LASF87:
 9066 12e2 5F656D65 		.ascii	"_emergency\000"
 9066      7267656E 
 9066      637900
 9067              	.LASF487:
 9068 12ed 52656769 		.ascii	"RegionEU868SetContinuousWave\000"
 9068      6F6E4555 
 9068      38363853 
 9068      6574436F 
 9068      6E74696E 
 9069              	.LASF466:
 9070 130a 6D696E52 		.ascii	"minRxSymbols\000"
 9070      7853796D 
 9070      626F6C73 
 9070      00
 9071              	.LASF131:
 9072 1317 5F6E6578 		.ascii	"_nextf\000"
 9072      746600
 9073              	.LASF117:
 9074 131e 5F72616E 		.ascii	"_rand_next\000"
 9074      645F6E65 
 9074      787400
 9075              	.LASF475:
 9076 1329 70687941 		.ascii	"phyAttribute\000"
 9076      74747269 
 9076      62757465 
 9076      00
 9077              	.LASF20:
 9078 1336 75696E74 		.ascii	"uint32_t\000"
 9078      33325F74 
 9078      00
 9079              	.LASF469:
 9080 133f 52656769 		.ascii	"RegionChanMaskSet\000"
 9080      6F6E4368 
 9080      616E4D61 
 9080      736B5365 
 9080      7400
 9081              	.LASF411:
 9082 1351 436F6E74 		.ascii	"ContinuousWaveParams_t\000"
 9082      696E756F 
 9082      75735761 
 9082      76655061 
 9082      72616D73 
 9083              	.LASF39:
 9084 1368 5F6D6178 		.ascii	"_maxwds\000"
 9084      77647300 
 9085              	.LASF184:
 9086 1370 53657454 		.ascii	"SetTxContinuousWave\000"
 9086      78436F6E 
 9086      74696E75 
 9086      6F757357 
 9086      61766500 
 9087              	.LASF26:
 9088 1384 6C6F6E67 		.ascii	"long double\000"
 9088      20646F75 
ARM GAS  C:\Users\EBANO_~1\AppData\Local\Temp\ccOSDu2a.s 			page 195


 9088      626C6500 
 9089              	.LASF138:
 9090 1390 7375626F 		.ascii	"suboptarg\000"
 9090      70746172 
 9090      6700
 9091              	.LASF280:
 9092 139a 5048595F 		.ascii	"PHY_MAX_NB_CHANNELS\000"
 9092      4D41585F 
 9092      4E425F43 
 9092      48414E4E 
 9092      454C5300 
 9093              	.LASF388:
 9094 13ae 54785061 		.ascii	"TxParamSetupReqParams_t\000"
 9094      72616D53 
 9094      65747570 
 9094      52657150 
 9094      6172616D 
 9095              	.LASF11:
 9096 13c6 6C6F6E67 		.ascii	"long unsigned int\000"
 9096      20756E73 
 9096      69676E65 
 9096      6420696E 
 9096      7400
 9097              	.LASF248:
 9098 13d8 4C4F5241 		.ascii	"LORAMAC_REGION_IN865\000"
 9098      4D41435F 
 9098      52454749 
 9098      4F4E5F49 
 9098      4E383635 
 9099              	.LASF312:
 9100 13ed 65436861 		.ascii	"eChannelsMask\000"
 9100      6E6E656C 
 9100      734D6173 
 9100      6B00
 9101              	.LASF441:
 9102 13fb 52656769 		.ascii	"RegionAlternateDr\000"
 9102      6F6E416C 
 9102      7465726E 
 9102      61746544 
 9102      7200
 9103              	.LASF174:
 9104 140d 49734368 		.ascii	"IsChannelFree\000"
 9104      616E6E65 
 9104      6C467265 
 9104      6500
 9105              	.LASF72:
 9106 141b 5F636C6F 		.ascii	"_close\000"
 9106      736500
 9107              	.LASF191:
 9108 1422 53657450 		.ascii	"SetPublicNetwork\000"
 9108      75626C69 
 9108      634E6574 
 9108      776F726B 
 9108      00
 9109              	.LASF103:
 9110 1433 63686172 		.ascii	"char\000"
 9110      00
ARM GAS  C:\Users\EBANO_~1\AppData\Local\Temp\ccOSDu2a.s 			page 196


 9111              	.LASF285:
 9112 1438 5048595F 		.ascii	"PHY_DEF_ANTENNA_GAIN\000"
 9112      4445465F 
 9112      414E5445 
 9112      4E4E415F 
 9112      4741494E 
 9113              	.LASF157:
 9114 144d 52465F43 		.ascii	"RF_CAD\000"
 9114      414400
 9115              	.LASF105:
 9116 1454 5F676C75 		.ascii	"_glue\000"
 9116      6500
 9117              	.LASF400:
 9118 145a 43616C63 		.ascii	"CalcBackOffParams_t\000"
 9118      4261636B 
 9118      4F666650 
 9118      6172616D 
 9118      735F7400 
 9119              	.LASF23:
 9120 146e 41504250 		.ascii	"APBPrescTable\000"
 9120      72657363 
 9120      5461626C 
 9120      6500
 9121              	.LASF193:
 9122 147c 49727150 		.ascii	"IrqProcess\000"
 9122      726F6365 
 9122      737300
 9123              	.LASF501:
 9124 1487 52656769 		.ascii	"RegionEU868ChanMaskSet\000"
 9124      6F6E4555 
 9124      38363843 
 9124      68616E4D 
 9124      61736B53 
 9125              	.LASF258:
 9126 149e 5048595F 		.ascii	"PHY_DEF_TX_DR\000"
 9126      4445465F 
 9126      54585F44 
 9126      5200
 9127              	.LASF220:
 9128 14ac 4C4F5241 		.ascii	"LORAMAC_STATUS_FREQUENCY_INVALID\000"
 9128      4D41435F 
 9128      53544154 
 9128      55535F46 
 9128      52455155 
 9129              	.LASF42:
 9130 14cd 5F426967 		.ascii	"_Bigint\000"
 9130      696E7400 
 9131              	.LASF392:
 9132 14d5 414C5445 		.ascii	"ALTERNATE_DR\000"
 9132      524E4154 
 9132      455F4452 
 9132      00
 9133              	.LASF261:
 9134 14e2 5048595F 		.ascii	"PHY_TX_POWER\000"
 9134      54585F50 
 9134      4F574552 
 9134      00
ARM GAS  C:\Users\EBANO_~1\AppData\Local\Temp\ccOSDu2a.s 			page 197


 9135              	.LASF485:
 9136 14ef 52656769 		.ascii	"RegionEU868RxBeaconSetup\000"
 9136      6F6E4555 
 9136      38363852 
 9136      78426561 
 9136      636F6E53 
 9137              	.LASF173:
 9138 1508 53657443 		.ascii	"SetChannel\000"
 9138      68616E6E 
 9138      656C00
 9139              	.LASF321:
 9140 1513 75506879 		.ascii	"uPhyParam\000"
 9140      50617261 
 9140      6D00
 9141              	.LASF455:
 9142 151d 7478506F 		.ascii	"txPowOut\000"
 9142      774F7574 
 9142      00
 9143              	.LASF99:
 9144 1526 5F617465 		.ascii	"_atexit0\000"
 9144      78697430 
 9144      00
 9145              	.LASF244:
 9146 152f 4C4F5241 		.ascii	"LORAMAC_REGION_CN779\000"
 9146      4D41435F 
 9146      52454749 
 9146      4F4E5F43 
 9146      4E373739 
 9147              	.LASF356:
 9148 1544 4368616E 		.ascii	"ChannelsMaskIn\000"
 9148      6E656C73 
 9148      4D61736B 
 9148      496E00
 9149              	.LASF216:
 9150 1553 4C4F5241 		.ascii	"LORAMAC_STATUS_OK\000"
 9150      4D41435F 
 9150      53544154 
 9150      55535F4F 
 9150      4B00
 9151              	.LASF262:
 9152 1565 5048595F 		.ascii	"PHY_DEF_TX_POWER\000"
 9152      4445465F 
 9152      54585F50 
 9152      4F574552 
 9152      00
 9153              	.LASF124:
 9154 1576 5F676574 		.ascii	"_getdate_err\000"
 9154      64617465 
 9154      5F657272 
 9154      00
 9155              	.LASF300:
 9156 1583 5048595F 		.ascii	"PHY_BEACON_CHANNEL_FREQ\000"
 9156      42454143 
 9156      4F4E5F43 
 9156      48414E4E 
 9156      454C5F46 
 9157              	.LASF287:
ARM GAS  C:\Users\EBANO_~1\AppData\Local\Temp\ccOSDu2a.s 			page 198


 9158 159b 5048595F 		.ascii	"PHY_BEACON_INTERVAL\000"
 9158      42454143 
 9158      4F4E5F49 
 9158      4E544552 
 9158      56414C00 
 9159              	.LASF492:
 9160 15af 52656769 		.ascii	"RegionEU868AlternateDr\000"
 9160      6F6E4555 
 9160      38363841 
 9160      6C746572 
 9160      6E617465 
 9161              	.LASF282:
 9162 15c6 5048595F 		.ascii	"PHY_DEF_UPLINK_DWELL_TIME\000"
 9162      4445465F 
 9162      55504C49 
 9162      4E4B5F44 
 9162      57454C4C 
 9163              	.LASF314:
 9164 15e0 4348414E 		.ascii	"CHANNELS_DEFAULT_MASK\000"
 9164      4E454C53 
 9164      5F444546 
 9164      41554C54 
 9164      5F4D4153 
 9165              	.LASF273:
 9166 15f6 5048595F 		.ascii	"PHY_MAX_FCNT_GAP\000"
 9166      4D41585F 
 9166      46434E54 
 9166      5F474150 
 9166      00
 9167              	.LASF338:
 9168 1607 73496E69 		.ascii	"sInitDefaultsParams\000"
 9168      74446566 
 9168      61756C74 
 9168      73506172 
 9168      616D7300 
 9169              	.LASF136:
 9170 161b 5F696D70 		.ascii	"_impure_ptr\000"
 9170      7572655F 
 9170      70747200 
 9171              	.LASF75:
 9172 1627 5F626C6B 		.ascii	"_blksize\000"
 9172      73697A65 
 9172      00
 9173              	.LASF435:
 9174 1630 6E657874 		.ascii	"nextChanParams\000"
 9174      4368616E 
 9174      50617261 
 9174      6D7300
 9175              	.LASF73:
 9176 163f 5F756275 		.ascii	"_ubuf\000"
 9176      6600
 9177              	.LASF482:
 9178 1645 67657450 		.ascii	"getPhy\000"
 9178      687900
 9179              	.LASF284:
 9180 164c 5048595F 		.ascii	"PHY_DEF_MAX_EIRP\000"
 9180      4445465F 
ARM GAS  C:\Users\EBANO_~1\AppData\Local\Temp\ccOSDu2a.s 			page 199


 9180      4D41585F 
 9180      45495250 
 9180      00
 9181              	.LASF505:
 9182 165d 52656769 		.ascii	"RegionEU868InitDefaults\000"
 9182      6F6E4555 
 9182      38363849 
 9182      6E697444 
 9182      65666175 
 9183              	.LASF119:
 9184 1675 5F6D626C 		.ascii	"_mblen_state\000"
 9184      656E5F73 
 9184      74617465 
 9184      00
 9185              	.LASF101:
 9186 1682 5F5F7367 		.ascii	"__sglue\000"
 9186      6C756500 
 9187              	.LASF135:
 9188 168a 5F5F6C6F 		.ascii	"__locale_t\000"
 9188      63616C65 
 9188      5F7400
 9189              	.LASF454:
 9190 1695 64724F75 		.ascii	"drOut\000"
 9190      7400
 9191              	.LASF91:
 9192 169b 5F5F636C 		.ascii	"__cleanup\000"
 9192      65616E75 
 9192      7000
 9193              	.LASF467:
 9194 16a5 72784572 		.ascii	"rxError\000"
 9194      726F7200 
 9195              	.LASF207:
 9196 16ad 52585F53 		.ascii	"RX_SLOT_WIN_1\000"
 9196      4C4F545F 
 9196      57494E5F 
 9196      3100
 9197              	.LASF208:
 9198 16bb 52585F53 		.ascii	"RX_SLOT_WIN_2\000"
 9198      4C4F545F 
 9198      57494E5F 
 9198      3200
 9199              	.LASF307:
 9200 16c9 65496E69 		.ascii	"eInitType\000"
 9200      74547970 
 9200      6500
 9201              	.LASF24:
 9202 16d3 504C4C4D 		.ascii	"PLLMulTable\000"
 9202      756C5461 
 9202      626C6500 
 9203              	.LASF29:
 9204 16df 5F66706F 		.ascii	"_fpos_t\000"
 9204      735F7400 
 9205              	.LASF334:
 9206 16e7 4368616E 		.ascii	"Channel\000"
 9206      6E656C00 
 9207              	.LASF66:
 9208 16ef 5F66696C 		.ascii	"_file\000"
ARM GAS  C:\Users\EBANO_~1\AppData\Local\Temp\ccOSDu2a.s 			page 200


 9208      6500
 9209              	.LASF201:
 9210 16f5 73436861 		.ascii	"sChannelParams\000"
 9210      6E6E656C 
 9210      50617261 
 9210      6D7300
 9211              	.LASF64:
 9212 1704 5F5F7346 		.ascii	"__sFILE\000"
 9212      494C4500 
 9213              	.LASF60:
 9214 170c 5F666E73 		.ascii	"_fns\000"
 9214      00
 9215              	.LASF417:
 9216 1711 44617461 		.ascii	"DataratesEU868\000"
 9216      72617465 
 9216      73455538 
 9216      363800
 9217              	.LASF357:
 9218 1720 4368616E 		.ascii	"ChannelsMaskType\000"
 9218      6E656C73 
 9218      4D61736B 
 9218      54797065 
 9218      00
 9219              	.LASF35:
 9220 1731 5F6D6273 		.ascii	"_mbstate_t\000"
 9220      74617465 
 9220      5F7400
 9221              	.LASF130:
 9222 173c 5F685F65 		.ascii	"_h_errno\000"
 9222      72726E6F 
 9222      00
 9223              	.LASF320:
 9224 1745 42656163 		.ascii	"BeaconFormat_t\000"
 9224      6F6E466F 
 9224      726D6174 
 9224      5F7400
 9225              	.LASF8:
 9226 1754 5F5F696E 		.ascii	"__int32_t\000"
 9226      7433325F 
 9226      7400
 9227              	.LASF463:
 9228 175e 7278436F 		.ascii	"rxConfig\000"
 9228      6E666967 
 9228      00
 9229              	.LASF10:
 9230 1767 5F5F7569 		.ascii	"__uint32_t\000"
 9230      6E743332 
 9230      5F7400
 9231              	.LASF274:
 9232 1772 5048595F 		.ascii	"PHY_ACK_TIMEOUT\000"
 9232      41434B5F 
 9232      54494D45 
 9232      4F555400 
 9233              	.LASF330:
 9234 1782 55706C69 		.ascii	"UplinkDwellTime\000"
 9234      6E6B4477 
 9234      656C6C54 
ARM GAS  C:\Users\EBANO_~1\AppData\Local\Temp\ccOSDu2a.s 			page 201


 9234      696D6500 
 9235              	.LASF246:
 9236 1792 4C4F5241 		.ascii	"LORAMAC_REGION_EU868\000"
 9236      4D41435F 
 9236      52454749 
 9236      4F4E5F45 
 9236      55383638 
 9237              	.LASF34:
 9238 17a7 5F5F7661 		.ascii	"__value\000"
 9238      6C756500 
 9239              	.LASF57:
 9240 17af 5F69735F 		.ascii	"_is_cxa\000"
 9240      63786100 
 9241              	.LASF228:
 9242 17b7 4C4F5241 		.ascii	"LORAMAC_STATUS_NO_CHANNEL_FOUND\000"
 9242      4D41435F 
 9242      53544154 
 9242      55535F4E 
 9242      4F5F4348 
 9243              	.LASF424:
 9244 17d7 646F776E 		.ascii	"downlinkDwellTime\000"
 9244      6C696E6B 
 9244      4477656C 
 9244      6C54696D 
 9244      6500
 9245              	.LASF94:
 9246 17e9 5F703573 		.ascii	"_p5s\000"
 9246      00
 9247              	.LASF347:
 9248 17ee 5478506F 		.ascii	"TxPower\000"
 9248      77657200 
 9249              	.LASF156:
 9250 17f6 52465F54 		.ascii	"RF_TX_RUNNING\000"
 9250      585F5255 
 9250      4E4E494E 
 9250      4700
 9251              	.LASF266:
 9252 1804 5048595F 		.ascii	"PHY_MAX_PAYLOAD_REPEATER\000"
 9252      4D41585F 
 9252      5041594C 
 9252      4F41445F 
 9252      52455045 
 9253              	.LASF299:
 9254 181d 5048595F 		.ascii	"PHY_BEACON_DELAY_BEACON_TIMING_ANS\000"
 9254      42454143 
 9254      4F4E5F44 
 9254      454C4159 
 9254      5F424541 
 9255              	.LASF360:
 9256 1840 42616E64 		.ascii	"Bandwidth\000"
 9256      77696474 
 9256      6800
 9257              	.LASF348:
 9258 184a 44757479 		.ascii	"DutyCycle\000"
 9258      4379636C 
 9258      6500
 9259              	.LASF322:
ARM GAS  C:\Users\EBANO_~1\AppData\Local\Temp\ccOSDu2a.s 			page 202


 9260 1854 6656616C 		.ascii	"fValue\000"
 9260      756500
 9261              	.LASF139:
 9262 185b 54696D65 		.ascii	"TimerTime_t\000"
 9262      7254696D 
 9262      655F7400 
 9263              	.LASF418:
 9264 1867 42616E64 		.ascii	"BandwidthsEU868\000"
 9264      77696474 
 9264      68734555 
 9264      38363800 
 9265              	.LASF365:
 9266 1877 5278436F 		.ascii	"RxContinuous\000"
 9266      6E74696E 
 9266      756F7573 
 9266      00
 9267              	.LASF310:
 9268 1884 494E4954 		.ascii	"INIT_TYPE_RESTORE_CTX\000"
 9268      5F545950 
 9268      455F5245 
 9268      53544F52 
 9268      455F4354 
 9269              	.LASF257:
 9270 189a 5048595F 		.ascii	"PHY_TX_DR\000"
 9270      54585F44 
 9270      5200
 9271              	.LASF459:
 9272 18a4 7478436F 		.ascii	"txConfig\000"
 9272      6E666967 
 9272      00
 9273              	.LASF394:
 9274 18ad 416C7465 		.ascii	"AlternateDrType_t\000"
 9274      726E6174 
 9274      65447254 
 9274      7970655F 
 9274      7400
 9275              	.LASF148:
 9276 18bf 5F74696D 		.ascii	"_timezone\000"
 9276      657A6F6E 
 9276      6500
 9277              	.LASF255:
 9278 18c9 5048595F 		.ascii	"PHY_MAX_RX_DR\000"
 9278      4D41585F 
 9278      52585F44 
 9278      5200
 9279              	.LASF185:
 9280 18d7 52737369 		.ascii	"Rssi\000"
 9280      00
 9281              	.LASF152:
 9282 18dc 4D4F4445 		.ascii	"MODEM_LORA\000"
 9282      4D5F4C4F 
 9282      524100
 9283              	.LASF13:
 9284 18e7 6C6F6E67 		.ascii	"long long unsigned int\000"
 9284      206C6F6E 
 9284      6720756E 
 9284      7369676E 
ARM GAS  C:\Users\EBANO_~1\AppData\Local\Temp\ccOSDu2a.s 			page 203


 9284      65642069 
 9285              	.LASF116:
 9286 18fe 5F67616D 		.ascii	"_gamma_signgam\000"
 9286      6D615F73 
 9286      69676E67 
 9286      616D00
 9287              	.LASF170:
 9288 190d 496E6974 		.ascii	"Init\000"
 9288      00
 9289              	.LASF422:
 9290 1912 72784265 		.ascii	"rxBeaconSetup\000"
 9290      61636F6E 
 9290      53657475 
 9290      7000
 9291              	.LASF407:
 9292 1920 73436861 		.ascii	"sChannelRemoveParams\000"
 9292      6E6E656C 
 9292      52656D6F 
 9292      76655061 
 9292      72616D73 
 9293              	.LASF249:
 9294 1935 4C4F5241 		.ascii	"LORAMAC_REGION_US915\000"
 9294      4D41435F 
 9294      52454749 
 9294      4F4E5F55 
 9294      53393135 
 9295              	.LASF409:
 9296 194a 73436F6E 		.ascii	"sContinuousWaveParams\000"
 9296      74696E75 
 9296      6F757357 
 9296      61766550 
 9296      6172616D 
 9297              	.LASF237:
 9298 1960 4C4F5241 		.ascii	"LORAMAC_STATUS_CONFIRM_QUEUE_ERROR\000"
 9298      4D41435F 
 9298      53544154 
 9298      55535F43 
 9298      4F4E4649 
 9299              	.LASF481:
 9300 1983 52656769 		.ascii	"RegionGetPhyParam\000"
 9300      6F6E4765 
 9300      74506879 
 9300      50617261 
 9300      6D00
 9301              	.LASF278:
 9302 1995 5048595F 		.ascii	"PHY_CHANNELS_MASK\000"
 9302      4348414E 
 9302      4E454C53 
 9302      5F4D4153 
 9302      4B00
 9303              	.LASF143:
 9304 19a7 4D616A6F 		.ascii	"Major\000"
 9304      7200
 9305              	.LASF202:
 9306 19ad 46726571 		.ascii	"Frequency\000"
 9306      75656E63 
 9306      7900
ARM GAS  C:\Users\EBANO_~1\AppData\Local\Temp\ccOSDu2a.s 			page 204


 9307              	.LASF250:
 9308 19b7 4C4F5241 		.ascii	"LORAMAC_REGION_RU864\000"
 9308      4D41435F 
 9308      52454749 
 9308      4F4E5F52 
 9308      55383634 
 9309              	.LASF137:
 9310 19cc 5F676C6F 		.ascii	"_global_impure_ptr\000"
 9310      62616C5F 
 9310      696D7075 
 9310      72655F70 
 9310      747200
 9311              	.LASF413:
 9312 19df 53796D62 		.ascii	"SymbolTimeout\000"
 9312      6F6C5469 
 9312      6D656F75 
 9312      7400
 9313              	.LASF88:
 9314 19ed 5F756E73 		.ascii	"_unspecified_locale_info\000"
 9314      70656369 
 9314      66696564 
 9314      5F6C6F63 
 9314      616C655F 
 9315              	.LASF384:
 9316 1a06 4E657743 		.ascii	"NewChannel\000"
 9316      68616E6E 
 9316      656C00
 9317              	.LASF309:
 9318 1a11 494E4954 		.ascii	"INIT_TYPE_RESTORE_DEFAULT_CHANNELS\000"
 9318      5F545950 
 9318      455F5245 
 9318      53544F52 
 9318      455F4445 
 9319              	.LASF90:
 9320 1a34 5F5F7364 		.ascii	"__sdidinit\000"
 9320      6964696E 
 9320      697400
 9321              	.LASF323:
 9322 1a3f 4368616E 		.ascii	"ChannelsMask\000"
 9322      6E656C73 
 9322      4D61736B 
 9322      00
 9323              	.LASF180:
 9324 1a4c 53656E64 		.ascii	"Send\000"
 9324      00
 9325              	.LASF305:
 9326 1a51 5048595F 		.ascii	"PHY_PING_SLOT_CHANNEL_DR\000"
 9326      50494E47 
 9326      5F534C4F 
 9326      545F4348 
 9326      414E4E45 
 9327              	.LASF329:
 9328 1a6a 44617461 		.ascii	"Datarate\000"
 9328      72617465 
 9328      00
 9329              	.LASF36:
 9330 1a73 5F666C6F 		.ascii	"_flock_t\000"
ARM GAS  C:\Users\EBANO_~1\AppData\Local\Temp\ccOSDu2a.s 			page 205


 9330      636B5F74 
 9330      00
 9331              	.LASF232:
 9332 1a7c 4C4F5241 		.ascii	"LORAMAC_STATUS_BUSY_UPLINK_COLLISION\000"
 9332      4D41435F 
 9332      53544154 
 9332      55535F42 
 9332      5553595F 
 9333              	.LASF496:
 9334 1aa1 52656769 		.ascii	"RegionEU868RxParamSetupReq\000"
 9334      6F6E4555 
 9334      38363852 
 9334      78506172 
 9334      616D5365 
 9335              	.LASF166:
 9336 1abc 52616469 		.ascii	"RadioEvents_t\000"
 9336      6F457665 
 9336      6E74735F 
 9336      7400
 9337              	.LASF458:
 9338 1aca 52656769 		.ascii	"RegionTxConfig\000"
 9338      6F6E5478 
 9338      436F6E66 
 9338      696700
 9339              	.LASF239:
 9340 1ad9 4C6F5261 		.ascii	"LoRaMacStatus_t\000"
 9340      4D616353 
 9340      74617475 
 9340      735F7400 
 9341              	.LASF379:
 9342 1ae9 43757272 		.ascii	"CurrentNbRep\000"
 9342      656E744E 
 9342      62526570 
 9342      00
 9343              	.LASF479:
 9344 1af6 52656769 		.ascii	"RegionSetBandTxDone\000"
 9344      6F6E5365 
 9344      7442616E 
 9344      64547844 
 9344      6F6E6500 
 9345              	.LASF506:
 9346 1b0a 52656769 		.ascii	"RegionEU868SetBandTxDone\000"
 9346      6F6E4555 
 9346      38363853 
 9346      65744261 
 9346      6E645478 
 9347              	.LASF12:
 9348 1b23 6C6F6E67 		.ascii	"long long int\000"
 9348      206C6F6E 
 9348      6720696E 
 9348      7400
 9349              	.LASF222:
 9350 1b31 4C4F5241 		.ascii	"LORAMAC_STATUS_FREQ_AND_DR_INVALID\000"
 9350      4D41435F 
 9350      53544154 
 9350      55535F46 
 9350      5245515F 
ARM GAS  C:\Users\EBANO_~1\AppData\Local\Temp\ccOSDu2a.s 			page 206


 9351              	.LASF236:
 9352 1b54 4C4F5241 		.ascii	"LORAMAC_STATUS_CLASS_B_ERROR\000"
 9352      4D41435F 
 9352      53544154 
 9352      55535F43 
 9352      4C415353 
 9353              	.LASF429:
 9354 1b71 52656769 		.ascii	"RegionApplyDrOffset\000"
 9354      6F6E4170 
 9354      706C7944 
 9354      724F6666 
 9354      73657400 
 9355              	.LASF80:
 9356 1b85 5F666C61 		.ascii	"_flags2\000"
 9356      67733200 
 9357              	.LASF507:
 9358 1b8d 52656769 		.ascii	"RegionEU868GetPhyParam\000"
 9358      6F6E4555 
 9358      38363847 
 9358      65745068 
 9358      79506172 
 9359              	.LASF298:
 9360 1ba4 5048595F 		.ascii	"PHY_MAX_BEACON_LESS_PERIOD\000"
 9360      4D41585F 
 9360      42454143 
 9360      4F4E5F4C 
 9360      4553535F 
 9361              	.LASF165:
 9362 1bbf 43616444 		.ascii	"CadDone\000"
 9362      6F6E6500 
 9363              	.LASF89:
 9364 1bc7 5F6C6F63 		.ascii	"_locale\000"
 9364      616C6500 
 9365              	.LASF221:
 9366 1bcf 4C4F5241 		.ascii	"LORAMAC_STATUS_DATARATE_INVALID\000"
 9366      4D41435F 
 9366      53544154 
 9366      55535F44 
 9366      41544152 
 9367              	.LASF355:
 9368 1bef 73436861 		.ascii	"sChanMaskSetParams\000"
 9368      6E4D6173 
 9368      6B536574 
 9368      50617261 
 9368      6D7300
 9369              	.LASF22:
 9370 1c02 41484250 		.ascii	"AHBPrescTable\000"
 9370      72657363 
 9370      5461626C 
 9370      6500
 9371              	.LASF281:
 9372 1c10 5048595F 		.ascii	"PHY_CHANNELS\000"
 9372      4348414E 
 9372      4E454C53 
 9372      00
 9373              	.LASF339:
 9374 1c1d 4E766D43 		.ascii	"NvmCtx\000"
ARM GAS  C:\Users\EBANO_~1\AppData\Local\Temp\ccOSDu2a.s 			page 207


 9374      747800
 9375              	.LASF489:
 9376 1c24 52656769 		.ascii	"RegionEU868ChannelAdd\000"
 9376      6F6E4555 
 9376      38363843 
 9376      68616E6E 
 9376      656C4164 
 9377              	.LASF415:
 9378 1c3a 52784265 		.ascii	"RxBeaconSetup_t\000"
 9378      61636F6E 
 9378      53657475 
 9378      705F7400 
 9379              	.LASF197:
 9380 1c4a 73466965 		.ascii	"sFields\000"
 9380      6C647300 
 9381              	.LASF192:
 9382 1c52 47657457 		.ascii	"GetWakeupTime\000"
 9382      616B6575 
 9382      7054696D 
 9382      6500
 9383              	.LASF484:
 9384 1c60 52656769 		.ascii	"RegionIsActive\000"
 9384      6F6E4973 
 9384      41637469 
 9384      766500
 9385              	.LASF401:
 9386 1c6f 734E6578 		.ascii	"sNextChanParams\000"
 9386      74436861 
 9386      6E506172 
 9386      616D7300 
 9387              	.LASF416:
 9388 1c7f 4C6F5261 		.ascii	"LoRaMacMaxEirpTable\000"
 9388      4D61634D 
 9388      61784569 
 9388      72705461 
 9388      626C6500 
 9389              	.LASF389:
 9390 1c93 73446C43 		.ascii	"sDlChannelReqParams\000"
 9390      68616E6E 
 9390      656C5265 
 9390      71506172 
 9390      616D7300 
 9391              	.LASF380:
 9392 1ca7 4C696E6B 		.ascii	"LinkAdrReqParams_t\000"
 9392      41647252 
 9392      65715061 
 9392      72616D73 
 9392      5F7400
 9393              	.LASF431:
 9394 1cba 6368616E 		.ascii	"channelRemove\000"
 9394      6E656C52 
 9394      656D6F76 
 9394      6500
 9395              	.LASF488:
 9396 1cc8 52656769 		.ascii	"RegionEU868ChannelsRemove\000"
 9396      6F6E4555 
 9396      38363843 
ARM GAS  C:\Users\EBANO_~1\AppData\Local\Temp\ccOSDu2a.s 			page 208


 9396      68616E6E 
 9396      656C7352 
 9397              	.LASF104:
 9398 1ce2 5F5F4649 		.ascii	"__FILE\000"
 9398      4C4500
 9399              	.LASF210:
 9400 1ce9 52585F53 		.ascii	"RX_SLOT_WIN_PING_SLOT\000"
 9400      4C4F545F 
 9400      57494E5F 
 9400      50494E47 
 9400      5F534C4F 
 9401              	.LASF346:
 9402 1cff 75566572 		.ascii	"uVerifyParams\000"
 9402      69667950 
 9402      6172616D 
 9402      7300
 9403              	.LASF231:
 9404 1d0d 4C4F5241 		.ascii	"LORAMAC_STATUS_BUSY_PING_SLOT_WINDOW_TIME\000"
 9404      4D41435F 
 9404      53544154 
 9404      55535F42 
 9404      5553595F 
 9405              	.LASF40:
 9406 1d37 5F736967 		.ascii	"_sign\000"
 9406      6E00
 9407              	.LASF0:
 9408 1d3d 5F5F696E 		.ascii	"__int8_t\000"
 9408      74385F74 
 9408      00
 9409              	.LASF45:
 9410 1d46 5F5F746D 		.ascii	"__tm_min\000"
 9410      5F6D696E 
 9410      00
 9411              	.LASF350:
 9412 1d4f 56657269 		.ascii	"VerifyParams_t\000"
 9412      66795061 
 9412      72616D73 
 9412      5F7400
 9413              	.LASF448:
 9414 1d5e 52656769 		.ascii	"RegionNewChannelReq\000"
 9414      6F6E4E65 
 9414      77436861 
 9414      6E6E656C 
 9414      52657100 
 9415              	.LASF495:
 9416 1d72 52656769 		.ascii	"RegionEU868NewChannelReq\000"
 9416      6F6E4555 
 9416      3836384E 
 9416      65774368 
 9416      616E6E65 
 9417              	.LASF14:
 9418 1d8b 756E7369 		.ascii	"unsigned int\000"
 9418      676E6564 
 9418      20696E74 
 9418      00
 9419              	.LASF118:
 9420 1d98 5F723438 		.ascii	"_r48\000"
ARM GAS  C:\Users\EBANO_~1\AppData\Local\Temp\ccOSDu2a.s 			page 209


 9420      00
 9421              	.LASF434:
 9422 1d9d 52656769 		.ascii	"RegionNextChannel\000"
 9422      6F6E4E65 
 9422      78744368 
 9422      616E6E65 
 9422      6C00
 9423              	.LASF145:
 9424 1daf 56616C75 		.ascii	"Value\000"
 9424      6500
 9425              	.LASF218:
 9426 1db5 4C4F5241 		.ascii	"LORAMAC_STATUS_SERVICE_UNKNOWN\000"
 9426      4D41435F 
 9426      53544154 
 9426      55535F53 
 9426      45525649 
 9427              	.LASF372:
 9428 1dd4 5478436F 		.ascii	"TxConfigParams_t\000"
 9428      6E666967 
 9428      50617261 
 9428      6D735F74 
 9428      00
 9429              	.LASF226:
 9430 1de5 4C4F5241 		.ascii	"LORAMAC_STATUS_SKIPPED_APP_DATA\000"
 9430      4D41435F 
 9430      53544154 
 9430      55535F53 
 9430      4B495050 
 9431              	.LASF425:
 9432 1e05 64724F66 		.ascii	"drOffset\000"
 9432      66736574 
 9432      00
 9433              	.LASF5:
 9434 1e0e 73686F72 		.ascii	"short int\000"
 9434      7420696E 
 9434      7400
 9435              	.LASF296:
 9436 1e18 5048595F 		.ascii	"PHY_BEACON_SYMBOL_TO_EXPANSION_FACTOR\000"
 9436      42454143 
 9436      4F4E5F53 
 9436      594D424F 
 9436      4C5F544F 
 9437              	.LASF176:
 9438 1e3e 53657452 		.ascii	"SetRxConfig\000"
 9438      78436F6E 
 9438      66696700 
 9439              	.LASF69:
 9440 1e4a 5F726561 		.ascii	"_read\000"
 9440      6400
 9441              	.LASF497:
 9442 1e50 52656769 		.ascii	"RegionEU868LinkAdrReq\000"
 9442      6F6E4555 
 9442      3836384C 
 9442      696E6B41 
 9442      64725265 
 9443              	.LASF108:
 9444 1e66 5F72616E 		.ascii	"_rand48\000"
ARM GAS  C:\Users\EBANO_~1\AppData\Local\Temp\ccOSDu2a.s 			page 210


 9444      64343800 
 9445              	.LASF439:
 9446 1e6e 52656769 		.ascii	"RegionCalcBackOff\000"
 9446      6F6E4361 
 9446      6C634261 
 9446      636B4F66 
 9446      6600
 9447              	.LASF396:
 9448 1e80 4C617374 		.ascii	"LastTxIsJoinRequest\000"
 9448      54784973 
 9448      4A6F696E 
 9448      52657175 
 9448      65737400 
 9449              		.ident	"GCC: (GNU Tools for Arm Embedded Processors 7-2018-q2-update) 7.3.1 20180622 (release) [AR
ARM GAS  C:\Users\EBANO_~1\AppData\Local\Temp\ccOSDu2a.s 			page 211


DEFINED SYMBOLS
                            *ABS*:00000000 Region.c
C:\Users\EBANO_~1\AppData\Local\Temp\ccOSDu2a.s:16     .text.RegionIsActive:00000000 $t
C:\Users\EBANO_~1\AppData\Local\Temp\ccOSDu2a.s:24     .text.RegionIsActive:00000000 RegionIsActive
C:\Users\EBANO_~1\AppData\Local\Temp\ccOSDu2a.s:45     .text.RegionGetPhyParam:00000000 $t
C:\Users\EBANO_~1\AppData\Local\Temp\ccOSDu2a.s:53     .text.RegionGetPhyParam:00000000 RegionGetPhyParam
C:\Users\EBANO_~1\AppData\Local\Temp\ccOSDu2a.s:93     .text.RegionSetBandTxDone:00000000 $t
C:\Users\EBANO_~1\AppData\Local\Temp\ccOSDu2a.s:101    .text.RegionSetBandTxDone:00000000 RegionSetBandTxDone
C:\Users\EBANO_~1\AppData\Local\Temp\ccOSDu2a.s:129    .text.RegionInitDefaults:00000000 $t
C:\Users\EBANO_~1\AppData\Local\Temp\ccOSDu2a.s:137    .text.RegionInitDefaults:00000000 RegionInitDefaults
C:\Users\EBANO_~1\AppData\Local\Temp\ccOSDu2a.s:165    .text.RegionGetNvmCtx:00000000 $t
C:\Users\EBANO_~1\AppData\Local\Temp\ccOSDu2a.s:173    .text.RegionGetNvmCtx:00000000 RegionGetNvmCtx
C:\Users\EBANO_~1\AppData\Local\Temp\ccOSDu2a.s:207    .text.RegionVerify:00000000 $t
C:\Users\EBANO_~1\AppData\Local\Temp\ccOSDu2a.s:215    .text.RegionVerify:00000000 RegionVerify
C:\Users\EBANO_~1\AppData\Local\Temp\ccOSDu2a.s:253    .text.RegionApplyCFList:00000000 $t
C:\Users\EBANO_~1\AppData\Local\Temp\ccOSDu2a.s:261    .text.RegionApplyCFList:00000000 RegionApplyCFList
C:\Users\EBANO_~1\AppData\Local\Temp\ccOSDu2a.s:289    .text.RegionChanMaskSet:00000000 $t
C:\Users\EBANO_~1\AppData\Local\Temp\ccOSDu2a.s:297    .text.RegionChanMaskSet:00000000 RegionChanMaskSet
C:\Users\EBANO_~1\AppData\Local\Temp\ccOSDu2a.s:331    .text.RegionComputeRxWindowParameters:00000000 $t
C:\Users\EBANO_~1\AppData\Local\Temp\ccOSDu2a.s:339    .text.RegionComputeRxWindowParameters:00000000 RegionComputeRxWindowParameters
C:\Users\EBANO_~1\AppData\Local\Temp\ccOSDu2a.s:375    .text.RegionRxConfig:00000000 $t
C:\Users\EBANO_~1\AppData\Local\Temp\ccOSDu2a.s:383    .text.RegionRxConfig:00000000 RegionRxConfig
C:\Users\EBANO_~1\AppData\Local\Temp\ccOSDu2a.s:421    .text.RegionTxConfig:00000000 $t
C:\Users\EBANO_~1\AppData\Local\Temp\ccOSDu2a.s:429    .text.RegionTxConfig:00000000 RegionTxConfig
C:\Users\EBANO_~1\AppData\Local\Temp\ccOSDu2a.s:469    .text.RegionLinkAdrReq:00000000 $t
C:\Users\EBANO_~1\AppData\Local\Temp\ccOSDu2a.s:477    .text.RegionLinkAdrReq:00000000 RegionLinkAdrReq
C:\Users\EBANO_~1\AppData\Local\Temp\ccOSDu2a.s:525    .text.RegionRxParamSetupReq:00000000 $t
C:\Users\EBANO_~1\AppData\Local\Temp\ccOSDu2a.s:533    .text.RegionRxParamSetupReq:00000000 RegionRxParamSetupReq
C:\Users\EBANO_~1\AppData\Local\Temp\ccOSDu2a.s:567    .text.RegionNewChannelReq:00000000 $t
C:\Users\EBANO_~1\AppData\Local\Temp\ccOSDu2a.s:575    .text.RegionNewChannelReq:00000000 RegionNewChannelReq
C:\Users\EBANO_~1\AppData\Local\Temp\ccOSDu2a.s:609    .text.RegionTxParamSetupReq:00000000 $t
C:\Users\EBANO_~1\AppData\Local\Temp\ccOSDu2a.s:617    .text.RegionTxParamSetupReq:00000000 RegionTxParamSetupReq
C:\Users\EBANO_~1\AppData\Local\Temp\ccOSDu2a.s:651    .text.RegionDlChannelReq:00000000 $t
C:\Users\EBANO_~1\AppData\Local\Temp\ccOSDu2a.s:659    .text.RegionDlChannelReq:00000000 RegionDlChannelReq
C:\Users\EBANO_~1\AppData\Local\Temp\ccOSDu2a.s:693    .text.RegionAlternateDr:00000000 $t
C:\Users\EBANO_~1\AppData\Local\Temp\ccOSDu2a.s:701    .text.RegionAlternateDr:00000000 RegionAlternateDr
C:\Users\EBANO_~1\AppData\Local\Temp\ccOSDu2a.s:739    .text.RegionCalcBackOff:00000000 $t
C:\Users\EBANO_~1\AppData\Local\Temp\ccOSDu2a.s:747    .text.RegionCalcBackOff:00000000 RegionCalcBackOff
C:\Users\EBANO_~1\AppData\Local\Temp\ccOSDu2a.s:775    .text.RegionNextChannel:00000000 $t
C:\Users\EBANO_~1\AppData\Local\Temp\ccOSDu2a.s:783    .text.RegionNextChannel:00000000 RegionNextChannel
C:\Users\EBANO_~1\AppData\Local\Temp\ccOSDu2a.s:826    .text.RegionChannelAdd:00000000 $t
C:\Users\EBANO_~1\AppData\Local\Temp\ccOSDu2a.s:834    .text.RegionChannelAdd:00000000 RegionChannelAdd
C:\Users\EBANO_~1\AppData\Local\Temp\ccOSDu2a.s:868    .text.RegionChannelsRemove:00000000 $t
C:\Users\EBANO_~1\AppData\Local\Temp\ccOSDu2a.s:876    .text.RegionChannelsRemove:00000000 RegionChannelsRemove
C:\Users\EBANO_~1\AppData\Local\Temp\ccOSDu2a.s:910    .text.RegionSetContinuousWave:00000000 $t
C:\Users\EBANO_~1\AppData\Local\Temp\ccOSDu2a.s:918    .text.RegionSetContinuousWave:00000000 RegionSetContinuousWave
C:\Users\EBANO_~1\AppData\Local\Temp\ccOSDu2a.s:946    .text.RegionApplyDrOffset:00000000 $t
C:\Users\EBANO_~1\AppData\Local\Temp\ccOSDu2a.s:954    .text.RegionApplyDrOffset:00000000 RegionApplyDrOffset
C:\Users\EBANO_~1\AppData\Local\Temp\ccOSDu2a.s:994    .text.RegionRxBeaconSetup:00000000 $t
C:\Users\EBANO_~1\AppData\Local\Temp\ccOSDu2a.s:1002   .text.RegionRxBeaconSetup:00000000 RegionRxBeaconSetup

UNDEFINED SYMBOLS
RegionEU868GetPhyParam
RegionEU868SetBandTxDone
RegionEU868InitDefaults
RegionEU868GetNvmCtx
RegionEU868Verify
ARM GAS  C:\Users\EBANO_~1\AppData\Local\Temp\ccOSDu2a.s 			page 212


RegionEU868ApplyCFList
RegionEU868ChanMaskSet
RegionEU868ComputeRxWindowParameters
RegionEU868RxConfig
RegionEU868TxConfig
RegionEU868LinkAdrReq
RegionEU868RxParamSetupReq
RegionEU868NewChannelReq
RegionEU868TxParamSetupReq
RegionEU868DlChannelReq
RegionEU868AlternateDr
RegionEU868CalcBackOff
RegionEU868NextChannel
RegionEU868ChannelAdd
RegionEU868ChannelsRemove
RegionEU868SetContinuousWave
RegionEU868ApplyDrOffset
RegionEU868RxBeaconSetup
