ARM GAS  C:\Users\EBANO_~1\AppData\Local\Temp\ccEfOEMG.s 			page 1


   1              		.cpu cortex-m0plus
   2              		.eabi_attribute 20, 1
   3              		.eabi_attribute 21, 1
   4              		.eabi_attribute 23, 3
   5              		.eabi_attribute 24, 1
   6              		.eabi_attribute 25, 1
   7              		.eabi_attribute 26, 1
   8              		.eabi_attribute 30, 2
   9              		.eabi_attribute 34, 0
  10              		.eabi_attribute 18, 4
  11              		.file	"RegionIN865.c"
  12              		.text
  13              	.Ltext0:
  14              		.cfi_sections	.debug_frame
  15              		.section	.text.RegionIN865GetPhyParam,"ax",%progbits
  16              		.align	1
  17              		.p2align 2,,3
  18              		.global	RegionIN865GetPhyParam
  19              		.syntax unified
  20              		.code	16
  21              		.thumb_func
  22              		.fpu softvfp
  23              		.type	RegionIN865GetPhyParam, %function
  24              	RegionIN865GetPhyParam:
  25              	.LFB44:
  26              		.file 1 "../../../../../../Middlewares/Third_Party/LoRaWAN/Mac/region/RegionIN865.c"
   1:../../../../../../Middlewares/Third_Party/LoRaWAN/Mac/region/RegionIN865.c **** /*!
   2:../../../../../../Middlewares/Third_Party/LoRaWAN/Mac/region/RegionIN865.c ****  * \file      RegionIN865.c
   3:../../../../../../Middlewares/Third_Party/LoRaWAN/Mac/region/RegionIN865.c ****  *
   4:../../../../../../Middlewares/Third_Party/LoRaWAN/Mac/region/RegionIN865.c ****  * \brief     Region implementation for IN865
   5:../../../../../../Middlewares/Third_Party/LoRaWAN/Mac/region/RegionIN865.c ****  *
   6:../../../../../../Middlewares/Third_Party/LoRaWAN/Mac/region/RegionIN865.c ****  * \copyright Revised BSD License, see section \ref LICENSE.
   7:../../../../../../Middlewares/Third_Party/LoRaWAN/Mac/region/RegionIN865.c ****  *
   8:../../../../../../Middlewares/Third_Party/LoRaWAN/Mac/region/RegionIN865.c ****  * \code
   9:../../../../../../Middlewares/Third_Party/LoRaWAN/Mac/region/RegionIN865.c ****  *                ______                              _
  10:../../../../../../Middlewares/Third_Party/LoRaWAN/Mac/region/RegionIN865.c ****  *               / _____)             _              | |
  11:../../../../../../Middlewares/Third_Party/LoRaWAN/Mac/region/RegionIN865.c ****  *              ( (____  _____ ____ _| |_ _____  ____| |__
  12:../../../../../../Middlewares/Third_Party/LoRaWAN/Mac/region/RegionIN865.c ****  *               \____ \| ___ |    (_   _) ___ |/ ___)  _ \
  13:../../../../../../Middlewares/Third_Party/LoRaWAN/Mac/region/RegionIN865.c ****  *               _____) ) ____| | | || |_| ____( (___| | | |
  14:../../../../../../Middlewares/Third_Party/LoRaWAN/Mac/region/RegionIN865.c ****  *              (______/|_____)_|_|_| \__)_____)\____)_| |_|
  15:../../../../../../Middlewares/Third_Party/LoRaWAN/Mac/region/RegionIN865.c ****  *              (C)2013-2017 Semtech
  16:../../../../../../Middlewares/Third_Party/LoRaWAN/Mac/region/RegionIN865.c ****  *
  17:../../../../../../Middlewares/Third_Party/LoRaWAN/Mac/region/RegionIN865.c ****  *               ___ _____ _   ___ _  _____ ___  ___  ___ ___
  18:../../../../../../Middlewares/Third_Party/LoRaWAN/Mac/region/RegionIN865.c ****  *              / __|_   _/_\ / __| |/ / __/ _ \| _ \/ __| __|
  19:../../../../../../Middlewares/Third_Party/LoRaWAN/Mac/region/RegionIN865.c ****  *              \__ \ | |/ _ \ (__| ' <| _| (_) |   / (__| _|
  20:../../../../../../Middlewares/Third_Party/LoRaWAN/Mac/region/RegionIN865.c ****  *              |___/ |_/_/ \_\___|_|\_\_| \___/|_|_\\___|___|
  21:../../../../../../Middlewares/Third_Party/LoRaWAN/Mac/region/RegionIN865.c ****  *              embedded.connectivity.solutions===============
  22:../../../../../../Middlewares/Third_Party/LoRaWAN/Mac/region/RegionIN865.c ****  *
  23:../../../../../../Middlewares/Third_Party/LoRaWAN/Mac/region/RegionIN865.c ****  * \endcode
  24:../../../../../../Middlewares/Third_Party/LoRaWAN/Mac/region/RegionIN865.c ****  *
  25:../../../../../../Middlewares/Third_Party/LoRaWAN/Mac/region/RegionIN865.c ****  * \author    Miguel Luis ( Semtech )
  26:../../../../../../Middlewares/Third_Party/LoRaWAN/Mac/region/RegionIN865.c ****  *
  27:../../../../../../Middlewares/Third_Party/LoRaWAN/Mac/region/RegionIN865.c ****  * \author    Gregory Cristian ( Semtech )
  28:../../../../../../Middlewares/Third_Party/LoRaWAN/Mac/region/RegionIN865.c ****  *
  29:../../../../../../Middlewares/Third_Party/LoRaWAN/Mac/region/RegionIN865.c ****  * \author    Daniel Jaeckle ( STACKFORCE )
  30:../../../../../../Middlewares/Third_Party/LoRaWAN/Mac/region/RegionIN865.c **** */
  31:../../../../../../Middlewares/Third_Party/LoRaWAN/Mac/region/RegionIN865.c **** #include "utilities.h"
ARM GAS  C:\Users\EBANO_~1\AppData\Local\Temp\ccEfOEMG.s 			page 2


  32:../../../../../../Middlewares/Third_Party/LoRaWAN/Mac/region/RegionIN865.c **** 
  33:../../../../../../Middlewares/Third_Party/LoRaWAN/Mac/region/RegionIN865.c **** #include "RegionCommon.h"
  34:../../../../../../Middlewares/Third_Party/LoRaWAN/Mac/region/RegionIN865.c **** #include "RegionIN865.h"
  35:../../../../../../Middlewares/Third_Party/LoRaWAN/Mac/region/RegionIN865.c **** #include "util_console.h"
  36:../../../../../../Middlewares/Third_Party/LoRaWAN/Mac/region/RegionIN865.c **** 
  37:../../../../../../Middlewares/Third_Party/LoRaWAN/Mac/region/RegionIN865.c **** // Definitions
  38:../../../../../../Middlewares/Third_Party/LoRaWAN/Mac/region/RegionIN865.c **** #define CHANNELS_MASK_SIZE              1
  39:../../../../../../Middlewares/Third_Party/LoRaWAN/Mac/region/RegionIN865.c **** 
  40:../../../../../../Middlewares/Third_Party/LoRaWAN/Mac/region/RegionIN865.c **** /*!
  41:../../../../../../Middlewares/Third_Party/LoRaWAN/Mac/region/RegionIN865.c ****  * Region specific context
  42:../../../../../../Middlewares/Third_Party/LoRaWAN/Mac/region/RegionIN865.c ****  */
  43:../../../../../../Middlewares/Third_Party/LoRaWAN/Mac/region/RegionIN865.c **** typedef struct sRegionIN865NvmCtx
  44:../../../../../../Middlewares/Third_Party/LoRaWAN/Mac/region/RegionIN865.c **** {
  45:../../../../../../Middlewares/Third_Party/LoRaWAN/Mac/region/RegionIN865.c ****     /*!
  46:../../../../../../Middlewares/Third_Party/LoRaWAN/Mac/region/RegionIN865.c ****      * LoRaMAC channels
  47:../../../../../../Middlewares/Third_Party/LoRaWAN/Mac/region/RegionIN865.c ****      */
  48:../../../../../../Middlewares/Third_Party/LoRaWAN/Mac/region/RegionIN865.c ****     ChannelParams_t Channels[ IN865_MAX_NB_CHANNELS ];
  49:../../../../../../Middlewares/Third_Party/LoRaWAN/Mac/region/RegionIN865.c ****     /*!
  50:../../../../../../Middlewares/Third_Party/LoRaWAN/Mac/region/RegionIN865.c ****      * LoRaMac bands
  51:../../../../../../Middlewares/Third_Party/LoRaWAN/Mac/region/RegionIN865.c ****      */
  52:../../../../../../Middlewares/Third_Party/LoRaWAN/Mac/region/RegionIN865.c ****     Band_t Bands[ IN865_MAX_NB_BANDS ];
  53:../../../../../../Middlewares/Third_Party/LoRaWAN/Mac/region/RegionIN865.c ****     /*!
  54:../../../../../../Middlewares/Third_Party/LoRaWAN/Mac/region/RegionIN865.c ****      * LoRaMac channels mask
  55:../../../../../../Middlewares/Third_Party/LoRaWAN/Mac/region/RegionIN865.c ****      */
  56:../../../../../../Middlewares/Third_Party/LoRaWAN/Mac/region/RegionIN865.c ****     uint16_t ChannelsMask[ CHANNELS_MASK_SIZE ];
  57:../../../../../../Middlewares/Third_Party/LoRaWAN/Mac/region/RegionIN865.c ****     /*!
  58:../../../../../../Middlewares/Third_Party/LoRaWAN/Mac/region/RegionIN865.c ****      * LoRaMac channels default mask
  59:../../../../../../Middlewares/Third_Party/LoRaWAN/Mac/region/RegionIN865.c ****      */
  60:../../../../../../Middlewares/Third_Party/LoRaWAN/Mac/region/RegionIN865.c ****     uint16_t ChannelsDefaultMask[ CHANNELS_MASK_SIZE ];
  61:../../../../../../Middlewares/Third_Party/LoRaWAN/Mac/region/RegionIN865.c **** }RegionIN865NvmCtx_t;
  62:../../../../../../Middlewares/Third_Party/LoRaWAN/Mac/region/RegionIN865.c **** 
  63:../../../../../../Middlewares/Third_Party/LoRaWAN/Mac/region/RegionIN865.c **** /*
  64:../../../../../../Middlewares/Third_Party/LoRaWAN/Mac/region/RegionIN865.c ****  * Non-volatile module context.
  65:../../../../../../Middlewares/Third_Party/LoRaWAN/Mac/region/RegionIN865.c ****  */
  66:../../../../../../Middlewares/Third_Party/LoRaWAN/Mac/region/RegionIN865.c **** static RegionIN865NvmCtx_t NvmCtx;
  67:../../../../../../Middlewares/Third_Party/LoRaWAN/Mac/region/RegionIN865.c **** 
  68:../../../../../../Middlewares/Third_Party/LoRaWAN/Mac/region/RegionIN865.c **** // Static functions
  69:../../../../../../Middlewares/Third_Party/LoRaWAN/Mac/region/RegionIN865.c **** static int8_t GetNextLowerTxDr( int8_t dr, int8_t minDr )
  70:../../../../../../Middlewares/Third_Party/LoRaWAN/Mac/region/RegionIN865.c **** {
  71:../../../../../../Middlewares/Third_Party/LoRaWAN/Mac/region/RegionIN865.c ****     uint8_t nextLowerDr = 0;
  72:../../../../../../Middlewares/Third_Party/LoRaWAN/Mac/region/RegionIN865.c **** 
  73:../../../../../../Middlewares/Third_Party/LoRaWAN/Mac/region/RegionIN865.c ****     if( dr == minDr )
  74:../../../../../../Middlewares/Third_Party/LoRaWAN/Mac/region/RegionIN865.c ****     {
  75:../../../../../../Middlewares/Third_Party/LoRaWAN/Mac/region/RegionIN865.c ****         nextLowerDr = minDr;
  76:../../../../../../Middlewares/Third_Party/LoRaWAN/Mac/region/RegionIN865.c ****     }
  77:../../../../../../Middlewares/Third_Party/LoRaWAN/Mac/region/RegionIN865.c ****     else if( dr == DR_7 )
  78:../../../../../../Middlewares/Third_Party/LoRaWAN/Mac/region/RegionIN865.c ****     {
  79:../../../../../../Middlewares/Third_Party/LoRaWAN/Mac/region/RegionIN865.c ****         nextLowerDr = DR_5;
  80:../../../../../../Middlewares/Third_Party/LoRaWAN/Mac/region/RegionIN865.c ****     }
  81:../../../../../../Middlewares/Third_Party/LoRaWAN/Mac/region/RegionIN865.c ****     else
  82:../../../../../../Middlewares/Third_Party/LoRaWAN/Mac/region/RegionIN865.c ****     {
  83:../../../../../../Middlewares/Third_Party/LoRaWAN/Mac/region/RegionIN865.c ****         nextLowerDr = dr - 1;
  84:../../../../../../Middlewares/Third_Party/LoRaWAN/Mac/region/RegionIN865.c ****     }
  85:../../../../../../Middlewares/Third_Party/LoRaWAN/Mac/region/RegionIN865.c ****     return nextLowerDr;
  86:../../../../../../Middlewares/Third_Party/LoRaWAN/Mac/region/RegionIN865.c **** }
  87:../../../../../../Middlewares/Third_Party/LoRaWAN/Mac/region/RegionIN865.c **** 
  88:../../../../../../Middlewares/Third_Party/LoRaWAN/Mac/region/RegionIN865.c **** static uint32_t GetBandwidth( uint32_t drIndex )
ARM GAS  C:\Users\EBANO_~1\AppData\Local\Temp\ccEfOEMG.s 			page 3


  89:../../../../../../Middlewares/Third_Party/LoRaWAN/Mac/region/RegionIN865.c **** {
  90:../../../../../../Middlewares/Third_Party/LoRaWAN/Mac/region/RegionIN865.c ****     switch( BandwidthsIN865[drIndex] )
  91:../../../../../../Middlewares/Third_Party/LoRaWAN/Mac/region/RegionIN865.c ****     {
  92:../../../../../../Middlewares/Third_Party/LoRaWAN/Mac/region/RegionIN865.c ****         default:
  93:../../../../../../Middlewares/Third_Party/LoRaWAN/Mac/region/RegionIN865.c ****         case 125000:
  94:../../../../../../Middlewares/Third_Party/LoRaWAN/Mac/region/RegionIN865.c ****             return 0;
  95:../../../../../../Middlewares/Third_Party/LoRaWAN/Mac/region/RegionIN865.c ****         case 250000:
  96:../../../../../../Middlewares/Third_Party/LoRaWAN/Mac/region/RegionIN865.c ****             return 1;
  97:../../../../../../Middlewares/Third_Party/LoRaWAN/Mac/region/RegionIN865.c ****         case 500000:
  98:../../../../../../Middlewares/Third_Party/LoRaWAN/Mac/region/RegionIN865.c ****             return 2;
  99:../../../../../../Middlewares/Third_Party/LoRaWAN/Mac/region/RegionIN865.c ****     }
 100:../../../../../../Middlewares/Third_Party/LoRaWAN/Mac/region/RegionIN865.c **** }
 101:../../../../../../Middlewares/Third_Party/LoRaWAN/Mac/region/RegionIN865.c **** 
 102:../../../../../../Middlewares/Third_Party/LoRaWAN/Mac/region/RegionIN865.c **** static int8_t LimitTxPower( int8_t txPower, int8_t maxBandTxPower, int8_t datarate, uint16_t* chann
 103:../../../../../../Middlewares/Third_Party/LoRaWAN/Mac/region/RegionIN865.c **** {
 104:../../../../../../Middlewares/Third_Party/LoRaWAN/Mac/region/RegionIN865.c ****     int8_t txPowerResult = txPower;
 105:../../../../../../Middlewares/Third_Party/LoRaWAN/Mac/region/RegionIN865.c **** 
 106:../../../../../../Middlewares/Third_Party/LoRaWAN/Mac/region/RegionIN865.c ****     // Limit tx power to the band max
 107:../../../../../../Middlewares/Third_Party/LoRaWAN/Mac/region/RegionIN865.c ****     txPowerResult =  MAX( txPower, maxBandTxPower );
 108:../../../../../../Middlewares/Third_Party/LoRaWAN/Mac/region/RegionIN865.c **** 
 109:../../../../../../Middlewares/Third_Party/LoRaWAN/Mac/region/RegionIN865.c ****     return txPowerResult;
 110:../../../../../../Middlewares/Third_Party/LoRaWAN/Mac/region/RegionIN865.c **** }
 111:../../../../../../Middlewares/Third_Party/LoRaWAN/Mac/region/RegionIN865.c **** 
 112:../../../../../../Middlewares/Third_Party/LoRaWAN/Mac/region/RegionIN865.c **** static bool VerifyRfFreq( uint32_t freq )
 113:../../../../../../Middlewares/Third_Party/LoRaWAN/Mac/region/RegionIN865.c **** {
 114:../../../../../../Middlewares/Third_Party/LoRaWAN/Mac/region/RegionIN865.c ****     // Check radio driver support
 115:../../../../../../Middlewares/Third_Party/LoRaWAN/Mac/region/RegionIN865.c ****     if( Radio.CheckRfFrequency( freq ) == false )
 116:../../../../../../Middlewares/Third_Party/LoRaWAN/Mac/region/RegionIN865.c ****     {
 117:../../../../../../Middlewares/Third_Party/LoRaWAN/Mac/region/RegionIN865.c ****         return false;
 118:../../../../../../Middlewares/Third_Party/LoRaWAN/Mac/region/RegionIN865.c ****     }
 119:../../../../../../Middlewares/Third_Party/LoRaWAN/Mac/region/RegionIN865.c **** 
 120:../../../../../../Middlewares/Third_Party/LoRaWAN/Mac/region/RegionIN865.c ****     if( ( freq < 865000000 ) || ( freq > 867000000 ) )
 121:../../../../../../Middlewares/Third_Party/LoRaWAN/Mac/region/RegionIN865.c ****     {
 122:../../../../../../Middlewares/Third_Party/LoRaWAN/Mac/region/RegionIN865.c ****         return false;
 123:../../../../../../Middlewares/Third_Party/LoRaWAN/Mac/region/RegionIN865.c ****     }
 124:../../../../../../Middlewares/Third_Party/LoRaWAN/Mac/region/RegionIN865.c ****     return true;
 125:../../../../../../Middlewares/Third_Party/LoRaWAN/Mac/region/RegionIN865.c **** }
 126:../../../../../../Middlewares/Third_Party/LoRaWAN/Mac/region/RegionIN865.c **** 
 127:../../../../../../Middlewares/Third_Party/LoRaWAN/Mac/region/RegionIN865.c **** static uint8_t CountNbOfEnabledChannels( bool joined, uint8_t datarate, uint16_t* channelsMask, Cha
 128:../../../../../../Middlewares/Third_Party/LoRaWAN/Mac/region/RegionIN865.c **** {
 129:../../../../../../Middlewares/Third_Party/LoRaWAN/Mac/region/RegionIN865.c ****     uint8_t nbEnabledChannels = 0;
 130:../../../../../../Middlewares/Third_Party/LoRaWAN/Mac/region/RegionIN865.c ****     uint8_t delayTransmission = 0;
 131:../../../../../../Middlewares/Third_Party/LoRaWAN/Mac/region/RegionIN865.c **** 
 132:../../../../../../Middlewares/Third_Party/LoRaWAN/Mac/region/RegionIN865.c ****     for( uint8_t i = 0, k = 0; i < IN865_MAX_NB_CHANNELS; i += 16, k++ )
 133:../../../../../../Middlewares/Third_Party/LoRaWAN/Mac/region/RegionIN865.c ****     {
 134:../../../../../../Middlewares/Third_Party/LoRaWAN/Mac/region/RegionIN865.c ****         for( uint8_t j = 0; j < 16; j++ )
 135:../../../../../../Middlewares/Third_Party/LoRaWAN/Mac/region/RegionIN865.c ****         {
 136:../../../../../../Middlewares/Third_Party/LoRaWAN/Mac/region/RegionIN865.c ****             if( ( channelsMask[k] & ( 1 << j ) ) != 0 )
 137:../../../../../../Middlewares/Third_Party/LoRaWAN/Mac/region/RegionIN865.c ****             {
 138:../../../../../../Middlewares/Third_Party/LoRaWAN/Mac/region/RegionIN865.c ****                 if( channels[i + j].Frequency == 0 )
 139:../../../../../../Middlewares/Third_Party/LoRaWAN/Mac/region/RegionIN865.c ****                 { // Check if the channel is enabled
 140:../../../../../../Middlewares/Third_Party/LoRaWAN/Mac/region/RegionIN865.c ****                     continue;
 141:../../../../../../Middlewares/Third_Party/LoRaWAN/Mac/region/RegionIN865.c ****                 }
 142:../../../../../../Middlewares/Third_Party/LoRaWAN/Mac/region/RegionIN865.c ****                 if( joined == false )
 143:../../../../../../Middlewares/Third_Party/LoRaWAN/Mac/region/RegionIN865.c ****                 {
 144:../../../../../../Middlewares/Third_Party/LoRaWAN/Mac/region/RegionIN865.c ****                     if( ( IN865_JOIN_CHANNELS & ( 1 << j ) ) == 0 )
 145:../../../../../../Middlewares/Third_Party/LoRaWAN/Mac/region/RegionIN865.c ****                     {
ARM GAS  C:\Users\EBANO_~1\AppData\Local\Temp\ccEfOEMG.s 			page 4


 146:../../../../../../Middlewares/Third_Party/LoRaWAN/Mac/region/RegionIN865.c ****                         continue;
 147:../../../../../../Middlewares/Third_Party/LoRaWAN/Mac/region/RegionIN865.c ****                     }
 148:../../../../../../Middlewares/Third_Party/LoRaWAN/Mac/region/RegionIN865.c ****                 }
 149:../../../../../../Middlewares/Third_Party/LoRaWAN/Mac/region/RegionIN865.c ****                 if( RegionCommonValueInRange( datarate, channels[i + j].DrRange.Fields.Min,
 150:../../../../../../Middlewares/Third_Party/LoRaWAN/Mac/region/RegionIN865.c ****                                               channels[i + j].DrRange.Fields.Max ) == false )
 151:../../../../../../Middlewares/Third_Party/LoRaWAN/Mac/region/RegionIN865.c ****                 { // Check if the current channel selection supports the given datarate
 152:../../../../../../Middlewares/Third_Party/LoRaWAN/Mac/region/RegionIN865.c ****                     continue;
 153:../../../../../../Middlewares/Third_Party/LoRaWAN/Mac/region/RegionIN865.c ****                 }
 154:../../../../../../Middlewares/Third_Party/LoRaWAN/Mac/region/RegionIN865.c ****                 if( bands[channels[i + j].Band].TimeOff > 0 )
 155:../../../../../../Middlewares/Third_Party/LoRaWAN/Mac/region/RegionIN865.c ****                 { // Check if the band is available for transmission
 156:../../../../../../Middlewares/Third_Party/LoRaWAN/Mac/region/RegionIN865.c ****                     delayTransmission++;
 157:../../../../../../Middlewares/Third_Party/LoRaWAN/Mac/region/RegionIN865.c ****                     continue;
 158:../../../../../../Middlewares/Third_Party/LoRaWAN/Mac/region/RegionIN865.c ****                 }
 159:../../../../../../Middlewares/Third_Party/LoRaWAN/Mac/region/RegionIN865.c ****                 enabledChannels[nbEnabledChannels++] = i + j;
 160:../../../../../../Middlewares/Third_Party/LoRaWAN/Mac/region/RegionIN865.c ****             }
 161:../../../../../../Middlewares/Third_Party/LoRaWAN/Mac/region/RegionIN865.c ****         }
 162:../../../../../../Middlewares/Third_Party/LoRaWAN/Mac/region/RegionIN865.c ****     }
 163:../../../../../../Middlewares/Third_Party/LoRaWAN/Mac/region/RegionIN865.c **** 
 164:../../../../../../Middlewares/Third_Party/LoRaWAN/Mac/region/RegionIN865.c ****     *delayTx = delayTransmission;
 165:../../../../../../Middlewares/Third_Party/LoRaWAN/Mac/region/RegionIN865.c ****     return nbEnabledChannels;
 166:../../../../../../Middlewares/Third_Party/LoRaWAN/Mac/region/RegionIN865.c **** }
 167:../../../../../../Middlewares/Third_Party/LoRaWAN/Mac/region/RegionIN865.c **** 
 168:../../../../../../Middlewares/Third_Party/LoRaWAN/Mac/region/RegionIN865.c **** PhyParam_t RegionIN865GetPhyParam( GetPhyParams_t* getPhy )
 169:../../../../../../Middlewares/Third_Party/LoRaWAN/Mac/region/RegionIN865.c **** {
  27              		.loc 1 169 0
  28              		.cfi_startproc
  29              		@ args = 0, pretend = 0, frame = 8
  30              		@ frame_needed = 0, uses_anonymous_args = 0
  31              	.LVL0:
 170:../../../../../../Middlewares/Third_Party/LoRaWAN/Mac/region/RegionIN865.c ****     PhyParam_t phyParam = { 0 };
  32              		.loc 1 170 0
  33 0000 0023     		movs	r3, #0
 169:../../../../../../Middlewares/Third_Party/LoRaWAN/Mac/region/RegionIN865.c ****     PhyParam_t phyParam = { 0 };
  34              		.loc 1 169 0
  35 0002 00B5     		push	{lr}
  36              	.LCFI0:
  37              		.cfi_def_cfa_offset 4
  38              		.cfi_offset 14, -4
  39 0004 83B0     		sub	sp, sp, #12
  40              	.LCFI1:
  41              		.cfi_def_cfa_offset 16
  42              		.loc 1 170 0
  43 0006 0093     		str	r3, [sp]
 171:../../../../../../Middlewares/Third_Party/LoRaWAN/Mac/region/RegionIN865.c **** 
 172:../../../../../../Middlewares/Third_Party/LoRaWAN/Mac/region/RegionIN865.c ****     switch( getPhy->Attribute )
  44              		.loc 1 172 0
  45 0008 0378     		ldrb	r3, [r0]
  46 000a 0A3B     		subs	r3, r3, #10
  47 000c DBB2     		uxtb	r3, r3
  48 000e 2A2B     		cmp	r3, #42
  49 0010 05D8     		bhi	.L2
  50 0012 364A     		ldr	r2, .L32
  51 0014 9B00     		lsls	r3, r3, #2
  52 0016 D358     		ldr	r3, [r2, r3]
  53 0018 9F46     		mov	pc, r3
  54              		.section	.rodata
  55              		.align	2
ARM GAS  C:\Users\EBANO_~1\AppData\Local\Temp\ccEfOEMG.s 			page 5


  56              	.L4:
  57 0000 A4000000 		.word	.L3
  58 0004 E0000000 		.word	.L5
  59 0008 D4000000 		.word	.L6
  60 000c C6000000 		.word	.L7
  61 0010 C0000000 		.word	.L8
  62 0014 66000000 		.word	.L9
  63 0018 5E000000 		.word	.L10
  64 001c 72000000 		.word	.L11
  65 0020 6C000000 		.word	.L12
  66 0024 9E000000 		.word	.L13
  67 0028 96000000 		.word	.L14
  68 002c 80000000 		.word	.L15
  69 0030 1E000000 		.word	.L2
  70 0034 24000000 		.word	.L16
  71 0038 58000000 		.word	.L17
  72 003c 52000000 		.word	.L18
  73 0040 4C000000 		.word	.L19
  74 0044 1A000000 		.word	.L20
  75 0048 30000000 		.word	.L21
  76 004c 1E000000 		.word	.L2
  77 0050 1E000000 		.word	.L2
  78 0054 36000000 		.word	.L22
  79 0058 7A000000 		.word	.L23
  80 005c AA000000 		.word	.L24
  81 0060 1E000000 		.word	.L2
  82 0064 1E000000 		.word	.L2
  83 0068 1E000000 		.word	.L2
  84 006c 1E000000 		.word	.L2
  85 0070 1E000000 		.word	.L2
  86 0074 1E000000 		.word	.L2
  87 0078 1E000000 		.word	.L2
  88 007c 1E000000 		.word	.L2
  89 0080 1E000000 		.word	.L2
  90 0084 1E000000 		.word	.L2
  91 0088 1E000000 		.word	.L2
  92 008c 1E000000 		.word	.L2
  93 0090 1E000000 		.word	.L2
  94 0094 24000000 		.word	.L16
  95 0098 3C000000 		.word	.L25
  96 009c 2A000000 		.word	.L26
  97 00a0 1E000000 		.word	.L2
  98 00a4 1E000000 		.word	.L2
  99 00a8 2A000000 		.word	.L26
 100              		.section	.text.RegionIN865GetPhyParam
 101              	.L20:
 173:../../../../../../Middlewares/Third_Party/LoRaWAN/Mac/region/RegionIN865.c ****     {
 174:../../../../../../Middlewares/Third_Party/LoRaWAN/Mac/region/RegionIN865.c ****         case PHY_MIN_RX_DR:
 175:../../../../../../Middlewares/Third_Party/LoRaWAN/Mac/region/RegionIN865.c ****         {
 176:../../../../../../Middlewares/Third_Party/LoRaWAN/Mac/region/RegionIN865.c ****             phyParam.Value = IN865_RX_MIN_DATARATE;
 177:../../../../../../Middlewares/Third_Party/LoRaWAN/Mac/region/RegionIN865.c ****             break;
 178:../../../../../../Middlewares/Third_Party/LoRaWAN/Mac/region/RegionIN865.c ****         }
 179:../../../../../../Middlewares/Third_Party/LoRaWAN/Mac/region/RegionIN865.c ****         case PHY_MIN_TX_DR:
 180:../../../../../../Middlewares/Third_Party/LoRaWAN/Mac/region/RegionIN865.c ****         {
 181:../../../../../../Middlewares/Third_Party/LoRaWAN/Mac/region/RegionIN865.c ****             phyParam.Value = IN865_TX_MIN_DATARATE;
 182:../../../../../../Middlewares/Third_Party/LoRaWAN/Mac/region/RegionIN865.c ****             break;
 183:../../../../../../Middlewares/Third_Party/LoRaWAN/Mac/region/RegionIN865.c ****         }
ARM GAS  C:\Users\EBANO_~1\AppData\Local\Temp\ccEfOEMG.s 			page 6


 184:../../../../../../Middlewares/Third_Party/LoRaWAN/Mac/region/RegionIN865.c ****         case PHY_DEF_TX_DR:
 185:../../../../../../Middlewares/Third_Party/LoRaWAN/Mac/region/RegionIN865.c ****         {
 186:../../../../../../Middlewares/Third_Party/LoRaWAN/Mac/region/RegionIN865.c ****             phyParam.Value = IN865_DEFAULT_DATARATE;
 187:../../../../../../Middlewares/Third_Party/LoRaWAN/Mac/region/RegionIN865.c ****             break;
 188:../../../../../../Middlewares/Third_Party/LoRaWAN/Mac/region/RegionIN865.c ****         }
 189:../../../../../../Middlewares/Third_Party/LoRaWAN/Mac/region/RegionIN865.c ****         case PHY_NEXT_LOWER_TX_DR:
 190:../../../../../../Middlewares/Third_Party/LoRaWAN/Mac/region/RegionIN865.c ****         {
 191:../../../../../../Middlewares/Third_Party/LoRaWAN/Mac/region/RegionIN865.c ****             phyParam.Value = GetNextLowerTxDr( getPhy->Datarate, IN865_TX_MIN_DATARATE );
 192:../../../../../../Middlewares/Third_Party/LoRaWAN/Mac/region/RegionIN865.c ****             break;
 193:../../../../../../Middlewares/Third_Party/LoRaWAN/Mac/region/RegionIN865.c ****         }
 194:../../../../../../Middlewares/Third_Party/LoRaWAN/Mac/region/RegionIN865.c ****         case PHY_MAX_TX_POWER:
 195:../../../../../../Middlewares/Third_Party/LoRaWAN/Mac/region/RegionIN865.c ****         {
 196:../../../../../../Middlewares/Third_Party/LoRaWAN/Mac/region/RegionIN865.c ****             phyParam.Value = IN865_MAX_TX_POWER;
 197:../../../../../../Middlewares/Third_Party/LoRaWAN/Mac/region/RegionIN865.c ****             break;
 198:../../../../../../Middlewares/Third_Party/LoRaWAN/Mac/region/RegionIN865.c ****         }
 199:../../../../../../Middlewares/Third_Party/LoRaWAN/Mac/region/RegionIN865.c ****         case PHY_DEF_TX_POWER:
 200:../../../../../../Middlewares/Third_Party/LoRaWAN/Mac/region/RegionIN865.c ****         {
 201:../../../../../../Middlewares/Third_Party/LoRaWAN/Mac/region/RegionIN865.c ****             phyParam.Value = IN865_DEFAULT_TX_POWER;
 202:../../../../../../Middlewares/Third_Party/LoRaWAN/Mac/region/RegionIN865.c ****             break;
 203:../../../../../../Middlewares/Third_Party/LoRaWAN/Mac/region/RegionIN865.c ****         }
 204:../../../../../../Middlewares/Third_Party/LoRaWAN/Mac/region/RegionIN865.c ****         case PHY_DEF_ADR_ACK_LIMIT:
 205:../../../../../../Middlewares/Third_Party/LoRaWAN/Mac/region/RegionIN865.c ****         {
 206:../../../../../../Middlewares/Third_Party/LoRaWAN/Mac/region/RegionIN865.c ****             phyParam.Value = IN865_ADR_ACK_LIMIT;
 207:../../../../../../Middlewares/Third_Party/LoRaWAN/Mac/region/RegionIN865.c ****             break;
 208:../../../../../../Middlewares/Third_Party/LoRaWAN/Mac/region/RegionIN865.c ****         }
 209:../../../../../../Middlewares/Third_Party/LoRaWAN/Mac/region/RegionIN865.c ****         case PHY_DEF_ADR_ACK_DELAY:
 210:../../../../../../Middlewares/Third_Party/LoRaWAN/Mac/region/RegionIN865.c ****         {
 211:../../../../../../Middlewares/Third_Party/LoRaWAN/Mac/region/RegionIN865.c ****             phyParam.Value = IN865_ADR_ACK_DELAY;
 212:../../../../../../Middlewares/Third_Party/LoRaWAN/Mac/region/RegionIN865.c ****             break;
 213:../../../../../../Middlewares/Third_Party/LoRaWAN/Mac/region/RegionIN865.c ****         }
 214:../../../../../../Middlewares/Third_Party/LoRaWAN/Mac/region/RegionIN865.c ****         case PHY_MAX_PAYLOAD:
 215:../../../../../../Middlewares/Third_Party/LoRaWAN/Mac/region/RegionIN865.c ****         {
 216:../../../../../../Middlewares/Third_Party/LoRaWAN/Mac/region/RegionIN865.c ****             phyParam.Value = MaxPayloadOfDatarateIN865[getPhy->Datarate];
 217:../../../../../../Middlewares/Third_Party/LoRaWAN/Mac/region/RegionIN865.c ****             break;
 218:../../../../../../Middlewares/Third_Party/LoRaWAN/Mac/region/RegionIN865.c ****         }
 219:../../../../../../Middlewares/Third_Party/LoRaWAN/Mac/region/RegionIN865.c ****         case PHY_MAX_PAYLOAD_REPEATER:
 220:../../../../../../Middlewares/Third_Party/LoRaWAN/Mac/region/RegionIN865.c ****         {
 221:../../../../../../Middlewares/Third_Party/LoRaWAN/Mac/region/RegionIN865.c ****             phyParam.Value = MaxPayloadOfDatarateRepeaterIN865[getPhy->Datarate];
 222:../../../../../../Middlewares/Third_Party/LoRaWAN/Mac/region/RegionIN865.c ****             break;
 223:../../../../../../Middlewares/Third_Party/LoRaWAN/Mac/region/RegionIN865.c ****         }
 224:../../../../../../Middlewares/Third_Party/LoRaWAN/Mac/region/RegionIN865.c ****         case PHY_DUTY_CYCLE:
 225:../../../../../../Middlewares/Third_Party/LoRaWAN/Mac/region/RegionIN865.c ****         {
 226:../../../../../../Middlewares/Third_Party/LoRaWAN/Mac/region/RegionIN865.c ****             phyParam.Value = IN865_DUTY_CYCLE_ENABLED;
 227:../../../../../../Middlewares/Third_Party/LoRaWAN/Mac/region/RegionIN865.c ****             break;
 228:../../../../../../Middlewares/Third_Party/LoRaWAN/Mac/region/RegionIN865.c ****         }
 229:../../../../../../Middlewares/Third_Party/LoRaWAN/Mac/region/RegionIN865.c ****         case PHY_MAX_RX_WINDOW:
 230:../../../../../../Middlewares/Third_Party/LoRaWAN/Mac/region/RegionIN865.c ****         {
 231:../../../../../../Middlewares/Third_Party/LoRaWAN/Mac/region/RegionIN865.c ****             phyParam.Value = IN865_MAX_RX_WINDOW;
 232:../../../../../../Middlewares/Third_Party/LoRaWAN/Mac/region/RegionIN865.c ****             break;
 233:../../../../../../Middlewares/Third_Party/LoRaWAN/Mac/region/RegionIN865.c ****         }
 234:../../../../../../Middlewares/Third_Party/LoRaWAN/Mac/region/RegionIN865.c ****         case PHY_RECEIVE_DELAY1:
 235:../../../../../../Middlewares/Third_Party/LoRaWAN/Mac/region/RegionIN865.c ****         {
 236:../../../../../../Middlewares/Third_Party/LoRaWAN/Mac/region/RegionIN865.c ****             phyParam.Value = IN865_RECEIVE_DELAY1;
 237:../../../../../../Middlewares/Third_Party/LoRaWAN/Mac/region/RegionIN865.c ****             break;
 238:../../../../../../Middlewares/Third_Party/LoRaWAN/Mac/region/RegionIN865.c ****         }
 239:../../../../../../Middlewares/Third_Party/LoRaWAN/Mac/region/RegionIN865.c ****         case PHY_RECEIVE_DELAY2:
 240:../../../../../../Middlewares/Third_Party/LoRaWAN/Mac/region/RegionIN865.c ****         {
ARM GAS  C:\Users\EBANO_~1\AppData\Local\Temp\ccEfOEMG.s 			page 7


 241:../../../../../../Middlewares/Third_Party/LoRaWAN/Mac/region/RegionIN865.c ****             phyParam.Value = IN865_RECEIVE_DELAY2;
 242:../../../../../../Middlewares/Third_Party/LoRaWAN/Mac/region/RegionIN865.c ****             break;
 243:../../../../../../Middlewares/Third_Party/LoRaWAN/Mac/region/RegionIN865.c ****         }
 244:../../../../../../Middlewares/Third_Party/LoRaWAN/Mac/region/RegionIN865.c ****         case PHY_JOIN_ACCEPT_DELAY1:
 245:../../../../../../Middlewares/Third_Party/LoRaWAN/Mac/region/RegionIN865.c ****         {
 246:../../../../../../Middlewares/Third_Party/LoRaWAN/Mac/region/RegionIN865.c ****             phyParam.Value = IN865_JOIN_ACCEPT_DELAY1;
 247:../../../../../../Middlewares/Third_Party/LoRaWAN/Mac/region/RegionIN865.c ****             break;
 248:../../../../../../Middlewares/Third_Party/LoRaWAN/Mac/region/RegionIN865.c ****         }
 249:../../../../../../Middlewares/Third_Party/LoRaWAN/Mac/region/RegionIN865.c ****         case PHY_JOIN_ACCEPT_DELAY2:
 250:../../../../../../Middlewares/Third_Party/LoRaWAN/Mac/region/RegionIN865.c ****         {
 251:../../../../../../Middlewares/Third_Party/LoRaWAN/Mac/region/RegionIN865.c ****             phyParam.Value = IN865_JOIN_ACCEPT_DELAY2;
 252:../../../../../../Middlewares/Third_Party/LoRaWAN/Mac/region/RegionIN865.c ****             break;
 253:../../../../../../Middlewares/Third_Party/LoRaWAN/Mac/region/RegionIN865.c ****         }
 254:../../../../../../Middlewares/Third_Party/LoRaWAN/Mac/region/RegionIN865.c ****         case PHY_MAX_FCNT_GAP:
 255:../../../../../../Middlewares/Third_Party/LoRaWAN/Mac/region/RegionIN865.c ****         {
 256:../../../../../../Middlewares/Third_Party/LoRaWAN/Mac/region/RegionIN865.c ****             phyParam.Value = IN865_MAX_FCNT_GAP;
 257:../../../../../../Middlewares/Third_Party/LoRaWAN/Mac/region/RegionIN865.c ****             break;
 258:../../../../../../Middlewares/Third_Party/LoRaWAN/Mac/region/RegionIN865.c ****         }
 259:../../../../../../Middlewares/Third_Party/LoRaWAN/Mac/region/RegionIN865.c ****         case PHY_ACK_TIMEOUT:
 260:../../../../../../Middlewares/Third_Party/LoRaWAN/Mac/region/RegionIN865.c ****         {
 261:../../../../../../Middlewares/Third_Party/LoRaWAN/Mac/region/RegionIN865.c ****             phyParam.Value = ( IN865_ACKTIMEOUT + randr( -IN865_ACK_TIMEOUT_RND, IN865_ACK_TIMEOUT_
 262:../../../../../../Middlewares/Third_Party/LoRaWAN/Mac/region/RegionIN865.c ****             break;
 263:../../../../../../Middlewares/Third_Party/LoRaWAN/Mac/region/RegionIN865.c ****         }
 264:../../../../../../Middlewares/Third_Party/LoRaWAN/Mac/region/RegionIN865.c ****         case PHY_DEF_DR1_OFFSET:
 265:../../../../../../Middlewares/Third_Party/LoRaWAN/Mac/region/RegionIN865.c ****         {
 266:../../../../../../Middlewares/Third_Party/LoRaWAN/Mac/region/RegionIN865.c ****             phyParam.Value = IN865_DEFAULT_RX1_DR_OFFSET;
 267:../../../../../../Middlewares/Third_Party/LoRaWAN/Mac/region/RegionIN865.c ****             break;
 268:../../../../../../Middlewares/Third_Party/LoRaWAN/Mac/region/RegionIN865.c ****         }
 269:../../../../../../Middlewares/Third_Party/LoRaWAN/Mac/region/RegionIN865.c ****         case PHY_DEF_RX2_FREQUENCY:
 270:../../../../../../Middlewares/Third_Party/LoRaWAN/Mac/region/RegionIN865.c ****         {
 271:../../../../../../Middlewares/Third_Party/LoRaWAN/Mac/region/RegionIN865.c ****             phyParam.Value = IN865_RX_WND_2_FREQ;
 272:../../../../../../Middlewares/Third_Party/LoRaWAN/Mac/region/RegionIN865.c ****             break;
 273:../../../../../../Middlewares/Third_Party/LoRaWAN/Mac/region/RegionIN865.c ****         }
 274:../../../../../../Middlewares/Third_Party/LoRaWAN/Mac/region/RegionIN865.c ****         case PHY_DEF_RX2_DR:
 275:../../../../../../Middlewares/Third_Party/LoRaWAN/Mac/region/RegionIN865.c ****         {
 276:../../../../../../Middlewares/Third_Party/LoRaWAN/Mac/region/RegionIN865.c ****             phyParam.Value = IN865_RX_WND_2_DR;
 277:../../../../../../Middlewares/Third_Party/LoRaWAN/Mac/region/RegionIN865.c ****             break;
 278:../../../../../../Middlewares/Third_Party/LoRaWAN/Mac/region/RegionIN865.c ****         }
 279:../../../../../../Middlewares/Third_Party/LoRaWAN/Mac/region/RegionIN865.c ****         case PHY_CHANNELS_MASK:
 280:../../../../../../Middlewares/Third_Party/LoRaWAN/Mac/region/RegionIN865.c ****         {
 281:../../../../../../Middlewares/Third_Party/LoRaWAN/Mac/region/RegionIN865.c ****             phyParam.ChannelsMask = NvmCtx.ChannelsMask;
 282:../../../../../../Middlewares/Third_Party/LoRaWAN/Mac/region/RegionIN865.c ****             break;
 283:../../../../../../Middlewares/Third_Party/LoRaWAN/Mac/region/RegionIN865.c ****         }
 284:../../../../../../Middlewares/Third_Party/LoRaWAN/Mac/region/RegionIN865.c ****         case PHY_CHANNELS_DEFAULT_MASK:
 285:../../../../../../Middlewares/Third_Party/LoRaWAN/Mac/region/RegionIN865.c ****         {
 286:../../../../../../Middlewares/Third_Party/LoRaWAN/Mac/region/RegionIN865.c ****             phyParam.ChannelsMask = NvmCtx.ChannelsDefaultMask;
 287:../../../../../../Middlewares/Third_Party/LoRaWAN/Mac/region/RegionIN865.c ****             break;
 288:../../../../../../Middlewares/Third_Party/LoRaWAN/Mac/region/RegionIN865.c ****         }
 289:../../../../../../Middlewares/Third_Party/LoRaWAN/Mac/region/RegionIN865.c ****         case PHY_MAX_NB_CHANNELS:
 290:../../../../../../Middlewares/Third_Party/LoRaWAN/Mac/region/RegionIN865.c ****         {
 291:../../../../../../Middlewares/Third_Party/LoRaWAN/Mac/region/RegionIN865.c ****             phyParam.Value = IN865_MAX_NB_CHANNELS;
 102              		.loc 1 291 0
 103 001a 1023     		movs	r3, #16
 104 001c 0093     		str	r3, [sp]
 105              	.LVL1:
 106              	.L2:
 292:../../../../../../Middlewares/Third_Party/LoRaWAN/Mac/region/RegionIN865.c ****             break;
ARM GAS  C:\Users\EBANO_~1\AppData\Local\Temp\ccEfOEMG.s 			page 8


 293:../../../../../../Middlewares/Third_Party/LoRaWAN/Mac/region/RegionIN865.c ****         }
 294:../../../../../../Middlewares/Third_Party/LoRaWAN/Mac/region/RegionIN865.c ****         case PHY_CHANNELS:
 295:../../../../../../Middlewares/Third_Party/LoRaWAN/Mac/region/RegionIN865.c ****         {
 296:../../../../../../Middlewares/Third_Party/LoRaWAN/Mac/region/RegionIN865.c ****             phyParam.Channels = NvmCtx.Channels;
 297:../../../../../../Middlewares/Third_Party/LoRaWAN/Mac/region/RegionIN865.c ****             break;
 298:../../../../../../Middlewares/Third_Party/LoRaWAN/Mac/region/RegionIN865.c ****         }
 299:../../../../../../Middlewares/Third_Party/LoRaWAN/Mac/region/RegionIN865.c ****         case PHY_DEF_UPLINK_DWELL_TIME:
 300:../../../../../../Middlewares/Third_Party/LoRaWAN/Mac/region/RegionIN865.c ****         case PHY_DEF_DOWNLINK_DWELL_TIME:
 301:../../../../../../Middlewares/Third_Party/LoRaWAN/Mac/region/RegionIN865.c ****         {
 302:../../../../../../Middlewares/Third_Party/LoRaWAN/Mac/region/RegionIN865.c ****             phyParam.Value = 0;
 303:../../../../../../Middlewares/Third_Party/LoRaWAN/Mac/region/RegionIN865.c ****             break;
 304:../../../../../../Middlewares/Third_Party/LoRaWAN/Mac/region/RegionIN865.c ****         }
 305:../../../../../../Middlewares/Third_Party/LoRaWAN/Mac/region/RegionIN865.c ****         case PHY_DEF_MAX_EIRP:
 306:../../../../../../Middlewares/Third_Party/LoRaWAN/Mac/region/RegionIN865.c ****         {
 307:../../../../../../Middlewares/Third_Party/LoRaWAN/Mac/region/RegionIN865.c ****             phyParam.fValue = IN865_DEFAULT_MAX_EIRP;
 308:../../../../../../Middlewares/Third_Party/LoRaWAN/Mac/region/RegionIN865.c ****             break;
 309:../../../../../../Middlewares/Third_Party/LoRaWAN/Mac/region/RegionIN865.c ****         }
 310:../../../../../../Middlewares/Third_Party/LoRaWAN/Mac/region/RegionIN865.c ****         case PHY_DEF_ANTENNA_GAIN:
 311:../../../../../../Middlewares/Third_Party/LoRaWAN/Mac/region/RegionIN865.c ****         {
 312:../../../../../../Middlewares/Third_Party/LoRaWAN/Mac/region/RegionIN865.c ****             phyParam.fValue = IN865_DEFAULT_ANTENNA_GAIN;
 313:../../../../../../Middlewares/Third_Party/LoRaWAN/Mac/region/RegionIN865.c ****             break;
 314:../../../../../../Middlewares/Third_Party/LoRaWAN/Mac/region/RegionIN865.c ****         }
 315:../../../../../../Middlewares/Third_Party/LoRaWAN/Mac/region/RegionIN865.c ****         case PHY_BEACON_CHANNEL_FREQ:
 316:../../../../../../Middlewares/Third_Party/LoRaWAN/Mac/region/RegionIN865.c ****         {
 317:../../../../../../Middlewares/Third_Party/LoRaWAN/Mac/region/RegionIN865.c ****             phyParam.Value = IN865_BEACON_CHANNEL_FREQ;
 318:../../../../../../Middlewares/Third_Party/LoRaWAN/Mac/region/RegionIN865.c ****             break;
 319:../../../../../../Middlewares/Third_Party/LoRaWAN/Mac/region/RegionIN865.c ****         }
 320:../../../../../../Middlewares/Third_Party/LoRaWAN/Mac/region/RegionIN865.c ****         case PHY_BEACON_FORMAT:
 321:../../../../../../Middlewares/Third_Party/LoRaWAN/Mac/region/RegionIN865.c ****         {
 322:../../../../../../Middlewares/Third_Party/LoRaWAN/Mac/region/RegionIN865.c ****             phyParam.BeaconFormat.BeaconSize = IN865_BEACON_SIZE;
 323:../../../../../../Middlewares/Third_Party/LoRaWAN/Mac/region/RegionIN865.c ****             phyParam.BeaconFormat.Rfu1Size = IN865_RFU1_SIZE;
 324:../../../../../../Middlewares/Third_Party/LoRaWAN/Mac/region/RegionIN865.c ****             phyParam.BeaconFormat.Rfu2Size = IN865_RFU2_SIZE;
 325:../../../../../../Middlewares/Third_Party/LoRaWAN/Mac/region/RegionIN865.c ****             break;
 326:../../../../../../Middlewares/Third_Party/LoRaWAN/Mac/region/RegionIN865.c ****         }
 327:../../../../../../Middlewares/Third_Party/LoRaWAN/Mac/region/RegionIN865.c ****         case PHY_BEACON_CHANNEL_DR:
 328:../../../../../../Middlewares/Third_Party/LoRaWAN/Mac/region/RegionIN865.c ****         {
 329:../../../../../../Middlewares/Third_Party/LoRaWAN/Mac/region/RegionIN865.c ****             phyParam.Value = IN865_BEACON_CHANNEL_DR;
 330:../../../../../../Middlewares/Third_Party/LoRaWAN/Mac/region/RegionIN865.c ****             break;
 331:../../../../../../Middlewares/Third_Party/LoRaWAN/Mac/region/RegionIN865.c ****         }
 332:../../../../../../Middlewares/Third_Party/LoRaWAN/Mac/region/RegionIN865.c ****         case PHY_PING_SLOT_CHANNEL_DR:
 333:../../../../../../Middlewares/Third_Party/LoRaWAN/Mac/region/RegionIN865.c ****         {
 334:../../../../../../Middlewares/Third_Party/LoRaWAN/Mac/region/RegionIN865.c ****             phyParam.Value = IN865_PING_SLOT_CHANNEL_DR;
 335:../../../../../../Middlewares/Third_Party/LoRaWAN/Mac/region/RegionIN865.c ****             break;
 336:../../../../../../Middlewares/Third_Party/LoRaWAN/Mac/region/RegionIN865.c ****         }
 337:../../../../../../Middlewares/Third_Party/LoRaWAN/Mac/region/RegionIN865.c ****         default:
 338:../../../../../../Middlewares/Third_Party/LoRaWAN/Mac/region/RegionIN865.c ****         {
 339:../../../../../../Middlewares/Third_Party/LoRaWAN/Mac/region/RegionIN865.c ****             break;
 340:../../../../../../Middlewares/Third_Party/LoRaWAN/Mac/region/RegionIN865.c ****         }
 341:../../../../../../Middlewares/Third_Party/LoRaWAN/Mac/region/RegionIN865.c ****     }
 342:../../../../../../Middlewares/Third_Party/LoRaWAN/Mac/region/RegionIN865.c **** 
 343:../../../../../../Middlewares/Third_Party/LoRaWAN/Mac/region/RegionIN865.c ****     return phyParam;
 344:../../../../../../Middlewares/Third_Party/LoRaWAN/Mac/region/RegionIN865.c **** }
 107              		.loc 1 344 0
 108 001e 0098     		ldr	r0, [sp]
 109 0020 03B0     		add	sp, sp, #12
 110              		@ sp needed
 111 0022 00BD     		pop	{pc}
ARM GAS  C:\Users\EBANO_~1\AppData\Local\Temp\ccEfOEMG.s 			page 9


 112              	.LVL2:
 113              	.L16:
 271:../../../../../../Middlewares/Third_Party/LoRaWAN/Mac/region/RegionIN865.c ****             break;
 114              		.loc 1 271 0
 115 0024 324B     		ldr	r3, .L32+4
 116 0026 0093     		str	r3, [sp]
 272:../../../../../../Middlewares/Third_Party/LoRaWAN/Mac/region/RegionIN865.c ****         }
 117              		.loc 1 272 0
 118 0028 F9E7     		b	.L2
 119              	.L26:
 329:../../../../../../Middlewares/Third_Party/LoRaWAN/Mac/region/RegionIN865.c ****             break;
 120              		.loc 1 329 0
 121 002a 0423     		movs	r3, #4
 122 002c 0093     		str	r3, [sp]
 330:../../../../../../Middlewares/Third_Party/LoRaWAN/Mac/region/RegionIN865.c ****         }
 123              		.loc 1 330 0
 124 002e F6E7     		b	.L2
 125              	.L21:
 296:../../../../../../Middlewares/Third_Party/LoRaWAN/Mac/region/RegionIN865.c ****             break;
 126              		.loc 1 296 0
 127 0030 304B     		ldr	r3, .L32+8
 128 0032 0093     		str	r3, [sp]
 297:../../../../../../Middlewares/Third_Party/LoRaWAN/Mac/region/RegionIN865.c ****         }
 129              		.loc 1 297 0
 130 0034 F3E7     		b	.L2
 131              	.L22:
 307:../../../../../../Middlewares/Third_Party/LoRaWAN/Mac/region/RegionIN865.c ****             break;
 132              		.loc 1 307 0
 133 0036 304B     		ldr	r3, .L32+12
 134 0038 0093     		str	r3, [sp]
 308:../../../../../../Middlewares/Third_Party/LoRaWAN/Mac/region/RegionIN865.c ****         }
 135              		.loc 1 308 0
 136 003a F0E7     		b	.L2
 137              	.L25:
 322:../../../../../../Middlewares/Third_Party/LoRaWAN/Mac/region/RegionIN865.c ****             phyParam.BeaconFormat.Rfu1Size = IN865_RFU1_SIZE;
 138              		.loc 1 322 0
 139 003c 1423     		movs	r3, #20
 140 003e 6A46     		mov	r2, sp
 141 0040 FF33     		adds	r3, r3, #255
 142 0042 1380     		strh	r3, [r2]
 323:../../../../../../Middlewares/Third_Party/LoRaWAN/Mac/region/RegionIN865.c ****             phyParam.BeaconFormat.Rfu2Size = IN865_RFU2_SIZE;
 143              		.loc 1 323 0
 144 0044 113B     		subs	r3, r3, #17
 145 0046 FF3B     		subs	r3, r3, #255
 146 0048 9370     		strb	r3, [r2, #2]
 325:../../../../../../Middlewares/Third_Party/LoRaWAN/Mac/region/RegionIN865.c ****         }
 147              		.loc 1 325 0
 148 004a E8E7     		b	.L2
 149              	.L19:
 286:../../../../../../Middlewares/Third_Party/LoRaWAN/Mac/region/RegionIN865.c ****             break;
 150              		.loc 1 286 0
 151 004c 2B4B     		ldr	r3, .L32+16
 152 004e 0093     		str	r3, [sp]
 287:../../../../../../Middlewares/Third_Party/LoRaWAN/Mac/region/RegionIN865.c ****         }
 153              		.loc 1 287 0
 154 0050 E5E7     		b	.L2
 155              	.L18:
ARM GAS  C:\Users\EBANO_~1\AppData\Local\Temp\ccEfOEMG.s 			page 10


 281:../../../../../../Middlewares/Third_Party/LoRaWAN/Mac/region/RegionIN865.c ****             break;
 156              		.loc 1 281 0
 157 0052 2B4B     		ldr	r3, .L32+20
 158 0054 0093     		str	r3, [sp]
 282:../../../../../../Middlewares/Third_Party/LoRaWAN/Mac/region/RegionIN865.c ****         }
 159              		.loc 1 282 0
 160 0056 E2E7     		b	.L2
 161              	.L17:
 276:../../../../../../Middlewares/Third_Party/LoRaWAN/Mac/region/RegionIN865.c ****             break;
 162              		.loc 1 276 0
 163 0058 0223     		movs	r3, #2
 164 005a 0093     		str	r3, [sp]
 277:../../../../../../Middlewares/Third_Party/LoRaWAN/Mac/region/RegionIN865.c ****         }
 165              		.loc 1 277 0
 166 005c DFE7     		b	.L2
 167              	.L10:
 236:../../../../../../Middlewares/Third_Party/LoRaWAN/Mac/region/RegionIN865.c ****             break;
 168              		.loc 1 236 0
 169 005e FA23     		movs	r3, #250
 170 0060 9B00     		lsls	r3, r3, #2
 171 0062 0093     		str	r3, [sp]
 237:../../../../../../Middlewares/Third_Party/LoRaWAN/Mac/region/RegionIN865.c ****         }
 172              		.loc 1 237 0
 173 0064 DBE7     		b	.L2
 174              	.L9:
 231:../../../../../../Middlewares/Third_Party/LoRaWAN/Mac/region/RegionIN865.c ****             break;
 175              		.loc 1 231 0
 176 0066 274B     		ldr	r3, .L32+24
 177 0068 0093     		str	r3, [sp]
 232:../../../../../../Middlewares/Third_Party/LoRaWAN/Mac/region/RegionIN865.c ****         }
 178              		.loc 1 232 0
 179 006a D8E7     		b	.L2
 180              	.L12:
 246:../../../../../../Middlewares/Third_Party/LoRaWAN/Mac/region/RegionIN865.c ****             break;
 181              		.loc 1 246 0
 182 006c 264B     		ldr	r3, .L32+28
 183 006e 0093     		str	r3, [sp]
 247:../../../../../../Middlewares/Third_Party/LoRaWAN/Mac/region/RegionIN865.c ****         }
 184              		.loc 1 247 0
 185 0070 D5E7     		b	.L2
 186              	.L11:
 241:../../../../../../Middlewares/Third_Party/LoRaWAN/Mac/region/RegionIN865.c ****             break;
 187              		.loc 1 241 0
 188 0072 FA23     		movs	r3, #250
 189 0074 DB00     		lsls	r3, r3, #3
 190 0076 0093     		str	r3, [sp]
 242:../../../../../../Middlewares/Third_Party/LoRaWAN/Mac/region/RegionIN865.c ****         }
 191              		.loc 1 242 0
 192 0078 D1E7     		b	.L2
 193              	.L23:
 312:../../../../../../Middlewares/Third_Party/LoRaWAN/Mac/region/RegionIN865.c ****             break;
 194              		.loc 1 312 0
 195 007a 244B     		ldr	r3, .L32+32
 196 007c 0093     		str	r3, [sp]
 313:../../../../../../Middlewares/Third_Party/LoRaWAN/Mac/region/RegionIN865.c ****         }
 197              		.loc 1 313 0
 198 007e CEE7     		b	.L2
ARM GAS  C:\Users\EBANO_~1\AppData\Local\Temp\ccEfOEMG.s 			page 11


 199              	.L15:
 261:../../../../../../Middlewares/Third_Party/LoRaWAN/Mac/region/RegionIN865.c ****             break;
 200              		.loc 1 261 0
 201 0080 FA21     		movs	r1, #250
 202 0082 2348     		ldr	r0, .L32+36
 203              	.LVL3:
 204 0084 8900     		lsls	r1, r1, #2
 205 0086 FFF7FEFF 		bl	randr
 206              	.LVL4:
 207 008a FA23     		movs	r3, #250
 208 008c DB00     		lsls	r3, r3, #3
 209 008e 9C46     		mov	ip, r3
 210 0090 6044     		add	r0, r0, ip
 211 0092 0090     		str	r0, [sp]
 262:../../../../../../Middlewares/Third_Party/LoRaWAN/Mac/region/RegionIN865.c ****         }
 212              		.loc 1 262 0
 213 0094 C3E7     		b	.L2
 214              	.LVL5:
 215              	.L14:
 256:../../../../../../Middlewares/Third_Party/LoRaWAN/Mac/region/RegionIN865.c ****             break;
 216              		.loc 1 256 0
 217 0096 8023     		movs	r3, #128
 218 0098 DB01     		lsls	r3, r3, #7
 219 009a 0093     		str	r3, [sp]
 257:../../../../../../Middlewares/Third_Party/LoRaWAN/Mac/region/RegionIN865.c ****         }
 220              		.loc 1 257 0
 221 009c BFE7     		b	.L2
 222              	.L13:
 251:../../../../../../Middlewares/Third_Party/LoRaWAN/Mac/region/RegionIN865.c ****             break;
 223              		.loc 1 251 0
 224 009e 1D4B     		ldr	r3, .L32+40
 225 00a0 0093     		str	r3, [sp]
 252:../../../../../../Middlewares/Third_Party/LoRaWAN/Mac/region/RegionIN865.c ****         }
 226              		.loc 1 252 0
 227 00a2 BCE7     		b	.L2
 228              	.L3:
 206:../../../../../../Middlewares/Third_Party/LoRaWAN/Mac/region/RegionIN865.c ****             break;
 229              		.loc 1 206 0
 230 00a4 4023     		movs	r3, #64
 231 00a6 0093     		str	r3, [sp]
 207:../../../../../../Middlewares/Third_Party/LoRaWAN/Mac/region/RegionIN865.c ****         }
 232              		.loc 1 207 0
 233 00a8 B9E7     		b	.L2
 234              	.L24:
 191:../../../../../../Middlewares/Third_Party/LoRaWAN/Mac/region/RegionIN865.c ****             break;
 235              		.loc 1 191 0
 236 00aa 0123     		movs	r3, #1
 237 00ac C356     		ldrsb	r3, [r0, r3]
 238              	.LVL6:
 239              	.LBB22:
 240              	.LBB23:
  73:../../../../../../Middlewares/Third_Party/LoRaWAN/Mac/region/RegionIN865.c ****     {
 241              		.loc 1 73 0
 242 00ae 0022     		movs	r2, #0
 243 00b0 002B     		cmp	r3, #0
 244 00b2 03D0     		beq	.L27
  77:../../../../../../Middlewares/Third_Party/LoRaWAN/Mac/region/RegionIN865.c ****     {
ARM GAS  C:\Users\EBANO_~1\AppData\Local\Temp\ccEfOEMG.s 			page 12


 245              		.loc 1 77 0
 246 00b4 072B     		cmp	r3, #7
 247 00b6 16D0     		beq	.L29
 248              	.LVL7:
  83:../../../../../../Middlewares/Third_Party/LoRaWAN/Mac/region/RegionIN865.c ****     }
 249              		.loc 1 83 0
 250 00b8 013B     		subs	r3, r3, #1
 251              	.LVL8:
 252 00ba 5AB2     		sxtb	r2, r3
 253              	.LVL9:
 254              	.L27:
 255              	.LBE23:
 256              	.LBE22:
 191:../../../../../../Middlewares/Third_Party/LoRaWAN/Mac/region/RegionIN865.c ****             break;
 257              		.loc 1 191 0
 258 00bc 0092     		str	r2, [sp]
 192:../../../../../../Middlewares/Third_Party/LoRaWAN/Mac/region/RegionIN865.c ****         }
 259              		.loc 1 192 0
 260 00be AEE7     		b	.L2
 261              	.L8:
 226:../../../../../../Middlewares/Third_Party/LoRaWAN/Mac/region/RegionIN865.c ****             break;
 262              		.loc 1 226 0
 263 00c0 0123     		movs	r3, #1
 264 00c2 0093     		str	r3, [sp]
 227:../../../../../../Middlewares/Third_Party/LoRaWAN/Mac/region/RegionIN865.c ****         }
 265              		.loc 1 227 0
 266 00c4 ABE7     		b	.L2
 267              	.L7:
 221:../../../../../../Middlewares/Third_Party/LoRaWAN/Mac/region/RegionIN865.c ****             break;
 268              		.loc 1 221 0
 269 00c6 0122     		movs	r2, #1
 270 00c8 134B     		ldr	r3, .L32+44
 271 00ca 8256     		ldrsb	r2, [r0, r2]
 272 00cc 9B18     		adds	r3, r3, r2
 273 00ce 1B7A     		ldrb	r3, [r3, #8]
 274 00d0 0093     		str	r3, [sp]
 222:../../../../../../Middlewares/Third_Party/LoRaWAN/Mac/region/RegionIN865.c ****         }
 275              		.loc 1 222 0
 276 00d2 A4E7     		b	.L2
 277              	.L6:
 216:../../../../../../Middlewares/Third_Party/LoRaWAN/Mac/region/RegionIN865.c ****             break;
 278              		.loc 1 216 0
 279 00d4 0123     		movs	r3, #1
 280 00d6 104A     		ldr	r2, .L32+44
 281 00d8 C356     		ldrsb	r3, [r0, r3]
 282 00da D35C     		ldrb	r3, [r2, r3]
 283 00dc 0093     		str	r3, [sp]
 217:../../../../../../Middlewares/Third_Party/LoRaWAN/Mac/region/RegionIN865.c ****         }
 284              		.loc 1 217 0
 285 00de 9EE7     		b	.L2
 286              	.L5:
 211:../../../../../../Middlewares/Third_Party/LoRaWAN/Mac/region/RegionIN865.c ****             break;
 287              		.loc 1 211 0
 288 00e0 2023     		movs	r3, #32
 289 00e2 0093     		str	r3, [sp]
 212:../../../../../../Middlewares/Third_Party/LoRaWAN/Mac/region/RegionIN865.c ****         }
 290              		.loc 1 212 0
ARM GAS  C:\Users\EBANO_~1\AppData\Local\Temp\ccEfOEMG.s 			page 13


 291 00e4 9BE7     		b	.L2
 292              	.LVL10:
 293              	.L29:
 294              	.LBB25:
 295              	.LBB24:
  77:../../../../../../Middlewares/Third_Party/LoRaWAN/Mac/region/RegionIN865.c ****     {
 296              		.loc 1 77 0
 297 00e6 0522     		movs	r2, #5
 298              	.LVL11:
 299              	.LBE24:
 300              	.LBE25:
 191:../../../../../../Middlewares/Third_Party/LoRaWAN/Mac/region/RegionIN865.c ****             break;
 301              		.loc 1 191 0
 302 00e8 0092     		str	r2, [sp]
 303 00ea 98E7     		b	.L2
 304              	.L33:
 305              		.align	2
 306              	.L32:
 307 00ec 00000000 		.word	.L4
 308 00f0 F080A633 		.word	866550000
 309 00f4 00000000 		.word	NvmCtx
 310 00f8 0000F041 		.word	1106247680
 311 00fc D2000000 		.word	NvmCtx+210
 312 0100 D0000000 		.word	NvmCtx+208
 313 0104 B80B0000 		.word	3000
 314 0108 88130000 		.word	5000
 315 010c 9A990940 		.word	1074370970
 316 0110 18FCFFFF 		.word	-1000
 317 0114 70170000 		.word	6000
 318 0118 08010000 		.word	.LANCHOR0
 319              		.cfi_endproc
 320              	.LFE44:
 321              		.size	RegionIN865GetPhyParam, .-RegionIN865GetPhyParam
 322              		.section	.text.RegionIN865SetBandTxDone,"ax",%progbits
 323              		.align	1
 324              		.p2align 2,,3
 325              		.global	RegionIN865SetBandTxDone
 326              		.syntax unified
 327              		.code	16
 328              		.thumb_func
 329              		.fpu softvfp
 330              		.type	RegionIN865SetBandTxDone, %function
 331              	RegionIN865SetBandTxDone:
 332              	.LFB45:
 345:../../../../../../Middlewares/Third_Party/LoRaWAN/Mac/region/RegionIN865.c **** 
 346:../../../../../../Middlewares/Third_Party/LoRaWAN/Mac/region/RegionIN865.c **** void RegionIN865SetBandTxDone( SetBandTxDoneParams_t* txDone )
 347:../../../../../../Middlewares/Third_Party/LoRaWAN/Mac/region/RegionIN865.c **** {
 333              		.loc 1 347 0
 334              		.cfi_startproc
 335              		@ args = 0, pretend = 0, frame = 0
 336              		@ frame_needed = 0, uses_anonymous_args = 0
 337              	.LVL12:
 348:../../../../../../Middlewares/Third_Party/LoRaWAN/Mac/region/RegionIN865.c ****     RegionCommonSetBandTxDone( txDone->Joined, &NvmCtx.Bands[NvmCtx.Channels[txDone->Channel].Band]
 338              		.loc 1 348 0
 339 0000 0178     		ldrb	r1, [r0]
 347:../../../../../../Middlewares/Third_Party/LoRaWAN/Mac/region/RegionIN865.c ****     RegionCommonSetBandTxDone( txDone->Joined, &NvmCtx.Bands[NvmCtx.Channels[txDone->Channel].Band]
 340              		.loc 1 347 0
ARM GAS  C:\Users\EBANO_~1\AppData\Local\Temp\ccEfOEMG.s 			page 14


 341 0002 10B5     		push	{r4, lr}
 342              	.LCFI2:
 343              		.cfi_def_cfa_offset 8
 344              		.cfi_offset 4, -8
 345              		.cfi_offset 14, -4
 346              		.loc 1 348 0
 347 0004 4B00     		lsls	r3, r1, #1
 348 0006 064C     		ldr	r4, .L35
 349 0008 5B18     		adds	r3, r3, r1
 350 000a 9B00     		lsls	r3, r3, #2
 351 000c E318     		adds	r3, r4, r3
 352 000e 597A     		ldrb	r1, [r3, #9]
 353 0010 4268     		ldr	r2, [r0, #4]
 354 0012 0C31     		adds	r1, r1, #12
 355 0014 0901     		lsls	r1, r1, #4
 356 0016 0919     		adds	r1, r1, r4
 357 0018 4078     		ldrb	r0, [r0, #1]
 358              	.LVL13:
 359 001a FFF7FEFF 		bl	RegionCommonSetBandTxDone
 360              	.LVL14:
 349:../../../../../../Middlewares/Third_Party/LoRaWAN/Mac/region/RegionIN865.c **** }
 361              		.loc 1 349 0
 362              		@ sp needed
 363 001e 10BD     		pop	{r4, pc}
 364              	.L36:
 365              		.align	2
 366              	.L35:
 367 0020 00000000 		.word	NvmCtx
 368              		.cfi_endproc
 369              	.LFE45:
 370              		.size	RegionIN865SetBandTxDone, .-RegionIN865SetBandTxDone
 371              		.section	.text.RegionIN865InitDefaults,"ax",%progbits
 372              		.align	1
 373              		.p2align 2,,3
 374              		.global	RegionIN865InitDefaults
 375              		.syntax unified
 376              		.code	16
 377              		.thumb_func
 378              		.fpu softvfp
 379              		.type	RegionIN865InitDefaults, %function
 380              	RegionIN865InitDefaults:
 381              	.LFB46:
 350:../../../../../../Middlewares/Third_Party/LoRaWAN/Mac/region/RegionIN865.c **** 
 351:../../../../../../Middlewares/Third_Party/LoRaWAN/Mac/region/RegionIN865.c **** void RegionIN865InitDefaults( InitDefaultsParams_t* params )
 352:../../../../../../Middlewares/Third_Party/LoRaWAN/Mac/region/RegionIN865.c **** {
 382              		.loc 1 352 0
 383              		.cfi_startproc
 384              		@ args = 0, pretend = 0, frame = 16
 385              		@ frame_needed = 0, uses_anonymous_args = 0
 386              	.LVL15:
 387 0000 F0B5     		push	{r4, r5, r6, r7, lr}
 388              	.LCFI3:
 389              		.cfi_def_cfa_offset 20
 390              		.cfi_offset 4, -20
 391              		.cfi_offset 5, -16
 392              		.cfi_offset 6, -12
 393              		.cfi_offset 7, -8
ARM GAS  C:\Users\EBANO_~1\AppData\Local\Temp\ccEfOEMG.s 			page 15


 394              		.cfi_offset 14, -4
 395 0002 85B0     		sub	sp, sp, #20
 396              	.LCFI4:
 397              		.cfi_def_cfa_offset 40
 353:../../../../../../Middlewares/Third_Party/LoRaWAN/Mac/region/RegionIN865.c ****     Band_t bands[IN865_MAX_NB_BANDS] =
 398              		.loc 1 353 0
 399 0004 0123     		movs	r3, #1
 400 0006 6A46     		mov	r2, sp
 401 0008 1380     		strh	r3, [r2]
 402 000a 0023     		movs	r3, #0
 403 000c 9370     		strb	r3, [r2, #2]
 404 000e 0193     		str	r3, [sp, #4]
 405 0010 0293     		str	r3, [sp, #8]
 406 0012 0393     		str	r3, [sp, #12]
 354:../../../../../../Middlewares/Third_Party/LoRaWAN/Mac/region/RegionIN865.c ****     {
 355:../../../../../../Middlewares/Third_Party/LoRaWAN/Mac/region/RegionIN865.c ****         IN865_BAND0
 356:../../../../../../Middlewares/Third_Party/LoRaWAN/Mac/region/RegionIN865.c ****     };
 357:../../../../../../Middlewares/Third_Party/LoRaWAN/Mac/region/RegionIN865.c **** 
 358:../../../../../../Middlewares/Third_Party/LoRaWAN/Mac/region/RegionIN865.c ****     switch( params->Type )
 407              		.loc 1 358 0
 408 0014 0379     		ldrb	r3, [r0, #4]
 409 0016 012B     		cmp	r3, #1
 410 0018 2ED0     		beq	.L39
 411 001a 002B     		cmp	r3, #0
 412 001c 0AD0     		beq	.L40
 413 001e 022B     		cmp	r3, #2
 414 0020 06D1     		bne	.L37
 359:../../../../../../Middlewares/Third_Party/LoRaWAN/Mac/region/RegionIN865.c ****     {
 360:../../../../../../Middlewares/Third_Party/LoRaWAN/Mac/region/RegionIN865.c ****         case INIT_TYPE_INIT:
 361:../../../../../../Middlewares/Third_Party/LoRaWAN/Mac/region/RegionIN865.c ****         {
 362:../../../../../../Middlewares/Third_Party/LoRaWAN/Mac/region/RegionIN865.c ****             // Initialize bands
 363:../../../../../../Middlewares/Third_Party/LoRaWAN/Mac/region/RegionIN865.c ****             memcpy1( ( uint8_t* )NvmCtx.Bands, ( uint8_t* )bands, sizeof( Band_t ) * IN865_MAX_NB_B
 364:../../../../../../Middlewares/Third_Party/LoRaWAN/Mac/region/RegionIN865.c **** 
 365:../../../../../../Middlewares/Third_Party/LoRaWAN/Mac/region/RegionIN865.c ****             // Channels
 366:../../../../../../Middlewares/Third_Party/LoRaWAN/Mac/region/RegionIN865.c ****             NvmCtx.Channels[0] = ( ChannelParams_t ) IN865_LC1;
 367:../../../../../../Middlewares/Third_Party/LoRaWAN/Mac/region/RegionIN865.c ****             NvmCtx.Channels[1] = ( ChannelParams_t ) IN865_LC2;
 368:../../../../../../Middlewares/Third_Party/LoRaWAN/Mac/region/RegionIN865.c ****             NvmCtx.Channels[2] = ( ChannelParams_t ) IN865_LC3;
 369:../../../../../../Middlewares/Third_Party/LoRaWAN/Mac/region/RegionIN865.c **** 
 370:../../../../../../Middlewares/Third_Party/LoRaWAN/Mac/region/RegionIN865.c ****             // Initialize the channels default mask
 371:../../../../../../Middlewares/Third_Party/LoRaWAN/Mac/region/RegionIN865.c ****             NvmCtx.ChannelsDefaultMask[0] = LC( 1 ) + LC( 2 ) + LC( 3 );
 372:../../../../../../Middlewares/Third_Party/LoRaWAN/Mac/region/RegionIN865.c ****             // Update the channels mask
 373:../../../../../../Middlewares/Third_Party/LoRaWAN/Mac/region/RegionIN865.c ****             RegionCommonChanMaskCopy( NvmCtx.ChannelsMask, NvmCtx.ChannelsDefaultMask, 1 );
 374:../../../../../../Middlewares/Third_Party/LoRaWAN/Mac/region/RegionIN865.c ****             break;
 375:../../../../../../Middlewares/Third_Party/LoRaWAN/Mac/region/RegionIN865.c ****         }
 376:../../../../../../Middlewares/Third_Party/LoRaWAN/Mac/region/RegionIN865.c ****         case INIT_TYPE_RESTORE_CTX:
 377:../../../../../../Middlewares/Third_Party/LoRaWAN/Mac/region/RegionIN865.c ****         {
 378:../../../../../../Middlewares/Third_Party/LoRaWAN/Mac/region/RegionIN865.c ****             if( params->NvmCtx != 0 )
 415              		.loc 1 378 0
 416 0022 0168     		ldr	r1, [r0]
 417 0024 0029     		cmp	r1, #0
 418 0026 03D0     		beq	.L37
 379:../../../../../../Middlewares/Third_Party/LoRaWAN/Mac/region/RegionIN865.c ****             {
 380:../../../../../../Middlewares/Third_Party/LoRaWAN/Mac/region/RegionIN865.c ****                 memcpy1( (uint8_t*) &NvmCtx, (uint8_t*) params->NvmCtx, sizeof( NvmCtx ) );
 419              		.loc 1 380 0
 420 0028 D422     		movs	r2, #212
 421 002a 1748     		ldr	r0, .L45
 422              	.LVL16:
ARM GAS  C:\Users\EBANO_~1\AppData\Local\Temp\ccEfOEMG.s 			page 16


 423 002c FFF7FEFF 		bl	memcpy1
 424              	.LVL17:
 425              	.L37:
 381:../../../../../../Middlewares/Third_Party/LoRaWAN/Mac/region/RegionIN865.c ****             }
 382:../../../../../../Middlewares/Third_Party/LoRaWAN/Mac/region/RegionIN865.c ****             break;
 383:../../../../../../Middlewares/Third_Party/LoRaWAN/Mac/region/RegionIN865.c ****         }
 384:../../../../../../Middlewares/Third_Party/LoRaWAN/Mac/region/RegionIN865.c ****         case INIT_TYPE_RESTORE_DEFAULT_CHANNELS:
 385:../../../../../../Middlewares/Third_Party/LoRaWAN/Mac/region/RegionIN865.c ****         {
 386:../../../../../../Middlewares/Third_Party/LoRaWAN/Mac/region/RegionIN865.c ****             // Restore channels default mask
 387:../../../../../../Middlewares/Third_Party/LoRaWAN/Mac/region/RegionIN865.c ****             NvmCtx.ChannelsMask[0] |= NvmCtx.ChannelsDefaultMask[0];
 388:../../../../../../Middlewares/Third_Party/LoRaWAN/Mac/region/RegionIN865.c ****             break;
 389:../../../../../../Middlewares/Third_Party/LoRaWAN/Mac/region/RegionIN865.c ****         }
 390:../../../../../../Middlewares/Third_Party/LoRaWAN/Mac/region/RegionIN865.c ****         default:
 391:../../../../../../Middlewares/Third_Party/LoRaWAN/Mac/region/RegionIN865.c ****         {
 392:../../../../../../Middlewares/Third_Party/LoRaWAN/Mac/region/RegionIN865.c ****             break;
 393:../../../../../../Middlewares/Third_Party/LoRaWAN/Mac/region/RegionIN865.c ****         }
 394:../../../../../../Middlewares/Third_Party/LoRaWAN/Mac/region/RegionIN865.c ****     }
 395:../../../../../../Middlewares/Third_Party/LoRaWAN/Mac/region/RegionIN865.c **** }
 426              		.loc 1 395 0
 427 0030 05B0     		add	sp, sp, #20
 428              		@ sp needed
 429 0032 F0BD     		pop	{r4, r5, r6, r7, pc}
 430              	.LVL18:
 431              	.L40:
 363:../../../../../../Middlewares/Third_Party/LoRaWAN/Mac/region/RegionIN865.c **** 
 432              		.loc 1 363 0
 433 0034 154C     		ldr	r4, .L45+4
 434 0036 6946     		mov	r1, sp
 435 0038 2000     		movs	r0, r4
 436              	.LVL19:
 437 003a 1022     		movs	r2, #16
 438 003c FFF7FEFF 		bl	memcpy1
 439              	.LVL20:
 366:../../../../../../Middlewares/Third_Party/LoRaWAN/Mac/region/RegionIN865.c ****             NvmCtx.Channels[1] = ( ChannelParams_t ) IN865_LC2;
 440              		.loc 1 366 0
 441 0040 2200     		movs	r2, r4
 442 0042 134B     		ldr	r3, .L45+8
 443 0044 C03A     		subs	r2, r2, #192
 444 0046 1900     		movs	r1, r3
 445 0048 1000     		movs	r0, r2
 446 004a 1031     		adds	r1, r1, #16
 447 004c E0C9     		ldmia	r1!, {r5, r6, r7}
 448 004e E0C0     		stmia	r0!, {r5, r6, r7}
 367:../../../../../../Middlewares/Third_Party/LoRaWAN/Mac/region/RegionIN865.c ****             NvmCtx.Channels[2] = ( ChannelParams_t ) IN865_LC3;
 449              		.loc 1 367 0
 450 0050 1900     		movs	r1, r3
 451 0052 1C31     		adds	r1, r1, #28
 452 0054 E0C9     		ldmia	r1!, {r5, r6, r7}
 453 0056 E0C0     		stmia	r0!, {r5, r6, r7}
 368:../../../../../../Middlewares/Third_Party/LoRaWAN/Mac/region/RegionIN865.c **** 
 454              		.loc 1 368 0
 455 0058 2100     		movs	r1, r4
 456 005a 2833     		adds	r3, r3, #40
 457 005c A839     		subs	r1, r1, #168
 458 005e 61CB     		ldmia	r3!, {r0, r5, r6}
 459 0060 61C1     		stmia	r1!, {r0, r5, r6}
 371:../../../../../../Middlewares/Third_Party/LoRaWAN/Mac/region/RegionIN865.c ****             // Update the channels mask
ARM GAS  C:\Users\EBANO_~1\AppData\Local\Temp\ccEfOEMG.s 			page 17


 460              		.loc 1 371 0
 461 0062 D223     		movs	r3, #210
 462 0064 0721     		movs	r1, #7
 373:../../../../../../Middlewares/Third_Party/LoRaWAN/Mac/region/RegionIN865.c ****             break;
 463              		.loc 1 373 0
 464 0066 2000     		movs	r0, r4
 371:../../../../../../Middlewares/Third_Party/LoRaWAN/Mac/region/RegionIN865.c ****             // Update the channels mask
 465              		.loc 1 371 0
 466 0068 D152     		strh	r1, [r2, r3]
 373:../../../../../../Middlewares/Third_Party/LoRaWAN/Mac/region/RegionIN865.c ****             break;
 467              		.loc 1 373 0
 468 006a 2100     		movs	r1, r4
 469 006c 1030     		adds	r0, r0, #16
 470 006e 1231     		adds	r1, r1, #18
 471 0070 0122     		movs	r2, #1
 472 0072 FFF7FEFF 		bl	RegionCommonChanMaskCopy
 473              	.LVL21:
 374:../../../../../../Middlewares/Third_Party/LoRaWAN/Mac/region/RegionIN865.c ****         }
 474              		.loc 1 374 0
 475 0076 DBE7     		b	.L37
 476              	.LVL22:
 477              	.L39:
 387:../../../../../../Middlewares/Third_Party/LoRaWAN/Mac/region/RegionIN865.c ****             break;
 478              		.loc 1 387 0
 479 0078 D021     		movs	r1, #208
 480 007a D220     		movs	r0, #210
 481              	.LVL23:
 482 007c 024B     		ldr	r3, .L45
 483 007e 5A5A     		ldrh	r2, [r3, r1]
 484 0080 185A     		ldrh	r0, [r3, r0]
 485 0082 0243     		orrs	r2, r0
 486 0084 5A52     		strh	r2, [r3, r1]
 487              		.loc 1 395 0
 488 0086 D3E7     		b	.L37
 489              	.L46:
 490              		.align	2
 491              	.L45:
 492 0088 00000000 		.word	NvmCtx
 493 008c C0000000 		.word	NvmCtx+192
 494 0090 08010000 		.word	.LANCHOR0
 495              		.cfi_endproc
 496              	.LFE46:
 497              		.size	RegionIN865InitDefaults, .-RegionIN865InitDefaults
 498              		.section	.text.RegionIN865GetNvmCtx,"ax",%progbits
 499              		.align	1
 500              		.p2align 2,,3
 501              		.global	RegionIN865GetNvmCtx
 502              		.syntax unified
 503              		.code	16
 504              		.thumb_func
 505              		.fpu softvfp
 506              		.type	RegionIN865GetNvmCtx, %function
 507              	RegionIN865GetNvmCtx:
 508              	.LFB47:
 396:../../../../../../Middlewares/Third_Party/LoRaWAN/Mac/region/RegionIN865.c **** 
 397:../../../../../../Middlewares/Third_Party/LoRaWAN/Mac/region/RegionIN865.c **** void* RegionIN865GetNvmCtx( GetNvmCtxParams_t* params )
 398:../../../../../../Middlewares/Third_Party/LoRaWAN/Mac/region/RegionIN865.c **** {
ARM GAS  C:\Users\EBANO_~1\AppData\Local\Temp\ccEfOEMG.s 			page 18


 509              		.loc 1 398 0
 510              		.cfi_startproc
 511              		@ args = 0, pretend = 0, frame = 0
 512              		@ frame_needed = 0, uses_anonymous_args = 0
 513              		@ link register save eliminated.
 514              	.LVL24:
 399:../../../../../../Middlewares/Third_Party/LoRaWAN/Mac/region/RegionIN865.c ****     params->nvmCtxSize = sizeof( RegionIN865NvmCtx_t );
 515              		.loc 1 399 0
 516 0000 D423     		movs	r3, #212
 400:../../../../../../Middlewares/Third_Party/LoRaWAN/Mac/region/RegionIN865.c ****     return &NvmCtx;
 401:../../../../../../Middlewares/Third_Party/LoRaWAN/Mac/region/RegionIN865.c **** }
 517              		.loc 1 401 0
 518              		@ sp needed
 399:../../../../../../Middlewares/Third_Party/LoRaWAN/Mac/region/RegionIN865.c ****     params->nvmCtxSize = sizeof( RegionIN865NvmCtx_t );
 519              		.loc 1 399 0
 520 0002 0360     		str	r3, [r0]
 521              		.loc 1 401 0
 522 0004 0048     		ldr	r0, .L48
 523              	.LVL25:
 524 0006 7047     		bx	lr
 525              	.L49:
 526              		.align	2
 527              	.L48:
 528 0008 00000000 		.word	NvmCtx
 529              		.cfi_endproc
 530              	.LFE47:
 531              		.size	RegionIN865GetNvmCtx, .-RegionIN865GetNvmCtx
 532              		.section	.text.RegionIN865Verify,"ax",%progbits
 533              		.align	1
 534              		.p2align 2,,3
 535              		.global	RegionIN865Verify
 536              		.syntax unified
 537              		.code	16
 538              		.thumb_func
 539              		.fpu softvfp
 540              		.type	RegionIN865Verify, %function
 541              	RegionIN865Verify:
 542              	.LFB48:
 402:../../../../../../Middlewares/Third_Party/LoRaWAN/Mac/region/RegionIN865.c **** 
 403:../../../../../../Middlewares/Third_Party/LoRaWAN/Mac/region/RegionIN865.c **** bool RegionIN865Verify( VerifyParams_t* verify, PhyAttribute_t phyAttribute )
 404:../../../../../../Middlewares/Third_Party/LoRaWAN/Mac/region/RegionIN865.c **** {
 543              		.loc 1 404 0
 544              		.cfi_startproc
 545              		@ args = 0, pretend = 0, frame = 0
 546              		@ frame_needed = 0, uses_anonymous_args = 0
 547              	.LVL26:
 405:../../../../../../Middlewares/Third_Party/LoRaWAN/Mac/region/RegionIN865.c ****     switch( phyAttribute )
 548              		.loc 1 405 0
 549 0000 0439     		subs	r1, r1, #4
 550              	.LVL27:
 551 0002 C9B2     		uxtb	r1, r1
 404:../../../../../../Middlewares/Third_Party/LoRaWAN/Mac/region/RegionIN865.c ****     switch( phyAttribute )
 552              		.loc 1 404 0
 553 0004 10B5     		push	{r4, lr}
 554              	.LCFI5:
 555              		.cfi_def_cfa_offset 8
 556              		.cfi_offset 4, -8
ARM GAS  C:\Users\EBANO_~1\AppData\Local\Temp\ccEfOEMG.s 			page 19


 557              		.cfi_offset 14, -4
 558              		.loc 1 405 0
 559 0006 0A29     		cmp	r1, #10
 560 0008 28D8     		bhi	.L51
 561 000a 154B     		ldr	r3, .L65
 562 000c 8900     		lsls	r1, r1, #2
 563 000e 5B58     		ldr	r3, [r3, r1]
 564 0010 9F46     		mov	pc, r3
 565              		.section	.rodata
 566              		.align	2
 567              	.L53:
 568 00ac 12000000 		.word	.L55
 569 00b0 36000000 		.word	.L54
 570 00b4 12000000 		.word	.L55
 571 00b8 5C000000 		.word	.L51
 572 00bc 22000000 		.word	.L56
 573 00c0 22000000 		.word	.L56
 574 00c4 5C000000 		.word	.L51
 575 00c8 5C000000 		.word	.L51
 576 00cc 5C000000 		.word	.L51
 577 00d0 5C000000 		.word	.L51
 578 00d4 1E000000 		.word	.L58
 579              		.section	.text.RegionIN865Verify
 580              	.L55:
 406:../../../../../../Middlewares/Third_Party/LoRaWAN/Mac/region/RegionIN865.c ****     {
 407:../../../../../../Middlewares/Third_Party/LoRaWAN/Mac/region/RegionIN865.c ****         case PHY_TX_DR:
 408:../../../../../../Middlewares/Third_Party/LoRaWAN/Mac/region/RegionIN865.c ****         {
 409:../../../../../../Middlewares/Third_Party/LoRaWAN/Mac/region/RegionIN865.c ****             if( verify->DatarateParams.Datarate == DR_6 )
 410:../../../../../../Middlewares/Third_Party/LoRaWAN/Mac/region/RegionIN865.c ****             {// DR_6 is not supported by this region
 411:../../../../../../Middlewares/Third_Party/LoRaWAN/Mac/region/RegionIN865.c ****                 return false;
 412:../../../../../../Middlewares/Third_Party/LoRaWAN/Mac/region/RegionIN865.c ****             }
 413:../../../../../../Middlewares/Third_Party/LoRaWAN/Mac/region/RegionIN865.c ****             else
 414:../../../../../../Middlewares/Third_Party/LoRaWAN/Mac/region/RegionIN865.c ****             {
 415:../../../../../../Middlewares/Third_Party/LoRaWAN/Mac/region/RegionIN865.c ****                 return RegionCommonValueInRange( verify->DatarateParams.Datarate, IN865_TX_MIN_DATA
 416:../../../../../../Middlewares/Third_Party/LoRaWAN/Mac/region/RegionIN865.c ****             }
 417:../../../../../../Middlewares/Third_Party/LoRaWAN/Mac/region/RegionIN865.c ****         }
 418:../../../../../../Middlewares/Third_Party/LoRaWAN/Mac/region/RegionIN865.c ****         case PHY_DEF_TX_DR:
 419:../../../../../../Middlewares/Third_Party/LoRaWAN/Mac/region/RegionIN865.c ****         {
 420:../../../../../../Middlewares/Third_Party/LoRaWAN/Mac/region/RegionIN865.c ****             return RegionCommonValueInRange( verify->DatarateParams.Datarate, DR_0, DR_5 );
 421:../../../../../../Middlewares/Third_Party/LoRaWAN/Mac/region/RegionIN865.c ****         }
 422:../../../../../../Middlewares/Third_Party/LoRaWAN/Mac/region/RegionIN865.c ****         case PHY_RX_DR:
 423:../../../../../../Middlewares/Third_Party/LoRaWAN/Mac/region/RegionIN865.c ****         {
 424:../../../../../../Middlewares/Third_Party/LoRaWAN/Mac/region/RegionIN865.c ****             if( verify->DatarateParams.Datarate == DR_6 )
 581              		.loc 1 424 0
 582 0012 0023     		movs	r3, #0
 583 0014 C356     		ldrsb	r3, [r0, r3]
 411:../../../../../../Middlewares/Third_Party/LoRaWAN/Mac/region/RegionIN865.c ****             }
 584              		.loc 1 411 0
 585 0016 0020     		movs	r0, #0
 586              	.LVL28:
 587              		.loc 1 424 0
 588 0018 062B     		cmp	r3, #6
 589 001a 16D1     		bne	.L64
 590              	.L57:
 425:../../../../../../Middlewares/Third_Party/LoRaWAN/Mac/region/RegionIN865.c ****             {// DR_6 is not supported by this region
 426:../../../../../../Middlewares/Third_Party/LoRaWAN/Mac/region/RegionIN865.c ****                 return false;
 427:../../../../../../Middlewares/Third_Party/LoRaWAN/Mac/region/RegionIN865.c ****             }
ARM GAS  C:\Users\EBANO_~1\AppData\Local\Temp\ccEfOEMG.s 			page 20


 428:../../../../../../Middlewares/Third_Party/LoRaWAN/Mac/region/RegionIN865.c ****             else
 429:../../../../../../Middlewares/Third_Party/LoRaWAN/Mac/region/RegionIN865.c ****             {
 430:../../../../../../Middlewares/Third_Party/LoRaWAN/Mac/region/RegionIN865.c ****                 return RegionCommonValueInRange( verify->DatarateParams.Datarate, IN865_RX_MIN_DATA
 431:../../../../../../Middlewares/Third_Party/LoRaWAN/Mac/region/RegionIN865.c ****             }
 432:../../../../../../Middlewares/Third_Party/LoRaWAN/Mac/region/RegionIN865.c ****         }
 433:../../../../../../Middlewares/Third_Party/LoRaWAN/Mac/region/RegionIN865.c ****         case PHY_DEF_TX_POWER:
 434:../../../../../../Middlewares/Third_Party/LoRaWAN/Mac/region/RegionIN865.c ****         case PHY_TX_POWER:
 435:../../../../../../Middlewares/Third_Party/LoRaWAN/Mac/region/RegionIN865.c ****         {
 436:../../../../../../Middlewares/Third_Party/LoRaWAN/Mac/region/RegionIN865.c ****             // Remark: switched min and max!
 437:../../../../../../Middlewares/Third_Party/LoRaWAN/Mac/region/RegionIN865.c ****             return RegionCommonValueInRange( verify->TxPower, IN865_MAX_TX_POWER, IN865_MIN_TX_POWE
 438:../../../../../../Middlewares/Third_Party/LoRaWAN/Mac/region/RegionIN865.c ****         }
 439:../../../../../../Middlewares/Third_Party/LoRaWAN/Mac/region/RegionIN865.c ****         case PHY_DUTY_CYCLE:
 440:../../../../../../Middlewares/Third_Party/LoRaWAN/Mac/region/RegionIN865.c ****         {
 441:../../../../../../Middlewares/Third_Party/LoRaWAN/Mac/region/RegionIN865.c ****             return IN865_DUTY_CYCLE_ENABLED;
 442:../../../../../../Middlewares/Third_Party/LoRaWAN/Mac/region/RegionIN865.c ****         }
 443:../../../../../../Middlewares/Third_Party/LoRaWAN/Mac/region/RegionIN865.c ****         default:
 444:../../../../../../Middlewares/Third_Party/LoRaWAN/Mac/region/RegionIN865.c ****             return false;
 445:../../../../../../Middlewares/Third_Party/LoRaWAN/Mac/region/RegionIN865.c ****     }
 446:../../../../../../Middlewares/Third_Party/LoRaWAN/Mac/region/RegionIN865.c **** }
 591              		.loc 1 446 0
 592              		@ sp needed
 593 001c 10BD     		pop	{r4, pc}
 594              	.LVL29:
 595              	.L58:
 441:../../../../../../Middlewares/Third_Party/LoRaWAN/Mac/region/RegionIN865.c ****         }
 596              		.loc 1 441 0
 597 001e 0120     		movs	r0, #1
 598              	.LVL30:
 599 0020 FCE7     		b	.L57
 600              	.LVL31:
 601              	.L56:
 437:../../../../../../Middlewares/Third_Party/LoRaWAN/Mac/region/RegionIN865.c ****         }
 602              		.loc 1 437 0
 603 0022 0078     		ldrb	r0, [r0]
 604              	.LVL32:
 605 0024 0A22     		movs	r2, #10
 606 0026 40B2     		sxtb	r0, r0
 607 0028 0021     		movs	r1, #0
 608 002a FFF7FEFF 		bl	RegionCommonValueInRange
 609              	.LVL33:
 610 002e 431E     		subs	r3, r0, #1
 611 0030 9841     		sbcs	r0, r0, r3
 612 0032 C0B2     		uxtb	r0, r0
 613 0034 F2E7     		b	.L57
 614              	.LVL34:
 615              	.L54:
 420:../../../../../../Middlewares/Third_Party/LoRaWAN/Mac/region/RegionIN865.c ****         }
 616              		.loc 1 420 0
 617 0036 0078     		ldrb	r0, [r0]
 618              	.LVL35:
 619 0038 0522     		movs	r2, #5
 620 003a 40B2     		sxtb	r0, r0
 621 003c 0021     		movs	r1, #0
 622 003e FFF7FEFF 		bl	RegionCommonValueInRange
 623              	.LVL36:
 624 0042 431E     		subs	r3, r0, #1
 625 0044 9841     		sbcs	r0, r0, r3
ARM GAS  C:\Users\EBANO_~1\AppData\Local\Temp\ccEfOEMG.s 			page 21


 626 0046 C0B2     		uxtb	r0, r0
 627 0048 E8E7     		b	.L57
 628              	.L64:
 430:../../../../../../Middlewares/Third_Party/LoRaWAN/Mac/region/RegionIN865.c ****             }
 629              		.loc 1 430 0
 630 004a 1800     		movs	r0, r3
 631 004c 0722     		movs	r2, #7
 632 004e 0021     		movs	r1, #0
 633 0050 FFF7FEFF 		bl	RegionCommonValueInRange
 634              	.LVL37:
 635 0054 431E     		subs	r3, r0, #1
 636 0056 9841     		sbcs	r0, r0, r3
 637 0058 C0B2     		uxtb	r0, r0
 638 005a DFE7     		b	.L57
 639              	.LVL38:
 640              	.L51:
 444:../../../../../../Middlewares/Third_Party/LoRaWAN/Mac/region/RegionIN865.c ****     }
 641              		.loc 1 444 0
 642 005c 0020     		movs	r0, #0
 643              	.LVL39:
 644 005e DDE7     		b	.L57
 645              	.L66:
 646              		.align	2
 647              	.L65:
 648 0060 AC000000 		.word	.L53
 649              		.cfi_endproc
 650              	.LFE48:
 651              		.size	RegionIN865Verify, .-RegionIN865Verify
 652              		.section	.text.RegionIN865ApplyCFList,"ax",%progbits
 653              		.align	1
 654              		.p2align 2,,3
 655              		.global	RegionIN865ApplyCFList
 656              		.syntax unified
 657              		.code	16
 658              		.thumb_func
 659              		.fpu softvfp
 660              		.type	RegionIN865ApplyCFList, %function
 661              	RegionIN865ApplyCFList:
 662              	.LFB49:
 447:../../../../../../Middlewares/Third_Party/LoRaWAN/Mac/region/RegionIN865.c **** 
 448:../../../../../../Middlewares/Third_Party/LoRaWAN/Mac/region/RegionIN865.c **** void RegionIN865ApplyCFList( ApplyCFListParams_t* applyCFList )
 449:../../../../../../Middlewares/Third_Party/LoRaWAN/Mac/region/RegionIN865.c **** {
 663              		.loc 1 449 0
 664              		.cfi_startproc
 665              		@ args = 0, pretend = 0, frame = 24
 666              		@ frame_needed = 0, uses_anonymous_args = 0
 667              	.LVL40:
 668 0000 F0B5     		push	{r4, r5, r6, r7, lr}
 669              	.LCFI6:
 670              		.cfi_def_cfa_offset 20
 671              		.cfi_offset 4, -20
 672              		.cfi_offset 5, -16
 673              		.cfi_offset 6, -12
 674              		.cfi_offset 7, -8
 675              		.cfi_offset 14, -4
 676 0002 5746     		mov	r7, r10
 677 0004 DE46     		mov	lr, fp
ARM GAS  C:\Users\EBANO_~1\AppData\Local\Temp\ccEfOEMG.s 			page 22


 678 0006 4E46     		mov	r6, r9
 679 0008 4546     		mov	r5, r8
 450:../../../../../../Middlewares/Third_Party/LoRaWAN/Mac/region/RegionIN865.c ****     ChannelParams_t newChannel;
 451:../../../../../../Middlewares/Third_Party/LoRaWAN/Mac/region/RegionIN865.c ****     ChannelAddParams_t channelAdd;
 452:../../../../../../Middlewares/Third_Party/LoRaWAN/Mac/region/RegionIN865.c ****     ChannelRemoveParams_t channelRemove;
 453:../../../../../../Middlewares/Third_Party/LoRaWAN/Mac/region/RegionIN865.c **** 
 454:../../../../../../Middlewares/Third_Party/LoRaWAN/Mac/region/RegionIN865.c ****     // Setup default datarate range
 455:../../../../../../Middlewares/Third_Party/LoRaWAN/Mac/region/RegionIN865.c ****     newChannel.DrRange.Value = ( DR_5 << 4 ) | DR_0;
 680              		.loc 1 455 0
 681 000a 5023     		movs	r3, #80
 449:../../../../../../Middlewares/Third_Party/LoRaWAN/Mac/region/RegionIN865.c ****     ChannelParams_t newChannel;
 682              		.loc 1 449 0
 683 000c E0B5     		push	{r5, r6, r7, lr}
 684              	.LCFI7:
 685              		.cfi_def_cfa_offset 36
 686              		.cfi_offset 8, -36
 687              		.cfi_offset 9, -32
 688              		.cfi_offset 10, -28
 689              		.cfi_offset 11, -24
 690 000e 87B0     		sub	sp, sp, #28
 691              	.LCFI8:
 692              		.cfi_def_cfa_offset 64
 693              		.loc 1 455 0
 694 0010 03AC     		add	r4, sp, #12
 695 0012 2372     		strb	r3, [r4, #8]
 456:../../../../../../Middlewares/Third_Party/LoRaWAN/Mac/region/RegionIN865.c **** 
 457:../../../../../../Middlewares/Third_Party/LoRaWAN/Mac/region/RegionIN865.c ****     // Size of the optional CF list
 458:../../../../../../Middlewares/Third_Party/LoRaWAN/Mac/region/RegionIN865.c ****     if( applyCFList->Size != 16 )
 696              		.loc 1 458 0
 697 0014 0379     		ldrb	r3, [r0, #4]
 449:../../../../../../Middlewares/Third_Party/LoRaWAN/Mac/region/RegionIN865.c ****     ChannelParams_t newChannel;
 698              		.loc 1 449 0
 699 0016 0700     		movs	r7, r0
 700              		.loc 1 458 0
 701 0018 102B     		cmp	r3, #16
 702 001a 06D0     		beq	.L84
 703              	.LVL41:
 704              	.L67:
 459:../../../../../../Middlewares/Third_Party/LoRaWAN/Mac/region/RegionIN865.c ****     {
 460:../../../../../../Middlewares/Third_Party/LoRaWAN/Mac/region/RegionIN865.c ****         return;
 461:../../../../../../Middlewares/Third_Party/LoRaWAN/Mac/region/RegionIN865.c ****     }
 462:../../../../../../Middlewares/Third_Party/LoRaWAN/Mac/region/RegionIN865.c **** 
 463:../../../../../../Middlewares/Third_Party/LoRaWAN/Mac/region/RegionIN865.c ****     // Last byte CFListType must be 0 to indicate the CFList contains a list of frequencies
 464:../../../../../../Middlewares/Third_Party/LoRaWAN/Mac/region/RegionIN865.c ****     if( applyCFList->Payload[15] != 0 )
 465:../../../../../../Middlewares/Third_Party/LoRaWAN/Mac/region/RegionIN865.c ****     {
 466:../../../../../../Middlewares/Third_Party/LoRaWAN/Mac/region/RegionIN865.c ****         return;
 467:../../../../../../Middlewares/Third_Party/LoRaWAN/Mac/region/RegionIN865.c ****     }
 468:../../../../../../Middlewares/Third_Party/LoRaWAN/Mac/region/RegionIN865.c **** 
 469:../../../../../../Middlewares/Third_Party/LoRaWAN/Mac/region/RegionIN865.c ****     // Last byte is RFU, don't take it into account
 470:../../../../../../Middlewares/Third_Party/LoRaWAN/Mac/region/RegionIN865.c ****     for( uint8_t i = 0, chanIdx = IN865_NUMB_DEFAULT_CHANNELS; chanIdx < IN865_MAX_NB_CHANNELS; i+=
 471:../../../../../../Middlewares/Third_Party/LoRaWAN/Mac/region/RegionIN865.c ****     {
 472:../../../../../../Middlewares/Third_Party/LoRaWAN/Mac/region/RegionIN865.c ****         if( chanIdx < ( IN865_NUMB_CHANNELS_CF_LIST + IN865_NUMB_DEFAULT_CHANNELS ) )
 473:../../../../../../Middlewares/Third_Party/LoRaWAN/Mac/region/RegionIN865.c ****         {
 474:../../../../../../Middlewares/Third_Party/LoRaWAN/Mac/region/RegionIN865.c ****             // Channel frequency
 475:../../../../../../Middlewares/Third_Party/LoRaWAN/Mac/region/RegionIN865.c ****             newChannel.Frequency = (uint32_t) applyCFList->Payload[i];
 476:../../../../../../Middlewares/Third_Party/LoRaWAN/Mac/region/RegionIN865.c ****             newChannel.Frequency |= ( (uint32_t) applyCFList->Payload[i + 1] << 8 );
 477:../../../../../../Middlewares/Third_Party/LoRaWAN/Mac/region/RegionIN865.c ****             newChannel.Frequency |= ( (uint32_t) applyCFList->Payload[i + 2] << 16 );
ARM GAS  C:\Users\EBANO_~1\AppData\Local\Temp\ccEfOEMG.s 			page 23


 478:../../../../../../Middlewares/Third_Party/LoRaWAN/Mac/region/RegionIN865.c ****             newChannel.Frequency *= 100;
 479:../../../../../../Middlewares/Third_Party/LoRaWAN/Mac/region/RegionIN865.c **** 
 480:../../../../../../Middlewares/Third_Party/LoRaWAN/Mac/region/RegionIN865.c ****             // Initialize alternative frequency to 0
 481:../../../../../../Middlewares/Third_Party/LoRaWAN/Mac/region/RegionIN865.c ****             newChannel.Rx1Frequency = 0;
 482:../../../../../../Middlewares/Third_Party/LoRaWAN/Mac/region/RegionIN865.c ****         }
 483:../../../../../../Middlewares/Third_Party/LoRaWAN/Mac/region/RegionIN865.c ****         else
 484:../../../../../../Middlewares/Third_Party/LoRaWAN/Mac/region/RegionIN865.c ****         {
 485:../../../../../../Middlewares/Third_Party/LoRaWAN/Mac/region/RegionIN865.c ****             newChannel.Frequency = 0;
 486:../../../../../../Middlewares/Third_Party/LoRaWAN/Mac/region/RegionIN865.c ****             newChannel.DrRange.Value = 0;
 487:../../../../../../Middlewares/Third_Party/LoRaWAN/Mac/region/RegionIN865.c ****             newChannel.Rx1Frequency = 0;
 488:../../../../../../Middlewares/Third_Party/LoRaWAN/Mac/region/RegionIN865.c ****         }
 489:../../../../../../Middlewares/Third_Party/LoRaWAN/Mac/region/RegionIN865.c **** 
 490:../../../../../../Middlewares/Third_Party/LoRaWAN/Mac/region/RegionIN865.c ****         if( newChannel.Frequency != 0 )
 491:../../../../../../Middlewares/Third_Party/LoRaWAN/Mac/region/RegionIN865.c ****         {
 492:../../../../../../Middlewares/Third_Party/LoRaWAN/Mac/region/RegionIN865.c ****             channelAdd.NewChannel = &newChannel;
 493:../../../../../../Middlewares/Third_Party/LoRaWAN/Mac/region/RegionIN865.c ****             channelAdd.ChannelId = chanIdx;
 494:../../../../../../Middlewares/Third_Party/LoRaWAN/Mac/region/RegionIN865.c **** 
 495:../../../../../../Middlewares/Third_Party/LoRaWAN/Mac/region/RegionIN865.c ****             // Try to add all channels
 496:../../../../../../Middlewares/Third_Party/LoRaWAN/Mac/region/RegionIN865.c ****             RegionIN865ChannelAdd( &channelAdd );
 497:../../../../../../Middlewares/Third_Party/LoRaWAN/Mac/region/RegionIN865.c ****         }
 498:../../../../../../Middlewares/Third_Party/LoRaWAN/Mac/region/RegionIN865.c ****         else
 499:../../../../../../Middlewares/Third_Party/LoRaWAN/Mac/region/RegionIN865.c ****         {
 500:../../../../../../Middlewares/Third_Party/LoRaWAN/Mac/region/RegionIN865.c ****             channelRemove.ChannelId = chanIdx;
 501:../../../../../../Middlewares/Third_Party/LoRaWAN/Mac/region/RegionIN865.c **** 
 502:../../../../../../Middlewares/Third_Party/LoRaWAN/Mac/region/RegionIN865.c ****             RegionIN865ChannelsRemove( &channelRemove );
 503:../../../../../../Middlewares/Third_Party/LoRaWAN/Mac/region/RegionIN865.c ****         }
 504:../../../../../../Middlewares/Third_Party/LoRaWAN/Mac/region/RegionIN865.c ****     }
 505:../../../../../../Middlewares/Third_Party/LoRaWAN/Mac/region/RegionIN865.c **** }
 705              		.loc 1 505 0
 706 001c 07B0     		add	sp, sp, #28
 707              		@ sp needed
 708              	.LVL42:
 709 001e 3CBC     		pop	{r2, r3, r4, r5}
 710 0020 9046     		mov	r8, r2
 711 0022 9946     		mov	r9, r3
 712 0024 A246     		mov	r10, r4
 713 0026 AB46     		mov	fp, r5
 714 0028 F0BD     		pop	{r4, r5, r6, r7, pc}
 715              	.LVL43:
 716              	.L84:
 464:../../../../../../Middlewares/Third_Party/LoRaWAN/Mac/region/RegionIN865.c ****     {
 717              		.loc 1 464 0
 718 002a 0368     		ldr	r3, [r0]
 719 002c DB7B     		ldrb	r3, [r3, #15]
 720 002e 002B     		cmp	r3, #0
 721 0030 F4D1     		bne	.L67
 722              	.LBB33:
 723              	.LBB34:
 724              	.LBB35:
 506:../../../../../../Middlewares/Third_Party/LoRaWAN/Mac/region/RegionIN865.c **** 
 507:../../../../../../Middlewares/Third_Party/LoRaWAN/Mac/region/RegionIN865.c **** bool RegionIN865ChanMaskSet( ChanMaskSetParams_t* chanMaskSet )
 508:../../../../../../Middlewares/Third_Party/LoRaWAN/Mac/region/RegionIN865.c **** {
 509:../../../../../../Middlewares/Third_Party/LoRaWAN/Mac/region/RegionIN865.c ****     switch( chanMaskSet->ChannelsMaskType )
 510:../../../../../../Middlewares/Third_Party/LoRaWAN/Mac/region/RegionIN865.c ****     {
 511:../../../../../../Middlewares/Third_Party/LoRaWAN/Mac/region/RegionIN865.c ****         case CHANNELS_MASK:
 512:../../../../../../Middlewares/Third_Party/LoRaWAN/Mac/region/RegionIN865.c ****         {
 513:../../../../../../Middlewares/Third_Party/LoRaWAN/Mac/region/RegionIN865.c ****             RegionCommonChanMaskCopy( NvmCtx.ChannelsMask, chanMaskSet->ChannelsMaskIn, 1 );
ARM GAS  C:\Users\EBANO_~1\AppData\Local\Temp\ccEfOEMG.s 			page 24


 514:../../../../../../Middlewares/Third_Party/LoRaWAN/Mac/region/RegionIN865.c ****             break;
 515:../../../../../../Middlewares/Third_Party/LoRaWAN/Mac/region/RegionIN865.c ****         }
 516:../../../../../../Middlewares/Third_Party/LoRaWAN/Mac/region/RegionIN865.c ****         case CHANNELS_DEFAULT_MASK:
 517:../../../../../../Middlewares/Third_Party/LoRaWAN/Mac/region/RegionIN865.c ****         {
 518:../../../../../../Middlewares/Third_Party/LoRaWAN/Mac/region/RegionIN865.c ****             RegionCommonChanMaskCopy( NvmCtx.ChannelsDefaultMask, chanMaskSet->ChannelsMaskIn, 1 );
 519:../../../../../../Middlewares/Third_Party/LoRaWAN/Mac/region/RegionIN865.c ****             break;
 520:../../../../../../Middlewares/Third_Party/LoRaWAN/Mac/region/RegionIN865.c ****         }
 521:../../../../../../Middlewares/Third_Party/LoRaWAN/Mac/region/RegionIN865.c ****         default:
 522:../../../../../../Middlewares/Third_Party/LoRaWAN/Mac/region/RegionIN865.c ****             return false;
 523:../../../../../../Middlewares/Third_Party/LoRaWAN/Mac/region/RegionIN865.c ****     }
 524:../../../../../../Middlewares/Third_Party/LoRaWAN/Mac/region/RegionIN865.c ****     return true;
 525:../../../../../../Middlewares/Third_Party/LoRaWAN/Mac/region/RegionIN865.c **** }
 526:../../../../../../Middlewares/Third_Party/LoRaWAN/Mac/region/RegionIN865.c **** 
 527:../../../../../../Middlewares/Third_Party/LoRaWAN/Mac/region/RegionIN865.c **** void RegionIN865ComputeRxWindowParameters( int8_t datarate, uint8_t minRxSymbols, uint32_t rxError,
 528:../../../../../../Middlewares/Third_Party/LoRaWAN/Mac/region/RegionIN865.c **** {
 529:../../../../../../Middlewares/Third_Party/LoRaWAN/Mac/region/RegionIN865.c ****     double tSymbol = 0.0;
 530:../../../../../../Middlewares/Third_Party/LoRaWAN/Mac/region/RegionIN865.c **** 
 531:../../../../../../Middlewares/Third_Party/LoRaWAN/Mac/region/RegionIN865.c ****     // Get the datarate, perform a boundary check
 532:../../../../../../Middlewares/Third_Party/LoRaWAN/Mac/region/RegionIN865.c ****     rxConfigParams->Datarate = MIN( datarate, IN865_RX_MAX_DATARATE );
 533:../../../../../../Middlewares/Third_Party/LoRaWAN/Mac/region/RegionIN865.c ****     rxConfigParams->Bandwidth = GetBandwidth( rxConfigParams->Datarate );
 534:../../../../../../Middlewares/Third_Party/LoRaWAN/Mac/region/RegionIN865.c **** 
 535:../../../../../../Middlewares/Third_Party/LoRaWAN/Mac/region/RegionIN865.c ****     if( rxConfigParams->Datarate == DR_7 )
 536:../../../../../../Middlewares/Third_Party/LoRaWAN/Mac/region/RegionIN865.c ****     { // FSK
 537:../../../../../../Middlewares/Third_Party/LoRaWAN/Mac/region/RegionIN865.c ****         tSymbol = RegionCommonComputeSymbolTimeFsk( DataratesIN865[rxConfigParams->Datarate] );
 538:../../../../../../Middlewares/Third_Party/LoRaWAN/Mac/region/RegionIN865.c ****     }
 539:../../../../../../Middlewares/Third_Party/LoRaWAN/Mac/region/RegionIN865.c ****     else
 540:../../../../../../Middlewares/Third_Party/LoRaWAN/Mac/region/RegionIN865.c ****     { // LoRa
 541:../../../../../../Middlewares/Third_Party/LoRaWAN/Mac/region/RegionIN865.c ****         tSymbol = RegionCommonComputeSymbolTimeLoRa( DataratesIN865[rxConfigParams->Datarate], Band
 542:../../../../../../Middlewares/Third_Party/LoRaWAN/Mac/region/RegionIN865.c ****     }
 543:../../../../../../Middlewares/Third_Party/LoRaWAN/Mac/region/RegionIN865.c **** 
 544:../../../../../../Middlewares/Third_Party/LoRaWAN/Mac/region/RegionIN865.c ****     RegionCommonComputeRxWindowParameters( tSymbol, minRxSymbols, rxError, Radio.GetWakeupTime( ), 
 545:../../../../../../Middlewares/Third_Party/LoRaWAN/Mac/region/RegionIN865.c **** }
 546:../../../../../../Middlewares/Third_Party/LoRaWAN/Mac/region/RegionIN865.c **** 
 547:../../../../../../Middlewares/Third_Party/LoRaWAN/Mac/region/RegionIN865.c **** bool RegionIN865RxConfig( RxConfigParams_t* rxConfig, int8_t* datarate )
 548:../../../../../../Middlewares/Third_Party/LoRaWAN/Mac/region/RegionIN865.c **** {
 549:../../../../../../Middlewares/Third_Party/LoRaWAN/Mac/region/RegionIN865.c ****     RadioModems_t modem;
 550:../../../../../../Middlewares/Third_Party/LoRaWAN/Mac/region/RegionIN865.c ****     int8_t dr = rxConfig->Datarate;
 551:../../../../../../Middlewares/Third_Party/LoRaWAN/Mac/region/RegionIN865.c ****     uint8_t maxPayload = 0;
 552:../../../../../../Middlewares/Third_Party/LoRaWAN/Mac/region/RegionIN865.c ****     int8_t phyDr = 0;
 553:../../../../../../Middlewares/Third_Party/LoRaWAN/Mac/region/RegionIN865.c ****     uint32_t frequency = rxConfig->Frequency;
 554:../../../../../../Middlewares/Third_Party/LoRaWAN/Mac/region/RegionIN865.c **** 
 555:../../../../../../Middlewares/Third_Party/LoRaWAN/Mac/region/RegionIN865.c ****     if( Radio.GetStatus( ) != RF_IDLE )
 556:../../../../../../Middlewares/Third_Party/LoRaWAN/Mac/region/RegionIN865.c ****     {
 557:../../../../../../Middlewares/Third_Party/LoRaWAN/Mac/region/RegionIN865.c ****         return false;
 558:../../../../../../Middlewares/Third_Party/LoRaWAN/Mac/region/RegionIN865.c ****     }
 559:../../../../../../Middlewares/Third_Party/LoRaWAN/Mac/region/RegionIN865.c **** 
 560:../../../../../../Middlewares/Third_Party/LoRaWAN/Mac/region/RegionIN865.c ****     if( rxConfig->RxSlot == RX_SLOT_WIN_1 )
 561:../../../../../../Middlewares/Third_Party/LoRaWAN/Mac/region/RegionIN865.c ****     {
 562:../../../../../../Middlewares/Third_Party/LoRaWAN/Mac/region/RegionIN865.c ****         // Apply window 1 frequency
 563:../../../../../../Middlewares/Third_Party/LoRaWAN/Mac/region/RegionIN865.c ****         frequency = NvmCtx.Channels[rxConfig->Channel].Frequency;
 564:../../../../../../Middlewares/Third_Party/LoRaWAN/Mac/region/RegionIN865.c ****         // Apply the alternative RX 1 window frequency, if it is available
 565:../../../../../../Middlewares/Third_Party/LoRaWAN/Mac/region/RegionIN865.c ****         if( NvmCtx.Channels[rxConfig->Channel].Rx1Frequency != 0 )
 566:../../../../../../Middlewares/Third_Party/LoRaWAN/Mac/region/RegionIN865.c ****         {
 567:../../../../../../Middlewares/Third_Party/LoRaWAN/Mac/region/RegionIN865.c ****             frequency = NvmCtx.Channels[rxConfig->Channel].Rx1Frequency;
 568:../../../../../../Middlewares/Third_Party/LoRaWAN/Mac/region/RegionIN865.c ****         }
 569:../../../../../../Middlewares/Third_Party/LoRaWAN/Mac/region/RegionIN865.c ****     }
 570:../../../../../../Middlewares/Third_Party/LoRaWAN/Mac/region/RegionIN865.c **** 
ARM GAS  C:\Users\EBANO_~1\AppData\Local\Temp\ccEfOEMG.s 			page 25


 571:../../../../../../Middlewares/Third_Party/LoRaWAN/Mac/region/RegionIN865.c ****     // Read the physical datarate from the datarates table
 572:../../../../../../Middlewares/Third_Party/LoRaWAN/Mac/region/RegionIN865.c ****     phyDr = DataratesIN865[dr];
 573:../../../../../../Middlewares/Third_Party/LoRaWAN/Mac/region/RegionIN865.c **** 
 574:../../../../../../Middlewares/Third_Party/LoRaWAN/Mac/region/RegionIN865.c ****     Radio.SetChannel( frequency );
 575:../../../../../../Middlewares/Third_Party/LoRaWAN/Mac/region/RegionIN865.c **** 
 576:../../../../../../Middlewares/Third_Party/LoRaWAN/Mac/region/RegionIN865.c ****     // Radio configuration
 577:../../../../../../Middlewares/Third_Party/LoRaWAN/Mac/region/RegionIN865.c ****     if( dr == DR_7 )
 578:../../../../../../Middlewares/Third_Party/LoRaWAN/Mac/region/RegionIN865.c ****     {
 579:../../../../../../Middlewares/Third_Party/LoRaWAN/Mac/region/RegionIN865.c ****         modem = MODEM_FSK;
 580:../../../../../../Middlewares/Third_Party/LoRaWAN/Mac/region/RegionIN865.c ****         Radio.SetRxConfig( modem, 50000, phyDr * 1000, 0, 83333, 5, rxConfig->WindowTimeout, false,
 581:../../../../../../Middlewares/Third_Party/LoRaWAN/Mac/region/RegionIN865.c ****     }
 582:../../../../../../Middlewares/Third_Party/LoRaWAN/Mac/region/RegionIN865.c ****     else
 583:../../../../../../Middlewares/Third_Party/LoRaWAN/Mac/region/RegionIN865.c ****     {
 584:../../../../../../Middlewares/Third_Party/LoRaWAN/Mac/region/RegionIN865.c ****         modem = MODEM_LORA;
 585:../../../../../../Middlewares/Third_Party/LoRaWAN/Mac/region/RegionIN865.c ****         Radio.SetRxConfig( modem, rxConfig->Bandwidth, phyDr, 1, 0, 8, rxConfig->WindowTimeout, fal
 586:../../../../../../Middlewares/Third_Party/LoRaWAN/Mac/region/RegionIN865.c ****     }
 587:../../../../../../Middlewares/Third_Party/LoRaWAN/Mac/region/RegionIN865.c **** 
 588:../../../../../../Middlewares/Third_Party/LoRaWAN/Mac/region/RegionIN865.c ****     if( rxConfig->RepeaterSupport == true )
 589:../../../../../../Middlewares/Third_Party/LoRaWAN/Mac/region/RegionIN865.c ****     {
 590:../../../../../../Middlewares/Third_Party/LoRaWAN/Mac/region/RegionIN865.c ****         maxPayload = MaxPayloadOfDatarateRepeaterIN865[dr];
 591:../../../../../../Middlewares/Third_Party/LoRaWAN/Mac/region/RegionIN865.c ****     }
 592:../../../../../../Middlewares/Third_Party/LoRaWAN/Mac/region/RegionIN865.c ****     else
 593:../../../../../../Middlewares/Third_Party/LoRaWAN/Mac/region/RegionIN865.c ****     {
 594:../../../../../../Middlewares/Third_Party/LoRaWAN/Mac/region/RegionIN865.c ****         maxPayload = MaxPayloadOfDatarateIN865[dr];
 595:../../../../../../Middlewares/Third_Party/LoRaWAN/Mac/region/RegionIN865.c ****     }
 596:../../../../../../Middlewares/Third_Party/LoRaWAN/Mac/region/RegionIN865.c ****     Radio.SetMaxPayloadLength( modem, maxPayload + LORA_MAC_FRMPAYLOAD_OVERHEAD );
 597:../../../../../../Middlewares/Third_Party/LoRaWAN/Mac/region/RegionIN865.c ****     TVL1( PRINTF( "RX on freq %d Hz at DR %d\n\r", frequency, dr );)
 598:../../../../../../Middlewares/Third_Party/LoRaWAN/Mac/region/RegionIN865.c **** 
 599:../../../../../../Middlewares/Third_Party/LoRaWAN/Mac/region/RegionIN865.c ****     *datarate = (uint8_t) dr;
 600:../../../../../../Middlewares/Third_Party/LoRaWAN/Mac/region/RegionIN865.c ****     return true;
 601:../../../../../../Middlewares/Third_Party/LoRaWAN/Mac/region/RegionIN865.c **** }
 602:../../../../../../Middlewares/Third_Party/LoRaWAN/Mac/region/RegionIN865.c **** 
 603:../../../../../../Middlewares/Third_Party/LoRaWAN/Mac/region/RegionIN865.c **** bool RegionIN865TxConfig( TxConfigParams_t* txConfig, int8_t* txPower, TimerTime_t* txTimeOnAir )
 604:../../../../../../Middlewares/Third_Party/LoRaWAN/Mac/region/RegionIN865.c **** {
 605:../../../../../../Middlewares/Third_Party/LoRaWAN/Mac/region/RegionIN865.c ****     RadioModems_t modem;
 606:../../../../../../Middlewares/Third_Party/LoRaWAN/Mac/region/RegionIN865.c ****     int8_t phyDr = DataratesIN865[txConfig->Datarate];
 607:../../../../../../Middlewares/Third_Party/LoRaWAN/Mac/region/RegionIN865.c ****     int8_t txPowerLimited = LimitTxPower( txConfig->TxPower, NvmCtx.Bands[NvmCtx.Channels[txConfig-
 608:../../../../../../Middlewares/Third_Party/LoRaWAN/Mac/region/RegionIN865.c ****     uint32_t bandwidth = GetBandwidth( txConfig->Datarate );
 609:../../../../../../Middlewares/Third_Party/LoRaWAN/Mac/region/RegionIN865.c ****     int8_t phyTxPower = 0;
 610:../../../../../../Middlewares/Third_Party/LoRaWAN/Mac/region/RegionIN865.c **** 
 611:../../../../../../Middlewares/Third_Party/LoRaWAN/Mac/region/RegionIN865.c ****     // Calculate physical TX power
 612:../../../../../../Middlewares/Third_Party/LoRaWAN/Mac/region/RegionIN865.c ****     phyTxPower = RegionCommonComputeTxPower( txPowerLimited, txConfig->MaxEirp, txConfig->AntennaGa
 613:../../../../../../Middlewares/Third_Party/LoRaWAN/Mac/region/RegionIN865.c **** 
 614:../../../../../../Middlewares/Third_Party/LoRaWAN/Mac/region/RegionIN865.c ****     // Setup the radio frequency
 615:../../../../../../Middlewares/Third_Party/LoRaWAN/Mac/region/RegionIN865.c ****     Radio.SetChannel( NvmCtx.Channels[txConfig->Channel].Frequency );
 616:../../../../../../Middlewares/Third_Party/LoRaWAN/Mac/region/RegionIN865.c **** 
 617:../../../../../../Middlewares/Third_Party/LoRaWAN/Mac/region/RegionIN865.c ****     if( txConfig->Datarate == DR_7 )
 618:../../../../../../Middlewares/Third_Party/LoRaWAN/Mac/region/RegionIN865.c ****     { // High Speed FSK channel
 619:../../../../../../Middlewares/Third_Party/LoRaWAN/Mac/region/RegionIN865.c ****         modem = MODEM_FSK;
 620:../../../../../../Middlewares/Third_Party/LoRaWAN/Mac/region/RegionIN865.c ****         Radio.SetTxConfig( modem, phyTxPower, 25000, bandwidth, phyDr * 1000, 0, 5, false, true, 0,
 621:../../../../../../Middlewares/Third_Party/LoRaWAN/Mac/region/RegionIN865.c ****     }
 622:../../../../../../Middlewares/Third_Party/LoRaWAN/Mac/region/RegionIN865.c ****     else
 623:../../../../../../Middlewares/Third_Party/LoRaWAN/Mac/region/RegionIN865.c ****     {
 624:../../../../../../Middlewares/Third_Party/LoRaWAN/Mac/region/RegionIN865.c ****         modem = MODEM_LORA;
 625:../../../../../../Middlewares/Third_Party/LoRaWAN/Mac/region/RegionIN865.c ****         Radio.SetTxConfig( modem, phyTxPower, 0, bandwidth, phyDr, 1, 8, false, true, 0, 0, false, 
 626:../../../../../../Middlewares/Third_Party/LoRaWAN/Mac/region/RegionIN865.c ****     }
 627:../../../../../../Middlewares/Third_Party/LoRaWAN/Mac/region/RegionIN865.c ****     TVL1( PRINTF( "TX on freq %d Hz at DR %d\n\r", NvmCtx.Channels[txConfig->Channel].Frequency, tx
ARM GAS  C:\Users\EBANO_~1\AppData\Local\Temp\ccEfOEMG.s 			page 26


 628:../../../../../../Middlewares/Third_Party/LoRaWAN/Mac/region/RegionIN865.c **** 
 629:../../../../../../Middlewares/Third_Party/LoRaWAN/Mac/region/RegionIN865.c ****     // Setup maximum payload lenght of the radio driver
 630:../../../../../../Middlewares/Third_Party/LoRaWAN/Mac/region/RegionIN865.c ****     Radio.SetMaxPayloadLength( modem, txConfig->PktLen );
 631:../../../../../../Middlewares/Third_Party/LoRaWAN/Mac/region/RegionIN865.c ****     // Get the time-on-air of the next tx frame
 632:../../../../../../Middlewares/Third_Party/LoRaWAN/Mac/region/RegionIN865.c ****     *txTimeOnAir = Radio.TimeOnAir( modem, txConfig->PktLen );
 633:../../../../../../Middlewares/Third_Party/LoRaWAN/Mac/region/RegionIN865.c **** 
 634:../../../../../../Middlewares/Third_Party/LoRaWAN/Mac/region/RegionIN865.c ****     *txPower = txPowerLimited;
 635:../../../../../../Middlewares/Third_Party/LoRaWAN/Mac/region/RegionIN865.c ****     return true;
 636:../../../../../../Middlewares/Third_Party/LoRaWAN/Mac/region/RegionIN865.c **** }
 637:../../../../../../Middlewares/Third_Party/LoRaWAN/Mac/region/RegionIN865.c **** 
 638:../../../../../../Middlewares/Third_Party/LoRaWAN/Mac/region/RegionIN865.c **** uint8_t RegionIN865LinkAdrReq( LinkAdrReqParams_t* linkAdrReq, int8_t* drOut, int8_t* txPowOut, uin
 639:../../../../../../Middlewares/Third_Party/LoRaWAN/Mac/region/RegionIN865.c **** {
 640:../../../../../../Middlewares/Third_Party/LoRaWAN/Mac/region/RegionIN865.c ****     uint8_t status = 0x07;
 641:../../../../../../Middlewares/Third_Party/LoRaWAN/Mac/region/RegionIN865.c ****     RegionCommonLinkAdrParams_t linkAdrParams;
 642:../../../../../../Middlewares/Third_Party/LoRaWAN/Mac/region/RegionIN865.c ****     uint8_t nextIndex = 0;
 643:../../../../../../Middlewares/Third_Party/LoRaWAN/Mac/region/RegionIN865.c ****     uint8_t bytesProcessed = 0;
 644:../../../../../../Middlewares/Third_Party/LoRaWAN/Mac/region/RegionIN865.c ****     uint16_t chMask = 0;
 645:../../../../../../Middlewares/Third_Party/LoRaWAN/Mac/region/RegionIN865.c ****     GetPhyParams_t getPhy;
 646:../../../../../../Middlewares/Third_Party/LoRaWAN/Mac/region/RegionIN865.c ****     PhyParam_t phyParam;
 647:../../../../../../Middlewares/Third_Party/LoRaWAN/Mac/region/RegionIN865.c ****     RegionCommonLinkAdrReqVerifyParams_t linkAdrVerifyParams;
 648:../../../../../../Middlewares/Third_Party/LoRaWAN/Mac/region/RegionIN865.c **** 
 649:../../../../../../Middlewares/Third_Party/LoRaWAN/Mac/region/RegionIN865.c ****     while( bytesProcessed < linkAdrReq->PayloadSize )
 650:../../../../../../Middlewares/Third_Party/LoRaWAN/Mac/region/RegionIN865.c ****     {
 651:../../../../../../Middlewares/Third_Party/LoRaWAN/Mac/region/RegionIN865.c ****         // Get ADR request parameters
 652:../../../../../../Middlewares/Third_Party/LoRaWAN/Mac/region/RegionIN865.c ****         nextIndex = RegionCommonParseLinkAdrReq( &( linkAdrReq->Payload[bytesProcessed] ), &linkAdr
 653:../../../../../../Middlewares/Third_Party/LoRaWAN/Mac/region/RegionIN865.c **** 
 654:../../../../../../Middlewares/Third_Party/LoRaWAN/Mac/region/RegionIN865.c ****         if( nextIndex == 0 )
 655:../../../../../../Middlewares/Third_Party/LoRaWAN/Mac/region/RegionIN865.c ****             break; // break loop, since no more request has been found
 656:../../../../../../Middlewares/Third_Party/LoRaWAN/Mac/region/RegionIN865.c **** 
 657:../../../../../../Middlewares/Third_Party/LoRaWAN/Mac/region/RegionIN865.c ****         // Update bytes processed
 658:../../../../../../Middlewares/Third_Party/LoRaWAN/Mac/region/RegionIN865.c ****         bytesProcessed += nextIndex;
 659:../../../../../../Middlewares/Third_Party/LoRaWAN/Mac/region/RegionIN865.c **** 
 660:../../../../../../Middlewares/Third_Party/LoRaWAN/Mac/region/RegionIN865.c ****         // Revert status, as we only check the last ADR request for the channel mask KO
 661:../../../../../../Middlewares/Third_Party/LoRaWAN/Mac/region/RegionIN865.c ****         status = 0x07;
 662:../../../../../../Middlewares/Third_Party/LoRaWAN/Mac/region/RegionIN865.c **** 
 663:../../../../../../Middlewares/Third_Party/LoRaWAN/Mac/region/RegionIN865.c ****         // Setup temporary channels mask
 664:../../../../../../Middlewares/Third_Party/LoRaWAN/Mac/region/RegionIN865.c ****         chMask = linkAdrParams.ChMask;
 665:../../../../../../Middlewares/Third_Party/LoRaWAN/Mac/region/RegionIN865.c **** 
 666:../../../../../../Middlewares/Third_Party/LoRaWAN/Mac/region/RegionIN865.c ****         // Verify channels mask
 667:../../../../../../Middlewares/Third_Party/LoRaWAN/Mac/region/RegionIN865.c ****         if( ( linkAdrParams.ChMaskCtrl == 0 ) && ( chMask == 0 ) )
 668:../../../../../../Middlewares/Third_Party/LoRaWAN/Mac/region/RegionIN865.c ****         {
 669:../../../../../../Middlewares/Third_Party/LoRaWAN/Mac/region/RegionIN865.c ****             status &= 0xFE; // Channel mask KO
 670:../../../../../../Middlewares/Third_Party/LoRaWAN/Mac/region/RegionIN865.c ****         }
 671:../../../../../../Middlewares/Third_Party/LoRaWAN/Mac/region/RegionIN865.c ****         else if( ( ( linkAdrParams.ChMaskCtrl >= 1 ) && ( linkAdrParams.ChMaskCtrl <= 5 )) ||
 672:../../../../../../Middlewares/Third_Party/LoRaWAN/Mac/region/RegionIN865.c ****                 ( linkAdrParams.ChMaskCtrl >= 7 ) )
 673:../../../../../../Middlewares/Third_Party/LoRaWAN/Mac/region/RegionIN865.c ****         {
 674:../../../../../../Middlewares/Third_Party/LoRaWAN/Mac/region/RegionIN865.c ****             // RFU
 675:../../../../../../Middlewares/Third_Party/LoRaWAN/Mac/region/RegionIN865.c ****             status &= 0xFE; // Channel mask KO
 676:../../../../../../Middlewares/Third_Party/LoRaWAN/Mac/region/RegionIN865.c ****         }
 677:../../../../../../Middlewares/Third_Party/LoRaWAN/Mac/region/RegionIN865.c ****         else
 678:../../../../../../Middlewares/Third_Party/LoRaWAN/Mac/region/RegionIN865.c ****         {
 679:../../../../../../Middlewares/Third_Party/LoRaWAN/Mac/region/RegionIN865.c ****             for( uint8_t i = 0; i < IN865_MAX_NB_CHANNELS; i++ )
 680:../../../../../../Middlewares/Third_Party/LoRaWAN/Mac/region/RegionIN865.c ****             {
 681:../../../../../../Middlewares/Third_Party/LoRaWAN/Mac/region/RegionIN865.c ****                 if( linkAdrParams.ChMaskCtrl == 6 )
 682:../../../../../../Middlewares/Third_Party/LoRaWAN/Mac/region/RegionIN865.c ****                 {
 683:../../../../../../Middlewares/Third_Party/LoRaWAN/Mac/region/RegionIN865.c ****                     if( NvmCtx.Channels[i].Frequency != 0 )
 684:../../../../../../Middlewares/Third_Party/LoRaWAN/Mac/region/RegionIN865.c ****                     {
ARM GAS  C:\Users\EBANO_~1\AppData\Local\Temp\ccEfOEMG.s 			page 27


 685:../../../../../../Middlewares/Third_Party/LoRaWAN/Mac/region/RegionIN865.c ****                         chMask |= 1 << i;
 686:../../../../../../Middlewares/Third_Party/LoRaWAN/Mac/region/RegionIN865.c ****                     }
 687:../../../../../../Middlewares/Third_Party/LoRaWAN/Mac/region/RegionIN865.c ****                 }
 688:../../../../../../Middlewares/Third_Party/LoRaWAN/Mac/region/RegionIN865.c ****                 else
 689:../../../../../../Middlewares/Third_Party/LoRaWAN/Mac/region/RegionIN865.c ****                 {
 690:../../../../../../Middlewares/Third_Party/LoRaWAN/Mac/region/RegionIN865.c ****                     if( ( ( chMask & ( 1 << i ) ) != 0 ) &&
 691:../../../../../../Middlewares/Third_Party/LoRaWAN/Mac/region/RegionIN865.c ****                         ( NvmCtx.Channels[i].Frequency == 0 ) )
 692:../../../../../../Middlewares/Third_Party/LoRaWAN/Mac/region/RegionIN865.c ****                     {// Trying to enable an undefined channel
 693:../../../../../../Middlewares/Third_Party/LoRaWAN/Mac/region/RegionIN865.c ****                         status &= 0xFE; // Channel mask KO
 694:../../../../../../Middlewares/Third_Party/LoRaWAN/Mac/region/RegionIN865.c ****                     }
 695:../../../../../../Middlewares/Third_Party/LoRaWAN/Mac/region/RegionIN865.c ****                 }
 696:../../../../../../Middlewares/Third_Party/LoRaWAN/Mac/region/RegionIN865.c ****             }
 697:../../../../../../Middlewares/Third_Party/LoRaWAN/Mac/region/RegionIN865.c ****         }
 698:../../../../../../Middlewares/Third_Party/LoRaWAN/Mac/region/RegionIN865.c ****     }
 699:../../../../../../Middlewares/Third_Party/LoRaWAN/Mac/region/RegionIN865.c **** 
 700:../../../../../../Middlewares/Third_Party/LoRaWAN/Mac/region/RegionIN865.c ****     if( linkAdrParams.Datarate != DR_6 )
 701:../../../../../../Middlewares/Third_Party/LoRaWAN/Mac/region/RegionIN865.c ****     {
 702:../../../../../../Middlewares/Third_Party/LoRaWAN/Mac/region/RegionIN865.c ****         // Get the minimum possible datarate
 703:../../../../../../Middlewares/Third_Party/LoRaWAN/Mac/region/RegionIN865.c ****         getPhy.Attribute = PHY_MIN_TX_DR;
 704:../../../../../../Middlewares/Third_Party/LoRaWAN/Mac/region/RegionIN865.c ****         getPhy.UplinkDwellTime = linkAdrReq->UplinkDwellTime;
 705:../../../../../../Middlewares/Third_Party/LoRaWAN/Mac/region/RegionIN865.c ****         phyParam = RegionIN865GetPhyParam( &getPhy );
 706:../../../../../../Middlewares/Third_Party/LoRaWAN/Mac/region/RegionIN865.c **** 
 707:../../../../../../Middlewares/Third_Party/LoRaWAN/Mac/region/RegionIN865.c ****         linkAdrVerifyParams.Status = status;
 708:../../../../../../Middlewares/Third_Party/LoRaWAN/Mac/region/RegionIN865.c ****         linkAdrVerifyParams.AdrEnabled = linkAdrReq->AdrEnabled;
 709:../../../../../../Middlewares/Third_Party/LoRaWAN/Mac/region/RegionIN865.c ****         linkAdrVerifyParams.Datarate = linkAdrParams.Datarate;
 710:../../../../../../Middlewares/Third_Party/LoRaWAN/Mac/region/RegionIN865.c ****         linkAdrVerifyParams.TxPower = linkAdrParams.TxPower;
 711:../../../../../../Middlewares/Third_Party/LoRaWAN/Mac/region/RegionIN865.c ****         linkAdrVerifyParams.NbRep = linkAdrParams.NbRep;
 712:../../../../../../Middlewares/Third_Party/LoRaWAN/Mac/region/RegionIN865.c ****         linkAdrVerifyParams.CurrentDatarate = linkAdrReq->CurrentDatarate;
 713:../../../../../../Middlewares/Third_Party/LoRaWAN/Mac/region/RegionIN865.c ****         linkAdrVerifyParams.CurrentTxPower = linkAdrReq->CurrentTxPower;
 714:../../../../../../Middlewares/Third_Party/LoRaWAN/Mac/region/RegionIN865.c ****         linkAdrVerifyParams.CurrentNbRep = linkAdrReq->CurrentNbRep;
 715:../../../../../../Middlewares/Third_Party/LoRaWAN/Mac/region/RegionIN865.c ****         linkAdrVerifyParams.NbChannels = IN865_MAX_NB_CHANNELS;
 716:../../../../../../Middlewares/Third_Party/LoRaWAN/Mac/region/RegionIN865.c ****         linkAdrVerifyParams.ChannelsMask = &chMask;
 717:../../../../../../Middlewares/Third_Party/LoRaWAN/Mac/region/RegionIN865.c ****         linkAdrVerifyParams.MinDatarate = ( int8_t )phyParam.Value;
 718:../../../../../../Middlewares/Third_Party/LoRaWAN/Mac/region/RegionIN865.c ****         linkAdrVerifyParams.MaxDatarate = IN865_TX_MAX_DATARATE;
 719:../../../../../../Middlewares/Third_Party/LoRaWAN/Mac/region/RegionIN865.c ****         linkAdrVerifyParams.Channels = NvmCtx.Channels;
 720:../../../../../../Middlewares/Third_Party/LoRaWAN/Mac/region/RegionIN865.c ****         linkAdrVerifyParams.MinTxPower = IN865_MIN_TX_POWER;
 721:../../../../../../Middlewares/Third_Party/LoRaWAN/Mac/region/RegionIN865.c ****         linkAdrVerifyParams.MaxTxPower = IN865_MAX_TX_POWER;
 722:../../../../../../Middlewares/Third_Party/LoRaWAN/Mac/region/RegionIN865.c ****         linkAdrVerifyParams.Version = linkAdrReq->Version;
 723:../../../../../../Middlewares/Third_Party/LoRaWAN/Mac/region/RegionIN865.c **** 
 724:../../../../../../Middlewares/Third_Party/LoRaWAN/Mac/region/RegionIN865.c ****         // Verify the parameters and update, if necessary
 725:../../../../../../Middlewares/Third_Party/LoRaWAN/Mac/region/RegionIN865.c ****         status = RegionCommonLinkAdrReqVerifyParams( &linkAdrVerifyParams, &linkAdrParams.Datarate,
 726:../../../../../../Middlewares/Third_Party/LoRaWAN/Mac/region/RegionIN865.c ****     }
 727:../../../../../../Middlewares/Third_Party/LoRaWAN/Mac/region/RegionIN865.c ****     else
 728:../../../../../../Middlewares/Third_Party/LoRaWAN/Mac/region/RegionIN865.c ****     {// DR_6 is not supported by this region
 729:../../../../../../Middlewares/Third_Party/LoRaWAN/Mac/region/RegionIN865.c ****         status &= 0xFD; // Datarate KO
 730:../../../../../../Middlewares/Third_Party/LoRaWAN/Mac/region/RegionIN865.c ****     }
 731:../../../../../../Middlewares/Third_Party/LoRaWAN/Mac/region/RegionIN865.c **** 
 732:../../../../../../Middlewares/Third_Party/LoRaWAN/Mac/region/RegionIN865.c ****     // Update channelsMask if everything is correct
 733:../../../../../../Middlewares/Third_Party/LoRaWAN/Mac/region/RegionIN865.c ****     if( status == 0x07 )
 734:../../../../../../Middlewares/Third_Party/LoRaWAN/Mac/region/RegionIN865.c ****     {
 735:../../../../../../Middlewares/Third_Party/LoRaWAN/Mac/region/RegionIN865.c ****         // Set the channels mask to a default value
 736:../../../../../../Middlewares/Third_Party/LoRaWAN/Mac/region/RegionIN865.c ****         memset1( ( uint8_t* ) NvmCtx.ChannelsMask, 0, sizeof( NvmCtx.ChannelsMask ) );
 737:../../../../../../Middlewares/Third_Party/LoRaWAN/Mac/region/RegionIN865.c ****         // Update the channels mask
 738:../../../../../../Middlewares/Third_Party/LoRaWAN/Mac/region/RegionIN865.c ****         NvmCtx.ChannelsMask[0] = chMask;
 739:../../../../../../Middlewares/Third_Party/LoRaWAN/Mac/region/RegionIN865.c ****     }
 740:../../../../../../Middlewares/Third_Party/LoRaWAN/Mac/region/RegionIN865.c **** 
 741:../../../../../../Middlewares/Third_Party/LoRaWAN/Mac/region/RegionIN865.c ****     // Update status variables
ARM GAS  C:\Users\EBANO_~1\AppData\Local\Temp\ccEfOEMG.s 			page 28


 742:../../../../../../Middlewares/Third_Party/LoRaWAN/Mac/region/RegionIN865.c ****     *drOut = linkAdrParams.Datarate;
 743:../../../../../../Middlewares/Third_Party/LoRaWAN/Mac/region/RegionIN865.c ****     *txPowOut = linkAdrParams.TxPower;
 744:../../../../../../Middlewares/Third_Party/LoRaWAN/Mac/region/RegionIN865.c ****     *nbRepOut = linkAdrParams.NbRep;
 745:../../../../../../Middlewares/Third_Party/LoRaWAN/Mac/region/RegionIN865.c ****     *nbBytesParsed = bytesProcessed;
 746:../../../../../../Middlewares/Third_Party/LoRaWAN/Mac/region/RegionIN865.c **** 
 747:../../../../../../Middlewares/Third_Party/LoRaWAN/Mac/region/RegionIN865.c ****     return status;
 748:../../../../../../Middlewares/Third_Party/LoRaWAN/Mac/region/RegionIN865.c **** }
 749:../../../../../../Middlewares/Third_Party/LoRaWAN/Mac/region/RegionIN865.c **** 
 750:../../../../../../Middlewares/Third_Party/LoRaWAN/Mac/region/RegionIN865.c **** uint8_t RegionIN865RxParamSetupReq( RxParamSetupReqParams_t* rxParamSetupReq )
 751:../../../../../../Middlewares/Third_Party/LoRaWAN/Mac/region/RegionIN865.c **** {
 752:../../../../../../Middlewares/Third_Party/LoRaWAN/Mac/region/RegionIN865.c ****     uint8_t status = 0x07;
 753:../../../../../../Middlewares/Third_Party/LoRaWAN/Mac/region/RegionIN865.c **** 
 754:../../../../../../Middlewares/Third_Party/LoRaWAN/Mac/region/RegionIN865.c ****     // Verify radio frequency
 755:../../../../../../Middlewares/Third_Party/LoRaWAN/Mac/region/RegionIN865.c ****     if( VerifyRfFreq( rxParamSetupReq->Frequency ) == false )
 756:../../../../../../Middlewares/Third_Party/LoRaWAN/Mac/region/RegionIN865.c ****     {
 757:../../../../../../Middlewares/Third_Party/LoRaWAN/Mac/region/RegionIN865.c ****         status &= 0xFE; // Channel frequency KO
 758:../../../../../../Middlewares/Third_Party/LoRaWAN/Mac/region/RegionIN865.c ****     }
 759:../../../../../../Middlewares/Third_Party/LoRaWAN/Mac/region/RegionIN865.c **** 
 760:../../../../../../Middlewares/Third_Party/LoRaWAN/Mac/region/RegionIN865.c ****     // Verify datarate
 761:../../../../../../Middlewares/Third_Party/LoRaWAN/Mac/region/RegionIN865.c ****     if( RegionCommonValueInRange( rxParamSetupReq->Datarate, IN865_RX_MIN_DATARATE, IN865_RX_MAX_DA
 762:../../../../../../Middlewares/Third_Party/LoRaWAN/Mac/region/RegionIN865.c ****     {
 763:../../../../../../Middlewares/Third_Party/LoRaWAN/Mac/region/RegionIN865.c ****         status &= 0xFD; // Datarate KO
 764:../../../../../../Middlewares/Third_Party/LoRaWAN/Mac/region/RegionIN865.c ****     }
 765:../../../../../../Middlewares/Third_Party/LoRaWAN/Mac/region/RegionIN865.c **** 
 766:../../../../../../Middlewares/Third_Party/LoRaWAN/Mac/region/RegionIN865.c ****     // Verify datarate offset
 767:../../../../../../Middlewares/Third_Party/LoRaWAN/Mac/region/RegionIN865.c ****     if( RegionCommonValueInRange( rxParamSetupReq->DrOffset, IN865_MIN_RX1_DR_OFFSET, IN865_MAX_RX1
 768:../../../../../../Middlewares/Third_Party/LoRaWAN/Mac/region/RegionIN865.c ****     {
 769:../../../../../../Middlewares/Third_Party/LoRaWAN/Mac/region/RegionIN865.c ****         status &= 0xFB; // Rx1DrOffset range KO
 770:../../../../../../Middlewares/Third_Party/LoRaWAN/Mac/region/RegionIN865.c ****     }
 771:../../../../../../Middlewares/Third_Party/LoRaWAN/Mac/region/RegionIN865.c **** 
 772:../../../../../../Middlewares/Third_Party/LoRaWAN/Mac/region/RegionIN865.c ****     return status;
 773:../../../../../../Middlewares/Third_Party/LoRaWAN/Mac/region/RegionIN865.c **** }
 774:../../../../../../Middlewares/Third_Party/LoRaWAN/Mac/region/RegionIN865.c **** 
 775:../../../../../../Middlewares/Third_Party/LoRaWAN/Mac/region/RegionIN865.c **** uint8_t RegionIN865NewChannelReq( NewChannelReqParams_t* newChannelReq )
 776:../../../../../../Middlewares/Third_Party/LoRaWAN/Mac/region/RegionIN865.c **** {
 777:../../../../../../Middlewares/Third_Party/LoRaWAN/Mac/region/RegionIN865.c ****     uint8_t status = 0x03;
 778:../../../../../../Middlewares/Third_Party/LoRaWAN/Mac/region/RegionIN865.c ****     ChannelAddParams_t channelAdd;
 779:../../../../../../Middlewares/Third_Party/LoRaWAN/Mac/region/RegionIN865.c ****     ChannelRemoveParams_t channelRemove;
 780:../../../../../../Middlewares/Third_Party/LoRaWAN/Mac/region/RegionIN865.c **** 
 781:../../../../../../Middlewares/Third_Party/LoRaWAN/Mac/region/RegionIN865.c ****     if( newChannelReq->NewChannel->Frequency == 0 )
 782:../../../../../../Middlewares/Third_Party/LoRaWAN/Mac/region/RegionIN865.c ****     {
 783:../../../../../../Middlewares/Third_Party/LoRaWAN/Mac/region/RegionIN865.c ****         channelRemove.ChannelId = newChannelReq->ChannelId;
 784:../../../../../../Middlewares/Third_Party/LoRaWAN/Mac/region/RegionIN865.c **** 
 785:../../../../../../Middlewares/Third_Party/LoRaWAN/Mac/region/RegionIN865.c ****         // Remove
 786:../../../../../../Middlewares/Third_Party/LoRaWAN/Mac/region/RegionIN865.c ****         if( RegionIN865ChannelsRemove( &channelRemove ) == false )
 787:../../../../../../Middlewares/Third_Party/LoRaWAN/Mac/region/RegionIN865.c ****         {
 788:../../../../../../Middlewares/Third_Party/LoRaWAN/Mac/region/RegionIN865.c ****             status &= 0xFC;
 789:../../../../../../Middlewares/Third_Party/LoRaWAN/Mac/region/RegionIN865.c ****         }
 790:../../../../../../Middlewares/Third_Party/LoRaWAN/Mac/region/RegionIN865.c ****     }
 791:../../../../../../Middlewares/Third_Party/LoRaWAN/Mac/region/RegionIN865.c ****     else
 792:../../../../../../Middlewares/Third_Party/LoRaWAN/Mac/region/RegionIN865.c ****     {
 793:../../../../../../Middlewares/Third_Party/LoRaWAN/Mac/region/RegionIN865.c ****         channelAdd.NewChannel = newChannelReq->NewChannel;
 794:../../../../../../Middlewares/Third_Party/LoRaWAN/Mac/region/RegionIN865.c ****         channelAdd.ChannelId = newChannelReq->ChannelId;
 795:../../../../../../Middlewares/Third_Party/LoRaWAN/Mac/region/RegionIN865.c **** 
 796:../../../../../../Middlewares/Third_Party/LoRaWAN/Mac/region/RegionIN865.c ****         switch( RegionIN865ChannelAdd( &channelAdd ) )
 797:../../../../../../Middlewares/Third_Party/LoRaWAN/Mac/region/RegionIN865.c ****         {
 798:../../../../../../Middlewares/Third_Party/LoRaWAN/Mac/region/RegionIN865.c ****             case LORAMAC_STATUS_OK:
ARM GAS  C:\Users\EBANO_~1\AppData\Local\Temp\ccEfOEMG.s 			page 29


 799:../../../../../../Middlewares/Third_Party/LoRaWAN/Mac/region/RegionIN865.c ****             {
 800:../../../../../../Middlewares/Third_Party/LoRaWAN/Mac/region/RegionIN865.c ****                 break;
 801:../../../../../../Middlewares/Third_Party/LoRaWAN/Mac/region/RegionIN865.c ****             }
 802:../../../../../../Middlewares/Third_Party/LoRaWAN/Mac/region/RegionIN865.c ****             case LORAMAC_STATUS_FREQUENCY_INVALID:
 803:../../../../../../Middlewares/Third_Party/LoRaWAN/Mac/region/RegionIN865.c ****             {
 804:../../../../../../Middlewares/Third_Party/LoRaWAN/Mac/region/RegionIN865.c ****                 status &= 0xFE;
 805:../../../../../../Middlewares/Third_Party/LoRaWAN/Mac/region/RegionIN865.c ****                 break;
 806:../../../../../../Middlewares/Third_Party/LoRaWAN/Mac/region/RegionIN865.c ****             }
 807:../../../../../../Middlewares/Third_Party/LoRaWAN/Mac/region/RegionIN865.c ****             case LORAMAC_STATUS_DATARATE_INVALID:
 808:../../../../../../Middlewares/Third_Party/LoRaWAN/Mac/region/RegionIN865.c ****             {
 809:../../../../../../Middlewares/Third_Party/LoRaWAN/Mac/region/RegionIN865.c ****                 status &= 0xFD;
 810:../../../../../../Middlewares/Third_Party/LoRaWAN/Mac/region/RegionIN865.c ****                 break;
 811:../../../../../../Middlewares/Third_Party/LoRaWAN/Mac/region/RegionIN865.c ****             }
 812:../../../../../../Middlewares/Third_Party/LoRaWAN/Mac/region/RegionIN865.c ****             case LORAMAC_STATUS_FREQ_AND_DR_INVALID:
 813:../../../../../../Middlewares/Third_Party/LoRaWAN/Mac/region/RegionIN865.c ****             {
 814:../../../../../../Middlewares/Third_Party/LoRaWAN/Mac/region/RegionIN865.c ****                 status &= 0xFC;
 815:../../../../../../Middlewares/Third_Party/LoRaWAN/Mac/region/RegionIN865.c ****                 break;
 816:../../../../../../Middlewares/Third_Party/LoRaWAN/Mac/region/RegionIN865.c ****             }
 817:../../../../../../Middlewares/Third_Party/LoRaWAN/Mac/region/RegionIN865.c ****             default:
 818:../../../../../../Middlewares/Third_Party/LoRaWAN/Mac/region/RegionIN865.c ****             {
 819:../../../../../../Middlewares/Third_Party/LoRaWAN/Mac/region/RegionIN865.c ****                 status &= 0xFC;
 820:../../../../../../Middlewares/Third_Party/LoRaWAN/Mac/region/RegionIN865.c ****                 break;
 821:../../../../../../Middlewares/Third_Party/LoRaWAN/Mac/region/RegionIN865.c ****             }
 822:../../../../../../Middlewares/Third_Party/LoRaWAN/Mac/region/RegionIN865.c ****         }
 823:../../../../../../Middlewares/Third_Party/LoRaWAN/Mac/region/RegionIN865.c ****     }
 824:../../../../../../Middlewares/Third_Party/LoRaWAN/Mac/region/RegionIN865.c **** 
 825:../../../../../../Middlewares/Third_Party/LoRaWAN/Mac/region/RegionIN865.c ****     return status;
 826:../../../../../../Middlewares/Third_Party/LoRaWAN/Mac/region/RegionIN865.c **** }
 827:../../../../../../Middlewares/Third_Party/LoRaWAN/Mac/region/RegionIN865.c **** 
 828:../../../../../../Middlewares/Third_Party/LoRaWAN/Mac/region/RegionIN865.c **** int8_t RegionIN865TxParamSetupReq( TxParamSetupReqParams_t* txParamSetupReq )
 829:../../../../../../Middlewares/Third_Party/LoRaWAN/Mac/region/RegionIN865.c **** {
 830:../../../../../../Middlewares/Third_Party/LoRaWAN/Mac/region/RegionIN865.c ****     return -1;
 831:../../../../../../Middlewares/Third_Party/LoRaWAN/Mac/region/RegionIN865.c **** }
 832:../../../../../../Middlewares/Third_Party/LoRaWAN/Mac/region/RegionIN865.c **** 
 833:../../../../../../Middlewares/Third_Party/LoRaWAN/Mac/region/RegionIN865.c **** uint8_t RegionIN865DlChannelReq( DlChannelReqParams_t* dlChannelReq )
 834:../../../../../../Middlewares/Third_Party/LoRaWAN/Mac/region/RegionIN865.c **** {
 835:../../../../../../Middlewares/Third_Party/LoRaWAN/Mac/region/RegionIN865.c ****     uint8_t status = 0x03;
 836:../../../../../../Middlewares/Third_Party/LoRaWAN/Mac/region/RegionIN865.c **** 
 837:../../../../../../Middlewares/Third_Party/LoRaWAN/Mac/region/RegionIN865.c ****     // Verify if the frequency is supported
 838:../../../../../../Middlewares/Third_Party/LoRaWAN/Mac/region/RegionIN865.c ****     if( VerifyRfFreq( dlChannelReq->Rx1Frequency ) == false )
 839:../../../../../../Middlewares/Third_Party/LoRaWAN/Mac/region/RegionIN865.c ****     {
 840:../../../../../../Middlewares/Third_Party/LoRaWAN/Mac/region/RegionIN865.c ****         status &= 0xFE;
 841:../../../../../../Middlewares/Third_Party/LoRaWAN/Mac/region/RegionIN865.c ****     }
 842:../../../../../../Middlewares/Third_Party/LoRaWAN/Mac/region/RegionIN865.c **** 
 843:../../../../../../Middlewares/Third_Party/LoRaWAN/Mac/region/RegionIN865.c ****     // Verify if an uplink frequency exists
 844:../../../../../../Middlewares/Third_Party/LoRaWAN/Mac/region/RegionIN865.c ****     if( NvmCtx.Channels[dlChannelReq->ChannelId].Frequency == 0 )
 845:../../../../../../Middlewares/Third_Party/LoRaWAN/Mac/region/RegionIN865.c ****     {
 846:../../../../../../Middlewares/Third_Party/LoRaWAN/Mac/region/RegionIN865.c ****         status &= 0xFD;
 847:../../../../../../Middlewares/Third_Party/LoRaWAN/Mac/region/RegionIN865.c ****     }
 848:../../../../../../Middlewares/Third_Party/LoRaWAN/Mac/region/RegionIN865.c **** 
 849:../../../../../../Middlewares/Third_Party/LoRaWAN/Mac/region/RegionIN865.c ****     // Apply Rx1 frequency, if the status is OK
 850:../../../../../../Middlewares/Third_Party/LoRaWAN/Mac/region/RegionIN865.c ****     if( status == 0x03 )
 851:../../../../../../Middlewares/Third_Party/LoRaWAN/Mac/region/RegionIN865.c ****     {
 852:../../../../../../Middlewares/Third_Party/LoRaWAN/Mac/region/RegionIN865.c ****         NvmCtx.Channels[dlChannelReq->ChannelId].Rx1Frequency = dlChannelReq->Rx1Frequency;
 853:../../../../../../Middlewares/Third_Party/LoRaWAN/Mac/region/RegionIN865.c ****     }
 854:../../../../../../Middlewares/Third_Party/LoRaWAN/Mac/region/RegionIN865.c **** 
 855:../../../../../../Middlewares/Third_Party/LoRaWAN/Mac/region/RegionIN865.c ****     return status;
ARM GAS  C:\Users\EBANO_~1\AppData\Local\Temp\ccEfOEMG.s 			page 30


 856:../../../../../../Middlewares/Third_Party/LoRaWAN/Mac/region/RegionIN865.c **** }
 857:../../../../../../Middlewares/Third_Party/LoRaWAN/Mac/region/RegionIN865.c **** 
 858:../../../../../../Middlewares/Third_Party/LoRaWAN/Mac/region/RegionIN865.c **** int8_t RegionIN865AlternateDr( int8_t currentDr, AlternateDrType_t type )
 859:../../../../../../Middlewares/Third_Party/LoRaWAN/Mac/region/RegionIN865.c **** {
 860:../../../../../../Middlewares/Third_Party/LoRaWAN/Mac/region/RegionIN865.c ****     return currentDr;
 861:../../../../../../Middlewares/Third_Party/LoRaWAN/Mac/region/RegionIN865.c **** }
 862:../../../../../../Middlewares/Third_Party/LoRaWAN/Mac/region/RegionIN865.c **** 
 863:../../../../../../Middlewares/Third_Party/LoRaWAN/Mac/region/RegionIN865.c **** void RegionIN865CalcBackOff( CalcBackOffParams_t* calcBackOff )
 864:../../../../../../Middlewares/Third_Party/LoRaWAN/Mac/region/RegionIN865.c **** {
 865:../../../../../../Middlewares/Third_Party/LoRaWAN/Mac/region/RegionIN865.c ****     RegionCommonCalcBackOffParams_t calcBackOffParams;
 866:../../../../../../Middlewares/Third_Party/LoRaWAN/Mac/region/RegionIN865.c **** 
 867:../../../../../../Middlewares/Third_Party/LoRaWAN/Mac/region/RegionIN865.c ****     calcBackOffParams.Channels = NvmCtx.Channels;
 868:../../../../../../Middlewares/Third_Party/LoRaWAN/Mac/region/RegionIN865.c ****     calcBackOffParams.Bands = NvmCtx.Bands;
 869:../../../../../../Middlewares/Third_Party/LoRaWAN/Mac/region/RegionIN865.c ****     calcBackOffParams.LastTxIsJoinRequest = calcBackOff->LastTxIsJoinRequest;
 870:../../../../../../Middlewares/Third_Party/LoRaWAN/Mac/region/RegionIN865.c ****     calcBackOffParams.Joined = calcBackOff->Joined;
 871:../../../../../../Middlewares/Third_Party/LoRaWAN/Mac/region/RegionIN865.c ****     calcBackOffParams.DutyCycleEnabled = calcBackOff->DutyCycleEnabled;
 872:../../../../../../Middlewares/Third_Party/LoRaWAN/Mac/region/RegionIN865.c ****     calcBackOffParams.Channel = calcBackOff->Channel;
 873:../../../../../../Middlewares/Third_Party/LoRaWAN/Mac/region/RegionIN865.c ****     calcBackOffParams.ElapsedTime = calcBackOff->ElapsedTime;
 874:../../../../../../Middlewares/Third_Party/LoRaWAN/Mac/region/RegionIN865.c ****     calcBackOffParams.TxTimeOnAir = calcBackOff->TxTimeOnAir;
 875:../../../../../../Middlewares/Third_Party/LoRaWAN/Mac/region/RegionIN865.c **** 
 876:../../../../../../Middlewares/Third_Party/LoRaWAN/Mac/region/RegionIN865.c ****     RegionCommonCalcBackOff( &calcBackOffParams );
 877:../../../../../../Middlewares/Third_Party/LoRaWAN/Mac/region/RegionIN865.c **** }
 878:../../../../../../Middlewares/Third_Party/LoRaWAN/Mac/region/RegionIN865.c **** 
 879:../../../../../../Middlewares/Third_Party/LoRaWAN/Mac/region/RegionIN865.c **** LoRaMacStatus_t RegionIN865NextChannel( NextChanParams_t* nextChanParams, uint8_t* channel, TimerTi
 880:../../../../../../Middlewares/Third_Party/LoRaWAN/Mac/region/RegionIN865.c **** {
 881:../../../../../../Middlewares/Third_Party/LoRaWAN/Mac/region/RegionIN865.c ****     uint8_t nbEnabledChannels = 0;
 882:../../../../../../Middlewares/Third_Party/LoRaWAN/Mac/region/RegionIN865.c ****     uint8_t delayTx = 0;
 883:../../../../../../Middlewares/Third_Party/LoRaWAN/Mac/region/RegionIN865.c ****     uint8_t enabledChannels[IN865_MAX_NB_CHANNELS] = { 0 };
 884:../../../../../../Middlewares/Third_Party/LoRaWAN/Mac/region/RegionIN865.c ****     TimerTime_t nextTxDelay = 0;
 885:../../../../../../Middlewares/Third_Party/LoRaWAN/Mac/region/RegionIN865.c **** 
 886:../../../../../../Middlewares/Third_Party/LoRaWAN/Mac/region/RegionIN865.c ****     if( RegionCommonCountChannels( NvmCtx.ChannelsMask, 0, 1 ) == 0 )
 887:../../../../../../Middlewares/Third_Party/LoRaWAN/Mac/region/RegionIN865.c ****     { // Reactivate default channels
 888:../../../../../../Middlewares/Third_Party/LoRaWAN/Mac/region/RegionIN865.c ****         NvmCtx.ChannelsMask[0] |= LC( 1 ) + LC( 2 ) + LC( 3 );
 889:../../../../../../Middlewares/Third_Party/LoRaWAN/Mac/region/RegionIN865.c ****     }
 890:../../../../../../Middlewares/Third_Party/LoRaWAN/Mac/region/RegionIN865.c **** 
 891:../../../../../../Middlewares/Third_Party/LoRaWAN/Mac/region/RegionIN865.c ****     if( nextChanParams->AggrTimeOff <= TimerGetElapsedTime( nextChanParams->LastAggrTx ) )
 892:../../../../../../Middlewares/Third_Party/LoRaWAN/Mac/region/RegionIN865.c ****     {
 893:../../../../../../Middlewares/Third_Party/LoRaWAN/Mac/region/RegionIN865.c ****         // Reset Aggregated time off
 894:../../../../../../Middlewares/Third_Party/LoRaWAN/Mac/region/RegionIN865.c ****         *aggregatedTimeOff = 0;
 895:../../../../../../Middlewares/Third_Party/LoRaWAN/Mac/region/RegionIN865.c **** 
 896:../../../../../../Middlewares/Third_Party/LoRaWAN/Mac/region/RegionIN865.c ****         // Update bands Time OFF
 897:../../../../../../Middlewares/Third_Party/LoRaWAN/Mac/region/RegionIN865.c ****         nextTxDelay = RegionCommonUpdateBandTimeOff( nextChanParams->Joined, nextChanParams->DutyCy
 898:../../../../../../Middlewares/Third_Party/LoRaWAN/Mac/region/RegionIN865.c **** 
 899:../../../../../../Middlewares/Third_Party/LoRaWAN/Mac/region/RegionIN865.c ****         // Search how many channels are enabled
 900:../../../../../../Middlewares/Third_Party/LoRaWAN/Mac/region/RegionIN865.c ****         nbEnabledChannels = CountNbOfEnabledChannels( nextChanParams->Joined, nextChanParams->Datar
 901:../../../../../../Middlewares/Third_Party/LoRaWAN/Mac/region/RegionIN865.c ****                                                       NvmCtx.ChannelsMask, NvmCtx.Channels,
 902:../../../../../../Middlewares/Third_Party/LoRaWAN/Mac/region/RegionIN865.c ****                                                       NvmCtx.Bands, enabledChannels, &delayTx );
 903:../../../../../../Middlewares/Third_Party/LoRaWAN/Mac/region/RegionIN865.c ****     }
 904:../../../../../../Middlewares/Third_Party/LoRaWAN/Mac/region/RegionIN865.c ****     else
 905:../../../../../../Middlewares/Third_Party/LoRaWAN/Mac/region/RegionIN865.c ****     {
 906:../../../../../../Middlewares/Third_Party/LoRaWAN/Mac/region/RegionIN865.c ****         delayTx++;
 907:../../../../../../Middlewares/Third_Party/LoRaWAN/Mac/region/RegionIN865.c ****         nextTxDelay = nextChanParams->AggrTimeOff - TimerGetElapsedTime( nextChanParams->LastAggrTx
 908:../../../../../../Middlewares/Third_Party/LoRaWAN/Mac/region/RegionIN865.c ****     }
 909:../../../../../../Middlewares/Third_Party/LoRaWAN/Mac/region/RegionIN865.c **** 
 910:../../../../../../Middlewares/Third_Party/LoRaWAN/Mac/region/RegionIN865.c ****     if( nbEnabledChannels > 0 )
 911:../../../../../../Middlewares/Third_Party/LoRaWAN/Mac/region/RegionIN865.c ****     {
 912:../../../../../../Middlewares/Third_Party/LoRaWAN/Mac/region/RegionIN865.c ****         // We found a valid channel
ARM GAS  C:\Users\EBANO_~1\AppData\Local\Temp\ccEfOEMG.s 			page 31


 913:../../../../../../Middlewares/Third_Party/LoRaWAN/Mac/region/RegionIN865.c ****         *channel = enabledChannels[randr( 0, nbEnabledChannels - 1 )];
 914:../../../../../../Middlewares/Third_Party/LoRaWAN/Mac/region/RegionIN865.c **** 
 915:../../../../../../Middlewares/Third_Party/LoRaWAN/Mac/region/RegionIN865.c ****         *time = 0;
 916:../../../../../../Middlewares/Third_Party/LoRaWAN/Mac/region/RegionIN865.c ****         return LORAMAC_STATUS_OK;
 917:../../../../../../Middlewares/Third_Party/LoRaWAN/Mac/region/RegionIN865.c ****     }
 918:../../../../../../Middlewares/Third_Party/LoRaWAN/Mac/region/RegionIN865.c ****     else
 919:../../../../../../Middlewares/Third_Party/LoRaWAN/Mac/region/RegionIN865.c ****     {
 920:../../../../../../Middlewares/Third_Party/LoRaWAN/Mac/region/RegionIN865.c ****         if( delayTx > 0 )
 921:../../../../../../Middlewares/Third_Party/LoRaWAN/Mac/region/RegionIN865.c ****         {
 922:../../../../../../Middlewares/Third_Party/LoRaWAN/Mac/region/RegionIN865.c ****             // Delay transmission due to AggregatedTimeOff or to a band time off
 923:../../../../../../Middlewares/Third_Party/LoRaWAN/Mac/region/RegionIN865.c ****             *time = nextTxDelay;
 924:../../../../../../Middlewares/Third_Party/LoRaWAN/Mac/region/RegionIN865.c ****             return LORAMAC_STATUS_DUTYCYCLE_RESTRICTED;
 925:../../../../../../Middlewares/Third_Party/LoRaWAN/Mac/region/RegionIN865.c ****         }
 926:../../../../../../Middlewares/Third_Party/LoRaWAN/Mac/region/RegionIN865.c ****         // Datarate not supported by any channel, restore defaults
 927:../../../../../../Middlewares/Third_Party/LoRaWAN/Mac/region/RegionIN865.c ****         NvmCtx.ChannelsMask[0] |= LC( 1 ) + LC( 2 ) + LC( 3 );
 928:../../../../../../Middlewares/Third_Party/LoRaWAN/Mac/region/RegionIN865.c ****         *time = 0;
 929:../../../../../../Middlewares/Third_Party/LoRaWAN/Mac/region/RegionIN865.c ****         return LORAMAC_STATUS_NO_CHANNEL_FOUND;
 930:../../../../../../Middlewares/Third_Party/LoRaWAN/Mac/region/RegionIN865.c ****     }
 931:../../../../../../Middlewares/Third_Party/LoRaWAN/Mac/region/RegionIN865.c **** }
 932:../../../../../../Middlewares/Third_Party/LoRaWAN/Mac/region/RegionIN865.c **** 
 933:../../../../../../Middlewares/Third_Party/LoRaWAN/Mac/region/RegionIN865.c **** LoRaMacStatus_t RegionIN865ChannelAdd( ChannelAddParams_t* channelAdd )
 934:../../../../../../Middlewares/Third_Party/LoRaWAN/Mac/region/RegionIN865.c **** {
 935:../../../../../../Middlewares/Third_Party/LoRaWAN/Mac/region/RegionIN865.c ****     bool drInvalid = false;
 936:../../../../../../Middlewares/Third_Party/LoRaWAN/Mac/region/RegionIN865.c ****     bool freqInvalid = false;
 937:../../../../../../Middlewares/Third_Party/LoRaWAN/Mac/region/RegionIN865.c ****     uint8_t id = channelAdd->ChannelId;
 938:../../../../../../Middlewares/Third_Party/LoRaWAN/Mac/region/RegionIN865.c **** 
 939:../../../../../../Middlewares/Third_Party/LoRaWAN/Mac/region/RegionIN865.c ****     if( id < IN865_NUMB_DEFAULT_CHANNELS )
 940:../../../../../../Middlewares/Third_Party/LoRaWAN/Mac/region/RegionIN865.c ****     {
 941:../../../../../../Middlewares/Third_Party/LoRaWAN/Mac/region/RegionIN865.c ****         return LORAMAC_STATUS_FREQ_AND_DR_INVALID;
 942:../../../../../../Middlewares/Third_Party/LoRaWAN/Mac/region/RegionIN865.c ****     }
 943:../../../../../../Middlewares/Third_Party/LoRaWAN/Mac/region/RegionIN865.c **** 
 944:../../../../../../Middlewares/Third_Party/LoRaWAN/Mac/region/RegionIN865.c ****     if( id >= IN865_MAX_NB_CHANNELS )
 945:../../../../../../Middlewares/Third_Party/LoRaWAN/Mac/region/RegionIN865.c ****     {
 946:../../../../../../Middlewares/Third_Party/LoRaWAN/Mac/region/RegionIN865.c ****         return LORAMAC_STATUS_PARAMETER_INVALID;
 947:../../../../../../Middlewares/Third_Party/LoRaWAN/Mac/region/RegionIN865.c ****     }
 948:../../../../../../Middlewares/Third_Party/LoRaWAN/Mac/region/RegionIN865.c **** 
 949:../../../../../../Middlewares/Third_Party/LoRaWAN/Mac/region/RegionIN865.c ****     // Validate the datarate range
 950:../../../../../../Middlewares/Third_Party/LoRaWAN/Mac/region/RegionIN865.c ****     if( RegionCommonValueInRange( channelAdd->NewChannel->DrRange.Fields.Min, IN865_TX_MIN_DATARATE
 951:../../../../../../Middlewares/Third_Party/LoRaWAN/Mac/region/RegionIN865.c ****     {
 952:../../../../../../Middlewares/Third_Party/LoRaWAN/Mac/region/RegionIN865.c ****         drInvalid = true;
 953:../../../../../../Middlewares/Third_Party/LoRaWAN/Mac/region/RegionIN865.c ****     }
 954:../../../../../../Middlewares/Third_Party/LoRaWAN/Mac/region/RegionIN865.c ****     if( RegionCommonValueInRange( channelAdd->NewChannel->DrRange.Fields.Max, IN865_TX_MIN_DATARATE
 955:../../../../../../Middlewares/Third_Party/LoRaWAN/Mac/region/RegionIN865.c ****     {
 956:../../../../../../Middlewares/Third_Party/LoRaWAN/Mac/region/RegionIN865.c ****         drInvalid = true;
 957:../../../../../../Middlewares/Third_Party/LoRaWAN/Mac/region/RegionIN865.c ****     }
 958:../../../../../../Middlewares/Third_Party/LoRaWAN/Mac/region/RegionIN865.c ****     if( channelAdd->NewChannel->DrRange.Fields.Min > channelAdd->NewChannel->DrRange.Fields.Max )
 959:../../../../../../Middlewares/Third_Party/LoRaWAN/Mac/region/RegionIN865.c ****     {
 960:../../../../../../Middlewares/Third_Party/LoRaWAN/Mac/region/RegionIN865.c ****         drInvalid = true;
 961:../../../../../../Middlewares/Third_Party/LoRaWAN/Mac/region/RegionIN865.c ****     }
 962:../../../../../../Middlewares/Third_Party/LoRaWAN/Mac/region/RegionIN865.c **** 
 963:../../../../../../Middlewares/Third_Party/LoRaWAN/Mac/region/RegionIN865.c ****     // Check frequency
 964:../../../../../../Middlewares/Third_Party/LoRaWAN/Mac/region/RegionIN865.c ****     if( freqInvalid == false )
 965:../../../../../../Middlewares/Third_Party/LoRaWAN/Mac/region/RegionIN865.c ****     {
 966:../../../../../../Middlewares/Third_Party/LoRaWAN/Mac/region/RegionIN865.c ****         if( VerifyRfFreq( channelAdd->NewChannel->Frequency ) == false )
 967:../../../../../../Middlewares/Third_Party/LoRaWAN/Mac/region/RegionIN865.c ****         {
 968:../../../../../../Middlewares/Third_Party/LoRaWAN/Mac/region/RegionIN865.c ****             freqInvalid = true;
 969:../../../../../../Middlewares/Third_Party/LoRaWAN/Mac/region/RegionIN865.c ****         }
ARM GAS  C:\Users\EBANO_~1\AppData\Local\Temp\ccEfOEMG.s 			page 32


 970:../../../../../../Middlewares/Third_Party/LoRaWAN/Mac/region/RegionIN865.c ****     }
 971:../../../../../../Middlewares/Third_Party/LoRaWAN/Mac/region/RegionIN865.c **** 
 972:../../../../../../Middlewares/Third_Party/LoRaWAN/Mac/region/RegionIN865.c ****     // Check status
 973:../../../../../../Middlewares/Third_Party/LoRaWAN/Mac/region/RegionIN865.c ****     if( ( drInvalid == true ) && ( freqInvalid == true ) )
 974:../../../../../../Middlewares/Third_Party/LoRaWAN/Mac/region/RegionIN865.c ****     {
 975:../../../../../../Middlewares/Third_Party/LoRaWAN/Mac/region/RegionIN865.c ****         return LORAMAC_STATUS_FREQ_AND_DR_INVALID;
 976:../../../../../../Middlewares/Third_Party/LoRaWAN/Mac/region/RegionIN865.c ****     }
 977:../../../../../../Middlewares/Third_Party/LoRaWAN/Mac/region/RegionIN865.c ****     if( drInvalid == true )
 978:../../../../../../Middlewares/Third_Party/LoRaWAN/Mac/region/RegionIN865.c ****     {
 979:../../../../../../Middlewares/Third_Party/LoRaWAN/Mac/region/RegionIN865.c ****         return LORAMAC_STATUS_DATARATE_INVALID;
 980:../../../../../../Middlewares/Third_Party/LoRaWAN/Mac/region/RegionIN865.c ****     }
 981:../../../../../../Middlewares/Third_Party/LoRaWAN/Mac/region/RegionIN865.c ****     if( freqInvalid == true )
 982:../../../../../../Middlewares/Third_Party/LoRaWAN/Mac/region/RegionIN865.c ****     {
 983:../../../../../../Middlewares/Third_Party/LoRaWAN/Mac/region/RegionIN865.c ****         return LORAMAC_STATUS_FREQUENCY_INVALID;
 984:../../../../../../Middlewares/Third_Party/LoRaWAN/Mac/region/RegionIN865.c ****     }
 985:../../../../../../Middlewares/Third_Party/LoRaWAN/Mac/region/RegionIN865.c **** 
 986:../../../../../../Middlewares/Third_Party/LoRaWAN/Mac/region/RegionIN865.c ****     memcpy1( ( uint8_t* ) &(NvmCtx.Channels[id]), ( uint8_t* ) channelAdd->NewChannel, sizeof( NvmC
 987:../../../../../../Middlewares/Third_Party/LoRaWAN/Mac/region/RegionIN865.c ****     NvmCtx.Channels[id].Band = 0;
 988:../../../../../../Middlewares/Third_Party/LoRaWAN/Mac/region/RegionIN865.c ****     NvmCtx.ChannelsMask[0] |= ( 1 << id );
 989:../../../../../../Middlewares/Third_Party/LoRaWAN/Mac/region/RegionIN865.c ****     return LORAMAC_STATUS_OK;
 990:../../../../../../Middlewares/Third_Party/LoRaWAN/Mac/region/RegionIN865.c **** }
 991:../../../../../../Middlewares/Third_Party/LoRaWAN/Mac/region/RegionIN865.c **** 
 992:../../../../../../Middlewares/Third_Party/LoRaWAN/Mac/region/RegionIN865.c **** bool RegionIN865ChannelsRemove( ChannelRemoveParams_t* channelRemove  )
 993:../../../../../../Middlewares/Third_Party/LoRaWAN/Mac/region/RegionIN865.c **** {
 994:../../../../../../Middlewares/Third_Party/LoRaWAN/Mac/region/RegionIN865.c ****     uint8_t id = channelRemove->ChannelId;
 995:../../../../../../Middlewares/Third_Party/LoRaWAN/Mac/region/RegionIN865.c **** 
 996:../../../../../../Middlewares/Third_Party/LoRaWAN/Mac/region/RegionIN865.c ****     if( id < IN865_NUMB_DEFAULT_CHANNELS )
 997:../../../../../../Middlewares/Third_Party/LoRaWAN/Mac/region/RegionIN865.c ****     {
 998:../../../../../../Middlewares/Third_Party/LoRaWAN/Mac/region/RegionIN865.c ****         return false;
 999:../../../../../../Middlewares/Third_Party/LoRaWAN/Mac/region/RegionIN865.c ****     }
1000:../../../../../../Middlewares/Third_Party/LoRaWAN/Mac/region/RegionIN865.c **** 
1001:../../../../../../Middlewares/Third_Party/LoRaWAN/Mac/region/RegionIN865.c ****     // Remove the channel from the list of channels
1002:../../../../../../Middlewares/Third_Party/LoRaWAN/Mac/region/RegionIN865.c ****     NvmCtx.Channels[id] = ( ChannelParams_t ){ 0, 0, { 0 }, 0 };
 725              		.loc 1 1002 0
 726 0032 3F4B     		ldr	r3, .L85
 727              	.LBE35:
 728              	.LBE34:
 729              	.LBE33:
 730 0034 0126     		movs	r6, #1
 731              	.LBB48:
 732              	.LBB38:
 733              	.LBB36:
 734 0036 9946     		mov	r9, r3
 735 0038 3E4B     		ldr	r3, .L85+4
 736              	.LBE36:
 737              	.LBE38:
 738              	.LBE48:
 739 003a 0325     		movs	r5, #3
 740 003c 9B46     		mov	fp, r3
 741 003e 14E0     		b	.L75
 742              	.LVL44:
 743              	.L69:
 744              	.LBB49:
 485:../../../../../../Middlewares/Third_Party/LoRaWAN/Mac/region/RegionIN865.c ****             newChannel.DrRange.Value = 0;
 745              		.loc 1 485 0
 746 0040 0023     		movs	r3, #0
 747              	.LVL45:
ARM GAS  C:\Users\EBANO_~1\AppData\Local\Temp\ccEfOEMG.s 			page 33


 748 0042 2360     		str	r3, [r4]
 486:../../../../../../Middlewares/Third_Party/LoRaWAN/Mac/region/RegionIN865.c ****             newChannel.Rx1Frequency = 0;
 749              		.loc 1 486 0
 750 0044 2372     		strb	r3, [r4, #8]
 487:../../../../../../Middlewares/Third_Party/LoRaWAN/Mac/region/RegionIN865.c ****         }
 751              		.loc 1 487 0
 752 0046 6360     		str	r3, [r4, #4]
 753              	.L71:
 754              	.LVL46:
 755              	.LBB39:
 756              	.LBB37:
 757              		.loc 1 1002 0
 758 0048 6800     		lsls	r0, r5, #1
 759 004a 4019     		adds	r0, r0, r5
 760 004c 8000     		lsls	r0, r0, #2
 761 004e 0C22     		movs	r2, #12
 762 0050 0021     		movs	r1, #0
 763 0052 4844     		add	r0, r0, r9
 764 0054 FFF7FEFF 		bl	memset
 765              	.LVL47:
1003:../../../../../../Middlewares/Third_Party/LoRaWAN/Mac/region/RegionIN865.c **** 
1004:../../../../../../Middlewares/Third_Party/LoRaWAN/Mac/region/RegionIN865.c ****     return RegionCommonChanDisable( NvmCtx.ChannelsMask, id, IN865_MAX_NB_CHANNELS );
 766              		.loc 1 1004 0
 767 0058 1022     		movs	r2, #16
 768 005a 4146     		mov	r1, r8
 769 005c 3648     		ldr	r0, .L85+8
 770 005e FFF7FEFF 		bl	RegionCommonChanDisable
 771              	.LVL48:
 772              	.L73:
 773 0062 0336     		adds	r6, r6, #3
 774              	.LVL49:
 775 0064 0135     		adds	r5, r5, #1
 776              	.LVL50:
 777              	.LBE37:
 778              	.LBE39:
 470:../../../../../../Middlewares/Third_Party/LoRaWAN/Mac/region/RegionIN865.c ****     {
 779              		.loc 1 470 0 discriminator 2
 780 0066 282E     		cmp	r6, #40
 781 0068 D8D0     		beq	.L67
 782              	.L75:
 783 006a EBB2     		uxtb	r3, r5
 784 006c 9846     		mov	r8, r3
 785              	.LVL51:
 472:../../../../../../Middlewares/Third_Party/LoRaWAN/Mac/region/RegionIN865.c ****         {
 786              		.loc 1 472 0
 787 006e 072D     		cmp	r5, #7
 788 0070 E6D8     		bhi	.L69
 475:../../../../../../Middlewares/Third_Party/LoRaWAN/Mac/region/RegionIN865.c ****             newChannel.Frequency |= ( (uint32_t) applyCFList->Payload[i + 1] << 8 );
 789              		.loc 1 475 0
 790 0072 3B68     		ldr	r3, [r7]
 791              	.LVL52:
 792 0074 9A19     		adds	r2, r3, r6
 793 0076 511E     		subs	r1, r2, #1
 794 0078 0978     		ldrb	r1, [r1]
 795 007a 2160     		str	r1, [r4]
 476:../../../../../../Middlewares/Third_Party/LoRaWAN/Mac/region/RegionIN865.c ****             newChannel.Frequency |= ( (uint32_t) applyCFList->Payload[i + 2] << 16 );
 796              		.loc 1 476 0
ARM GAS  C:\Users\EBANO_~1\AppData\Local\Temp\ccEfOEMG.s 			page 34


 797 007c 9B5D     		ldrb	r3, [r3, r6]
 798 007e 1B02     		lsls	r3, r3, #8
 799 0080 0B43     		orrs	r3, r1
 800 0082 2360     		str	r3, [r4]
 477:../../../../../../Middlewares/Third_Party/LoRaWAN/Mac/region/RegionIN865.c ****             newChannel.Frequency *= 100;
 801              		.loc 1 477 0
 802 0084 5278     		ldrb	r2, [r2, #1]
 803 0086 1204     		lsls	r2, r2, #16
 804 0088 1343     		orrs	r3, r2
 478:../../../../../../Middlewares/Third_Party/LoRaWAN/Mac/region/RegionIN865.c **** 
 805              		.loc 1 478 0
 806 008a 6422     		movs	r2, #100
 807 008c 5343     		muls	r3, r2
 481:../../../../../../Middlewares/Third_Party/LoRaWAN/Mac/region/RegionIN865.c ****         }
 808              		.loc 1 481 0
 809 008e 0022     		movs	r2, #0
 478:../../../../../../Middlewares/Third_Party/LoRaWAN/Mac/region/RegionIN865.c **** 
 810              		.loc 1 478 0
 811 0090 2360     		str	r3, [r4]
 481:../../../../../../Middlewares/Third_Party/LoRaWAN/Mac/region/RegionIN865.c ****         }
 812              		.loc 1 481 0
 813 0092 6260     		str	r2, [r4, #4]
 490:../../../../../../Middlewares/Third_Party/LoRaWAN/Mac/region/RegionIN865.c ****         {
 814              		.loc 1 490 0
 815 0094 002B     		cmp	r3, #0
 816 0096 D7D0     		beq	.L71
 817              	.LVL53:
 818              	.LBB40:
 819              	.LBB41:
 950:../../../../../../Middlewares/Third_Party/LoRaWAN/Mac/region/RegionIN865.c ****     {
 820              		.loc 1 950 0
 821 0098 207A     		ldrb	r0, [r4, #8]
 822 009a 0722     		movs	r2, #7
 823 009c 0007     		lsls	r0, r0, #28
 824 009e 0021     		movs	r1, #0
 825 00a0 0017     		asrs	r0, r0, #28
 826 00a2 FFF7FEFF 		bl	RegionCommonValueInRange
 827              	.LVL54:
 828 00a6 8046     		mov	r8, r0
 829              	.LVL55:
 954:../../../../../../Middlewares/Third_Party/LoRaWAN/Mac/region/RegionIN865.c ****     {
 830              		.loc 1 954 0
 831 00a8 0820     		movs	r0, #8
 832 00aa 2056     		ldrsb	r0, [r4, r0]
 833 00ac 0722     		movs	r2, #7
 834 00ae 0011     		asrs	r0, r0, #4
 835 00b0 0021     		movs	r1, #0
 836 00b2 FFF7FEFF 		bl	RegionCommonValueInRange
 837              	.LVL56:
 956:../../../../../../Middlewares/Third_Party/LoRaWAN/Mac/region/RegionIN865.c ****     }
 838              		.loc 1 956 0
 839 00b6 0123     		movs	r3, #1
 840 00b8 9A46     		mov	r10, r3
 954:../../../../../../Middlewares/Third_Party/LoRaWAN/Mac/region/RegionIN865.c ****     {
 841              		.loc 1 954 0
 842 00ba 0028     		cmp	r0, #0
 843 00bc 04D0     		beq	.L76
ARM GAS  C:\Users\EBANO_~1\AppData\Local\Temp\ccEfOEMG.s 			page 35


 950:../../../../../../Middlewares/Third_Party/LoRaWAN/Mac/region/RegionIN865.c ****     {
 844              		.loc 1 950 0
 845 00be 4346     		mov	r3, r8
 846 00c0 5A42     		rsbs	r2, r3, #0
 847 00c2 5341     		adcs	r3, r3, r2
 848 00c4 DBB2     		uxtb	r3, r3
 849 00c6 9A46     		mov	r10, r3
 850              	.L76:
 851              	.LVL57:
 852 00c8 2368     		ldr	r3, [r4]
 853 00ca 9846     		mov	r8, r3
 854 00cc 5B46     		mov	r3, fp
 855 00ce 9B6A     		ldr	r3, [r3, #40]
 856              	.LBB42:
 857              	.LBB43:
 115:../../../../../../Middlewares/Third_Party/LoRaWAN/Mac/region/RegionIN865.c ****     {
 858              		.loc 1 115 0
 859 00d0 4046     		mov	r0, r8
 860 00d2 0193     		str	r3, [sp, #4]
 861              	.LBE43:
 862              	.LBE42:
 958:../../../../../../Middlewares/Third_Party/LoRaWAN/Mac/region/RegionIN865.c ****     {
 863              		.loc 1 958 0
 864 00d4 237A     		ldrb	r3, [r4, #8]
 865 00d6 1A07     		lsls	r2, r3, #28
 866 00d8 5BB2     		sxtb	r3, r3
 867 00da 1217     		asrs	r2, r2, #28
 868 00dc 1B11     		asrs	r3, r3, #4
 869 00de 9A42     		cmp	r2, r3
 870 00e0 23DC     		bgt	.L72
 871              	.LVL58:
 872              	.LBB46:
 873              	.LBB44:
 115:../../../../../../Middlewares/Third_Party/LoRaWAN/Mac/region/RegionIN865.c ****     {
 874              		.loc 1 115 0
 875 00e2 019B     		ldr	r3, [sp, #4]
 876 00e4 9847     		blx	r3
 877              	.LVL59:
 878 00e6 0028     		cmp	r0, #0
 879 00e8 BBD0     		beq	.L73
 120:../../../../../../Middlewares/Third_Party/LoRaWAN/Mac/region/RegionIN865.c ****     {
 880              		.loc 1 120 0
 881 00ea 144A     		ldr	r2, .L85+12
 882 00ec 144B     		ldr	r3, .L85+16
 883 00ee 4244     		add	r2, r2, r8
 884 00f0 9A42     		cmp	r2, r3
 885 00f2 B6D8     		bhi	.L73
 886              	.LBE44:
 887              	.LBE46:
 973:../../../../../../Middlewares/Third_Party/LoRaWAN/Mac/region/RegionIN865.c ****     {
 888              		.loc 1 973 0
 889 00f4 5346     		mov	r3, r10
 890 00f6 002B     		cmp	r3, #0
 891 00f8 B3D1     		bne	.L73
 986:../../../../../../Middlewares/Third_Party/LoRaWAN/Mac/region/RegionIN865.c ****     NvmCtx.Channels[id].Band = 0;
 892              		.loc 1 986 0
 893 00fa 0D4B     		ldr	r3, .L85
ARM GAS  C:\Users\EBANO_~1\AppData\Local\Temp\ccEfOEMG.s 			page 36


 894 00fc 6800     		lsls	r0, r5, #1
 895 00fe 9846     		mov	r8, r3
 896 0100 4019     		adds	r0, r0, r5
 897 0102 8000     		lsls	r0, r0, #2
 898 0104 0C22     		movs	r2, #12
 899 0106 2100     		movs	r1, r4
 900 0108 4044     		add	r0, r0, r8
 901 010a FFF7FEFF 		bl	memcpy1
 902              	.LVL60:
 987:../../../../../../Middlewares/Third_Party/LoRaWAN/Mac/region/RegionIN865.c ****     NvmCtx.ChannelsMask[0] |= ( 1 << id );
 903              		.loc 1 987 0
 904 010e 4246     		mov	r2, r8
 905 0110 5146     		mov	r1, r10
 906 0112 B300     		lsls	r3, r6, #2
 907 0114 2933     		adds	r3, r3, #41
 908 0116 D154     		strb	r1, [r2, r3]
 988:../../../../../../Middlewares/Third_Party/LoRaWAN/Mac/region/RegionIN865.c ****     return LORAMAC_STATUS_OK;
 909              		.loc 1 988 0
 910 0118 0122     		movs	r2, #1
 911 011a D021     		movs	r1, #208
 912 011c 4346     		mov	r3, r8
 913 011e AA40     		lsls	r2, r2, r5
 914 0120 5B5A     		ldrh	r3, [r3, r1]
 915 0122 1343     		orrs	r3, r2
 916 0124 4246     		mov	r2, r8
 917 0126 5352     		strh	r3, [r2, r1]
 918 0128 9BE7     		b	.L73
 919              	.L72:
 920              	.LVL61:
 921              	.LBB47:
 922              	.LBB45:
 115:../../../../../../Middlewares/Third_Party/LoRaWAN/Mac/region/RegionIN865.c ****     {
 923              		.loc 1 115 0
 924 012a 019B     		ldr	r3, [sp, #4]
 925 012c 9847     		blx	r3
 926              	.LVL62:
 927 012e 98E7     		b	.L73
 928              	.L86:
 929              		.align	2
 930              	.L85:
 931 0130 00000000 		.word	NvmCtx
 932 0134 00000000 		.word	Radio
 933 0138 D0000000 		.word	NvmCtx+208
 934 013c C02571CC 		.word	-865000000
 935 0140 80841E00 		.word	2000000
 936              	.LBE45:
 937              	.LBE47:
 938              	.LBE41:
 939              	.LBE40:
 940              	.LBE49:
 941              		.cfi_endproc
 942              	.LFE49:
 943              		.size	RegionIN865ApplyCFList, .-RegionIN865ApplyCFList
 944              		.section	.text.RegionIN865ChanMaskSet,"ax",%progbits
 945              		.align	1
 946              		.p2align 2,,3
 947              		.global	RegionIN865ChanMaskSet
ARM GAS  C:\Users\EBANO_~1\AppData\Local\Temp\ccEfOEMG.s 			page 37


 948              		.syntax unified
 949              		.code	16
 950              		.thumb_func
 951              		.fpu softvfp
 952              		.type	RegionIN865ChanMaskSet, %function
 953              	RegionIN865ChanMaskSet:
 954              	.LFB50:
 508:../../../../../../Middlewares/Third_Party/LoRaWAN/Mac/region/RegionIN865.c ****     switch( chanMaskSet->ChannelsMaskType )
 955              		.loc 1 508 0
 956              		.cfi_startproc
 957              		@ args = 0, pretend = 0, frame = 0
 958              		@ frame_needed = 0, uses_anonymous_args = 0
 959              	.LVL63:
 960 0000 10B5     		push	{r4, lr}
 961              	.LCFI9:
 962              		.cfi_def_cfa_offset 8
 963              		.cfi_offset 4, -8
 964              		.cfi_offset 14, -4
 509:../../../../../../Middlewares/Third_Party/LoRaWAN/Mac/region/RegionIN865.c ****     {
 965              		.loc 1 509 0
 966 0002 0379     		ldrb	r3, [r0, #4]
 967 0004 002B     		cmp	r3, #0
 968 0006 0AD0     		beq	.L89
 969 0008 012B     		cmp	r3, #1
 970 000a 01D0     		beq	.L90
 522:../../../../../../Middlewares/Third_Party/LoRaWAN/Mac/region/RegionIN865.c ****     }
 971              		.loc 1 522 0
 972 000c 0020     		movs	r0, #0
 973              	.LVL64:
 974              	.L88:
 525:../../../../../../Middlewares/Third_Party/LoRaWAN/Mac/region/RegionIN865.c **** 
 975              		.loc 1 525 0
 976              		@ sp needed
 977 000e 10BD     		pop	{r4, pc}
 978              	.LVL65:
 979              	.L90:
 518:../../../../../../Middlewares/Third_Party/LoRaWAN/Mac/region/RegionIN865.c ****             break;
 980              		.loc 1 518 0
 981 0010 0168     		ldr	r1, [r0]
 982 0012 0122     		movs	r2, #1
 983 0014 0548     		ldr	r0, .L93
 984              	.LVL66:
 985 0016 FFF7FEFF 		bl	RegionCommonChanMaskCopy
 986              	.LVL67:
 524:../../../../../../Middlewares/Third_Party/LoRaWAN/Mac/region/RegionIN865.c **** }
 987              		.loc 1 524 0
 988 001a 0120     		movs	r0, #1
 519:../../../../../../Middlewares/Third_Party/LoRaWAN/Mac/region/RegionIN865.c ****         }
 989              		.loc 1 519 0
 990 001c F7E7     		b	.L88
 991              	.LVL68:
 992              	.L89:
 513:../../../../../../Middlewares/Third_Party/LoRaWAN/Mac/region/RegionIN865.c ****             break;
 993              		.loc 1 513 0
 994 001e 0168     		ldr	r1, [r0]
 995 0020 0122     		movs	r2, #1
 996 0022 0348     		ldr	r0, .L93+4
ARM GAS  C:\Users\EBANO_~1\AppData\Local\Temp\ccEfOEMG.s 			page 38


 997              	.LVL69:
 998 0024 FFF7FEFF 		bl	RegionCommonChanMaskCopy
 999              	.LVL70:
 524:../../../../../../Middlewares/Third_Party/LoRaWAN/Mac/region/RegionIN865.c **** }
 1000              		.loc 1 524 0
 1001 0028 0120     		movs	r0, #1
 514:../../../../../../Middlewares/Third_Party/LoRaWAN/Mac/region/RegionIN865.c ****         }
 1002              		.loc 1 514 0
 1003 002a F0E7     		b	.L88
 1004              	.L94:
 1005              		.align	2
 1006              	.L93:
 1007 002c D2000000 		.word	NvmCtx+210
 1008 0030 D0000000 		.word	NvmCtx+208
 1009              		.cfi_endproc
 1010              	.LFE50:
 1011              		.size	RegionIN865ChanMaskSet, .-RegionIN865ChanMaskSet
 1012              		.section	.text.RegionIN865ComputeRxWindowParameters,"ax",%progbits
 1013              		.align	1
 1014              		.p2align 2,,3
 1015              		.global	RegionIN865ComputeRxWindowParameters
 1016              		.syntax unified
 1017              		.code	16
 1018              		.thumb_func
 1019              		.fpu softvfp
 1020              		.type	RegionIN865ComputeRxWindowParameters, %function
 1021              	RegionIN865ComputeRxWindowParameters:
 1022              	.LFB51:
 528:../../../../../../Middlewares/Third_Party/LoRaWAN/Mac/region/RegionIN865.c ****     double tSymbol = 0.0;
 1023              		.loc 1 528 0
 1024              		.cfi_startproc
 1025              		@ args = 0, pretend = 0, frame = 8
 1026              		@ frame_needed = 0, uses_anonymous_args = 0
 1027              	.LVL71:
 1028 0000 F0B5     		push	{r4, r5, r6, r7, lr}
 1029              	.LCFI10:
 1030              		.cfi_def_cfa_offset 20
 1031              		.cfi_offset 4, -20
 1032              		.cfi_offset 5, -16
 1033              		.cfi_offset 6, -12
 1034              		.cfi_offset 7, -8
 1035              		.cfi_offset 14, -4
 1036 0002 C646     		mov	lr, r8
 1037 0004 00B5     		push	{lr}
 1038              	.LCFI11:
 1039              		.cfi_def_cfa_offset 24
 1040              		.cfi_offset 8, -24
 1041 0006 1C00     		movs	r4, r3
 1042 0008 86B0     		sub	sp, sp, #24
 1043              	.LCFI12:
 1044              		.cfi_def_cfa_offset 48
 528:../../../../../../Middlewares/Third_Party/LoRaWAN/Mac/region/RegionIN865.c ****     double tSymbol = 0.0;
 1045              		.loc 1 528 0
 1046 000a 0D00     		movs	r5, r1
 1047 000c 9046     		mov	r8, r2
 532:../../../../../../Middlewares/Third_Party/LoRaWAN/Mac/region/RegionIN865.c ****     rxConfigParams->Bandwidth = GetBandwidth( rxConfigParams->Datarate );
 1048              		.loc 1 532 0
ARM GAS  C:\Users\EBANO_~1\AppData\Local\Temp\ccEfOEMG.s 			page 39


 1049 000e 031C     		adds	r3, r0, #0
 1050              	.LVL72:
 1051 0010 0728     		cmp	r0, #7
 1052 0012 00DD     		ble	.L96
 1053 0014 0723     		movs	r3, #7
 1054              	.L96:
 1055 0016 5EB2     		sxtb	r6, r3
 1056              	.LBB50:
 1057              	.LBB51:
  90:../../../../../../Middlewares/Third_Party/LoRaWAN/Mac/region/RegionIN865.c ****     {
 1058              		.loc 1 90 0
 1059 0018 1A4A     		ldr	r2, .L104
 1060              	.LVL73:
 1061 001a B100     		lsls	r1, r6, #2
 1062              	.LVL74:
 1063              	.LBE51:
 1064              	.LBE50:
 532:../../../../../../Middlewares/Third_Party/LoRaWAN/Mac/region/RegionIN865.c ****     rxConfigParams->Bandwidth = GetBandwidth( rxConfigParams->Datarate );
 1065              		.loc 1 532 0
 1066 001c 6370     		strb	r3, [r4, #1]
 1067              	.LVL75:
 1068              	.LBB54:
 1069              	.LBB52:
  90:../../../../../../Middlewares/Third_Party/LoRaWAN/Mac/region/RegionIN865.c ****     {
 1070              		.loc 1 90 0
 1071 001e 1A4F     		ldr	r7, .L104+4
 1072 0020 5358     		ldr	r3, [r2, r1]
 1073 0022 BB42     		cmp	r3, r7
 1074 0024 24D0     		beq	.L102
 1075 0026 194F     		ldr	r7, .L104+8
 1076 0028 BC46     		mov	ip, r7
 1077 002a 6344     		add	r3, r3, ip
 1078 002c 5F42     		rsbs	r7, r3, #0
 1079 002e 7B41     		adcs	r3, r3, r7
 1080 0030 5B00     		lsls	r3, r3, #1
 1081              	.LBE52:
 1082              	.LBE54:
 533:../../../../../../Middlewares/Third_Party/LoRaWAN/Mac/region/RegionIN865.c **** 
 1083              		.loc 1 533 0
 1084 0032 A370     		strb	r3, [r4, #2]
 535:../../../../../../Middlewares/Third_Party/LoRaWAN/Mac/region/RegionIN865.c ****     { // FSK
 1085              		.loc 1 535 0
 1086 0034 0628     		cmp	r0, #6
 1087 0036 1FDC     		bgt	.L103
 1088              	.L100:
 541:../../../../../../Middlewares/Third_Party/LoRaWAN/Mac/region/RegionIN865.c ****     }
 1089              		.loc 1 541 0
 1090 0038 2023     		movs	r3, #32
 1091 003a 5158     		ldr	r1, [r2, r1]
 1092 003c 9219     		adds	r2, r2, r6
 1093 003e D05C     		ldrb	r0, [r2, r3]
 1094              	.LVL76:
 1095 0040 FFF7FEFF 		bl	RegionCommonComputeSymbolTimeLoRa
 1096              	.LVL77:
 1097 0044 0600     		movs	r6, r0
 1098 0046 0F00     		movs	r7, r1
 1099              	.LVL78:
ARM GAS  C:\Users\EBANO_~1\AppData\Local\Temp\ccEfOEMG.s 			page 40


 1100              	.L101:
 544:../../../../../../Middlewares/Third_Party/LoRaWAN/Mac/region/RegionIN865.c **** }
 1101              		.loc 1 544 0
 1102 0048 114B     		ldr	r3, .L104+12
 1103 004a 5B6E     		ldr	r3, [r3, #100]
 1104 004c 0593     		str	r3, [sp, #20]
 1105 004e 9847     		blx	r3
 1106              	.LVL79:
 1107 0050 2300     		movs	r3, r4
 1108 0052 0834     		adds	r4, r4, #8
 1109              	.LVL80:
 1110 0054 0C33     		adds	r3, r3, #12
 1111              	.LVL81:
 1112 0056 0293     		str	r3, [sp, #8]
 1113 0058 0090     		str	r0, [sp]
 1114 005a 0194     		str	r4, [sp, #4]
 1115 005c 4346     		mov	r3, r8
 1116              	.LVL82:
 1117 005e 2A00     		movs	r2, r5
 1118 0060 3000     		movs	r0, r6
 1119 0062 3900     		movs	r1, r7
 1120 0064 FFF7FEFF 		bl	RegionCommonComputeRxWindowParameters
 1121              	.LVL83:
 545:../../../../../../Middlewares/Third_Party/LoRaWAN/Mac/region/RegionIN865.c **** 
 1122              		.loc 1 545 0
 1123 0068 06B0     		add	sp, sp, #24
 1124              		@ sp needed
 1125              	.LVL84:
 1126              	.LVL85:
 1127              	.LVL86:
 1128 006a 04BC     		pop	{r2}
 1129 006c 9046     		mov	r8, r2
 1130 006e F0BD     		pop	{r4, r5, r6, r7, pc}
 1131              	.LVL87:
 1132              	.L102:
 1133              	.LBB55:
 1134              	.LBB53:
  90:../../../../../../Middlewares/Third_Party/LoRaWAN/Mac/region/RegionIN865.c ****     {
 1135              		.loc 1 90 0
 1136 0070 0123     		movs	r3, #1
 1137              	.LBE53:
 1138              	.LBE55:
 533:../../../../../../Middlewares/Third_Party/LoRaWAN/Mac/region/RegionIN865.c **** 
 1139              		.loc 1 533 0
 1140 0072 A370     		strb	r3, [r4, #2]
 535:../../../../../../Middlewares/Third_Party/LoRaWAN/Mac/region/RegionIN865.c ****     { // FSK
 1141              		.loc 1 535 0
 1142 0074 0628     		cmp	r0, #6
 1143 0076 DFDD     		ble	.L100
 1144              	.L103:
 537:../../../../../../Middlewares/Third_Party/LoRaWAN/Mac/region/RegionIN865.c ****     }
 1145              		.loc 1 537 0
 1146 0078 3220     		movs	r0, #50
 1147              	.LVL88:
 1148 007a FFF7FEFF 		bl	RegionCommonComputeSymbolTimeFsk
 1149              	.LVL89:
 1150 007e 0600     		movs	r6, r0
ARM GAS  C:\Users\EBANO_~1\AppData\Local\Temp\ccEfOEMG.s 			page 41


 1151 0080 0F00     		movs	r7, r1
 1152              	.LVL90:
 1153 0082 E1E7     		b	.L101
 1154              	.L105:
 1155              		.align	2
 1156              	.L104:
 1157 0084 D8000000 		.word	.LANCHOR1
 1158 0088 90D00300 		.word	250000
 1159 008c E05EF8FF 		.word	-500000
 1160 0090 00000000 		.word	Radio
 1161              		.cfi_endproc
 1162              	.LFE51:
 1163              		.size	RegionIN865ComputeRxWindowParameters, .-RegionIN865ComputeRxWindowParameters
 1164              		.section	.text.RegionIN865RxConfig,"ax",%progbits
 1165              		.align	1
 1166              		.p2align 2,,3
 1167              		.global	RegionIN865RxConfig
 1168              		.syntax unified
 1169              		.code	16
 1170              		.thumb_func
 1171              		.fpu softvfp
 1172              		.type	RegionIN865RxConfig, %function
 1173              	RegionIN865RxConfig:
 1174              	.LFB52:
 548:../../../../../../Middlewares/Third_Party/LoRaWAN/Mac/region/RegionIN865.c ****     RadioModems_t modem;
 1175              		.loc 1 548 0
 1176              		.cfi_startproc
 1177              		@ args = 0, pretend = 0, frame = 8
 1178              		@ frame_needed = 0, uses_anonymous_args = 0
 1179              	.LVL91:
 1180 0000 F0B5     		push	{r4, r5, r6, r7, lr}
 1181              	.LCFI13:
 1182              		.cfi_def_cfa_offset 20
 1183              		.cfi_offset 4, -20
 1184              		.cfi_offset 5, -16
 1185              		.cfi_offset 6, -12
 1186              		.cfi_offset 7, -8
 1187              		.cfi_offset 14, -4
 1188 0002 D646     		mov	lr, r10
 1189 0004 4646     		mov	r6, r8
 1190 0006 4F46     		mov	r7, r9
 1191 0008 C0B5     		push	{r6, r7, lr}
 1192              	.LCFI14:
 1193              		.cfi_def_cfa_offset 32
 1194              		.cfi_offset 8, -32
 1195              		.cfi_offset 9, -28
 1196              		.cfi_offset 10, -24
 550:../../../../../../Middlewares/Third_Party/LoRaWAN/Mac/region/RegionIN865.c ****     uint8_t maxPayload = 0;
 1197              		.loc 1 550 0
 1198 000a 0126     		movs	r6, #1
 553:../../../../../../Middlewares/Third_Party/LoRaWAN/Mac/region/RegionIN865.c **** 
 1199              		.loc 1 553 0
 1200 000c 4368     		ldr	r3, [r0, #4]
 555:../../../../../../Middlewares/Third_Party/LoRaWAN/Mac/region/RegionIN865.c ****     {
 1201              		.loc 1 555 0
 1202 000e 394D     		ldr	r5, .L116
 553:../../../../../../Middlewares/Third_Party/LoRaWAN/Mac/region/RegionIN865.c **** 
ARM GAS  C:\Users\EBANO_~1\AppData\Local\Temp\ccEfOEMG.s 			page 42


 1203              		.loc 1 553 0
 1204 0010 9846     		mov	r8, r3
 555:../../../../../../Middlewares/Third_Party/LoRaWAN/Mac/region/RegionIN865.c ****     {
 1205              		.loc 1 555 0
 1206 0012 EB68     		ldr	r3, [r5, #12]
 548:../../../../../../Middlewares/Third_Party/LoRaWAN/Mac/region/RegionIN865.c ****     RadioModems_t modem;
 1207              		.loc 1 548 0
 1208 0014 8CB0     		sub	sp, sp, #48
 1209              	.LCFI15:
 1210              		.cfi_def_cfa_offset 80
 550:../../../../../../Middlewares/Third_Party/LoRaWAN/Mac/region/RegionIN865.c ****     uint8_t maxPayload = 0;
 1211              		.loc 1 550 0
 1212 0016 8657     		ldrsb	r6, [r0, r6]
 1213              	.LVL92:
 548:../../../../../../Middlewares/Third_Party/LoRaWAN/Mac/region/RegionIN865.c ****     RadioModems_t modem;
 1214              		.loc 1 548 0
 1215 0018 0400     		movs	r4, r0
 555:../../../../../../Middlewares/Third_Party/LoRaWAN/Mac/region/RegionIN865.c ****     {
 1216              		.loc 1 555 0
 1217 001a 0B93     		str	r3, [sp, #44]
 548:../../../../../../Middlewares/Third_Party/LoRaWAN/Mac/region/RegionIN865.c ****     RadioModems_t modem;
 1218              		.loc 1 548 0
 1219 001c 8A46     		mov	r10, r1
 555:../../../../../../Middlewares/Third_Party/LoRaWAN/Mac/region/RegionIN865.c ****     {
 1220              		.loc 1 555 0
 1221 001e 9847     		blx	r3
 1222              	.LVL93:
 557:../../../../../../Middlewares/Third_Party/LoRaWAN/Mac/region/RegionIN865.c ****     }
 1223              		.loc 1 557 0
 1224 0020 0023     		movs	r3, #0
 555:../../../../../../Middlewares/Third_Party/LoRaWAN/Mac/region/RegionIN865.c ****     {
 1225              		.loc 1 555 0
 1226 0022 0028     		cmp	r0, #0
 1227 0024 3ED1     		bne	.L107
 560:../../../../../../Middlewares/Third_Party/LoRaWAN/Mac/region/RegionIN865.c ****     {
 1228              		.loc 1 560 0
 1229 0026 E37C     		ldrb	r3, [r4, #19]
 1230 0028 002B     		cmp	r3, #0
 1231 002a 0AD1     		bne	.L108
 563:../../../../../../Middlewares/Third_Party/LoRaWAN/Mac/region/RegionIN865.c ****         // Apply the alternative RX 1 window frequency, if it is available
 1232              		.loc 1 563 0
 1233 002c 2178     		ldrb	r1, [r4]
 1234 002e 324A     		ldr	r2, .L116+4
 1235 0030 4B00     		lsls	r3, r1, #1
 1236 0032 5B18     		adds	r3, r3, r1
 1237 0034 9B00     		lsls	r3, r3, #2
 1238 0036 9958     		ldr	r1, [r3, r2]
 1239              	.LVL94:
 565:../../../../../../Middlewares/Third_Party/LoRaWAN/Mac/region/RegionIN865.c ****         {
 1240              		.loc 1 565 0
 1241 0038 D318     		adds	r3, r2, r3
 1242 003a 5B68     		ldr	r3, [r3, #4]
 1243 003c 9846     		mov	r8, r3
 1244 003e 002B     		cmp	r3, #0
 1245 0040 56D0     		beq	.L114
 1246              	.LVL95:
 1247              	.L108:
ARM GAS  C:\Users\EBANO_~1\AppData\Local\Temp\ccEfOEMG.s 			page 43


 572:../../../../../../Middlewares/Third_Party/LoRaWAN/Mac/region/RegionIN865.c **** 
 1248              		.loc 1 572 0
 1249 0042 2022     		movs	r2, #32
 1250 0044 2D4B     		ldr	r3, .L116+8
 574:../../../../../../Middlewares/Third_Party/LoRaWAN/Mac/region/RegionIN865.c **** 
 1251              		.loc 1 574 0
 1252 0046 4046     		mov	r0, r8
 572:../../../../../../Middlewares/Third_Party/LoRaWAN/Mac/region/RegionIN865.c **** 
 1253              		.loc 1 572 0
 1254 0048 9B19     		adds	r3, r3, r6
 1255 004a 9B56     		ldrsb	r3, [r3, r2]
 1256 004c 9946     		mov	r9, r3
 1257              	.LVL96:
 574:../../../../../../Middlewares/Third_Party/LoRaWAN/Mac/region/RegionIN865.c **** 
 1258              		.loc 1 574 0
 1259 004e 6B69     		ldr	r3, [r5, #20]
 1260 0050 0B93     		str	r3, [sp, #44]
 1261 0052 9847     		blx	r3
 1262              	.LVL97:
 1263 0054 2B6A     		ldr	r3, [r5, #32]
 1264 0056 0B93     		str	r3, [sp, #44]
 1265 0058 1F00     		movs	r7, r3
 577:../../../../../../Middlewares/Third_Party/LoRaWAN/Mac/region/RegionIN865.c ****     {
 1266              		.loc 1 577 0
 1267 005a 072E     		cmp	r6, #7
 1268 005c 2CD0     		beq	.L115
 1269              	.LVL98:
 585:../../../../../../Middlewares/Third_Party/LoRaWAN/Mac/region/RegionIN865.c ****     }
 1270              		.loc 1 585 0
 1271 005e A37C     		ldrb	r3, [r4, #18]
 1272 0060 2289     		ldrh	r2, [r4, #8]
 1273 0062 0993     		str	r3, [sp, #36]
 1274 0064 0123     		movs	r3, #1
 1275 0066 0292     		str	r2, [sp, #8]
 1276 0068 0893     		str	r3, [sp, #32]
 1277 006a 0822     		movs	r2, #8
 1278 006c 0023     		movs	r3, #0
 1279 006e 0192     		str	r2, [sp, #4]
 1280 0070 0793     		str	r3, [sp, #28]
 1281 0072 0693     		str	r3, [sp, #24]
 1282 0074 0593     		str	r3, [sp, #20]
 1283 0076 0493     		str	r3, [sp, #16]
 1284 0078 0393     		str	r3, [sp, #12]
 1285 007a 0093     		str	r3, [sp]
 1286 007c 0120     		movs	r0, #1
 1287 007e A178     		ldrb	r1, [r4, #2]
 1288 0080 0133     		adds	r3, r3, #1
 1289 0082 4A46     		mov	r2, r9
 1290 0084 B847     		blx	r7
 1291              	.LVL99:
 584:../../../../../../Middlewares/Third_Party/LoRaWAN/Mac/region/RegionIN865.c ****         Radio.SetRxConfig( modem, rxConfig->Bandwidth, phyDr, 1, 0, 8, rxConfig->WindowTimeout, fal
 1292              		.loc 1 584 0
 1293 0086 0120     		movs	r0, #1
 1294              	.LVL100:
 1295              	.L110:
 588:../../../../../../Middlewares/Third_Party/LoRaWAN/Mac/region/RegionIN865.c ****     {
 1296              		.loc 1 588 0
ARM GAS  C:\Users\EBANO_~1\AppData\Local\Temp\ccEfOEMG.s 			page 44


 1297 0088 637C     		ldrb	r3, [r4, #17]
 1298 008a 002B     		cmp	r3, #0
 1299 008c 11D0     		beq	.L111
 590:../../../../../../Middlewares/Third_Party/LoRaWAN/Mac/region/RegionIN865.c ****     }
 1300              		.loc 1 590 0
 1301 008e 1C4B     		ldr	r3, .L116+12
 1302 0090 9B19     		adds	r3, r3, r6
 1303 0092 197A     		ldrb	r1, [r3, #8]
 1304              	.LVL101:
 1305              	.L112:
 596:../../../../../../Middlewares/Third_Party/LoRaWAN/Mac/region/RegionIN865.c ****     TVL1( PRINTF( "RX on freq %d Hz at DR %d\n\r", frequency, dr );)
 1306              		.loc 1 596 0
 1307 0094 EB6D     		ldr	r3, [r5, #92]
 1308 0096 0D31     		adds	r1, r1, #13
 1309              	.LVL102:
 1310 0098 C9B2     		uxtb	r1, r1
 1311 009a 0B93     		str	r3, [sp, #44]
 1312 009c 9847     		blx	r3
 1313              	.LVL103:
 599:../../../../../../Middlewares/Third_Party/LoRaWAN/Mac/region/RegionIN865.c ****     return true;
 1314              		.loc 1 599 0
 1315 009e 5346     		mov	r3, r10
 1316 00a0 1E70     		strb	r6, [r3]
 600:../../../../../../Middlewares/Third_Party/LoRaWAN/Mac/region/RegionIN865.c **** }
 1317              		.loc 1 600 0
 1318 00a2 0123     		movs	r3, #1
 1319              	.LVL104:
 1320              	.L107:
 601:../../../../../../Middlewares/Third_Party/LoRaWAN/Mac/region/RegionIN865.c **** 
 1321              		.loc 1 601 0
 1322 00a4 1800     		movs	r0, r3
 1323 00a6 0CB0     		add	sp, sp, #48
 1324              		@ sp needed
 1325              	.LVL105:
 1326              	.LVL106:
 1327              	.LVL107:
 1328              	.LVL108:
 1329 00a8 1CBC     		pop	{r2, r3, r4}
 1330 00aa 9046     		mov	r8, r2
 1331 00ac 9946     		mov	r9, r3
 1332 00ae A246     		mov	r10, r4
 1333 00b0 F0BD     		pop	{r4, r5, r6, r7, pc}
 1334              	.LVL109:
 1335              	.L111:
 594:../../../../../../Middlewares/Third_Party/LoRaWAN/Mac/region/RegionIN865.c ****     }
 1336              		.loc 1 594 0
 1337 00b2 134B     		ldr	r3, .L116+12
 1338 00b4 995D     		ldrb	r1, [r3, r6]
 1339              	.LVL110:
 1340 00b6 EDE7     		b	.L112
 1341              	.LVL111:
 1342              	.L115:
 580:../../../../../../Middlewares/Third_Party/LoRaWAN/Mac/region/RegionIN865.c ****     }
 1343              		.loc 1 580 0
 1344 00b8 4B46     		mov	r3, r9
 1345 00ba 5A01     		lsls	r2, r3, #5
 1346 00bc D21A     		subs	r2, r2, r3
ARM GAS  C:\Users\EBANO_~1\AppData\Local\Temp\ccEfOEMG.s 			page 45


 1347 00be A37C     		ldrb	r3, [r4, #18]
 1348 00c0 0121     		movs	r1, #1
 1349 00c2 0993     		str	r3, [sp, #36]
 1350 00c4 0023     		movs	r3, #0
 1351 00c6 0893     		str	r3, [sp, #32]
 1352 00c8 0793     		str	r3, [sp, #28]
 1353 00ca 0693     		str	r3, [sp, #24]
 1354 00cc 0493     		str	r3, [sp, #16]
 1355 00ce 0393     		str	r3, [sp, #12]
 1356 00d0 2389     		ldrh	r3, [r4, #8]
 1357 00d2 9200     		lsls	r2, r2, #2
 1358 00d4 0293     		str	r3, [sp, #8]
 1359 00d6 0523     		movs	r3, #5
 1360 00d8 0193     		str	r3, [sp, #4]
 1361 00da 0A4B     		ldr	r3, .L116+16
 1362 00dc 4A44     		add	r2, r2, r9
 1363 00de 0591     		str	r1, [sp, #20]
 1364 00e0 0093     		str	r3, [sp]
 1365 00e2 0020     		movs	r0, #0
 1366 00e4 D200     		lsls	r2, r2, #3
 1367 00e6 0023     		movs	r3, #0
 1368 00e8 0749     		ldr	r1, .L116+20
 1369 00ea B847     		blx	r7
 1370              	.LVL112:
 579:../../../../../../Middlewares/Third_Party/LoRaWAN/Mac/region/RegionIN865.c ****         Radio.SetRxConfig( modem, 50000, phyDr * 1000, 0, 83333, 5, rxConfig->WindowTimeout, false,
 1371              		.loc 1 579 0
 1372 00ec 0020     		movs	r0, #0
 1373 00ee CBE7     		b	.L110
 1374              	.LVL113:
 1375              	.L114:
 563:../../../../../../Middlewares/Third_Party/LoRaWAN/Mac/region/RegionIN865.c ****         // Apply the alternative RX 1 window frequency, if it is available
 1376              		.loc 1 563 0
 1377 00f0 8846     		mov	r8, r1
 1378 00f2 A6E7     		b	.L108
 1379              	.L117:
 1380              		.align	2
 1381              	.L116:
 1382 00f4 00000000 		.word	Radio
 1383 00f8 00000000 		.word	NvmCtx
 1384 00fc D8000000 		.word	.LANCHOR1
 1385 0100 08010000 		.word	.LANCHOR0
 1386 0104 85450100 		.word	83333
 1387 0108 50C30000 		.word	50000
 1388              		.cfi_endproc
 1389              	.LFE52:
 1390              		.size	RegionIN865RxConfig, .-RegionIN865RxConfig
 1391              		.section	.text.RegionIN865TxConfig,"ax",%progbits
 1392              		.align	1
 1393              		.p2align 2,,3
 1394              		.global	RegionIN865TxConfig
 1395              		.syntax unified
 1396              		.code	16
 1397              		.thumb_func
 1398              		.fpu softvfp
 1399              		.type	RegionIN865TxConfig, %function
 1400              	RegionIN865TxConfig:
 1401              	.LFB53:
ARM GAS  C:\Users\EBANO_~1\AppData\Local\Temp\ccEfOEMG.s 			page 46


 604:../../../../../../Middlewares/Third_Party/LoRaWAN/Mac/region/RegionIN865.c ****     RadioModems_t modem;
 1402              		.loc 1 604 0
 1403              		.cfi_startproc
 1404              		@ args = 0, pretend = 0, frame = 8
 1405              		@ frame_needed = 0, uses_anonymous_args = 0
 1406              	.LVL114:
 1407 0000 F0B5     		push	{r4, r5, r6, r7, lr}
 1408              	.LCFI16:
 1409              		.cfi_def_cfa_offset 20
 1410              		.cfi_offset 4, -20
 1411              		.cfi_offset 5, -16
 1412              		.cfi_offset 6, -12
 1413              		.cfi_offset 7, -8
 1414              		.cfi_offset 14, -4
 1415 0002 4546     		mov	r5, r8
 1416 0004 5746     		mov	r7, r10
 1417 0006 4E46     		mov	r6, r9
 1418 0008 DE46     		mov	lr, fp
 1419 000a 9046     		mov	r8, r2
 606:../../../../../../Middlewares/Third_Party/LoRaWAN/Mac/region/RegionIN865.c ****     int8_t txPowerLimited = LimitTxPower( txConfig->TxPower, NvmCtx.Bands[NvmCtx.Channels[txConfig-
 1420              		.loc 1 606 0
 1421 000c 0122     		movs	r2, #1
 1422              	.LVL115:
 604:../../../../../../Middlewares/Third_Party/LoRaWAN/Mac/region/RegionIN865.c ****     RadioModems_t modem;
 1423              		.loc 1 604 0
 1424 000e 0400     		movs	r4, r0
 606:../../../../../../Middlewares/Third_Party/LoRaWAN/Mac/region/RegionIN865.c ****     int8_t txPowerLimited = LimitTxPower( txConfig->TxPower, NvmCtx.Bands[NvmCtx.Channels[txConfig-
 1425              		.loc 1 606 0
 1426 0010 2023     		movs	r3, #32
 604:../../../../../../Middlewares/Third_Party/LoRaWAN/Mac/region/RegionIN865.c ****     RadioModems_t modem;
 1427              		.loc 1 604 0
 1428 0012 E0B5     		push	{r5, r6, r7, lr}
 1429              	.LCFI17:
 1430              		.cfi_def_cfa_offset 36
 1431              		.cfi_offset 8, -36
 1432              		.cfi_offset 9, -32
 1433              		.cfi_offset 10, -28
 1434              		.cfi_offset 11, -24
 1435 0014 8DB0     		sub	sp, sp, #52
 1436              	.LCFI18:
 1437              		.cfi_def_cfa_offset 88
 604:../../../../../../Middlewares/Third_Party/LoRaWAN/Mac/region/RegionIN865.c ****     RadioModems_t modem;
 1438              		.loc 1 604 0
 1439 0016 0A91     		str	r1, [sp, #40]
 606:../../../../../../Middlewares/Third_Party/LoRaWAN/Mac/region/RegionIN865.c ****     int8_t txPowerLimited = LimitTxPower( txConfig->TxPower, NvmCtx.Bands[NvmCtx.Channels[txConfig-
 1440              		.loc 1 606 0
 1441 0018 8256     		ldrsb	r2, [r0, r2]
 1442 001a 4149     		ldr	r1, .L127
 1443              	.LVL116:
 607:../../../../../../Middlewares/Third_Party/LoRaWAN/Mac/region/RegionIN865.c ****     uint32_t bandwidth = GetBandwidth( txConfig->Datarate );
 1444              		.loc 1 607 0
 1445 001c 414D     		ldr	r5, .L127+4
 606:../../../../../../Middlewares/Third_Party/LoRaWAN/Mac/region/RegionIN865.c ****     int8_t txPowerLimited = LimitTxPower( txConfig->TxPower, NvmCtx.Bands[NvmCtx.Channels[txConfig-
 1446              		.loc 1 606 0
 1447 001e 8818     		adds	r0, r1, r2
 1448              	.LVL117:
 1449 0020 C656     		ldrsb	r6, [r0, r3]
ARM GAS  C:\Users\EBANO_~1\AppData\Local\Temp\ccEfOEMG.s 			page 47


 1450              	.LVL118:
 607:../../../../../../Middlewares/Third_Party/LoRaWAN/Mac/region/RegionIN865.c ****     uint32_t bandwidth = GetBandwidth( txConfig->Datarate );
 1451              		.loc 1 607 0
 1452 0022 2078     		ldrb	r0, [r4]
 1453              	.LVL119:
 1454 0024 4300     		lsls	r3, r0, #1
 1455 0026 1B18     		adds	r3, r3, r0
 1456              	.LBB56:
 1457              	.LBB57:
 107:../../../../../../Middlewares/Third_Party/LoRaWAN/Mac/region/RegionIN865.c **** 
 1458              		.loc 1 107 0
 1459 0028 A078     		ldrb	r0, [r4, #2]
 1460              	.LVL120:
 1461              	.LBE57:
 1462              	.LBE56:
 607:../../../../../../Middlewares/Third_Party/LoRaWAN/Mac/region/RegionIN865.c ****     uint32_t bandwidth = GetBandwidth( txConfig->Datarate );
 1463              		.loc 1 607 0
 1464 002a 9B00     		lsls	r3, r3, #2
 1465              	.LBB62:
 1466              	.LBB58:
 107:../../../../../../Middlewares/Third_Party/LoRaWAN/Mac/region/RegionIN865.c **** 
 1467              		.loc 1 107 0
 1468 002c 8446     		mov	ip, r0
 1469 002e 6746     		mov	r7, ip
 1470              	.LBE58:
 1471              	.LBE62:
 607:../../../../../../Middlewares/Third_Party/LoRaWAN/Mac/region/RegionIN865.c ****     uint32_t bandwidth = GetBandwidth( txConfig->Datarate );
 1472              		.loc 1 607 0
 1473 0030 EB18     		adds	r3, r5, r3
 1474 0032 5B7A     		ldrb	r3, [r3, #9]
 1475              	.LBB63:
 1476              	.LBB59:
 107:../../../../../../Middlewares/Third_Party/LoRaWAN/Mac/region/RegionIN865.c **** 
 1477              		.loc 1 107 0
 1478 0034 7FB2     		sxtb	r7, r7
 1479              	.LBE59:
 1480              	.LBE63:
 607:../../../../../../Middlewares/Third_Party/LoRaWAN/Mac/region/RegionIN865.c ****     uint32_t bandwidth = GetBandwidth( txConfig->Datarate );
 1481              		.loc 1 607 0
 1482 0036 0C33     		adds	r3, r3, #12
 1483 0038 1B01     		lsls	r3, r3, #4
 1484 003a EB18     		adds	r3, r5, r3
 1485              	.LBB64:
 1486              	.LBB60:
 107:../../../../../../Middlewares/Third_Party/LoRaWAN/Mac/region/RegionIN865.c **** 
 1487              		.loc 1 107 0
 1488 003c 9B78     		ldrb	r3, [r3, #2]
 1489 003e 181C     		adds	r0, r3, #0
 1490 0040 5BB2     		sxtb	r3, r3
 1491 0042 BB42     		cmp	r3, r7
 1492 0044 00DA     		bge	.L119
 1493 0046 6046     		mov	r0, ip
 1494              	.L119:
 1495 0048 43B2     		sxtb	r3, r0
 1496              	.LBE60:
 1497              	.LBE64:
 1498              	.LBB65:
ARM GAS  C:\Users\EBANO_~1\AppData\Local\Temp\ccEfOEMG.s 			page 48


 1499              	.LBB66:
  90:../../../../../../Middlewares/Third_Party/LoRaWAN/Mac/region/RegionIN865.c ****     {
 1500              		.loc 1 90 0
 1501 004a 9200     		lsls	r2, r2, #2
 1502              	.LVL121:
 1503              	.LBE66:
 1504              	.LBE65:
 1505              	.LBB69:
 1506              	.LBB61:
 107:../../../../../../Middlewares/Third_Party/LoRaWAN/Mac/region/RegionIN865.c **** 
 1507              		.loc 1 107 0
 1508 004c 9946     		mov	r9, r3
 1509              	.LVL122:
 1510              	.LBE61:
 1511              	.LBE69:
 1512              	.LBB70:
 1513              	.LBB67:
  90:../../../../../../Middlewares/Third_Party/LoRaWAN/Mac/region/RegionIN865.c ****     {
 1514              		.loc 1 90 0
 1515 004e 8B58     		ldr	r3, [r1, r2]
 1516 0050 354A     		ldr	r2, .L127+8
 1517 0052 9342     		cmp	r3, r2
 1518 0054 46D0     		beq	.L125
  94:../../../../../../Middlewares/Third_Party/LoRaWAN/Mac/region/RegionIN865.c ****         case 250000:
 1519              		.loc 1 94 0
 1520 0056 354A     		ldr	r2, .L127+12
 1521 0058 9446     		mov	ip, r2
 1522 005a 6344     		add	r3, r3, ip
 1523 005c 5A42     		rsbs	r2, r3, #0
 1524 005e 5341     		adcs	r3, r3, r2
 1525 0060 5B00     		lsls	r3, r3, #1
 1526 0062 9A46     		mov	r10, r3
 1527              	.L121:
 1528              	.LVL123:
 1529              	.LBE67:
 1530              	.LBE70:
 612:../../../../../../Middlewares/Third_Party/LoRaWAN/Mac/region/RegionIN865.c **** 
 1531              		.loc 1 612 0
 1532 0064 A268     		ldr	r2, [r4, #8]
 1533 0066 6168     		ldr	r1, [r4, #4]
 1534 0068 4846     		mov	r0, r9
 1535 006a FFF7FEFF 		bl	RegionCommonComputeTxPower
 1536              	.LVL124:
 615:../../../../../../Middlewares/Third_Party/LoRaWAN/Mac/region/RegionIN865.c **** 
 1537              		.loc 1 615 0
 1538 006e 2278     		ldrb	r2, [r4]
 612:../../../../../../Middlewares/Third_Party/LoRaWAN/Mac/region/RegionIN865.c **** 
 1539              		.loc 1 612 0
 1540 0070 8346     		mov	fp, r0
 1541              	.LVL125:
 615:../../../../../../Middlewares/Third_Party/LoRaWAN/Mac/region/RegionIN865.c **** 
 1542              		.loc 1 615 0
 1543 0072 5300     		lsls	r3, r2, #1
 1544 0074 9B18     		adds	r3, r3, r2
 1545 0076 9B00     		lsls	r3, r3, #2
 1546 0078 E858     		ldr	r0, [r5, r3]
 1547 007a 2D4D     		ldr	r5, .L127+16
ARM GAS  C:\Users\EBANO_~1\AppData\Local\Temp\ccEfOEMG.s 			page 49


 1548 007c 6B69     		ldr	r3, [r5, #20]
 1549 007e 0B93     		str	r3, [sp, #44]
 1550 0080 9847     		blx	r3
 1551              	.LVL126:
 1552 0082 6B6A     		ldr	r3, [r5, #36]
 1553 0084 0B93     		str	r3, [sp, #44]
 617:../../../../../../Middlewares/Third_Party/LoRaWAN/Mac/region/RegionIN865.c ****     { // High Speed FSK channel
 1554              		.loc 1 617 0
 1555 0086 0123     		movs	r3, #1
 1556 0088 E356     		ldrsb	r3, [r4, r3]
 1557 008a 072B     		cmp	r3, #7
 1558 008c 2DD0     		beq	.L126
 1559              	.LVL127:
 625:../../../../../../Middlewares/Third_Party/LoRaWAN/Mac/region/RegionIN865.c ****     }
 1560              		.loc 1 625 0
 1561 008e 294B     		ldr	r3, .L127+20
 1562 0090 0122     		movs	r2, #1
 1563 0092 0893     		str	r3, [sp, #32]
 1564 0094 0023     		movs	r3, #0
 1565 0096 0793     		str	r3, [sp, #28]
 1566 0098 0693     		str	r3, [sp, #24]
 1567 009a 0593     		str	r3, [sp, #20]
 1568 009c 0393     		str	r3, [sp, #12]
 1569 009e 0833     		adds	r3, r3, #8
 1570 00a0 0492     		str	r2, [sp, #16]
 1571 00a2 0293     		str	r3, [sp, #8]
 1572 00a4 0192     		str	r2, [sp, #4]
 1573 00a6 0096     		str	r6, [sp]
 1574 00a8 5346     		mov	r3, r10
 1575 00aa 0B9E     		ldr	r6, [sp, #44]
 1576              	.LVL128:
 1577 00ac 0022     		movs	r2, #0
 1578 00ae 5946     		mov	r1, fp
 1579 00b0 0120     		movs	r0, #1
 1580 00b2 B047     		blx	r6
 1581              	.LVL129:
 624:../../../../../../Middlewares/Third_Party/LoRaWAN/Mac/region/RegionIN865.c ****         Radio.SetTxConfig( modem, phyTxPower, 0, bandwidth, phyDr, 1, 8, false, true, 0, 0, false, 
 1582              		.loc 1 624 0
 1583 00b4 0126     		movs	r6, #1
 1584              	.LVL130:
 1585              	.L124:
 630:../../../../../../Middlewares/Third_Party/LoRaWAN/Mac/region/RegionIN865.c ****     // Get the time-on-air of the next tx frame
 1586              		.loc 1 630 0
 1587 00b6 EB6D     		ldr	r3, [r5, #92]
 1588 00b8 217B     		ldrb	r1, [r4, #12]
 1589 00ba 3000     		movs	r0, r6
 1590 00bc 0B93     		str	r3, [sp, #44]
 1591 00be 9847     		blx	r3
 1592              	.LVL131:
 632:../../../../../../Middlewares/Third_Party/LoRaWAN/Mac/region/RegionIN865.c **** 
 1593              		.loc 1 632 0
 1594 00c0 EB6A     		ldr	r3, [r5, #44]
 1595 00c2 217B     		ldrb	r1, [r4, #12]
 1596 00c4 3000     		movs	r0, r6
 1597 00c6 0B93     		str	r3, [sp, #44]
 1598 00c8 9847     		blx	r3
 1599              	.LVL132:
ARM GAS  C:\Users\EBANO_~1\AppData\Local\Temp\ccEfOEMG.s 			page 50


 1600 00ca 4346     		mov	r3, r8
 1601 00cc 1860     		str	r0, [r3]
 634:../../../../../../Middlewares/Third_Party/LoRaWAN/Mac/region/RegionIN865.c ****     return true;
 1602              		.loc 1 634 0
 1603 00ce 4B46     		mov	r3, r9
 636:../../../../../../Middlewares/Third_Party/LoRaWAN/Mac/region/RegionIN865.c **** 
 1604              		.loc 1 636 0
 1605 00d0 0120     		movs	r0, #1
 634:../../../../../../Middlewares/Third_Party/LoRaWAN/Mac/region/RegionIN865.c ****     return true;
 1606              		.loc 1 634 0
 1607 00d2 0A9A     		ldr	r2, [sp, #40]
 1608 00d4 1370     		strb	r3, [r2]
 636:../../../../../../Middlewares/Third_Party/LoRaWAN/Mac/region/RegionIN865.c **** 
 1609              		.loc 1 636 0
 1610 00d6 0DB0     		add	sp, sp, #52
 1611              		@ sp needed
 1612              	.LVL133:
 1613              	.LVL134:
 1614              	.LVL135:
 1615              	.LVL136:
 1616 00d8 3CBC     		pop	{r2, r3, r4, r5}
 1617 00da 9046     		mov	r8, r2
 1618 00dc 9946     		mov	r9, r3
 1619 00de A246     		mov	r10, r4
 1620 00e0 AB46     		mov	fp, r5
 1621 00e2 F0BD     		pop	{r4, r5, r6, r7, pc}
 1622              	.LVL137:
 1623              	.L125:
 1624              	.LBB71:
 1625              	.LBB68:
  96:../../../../../../Middlewares/Third_Party/LoRaWAN/Mac/region/RegionIN865.c ****         case 500000:
 1626              		.loc 1 96 0
 1627 00e4 0123     		movs	r3, #1
 1628              	.LVL138:
 1629 00e6 9A46     		mov	r10, r3
 1630 00e8 BCE7     		b	.L121
 1631              	.LVL139:
 1632              	.L126:
 1633              	.LBE68:
 1634              	.LBE71:
 620:../../../../../../Middlewares/Third_Party/LoRaWAN/Mac/region/RegionIN865.c ****     }
 1635              		.loc 1 620 0
 1636 00ea 124B     		ldr	r3, .L127+20
 1637 00ec 0122     		movs	r2, #1
 1638 00ee 0893     		str	r3, [sp, #32]
 1639 00f0 0023     		movs	r3, #0
 1640 00f2 0793     		str	r3, [sp, #28]
 1641 00f4 0693     		str	r3, [sp, #24]
 1642 00f6 0593     		str	r3, [sp, #20]
 1643 00f8 0393     		str	r3, [sp, #12]
 1644 00fa 0193     		str	r3, [sp, #4]
 1645 00fc 7301     		lsls	r3, r6, #5
 1646 00fe 9B1B     		subs	r3, r3, r6
 1647 0100 9B00     		lsls	r3, r3, #2
 1648 0102 9E19     		adds	r6, r3, r6
 1649              	.LVL140:
 1650 0104 0492     		str	r2, [sp, #16]
ARM GAS  C:\Users\EBANO_~1\AppData\Local\Temp\ccEfOEMG.s 			page 51


 1651 0106 F600     		lsls	r6, r6, #3
 1652 0108 0432     		adds	r2, r2, #4
 1653 010a 0292     		str	r2, [sp, #8]
 1654 010c 0096     		str	r6, [sp]
 1655 010e 5346     		mov	r3, r10
 1656 0110 0B9E     		ldr	r6, [sp, #44]
 1657 0112 094A     		ldr	r2, .L127+24
 1658 0114 5946     		mov	r1, fp
 1659 0116 0020     		movs	r0, #0
 1660 0118 B047     		blx	r6
 1661              	.LVL141:
 619:../../../../../../Middlewares/Third_Party/LoRaWAN/Mac/region/RegionIN865.c ****         Radio.SetTxConfig( modem, phyTxPower, 25000, bandwidth, phyDr * 1000, 0, 5, false, true, 0,
 1662              		.loc 1 619 0
 1663 011a 0026     		movs	r6, #0
 1664 011c CBE7     		b	.L124
 1665              	.L128:
 1666 011e C046     		.align	2
 1667              	.L127:
 1668 0120 D8000000 		.word	.LANCHOR1
 1669 0124 00000000 		.word	NvmCtx
 1670 0128 90D00300 		.word	250000
 1671 012c E05EF8FF 		.word	-500000
 1672 0130 00000000 		.word	Radio
 1673 0134 B80B0000 		.word	3000
 1674 0138 A8610000 		.word	25000
 1675              		.cfi_endproc
 1676              	.LFE53:
 1677              		.size	RegionIN865TxConfig, .-RegionIN865TxConfig
 1678              		.section	.text.RegionIN865LinkAdrReq,"ax",%progbits
 1679              		.align	1
 1680              		.p2align 2,,3
 1681              		.global	RegionIN865LinkAdrReq
 1682              		.syntax unified
 1683              		.code	16
 1684              		.thumb_func
 1685              		.fpu softvfp
 1686              		.type	RegionIN865LinkAdrReq, %function
 1687              	RegionIN865LinkAdrReq:
 1688              	.LFB54:
 639:../../../../../../Middlewares/Third_Party/LoRaWAN/Mac/region/RegionIN865.c ****     uint8_t status = 0x07;
 1689              		.loc 1 639 0
 1690              		.cfi_startproc
 1691              		@ args = 4, pretend = 0, frame = 56
 1692              		@ frame_needed = 0, uses_anonymous_args = 0
 1693              	.LVL142:
 1694 0000 F0B5     		push	{r4, r5, r6, r7, lr}
 1695              	.LCFI19:
 1696              		.cfi_def_cfa_offset 20
 1697              		.cfi_offset 4, -20
 1698              		.cfi_offset 5, -16
 1699              		.cfi_offset 6, -12
 1700              		.cfi_offset 7, -8
 1701              		.cfi_offset 14, -4
 1702 0002 4E46     		mov	r6, r9
 1703 0004 4546     		mov	r5, r8
 1704 0006 DE46     		mov	lr, fp
 1705 0008 5746     		mov	r7, r10
ARM GAS  C:\Users\EBANO_~1\AppData\Local\Temp\ccEfOEMG.s 			page 52


 1706 000a E0B5     		push	{r5, r6, r7, lr}
 1707              	.LCFI20:
 1708              		.cfi_def_cfa_offset 36
 1709              		.cfi_offset 8, -36
 1710              		.cfi_offset 9, -32
 1711              		.cfi_offset 10, -28
 1712              		.cfi_offset 11, -24
 1713 000c 8FB0     		sub	sp, sp, #60
 1714              	.LCFI21:
 1715              		.cfi_def_cfa_offset 96
 639:../../../../../../Middlewares/Third_Party/LoRaWAN/Mac/region/RegionIN865.c ****     uint8_t status = 0x07;
 1716              		.loc 1 639 0
 1717 000e 0193     		str	r3, [sp, #4]
 644:../../../../../../Middlewares/Third_Party/LoRaWAN/Mac/region/RegionIN865.c ****     GetPhyParams_t getPhy;
 1718              		.loc 1 644 0
 1719 0010 02AB     		add	r3, sp, #8
 1720              	.LVL143:
 639:../../../../../../Middlewares/Third_Party/LoRaWAN/Mac/region/RegionIN865.c ****     uint8_t status = 0x07;
 1721              		.loc 1 639 0
 1722 0012 9246     		mov	r10, r2
 644:../../../../../../Middlewares/Third_Party/LoRaWAN/Mac/region/RegionIN865.c ****     GetPhyParams_t getPhy;
 1723              		.loc 1 644 0
 1724 0014 9A1D     		adds	r2, r3, #6
 1725              	.LVL144:
 1726 0016 0023     		movs	r3, #0
 1727 0018 1380     		strh	r3, [r2]
 640:../../../../../../Middlewares/Third_Party/LoRaWAN/Mac/region/RegionIN865.c ****     RegionCommonLinkAdrParams_t linkAdrParams;
 1728              		.loc 1 640 0
 1729 001a 0733     		adds	r3, r3, #7
 1730 001c 9846     		mov	r8, r3
 1731              	.LBB77:
 683:../../../../../../Middlewares/Third_Party/LoRaWAN/Mac/region/RegionIN865.c ****                     {
 1732              		.loc 1 683 0
 1733 001e A74B     		ldr	r3, .L288
 1734              	.LBE77:
 639:../../../../../../Middlewares/Third_Party/LoRaWAN/Mac/region/RegionIN865.c ****     uint8_t status = 0x07;
 1735              		.loc 1 639 0
 1736 0020 0600     		movs	r6, r0
 1737 0022 8B46     		mov	fp, r1
 643:../../../../../../Middlewares/Third_Party/LoRaWAN/Mac/region/RegionIN865.c ****     uint16_t chMask = 0;
 1738              		.loc 1 643 0
 1739 0024 0024     		movs	r4, #0
 1740              	.LBB78:
 683:../../../../../../Middlewares/Third_Party/LoRaWAN/Mac/region/RegionIN865.c ****                     {
 1741              		.loc 1 683 0
 1742 0026 9946     		mov	r9, r3
 1743              	.LBE78:
 644:../../../../../../Middlewares/Third_Party/LoRaWAN/Mac/region/RegionIN865.c ****     GetPhyParams_t getPhy;
 1744              		.loc 1 644 0
 1745 0028 0092     		str	r2, [sp]
 1746 002a 04AD     		add	r5, sp, #16
 1747              	.LVL145:
 1748              	.L130:
 649:../../../../../../Middlewares/Third_Party/LoRaWAN/Mac/region/RegionIN865.c ****     {
 1749              		.loc 1 649 0
 1750 002c 337A     		ldrb	r3, [r6, #8]
 1751 002e A342     		cmp	r3, r4
ARM GAS  C:\Users\EBANO_~1\AppData\Local\Temp\ccEfOEMG.s 			page 53


 1752 0030 00D8     		bhi	.LCB1612
 1753 0032 A3E0     		b	.L175	@long jump
 1754              	.LCB1612:
 1755              	.L174:
 652:../../../../../../Middlewares/Third_Party/LoRaWAN/Mac/region/RegionIN865.c **** 
 1756              		.loc 1 652 0
 1757 0034 7368     		ldr	r3, [r6, #4]
 1758 0036 2900     		movs	r1, r5
 1759 0038 1819     		adds	r0, r3, r4
 1760 003a FFF7FEFF 		bl	RegionCommonParseLinkAdrReq
 1761              	.LVL146:
 654:../../../../../../Middlewares/Third_Party/LoRaWAN/Mac/region/RegionIN865.c ****             break; // break loop, since no more request has been found
 1762              		.loc 1 654 0
 1763 003e 0028     		cmp	r0, #0
 1764 0040 00D1     		bne	.LCB1624
 1765 0042 9BE0     		b	.L175	@long jump
 1766              	.LCB1624:
 664:../../../../../../Middlewares/Third_Party/LoRaWAN/Mac/region/RegionIN865.c **** 
 1767              		.loc 1 664 0
 1768 0044 AB88     		ldrh	r3, [r5, #4]
 1769 0046 009A     		ldr	r2, [sp]
 658:../../../../../../Middlewares/Third_Party/LoRaWAN/Mac/region/RegionIN865.c **** 
 1770              		.loc 1 658 0
 1771 0048 2418     		adds	r4, r4, r0
 1772              	.LVL147:
 664:../../../../../../Middlewares/Third_Party/LoRaWAN/Mac/region/RegionIN865.c **** 
 1773              		.loc 1 664 0
 1774 004a 1380     		strh	r3, [r2]
 667:../../../../../../Middlewares/Third_Party/LoRaWAN/Mac/region/RegionIN865.c ****         {
 1775              		.loc 1 667 0
 1776 004c EA78     		ldrb	r2, [r5, #3]
 658:../../../../../../Middlewares/Third_Party/LoRaWAN/Mac/region/RegionIN865.c **** 
 1777              		.loc 1 658 0
 1778 004e E4B2     		uxtb	r4, r4
 1779              	.LVL148:
 664:../../../../../../Middlewares/Third_Party/LoRaWAN/Mac/region/RegionIN865.c **** 
 1780              		.loc 1 664 0
 1781 0050 181C     		adds	r0, r3, #0
 1782              	.LVL149:
 667:../../../../../../Middlewares/Third_Party/LoRaWAN/Mac/region/RegionIN865.c ****         {
 1783              		.loc 1 667 0
 1784 0052 002A     		cmp	r2, #0
 1785 0054 00D0     		beq	.LCB1637
 1786 0056 ACE0     		b	.L134	@long jump
 1787              	.LCB1637:
 669:../../../../../../Middlewares/Third_Party/LoRaWAN/Mac/region/RegionIN865.c ****         }
 1788              		.loc 1 669 0 discriminator 1
 1789 0058 0632     		adds	r2, r2, #6
 1790 005a 9046     		mov	r8, r2
 667:../../../../../../Middlewares/Third_Party/LoRaWAN/Mac/region/RegionIN865.c ****         {
 1791              		.loc 1 667 0 discriminator 1
 1792 005c 002B     		cmp	r3, #0
 1793 005e E5D0     		beq	.L130
 1794              	.LVL150:
 1795              	.LBB79:
 690:../../../../../../Middlewares/Third_Party/LoRaWAN/Mac/region/RegionIN865.c ****                         ( NvmCtx.Channels[i].Frequency == 0 ) )
 1796              		.loc 1 690 0
ARM GAS  C:\Users\EBANO_~1\AppData\Local\Temp\ccEfOEMG.s 			page 54


 1797 0060 0722     		movs	r2, #7
 1798 0062 9046     		mov	r8, r2
 1799 0064 DA07     		lsls	r2, r3, #31
 1800 0066 05D5     		bpl	.L138
 691:../../../../../../Middlewares/Third_Party/LoRaWAN/Mac/region/RegionIN865.c ****                     {// Trying to enable an undefined channel
 1801              		.loc 1 691 0
 1802 0068 944A     		ldr	r2, .L288
 690:../../../../../../Middlewares/Third_Party/LoRaWAN/Mac/region/RegionIN865.c ****                         ( NvmCtx.Channels[i].Frequency == 0 ) )
 1803              		.loc 1 690 0
 1804 006a 1268     		ldr	r2, [r2]
 1805 006c 511E     		subs	r1, r2, #1
 1806 006e 8A41     		sbcs	r2, r2, r1
 1807 0070 0632     		adds	r2, r2, #6
 1808 0072 9046     		mov	r8, r2
 1809              	.L138:
 1810              	.LVL151:
 1811 0074 9A07     		lsls	r2, r3, #30
 1812 0076 05D5     		bpl	.L139
 691:../../../../../../Middlewares/Third_Party/LoRaWAN/Mac/region/RegionIN865.c ****                     {// Trying to enable an undefined channel
 1813              		.loc 1 691 0
 1814 0078 904A     		ldr	r2, .L288
 690:../../../../../../Middlewares/Third_Party/LoRaWAN/Mac/region/RegionIN865.c ****                         ( NvmCtx.Channels[i].Frequency == 0 ) )
 1815              		.loc 1 690 0
 1816 007a D268     		ldr	r2, [r2, #12]
 1817 007c 002A     		cmp	r2, #0
 1818 007e 01D1     		bne	.L139
 693:../../../../../../Middlewares/Third_Party/LoRaWAN/Mac/region/RegionIN865.c ****                     }
 1819              		.loc 1 693 0
 1820 0080 0632     		adds	r2, r2, #6
 1821 0082 9046     		mov	r8, r2
 1822              	.LVL152:
 1823              	.L139:
 690:../../../../../../Middlewares/Third_Party/LoRaWAN/Mac/region/RegionIN865.c ****                         ( NvmCtx.Channels[i].Frequency == 0 ) )
 1824              		.loc 1 690 0
 1825 0084 5A07     		lsls	r2, r3, #29
 1826 0086 05D5     		bpl	.L140
 691:../../../../../../Middlewares/Third_Party/LoRaWAN/Mac/region/RegionIN865.c ****                     {// Trying to enable an undefined channel
 1827              		.loc 1 691 0
 1828 0088 8C4A     		ldr	r2, .L288
 690:../../../../../../Middlewares/Third_Party/LoRaWAN/Mac/region/RegionIN865.c ****                         ( NvmCtx.Channels[i].Frequency == 0 ) )
 1829              		.loc 1 690 0
 1830 008a 9269     		ldr	r2, [r2, #24]
 1831 008c 002A     		cmp	r2, #0
 1832 008e 01D1     		bne	.L140
 693:../../../../../../Middlewares/Third_Party/LoRaWAN/Mac/region/RegionIN865.c ****                     }
 1833              		.loc 1 693 0
 1834 0090 0632     		adds	r2, r2, #6
 1835 0092 9046     		mov	r8, r2
 1836              	.LVL153:
 1837              	.L140:
 690:../../../../../../Middlewares/Third_Party/LoRaWAN/Mac/region/RegionIN865.c ****                         ( NvmCtx.Channels[i].Frequency == 0 ) )
 1838              		.loc 1 690 0
 1839 0094 1A07     		lsls	r2, r3, #28
 1840 0096 05D5     		bpl	.L141
 691:../../../../../../Middlewares/Third_Party/LoRaWAN/Mac/region/RegionIN865.c ****                     {// Trying to enable an undefined channel
 1841              		.loc 1 691 0
 1842 0098 884A     		ldr	r2, .L288
ARM GAS  C:\Users\EBANO_~1\AppData\Local\Temp\ccEfOEMG.s 			page 55


 690:../../../../../../Middlewares/Third_Party/LoRaWAN/Mac/region/RegionIN865.c ****                         ( NvmCtx.Channels[i].Frequency == 0 ) )
 1843              		.loc 1 690 0
 1844 009a 526A     		ldr	r2, [r2, #36]
 1845 009c 002A     		cmp	r2, #0
 1846 009e 01D1     		bne	.L141
 693:../../../../../../Middlewares/Third_Party/LoRaWAN/Mac/region/RegionIN865.c ****                     }
 1847              		.loc 1 693 0
 1848 00a0 0632     		adds	r2, r2, #6
 1849 00a2 9046     		mov	r8, r2
 1850              	.LVL154:
 1851              	.L141:
 690:../../../../../../Middlewares/Third_Party/LoRaWAN/Mac/region/RegionIN865.c ****                         ( NvmCtx.Channels[i].Frequency == 0 ) )
 1852              		.loc 1 690 0
 1853 00a4 DA06     		lsls	r2, r3, #27
 1854 00a6 05D5     		bpl	.L142
 691:../../../../../../Middlewares/Third_Party/LoRaWAN/Mac/region/RegionIN865.c ****                     {// Trying to enable an undefined channel
 1855              		.loc 1 691 0
 1856 00a8 844A     		ldr	r2, .L288
 690:../../../../../../Middlewares/Third_Party/LoRaWAN/Mac/region/RegionIN865.c ****                         ( NvmCtx.Channels[i].Frequency == 0 ) )
 1857              		.loc 1 690 0
 1858 00aa 126B     		ldr	r2, [r2, #48]
 1859 00ac 002A     		cmp	r2, #0
 1860 00ae 01D1     		bne	.L142
 693:../../../../../../Middlewares/Third_Party/LoRaWAN/Mac/region/RegionIN865.c ****                     }
 1861              		.loc 1 693 0
 1862 00b0 0632     		adds	r2, r2, #6
 1863 00b2 9046     		mov	r8, r2
 1864              	.LVL155:
 1865              	.L142:
 690:../../../../../../Middlewares/Third_Party/LoRaWAN/Mac/region/RegionIN865.c ****                         ( NvmCtx.Channels[i].Frequency == 0 ) )
 1866              		.loc 1 690 0
 1867 00b4 9A06     		lsls	r2, r3, #26
 1868 00b6 05D5     		bpl	.L143
 691:../../../../../../Middlewares/Third_Party/LoRaWAN/Mac/region/RegionIN865.c ****                     {// Trying to enable an undefined channel
 1869              		.loc 1 691 0
 1870 00b8 804A     		ldr	r2, .L288
 690:../../../../../../Middlewares/Third_Party/LoRaWAN/Mac/region/RegionIN865.c ****                         ( NvmCtx.Channels[i].Frequency == 0 ) )
 1871              		.loc 1 690 0
 1872 00ba D26B     		ldr	r2, [r2, #60]
 1873 00bc 002A     		cmp	r2, #0
 1874 00be 01D1     		bne	.L143
 693:../../../../../../Middlewares/Third_Party/LoRaWAN/Mac/region/RegionIN865.c ****                     }
 1875              		.loc 1 693 0
 1876 00c0 0632     		adds	r2, r2, #6
 1877 00c2 9046     		mov	r8, r2
 1878              	.LVL156:
 1879              	.L143:
 690:../../../../../../Middlewares/Third_Party/LoRaWAN/Mac/region/RegionIN865.c ****                         ( NvmCtx.Channels[i].Frequency == 0 ) )
 1880              		.loc 1 690 0
 1881 00c4 5A06     		lsls	r2, r3, #25
 1882 00c6 05D5     		bpl	.L144
 691:../../../../../../Middlewares/Third_Party/LoRaWAN/Mac/region/RegionIN865.c ****                     {// Trying to enable an undefined channel
 1883              		.loc 1 691 0
 1884 00c8 7C4A     		ldr	r2, .L288
 690:../../../../../../Middlewares/Third_Party/LoRaWAN/Mac/region/RegionIN865.c ****                         ( NvmCtx.Channels[i].Frequency == 0 ) )
 1885              		.loc 1 690 0
 1886 00ca 926C     		ldr	r2, [r2, #72]
ARM GAS  C:\Users\EBANO_~1\AppData\Local\Temp\ccEfOEMG.s 			page 56


 1887 00cc 002A     		cmp	r2, #0
 1888 00ce 01D1     		bne	.L144
 693:../../../../../../Middlewares/Third_Party/LoRaWAN/Mac/region/RegionIN865.c ****                     }
 1889              		.loc 1 693 0
 1890 00d0 0632     		adds	r2, r2, #6
 1891 00d2 9046     		mov	r8, r2
 1892              	.LVL157:
 1893              	.L144:
 690:../../../../../../Middlewares/Third_Party/LoRaWAN/Mac/region/RegionIN865.c ****                         ( NvmCtx.Channels[i].Frequency == 0 ) )
 1894              		.loc 1 690 0
 1895 00d4 1A06     		lsls	r2, r3, #24
 1896 00d6 05D5     		bpl	.L145
 691:../../../../../../Middlewares/Third_Party/LoRaWAN/Mac/region/RegionIN865.c ****                     {// Trying to enable an undefined channel
 1897              		.loc 1 691 0
 1898 00d8 784A     		ldr	r2, .L288
 690:../../../../../../Middlewares/Third_Party/LoRaWAN/Mac/region/RegionIN865.c ****                         ( NvmCtx.Channels[i].Frequency == 0 ) )
 1899              		.loc 1 690 0
 1900 00da 526D     		ldr	r2, [r2, #84]
 1901 00dc 002A     		cmp	r2, #0
 1902 00de 01D1     		bne	.L145
 693:../../../../../../Middlewares/Third_Party/LoRaWAN/Mac/region/RegionIN865.c ****                     }
 1903              		.loc 1 693 0
 1904 00e0 0632     		adds	r2, r2, #6
 1905 00e2 9046     		mov	r8, r2
 1906              	.LVL158:
 1907              	.L145:
 690:../../../../../../Middlewares/Third_Party/LoRaWAN/Mac/region/RegionIN865.c ****                         ( NvmCtx.Channels[i].Frequency == 0 ) )
 1908              		.loc 1 690 0
 1909 00e4 DA05     		lsls	r2, r3, #23
 1910 00e6 05D5     		bpl	.L146
 691:../../../../../../Middlewares/Third_Party/LoRaWAN/Mac/region/RegionIN865.c ****                     {// Trying to enable an undefined channel
 1911              		.loc 1 691 0
 1912 00e8 744A     		ldr	r2, .L288
 690:../../../../../../Middlewares/Third_Party/LoRaWAN/Mac/region/RegionIN865.c ****                         ( NvmCtx.Channels[i].Frequency == 0 ) )
 1913              		.loc 1 690 0
 1914 00ea 126E     		ldr	r2, [r2, #96]
 1915 00ec 002A     		cmp	r2, #0
 1916 00ee 01D1     		bne	.L146
 693:../../../../../../Middlewares/Third_Party/LoRaWAN/Mac/region/RegionIN865.c ****                     }
 1917              		.loc 1 693 0
 1918 00f0 0632     		adds	r2, r2, #6
 1919 00f2 9046     		mov	r8, r2
 1920              	.LVL159:
 1921              	.L146:
 690:../../../../../../Middlewares/Third_Party/LoRaWAN/Mac/region/RegionIN865.c ****                         ( NvmCtx.Channels[i].Frequency == 0 ) )
 1922              		.loc 1 690 0
 1923 00f4 9A05     		lsls	r2, r3, #22
 1924 00f6 05D5     		bpl	.L147
 691:../../../../../../Middlewares/Third_Party/LoRaWAN/Mac/region/RegionIN865.c ****                     {// Trying to enable an undefined channel
 1925              		.loc 1 691 0
 1926 00f8 704A     		ldr	r2, .L288
 690:../../../../../../Middlewares/Third_Party/LoRaWAN/Mac/region/RegionIN865.c ****                         ( NvmCtx.Channels[i].Frequency == 0 ) )
 1927              		.loc 1 690 0
 1928 00fa D26E     		ldr	r2, [r2, #108]
 1929 00fc 002A     		cmp	r2, #0
 1930 00fe 01D1     		bne	.L147
 693:../../../../../../Middlewares/Third_Party/LoRaWAN/Mac/region/RegionIN865.c ****                     }
ARM GAS  C:\Users\EBANO_~1\AppData\Local\Temp\ccEfOEMG.s 			page 57


 1931              		.loc 1 693 0
 1932 0100 0632     		adds	r2, r2, #6
 1933 0102 9046     		mov	r8, r2
 1934              	.LVL160:
 1935              	.L147:
 690:../../../../../../Middlewares/Third_Party/LoRaWAN/Mac/region/RegionIN865.c ****                         ( NvmCtx.Channels[i].Frequency == 0 ) )
 1936              		.loc 1 690 0
 1937 0104 5A05     		lsls	r2, r3, #21
 1938 0106 05D5     		bpl	.L148
 691:../../../../../../Middlewares/Third_Party/LoRaWAN/Mac/region/RegionIN865.c ****                     {// Trying to enable an undefined channel
 1939              		.loc 1 691 0
 1940 0108 6C4A     		ldr	r2, .L288
 690:../../../../../../Middlewares/Third_Party/LoRaWAN/Mac/region/RegionIN865.c ****                         ( NvmCtx.Channels[i].Frequency == 0 ) )
 1941              		.loc 1 690 0
 1942 010a 926F     		ldr	r2, [r2, #120]
 1943 010c 002A     		cmp	r2, #0
 1944 010e 01D1     		bne	.L148
 693:../../../../../../Middlewares/Third_Party/LoRaWAN/Mac/region/RegionIN865.c ****                     }
 1945              		.loc 1 693 0
 1946 0110 0632     		adds	r2, r2, #6
 1947 0112 9046     		mov	r8, r2
 1948              	.LVL161:
 1949              	.L148:
 690:../../../../../../Middlewares/Third_Party/LoRaWAN/Mac/region/RegionIN865.c ****                         ( NvmCtx.Channels[i].Frequency == 0 ) )
 1950              		.loc 1 690 0
 1951 0114 1A05     		lsls	r2, r3, #20
 1952 0116 06D5     		bpl	.L149
 1953 0118 8422     		movs	r2, #132
 1954 011a 6849     		ldr	r1, .L288
 1955 011c 8A58     		ldr	r2, [r1, r2]
 1956 011e 002A     		cmp	r2, #0
 1957 0120 01D1     		bne	.L149
 693:../../../../../../Middlewares/Third_Party/LoRaWAN/Mac/region/RegionIN865.c ****                     }
 1958              		.loc 1 693 0
 1959 0122 0632     		adds	r2, r2, #6
 1960 0124 9046     		mov	r8, r2
 1961              	.LVL162:
 1962              	.L149:
 690:../../../../../../Middlewares/Third_Party/LoRaWAN/Mac/region/RegionIN865.c ****                         ( NvmCtx.Channels[i].Frequency == 0 ) )
 1963              		.loc 1 690 0
 1964 0126 DA04     		lsls	r2, r3, #19
 1965 0128 06D5     		bpl	.L150
 1966 012a 9022     		movs	r2, #144
 1967 012c 6349     		ldr	r1, .L288
 1968 012e 8A58     		ldr	r2, [r1, r2]
 1969 0130 002A     		cmp	r2, #0
 1970 0132 01D1     		bne	.L150
 693:../../../../../../Middlewares/Third_Party/LoRaWAN/Mac/region/RegionIN865.c ****                     }
 1971              		.loc 1 693 0
 1972 0134 0632     		adds	r2, r2, #6
 1973 0136 9046     		mov	r8, r2
 1974              	.LVL163:
 1975              	.L150:
 690:../../../../../../Middlewares/Third_Party/LoRaWAN/Mac/region/RegionIN865.c ****                         ( NvmCtx.Channels[i].Frequency == 0 ) )
 1976              		.loc 1 690 0
 1977 0138 9A04     		lsls	r2, r3, #18
 1978 013a 06D5     		bpl	.L151
ARM GAS  C:\Users\EBANO_~1\AppData\Local\Temp\ccEfOEMG.s 			page 58


 1979 013c 9C22     		movs	r2, #156
 1980 013e 5F49     		ldr	r1, .L288
 1981 0140 8A58     		ldr	r2, [r1, r2]
 1982 0142 002A     		cmp	r2, #0
 1983 0144 01D1     		bne	.L151
 693:../../../../../../Middlewares/Third_Party/LoRaWAN/Mac/region/RegionIN865.c ****                     }
 1984              		.loc 1 693 0
 1985 0146 0632     		adds	r2, r2, #6
 1986 0148 9046     		mov	r8, r2
 1987              	.LVL164:
 1988              	.L151:
 690:../../../../../../Middlewares/Third_Party/LoRaWAN/Mac/region/RegionIN865.c ****                         ( NvmCtx.Channels[i].Frequency == 0 ) )
 1989              		.loc 1 690 0
 1990 014a 5A04     		lsls	r2, r3, #17
 1991 014c 06D5     		bpl	.L152
 1992 014e A822     		movs	r2, #168
 1993 0150 5A49     		ldr	r1, .L288
 1994 0152 8A58     		ldr	r2, [r1, r2]
 1995 0154 002A     		cmp	r2, #0
 1996 0156 01D1     		bne	.L152
 693:../../../../../../Middlewares/Third_Party/LoRaWAN/Mac/region/RegionIN865.c ****                     }
 1997              		.loc 1 693 0
 1998 0158 0632     		adds	r2, r2, #6
 1999 015a 9046     		mov	r8, r2
 2000              	.LVL165:
 2001              	.L152:
 690:../../../../../../Middlewares/Third_Party/LoRaWAN/Mac/region/RegionIN865.c ****                         ( NvmCtx.Channels[i].Frequency == 0 ) )
 2002              		.loc 1 690 0
 2003 015c 1BB2     		sxth	r3, r3
 2004 015e 002B     		cmp	r3, #0
 2005 0160 00DB     		blt	.LCB1891
 2006 0162 63E7     		b	.L130	@long jump
 2007              	.LCB1891:
 691:../../../../../../Middlewares/Third_Party/LoRaWAN/Mac/region/RegionIN865.c ****                     {// Trying to enable an undefined channel
 2008              		.loc 1 691 0
 2009 0164 B423     		movs	r3, #180
 690:../../../../../../Middlewares/Third_Party/LoRaWAN/Mac/region/RegionIN865.c ****                         ( NvmCtx.Channels[i].Frequency == 0 ) )
 2010              		.loc 1 690 0
 2011 0166 554A     		ldr	r2, .L288
 2012 0168 D358     		ldr	r3, [r2, r3]
 2013 016a 002B     		cmp	r3, #0
 2014 016c 00D0     		beq	.LCB1896
 2015 016e 5DE7     		b	.L130	@long jump
 2016              	.LCB1896:
 693:../../../../../../Middlewares/Third_Party/LoRaWAN/Mac/region/RegionIN865.c ****                     }
 2017              		.loc 1 693 0
 2018 0170 0633     		adds	r3, r3, #6
 2019 0172 9846     		mov	r8, r3
 2020              	.LVL166:
 2021              	.LBE79:
 649:../../../../../../Middlewares/Third_Party/LoRaWAN/Mac/region/RegionIN865.c ****     {
 2022              		.loc 1 649 0
 2023 0174 337A     		ldrb	r3, [r6, #8]
 2024 0176 A342     		cmp	r3, r4
 2025 0178 00D9     		bls	.LCB1905
 2026 017a 5BE7     		b	.L174	@long jump
 2027              	.LCB1905:
ARM GAS  C:\Users\EBANO_~1\AppData\Local\Temp\ccEfOEMG.s 			page 59


 2028              	.LVL167:
 2029              	.L175:
 700:../../../../../../Middlewares/Third_Party/LoRaWAN/Mac/region/RegionIN865.c ****     {
 2030              		.loc 1 700 0
 2031 017c 0123     		movs	r3, #1
 2032 017e 0221     		movs	r1, #2
 2033 0180 EB56     		ldrsb	r3, [r5, r3]
 2034 0182 6956     		ldrsb	r1, [r5, r1]
 2035 0184 2A78     		ldrb	r2, [r5]
 2036 0186 062B     		cmp	r3, #6
 2037 0188 00D0     		beq	.LCB1918
 2038 018a 99E0     		b	.L286	@long jump
 2039              	.LCB1918:
 729:../../../../../../Middlewares/Third_Party/LoRaWAN/Mac/region/RegionIN865.c ****     }
 2040              		.loc 1 729 0
 2041 018c 0220     		movs	r0, #2
 2042 018e 4646     		mov	r6, r8
 2043              	.LVL168:
 2044 0190 8643     		bics	r6, r0
 2045              	.LVL169:
 2046              	.L177:
 742:../../../../../../Middlewares/Third_Party/LoRaWAN/Mac/region/RegionIN865.c ****     *txPowOut = linkAdrParams.TxPower;
 2047              		.loc 1 742 0
 2048 0192 5846     		mov	r0, fp
 2049 0194 0370     		strb	r3, [r0]
 743:../../../../../../Middlewares/Third_Party/LoRaWAN/Mac/region/RegionIN865.c ****     *nbRepOut = linkAdrParams.NbRep;
 2050              		.loc 1 743 0
 2051 0196 5346     		mov	r3, r10
 748:../../../../../../Middlewares/Third_Party/LoRaWAN/Mac/region/RegionIN865.c **** 
 2052              		.loc 1 748 0
 2053 0198 3000     		movs	r0, r6
 743:../../../../../../Middlewares/Third_Party/LoRaWAN/Mac/region/RegionIN865.c ****     *nbRepOut = linkAdrParams.NbRep;
 2054              		.loc 1 743 0
 2055 019a 1970     		strb	r1, [r3]
 744:../../../../../../Middlewares/Third_Party/LoRaWAN/Mac/region/RegionIN865.c ****     *nbBytesParsed = bytesProcessed;
 2056              		.loc 1 744 0
 2057 019c 019B     		ldr	r3, [sp, #4]
 2058 019e 1A70     		strb	r2, [r3]
 745:../../../../../../Middlewares/Third_Party/LoRaWAN/Mac/region/RegionIN865.c **** 
 2059              		.loc 1 745 0
 2060 01a0 189B     		ldr	r3, [sp, #96]
 2061 01a2 1C70     		strb	r4, [r3]
 748:../../../../../../Middlewares/Third_Party/LoRaWAN/Mac/region/RegionIN865.c **** 
 2062              		.loc 1 748 0
 2063 01a4 0FB0     		add	sp, sp, #60
 2064              		@ sp needed
 2065              	.LVL170:
 2066              	.LVL171:
 2067              	.LVL172:
 2068 01a6 3CBC     		pop	{r2, r3, r4, r5}
 2069 01a8 9046     		mov	r8, r2
 2070 01aa 9946     		mov	r9, r3
 2071 01ac A246     		mov	r10, r4
 2072 01ae AB46     		mov	fp, r5
 2073 01b0 F0BD     		pop	{r4, r5, r6, r7, pc}
 2074              	.LVL173:
 2075              	.L134:
ARM GAS  C:\Users\EBANO_~1\AppData\Local\Temp\ccEfOEMG.s 			page 60


 669:../../../../../../Middlewares/Third_Party/LoRaWAN/Mac/region/RegionIN865.c ****         }
 2076              		.loc 1 669 0
 2077 01b2 0627     		movs	r7, #6
 671:../../../../../../Middlewares/Third_Party/LoRaWAN/Mac/region/RegionIN865.c ****                 ( linkAdrParams.ChMaskCtrl >= 7 ) )
 2078              		.loc 1 671 0
 2079 01b4 511E     		subs	r1, r2, #1
 669:../../../../../../Middlewares/Third_Party/LoRaWAN/Mac/region/RegionIN865.c ****         }
 2080              		.loc 1 669 0
 2081 01b6 B846     		mov	r8, r7
 671:../../../../../../Middlewares/Third_Party/LoRaWAN/Mac/region/RegionIN865.c ****                 ( linkAdrParams.ChMaskCtrl >= 7 ) )
 2082              		.loc 1 671 0
 2083 01b8 0429     		cmp	r1, #4
 2084 01ba 00D8     		bhi	.LCB1969
 2085 01bc 36E7     		b	.L130	@long jump
 2086              	.LCB1969:
 671:../../../../../../Middlewares/Third_Party/LoRaWAN/Mac/region/RegionIN865.c ****                 ( linkAdrParams.ChMaskCtrl >= 7 ) )
 2087              		.loc 1 671 0 is_stmt 0 discriminator 1
 2088 01be 062A     		cmp	r2, #6
 2089 01c0 00D0     		beq	.LCB1971
 2090 01c2 33E7     		b	.L130	@long jump
 2091              	.LCB1971:
 2092              	.LVL174:
 2093              	.LBB80:
 683:../../../../../../Middlewares/Third_Party/LoRaWAN/Mac/region/RegionIN865.c ****                     {
 2094              		.loc 1 683 0 is_stmt 1
 2095 01c4 4946     		mov	r1, r9
 2096 01c6 0968     		ldr	r1, [r1]
 2097 01c8 0022     		movs	r2, #0
 2098 01ca 0029     		cmp	r1, #0
 2099 01cc 02D0     		beq	.L155
 685:../../../../../../Middlewares/Third_Party/LoRaWAN/Mac/region/RegionIN865.c ****                     }
 2100              		.loc 1 685 0
 2101 01ce 0123     		movs	r3, #1
 2102 01d0 0132     		adds	r2, r2, #1
 2103 01d2 0343     		orrs	r3, r0
 2104              	.L155:
 2105              	.LVL175:
 683:../../../../../../Middlewares/Third_Party/LoRaWAN/Mac/region/RegionIN865.c ****                     {
 2106              		.loc 1 683 0
 2107 01d4 4946     		mov	r1, r9
 2108 01d6 C968     		ldr	r1, [r1, #12]
 2109 01d8 0029     		cmp	r1, #0
 2110 01da 02D0     		beq	.L156
 685:../../../../../../Middlewares/Third_Party/LoRaWAN/Mac/region/RegionIN865.c ****                     }
 2111              		.loc 1 685 0
 2112 01dc 0222     		movs	r2, #2
 2113 01de 1343     		orrs	r3, r2
 2114 01e0 0122     		movs	r2, #1
 2115              	.L156:
 2116              	.LVL176:
 683:../../../../../../Middlewares/Third_Party/LoRaWAN/Mac/region/RegionIN865.c ****                     {
 2117              		.loc 1 683 0
 2118 01e2 4946     		mov	r1, r9
 2119 01e4 8969     		ldr	r1, [r1, #24]
 2120 01e6 0029     		cmp	r1, #0
 2121 01e8 02D0     		beq	.L157
 685:../../../../../../Middlewares/Third_Party/LoRaWAN/Mac/region/RegionIN865.c ****                     }
ARM GAS  C:\Users\EBANO_~1\AppData\Local\Temp\ccEfOEMG.s 			page 61


 2122              		.loc 1 685 0
 2123 01ea 0422     		movs	r2, #4
 2124 01ec 1343     		orrs	r3, r2
 2125 01ee 0122     		movs	r2, #1
 2126              	.L157:
 2127              	.LVL177:
 683:../../../../../../Middlewares/Third_Party/LoRaWAN/Mac/region/RegionIN865.c ****                     {
 2128              		.loc 1 683 0
 2129 01f0 4946     		mov	r1, r9
 2130 01f2 496A     		ldr	r1, [r1, #36]
 2131 01f4 0029     		cmp	r1, #0
 2132 01f6 02D0     		beq	.L158
 685:../../../../../../Middlewares/Third_Party/LoRaWAN/Mac/region/RegionIN865.c ****                     }
 2133              		.loc 1 685 0
 2134 01f8 0822     		movs	r2, #8
 2135 01fa 1343     		orrs	r3, r2
 2136 01fc 0122     		movs	r2, #1
 2137              	.L158:
 2138              	.LVL178:
 683:../../../../../../Middlewares/Third_Party/LoRaWAN/Mac/region/RegionIN865.c ****                     {
 2139              		.loc 1 683 0
 2140 01fe 4946     		mov	r1, r9
 2141 0200 096B     		ldr	r1, [r1, #48]
 2142 0202 0029     		cmp	r1, #0
 2143 0204 02D0     		beq	.L159
 685:../../../../../../Middlewares/Third_Party/LoRaWAN/Mac/region/RegionIN865.c ****                     }
 2144              		.loc 1 685 0
 2145 0206 1022     		movs	r2, #16
 2146 0208 1343     		orrs	r3, r2
 2147 020a 0122     		movs	r2, #1
 2148              	.L159:
 2149              	.LVL179:
 683:../../../../../../Middlewares/Third_Party/LoRaWAN/Mac/region/RegionIN865.c ****                     {
 2150              		.loc 1 683 0
 2151 020c 4946     		mov	r1, r9
 2152 020e C96B     		ldr	r1, [r1, #60]
 2153 0210 0029     		cmp	r1, #0
 2154 0212 02D0     		beq	.L160
 685:../../../../../../Middlewares/Third_Party/LoRaWAN/Mac/region/RegionIN865.c ****                     }
 2155              		.loc 1 685 0
 2156 0214 2022     		movs	r2, #32
 2157 0216 1343     		orrs	r3, r2
 2158 0218 0122     		movs	r2, #1
 2159              	.L160:
 2160              	.LVL180:
 683:../../../../../../Middlewares/Third_Party/LoRaWAN/Mac/region/RegionIN865.c ****                     {
 2161              		.loc 1 683 0
 2162 021a 4946     		mov	r1, r9
 2163 021c 896C     		ldr	r1, [r1, #72]
 2164 021e 0029     		cmp	r1, #0
 2165 0220 02D0     		beq	.L161
 685:../../../../../../Middlewares/Third_Party/LoRaWAN/Mac/region/RegionIN865.c ****                     }
 2166              		.loc 1 685 0
 2167 0222 4022     		movs	r2, #64
 2168 0224 1343     		orrs	r3, r2
 2169 0226 0122     		movs	r2, #1
 2170              	.L161:
ARM GAS  C:\Users\EBANO_~1\AppData\Local\Temp\ccEfOEMG.s 			page 62


 2171              	.LVL181:
 683:../../../../../../Middlewares/Third_Party/LoRaWAN/Mac/region/RegionIN865.c ****                     {
 2172              		.loc 1 683 0
 2173 0228 4946     		mov	r1, r9
 2174 022a 496D     		ldr	r1, [r1, #84]
 2175 022c 0029     		cmp	r1, #0
 2176 022e 02D0     		beq	.L162
 685:../../../../../../Middlewares/Third_Party/LoRaWAN/Mac/region/RegionIN865.c ****                     }
 2177              		.loc 1 685 0
 2178 0230 8022     		movs	r2, #128
 2179 0232 1343     		orrs	r3, r2
 2180 0234 0122     		movs	r2, #1
 2181              	.L162:
 2182              	.LVL182:
 683:../../../../../../Middlewares/Third_Party/LoRaWAN/Mac/region/RegionIN865.c ****                     {
 2183              		.loc 1 683 0
 2184 0236 4946     		mov	r1, r9
 2185 0238 096E     		ldr	r1, [r1, #96]
 2186 023a 0029     		cmp	r1, #0
 2187 023c 03D0     		beq	.L163
 685:../../../../../../Middlewares/Third_Party/LoRaWAN/Mac/region/RegionIN865.c ****                     }
 2188              		.loc 1 685 0
 2189 023e 8022     		movs	r2, #128
 2190 0240 5200     		lsls	r2, r2, #1
 2191 0242 1343     		orrs	r3, r2
 2192 0244 FF3A     		subs	r2, r2, #255
 2193              	.L163:
 2194              	.LVL183:
 683:../../../../../../Middlewares/Third_Party/LoRaWAN/Mac/region/RegionIN865.c ****                     {
 2195              		.loc 1 683 0
 2196 0246 4946     		mov	r1, r9
 2197 0248 C96E     		ldr	r1, [r1, #108]
 2198 024a 0029     		cmp	r1, #0
 2199 024c 03D0     		beq	.L164
 685:../../../../../../Middlewares/Third_Party/LoRaWAN/Mac/region/RegionIN865.c ****                     }
 2200              		.loc 1 685 0
 2201 024e 8022     		movs	r2, #128
 2202 0250 9200     		lsls	r2, r2, #2
 2203 0252 1343     		orrs	r3, r2
 2204 0254 0122     		movs	r2, #1
 2205              	.L164:
 2206              	.LVL184:
 683:../../../../../../Middlewares/Third_Party/LoRaWAN/Mac/region/RegionIN865.c ****                     {
 2207              		.loc 1 683 0
 2208 0256 4946     		mov	r1, r9
 2209 0258 896F     		ldr	r1, [r1, #120]
 2210 025a 0029     		cmp	r1, #0
 2211 025c 03D0     		beq	.L165
 685:../../../../../../Middlewares/Third_Party/LoRaWAN/Mac/region/RegionIN865.c ****                     }
 2212              		.loc 1 685 0
 2213 025e 8022     		movs	r2, #128
 2214 0260 D200     		lsls	r2, r2, #3
 2215 0262 1343     		orrs	r3, r2
 2216 0264 0122     		movs	r2, #1
 2217              	.L165:
 2218              	.LVL185:
 683:../../../../../../Middlewares/Third_Party/LoRaWAN/Mac/region/RegionIN865.c ****                     {
ARM GAS  C:\Users\EBANO_~1\AppData\Local\Temp\ccEfOEMG.s 			page 63


 2219              		.loc 1 683 0
 2220 0266 8421     		movs	r1, #132
 2221 0268 4846     		mov	r0, r9
 2222 026a 4158     		ldr	r1, [r0, r1]
 2223 026c 0029     		cmp	r1, #0
 2224 026e 03D0     		beq	.L166
 685:../../../../../../Middlewares/Third_Party/LoRaWAN/Mac/region/RegionIN865.c ****                     }
 2225              		.loc 1 685 0
 2226 0270 8022     		movs	r2, #128
 2227 0272 1201     		lsls	r2, r2, #4
 2228 0274 1343     		orrs	r3, r2
 2229 0276 0122     		movs	r2, #1
 2230              	.L166:
 2231              	.LVL186:
 683:../../../../../../Middlewares/Third_Party/LoRaWAN/Mac/region/RegionIN865.c ****                     {
 2232              		.loc 1 683 0
 2233 0278 9021     		movs	r1, #144
 2234 027a 4846     		mov	r0, r9
 2235 027c 4158     		ldr	r1, [r0, r1]
 2236 027e 0029     		cmp	r1, #0
 2237 0280 03D0     		beq	.L167
 685:../../../../../../Middlewares/Third_Party/LoRaWAN/Mac/region/RegionIN865.c ****                     }
 2238              		.loc 1 685 0
 2239 0282 8022     		movs	r2, #128
 2240 0284 5201     		lsls	r2, r2, #5
 2241 0286 1343     		orrs	r3, r2
 2242 0288 0122     		movs	r2, #1
 2243              	.L167:
 2244              	.LVL187:
 683:../../../../../../Middlewares/Third_Party/LoRaWAN/Mac/region/RegionIN865.c ****                     {
 2245              		.loc 1 683 0
 2246 028a 9C21     		movs	r1, #156
 2247 028c 4846     		mov	r0, r9
 2248 028e 4158     		ldr	r1, [r0, r1]
 2249 0290 0029     		cmp	r1, #0
 2250 0292 58D1     		bne	.L287
 2251              	.LVL188:
 2252 0294 A821     		movs	r1, #168
 2253 0296 4158     		ldr	r1, [r0, r1]
 2254 0298 0029     		cmp	r1, #0
 2255 029a 4AD0     		beq	.L172
 2256              	.L169:
 685:../../../../../../Middlewares/Third_Party/LoRaWAN/Mac/region/RegionIN865.c ****                     }
 2257              		.loc 1 685 0
 2258 029c 8022     		movs	r2, #128
 2259 029e D201     		lsls	r2, r2, #7
 2260 02a0 1343     		orrs	r3, r2
 2261              	.LVL189:
 683:../../../../../../Middlewares/Third_Party/LoRaWAN/Mac/region/RegionIN865.c ****                     {
 2262              		.loc 1 683 0
 2263 02a2 4946     		mov	r1, r9
 2264 02a4 B422     		movs	r2, #180
 2265 02a6 8A58     		ldr	r2, [r1, r2]
 2266 02a8 002A     		cmp	r2, #0
 2267 02aa 02D0     		beq	.L171
 2268              	.L170:
 685:../../../../../../Middlewares/Third_Party/LoRaWAN/Mac/region/RegionIN865.c ****                     }
ARM GAS  C:\Users\EBANO_~1\AppData\Local\Temp\ccEfOEMG.s 			page 64


 2269              		.loc 1 685 0
 2270 02ac 8022     		movs	r2, #128
 2271 02ae 1202     		lsls	r2, r2, #8
 2272 02b0 1343     		orrs	r3, r2
 2273              	.LVL190:
 2274              	.L171:
 2275 02b2 009A     		ldr	r2, [sp]
 2276 02b4 1380     		strh	r3, [r2]
 683:../../../../../../Middlewares/Third_Party/LoRaWAN/Mac/region/RegionIN865.c ****                     {
 2277              		.loc 1 683 0
 2278 02b6 0723     		movs	r3, #7
 2279 02b8 9846     		mov	r8, r3
 2280 02ba B7E6     		b	.L130
 2281              	.L289:
 2282              		.align	2
 2283              	.L288:
 2284 02bc 00000000 		.word	NvmCtx
 2285              	.LVL191:
 2286              	.L286:
 2287              	.LBE80:
 707:../../../../../../Middlewares/Third_Party/LoRaWAN/Mac/region/RegionIN865.c ****         linkAdrVerifyParams.AdrEnabled = linkAdrReq->AdrEnabled;
 2288              		.loc 1 707 0
 2289 02c0 4746     		mov	r7, r8
 2290 02c2 06A8     		add	r0, sp, #24
 2291 02c4 0771     		strb	r7, [r0, #4]
 708:../../../../../../Middlewares/Third_Party/LoRaWAN/Mac/region/RegionIN865.c ****         linkAdrVerifyParams.Datarate = linkAdrParams.Datarate;
 2292              		.loc 1 708 0
 2293 02c6 B77A     		ldrb	r7, [r6, #10]
 710:../../../../../../Middlewares/Third_Party/LoRaWAN/Mac/region/RegionIN865.c ****         linkAdrVerifyParams.NbRep = linkAdrParams.NbRep;
 2294              		.loc 1 710 0
 2295 02c8 C171     		strb	r1, [r0, #7]
 711:../../../../../../Middlewares/Third_Party/LoRaWAN/Mac/region/RegionIN865.c ****         linkAdrVerifyParams.CurrentDatarate = linkAdrReq->CurrentDatarate;
 2296              		.loc 1 711 0
 2297 02ca 0272     		strb	r2, [r0, #8]
 708:../../../../../../Middlewares/Third_Party/LoRaWAN/Mac/region/RegionIN865.c ****         linkAdrVerifyParams.Datarate = linkAdrParams.Datarate;
 2298              		.loc 1 708 0
 2299 02cc 4771     		strb	r7, [r0, #5]
 709:../../../../../../Middlewares/Third_Party/LoRaWAN/Mac/region/RegionIN865.c ****         linkAdrVerifyParams.TxPower = linkAdrParams.TxPower;
 2300              		.loc 1 709 0
 2301 02ce 8371     		strb	r3, [r0, #6]
 712:../../../../../../Middlewares/Third_Party/LoRaWAN/Mac/region/RegionIN865.c ****         linkAdrVerifyParams.CurrentTxPower = linkAdrReq->CurrentTxPower;
 2302              		.loc 1 712 0
 2303 02d0 F37A     		ldrb	r3, [r6, #11]
 725:../../../../../../Middlewares/Third_Party/LoRaWAN/Mac/region/RegionIN865.c ****     }
 2304              		.loc 1 725 0
 2305 02d2 02A9     		add	r1, sp, #8
 712:../../../../../../Middlewares/Third_Party/LoRaWAN/Mac/region/RegionIN865.c ****         linkAdrVerifyParams.CurrentTxPower = linkAdrReq->CurrentTxPower;
 2306              		.loc 1 712 0
 2307 02d4 4372     		strb	r3, [r0, #9]
 713:../../../../../../Middlewares/Third_Party/LoRaWAN/Mac/region/RegionIN865.c ****         linkAdrVerifyParams.CurrentNbRep = linkAdrReq->CurrentNbRep;
 2308              		.loc 1 713 0
 2309 02d6 337B     		ldrb	r3, [r6, #12]
 725:../../../../../../Middlewares/Third_Party/LoRaWAN/Mac/region/RegionIN865.c ****     }
 2310              		.loc 1 725 0
 2311 02d8 8C46     		mov	ip, r1
 713:../../../../../../Middlewares/Third_Party/LoRaWAN/Mac/region/RegionIN865.c ****         linkAdrVerifyParams.CurrentNbRep = linkAdrReq->CurrentNbRep;
 2312              		.loc 1 713 0
ARM GAS  C:\Users\EBANO_~1\AppData\Local\Temp\ccEfOEMG.s 			page 65


 2313 02da 8372     		strb	r3, [r0, #10]
 714:../../../../../../Middlewares/Third_Party/LoRaWAN/Mac/region/RegionIN865.c ****         linkAdrVerifyParams.NbChannels = IN865_MAX_NB_CHANNELS;
 2314              		.loc 1 714 0
 2315 02dc 737B     		ldrb	r3, [r6, #13]
 725:../../../../../../Middlewares/Third_Party/LoRaWAN/Mac/region/RegionIN865.c ****     }
 2316              		.loc 1 725 0
 2317 02de 0A22     		movs	r2, #10
 714:../../../../../../Middlewares/Third_Party/LoRaWAN/Mac/region/RegionIN865.c ****         linkAdrVerifyParams.NbChannels = IN865_MAX_NB_CHANNELS;
 2318              		.loc 1 714 0
 2319 02e0 C372     		strb	r3, [r0, #11]
 715:../../../../../../Middlewares/Third_Party/LoRaWAN/Mac/region/RegionIN865.c ****         linkAdrVerifyParams.ChannelsMask = &chMask;
 2320              		.loc 1 715 0
 2321 02e2 1023     		movs	r3, #16
 2322 02e4 0373     		strb	r3, [r0, #12]
 716:../../../../../../Middlewares/Third_Party/LoRaWAN/Mac/region/RegionIN865.c ****         linkAdrVerifyParams.MinDatarate = ( int8_t )phyParam.Value;
 2323              		.loc 1 716 0
 2324 02e6 009B     		ldr	r3, [sp]
 725:../../../../../../Middlewares/Third_Party/LoRaWAN/Mac/region/RegionIN865.c ****     }
 2325              		.loc 1 725 0
 2326 02e8 0921     		movs	r1, #9
 716:../../../../../../Middlewares/Third_Party/LoRaWAN/Mac/region/RegionIN865.c ****         linkAdrVerifyParams.MinDatarate = ( int8_t )phyParam.Value;
 2327              		.loc 1 716 0
 2328 02ea 0361     		str	r3, [r0, #16]
 717:../../../../../../Middlewares/Third_Party/LoRaWAN/Mac/region/RegionIN865.c ****         linkAdrVerifyParams.MaxDatarate = IN865_TX_MAX_DATARATE;
 2329              		.loc 1 717 0
 2330 02ec E023     		movs	r3, #224
 2331 02ee DB00     		lsls	r3, r3, #3
 2332 02f0 8382     		strh	r3, [r0, #20]
 719:../../../../../../Middlewares/Third_Party/LoRaWAN/Mac/region/RegionIN865.c ****         linkAdrVerifyParams.MinTxPower = IN865_MIN_TX_POWER;
 2333              		.loc 1 719 0
 2334 02f2 1B4B     		ldr	r3, .L290
 725:../../../../../../Middlewares/Third_Party/LoRaWAN/Mac/region/RegionIN865.c ****     }
 2335              		.loc 1 725 0
 2336 02f4 6244     		add	r2, r2, ip
 719:../../../../../../Middlewares/Third_Party/LoRaWAN/Mac/region/RegionIN865.c ****         linkAdrVerifyParams.MinTxPower = IN865_MIN_TX_POWER;
 2337              		.loc 1 719 0
 2338 02f6 8361     		str	r3, [r0, #24]
 2339 02f8 9946     		mov	r9, r3
 720:../../../../../../Middlewares/Third_Party/LoRaWAN/Mac/region/RegionIN865.c ****         linkAdrVerifyParams.MaxTxPower = IN865_MAX_TX_POWER;
 2340              		.loc 1 720 0
 2341 02fa 0A23     		movs	r3, #10
 2342 02fc 8383     		strh	r3, [r0, #28]
 722:../../../../../../Middlewares/Third_Party/LoRaWAN/Mac/region/RegionIN865.c **** 
 2343              		.loc 1 722 0
 2344 02fe 3368     		ldr	r3, [r6]
 725:../../../../../../Middlewares/Third_Party/LoRaWAN/Mac/region/RegionIN865.c ****     }
 2345              		.loc 1 725 0
 2346 0300 6144     		add	r1, r1, ip
 722:../../../../../../Middlewares/Third_Party/LoRaWAN/Mac/region/RegionIN865.c **** 
 2347              		.loc 1 722 0
 2348 0302 0693     		str	r3, [sp, #24]
 725:../../../../../../Middlewares/Third_Party/LoRaWAN/Mac/region/RegionIN865.c ****     }
 2349              		.loc 1 725 0
 2350 0304 2B00     		movs	r3, r5
 2351 0306 FFF7FEFF 		bl	RegionCommonLinkAdrReqVerifyParams
 2352              	.LVL192:
 2353 030a 0600     		movs	r6, r0
ARM GAS  C:\Users\EBANO_~1\AppData\Local\Temp\ccEfOEMG.s 			page 66


 2354              	.LVL193:
 733:../../../../../../Middlewares/Third_Party/LoRaWAN/Mac/region/RegionIN865.c ****     {
 2355              		.loc 1 733 0
 2356 030c 0728     		cmp	r0, #7
 2357 030e 0AD1     		bne	.L285
 736:../../../../../../Middlewares/Third_Party/LoRaWAN/Mac/region/RegionIN865.c ****         // Update the channels mask
 2358              		.loc 1 736 0
 2359 0310 4846     		mov	r0, r9
 2360              	.LVL194:
 2361 0312 0222     		movs	r2, #2
 2362 0314 0021     		movs	r1, #0
 2363 0316 D030     		adds	r0, r0, #208
 2364 0318 FFF7FEFF 		bl	memset1
 2365              	.LVL195:
 738:../../../../../../Middlewares/Third_Party/LoRaWAN/Mac/region/RegionIN865.c ****     }
 2366              		.loc 1 738 0
 2367 031c 009B     		ldr	r3, [sp]
 2368 031e 4946     		mov	r1, r9
 2369 0320 1A88     		ldrh	r2, [r3]
 2370 0322 D023     		movs	r3, #208
 2371 0324 CA52     		strh	r2, [r1, r3]
 2372              	.L285:
 2373 0326 0123     		movs	r3, #1
 2374 0328 0221     		movs	r1, #2
 2375 032a EB56     		ldrsb	r3, [r5, r3]
 2376 032c 6956     		ldrsb	r1, [r5, r1]
 2377 032e 2A78     		ldrb	r2, [r5]
 2378 0330 2FE7     		b	.L177
 2379              	.LVL196:
 2380              	.L172:
 2381              	.LBB81:
 683:../../../../../../Middlewares/Third_Party/LoRaWAN/Mac/region/RegionIN865.c ****                     {
 2382              		.loc 1 683 0
 2383 0332 B421     		movs	r1, #180
 2384 0334 4158     		ldr	r1, [r0, r1]
 2385 0336 0029     		cmp	r1, #0
 2386 0338 B8D1     		bne	.L170
 2387              	.LVL197:
 2388 033a 0721     		movs	r1, #7
 2389 033c 8846     		mov	r8, r1
 2390 033e 002A     		cmp	r2, #0
 2391 0340 00D1     		bne	.LCB2285
 2392 0342 73E6     		b	.L130	@long jump
 2393              	.LCB2285:
 2394 0344 B5E7     		b	.L171
 2395              	.LVL198:
 2396              	.L287:
 685:../../../../../../Middlewares/Third_Party/LoRaWAN/Mac/region/RegionIN865.c ****                     }
 2397              		.loc 1 685 0
 2398 0346 8022     		movs	r2, #128
 2399 0348 9201     		lsls	r2, r2, #6
 2400 034a 1343     		orrs	r3, r2
 2401              	.LVL199:
 683:../../../../../../Middlewares/Third_Party/LoRaWAN/Mac/region/RegionIN865.c ****                     {
 2402              		.loc 1 683 0
 2403 034c A822     		movs	r2, #168
 2404 034e 8258     		ldr	r2, [r0, r2]
ARM GAS  C:\Users\EBANO_~1\AppData\Local\Temp\ccEfOEMG.s 			page 67


 2405 0350 002A     		cmp	r2, #0
 2406 0352 A3D1     		bne	.L169
 2407              	.LVL200:
 2408 0354 B432     		adds	r2, r2, #180
 2409 0356 8258     		ldr	r2, [r0, r2]
 2410 0358 002A     		cmp	r2, #0
 2411 035a A7D1     		bne	.L170
 2412 035c A9E7     		b	.L171
 2413              	.L291:
 2414 035e C046     		.align	2
 2415              	.L290:
 2416 0360 00000000 		.word	NvmCtx
 2417              	.LBE81:
 2418              		.cfi_endproc
 2419              	.LFE54:
 2420              		.size	RegionIN865LinkAdrReq, .-RegionIN865LinkAdrReq
 2421              		.section	.text.RegionIN865RxParamSetupReq,"ax",%progbits
 2422              		.align	1
 2423              		.p2align 2,,3
 2424              		.global	RegionIN865RxParamSetupReq
 2425              		.syntax unified
 2426              		.code	16
 2427              		.thumb_func
 2428              		.fpu softvfp
 2429              		.type	RegionIN865RxParamSetupReq, %function
 2430              	RegionIN865RxParamSetupReq:
 2431              	.LFB55:
 751:../../../../../../Middlewares/Third_Party/LoRaWAN/Mac/region/RegionIN865.c ****     uint8_t status = 0x07;
 2432              		.loc 1 751 0
 2433              		.cfi_startproc
 2434              		@ args = 0, pretend = 0, frame = 8
 2435              		@ frame_needed = 0, uses_anonymous_args = 0
 2436              	.LVL201:
 2437 0000 70B5     		push	{r4, r5, r6, lr}
 2438              	.LCFI22:
 2439              		.cfi_def_cfa_offset 16
 2440              		.cfi_offset 4, -16
 2441              		.cfi_offset 5, -12
 2442              		.cfi_offset 6, -8
 2443              		.cfi_offset 14, -4
 2444              	.LBB82:
 2445              	.LBB83:
 115:../../../../../../Middlewares/Third_Party/LoRaWAN/Mac/region/RegionIN865.c ****     {
 2446              		.loc 1 115 0
 2447 0002 154B     		ldr	r3, .L302
 2448              	.LBE83:
 2449              	.LBE82:
 755:../../../../../../Middlewares/Third_Party/LoRaWAN/Mac/region/RegionIN865.c ****     {
 2450              		.loc 1 755 0
 2451 0004 4568     		ldr	r5, [r0, #4]
 2452              	.LVL202:
 2453              	.LBB87:
 2454              	.LBB84:
 115:../../../../../../Middlewares/Third_Party/LoRaWAN/Mac/region/RegionIN865.c ****     {
 2455              		.loc 1 115 0
 2456 0006 9B6A     		ldr	r3, [r3, #40]
 2457              	.LBE84:
ARM GAS  C:\Users\EBANO_~1\AppData\Local\Temp\ccEfOEMG.s 			page 68


 2458              	.LBE87:
 751:../../../../../../Middlewares/Third_Party/LoRaWAN/Mac/region/RegionIN865.c ****     uint8_t status = 0x07;
 2459              		.loc 1 751 0
 2460 0008 82B0     		sub	sp, sp, #8
 2461              	.LCFI23:
 2462              		.cfi_def_cfa_offset 24
 751:../../../../../../Middlewares/Third_Party/LoRaWAN/Mac/region/RegionIN865.c ****     uint8_t status = 0x07;
 2463              		.loc 1 751 0
 2464 000a 0400     		movs	r4, r0
 2465              	.LBB88:
 2466              	.LBB85:
 115:../../../../../../Middlewares/Third_Party/LoRaWAN/Mac/region/RegionIN865.c ****     {
 2467              		.loc 1 115 0
 2468 000c 2800     		movs	r0, r5
 2469              	.LVL203:
 2470 000e 0193     		str	r3, [sp, #4]
 2471 0010 9847     		blx	r3
 2472              	.LVL204:
 2473 0012 0028     		cmp	r0, #0
 2474 0014 05D0     		beq	.L297
 120:../../../../../../Middlewares/Third_Party/LoRaWAN/Mac/region/RegionIN865.c ****     {
 2475              		.loc 1 120 0
 2476 0016 114B     		ldr	r3, .L302+4
 2477 0018 9C46     		mov	ip, r3
 2478 001a 114B     		ldr	r3, .L302+8
 2479 001c 6544     		add	r5, r5, ip
 2480              	.LVL205:
 2481 001e 9D42     		cmp	r5, r3
 2482 0020 17D9     		bls	.L301
 2483              	.LVL206:
 2484              	.L297:
 2485 0022 0425     		movs	r5, #4
 2486              	.LBE85:
 2487              	.LBE88:
 757:../../../../../../Middlewares/Third_Party/LoRaWAN/Mac/region/RegionIN865.c ****     }
 2488              		.loc 1 757 0
 2489 0024 0626     		movs	r6, #6
 2490              	.L293:
 2491              	.LVL207:
 761:../../../../../../Middlewares/Third_Party/LoRaWAN/Mac/region/RegionIN865.c ****     {
 2492              		.loc 1 761 0
 2493 0026 0020     		movs	r0, #0
 2494 0028 0722     		movs	r2, #7
 2495 002a 2056     		ldrsb	r0, [r4, r0]
 2496 002c 0021     		movs	r1, #0
 2497 002e FFF7FEFF 		bl	RegionCommonValueInRange
 2498              	.LVL208:
 2499 0032 0028     		cmp	r0, #0
 2500 0034 00D0     		beq	.L294
 2501 0036 3500     		movs	r5, r6
 2502              	.L294:
 2503              	.LVL209:
 767:../../../../../../Middlewares/Third_Party/LoRaWAN/Mac/region/RegionIN865.c ****     {
 2504              		.loc 1 767 0
 2505 0038 0120     		movs	r0, #1
 2506 003a 0722     		movs	r2, #7
 2507 003c 2056     		ldrsb	r0, [r4, r0]
ARM GAS  C:\Users\EBANO_~1\AppData\Local\Temp\ccEfOEMG.s 			page 69


 2508 003e 0021     		movs	r1, #0
 2509 0040 FFF7FEFF 		bl	RegionCommonValueInRange
 2510              	.LVL210:
 2511 0044 0028     		cmp	r0, #0
 2512 0046 01D1     		bne	.L295
 769:../../../../../../Middlewares/Third_Party/LoRaWAN/Mac/region/RegionIN865.c ****     }
 2513              		.loc 1 769 0
 2514 0048 FB23     		movs	r3, #251
 2515 004a 1D40     		ands	r5, r3
 2516              	.LVL211:
 2517              	.L295:
 773:../../../../../../Middlewares/Third_Party/LoRaWAN/Mac/region/RegionIN865.c **** 
 2518              		.loc 1 773 0
 2519 004c 2800     		movs	r0, r5
 2520 004e 02B0     		add	sp, sp, #8
 2521              		@ sp needed
 2522              	.LVL212:
 2523              	.LVL213:
 2524 0050 70BD     		pop	{r4, r5, r6, pc}
 2525              	.LVL214:
 2526              	.L301:
 2527              	.LBB89:
 2528              	.LBB86:
 120:../../../../../../Middlewares/Third_Party/LoRaWAN/Mac/region/RegionIN865.c ****     {
 2529              		.loc 1 120 0
 2530 0052 0525     		movs	r5, #5
 2531              	.LVL215:
 2532              	.LBE86:
 2533              	.LBE89:
 752:../../../../../../Middlewares/Third_Party/LoRaWAN/Mac/region/RegionIN865.c **** 
 2534              		.loc 1 752 0
 2535 0054 0726     		movs	r6, #7
 2536 0056 E6E7     		b	.L293
 2537              	.L303:
 2538              		.align	2
 2539              	.L302:
 2540 0058 00000000 		.word	Radio
 2541 005c C02571CC 		.word	-865000000
 2542 0060 80841E00 		.word	2000000
 2543              		.cfi_endproc
 2544              	.LFE55:
 2545              		.size	RegionIN865RxParamSetupReq, .-RegionIN865RxParamSetupReq
 2546              		.section	.text.RegionIN865NewChannelReq,"ax",%progbits
 2547              		.align	1
 2548              		.p2align 2,,3
 2549              		.global	RegionIN865NewChannelReq
 2550              		.syntax unified
 2551              		.code	16
 2552              		.thumb_func
 2553              		.fpu softvfp
 2554              		.type	RegionIN865NewChannelReq, %function
 2555              	RegionIN865NewChannelReq:
 2556              	.LFB56:
 776:../../../../../../Middlewares/Third_Party/LoRaWAN/Mac/region/RegionIN865.c ****     uint8_t status = 0x03;
 2557              		.loc 1 776 0
 2558              		.cfi_startproc
 2559              		@ args = 0, pretend = 0, frame = 8
ARM GAS  C:\Users\EBANO_~1\AppData\Local\Temp\ccEfOEMG.s 			page 70


 2560              		@ frame_needed = 0, uses_anonymous_args = 0
 2561              	.LVL216:
 2562 0000 F0B5     		push	{r4, r5, r6, r7, lr}
 2563              	.LCFI24:
 2564              		.cfi_def_cfa_offset 20
 2565              		.cfi_offset 4, -20
 2566              		.cfi_offset 5, -16
 2567              		.cfi_offset 6, -12
 2568              		.cfi_offset 7, -8
 2569              		.cfi_offset 14, -4
 2570 0002 C646     		mov	lr, r8
 2571 0004 00B5     		push	{lr}
 2572              	.LCFI25:
 2573              		.cfi_def_cfa_offset 24
 2574              		.cfi_offset 8, -24
 781:../../../../../../Middlewares/Third_Party/LoRaWAN/Mac/region/RegionIN865.c ****     {
 2575              		.loc 1 781 0
 2576 0006 0468     		ldr	r4, [r0]
 776:../../../../../../Middlewares/Third_Party/LoRaWAN/Mac/region/RegionIN865.c ****     uint8_t status = 0x03;
 2577              		.loc 1 776 0
 2578 0008 82B0     		sub	sp, sp, #8
