ARM GAS  C:\Users\EBANO_~1\AppData\Local\Temp\cchbxRq9.s 			page 1


   1              		.cpu cortex-m0plus
   2              		.eabi_attribute 20, 1
   3              		.eabi_attribute 21, 1
   4              		.eabi_attribute 23, 3
   5              		.eabi_attribute 24, 1
   6              		.eabi_attribute 25, 1
   7              		.eabi_attribute 26, 1
   8              		.eabi_attribute 30, 2
   9              		.eabi_attribute 34, 0
  10              		.eabi_attribute 18, 4
  11              		.file	"RegionCN470.c"
  12              		.text
  13              	.Ltext0:
  14              		.cfi_sections	.debug_frame
  15              		.section	.text.RegionCN470GetPhyParam,"ax",%progbits
  16              		.align	1
  17              		.p2align 2,,3
  18              		.global	RegionCN470GetPhyParam
  19              		.syntax unified
  20              		.code	16
  21              		.thumb_func
  22              		.fpu softvfp
  23              		.type	RegionCN470GetPhyParam, %function
  24              	RegionCN470GetPhyParam:
  25              	.LFB44:
  26              		.file 1 "../../../../../../Middlewares/Third_Party/LoRaWAN/Mac/region/RegionCN470.c"
   1:../../../../../../Middlewares/Third_Party/LoRaWAN/Mac/region/RegionCN470.c **** /*!
   2:../../../../../../Middlewares/Third_Party/LoRaWAN/Mac/region/RegionCN470.c ****  * \file      RegionCN470.c
   3:../../../../../../Middlewares/Third_Party/LoRaWAN/Mac/region/RegionCN470.c ****  *
   4:../../../../../../Middlewares/Third_Party/LoRaWAN/Mac/region/RegionCN470.c ****  * \brief     Region implementation for CN470
   5:../../../../../../Middlewares/Third_Party/LoRaWAN/Mac/region/RegionCN470.c ****  *
   6:../../../../../../Middlewares/Third_Party/LoRaWAN/Mac/region/RegionCN470.c ****  * \copyright Revised BSD License, see section \ref LICENSE.
   7:../../../../../../Middlewares/Third_Party/LoRaWAN/Mac/region/RegionCN470.c ****  *
   8:../../../../../../Middlewares/Third_Party/LoRaWAN/Mac/region/RegionCN470.c ****  * \code
   9:../../../../../../Middlewares/Third_Party/LoRaWAN/Mac/region/RegionCN470.c ****  *                ______                              _
  10:../../../../../../Middlewares/Third_Party/LoRaWAN/Mac/region/RegionCN470.c ****  *               / _____)             _              | |
  11:../../../../../../Middlewares/Third_Party/LoRaWAN/Mac/region/RegionCN470.c ****  *              ( (____  _____ ____ _| |_ _____  ____| |__
  12:../../../../../../Middlewares/Third_Party/LoRaWAN/Mac/region/RegionCN470.c ****  *               \____ \| ___ |    (_   _) ___ |/ ___)  _ \
  13:../../../../../../Middlewares/Third_Party/LoRaWAN/Mac/region/RegionCN470.c ****  *               _____) ) ____| | | || |_| ____( (___| | | |
  14:../../../../../../Middlewares/Third_Party/LoRaWAN/Mac/region/RegionCN470.c ****  *              (______/|_____)_|_|_| \__)_____)\____)_| |_|
  15:../../../../../../Middlewares/Third_Party/LoRaWAN/Mac/region/RegionCN470.c ****  *              (C)2013-2017 Semtech
  16:../../../../../../Middlewares/Third_Party/LoRaWAN/Mac/region/RegionCN470.c ****  *
  17:../../../../../../Middlewares/Third_Party/LoRaWAN/Mac/region/RegionCN470.c ****  *               ___ _____ _   ___ _  _____ ___  ___  ___ ___
  18:../../../../../../Middlewares/Third_Party/LoRaWAN/Mac/region/RegionCN470.c ****  *              / __|_   _/_\ / __| |/ / __/ _ \| _ \/ __| __|
  19:../../../../../../Middlewares/Third_Party/LoRaWAN/Mac/region/RegionCN470.c ****  *              \__ \ | |/ _ \ (__| ' <| _| (_) |   / (__| _|
  20:../../../../../../Middlewares/Third_Party/LoRaWAN/Mac/region/RegionCN470.c ****  *              |___/ |_/_/ \_\___|_|\_\_| \___/|_|_\\___|___|
  21:../../../../../../Middlewares/Third_Party/LoRaWAN/Mac/region/RegionCN470.c ****  *              embedded.connectivity.solutions===============
  22:../../../../../../Middlewares/Third_Party/LoRaWAN/Mac/region/RegionCN470.c ****  *
  23:../../../../../../Middlewares/Third_Party/LoRaWAN/Mac/region/RegionCN470.c ****  * \endcode
  24:../../../../../../Middlewares/Third_Party/LoRaWAN/Mac/region/RegionCN470.c ****  *
  25:../../../../../../Middlewares/Third_Party/LoRaWAN/Mac/region/RegionCN470.c ****  * \author    Miguel Luis ( Semtech )
  26:../../../../../../Middlewares/Third_Party/LoRaWAN/Mac/region/RegionCN470.c ****  *
  27:../../../../../../Middlewares/Third_Party/LoRaWAN/Mac/region/RegionCN470.c ****  * \author    Gregory Cristian ( Semtech )
  28:../../../../../../Middlewares/Third_Party/LoRaWAN/Mac/region/RegionCN470.c ****  *
  29:../../../../../../Middlewares/Third_Party/LoRaWAN/Mac/region/RegionCN470.c ****  * \author    Daniel Jaeckle ( STACKFORCE )
  30:../../../../../../Middlewares/Third_Party/LoRaWAN/Mac/region/RegionCN470.c **** */
  31:../../../../../../Middlewares/Third_Party/LoRaWAN/Mac/region/RegionCN470.c **** #include "utilities.h"
ARM GAS  C:\Users\EBANO_~1\AppData\Local\Temp\cchbxRq9.s 			page 2


  32:../../../../../../Middlewares/Third_Party/LoRaWAN/Mac/region/RegionCN470.c **** 
  33:../../../../../../Middlewares/Third_Party/LoRaWAN/Mac/region/RegionCN470.c **** #include "RegionCommon.h"
  34:../../../../../../Middlewares/Third_Party/LoRaWAN/Mac/region/RegionCN470.c **** #include "RegionCN470.h"
  35:../../../../../../Middlewares/Third_Party/LoRaWAN/Mac/region/RegionCN470.c **** #include "util_console.h"
  36:../../../../../../Middlewares/Third_Party/LoRaWAN/Mac/region/RegionCN470.c **** 
  37:../../../../../../Middlewares/Third_Party/LoRaWAN/Mac/region/RegionCN470.c **** // Definitions
  38:../../../../../../Middlewares/Third_Party/LoRaWAN/Mac/region/RegionCN470.c **** #define CHANNELS_MASK_SIZE              6
  39:../../../../../../Middlewares/Third_Party/LoRaWAN/Mac/region/RegionCN470.c **** 
  40:../../../../../../Middlewares/Third_Party/LoRaWAN/Mac/region/RegionCN470.c **** /*!
  41:../../../../../../Middlewares/Third_Party/LoRaWAN/Mac/region/RegionCN470.c ****  * Region specific context
  42:../../../../../../Middlewares/Third_Party/LoRaWAN/Mac/region/RegionCN470.c ****  */
  43:../../../../../../Middlewares/Third_Party/LoRaWAN/Mac/region/RegionCN470.c **** typedef struct sRegionCN470NvmCtx
  44:../../../../../../Middlewares/Third_Party/LoRaWAN/Mac/region/RegionCN470.c **** {
  45:../../../../../../Middlewares/Third_Party/LoRaWAN/Mac/region/RegionCN470.c ****     /*!
  46:../../../../../../Middlewares/Third_Party/LoRaWAN/Mac/region/RegionCN470.c ****      * LoRaMAC channels
  47:../../../../../../Middlewares/Third_Party/LoRaWAN/Mac/region/RegionCN470.c ****      */
  48:../../../../../../Middlewares/Third_Party/LoRaWAN/Mac/region/RegionCN470.c ****     ChannelParams_t Channels[ CN470_MAX_NB_CHANNELS ];
  49:../../../../../../Middlewares/Third_Party/LoRaWAN/Mac/region/RegionCN470.c ****     /*!
  50:../../../../../../Middlewares/Third_Party/LoRaWAN/Mac/region/RegionCN470.c ****      * LoRaMac bands
  51:../../../../../../Middlewares/Third_Party/LoRaWAN/Mac/region/RegionCN470.c ****      */
  52:../../../../../../Middlewares/Third_Party/LoRaWAN/Mac/region/RegionCN470.c ****     Band_t Bands[ CN470_MAX_NB_BANDS ];
  53:../../../../../../Middlewares/Third_Party/LoRaWAN/Mac/region/RegionCN470.c ****     /*!
  54:../../../../../../Middlewares/Third_Party/LoRaWAN/Mac/region/RegionCN470.c ****      * LoRaMac channels mask
  55:../../../../../../Middlewares/Third_Party/LoRaWAN/Mac/region/RegionCN470.c ****      */
  56:../../../../../../Middlewares/Third_Party/LoRaWAN/Mac/region/RegionCN470.c ****     uint16_t ChannelsMask[ CHANNELS_MASK_SIZE ];
  57:../../../../../../Middlewares/Third_Party/LoRaWAN/Mac/region/RegionCN470.c ****     /*!
  58:../../../../../../Middlewares/Third_Party/LoRaWAN/Mac/region/RegionCN470.c ****      * LoRaMac channels default mask
  59:../../../../../../Middlewares/Third_Party/LoRaWAN/Mac/region/RegionCN470.c ****      */
  60:../../../../../../Middlewares/Third_Party/LoRaWAN/Mac/region/RegionCN470.c ****     uint16_t ChannelsDefaultMask[ CHANNELS_MASK_SIZE ];
  61:../../../../../../Middlewares/Third_Party/LoRaWAN/Mac/region/RegionCN470.c **** }RegionCN470NvmCtx_t;
  62:../../../../../../Middlewares/Third_Party/LoRaWAN/Mac/region/RegionCN470.c **** 
  63:../../../../../../Middlewares/Third_Party/LoRaWAN/Mac/region/RegionCN470.c **** /*
  64:../../../../../../Middlewares/Third_Party/LoRaWAN/Mac/region/RegionCN470.c ****  * Non-volatile module context.
  65:../../../../../../Middlewares/Third_Party/LoRaWAN/Mac/region/RegionCN470.c ****  */
  66:../../../../../../Middlewares/Third_Party/LoRaWAN/Mac/region/RegionCN470.c **** static RegionCN470NvmCtx_t NvmCtx;
  67:../../../../../../Middlewares/Third_Party/LoRaWAN/Mac/region/RegionCN470.c **** 
  68:../../../../../../Middlewares/Third_Party/LoRaWAN/Mac/region/RegionCN470.c **** // Static functions
  69:../../../../../../Middlewares/Third_Party/LoRaWAN/Mac/region/RegionCN470.c **** static int8_t GetNextLowerTxDr( int8_t dr, int8_t minDr )
  70:../../../../../../Middlewares/Third_Party/LoRaWAN/Mac/region/RegionCN470.c **** {
  71:../../../../../../Middlewares/Third_Party/LoRaWAN/Mac/region/RegionCN470.c ****     uint8_t nextLowerDr = 0;
  72:../../../../../../Middlewares/Third_Party/LoRaWAN/Mac/region/RegionCN470.c **** 
  73:../../../../../../Middlewares/Third_Party/LoRaWAN/Mac/region/RegionCN470.c ****     if( dr == minDr )
  74:../../../../../../Middlewares/Third_Party/LoRaWAN/Mac/region/RegionCN470.c ****     {
  75:../../../../../../Middlewares/Third_Party/LoRaWAN/Mac/region/RegionCN470.c ****         nextLowerDr = minDr;
  76:../../../../../../Middlewares/Third_Party/LoRaWAN/Mac/region/RegionCN470.c ****     }
  77:../../../../../../Middlewares/Third_Party/LoRaWAN/Mac/region/RegionCN470.c ****     else
  78:../../../../../../Middlewares/Third_Party/LoRaWAN/Mac/region/RegionCN470.c ****     {
  79:../../../../../../Middlewares/Third_Party/LoRaWAN/Mac/region/RegionCN470.c ****         nextLowerDr = dr - 1;
  80:../../../../../../Middlewares/Third_Party/LoRaWAN/Mac/region/RegionCN470.c ****     }
  81:../../../../../../Middlewares/Third_Party/LoRaWAN/Mac/region/RegionCN470.c ****     return nextLowerDr;
  82:../../../../../../Middlewares/Third_Party/LoRaWAN/Mac/region/RegionCN470.c **** }
  83:../../../../../../Middlewares/Third_Party/LoRaWAN/Mac/region/RegionCN470.c **** 
  84:../../../../../../Middlewares/Third_Party/LoRaWAN/Mac/region/RegionCN470.c **** static uint32_t GetBandwidth( uint32_t drIndex )
  85:../../../../../../Middlewares/Third_Party/LoRaWAN/Mac/region/RegionCN470.c **** {
  86:../../../../../../Middlewares/Third_Party/LoRaWAN/Mac/region/RegionCN470.c ****     switch( BandwidthsCN470[drIndex] )
  87:../../../../../../Middlewares/Third_Party/LoRaWAN/Mac/region/RegionCN470.c ****     {
  88:../../../../../../Middlewares/Third_Party/LoRaWAN/Mac/region/RegionCN470.c ****         default:
ARM GAS  C:\Users\EBANO_~1\AppData\Local\Temp\cchbxRq9.s 			page 3


  89:../../../../../../Middlewares/Third_Party/LoRaWAN/Mac/region/RegionCN470.c ****         case 125000:
  90:../../../../../../Middlewares/Third_Party/LoRaWAN/Mac/region/RegionCN470.c ****             return 0;
  91:../../../../../../Middlewares/Third_Party/LoRaWAN/Mac/region/RegionCN470.c ****         case 250000:
  92:../../../../../../Middlewares/Third_Party/LoRaWAN/Mac/region/RegionCN470.c ****             return 1;
  93:../../../../../../Middlewares/Third_Party/LoRaWAN/Mac/region/RegionCN470.c ****         case 500000:
  94:../../../../../../Middlewares/Third_Party/LoRaWAN/Mac/region/RegionCN470.c ****             return 2;
  95:../../../../../../Middlewares/Third_Party/LoRaWAN/Mac/region/RegionCN470.c ****     }
  96:../../../../../../Middlewares/Third_Party/LoRaWAN/Mac/region/RegionCN470.c **** }
  97:../../../../../../Middlewares/Third_Party/LoRaWAN/Mac/region/RegionCN470.c **** 
  98:../../../../../../Middlewares/Third_Party/LoRaWAN/Mac/region/RegionCN470.c **** static int8_t LimitTxPower( int8_t txPower, int8_t maxBandTxPower, int8_t datarate, uint16_t* chann
  99:../../../../../../Middlewares/Third_Party/LoRaWAN/Mac/region/RegionCN470.c **** {
 100:../../../../../../Middlewares/Third_Party/LoRaWAN/Mac/region/RegionCN470.c ****     int8_t txPowerResult = txPower;
 101:../../../../../../Middlewares/Third_Party/LoRaWAN/Mac/region/RegionCN470.c **** 
 102:../../../../../../Middlewares/Third_Party/LoRaWAN/Mac/region/RegionCN470.c ****     // Limit tx power to the band max
 103:../../../../../../Middlewares/Third_Party/LoRaWAN/Mac/region/RegionCN470.c ****     txPowerResult =  MAX( txPower, maxBandTxPower );
 104:../../../../../../Middlewares/Third_Party/LoRaWAN/Mac/region/RegionCN470.c **** 
 105:../../../../../../Middlewares/Third_Party/LoRaWAN/Mac/region/RegionCN470.c ****     return txPowerResult;
 106:../../../../../../Middlewares/Third_Party/LoRaWAN/Mac/region/RegionCN470.c **** }
 107:../../../../../../Middlewares/Third_Party/LoRaWAN/Mac/region/RegionCN470.c **** 
 108:../../../../../../Middlewares/Third_Party/LoRaWAN/Mac/region/RegionCN470.c **** static bool VerifyRfFreq( uint32_t freq )
 109:../../../../../../Middlewares/Third_Party/LoRaWAN/Mac/region/RegionCN470.c **** {
 110:../../../../../../Middlewares/Third_Party/LoRaWAN/Mac/region/RegionCN470.c ****     // Check radio driver support
 111:../../../../../../Middlewares/Third_Party/LoRaWAN/Mac/region/RegionCN470.c ****     if( Radio.CheckRfFrequency( freq ) == false )
 112:../../../../../../Middlewares/Third_Party/LoRaWAN/Mac/region/RegionCN470.c ****     {
 113:../../../../../../Middlewares/Third_Party/LoRaWAN/Mac/region/RegionCN470.c ****         return false;
 114:../../../../../../Middlewares/Third_Party/LoRaWAN/Mac/region/RegionCN470.c ****     }
 115:../../../../../../Middlewares/Third_Party/LoRaWAN/Mac/region/RegionCN470.c **** 
 116:../../../../../../Middlewares/Third_Party/LoRaWAN/Mac/region/RegionCN470.c ****     // Rx frequencies
 117:../../../../../../Middlewares/Third_Party/LoRaWAN/Mac/region/RegionCN470.c ****     if( ( freq < CN470_FIRST_RX1_CHANNEL ) ||
 118:../../../../../../Middlewares/Third_Party/LoRaWAN/Mac/region/RegionCN470.c ****         ( freq > CN470_LAST_RX1_CHANNEL ) ||
 119:../../../../../../Middlewares/Third_Party/LoRaWAN/Mac/region/RegionCN470.c ****         ( ( ( freq - ( uint32_t ) CN470_FIRST_RX1_CHANNEL ) % ( uint32_t ) CN470_STEPWIDTH_RX1_CHAN
 120:../../../../../../Middlewares/Third_Party/LoRaWAN/Mac/region/RegionCN470.c ****     {
 121:../../../../../../Middlewares/Third_Party/LoRaWAN/Mac/region/RegionCN470.c ****         return false;
 122:../../../../../../Middlewares/Third_Party/LoRaWAN/Mac/region/RegionCN470.c ****     }
 123:../../../../../../Middlewares/Third_Party/LoRaWAN/Mac/region/RegionCN470.c **** 
 124:../../../../../../Middlewares/Third_Party/LoRaWAN/Mac/region/RegionCN470.c ****     // Test for frequency range - take RX and TX freqencies into account
 125:../../../../../../Middlewares/Third_Party/LoRaWAN/Mac/region/RegionCN470.c ****     if( ( freq < 470300000 ) ||  ( freq > 509700000 ) )
 126:../../../../../../Middlewares/Third_Party/LoRaWAN/Mac/region/RegionCN470.c ****     {
 127:../../../../../../Middlewares/Third_Party/LoRaWAN/Mac/region/RegionCN470.c ****         return false;
 128:../../../../../../Middlewares/Third_Party/LoRaWAN/Mac/region/RegionCN470.c ****     }
 129:../../../../../../Middlewares/Third_Party/LoRaWAN/Mac/region/RegionCN470.c ****     return true;
 130:../../../../../../Middlewares/Third_Party/LoRaWAN/Mac/region/RegionCN470.c **** }
 131:../../../../../../Middlewares/Third_Party/LoRaWAN/Mac/region/RegionCN470.c **** 
 132:../../../../../../Middlewares/Third_Party/LoRaWAN/Mac/region/RegionCN470.c **** static uint8_t CountNbOfEnabledChannels( uint8_t datarate, uint16_t* channelsMask, ChannelParams_t*
 133:../../../../../../Middlewares/Third_Party/LoRaWAN/Mac/region/RegionCN470.c **** {
 134:../../../../../../Middlewares/Third_Party/LoRaWAN/Mac/region/RegionCN470.c ****     uint8_t nbEnabledChannels = 0;
 135:../../../../../../Middlewares/Third_Party/LoRaWAN/Mac/region/RegionCN470.c ****     uint8_t delayTransmission = 0;
 136:../../../../../../Middlewares/Third_Party/LoRaWAN/Mac/region/RegionCN470.c **** 
 137:../../../../../../Middlewares/Third_Party/LoRaWAN/Mac/region/RegionCN470.c ****     for( uint8_t i = 0, k = 0; i < CN470_MAX_NB_CHANNELS; i += 16, k++ )
 138:../../../../../../Middlewares/Third_Party/LoRaWAN/Mac/region/RegionCN470.c ****     {
 139:../../../../../../Middlewares/Third_Party/LoRaWAN/Mac/region/RegionCN470.c ****         for( uint8_t j = 0; j < 16; j++ )
 140:../../../../../../Middlewares/Third_Party/LoRaWAN/Mac/region/RegionCN470.c ****         {
 141:../../../../../../Middlewares/Third_Party/LoRaWAN/Mac/region/RegionCN470.c ****             if( ( channelsMask[k] & ( 1 << j ) ) != 0 )
 142:../../../../../../Middlewares/Third_Party/LoRaWAN/Mac/region/RegionCN470.c ****             {
 143:../../../../../../Middlewares/Third_Party/LoRaWAN/Mac/region/RegionCN470.c ****                 if( channels[i + j].Frequency == 0 )
 144:../../../../../../Middlewares/Third_Party/LoRaWAN/Mac/region/RegionCN470.c ****                 { // Check if the channel is enabled
 145:../../../../../../Middlewares/Third_Party/LoRaWAN/Mac/region/RegionCN470.c ****                     continue;
ARM GAS  C:\Users\EBANO_~1\AppData\Local\Temp\cchbxRq9.s 			page 4


 146:../../../../../../Middlewares/Third_Party/LoRaWAN/Mac/region/RegionCN470.c ****                 }
 147:../../../../../../Middlewares/Third_Party/LoRaWAN/Mac/region/RegionCN470.c ****                 if( RegionCommonValueInRange( datarate, channels[i + j].DrRange.Fields.Min,
 148:../../../../../../Middlewares/Third_Party/LoRaWAN/Mac/region/RegionCN470.c ****                                               channels[i + j].DrRange.Fields.Max ) == false )
 149:../../../../../../Middlewares/Third_Party/LoRaWAN/Mac/region/RegionCN470.c ****                 { // Check if the current channel selection supports the given datarate
 150:../../../../../../Middlewares/Third_Party/LoRaWAN/Mac/region/RegionCN470.c ****                     continue;
 151:../../../../../../Middlewares/Third_Party/LoRaWAN/Mac/region/RegionCN470.c ****                 }
 152:../../../../../../Middlewares/Third_Party/LoRaWAN/Mac/region/RegionCN470.c ****                 if( bands[channels[i + j].Band].TimeOff > 0 )
 153:../../../../../../Middlewares/Third_Party/LoRaWAN/Mac/region/RegionCN470.c ****                 { // Check if the band is available for transmission
 154:../../../../../../Middlewares/Third_Party/LoRaWAN/Mac/region/RegionCN470.c ****                     delayTransmission++;
 155:../../../../../../Middlewares/Third_Party/LoRaWAN/Mac/region/RegionCN470.c ****                     continue;
 156:../../../../../../Middlewares/Third_Party/LoRaWAN/Mac/region/RegionCN470.c ****                 }
 157:../../../../../../Middlewares/Third_Party/LoRaWAN/Mac/region/RegionCN470.c ****                 enabledChannels[nbEnabledChannels++] = i + j;
 158:../../../../../../Middlewares/Third_Party/LoRaWAN/Mac/region/RegionCN470.c ****             }
 159:../../../../../../Middlewares/Third_Party/LoRaWAN/Mac/region/RegionCN470.c ****         }
 160:../../../../../../Middlewares/Third_Party/LoRaWAN/Mac/region/RegionCN470.c ****     }
 161:../../../../../../Middlewares/Third_Party/LoRaWAN/Mac/region/RegionCN470.c **** 
 162:../../../../../../Middlewares/Third_Party/LoRaWAN/Mac/region/RegionCN470.c ****     *delayTx = delayTransmission;
 163:../../../../../../Middlewares/Third_Party/LoRaWAN/Mac/region/RegionCN470.c ****     return nbEnabledChannels;
 164:../../../../../../Middlewares/Third_Party/LoRaWAN/Mac/region/RegionCN470.c **** }
 165:../../../../../../Middlewares/Third_Party/LoRaWAN/Mac/region/RegionCN470.c **** 
 166:../../../../../../Middlewares/Third_Party/LoRaWAN/Mac/region/RegionCN470.c **** PhyParam_t RegionCN470GetPhyParam( GetPhyParams_t* getPhy )
 167:../../../../../../Middlewares/Third_Party/LoRaWAN/Mac/region/RegionCN470.c **** {
  27              		.loc 1 167 0
  28              		.cfi_startproc
  29              		@ args = 0, pretend = 0, frame = 8
  30              		@ frame_needed = 0, uses_anonymous_args = 0
  31              	.LVL0:
 168:../../../../../../Middlewares/Third_Party/LoRaWAN/Mac/region/RegionCN470.c ****     PhyParam_t phyParam = { 0 };
  32              		.loc 1 168 0
  33 0000 0023     		movs	r3, #0
 167:../../../../../../Middlewares/Third_Party/LoRaWAN/Mac/region/RegionCN470.c ****     PhyParam_t phyParam = { 0 };
  34              		.loc 1 167 0
  35 0002 00B5     		push	{lr}
  36              	.LCFI0:
  37              		.cfi_def_cfa_offset 4
  38              		.cfi_offset 14, -4
  39 0004 83B0     		sub	sp, sp, #12
  40              	.LCFI1:
  41              		.cfi_def_cfa_offset 16
  42              		.loc 1 168 0
  43 0006 0093     		str	r3, [sp]
 169:../../../../../../Middlewares/Third_Party/LoRaWAN/Mac/region/RegionCN470.c **** 
 170:../../../../../../Middlewares/Third_Party/LoRaWAN/Mac/region/RegionCN470.c ****     switch( getPhy->Attribute )
  44              		.loc 1 170 0
  45 0008 0378     		ldrb	r3, [r0]
  46 000a 0A3B     		subs	r3, r3, #10
  47 000c DBB2     		uxtb	r3, r3
  48 000e 2A2B     		cmp	r3, #42
  49 0010 05D8     		bhi	.L2
  50 0012 324A     		ldr	r2, .L31
  51 0014 9B00     		lsls	r3, r3, #2
  52 0016 D358     		ldr	r3, [r2, r3]
  53 0018 9F46     		mov	pc, r3
  54              		.section	.rodata
  55              		.align	2
  56              	.L4:
  57 0000 CA000000 		.word	.L3
ARM GAS  C:\Users\EBANO_~1\AppData\Local\Temp\cchbxRq9.s 			page 5


  58 0004 C4000000 		.word	.L5
  59 0008 D0000000 		.word	.L6
  60 000c B8000000 		.word	.L7
  61 0010 1E000000 		.word	.L2
  62 0014 A0000000 		.word	.L8
  63 0018 98000000 		.word	.L9
  64 001c 90000000 		.word	.L10
  65 0020 8A000000 		.word	.L11
  66 0024 84000000 		.word	.L12
  67 0028 7C000000 		.word	.L13
  68 002c 66000000 		.word	.L14
  69 0030 1E000000 		.word	.L2
  70 0034 5A000000 		.word	.L15
  71 0038 1E000000 		.word	.L2
  72 003c 4E000000 		.word	.L16
  73 0040 48000000 		.word	.L17
  74 0044 1A000000 		.word	.L18
  75 0048 42000000 		.word	.L19
  76 004c 1E000000 		.word	.L2
  77 0050 1E000000 		.word	.L2
  78 0054 54000000 		.word	.L20
  79 0058 60000000 		.word	.L21
  80 005c A6000000 		.word	.L22
  81 0060 1E000000 		.word	.L2
  82 0064 1E000000 		.word	.L2
  83 0068 1E000000 		.word	.L2
  84 006c 1E000000 		.word	.L2
  85 0070 1E000000 		.word	.L2
  86 0074 1E000000 		.word	.L2
  87 0078 1E000000 		.word	.L2
  88 007c 1E000000 		.word	.L2
  89 0080 1E000000 		.word	.L2
  90 0084 1E000000 		.word	.L2
  91 0088 1E000000 		.word	.L2
  92 008c 1E000000 		.word	.L2
  93 0090 1E000000 		.word	.L2
  94 0094 1E000000 		.word	.L2
  95 0098 2A000000 		.word	.L23
  96 009c 24000000 		.word	.L24
  97 00a0 36000000 		.word	.L25
  98 00a4 3C000000 		.word	.L26
  99 00a8 24000000 		.word	.L24
 100              		.section	.text.RegionCN470GetPhyParam
 101              	.L18:
 171:../../../../../../Middlewares/Third_Party/LoRaWAN/Mac/region/RegionCN470.c ****     {
 172:../../../../../../Middlewares/Third_Party/LoRaWAN/Mac/region/RegionCN470.c ****         case PHY_MIN_RX_DR:
 173:../../../../../../Middlewares/Third_Party/LoRaWAN/Mac/region/RegionCN470.c ****         {
 174:../../../../../../Middlewares/Third_Party/LoRaWAN/Mac/region/RegionCN470.c ****             phyParam.Value = CN470_RX_MIN_DATARATE;
 175:../../../../../../Middlewares/Third_Party/LoRaWAN/Mac/region/RegionCN470.c ****             break;
 176:../../../../../../Middlewares/Third_Party/LoRaWAN/Mac/region/RegionCN470.c ****         }
 177:../../../../../../Middlewares/Third_Party/LoRaWAN/Mac/region/RegionCN470.c ****         case PHY_MIN_TX_DR:
 178:../../../../../../Middlewares/Third_Party/LoRaWAN/Mac/region/RegionCN470.c ****         {
 179:../../../../../../Middlewares/Third_Party/LoRaWAN/Mac/region/RegionCN470.c ****             phyParam.Value = CN470_TX_MIN_DATARATE;
 180:../../../../../../Middlewares/Third_Party/LoRaWAN/Mac/region/RegionCN470.c ****             break;
 181:../../../../../../Middlewares/Third_Party/LoRaWAN/Mac/region/RegionCN470.c ****         }
 182:../../../../../../Middlewares/Third_Party/LoRaWAN/Mac/region/RegionCN470.c ****         case PHY_DEF_TX_DR:
 183:../../../../../../Middlewares/Third_Party/LoRaWAN/Mac/region/RegionCN470.c ****         {
ARM GAS  C:\Users\EBANO_~1\AppData\Local\Temp\cchbxRq9.s 			page 6


 184:../../../../../../Middlewares/Third_Party/LoRaWAN/Mac/region/RegionCN470.c ****             phyParam.Value = CN470_DEFAULT_DATARATE;
 185:../../../../../../Middlewares/Third_Party/LoRaWAN/Mac/region/RegionCN470.c ****             break;
 186:../../../../../../Middlewares/Third_Party/LoRaWAN/Mac/region/RegionCN470.c ****         }
 187:../../../../../../Middlewares/Third_Party/LoRaWAN/Mac/region/RegionCN470.c ****         case PHY_NEXT_LOWER_TX_DR:
 188:../../../../../../Middlewares/Third_Party/LoRaWAN/Mac/region/RegionCN470.c ****         {
 189:../../../../../../Middlewares/Third_Party/LoRaWAN/Mac/region/RegionCN470.c ****             phyParam.Value = GetNextLowerTxDr( getPhy->Datarate, CN470_TX_MIN_DATARATE );
 190:../../../../../../Middlewares/Third_Party/LoRaWAN/Mac/region/RegionCN470.c ****             break;
 191:../../../../../../Middlewares/Third_Party/LoRaWAN/Mac/region/RegionCN470.c ****         }
 192:../../../../../../Middlewares/Third_Party/LoRaWAN/Mac/region/RegionCN470.c ****         case PHY_MAX_TX_POWER:
 193:../../../../../../Middlewares/Third_Party/LoRaWAN/Mac/region/RegionCN470.c ****         {
 194:../../../../../../Middlewares/Third_Party/LoRaWAN/Mac/region/RegionCN470.c ****             phyParam.Value = CN470_MAX_TX_POWER;
 195:../../../../../../Middlewares/Third_Party/LoRaWAN/Mac/region/RegionCN470.c ****             break;
 196:../../../../../../Middlewares/Third_Party/LoRaWAN/Mac/region/RegionCN470.c ****         }
 197:../../../../../../Middlewares/Third_Party/LoRaWAN/Mac/region/RegionCN470.c ****         case PHY_DEF_TX_POWER:
 198:../../../../../../Middlewares/Third_Party/LoRaWAN/Mac/region/RegionCN470.c ****         {
 199:../../../../../../Middlewares/Third_Party/LoRaWAN/Mac/region/RegionCN470.c ****             phyParam.Value = CN470_DEFAULT_TX_POWER;
 200:../../../../../../Middlewares/Third_Party/LoRaWAN/Mac/region/RegionCN470.c ****             break;
 201:../../../../../../Middlewares/Third_Party/LoRaWAN/Mac/region/RegionCN470.c ****         }
 202:../../../../../../Middlewares/Third_Party/LoRaWAN/Mac/region/RegionCN470.c ****         case PHY_DEF_ADR_ACK_LIMIT:
 203:../../../../../../Middlewares/Third_Party/LoRaWAN/Mac/region/RegionCN470.c ****         {
 204:../../../../../../Middlewares/Third_Party/LoRaWAN/Mac/region/RegionCN470.c ****             phyParam.Value = CN470_ADR_ACK_LIMIT;
 205:../../../../../../Middlewares/Third_Party/LoRaWAN/Mac/region/RegionCN470.c ****             break;
 206:../../../../../../Middlewares/Third_Party/LoRaWAN/Mac/region/RegionCN470.c ****         }
 207:../../../../../../Middlewares/Third_Party/LoRaWAN/Mac/region/RegionCN470.c ****         case PHY_DEF_ADR_ACK_DELAY:
 208:../../../../../../Middlewares/Third_Party/LoRaWAN/Mac/region/RegionCN470.c ****         {
 209:../../../../../../Middlewares/Third_Party/LoRaWAN/Mac/region/RegionCN470.c ****             phyParam.Value = CN470_ADR_ACK_DELAY;
 210:../../../../../../Middlewares/Third_Party/LoRaWAN/Mac/region/RegionCN470.c ****             break;
 211:../../../../../../Middlewares/Third_Party/LoRaWAN/Mac/region/RegionCN470.c ****         }
 212:../../../../../../Middlewares/Third_Party/LoRaWAN/Mac/region/RegionCN470.c ****         case PHY_MAX_PAYLOAD:
 213:../../../../../../Middlewares/Third_Party/LoRaWAN/Mac/region/RegionCN470.c ****         {
 214:../../../../../../Middlewares/Third_Party/LoRaWAN/Mac/region/RegionCN470.c ****             phyParam.Value = MaxPayloadOfDatarateCN470[getPhy->Datarate];
 215:../../../../../../Middlewares/Third_Party/LoRaWAN/Mac/region/RegionCN470.c ****             break;
 216:../../../../../../Middlewares/Third_Party/LoRaWAN/Mac/region/RegionCN470.c ****         }
 217:../../../../../../Middlewares/Third_Party/LoRaWAN/Mac/region/RegionCN470.c ****         case PHY_MAX_PAYLOAD_REPEATER:
 218:../../../../../../Middlewares/Third_Party/LoRaWAN/Mac/region/RegionCN470.c ****         {
 219:../../../../../../Middlewares/Third_Party/LoRaWAN/Mac/region/RegionCN470.c ****             phyParam.Value = MaxPayloadOfDatarateRepeaterCN470[getPhy->Datarate];
 220:../../../../../../Middlewares/Third_Party/LoRaWAN/Mac/region/RegionCN470.c ****             break;
 221:../../../../../../Middlewares/Third_Party/LoRaWAN/Mac/region/RegionCN470.c ****         }
 222:../../../../../../Middlewares/Third_Party/LoRaWAN/Mac/region/RegionCN470.c ****         case PHY_DUTY_CYCLE:
 223:../../../../../../Middlewares/Third_Party/LoRaWAN/Mac/region/RegionCN470.c ****         {
 224:../../../../../../Middlewares/Third_Party/LoRaWAN/Mac/region/RegionCN470.c ****             phyParam.Value = CN470_DUTY_CYCLE_ENABLED;
 225:../../../../../../Middlewares/Third_Party/LoRaWAN/Mac/region/RegionCN470.c ****             break;
 226:../../../../../../Middlewares/Third_Party/LoRaWAN/Mac/region/RegionCN470.c ****         }
 227:../../../../../../Middlewares/Third_Party/LoRaWAN/Mac/region/RegionCN470.c ****         case PHY_MAX_RX_WINDOW:
 228:../../../../../../Middlewares/Third_Party/LoRaWAN/Mac/region/RegionCN470.c ****         {
 229:../../../../../../Middlewares/Third_Party/LoRaWAN/Mac/region/RegionCN470.c ****             phyParam.Value = CN470_MAX_RX_WINDOW;
 230:../../../../../../Middlewares/Third_Party/LoRaWAN/Mac/region/RegionCN470.c ****             break;
 231:../../../../../../Middlewares/Third_Party/LoRaWAN/Mac/region/RegionCN470.c ****         }
 232:../../../../../../Middlewares/Third_Party/LoRaWAN/Mac/region/RegionCN470.c ****         case PHY_RECEIVE_DELAY1:
 233:../../../../../../Middlewares/Third_Party/LoRaWAN/Mac/region/RegionCN470.c ****         {
 234:../../../../../../Middlewares/Third_Party/LoRaWAN/Mac/region/RegionCN470.c ****             phyParam.Value = CN470_RECEIVE_DELAY1;
 235:../../../../../../Middlewares/Third_Party/LoRaWAN/Mac/region/RegionCN470.c ****             break;
 236:../../../../../../Middlewares/Third_Party/LoRaWAN/Mac/region/RegionCN470.c ****         }
 237:../../../../../../Middlewares/Third_Party/LoRaWAN/Mac/region/RegionCN470.c ****         case PHY_RECEIVE_DELAY2:
 238:../../../../../../Middlewares/Third_Party/LoRaWAN/Mac/region/RegionCN470.c ****         {
 239:../../../../../../Middlewares/Third_Party/LoRaWAN/Mac/region/RegionCN470.c ****             phyParam.Value = CN470_RECEIVE_DELAY2;
 240:../../../../../../Middlewares/Third_Party/LoRaWAN/Mac/region/RegionCN470.c ****             break;
ARM GAS  C:\Users\EBANO_~1\AppData\Local\Temp\cchbxRq9.s 			page 7


 241:../../../../../../Middlewares/Third_Party/LoRaWAN/Mac/region/RegionCN470.c ****         }
 242:../../../../../../Middlewares/Third_Party/LoRaWAN/Mac/region/RegionCN470.c ****         case PHY_JOIN_ACCEPT_DELAY1:
 243:../../../../../../Middlewares/Third_Party/LoRaWAN/Mac/region/RegionCN470.c ****         {
 244:../../../../../../Middlewares/Third_Party/LoRaWAN/Mac/region/RegionCN470.c ****             phyParam.Value = CN470_JOIN_ACCEPT_DELAY1;
 245:../../../../../../Middlewares/Third_Party/LoRaWAN/Mac/region/RegionCN470.c ****             break;
 246:../../../../../../Middlewares/Third_Party/LoRaWAN/Mac/region/RegionCN470.c ****         }
 247:../../../../../../Middlewares/Third_Party/LoRaWAN/Mac/region/RegionCN470.c ****         case PHY_JOIN_ACCEPT_DELAY2:
 248:../../../../../../Middlewares/Third_Party/LoRaWAN/Mac/region/RegionCN470.c ****         {
 249:../../../../../../Middlewares/Third_Party/LoRaWAN/Mac/region/RegionCN470.c ****             phyParam.Value = CN470_JOIN_ACCEPT_DELAY2;
 250:../../../../../../Middlewares/Third_Party/LoRaWAN/Mac/region/RegionCN470.c ****             break;
 251:../../../../../../Middlewares/Third_Party/LoRaWAN/Mac/region/RegionCN470.c ****         }
 252:../../../../../../Middlewares/Third_Party/LoRaWAN/Mac/region/RegionCN470.c ****         case PHY_MAX_FCNT_GAP:
 253:../../../../../../Middlewares/Third_Party/LoRaWAN/Mac/region/RegionCN470.c ****         {
 254:../../../../../../Middlewares/Third_Party/LoRaWAN/Mac/region/RegionCN470.c ****             phyParam.Value = CN470_MAX_FCNT_GAP;
 255:../../../../../../Middlewares/Third_Party/LoRaWAN/Mac/region/RegionCN470.c ****             break;
 256:../../../../../../Middlewares/Third_Party/LoRaWAN/Mac/region/RegionCN470.c ****         }
 257:../../../../../../Middlewares/Third_Party/LoRaWAN/Mac/region/RegionCN470.c ****         case PHY_ACK_TIMEOUT:
 258:../../../../../../Middlewares/Third_Party/LoRaWAN/Mac/region/RegionCN470.c ****         {
 259:../../../../../../Middlewares/Third_Party/LoRaWAN/Mac/region/RegionCN470.c ****             phyParam.Value = ( CN470_ACKTIMEOUT + randr( -CN470_ACK_TIMEOUT_RND, CN470_ACK_TIMEOUT_
 260:../../../../../../Middlewares/Third_Party/LoRaWAN/Mac/region/RegionCN470.c ****             break;
 261:../../../../../../Middlewares/Third_Party/LoRaWAN/Mac/region/RegionCN470.c ****         }
 262:../../../../../../Middlewares/Third_Party/LoRaWAN/Mac/region/RegionCN470.c ****         case PHY_DEF_DR1_OFFSET:
 263:../../../../../../Middlewares/Third_Party/LoRaWAN/Mac/region/RegionCN470.c ****         {
 264:../../../../../../Middlewares/Third_Party/LoRaWAN/Mac/region/RegionCN470.c ****             phyParam.Value = CN470_DEFAULT_RX1_DR_OFFSET;
 265:../../../../../../Middlewares/Third_Party/LoRaWAN/Mac/region/RegionCN470.c ****             break;
 266:../../../../../../Middlewares/Third_Party/LoRaWAN/Mac/region/RegionCN470.c ****         }
 267:../../../../../../Middlewares/Third_Party/LoRaWAN/Mac/region/RegionCN470.c ****         case PHY_DEF_RX2_FREQUENCY:
 268:../../../../../../Middlewares/Third_Party/LoRaWAN/Mac/region/RegionCN470.c ****         {
 269:../../../../../../Middlewares/Third_Party/LoRaWAN/Mac/region/RegionCN470.c ****             phyParam.Value = CN470_RX_WND_2_FREQ;
 270:../../../../../../Middlewares/Third_Party/LoRaWAN/Mac/region/RegionCN470.c ****             break;
 271:../../../../../../Middlewares/Third_Party/LoRaWAN/Mac/region/RegionCN470.c ****         }
 272:../../../../../../Middlewares/Third_Party/LoRaWAN/Mac/region/RegionCN470.c ****         case PHY_DEF_RX2_DR:
 273:../../../../../../Middlewares/Third_Party/LoRaWAN/Mac/region/RegionCN470.c ****         {
 274:../../../../../../Middlewares/Third_Party/LoRaWAN/Mac/region/RegionCN470.c ****             phyParam.Value = CN470_RX_WND_2_DR;
 275:../../../../../../Middlewares/Third_Party/LoRaWAN/Mac/region/RegionCN470.c ****             break;
 276:../../../../../../Middlewares/Third_Party/LoRaWAN/Mac/region/RegionCN470.c ****         }
 277:../../../../../../Middlewares/Third_Party/LoRaWAN/Mac/region/RegionCN470.c ****         case PHY_CHANNELS_MASK:
 278:../../../../../../Middlewares/Third_Party/LoRaWAN/Mac/region/RegionCN470.c ****         {
 279:../../../../../../Middlewares/Third_Party/LoRaWAN/Mac/region/RegionCN470.c ****             phyParam.ChannelsMask = NvmCtx.ChannelsMask;
 280:../../../../../../Middlewares/Third_Party/LoRaWAN/Mac/region/RegionCN470.c ****             break;
 281:../../../../../../Middlewares/Third_Party/LoRaWAN/Mac/region/RegionCN470.c ****         }
 282:../../../../../../Middlewares/Third_Party/LoRaWAN/Mac/region/RegionCN470.c ****         case PHY_CHANNELS_DEFAULT_MASK:
 283:../../../../../../Middlewares/Third_Party/LoRaWAN/Mac/region/RegionCN470.c ****         {
 284:../../../../../../Middlewares/Third_Party/LoRaWAN/Mac/region/RegionCN470.c ****             phyParam.ChannelsMask = NvmCtx.ChannelsDefaultMask;
 285:../../../../../../Middlewares/Third_Party/LoRaWAN/Mac/region/RegionCN470.c ****             break;
 286:../../../../../../Middlewares/Third_Party/LoRaWAN/Mac/region/RegionCN470.c ****         }
 287:../../../../../../Middlewares/Third_Party/LoRaWAN/Mac/region/RegionCN470.c ****         case PHY_MAX_NB_CHANNELS:
 288:../../../../../../Middlewares/Third_Party/LoRaWAN/Mac/region/RegionCN470.c ****         {
 289:../../../../../../Middlewares/Third_Party/LoRaWAN/Mac/region/RegionCN470.c ****             phyParam.Value = CN470_MAX_NB_CHANNELS;
 102              		.loc 1 289 0
 103 001a 6023     		movs	r3, #96
 104 001c 0093     		str	r3, [sp]
 105              	.LVL1:
 106              	.L2:
 290:../../../../../../Middlewares/Third_Party/LoRaWAN/Mac/region/RegionCN470.c ****             break;
 291:../../../../../../Middlewares/Third_Party/LoRaWAN/Mac/region/RegionCN470.c ****         }
 292:../../../../../../Middlewares/Third_Party/LoRaWAN/Mac/region/RegionCN470.c ****         case PHY_CHANNELS:
ARM GAS  C:\Users\EBANO_~1\AppData\Local\Temp\cchbxRq9.s 			page 8


 293:../../../../../../Middlewares/Third_Party/LoRaWAN/Mac/region/RegionCN470.c ****         {
 294:../../../../../../Middlewares/Third_Party/LoRaWAN/Mac/region/RegionCN470.c ****             phyParam.Channels = NvmCtx.Channels;
 295:../../../../../../Middlewares/Third_Party/LoRaWAN/Mac/region/RegionCN470.c ****             break;
 296:../../../../../../Middlewares/Third_Party/LoRaWAN/Mac/region/RegionCN470.c ****         }
 297:../../../../../../Middlewares/Third_Party/LoRaWAN/Mac/region/RegionCN470.c ****         case PHY_DEF_UPLINK_DWELL_TIME:
 298:../../../../../../Middlewares/Third_Party/LoRaWAN/Mac/region/RegionCN470.c ****         case PHY_DEF_DOWNLINK_DWELL_TIME:
 299:../../../../../../Middlewares/Third_Party/LoRaWAN/Mac/region/RegionCN470.c ****         {
 300:../../../../../../Middlewares/Third_Party/LoRaWAN/Mac/region/RegionCN470.c ****             phyParam.Value = 0;
 301:../../../../../../Middlewares/Third_Party/LoRaWAN/Mac/region/RegionCN470.c ****             break;
 302:../../../../../../Middlewares/Third_Party/LoRaWAN/Mac/region/RegionCN470.c ****         }
 303:../../../../../../Middlewares/Third_Party/LoRaWAN/Mac/region/RegionCN470.c ****         case PHY_DEF_MAX_EIRP:
 304:../../../../../../Middlewares/Third_Party/LoRaWAN/Mac/region/RegionCN470.c ****         {
 305:../../../../../../Middlewares/Third_Party/LoRaWAN/Mac/region/RegionCN470.c ****             phyParam.fValue = CN470_DEFAULT_MAX_EIRP;
 306:../../../../../../Middlewares/Third_Party/LoRaWAN/Mac/region/RegionCN470.c ****             break;
 307:../../../../../../Middlewares/Third_Party/LoRaWAN/Mac/region/RegionCN470.c ****         }
 308:../../../../../../Middlewares/Third_Party/LoRaWAN/Mac/region/RegionCN470.c ****         case PHY_DEF_ANTENNA_GAIN:
 309:../../../../../../Middlewares/Third_Party/LoRaWAN/Mac/region/RegionCN470.c ****         {
 310:../../../../../../Middlewares/Third_Party/LoRaWAN/Mac/region/RegionCN470.c ****             phyParam.fValue = CN470_DEFAULT_ANTENNA_GAIN;
 311:../../../../../../Middlewares/Third_Party/LoRaWAN/Mac/region/RegionCN470.c ****             break;
 312:../../../../../../Middlewares/Third_Party/LoRaWAN/Mac/region/RegionCN470.c ****         }
 313:../../../../../../Middlewares/Third_Party/LoRaWAN/Mac/region/RegionCN470.c ****         case PHY_BEACON_FORMAT:
 314:../../../../../../Middlewares/Third_Party/LoRaWAN/Mac/region/RegionCN470.c ****         {
 315:../../../../../../Middlewares/Third_Party/LoRaWAN/Mac/region/RegionCN470.c ****             phyParam.BeaconFormat.BeaconSize = CN470_BEACON_SIZE;
 316:../../../../../../Middlewares/Third_Party/LoRaWAN/Mac/region/RegionCN470.c ****             phyParam.BeaconFormat.Rfu1Size = CN470_RFU1_SIZE;
 317:../../../../../../Middlewares/Third_Party/LoRaWAN/Mac/region/RegionCN470.c ****             phyParam.BeaconFormat.Rfu2Size = CN470_RFU2_SIZE;
 318:../../../../../../Middlewares/Third_Party/LoRaWAN/Mac/region/RegionCN470.c ****             break;
 319:../../../../../../Middlewares/Third_Party/LoRaWAN/Mac/region/RegionCN470.c ****         }
 320:../../../../../../Middlewares/Third_Party/LoRaWAN/Mac/region/RegionCN470.c ****         case PHY_BEACON_CHANNEL_DR:
 321:../../../../../../Middlewares/Third_Party/LoRaWAN/Mac/region/RegionCN470.c ****         {
 322:../../../../../../Middlewares/Third_Party/LoRaWAN/Mac/region/RegionCN470.c ****             phyParam.Value = CN470_BEACON_CHANNEL_DR;
 323:../../../../../../Middlewares/Third_Party/LoRaWAN/Mac/region/RegionCN470.c ****             break;
 324:../../../../../../Middlewares/Third_Party/LoRaWAN/Mac/region/RegionCN470.c ****         }
 325:../../../../../../Middlewares/Third_Party/LoRaWAN/Mac/region/RegionCN470.c ****         case PHY_BEACON_CHANNEL_STEPWIDTH:
 326:../../../../../../Middlewares/Third_Party/LoRaWAN/Mac/region/RegionCN470.c ****         {
 327:../../../../../../Middlewares/Third_Party/LoRaWAN/Mac/region/RegionCN470.c ****             phyParam.Value = CN470_BEACON_CHANNEL_STEPWIDTH;
 328:../../../../../../Middlewares/Third_Party/LoRaWAN/Mac/region/RegionCN470.c ****             break;
 329:../../../../../../Middlewares/Third_Party/LoRaWAN/Mac/region/RegionCN470.c ****         }
 330:../../../../../../Middlewares/Third_Party/LoRaWAN/Mac/region/RegionCN470.c ****         case PHY_BEACON_NB_CHANNELS:
 331:../../../../../../Middlewares/Third_Party/LoRaWAN/Mac/region/RegionCN470.c ****         {
 332:../../../../../../Middlewares/Third_Party/LoRaWAN/Mac/region/RegionCN470.c ****             phyParam.Value = CN470_BEACON_NB_CHANNELS;
 333:../../../../../../Middlewares/Third_Party/LoRaWAN/Mac/region/RegionCN470.c ****             break;
 334:../../../../../../Middlewares/Third_Party/LoRaWAN/Mac/region/RegionCN470.c ****         }
 335:../../../../../../Middlewares/Third_Party/LoRaWAN/Mac/region/RegionCN470.c ****         case PHY_PING_SLOT_CHANNEL_DR:
 336:../../../../../../Middlewares/Third_Party/LoRaWAN/Mac/region/RegionCN470.c ****         {
 337:../../../../../../Middlewares/Third_Party/LoRaWAN/Mac/region/RegionCN470.c ****             phyParam.Value = CN470_PING_SLOT_CHANNEL_DR;
 338:../../../../../../Middlewares/Third_Party/LoRaWAN/Mac/region/RegionCN470.c ****             break;
 339:../../../../../../Middlewares/Third_Party/LoRaWAN/Mac/region/RegionCN470.c ****         }
 340:../../../../../../Middlewares/Third_Party/LoRaWAN/Mac/region/RegionCN470.c ****         default:
 341:../../../../../../Middlewares/Third_Party/LoRaWAN/Mac/region/RegionCN470.c ****         {
 342:../../../../../../Middlewares/Third_Party/LoRaWAN/Mac/region/RegionCN470.c ****             break;
 343:../../../../../../Middlewares/Third_Party/LoRaWAN/Mac/region/RegionCN470.c ****         }
 344:../../../../../../Middlewares/Third_Party/LoRaWAN/Mac/region/RegionCN470.c ****     }
 345:../../../../../../Middlewares/Third_Party/LoRaWAN/Mac/region/RegionCN470.c **** 
 346:../../../../../../Middlewares/Third_Party/LoRaWAN/Mac/region/RegionCN470.c ****     return phyParam;
 347:../../../../../../Middlewares/Third_Party/LoRaWAN/Mac/region/RegionCN470.c **** }
 107              		.loc 1 347 0
 108 001e 0098     		ldr	r0, [sp]
ARM GAS  C:\Users\EBANO_~1\AppData\Local\Temp\cchbxRq9.s 			page 9


 109 0020 03B0     		add	sp, sp, #12
 110              		@ sp needed
 111 0022 00BD     		pop	{pc}
 112              	.LVL2:
 113              	.L24:
 322:../../../../../../Middlewares/Third_Party/LoRaWAN/Mac/region/RegionCN470.c ****             break;
 114              		.loc 1 322 0
 115 0024 0223     		movs	r3, #2
 116 0026 0093     		str	r3, [sp]
 323:../../../../../../Middlewares/Third_Party/LoRaWAN/Mac/region/RegionCN470.c ****         }
 117              		.loc 1 323 0
 118 0028 F9E7     		b	.L2
 119              	.L23:
 315:../../../../../../Middlewares/Third_Party/LoRaWAN/Mac/region/RegionCN470.c ****             phyParam.BeaconFormat.Rfu1Size = CN470_RFU1_SIZE;
 120              		.loc 1 315 0
 121 002a 6A46     		mov	r2, sp
 122 002c 2C4B     		ldr	r3, .L31+4
 123 002e 1380     		strh	r3, [r2]
 316:../../../../../../Middlewares/Third_Party/LoRaWAN/Mac/region/RegionCN470.c ****             phyParam.BeaconFormat.Rfu2Size = CN470_RFU2_SIZE;
 124              		.loc 1 316 0
 125 0030 0123     		movs	r3, #1
 126 0032 9370     		strb	r3, [r2, #2]
 318:../../../../../../Middlewares/Third_Party/LoRaWAN/Mac/region/RegionCN470.c ****         }
 127              		.loc 1 318 0
 128 0034 F3E7     		b	.L2
 129              	.L25:
 327:../../../../../../Middlewares/Third_Party/LoRaWAN/Mac/region/RegionCN470.c ****             break;
 130              		.loc 1 327 0
 131 0036 2B4B     		ldr	r3, .L31+8
 132 0038 0093     		str	r3, [sp]
 328:../../../../../../Middlewares/Third_Party/LoRaWAN/Mac/region/RegionCN470.c ****         }
 133              		.loc 1 328 0
 134 003a F0E7     		b	.L2
 135              	.L26:
 332:../../../../../../Middlewares/Third_Party/LoRaWAN/Mac/region/RegionCN470.c ****             break;
 136              		.loc 1 332 0
 137 003c 0823     		movs	r3, #8
 138 003e 0093     		str	r3, [sp]
 333:../../../../../../Middlewares/Third_Party/LoRaWAN/Mac/region/RegionCN470.c ****         }
 139              		.loc 1 333 0
 140 0040 EDE7     		b	.L2
 141              	.L19:
 294:../../../../../../Middlewares/Third_Party/LoRaWAN/Mac/region/RegionCN470.c ****             break;
 142              		.loc 1 294 0
 143 0042 294B     		ldr	r3, .L31+12
 144 0044 0093     		str	r3, [sp]
 295:../../../../../../Middlewares/Third_Party/LoRaWAN/Mac/region/RegionCN470.c ****         }
 145              		.loc 1 295 0
 146 0046 EAE7     		b	.L2
 147              	.L17:
 284:../../../../../../Middlewares/Third_Party/LoRaWAN/Mac/region/RegionCN470.c ****             break;
 148              		.loc 1 284 0
 149 0048 284B     		ldr	r3, .L31+16
 150 004a 0093     		str	r3, [sp]
 285:../../../../../../Middlewares/Third_Party/LoRaWAN/Mac/region/RegionCN470.c ****         }
 151              		.loc 1 285 0
 152 004c E7E7     		b	.L2
ARM GAS  C:\Users\EBANO_~1\AppData\Local\Temp\cchbxRq9.s 			page 10


 153              	.L16:
 279:../../../../../../Middlewares/Third_Party/LoRaWAN/Mac/region/RegionCN470.c ****             break;
 154              		.loc 1 279 0
 155 004e 284B     		ldr	r3, .L31+20
 156 0050 0093     		str	r3, [sp]
 280:../../../../../../Middlewares/Third_Party/LoRaWAN/Mac/region/RegionCN470.c ****         }
 157              		.loc 1 280 0
 158 0052 E4E7     		b	.L2
 159              	.L20:
 305:../../../../../../Middlewares/Third_Party/LoRaWAN/Mac/region/RegionCN470.c ****             break;
 160              		.loc 1 305 0
 161 0054 274B     		ldr	r3, .L31+24
 162 0056 0093     		str	r3, [sp]
 306:../../../../../../Middlewares/Third_Party/LoRaWAN/Mac/region/RegionCN470.c ****         }
 163              		.loc 1 306 0
 164 0058 E1E7     		b	.L2
 165              	.L15:
 269:../../../../../../Middlewares/Third_Party/LoRaWAN/Mac/region/RegionCN470.c ****             break;
 166              		.loc 1 269 0
 167 005a 274B     		ldr	r3, .L31+28
 168 005c 0093     		str	r3, [sp]
 270:../../../../../../Middlewares/Third_Party/LoRaWAN/Mac/region/RegionCN470.c ****         }
 169              		.loc 1 270 0
 170 005e DEE7     		b	.L2
 171              	.L21:
 310:../../../../../../Middlewares/Third_Party/LoRaWAN/Mac/region/RegionCN470.c ****             break;
 172              		.loc 1 310 0
 173 0060 264B     		ldr	r3, .L31+32
 174 0062 0093     		str	r3, [sp]
 311:../../../../../../Middlewares/Third_Party/LoRaWAN/Mac/region/RegionCN470.c ****         }
 175              		.loc 1 311 0
 176 0064 DBE7     		b	.L2
 177              	.L14:
 259:../../../../../../Middlewares/Third_Party/LoRaWAN/Mac/region/RegionCN470.c ****             break;
 178              		.loc 1 259 0
 179 0066 FA21     		movs	r1, #250
 180 0068 2548     		ldr	r0, .L31+36
 181              	.LVL3:
 182 006a 8900     		lsls	r1, r1, #2
 183 006c FFF7FEFF 		bl	randr
 184              	.LVL4:
 185 0070 FA23     		movs	r3, #250
 186 0072 DB00     		lsls	r3, r3, #3
 187 0074 9C46     		mov	ip, r3
 188 0076 6044     		add	r0, r0, ip
 189 0078 0090     		str	r0, [sp]
 260:../../../../../../Middlewares/Third_Party/LoRaWAN/Mac/region/RegionCN470.c ****         }
 190              		.loc 1 260 0
 191 007a D0E7     		b	.L2
 192              	.LVL5:
 193              	.L13:
 254:../../../../../../Middlewares/Third_Party/LoRaWAN/Mac/region/RegionCN470.c ****             break;
 194              		.loc 1 254 0
 195 007c 8023     		movs	r3, #128
 196 007e DB01     		lsls	r3, r3, #7
 197 0080 0093     		str	r3, [sp]
 255:../../../../../../Middlewares/Third_Party/LoRaWAN/Mac/region/RegionCN470.c ****         }
ARM GAS  C:\Users\EBANO_~1\AppData\Local\Temp\cchbxRq9.s 			page 11


 198              		.loc 1 255 0
 199 0082 CCE7     		b	.L2
 200              	.L12:
 249:../../../../../../Middlewares/Third_Party/LoRaWAN/Mac/region/RegionCN470.c ****             break;
 201              		.loc 1 249 0
 202 0084 1F4B     		ldr	r3, .L31+40
 203 0086 0093     		str	r3, [sp]
 250:../../../../../../Middlewares/Third_Party/LoRaWAN/Mac/region/RegionCN470.c ****         }
 204              		.loc 1 250 0
 205 0088 C9E7     		b	.L2
 206              	.L11:
 244:../../../../../../Middlewares/Third_Party/LoRaWAN/Mac/region/RegionCN470.c ****             break;
 207              		.loc 1 244 0
 208 008a 1F4B     		ldr	r3, .L31+44
 209 008c 0093     		str	r3, [sp]
 245:../../../../../../Middlewares/Third_Party/LoRaWAN/Mac/region/RegionCN470.c ****         }
 210              		.loc 1 245 0
 211 008e C6E7     		b	.L2
 212              	.L10:
 239:../../../../../../Middlewares/Third_Party/LoRaWAN/Mac/region/RegionCN470.c ****             break;
 213              		.loc 1 239 0
 214 0090 FA23     		movs	r3, #250
 215 0092 DB00     		lsls	r3, r3, #3
 216 0094 0093     		str	r3, [sp]
 240:../../../../../../Middlewares/Third_Party/LoRaWAN/Mac/region/RegionCN470.c ****         }
 217              		.loc 1 240 0
 218 0096 C2E7     		b	.L2
 219              	.L9:
 234:../../../../../../Middlewares/Third_Party/LoRaWAN/Mac/region/RegionCN470.c ****             break;
 220              		.loc 1 234 0
 221 0098 FA23     		movs	r3, #250
 222 009a 9B00     		lsls	r3, r3, #2
 223 009c 0093     		str	r3, [sp]
 235:../../../../../../Middlewares/Third_Party/LoRaWAN/Mac/region/RegionCN470.c ****         }
 224              		.loc 1 235 0
 225 009e BEE7     		b	.L2
 226              	.L8:
 229:../../../../../../Middlewares/Third_Party/LoRaWAN/Mac/region/RegionCN470.c ****             break;
 227              		.loc 1 229 0
 228 00a0 1A4B     		ldr	r3, .L31+48
 229 00a2 0093     		str	r3, [sp]
 230:../../../../../../Middlewares/Third_Party/LoRaWAN/Mac/region/RegionCN470.c ****         }
 230              		.loc 1 230 0
 231 00a4 BBE7     		b	.L2
 232              	.L22:
 189:../../../../../../Middlewares/Third_Party/LoRaWAN/Mac/region/RegionCN470.c ****             break;
 233              		.loc 1 189 0
 234 00a6 0123     		movs	r3, #1
 235 00a8 C356     		ldrsb	r3, [r0, r3]
 236              	.LVL6:
 237              	.LBB16:
 238              	.LBB17:
  73:../../../../../../Middlewares/Third_Party/LoRaWAN/Mac/region/RegionCN470.c ****     {
 239              		.loc 1 73 0
 240 00aa 0022     		movs	r2, #0
 241 00ac 002B     		cmp	r3, #0
 242 00ae 01D0     		beq	.L27
ARM GAS  C:\Users\EBANO_~1\AppData\Local\Temp\cchbxRq9.s 			page 12


 243              	.LVL7:
  79:../../../../../../Middlewares/Third_Party/LoRaWAN/Mac/region/RegionCN470.c ****     }
 244              		.loc 1 79 0
 245 00b0 013B     		subs	r3, r3, #1
 246              	.LVL8:
 247 00b2 5AB2     		sxtb	r2, r3
 248              	.LVL9:
 249              	.L27:
 250              	.LBE17:
 251              	.LBE16:
 189:../../../../../../Middlewares/Third_Party/LoRaWAN/Mac/region/RegionCN470.c ****             break;
 252              		.loc 1 189 0
 253 00b4 0092     		str	r2, [sp]
 190:../../../../../../Middlewares/Third_Party/LoRaWAN/Mac/region/RegionCN470.c ****         }
 254              		.loc 1 190 0
 255 00b6 B2E7     		b	.L2
 256              	.L7:
 219:../../../../../../Middlewares/Third_Party/LoRaWAN/Mac/region/RegionCN470.c ****             break;
 257              		.loc 1 219 0
 258 00b8 0123     		movs	r3, #1
 259 00ba 154A     		ldr	r2, .L31+52
 260 00bc C356     		ldrsb	r3, [r0, r3]
 261 00be D35C     		ldrb	r3, [r2, r3]
 262 00c0 0093     		str	r3, [sp]
 220:../../../../../../Middlewares/Third_Party/LoRaWAN/Mac/region/RegionCN470.c ****         }
 263              		.loc 1 220 0
 264 00c2 ACE7     		b	.L2
 265              	.L5:
 209:../../../../../../Middlewares/Third_Party/LoRaWAN/Mac/region/RegionCN470.c ****             break;
 266              		.loc 1 209 0
 267 00c4 2023     		movs	r3, #32
 268 00c6 0093     		str	r3, [sp]
 210:../../../../../../Middlewares/Third_Party/LoRaWAN/Mac/region/RegionCN470.c ****         }
 269              		.loc 1 210 0
 270 00c8 A9E7     		b	.L2
 271              	.L3:
 204:../../../../../../Middlewares/Third_Party/LoRaWAN/Mac/region/RegionCN470.c ****             break;
 272              		.loc 1 204 0
 273 00ca 4023     		movs	r3, #64
 274 00cc 0093     		str	r3, [sp]
 205:../../../../../../Middlewares/Third_Party/LoRaWAN/Mac/region/RegionCN470.c ****         }
 275              		.loc 1 205 0
 276 00ce A6E7     		b	.L2
 277              	.L6:
 214:../../../../../../Middlewares/Third_Party/LoRaWAN/Mac/region/RegionCN470.c ****             break;
 278              		.loc 1 214 0
 279 00d0 0123     		movs	r3, #1
 280 00d2 104A     		ldr	r2, .L31+56
 281 00d4 C356     		ldrsb	r3, [r0, r3]
 282 00d6 D35C     		ldrb	r3, [r2, r3]
 283 00d8 0093     		str	r3, [sp]
 215:../../../../../../Middlewares/Third_Party/LoRaWAN/Mac/region/RegionCN470.c ****         }
 284              		.loc 1 215 0
 285 00da A0E7     		b	.L2
 286              	.L32:
 287              		.align	2
 288              	.L31:
ARM GAS  C:\Users\EBANO_~1\AppData\Local\Temp\cchbxRq9.s 			page 13


 289 00dc 00000000 		.word	.L4
 290 00e0 13030000 		.word	787
 291 00e4 400D0300 		.word	200000
 292 00e8 00000000 		.word	NvmCtx
 293 00ec 9C040000 		.word	NvmCtx+1180
 294 00f0 90040000 		.word	NvmCtx+1168
 295 00f4 33339941 		.word	1100559155
 296 00f8 20441E1E 		.word	505300000
 297 00fc 9A990940 		.word	1074370970
 298 0100 18FCFFFF 		.word	-1000
 299 0104 70170000 		.word	6000
 300 0108 88130000 		.word	5000
 301 010c B80B0000 		.word	3000
 302 0110 CC000000 		.word	MaxPayloadOfDatarateRepeaterCN470
 303 0114 CC000000 		.word	.LANCHOR0
 304              		.cfi_endproc
 305              	.LFE44:
 306              		.size	RegionCN470GetPhyParam, .-RegionCN470GetPhyParam
 307              		.section	.text.RegionCN470SetBandTxDone,"ax",%progbits
 308              		.align	1
 309              		.p2align 2,,3
 310              		.global	RegionCN470SetBandTxDone
 311              		.syntax unified
 312              		.code	16
 313              		.thumb_func
 314              		.fpu softvfp
 315              		.type	RegionCN470SetBandTxDone, %function
 316              	RegionCN470SetBandTxDone:
 317              	.LFB45:
 348:../../../../../../Middlewares/Third_Party/LoRaWAN/Mac/region/RegionCN470.c **** 
 349:../../../../../../Middlewares/Third_Party/LoRaWAN/Mac/region/RegionCN470.c **** void RegionCN470SetBandTxDone( SetBandTxDoneParams_t* txDone )
 350:../../../../../../Middlewares/Third_Party/LoRaWAN/Mac/region/RegionCN470.c **** {
 318              		.loc 1 350 0
 319              		.cfi_startproc
 320              		@ args = 0, pretend = 0, frame = 0
 321              		@ frame_needed = 0, uses_anonymous_args = 0
 322              	.LVL10:
 351:../../../../../../Middlewares/Third_Party/LoRaWAN/Mac/region/RegionCN470.c ****     RegionCommonSetBandTxDone( txDone->Joined, &NvmCtx.Bands[NvmCtx.Channels[txDone->Channel].Band]
 323              		.loc 1 351 0
 324 0000 0178     		ldrb	r1, [r0]
 350:../../../../../../Middlewares/Third_Party/LoRaWAN/Mac/region/RegionCN470.c ****     RegionCommonSetBandTxDone( txDone->Joined, &NvmCtx.Bands[NvmCtx.Channels[txDone->Channel].Band]
 325              		.loc 1 350 0
 326 0002 10B5     		push	{r4, lr}
 327              	.LCFI2:
 328              		.cfi_def_cfa_offset 8
 329              		.cfi_offset 4, -8
 330              		.cfi_offset 14, -4
 331              		.loc 1 351 0
 332 0004 4B00     		lsls	r3, r1, #1
 333 0006 064C     		ldr	r4, .L34
 334 0008 5B18     		adds	r3, r3, r1
 335 000a 9B00     		lsls	r3, r3, #2
 336 000c E318     		adds	r3, r4, r3
 337 000e 597A     		ldrb	r1, [r3, #9]
 338 0010 4268     		ldr	r2, [r0, #4]
 339 0012 4831     		adds	r1, r1, #72
 340 0014 0901     		lsls	r1, r1, #4
ARM GAS  C:\Users\EBANO_~1\AppData\Local\Temp\cchbxRq9.s 			page 14


 341 0016 0919     		adds	r1, r1, r4
 342 0018 4078     		ldrb	r0, [r0, #1]
 343              	.LVL11:
 344 001a FFF7FEFF 		bl	RegionCommonSetBandTxDone
 345              	.LVL12:
 352:../../../../../../Middlewares/Third_Party/LoRaWAN/Mac/region/RegionCN470.c **** }
 346              		.loc 1 352 0
 347              		@ sp needed
 348 001e 10BD     		pop	{r4, pc}
 349              	.L35:
 350              		.align	2
 351              	.L34:
 352 0020 00000000 		.word	NvmCtx
 353              		.cfi_endproc
 354              	.LFE45:
 355              		.size	RegionCN470SetBandTxDone, .-RegionCN470SetBandTxDone
 356              		.section	.text.RegionCN470InitDefaults,"ax",%progbits
 357              		.align	1
 358              		.p2align 2,,3
 359              		.global	RegionCN470InitDefaults
 360              		.syntax unified
 361              		.code	16
 362              		.thumb_func
 363              		.fpu softvfp
 364              		.type	RegionCN470InitDefaults, %function
 365              	RegionCN470InitDefaults:
 366              	.LFB46:
 353:../../../../../../Middlewares/Third_Party/LoRaWAN/Mac/region/RegionCN470.c **** 
 354:../../../../../../Middlewares/Third_Party/LoRaWAN/Mac/region/RegionCN470.c **** void RegionCN470InitDefaults( InitDefaultsParams_t* params )
 355:../../../../../../Middlewares/Third_Party/LoRaWAN/Mac/region/RegionCN470.c **** {
 367              		.loc 1 355 0
 368              		.cfi_startproc
 369              		@ args = 0, pretend = 0, frame = 16
 370              		@ frame_needed = 0, uses_anonymous_args = 0
 371              	.LVL13:
 372 0000 30B5     		push	{r4, r5, lr}
 373              	.LCFI3:
 374              		.cfi_def_cfa_offset 12
 375              		.cfi_offset 4, -12
 376              		.cfi_offset 5, -8
 377              		.cfi_offset 14, -4
 378 0002 85B0     		sub	sp, sp, #20
 379              	.LCFI4:
 380              		.cfi_def_cfa_offset 32
 356:../../../../../../Middlewares/Third_Party/LoRaWAN/Mac/region/RegionCN470.c ****     Band_t bands[CN470_MAX_NB_BANDS] =
 381              		.loc 1 356 0
 382 0004 0123     		movs	r3, #1
 383 0006 6A46     		mov	r2, sp
 384 0008 1380     		strh	r3, [r2]
 385 000a 0023     		movs	r3, #0
 386 000c 9370     		strb	r3, [r2, #2]
 387 000e 0193     		str	r3, [sp, #4]
 388 0010 0293     		str	r3, [sp, #8]
 389 0012 0393     		str	r3, [sp, #12]
 357:../../../../../../Middlewares/Third_Party/LoRaWAN/Mac/region/RegionCN470.c ****     {
 358:../../../../../../Middlewares/Third_Party/LoRaWAN/Mac/region/RegionCN470.c ****         CN470_BAND0
 359:../../../../../../Middlewares/Third_Party/LoRaWAN/Mac/region/RegionCN470.c ****     };
ARM GAS  C:\Users\EBANO_~1\AppData\Local\Temp\cchbxRq9.s 			page 15


 360:../../../../../../Middlewares/Third_Party/LoRaWAN/Mac/region/RegionCN470.c **** 
 361:../../../../../../Middlewares/Third_Party/LoRaWAN/Mac/region/RegionCN470.c ****     switch( params->Type )
 390              		.loc 1 361 0
 391 0014 0379     		ldrb	r3, [r0, #4]
 392 0016 012B     		cmp	r3, #1
 393 0018 33D0     		beq	.L38
 394 001a 002B     		cmp	r3, #0
 395 001c 0BD0     		beq	.L39
 396 001e 022B     		cmp	r3, #2
 397 0020 07D1     		bne	.L36
 362:../../../../../../Middlewares/Third_Party/LoRaWAN/Mac/region/RegionCN470.c ****     {
 363:../../../../../../Middlewares/Third_Party/LoRaWAN/Mac/region/RegionCN470.c ****         case INIT_TYPE_INIT:
 364:../../../../../../Middlewares/Third_Party/LoRaWAN/Mac/region/RegionCN470.c ****         {
 365:../../../../../../Middlewares/Third_Party/LoRaWAN/Mac/region/RegionCN470.c ****             // Initialize bands
 366:../../../../../../Middlewares/Third_Party/LoRaWAN/Mac/region/RegionCN470.c ****             memcpy1( ( uint8_t* )NvmCtx.Bands, ( uint8_t* )bands, sizeof( Band_t ) * CN470_MAX_NB_B
 367:../../../../../../Middlewares/Third_Party/LoRaWAN/Mac/region/RegionCN470.c **** 
 368:../../../../../../Middlewares/Third_Party/LoRaWAN/Mac/region/RegionCN470.c ****             // Channels
 369:../../../../../../Middlewares/Third_Party/LoRaWAN/Mac/region/RegionCN470.c ****             // 125 kHz channels
 370:../../../../../../Middlewares/Third_Party/LoRaWAN/Mac/region/RegionCN470.c ****             for( uint8_t i = 0; i < CN470_MAX_NB_CHANNELS; i++ )
 371:../../../../../../Middlewares/Third_Party/LoRaWAN/Mac/region/RegionCN470.c ****             {
 372:../../../../../../Middlewares/Third_Party/LoRaWAN/Mac/region/RegionCN470.c ****                 NvmCtx.Channels[i].Frequency = 470300000 + i * 200000;
 373:../../../../../../Middlewares/Third_Party/LoRaWAN/Mac/region/RegionCN470.c ****                 NvmCtx.Channels[i].DrRange.Value = ( DR_5 << 4 ) | DR_0;
 374:../../../../../../Middlewares/Third_Party/LoRaWAN/Mac/region/RegionCN470.c ****                 NvmCtx.Channels[i].Band = 0;
 375:../../../../../../Middlewares/Third_Party/LoRaWAN/Mac/region/RegionCN470.c ****             }
 376:../../../../../../Middlewares/Third_Party/LoRaWAN/Mac/region/RegionCN470.c **** 
 377:../../../../../../Middlewares/Third_Party/LoRaWAN/Mac/region/RegionCN470.c ****             // Initialize the channels default mask
 378:../../../../../../Middlewares/Third_Party/LoRaWAN/Mac/region/RegionCN470.c ****             NvmCtx.ChannelsDefaultMask[0] = 0xFFFF;
 379:../../../../../../Middlewares/Third_Party/LoRaWAN/Mac/region/RegionCN470.c ****             NvmCtx.ChannelsDefaultMask[1] = 0xFFFF;
 380:../../../../../../Middlewares/Third_Party/LoRaWAN/Mac/region/RegionCN470.c ****             NvmCtx.ChannelsDefaultMask[2] = 0xFFFF;
 381:../../../../../../Middlewares/Third_Party/LoRaWAN/Mac/region/RegionCN470.c ****             NvmCtx.ChannelsDefaultMask[3] = 0xFFFF;
 382:../../../../../../Middlewares/Third_Party/LoRaWAN/Mac/region/RegionCN470.c ****             NvmCtx.ChannelsDefaultMask[4] = 0xFFFF;
 383:../../../../../../Middlewares/Third_Party/LoRaWAN/Mac/region/RegionCN470.c ****             NvmCtx.ChannelsDefaultMask[5] = 0xFFFF;
 384:../../../../../../Middlewares/Third_Party/LoRaWAN/Mac/region/RegionCN470.c **** 
 385:../../../../../../Middlewares/Third_Party/LoRaWAN/Mac/region/RegionCN470.c ****             // Update the channels mask
 386:../../../../../../Middlewares/Third_Party/LoRaWAN/Mac/region/RegionCN470.c ****             RegionCommonChanMaskCopy( NvmCtx.ChannelsMask, NvmCtx.ChannelsDefaultMask, 6 );
 387:../../../../../../Middlewares/Third_Party/LoRaWAN/Mac/region/RegionCN470.c ****             break;
 388:../../../../../../Middlewares/Third_Party/LoRaWAN/Mac/region/RegionCN470.c ****         }
 389:../../../../../../Middlewares/Third_Party/LoRaWAN/Mac/region/RegionCN470.c ****         case INIT_TYPE_RESTORE_CTX:
 390:../../../../../../Middlewares/Third_Party/LoRaWAN/Mac/region/RegionCN470.c ****         {
 391:../../../../../../Middlewares/Third_Party/LoRaWAN/Mac/region/RegionCN470.c ****             if( params->NvmCtx != 0 )
 398              		.loc 1 391 0
 399 0022 0168     		ldr	r1, [r0]
 400 0024 0029     		cmp	r1, #0
 401 0026 04D0     		beq	.L36
 392:../../../../../../Middlewares/Third_Party/LoRaWAN/Mac/region/RegionCN470.c ****             {
 393:../../../../../../Middlewares/Third_Party/LoRaWAN/Mac/region/RegionCN470.c ****                 memcpy1( (uint8_t*) &NvmCtx, (uint8_t*) params->NvmCtx, sizeof( NvmCtx ) );
 402              		.loc 1 393 0
 403 0028 9522     		movs	r2, #149
 404 002a 1948     		ldr	r0, .L46
 405              	.LVL14:
 406 002c D200     		lsls	r2, r2, #3
 407 002e FFF7FEFF 		bl	memcpy1
 408              	.LVL15:
 409              	.L36:
 394:../../../../../../Middlewares/Third_Party/LoRaWAN/Mac/region/RegionCN470.c ****             }
 395:../../../../../../Middlewares/Third_Party/LoRaWAN/Mac/region/RegionCN470.c ****             break;
 396:../../../../../../Middlewares/Third_Party/LoRaWAN/Mac/region/RegionCN470.c ****         }
ARM GAS  C:\Users\EBANO_~1\AppData\Local\Temp\cchbxRq9.s 			page 16


 397:../../../../../../Middlewares/Third_Party/LoRaWAN/Mac/region/RegionCN470.c ****         case INIT_TYPE_RESTORE_DEFAULT_CHANNELS:
 398:../../../../../../Middlewares/Third_Party/LoRaWAN/Mac/region/RegionCN470.c ****         {
 399:../../../../../../Middlewares/Third_Party/LoRaWAN/Mac/region/RegionCN470.c ****             // Restore channels default mask
 400:../../../../../../Middlewares/Third_Party/LoRaWAN/Mac/region/RegionCN470.c ****             RegionCommonChanMaskCopy( NvmCtx.ChannelsMask, NvmCtx.ChannelsDefaultMask, 6 );
 401:../../../../../../Middlewares/Third_Party/LoRaWAN/Mac/region/RegionCN470.c ****             break;
 402:../../../../../../Middlewares/Third_Party/LoRaWAN/Mac/region/RegionCN470.c ****         }
 403:../../../../../../Middlewares/Third_Party/LoRaWAN/Mac/region/RegionCN470.c ****         default:
 404:../../../../../../Middlewares/Third_Party/LoRaWAN/Mac/region/RegionCN470.c ****         {
 405:../../../../../../Middlewares/Third_Party/LoRaWAN/Mac/region/RegionCN470.c ****             break;
 406:../../../../../../Middlewares/Third_Party/LoRaWAN/Mac/region/RegionCN470.c ****         }
 407:../../../../../../Middlewares/Third_Party/LoRaWAN/Mac/region/RegionCN470.c ****     }
 408:../../../../../../Middlewares/Third_Party/LoRaWAN/Mac/region/RegionCN470.c **** }
 410              		.loc 1 408 0
 411 0032 05B0     		add	sp, sp, #20
 412              		@ sp needed
 413 0034 30BD     		pop	{r4, r5, pc}
 414              	.LVL16:
 415              	.L39:
 366:../../../../../../Middlewares/Third_Party/LoRaWAN/Mac/region/RegionCN470.c **** 
 416              		.loc 1 366 0
 417 0036 174C     		ldr	r4, .L46+4
 418 0038 1022     		movs	r2, #16
 419 003a 6946     		mov	r1, sp
 420 003c 2000     		movs	r0, r4
 421              	.LVL17:
 422 003e FFF7FEFF 		bl	memcpy1
 423              	.LVL18:
 424              	.LBB18:
 373:../../../../../../Middlewares/Third_Party/LoRaWAN/Mac/region/RegionCN470.c ****                 NvmCtx.Channels[i].Band = 0;
 425              		.loc 1 373 0
 426 0042 5020     		movs	r0, #80
 374:../../../../../../Middlewares/Third_Party/LoRaWAN/Mac/region/RegionCN470.c ****             }
 427              		.loc 1 374 0
 428 0044 0021     		movs	r1, #0
 429 0046 144B     		ldr	r3, .L46+8
 430              	.LBE18:
 366:../../../../../../Middlewares/Third_Party/LoRaWAN/Mac/region/RegionCN470.c **** 
 431              		.loc 1 366 0
 432 0048 144A     		ldr	r2, .L46+12
 433 004a E318     		adds	r3, r4, r3
 434              	.LVL19:
 435              	.L41:
 436 004c 144D     		ldr	r5, .L46+16
 437              	.LBB19:
 372:../../../../../../Middlewares/Third_Party/LoRaWAN/Mac/region/RegionCN470.c ****                 NvmCtx.Channels[i].DrRange.Value = ( DR_5 << 4 ) | DR_0;
 438              		.loc 1 372 0 discriminator 3
 439 004e 1A60     		str	r2, [r3]
 440 0050 AC46     		mov	ip, r5
 373:../../../../../../Middlewares/Third_Party/LoRaWAN/Mac/region/RegionCN470.c ****                 NvmCtx.Channels[i].Band = 0;
 441              		.loc 1 373 0 discriminator 3
 442 0052 1872     		strb	r0, [r3, #8]
 374:../../../../../../Middlewares/Third_Party/LoRaWAN/Mac/region/RegionCN470.c ****             }
 443              		.loc 1 374 0 discriminator 3
 444 0054 5972     		strb	r1, [r3, #9]
 445 0056 0C33     		adds	r3, r3, #12
 446 0058 6244     		add	r2, r2, ip
 370:../../../../../../Middlewares/Third_Party/LoRaWAN/Mac/region/RegionCN470.c ****             {
ARM GAS  C:\Users\EBANO_~1\AppData\Local\Temp\cchbxRq9.s 			page 17


 447              		.loc 1 370 0 discriminator 3
 448 005a 9C42     		cmp	r4, r3
 449 005c F6D1     		bne	.L41
 450              	.LBE19:
 378:../../../../../../Middlewares/Third_Party/LoRaWAN/Mac/region/RegionCN470.c ****             NvmCtx.ChannelsDefaultMask[1] = 0xFFFF;
 451              		.loc 1 378 0
 452 005e 0123     		movs	r3, #1
 453 0060 0B48     		ldr	r0, .L46
 454 0062 104A     		ldr	r2, .L46+20
 455 0064 5B42     		rsbs	r3, r3, #0
 456 0066 8350     		str	r3, [r0, r2]
 457 0068 0432     		adds	r2, r2, #4
 458 006a 8350     		str	r3, [r0, r2]
 459 006c 0E4A     		ldr	r2, .L46+24
 460 006e 8350     		str	r3, [r0, r2]
 386:../../../../../../Middlewares/Third_Party/LoRaWAN/Mac/region/RegionCN470.c ****             break;
 461              		.loc 1 386 0
 462 0070 0C4B     		ldr	r3, .L46+20
 463 0072 0622     		movs	r2, #6
 464 0074 C118     		adds	r1, r0, r3
 465 0076 0C3B     		subs	r3, r3, #12
 466 0078 9C46     		mov	ip, r3
 467 007a 6044     		add	r0, r0, ip
 468 007c FFF7FEFF 		bl	RegionCommonChanMaskCopy
 469              	.LVL20:
 387:../../../../../../Middlewares/Third_Party/LoRaWAN/Mac/region/RegionCN470.c ****         }
 470              		.loc 1 387 0
 471 0080 D7E7     		b	.L36
 472              	.LVL21:
 473              	.L38:
 400:../../../../../../Middlewares/Third_Party/LoRaWAN/Mac/region/RegionCN470.c ****             break;
 474              		.loc 1 400 0
 475 0082 0A49     		ldr	r1, .L46+28
 476 0084 0622     		movs	r2, #6
 477 0086 0800     		movs	r0, r1
 478              	.LVL22:
 479 0088 0C38     		subs	r0, r0, #12
 480 008a FFF7FEFF 		bl	RegionCommonChanMaskCopy
 481              	.LVL23:
 482              		.loc 1 408 0
 483 008e D0E7     		b	.L36
 484              	.L47:
 485              		.align	2
 486              	.L46:
 487 0090 00000000 		.word	NvmCtx
 488 0094 80040000 		.word	NvmCtx+1152
 489 0098 80FBFFFF 		.word	-1152
 490 009c 6035081C 		.word	470300000
 491 00a0 400D0300 		.word	200000
 492 00a4 9C040000 		.word	1180
 493 00a8 A4040000 		.word	1188
 494 00ac 9C040000 		.word	NvmCtx+1180
 495              		.cfi_endproc
 496              	.LFE46:
 497              		.size	RegionCN470InitDefaults, .-RegionCN470InitDefaults
 498              		.section	.text.RegionCN470GetNvmCtx,"ax",%progbits
 499              		.align	1
ARM GAS  C:\Users\EBANO_~1\AppData\Local\Temp\cchbxRq9.s 			page 18


 500              		.p2align 2,,3
 501              		.global	RegionCN470GetNvmCtx
 502              		.syntax unified
 503              		.code	16
 504              		.thumb_func
 505              		.fpu softvfp
 506              		.type	RegionCN470GetNvmCtx, %function
 507              	RegionCN470GetNvmCtx:
 508              	.LFB47:
 409:../../../../../../Middlewares/Third_Party/LoRaWAN/Mac/region/RegionCN470.c **** 
 410:../../../../../../Middlewares/Third_Party/LoRaWAN/Mac/region/RegionCN470.c **** void* RegionCN470GetNvmCtx( GetNvmCtxParams_t* params )
 411:../../../../../../Middlewares/Third_Party/LoRaWAN/Mac/region/RegionCN470.c **** {
 509              		.loc 1 411 0
 510              		.cfi_startproc
 511              		@ args = 0, pretend = 0, frame = 0
 512              		@ frame_needed = 0, uses_anonymous_args = 0
 513              		@ link register save eliminated.
 514              	.LVL24:
 412:../../../../../../Middlewares/Third_Party/LoRaWAN/Mac/region/RegionCN470.c ****     params->nvmCtxSize = sizeof( RegionCN470NvmCtx_t );
 515              		.loc 1 412 0
 516 0000 9523     		movs	r3, #149
 517 0002 DB00     		lsls	r3, r3, #3
 518 0004 0360     		str	r3, [r0]
 413:../../../../../../Middlewares/Third_Party/LoRaWAN/Mac/region/RegionCN470.c ****     return &NvmCtx;
 414:../../../../../../Middlewares/Third_Party/LoRaWAN/Mac/region/RegionCN470.c **** }
 519              		.loc 1 414 0
 520              		@ sp needed
 521 0006 0148     		ldr	r0, .L49
 522              	.LVL25:
 523 0008 7047     		bx	lr
 524              	.L50:
 525 000a C046     		.align	2
 526              	.L49:
 527 000c 00000000 		.word	NvmCtx
 528              		.cfi_endproc
 529              	.LFE47:
 530              		.size	RegionCN470GetNvmCtx, .-RegionCN470GetNvmCtx
 531              		.section	.text.RegionCN470Verify,"ax",%progbits
 532              		.align	1
 533              		.p2align 2,,3
 534              		.global	RegionCN470Verify
 535              		.syntax unified
 536              		.code	16
 537              		.thumb_func
 538              		.fpu softvfp
 539              		.type	RegionCN470Verify, %function
 540              	RegionCN470Verify:
 541              	.LFB48:
 415:../../../../../../Middlewares/Third_Party/LoRaWAN/Mac/region/RegionCN470.c **** 
 416:../../../../../../Middlewares/Third_Party/LoRaWAN/Mac/region/RegionCN470.c **** bool RegionCN470Verify( VerifyParams_t* verify, PhyAttribute_t phyAttribute )
 417:../../../../../../Middlewares/Third_Party/LoRaWAN/Mac/region/RegionCN470.c **** {
 542              		.loc 1 417 0
 543              		.cfi_startproc
 544              		@ args = 0, pretend = 0, frame = 0
 545              		@ frame_needed = 0, uses_anonymous_args = 0
 546              	.LVL26:
 547 0000 10B5     		push	{r4, lr}
ARM GAS  C:\Users\EBANO_~1\AppData\Local\Temp\cchbxRq9.s 			page 19


 548              	.LCFI5:
 549              		.cfi_def_cfa_offset 8
 550              		.cfi_offset 4, -8
 551              		.cfi_offset 14, -4
 418:../../../../../../Middlewares/Third_Party/LoRaWAN/Mac/region/RegionCN470.c ****     switch( phyAttribute )
 552              		.loc 1 418 0
 553 0002 0429     		cmp	r1, #4
 554 0004 18D3     		bcc	.L55
 555 0006 0629     		cmp	r1, #6
 556 0008 09D8     		bhi	.L57
 419:../../../../../../Middlewares/Third_Party/LoRaWAN/Mac/region/RegionCN470.c ****     {
 420:../../../../../../Middlewares/Third_Party/LoRaWAN/Mac/region/RegionCN470.c ****         case PHY_TX_DR:
 421:../../../../../../Middlewares/Third_Party/LoRaWAN/Mac/region/RegionCN470.c ****         case PHY_DEF_TX_DR:
 422:../../../../../../Middlewares/Third_Party/LoRaWAN/Mac/region/RegionCN470.c ****         {
 423:../../../../../../Middlewares/Third_Party/LoRaWAN/Mac/region/RegionCN470.c ****             return RegionCommonValueInRange( verify->DatarateParams.Datarate, CN470_TX_MIN_DATARATE
 557              		.loc 1 423 0
 558 000a 0078     		ldrb	r0, [r0]
 559              	.LVL27:
 560 000c 0522     		movs	r2, #5
 561 000e 40B2     		sxtb	r0, r0
 562 0010 0021     		movs	r1, #0
 563              	.LVL28:
 564 0012 FFF7FEFF 		bl	RegionCommonValueInRange
 565              	.LVL29:
 566 0016 431E     		subs	r3, r0, #1
 567 0018 9841     		sbcs	r0, r0, r3
 568 001a C0B2     		uxtb	r0, r0
 569              	.L52:
 424:../../../../../../Middlewares/Third_Party/LoRaWAN/Mac/region/RegionCN470.c ****         }
 425:../../../../../../Middlewares/Third_Party/LoRaWAN/Mac/region/RegionCN470.c ****         case PHY_RX_DR:
 426:../../../../../../Middlewares/Third_Party/LoRaWAN/Mac/region/RegionCN470.c ****         {
 427:../../../../../../Middlewares/Third_Party/LoRaWAN/Mac/region/RegionCN470.c ****             return RegionCommonValueInRange( verify->DatarateParams.Datarate, CN470_RX_MIN_DATARATE
 428:../../../../../../Middlewares/Third_Party/LoRaWAN/Mac/region/RegionCN470.c ****         }
 429:../../../../../../Middlewares/Third_Party/LoRaWAN/Mac/region/RegionCN470.c ****         case PHY_DEF_TX_POWER:
 430:../../../../../../Middlewares/Third_Party/LoRaWAN/Mac/region/RegionCN470.c ****         case PHY_TX_POWER:
 431:../../../../../../Middlewares/Third_Party/LoRaWAN/Mac/region/RegionCN470.c ****         {
 432:../../../../../../Middlewares/Third_Party/LoRaWAN/Mac/region/RegionCN470.c ****             // Remark: switched min and max!
 433:../../../../../../Middlewares/Third_Party/LoRaWAN/Mac/region/RegionCN470.c ****             return RegionCommonValueInRange( verify->TxPower, CN470_MAX_TX_POWER, CN470_MIN_TX_POWE
 434:../../../../../../Middlewares/Third_Party/LoRaWAN/Mac/region/RegionCN470.c ****         }
 435:../../../../../../Middlewares/Third_Party/LoRaWAN/Mac/region/RegionCN470.c ****         case PHY_DUTY_CYCLE:
 436:../../../../../../Middlewares/Third_Party/LoRaWAN/Mac/region/RegionCN470.c ****         {
 437:../../../../../../Middlewares/Third_Party/LoRaWAN/Mac/region/RegionCN470.c ****             return CN470_DUTY_CYCLE_ENABLED;
 438:../../../../../../Middlewares/Third_Party/LoRaWAN/Mac/region/RegionCN470.c ****         }
 439:../../../../../../Middlewares/Third_Party/LoRaWAN/Mac/region/RegionCN470.c ****         default:
 440:../../../../../../Middlewares/Third_Party/LoRaWAN/Mac/region/RegionCN470.c ****             return false;
 441:../../../../../../Middlewares/Third_Party/LoRaWAN/Mac/region/RegionCN470.c ****     }
 442:../../../../../../Middlewares/Third_Party/LoRaWAN/Mac/region/RegionCN470.c **** }
 570              		.loc 1 442 0
 571              		@ sp needed
 572 001c 10BD     		pop	{r4, pc}
 573              	.LVL30:
 574              	.L57:
 418:../../../../../../Middlewares/Third_Party/LoRaWAN/Mac/region/RegionCN470.c ****     {
 575              		.loc 1 418 0
 576 001e 0839     		subs	r1, r1, #8
 577              	.LVL31:
 578 0020 0129     		cmp	r1, #1
ARM GAS  C:\Users\EBANO_~1\AppData\Local\Temp\cchbxRq9.s 			page 20


 579 0022 09D8     		bhi	.L55
 433:../../../../../../Middlewares/Third_Party/LoRaWAN/Mac/region/RegionCN470.c ****         }
 580              		.loc 1 433 0
 581 0024 0078     		ldrb	r0, [r0]
 582              	.LVL32:
 583 0026 0722     		movs	r2, #7
 584 0028 40B2     		sxtb	r0, r0
 585 002a 0021     		movs	r1, #0
 586 002c FFF7FEFF 		bl	RegionCommonValueInRange
 587              	.LVL33:
 588 0030 431E     		subs	r3, r0, #1
 589 0032 9841     		sbcs	r0, r0, r3
 590 0034 C0B2     		uxtb	r0, r0
 591 0036 F1E7     		b	.L52
 592              	.LVL34:
 593              	.L55:
 437:../../../../../../Middlewares/Third_Party/LoRaWAN/Mac/region/RegionCN470.c ****         }
 594              		.loc 1 437 0
 595 0038 0020     		movs	r0, #0
 596              	.LVL35:
 597 003a EFE7     		b	.L52
 598              		.cfi_endproc
 599              	.LFE48:
 600              		.size	RegionCN470Verify, .-RegionCN470Verify
 601              		.section	.text.RegionCN470ApplyCFList,"ax",%progbits
 602              		.align	1
 603              		.p2align 2,,3
 604              		.global	RegionCN470ApplyCFList
 605              		.syntax unified
 606              		.code	16
 607              		.thumb_func
 608              		.fpu softvfp
 609              		.type	RegionCN470ApplyCFList, %function
 610              	RegionCN470ApplyCFList:
 611              	.LFB49:
 443:../../../../../../Middlewares/Third_Party/LoRaWAN/Mac/region/RegionCN470.c **** 
 444:../../../../../../Middlewares/Third_Party/LoRaWAN/Mac/region/RegionCN470.c **** void RegionCN470ApplyCFList( ApplyCFListParams_t* applyCFList )
 445:../../../../../../Middlewares/Third_Party/LoRaWAN/Mac/region/RegionCN470.c **** {
 612              		.loc 1 445 0
 613              		.cfi_startproc
 614              		@ args = 0, pretend = 0, frame = 0
 615              		@ frame_needed = 0, uses_anonymous_args = 0
 616              	.LVL36:
 617 0000 10B5     		push	{r4, lr}
 618              	.LCFI6:
 619              		.cfi_def_cfa_offset 8
 620              		.cfi_offset 4, -8
 621              		.cfi_offset 14, -4
 446:../../../../../../Middlewares/Third_Party/LoRaWAN/Mac/region/RegionCN470.c ****     // Size of the optional CF list must be 16 byte
 447:../../../../../../Middlewares/Third_Party/LoRaWAN/Mac/region/RegionCN470.c ****     if( applyCFList->Size != 16 )
 622              		.loc 1 447 0
 623 0002 0379     		ldrb	r3, [r0, #4]
 624 0004 102B     		cmp	r3, #16
 625 0006 00D0     		beq	.L60
 626              	.LVL37:
 627              	.L58:
 448:../../../../../../Middlewares/Third_Party/LoRaWAN/Mac/region/RegionCN470.c ****     {
ARM GAS  C:\Users\EBANO_~1\AppData\Local\Temp\cchbxRq9.s 			page 21


 449:../../../../../../Middlewares/Third_Party/LoRaWAN/Mac/region/RegionCN470.c ****         return;
 450:../../../../../../Middlewares/Third_Party/LoRaWAN/Mac/region/RegionCN470.c ****     }
 451:../../../../../../Middlewares/Third_Party/LoRaWAN/Mac/region/RegionCN470.c **** 
 452:../../../../../../Middlewares/Third_Party/LoRaWAN/Mac/region/RegionCN470.c ****     // Last byte CFListType must be 0x01 to indicate the CFList contains a series of ChMask fields
 453:../../../../../../Middlewares/Third_Party/LoRaWAN/Mac/region/RegionCN470.c ****     if( applyCFList->Payload[15] != 0x01 )
 454:../../../../../../Middlewares/Third_Party/LoRaWAN/Mac/region/RegionCN470.c ****     {
 455:../../../../../../Middlewares/Third_Party/LoRaWAN/Mac/region/RegionCN470.c ****         return;
 456:../../../../../../Middlewares/Third_Party/LoRaWAN/Mac/region/RegionCN470.c ****     }
 457:../../../../../../Middlewares/Third_Party/LoRaWAN/Mac/region/RegionCN470.c **** 
 458:../../../../../../Middlewares/Third_Party/LoRaWAN/Mac/region/RegionCN470.c ****     // ChMask0 - ChMask5 must be set (every ChMask has 16 bit)
 459:../../../../../../Middlewares/Third_Party/LoRaWAN/Mac/region/RegionCN470.c ****     for( uint8_t chMaskItr = 0, cntPayload = 0; chMaskItr <= 5; chMaskItr++, cntPayload+=2 )
 460:../../../../../../Middlewares/Third_Party/LoRaWAN/Mac/region/RegionCN470.c ****     {
 461:../../../../../../Middlewares/Third_Party/LoRaWAN/Mac/region/RegionCN470.c ****         NvmCtx.ChannelsMask[chMaskItr] = (uint16_t) (0x00FF & applyCFList->Payload[cntPayload]);
 462:../../../../../../Middlewares/Third_Party/LoRaWAN/Mac/region/RegionCN470.c ****         NvmCtx.ChannelsMask[chMaskItr] |= (uint16_t) (applyCFList->Payload[cntPayload+1] << 8);
 463:../../../../../../Middlewares/Third_Party/LoRaWAN/Mac/region/RegionCN470.c ****     }
 464:../../../../../../Middlewares/Third_Party/LoRaWAN/Mac/region/RegionCN470.c **** }
 628              		.loc 1 464 0
 629              		@ sp needed
 630 0008 10BD     		pop	{r4, pc}
 631              	.LVL38:
 632              	.L60:
 453:../../../../../../Middlewares/Third_Party/LoRaWAN/Mac/region/RegionCN470.c ****     {
 633              		.loc 1 453 0
 634 000a 0368     		ldr	r3, [r0]
 635 000c DA7B     		ldrb	r2, [r3, #15]
 636 000e 012A     		cmp	r2, #1
 637 0010 FAD1     		bne	.L58
 638              	.LVL39:
 639              	.LBB20:
 461:../../../../../../Middlewares/Third_Party/LoRaWAN/Mac/region/RegionCN470.c ****         NvmCtx.ChannelsMask[chMaskItr] |= (uint16_t) (applyCFList->Payload[cntPayload+1] << 8);
 640              		.loc 1 461 0
 641 0012 9224     		movs	r4, #146
 642 0014 1978     		ldrb	r1, [r3]
 643 0016 154A     		ldr	r2, .L61
 644 0018 E400     		lsls	r4, r4, #3
 645 001a 1153     		strh	r1, [r2, r4]
 462:../../../../../../Middlewares/Third_Party/LoRaWAN/Mac/region/RegionCN470.c ****     }
 646              		.loc 1 462 0
 647 001c 5878     		ldrb	r0, [r3, #1]
 648              	.LVL40:
 649 001e 0002     		lsls	r0, r0, #8
 650 0020 0143     		orrs	r1, r0
 651 0022 1153     		strh	r1, [r2, r4]
 652              	.LVL41:
 461:../../../../../../Middlewares/Third_Party/LoRaWAN/Mac/region/RegionCN470.c ****         NvmCtx.ChannelsMask[chMaskItr] |= (uint16_t) (applyCFList->Payload[cntPayload+1] << 8);
 653              		.loc 1 461 0
 654 0024 9978     		ldrb	r1, [r3, #2]
 655 0026 124C     		ldr	r4, .L61+4
 656 0028 1153     		strh	r1, [r2, r4]
 462:../../../../../../Middlewares/Third_Party/LoRaWAN/Mac/region/RegionCN470.c ****     }
 657              		.loc 1 462 0
 658 002a D878     		ldrb	r0, [r3, #3]
 659 002c 0002     		lsls	r0, r0, #8
 660 002e 0143     		orrs	r1, r0
 661 0030 1153     		strh	r1, [r2, r4]
 662              	.LVL42:
 461:../../../../../../Middlewares/Third_Party/LoRaWAN/Mac/region/RegionCN470.c ****         NvmCtx.ChannelsMask[chMaskItr] |= (uint16_t) (applyCFList->Payload[cntPayload+1] << 8);
ARM GAS  C:\Users\EBANO_~1\AppData\Local\Temp\cchbxRq9.s 			page 22


 663              		.loc 1 461 0
 664 0032 1979     		ldrb	r1, [r3, #4]
 665 0034 0F4C     		ldr	r4, .L61+8
 666 0036 1153     		strh	r1, [r2, r4]
 462:../../../../../../Middlewares/Third_Party/LoRaWAN/Mac/region/RegionCN470.c ****     }
 667              		.loc 1 462 0
 668 0038 5879     		ldrb	r0, [r3, #5]
 669 003a 0002     		lsls	r0, r0, #8
 670 003c 0143     		orrs	r1, r0
 671 003e 1153     		strh	r1, [r2, r4]
 672              	.LVL43:
 461:../../../../../../Middlewares/Third_Party/LoRaWAN/Mac/region/RegionCN470.c ****         NvmCtx.ChannelsMask[chMaskItr] |= (uint16_t) (applyCFList->Payload[cntPayload+1] << 8);
 673              		.loc 1 461 0
 674 0040 9979     		ldrb	r1, [r3, #6]
 675 0042 0D4C     		ldr	r4, .L61+12
 676 0044 1153     		strh	r1, [r2, r4]
 462:../../../../../../Middlewares/Third_Party/LoRaWAN/Mac/region/RegionCN470.c ****     }
 677              		.loc 1 462 0
 678 0046 D879     		ldrb	r0, [r3, #7]
 679 0048 0002     		lsls	r0, r0, #8
 680 004a 0143     		orrs	r1, r0
 681 004c 1153     		strh	r1, [r2, r4]
 682              	.LVL44:
 461:../../../../../../Middlewares/Third_Party/LoRaWAN/Mac/region/RegionCN470.c ****         NvmCtx.ChannelsMask[chMaskItr] |= (uint16_t) (applyCFList->Payload[cntPayload+1] << 8);
 683              		.loc 1 461 0
 684 004e 197A     		ldrb	r1, [r3, #8]
 685 0050 0234     		adds	r4, r4, #2
 686 0052 1153     		strh	r1, [r2, r4]
 462:../../../../../../Middlewares/Third_Party/LoRaWAN/Mac/region/RegionCN470.c ****     }
 687              		.loc 1 462 0
 688 0054 587A     		ldrb	r0, [r3, #9]
 689 0056 0002     		lsls	r0, r0, #8
 690 0058 0143     		orrs	r1, r0
 691 005a 1153     		strh	r1, [r2, r4]
 692              	.LVL45:
 461:../../../../../../Middlewares/Third_Party/LoRaWAN/Mac/region/RegionCN470.c ****         NvmCtx.ChannelsMask[chMaskItr] |= (uint16_t) (applyCFList->Payload[cntPayload+1] << 8);
 693              		.loc 1 461 0
 694 005c 997A     		ldrb	r1, [r3, #10]
 695 005e 0748     		ldr	r0, .L61+16
 696 0060 1152     		strh	r1, [r2, r0]
 462:../../../../../../Middlewares/Third_Party/LoRaWAN/Mac/region/RegionCN470.c ****     }
 697              		.loc 1 462 0
 698 0062 DB7A     		ldrb	r3, [r3, #11]
 699 0064 1B02     		lsls	r3, r3, #8
 700 0066 1943     		orrs	r1, r3
 701 0068 1152     		strh	r1, [r2, r0]
 702              	.LVL46:
 703 006a CDE7     		b	.L58
 704              	.L62:
 705              		.align	2
 706              	.L61:
 707 006c 00000000 		.word	NvmCtx
 708 0070 92040000 		.word	1170
 709 0074 94040000 		.word	1172
 710 0078 96040000 		.word	1174
 711 007c 9A040000 		.word	1178
 712              	.LBE20:
ARM GAS  C:\Users\EBANO_~1\AppData\Local\Temp\cchbxRq9.s 			page 23


 713              		.cfi_endproc
 714              	.LFE49:
 715              		.size	RegionCN470ApplyCFList, .-RegionCN470ApplyCFList
 716              		.section	.text.RegionCN470ChanMaskSet,"ax",%progbits
 717              		.align	1
 718              		.p2align 2,,3
 719              		.global	RegionCN470ChanMaskSet
 720              		.syntax unified
 721              		.code	16
 722              		.thumb_func
 723              		.fpu softvfp
 724              		.type	RegionCN470ChanMaskSet, %function
 725              	RegionCN470ChanMaskSet:
 726              	.LFB50:
 465:../../../../../../Middlewares/Third_Party/LoRaWAN/Mac/region/RegionCN470.c **** 
 466:../../../../../../Middlewares/Third_Party/LoRaWAN/Mac/region/RegionCN470.c **** bool RegionCN470ChanMaskSet( ChanMaskSetParams_t* chanMaskSet )
 467:../../../../../../Middlewares/Third_Party/LoRaWAN/Mac/region/RegionCN470.c **** {
 727              		.loc 1 467 0
 728              		.cfi_startproc
 729              		@ args = 0, pretend = 0, frame = 0
 730              		@ frame_needed = 0, uses_anonymous_args = 0
 731              	.LVL47:
 732 0000 10B5     		push	{r4, lr}
 733              	.LCFI7:
 734              		.cfi_def_cfa_offset 8
 735              		.cfi_offset 4, -8
 736              		.cfi_offset 14, -4
 468:../../../../../../Middlewares/Third_Party/LoRaWAN/Mac/region/RegionCN470.c ****     switch( chanMaskSet->ChannelsMaskType )
 737              		.loc 1 468 0
 738 0002 0379     		ldrb	r3, [r0, #4]
 739 0004 002B     		cmp	r3, #0
 740 0006 0AD0     		beq	.L65
 741 0008 012B     		cmp	r3, #1
 742 000a 01D0     		beq	.L66
 469:../../../../../../Middlewares/Third_Party/LoRaWAN/Mac/region/RegionCN470.c ****     {
 470:../../../../../../Middlewares/Third_Party/LoRaWAN/Mac/region/RegionCN470.c ****         case CHANNELS_MASK:
 471:../../../../../../Middlewares/Third_Party/LoRaWAN/Mac/region/RegionCN470.c ****         {
 472:../../../../../../Middlewares/Third_Party/LoRaWAN/Mac/region/RegionCN470.c ****             RegionCommonChanMaskCopy( NvmCtx.ChannelsMask, chanMaskSet->ChannelsMaskIn, 6 );
 473:../../../../../../Middlewares/Third_Party/LoRaWAN/Mac/region/RegionCN470.c ****             break;
 474:../../../../../../Middlewares/Third_Party/LoRaWAN/Mac/region/RegionCN470.c ****         }
 475:../../../../../../Middlewares/Third_Party/LoRaWAN/Mac/region/RegionCN470.c ****         case CHANNELS_DEFAULT_MASK:
 476:../../../../../../Middlewares/Third_Party/LoRaWAN/Mac/region/RegionCN470.c ****         {
 477:../../../../../../Middlewares/Third_Party/LoRaWAN/Mac/region/RegionCN470.c ****             RegionCommonChanMaskCopy( NvmCtx.ChannelsDefaultMask, chanMaskSet->ChannelsMaskIn, 6 );
 478:../../../../../../Middlewares/Third_Party/LoRaWAN/Mac/region/RegionCN470.c ****             break;
 479:../../../../../../Middlewares/Third_Party/LoRaWAN/Mac/region/RegionCN470.c ****         }
 480:../../../../../../Middlewares/Third_Party/LoRaWAN/Mac/region/RegionCN470.c ****         default:
 481:../../../../../../Middlewares/Third_Party/LoRaWAN/Mac/region/RegionCN470.c ****             return false;
 743              		.loc 1 481 0
 744 000c 0020     		movs	r0, #0
 745              	.LVL48:
 746              	.L64:
 482:../../../../../../Middlewares/Third_Party/LoRaWAN/Mac/region/RegionCN470.c ****     }
 483:../../../../../../Middlewares/Third_Party/LoRaWAN/Mac/region/RegionCN470.c ****     return true;
 484:../../../../../../Middlewares/Third_Party/LoRaWAN/Mac/region/RegionCN470.c **** }
 747              		.loc 1 484 0
 748              		@ sp needed
 749 000e 10BD     		pop	{r4, pc}
ARM GAS  C:\Users\EBANO_~1\AppData\Local\Temp\cchbxRq9.s 			page 24


 750              	.LVL49:
 751              	.L66:
 477:../../../../../../Middlewares/Third_Party/LoRaWAN/Mac/region/RegionCN470.c ****             break;
 752              		.loc 1 477 0
 753 0010 0168     		ldr	r1, [r0]
 754 0012 0622     		movs	r2, #6
 755 0014 0548     		ldr	r0, .L69
 756              	.LVL50:
 757 0016 FFF7FEFF 		bl	RegionCommonChanMaskCopy
 758              	.LVL51:
 483:../../../../../../Middlewares/Third_Party/LoRaWAN/Mac/region/RegionCN470.c **** }
 759              		.loc 1 483 0
 760 001a 0120     		movs	r0, #1
 478:../../../../../../Middlewares/Third_Party/LoRaWAN/Mac/region/RegionCN470.c ****         }
 761              		.loc 1 478 0
 762 001c F7E7     		b	.L64
 763              	.LVL52:
 764              	.L65:
 472:../../../../../../Middlewares/Third_Party/LoRaWAN/Mac/region/RegionCN470.c ****             break;
 765              		.loc 1 472 0
 766 001e 0168     		ldr	r1, [r0]
 767 0020 0622     		movs	r2, #6
 768 0022 0348     		ldr	r0, .L69+4
 769              	.LVL53:
 770 0024 FFF7FEFF 		bl	RegionCommonChanMaskCopy
 771              	.LVL54:
 483:../../../../../../Middlewares/Third_Party/LoRaWAN/Mac/region/RegionCN470.c **** }
 772              		.loc 1 483 0
 773 0028 0120     		movs	r0, #1
 473:../../../../../../Middlewares/Third_Party/LoRaWAN/Mac/region/RegionCN470.c ****         }
 774              		.loc 1 473 0
 775 002a F0E7     		b	.L64
 776              	.L70:
 777              		.align	2
 778              	.L69:
 779 002c 9C040000 		.word	NvmCtx+1180
 780 0030 90040000 		.word	NvmCtx+1168
 781              		.cfi_endproc
 782              	.LFE50:
 783              		.size	RegionCN470ChanMaskSet, .-RegionCN470ChanMaskSet
 784              		.section	.text.RegionCN470ComputeRxWindowParameters,"ax",%progbits
 785              		.align	1
 786              		.p2align 2,,3
 787              		.global	RegionCN470ComputeRxWindowParameters
 788              		.syntax unified
 789              		.code	16
 790              		.thumb_func
 791              		.fpu softvfp
 792              		.type	RegionCN470ComputeRxWindowParameters, %function
 793              	RegionCN470ComputeRxWindowParameters:
 794              	.LFB51:
 485:../../../../../../Middlewares/Third_Party/LoRaWAN/Mac/region/RegionCN470.c **** 
 486:../../../../../../Middlewares/Third_Party/LoRaWAN/Mac/region/RegionCN470.c **** void RegionCN470ComputeRxWindowParameters( int8_t datarate, uint8_t minRxSymbols, uint32_t rxError,
 487:../../../../../../Middlewares/Third_Party/LoRaWAN/Mac/region/RegionCN470.c **** {
 795              		.loc 1 487 0
 796              		.cfi_startproc
 797              		@ args = 0, pretend = 0, frame = 8
ARM GAS  C:\Users\EBANO_~1\AppData\Local\Temp\cchbxRq9.s 			page 25


 798              		@ frame_needed = 0, uses_anonymous_args = 0
 799              	.LVL55:
 800 0000 F0B5     		push	{r4, r5, r6, r7, lr}
 801              	.LCFI8:
 802              		.cfi_def_cfa_offset 20
 803              		.cfi_offset 4, -20
 804              		.cfi_offset 5, -16
 805              		.cfi_offset 6, -12
 806              		.cfi_offset 7, -8
 807              		.cfi_offset 14, -4
 808 0002 C646     		mov	lr, r8
 809 0004 00B5     		push	{lr}
 810              	.LCFI9:
 811              		.cfi_def_cfa_offset 24
 812              		.cfi_offset 8, -24
 813 0006 1C00     		movs	r4, r3
 814 0008 86B0     		sub	sp, sp, #24
 815              	.LCFI10:
 816              		.cfi_def_cfa_offset 48
 817              		.loc 1 487 0
 818 000a 0D00     		movs	r5, r1
 819 000c 9046     		mov	r8, r2
 488:../../../../../../Middlewares/Third_Party/LoRaWAN/Mac/region/RegionCN470.c ****     double tSymbol = 0.0;
 489:../../../../../../Middlewares/Third_Party/LoRaWAN/Mac/region/RegionCN470.c **** 
 490:../../../../../../Middlewares/Third_Party/LoRaWAN/Mac/region/RegionCN470.c ****     // Get the datarate, perform a boundary check
 491:../../../../../../Middlewares/Third_Party/LoRaWAN/Mac/region/RegionCN470.c ****     rxConfigParams->Datarate = MIN( datarate, CN470_RX_MAX_DATARATE );
 820              		.loc 1 491 0
 821 000e 031C     		adds	r3, r0, #0
 822              	.LVL56:
 823 0010 0528     		cmp	r0, #5
 824 0012 00DD     		ble	.L72
 825 0014 0523     		movs	r3, #5
 826              	.L72:
 827 0016 58B2     		sxtb	r0, r3
 828              	.LVL57:
 829              	.LBB21:
 830              	.LBB22:
  86:../../../../../../Middlewares/Third_Party/LoRaWAN/Mac/region/RegionCN470.c ****     {
 831              		.loc 1 86 0
 832 0018 154A     		ldr	r2, .L77
 833              	.LVL58:
 834 001a 8100     		lsls	r1, r0, #2
 835              	.LVL59:
 836              	.LBE22:
 837              	.LBE21:
 838              		.loc 1 491 0
 839 001c 6370     		strb	r3, [r4, #1]
 840              	.LVL60:
 841              	.LBB25:
 842              	.LBB23:
  86:../../../../../../Middlewares/Third_Party/LoRaWAN/Mac/region/RegionCN470.c ****     {
 843              		.loc 1 86 0
 844 001e 154E     		ldr	r6, .L77+4
 845 0020 5358     		ldr	r3, [r2, r1]
 846 0022 B342     		cmp	r3, r6
 847 0024 21D0     		beq	.L76
 848 0026 144E     		ldr	r6, .L77+8
ARM GAS  C:\Users\EBANO_~1\AppData\Local\Temp\cchbxRq9.s 			page 26


 849 0028 B446     		mov	ip, r6
 850 002a 6344     		add	r3, r3, ip
 851 002c 5E42     		rsbs	r6, r3, #0
 852 002e 7341     		adcs	r3, r3, r6
 853 0030 5B00     		lsls	r3, r3, #1
 854              	.L74:
 855              	.LBE23:
 856              	.LBE25:
 492:../../../../../../Middlewares/Third_Party/LoRaWAN/Mac/region/RegionCN470.c ****     rxConfigParams->Bandwidth = GetBandwidth( rxConfigParams->Datarate );
 493:../../../../../../Middlewares/Third_Party/LoRaWAN/Mac/region/RegionCN470.c **** 
 494:../../../../../../Middlewares/Third_Party/LoRaWAN/Mac/region/RegionCN470.c ****     tSymbol = RegionCommonComputeSymbolTimeLoRa( DataratesCN470[rxConfigParams->Datarate], Bandwidt
 857              		.loc 1 494 0
 858 0032 5158     		ldr	r1, [r2, r1]
 859 0034 1218     		adds	r2, r2, r0
 492:../../../../../../Middlewares/Third_Party/LoRaWAN/Mac/region/RegionCN470.c ****     rxConfigParams->Bandwidth = GetBandwidth( rxConfigParams->Datarate );
 860              		.loc 1 492 0
 861 0036 A370     		strb	r3, [r4, #2]
 862              		.loc 1 494 0
 863 0038 107E     		ldrb	r0, [r2, #24]
 864 003a FFF7FEFF 		bl	RegionCommonComputeSymbolTimeLoRa
 865              	.LVL61:
 495:../../../../../../Middlewares/Third_Party/LoRaWAN/Mac/region/RegionCN470.c **** 
 496:../../../../../../Middlewares/Third_Party/LoRaWAN/Mac/region/RegionCN470.c ****     RegionCommonComputeRxWindowParameters( tSymbol, minRxSymbols, rxError, Radio.GetWakeupTime( ), 
 866              		.loc 1 496 0
 867 003e 0F4B     		ldr	r3, .L77+12
 494:../../../../../../Middlewares/Third_Party/LoRaWAN/Mac/region/RegionCN470.c **** 
 868              		.loc 1 494 0
 869 0040 0600     		movs	r6, r0
 870              		.loc 1 496 0
 871 0042 5B6E     		ldr	r3, [r3, #100]
 494:../../../../../../Middlewares/Third_Party/LoRaWAN/Mac/region/RegionCN470.c **** 
 872              		.loc 1 494 0
 873 0044 0F00     		movs	r7, r1
 874              	.LVL62:
 875              		.loc 1 496 0
 876 0046 0593     		str	r3, [sp, #20]
 877 0048 9847     		blx	r3
 878              	.LVL63:
 879 004a 2300     		movs	r3, r4
 880 004c 0834     		adds	r4, r4, #8
 881              	.LVL64:
 882 004e 0C33     		adds	r3, r3, #12
 883              	.LVL65:
 884 0050 0293     		str	r3, [sp, #8]
 885 0052 0090     		str	r0, [sp]
 886 0054 0194     		str	r4, [sp, #4]
 887 0056 4346     		mov	r3, r8
 888              	.LVL66:
 889 0058 2A00     		movs	r2, r5
 890 005a 3000     		movs	r0, r6
 891 005c 3900     		movs	r1, r7
 892 005e FFF7FEFF 		bl	RegionCommonComputeRxWindowParameters
 893              	.LVL67:
 497:../../../../../../Middlewares/Third_Party/LoRaWAN/Mac/region/RegionCN470.c **** }
 894              		.loc 1 497 0
 895 0062 06B0     		add	sp, sp, #24
 896              		@ sp needed
ARM GAS  C:\Users\EBANO_~1\AppData\Local\Temp\cchbxRq9.s 			page 27


 897              	.LVL68:
 898              	.LVL69:
 899              	.LVL70:
 900 0064 04BC     		pop	{r2}
 901 0066 9046     		mov	r8, r2
 902 0068 F0BD     		pop	{r4, r5, r6, r7, pc}
 903              	.LVL71:
 904              	.L76:
 905              	.LBB26:
 906              	.LBB24:
  86:../../../../../../Middlewares/Third_Party/LoRaWAN/Mac/region/RegionCN470.c ****     {
 907              		.loc 1 86 0
 908 006a 0123     		movs	r3, #1
 909 006c E1E7     		b	.L74
 910              	.L78:
 911 006e C046     		.align	2
 912              	.L77:
 913 0070 AC000000 		.word	.LANCHOR1
 914 0074 90D00300 		.word	250000
 915 0078 E05EF8FF 		.word	-500000
 916 007c 00000000 		.word	Radio
 917              	.LBE24:
 918              	.LBE26:
 919              		.cfi_endproc
 920              	.LFE51:
 921              		.size	RegionCN470ComputeRxWindowParameters, .-RegionCN470ComputeRxWindowParameters
 922              		.global	__aeabi_uidivmod
 923              		.section	.text.RegionCN470RxConfig,"ax",%progbits
 924              		.align	1
 925              		.p2align 2,,3
 926              		.global	RegionCN470RxConfig
 927              		.syntax unified
 928              		.code	16
 929              		.thumb_func
 930              		.fpu softvfp
 931              		.type	RegionCN470RxConfig, %function
 932              	RegionCN470RxConfig:
 933              	.LFB52:
 498:../../../../../../Middlewares/Third_Party/LoRaWAN/Mac/region/RegionCN470.c **** 
 499:../../../../../../Middlewares/Third_Party/LoRaWAN/Mac/region/RegionCN470.c **** bool RegionCN470RxConfig( RxConfigParams_t* rxConfig, int8_t* datarate )
 500:../../../../../../Middlewares/Third_Party/LoRaWAN/Mac/region/RegionCN470.c **** {
 934              		.loc 1 500 0
 935              		.cfi_startproc
 936              		@ args = 0, pretend = 0, frame = 8
 937              		@ frame_needed = 0, uses_anonymous_args = 0
 938              	.LVL72:
 939 0000 F0B5     		push	{r4, r5, r6, r7, lr}
 940              	.LCFI11:
 941              		.cfi_def_cfa_offset 20
 942              		.cfi_offset 4, -20
 943              		.cfi_offset 5, -16
 944              		.cfi_offset 6, -12
 945              		.cfi_offset 7, -8
 946              		.cfi_offset 14, -4
 947 0002 D646     		mov	lr, r10
 948 0004 4646     		mov	r6, r8
 949 0006 4F46     		mov	r7, r9
ARM GAS  C:\Users\EBANO_~1\AppData\Local\Temp\cchbxRq9.s 			page 28


 950 0008 C0B5     		push	{r6, r7, lr}
 951              	.LCFI12:
 952              		.cfi_def_cfa_offset 32
 953              		.cfi_offset 8, -32
 954              		.cfi_offset 9, -28
 955              		.cfi_offset 10, -24
 501:../../../../../../Middlewares/Third_Party/LoRaWAN/Mac/region/RegionCN470.c ****     int8_t dr = rxConfig->Datarate;
 956              		.loc 1 501 0
 957 000a 0126     		movs	r6, #1
 502:../../../../../../Middlewares/Third_Party/LoRaWAN/Mac/region/RegionCN470.c ****     uint8_t maxPayload = 0;
 503:../../../../../../Middlewares/Third_Party/LoRaWAN/Mac/region/RegionCN470.c ****     int8_t phyDr = 0;
 504:../../../../../../Middlewares/Third_Party/LoRaWAN/Mac/region/RegionCN470.c ****     uint32_t frequency = rxConfig->Frequency;
 958              		.loc 1 504 0
 959 000c 4368     		ldr	r3, [r0, #4]
 505:../../../../../../Middlewares/Third_Party/LoRaWAN/Mac/region/RegionCN470.c **** 
 506:../../../../../../Middlewares/Third_Party/LoRaWAN/Mac/region/RegionCN470.c ****     if( Radio.GetStatus( ) != RF_IDLE )
 960              		.loc 1 506 0
 961 000e 284D     		ldr	r5, .L86
 504:../../../../../../Middlewares/Third_Party/LoRaWAN/Mac/region/RegionCN470.c **** 
 962              		.loc 1 504 0
 963 0010 9846     		mov	r8, r3
 964              		.loc 1 506 0
 965 0012 EB68     		ldr	r3, [r5, #12]
 500:../../../../../../Middlewares/Third_Party/LoRaWAN/Mac/region/RegionCN470.c ****     int8_t dr = rxConfig->Datarate;
 966              		.loc 1 500 0
 967 0014 8CB0     		sub	sp, sp, #48
 968              	.LCFI13:
 969              		.cfi_def_cfa_offset 80
 501:../../../../../../Middlewares/Third_Party/LoRaWAN/Mac/region/RegionCN470.c ****     uint8_t maxPayload = 0;
 970              		.loc 1 501 0
 971 0016 8657     		ldrsb	r6, [r0, r6]
 972              	.LVL73:
 500:../../../../../../Middlewares/Third_Party/LoRaWAN/Mac/region/RegionCN470.c ****     int8_t dr = rxConfig->Datarate;
 973              		.loc 1 500 0
 974 0018 0400     		movs	r4, r0
 975              		.loc 1 506 0
 976 001a 0B93     		str	r3, [sp, #44]
 500:../../../../../../Middlewares/Third_Party/LoRaWAN/Mac/region/RegionCN470.c ****     int8_t dr = rxConfig->Datarate;
 977              		.loc 1 500 0
 978 001c 8A46     		mov	r10, r1
 979              		.loc 1 506 0
 980 001e 9847     		blx	r3
 981              	.LVL74:
 507:../../../../../../Middlewares/Third_Party/LoRaWAN/Mac/region/RegionCN470.c ****     {
 508:../../../../../../Middlewares/Third_Party/LoRaWAN/Mac/region/RegionCN470.c ****         return false;
 982              		.loc 1 508 0
 983 0020 0023     		movs	r3, #0
 506:../../../../../../Middlewares/Third_Party/LoRaWAN/Mac/region/RegionCN470.c ****     {
 984              		.loc 1 506 0
 985 0022 0028     		cmp	r0, #0
 986 0024 3AD1     		bne	.L80
 509:../../../../../../Middlewares/Third_Party/LoRaWAN/Mac/region/RegionCN470.c ****     }
 510:../../../../../../Middlewares/Third_Party/LoRaWAN/Mac/region/RegionCN470.c **** 
 511:../../../../../../Middlewares/Third_Party/LoRaWAN/Mac/region/RegionCN470.c ****     if( rxConfig->RxSlot == RX_SLOT_WIN_1 )
 987              		.loc 1 511 0
 988 0026 E37C     		ldrb	r3, [r4, #19]
 989 0028 002B     		cmp	r3, #0
ARM GAS  C:\Users\EBANO_~1\AppData\Local\Temp\cchbxRq9.s 			page 29


 990 002a 09D1     		bne	.L81
 512:../../../../../../Middlewares/Third_Party/LoRaWAN/Mac/region/RegionCN470.c ****     {
 513:../../../../../../Middlewares/Third_Party/LoRaWAN/Mac/region/RegionCN470.c ****         // Apply window 1 frequency
 514:../../../../../../Middlewares/Third_Party/LoRaWAN/Mac/region/RegionCN470.c ****         frequency = CN470_FIRST_RX1_CHANNEL + ( rxConfig->Channel % 48 ) * CN470_STEPWIDTH_RX1_CHAN
 991              		.loc 1 514 0
 992 002c 2078     		ldrb	r0, [r4]
 993 002e 3021     		movs	r1, #48
 994 0030 FFF7FEFF 		bl	__aeabi_uidivmod
 995              	.LVL75:
 996 0034 CBB2     		uxtb	r3, r1
 997 0036 1F49     		ldr	r1, .L86+4
 998 0038 5943     		muls	r1, r3
 999 003a 1F4B     		ldr	r3, .L86+8
 1000 003c 9846     		mov	r8, r3
 1001              	.LVL76:
 1002 003e 8844     		add	r8, r8, r1
 1003              	.LVL77:
 1004              	.L81:
 515:../../../../../../Middlewares/Third_Party/LoRaWAN/Mac/region/RegionCN470.c ****     }
 516:../../../../../../Middlewares/Third_Party/LoRaWAN/Mac/region/RegionCN470.c **** 
 517:../../../../../../Middlewares/Third_Party/LoRaWAN/Mac/region/RegionCN470.c ****     // Read the physical datarate from the datarates table
 518:../../../../../../Middlewares/Third_Party/LoRaWAN/Mac/region/RegionCN470.c ****     phyDr = DataratesCN470[dr];
 1005              		.loc 1 518 0
 1006 0040 1E4B     		ldr	r3, .L86+12
 519:../../../../../../Middlewares/Third_Party/LoRaWAN/Mac/region/RegionCN470.c **** 
 520:../../../../../../Middlewares/Third_Party/LoRaWAN/Mac/region/RegionCN470.c ****     Radio.SetChannel( frequency );
 1007              		.loc 1 520 0
 1008 0042 4046     		mov	r0, r8
 518:../../../../../../Middlewares/Third_Party/LoRaWAN/Mac/region/RegionCN470.c **** 
 1009              		.loc 1 518 0
 1010 0044 9B19     		adds	r3, r3, r6
 1011 0046 1B7E     		ldrb	r3, [r3, #24]
 1012 0048 5BB2     		sxtb	r3, r3
 1013 004a 9946     		mov	r9, r3
 1014              	.LVL78:
 1015              		.loc 1 520 0
 1016 004c 6B69     		ldr	r3, [r5, #20]
 1017 004e 0B93     		str	r3, [sp, #44]
 1018 0050 9847     		blx	r3
 1019              	.LVL79:
 521:../../../../../../Middlewares/Third_Party/LoRaWAN/Mac/region/RegionCN470.c **** 
 522:../../../../../../Middlewares/Third_Party/LoRaWAN/Mac/region/RegionCN470.c ****     // Radio configuration
 523:../../../../../../Middlewares/Third_Party/LoRaWAN/Mac/region/RegionCN470.c ****     Radio.SetRxConfig( MODEM_LORA, rxConfig->Bandwidth, phyDr, 1, 0, 8, rxConfig->WindowTimeout, fa
 1020              		.loc 1 523 0
 1021 0052 A37C     		ldrb	r3, [r4, #18]
 1022 0054 2289     		ldrh	r2, [r4, #8]
 1023 0056 0993     		str	r3, [sp, #36]
 1024 0058 0123     		movs	r3, #1
 1025 005a 0893     		str	r3, [sp, #32]
 1026 005c 0023     		movs	r3, #0
 1027 005e 0292     		str	r2, [sp, #8]
 1028 0060 0822     		movs	r2, #8
 1029 0062 0793     		str	r3, [sp, #28]
 1030 0064 0693     		str	r3, [sp, #24]
 1031 0066 0593     		str	r3, [sp, #20]
 1032 0068 0493     		str	r3, [sp, #16]
 1033 006a 0393     		str	r3, [sp, #12]
ARM GAS  C:\Users\EBANO_~1\AppData\Local\Temp\cchbxRq9.s 			page 30


 1034 006c 0093     		str	r3, [sp]
 1035 006e 2B6A     		ldr	r3, [r5, #32]
 1036 0070 0192     		str	r2, [sp, #4]
 1037 0072 0B93     		str	r3, [sp, #44]
 1038 0074 A178     		ldrb	r1, [r4, #2]
 1039 0076 0123     		movs	r3, #1
 1040 0078 4A46     		mov	r2, r9
 1041 007a 0120     		movs	r0, #1
 1042 007c 0B9F     		ldr	r7, [sp, #44]
 1043 007e B847     		blx	r7
 1044              	.LVL80:
 524:../../../../../../Middlewares/Third_Party/LoRaWAN/Mac/region/RegionCN470.c **** 
 525:../../../../../../Middlewares/Third_Party/LoRaWAN/Mac/region/RegionCN470.c ****     if( rxConfig->RepeaterSupport == true )
 1045              		.loc 1 525 0
 1046 0080 637C     		ldrb	r3, [r4, #17]
 1047 0082 002B     		cmp	r3, #0
 1048 0084 11D1     		bne	.L85
 526:../../../../../../Middlewares/Third_Party/LoRaWAN/Mac/region/RegionCN470.c ****     {
 527:../../../../../../Middlewares/Third_Party/LoRaWAN/Mac/region/RegionCN470.c ****         maxPayload = MaxPayloadOfDatarateRepeaterCN470[dr];
 528:../../../../../../Middlewares/Third_Party/LoRaWAN/Mac/region/RegionCN470.c ****     }
 529:../../../../../../Middlewares/Third_Party/LoRaWAN/Mac/region/RegionCN470.c ****     else
 530:../../../../../../Middlewares/Third_Party/LoRaWAN/Mac/region/RegionCN470.c ****     {
 531:../../../../../../Middlewares/Third_Party/LoRaWAN/Mac/region/RegionCN470.c ****         maxPayload = MaxPayloadOfDatarateCN470[dr];
 1049              		.loc 1 531 0
 1050 0086 0E4B     		ldr	r3, .L86+16
 1051 0088 995D     		ldrb	r1, [r3, r6]
 1052              	.LVL81:
 1053              	.L83:
 532:../../../../../../Middlewares/Third_Party/LoRaWAN/Mac/region/RegionCN470.c ****     }
 533:../../../../../../Middlewares/Third_Party/LoRaWAN/Mac/region/RegionCN470.c ****     Radio.SetMaxPayloadLength( MODEM_LORA, maxPayload + LORA_MAC_FRMPAYLOAD_OVERHEAD );
 1054              		.loc 1 533 0
 1055 008a EB6D     		ldr	r3, [r5, #92]
 1056 008c 0D31     		adds	r1, r1, #13
 1057              	.LVL82:
 1058 008e C9B2     		uxtb	r1, r1
 1059 0090 0120     		movs	r0, #1
 1060 0092 0B93     		str	r3, [sp, #44]
 1061 0094 9847     		blx	r3
 1062              	.LVL83:
 534:../../../../../../Middlewares/Third_Party/LoRaWAN/Mac/region/RegionCN470.c ****     TVL1( PRINTF( "RX on freq %d Hz at DR %d\n\r", frequency, dr );)
 535:../../../../../../Middlewares/Third_Party/LoRaWAN/Mac/region/RegionCN470.c **** 
 536:../../../../../../Middlewares/Third_Party/LoRaWAN/Mac/region/RegionCN470.c ****     *datarate = (uint8_t) dr;
 1063              		.loc 1 536 0
 1064 0096 5346     		mov	r3, r10
 1065 0098 1E70     		strb	r6, [r3]
 537:../../../../../../Middlewares/Third_Party/LoRaWAN/Mac/region/RegionCN470.c ****     return true;
 1066              		.loc 1 537 0
 1067 009a 0123     		movs	r3, #1
 1068              	.LVL84:
 1069              	.L80:
 538:../../../../../../Middlewares/Third_Party/LoRaWAN/Mac/region/RegionCN470.c **** }
 1070              		.loc 1 538 0
 1071 009c 1800     		movs	r0, r3
 1072 009e 0CB0     		add	sp, sp, #48
 1073              		@ sp needed
 1074              	.LVL85:
 1075              	.LVL86:
ARM GAS  C:\Users\EBANO_~1\AppData\Local\Temp\cchbxRq9.s 			page 31


 1076              	.LVL87:
 1077              	.LVL88:
 1078 00a0 1CBC     		pop	{r2, r3, r4}
 1079 00a2 9046     		mov	r8, r2
 1080 00a4 9946     		mov	r9, r3
 1081 00a6 A246     		mov	r10, r4
 1082 00a8 F0BD     		pop	{r4, r5, r6, r7, pc}
 1083              	.LVL89:
 1084              	.L85:
 527:../../../../../../Middlewares/Third_Party/LoRaWAN/Mac/region/RegionCN470.c ****     }
 1085              		.loc 1 527 0
 1086 00aa 064B     		ldr	r3, .L86+20
 1087 00ac 995D     		ldrb	r1, [r3, r6]
 1088              	.LVL90:
 1089 00ae ECE7     		b	.L83
 1090              	.L87:
 1091              		.align	2
 1092              	.L86:
 1093 00b0 00000000 		.word	Radio
 1094 00b4 400D0300 		.word	200000
 1095 00b8 E0F8D11D 		.word	500300000
 1096 00bc AC000000 		.word	.LANCHOR1
 1097 00c0 CC000000 		.word	.LANCHOR0
 1098 00c4 CC000000 		.word	MaxPayloadOfDatarateRepeaterCN470
 1099              		.cfi_endproc
 1100              	.LFE52:
 1101              		.size	RegionCN470RxConfig, .-RegionCN470RxConfig
 1102              		.section	.text.RegionCN470TxConfig,"ax",%progbits
 1103              		.align	1
 1104              		.p2align 2,,3
 1105              		.global	RegionCN470TxConfig
 1106              		.syntax unified
 1107              		.code	16
 1108              		.thumb_func
 1109              		.fpu softvfp
 1110              		.type	RegionCN470TxConfig, %function
 1111              	RegionCN470TxConfig:
 1112              	.LFB53:
 539:../../../../../../Middlewares/Third_Party/LoRaWAN/Mac/region/RegionCN470.c **** 
 540:../../../../../../Middlewares/Third_Party/LoRaWAN/Mac/region/RegionCN470.c **** bool RegionCN470TxConfig( TxConfigParams_t* txConfig, int8_t* txPower, TimerTime_t* txTimeOnAir )
 541:../../../../../../Middlewares/Third_Party/LoRaWAN/Mac/region/RegionCN470.c **** {
 1113              		.loc 1 541 0
 1114              		.cfi_startproc
 1115              		@ args = 0, pretend = 0, frame = 8
 1116              		@ frame_needed = 0, uses_anonymous_args = 0
 1117              	.LVL91:
 1118 0000 F0B5     		push	{r4, r5, r6, r7, lr}
 1119              	.LCFI14:
 1120              		.cfi_def_cfa_offset 20
 1121              		.cfi_offset 4, -20
 1122              		.cfi_offset 5, -16
 1123              		.cfi_offset 6, -12
 1124              		.cfi_offset 7, -8
 1125              		.cfi_offset 14, -4
 1126 0002 4546     		mov	r5, r8
 1127 0004 DE46     		mov	lr, fp
 1128 0006 5746     		mov	r7, r10
ARM GAS  C:\Users\EBANO_~1\AppData\Local\Temp\cchbxRq9.s 			page 32


 1129 0008 4E46     		mov	r6, r9
 1130 000a E0B5     		push	{r5, r6, r7, lr}
 1131              	.LCFI15:
 1132              		.cfi_def_cfa_offset 36
 1133              		.cfi_offset 8, -36
 1134              		.cfi_offset 9, -32
 1135              		.cfi_offset 10, -28
 1136              		.cfi_offset 11, -24
 1137 000c 1700     		movs	r7, r2
 542:../../../../../../Middlewares/Third_Party/LoRaWAN/Mac/region/RegionCN470.c ****     int8_t phyDr = DataratesCN470[txConfig->Datarate];
 1138              		.loc 1 542 0
 1139 000e 0122     		movs	r2, #1
 1140              	.LVL92:
 1141 0010 2B4B     		ldr	r3, .L90
 1142 0012 8256     		ldrsb	r2, [r0, r2]
 543:../../../../../../Middlewares/Third_Party/LoRaWAN/Mac/region/RegionCN470.c ****     int8_t txPowerLimited = LimitTxPower( txConfig->TxPower, NvmCtx.Bands[NvmCtx.Channels[txConfig-
 1143              		.loc 1 543 0
 1144 0014 2B4D     		ldr	r5, .L90+4
 542:../../../../../../Middlewares/Third_Party/LoRaWAN/Mac/region/RegionCN470.c ****     int8_t phyDr = DataratesCN470[txConfig->Datarate];
 1145              		.loc 1 542 0
 1146 0016 9B18     		adds	r3, r3, r2
 1147 0018 1B7E     		ldrb	r3, [r3, #24]
 1148              		.loc 1 543 0
 1149 001a 0278     		ldrb	r2, [r0]
 542:../../../../../../Middlewares/Third_Party/LoRaWAN/Mac/region/RegionCN470.c ****     int8_t phyDr = DataratesCN470[txConfig->Datarate];
 1150              		.loc 1 542 0
 1151 001c 5BB2     		sxtb	r3, r3
 1152 001e 9846     		mov	r8, r3
 1153              	.LVL93:
 1154              		.loc 1 543 0
 1155 0020 5300     		lsls	r3, r2, #1
 1156 0022 9B18     		adds	r3, r3, r2
 1157 0024 9B00     		lsls	r3, r3, #2
 1158 0026 EB18     		adds	r3, r5, r3
 1159 0028 5B7A     		ldrb	r3, [r3, #9]
 1160              	.LBB27:
 1161              	.LBB28:
 103:../../../../../../Middlewares/Third_Party/LoRaWAN/Mac/region/RegionCN470.c **** 
 1162              		.loc 1 103 0
 1163 002a 8278     		ldrb	r2, [r0, #2]
 1164              	.LVL94:
 1165              	.LBE28:
 1166              	.LBE27:
 1167              		.loc 1 543 0
 1168 002c 4833     		adds	r3, r3, #72
 1169 002e 1B01     		lsls	r3, r3, #4
 1170 0030 EB18     		adds	r3, r5, r3
 1171              	.LBB33:
 1172              	.LBB29:
 103:../../../../../../Middlewares/Third_Party/LoRaWAN/Mac/region/RegionCN470.c **** 
 1173              		.loc 1 103 0
 1174 0032 9B78     		ldrb	r3, [r3, #2]
 1175              	.LBE29:
 1176              	.LBE33:
 541:../../../../../../Middlewares/Third_Party/LoRaWAN/Mac/region/RegionCN470.c ****     int8_t phyDr = DataratesCN470[txConfig->Datarate];
 1177              		.loc 1 541 0
 1178 0034 8B46     		mov	fp, r1
ARM GAS  C:\Users\EBANO_~1\AppData\Local\Temp\cchbxRq9.s 			page 33


 1179              	.LBB34:
 1180              	.LBB30:
 103:../../../../../../Middlewares/Third_Party/LoRaWAN/Mac/region/RegionCN470.c **** 
 1181              		.loc 1 103 0
 1182 0036 9946     		mov	r9, r3
 1183 0038 51B2     		sxtb	r1, r2
 1184              	.LVL95:
 1185 003a 5BB2     		sxtb	r3, r3
 1186              	.LBE30:
 1187              	.LBE34:
 541:../../../../../../Middlewares/Third_Party/LoRaWAN/Mac/region/RegionCN470.c ****     int8_t phyDr = DataratesCN470[txConfig->Datarate];
 1188              		.loc 1 541 0
 1189 003c 8DB0     		sub	sp, sp, #52
 1190              	.LCFI16:
 1191              		.cfi_def_cfa_offset 88
 541:../../../../../../Middlewares/Third_Party/LoRaWAN/Mac/region/RegionCN470.c ****     int8_t phyDr = DataratesCN470[txConfig->Datarate];
 1192              		.loc 1 541 0
 1193 003e 0400     		movs	r4, r0
 1194              	.LBB35:
 1195              	.LBB31:
 103:../../../../../../Middlewares/Third_Party/LoRaWAN/Mac/region/RegionCN470.c **** 
 1196              		.loc 1 103 0
 1197 0040 8B42     		cmp	r3, r1
 1198 0042 00DA     		bge	.L89
 1199 0044 9146     		mov	r9, r2
 1200              	.L89:
 1201 0046 4B46     		mov	r3, r9
 1202              	.LBE31:
 1203              	.LBE35:
 544:../../../../../../Middlewares/Third_Party/LoRaWAN/Mac/region/RegionCN470.c ****     int8_t phyTxPower = 0;
 545:../../../../../../Middlewares/Third_Party/LoRaWAN/Mac/region/RegionCN470.c **** 
 546:../../../../../../Middlewares/Third_Party/LoRaWAN/Mac/region/RegionCN470.c ****     // Calculate physical TX power
 547:../../../../../../Middlewares/Third_Party/LoRaWAN/Mac/region/RegionCN470.c ****     phyTxPower = RegionCommonComputeTxPower( txPowerLimited, txConfig->MaxEirp, txConfig->AntennaGa
 1204              		.loc 1 547 0
 1205 0048 6168     		ldr	r1, [r4, #4]
 1206 004a A268     		ldr	r2, [r4, #8]
 1207              	.LBB36:
 1208              	.LBB32:
 103:../../../../../../Middlewares/Third_Party/LoRaWAN/Mac/region/RegionCN470.c **** 
 1209              		.loc 1 103 0
 1210 004c 58B2     		sxtb	r0, r3
 1211              	.LVL96:
 1212              	.LBE32:
 1213              	.LBE36:
 1214              		.loc 1 547 0
 1215 004e FFF7FEFF 		bl	RegionCommonComputeTxPower
 1216              	.LVL97:
 548:../../../../../../Middlewares/Third_Party/LoRaWAN/Mac/region/RegionCN470.c **** 
 549:../../../../../../Middlewares/Third_Party/LoRaWAN/Mac/region/RegionCN470.c ****     // Setup the radio frequency
 550:../../../../../../Middlewares/Third_Party/LoRaWAN/Mac/region/RegionCN470.c ****     Radio.SetChannel( NvmCtx.Channels[txConfig->Channel].Frequency );
 1217              		.loc 1 550 0
 1218 0052 2278     		ldrb	r2, [r4]
 547:../../../../../../Middlewares/Third_Party/LoRaWAN/Mac/region/RegionCN470.c **** 
 1219              		.loc 1 547 0
 1220 0054 8246     		mov	r10, r0
 1221              	.LVL98:
 1222              		.loc 1 550 0
ARM GAS  C:\Users\EBANO_~1\AppData\Local\Temp\cchbxRq9.s 			page 34


 1223 0056 5300     		lsls	r3, r2, #1
 1224 0058 9B18     		adds	r3, r3, r2
 1225 005a 9B00     		lsls	r3, r3, #2
 1226 005c E858     		ldr	r0, [r5, r3]
 1227 005e 1A4D     		ldr	r5, .L90+8
 1228 0060 6B69     		ldr	r3, [r5, #20]
 1229 0062 0B93     		str	r3, [sp, #44]
 1230 0064 9847     		blx	r3
 1231              	.LVL99:
 551:../../../../../../Middlewares/Third_Party/LoRaWAN/Mac/region/RegionCN470.c **** 
 552:../../../../../../Middlewares/Third_Party/LoRaWAN/Mac/region/RegionCN470.c ****     Radio.SetTxConfig( MODEM_LORA, phyTxPower, 0, 0, phyDr, 1, 8, false, true, 0, 0, false, 3000 );
 1232              		.loc 1 552 0
 1233 0066 194B     		ldr	r3, .L90+12
 1234 0068 0122     		movs	r2, #1
 1235 006a 0893     		str	r3, [sp, #32]
 1236 006c 0023     		movs	r3, #0
 1237 006e 0793     		str	r3, [sp, #28]
 1238 0070 0693     		str	r3, [sp, #24]
 1239 0072 0593     		str	r3, [sp, #20]
 1240 0074 0393     		str	r3, [sp, #12]
 1241 0076 0833     		adds	r3, r3, #8
 1242 0078 0293     		str	r3, [sp, #8]
 1243 007a 4346     		mov	r3, r8
 1244 007c 0093     		str	r3, [sp]
 1245 007e 6B6A     		ldr	r3, [r5, #36]
 1246 0080 0492     		str	r2, [sp, #16]
 1247 0082 0B93     		str	r3, [sp, #44]
 1248 0084 0192     		str	r2, [sp, #4]
 1249 0086 5146     		mov	r1, r10
 1250 0088 0022     		movs	r2, #0
 1251 008a 0023     		movs	r3, #0
 1252 008c 0120     		movs	r0, #1
 1253 008e 0B9E     		ldr	r6, [sp, #44]
 1254 0090 B047     		blx	r6
 1255              	.LVL100:
 553:../../../../../../Middlewares/Third_Party/LoRaWAN/Mac/region/RegionCN470.c ****     TVL1( PRINTF( "TX on freq %d Hz at DR %d\n\r", NvmCtx.Channels[txConfig->Channel].Frequency, tx
 554:../../../../../../Middlewares/Third_Party/LoRaWAN/Mac/region/RegionCN470.c **** 
 555:../../../../../../Middlewares/Third_Party/LoRaWAN/Mac/region/RegionCN470.c ****     // Setup maximum payload lenght of the radio driver
 556:../../../../../../Middlewares/Third_Party/LoRaWAN/Mac/region/RegionCN470.c ****     Radio.SetMaxPayloadLength( MODEM_LORA, txConfig->PktLen );
 1256              		.loc 1 556 0
 1257 0092 EB6D     		ldr	r3, [r5, #92]
 1258 0094 217B     		ldrb	r1, [r4, #12]
 1259 0096 0120     		movs	r0, #1
 1260 0098 0B93     		str	r3, [sp, #44]
 1261 009a 9847     		blx	r3
 1262              	.LVL101:
 557:../../../../../../Middlewares/Third_Party/LoRaWAN/Mac/region/RegionCN470.c ****     // Get the time-on-air of the next tx frame
 558:../../../../../../Middlewares/Third_Party/LoRaWAN/Mac/region/RegionCN470.c ****     *txTimeOnAir = Radio.TimeOnAir( MODEM_LORA, txConfig->PktLen );
 1263              		.loc 1 558 0
 1264 009c EB6A     		ldr	r3, [r5, #44]
 1265 009e 217B     		ldrb	r1, [r4, #12]
 1266 00a0 0120     		movs	r0, #1
 1267 00a2 0B93     		str	r3, [sp, #44]
 1268 00a4 9847     		blx	r3
 1269              	.LVL102:
 559:../../../../../../Middlewares/Third_Party/LoRaWAN/Mac/region/RegionCN470.c ****     *txPower = txPowerLimited;
 1270              		.loc 1 559 0
ARM GAS  C:\Users\EBANO_~1\AppData\Local\Temp\cchbxRq9.s 			page 35


 1271 00a6 4B46     		mov	r3, r9
 558:../../../../../../Middlewares/Third_Party/LoRaWAN/Mac/region/RegionCN470.c ****     *txPower = txPowerLimited;
 1272              		.loc 1 558 0
 1273 00a8 3860     		str	r0, [r7]
 1274              		.loc 1 559 0
 1275 00aa 5A46     		mov	r2, fp
 560:../../../../../../Middlewares/Third_Party/LoRaWAN/Mac/region/RegionCN470.c **** 
 561:../../../../../../Middlewares/Third_Party/LoRaWAN/Mac/region/RegionCN470.c ****     return true;
 562:../../../../../../Middlewares/Third_Party/LoRaWAN/Mac/region/RegionCN470.c **** }
 1276              		.loc 1 562 0
 1277 00ac 0120     		movs	r0, #1
 559:../../../../../../Middlewares/Third_Party/LoRaWAN/Mac/region/RegionCN470.c **** 
 1278              		.loc 1 559 0
 1279 00ae 1370     		strb	r3, [r2]
 1280              		.loc 1 562 0
 1281 00b0 0DB0     		add	sp, sp, #52
 1282              		@ sp needed
 1283              	.LVL103:
 1284              	.LVL104:
 1285              	.LVL105:
 1286              	.LVL106:
 1287              	.LVL107:
 1288 00b2 3CBC     		pop	{r2, r3, r4, r5}
 1289 00b4 9046     		mov	r8, r2
 1290 00b6 9946     		mov	r9, r3
 1291 00b8 A246     		mov	r10, r4
 1292 00ba AB46     		mov	fp, r5
 1293 00bc F0BD     		pop	{r4, r5, r6, r7, pc}
 1294              	.L91:
 1295 00be C046     		.align	2
 1296              	.L90:
 1297 00c0 AC000000 		.word	.LANCHOR1
 1298 00c4 00000000 		.word	NvmCtx
 1299 00c8 00000000 		.word	Radio
 1300 00cc B80B0000 		.word	3000
 1301              		.cfi_endproc
 1302              	.LFE53:
 1303              		.size	RegionCN470TxConfig, .-RegionCN470TxConfig
 1304              		.section	.text.RegionCN470LinkAdrReq,"ax",%progbits
 1305              		.align	1
 1306              		.p2align 2,,3
 1307              		.global	RegionCN470LinkAdrReq
 1308              		.syntax unified
 1309              		.code	16
 1310              		.thumb_func
 1311              		.fpu softvfp
 1312              		.type	RegionCN470LinkAdrReq, %function
 1313              	RegionCN470LinkAdrReq:
 1314              	.LFB54:
 563:../../../../../../Middlewares/Third_Party/LoRaWAN/Mac/region/RegionCN470.c **** 
 564:../../../../../../Middlewares/Third_Party/LoRaWAN/Mac/region/RegionCN470.c **** uint8_t RegionCN470LinkAdrReq( LinkAdrReqParams_t* linkAdrReq, int8_t* drOut, int8_t* txPowOut, uin
 565:../../../../../../Middlewares/Third_Party/LoRaWAN/Mac/region/RegionCN470.c **** {
 1315              		.loc 1 565 0
 1316              		.cfi_startproc
 1317              		@ args = 4, pretend = 0, frame = 64
 1318              		@ frame_needed = 0, uses_anonymous_args = 0
 1319              	.LVL108:
ARM GAS  C:\Users\EBANO_~1\AppData\Local\Temp\cchbxRq9.s 			page 36


 1320 0000 F0B5     		push	{r4, r5, r6, r7, lr}
 1321              	.LCFI17:
 1322              		.cfi_def_cfa_offset 20
 1323              		.cfi_offset 4, -20
 1324              		.cfi_offset 5, -16
 1325              		.cfi_offset 6, -12
 1326              		.cfi_offset 7, -8
 1327              		.cfi_offset 14, -4
 1328 0002 DE46     		mov	lr, fp
 1329 0004 5746     		mov	r7, r10
 1330 0006 4E46     		mov	r6, r9
 1331 0008 4546     		mov	r5, r8
 1332 000a E0B5     		push	{r5, r6, r7, lr}
 1333              	.LCFI18:
 1334              		.cfi_def_cfa_offset 36
 1335              		.cfi_offset 8, -36
 1336              		.cfi_offset 9, -32
 1337              		.cfi_offset 10, -28
 1338              		.cfi_offset 11, -24
 1339 000c 91B0     		sub	sp, sp, #68
 1340              	.LCFI19:
 1341              		.cfi_def_cfa_offset 104
 1342              		.loc 1 565 0
 1343 000e 8146     		mov	r9, r0
 1344 0010 8B46     		mov	fp, r1
 1345 0012 9046     		mov	r8, r2
 566:../../../../../../Middlewares/Third_Party/LoRaWAN/Mac/region/RegionCN470.c ****     uint8_t status = 0x07;
 567:../../../../../../Middlewares/Third_Party/LoRaWAN/Mac/region/RegionCN470.c ****     RegionCommonLinkAdrParams_t linkAdrParams;
 568:../../../../../../Middlewares/Third_Party/LoRaWAN/Mac/region/RegionCN470.c ****     uint8_t nextIndex = 0;
 569:../../../../../../Middlewares/Third_Party/LoRaWAN/Mac/region/RegionCN470.c ****     uint8_t bytesProcessed = 0;
 570:../../../../../../Middlewares/Third_Party/LoRaWAN/Mac/region/RegionCN470.c ****     uint16_t channelsMask[6] = { 0, 0, 0, 0, 0, 0 };
 1346              		.loc 1 570 0
 1347 0014 0021     		movs	r1, #0
 1348              	.LVL109:
 1349 0016 0C22     		movs	r2, #12
 1350              	.LVL110:
 1351 0018 05A8     		add	r0, sp, #20
 1352              	.LVL111:
 565:../../../../../../Middlewares/Third_Party/LoRaWAN/Mac/region/RegionCN470.c ****     uint8_t status = 0x07;
 1353              		.loc 1 565 0
 1354 001a 0193     		str	r3, [sp, #4]
 1355              		.loc 1 570 0
 1356 001c FFF7FEFF 		bl	memset
 1357              	.LVL112:
 571:../../../../../../Middlewares/Third_Party/LoRaWAN/Mac/region/RegionCN470.c ****     GetPhyParams_t getPhy;
 572:../../../../../../Middlewares/Third_Party/LoRaWAN/Mac/region/RegionCN470.c ****     PhyParam_t phyParam;
 573:../../../../../../Middlewares/Third_Party/LoRaWAN/Mac/region/RegionCN470.c ****     RegionCommonLinkAdrReqVerifyParams_t linkAdrVerifyParams;
 574:../../../../../../Middlewares/Third_Party/LoRaWAN/Mac/region/RegionCN470.c **** 
 575:../../../../../../Middlewares/Third_Party/LoRaWAN/Mac/region/RegionCN470.c ****     // Initialize local copy of channels mask
 576:../../../../../../Middlewares/Third_Party/LoRaWAN/Mac/region/RegionCN470.c ****     RegionCommonChanMaskCopy( channelsMask, NvmCtx.ChannelsMask, 6 );
 1358              		.loc 1 576 0
 1359 0020 A34F     		ldr	r7, .L198
 1360 0022 0622     		movs	r2, #6
 1361 0024 3900     		movs	r1, r7
 1362 0026 05A8     		add	r0, sp, #20
 1363 0028 FFF7FEFF 		bl	RegionCommonChanMaskCopy
 1364              	.LVL113:
ARM GAS  C:\Users\EBANO_~1\AppData\Local\Temp\cchbxRq9.s 			page 37


 1365 002c A14B     		ldr	r3, .L198+4
 569:../../../../../../Middlewares/Third_Party/LoRaWAN/Mac/region/RegionCN470.c ****     uint16_t channelsMask[6] = { 0, 0, 0, 0, 0, 0 };
 1366              		.loc 1 569 0
 1367 002e 0024     		movs	r4, #0
 1368 0030 9C46     		mov	ip, r3
 1369              	.LBB42:
 577:../../../../../../Middlewares/Third_Party/LoRaWAN/Mac/region/RegionCN470.c **** 
 578:../../../../../../Middlewares/Third_Party/LoRaWAN/Mac/region/RegionCN470.c ****     while( bytesProcessed < linkAdrReq->PayloadSize )
 579:../../../../../../Middlewares/Third_Party/LoRaWAN/Mac/region/RegionCN470.c ****     {
 580:../../../../../../Middlewares/Third_Party/LoRaWAN/Mac/region/RegionCN470.c ****         // Get ADR request parameters
 581:../../../../../../Middlewares/Third_Party/LoRaWAN/Mac/region/RegionCN470.c ****         nextIndex = RegionCommonParseLinkAdrReq( &( linkAdrReq->Payload[bytesProcessed] ), &linkAdr
 582:../../../../../../Middlewares/Third_Party/LoRaWAN/Mac/region/RegionCN470.c **** 
 583:../../../../../../Middlewares/Third_Party/LoRaWAN/Mac/region/RegionCN470.c ****         if( nextIndex == 0 )
 584:../../../../../../Middlewares/Third_Party/LoRaWAN/Mac/region/RegionCN470.c ****             break; // break loop, since no more request has been found
 585:../../../../../../Middlewares/Third_Party/LoRaWAN/Mac/region/RegionCN470.c **** 
 586:../../../../../../Middlewares/Third_Party/LoRaWAN/Mac/region/RegionCN470.c ****         // Update bytes processed
 587:../../../../../../Middlewares/Third_Party/LoRaWAN/Mac/region/RegionCN470.c ****         bytesProcessed += nextIndex;
 588:../../../../../../Middlewares/Third_Party/LoRaWAN/Mac/region/RegionCN470.c **** 
 589:../../../../../../Middlewares/Third_Party/LoRaWAN/Mac/region/RegionCN470.c ****         // Revert status, as we only check the last ADR request for the channel mask KO
 590:../../../../../../Middlewares/Third_Party/LoRaWAN/Mac/region/RegionCN470.c ****         status = 0x07;
 591:../../../../../../Middlewares/Third_Party/LoRaWAN/Mac/region/RegionCN470.c **** 
 592:../../../../../../Middlewares/Third_Party/LoRaWAN/Mac/region/RegionCN470.c ****         if( linkAdrParams.ChMaskCtrl == 6 )
 593:../../../../../../Middlewares/Third_Party/LoRaWAN/Mac/region/RegionCN470.c ****         {
 594:../../../../../../Middlewares/Third_Party/LoRaWAN/Mac/region/RegionCN470.c ****             // Enable all 125 kHz channels
 595:../../../../../../Middlewares/Third_Party/LoRaWAN/Mac/region/RegionCN470.c ****             channelsMask[0] = 0xFFFF;
 596:../../../../../../Middlewares/Third_Party/LoRaWAN/Mac/region/RegionCN470.c ****             channelsMask[1] = 0xFFFF;
 597:../../../../../../Middlewares/Third_Party/LoRaWAN/Mac/region/RegionCN470.c ****             channelsMask[2] = 0xFFFF;
 598:../../../../../../Middlewares/Third_Party/LoRaWAN/Mac/region/RegionCN470.c ****             channelsMask[3] = 0xFFFF;
 599:../../../../../../Middlewares/Third_Party/LoRaWAN/Mac/region/RegionCN470.c ****             channelsMask[4] = 0xFFFF;
 600:../../../../../../Middlewares/Third_Party/LoRaWAN/Mac/region/RegionCN470.c ****             channelsMask[5] = 0xFFFF;
 601:../../../../../../Middlewares/Third_Party/LoRaWAN/Mac/region/RegionCN470.c ****         }
 602:../../../../../../Middlewares/Third_Party/LoRaWAN/Mac/region/RegionCN470.c ****         else if( linkAdrParams.ChMaskCtrl == 7 )
 603:../../../../../../Middlewares/Third_Party/LoRaWAN/Mac/region/RegionCN470.c ****         {
 604:../../../../../../Middlewares/Third_Party/LoRaWAN/Mac/region/RegionCN470.c ****             status &= 0xFE; // Channel mask KO
 605:../../../../../../Middlewares/Third_Party/LoRaWAN/Mac/region/RegionCN470.c ****         }
 606:../../../../../../Middlewares/Third_Party/LoRaWAN/Mac/region/RegionCN470.c ****         else
 607:../../../../../../Middlewares/Third_Party/LoRaWAN/Mac/region/RegionCN470.c ****         {
 608:../../../../../../Middlewares/Third_Party/LoRaWAN/Mac/region/RegionCN470.c ****             for( uint8_t i = 0; i < 16; i++ )
 609:../../../../../../Middlewares/Third_Party/LoRaWAN/Mac/region/RegionCN470.c ****             {
 610:../../../../../../Middlewares/Third_Party/LoRaWAN/Mac/region/RegionCN470.c ****                 if( ( ( linkAdrParams.ChMask & ( 1 << i ) ) != 0 ) &&
 1370              		.loc 1 610 0
 1371 0032 0123     		movs	r3, #1
 1372              	.LBE42:
 566:../../../../../../Middlewares/Third_Party/LoRaWAN/Mac/region/RegionCN470.c ****     RegionCommonLinkAdrParams_t linkAdrParams;
 1373              		.loc 1 566 0
 1374 0034 0725     		movs	r5, #7
 1375              	.LBB43:
 1376              		.loc 1 610 0
 1377 0036 9A46     		mov	r10, r3
 1378 0038 03AE     		add	r6, sp, #12
 1379 003a 6744     		add	r7, r7, ip
 1380              	.LVL114:
 1381              	.L93:
 1382              	.LBE43:
 578:../../../../../../Middlewares/Third_Party/LoRaWAN/Mac/region/RegionCN470.c ****     {
 1383              		.loc 1 578 0
 1384 003c 4B46     		mov	r3, r9
ARM GAS  C:\Users\EBANO_~1\AppData\Local\Temp\cchbxRq9.s 			page 38


 1385 003e 1B7A     		ldrb	r3, [r3, #8]
 1386 0040 A342     		cmp	r3, r4
 1387 0042 00D8     		bhi	.LCB1228
 1388 0044 CBE0     		b	.L116	@long jump
 1389              	.LCB1228:
 1390              	.L115:
 581:../../../../../../Middlewares/Third_Party/LoRaWAN/Mac/region/RegionCN470.c **** 
 1391              		.loc 1 581 0
 1392 0046 4B46     		mov	r3, r9
 1393 0048 5B68     		ldr	r3, [r3, #4]
 1394 004a 3100     		movs	r1, r6
 1395 004c 1819     		adds	r0, r3, r4
 1396 004e FFF7FEFF 		bl	RegionCommonParseLinkAdrReq
 1397              	.LVL115:
 583:../../../../../../Middlewares/Third_Party/LoRaWAN/Mac/region/RegionCN470.c ****             break; // break loop, since no more request has been found
 1398              		.loc 1 583 0
 1399 0052 0028     		cmp	r0, #0
 1400 0054 00D1     		bne	.LCB1241
 1401 0056 C2E0     		b	.L116	@long jump
 1402              	.LCB1241:
 592:../../../../../../Middlewares/Third_Party/LoRaWAN/Mac/region/RegionCN470.c ****         {
 1403              		.loc 1 592 0
 1404 0058 F378     		ldrb	r3, [r6, #3]
 587:../../../../../../Middlewares/Third_Party/LoRaWAN/Mac/region/RegionCN470.c **** 
 1405              		.loc 1 587 0
 1406 005a 2418     		adds	r4, r4, r0
 1407              	.LVL116:
 1408 005c E4B2     		uxtb	r4, r4
 1409              	.LVL117:
 592:../../../../../../Middlewares/Third_Party/LoRaWAN/Mac/region/RegionCN470.c ****         {
 1410              		.loc 1 592 0
 1411 005e 062B     		cmp	r3, #6
 1412 0060 00D1     		bne	.LCB1249
 1413 0062 FAE0     		b	.L182	@long jump
 1414              	.LCB1249:
 604:../../../../../../Middlewares/Third_Party/LoRaWAN/Mac/region/RegionCN470.c ****         }
 1415              		.loc 1 604 0
 1416 0064 0625     		movs	r5, #6
 602:../../../../../../Middlewares/Third_Party/LoRaWAN/Mac/region/RegionCN470.c ****         {
 1417              		.loc 1 602 0
 1418 0066 072B     		cmp	r3, #7
 1419 0068 E8D0     		beq	.L93
 1420              	.LVL118:
 1421              	.LBB44:
 1422              		.loc 1 610 0
 1423 006a 5146     		mov	r1, r10
 1424 006c B288     		ldrh	r2, [r6, #4]
 1425              	.LBE44:
 590:../../../../../../Middlewares/Third_Party/LoRaWAN/Mac/region/RegionCN470.c **** 
 1426              		.loc 1 590 0
 1427 006e 0135     		adds	r5, r5, #1
 1428              	.LBB45:
 1429              		.loc 1 610 0
 1430 0070 1142     		tst	r1, r2
 1431 0072 07D0     		beq	.L99
 611:../../../../../../Middlewares/Third_Party/LoRaWAN/Mac/region/RegionCN470.c ****                     ( NvmCtx.Channels[linkAdrParams.ChMaskCtrl * 16 + i].Frequency == 0 ) )
 1432              		.loc 1 611 0
ARM GAS  C:\Users\EBANO_~1\AppData\Local\Temp\cchbxRq9.s 			page 39


 1433 0074 1801     		lsls	r0, r3, #4
 1434              	.LVL119:
 1435 0076 5901     		lsls	r1, r3, #5
 1436 0078 0918     		adds	r1, r1, r0
 1437 007a 8900     		lsls	r1, r1, #2
 610:../../../../../../Middlewares/Third_Party/LoRaWAN/Mac/region/RegionCN470.c ****                     ( NvmCtx.Channels[linkAdrParams.ChMaskCtrl * 16 + i].Frequency == 0 ) )
 1438              		.loc 1 610 0
 1439 007c 7D58     		ldr	r5, [r7, r1]
 612:../../../../../../Middlewares/Third_Party/LoRaWAN/Mac/region/RegionCN470.c ****                 {// Trying to enable an undefined channel
 613:../../../../../../Middlewares/Third_Party/LoRaWAN/Mac/region/RegionCN470.c ****                     status &= 0xFE; // Channel mask KO
 1440              		.loc 1 613 0
 1441 007e 691E     		subs	r1, r5, #1
 1442 0080 8D41     		sbcs	r5, r5, r1
 1443 0082 0635     		adds	r5, r5, #6
 1444              	.L99:
 1445              	.LVL120:
 610:../../../../../../Middlewares/Third_Party/LoRaWAN/Mac/region/RegionCN470.c ****                     ( NvmCtx.Channels[linkAdrParams.ChMaskCtrl * 16 + i].Frequency == 0 ) )
 1446              		.loc 1 610 0
 1447 0084 9107     		lsls	r1, r2, #30
 1448 0086 08D5     		bpl	.L100
 611:../../../../../../Middlewares/Third_Party/LoRaWAN/Mac/region/RegionCN470.c ****                 {// Trying to enable an undefined channel
 1449              		.loc 1 611 0
 1450 0088 1801     		lsls	r0, r3, #4
 1451 008a 0130     		adds	r0, r0, #1
 1452 008c 4100     		lsls	r1, r0, #1
 1453 008e 0918     		adds	r1, r1, r0
 1454 0090 8900     		lsls	r1, r1, #2
 610:../../../../../../Middlewares/Third_Party/LoRaWAN/Mac/region/RegionCN470.c ****                     ( NvmCtx.Channels[linkAdrParams.ChMaskCtrl * 16 + i].Frequency == 0 ) )
 1455              		.loc 1 610 0
 1456 0092 7958     		ldr	r1, [r7, r1]
 1457 0094 0029     		cmp	r1, #0
 1458 0096 00D1     		bne	.LCB1289
 1459 0098 FFE0     		b	.L183	@long jump
 1460              	.LCB1289:
 1461              	.LVL121:
 1462              	.L100:
 1463 009a 5107     		lsls	r1, r2, #29
 1464 009c 08D5     		bpl	.L101
 611:../../../../../../Middlewares/Third_Party/LoRaWAN/Mac/region/RegionCN470.c ****                 {// Trying to enable an undefined channel
 1465              		.loc 1 611 0
 1466 009e 1801     		lsls	r0, r3, #4
 1467 00a0 0230     		adds	r0, r0, #2
 1468 00a2 4100     		lsls	r1, r0, #1
 1469 00a4 0918     		adds	r1, r1, r0
 1470 00a6 8900     		lsls	r1, r1, #2
 610:../../../../../../Middlewares/Third_Party/LoRaWAN/Mac/region/RegionCN470.c ****                     ( NvmCtx.Channels[linkAdrParams.ChMaskCtrl * 16 + i].Frequency == 0 ) )
 1471              		.loc 1 610 0
 1472 00a8 7958     		ldr	r1, [r7, r1]
 1473 00aa 0029     		cmp	r1, #0
 1474 00ac 00D1     		bne	.LCB1306
 1475 00ae F2E0     		b	.L184	@long jump
 1476              	.LCB1306:
 1477              	.LVL122:
 1478              	.L101:
 1479 00b0 1107     		lsls	r1, r2, #28
 1480 00b2 08D5     		bpl	.L102
 611:../../../../../../Middlewares/Third_Party/LoRaWAN/Mac/region/RegionCN470.c ****                 {// Trying to enable an undefined channel
ARM GAS  C:\Users\EBANO_~1\AppData\Local\Temp\cchbxRq9.s 			page 40


 1481              		.loc 1 611 0
 1482 00b4 1801     		lsls	r0, r3, #4
 1483 00b6 0330     		adds	r0, r0, #3
 1484 00b8 4100     		lsls	r1, r0, #1
 1485 00ba 0918     		adds	r1, r1, r0
 1486 00bc 8900     		lsls	r1, r1, #2
 610:../../../../../../Middlewares/Third_Party/LoRaWAN/Mac/region/RegionCN470.c ****                     ( NvmCtx.Channels[linkAdrParams.ChMaskCtrl * 16 + i].Frequency == 0 ) )
 1487              		.loc 1 610 0
 1488 00be 7958     		ldr	r1, [r7, r1]
 1489 00c0 0029     		cmp	r1, #0
 1490 00c2 00D1     		bne	.LCB1323
 1491 00c4 E5E0     		b	.L185	@long jump
 1492              	.LCB1323:
 1493              	.LVL123:
 1494              	.L102:
 1495 00c6 D106     		lsls	r1, r2, #27
 1496 00c8 08D5     		bpl	.L103
 611:../../../../../../Middlewares/Third_Party/LoRaWAN/Mac/region/RegionCN470.c ****                 {// Trying to enable an undefined channel
 1497              		.loc 1 611 0
 1498 00ca 1801     		lsls	r0, r3, #4
 1499 00cc 0430     		adds	r0, r0, #4
 1500 00ce 4100     		lsls	r1, r0, #1
 1501 00d0 0918     		adds	r1, r1, r0
 1502 00d2 8900     		lsls	r1, r1, #2
 610:../../../../../../Middlewares/Third_Party/LoRaWAN/Mac/region/RegionCN470.c ****                     ( NvmCtx.Channels[linkAdrParams.ChMaskCtrl * 16 + i].Frequency == 0 ) )
 1503              		.loc 1 610 0
 1504 00d4 7958     		ldr	r1, [r7, r1]
 1505 00d6 0029     		cmp	r1, #0
 1506 00d8 00D1     		bne	.LCB1340
 1507 00da D8E0     		b	.L186	@long jump
 1508              	.LCB1340:
 1509              	.LVL124:
 1510              	.L103:
 1511 00dc 9106     		lsls	r1, r2, #26
 1512 00de 08D5     		bpl	.L104
 611:../../../../../../Middlewares/Third_Party/LoRaWAN/Mac/region/RegionCN470.c ****                 {// Trying to enable an undefined channel
 1513              		.loc 1 611 0
 1514 00e0 1801     		lsls	r0, r3, #4
 1515 00e2 0530     		adds	r0, r0, #5
 1516 00e4 4100     		lsls	r1, r0, #1
 1517 00e6 0918     		adds	r1, r1, r0
 1518 00e8 8900     		lsls	r1, r1, #2
 610:../../../../../../Middlewares/Third_Party/LoRaWAN/Mac/region/RegionCN470.c ****                     ( NvmCtx.Channels[linkAdrParams.ChMaskCtrl * 16 + i].Frequency == 0 ) )
 1519              		.loc 1 610 0
 1520 00ea 7958     		ldr	r1, [r7, r1]
 1521 00ec 0029     		cmp	r1, #0
 1522 00ee 00D1     		bne	.LCB1357
 1523 00f0 CBE0     		b	.L187	@long jump
 1524              	.LCB1357:
 1525              	.LVL125:
 1526              	.L104:
 1527 00f2 5106     		lsls	r1, r2, #25
 1528 00f4 08D5     		bpl	.L105
 611:../../../../../../Middlewares/Third_Party/LoRaWAN/Mac/region/RegionCN470.c ****                 {// Trying to enable an undefined channel
 1529              		.loc 1 611 0
 1530 00f6 1801     		lsls	r0, r3, #4
 1531 00f8 0630     		adds	r0, r0, #6
ARM GAS  C:\Users\EBANO_~1\AppData\Local\Temp\cchbxRq9.s 			page 41


 1532 00fa 4100     		lsls	r1, r0, #1
 1533 00fc 0918     		adds	r1, r1, r0
 1534 00fe 8900     		lsls	r1, r1, #2
 610:../../../../../../Middlewares/Third_Party/LoRaWAN/Mac/region/RegionCN470.c ****                     ( NvmCtx.Channels[linkAdrParams.ChMaskCtrl * 16 + i].Frequency == 0 ) )
 1535              		.loc 1 610 0
 1536 0100 7958     		ldr	r1, [r7, r1]
 1537 0102 0029     		cmp	r1, #0
 1538 0104 00D1     		bne	.LCB1374
 1539 0106 BEE0     		b	.L188	@long jump
 1540              	.LCB1374:
 1541              	.LVL126:
 1542              	.L105:
 1543 0108 1106     		lsls	r1, r2, #24
 1544 010a 08D5     		bpl	.L106
 611:../../../../../../Middlewares/Third_Party/LoRaWAN/Mac/region/RegionCN470.c ****                 {// Trying to enable an undefined channel
 1545              		.loc 1 611 0
 1546 010c 1801     		lsls	r0, r3, #4
 1547 010e 0730     		adds	r0, r0, #7
 1548 0110 4100     		lsls	r1, r0, #1
 1549 0112 0918     		adds	r1, r1, r0
 1550 0114 8900     		lsls	r1, r1, #2
 610:../../../../../../Middlewares/Third_Party/LoRaWAN/Mac/region/RegionCN470.c ****                     ( NvmCtx.Channels[linkAdrParams.ChMaskCtrl * 16 + i].Frequency == 0 ) )
 1551              		.loc 1 610 0
 1552 0116 7958     		ldr	r1, [r7, r1]
 1553 0118 0029     		cmp	r1, #0
 1554 011a 00D1     		bne	.LCB1391
 1555 011c B1E0     		b	.L189	@long jump
 1556              	.LCB1391:
 1557              	.LVL127:
 1558              	.L106:
 1559 011e D105     		lsls	r1, r2, #23
 1560 0120 08D5     		bpl	.L107
 611:../../../../../../Middlewares/Third_Party/LoRaWAN/Mac/region/RegionCN470.c ****                 {// Trying to enable an undefined channel
 1561              		.loc 1 611 0
 1562 0122 1801     		lsls	r0, r3, #4
 1563 0124 0830     		adds	r0, r0, #8
 1564 0126 4100     		lsls	r1, r0, #1
 1565 0128 0918     		adds	r1, r1, r0
 1566 012a 8900     		lsls	r1, r1, #2
 610:../../../../../../Middlewares/Third_Party/LoRaWAN/Mac/region/RegionCN470.c ****                     ( NvmCtx.Channels[linkAdrParams.ChMaskCtrl * 16 + i].Frequency == 0 ) )
 1567              		.loc 1 610 0
 1568 012c 7958     		ldr	r1, [r7, r1]
 1569 012e 0029     		cmp	r1, #0
 1570 0130 00D1     		bne	.LCB1408
 1571 0132 A4E0     		b	.L190	@long jump
 1572              	.LCB1408:
 1573              	.LVL128:
 1574              	.L107:
 1575 0134 9105     		lsls	r1, r2, #22
 1576 0136 08D5     		bpl	.L108
 611:../../../../../../Middlewares/Third_Party/LoRaWAN/Mac/region/RegionCN470.c ****                 {// Trying to enable an undefined channel
 1577              		.loc 1 611 0
 1578 0138 1801     		lsls	r0, r3, #4
 1579 013a 0930     		adds	r0, r0, #9
 1580 013c 4100     		lsls	r1, r0, #1
 1581 013e 0918     		adds	r1, r1, r0
 1582 0140 8900     		lsls	r1, r1, #2
ARM GAS  C:\Users\EBANO_~1\AppData\Local\Temp\cchbxRq9.s 			page 42


 610:../../../../../../Middlewares/Third_Party/LoRaWAN/Mac/region/RegionCN470.c ****                     ( NvmCtx.Channels[linkAdrParams.ChMaskCtrl * 16 + i].Frequency == 0 ) )
 1583              		.loc 1 610 0
 1584 0142 7958     		ldr	r1, [r7, r1]
 1585 0144 0029     		cmp	r1, #0
 1586 0146 00D1     		bne	.LCB1425
 1587 0148 97E0     		b	.L191	@long jump
 1588              	.LCB1425:
 1589              	.LVL129:
 1590              	.L108:
 1591 014a 5105     		lsls	r1, r2, #21
 1592 014c 08D5     		bpl	.L109
 611:../../../../../../Middlewares/Third_Party/LoRaWAN/Mac/region/RegionCN470.c ****                 {// Trying to enable an undefined channel
 1593              		.loc 1 611 0
 1594 014e 1801     		lsls	r0, r3, #4
 1595 0150 0A30     		adds	r0, r0, #10
 1596 0152 4100     		lsls	r1, r0, #1
 1597 0154 0918     		adds	r1, r1, r0
 1598 0156 8900     		lsls	r1, r1, #2
 610:../../../../../../Middlewares/Third_Party/LoRaWAN/Mac/region/RegionCN470.c ****                     ( NvmCtx.Channels[linkAdrParams.ChMaskCtrl * 16 + i].Frequency == 0 ) )
 1599              		.loc 1 610 0
 1600 0158 7958     		ldr	r1, [r7, r1]
 1601 015a 0029     		cmp	r1, #0
 1602 015c 00D1     		bne	.LCB1442
 1603 015e 8AE0     		b	.L192	@long jump
 1604              	.LCB1442:
 1605              	.LVL130:
 1606              	.L109:
 1607 0160 1105     		lsls	r1, r2, #20
 1608 0162 08D5     		bpl	.L110
 611:../../../../../../Middlewares/Third_Party/LoRaWAN/Mac/region/RegionCN470.c ****                 {// Trying to enable an undefined channel
 1609              		.loc 1 611 0
 1610 0164 1801     		lsls	r0, r3, #4
 1611 0166 0B30     		adds	r0, r0, #11
 1612 0168 4100     		lsls	r1, r0, #1
 1613 016a 0918     		adds	r1, r1, r0
 1614 016c 8900     		lsls	r1, r1, #2
 610:../../../../../../Middlewares/Third_Party/LoRaWAN/Mac/region/RegionCN470.c ****                     ( NvmCtx.Channels[linkAdrParams.ChMaskCtrl * 16 + i].Frequency == 0 ) )
 1615              		.loc 1 610 0
 1616 016e 7958     		ldr	r1, [r7, r1]
 1617 0170 0029     		cmp	r1, #0
 1618 0172 00D1     		bne	.LCB1459
 1619 0174 7DE0     		b	.L193	@long jump
 1620              	.LCB1459:
 1621              	.LVL131:
 1622              	.L110:
 1623 0176 D104     		lsls	r1, r2, #19
 1624 0178 08D5     		bpl	.L111
 611:../../../../../../Middlewares/Third_Party/LoRaWAN/Mac/region/RegionCN470.c ****                 {// Trying to enable an undefined channel
 1625              		.loc 1 611 0
 1626 017a 1801     		lsls	r0, r3, #4
 1627 017c 0C30     		adds	r0, r0, #12
 1628 017e 4100     		lsls	r1, r0, #1
 1629 0180 0918     		adds	r1, r1, r0
 1630 0182 8900     		lsls	r1, r1, #2
 610:../../../../../../Middlewares/Third_Party/LoRaWAN/Mac/region/RegionCN470.c ****                     ( NvmCtx.Channels[linkAdrParams.ChMaskCtrl * 16 + i].Frequency == 0 ) )
 1631              		.loc 1 610 0
 1632 0184 7958     		ldr	r1, [r7, r1]
ARM GAS  C:\Users\EBANO_~1\AppData\Local\Temp\cchbxRq9.s 			page 43


 1633 0186 0029     		cmp	r1, #0
 1634 0188 00D1     		bne	.LCB1476
 1635 018a 70E0     		b	.L194	@long jump
 1636              	.LCB1476:
 1637              	.LVL132:
 1638              	.L111:
 1639 018c 9104     		lsls	r1, r2, #18
 1640 018e 07D5     		bpl	.L112
 611:../../../../../../Middlewares/Third_Party/LoRaWAN/Mac/region/RegionCN470.c ****                 {// Trying to enable an undefined channel
 1641              		.loc 1 611 0
 1642 0190 1801     		lsls	r0, r3, #4
 1643 0192 0D30     		adds	r0, r0, #13
 1644 0194 4100     		lsls	r1, r0, #1
 1645 0196 0918     		adds	r1, r1, r0
 1646 0198 8900     		lsls	r1, r1, #2
 610:../../../../../../Middlewares/Third_Party/LoRaWAN/Mac/region/RegionCN470.c ****                     ( NvmCtx.Channels[linkAdrParams.ChMaskCtrl * 16 + i].Frequency == 0 ) )
 1647              		.loc 1 610 0
 1648 019a 7958     		ldr	r1, [r7, r1]
 1649 019c 0029     		cmp	r1, #0
 1650 019e 64D0     		beq	.L195
 1651              	.LVL133:
 1652              	.L112:
 1653 01a0 5104     		lsls	r1, r2, #17
 1654 01a2 07D5     		bpl	.L113
 611:../../../../../../Middlewares/Third_Party/LoRaWAN/Mac/region/RegionCN470.c ****                 {// Trying to enable an undefined channel
 1655              		.loc 1 611 0
 1656 01a4 1801     		lsls	r0, r3, #4
 1657 01a6 0E30     		adds	r0, r0, #14
 1658 01a8 4100     		lsls	r1, r0, #1
 1659 01aa 0918     		adds	r1, r1, r0
 1660 01ac 8900     		lsls	r1, r1, #2
 610:../../../../../../Middlewares/Third_Party/LoRaWAN/Mac/region/RegionCN470.c ****                     ( NvmCtx.Channels[linkAdrParams.ChMaskCtrl * 16 + i].Frequency == 0 ) )
 1661              		.loc 1 610 0
 1662 01ae 7958     		ldr	r1, [r7, r1]
 1663 01b0 0029     		cmp	r1, #0
 1664 01b2 58D0     		beq	.L196
 1665              	.LVL134:
 1666              	.L113:
 1667 01b4 D10B     		lsrs	r1, r2, #15
 1668 01b6 08D0     		beq	.L114
 611:../../../../../../Middlewares/Third_Party/LoRaWAN/Mac/region/RegionCN470.c ****                 {// Trying to enable an undefined channel
 1669              		.loc 1 611 0
 1670 01b8 1801     		lsls	r0, r3, #4
 1671 01ba 0F30     		adds	r0, r0, #15
 1672 01bc 4100     		lsls	r1, r0, #1
 1673 01be 0918     		adds	r1, r1, r0
 1674 01c0 8900     		lsls	r1, r1, #2
 610:../../../../../../Middlewares/Third_Party/LoRaWAN/Mac/region/RegionCN470.c ****                     ( NvmCtx.Channels[linkAdrParams.ChMaskCtrl * 16 + i].Frequency == 0 ) )
 1675              		.loc 1 610 0
 1676 01c2 7958     		ldr	r1, [r7, r1]
 1677 01c4 0029     		cmp	r1, #0
 1678 01c6 00D1     		bne	.L114
 1679              		.loc 1 613 0
 1680 01c8 0625     		movs	r5, #6
 1681              	.LVL135:
 1682              	.L114:
 1683              	.LBE45:
ARM GAS  C:\Users\EBANO_~1\AppData\Local\Temp\cchbxRq9.s 			page 44


 614:../../../../../../Middlewares/Third_Party/LoRaWAN/Mac/region/RegionCN470.c ****                 }
 615:../../../../../../Middlewares/Third_Party/LoRaWAN/Mac/region/RegionCN470.c ****             }
 616:../../../../../../Middlewares/Third_Party/LoRaWAN/Mac/region/RegionCN470.c ****             channelsMask[linkAdrParams.ChMaskCtrl] = linkAdrParams.ChMask;
 1684              		.loc 1 616 0
 1685 01ca 0C20     		movs	r0, #12
 1686 01cc 02A9     		add	r1, sp, #8
 1687 01ce 5B00     		lsls	r3, r3, #1
 1688 01d0 0918     		adds	r1, r1, r0
 1689 01d2 CA52     		strh	r2, [r1, r3]
 578:../../../../../../Middlewares/Third_Party/LoRaWAN/Mac/region/RegionCN470.c ****     {
 1690              		.loc 1 578 0
 1691 01d4 4B46     		mov	r3, r9
 1692 01d6 1B7A     		ldrb	r3, [r3, #8]
 1693 01d8 A342     		cmp	r3, r4
 1694 01da 00D9     		bls	.LCB1544
 1695 01dc 33E7     		b	.L115	@long jump
 1696              	.LCB1544:
 1697              	.LVL136:
 1698              	.L116:
 617:../../../../../../Middlewares/Third_Party/LoRaWAN/Mac/region/RegionCN470.c ****         }
 618:../../../../../../Middlewares/Third_Party/LoRaWAN/Mac/region/RegionCN470.c ****     }
 619:../../../../../../Middlewares/Third_Party/LoRaWAN/Mac/region/RegionCN470.c **** 
 620:../../../../../../Middlewares/Third_Party/LoRaWAN/Mac/region/RegionCN470.c ****     // Get the minimum possible datarate
 621:../../../../../../Middlewares/Third_Party/LoRaWAN/Mac/region/RegionCN470.c ****     getPhy.Attribute = PHY_MIN_TX_DR;
 622:../../../../../../Middlewares/Third_Party/LoRaWAN/Mac/region/RegionCN470.c ****     getPhy.UplinkDwellTime = linkAdrReq->UplinkDwellTime;
 623:../../../../../../Middlewares/Third_Party/LoRaWAN/Mac/region/RegionCN470.c ****     phyParam = RegionCN470GetPhyParam( &getPhy );
 624:../../../../../../Middlewares/Third_Party/LoRaWAN/Mac/region/RegionCN470.c **** 
 625:../../../../../../Middlewares/Third_Party/LoRaWAN/Mac/region/RegionCN470.c ****     linkAdrVerifyParams.Status = status;
 626:../../../../../../Middlewares/Third_Party/LoRaWAN/Mac/region/RegionCN470.c ****     linkAdrVerifyParams.AdrEnabled = linkAdrReq->AdrEnabled;
 1699              		.loc 1 626 0
 1700 01de 4B46     		mov	r3, r9
 625:../../../../../../Middlewares/Third_Party/LoRaWAN/Mac/region/RegionCN470.c ****     linkAdrVerifyParams.AdrEnabled = linkAdrReq->AdrEnabled;
 1701              		.loc 1 625 0
 1702 01e0 08A8     		add	r0, sp, #32
 1703 01e2 0571     		strb	r5, [r0, #4]
 1704              		.loc 1 626 0
 1705 01e4 9B7A     		ldrb	r3, [r3, #10]
 627:../../../../../../Middlewares/Third_Party/LoRaWAN/Mac/region/RegionCN470.c ****     linkAdrVerifyParams.Datarate = linkAdrParams.Datarate;
 628:../../../../../../Middlewares/Third_Party/LoRaWAN/Mac/region/RegionCN470.c ****     linkAdrVerifyParams.TxPower = linkAdrParams.TxPower;
 629:../../../../../../Middlewares/Third_Party/LoRaWAN/Mac/region/RegionCN470.c ****     linkAdrVerifyParams.NbRep = linkAdrParams.NbRep;
 630:../../../../../../Middlewares/Third_Party/LoRaWAN/Mac/region/RegionCN470.c ****     linkAdrVerifyParams.CurrentDatarate = linkAdrReq->CurrentDatarate;
 631:../../../../../../Middlewares/Third_Party/LoRaWAN/Mac/region/RegionCN470.c ****     linkAdrVerifyParams.CurrentTxPower = linkAdrReq->CurrentTxPower;
 632:../../../../../../Middlewares/Third_Party/LoRaWAN/Mac/region/RegionCN470.c ****     linkAdrVerifyParams.CurrentNbRep = linkAdrReq->CurrentNbRep;
 633:../../../../../../Middlewares/Third_Party/LoRaWAN/Mac/region/RegionCN470.c ****     linkAdrVerifyParams.NbChannels = CN470_MAX_NB_CHANNELS;
 634:../../../../../../Middlewares/Third_Party/LoRaWAN/Mac/region/RegionCN470.c ****     linkAdrVerifyParams.ChannelsMask = channelsMask;
 635:../../../../../../Middlewares/Third_Party/LoRaWAN/Mac/region/RegionCN470.c ****     linkAdrVerifyParams.MinDatarate = ( int8_t )phyParam.Value;
 636:../../../../../../Middlewares/Third_Party/LoRaWAN/Mac/region/RegionCN470.c ****     linkAdrVerifyParams.MaxDatarate = CN470_TX_MAX_DATARATE;
 637:../../../../../../Middlewares/Third_Party/LoRaWAN/Mac/region/RegionCN470.c ****     linkAdrVerifyParams.Channels = NvmCtx.Channels;
 638:../../../../../../Middlewares/Third_Party/LoRaWAN/Mac/region/RegionCN470.c ****     linkAdrVerifyParams.MinTxPower = CN470_MIN_TX_POWER;
 639:../../../../../../Middlewares/Third_Party/LoRaWAN/Mac/region/RegionCN470.c ****     linkAdrVerifyParams.MaxTxPower = CN470_MAX_TX_POWER;
 640:../../../../../../Middlewares/Third_Party/LoRaWAN/Mac/region/RegionCN470.c ****     linkAdrVerifyParams.Version = linkAdrReq->Version;
 641:../../../../../../Middlewares/Third_Party/LoRaWAN/Mac/region/RegionCN470.c **** 
 642:../../../../../../Middlewares/Third_Party/LoRaWAN/Mac/region/RegionCN470.c ****     // Verify the parameters and update, if necessary
 643:../../../../../../Middlewares/Third_Party/LoRaWAN/Mac/region/RegionCN470.c ****     status = RegionCommonLinkAdrReqVerifyParams( &linkAdrVerifyParams, &linkAdrParams.Datarate, &li
 1706              		.loc 1 643 0
 1707 01e6 02AA     		add	r2, sp, #8
 626:../../../../../../Middlewares/Third_Party/LoRaWAN/Mac/region/RegionCN470.c ****     linkAdrVerifyParams.Datarate = linkAdrParams.Datarate;
ARM GAS  C:\Users\EBANO_~1\AppData\Local\Temp\cchbxRq9.s 			page 45


 1708              		.loc 1 626 0
 1709 01e8 4371     		strb	r3, [r0, #5]
 627:../../../../../../Middlewares/Third_Party/LoRaWAN/Mac/region/RegionCN470.c ****     linkAdrVerifyParams.Datarate = linkAdrParams.Datarate;
 1710              		.loc 1 627 0
 1711 01ea 7378     		ldrb	r3, [r6, #1]
 1712              		.loc 1 643 0
 1713 01ec 02A9     		add	r1, sp, #8
 627:../../../../../../Middlewares/Third_Party/LoRaWAN/Mac/region/RegionCN470.c ****     linkAdrVerifyParams.Datarate = linkAdrParams.Datarate;
 1714              		.loc 1 627 0
 1715 01ee 8371     		strb	r3, [r0, #6]
 628:../../../../../../Middlewares/Third_Party/LoRaWAN/Mac/region/RegionCN470.c ****     linkAdrVerifyParams.NbRep = linkAdrParams.NbRep;
 1716              		.loc 1 628 0
 1717 01f0 B378     		ldrb	r3, [r6, #2]
 1718              		.loc 1 643 0
 1719 01f2 0632     		adds	r2, r2, #6
 628:../../../../../../Middlewares/Third_Party/LoRaWAN/Mac/region/RegionCN470.c ****     linkAdrVerifyParams.NbRep = linkAdrParams.NbRep;
 1720              		.loc 1 628 0
 1721 01f4 C371     		strb	r3, [r0, #7]
 629:../../../../../../Middlewares/Third_Party/LoRaWAN/Mac/region/RegionCN470.c ****     linkAdrVerifyParams.CurrentDatarate = linkAdrReq->CurrentDatarate;
 1722              		.loc 1 629 0
 1723 01f6 3378     		ldrb	r3, [r6]
 1724              		.loc 1 643 0
 1725 01f8 0531     		adds	r1, r1, #5
 629:../../../../../../Middlewares/Third_Party/LoRaWAN/Mac/region/RegionCN470.c ****     linkAdrVerifyParams.CurrentDatarate = linkAdrReq->CurrentDatarate;
 1726              		.loc 1 629 0
 1727 01fa 0372     		strb	r3, [r0, #8]
 630:../../../../../../Middlewares/Third_Party/LoRaWAN/Mac/region/RegionCN470.c ****     linkAdrVerifyParams.CurrentTxPower = linkAdrReq->CurrentTxPower;
 1728              		.loc 1 630 0
 1729 01fc 4B46     		mov	r3, r9
 1730 01fe DB7A     		ldrb	r3, [r3, #11]
 1731 0200 4372     		strb	r3, [r0, #9]
 631:../../../../../../Middlewares/Third_Party/LoRaWAN/Mac/region/RegionCN470.c ****     linkAdrVerifyParams.CurrentNbRep = linkAdrReq->CurrentNbRep;
 1732              		.loc 1 631 0
 1733 0202 4B46     		mov	r3, r9
 1734 0204 1B7B     		ldrb	r3, [r3, #12]
 1735 0206 8372     		strb	r3, [r0, #10]
 632:../../../../../../Middlewares/Third_Party/LoRaWAN/Mac/region/RegionCN470.c ****     linkAdrVerifyParams.NbChannels = CN470_MAX_NB_CHANNELS;
 1736              		.loc 1 632 0
 1737 0208 4B46     		mov	r3, r9
 1738 020a 5B7B     		ldrb	r3, [r3, #13]
 637:../../../../../../Middlewares/Third_Party/LoRaWAN/Mac/region/RegionCN470.c ****     linkAdrVerifyParams.MinTxPower = CN470_MIN_TX_POWER;
 1739              		.loc 1 637 0
 1740 020c 8761     		str	r7, [r0, #24]
 632:../../../../../../Middlewares/Third_Party/LoRaWAN/Mac/region/RegionCN470.c ****     linkAdrVerifyParams.NbChannels = CN470_MAX_NB_CHANNELS;
 1741              		.loc 1 632 0
 1742 020e C372     		strb	r3, [r0, #11]
 633:../../../../../../Middlewares/Third_Party/LoRaWAN/Mac/region/RegionCN470.c ****     linkAdrVerifyParams.ChannelsMask = channelsMask;
 1743              		.loc 1 633 0
 1744 0210 6023     		movs	r3, #96
 1745 0212 0373     		strb	r3, [r0, #12]
 634:../../../../../../Middlewares/Third_Party/LoRaWAN/Mac/region/RegionCN470.c ****     linkAdrVerifyParams.MinDatarate = ( int8_t )phyParam.Value;
 1746              		.loc 1 634 0
 1747 0214 05AB     		add	r3, sp, #20
 1748 0216 0361     		str	r3, [r0, #16]
 635:../../../../../../Middlewares/Third_Party/LoRaWAN/Mac/region/RegionCN470.c ****     linkAdrVerifyParams.MaxDatarate = CN470_TX_MAX_DATARATE;
 1749              		.loc 1 635 0
 1750 0218 A023     		movs	r3, #160
ARM GAS  C:\Users\EBANO_~1\AppData\Local\Temp\cchbxRq9.s 			page 46


 1751 021a DB00     		lsls	r3, r3, #3
 1752 021c 8382     		strh	r3, [r0, #20]
 638:../../../../../../Middlewares/Third_Party/LoRaWAN/Mac/region/RegionCN470.c ****     linkAdrVerifyParams.MaxTxPower = CN470_MAX_TX_POWER;
 1753              		.loc 1 638 0
 1754 021e 0723     		movs	r3, #7
 1755 0220 8383     		strh	r3, [r0, #28]
 640:../../../../../../Middlewares/Third_Party/LoRaWAN/Mac/region/RegionCN470.c **** 
 1756              		.loc 1 640 0
 1757 0222 4B46     		mov	r3, r9
 1758 0224 1B68     		ldr	r3, [r3]
 1759 0226 0893     		str	r3, [sp, #32]
 1760              		.loc 1 643 0
 1761 0228 3300     		movs	r3, r6
 1762 022a FFF7FEFF 		bl	RegionCommonLinkAdrReqVerifyParams
 1763              	.LVL137:
 1764 022e 0500     		movs	r5, r0
 1765              	.LVL138:
 644:../../../../../../Middlewares/Third_Party/LoRaWAN/Mac/region/RegionCN470.c **** 
 645:../../../../../../Middlewares/Third_Party/LoRaWAN/Mac/region/RegionCN470.c ****     // Update channelsMask if everything is correct
 646:../../../../../../Middlewares/Third_Party/LoRaWAN/Mac/region/RegionCN470.c ****     if( status == 0x07 )
 1766              		.loc 1 646 0
 1767 0230 0728     		cmp	r0, #7
 1768 0232 34D0     		beq	.L197
 1769              	.LVL139:
 1770              	.L96:
 647:../../../../../../Middlewares/Third_Party/LoRaWAN/Mac/region/RegionCN470.c ****     {
 648:../../../../../../Middlewares/Third_Party/LoRaWAN/Mac/region/RegionCN470.c ****         // Copy Mask
 649:../../../../../../Middlewares/Third_Party/LoRaWAN/Mac/region/RegionCN470.c ****         RegionCommonChanMaskCopy( NvmCtx.ChannelsMask, channelsMask, 6 );
 650:../../../../../../Middlewares/Third_Party/LoRaWAN/Mac/region/RegionCN470.c ****     }
 651:../../../../../../Middlewares/Third_Party/LoRaWAN/Mac/region/RegionCN470.c **** 
 652:../../../../../../Middlewares/Third_Party/LoRaWAN/Mac/region/RegionCN470.c ****     // Update status variables
 653:../../../../../../Middlewares/Third_Party/LoRaWAN/Mac/region/RegionCN470.c ****     *drOut = linkAdrParams.Datarate;
 1771              		.loc 1 653 0
 1772 0234 5A46     		mov	r2, fp
 1773 0236 7378     		ldrb	r3, [r6, #1]
 654:../../../../../../Middlewares/Third_Party/LoRaWAN/Mac/region/RegionCN470.c ****     *txPowOut = linkAdrParams.TxPower;
 655:../../../../../../Middlewares/Third_Party/LoRaWAN/Mac/region/RegionCN470.c ****     *nbRepOut = linkAdrParams.NbRep;
 656:../../../../../../Middlewares/Third_Party/LoRaWAN/Mac/region/RegionCN470.c ****     *nbBytesParsed = bytesProcessed;
 657:../../../../../../Middlewares/Third_Party/LoRaWAN/Mac/region/RegionCN470.c **** 
 658:../../../../../../Middlewares/Third_Party/LoRaWAN/Mac/region/RegionCN470.c ****     return status;
 659:../../../../../../Middlewares/Third_Party/LoRaWAN/Mac/region/RegionCN470.c **** }
 1774              		.loc 1 659 0
 1775 0238 2800     		movs	r0, r5
 653:../../../../../../Middlewares/Third_Party/LoRaWAN/Mac/region/RegionCN470.c ****     *txPowOut = linkAdrParams.TxPower;
 1776              		.loc 1 653 0
 1777 023a 1370     		strb	r3, [r2]
 654:../../../../../../Middlewares/Third_Party/LoRaWAN/Mac/region/RegionCN470.c ****     *txPowOut = linkAdrParams.TxPower;
 1778              		.loc 1 654 0
 1779 023c 4246     		mov	r2, r8
 1780 023e B378     		ldrb	r3, [r6, #2]
 1781 0240 1370     		strb	r3, [r2]
 655:../../../../../../Middlewares/Third_Party/LoRaWAN/Mac/region/RegionCN470.c ****     *nbBytesParsed = bytesProcessed;
 1782              		.loc 1 655 0
 1783 0242 3378     		ldrb	r3, [r6]
 1784 0244 019A     		ldr	r2, [sp, #4]
 1785 0246 1370     		strb	r3, [r2]
 656:../../../../../../Middlewares/Third_Party/LoRaWAN/Mac/region/RegionCN470.c **** 
ARM GAS  C:\Users\EBANO_~1\AppData\Local\Temp\cchbxRq9.s 			page 47


 1786              		.loc 1 656 0
 1787 0248 1A9B     		ldr	r3, [sp, #104]
 1788 024a 1C70     		strb	r4, [r3]
 1789              		.loc 1 659 0
 1790 024c 11B0     		add	sp, sp, #68
 1791              		@ sp needed
 1792              	.LVL140:
 1793              	.LVL141:
 1794              	.LVL142:
 1795              	.LVL143:
 1796 024e 3CBC     		pop	{r2, r3, r4, r5}
 1797 0250 9046     		mov	r8, r2
 1798 0252 9946     		mov	r9, r3
 1799 0254 A246     		mov	r10, r4
 1800 0256 AB46     		mov	fp, r5
 1801 0258 F0BD     		pop	{r4, r5, r6, r7, pc}
 1802              	.LVL144:
 1803              	.L182:
 595:../../../../../../Middlewares/Third_Party/LoRaWAN/Mac/region/RegionCN470.c ****             channelsMask[1] = 0xFFFF;
 1804              		.loc 1 595 0
 1805 025a 073B     		subs	r3, r3, #7
 1806 025c 0593     		str	r3, [sp, #20]
 1807 025e 0693     		str	r3, [sp, #24]
 1808 0260 0793     		str	r3, [sp, #28]
 590:../../../../../../Middlewares/Third_Party/LoRaWAN/Mac/region/RegionCN470.c **** 
 1809              		.loc 1 590 0
 1810 0262 0725     		movs	r5, #7
 1811 0264 EAE6     		b	.L93
 1812              	.LVL145:
 1813              	.L196:
 1814              	.LBB46:
 613:../../../../../../Middlewares/Third_Party/LoRaWAN/Mac/region/RegionCN470.c ****                 }
 1815              		.loc 1 613 0
 1816 0266 0625     		movs	r5, #6
 1817              	.LVL146:
 1818 0268 A4E7     		b	.L113
 1819              	.LVL147:
 1820              	.L195:
 1821 026a 0625     		movs	r5, #6
 1822              	.LVL148:
 1823 026c 98E7     		b	.L112
 1824              	.LVL149:
 1825              	.L194:
 1826 026e 0625     		movs	r5, #6
 1827              	.LVL150:
 1828 0270 8CE7     		b	.L111
 1829              	.LVL151:
 1830              	.L193:
 1831 0272 0625     		movs	r5, #6
 1832              	.LVL152:
 1833 0274 7FE7     		b	.L110
 1834              	.LVL153:
 1835              	.L192:
 1836 0276 0625     		movs	r5, #6
 1837              	.LVL154:
 1838 0278 72E7     		b	.L109
 1839              	.LVL155:
ARM GAS  C:\Users\EBANO_~1\AppData\Local\Temp\cchbxRq9.s 			page 48


 1840              	.L191:
 1841 027a 0625     		movs	r5, #6
 1842              	.LVL156:
 1843 027c 65E7     		b	.L108
 1844              	.LVL157:
 1845              	.L190:
 1846 027e 0625     		movs	r5, #6
 1847              	.LVL158:
 1848 0280 58E7     		b	.L107
 1849              	.LVL159:
 1850              	.L189:
 1851 0282 0625     		movs	r5, #6
 1852              	.LVL160:
 1853 0284 4BE7     		b	.L106
 1854              	.LVL161:
 1855              	.L188:
 1856 0286 0625     		movs	r5, #6
 1857              	.LVL162:
 1858 0288 3EE7     		b	.L105
 1859              	.LVL163:
 1860              	.L187:
 1861 028a 0625     		movs	r5, #6
 1862              	.LVL164:
 1863 028c 31E7     		b	.L104
 1864              	.LVL165:
 1865              	.L186:
 1866 028e 0625     		movs	r5, #6
 1867              	.LVL166:
 1868 0290 24E7     		b	.L103
 1869              	.LVL167:
 1870              	.L185:
 1871 0292 0625     		movs	r5, #6
 1872              	.LVL168:
 1873 0294 17E7     		b	.L102
 1874              	.LVL169:
 1875              	.L184:
 1876 0296 0625     		movs	r5, #6
 1877              	.LVL170:
 1878 0298 0AE7     		b	.L101
 1879              	.LVL171:
 1880              	.L183:
 1881 029a 0625     		movs	r5, #6
 1882              	.LVL172:
 1883 029c FDE6     		b	.L100
 1884              	.LVL173:
 1885              	.L197:
 1886              	.LBE46:
 649:../../../../../../Middlewares/Third_Party/LoRaWAN/Mac/region/RegionCN470.c ****     }
 1887              		.loc 1 649 0
 1888 029e 9223     		movs	r3, #146
 1889 02a0 DB00     		lsls	r3, r3, #3
 1890 02a2 F818     		adds	r0, r7, r3
 1891              	.LVL174:
 1892 02a4 0622     		movs	r2, #6
 1893 02a6 05A9     		add	r1, sp, #20
 1894 02a8 FFF7FEFF 		bl	RegionCommonChanMaskCopy
 1895              	.LVL175:
ARM GAS  C:\Users\EBANO_~1\AppData\Local\Temp\cchbxRq9.s 			page 49


 1896 02ac C2E7     		b	.L96
 1897              	.L199:
 1898 02ae C046     		.align	2
 1899              	.L198:
 1900 02b0 90040000 		.word	NvmCtx+1168
 1901 02b4 70FBFFFF 		.word	-1168
 1902              		.cfi_endproc
 1903              	.LFE54:
 1904              		.size	RegionCN470LinkAdrReq, .-RegionCN470LinkAdrReq
 1905              		.section	.text.RegionCN470RxParamSetupReq,"ax",%progbits
 1906              		.align	1
 1907              		.p2align 2,,3
 1908              		.global	RegionCN470RxParamSetupReq
 1909              		.syntax unified
 1910              		.code	16
 1911              		.thumb_func
 1912              		.fpu softvfp
 1913              		.type	RegionCN470RxParamSetupReq, %function
 1914              	RegionCN470RxParamSetupReq:
 1915              	.LFB55:
 660:../../../../../../Middlewares/Third_Party/LoRaWAN/Mac/region/RegionCN470.c **** 
 661:../../../../../../Middlewares/Third_Party/LoRaWAN/Mac/region/RegionCN470.c **** uint8_t RegionCN470RxParamSetupReq( RxParamSetupReqParams_t* rxParamSetupReq )
 662:../../../../../../Middlewares/Third_Party/LoRaWAN/Mac/region/RegionCN470.c **** {
 1916              		.loc 1 662 0
 1917              		.cfi_startproc
 1918              		@ args = 0, pretend = 0, frame = 8
 1919              		@ frame_needed = 0, uses_anonymous_args = 0
 1920              	.LVL176:
 1921 0000 70B5     		push	{r4, r5, r6, lr}
 1922              	.LCFI20:
 1923              		.cfi_def_cfa_offset 16
 1924              		.cfi_offset 4, -16
 1925              		.cfi_offset 5, -12
 1926              		.cfi_offset 6, -8
 1927              		.cfi_offset 14, -4
 1928              	.LBB47:
 1929              	.LBB48:
 111:../../../../../../Middlewares/Third_Party/LoRaWAN/Mac/region/RegionCN470.c ****     {
 1930              		.loc 1 111 0
 1931 0002 174B     		ldr	r3, .L211
 1932              	.LBE48:
 1933              	.LBE47:
 663:../../../../../../Middlewares/Third_Party/LoRaWAN/Mac/region/RegionCN470.c ****     uint8_t status = 0x07;
 664:../../../../../../Middlewares/Third_Party/LoRaWAN/Mac/region/RegionCN470.c **** 
 665:../../../../../../Middlewares/Third_Party/LoRaWAN/Mac/region/RegionCN470.c ****     // Verify radio frequency
 666:../../../../../../Middlewares/Third_Party/LoRaWAN/Mac/region/RegionCN470.c ****     if( VerifyRfFreq( rxParamSetupReq->Frequency ) == false )
 1934              		.loc 1 666 0
 1935 0004 4568     		ldr	r5, [r0, #4]
 1936              	.LVL177:
 1937              	.LBB52:
 1938              	.LBB49:
 111:../../../../../../Middlewares/Third_Party/LoRaWAN/Mac/region/RegionCN470.c ****     {
 1939              		.loc 1 111 0
 1940 0006 9B6A     		ldr	r3, [r3, #40]
 1941              	.LBE49:
 1942              	.LBE52:
 662:../../../../../../Middlewares/Third_Party/LoRaWAN/Mac/region/RegionCN470.c ****     uint8_t status = 0x07;
ARM GAS  C:\Users\EBANO_~1\AppData\Local\Temp\cchbxRq9.s 			page 50


 1943              		.loc 1 662 0
 1944 0008 82B0     		sub	sp, sp, #8
 1945              	.LCFI21:
 1946              		.cfi_def_cfa_offset 24
 662:../../../../../../Middlewares/Third_Party/LoRaWAN/Mac/region/RegionCN470.c ****     uint8_t status = 0x07;
 1947              		.loc 1 662 0
 1948 000a 0400     		movs	r4, r0
 1949              	.LBB53:
 1950              	.LBB50:
 111:../../../../../../Middlewares/Third_Party/LoRaWAN/Mac/region/RegionCN470.c ****     {
 1951              		.loc 1 111 0
 1952 000c 2800     		movs	r0, r5
 1953              	.LVL178:
 1954 000e 0193     		str	r3, [sp, #4]
 1955 0010 9847     		blx	r3
 1956              	.LVL179:
 1957 0012 0028     		cmp	r0, #0
 1958 0014 04D0     		beq	.L205
 117:../../../../../../Middlewares/Third_Party/LoRaWAN/Mac/region/RegionCN470.c ****         ( freq > CN470_LAST_RX1_CHANNEL ) ||
 1959              		.loc 1 117 0
 1960 0016 134B     		ldr	r3, .L211+4
 1961 0018 E818     		adds	r0, r5, r3
 1962 001a 134B     		ldr	r3, .L211+8
 1963 001c 9842     		cmp	r0, r3
 1964 001e 17D9     		bls	.L210
 1965              	.L205:
 1966 0020 0425     		movs	r5, #4
 1967              	.LVL180:
 1968              	.LBE50:
 1969              	.LBE53:
 667:../../../../../../Middlewares/Third_Party/LoRaWAN/Mac/region/RegionCN470.c ****     {
 668:../../../../../../Middlewares/Third_Party/LoRaWAN/Mac/region/RegionCN470.c ****         status &= 0xFE; // Channel frequency KO
 1970              		.loc 1 668 0
 1971 0022 0626     		movs	r6, #6
 1972              	.L201:
 1973              	.LVL181:
 669:../../../../../../Middlewares/Third_Party/LoRaWAN/Mac/region/RegionCN470.c ****     }
 670:../../../../../../Middlewares/Third_Party/LoRaWAN/Mac/region/RegionCN470.c **** 
 671:../../../../../../Middlewares/Third_Party/LoRaWAN/Mac/region/RegionCN470.c ****     // Verify datarate
 672:../../../../../../Middlewares/Third_Party/LoRaWAN/Mac/region/RegionCN470.c ****     if( RegionCommonValueInRange( rxParamSetupReq->Datarate, CN470_RX_MIN_DATARATE, CN470_RX_MAX_DA
 1974              		.loc 1 672 0
 1975 0024 0020     		movs	r0, #0
 1976 0026 0522     		movs	r2, #5
 1977 0028 2056     		ldrsb	r0, [r4, r0]
 1978 002a 0021     		movs	r1, #0
 1979 002c FFF7FEFF 		bl	RegionCommonValueInRange
 1980              	.LVL182:
 1981 0030 0028     		cmp	r0, #0
 1982 0032 00D0     		beq	.L202
 1983 0034 3500     		movs	r5, r6
 1984              	.L202:
 1985              	.LVL183:
 673:../../../../../../Middlewares/Third_Party/LoRaWAN/Mac/region/RegionCN470.c ****     {
 674:../../../../../../Middlewares/Third_Party/LoRaWAN/Mac/region/RegionCN470.c ****         status &= 0xFD; // Datarate KO
 675:../../../../../../Middlewares/Third_Party/LoRaWAN/Mac/region/RegionCN470.c ****     }
 676:../../../../../../Middlewares/Third_Party/LoRaWAN/Mac/region/RegionCN470.c **** 
 677:../../../../../../Middlewares/Third_Party/LoRaWAN/Mac/region/RegionCN470.c ****     // Verify datarate offset
ARM GAS  C:\Users\EBANO_~1\AppData\Local\Temp\cchbxRq9.s 			page 51


 678:../../../../../../Middlewares/Third_Party/LoRaWAN/Mac/region/RegionCN470.c ****     if( RegionCommonValueInRange( rxParamSetupReq->DrOffset, CN470_MIN_RX1_DR_OFFSET, CN470_MAX_RX1
 1986              		.loc 1 678 0
 1987 0036 0120     		movs	r0, #1
 1988 0038 0322     		movs	r2, #3
 1989 003a 2056     		ldrsb	r0, [r4, r0]
 1990 003c 0021     		movs	r1, #0
 1991 003e FFF7FEFF 		bl	RegionCommonValueInRange
 1992              	.LVL184:
 1993 0042 0028     		cmp	r0, #0
 1994 0044 01D1     		bne	.L203
 679:../../../../../../Middlewares/Third_Party/LoRaWAN/Mac/region/RegionCN470.c ****     {
 680:../../../../../../Middlewares/Third_Party/LoRaWAN/Mac/region/RegionCN470.c ****         status &= 0xFB; // Rx1DrOffset range KO
 1995              		.loc 1 680 0
 1996 0046 FB23     		movs	r3, #251
 1997 0048 1D40     		ands	r5, r3
 1998              	.LVL185:
 1999              	.L203:
 681:../../../../../../Middlewares/Third_Party/LoRaWAN/Mac/region/RegionCN470.c ****     }
 682:../../../../../../Middlewares/Third_Party/LoRaWAN/Mac/region/RegionCN470.c **** 
 683:../../../../../../Middlewares/Third_Party/LoRaWAN/Mac/region/RegionCN470.c ****     return status;
 684:../../../../../../Middlewares/Third_Party/LoRaWAN/Mac/region/RegionCN470.c **** }
 2000              		.loc 1 684 0
 2001 004a 2800     		movs	r0, r5
 2002 004c 02B0     		add	sp, sp, #8
 2003              		@ sp needed
 2004              	.LVL186:
 2005              	.LVL187:
 2006 004e 70BD     		pop	{r4, r5, r6, pc}
 2007              	.LVL188:
 2008              	.L210:
 2009              	.LBB54:
 2010              	.LBB51:
 119:../../../../../../Middlewares/Third_Party/LoRaWAN/Mac/region/RegionCN470.c ****     {
 2011              		.loc 1 119 0
 2012 0050 0649     		ldr	r1, .L211+12
 2013 0052 FFF7FEFF 		bl	__aeabi_uidivmod
 2014              	.LVL189:
 118:../../../../../../Middlewares/Third_Party/LoRaWAN/Mac/region/RegionCN470.c ****         ( ( ( freq - ( uint32_t ) CN470_FIRST_RX1_CHANNEL ) % ( uint32_t ) CN470_STEPWIDTH_RX1_CHAN
 2015              		.loc 1 118 0
 2016 0056 0029     		cmp	r1, #0
 2017 0058 E2D1     		bne	.L205
 2018 005a 0525     		movs	r5, #5
 2019              	.LVL190:
 2020              	.LBE51:
 2021              	.LBE54:
 663:../../../../../../Middlewares/Third_Party/LoRaWAN/Mac/region/RegionCN470.c **** 
 2022              		.loc 1 663 0
 2023 005c 0726     		movs	r6, #7
 2024 005e E1E7     		b	.L201
 2025              	.L212:
 2026              		.align	2
 2027              	.L211:
 2028 0060 00000000 		.word	Radio
 2029 0064 20072EE2 		.word	-500300000
 2030 0068 C06E8F00 		.word	9400000
 2031 006c 400D0300 		.word	200000
 2032              		.cfi_endproc
ARM GAS  C:\Users\EBANO_~1\AppData\Local\Temp\cchbxRq9.s 			page 52


 2033              	.LFE55:
 2034              		.size	RegionCN470RxParamSetupReq, .-RegionCN470RxParamSetupReq
 2035              		.section	.text.RegionCN470NewChannelReq,"ax",%progbits
 2036              		.align	1
 2037              		.p2align 2,,3
 2038              		.global	RegionCN470NewChannelReq
 2039              		.syntax unified
 2040              		.code	16
 2041              		.thumb_func
 2042              		.fpu softvfp
 2043              		.type	RegionCN470NewChannelReq, %function
 2044              	RegionCN470NewChannelReq:
 2045              	.LFB56:
 685:../../../../../../Middlewares/Third_Party/LoRaWAN/Mac/region/RegionCN470.c **** 
 686:../../../../../../Middlewares/Third_Party/LoRaWAN/Mac/region/RegionCN470.c **** uint8_t RegionCN470NewChannelReq( NewChannelReqParams_t* newChannelReq )
 687:../../../../../../Middlewares/Third_Party/LoRaWAN/Mac/region/RegionCN470.c **** {
 2046              		.loc 1 687 0
 2047              		.cfi_startproc
 2048              		@ args = 0, pretend = 0, frame = 0
 2049              		@ frame_needed = 0, uses_anonymous_args = 0
 2050              		@ link register save eliminated.
 2051              	.LVL191:
 688:../../../../../../Middlewares/Third_Party/LoRaWAN/Mac/region/RegionCN470.c ****     // Datarate and frequency KO
 689:../../../../../../Middlewares/Third_Party/LoRaWAN/Mac/region/RegionCN470.c ****     return 0;
 690:../../../../../../Middlewares/Third_Party/LoRaWAN/Mac/region/RegionCN470.c **** }
 2052              		.loc 1 690 0
 2053 0000 0020     		movs	r0, #0
 2054              	.LVL192:
 2055              		@ sp needed
 2056 0002 7047     		bx	lr
 2057              		.cfi_endproc
 2058              	.LFE56:
 2059              		.size	RegionCN470NewChannelReq, .-RegionCN470NewChannelReq
 2060              		.section	.text.RegionCN470TxParamSetupReq,"ax",%progbits
 2061              		.align	1
 2062              		.p2align 2,,3
 2063              		.global	RegionCN470TxParamSetupReq
 2064              		.syntax unified
 2065              		.code	16
 2066              		.thumb_func
 2067              		.fpu softvfp
 2068              		.type	RegionCN470TxParamSetupReq, %function
 2069              	RegionCN470TxParamSetupReq:
 2070              	.LFB57:
 691:../../../../../../Middlewares/Third_Party/LoRaWAN/Mac/region/RegionCN470.c **** 
 692:../../../../../../Middlewares/Third_Party/LoRaWAN/Mac/region/RegionCN470.c **** int8_t RegionCN470TxParamSetupReq( TxParamSetupReqParams_t* txParamSetupReq )
 693:../../../../../../Middlewares/Third_Party/LoRaWAN/Mac/region/RegionCN470.c **** {
 2071              		.loc 1 693 0
 2072              		.cfi_startproc
 2073              		@ args = 0, pretend = 0, frame = 0
 2074              		@ frame_needed = 0, uses_anonymous_args = 0
 2075              		@ link register save eliminated.
 2076              	.LVL193:
 694:../../../../../../Middlewares/Third_Party/LoRaWAN/Mac/region/RegionCN470.c ****     return -1;
 2077              		.loc 1 694 0
 2078 0000 0120     		movs	r0, #1
 2079              	.LVL194:
ARM GAS  C:\Users\EBANO_~1\AppData\Local\Temp\cchbxRq9.s 			page 53


 695:../../../../../../Middlewares/Third_Party/LoRaWAN/Mac/region/RegionCN470.c **** }
 2080              		.loc 1 695 0
 2081              		@ sp needed
 2082 0002 4042     		rsbs	r0, r0, #0
 2083 0004 7047     		bx	lr
 2084              		.cfi_endproc
 2085              	.LFE57:
 2086              		.size	RegionCN470TxParamSetupReq, .-RegionCN470TxParamSetupReq
 2087 0006 C046     		.section	.text.RegionCN470DlChannelReq,"ax",%progbits
 2088              		.align	1
 2089              		.p2align 2,,3
 2090              		.global	RegionCN470DlChannelReq
 2091              		.syntax unified
 2092              		.code	16
 2093              		.thumb_func
 2094              		.fpu softvfp
 2095              		.type	RegionCN470DlChannelReq, %function
 2096              	RegionCN470DlChannelReq:
 2097              	.LFB69:
 2098              		.cfi_startproc
 2099              		@ args = 0, pretend = 0, frame = 0
 2100              		@ frame_needed = 0, uses_anonymous_args = 0
 2101              		@ link register save eliminated.
 2102 0000 0020     		movs	r0, #0
 2103              		@ sp needed
 2104 0002 7047     		bx	lr
 2105              		.cfi_endproc
 2106              	.LFE69:
 2107              		.size	RegionCN470DlChannelReq, .-RegionCN470DlChannelReq
 2108              		.section	.text.RegionCN470AlternateDr,"ax",%progbits
 2109              		.align	1
 2110              		.p2align 2,,3
 2111              		.global	RegionCN470AlternateDr
 2112              		.syntax unified
 2113              		.code	16
 2114              		.thumb_func
 2115              		.fpu softvfp
 2116              		.type	RegionCN470AlternateDr, %function
 2117              	RegionCN470AlternateDr:
 2118              	.LFB59:
 696:../../../../../../Middlewares/Third_Party/LoRaWAN/Mac/region/RegionCN470.c **** 
 697:../../../../../../Middlewares/Third_Party/LoRaWAN/Mac/region/RegionCN470.c **** uint8_t RegionCN470DlChannelReq( DlChannelReqParams_t* dlChannelReq )
 698:../../../../../../Middlewares/Third_Party/LoRaWAN/Mac/region/RegionCN470.c **** {
 699:../../../../../../Middlewares/Third_Party/LoRaWAN/Mac/region/RegionCN470.c ****     return 0;
 700:../../../../../../Middlewares/Third_Party/LoRaWAN/Mac/region/RegionCN470.c **** }
 701:../../../../../../Middlewares/Third_Party/LoRaWAN/Mac/region/RegionCN470.c **** 
 702:../../../../../../Middlewares/Third_Party/LoRaWAN/Mac/region/RegionCN470.c **** int8_t RegionCN470AlternateDr( int8_t currentDr, AlternateDrType_t type )
 703:../../../../../../Middlewares/Third_Party/LoRaWAN/Mac/region/RegionCN470.c **** {
 2119              		.loc 1 703 0
 2120              		.cfi_startproc
 2121              		@ args = 0, pretend = 0, frame = 0
 2122              		@ frame_needed = 0, uses_anonymous_args = 0
 2123              		@ link register save eliminated.
 2124              	.LVL195:
 704:../../../../../../Middlewares/Third_Party/LoRaWAN/Mac/region/RegionCN470.c ****     return currentDr;
 705:../../../../../../Middlewares/Third_Party/LoRaWAN/Mac/region/RegionCN470.c **** }
 2125              		.loc 1 705 0
ARM GAS  C:\Users\EBANO_~1\AppData\Local\Temp\cchbxRq9.s 			page 54


 2126              		@ sp needed
 2127 0000 7047     		bx	lr
 2128              		.cfi_endproc
 2129              	.LFE59:
 2130              		.size	RegionCN470AlternateDr, .-RegionCN470AlternateDr
 2131 0002 C046     		.section	.text.RegionCN470CalcBackOff,"ax",%progbits
 2132              		.align	1
 2133              		.p2align 2,,3
 2134              		.global	RegionCN470CalcBackOff
 2135              		.syntax unified
 2136              		.code	16
 2137              		.thumb_func
 2138              		.fpu softvfp
 2139              		.type	RegionCN470CalcBackOff, %function
 2140              	RegionCN470CalcBackOff:
 2141              	.LFB60:
 706:../../../../../../Middlewares/Third_Party/LoRaWAN/Mac/region/RegionCN470.c **** 
 707:../../../../../../Middlewares/Third_Party/LoRaWAN/Mac/region/RegionCN470.c **** void RegionCN470CalcBackOff( CalcBackOffParams_t* calcBackOff )
 708:../../../../../../Middlewares/Third_Party/LoRaWAN/Mac/region/RegionCN470.c **** {
 2142              		.loc 1 708 0
 2143              		.cfi_startproc
 2144              		@ args = 0, pretend = 0, frame = 24
 2145              		@ frame_needed = 0, uses_anonymous_args = 0
 2146              	.LVL196:
 709:../../../../../../Middlewares/Third_Party/LoRaWAN/Mac/region/RegionCN470.c ****     RegionCommonCalcBackOffParams_t calcBackOffParams;
 710:../../../../../../Middlewares/Third_Party/LoRaWAN/Mac/region/RegionCN470.c **** 
 711:../../../../../../Middlewares/Third_Party/LoRaWAN/Mac/region/RegionCN470.c ****     calcBackOffParams.Channels = NvmCtx.Channels;
 712:../../../../../../Middlewares/Third_Party/LoRaWAN/Mac/region/RegionCN470.c ****     calcBackOffParams.Bands = NvmCtx.Bands;
 2147              		.loc 1 712 0
 2148 0000 9021     		movs	r1, #144
 2149 0002 C900     		lsls	r1, r1, #3
 2150 0004 8C46     		mov	ip, r1
 708:../../../../../../Middlewares/Third_Party/LoRaWAN/Mac/region/RegionCN470.c ****     RegionCommonCalcBackOffParams_t calcBackOffParams;
 2151              		.loc 1 708 0
 2152 0006 00B5     		push	{lr}
 2153              	.LCFI22:
 2154              		.cfi_def_cfa_offset 4
 2155              		.cfi_offset 14, -4
 711:../../../../../../Middlewares/Third_Party/LoRaWAN/Mac/region/RegionCN470.c ****     calcBackOffParams.Bands = NvmCtx.Bands;
 2156              		.loc 1 711 0
 2157 0008 0B4A     		ldr	r2, .L218
 708:../../../../../../Middlewares/Third_Party/LoRaWAN/Mac/region/RegionCN470.c ****     RegionCommonCalcBackOffParams_t calcBackOffParams;
 2158              		.loc 1 708 0
 2159 000a 87B0     		sub	sp, sp, #28
 2160              	.LCFI23:
 2161              		.cfi_def_cfa_offset 32
 711:../../../../../../Middlewares/Third_Party/LoRaWAN/Mac/region/RegionCN470.c ****     calcBackOffParams.Bands = NvmCtx.Bands;
 2162              		.loc 1 711 0
 2163 000c 0192     		str	r2, [sp, #4]
 2164              		.loc 1 712 0
 2165 000e 6244     		add	r2, r2, ip
 2166 0010 0292     		str	r2, [sp, #8]
 713:../../../../../../Middlewares/Third_Party/LoRaWAN/Mac/region/RegionCN470.c ****     calcBackOffParams.LastTxIsJoinRequest = calcBackOff->LastTxIsJoinRequest;
 2167              		.loc 1 713 0
 2168 0012 4278     		ldrb	r2, [r0, #1]
 711:../../../../../../Middlewares/Third_Party/LoRaWAN/Mac/region/RegionCN470.c ****     calcBackOffParams.Bands = NvmCtx.Bands;
 2169              		.loc 1 711 0
ARM GAS  C:\Users\EBANO_~1\AppData\Local\Temp\cchbxRq9.s 			page 55


 2170 0014 01AB     		add	r3, sp, #4
 2171              		.loc 1 713 0
 2172 0016 1A72     		strb	r2, [r3, #8]
 714:../../../../../../Middlewares/Third_Party/LoRaWAN/Mac/region/RegionCN470.c ****     calcBackOffParams.Joined = calcBackOff->Joined;
 2173              		.loc 1 714 0
 2174 0018 0278     		ldrb	r2, [r0]
 2175 001a 5A72     		strb	r2, [r3, #9]
 715:../../../../../../Middlewares/Third_Party/LoRaWAN/Mac/region/RegionCN470.c ****     calcBackOffParams.DutyCycleEnabled = calcBackOff->DutyCycleEnabled;
 2176              		.loc 1 715 0
 2177 001c 8278     		ldrb	r2, [r0, #2]
 2178 001e 9A72     		strb	r2, [r3, #10]
 716:../../../../../../Middlewares/Third_Party/LoRaWAN/Mac/region/RegionCN470.c ****     calcBackOffParams.Channel = calcBackOff->Channel;
 2179              		.loc 1 716 0
 2180 0020 C278     		ldrb	r2, [r0, #3]
 2181 0022 DA72     		strb	r2, [r3, #11]
 717:../../../../../../Middlewares/Third_Party/LoRaWAN/Mac/region/RegionCN470.c ****     calcBackOffParams.ElapsedTime = calcBackOff->ElapsedTime;
 2182              		.loc 1 717 0
 2183 0024 4268     		ldr	r2, [r0, #4]
 2184 0026 0492     		str	r2, [sp, #16]
 718:../../../../../../Middlewares/Third_Party/LoRaWAN/Mac/region/RegionCN470.c ****     calcBackOffParams.TxTimeOnAir = calcBackOff->TxTimeOnAir;
 2185              		.loc 1 718 0
 2186 0028 8268     		ldr	r2, [r0, #8]
 719:../../../../../../Middlewares/Third_Party/LoRaWAN/Mac/region/RegionCN470.c **** 
 720:../../../../../../Middlewares/Third_Party/LoRaWAN/Mac/region/RegionCN470.c ****     RegionCommonCalcBackOff( &calcBackOffParams );
 2187              		.loc 1 720 0
 2188 002a 1800     		movs	r0, r3
 2189              	.LVL197:
 718:../../../../../../Middlewares/Third_Party/LoRaWAN/Mac/region/RegionCN470.c ****     calcBackOffParams.TxTimeOnAir = calcBackOff->TxTimeOnAir;
 2190              		.loc 1 718 0
 2191 002c 0592     		str	r2, [sp, #20]
 2192              		.loc 1 720 0
 2193 002e FFF7FEFF 		bl	RegionCommonCalcBackOff
 2194              	.LVL198:
 721:../../../../../../Middlewares/Third_Party/LoRaWAN/Mac/region/RegionCN470.c **** }
 2195              		.loc 1 721 0
 2196 0032 07B0     		add	sp, sp, #28
 2197              		@ sp needed
 2198 0034 00BD     		pop	{pc}
 2199              	.L219:
 2200 0036 C046     		.align	2
 2201              	.L218:
 2202 0038 00000000 		.word	NvmCtx
 2203              		.cfi_endproc
 2204              	.LFE60:
 2205              		.size	RegionCN470CalcBackOff, .-RegionCN470CalcBackOff
 2206              		.section	.text.RegionCN470NextChannel,"ax",%progbits
 2207              		.align	1
 2208              		.p2align 2,,3
 2209              		.global	RegionCN470NextChannel
 2210              		.syntax unified
 2211              		.code	16
 2212              		.thumb_func
 2213              		.fpu softvfp
 2214              		.type	RegionCN470NextChannel, %function
 2215              	RegionCN470NextChannel:
 2216              	.LFB61:
 722:../../../../../../Middlewares/Third_Party/LoRaWAN/Mac/region/RegionCN470.c **** 
ARM GAS  C:\Users\EBANO_~1\AppData\Local\Temp\cchbxRq9.s 			page 56


 723:../../../../../../Middlewares/Third_Party/LoRaWAN/Mac/region/RegionCN470.c **** LoRaMacStatus_t RegionCN470NextChannel( NextChanParams_t* nextChanParams, uint8_t* channel, TimerTi
 724:../../../../../../Middlewares/Third_Party/LoRaWAN/Mac/region/RegionCN470.c **** {
 2217              		.loc 1 724 0
 2218              		.cfi_startproc
 2219              		@ args = 0, pretend = 0, frame = 120
 2220              		@ frame_needed = 0, uses_anonymous_args = 0
 2221              	.LVL199:
 2222 0000 F0B5     		push	{r4, r5, r6, r7, lr}
 2223              	.LCFI24:
 2224              		.cfi_def_cfa_offset 20
 2225              		.cfi_offset 4, -20
 2226              		.cfi_offset 5, -16
 2227              		.cfi_offset 6, -12
 2228              		.cfi_offset 7, -8
 2229              		.cfi_offset 14, -4
 2230 0002 DE46     		mov	lr, fp
 2231 0004 4E46     		mov	r6, r9
 2232 0006 4546     		mov	r5, r8
 2233 0008 5746     		mov	r7, r10
 2234 000a E0B5     		push	{r5, r6, r7, lr}
 2235              	.LCFI25:
 2236              		.cfi_def_cfa_offset 36
 2237              		.cfi_offset 8, -36
 2238              		.cfi_offset 9, -32
 2239              		.cfi_offset 10, -28
 2240              		.cfi_offset 11, -24
 2241 000c 9FB0     		sub	sp, sp, #124
 2242              	.LCFI26:
 2243              		.cfi_def_cfa_offset 160
 2244              		.loc 1 724 0
 2245 000e 0591     		str	r1, [sp, #20]
 2246 0010 0392     		str	r2, [sp, #12]
 725:../../../../../../Middlewares/Third_Party/LoRaWAN/Mac/region/RegionCN470.c ****     uint8_t nbEnabledChannels = 0;
 726:../../../../../../Middlewares/Third_Party/LoRaWAN/Mac/region/RegionCN470.c ****     uint8_t delayTx = 0;
 727:../../../../../../Middlewares/Third_Party/LoRaWAN/Mac/region/RegionCN470.c ****     uint8_t enabledChannels[CN470_MAX_NB_CHANNELS] = { 0 };
 2247              		.loc 1 727 0
 2248 0012 0021     		movs	r1, #0
 2249              	.LVL200:
 2250 0014 6022     		movs	r2, #96
 2251              	.LVL201:
 724:../../../../../../Middlewares/Third_Party/LoRaWAN/Mac/region/RegionCN470.c ****     uint8_t nbEnabledChannels = 0;
 2252              		.loc 1 724 0
 2253 0016 0400     		movs	r4, r0
 2254              		.loc 1 727 0
 2255 0018 06A8     		add	r0, sp, #24
 2256              	.LVL202:
 724:../../../../../../Middlewares/Third_Party/LoRaWAN/Mac/region/RegionCN470.c ****     uint8_t nbEnabledChannels = 0;
 2257              		.loc 1 724 0
 2258 001a 1E00     		movs	r6, r3
 2259              		.loc 1 727 0
 2260 001c FFF7FEFF 		bl	memset
 2261              	.LVL203:
 728:../../../../../../Middlewares/Third_Party/LoRaWAN/Mac/region/RegionCN470.c ****     TimerTime_t nextTxDelay = 0;
 729:../../../../../../Middlewares/Third_Party/LoRaWAN/Mac/region/RegionCN470.c **** 
 730:../../../../../../Middlewares/Third_Party/LoRaWAN/Mac/region/RegionCN470.c ****     // Count 125kHz channels
 731:../../../../../../Middlewares/Third_Party/LoRaWAN/Mac/region/RegionCN470.c ****     if( RegionCommonCountChannels( NvmCtx.ChannelsMask, 0, 6 ) == 0 )
 2262              		.loc 1 731 0
ARM GAS  C:\Users\EBANO_~1\AppData\Local\Temp\cchbxRq9.s 			page 57


 2263 0020 4C4D     		ldr	r5, .L246
 2264 0022 0622     		movs	r2, #6
 2265 0024 0021     		movs	r1, #0
 2266 0026 2800     		movs	r0, r5
 2267 0028 FFF7FEFF 		bl	RegionCommonCountChannels
 2268              	.LVL204:
 2269 002c 0028     		cmp	r0, #0
 2270 002e 04D1     		bne	.L221
 732:../../../../../../Middlewares/Third_Party/LoRaWAN/Mac/region/RegionCN470.c ****     { // Reactivate default channels
 733:../../../../../../Middlewares/Third_Party/LoRaWAN/Mac/region/RegionCN470.c ****         NvmCtx.ChannelsMask[0] = 0xFFFF;
 2271              		.loc 1 733 0
 2272 0030 0123     		movs	r3, #1
 2273 0032 5B42     		rsbs	r3, r3, #0
 2274 0034 2B60     		str	r3, [r5]
 2275 0036 6B60     		str	r3, [r5, #4]
 2276 0038 AB60     		str	r3, [r5, #8]
 2277              	.L221:
 734:../../../../../../Middlewares/Third_Party/LoRaWAN/Mac/region/RegionCN470.c ****         NvmCtx.ChannelsMask[1] = 0xFFFF;
 735:../../../../../../Middlewares/Third_Party/LoRaWAN/Mac/region/RegionCN470.c ****         NvmCtx.ChannelsMask[2] = 0xFFFF;
 736:../../../../../../Middlewares/Third_Party/LoRaWAN/Mac/region/RegionCN470.c ****         NvmCtx.ChannelsMask[3] = 0xFFFF;
 737:../../../../../../Middlewares/Third_Party/LoRaWAN/Mac/region/RegionCN470.c ****         NvmCtx.ChannelsMask[4] = 0xFFFF;
 738:../../../../../../Middlewares/Third_Party/LoRaWAN/Mac/region/RegionCN470.c ****         NvmCtx.ChannelsMask[5] = 0xFFFF;
 739:../../../../../../Middlewares/Third_Party/LoRaWAN/Mac/region/RegionCN470.c ****     }
 740:../../../../../../Middlewares/Third_Party/LoRaWAN/Mac/region/RegionCN470.c **** 
 741:../../../../../../Middlewares/Third_Party/LoRaWAN/Mac/region/RegionCN470.c ****     if( nextChanParams->AggrTimeOff <= TimerGetElapsedTime( nextChanParams->LastAggrTx ) )
 2278              		.loc 1 741 0
 2279 003a 6068     		ldr	r0, [r4, #4]
 2280 003c 2568     		ldr	r5, [r4]
 2281 003e FFF7FEFF 		bl	TimerGetElapsedTime
 2282              	.LVL205:
 2283 0042 8542     		cmp	r5, r0
 2284 0044 6CD8     		bhi	.L222
 742:../../../../../../Middlewares/Third_Party/LoRaWAN/Mac/region/RegionCN470.c ****     {
 743:../../../../../../Middlewares/Third_Party/LoRaWAN/Mac/region/RegionCN470.c ****         // Reset Aggregated time off
 744:../../../../../../Middlewares/Third_Party/LoRaWAN/Mac/region/RegionCN470.c ****         *aggregatedTimeOff = 0;
 2285              		.loc 1 744 0
 2286 0046 0023     		movs	r3, #0
 2287 0048 3360     		str	r3, [r6]
 745:../../../../../../Middlewares/Third_Party/LoRaWAN/Mac/region/RegionCN470.c **** 
 746:../../../../../../Middlewares/Third_Party/LoRaWAN/Mac/region/RegionCN470.c ****         // Update bands Time OFF
 747:../../../../../../Middlewares/Third_Party/LoRaWAN/Mac/region/RegionCN470.c ****         nextTxDelay = RegionCommonUpdateBandTimeOff( nextChanParams->Joined, nextChanParams->DutyCy
 2288              		.loc 1 747 0
 2289 004a 434A     		ldr	r2, .L246+4
 2290 004c 0133     		adds	r3, r3, #1
 2291 004e A17A     		ldrb	r1, [r4, #10]
 2292 0050 607A     		ldrb	r0, [r4, #9]
 2293 0052 FFF7FEFF 		bl	RegionCommonUpdateBandTimeOff
 2294              	.LVL206:
 748:../../../../../../Middlewares/Third_Party/LoRaWAN/Mac/region/RegionCN470.c **** 
 749:../../../../../../Middlewares/Third_Party/LoRaWAN/Mac/region/RegionCN470.c ****         // Search how many channels are enabled
 750:../../../../../../Middlewares/Third_Party/LoRaWAN/Mac/region/RegionCN470.c ****         nbEnabledChannels = CountNbOfEnabledChannels( nextChanParams->Datarate,
 2295              		.loc 1 750 0
 2296 0056 0823     		movs	r3, #8
 2297 0058 404A     		ldr	r2, .L246+8
 747:../../../../../../Middlewares/Third_Party/LoRaWAN/Mac/region/RegionCN470.c **** 
 2298              		.loc 1 747 0
 2299 005a 0490     		str	r0, [sp, #16]
ARM GAS  C:\Users\EBANO_~1\AppData\Local\Temp\cchbxRq9.s 			page 58


 2300              	.LVL207:
 2301 005c 9446     		mov	ip, r2
 2302              		.loc 1 750 0
 2303 005e E356     		ldrsb	r3, [r4, r3]
 2304              	.LBB59:
 2305              	.LBB60:
 2306              	.LBB61:
 2307              	.LBB62:
 141:../../../../../../Middlewares/Third_Party/LoRaWAN/Mac/region/RegionCN470.c ****             {
 2308              		.loc 1 141 0
 2309 0060 0127     		movs	r7, #1
 2310              	.LBE62:
 2311              	.LBE61:
 2312              	.LBE60:
 2313              	.LBE59:
 2314              		.loc 1 750 0
 2315 0062 0093     		str	r3, [sp]
 2316              	.LVL208:
 2317 0064 3C4B     		ldr	r3, .L246+4
 2318              	.LVL209:
 2319 0066 3C4E     		ldr	r6, .L246+4
 2320              	.LVL210:
 2321 0068 6344     		add	r3, r3, ip
 2322              	.LVL211:
 2323 006a 9A46     		mov	r10, r3
 2324 006c 9846     		mov	r8, r3
 2325 006e 0023     		movs	r3, #0
 2326 0070 9946     		mov	r9, r3
 2327              	.LBB70:
 2328              	.LBB67:
 134:../../../../../../Middlewares/Third_Party/LoRaWAN/Mac/region/RegionCN470.c ****     uint8_t delayTransmission = 0;
 2329              		.loc 1 134 0
 2330 0072 9B46     		mov	fp, r3
 2331 0074 1036     		adds	r6, r6, #16
 2332              	.LVL212:
 135:../../../../../../Middlewares/Third_Party/LoRaWAN/Mac/region/RegionCN470.c **** 
 2333              		.loc 1 135 0
 2334 0076 0293     		str	r3, [sp, #8]
 2335              	.LVL213:
 2336              	.L223:
 2337 0078 4B46     		mov	r3, r9
 2338              	.LBE67:
 2339              	.LBE70:
 724:../../../../../../Middlewares/Third_Party/LoRaWAN/Mac/region/RegionCN470.c ****     uint8_t nbEnabledChannels = 0;
 2340              		.loc 1 724 0
 2341 007a 0024     		movs	r4, #0
 2342 007c DBB2     		uxtb	r3, r3
 2343 007e 0193     		str	r3, [sp, #4]
 2344              	.LVL214:
 2345              	.L226:
 2346              	.LBB71:
 2347              	.LBB68:
 2348              	.LBB65:
 2349              	.LBB63:
 141:../../../../../../Middlewares/Third_Party/LoRaWAN/Mac/region/RegionCN470.c ****             {
 2350              		.loc 1 141 0
 2351 0080 3388     		ldrh	r3, [r6]
ARM GAS  C:\Users\EBANO_~1\AppData\Local\Temp\cchbxRq9.s 			page 59


 2352 0082 2341     		asrs	r3, r3, r4
 2353 0084 1F42     		tst	r7, r3
 2354 0086 28D0     		beq	.L224
 2355 0088 4B46     		mov	r3, r9
 2356 008a E218     		adds	r2, r4, r3
 2357 008c 5300     		lsls	r3, r2, #1
 2358 008e 9B18     		adds	r3, r3, r2
 143:../../../../../../Middlewares/Third_Party/LoRaWAN/Mac/region/RegionCN470.c ****                 { // Check if the channel is enabled
 2359              		.loc 1 143 0
 2360 0090 4246     		mov	r2, r8
 2361 0092 6500     		lsls	r5, r4, #1
 2362 0094 2D19     		adds	r5, r5, r4
 2363 0096 AD00     		lsls	r5, r5, #2
 2364 0098 5259     		ldr	r2, [r2, r5]
 2365 009a 9B00     		lsls	r3, r3, #2
 2366 009c 5344     		add	r3, r3, r10
 2367 009e 002A     		cmp	r2, #0
 2368 00a0 1BD0     		beq	.L224
 148:../../../../../../Middlewares/Third_Party/LoRaWAN/Mac/region/RegionCN470.c ****                 { // Check if the current channel selection supports the given datarate
 2369              		.loc 1 148 0
 2370 00a2 197A     		ldrb	r1, [r3, #8]
 147:../../../../../../Middlewares/Third_Party/LoRaWAN/Mac/region/RegionCN470.c ****                                               channels[i + j].DrRange.Fields.Max ) == false )
 2371              		.loc 1 147 0
 2372 00a4 0098     		ldr	r0, [sp]
 148:../../../../../../Middlewares/Third_Party/LoRaWAN/Mac/region/RegionCN470.c ****                 { // Check if the current channel selection supports the given datarate
 2373              		.loc 1 148 0
 2374 00a6 4AB2     		sxtb	r2, r1
 147:../../../../../../Middlewares/Third_Party/LoRaWAN/Mac/region/RegionCN470.c ****                                               channels[i + j].DrRange.Fields.Max ) == false )
 2375              		.loc 1 147 0
 2376 00a8 0907     		lsls	r1, r1, #28
 2377 00aa 1211     		asrs	r2, r2, #4
 2378 00ac 0917     		asrs	r1, r1, #28
 2379 00ae FFF7FEFF 		bl	RegionCommonValueInRange
 2380              	.LVL215:
 2381 00b2 0028     		cmp	r0, #0
 2382 00b4 11D0     		beq	.L224
 152:../../../../../../Middlewares/Third_Party/LoRaWAN/Mac/region/RegionCN470.c ****                 { // Check if the band is available for transmission
 2383              		.loc 1 152 0
 2384 00b6 284A     		ldr	r2, .L246+4
 2385              	.LVL216:
 2386 00b8 4544     		add	r5, r5, r8
 2387 00ba 9446     		mov	ip, r2
 2388 00bc 6B7A     		ldrb	r3, [r5, #9]
 2389 00be 1B01     		lsls	r3, r3, #4
 2390 00c0 6344     		add	r3, r3, ip
 2391 00c2 DB68     		ldr	r3, [r3, #12]
 2392 00c4 002B     		cmp	r3, #0
 2393 00c6 26D1     		bne	.L244
 157:../../../../../../Middlewares/Third_Party/LoRaWAN/Mac/region/RegionCN470.c ****             }
 2394              		.loc 1 157 0
 2395 00c8 5B46     		mov	r3, fp
 2396 00ca 0133     		adds	r3, r3, #1
 2397              	.LVL217:
 2398 00cc 5846     		mov	r0, fp
 2399 00ce DBB2     		uxtb	r3, r3
 2400 00d0 9B46     		mov	fp, r3
 2401 00d2 019A     		ldr	r2, [sp, #4]
ARM GAS  C:\Users\EBANO_~1\AppData\Local\Temp\cchbxRq9.s 			page 60


 2402              	.LVL218:
 2403 00d4 06A9     		add	r1, sp, #24
 2404              	.LVL219:
 2405 00d6 1219     		adds	r2, r2, r4
 2406 00d8 0A54     		strb	r2, [r1, r0]
 2407              	.LVL220:
 2408              	.L224:
 2409 00da 0134     		adds	r4, r4, #1
 2410              	.LVL221:
 139:../../../../../../Middlewares/Third_Party/LoRaWAN/Mac/region/RegionCN470.c ****         {
 2411              		.loc 1 139 0
 2412 00dc 102C     		cmp	r4, #16
 2413 00de CFD1     		bne	.L226
 2414              	.LVL222:
 2415 00e0 1023     		movs	r3, #16
 2416 00e2 9C46     		mov	ip, r3
 2417 00e4 B033     		adds	r3, r3, #176
 2418 00e6 E144     		add	r9, r9, ip
 2419              	.LVL223:
 2420 00e8 9C46     		mov	ip, r3
 2421              	.LBE63:
 137:../../../../../../Middlewares/Third_Party/LoRaWAN/Mac/region/RegionCN470.c ****     {
 2422              		.loc 1 137 0
 2423 00ea 4B46     		mov	r3, r9
 2424 00ec 0236     		adds	r6, r6, #2
 2425 00ee E044     		add	r8, r8, ip
 2426 00f0 602B     		cmp	r3, #96
 2427 00f2 C1D1     		bne	.L223
 2428              	.LVL224:
 2429              	.LBE65:
 2430              	.LBE68:
 2431              	.LBE71:
 751:../../../../../../Middlewares/Third_Party/LoRaWAN/Mac/region/RegionCN470.c ****                                                       NvmCtx.ChannelsMask, NvmCtx.Channels,
 752:../../../../../../Middlewares/Third_Party/LoRaWAN/Mac/region/RegionCN470.c ****                                                       NvmCtx.Bands, enabledChannels, &delayTx );
 753:../../../../../../Middlewares/Third_Party/LoRaWAN/Mac/region/RegionCN470.c ****     }
 754:../../../../../../Middlewares/Third_Party/LoRaWAN/Mac/region/RegionCN470.c ****     else
 755:../../../../../../Middlewares/Third_Party/LoRaWAN/Mac/region/RegionCN470.c ****     {
 756:../../../../../../Middlewares/Third_Party/LoRaWAN/Mac/region/RegionCN470.c ****         delayTx++;
 757:../../../../../../Middlewares/Third_Party/LoRaWAN/Mac/region/RegionCN470.c ****         nextTxDelay = nextChanParams->AggrTimeOff - TimerGetElapsedTime( nextChanParams->LastAggrTx
 758:../../../../../../Middlewares/Third_Party/LoRaWAN/Mac/region/RegionCN470.c ****     }
 759:../../../../../../Middlewares/Third_Party/LoRaWAN/Mac/region/RegionCN470.c **** 
 760:../../../../../../Middlewares/Third_Party/LoRaWAN/Mac/region/RegionCN470.c ****     if( nbEnabledChannels > 0 )
 2432              		.loc 1 760 0
 2433 00f4 5B46     		mov	r3, fp
 2434 00f6 002B     		cmp	r3, #0
 2435 00f8 1DD1     		bne	.L245
 761:../../../../../../Middlewares/Third_Party/LoRaWAN/Mac/region/RegionCN470.c ****     {
 762:../../../../../../Middlewares/Third_Party/LoRaWAN/Mac/region/RegionCN470.c ****         // We found a valid channel
 763:../../../../../../Middlewares/Third_Party/LoRaWAN/Mac/region/RegionCN470.c ****         *channel = enabledChannels[randr( 0, nbEnabledChannels - 1 )];
 764:../../../../../../Middlewares/Third_Party/LoRaWAN/Mac/region/RegionCN470.c **** 
 765:../../../../../../Middlewares/Third_Party/LoRaWAN/Mac/region/RegionCN470.c ****         *time = 0;
 766:../../../../../../Middlewares/Third_Party/LoRaWAN/Mac/region/RegionCN470.c ****         return LORAMAC_STATUS_OK;
 767:../../../../../../Middlewares/Third_Party/LoRaWAN/Mac/region/RegionCN470.c ****     }
 768:../../../../../../Middlewares/Third_Party/LoRaWAN/Mac/region/RegionCN470.c ****     else
 769:../../../../../../Middlewares/Third_Party/LoRaWAN/Mac/region/RegionCN470.c ****     {
 770:../../../../../../Middlewares/Third_Party/LoRaWAN/Mac/region/RegionCN470.c ****         if( delayTx > 0 )
 2436              		.loc 1 770 0
ARM GAS  C:\Users\EBANO_~1\AppData\Local\Temp\cchbxRq9.s 			page 61


 2437 00fa 029B     		ldr	r3, [sp, #8]
 2438 00fc 002B     		cmp	r3, #0
 2439 00fe 15D1     		bne	.L230
 2440 0100 1A00     		movs	r2, r3
 771:../../../../../../Middlewares/Third_Party/LoRaWAN/Mac/region/RegionCN470.c ****         {
 772:../../../../../../Middlewares/Third_Party/LoRaWAN/Mac/region/RegionCN470.c ****             // Delay transmission due to AggregatedTimeOff or to a band time off
 773:../../../../../../Middlewares/Third_Party/LoRaWAN/Mac/region/RegionCN470.c ****             *time = nextTxDelay;
 774:../../../../../../Middlewares/Third_Party/LoRaWAN/Mac/region/RegionCN470.c ****             return LORAMAC_STATUS_DUTYCYCLE_RESTRICTED;
 775:../../../../../../Middlewares/Third_Party/LoRaWAN/Mac/region/RegionCN470.c ****         }
 776:../../../../../../Middlewares/Third_Party/LoRaWAN/Mac/region/RegionCN470.c ****         // Datarate not supported by any channel
 777:../../../../../../Middlewares/Third_Party/LoRaWAN/Mac/region/RegionCN470.c ****         *time = 0;
 778:../../../../../../Middlewares/Third_Party/LoRaWAN/Mac/region/RegionCN470.c ****         return LORAMAC_STATUS_NO_CHANNEL_FOUND;
 2441              		.loc 1 778 0
 2442 0102 0C20     		movs	r0, #12
 777:../../../../../../Middlewares/Third_Party/LoRaWAN/Mac/region/RegionCN470.c ****         return LORAMAC_STATUS_NO_CHANNEL_FOUND;
 2443              		.loc 1 777 0
 2444 0104 039B     		ldr	r3, [sp, #12]
 2445 0106 1A60     		str	r2, [r3]
 2446              	.LVL225:
 2447              	.L231:
 779:../../../../../../Middlewares/Third_Party/LoRaWAN/Mac/region/RegionCN470.c ****     }
 780:../../../../../../Middlewares/Third_Party/LoRaWAN/Mac/region/RegionCN470.c **** }
 2448              		.loc 1 780 0
 2449 0108 1FB0     		add	sp, sp, #124
 2450              		@ sp needed
 2451 010a 3CBC     		pop	{r2, r3, r4, r5}
 2452 010c 9046     		mov	r8, r2
 2453 010e 9946     		mov	r9, r3
 2454 0110 A246     		mov	r10, r4
 2455 0112 AB46     		mov	fp, r5
 2456 0114 F0BD     		pop	{r4, r5, r6, r7, pc}
 2457              	.LVL226:
 2458              	.L244:
 2459              	.LBB72:
 2460              	.LBB69:
 2461              	.LBB66:
 2462              	.LBB64:
 154:../../../../../../Middlewares/Third_Party/LoRaWAN/Mac/region/RegionCN470.c ****                     continue;
 2463              		.loc 1 154 0
 2464 0116 029B     		ldr	r3, [sp, #8]
 2465 0118 0133     		adds	r3, r3, #1
 2466 011a DBB2     		uxtb	r3, r3
 2467 011c 0293     		str	r3, [sp, #8]
 2468              	.LVL227:
 2469 011e DCE7     		b	.L224
 2470              	.LVL228:
 2471              	.L222:
 2472              	.LBE64:
 2473              	.LBE66:
 2474              	.LBE69:
 2475              	.LBE72:
 757:../../../../../../Middlewares/Third_Party/LoRaWAN/Mac/region/RegionCN470.c ****     }
 2476              		.loc 1 757 0
 2477 0120 6068     		ldr	r0, [r4, #4]
 2478 0122 2568     		ldr	r5, [r4]
 2479 0124 FFF7FEFF 		bl	TimerGetElapsedTime
 2480              	.LVL229:
ARM GAS  C:\Users\EBANO_~1\AppData\Local\Temp\cchbxRq9.s 			page 62


 2481 0128 2B1A     		subs	r3, r5, r0
 2482 012a 0493     		str	r3, [sp, #16]
 2483              	.LVL230:
 2484              	.L230:
 773:../../../../../../Middlewares/Third_Party/LoRaWAN/Mac/region/RegionCN470.c ****             return LORAMAC_STATUS_DUTYCYCLE_RESTRICTED;
 2485              		.loc 1 773 0
 2486 012c 039B     		ldr	r3, [sp, #12]
 2487 012e 049A     		ldr	r2, [sp, #16]
 774:../../../../../../Middlewares/Third_Party/LoRaWAN/Mac/region/RegionCN470.c ****         }
 2488              		.loc 1 774 0
 2489 0130 0B20     		movs	r0, #11
 773:../../../../../../Middlewares/Third_Party/LoRaWAN/Mac/region/RegionCN470.c ****             return LORAMAC_STATUS_DUTYCYCLE_RESTRICTED;
 2490              		.loc 1 773 0
 2491 0132 1A60     		str	r2, [r3]
 774:../../../../../../Middlewares/Third_Party/LoRaWAN/Mac/region/RegionCN470.c ****         }
 2492              		.loc 1 774 0
 2493 0134 E8E7     		b	.L231
 2494              	.LVL231:
 2495              	.L245:
 763:../../../../../../Middlewares/Third_Party/LoRaWAN/Mac/region/RegionCN470.c **** 
 2496              		.loc 1 763 0
 2497 0136 5946     		mov	r1, fp
 2498 0138 0020     		movs	r0, #0
 2499 013a 0139     		subs	r1, r1, #1
 2500 013c FFF7FEFF 		bl	randr
 2501              	.LVL232:
 2502 0140 06AB     		add	r3, sp, #24
 2503 0142 1B5C     		ldrb	r3, [r3, r0]
 2504 0144 059A     		ldr	r2, [sp, #20]
 766:../../../../../../Middlewares/Third_Party/LoRaWAN/Mac/region/RegionCN470.c ****     }
 2505              		.loc 1 766 0
 2506 0146 0020     		movs	r0, #0
 763:../../../../../../Middlewares/Third_Party/LoRaWAN/Mac/region/RegionCN470.c **** 
 2507              		.loc 1 763 0
 2508 0148 1370     		strb	r3, [r2]
 765:../../../../../../Middlewares/Third_Party/LoRaWAN/Mac/region/RegionCN470.c ****         return LORAMAC_STATUS_OK;
 2509              		.loc 1 765 0
 2510 014a 0023     		movs	r3, #0
 2511 014c 039A     		ldr	r2, [sp, #12]
 2512 014e 1360     		str	r3, [r2]
 766:../../../../../../Middlewares/Third_Party/LoRaWAN/Mac/region/RegionCN470.c ****     }
 2513              		.loc 1 766 0
 2514 0150 DAE7     		b	.L231
 2515              	.L247:
 2516 0152 C046     		.align	2
 2517              	.L246:
 2518 0154 90040000 		.word	NvmCtx+1168
 2519 0158 80040000 		.word	NvmCtx+1152
 2520 015c 80FBFFFF 		.word	-1152
 2521              		.cfi_endproc
 2522              	.LFE61:
 2523              		.size	RegionCN470NextChannel, .-RegionCN470NextChannel
 2524              		.section	.text.RegionCN470ChannelAdd,"ax",%progbits
 2525              		.align	1
 2526              		.p2align 2,,3
 2527              		.global	RegionCN470ChannelAdd
 2528              		.syntax unified
ARM GAS  C:\Users\EBANO_~1\AppData\Local\Temp\cchbxRq9.s 			page 63


 2529              		.code	16
 2530              		.thumb_func
 2531              		.fpu softvfp
 2532              		.type	RegionCN470ChannelAdd, %function
 2533              	RegionCN470ChannelAdd:
 2534              	.LFB62:
 781:../../../../../../Middlewares/Third_Party/LoRaWAN/Mac/region/RegionCN470.c **** 
 782:../../../../../../Middlewares/Third_Party/LoRaWAN/Mac/region/RegionCN470.c **** LoRaMacStatus_t RegionCN470ChannelAdd( ChannelAddParams_t* channelAdd )
 783:../../../../../../Middlewares/Third_Party/LoRaWAN/Mac/region/RegionCN470.c **** {
 2535              		.loc 1 783 0
 2536              		.cfi_startproc
 2537              		@ args = 0, pretend = 0, frame = 0
 2538              		@ frame_needed = 0, uses_anonymous_args = 0
 2539              		@ link register save eliminated.
 2540              	.LVL233:
 784:../../../../../../Middlewares/Third_Party/LoRaWAN/Mac/region/RegionCN470.c ****     return LORAMAC_STATUS_PARAMETER_INVALID;
 785:../../../../../../Middlewares/Third_Party/LoRaWAN/Mac/region/RegionCN470.c **** }
 2541              		.loc 1 785 0
 2542 0000 0320     		movs	r0, #3
 2543              	.LVL234:
 2544              		@ sp needed
 2545 0002 7047     		bx	lr
 2546              		.cfi_endproc
 2547              	.LFE62:
 2548              		.size	RegionCN470ChannelAdd, .-RegionCN470ChannelAdd
 2549              		.section	.text.RegionCN470ChannelsRemove,"ax",%progbits
 2550              		.align	1
 2551              		.p2align 2,,3
 2552              		.global	RegionCN470ChannelsRemove
 2553              		.syntax unified
 2554              		.code	16
 2555              		.thumb_func
 2556              		.fpu softvfp
 2557              		.type	RegionCN470ChannelsRemove, %function
 2558              	RegionCN470ChannelsRemove:
 2559              	.LFB63:
 786:../../../../../../Middlewares/Third_Party/LoRaWAN/Mac/region/RegionCN470.c **** 
 787:../../../../../../Middlewares/Third_Party/LoRaWAN/Mac/region/RegionCN470.c **** bool RegionCN470ChannelsRemove( ChannelRemoveParams_t* channelRemove  )
 788:../../../../../../Middlewares/Third_Party/LoRaWAN/Mac/region/RegionCN470.c **** {
 2560              		.loc 1 788 0
 2561              		.cfi_startproc
 2562              		@ args = 0, pretend = 0, frame = 0
 2563              		@ frame_needed = 0, uses_anonymous_args = 0
 2564              		@ link register save eliminated.
 2565              	.LVL235:
 789:../../../../../../Middlewares/Third_Party/LoRaWAN/Mac/region/RegionCN470.c ****     return LORAMAC_STATUS_PARAMETER_INVALID;
 790:../../../../../../Middlewares/Third_Party/LoRaWAN/Mac/region/RegionCN470.c **** }
 2566              		.loc 1 790 0
 2567 0000 0120     		movs	r0, #1
 2568              	.LVL236:
 2569              		@ sp needed
 2570 0002 7047     		bx	lr
 2571              		.cfi_endproc
 2572              	.LFE63:
 2573              		.size	RegionCN470ChannelsRemove, .-RegionCN470ChannelsRemove
 2574              		.section	.text.RegionCN470SetContinuousWave,"ax",%progbits
 2575              		.align	1
ARM GAS  C:\Users\EBANO_~1\AppData\Local\Temp\cchbxRq9.s 			page 64


 2576              		.p2align 2,,3
 2577              		.global	RegionCN470SetContinuousWave
 2578              		.syntax unified
 2579              		.code	16
 2580              		.thumb_func
 2581              		.fpu softvfp
 2582              		.type	RegionCN470SetContinuousWave, %function
 2583              	RegionCN470SetContinuousWave:
 2584              	.LFB64:
 791:../../../../../../Middlewares/Third_Party/LoRaWAN/Mac/region/RegionCN470.c **** 
 792:../../../../../../Middlewares/Third_Party/LoRaWAN/Mac/region/RegionCN470.c **** void RegionCN470SetContinuousWave( ContinuousWaveParams_t* continuousWave )
 793:../../../../../../Middlewares/Third_Party/LoRaWAN/Mac/region/RegionCN470.c **** {
 2585              		.loc 1 793 0
 2586              		.cfi_startproc
 2587              		@ args = 0, pretend = 0, frame = 8
 2588              		@ frame_needed = 0, uses_anonymous_args = 0
 2589              	.LVL237:
 2590 0000 F0B5     		push	{r4, r5, r6, r7, lr}
 2591              	.LCFI27:
 2592              		.cfi_def_cfa_offset 20
 2593              		.cfi_offset 4, -20
 2594              		.cfi_offset 5, -16
 2595              		.cfi_offset 6, -12
 2596              		.cfi_offset 7, -8
 2597              		.cfi_offset 14, -4
 2598 0002 0400     		movs	r4, r0
 794:../../../../../../Middlewares/Third_Party/LoRaWAN/Mac/region/RegionCN470.c ****     int8_t txPowerLimited = LimitTxPower( continuousWave->TxPower, NvmCtx.Bands[NvmCtx.Channels[con
 2599              		.loc 1 794 0
 2600 0004 0278     		ldrb	r2, [r0]
 2601              	.LVL238:
 795:../../../../../../Middlewares/Third_Party/LoRaWAN/Mac/region/RegionCN470.c ****     int8_t phyTxPower = 0;
 796:../../../../../../Middlewares/Third_Party/LoRaWAN/Mac/region/RegionCN470.c ****     uint32_t frequency = NvmCtx.Channels[continuousWave->Channel].Frequency;
 2602              		.loc 1 796 0
 2603 0006 1048     		ldr	r0, .L252
 2604              	.LVL239:
 2605 0008 5300     		lsls	r3, r2, #1
 2606 000a 9B18     		adds	r3, r3, r2
 2607 000c 9B00     		lsls	r3, r3, #2
 2608 000e 1D58     		ldr	r5, [r3, r0]
 2609              	.LVL240:
 794:../../../../../../Middlewares/Third_Party/LoRaWAN/Mac/region/RegionCN470.c ****     int8_t txPowerLimited = LimitTxPower( continuousWave->TxPower, NvmCtx.Bands[NvmCtx.Channels[con
 2610              		.loc 1 794 0
 2611 0010 C318     		adds	r3, r0, r3
 2612 0012 5B7A     		ldrb	r3, [r3, #9]
 2613              	.LBB73:
 2614              	.LBB74:
 103:../../../../../../Middlewares/Third_Party/LoRaWAN/Mac/region/RegionCN470.c **** 
 2615              		.loc 1 103 0
 2616 0014 A678     		ldrb	r6, [r4, #2]
 2617              	.LBE74:
 2618              	.LBE73:
 794:../../../../../../Middlewares/Third_Party/LoRaWAN/Mac/region/RegionCN470.c ****     int8_t txPowerLimited = LimitTxPower( continuousWave->TxPower, NvmCtx.Bands[NvmCtx.Channels[con
 2619              		.loc 1 794 0
 2620 0016 4833     		adds	r3, r3, #72
 2621 0018 1B01     		lsls	r3, r3, #4
 2622 001a C018     		adds	r0, r0, r3
 2623              	.LBB77:
ARM GAS  C:\Users\EBANO_~1\AppData\Local\Temp\cchbxRq9.s 			page 65


 2624              	.LBB75:
 103:../../../../../../Middlewares/Third_Party/LoRaWAN/Mac/region/RegionCN470.c **** 
 2625              		.loc 1 103 0
 2626 001c 8378     		ldrb	r3, [r0, #2]
 2627 001e 77B2     		sxtb	r7, r6
 2628 0020 181C     		adds	r0, r3, #0
 2629 0022 5BB2     		sxtb	r3, r3
 2630              	.LBE75:
 2631              	.LBE77:
 793:../../../../../../Middlewares/Third_Party/LoRaWAN/Mac/region/RegionCN470.c ****     int8_t txPowerLimited = LimitTxPower( continuousWave->TxPower, NvmCtx.Bands[NvmCtx.Channels[con
 2632              		.loc 1 793 0
 2633 0024 83B0     		sub	sp, sp, #12
 2634              	.LCFI28:
 2635              		.cfi_def_cfa_offset 32
 797:../../../../../../Middlewares/Third_Party/LoRaWAN/Mac/region/RegionCN470.c **** 
 798:../../../../../../Middlewares/Third_Party/LoRaWAN/Mac/region/RegionCN470.c ****     // Calculate physical TX power
 799:../../../../../../Middlewares/Third_Party/LoRaWAN/Mac/region/RegionCN470.c ****     phyTxPower = RegionCommonComputeTxPower( txPowerLimited, continuousWave->MaxEirp, continuousWav
 2636              		.loc 1 799 0
 2637 0026 A268     		ldr	r2, [r4, #8]
 2638 0028 6168     		ldr	r1, [r4, #4]
 2639              	.LBB78:
 2640              	.LBB76:
 103:../../../../../../Middlewares/Third_Party/LoRaWAN/Mac/region/RegionCN470.c **** 
 2641              		.loc 1 103 0
 2642 002a BB42     		cmp	r3, r7
 2643 002c 00DA     		bge	.L251
 2644 002e 301C     		adds	r0, r6, #0
 2645              	.L251:
 2646              	.LBE76:
 2647              	.LBE78:
 2648              		.loc 1 799 0
 2649 0030 40B2     		sxtb	r0, r0
 2650 0032 FFF7FEFF 		bl	RegionCommonComputeTxPower
 2651              	.LVL241:
 800:../../../../../../Middlewares/Third_Party/LoRaWAN/Mac/region/RegionCN470.c **** 
 801:../../../../../../Middlewares/Third_Party/LoRaWAN/Mac/region/RegionCN470.c ****     Radio.SetTxContinuousWave( frequency, phyTxPower, continuousWave->Timeout );
 2652              		.loc 1 801 0
 2653 0036 054B     		ldr	r3, .L252+4
 799:../../../../../../Middlewares/Third_Party/LoRaWAN/Mac/region/RegionCN470.c **** 
 2654              		.loc 1 799 0
 2655 0038 0100     		movs	r1, r0
 2656              	.LVL242:
 2657              		.loc 1 801 0
 2658 003a 5B6C     		ldr	r3, [r3, #68]
 2659 003c A289     		ldrh	r2, [r4, #12]
 2660 003e 2800     		movs	r0, r5
 2661 0040 0193     		str	r3, [sp, #4]
 2662 0042 9847     		blx	r3
 2663              	.LVL243:
 802:../../../../../../Middlewares/Third_Party/LoRaWAN/Mac/region/RegionCN470.c **** }
 2664              		.loc 1 802 0
 2665 0044 03B0     		add	sp, sp, #12
 2666              		@ sp needed
 2667              	.LVL244:
 2668              	.LVL245:
 2669 0046 F0BD     		pop	{r4, r5, r6, r7, pc}
 2670              	.L253:
ARM GAS  C:\Users\EBANO_~1\AppData\Local\Temp\cchbxRq9.s 			page 66


 2671              		.align	2
 2672              	.L252:
 2673 0048 00000000 		.word	NvmCtx
 2674 004c 00000000 		.word	Radio
 2675              		.cfi_endproc
 2676              	.LFE64:
 2677              		.size	RegionCN470SetContinuousWave, .-RegionCN470SetContinuousWave
 2678              		.section	.text.RegionCN470ApplyDrOffset,"ax",%progbits
 2679              		.align	1
 2680              		.p2align 2,,3
 2681              		.global	RegionCN470ApplyDrOffset
 2682              		.syntax unified
 2683              		.code	16
 2684              		.thumb_func
 2685              		.fpu softvfp
 2686              		.type	RegionCN470ApplyDrOffset, %function
 2687              	RegionCN470ApplyDrOffset:
 2688              	.LFB65:
 803:../../../../../../Middlewares/Third_Party/LoRaWAN/Mac/region/RegionCN470.c **** 
 804:../../../../../../Middlewares/Third_Party/LoRaWAN/Mac/region/RegionCN470.c **** uint8_t RegionCN470ApplyDrOffset( uint8_t downlinkDwellTime, int8_t dr, int8_t drOffset )
 805:../../../../../../Middlewares/Third_Party/LoRaWAN/Mac/region/RegionCN470.c **** {
 2689              		.loc 1 805 0
 2690              		.cfi_startproc
 2691              		@ args = 0, pretend = 0, frame = 0
 2692              		@ frame_needed = 0, uses_anonymous_args = 0
 2693              		@ link register save eliminated.
 2694              	.LVL246:
 806:../../../../../../Middlewares/Third_Party/LoRaWAN/Mac/region/RegionCN470.c ****     int8_t datarate = dr - drOffset;
 2695              		.loc 1 806 0
 2696 0000 891A     		subs	r1, r1, r2
 2697              	.LVL247:
 2698 0002 49B2     		sxtb	r1, r1
 2699              	.LVL248:
 807:../../../../../../Middlewares/Third_Party/LoRaWAN/Mac/region/RegionCN470.c **** 
 808:../../../../../../Middlewares/Third_Party/LoRaWAN/Mac/region/RegionCN470.c ****     if( datarate < 0 )
 809:../../../../../../Middlewares/Third_Party/LoRaWAN/Mac/region/RegionCN470.c ****     {
 810:../../../../../../Middlewares/Third_Party/LoRaWAN/Mac/region/RegionCN470.c ****         datarate = DR_0;
 811:../../../../../../Middlewares/Third_Party/LoRaWAN/Mac/region/RegionCN470.c ****     }
 812:../../../../../../Middlewares/Third_Party/LoRaWAN/Mac/region/RegionCN470.c ****     return datarate;
 2700              		.loc 1 812 0
 2701 0004 C843     		mvns	r0, r1
 2702              	.LVL249:
 2703 0006 C017     		asrs	r0, r0, #31
 2704 0008 0840     		ands	r0, r1
 2705 000a C0B2     		uxtb	r0, r0
 813:../../../../../../Middlewares/Third_Party/LoRaWAN/Mac/region/RegionCN470.c **** }
 2706              		.loc 1 813 0
 2707              		@ sp needed
 2708 000c 7047     		bx	lr
 2709              		.cfi_endproc
 2710              	.LFE65:
 2711              		.size	RegionCN470ApplyDrOffset, .-RegionCN470ApplyDrOffset
 2712 000e C046     		.section	.text.RegionCN470RxBeaconSetup,"ax",%progbits
 2713              		.align	1
 2714              		.p2align 2,,3
 2715              		.global	RegionCN470RxBeaconSetup
 2716              		.syntax unified
ARM GAS  C:\Users\EBANO_~1\AppData\Local\Temp\cchbxRq9.s 			page 67


 2717              		.code	16
 2718              		.thumb_func
 2719              		.fpu softvfp
 2720              		.type	RegionCN470RxBeaconSetup, %function
 2721              	RegionCN470RxBeaconSetup:
 2722              	.LFB66:
 814:../../../../../../Middlewares/Third_Party/LoRaWAN/Mac/region/RegionCN470.c **** 
 815:../../../../../../Middlewares/Third_Party/LoRaWAN/Mac/region/RegionCN470.c **** void RegionCN470RxBeaconSetup( RxBeaconSetup_t* rxBeaconSetup, uint8_t* outDr )
 816:../../../../../../Middlewares/Third_Party/LoRaWAN/Mac/region/RegionCN470.c **** {
 2723              		.loc 1 816 0
 2724              		.cfi_startproc
 2725              		@ args = 0, pretend = 0, frame = 24
 2726              		@ frame_needed = 0, uses_anonymous_args = 0
 2727              	.LVL250:
 2728 0000 10B5     		push	{r4, lr}
 2729              	.LCFI29:
 2730              		.cfi_def_cfa_offset 8
 2731              		.cfi_offset 4, -8
 2732              		.cfi_offset 14, -4
 817:../../../../../../Middlewares/Third_Party/LoRaWAN/Mac/region/RegionCN470.c ****     RegionCommonRxBeaconSetupParams_t regionCommonRxBeaconSetup;
 818:../../../../../../Middlewares/Third_Party/LoRaWAN/Mac/region/RegionCN470.c **** 
 819:../../../../../../Middlewares/Third_Party/LoRaWAN/Mac/region/RegionCN470.c ****     regionCommonRxBeaconSetup.Datarates = DataratesCN470;
 2733              		.loc 1 819 0
 2734 0002 0B4A     		ldr	r2, .L257
 816:../../../../../../Middlewares/Third_Party/LoRaWAN/Mac/region/RegionCN470.c ****     RegionCommonRxBeaconSetupParams_t regionCommonRxBeaconSetup;
 2735              		.loc 1 816 0
 2736 0004 86B0     		sub	sp, sp, #24
 2737              	.LCFI30:
 2738              		.cfi_def_cfa_offset 32
 2739              		.loc 1 819 0
 2740 0006 1832     		adds	r2, r2, #24
 2741 0008 0192     		str	r2, [sp, #4]
 820:../../../../../../Middlewares/Third_Party/LoRaWAN/Mac/region/RegionCN470.c ****     regionCommonRxBeaconSetup.Frequency = rxBeaconSetup->Frequency;
 2742              		.loc 1 820 0
 2743 000a 8268     		ldr	r2, [r0, #8]
 819:../../../../../../Middlewares/Third_Party/LoRaWAN/Mac/region/RegionCN470.c ****     regionCommonRxBeaconSetup.Frequency = rxBeaconSetup->Frequency;
 2744              		.loc 1 819 0
 2745 000c 01AB     		add	r3, sp, #4
 2746              		.loc 1 820 0
 2747 000e 0292     		str	r2, [sp, #8]
 821:../../../../../../Middlewares/Third_Party/LoRaWAN/Mac/region/RegionCN470.c ****     regionCommonRxBeaconSetup.BeaconSize = CN470_BEACON_SIZE;
 2748              		.loc 1 821 0
 2749 0010 084A     		ldr	r2, .L257+4
 816:../../../../../../Middlewares/Third_Party/LoRaWAN/Mac/region/RegionCN470.c ****     RegionCommonRxBeaconSetupParams_t regionCommonRxBeaconSetup;
 2750              		.loc 1 816 0
 2751 0012 0C00     		movs	r4, r1
 2752              		.loc 1 821 0
 2753 0014 1A81     		strh	r2, [r3, #8]
 822:../../../../../../Middlewares/Third_Party/LoRaWAN/Mac/region/RegionCN470.c ****     regionCommonRxBeaconSetup.BeaconDatarate = CN470_BEACON_CHANNEL_DR;
 2754              		.loc 1 822 0
 2755 0016 0022     		movs	r2, #0
 2756 0018 9A72     		strb	r2, [r3, #10]
 823:../../../../../../Middlewares/Third_Party/LoRaWAN/Mac/region/RegionCN470.c ****     regionCommonRxBeaconSetup.BeaconChannelBW = CN470_BEACON_CHANNEL_BW;
 824:../../../../../../Middlewares/Third_Party/LoRaWAN/Mac/region/RegionCN470.c ****     regionCommonRxBeaconSetup.RxTime = rxBeaconSetup->RxTime;
 2757              		.loc 1 824 0
 2758 001a 4268     		ldr	r2, [r0, #4]
 2759 001c 0492     		str	r2, [sp, #16]
ARM GAS  C:\Users\EBANO_~1\AppData\Local\Temp\cchbxRq9.s 			page 68


 825:../../../../../../Middlewares/Third_Party/LoRaWAN/Mac/region/RegionCN470.c ****     regionCommonRxBeaconSetup.SymbolTimeout = rxBeaconSetup->SymbolTimeout;
 2760              		.loc 1 825 0
 2761 001e 0288     		ldrh	r2, [r0]
 826:../../../../../../Middlewares/Third_Party/LoRaWAN/Mac/region/RegionCN470.c **** 
 827:../../../../../../Middlewares/Third_Party/LoRaWAN/Mac/region/RegionCN470.c ****     RegionCommonRxBeaconSetup( &regionCommonRxBeaconSetup );
 2762              		.loc 1 827 0
 2763 0020 1800     		movs	r0, r3
 2764              	.LVL251:
 825:../../../../../../Middlewares/Third_Party/LoRaWAN/Mac/region/RegionCN470.c ****     regionCommonRxBeaconSetup.SymbolTimeout = rxBeaconSetup->SymbolTimeout;
 2765              		.loc 1 825 0
 2766 0022 1A82     		strh	r2, [r3, #16]
 2767              		.loc 1 827 0
 2768 0024 FFF7FEFF 		bl	RegionCommonRxBeaconSetup
 2769              	.LVL252:
 828:../../../../../../Middlewares/Third_Party/LoRaWAN/Mac/region/RegionCN470.c **** 
 829:../../../../../../Middlewares/Third_Party/LoRaWAN/Mac/region/RegionCN470.c ****     // Store downlink datarate
 830:../../../../../../Middlewares/Third_Party/LoRaWAN/Mac/region/RegionCN470.c ****     *outDr = CN470_BEACON_CHANNEL_DR;
 2770              		.loc 1 830 0
 2771 0028 0223     		movs	r3, #2
 2772 002a 2370     		strb	r3, [r4]
 831:../../../../../../Middlewares/Third_Party/LoRaWAN/Mac/region/RegionCN470.c **** }
 2773              		.loc 1 831 0
 2774 002c 06B0     		add	sp, sp, #24
 2775              		@ sp needed
 2776              	.LVL253:
 2777 002e 10BD     		pop	{r4, pc}
 2778              	.L258:
 2779              		.align	2
 2780              	.L257:
 2781 0030 AC000000 		.word	.LANCHOR1
 2782 0034 13020000 		.word	531
 2783              		.cfi_endproc
 2784              	.LFE66:
 2785              		.size	RegionCN470RxBeaconSetup, .-RegionCN470RxBeaconSetup
 2786              		.set	MaxPayloadOfDatarateRepeaterCN470,MaxPayloadOfDatarateCN470
 2787              		.bss
 2788              		.align	2
 2789              		.type	NvmCtx, %object
 2790              		.size	NvmCtx, 1192
 2791              	NvmCtx:
 2792 0000 00000000 		.space	1192
 2792      00000000 
 2792      00000000 
 2792      00000000 
 2792      00000000 
 2793              		.section	.rodata
 2794              		.align	2
 2795              		.set	.LANCHOR1,. + 0
 2796              		.type	BandwidthsCN470, %object
 2797              		.size	BandwidthsCN470, 24
 2798              	BandwidthsCN470:
 2799 00ac 48E80100 		.word	125000
 2800 00b0 48E80100 		.word	125000
 2801 00b4 48E80100 		.word	125000
 2802 00b8 48E80100 		.word	125000
 2803 00bc 48E80100 		.word	125000
 2804 00c0 48E80100 		.word	125000
ARM GAS  C:\Users\EBANO_~1\AppData\Local\Temp\cchbxRq9.s 			page 69


 2805              		.type	DataratesCN470, %object
 2806              		.size	DataratesCN470, 6
 2807              	DataratesCN470:
 2808 00c4 0C       		.byte	12
 2809 00c5 0B       		.byte	11
 2810 00c6 0A       		.byte	10
 2811 00c7 09       		.byte	9
 2812 00c8 08       		.byte	8
 2813 00c9 07       		.byte	7
 2814 00ca 0000     		.align	2
 2815              		.set	.LANCHOR0,. + 0
 2816              		.type	MaxPayloadOfDatarateCN470, %object
 2817              		.size	MaxPayloadOfDatarateCN470, 6
 2818              	MaxPayloadOfDatarateCN470:
 2819 00cc 33       		.byte	51
 2820 00cd 33       		.byte	51
 2821 00ce 33       		.byte	51
 2822 00cf 73       		.byte	115
 2823 00d0 DE       		.byte	-34
 2824 00d1 DE       		.byte	-34
 2825              		.text
 2826              	.Letext0:
 2827              		.file 2 "c:\\program files (x86)\\gnu tools arm embedded\\7 2018-q2-update\\arm-none-eabi\\include
 2828              		.file 3 "c:\\program files (x86)\\gnu tools arm embedded\\7 2018-q2-update\\arm-none-eabi\\include
 2829              		.file 4 "../../../../../../Drivers/CMSIS/Device/ST/STM32L0xx/Include/system_stm32l0xx.h"
 2830              		.file 5 "c:\\program files (x86)\\gnu tools arm embedded\\7 2018-q2-update\\lib\\gcc\\arm-none-eab
 2831              		.file 6 "c:\\program files (x86)\\gnu tools arm embedded\\7 2018-q2-update\\arm-none-eabi\\include
 2832              		.file 7 "c:\\program files (x86)\\gnu tools arm embedded\\7 2018-q2-update\\arm-none-eabi\\include
 2833              		.file 8 "c:\\program files (x86)\\gnu tools arm embedded\\7 2018-q2-update\\arm-none-eabi\\include
 2834              		.file 9 "c:\\program files (x86)\\gnu tools arm embedded\\7 2018-q2-update\\arm-none-eabi\\include
 2835              		.file 10 "../../../../../../Middlewares/Third_Party/LoRaWAN/Utilities/utilities.h"
 2836              		.file 11 "../../../../../../Middlewares/Third_Party/LoRaWAN/Mac/LoRaMacTypes.h"
 2837              		.file 12 "c:\\program files (x86)\\gnu tools arm embedded\\7 2018-q2-update\\arm-none-eabi\\includ
 2838              		.file 13 "../../../../../../Middlewares/Third_Party/LoRaWAN/Phy/radio.h"
 2839              		.file 14 "../../../../../../Middlewares/Third_Party/LoRaWAN/Mac/LoRaMac.h"
 2840              		.file 15 "../../../../../../Middlewares/Third_Party/LoRaWAN/Mac/region/Region.h"
 2841              		.file 16 "../../../../../../Middlewares/Third_Party/LoRaWAN/Mac/region/RegionCommon.h"
 2842              		.file 17 "../../../../../../Middlewares/Third_Party/LoRaWAN/Mac/region/RegionCN470.h"
 2843              		.file 18 "../../../../../../Middlewares/Third_Party/LoRaWAN/Utilities/timeServer.h"
 2844              		.file 19 "<built-in>"