ARM GAS  C:\Users\EBANO_~1\AppData\Local\Temp\ccLo4wHn.s 			page 1


   1              		.cpu cortex-m0plus
   2              		.eabi_attribute 20, 1
   3              		.eabi_attribute 21, 1
   4              		.eabi_attribute 23, 3
   5              		.eabi_attribute 24, 1
   6              		.eabi_attribute 25, 1
   7              		.eabi_attribute 26, 1
   8              		.eabi_attribute 30, 2
   9              		.eabi_attribute 34, 0
  10              		.eabi_attribute 18, 4
  11              		.file	"RegionKR920.c"
  12              		.text
  13              	.Ltext0:
  14              		.cfi_sections	.debug_frame
  15              		.section	.text.RegionKR920GetPhyParam,"ax",%progbits
  16              		.align	1
  17              		.p2align 2,,3
  18              		.global	RegionKR920GetPhyParam
  19              		.syntax unified
  20              		.code	16
  21              		.thumb_func
  22              		.fpu softvfp
  23              		.type	RegionKR920GetPhyParam, %function
  24              	RegionKR920GetPhyParam:
  25              	.LFB45:
  26              		.file 1 "../../../../../../Middlewares/Third_Party/LoRaWAN/Mac/region/RegionKR920.c"
   1:../../../../../../Middlewares/Third_Party/LoRaWAN/Mac/region/RegionKR920.c **** /*!
   2:../../../../../../Middlewares/Third_Party/LoRaWAN/Mac/region/RegionKR920.c ****  * \file      RegionKR920.c
   3:../../../../../../Middlewares/Third_Party/LoRaWAN/Mac/region/RegionKR920.c ****  *
   4:../../../../../../Middlewares/Third_Party/LoRaWAN/Mac/region/RegionKR920.c ****  * \brief     Region implementation for KR920
   5:../../../../../../Middlewares/Third_Party/LoRaWAN/Mac/region/RegionKR920.c ****  *
   6:../../../../../../Middlewares/Third_Party/LoRaWAN/Mac/region/RegionKR920.c ****  * \copyright Revised BSD License, see section \ref LICENSE.
   7:../../../../../../Middlewares/Third_Party/LoRaWAN/Mac/region/RegionKR920.c ****  *
   8:../../../../../../Middlewares/Third_Party/LoRaWAN/Mac/region/RegionKR920.c ****  * \code
   9:../../../../../../Middlewares/Third_Party/LoRaWAN/Mac/region/RegionKR920.c ****  *                ______                              _
  10:../../../../../../Middlewares/Third_Party/LoRaWAN/Mac/region/RegionKR920.c ****  *               / _____)             _              | |
  11:../../../../../../Middlewares/Third_Party/LoRaWAN/Mac/region/RegionKR920.c ****  *              ( (____  _____ ____ _| |_ _____  ____| |__
  12:../../../../../../Middlewares/Third_Party/LoRaWAN/Mac/region/RegionKR920.c ****  *               \____ \| ___ |    (_   _) ___ |/ ___)  _ \
  13:../../../../../../Middlewares/Third_Party/LoRaWAN/Mac/region/RegionKR920.c ****  *               _____) ) ____| | | || |_| ____( (___| | | |
  14:../../../../../../Middlewares/Third_Party/LoRaWAN/Mac/region/RegionKR920.c ****  *              (______/|_____)_|_|_| \__)_____)\____)_| |_|
  15:../../../../../../Middlewares/Third_Party/LoRaWAN/Mac/region/RegionKR920.c ****  *              (C)2013-2017 Semtech
  16:../../../../../../Middlewares/Third_Party/LoRaWAN/Mac/region/RegionKR920.c ****  *
  17:../../../../../../Middlewares/Third_Party/LoRaWAN/Mac/region/RegionKR920.c ****  *               ___ _____ _   ___ _  _____ ___  ___  ___ ___
  18:../../../../../../Middlewares/Third_Party/LoRaWAN/Mac/region/RegionKR920.c ****  *              / __|_   _/_\ / __| |/ / __/ _ \| _ \/ __| __|
  19:../../../../../../Middlewares/Third_Party/LoRaWAN/Mac/region/RegionKR920.c ****  *              \__ \ | |/ _ \ (__| ' <| _| (_) |   / (__| _|
  20:../../../../../../Middlewares/Third_Party/LoRaWAN/Mac/region/RegionKR920.c ****  *              |___/ |_/_/ \_\___|_|\_\_| \___/|_|_\\___|___|
  21:../../../../../../Middlewares/Third_Party/LoRaWAN/Mac/region/RegionKR920.c ****  *              embedded.connectivity.solutions===============
  22:../../../../../../Middlewares/Third_Party/LoRaWAN/Mac/region/RegionKR920.c ****  *
  23:../../../../../../Middlewares/Third_Party/LoRaWAN/Mac/region/RegionKR920.c ****  * \endcode
  24:../../../../../../Middlewares/Third_Party/LoRaWAN/Mac/region/RegionKR920.c ****  *
  25:../../../../../../Middlewares/Third_Party/LoRaWAN/Mac/region/RegionKR920.c ****  * \author    Miguel Luis ( Semtech )
  26:../../../../../../Middlewares/Third_Party/LoRaWAN/Mac/region/RegionKR920.c ****  *
  27:../../../../../../Middlewares/Third_Party/LoRaWAN/Mac/region/RegionKR920.c ****  * \author    Gregory Cristian ( Semtech )
  28:../../../../../../Middlewares/Third_Party/LoRaWAN/Mac/region/RegionKR920.c ****  *
  29:../../../../../../Middlewares/Third_Party/LoRaWAN/Mac/region/RegionKR920.c ****  * \author    Daniel Jaeckle ( STACKFORCE )
  30:../../../../../../Middlewares/Third_Party/LoRaWAN/Mac/region/RegionKR920.c **** */
  31:../../../../../../Middlewares/Third_Party/LoRaWAN/Mac/region/RegionKR920.c **** #include "utilities.h"
ARM GAS  C:\Users\EBANO_~1\AppData\Local\Temp\ccLo4wHn.s 			page 2


  32:../../../../../../Middlewares/Third_Party/LoRaWAN/Mac/region/RegionKR920.c **** 
  33:../../../../../../Middlewares/Third_Party/LoRaWAN/Mac/region/RegionKR920.c **** #include "RegionCommon.h"
  34:../../../../../../Middlewares/Third_Party/LoRaWAN/Mac/region/RegionKR920.c **** #include "RegionKR920.h"
  35:../../../../../../Middlewares/Third_Party/LoRaWAN/Mac/region/RegionKR920.c **** #include "util_console.h"
  36:../../../../../../Middlewares/Third_Party/LoRaWAN/Mac/region/RegionKR920.c **** 
  37:../../../../../../Middlewares/Third_Party/LoRaWAN/Mac/region/RegionKR920.c **** // Definitions
  38:../../../../../../Middlewares/Third_Party/LoRaWAN/Mac/region/RegionKR920.c **** #define CHANNELS_MASK_SIZE              1
  39:../../../../../../Middlewares/Third_Party/LoRaWAN/Mac/region/RegionKR920.c **** 
  40:../../../../../../Middlewares/Third_Party/LoRaWAN/Mac/region/RegionKR920.c **** /*!
  41:../../../../../../Middlewares/Third_Party/LoRaWAN/Mac/region/RegionKR920.c ****  * Region specific context
  42:../../../../../../Middlewares/Third_Party/LoRaWAN/Mac/region/RegionKR920.c ****  */
  43:../../../../../../Middlewares/Third_Party/LoRaWAN/Mac/region/RegionKR920.c **** typedef struct sRegionKR920NvmCtx
  44:../../../../../../Middlewares/Third_Party/LoRaWAN/Mac/region/RegionKR920.c **** {
  45:../../../../../../Middlewares/Third_Party/LoRaWAN/Mac/region/RegionKR920.c ****     /*!
  46:../../../../../../Middlewares/Third_Party/LoRaWAN/Mac/region/RegionKR920.c ****      * LoRaMAC channels
  47:../../../../../../Middlewares/Third_Party/LoRaWAN/Mac/region/RegionKR920.c ****      */
  48:../../../../../../Middlewares/Third_Party/LoRaWAN/Mac/region/RegionKR920.c ****     ChannelParams_t Channels[ KR920_MAX_NB_CHANNELS ];
  49:../../../../../../Middlewares/Third_Party/LoRaWAN/Mac/region/RegionKR920.c ****     /*!
  50:../../../../../../Middlewares/Third_Party/LoRaWAN/Mac/region/RegionKR920.c ****      * LoRaMac bands
  51:../../../../../../Middlewares/Third_Party/LoRaWAN/Mac/region/RegionKR920.c ****      */
  52:../../../../../../Middlewares/Third_Party/LoRaWAN/Mac/region/RegionKR920.c ****     Band_t Bands[ KR920_MAX_NB_BANDS ];
  53:../../../../../../Middlewares/Third_Party/LoRaWAN/Mac/region/RegionKR920.c ****     /*!
  54:../../../../../../Middlewares/Third_Party/LoRaWAN/Mac/region/RegionKR920.c ****      * LoRaMac channels mask
  55:../../../../../../Middlewares/Third_Party/LoRaWAN/Mac/region/RegionKR920.c ****      */
  56:../../../../../../Middlewares/Third_Party/LoRaWAN/Mac/region/RegionKR920.c ****     uint16_t ChannelsMask[ CHANNELS_MASK_SIZE ];
  57:../../../../../../Middlewares/Third_Party/LoRaWAN/Mac/region/RegionKR920.c ****     /*!
  58:../../../../../../Middlewares/Third_Party/LoRaWAN/Mac/region/RegionKR920.c ****      * LoRaMac channels default mask
  59:../../../../../../Middlewares/Third_Party/LoRaWAN/Mac/region/RegionKR920.c ****      */
  60:../../../../../../Middlewares/Third_Party/LoRaWAN/Mac/region/RegionKR920.c ****     uint16_t ChannelsDefaultMask[ CHANNELS_MASK_SIZE ];
  61:../../../../../../Middlewares/Third_Party/LoRaWAN/Mac/region/RegionKR920.c **** }RegionKR920NvmCtx_t;
  62:../../../../../../Middlewares/Third_Party/LoRaWAN/Mac/region/RegionKR920.c **** 
  63:../../../../../../Middlewares/Third_Party/LoRaWAN/Mac/region/RegionKR920.c **** /*
  64:../../../../../../Middlewares/Third_Party/LoRaWAN/Mac/region/RegionKR920.c ****  * Non-volatile module context.
  65:../../../../../../Middlewares/Third_Party/LoRaWAN/Mac/region/RegionKR920.c ****  */
  66:../../../../../../Middlewares/Third_Party/LoRaWAN/Mac/region/RegionKR920.c **** static RegionKR920NvmCtx_t NvmCtx;
  67:../../../../../../Middlewares/Third_Party/LoRaWAN/Mac/region/RegionKR920.c **** 
  68:../../../../../../Middlewares/Third_Party/LoRaWAN/Mac/region/RegionKR920.c **** // Static functions
  69:../../../../../../Middlewares/Third_Party/LoRaWAN/Mac/region/RegionKR920.c **** static int8_t GetNextLowerTxDr( int8_t dr, int8_t minDr )
  70:../../../../../../Middlewares/Third_Party/LoRaWAN/Mac/region/RegionKR920.c **** {
  71:../../../../../../Middlewares/Third_Party/LoRaWAN/Mac/region/RegionKR920.c ****     uint8_t nextLowerDr = 0;
  72:../../../../../../Middlewares/Third_Party/LoRaWAN/Mac/region/RegionKR920.c **** 
  73:../../../../../../Middlewares/Third_Party/LoRaWAN/Mac/region/RegionKR920.c ****     if( dr == minDr )
  74:../../../../../../Middlewares/Third_Party/LoRaWAN/Mac/region/RegionKR920.c ****     {
  75:../../../../../../Middlewares/Third_Party/LoRaWAN/Mac/region/RegionKR920.c ****         nextLowerDr = minDr;
  76:../../../../../../Middlewares/Third_Party/LoRaWAN/Mac/region/RegionKR920.c ****     }
  77:../../../../../../Middlewares/Third_Party/LoRaWAN/Mac/region/RegionKR920.c ****     else
  78:../../../../../../Middlewares/Third_Party/LoRaWAN/Mac/region/RegionKR920.c ****     {
  79:../../../../../../Middlewares/Third_Party/LoRaWAN/Mac/region/RegionKR920.c ****         nextLowerDr = dr - 1;
  80:../../../../../../Middlewares/Third_Party/LoRaWAN/Mac/region/RegionKR920.c ****     }
  81:../../../../../../Middlewares/Third_Party/LoRaWAN/Mac/region/RegionKR920.c ****     return nextLowerDr;
  82:../../../../../../Middlewares/Third_Party/LoRaWAN/Mac/region/RegionKR920.c **** }
  83:../../../../../../Middlewares/Third_Party/LoRaWAN/Mac/region/RegionKR920.c **** 
  84:../../../../../../Middlewares/Third_Party/LoRaWAN/Mac/region/RegionKR920.c **** static int8_t GetMaxEIRP( uint32_t freq )
  85:../../../../../../Middlewares/Third_Party/LoRaWAN/Mac/region/RegionKR920.c **** {
  86:../../../../../../Middlewares/Third_Party/LoRaWAN/Mac/region/RegionKR920.c ****     if( freq >= 922100000 )
  87:../../../../../../Middlewares/Third_Party/LoRaWAN/Mac/region/RegionKR920.c ****     {// Limit to 14dBm
  88:../../../../../../Middlewares/Third_Party/LoRaWAN/Mac/region/RegionKR920.c ****         return KR920_DEFAULT_MAX_EIRP_HIGH;
ARM GAS  C:\Users\EBANO_~1\AppData\Local\Temp\ccLo4wHn.s 			page 3


  89:../../../../../../Middlewares/Third_Party/LoRaWAN/Mac/region/RegionKR920.c ****     }
  90:../../../../../../Middlewares/Third_Party/LoRaWAN/Mac/region/RegionKR920.c ****     // Limit to 10dBm
  91:../../../../../../Middlewares/Third_Party/LoRaWAN/Mac/region/RegionKR920.c ****     return KR920_DEFAULT_MAX_EIRP_LOW;
  92:../../../../../../Middlewares/Third_Party/LoRaWAN/Mac/region/RegionKR920.c **** }
  93:../../../../../../Middlewares/Third_Party/LoRaWAN/Mac/region/RegionKR920.c **** 
  94:../../../../../../Middlewares/Third_Party/LoRaWAN/Mac/region/RegionKR920.c **** static uint32_t GetBandwidth( uint32_t drIndex )
  95:../../../../../../Middlewares/Third_Party/LoRaWAN/Mac/region/RegionKR920.c **** {
  96:../../../../../../Middlewares/Third_Party/LoRaWAN/Mac/region/RegionKR920.c ****     switch( BandwidthsKR920[drIndex] )
  97:../../../../../../Middlewares/Third_Party/LoRaWAN/Mac/region/RegionKR920.c ****     {
  98:../../../../../../Middlewares/Third_Party/LoRaWAN/Mac/region/RegionKR920.c ****         default:
  99:../../../../../../Middlewares/Third_Party/LoRaWAN/Mac/region/RegionKR920.c ****         case 125000:
 100:../../../../../../Middlewares/Third_Party/LoRaWAN/Mac/region/RegionKR920.c ****             return 0;
 101:../../../../../../Middlewares/Third_Party/LoRaWAN/Mac/region/RegionKR920.c ****         case 250000:
 102:../../../../../../Middlewares/Third_Party/LoRaWAN/Mac/region/RegionKR920.c ****             return 1;
 103:../../../../../../Middlewares/Third_Party/LoRaWAN/Mac/region/RegionKR920.c ****         case 500000:
 104:../../../../../../Middlewares/Third_Party/LoRaWAN/Mac/region/RegionKR920.c ****             return 2;
 105:../../../../../../Middlewares/Third_Party/LoRaWAN/Mac/region/RegionKR920.c ****     }
 106:../../../../../../Middlewares/Third_Party/LoRaWAN/Mac/region/RegionKR920.c **** }
 107:../../../../../../Middlewares/Third_Party/LoRaWAN/Mac/region/RegionKR920.c **** 
 108:../../../../../../Middlewares/Third_Party/LoRaWAN/Mac/region/RegionKR920.c **** static int8_t LimitTxPower( int8_t txPower, int8_t maxBandTxPower, int8_t datarate, uint16_t* chann
 109:../../../../../../Middlewares/Third_Party/LoRaWAN/Mac/region/RegionKR920.c **** {
 110:../../../../../../Middlewares/Third_Party/LoRaWAN/Mac/region/RegionKR920.c ****     int8_t txPowerResult = txPower;
 111:../../../../../../Middlewares/Third_Party/LoRaWAN/Mac/region/RegionKR920.c **** 
 112:../../../../../../Middlewares/Third_Party/LoRaWAN/Mac/region/RegionKR920.c ****     // Limit tx power to the band max
 113:../../../../../../Middlewares/Third_Party/LoRaWAN/Mac/region/RegionKR920.c ****     txPowerResult =  MAX( txPower, maxBandTxPower );
 114:../../../../../../Middlewares/Third_Party/LoRaWAN/Mac/region/RegionKR920.c **** 
 115:../../../../../../Middlewares/Third_Party/LoRaWAN/Mac/region/RegionKR920.c ****     return txPowerResult;
 116:../../../../../../Middlewares/Third_Party/LoRaWAN/Mac/region/RegionKR920.c **** }
 117:../../../../../../Middlewares/Third_Party/LoRaWAN/Mac/region/RegionKR920.c **** 
 118:../../../../../../Middlewares/Third_Party/LoRaWAN/Mac/region/RegionKR920.c **** static bool VerifyRfFreq( uint32_t freq )
 119:../../../../../../Middlewares/Third_Party/LoRaWAN/Mac/region/RegionKR920.c **** {
 120:../../../../../../Middlewares/Third_Party/LoRaWAN/Mac/region/RegionKR920.c ****     uint32_t tmpFreq = freq;
 121:../../../../../../Middlewares/Third_Party/LoRaWAN/Mac/region/RegionKR920.c **** 
 122:../../../../../../Middlewares/Third_Party/LoRaWAN/Mac/region/RegionKR920.c ****     // Check radio driver support
 123:../../../../../../Middlewares/Third_Party/LoRaWAN/Mac/region/RegionKR920.c ****     if( Radio.CheckRfFrequency( tmpFreq ) == false )
 124:../../../../../../Middlewares/Third_Party/LoRaWAN/Mac/region/RegionKR920.c ****     {
 125:../../../../../../Middlewares/Third_Party/LoRaWAN/Mac/region/RegionKR920.c ****         return false;
 126:../../../../../../Middlewares/Third_Party/LoRaWAN/Mac/region/RegionKR920.c ****     }
 127:../../../../../../Middlewares/Third_Party/LoRaWAN/Mac/region/RegionKR920.c **** 
 128:../../../../../../Middlewares/Third_Party/LoRaWAN/Mac/region/RegionKR920.c ****     // Verify if the frequency is valid. The frequency must be in a specified
 129:../../../../../../Middlewares/Third_Party/LoRaWAN/Mac/region/RegionKR920.c ****     // range and can be set to specific values.
 130:../../../../../../Middlewares/Third_Party/LoRaWAN/Mac/region/RegionKR920.c ****     if( ( tmpFreq >= 920900000 ) && ( tmpFreq <=923300000 ) )
 131:../../../../../../Middlewares/Third_Party/LoRaWAN/Mac/region/RegionKR920.c ****     {
 132:../../../../../../Middlewares/Third_Party/LoRaWAN/Mac/region/RegionKR920.c ****         // Range ok, check for specific value
 133:../../../../../../Middlewares/Third_Party/LoRaWAN/Mac/region/RegionKR920.c ****         tmpFreq -= 920900000;
 134:../../../../../../Middlewares/Third_Party/LoRaWAN/Mac/region/RegionKR920.c ****         if( ( tmpFreq % 200000 ) == 0 )
 135:../../../../../../Middlewares/Third_Party/LoRaWAN/Mac/region/RegionKR920.c ****         {
 136:../../../../../../Middlewares/Third_Party/LoRaWAN/Mac/region/RegionKR920.c ****             return true;
 137:../../../../../../Middlewares/Third_Party/LoRaWAN/Mac/region/RegionKR920.c ****         }
 138:../../../../../../Middlewares/Third_Party/LoRaWAN/Mac/region/RegionKR920.c ****     }
 139:../../../../../../Middlewares/Third_Party/LoRaWAN/Mac/region/RegionKR920.c ****     return false;
 140:../../../../../../Middlewares/Third_Party/LoRaWAN/Mac/region/RegionKR920.c **** }
 141:../../../../../../Middlewares/Third_Party/LoRaWAN/Mac/region/RegionKR920.c **** 
 142:../../../../../../Middlewares/Third_Party/LoRaWAN/Mac/region/RegionKR920.c **** static uint8_t CountNbOfEnabledChannels( bool joined, uint8_t datarate, uint16_t* channelsMask, Cha
 143:../../../../../../Middlewares/Third_Party/LoRaWAN/Mac/region/RegionKR920.c **** {
 144:../../../../../../Middlewares/Third_Party/LoRaWAN/Mac/region/RegionKR920.c ****     uint8_t nbEnabledChannels = 0;
 145:../../../../../../Middlewares/Third_Party/LoRaWAN/Mac/region/RegionKR920.c ****     uint8_t delayTransmission = 0;
ARM GAS  C:\Users\EBANO_~1\AppData\Local\Temp\ccLo4wHn.s 			page 4


 146:../../../../../../Middlewares/Third_Party/LoRaWAN/Mac/region/RegionKR920.c **** 
 147:../../../../../../Middlewares/Third_Party/LoRaWAN/Mac/region/RegionKR920.c ****     for( uint8_t i = 0, k = 0; i < KR920_MAX_NB_CHANNELS; i += 16, k++ )
 148:../../../../../../Middlewares/Third_Party/LoRaWAN/Mac/region/RegionKR920.c ****     {
 149:../../../../../../Middlewares/Third_Party/LoRaWAN/Mac/region/RegionKR920.c ****         for( uint8_t j = 0; j < 16; j++ )
 150:../../../../../../Middlewares/Third_Party/LoRaWAN/Mac/region/RegionKR920.c ****         {
 151:../../../../../../Middlewares/Third_Party/LoRaWAN/Mac/region/RegionKR920.c ****             if( ( channelsMask[k] & ( 1 << j ) ) != 0 )
 152:../../../../../../Middlewares/Third_Party/LoRaWAN/Mac/region/RegionKR920.c ****             {
 153:../../../../../../Middlewares/Third_Party/LoRaWAN/Mac/region/RegionKR920.c ****                 if( channels[i + j].Frequency == 0 )
 154:../../../../../../Middlewares/Third_Party/LoRaWAN/Mac/region/RegionKR920.c ****                 { // Check if the channel is enabled
 155:../../../../../../Middlewares/Third_Party/LoRaWAN/Mac/region/RegionKR920.c ****                     continue;
 156:../../../../../../Middlewares/Third_Party/LoRaWAN/Mac/region/RegionKR920.c ****                 }
 157:../../../../../../Middlewares/Third_Party/LoRaWAN/Mac/region/RegionKR920.c ****                 if( joined == false )
 158:../../../../../../Middlewares/Third_Party/LoRaWAN/Mac/region/RegionKR920.c ****                 {
 159:../../../../../../Middlewares/Third_Party/LoRaWAN/Mac/region/RegionKR920.c ****                     if( ( KR920_JOIN_CHANNELS & ( 1 << j ) ) == 0 )
 160:../../../../../../Middlewares/Third_Party/LoRaWAN/Mac/region/RegionKR920.c ****                     {
 161:../../../../../../Middlewares/Third_Party/LoRaWAN/Mac/region/RegionKR920.c ****                         continue;
 162:../../../../../../Middlewares/Third_Party/LoRaWAN/Mac/region/RegionKR920.c ****                     }
 163:../../../../../../Middlewares/Third_Party/LoRaWAN/Mac/region/RegionKR920.c ****                 }
 164:../../../../../../Middlewares/Third_Party/LoRaWAN/Mac/region/RegionKR920.c ****                 if( RegionCommonValueInRange( datarate, channels[i + j].DrRange.Fields.Min,
 165:../../../../../../Middlewares/Third_Party/LoRaWAN/Mac/region/RegionKR920.c ****                                               channels[i + j].DrRange.Fields.Max ) == false )
 166:../../../../../../Middlewares/Third_Party/LoRaWAN/Mac/region/RegionKR920.c ****                 { // Check if the current channel selection supports the given datarate
 167:../../../../../../Middlewares/Third_Party/LoRaWAN/Mac/region/RegionKR920.c ****                     continue;
 168:../../../../../../Middlewares/Third_Party/LoRaWAN/Mac/region/RegionKR920.c ****                 }
 169:../../../../../../Middlewares/Third_Party/LoRaWAN/Mac/region/RegionKR920.c ****                 if( bands[channels[i + j].Band].TimeOff > 0 )
 170:../../../../../../Middlewares/Third_Party/LoRaWAN/Mac/region/RegionKR920.c ****                 { // Check if the band is available for transmission
 171:../../../../../../Middlewares/Third_Party/LoRaWAN/Mac/region/RegionKR920.c ****                     delayTransmission++;
 172:../../../../../../Middlewares/Third_Party/LoRaWAN/Mac/region/RegionKR920.c ****                     continue;
 173:../../../../../../Middlewares/Third_Party/LoRaWAN/Mac/region/RegionKR920.c ****                 }
 174:../../../../../../Middlewares/Third_Party/LoRaWAN/Mac/region/RegionKR920.c ****                 enabledChannels[nbEnabledChannels++] = i + j;
 175:../../../../../../Middlewares/Third_Party/LoRaWAN/Mac/region/RegionKR920.c ****             }
 176:../../../../../../Middlewares/Third_Party/LoRaWAN/Mac/region/RegionKR920.c ****         }
 177:../../../../../../Middlewares/Third_Party/LoRaWAN/Mac/region/RegionKR920.c ****     }
 178:../../../../../../Middlewares/Third_Party/LoRaWAN/Mac/region/RegionKR920.c **** 
 179:../../../../../../Middlewares/Third_Party/LoRaWAN/Mac/region/RegionKR920.c ****     *delayTx = delayTransmission;
 180:../../../../../../Middlewares/Third_Party/LoRaWAN/Mac/region/RegionKR920.c ****     return nbEnabledChannels;
 181:../../../../../../Middlewares/Third_Party/LoRaWAN/Mac/region/RegionKR920.c **** }
 182:../../../../../../Middlewares/Third_Party/LoRaWAN/Mac/region/RegionKR920.c **** 
 183:../../../../../../Middlewares/Third_Party/LoRaWAN/Mac/region/RegionKR920.c **** PhyParam_t RegionKR920GetPhyParam( GetPhyParams_t* getPhy )
 184:../../../../../../Middlewares/Third_Party/LoRaWAN/Mac/region/RegionKR920.c **** {
  27              		.loc 1 184 0
  28              		.cfi_startproc
  29              		@ args = 0, pretend = 0, frame = 8
  30              		@ frame_needed = 0, uses_anonymous_args = 0
  31              	.LVL0:
 185:../../../../../../Middlewares/Third_Party/LoRaWAN/Mac/region/RegionKR920.c ****     PhyParam_t phyParam = { 0 };
  32              		.loc 1 185 0
  33 0000 0023     		movs	r3, #0
 184:../../../../../../Middlewares/Third_Party/LoRaWAN/Mac/region/RegionKR920.c ****     PhyParam_t phyParam = { 0 };
  34              		.loc 1 184 0
  35 0002 00B5     		push	{lr}
  36              	.LCFI0:
  37              		.cfi_def_cfa_offset 4
  38              		.cfi_offset 14, -4
  39 0004 83B0     		sub	sp, sp, #12
  40              	.LCFI1:
  41              		.cfi_def_cfa_offset 16
  42              		.loc 1 185 0
ARM GAS  C:\Users\EBANO_~1\AppData\Local\Temp\ccLo4wHn.s 			page 5


  43 0006 0093     		str	r3, [sp]
 186:../../../../../../Middlewares/Third_Party/LoRaWAN/Mac/region/RegionKR920.c **** 
 187:../../../../../../Middlewares/Third_Party/LoRaWAN/Mac/region/RegionKR920.c ****     switch( getPhy->Attribute )
  44              		.loc 1 187 0
  45 0008 0378     		ldrb	r3, [r0]
  46 000a 0A3B     		subs	r3, r3, #10
  47 000c DBB2     		uxtb	r3, r3
  48 000e 2A2B     		cmp	r3, #42
  49 0010 05D8     		bhi	.L2
  50 0012 314A     		ldr	r2, .L30
  51 0014 9B00     		lsls	r3, r3, #2
  52 0016 D358     		ldr	r3, [r2, r3]
  53 0018 9F46     		mov	pc, r3
  54              		.section	.rodata
  55              		.align	2
  56              	.L4:
  57 0000 B8000000 		.word	.L3
  58 0004 B2000000 		.word	.L5
  59 0008 A6000000 		.word	.L6
  60 000c 98000000 		.word	.L7
  61 0010 1E000000 		.word	.L2
  62 0014 8A000000 		.word	.L8
  63 0018 82000000 		.word	.L9
  64 001c 7A000000 		.word	.L10
  65 0020 74000000 		.word	.L11
  66 0024 6E000000 		.word	.L12
  67 0028 66000000 		.word	.L13
  68 002c 50000000 		.word	.L14
  69 0030 1E000000 		.word	.L2
  70 0034 44000000 		.word	.L15
  71 0038 1E000000 		.word	.L2
  72 003c 38000000 		.word	.L16
  73 0040 1A000000 		.word	.L17
  74 0044 32000000 		.word	.L18
  75 0048 3E000000 		.word	.L19
  76 004c 1E000000 		.word	.L2
  77 0050 1E000000 		.word	.L2
  78 0054 4A000000 		.word	.L20
  79 0058 92000000 		.word	.L21
  80 005c BE000000 		.word	.L22
  81 0060 1E000000 		.word	.L2
  82 0064 1E000000 		.word	.L2
  83 0068 1E000000 		.word	.L2
  84 006c 1E000000 		.word	.L2
  85 0070 1E000000 		.word	.L2
  86 0074 1E000000 		.word	.L2
  87 0078 1E000000 		.word	.L2
  88 007c 1E000000 		.word	.L2
  89 0080 1E000000 		.word	.L2
  90 0084 1E000000 		.word	.L2
  91 0088 1E000000 		.word	.L2
  92 008c 1E000000 		.word	.L2
  93 0090 1E000000 		.word	.L2
  94 0094 D0000000 		.word	.L23
  95 0098 2A000000 		.word	.L24
  96 009c 24000000 		.word	.L25
  97 00a0 1E000000 		.word	.L2
ARM GAS  C:\Users\EBANO_~1\AppData\Local\Temp\ccLo4wHn.s 			page 6


  98 00a4 1E000000 		.word	.L2
  99 00a8 24000000 		.word	.L25
 100              		.section	.text.RegionKR920GetPhyParam
 101              	.L17:
 188:../../../../../../Middlewares/Third_Party/LoRaWAN/Mac/region/RegionKR920.c ****     {
 189:../../../../../../Middlewares/Third_Party/LoRaWAN/Mac/region/RegionKR920.c ****         case PHY_MIN_RX_DR:
 190:../../../../../../Middlewares/Third_Party/LoRaWAN/Mac/region/RegionKR920.c ****         {
 191:../../../../../../Middlewares/Third_Party/LoRaWAN/Mac/region/RegionKR920.c ****             phyParam.Value = KR920_RX_MIN_DATARATE;
 192:../../../../../../Middlewares/Third_Party/LoRaWAN/Mac/region/RegionKR920.c ****             break;
 193:../../../../../../Middlewares/Third_Party/LoRaWAN/Mac/region/RegionKR920.c ****         }
 194:../../../../../../Middlewares/Third_Party/LoRaWAN/Mac/region/RegionKR920.c ****         case PHY_MIN_TX_DR:
 195:../../../../../../Middlewares/Third_Party/LoRaWAN/Mac/region/RegionKR920.c ****         {
 196:../../../../../../Middlewares/Third_Party/LoRaWAN/Mac/region/RegionKR920.c ****             phyParam.Value = KR920_TX_MIN_DATARATE;
 197:../../../../../../Middlewares/Third_Party/LoRaWAN/Mac/region/RegionKR920.c ****             break;
 198:../../../../../../Middlewares/Third_Party/LoRaWAN/Mac/region/RegionKR920.c ****         }
 199:../../../../../../Middlewares/Third_Party/LoRaWAN/Mac/region/RegionKR920.c ****         case PHY_DEF_TX_DR:
 200:../../../../../../Middlewares/Third_Party/LoRaWAN/Mac/region/RegionKR920.c ****         {
 201:../../../../../../Middlewares/Third_Party/LoRaWAN/Mac/region/RegionKR920.c ****             phyParam.Value = KR920_DEFAULT_DATARATE;
 202:../../../../../../Middlewares/Third_Party/LoRaWAN/Mac/region/RegionKR920.c ****             break;
 203:../../../../../../Middlewares/Third_Party/LoRaWAN/Mac/region/RegionKR920.c ****         }
 204:../../../../../../Middlewares/Third_Party/LoRaWAN/Mac/region/RegionKR920.c ****         case PHY_NEXT_LOWER_TX_DR:
 205:../../../../../../Middlewares/Third_Party/LoRaWAN/Mac/region/RegionKR920.c ****         {
 206:../../../../../../Middlewares/Third_Party/LoRaWAN/Mac/region/RegionKR920.c ****             phyParam.Value = GetNextLowerTxDr( getPhy->Datarate, KR920_TX_MIN_DATARATE );
 207:../../../../../../Middlewares/Third_Party/LoRaWAN/Mac/region/RegionKR920.c ****             break;
 208:../../../../../../Middlewares/Third_Party/LoRaWAN/Mac/region/RegionKR920.c ****         }
 209:../../../../../../Middlewares/Third_Party/LoRaWAN/Mac/region/RegionKR920.c ****         case PHY_MAX_TX_POWER:
 210:../../../../../../Middlewares/Third_Party/LoRaWAN/Mac/region/RegionKR920.c ****         {
 211:../../../../../../Middlewares/Third_Party/LoRaWAN/Mac/region/RegionKR920.c ****             phyParam.Value = KR920_MAX_TX_POWER;
 212:../../../../../../Middlewares/Third_Party/LoRaWAN/Mac/region/RegionKR920.c ****             break;
 213:../../../../../../Middlewares/Third_Party/LoRaWAN/Mac/region/RegionKR920.c ****         }
 214:../../../../../../Middlewares/Third_Party/LoRaWAN/Mac/region/RegionKR920.c ****         case PHY_DEF_TX_POWER:
 215:../../../../../../Middlewares/Third_Party/LoRaWAN/Mac/region/RegionKR920.c ****         {
 216:../../../../../../Middlewares/Third_Party/LoRaWAN/Mac/region/RegionKR920.c ****             phyParam.Value = KR920_DEFAULT_TX_POWER;
 217:../../../../../../Middlewares/Third_Party/LoRaWAN/Mac/region/RegionKR920.c ****             break;
 218:../../../../../../Middlewares/Third_Party/LoRaWAN/Mac/region/RegionKR920.c ****         }
 219:../../../../../../Middlewares/Third_Party/LoRaWAN/Mac/region/RegionKR920.c ****         case PHY_DEF_ADR_ACK_LIMIT:
 220:../../../../../../Middlewares/Third_Party/LoRaWAN/Mac/region/RegionKR920.c ****         {
 221:../../../../../../Middlewares/Third_Party/LoRaWAN/Mac/region/RegionKR920.c ****             phyParam.Value = KR920_ADR_ACK_LIMIT;
 222:../../../../../../Middlewares/Third_Party/LoRaWAN/Mac/region/RegionKR920.c ****             break;
 223:../../../../../../Middlewares/Third_Party/LoRaWAN/Mac/region/RegionKR920.c ****         }
 224:../../../../../../Middlewares/Third_Party/LoRaWAN/Mac/region/RegionKR920.c ****         case PHY_DEF_ADR_ACK_DELAY:
 225:../../../../../../Middlewares/Third_Party/LoRaWAN/Mac/region/RegionKR920.c ****         {
 226:../../../../../../Middlewares/Third_Party/LoRaWAN/Mac/region/RegionKR920.c ****             phyParam.Value = KR920_ADR_ACK_DELAY;
 227:../../../../../../Middlewares/Third_Party/LoRaWAN/Mac/region/RegionKR920.c ****             break;
 228:../../../../../../Middlewares/Third_Party/LoRaWAN/Mac/region/RegionKR920.c ****         }
 229:../../../../../../Middlewares/Third_Party/LoRaWAN/Mac/region/RegionKR920.c ****         case PHY_MAX_PAYLOAD:
 230:../../../../../../Middlewares/Third_Party/LoRaWAN/Mac/region/RegionKR920.c ****         {
 231:../../../../../../Middlewares/Third_Party/LoRaWAN/Mac/region/RegionKR920.c ****             phyParam.Value = MaxPayloadOfDatarateKR920[getPhy->Datarate];
 232:../../../../../../Middlewares/Third_Party/LoRaWAN/Mac/region/RegionKR920.c ****             break;
 233:../../../../../../Middlewares/Third_Party/LoRaWAN/Mac/region/RegionKR920.c ****         }
 234:../../../../../../Middlewares/Third_Party/LoRaWAN/Mac/region/RegionKR920.c ****         case PHY_MAX_PAYLOAD_REPEATER:
 235:../../../../../../Middlewares/Third_Party/LoRaWAN/Mac/region/RegionKR920.c ****         {
 236:../../../../../../Middlewares/Third_Party/LoRaWAN/Mac/region/RegionKR920.c ****             phyParam.Value = MaxPayloadOfDatarateRepeaterKR920[getPhy->Datarate];
 237:../../../../../../Middlewares/Third_Party/LoRaWAN/Mac/region/RegionKR920.c ****             break;
 238:../../../../../../Middlewares/Third_Party/LoRaWAN/Mac/region/RegionKR920.c ****         }
 239:../../../../../../Middlewares/Third_Party/LoRaWAN/Mac/region/RegionKR920.c ****         case PHY_DUTY_CYCLE:
 240:../../../../../../Middlewares/Third_Party/LoRaWAN/Mac/region/RegionKR920.c ****         {
ARM GAS  C:\Users\EBANO_~1\AppData\Local\Temp\ccLo4wHn.s 			page 7


 241:../../../../../../Middlewares/Third_Party/LoRaWAN/Mac/region/RegionKR920.c ****             phyParam.Value = KR920_DUTY_CYCLE_ENABLED;
 242:../../../../../../Middlewares/Third_Party/LoRaWAN/Mac/region/RegionKR920.c ****             break;
 243:../../../../../../Middlewares/Third_Party/LoRaWAN/Mac/region/RegionKR920.c ****         }
 244:../../../../../../Middlewares/Third_Party/LoRaWAN/Mac/region/RegionKR920.c ****         case PHY_MAX_RX_WINDOW:
 245:../../../../../../Middlewares/Third_Party/LoRaWAN/Mac/region/RegionKR920.c ****         {
 246:../../../../../../Middlewares/Third_Party/LoRaWAN/Mac/region/RegionKR920.c ****             phyParam.Value = KR920_MAX_RX_WINDOW;
 247:../../../../../../Middlewares/Third_Party/LoRaWAN/Mac/region/RegionKR920.c ****             break;
 248:../../../../../../Middlewares/Third_Party/LoRaWAN/Mac/region/RegionKR920.c ****         }
 249:../../../../../../Middlewares/Third_Party/LoRaWAN/Mac/region/RegionKR920.c ****         case PHY_RECEIVE_DELAY1:
 250:../../../../../../Middlewares/Third_Party/LoRaWAN/Mac/region/RegionKR920.c ****         {
 251:../../../../../../Middlewares/Third_Party/LoRaWAN/Mac/region/RegionKR920.c ****             phyParam.Value = KR920_RECEIVE_DELAY1;
 252:../../../../../../Middlewares/Third_Party/LoRaWAN/Mac/region/RegionKR920.c ****             break;
 253:../../../../../../Middlewares/Third_Party/LoRaWAN/Mac/region/RegionKR920.c ****         }
 254:../../../../../../Middlewares/Third_Party/LoRaWAN/Mac/region/RegionKR920.c ****         case PHY_RECEIVE_DELAY2:
 255:../../../../../../Middlewares/Third_Party/LoRaWAN/Mac/region/RegionKR920.c ****         {
 256:../../../../../../Middlewares/Third_Party/LoRaWAN/Mac/region/RegionKR920.c ****             phyParam.Value = KR920_RECEIVE_DELAY2;
 257:../../../../../../Middlewares/Third_Party/LoRaWAN/Mac/region/RegionKR920.c ****             break;
 258:../../../../../../Middlewares/Third_Party/LoRaWAN/Mac/region/RegionKR920.c ****         }
 259:../../../../../../Middlewares/Third_Party/LoRaWAN/Mac/region/RegionKR920.c ****         case PHY_JOIN_ACCEPT_DELAY1:
 260:../../../../../../Middlewares/Third_Party/LoRaWAN/Mac/region/RegionKR920.c ****         {
 261:../../../../../../Middlewares/Third_Party/LoRaWAN/Mac/region/RegionKR920.c ****             phyParam.Value = KR920_JOIN_ACCEPT_DELAY1;
 262:../../../../../../Middlewares/Third_Party/LoRaWAN/Mac/region/RegionKR920.c ****             break;
 263:../../../../../../Middlewares/Third_Party/LoRaWAN/Mac/region/RegionKR920.c ****         }
 264:../../../../../../Middlewares/Third_Party/LoRaWAN/Mac/region/RegionKR920.c ****         case PHY_JOIN_ACCEPT_DELAY2:
 265:../../../../../../Middlewares/Third_Party/LoRaWAN/Mac/region/RegionKR920.c ****         {
 266:../../../../../../Middlewares/Third_Party/LoRaWAN/Mac/region/RegionKR920.c ****             phyParam.Value = KR920_JOIN_ACCEPT_DELAY2;
 267:../../../../../../Middlewares/Third_Party/LoRaWAN/Mac/region/RegionKR920.c ****             break;
 268:../../../../../../Middlewares/Third_Party/LoRaWAN/Mac/region/RegionKR920.c ****         }
 269:../../../../../../Middlewares/Third_Party/LoRaWAN/Mac/region/RegionKR920.c ****         case PHY_MAX_FCNT_GAP:
 270:../../../../../../Middlewares/Third_Party/LoRaWAN/Mac/region/RegionKR920.c ****         {
 271:../../../../../../Middlewares/Third_Party/LoRaWAN/Mac/region/RegionKR920.c ****             phyParam.Value = KR920_MAX_FCNT_GAP;
 272:../../../../../../Middlewares/Third_Party/LoRaWAN/Mac/region/RegionKR920.c ****             break;
 273:../../../../../../Middlewares/Third_Party/LoRaWAN/Mac/region/RegionKR920.c ****         }
 274:../../../../../../Middlewares/Third_Party/LoRaWAN/Mac/region/RegionKR920.c ****         case PHY_ACK_TIMEOUT:
 275:../../../../../../Middlewares/Third_Party/LoRaWAN/Mac/region/RegionKR920.c ****         {
 276:../../../../../../Middlewares/Third_Party/LoRaWAN/Mac/region/RegionKR920.c ****             phyParam.Value = ( KR920_ACKTIMEOUT + randr( -KR920_ACK_TIMEOUT_RND, KR920_ACK_TIMEOUT_
 277:../../../../../../Middlewares/Third_Party/LoRaWAN/Mac/region/RegionKR920.c ****             break;
 278:../../../../../../Middlewares/Third_Party/LoRaWAN/Mac/region/RegionKR920.c ****         }
 279:../../../../../../Middlewares/Third_Party/LoRaWAN/Mac/region/RegionKR920.c ****         case PHY_DEF_DR1_OFFSET:
 280:../../../../../../Middlewares/Third_Party/LoRaWAN/Mac/region/RegionKR920.c ****         {
 281:../../../../../../Middlewares/Third_Party/LoRaWAN/Mac/region/RegionKR920.c ****             phyParam.Value = KR920_DEFAULT_RX1_DR_OFFSET;
 282:../../../../../../Middlewares/Third_Party/LoRaWAN/Mac/region/RegionKR920.c ****             break;
 283:../../../../../../Middlewares/Third_Party/LoRaWAN/Mac/region/RegionKR920.c ****         }
 284:../../../../../../Middlewares/Third_Party/LoRaWAN/Mac/region/RegionKR920.c ****         case PHY_DEF_RX2_FREQUENCY:
 285:../../../../../../Middlewares/Third_Party/LoRaWAN/Mac/region/RegionKR920.c ****         {
 286:../../../../../../Middlewares/Third_Party/LoRaWAN/Mac/region/RegionKR920.c ****             phyParam.Value = KR920_RX_WND_2_FREQ;
 287:../../../../../../Middlewares/Third_Party/LoRaWAN/Mac/region/RegionKR920.c ****             break;
 288:../../../../../../Middlewares/Third_Party/LoRaWAN/Mac/region/RegionKR920.c ****         }
 289:../../../../../../Middlewares/Third_Party/LoRaWAN/Mac/region/RegionKR920.c ****         case PHY_DEF_RX2_DR:
 290:../../../../../../Middlewares/Third_Party/LoRaWAN/Mac/region/RegionKR920.c ****         {
 291:../../../../../../Middlewares/Third_Party/LoRaWAN/Mac/region/RegionKR920.c ****             phyParam.Value = KR920_RX_WND_2_DR;
 292:../../../../../../Middlewares/Third_Party/LoRaWAN/Mac/region/RegionKR920.c ****             break;
 293:../../../../../../Middlewares/Third_Party/LoRaWAN/Mac/region/RegionKR920.c ****         }
 294:../../../../../../Middlewares/Third_Party/LoRaWAN/Mac/region/RegionKR920.c ****         case PHY_CHANNELS_MASK:
 295:../../../../../../Middlewares/Third_Party/LoRaWAN/Mac/region/RegionKR920.c ****         {
 296:../../../../../../Middlewares/Third_Party/LoRaWAN/Mac/region/RegionKR920.c ****             phyParam.ChannelsMask = NvmCtx.ChannelsMask;
 297:../../../../../../Middlewares/Third_Party/LoRaWAN/Mac/region/RegionKR920.c ****             break;
ARM GAS  C:\Users\EBANO_~1\AppData\Local\Temp\ccLo4wHn.s 			page 8


 298:../../../../../../Middlewares/Third_Party/LoRaWAN/Mac/region/RegionKR920.c ****         }
 299:../../../../../../Middlewares/Third_Party/LoRaWAN/Mac/region/RegionKR920.c ****         case PHY_CHANNELS_DEFAULT_MASK:
 300:../../../../../../Middlewares/Third_Party/LoRaWAN/Mac/region/RegionKR920.c ****         {
 301:../../../../../../Middlewares/Third_Party/LoRaWAN/Mac/region/RegionKR920.c ****             phyParam.ChannelsMask = NvmCtx.ChannelsDefaultMask;
 102              		.loc 1 301 0
 103 001a 304B     		ldr	r3, .L30+4
 104 001c 0093     		str	r3, [sp]
 105              	.LVL1:
 106              	.L2:
 302:../../../../../../Middlewares/Third_Party/LoRaWAN/Mac/region/RegionKR920.c ****             break;
 303:../../../../../../Middlewares/Third_Party/LoRaWAN/Mac/region/RegionKR920.c ****         }
 304:../../../../../../Middlewares/Third_Party/LoRaWAN/Mac/region/RegionKR920.c ****         case PHY_MAX_NB_CHANNELS:
 305:../../../../../../Middlewares/Third_Party/LoRaWAN/Mac/region/RegionKR920.c ****         {
 306:../../../../../../Middlewares/Third_Party/LoRaWAN/Mac/region/RegionKR920.c ****             phyParam.Value = KR920_MAX_NB_CHANNELS;
 307:../../../../../../Middlewares/Third_Party/LoRaWAN/Mac/region/RegionKR920.c ****             break;
 308:../../../../../../Middlewares/Third_Party/LoRaWAN/Mac/region/RegionKR920.c ****         }
 309:../../../../../../Middlewares/Third_Party/LoRaWAN/Mac/region/RegionKR920.c ****         case PHY_CHANNELS:
 310:../../../../../../Middlewares/Third_Party/LoRaWAN/Mac/region/RegionKR920.c ****         {
 311:../../../../../../Middlewares/Third_Party/LoRaWAN/Mac/region/RegionKR920.c ****             phyParam.Channels = NvmCtx.Channels;
 312:../../../../../../Middlewares/Third_Party/LoRaWAN/Mac/region/RegionKR920.c ****             break;
 313:../../../../../../Middlewares/Third_Party/LoRaWAN/Mac/region/RegionKR920.c ****         }
 314:../../../../../../Middlewares/Third_Party/LoRaWAN/Mac/region/RegionKR920.c ****         case PHY_DEF_UPLINK_DWELL_TIME:
 315:../../../../../../Middlewares/Third_Party/LoRaWAN/Mac/region/RegionKR920.c ****         case PHY_DEF_DOWNLINK_DWELL_TIME:
 316:../../../../../../Middlewares/Third_Party/LoRaWAN/Mac/region/RegionKR920.c ****         {
 317:../../../../../../Middlewares/Third_Party/LoRaWAN/Mac/region/RegionKR920.c ****             phyParam.Value = 0;
 318:../../../../../../Middlewares/Third_Party/LoRaWAN/Mac/region/RegionKR920.c ****             break;
 319:../../../../../../Middlewares/Third_Party/LoRaWAN/Mac/region/RegionKR920.c ****         }
 320:../../../../../../Middlewares/Third_Party/LoRaWAN/Mac/region/RegionKR920.c ****         case PHY_DEF_MAX_EIRP:
 321:../../../../../../Middlewares/Third_Party/LoRaWAN/Mac/region/RegionKR920.c ****         {
 322:../../../../../../Middlewares/Third_Party/LoRaWAN/Mac/region/RegionKR920.c ****             // We set the higher maximum EIRP as default value.
 323:../../../../../../Middlewares/Third_Party/LoRaWAN/Mac/region/RegionKR920.c ****             // The reason for this is, that the frequency may
 324:../../../../../../Middlewares/Third_Party/LoRaWAN/Mac/region/RegionKR920.c ****             // change during a channel selection for the next uplink.
 325:../../../../../../Middlewares/Third_Party/LoRaWAN/Mac/region/RegionKR920.c ****             // The value has to be recalculated in the TX configuration.
 326:../../../../../../Middlewares/Third_Party/LoRaWAN/Mac/region/RegionKR920.c ****             phyParam.fValue = KR920_DEFAULT_MAX_EIRP_HIGH;
 327:../../../../../../Middlewares/Third_Party/LoRaWAN/Mac/region/RegionKR920.c ****             break;
 328:../../../../../../Middlewares/Third_Party/LoRaWAN/Mac/region/RegionKR920.c ****         }
 329:../../../../../../Middlewares/Third_Party/LoRaWAN/Mac/region/RegionKR920.c ****         case PHY_DEF_ANTENNA_GAIN:
 330:../../../../../../Middlewares/Third_Party/LoRaWAN/Mac/region/RegionKR920.c ****         {
 331:../../../../../../Middlewares/Third_Party/LoRaWAN/Mac/region/RegionKR920.c ****             phyParam.fValue = KR920_DEFAULT_ANTENNA_GAIN;
 332:../../../../../../Middlewares/Third_Party/LoRaWAN/Mac/region/RegionKR920.c ****             break;
 333:../../../../../../Middlewares/Third_Party/LoRaWAN/Mac/region/RegionKR920.c ****         }
 334:../../../../../../Middlewares/Third_Party/LoRaWAN/Mac/region/RegionKR920.c ****         case PHY_BEACON_CHANNEL_FREQ:
 335:../../../../../../Middlewares/Third_Party/LoRaWAN/Mac/region/RegionKR920.c ****         {
 336:../../../../../../Middlewares/Third_Party/LoRaWAN/Mac/region/RegionKR920.c ****             phyParam.Value = KR920_BEACON_CHANNEL_FREQ;
 337:../../../../../../Middlewares/Third_Party/LoRaWAN/Mac/region/RegionKR920.c ****             break;
 338:../../../../../../Middlewares/Third_Party/LoRaWAN/Mac/region/RegionKR920.c ****         }
 339:../../../../../../Middlewares/Third_Party/LoRaWAN/Mac/region/RegionKR920.c ****         case PHY_BEACON_FORMAT:
 340:../../../../../../Middlewares/Third_Party/LoRaWAN/Mac/region/RegionKR920.c ****         {
 341:../../../../../../Middlewares/Third_Party/LoRaWAN/Mac/region/RegionKR920.c ****             phyParam.BeaconFormat.BeaconSize = KR920_BEACON_SIZE;
 342:../../../../../../Middlewares/Third_Party/LoRaWAN/Mac/region/RegionKR920.c ****             phyParam.BeaconFormat.Rfu1Size = KR920_RFU1_SIZE;
 343:../../../../../../Middlewares/Third_Party/LoRaWAN/Mac/region/RegionKR920.c ****             phyParam.BeaconFormat.Rfu2Size = KR920_RFU2_SIZE;
 344:../../../../../../Middlewares/Third_Party/LoRaWAN/Mac/region/RegionKR920.c ****             break;
 345:../../../../../../Middlewares/Third_Party/LoRaWAN/Mac/region/RegionKR920.c ****         }
 346:../../../../../../Middlewares/Third_Party/LoRaWAN/Mac/region/RegionKR920.c ****         case PHY_BEACON_CHANNEL_DR:
 347:../../../../../../Middlewares/Third_Party/LoRaWAN/Mac/region/RegionKR920.c ****         {
 348:../../../../../../Middlewares/Third_Party/LoRaWAN/Mac/region/RegionKR920.c ****             phyParam.Value = KR920_BEACON_CHANNEL_DR;
 349:../../../../../../Middlewares/Third_Party/LoRaWAN/Mac/region/RegionKR920.c ****             break;
ARM GAS  C:\Users\EBANO_~1\AppData\Local\Temp\ccLo4wHn.s 			page 9


 350:../../../../../../Middlewares/Third_Party/LoRaWAN/Mac/region/RegionKR920.c ****         }
 351:../../../../../../Middlewares/Third_Party/LoRaWAN/Mac/region/RegionKR920.c ****         case PHY_PING_SLOT_CHANNEL_DR:
 352:../../../../../../Middlewares/Third_Party/LoRaWAN/Mac/region/RegionKR920.c ****         {
 353:../../../../../../Middlewares/Third_Party/LoRaWAN/Mac/region/RegionKR920.c ****             phyParam.Value = KR920_PING_SLOT_CHANNEL_DR;
 354:../../../../../../Middlewares/Third_Party/LoRaWAN/Mac/region/RegionKR920.c ****             break;
 355:../../../../../../Middlewares/Third_Party/LoRaWAN/Mac/region/RegionKR920.c ****         }
 356:../../../../../../Middlewares/Third_Party/LoRaWAN/Mac/region/RegionKR920.c ****         default:
 357:../../../../../../Middlewares/Third_Party/LoRaWAN/Mac/region/RegionKR920.c ****         {
 358:../../../../../../Middlewares/Third_Party/LoRaWAN/Mac/region/RegionKR920.c ****             break;
 359:../../../../../../Middlewares/Third_Party/LoRaWAN/Mac/region/RegionKR920.c ****         }
 360:../../../../../../Middlewares/Third_Party/LoRaWAN/Mac/region/RegionKR920.c ****     }
 361:../../../../../../Middlewares/Third_Party/LoRaWAN/Mac/region/RegionKR920.c **** 
 362:../../../../../../Middlewares/Third_Party/LoRaWAN/Mac/region/RegionKR920.c ****     return phyParam;
 363:../../../../../../Middlewares/Third_Party/LoRaWAN/Mac/region/RegionKR920.c **** }
 107              		.loc 1 363 0
 108 001e 0098     		ldr	r0, [sp]
 109 0020 03B0     		add	sp, sp, #12
 110              		@ sp needed
 111 0022 00BD     		pop	{pc}
 112              	.LVL2:
 113              	.L25:
 348:../../../../../../Middlewares/Third_Party/LoRaWAN/Mac/region/RegionKR920.c ****             break;
 114              		.loc 1 348 0
 115 0024 0323     		movs	r3, #3
 116 0026 0093     		str	r3, [sp]
 349:../../../../../../Middlewares/Third_Party/LoRaWAN/Mac/region/RegionKR920.c ****         }
 117              		.loc 1 349 0
 118 0028 F9E7     		b	.L2
 119              	.L24:
 341:../../../../../../Middlewares/Third_Party/LoRaWAN/Mac/region/RegionKR920.c ****             phyParam.BeaconFormat.Rfu1Size = KR920_RFU1_SIZE;
 120              		.loc 1 341 0
 121 002a 6A46     		mov	r2, sp
 122 002c 2C4B     		ldr	r3, .L30+8
 123 002e 1380     		strh	r3, [r2]
 344:../../../../../../Middlewares/Third_Party/LoRaWAN/Mac/region/RegionKR920.c ****         }
 124              		.loc 1 344 0
 125 0030 F5E7     		b	.L2
 126              	.L18:
 306:../../../../../../Middlewares/Third_Party/LoRaWAN/Mac/region/RegionKR920.c ****             break;
 127              		.loc 1 306 0
 128 0032 1023     		movs	r3, #16
 129 0034 0093     		str	r3, [sp]
 307:../../../../../../Middlewares/Third_Party/LoRaWAN/Mac/region/RegionKR920.c ****         }
 130              		.loc 1 307 0
 131 0036 F2E7     		b	.L2
 132              	.L16:
 296:../../../../../../Middlewares/Third_Party/LoRaWAN/Mac/region/RegionKR920.c ****             break;
 133              		.loc 1 296 0
 134 0038 2A4B     		ldr	r3, .L30+12
 135 003a 0093     		str	r3, [sp]
 297:../../../../../../Middlewares/Third_Party/LoRaWAN/Mac/region/RegionKR920.c ****         }
 136              		.loc 1 297 0
 137 003c EFE7     		b	.L2
 138              	.L19:
 311:../../../../../../Middlewares/Third_Party/LoRaWAN/Mac/region/RegionKR920.c ****             break;
 139              		.loc 1 311 0
 140 003e 2A4B     		ldr	r3, .L30+16
ARM GAS  C:\Users\EBANO_~1\AppData\Local\Temp\ccLo4wHn.s 			page 10


 141 0040 0093     		str	r3, [sp]
 312:../../../../../../Middlewares/Third_Party/LoRaWAN/Mac/region/RegionKR920.c ****         }
 142              		.loc 1 312 0
 143 0042 ECE7     		b	.L2
 144              	.L15:
 286:../../../../../../Middlewares/Third_Party/LoRaWAN/Mac/region/RegionKR920.c ****             break;
 145              		.loc 1 286 0
 146 0044 294B     		ldr	r3, .L30+20
 147 0046 0093     		str	r3, [sp]
 287:../../../../../../Middlewares/Third_Party/LoRaWAN/Mac/region/RegionKR920.c ****         }
 148              		.loc 1 287 0
 149 0048 E9E7     		b	.L2
 150              	.L20:
 326:../../../../../../Middlewares/Third_Party/LoRaWAN/Mac/region/RegionKR920.c ****             break;
 151              		.loc 1 326 0
 152 004a 294B     		ldr	r3, .L30+24
 153 004c 0093     		str	r3, [sp]
 327:../../../../../../Middlewares/Third_Party/LoRaWAN/Mac/region/RegionKR920.c ****         }
 154              		.loc 1 327 0
 155 004e E6E7     		b	.L2
 156              	.L14:
 276:../../../../../../Middlewares/Third_Party/LoRaWAN/Mac/region/RegionKR920.c ****             break;
 157              		.loc 1 276 0
 158 0050 FA21     		movs	r1, #250
 159 0052 2848     		ldr	r0, .L30+28
 160              	.LVL3:
 161 0054 8900     		lsls	r1, r1, #2
 162 0056 FFF7FEFF 		bl	randr
 163              	.LVL4:
 164 005a FA23     		movs	r3, #250
 165 005c DB00     		lsls	r3, r3, #3
 166 005e 9C46     		mov	ip, r3
 167 0060 6044     		add	r0, r0, ip
 168 0062 0090     		str	r0, [sp]
 277:../../../../../../Middlewares/Third_Party/LoRaWAN/Mac/region/RegionKR920.c ****         }
 169              		.loc 1 277 0
 170 0064 DBE7     		b	.L2
 171              	.LVL5:
 172              	.L13:
 271:../../../../../../Middlewares/Third_Party/LoRaWAN/Mac/region/RegionKR920.c ****             break;
 173              		.loc 1 271 0
 174 0066 8023     		movs	r3, #128
 175 0068 DB01     		lsls	r3, r3, #7
 176 006a 0093     		str	r3, [sp]
 272:../../../../../../Middlewares/Third_Party/LoRaWAN/Mac/region/RegionKR920.c ****         }
 177              		.loc 1 272 0
 178 006c D7E7     		b	.L2
 179              	.L12:
 266:../../../../../../Middlewares/Third_Party/LoRaWAN/Mac/region/RegionKR920.c ****             break;
 180              		.loc 1 266 0
 181 006e 224B     		ldr	r3, .L30+32
 182 0070 0093     		str	r3, [sp]
 267:../../../../../../Middlewares/Third_Party/LoRaWAN/Mac/region/RegionKR920.c ****         }
 183              		.loc 1 267 0
 184 0072 D4E7     		b	.L2
 185              	.L11:
 261:../../../../../../Middlewares/Third_Party/LoRaWAN/Mac/region/RegionKR920.c ****             break;
ARM GAS  C:\Users\EBANO_~1\AppData\Local\Temp\ccLo4wHn.s 			page 11


 186              		.loc 1 261 0
 187 0074 214B     		ldr	r3, .L30+36
 188 0076 0093     		str	r3, [sp]
 262:../../../../../../Middlewares/Third_Party/LoRaWAN/Mac/region/RegionKR920.c ****         }
 189              		.loc 1 262 0
 190 0078 D1E7     		b	.L2
 191              	.L10:
 256:../../../../../../Middlewares/Third_Party/LoRaWAN/Mac/region/RegionKR920.c ****             break;
 192              		.loc 1 256 0
 193 007a FA23     		movs	r3, #250
 194 007c DB00     		lsls	r3, r3, #3
 195 007e 0093     		str	r3, [sp]
 257:../../../../../../Middlewares/Third_Party/LoRaWAN/Mac/region/RegionKR920.c ****         }
 196              		.loc 1 257 0
 197 0080 CDE7     		b	.L2
 198              	.L9:
 251:../../../../../../Middlewares/Third_Party/LoRaWAN/Mac/region/RegionKR920.c ****             break;
 199              		.loc 1 251 0
 200 0082 FA23     		movs	r3, #250
 201 0084 9B00     		lsls	r3, r3, #2
 202 0086 0093     		str	r3, [sp]
 252:../../../../../../Middlewares/Third_Party/LoRaWAN/Mac/region/RegionKR920.c ****         }
 203              		.loc 1 252 0
 204 0088 C9E7     		b	.L2
 205              	.L8:
 246:../../../../../../Middlewares/Third_Party/LoRaWAN/Mac/region/RegionKR920.c ****             break;
 206              		.loc 1 246 0
 207 008a FA23     		movs	r3, #250
 208 008c 1B01     		lsls	r3, r3, #4
 209 008e 0093     		str	r3, [sp]
 247:../../../../../../Middlewares/Third_Party/LoRaWAN/Mac/region/RegionKR920.c ****         }
 210              		.loc 1 247 0
 211 0090 C5E7     		b	.L2
 212              	.L21:
 331:../../../../../../Middlewares/Third_Party/LoRaWAN/Mac/region/RegionKR920.c ****             break;
 213              		.loc 1 331 0
 214 0092 1B4B     		ldr	r3, .L30+40
 215 0094 0093     		str	r3, [sp]
 332:../../../../../../Middlewares/Third_Party/LoRaWAN/Mac/region/RegionKR920.c ****         }
 216              		.loc 1 332 0
 217 0096 C2E7     		b	.L2
 218              	.L7:
 236:../../../../../../Middlewares/Third_Party/LoRaWAN/Mac/region/RegionKR920.c ****             break;
 219              		.loc 1 236 0
 220 0098 0122     		movs	r2, #1
 221 009a 1A4B     		ldr	r3, .L30+44
 222 009c 8256     		ldrsb	r2, [r0, r2]
 223 009e 9B18     		adds	r3, r3, r2
 224 00a0 1B7A     		ldrb	r3, [r3, #8]
 225 00a2 0093     		str	r3, [sp]
 237:../../../../../../Middlewares/Third_Party/LoRaWAN/Mac/region/RegionKR920.c ****         }
 226              		.loc 1 237 0
 227 00a4 BBE7     		b	.L2
 228              	.L6:
 231:../../../../../../Middlewares/Third_Party/LoRaWAN/Mac/region/RegionKR920.c ****             break;
 229              		.loc 1 231 0
 230 00a6 0123     		movs	r3, #1
ARM GAS  C:\Users\EBANO_~1\AppData\Local\Temp\ccLo4wHn.s 			page 12


 231 00a8 164A     		ldr	r2, .L30+44
 232 00aa C356     		ldrsb	r3, [r0, r3]
 233 00ac D35C     		ldrb	r3, [r2, r3]
 234 00ae 0093     		str	r3, [sp]
 232:../../../../../../Middlewares/Third_Party/LoRaWAN/Mac/region/RegionKR920.c ****         }
 235              		.loc 1 232 0
 236 00b0 B5E7     		b	.L2
 237              	.L5:
 226:../../../../../../Middlewares/Third_Party/LoRaWAN/Mac/region/RegionKR920.c ****             break;
 238              		.loc 1 226 0
 239 00b2 2023     		movs	r3, #32
 240 00b4 0093     		str	r3, [sp]
 227:../../../../../../Middlewares/Third_Party/LoRaWAN/Mac/region/RegionKR920.c ****         }
 241              		.loc 1 227 0
 242 00b6 B2E7     		b	.L2
 243              	.L3:
 221:../../../../../../Middlewares/Third_Party/LoRaWAN/Mac/region/RegionKR920.c ****             break;
 244              		.loc 1 221 0
 245 00b8 4023     		movs	r3, #64
 246 00ba 0093     		str	r3, [sp]
 222:../../../../../../Middlewares/Third_Party/LoRaWAN/Mac/region/RegionKR920.c ****         }
 247              		.loc 1 222 0
 248 00bc AFE7     		b	.L2
 249              	.L22:
 206:../../../../../../Middlewares/Third_Party/LoRaWAN/Mac/region/RegionKR920.c ****             break;
 250              		.loc 1 206 0
 251 00be 0123     		movs	r3, #1
 252 00c0 C356     		ldrsb	r3, [r0, r3]
 253              	.LVL6:
 254              	.LBB20:
 255              	.LBB21:
  73:../../../../../../Middlewares/Third_Party/LoRaWAN/Mac/region/RegionKR920.c ****     {
 256              		.loc 1 73 0
 257 00c2 0022     		movs	r2, #0
 258 00c4 002B     		cmp	r3, #0
 259 00c6 01D0     		beq	.L26
 260              	.LVL7:
  79:../../../../../../Middlewares/Third_Party/LoRaWAN/Mac/region/RegionKR920.c ****     }
 261              		.loc 1 79 0
 262 00c8 013B     		subs	r3, r3, #1
 263              	.LVL8:
 264 00ca 5AB2     		sxtb	r2, r3
 265              	.LVL9:
 266              	.L26:
 267              	.LBE21:
 268              	.LBE20:
 206:../../../../../../Middlewares/Third_Party/LoRaWAN/Mac/region/RegionKR920.c ****             break;
 269              		.loc 1 206 0
 270 00cc 0092     		str	r2, [sp]
 207:../../../../../../Middlewares/Third_Party/LoRaWAN/Mac/region/RegionKR920.c ****         }
 271              		.loc 1 207 0
 272 00ce A6E7     		b	.L2
 273              	.L23:
 336:../../../../../../Middlewares/Third_Party/LoRaWAN/Mac/region/RegionKR920.c ****             break;
 274              		.loc 1 336 0
 275 00d0 0D4B     		ldr	r3, .L30+48
 276 00d2 0093     		str	r3, [sp]
ARM GAS  C:\Users\EBANO_~1\AppData\Local\Temp\ccLo4wHn.s 			page 13


 337:../../../../../../Middlewares/Third_Party/LoRaWAN/Mac/region/RegionKR920.c ****         }
 277              		.loc 1 337 0
 278 00d4 A3E7     		b	.L2
 279              	.L31:
 280 00d6 C046     		.align	2
 281              	.L30:
 282 00d8 00000000 		.word	.L4
 283 00dc D2000000 		.word	NvmCtx+210
 284 00e0 11020000 		.word	529
 285 00e4 D0000000 		.word	NvmCtx+208
 286 00e8 00000000 		.word	NvmCtx
 287 00ec E013F336 		.word	921900000
 288 00f0 00006041 		.word	1096810496
 289 00f4 18FCFFFF 		.word	-1000
 290 00f8 70170000 		.word	6000
 291 00fc 88130000 		.word	5000
 292 0100 9A990940 		.word	1074370970
 293 0104 CC000000 		.word	.LANCHOR0
 294 0108 60630537 		.word	923100000
 295              		.cfi_endproc
 296              	.LFE45:
 297              		.size	RegionKR920GetPhyParam, .-RegionKR920GetPhyParam
 298              		.section	.text.RegionKR920SetBandTxDone,"ax",%progbits
 299              		.align	1
 300              		.p2align 2,,3
 301              		.global	RegionKR920SetBandTxDone
 302              		.syntax unified
 303              		.code	16
 304              		.thumb_func
 305              		.fpu softvfp
 306              		.type	RegionKR920SetBandTxDone, %function
 307              	RegionKR920SetBandTxDone:
 308              	.LFB46:
 364:../../../../../../Middlewares/Third_Party/LoRaWAN/Mac/region/RegionKR920.c **** 
 365:../../../../../../Middlewares/Third_Party/LoRaWAN/Mac/region/RegionKR920.c **** void RegionKR920SetBandTxDone( SetBandTxDoneParams_t* txDone )
 366:../../../../../../Middlewares/Third_Party/LoRaWAN/Mac/region/RegionKR920.c **** {
 309              		.loc 1 366 0
 310              		.cfi_startproc
 311              		@ args = 0, pretend = 0, frame = 0
 312              		@ frame_needed = 0, uses_anonymous_args = 0
 313              	.LVL10:
 367:../../../../../../Middlewares/Third_Party/LoRaWAN/Mac/region/RegionKR920.c ****     RegionCommonSetBandTxDone( txDone->Joined, &NvmCtx.Bands[NvmCtx.Channels[txDone->Channel].Band]
 314              		.loc 1 367 0
 315 0000 0178     		ldrb	r1, [r0]
 366:../../../../../../Middlewares/Third_Party/LoRaWAN/Mac/region/RegionKR920.c ****     RegionCommonSetBandTxDone( txDone->Joined, &NvmCtx.Bands[NvmCtx.Channels[txDone->Channel].Band]
 316              		.loc 1 366 0
 317 0002 10B5     		push	{r4, lr}
 318              	.LCFI2:
 319              		.cfi_def_cfa_offset 8
 320              		.cfi_offset 4, -8
 321              		.cfi_offset 14, -4
 322              		.loc 1 367 0
 323 0004 4B00     		lsls	r3, r1, #1
 324 0006 064C     		ldr	r4, .L33
 325 0008 5B18     		adds	r3, r3, r1
 326 000a 9B00     		lsls	r3, r3, #2
 327 000c E318     		adds	r3, r4, r3
ARM GAS  C:\Users\EBANO_~1\AppData\Local\Temp\ccLo4wHn.s 			page 14


 328 000e 597A     		ldrb	r1, [r3, #9]
 329 0010 4268     		ldr	r2, [r0, #4]
 330 0012 0C31     		adds	r1, r1, #12
 331 0014 0901     		lsls	r1, r1, #4
 332 0016 0919     		adds	r1, r1, r4
 333 0018 4078     		ldrb	r0, [r0, #1]
 334              	.LVL11:
 335 001a FFF7FEFF 		bl	RegionCommonSetBandTxDone
 336              	.LVL12:
 368:../../../../../../Middlewares/Third_Party/LoRaWAN/Mac/region/RegionKR920.c **** }
 337              		.loc 1 368 0
 338              		@ sp needed
 339 001e 10BD     		pop	{r4, pc}
 340              	.L34:
 341              		.align	2
 342              	.L33:
 343 0020 00000000 		.word	NvmCtx
 344              		.cfi_endproc
 345              	.LFE46:
 346              		.size	RegionKR920SetBandTxDone, .-RegionKR920SetBandTxDone
 347              		.section	.text.RegionKR920InitDefaults,"ax",%progbits
 348              		.align	1
 349              		.p2align 2,,3
 350              		.global	RegionKR920InitDefaults
 351              		.syntax unified
 352              		.code	16
 353              		.thumb_func
 354              		.fpu softvfp
 355              		.type	RegionKR920InitDefaults, %function
 356              	RegionKR920InitDefaults:
 357              	.LFB47:
 369:../../../../../../Middlewares/Third_Party/LoRaWAN/Mac/region/RegionKR920.c **** 
 370:../../../../../../Middlewares/Third_Party/LoRaWAN/Mac/region/RegionKR920.c **** void RegionKR920InitDefaults( InitDefaultsParams_t* params )
 371:../../../../../../Middlewares/Third_Party/LoRaWAN/Mac/region/RegionKR920.c **** {
 358              		.loc 1 371 0
 359              		.cfi_startproc
 360              		@ args = 0, pretend = 0, frame = 16
 361              		@ frame_needed = 0, uses_anonymous_args = 0
 362              	.LVL13:
 363 0000 F0B5     		push	{r4, r5, r6, r7, lr}
 364              	.LCFI3:
 365              		.cfi_def_cfa_offset 20
 366              		.cfi_offset 4, -20
 367              		.cfi_offset 5, -16
 368              		.cfi_offset 6, -12
 369              		.cfi_offset 7, -8
 370              		.cfi_offset 14, -4
 371 0002 85B0     		sub	sp, sp, #20
 372              	.LCFI4:
 373              		.cfi_def_cfa_offset 40
 372:../../../../../../Middlewares/Third_Party/LoRaWAN/Mac/region/RegionKR920.c ****     Band_t bands[KR920_MAX_NB_BANDS] =
 374              		.loc 1 372 0
 375 0004 0123     		movs	r3, #1
 376 0006 6A46     		mov	r2, sp
 377 0008 1380     		strh	r3, [r2]
 378 000a 0023     		movs	r3, #0
 379 000c 9370     		strb	r3, [r2, #2]
ARM GAS  C:\Users\EBANO_~1\AppData\Local\Temp\ccLo4wHn.s 			page 15


 380 000e 0193     		str	r3, [sp, #4]
 381 0010 0293     		str	r3, [sp, #8]
 382 0012 0393     		str	r3, [sp, #12]
 373:../../../../../../Middlewares/Third_Party/LoRaWAN/Mac/region/RegionKR920.c ****     {
 374:../../../../../../Middlewares/Third_Party/LoRaWAN/Mac/region/RegionKR920.c ****         KR920_BAND0
 375:../../../../../../Middlewares/Third_Party/LoRaWAN/Mac/region/RegionKR920.c ****     };
 376:../../../../../../Middlewares/Third_Party/LoRaWAN/Mac/region/RegionKR920.c **** 
 377:../../../../../../Middlewares/Third_Party/LoRaWAN/Mac/region/RegionKR920.c ****     switch( params->Type )
 383              		.loc 1 377 0
 384 0014 0379     		ldrb	r3, [r0, #4]
 385 0016 012B     		cmp	r3, #1
 386 0018 2ED0     		beq	.L37
 387 001a 002B     		cmp	r3, #0
 388 001c 0AD0     		beq	.L38
 389 001e 022B     		cmp	r3, #2
 390 0020 06D1     		bne	.L35
 378:../../../../../../Middlewares/Third_Party/LoRaWAN/Mac/region/RegionKR920.c ****     {
 379:../../../../../../Middlewares/Third_Party/LoRaWAN/Mac/region/RegionKR920.c ****         case INIT_TYPE_INIT:
 380:../../../../../../Middlewares/Third_Party/LoRaWAN/Mac/region/RegionKR920.c ****         {
 381:../../../../../../Middlewares/Third_Party/LoRaWAN/Mac/region/RegionKR920.c ****             // Initialize bands
 382:../../../../../../Middlewares/Third_Party/LoRaWAN/Mac/region/RegionKR920.c ****             memcpy1( ( uint8_t* )NvmCtx.Bands, ( uint8_t* )bands, sizeof( Band_t ) * KR920_MAX_NB_B
 383:../../../../../../Middlewares/Third_Party/LoRaWAN/Mac/region/RegionKR920.c **** 
 384:../../../../../../Middlewares/Third_Party/LoRaWAN/Mac/region/RegionKR920.c ****             // Channels
 385:../../../../../../Middlewares/Third_Party/LoRaWAN/Mac/region/RegionKR920.c ****             NvmCtx.Channels[0] = ( ChannelParams_t ) KR920_LC1;
 386:../../../../../../Middlewares/Third_Party/LoRaWAN/Mac/region/RegionKR920.c ****             NvmCtx.Channels[1] = ( ChannelParams_t ) KR920_LC2;
 387:../../../../../../Middlewares/Third_Party/LoRaWAN/Mac/region/RegionKR920.c ****             NvmCtx.Channels[2] = ( ChannelParams_t ) KR920_LC3;
 388:../../../../../../Middlewares/Third_Party/LoRaWAN/Mac/region/RegionKR920.c **** 
 389:../../../../../../Middlewares/Third_Party/LoRaWAN/Mac/region/RegionKR920.c ****             // Initialize the channels default mask
 390:../../../../../../Middlewares/Third_Party/LoRaWAN/Mac/region/RegionKR920.c ****             NvmCtx.ChannelsDefaultMask[0] = LC( 1 ) + LC( 2 ) + LC( 3 );
 391:../../../../../../Middlewares/Third_Party/LoRaWAN/Mac/region/RegionKR920.c ****             // Update the channels mask
 392:../../../../../../Middlewares/Third_Party/LoRaWAN/Mac/region/RegionKR920.c ****             RegionCommonChanMaskCopy( NvmCtx.ChannelsMask, NvmCtx.ChannelsDefaultMask, 1 );
 393:../../../../../../Middlewares/Third_Party/LoRaWAN/Mac/region/RegionKR920.c ****             break;
 394:../../../../../../Middlewares/Third_Party/LoRaWAN/Mac/region/RegionKR920.c ****         }
 395:../../../../../../Middlewares/Third_Party/LoRaWAN/Mac/region/RegionKR920.c ****         case INIT_TYPE_RESTORE_CTX:
 396:../../../../../../Middlewares/Third_Party/LoRaWAN/Mac/region/RegionKR920.c ****         {
 397:../../../../../../Middlewares/Third_Party/LoRaWAN/Mac/region/RegionKR920.c ****             if( params->NvmCtx != 0 )
 391              		.loc 1 397 0
 392 0022 0168     		ldr	r1, [r0]
 393 0024 0029     		cmp	r1, #0
 394 0026 03D0     		beq	.L35
 398:../../../../../../Middlewares/Third_Party/LoRaWAN/Mac/region/RegionKR920.c ****             {
 399:../../../../../../Middlewares/Third_Party/LoRaWAN/Mac/region/RegionKR920.c ****                 memcpy1( (uint8_t*) &NvmCtx, (uint8_t*) params->NvmCtx, sizeof( NvmCtx ) );
 395              		.loc 1 399 0
 396 0028 D422     		movs	r2, #212
 397 002a 1748     		ldr	r0, .L43
 398              	.LVL14:
 399 002c FFF7FEFF 		bl	memcpy1
 400              	.LVL15:
 401              	.L35:
 400:../../../../../../Middlewares/Third_Party/LoRaWAN/Mac/region/RegionKR920.c ****             }
 401:../../../../../../Middlewares/Third_Party/LoRaWAN/Mac/region/RegionKR920.c ****             break;
 402:../../../../../../Middlewares/Third_Party/LoRaWAN/Mac/region/RegionKR920.c ****         }
 403:../../../../../../Middlewares/Third_Party/LoRaWAN/Mac/region/RegionKR920.c ****         case INIT_TYPE_RESTORE_DEFAULT_CHANNELS:
 404:../../../../../../Middlewares/Third_Party/LoRaWAN/Mac/region/RegionKR920.c ****         {
 405:../../../../../../Middlewares/Third_Party/LoRaWAN/Mac/region/RegionKR920.c ****             // Restore channels default mask
 406:../../../../../../Middlewares/Third_Party/LoRaWAN/Mac/region/RegionKR920.c ****             NvmCtx.ChannelsMask[0] |= NvmCtx.ChannelsDefaultMask[0];
 407:../../../../../../Middlewares/Third_Party/LoRaWAN/Mac/region/RegionKR920.c ****             break;
ARM GAS  C:\Users\EBANO_~1\AppData\Local\Temp\ccLo4wHn.s 			page 16


 408:../../../../../../Middlewares/Third_Party/LoRaWAN/Mac/region/RegionKR920.c ****         }
 409:../../../../../../Middlewares/Third_Party/LoRaWAN/Mac/region/RegionKR920.c ****         default:
 410:../../../../../../Middlewares/Third_Party/LoRaWAN/Mac/region/RegionKR920.c ****         {
 411:../../../../../../Middlewares/Third_Party/LoRaWAN/Mac/region/RegionKR920.c ****             break;
 412:../../../../../../Middlewares/Third_Party/LoRaWAN/Mac/region/RegionKR920.c ****         }
 413:../../../../../../Middlewares/Third_Party/LoRaWAN/Mac/region/RegionKR920.c ****     }
 414:../../../../../../Middlewares/Third_Party/LoRaWAN/Mac/region/RegionKR920.c **** }
 402              		.loc 1 414 0
 403 0030 05B0     		add	sp, sp, #20
 404              		@ sp needed
 405 0032 F0BD     		pop	{r4, r5, r6, r7, pc}
 406              	.LVL16:
 407              	.L38:
 382:../../../../../../Middlewares/Third_Party/LoRaWAN/Mac/region/RegionKR920.c **** 
 408              		.loc 1 382 0
 409 0034 154C     		ldr	r4, .L43+4
 410 0036 6946     		mov	r1, sp
 411 0038 2000     		movs	r0, r4
 412              	.LVL17:
 413 003a 1022     		movs	r2, #16
 414 003c FFF7FEFF 		bl	memcpy1
 415              	.LVL18:
 385:../../../../../../Middlewares/Third_Party/LoRaWAN/Mac/region/RegionKR920.c ****             NvmCtx.Channels[1] = ( ChannelParams_t ) KR920_LC2;
 416              		.loc 1 385 0
 417 0040 2200     		movs	r2, r4
 418 0042 134B     		ldr	r3, .L43+8
 419 0044 C03A     		subs	r2, r2, #192
 420 0046 1900     		movs	r1, r3
 421 0048 1000     		movs	r0, r2
 422 004a 1031     		adds	r1, r1, #16
 423 004c E0C9     		ldmia	r1!, {r5, r6, r7}
 424 004e E0C0     		stmia	r0!, {r5, r6, r7}
 386:../../../../../../Middlewares/Third_Party/LoRaWAN/Mac/region/RegionKR920.c ****             NvmCtx.Channels[2] = ( ChannelParams_t ) KR920_LC3;
 425              		.loc 1 386 0
 426 0050 1900     		movs	r1, r3
 427 0052 1C31     		adds	r1, r1, #28
 428 0054 E0C9     		ldmia	r1!, {r5, r6, r7}
 429 0056 E0C0     		stmia	r0!, {r5, r6, r7}
 387:../../../../../../Middlewares/Third_Party/LoRaWAN/Mac/region/RegionKR920.c **** 
 430              		.loc 1 387 0
 431 0058 2100     		movs	r1, r4
 432 005a 2833     		adds	r3, r3, #40
 433 005c A839     		subs	r1, r1, #168
 434 005e 61CB     		ldmia	r3!, {r0, r5, r6}
 435 0060 61C1     		stmia	r1!, {r0, r5, r6}
 390:../../../../../../Middlewares/Third_Party/LoRaWAN/Mac/region/RegionKR920.c ****             // Update the channels mask
 436              		.loc 1 390 0
 437 0062 D223     		movs	r3, #210
 438 0064 0721     		movs	r1, #7
 392:../../../../../../Middlewares/Third_Party/LoRaWAN/Mac/region/RegionKR920.c ****             break;
 439              		.loc 1 392 0
 440 0066 2000     		movs	r0, r4
 390:../../../../../../Middlewares/Third_Party/LoRaWAN/Mac/region/RegionKR920.c ****             // Update the channels mask
 441              		.loc 1 390 0
 442 0068 D152     		strh	r1, [r2, r3]
 392:../../../../../../Middlewares/Third_Party/LoRaWAN/Mac/region/RegionKR920.c ****             break;
 443              		.loc 1 392 0
ARM GAS  C:\Users\EBANO_~1\AppData\Local\Temp\ccLo4wHn.s 			page 17


 444 006a 2100     		movs	r1, r4
 445 006c 1030     		adds	r0, r0, #16
 446 006e 1231     		adds	r1, r1, #18
 447 0070 0122     		movs	r2, #1
 448 0072 FFF7FEFF 		bl	RegionCommonChanMaskCopy
 449              	.LVL19:
 393:../../../../../../Middlewares/Third_Party/LoRaWAN/Mac/region/RegionKR920.c ****         }
 450              		.loc 1 393 0
 451 0076 DBE7     		b	.L35
 452              	.LVL20:
 453              	.L37:
 406:../../../../../../Middlewares/Third_Party/LoRaWAN/Mac/region/RegionKR920.c ****             break;
 454              		.loc 1 406 0
 455 0078 D021     		movs	r1, #208
 456 007a D220     		movs	r0, #210
 457              	.LVL21:
 458 007c 024B     		ldr	r3, .L43
 459 007e 5A5A     		ldrh	r2, [r3, r1]
 460 0080 185A     		ldrh	r0, [r3, r0]
 461 0082 0243     		orrs	r2, r0
 462 0084 5A52     		strh	r2, [r3, r1]
 463              		.loc 1 414 0
 464 0086 D3E7     		b	.L35
 465              	.L44:
 466              		.align	2
 467              	.L43:
 468 0088 00000000 		.word	NvmCtx
 469 008c C0000000 		.word	NvmCtx+192
 470 0090 CC000000 		.word	.LANCHOR0
 471              		.cfi_endproc
 472              	.LFE47:
 473              		.size	RegionKR920InitDefaults, .-RegionKR920InitDefaults
 474              		.section	.text.RegionKR920GetNvmCtx,"ax",%progbits
 475              		.align	1
 476              		.p2align 2,,3
 477              		.global	RegionKR920GetNvmCtx
 478              		.syntax unified
 479              		.code	16
 480              		.thumb_func
 481              		.fpu softvfp
 482              		.type	RegionKR920GetNvmCtx, %function
 483              	RegionKR920GetNvmCtx:
 484              	.LFB48:
 415:../../../../../../Middlewares/Third_Party/LoRaWAN/Mac/region/RegionKR920.c **** 
 416:../../../../../../Middlewares/Third_Party/LoRaWAN/Mac/region/RegionKR920.c **** void* RegionKR920GetNvmCtx( GetNvmCtxParams_t* params )
 417:../../../../../../Middlewares/Third_Party/LoRaWAN/Mac/region/RegionKR920.c **** {
 485              		.loc 1 417 0
 486              		.cfi_startproc
 487              		@ args = 0, pretend = 0, frame = 0
 488              		@ frame_needed = 0, uses_anonymous_args = 0
 489              		@ link register save eliminated.
 490              	.LVL22:
 418:../../../../../../Middlewares/Third_Party/LoRaWAN/Mac/region/RegionKR920.c ****     params->nvmCtxSize = sizeof( RegionKR920NvmCtx_t );
 491              		.loc 1 418 0
 492 0000 D423     		movs	r3, #212
 419:../../../../../../Middlewares/Third_Party/LoRaWAN/Mac/region/RegionKR920.c ****     return &NvmCtx;
 420:../../../../../../Middlewares/Third_Party/LoRaWAN/Mac/region/RegionKR920.c **** }
ARM GAS  C:\Users\EBANO_~1\AppData\Local\Temp\ccLo4wHn.s 			page 18


 493              		.loc 1 420 0
 494              		@ sp needed
 418:../../../../../../Middlewares/Third_Party/LoRaWAN/Mac/region/RegionKR920.c ****     params->nvmCtxSize = sizeof( RegionKR920NvmCtx_t );
 495              		.loc 1 418 0
 496 0002 0360     		str	r3, [r0]
 497              		.loc 1 420 0
 498 0004 0048     		ldr	r0, .L46
 499              	.LVL23:
 500 0006 7047     		bx	lr
 501              	.L47:
 502              		.align	2
 503              	.L46:
 504 0008 00000000 		.word	NvmCtx
 505              		.cfi_endproc
 506              	.LFE48:
 507              		.size	RegionKR920GetNvmCtx, .-RegionKR920GetNvmCtx
 508              		.section	.text.RegionKR920Verify,"ax",%progbits
 509              		.align	1
 510              		.p2align 2,,3
 511              		.global	RegionKR920Verify
 512              		.syntax unified
 513              		.code	16
 514              		.thumb_func
 515              		.fpu softvfp
 516              		.type	RegionKR920Verify, %function
 517              	RegionKR920Verify:
 518              	.LFB49:
 421:../../../../../../Middlewares/Third_Party/LoRaWAN/Mac/region/RegionKR920.c **** 
 422:../../../../../../Middlewares/Third_Party/LoRaWAN/Mac/region/RegionKR920.c **** bool RegionKR920Verify( VerifyParams_t* verify, PhyAttribute_t phyAttribute )
 423:../../../../../../Middlewares/Third_Party/LoRaWAN/Mac/region/RegionKR920.c **** {
 519              		.loc 1 423 0
 520              		.cfi_startproc
 521              		@ args = 0, pretend = 0, frame = 0
 522              		@ frame_needed = 0, uses_anonymous_args = 0
 523              	.LVL24:
 524 0000 10B5     		push	{r4, lr}
 525              	.LCFI5:
 526              		.cfi_def_cfa_offset 8
 527              		.cfi_offset 4, -8
 528              		.cfi_offset 14, -4
 424:../../../../../../Middlewares/Third_Party/LoRaWAN/Mac/region/RegionKR920.c ****     switch( phyAttribute )
 529              		.loc 1 424 0
 530 0002 0429     		cmp	r1, #4
 531 0004 18D3     		bcc	.L52
 532 0006 0629     		cmp	r1, #6
 533 0008 09D8     		bhi	.L54
 425:../../../../../../Middlewares/Third_Party/LoRaWAN/Mac/region/RegionKR920.c ****     {
 426:../../../../../../Middlewares/Third_Party/LoRaWAN/Mac/region/RegionKR920.c ****         case PHY_TX_DR:
 427:../../../../../../Middlewares/Third_Party/LoRaWAN/Mac/region/RegionKR920.c ****         {
 428:../../../../../../Middlewares/Third_Party/LoRaWAN/Mac/region/RegionKR920.c ****             return RegionCommonValueInRange( verify->DatarateParams.Datarate, KR920_TX_MIN_DATARATE
 534              		.loc 1 428 0
 535 000a 0078     		ldrb	r0, [r0]
 536              	.LVL25:
 537 000c 0522     		movs	r2, #5
 538 000e 40B2     		sxtb	r0, r0
 539 0010 0021     		movs	r1, #0
 540              	.LVL26:
ARM GAS  C:\Users\EBANO_~1\AppData\Local\Temp\ccLo4wHn.s 			page 19


 541 0012 FFF7FEFF 		bl	RegionCommonValueInRange
 542              	.LVL27:
 543 0016 431E     		subs	r3, r0, #1
 544 0018 9841     		sbcs	r0, r0, r3
 545 001a C0B2     		uxtb	r0, r0
 546              	.L49:
 429:../../../../../../Middlewares/Third_Party/LoRaWAN/Mac/region/RegionKR920.c ****         }
 430:../../../../../../Middlewares/Third_Party/LoRaWAN/Mac/region/RegionKR920.c ****         case PHY_DEF_TX_DR:
 431:../../../../../../Middlewares/Third_Party/LoRaWAN/Mac/region/RegionKR920.c ****         {
 432:../../../../../../Middlewares/Third_Party/LoRaWAN/Mac/region/RegionKR920.c ****             return RegionCommonValueInRange( verify->DatarateParams.Datarate, DR_0, DR_5 );
 433:../../../../../../Middlewares/Third_Party/LoRaWAN/Mac/region/RegionKR920.c ****         }
 434:../../../../../../Middlewares/Third_Party/LoRaWAN/Mac/region/RegionKR920.c ****         case PHY_RX_DR:
 435:../../../../../../Middlewares/Third_Party/LoRaWAN/Mac/region/RegionKR920.c ****         {
 436:../../../../../../Middlewares/Third_Party/LoRaWAN/Mac/region/RegionKR920.c ****             return RegionCommonValueInRange( verify->DatarateParams.Datarate, KR920_RX_MIN_DATARATE
 437:../../../../../../Middlewares/Third_Party/LoRaWAN/Mac/region/RegionKR920.c ****         }
 438:../../../../../../Middlewares/Third_Party/LoRaWAN/Mac/region/RegionKR920.c ****         case PHY_DEF_TX_POWER:
 439:../../../../../../Middlewares/Third_Party/LoRaWAN/Mac/region/RegionKR920.c ****         case PHY_TX_POWER:
 440:../../../../../../Middlewares/Third_Party/LoRaWAN/Mac/region/RegionKR920.c ****         {
 441:../../../../../../Middlewares/Third_Party/LoRaWAN/Mac/region/RegionKR920.c ****             // Remark: switched min and max!
 442:../../../../../../Middlewares/Third_Party/LoRaWAN/Mac/region/RegionKR920.c ****             return RegionCommonValueInRange( verify->TxPower, KR920_MAX_TX_POWER, KR920_MIN_TX_POWE
 443:../../../../../../Middlewares/Third_Party/LoRaWAN/Mac/region/RegionKR920.c ****         }
 444:../../../../../../Middlewares/Third_Party/LoRaWAN/Mac/region/RegionKR920.c ****         case PHY_DUTY_CYCLE:
 445:../../../../../../Middlewares/Third_Party/LoRaWAN/Mac/region/RegionKR920.c ****         {
 446:../../../../../../Middlewares/Third_Party/LoRaWAN/Mac/region/RegionKR920.c ****             return KR920_DUTY_CYCLE_ENABLED;
 447:../../../../../../Middlewares/Third_Party/LoRaWAN/Mac/region/RegionKR920.c ****         }
 448:../../../../../../Middlewares/Third_Party/LoRaWAN/Mac/region/RegionKR920.c ****         default:
 449:../../../../../../Middlewares/Third_Party/LoRaWAN/Mac/region/RegionKR920.c ****             return false;
 450:../../../../../../Middlewares/Third_Party/LoRaWAN/Mac/region/RegionKR920.c ****     }
 451:../../../../../../Middlewares/Third_Party/LoRaWAN/Mac/region/RegionKR920.c **** }
 547              		.loc 1 451 0
 548              		@ sp needed
 549 001c 10BD     		pop	{r4, pc}
 550              	.LVL28:
 551              	.L54:
 424:../../../../../../Middlewares/Third_Party/LoRaWAN/Mac/region/RegionKR920.c ****     {
 552              		.loc 1 424 0
 553 001e 0839     		subs	r1, r1, #8
 554              	.LVL29:
 555 0020 0129     		cmp	r1, #1
 556 0022 09D8     		bhi	.L52
 442:../../../../../../Middlewares/Third_Party/LoRaWAN/Mac/region/RegionKR920.c ****         }
 557              		.loc 1 442 0
 558 0024 0078     		ldrb	r0, [r0]
 559              	.LVL30:
 560 0026 0722     		movs	r2, #7
 561 0028 40B2     		sxtb	r0, r0
 562 002a 0021     		movs	r1, #0
 563 002c FFF7FEFF 		bl	RegionCommonValueInRange
 564              	.LVL31:
 565 0030 431E     		subs	r3, r0, #1
 566 0032 9841     		sbcs	r0, r0, r3
 567 0034 C0B2     		uxtb	r0, r0
 568 0036 F1E7     		b	.L49
 569              	.LVL32:
 570              	.L52:
 446:../../../../../../Middlewares/Third_Party/LoRaWAN/Mac/region/RegionKR920.c ****         }
 571              		.loc 1 446 0
ARM GAS  C:\Users\EBANO_~1\AppData\Local\Temp\ccLo4wHn.s 			page 20


 572 0038 0020     		movs	r0, #0
 573              	.LVL33:
 574 003a EFE7     		b	.L49
 575              		.cfi_endproc
 576              	.LFE49:
 577              		.size	RegionKR920Verify, .-RegionKR920Verify
 578              		.global	__aeabi_uidivmod
 579              		.section	.text.RegionKR920ApplyCFList,"ax",%progbits
 580              		.align	1
 581              		.p2align 2,,3
 582              		.global	RegionKR920ApplyCFList
 583              		.syntax unified
 584              		.code	16
 585              		.thumb_func
 586              		.fpu softvfp
 587              		.type	RegionKR920ApplyCFList, %function
 588              	RegionKR920ApplyCFList:
 589              	.LFB50:
 452:../../../../../../Middlewares/Third_Party/LoRaWAN/Mac/region/RegionKR920.c **** 
 453:../../../../../../Middlewares/Third_Party/LoRaWAN/Mac/region/RegionKR920.c **** void RegionKR920ApplyCFList( ApplyCFListParams_t* applyCFList )
 454:../../../../../../Middlewares/Third_Party/LoRaWAN/Mac/region/RegionKR920.c **** {
 590              		.loc 1 454 0
 591              		.cfi_startproc
 592              		@ args = 0, pretend = 0, frame = 24
 593              		@ frame_needed = 0, uses_anonymous_args = 0
 594              	.LVL34:
 595 0000 F0B5     		push	{r4, r5, r6, r7, lr}
 596              	.LCFI6:
 597              		.cfi_def_cfa_offset 20
 598              		.cfi_offset 4, -20
 599              		.cfi_offset 5, -16
 600              		.cfi_offset 6, -12
 601              		.cfi_offset 7, -8
 602              		.cfi_offset 14, -4
 603 0002 4546     		mov	r5, r8
 604 0004 DE46     		mov	lr, fp
 605 0006 5746     		mov	r7, r10
 606 0008 4E46     		mov	r6, r9
 455:../../../../../../Middlewares/Third_Party/LoRaWAN/Mac/region/RegionKR920.c ****     ChannelParams_t newChannel;
 456:../../../../../../Middlewares/Third_Party/LoRaWAN/Mac/region/RegionKR920.c ****     ChannelAddParams_t channelAdd;
 457:../../../../../../Middlewares/Third_Party/LoRaWAN/Mac/region/RegionKR920.c ****     ChannelRemoveParams_t channelRemove;
 458:../../../../../../Middlewares/Third_Party/LoRaWAN/Mac/region/RegionKR920.c **** 
 459:../../../../../../Middlewares/Third_Party/LoRaWAN/Mac/region/RegionKR920.c ****     // Setup default datarate range
 460:../../../../../../Middlewares/Third_Party/LoRaWAN/Mac/region/RegionKR920.c ****     newChannel.DrRange.Value = ( DR_5 << 4 ) | DR_0;
 607              		.loc 1 460 0
 608 000a 5023     		movs	r3, #80
 454:../../../../../../Middlewares/Third_Party/LoRaWAN/Mac/region/RegionKR920.c ****     ChannelParams_t newChannel;
 609              		.loc 1 454 0
 610 000c E0B5     		push	{r5, r6, r7, lr}
 611              	.LCFI7:
 612              		.cfi_def_cfa_offset 36
 613              		.cfi_offset 8, -36
 614              		.cfi_offset 9, -32
 615              		.cfi_offset 10, -28
 616              		.cfi_offset 11, -24
 617 000e 87B0     		sub	sp, sp, #28
 618              	.LCFI8:
ARM GAS  C:\Users\EBANO_~1\AppData\Local\Temp\ccLo4wHn.s 			page 21


 619              		.cfi_def_cfa_offset 64
 620              		.loc 1 460 0
 621 0010 03AC     		add	r4, sp, #12
 622 0012 2372     		strb	r3, [r4, #8]
 461:../../../../../../Middlewares/Third_Party/LoRaWAN/Mac/region/RegionKR920.c **** 
 462:../../../../../../Middlewares/Third_Party/LoRaWAN/Mac/region/RegionKR920.c ****     // Size of the optional CF list
 463:../../../../../../Middlewares/Third_Party/LoRaWAN/Mac/region/RegionKR920.c ****     if( applyCFList->Size != 16 )
 623              		.loc 1 463 0
 624 0014 0379     		ldrb	r3, [r0, #4]
 454:../../../../../../Middlewares/Third_Party/LoRaWAN/Mac/region/RegionKR920.c ****     ChannelParams_t newChannel;
 625              		.loc 1 454 0
 626 0016 8046     		mov	r8, r0
 627              		.loc 1 463 0
 628 0018 102B     		cmp	r3, #16
 629 001a 06D0     		beq	.L73
 630              	.LVL35:
 631              	.L55:
 464:../../../../../../Middlewares/Third_Party/LoRaWAN/Mac/region/RegionKR920.c ****     {
 465:../../../../../../Middlewares/Third_Party/LoRaWAN/Mac/region/RegionKR920.c ****         return;
 466:../../../../../../Middlewares/Third_Party/LoRaWAN/Mac/region/RegionKR920.c ****     }
 467:../../../../../../Middlewares/Third_Party/LoRaWAN/Mac/region/RegionKR920.c **** 
 468:../../../../../../Middlewares/Third_Party/LoRaWAN/Mac/region/RegionKR920.c ****     // Last byte CFListType must be 0 to indicate the CFList contains a list of frequencies
 469:../../../../../../Middlewares/Third_Party/LoRaWAN/Mac/region/RegionKR920.c ****     if( applyCFList->Payload[15] != 0 )
 470:../../../../../../Middlewares/Third_Party/LoRaWAN/Mac/region/RegionKR920.c ****     {
 471:../../../../../../Middlewares/Third_Party/LoRaWAN/Mac/region/RegionKR920.c ****         return;
 472:../../../../../../Middlewares/Third_Party/LoRaWAN/Mac/region/RegionKR920.c ****     }
 473:../../../../../../Middlewares/Third_Party/LoRaWAN/Mac/region/RegionKR920.c **** 
 474:../../../../../../Middlewares/Third_Party/LoRaWAN/Mac/region/RegionKR920.c ****     // Last byte is RFU, don't take it into account
 475:../../../../../../Middlewares/Third_Party/LoRaWAN/Mac/region/RegionKR920.c ****     for( uint8_t i = 0, chanIdx = KR920_NUMB_DEFAULT_CHANNELS; chanIdx < KR920_MAX_NB_CHANNELS; i+=
 476:../../../../../../Middlewares/Third_Party/LoRaWAN/Mac/region/RegionKR920.c ****     {
 477:../../../../../../Middlewares/Third_Party/LoRaWAN/Mac/region/RegionKR920.c ****         if( chanIdx < ( KR920_NUMB_CHANNELS_CF_LIST + KR920_NUMB_DEFAULT_CHANNELS ) )
 478:../../../../../../Middlewares/Third_Party/LoRaWAN/Mac/region/RegionKR920.c ****         {
 479:../../../../../../Middlewares/Third_Party/LoRaWAN/Mac/region/RegionKR920.c ****             // Channel frequency
 480:../../../../../../Middlewares/Third_Party/LoRaWAN/Mac/region/RegionKR920.c ****             newChannel.Frequency = (uint32_t) applyCFList->Payload[i];
 481:../../../../../../Middlewares/Third_Party/LoRaWAN/Mac/region/RegionKR920.c ****             newChannel.Frequency |= ( (uint32_t) applyCFList->Payload[i + 1] << 8 );
 482:../../../../../../Middlewares/Third_Party/LoRaWAN/Mac/region/RegionKR920.c ****             newChannel.Frequency |= ( (uint32_t) applyCFList->Payload[i + 2] << 16 );
 483:../../../../../../Middlewares/Third_Party/LoRaWAN/Mac/region/RegionKR920.c ****             newChannel.Frequency *= 100;
 484:../../../../../../Middlewares/Third_Party/LoRaWAN/Mac/region/RegionKR920.c **** 
 485:../../../../../../Middlewares/Third_Party/LoRaWAN/Mac/region/RegionKR920.c ****             // Initialize alternative frequency to 0
 486:../../../../../../Middlewares/Third_Party/LoRaWAN/Mac/region/RegionKR920.c ****             newChannel.Rx1Frequency = 0;
 487:../../../../../../Middlewares/Third_Party/LoRaWAN/Mac/region/RegionKR920.c ****         }
 488:../../../../../../Middlewares/Third_Party/LoRaWAN/Mac/region/RegionKR920.c ****         else
 489:../../../../../../Middlewares/Third_Party/LoRaWAN/Mac/region/RegionKR920.c ****         {
 490:../../../../../../Middlewares/Third_Party/LoRaWAN/Mac/region/RegionKR920.c ****             newChannel.Frequency = 0;
 491:../../../../../../Middlewares/Third_Party/LoRaWAN/Mac/region/RegionKR920.c ****             newChannel.DrRange.Value = 0;
 492:../../../../../../Middlewares/Third_Party/LoRaWAN/Mac/region/RegionKR920.c ****             newChannel.Rx1Frequency = 0;
 493:../../../../../../Middlewares/Third_Party/LoRaWAN/Mac/region/RegionKR920.c ****         }
 494:../../../../../../Middlewares/Third_Party/LoRaWAN/Mac/region/RegionKR920.c **** 
 495:../../../../../../Middlewares/Third_Party/LoRaWAN/Mac/region/RegionKR920.c ****         if( newChannel.Frequency != 0 )
 496:../../../../../../Middlewares/Third_Party/LoRaWAN/Mac/region/RegionKR920.c ****         {
 497:../../../../../../Middlewares/Third_Party/LoRaWAN/Mac/region/RegionKR920.c ****             channelAdd.NewChannel = &newChannel;
 498:../../../../../../Middlewares/Third_Party/LoRaWAN/Mac/region/RegionKR920.c ****             channelAdd.ChannelId = chanIdx;
 499:../../../../../../Middlewares/Third_Party/LoRaWAN/Mac/region/RegionKR920.c **** 
 500:../../../../../../Middlewares/Third_Party/LoRaWAN/Mac/region/RegionKR920.c ****             // Try to add all channels
 501:../../../../../../Middlewares/Third_Party/LoRaWAN/Mac/region/RegionKR920.c ****             RegionKR920ChannelAdd( &channelAdd );
 502:../../../../../../Middlewares/Third_Party/LoRaWAN/Mac/region/RegionKR920.c ****         }
 503:../../../../../../Middlewares/Third_Party/LoRaWAN/Mac/region/RegionKR920.c ****         else
ARM GAS  C:\Users\EBANO_~1\AppData\Local\Temp\ccLo4wHn.s 			page 22


 504:../../../../../../Middlewares/Third_Party/LoRaWAN/Mac/region/RegionKR920.c ****         {
 505:../../../../../../Middlewares/Third_Party/LoRaWAN/Mac/region/RegionKR920.c ****             channelRemove.ChannelId = chanIdx;
 506:../../../../../../Middlewares/Third_Party/LoRaWAN/Mac/region/RegionKR920.c **** 
 507:../../../../../../Middlewares/Third_Party/LoRaWAN/Mac/region/RegionKR920.c ****             RegionKR920ChannelsRemove( &channelRemove );
 508:../../../../../../Middlewares/Third_Party/LoRaWAN/Mac/region/RegionKR920.c ****         }
 509:../../../../../../Middlewares/Third_Party/LoRaWAN/Mac/region/RegionKR920.c ****     }
 510:../../../../../../Middlewares/Third_Party/LoRaWAN/Mac/region/RegionKR920.c **** }
 632              		.loc 1 510 0
 633 001c 07B0     		add	sp, sp, #28
 634              		@ sp needed
 635              	.LVL36:
 636 001e 3CBC     		pop	{r2, r3, r4, r5}
 637 0020 9046     		mov	r8, r2
 638 0022 9946     		mov	r9, r3
 639 0024 A246     		mov	r10, r4
 640 0026 AB46     		mov	fp, r5
 641 0028 F0BD     		pop	{r4, r5, r6, r7, pc}
 642              	.LVL37:
 643              	.L73:
 469:../../../../../../Middlewares/Third_Party/LoRaWAN/Mac/region/RegionKR920.c ****     {
 644              		.loc 1 469 0
 645 002a 0368     		ldr	r3, [r0]
 646 002c DB7B     		ldrb	r3, [r3, #15]
 647 002e 002B     		cmp	r3, #0
 648 0030 F4D1     		bne	.L55
 649              	.LBB31:
 650              	.LBB32:
 651              	.LBB33:
 511:../../../../../../Middlewares/Third_Party/LoRaWAN/Mac/region/RegionKR920.c **** 
 512:../../../../../../Middlewares/Third_Party/LoRaWAN/Mac/region/RegionKR920.c **** bool RegionKR920ChanMaskSet( ChanMaskSetParams_t* chanMaskSet )
 513:../../../../../../Middlewares/Third_Party/LoRaWAN/Mac/region/RegionKR920.c **** {
 514:../../../../../../Middlewares/Third_Party/LoRaWAN/Mac/region/RegionKR920.c ****     switch( chanMaskSet->ChannelsMaskType )
 515:../../../../../../Middlewares/Third_Party/LoRaWAN/Mac/region/RegionKR920.c ****     {
 516:../../../../../../Middlewares/Third_Party/LoRaWAN/Mac/region/RegionKR920.c ****         case CHANNELS_MASK:
 517:../../../../../../Middlewares/Third_Party/LoRaWAN/Mac/region/RegionKR920.c ****         {
 518:../../../../../../Middlewares/Third_Party/LoRaWAN/Mac/region/RegionKR920.c ****             RegionCommonChanMaskCopy( NvmCtx.ChannelsMask, chanMaskSet->ChannelsMaskIn, 1 );
 519:../../../../../../Middlewares/Third_Party/LoRaWAN/Mac/region/RegionKR920.c ****             break;
 520:../../../../../../Middlewares/Third_Party/LoRaWAN/Mac/region/RegionKR920.c ****         }
 521:../../../../../../Middlewares/Third_Party/LoRaWAN/Mac/region/RegionKR920.c ****         case CHANNELS_DEFAULT_MASK:
 522:../../../../../../Middlewares/Third_Party/LoRaWAN/Mac/region/RegionKR920.c ****         {
 523:../../../../../../Middlewares/Third_Party/LoRaWAN/Mac/region/RegionKR920.c ****             RegionCommonChanMaskCopy( NvmCtx.ChannelsDefaultMask, chanMaskSet->ChannelsMaskIn, 1 );
 524:../../../../../../Middlewares/Third_Party/LoRaWAN/Mac/region/RegionKR920.c ****             break;
 525:../../../../../../Middlewares/Third_Party/LoRaWAN/Mac/region/RegionKR920.c ****         }
 526:../../../../../../Middlewares/Third_Party/LoRaWAN/Mac/region/RegionKR920.c ****         default:
 527:../../../../../../Middlewares/Third_Party/LoRaWAN/Mac/region/RegionKR920.c ****             return false;
 528:../../../../../../Middlewares/Third_Party/LoRaWAN/Mac/region/RegionKR920.c ****     }
 529:../../../../../../Middlewares/Third_Party/LoRaWAN/Mac/region/RegionKR920.c ****     return true;
 530:../../../../../../Middlewares/Third_Party/LoRaWAN/Mac/region/RegionKR920.c **** }
 531:../../../../../../Middlewares/Third_Party/LoRaWAN/Mac/region/RegionKR920.c **** 
 532:../../../../../../Middlewares/Third_Party/LoRaWAN/Mac/region/RegionKR920.c **** void RegionKR920ComputeRxWindowParameters( int8_t datarate, uint8_t minRxSymbols, uint32_t rxError,
 533:../../../../../../Middlewares/Third_Party/LoRaWAN/Mac/region/RegionKR920.c **** {
 534:../../../../../../Middlewares/Third_Party/LoRaWAN/Mac/region/RegionKR920.c ****     double tSymbol = 0.0;
 535:../../../../../../Middlewares/Third_Party/LoRaWAN/Mac/region/RegionKR920.c **** 
 536:../../../../../../Middlewares/Third_Party/LoRaWAN/Mac/region/RegionKR920.c ****     // Get the datarate, perform a boundary check
 537:../../../../../../Middlewares/Third_Party/LoRaWAN/Mac/region/RegionKR920.c ****     rxConfigParams->Datarate = MIN( datarate, KR920_RX_MAX_DATARATE );
 538:../../../../../../Middlewares/Third_Party/LoRaWAN/Mac/region/RegionKR920.c ****     rxConfigParams->Bandwidth = GetBandwidth( rxConfigParams->Datarate );
 539:../../../../../../Middlewares/Third_Party/LoRaWAN/Mac/region/RegionKR920.c **** 
ARM GAS  C:\Users\EBANO_~1\AppData\Local\Temp\ccLo4wHn.s 			page 23


 540:../../../../../../Middlewares/Third_Party/LoRaWAN/Mac/region/RegionKR920.c ****     tSymbol = RegionCommonComputeSymbolTimeLoRa( DataratesKR920[rxConfigParams->Datarate], Bandwidt
 541:../../../../../../Middlewares/Third_Party/LoRaWAN/Mac/region/RegionKR920.c **** 
 542:../../../../../../Middlewares/Third_Party/LoRaWAN/Mac/region/RegionKR920.c ****     RegionCommonComputeRxWindowParameters( tSymbol, minRxSymbols, rxError, Radio.GetWakeupTime( ), 
 543:../../../../../../Middlewares/Third_Party/LoRaWAN/Mac/region/RegionKR920.c **** }
 544:../../../../../../Middlewares/Third_Party/LoRaWAN/Mac/region/RegionKR920.c **** 
 545:../../../../../../Middlewares/Third_Party/LoRaWAN/Mac/region/RegionKR920.c **** bool RegionKR920RxConfig( RxConfigParams_t* rxConfig, int8_t* datarate )
 546:../../../../../../Middlewares/Third_Party/LoRaWAN/Mac/region/RegionKR920.c **** {
 547:../../../../../../Middlewares/Third_Party/LoRaWAN/Mac/region/RegionKR920.c ****     int8_t dr = rxConfig->Datarate;
 548:../../../../../../Middlewares/Third_Party/LoRaWAN/Mac/region/RegionKR920.c ****     uint8_t maxPayload = 0;
 549:../../../../../../Middlewares/Third_Party/LoRaWAN/Mac/region/RegionKR920.c ****     int8_t phyDr = 0;
 550:../../../../../../Middlewares/Third_Party/LoRaWAN/Mac/region/RegionKR920.c ****     uint32_t frequency = rxConfig->Frequency;
 551:../../../../../../Middlewares/Third_Party/LoRaWAN/Mac/region/RegionKR920.c **** 
 552:../../../../../../Middlewares/Third_Party/LoRaWAN/Mac/region/RegionKR920.c ****     if( Radio.GetStatus( ) != RF_IDLE )
 553:../../../../../../Middlewares/Third_Party/LoRaWAN/Mac/region/RegionKR920.c ****     {
 554:../../../../../../Middlewares/Third_Party/LoRaWAN/Mac/region/RegionKR920.c ****         return false;
 555:../../../../../../Middlewares/Third_Party/LoRaWAN/Mac/region/RegionKR920.c ****     }
 556:../../../../../../Middlewares/Third_Party/LoRaWAN/Mac/region/RegionKR920.c **** 
 557:../../../../../../Middlewares/Third_Party/LoRaWAN/Mac/region/RegionKR920.c ****     if( rxConfig->RxSlot == RX_SLOT_WIN_1 )
 558:../../../../../../Middlewares/Third_Party/LoRaWAN/Mac/region/RegionKR920.c ****     {
 559:../../../../../../Middlewares/Third_Party/LoRaWAN/Mac/region/RegionKR920.c ****         // Apply window 1 frequency
 560:../../../../../../Middlewares/Third_Party/LoRaWAN/Mac/region/RegionKR920.c ****         frequency = NvmCtx.Channels[rxConfig->Channel].Frequency;
 561:../../../../../../Middlewares/Third_Party/LoRaWAN/Mac/region/RegionKR920.c ****         // Apply the alternative RX 1 window frequency, if it is available
 562:../../../../../../Middlewares/Third_Party/LoRaWAN/Mac/region/RegionKR920.c ****         if( NvmCtx.Channels[rxConfig->Channel].Rx1Frequency != 0 )
 563:../../../../../../Middlewares/Third_Party/LoRaWAN/Mac/region/RegionKR920.c ****         {
 564:../../../../../../Middlewares/Third_Party/LoRaWAN/Mac/region/RegionKR920.c ****             frequency = NvmCtx.Channels[rxConfig->Channel].Rx1Frequency;
 565:../../../../../../Middlewares/Third_Party/LoRaWAN/Mac/region/RegionKR920.c ****         }
 566:../../../../../../Middlewares/Third_Party/LoRaWAN/Mac/region/RegionKR920.c ****     }
 567:../../../../../../Middlewares/Third_Party/LoRaWAN/Mac/region/RegionKR920.c **** 
 568:../../../../../../Middlewares/Third_Party/LoRaWAN/Mac/region/RegionKR920.c ****     // Read the physical datarate from the datarates table
 569:../../../../../../Middlewares/Third_Party/LoRaWAN/Mac/region/RegionKR920.c ****     phyDr = DataratesKR920[dr];
 570:../../../../../../Middlewares/Third_Party/LoRaWAN/Mac/region/RegionKR920.c **** 
 571:../../../../../../Middlewares/Third_Party/LoRaWAN/Mac/region/RegionKR920.c ****     Radio.SetChannel( frequency );
 572:../../../../../../Middlewares/Third_Party/LoRaWAN/Mac/region/RegionKR920.c **** 
 573:../../../../../../Middlewares/Third_Party/LoRaWAN/Mac/region/RegionKR920.c ****     // Radio configuration
 574:../../../../../../Middlewares/Third_Party/LoRaWAN/Mac/region/RegionKR920.c ****     Radio.SetRxConfig( MODEM_LORA, rxConfig->Bandwidth, phyDr, 1, 0, 8, rxConfig->WindowTimeout, fa
 575:../../../../../../Middlewares/Third_Party/LoRaWAN/Mac/region/RegionKR920.c ****     maxPayload = MaxPayloadOfDatarateKR920[dr];
 576:../../../../../../Middlewares/Third_Party/LoRaWAN/Mac/region/RegionKR920.c ****     Radio.SetMaxPayloadLength( MODEM_LORA, maxPayload + LORA_MAC_FRMPAYLOAD_OVERHEAD );
 577:../../../../../../Middlewares/Third_Party/LoRaWAN/Mac/region/RegionKR920.c ****     TVL1( PRINTF( "RX on freq %d Hz at DR %d\n\r", frequency, dr );)
 578:../../../../../../Middlewares/Third_Party/LoRaWAN/Mac/region/RegionKR920.c **** 
 579:../../../../../../Middlewares/Third_Party/LoRaWAN/Mac/region/RegionKR920.c ****     *datarate = (uint8_t) dr;
 580:../../../../../../Middlewares/Third_Party/LoRaWAN/Mac/region/RegionKR920.c ****     return true;
 581:../../../../../../Middlewares/Third_Party/LoRaWAN/Mac/region/RegionKR920.c **** }
 582:../../../../../../Middlewares/Third_Party/LoRaWAN/Mac/region/RegionKR920.c **** 
 583:../../../../../../Middlewares/Third_Party/LoRaWAN/Mac/region/RegionKR920.c **** bool RegionKR920TxConfig( TxConfigParams_t* txConfig, int8_t* txPower, TimerTime_t* txTimeOnAir )
 584:../../../../../../Middlewares/Third_Party/LoRaWAN/Mac/region/RegionKR920.c **** {
 585:../../../../../../Middlewares/Third_Party/LoRaWAN/Mac/region/RegionKR920.c ****     int8_t phyDr = DataratesKR920[txConfig->Datarate];
 586:../../../../../../Middlewares/Third_Party/LoRaWAN/Mac/region/RegionKR920.c ****     int8_t txPowerLimited = LimitTxPower( txConfig->TxPower, NvmCtx.Bands[NvmCtx.Channels[txConfig-
 587:../../../../../../Middlewares/Third_Party/LoRaWAN/Mac/region/RegionKR920.c ****     uint32_t bandwidth = GetBandwidth( txConfig->Datarate );
 588:../../../../../../Middlewares/Third_Party/LoRaWAN/Mac/region/RegionKR920.c ****     float maxEIRP = GetMaxEIRP( NvmCtx.Channels[txConfig->Channel].Frequency );
 589:../../../../../../Middlewares/Third_Party/LoRaWAN/Mac/region/RegionKR920.c ****     int8_t phyTxPower = 0;
 590:../../../../../../Middlewares/Third_Party/LoRaWAN/Mac/region/RegionKR920.c **** 
 591:../../../../../../Middlewares/Third_Party/LoRaWAN/Mac/region/RegionKR920.c ****     // Take the minimum between the maxEIRP and txConfig->MaxEirp.
 592:../../../../../../Middlewares/Third_Party/LoRaWAN/Mac/region/RegionKR920.c ****     // The value of txConfig->MaxEirp could have changed during runtime, e.g. due to a MAC command.
 593:../../../../../../Middlewares/Third_Party/LoRaWAN/Mac/region/RegionKR920.c ****     maxEIRP = MIN( txConfig->MaxEirp, maxEIRP );
 594:../../../../../../Middlewares/Third_Party/LoRaWAN/Mac/region/RegionKR920.c **** 
 595:../../../../../../Middlewares/Third_Party/LoRaWAN/Mac/region/RegionKR920.c ****     // Calculate physical TX power
 596:../../../../../../Middlewares/Third_Party/LoRaWAN/Mac/region/RegionKR920.c ****     phyTxPower = RegionCommonComputeTxPower( txPowerLimited, maxEIRP, txConfig->AntennaGain );
ARM GAS  C:\Users\EBANO_~1\AppData\Local\Temp\ccLo4wHn.s 			page 24


 597:../../../../../../Middlewares/Third_Party/LoRaWAN/Mac/region/RegionKR920.c **** 
 598:../../../../../../Middlewares/Third_Party/LoRaWAN/Mac/region/RegionKR920.c ****     // Setup the radio frequency
 599:../../../../../../Middlewares/Third_Party/LoRaWAN/Mac/region/RegionKR920.c ****     Radio.SetChannel( NvmCtx.Channels[txConfig->Channel].Frequency );
 600:../../../../../../Middlewares/Third_Party/LoRaWAN/Mac/region/RegionKR920.c **** 
 601:../../../../../../Middlewares/Third_Party/LoRaWAN/Mac/region/RegionKR920.c ****     Radio.SetTxConfig( MODEM_LORA, phyTxPower, 0, bandwidth, phyDr, 1, 8, false, true, 0, 0, false,
 602:../../../../../../Middlewares/Third_Party/LoRaWAN/Mac/region/RegionKR920.c ****     TVL1( PRINTF( "TX on freq %d Hz at DR %d\n\r", NvmCtx.Channels[txConfig->Channel].Frequency, tx
 603:../../../../../../Middlewares/Third_Party/LoRaWAN/Mac/region/RegionKR920.c **** 
 604:../../../../../../Middlewares/Third_Party/LoRaWAN/Mac/region/RegionKR920.c ****     // Setup maximum payload lenght of the radio driver
 605:../../../../../../Middlewares/Third_Party/LoRaWAN/Mac/region/RegionKR920.c ****     Radio.SetMaxPayloadLength( MODEM_LORA, txConfig->PktLen );
 606:../../../../../../Middlewares/Third_Party/LoRaWAN/Mac/region/RegionKR920.c ****     // Get the time-on-air of the next tx frame
 607:../../../../../../Middlewares/Third_Party/LoRaWAN/Mac/region/RegionKR920.c ****     *txTimeOnAir = Radio.TimeOnAir( MODEM_LORA, txConfig->PktLen );
 608:../../../../../../Middlewares/Third_Party/LoRaWAN/Mac/region/RegionKR920.c **** 
 609:../../../../../../Middlewares/Third_Party/LoRaWAN/Mac/region/RegionKR920.c ****     *txPower = txPowerLimited;
 610:../../../../../../Middlewares/Third_Party/LoRaWAN/Mac/region/RegionKR920.c ****     return true;
 611:../../../../../../Middlewares/Third_Party/LoRaWAN/Mac/region/RegionKR920.c **** }
 612:../../../../../../Middlewares/Third_Party/LoRaWAN/Mac/region/RegionKR920.c **** 
 613:../../../../../../Middlewares/Third_Party/LoRaWAN/Mac/region/RegionKR920.c **** uint8_t RegionKR920LinkAdrReq( LinkAdrReqParams_t* linkAdrReq, int8_t* drOut, int8_t* txPowOut, uin
 614:../../../../../../Middlewares/Third_Party/LoRaWAN/Mac/region/RegionKR920.c **** {
 615:../../../../../../Middlewares/Third_Party/LoRaWAN/Mac/region/RegionKR920.c ****     uint8_t status = 0x07;
 616:../../../../../../Middlewares/Third_Party/LoRaWAN/Mac/region/RegionKR920.c ****     RegionCommonLinkAdrParams_t linkAdrParams;
 617:../../../../../../Middlewares/Third_Party/LoRaWAN/Mac/region/RegionKR920.c ****     uint8_t nextIndex = 0;
 618:../../../../../../Middlewares/Third_Party/LoRaWAN/Mac/region/RegionKR920.c ****     uint8_t bytesProcessed = 0;
 619:../../../../../../Middlewares/Third_Party/LoRaWAN/Mac/region/RegionKR920.c ****     uint16_t chMask = 0;
 620:../../../../../../Middlewares/Third_Party/LoRaWAN/Mac/region/RegionKR920.c ****     GetPhyParams_t getPhy;
 621:../../../../../../Middlewares/Third_Party/LoRaWAN/Mac/region/RegionKR920.c ****     PhyParam_t phyParam;
 622:../../../../../../Middlewares/Third_Party/LoRaWAN/Mac/region/RegionKR920.c ****     RegionCommonLinkAdrReqVerifyParams_t linkAdrVerifyParams;
 623:../../../../../../Middlewares/Third_Party/LoRaWAN/Mac/region/RegionKR920.c **** 
 624:../../../../../../Middlewares/Third_Party/LoRaWAN/Mac/region/RegionKR920.c ****     while( bytesProcessed < linkAdrReq->PayloadSize )
 625:../../../../../../Middlewares/Third_Party/LoRaWAN/Mac/region/RegionKR920.c ****     {
 626:../../../../../../Middlewares/Third_Party/LoRaWAN/Mac/region/RegionKR920.c ****         // Get ADR request parameters
 627:../../../../../../Middlewares/Third_Party/LoRaWAN/Mac/region/RegionKR920.c ****         nextIndex = RegionCommonParseLinkAdrReq( &( linkAdrReq->Payload[bytesProcessed] ), &linkAdr
 628:../../../../../../Middlewares/Third_Party/LoRaWAN/Mac/region/RegionKR920.c **** 
 629:../../../../../../Middlewares/Third_Party/LoRaWAN/Mac/region/RegionKR920.c ****         if( nextIndex == 0 )
 630:../../../../../../Middlewares/Third_Party/LoRaWAN/Mac/region/RegionKR920.c ****             break; // break loop, since no more request has been found
 631:../../../../../../Middlewares/Third_Party/LoRaWAN/Mac/region/RegionKR920.c **** 
 632:../../../../../../Middlewares/Third_Party/LoRaWAN/Mac/region/RegionKR920.c ****         // Update bytes processed
 633:../../../../../../Middlewares/Third_Party/LoRaWAN/Mac/region/RegionKR920.c ****         bytesProcessed += nextIndex;
 634:../../../../../../Middlewares/Third_Party/LoRaWAN/Mac/region/RegionKR920.c **** 
 635:../../../../../../Middlewares/Third_Party/LoRaWAN/Mac/region/RegionKR920.c ****         // Revert status, as we only check the last ADR request for the channel mask KO
 636:../../../../../../Middlewares/Third_Party/LoRaWAN/Mac/region/RegionKR920.c ****         status = 0x07;
 637:../../../../../../Middlewares/Third_Party/LoRaWAN/Mac/region/RegionKR920.c **** 
 638:../../../../../../Middlewares/Third_Party/LoRaWAN/Mac/region/RegionKR920.c ****         // Setup temporary channels mask
 639:../../../../../../Middlewares/Third_Party/LoRaWAN/Mac/region/RegionKR920.c ****         chMask = linkAdrParams.ChMask;
 640:../../../../../../Middlewares/Third_Party/LoRaWAN/Mac/region/RegionKR920.c **** 
 641:../../../../../../Middlewares/Third_Party/LoRaWAN/Mac/region/RegionKR920.c ****         // Verify channels mask
 642:../../../../../../Middlewares/Third_Party/LoRaWAN/Mac/region/RegionKR920.c ****         if( ( linkAdrParams.ChMaskCtrl == 0 ) && ( chMask == 0 ) )
 643:../../../../../../Middlewares/Third_Party/LoRaWAN/Mac/region/RegionKR920.c ****         {
 644:../../../../../../Middlewares/Third_Party/LoRaWAN/Mac/region/RegionKR920.c ****             status &= 0xFE; // Channel mask KO
 645:../../../../../../Middlewares/Third_Party/LoRaWAN/Mac/region/RegionKR920.c ****         }
 646:../../../../../../Middlewares/Third_Party/LoRaWAN/Mac/region/RegionKR920.c ****         else if( ( ( linkAdrParams.ChMaskCtrl >= 1 ) && ( linkAdrParams.ChMaskCtrl <= 5 )) ||
 647:../../../../../../Middlewares/Third_Party/LoRaWAN/Mac/region/RegionKR920.c ****                 ( linkAdrParams.ChMaskCtrl >= 7 ) )
 648:../../../../../../Middlewares/Third_Party/LoRaWAN/Mac/region/RegionKR920.c ****         {
 649:../../../../../../Middlewares/Third_Party/LoRaWAN/Mac/region/RegionKR920.c ****             // RFU
 650:../../../../../../Middlewares/Third_Party/LoRaWAN/Mac/region/RegionKR920.c ****             status &= 0xFE; // Channel mask KO
 651:../../../../../../Middlewares/Third_Party/LoRaWAN/Mac/region/RegionKR920.c ****         }
 652:../../../../../../Middlewares/Third_Party/LoRaWAN/Mac/region/RegionKR920.c ****         else
 653:../../../../../../Middlewares/Third_Party/LoRaWAN/Mac/region/RegionKR920.c ****         {
ARM GAS  C:\Users\EBANO_~1\AppData\Local\Temp\ccLo4wHn.s 			page 25


 654:../../../../../../Middlewares/Third_Party/LoRaWAN/Mac/region/RegionKR920.c ****             for( uint8_t i = 0; i < KR920_MAX_NB_CHANNELS; i++ )
 655:../../../../../../Middlewares/Third_Party/LoRaWAN/Mac/region/RegionKR920.c ****             {
 656:../../../../../../Middlewares/Third_Party/LoRaWAN/Mac/region/RegionKR920.c ****                 if( linkAdrParams.ChMaskCtrl == 6 )
 657:../../../../../../Middlewares/Third_Party/LoRaWAN/Mac/region/RegionKR920.c ****                 {
 658:../../../../../../Middlewares/Third_Party/LoRaWAN/Mac/region/RegionKR920.c ****                     if( NvmCtx.Channels[i].Frequency != 0 )
 659:../../../../../../Middlewares/Third_Party/LoRaWAN/Mac/region/RegionKR920.c ****                     {
 660:../../../../../../Middlewares/Third_Party/LoRaWAN/Mac/region/RegionKR920.c ****                         chMask |= 1 << i;
 661:../../../../../../Middlewares/Third_Party/LoRaWAN/Mac/region/RegionKR920.c ****                     }
 662:../../../../../../Middlewares/Third_Party/LoRaWAN/Mac/region/RegionKR920.c ****                 }
 663:../../../../../../Middlewares/Third_Party/LoRaWAN/Mac/region/RegionKR920.c ****                 else
 664:../../../../../../Middlewares/Third_Party/LoRaWAN/Mac/region/RegionKR920.c ****                 {
 665:../../../../../../Middlewares/Third_Party/LoRaWAN/Mac/region/RegionKR920.c ****                     if( ( ( chMask & ( 1 << i ) ) != 0 ) &&
 666:../../../../../../Middlewares/Third_Party/LoRaWAN/Mac/region/RegionKR920.c ****                         ( NvmCtx.Channels[i].Frequency == 0 ) )
 667:../../../../../../Middlewares/Third_Party/LoRaWAN/Mac/region/RegionKR920.c ****                     {// Trying to enable an undefined channel
 668:../../../../../../Middlewares/Third_Party/LoRaWAN/Mac/region/RegionKR920.c ****                         status &= 0xFE; // Channel mask KO
 669:../../../../../../Middlewares/Third_Party/LoRaWAN/Mac/region/RegionKR920.c ****                     }
 670:../../../../../../Middlewares/Third_Party/LoRaWAN/Mac/region/RegionKR920.c ****                 }
 671:../../../../../../Middlewares/Third_Party/LoRaWAN/Mac/region/RegionKR920.c ****             }
 672:../../../../../../Middlewares/Third_Party/LoRaWAN/Mac/region/RegionKR920.c ****         }
 673:../../../../../../Middlewares/Third_Party/LoRaWAN/Mac/region/RegionKR920.c ****     }
 674:../../../../../../Middlewares/Third_Party/LoRaWAN/Mac/region/RegionKR920.c **** 
 675:../../../../../../Middlewares/Third_Party/LoRaWAN/Mac/region/RegionKR920.c ****     // Get the minimum possible datarate
 676:../../../../../../Middlewares/Third_Party/LoRaWAN/Mac/region/RegionKR920.c ****     getPhy.Attribute = PHY_MIN_TX_DR;
 677:../../../../../../Middlewares/Third_Party/LoRaWAN/Mac/region/RegionKR920.c ****     getPhy.UplinkDwellTime = linkAdrReq->UplinkDwellTime;
 678:../../../../../../Middlewares/Third_Party/LoRaWAN/Mac/region/RegionKR920.c ****     phyParam = RegionKR920GetPhyParam( &getPhy );
 679:../../../../../../Middlewares/Third_Party/LoRaWAN/Mac/region/RegionKR920.c **** 
 680:../../../../../../Middlewares/Third_Party/LoRaWAN/Mac/region/RegionKR920.c ****     linkAdrVerifyParams.Status = status;
 681:../../../../../../Middlewares/Third_Party/LoRaWAN/Mac/region/RegionKR920.c ****     linkAdrVerifyParams.AdrEnabled = linkAdrReq->AdrEnabled;
 682:../../../../../../Middlewares/Third_Party/LoRaWAN/Mac/region/RegionKR920.c ****     linkAdrVerifyParams.Datarate = linkAdrParams.Datarate;
 683:../../../../../../Middlewares/Third_Party/LoRaWAN/Mac/region/RegionKR920.c ****     linkAdrVerifyParams.TxPower = linkAdrParams.TxPower;
 684:../../../../../../Middlewares/Third_Party/LoRaWAN/Mac/region/RegionKR920.c ****     linkAdrVerifyParams.NbRep = linkAdrParams.NbRep;
 685:../../../../../../Middlewares/Third_Party/LoRaWAN/Mac/region/RegionKR920.c ****     linkAdrVerifyParams.CurrentDatarate = linkAdrReq->CurrentDatarate;
 686:../../../../../../Middlewares/Third_Party/LoRaWAN/Mac/region/RegionKR920.c ****     linkAdrVerifyParams.CurrentTxPower = linkAdrReq->CurrentTxPower;
 687:../../../../../../Middlewares/Third_Party/LoRaWAN/Mac/region/RegionKR920.c ****     linkAdrVerifyParams.CurrentNbRep = linkAdrReq->CurrentNbRep;
 688:../../../../../../Middlewares/Third_Party/LoRaWAN/Mac/region/RegionKR920.c ****     linkAdrVerifyParams.NbChannels = KR920_MAX_NB_CHANNELS;
 689:../../../../../../Middlewares/Third_Party/LoRaWAN/Mac/region/RegionKR920.c ****     linkAdrVerifyParams.ChannelsMask = &chMask;
 690:../../../../../../Middlewares/Third_Party/LoRaWAN/Mac/region/RegionKR920.c ****     linkAdrVerifyParams.MinDatarate = ( int8_t )phyParam.Value;
 691:../../../../../../Middlewares/Third_Party/LoRaWAN/Mac/region/RegionKR920.c ****     linkAdrVerifyParams.MaxDatarate = KR920_TX_MAX_DATARATE;
 692:../../../../../../Middlewares/Third_Party/LoRaWAN/Mac/region/RegionKR920.c ****     linkAdrVerifyParams.Channels = NvmCtx.Channels;
 693:../../../../../../Middlewares/Third_Party/LoRaWAN/Mac/region/RegionKR920.c ****     linkAdrVerifyParams.MinTxPower = KR920_MIN_TX_POWER;
 694:../../../../../../Middlewares/Third_Party/LoRaWAN/Mac/region/RegionKR920.c ****     linkAdrVerifyParams.MaxTxPower = KR920_MAX_TX_POWER;
 695:../../../../../../Middlewares/Third_Party/LoRaWAN/Mac/region/RegionKR920.c ****     linkAdrVerifyParams.Version = linkAdrReq->Version;
 696:../../../../../../Middlewares/Third_Party/LoRaWAN/Mac/region/RegionKR920.c **** 
 697:../../../../../../Middlewares/Third_Party/LoRaWAN/Mac/region/RegionKR920.c ****     // Verify the parameters and update, if necessary
 698:../../../../../../Middlewares/Third_Party/LoRaWAN/Mac/region/RegionKR920.c ****     status = RegionCommonLinkAdrReqVerifyParams( &linkAdrVerifyParams, &linkAdrParams.Datarate, &li
 699:../../../../../../Middlewares/Third_Party/LoRaWAN/Mac/region/RegionKR920.c **** 
 700:../../../../../../Middlewares/Third_Party/LoRaWAN/Mac/region/RegionKR920.c ****     // Update channelsMask if everything is correct
 701:../../../../../../Middlewares/Third_Party/LoRaWAN/Mac/region/RegionKR920.c ****     if( status == 0x07 )
 702:../../../../../../Middlewares/Third_Party/LoRaWAN/Mac/region/RegionKR920.c ****     {
 703:../../../../../../Middlewares/Third_Party/LoRaWAN/Mac/region/RegionKR920.c ****         // Set the channels mask to a default value
 704:../../../../../../Middlewares/Third_Party/LoRaWAN/Mac/region/RegionKR920.c ****         memset1( ( uint8_t* ) NvmCtx.ChannelsMask, 0, sizeof( NvmCtx.ChannelsMask ) );
 705:../../../../../../Middlewares/Third_Party/LoRaWAN/Mac/region/RegionKR920.c ****         // Update the channels mask
 706:../../../../../../Middlewares/Third_Party/LoRaWAN/Mac/region/RegionKR920.c ****         NvmCtx.ChannelsMask[0] = chMask;
 707:../../../../../../Middlewares/Third_Party/LoRaWAN/Mac/region/RegionKR920.c ****     }
 708:../../../../../../Middlewares/Third_Party/LoRaWAN/Mac/region/RegionKR920.c **** 
 709:../../../../../../Middlewares/Third_Party/LoRaWAN/Mac/region/RegionKR920.c ****     // Update status variables
 710:../../../../../../Middlewares/Third_Party/LoRaWAN/Mac/region/RegionKR920.c ****     *drOut = linkAdrParams.Datarate;
ARM GAS  C:\Users\EBANO_~1\AppData\Local\Temp\ccLo4wHn.s 			page 26


 711:../../../../../../Middlewares/Third_Party/LoRaWAN/Mac/region/RegionKR920.c ****     *txPowOut = linkAdrParams.TxPower;
 712:../../../../../../Middlewares/Third_Party/LoRaWAN/Mac/region/RegionKR920.c ****     *nbRepOut = linkAdrParams.NbRep;
 713:../../../../../../Middlewares/Third_Party/LoRaWAN/Mac/region/RegionKR920.c ****     *nbBytesParsed = bytesProcessed;
 714:../../../../../../Middlewares/Third_Party/LoRaWAN/Mac/region/RegionKR920.c **** 
 715:../../../../../../Middlewares/Third_Party/LoRaWAN/Mac/region/RegionKR920.c ****     return status;
 716:../../../../../../Middlewares/Third_Party/LoRaWAN/Mac/region/RegionKR920.c **** }
 717:../../../../../../Middlewares/Third_Party/LoRaWAN/Mac/region/RegionKR920.c **** 
 718:../../../../../../Middlewares/Third_Party/LoRaWAN/Mac/region/RegionKR920.c **** uint8_t RegionKR920RxParamSetupReq( RxParamSetupReqParams_t* rxParamSetupReq )
 719:../../../../../../Middlewares/Third_Party/LoRaWAN/Mac/region/RegionKR920.c **** {
 720:../../../../../../Middlewares/Third_Party/LoRaWAN/Mac/region/RegionKR920.c ****     uint8_t status = 0x07;
 721:../../../../../../Middlewares/Third_Party/LoRaWAN/Mac/region/RegionKR920.c **** 
 722:../../../../../../Middlewares/Third_Party/LoRaWAN/Mac/region/RegionKR920.c ****     // Verify radio frequency
 723:../../../../../../Middlewares/Third_Party/LoRaWAN/Mac/region/RegionKR920.c ****     if( VerifyRfFreq( rxParamSetupReq->Frequency ) == false )
 724:../../../../../../Middlewares/Third_Party/LoRaWAN/Mac/region/RegionKR920.c ****     {
 725:../../../../../../Middlewares/Third_Party/LoRaWAN/Mac/region/RegionKR920.c ****         status &= 0xFE; // Channel frequency KO
 726:../../../../../../Middlewares/Third_Party/LoRaWAN/Mac/region/RegionKR920.c ****     }
 727:../../../../../../Middlewares/Third_Party/LoRaWAN/Mac/region/RegionKR920.c **** 
 728:../../../../../../Middlewares/Third_Party/LoRaWAN/Mac/region/RegionKR920.c ****     // Verify datarate
 729:../../../../../../Middlewares/Third_Party/LoRaWAN/Mac/region/RegionKR920.c ****     if( RegionCommonValueInRange( rxParamSetupReq->Datarate, KR920_RX_MIN_DATARATE, KR920_RX_MAX_DA
 730:../../../../../../Middlewares/Third_Party/LoRaWAN/Mac/region/RegionKR920.c ****     {
 731:../../../../../../Middlewares/Third_Party/LoRaWAN/Mac/region/RegionKR920.c ****         status &= 0xFD; // Datarate KO
 732:../../../../../../Middlewares/Third_Party/LoRaWAN/Mac/region/RegionKR920.c ****     }
 733:../../../../../../Middlewares/Third_Party/LoRaWAN/Mac/region/RegionKR920.c **** 
 734:../../../../../../Middlewares/Third_Party/LoRaWAN/Mac/region/RegionKR920.c ****     // Verify datarate offset
 735:../../../../../../Middlewares/Third_Party/LoRaWAN/Mac/region/RegionKR920.c ****     if( RegionCommonValueInRange( rxParamSetupReq->DrOffset, KR920_MIN_RX1_DR_OFFSET, KR920_MAX_RX1
 736:../../../../../../Middlewares/Third_Party/LoRaWAN/Mac/region/RegionKR920.c ****     {
 737:../../../../../../Middlewares/Third_Party/LoRaWAN/Mac/region/RegionKR920.c ****         status &= 0xFB; // Rx1DrOffset range KO
 738:../../../../../../Middlewares/Third_Party/LoRaWAN/Mac/region/RegionKR920.c ****     }
 739:../../../../../../Middlewares/Third_Party/LoRaWAN/Mac/region/RegionKR920.c **** 
 740:../../../../../../Middlewares/Third_Party/LoRaWAN/Mac/region/RegionKR920.c ****     return status;
 741:../../../../../../Middlewares/Third_Party/LoRaWAN/Mac/region/RegionKR920.c **** }
 742:../../../../../../Middlewares/Third_Party/LoRaWAN/Mac/region/RegionKR920.c **** 
 743:../../../../../../Middlewares/Third_Party/LoRaWAN/Mac/region/RegionKR920.c **** uint8_t RegionKR920NewChannelReq( NewChannelReqParams_t* newChannelReq )
 744:../../../../../../Middlewares/Third_Party/LoRaWAN/Mac/region/RegionKR920.c **** {
 745:../../../../../../Middlewares/Third_Party/LoRaWAN/Mac/region/RegionKR920.c ****     uint8_t status = 0x03;
 746:../../../../../../Middlewares/Third_Party/LoRaWAN/Mac/region/RegionKR920.c ****     ChannelAddParams_t channelAdd;
 747:../../../../../../Middlewares/Third_Party/LoRaWAN/Mac/region/RegionKR920.c ****     ChannelRemoveParams_t channelRemove;
 748:../../../../../../Middlewares/Third_Party/LoRaWAN/Mac/region/RegionKR920.c **** 
 749:../../../../../../Middlewares/Third_Party/LoRaWAN/Mac/region/RegionKR920.c ****     if( newChannelReq->NewChannel->Frequency == 0 )
 750:../../../../../../Middlewares/Third_Party/LoRaWAN/Mac/region/RegionKR920.c ****     {
 751:../../../../../../Middlewares/Third_Party/LoRaWAN/Mac/region/RegionKR920.c ****         channelRemove.ChannelId = newChannelReq->ChannelId;
 752:../../../../../../Middlewares/Third_Party/LoRaWAN/Mac/region/RegionKR920.c **** 
 753:../../../../../../Middlewares/Third_Party/LoRaWAN/Mac/region/RegionKR920.c ****         // Remove
 754:../../../../../../Middlewares/Third_Party/LoRaWAN/Mac/region/RegionKR920.c ****         if( RegionKR920ChannelsRemove( &channelRemove ) == false )
 755:../../../../../../Middlewares/Third_Party/LoRaWAN/Mac/region/RegionKR920.c ****         {
 756:../../../../../../Middlewares/Third_Party/LoRaWAN/Mac/region/RegionKR920.c ****             status &= 0xFC;
 757:../../../../../../Middlewares/Third_Party/LoRaWAN/Mac/region/RegionKR920.c ****         }
 758:../../../../../../Middlewares/Third_Party/LoRaWAN/Mac/region/RegionKR920.c ****     }
 759:../../../../../../Middlewares/Third_Party/LoRaWAN/Mac/region/RegionKR920.c ****     else
 760:../../../../../../Middlewares/Third_Party/LoRaWAN/Mac/region/RegionKR920.c ****     {
 761:../../../../../../Middlewares/Third_Party/LoRaWAN/Mac/region/RegionKR920.c ****         channelAdd.NewChannel = newChannelReq->NewChannel;
 762:../../../../../../Middlewares/Third_Party/LoRaWAN/Mac/region/RegionKR920.c ****         channelAdd.ChannelId = newChannelReq->ChannelId;
 763:../../../../../../Middlewares/Third_Party/LoRaWAN/Mac/region/RegionKR920.c **** 
 764:../../../../../../Middlewares/Third_Party/LoRaWAN/Mac/region/RegionKR920.c ****         switch( RegionKR920ChannelAdd( &channelAdd ) )
 765:../../../../../../Middlewares/Third_Party/LoRaWAN/Mac/region/RegionKR920.c ****         {
 766:../../../../../../Middlewares/Third_Party/LoRaWAN/Mac/region/RegionKR920.c ****             case LORAMAC_STATUS_OK:
 767:../../../../../../Middlewares/Third_Party/LoRaWAN/Mac/region/RegionKR920.c ****             {
ARM GAS  C:\Users\EBANO_~1\AppData\Local\Temp\ccLo4wHn.s 			page 27


 768:../../../../../../Middlewares/Third_Party/LoRaWAN/Mac/region/RegionKR920.c ****                 break;
 769:../../../../../../Middlewares/Third_Party/LoRaWAN/Mac/region/RegionKR920.c ****             }
 770:../../../../../../Middlewares/Third_Party/LoRaWAN/Mac/region/RegionKR920.c ****             case LORAMAC_STATUS_FREQUENCY_INVALID:
 771:../../../../../../Middlewares/Third_Party/LoRaWAN/Mac/region/RegionKR920.c ****             {
 772:../../../../../../Middlewares/Third_Party/LoRaWAN/Mac/region/RegionKR920.c ****                 status &= 0xFE;
 773:../../../../../../Middlewares/Third_Party/LoRaWAN/Mac/region/RegionKR920.c ****                 break;
 774:../../../../../../Middlewares/Third_Party/LoRaWAN/Mac/region/RegionKR920.c ****             }
 775:../../../../../../Middlewares/Third_Party/LoRaWAN/Mac/region/RegionKR920.c ****             case LORAMAC_STATUS_DATARATE_INVALID:
 776:../../../../../../Middlewares/Third_Party/LoRaWAN/Mac/region/RegionKR920.c ****             {
 777:../../../../../../Middlewares/Third_Party/LoRaWAN/Mac/region/RegionKR920.c ****                 status &= 0xFD;
 778:../../../../../../Middlewares/Third_Party/LoRaWAN/Mac/region/RegionKR920.c ****                 break;
 779:../../../../../../Middlewares/Third_Party/LoRaWAN/Mac/region/RegionKR920.c ****             }
 780:../../../../../../Middlewares/Third_Party/LoRaWAN/Mac/region/RegionKR920.c ****             case LORAMAC_STATUS_FREQ_AND_DR_INVALID:
 781:../../../../../../Middlewares/Third_Party/LoRaWAN/Mac/region/RegionKR920.c ****             {
 782:../../../../../../Middlewares/Third_Party/LoRaWAN/Mac/region/RegionKR920.c ****                 status &= 0xFC;
 783:../../../../../../Middlewares/Third_Party/LoRaWAN/Mac/region/RegionKR920.c ****                 break;
 784:../../../../../../Middlewares/Third_Party/LoRaWAN/Mac/region/RegionKR920.c ****             }
 785:../../../../../../Middlewares/Third_Party/LoRaWAN/Mac/region/RegionKR920.c ****             default:
 786:../../../../../../Middlewares/Third_Party/LoRaWAN/Mac/region/RegionKR920.c ****             {
 787:../../../../../../Middlewares/Third_Party/LoRaWAN/Mac/region/RegionKR920.c ****                 status &= 0xFC;
 788:../../../../../../Middlewares/Third_Party/LoRaWAN/Mac/region/RegionKR920.c ****                 break;
 789:../../../../../../Middlewares/Third_Party/LoRaWAN/Mac/region/RegionKR920.c ****             }
 790:../../../../../../Middlewares/Third_Party/LoRaWAN/Mac/region/RegionKR920.c ****         }
 791:../../../../../../Middlewares/Third_Party/LoRaWAN/Mac/region/RegionKR920.c ****     }
 792:../../../../../../Middlewares/Third_Party/LoRaWAN/Mac/region/RegionKR920.c **** 
 793:../../../../../../Middlewares/Third_Party/LoRaWAN/Mac/region/RegionKR920.c ****     return status;
 794:../../../../../../Middlewares/Third_Party/LoRaWAN/Mac/region/RegionKR920.c **** }
 795:../../../../../../Middlewares/Third_Party/LoRaWAN/Mac/region/RegionKR920.c **** 
 796:../../../../../../Middlewares/Third_Party/LoRaWAN/Mac/region/RegionKR920.c **** int8_t RegionKR920TxParamSetupReq( TxParamSetupReqParams_t* txParamSetupReq )
 797:../../../../../../Middlewares/Third_Party/LoRaWAN/Mac/region/RegionKR920.c **** {
 798:../../../../../../Middlewares/Third_Party/LoRaWAN/Mac/region/RegionKR920.c ****     return -1;
 799:../../../../../../Middlewares/Third_Party/LoRaWAN/Mac/region/RegionKR920.c **** }
 800:../../../../../../Middlewares/Third_Party/LoRaWAN/Mac/region/RegionKR920.c **** 
 801:../../../../../../Middlewares/Third_Party/LoRaWAN/Mac/region/RegionKR920.c **** uint8_t RegionKR920DlChannelReq( DlChannelReqParams_t* dlChannelReq )
 802:../../../../../../Middlewares/Third_Party/LoRaWAN/Mac/region/RegionKR920.c **** {
 803:../../../../../../Middlewares/Third_Party/LoRaWAN/Mac/region/RegionKR920.c ****     uint8_t status = 0x03;
 804:../../../../../../Middlewares/Third_Party/LoRaWAN/Mac/region/RegionKR920.c **** 
 805:../../../../../../Middlewares/Third_Party/LoRaWAN/Mac/region/RegionKR920.c ****     // Verify if the frequency is supported
 806:../../../../../../Middlewares/Third_Party/LoRaWAN/Mac/region/RegionKR920.c ****     if( VerifyRfFreq( dlChannelReq->Rx1Frequency ) == false )
 807:../../../../../../Middlewares/Third_Party/LoRaWAN/Mac/region/RegionKR920.c ****     {
 808:../../../../../../Middlewares/Third_Party/LoRaWAN/Mac/region/RegionKR920.c ****         status &= 0xFE;
 809:../../../../../../Middlewares/Third_Party/LoRaWAN/Mac/region/RegionKR920.c ****     }
 810:../../../../../../Middlewares/Third_Party/LoRaWAN/Mac/region/RegionKR920.c **** 
 811:../../../../../../Middlewares/Third_Party/LoRaWAN/Mac/region/RegionKR920.c ****     // Verify if an uplink frequency exists
 812:../../../../../../Middlewares/Third_Party/LoRaWAN/Mac/region/RegionKR920.c ****     if( NvmCtx.Channels[dlChannelReq->ChannelId].Frequency == 0 )
 813:../../../../../../Middlewares/Third_Party/LoRaWAN/Mac/region/RegionKR920.c ****     {
 814:../../../../../../Middlewares/Third_Party/LoRaWAN/Mac/region/RegionKR920.c ****         status &= 0xFD;
 815:../../../../../../Middlewares/Third_Party/LoRaWAN/Mac/region/RegionKR920.c ****     }
 816:../../../../../../Middlewares/Third_Party/LoRaWAN/Mac/region/RegionKR920.c **** 
 817:../../../../../../Middlewares/Third_Party/LoRaWAN/Mac/region/RegionKR920.c ****     // Apply Rx1 frequency, if the status is OK
 818:../../../../../../Middlewares/Third_Party/LoRaWAN/Mac/region/RegionKR920.c ****     if( status == 0x03 )
 819:../../../../../../Middlewares/Third_Party/LoRaWAN/Mac/region/RegionKR920.c ****     {
 820:../../../../../../Middlewares/Third_Party/LoRaWAN/Mac/region/RegionKR920.c ****         NvmCtx.Channels[dlChannelReq->ChannelId].Rx1Frequency = dlChannelReq->Rx1Frequency;
 821:../../../../../../Middlewares/Third_Party/LoRaWAN/Mac/region/RegionKR920.c ****     }
 822:../../../../../../Middlewares/Third_Party/LoRaWAN/Mac/region/RegionKR920.c **** 
 823:../../../../../../Middlewares/Third_Party/LoRaWAN/Mac/region/RegionKR920.c ****     return status;
 824:../../../../../../Middlewares/Third_Party/LoRaWAN/Mac/region/RegionKR920.c **** }
ARM GAS  C:\Users\EBANO_~1\AppData\Local\Temp\ccLo4wHn.s 			page 28


 825:../../../../../../Middlewares/Third_Party/LoRaWAN/Mac/region/RegionKR920.c **** 
 826:../../../../../../Middlewares/Third_Party/LoRaWAN/Mac/region/RegionKR920.c **** int8_t RegionKR920AlternateDr( int8_t currentDr, AlternateDrType_t type )
 827:../../../../../../Middlewares/Third_Party/LoRaWAN/Mac/region/RegionKR920.c **** {
 828:../../../../../../Middlewares/Third_Party/LoRaWAN/Mac/region/RegionKR920.c ****     return currentDr;
 829:../../../../../../Middlewares/Third_Party/LoRaWAN/Mac/region/RegionKR920.c **** }
 830:../../../../../../Middlewares/Third_Party/LoRaWAN/Mac/region/RegionKR920.c **** 
 831:../../../../../../Middlewares/Third_Party/LoRaWAN/Mac/region/RegionKR920.c **** void RegionKR920CalcBackOff( CalcBackOffParams_t* calcBackOff )
 832:../../../../../../Middlewares/Third_Party/LoRaWAN/Mac/region/RegionKR920.c **** {
 833:../../../../../../Middlewares/Third_Party/LoRaWAN/Mac/region/RegionKR920.c ****     RegionCommonCalcBackOffParams_t calcBackOffParams;
 834:../../../../../../Middlewares/Third_Party/LoRaWAN/Mac/region/RegionKR920.c **** 
 835:../../../../../../Middlewares/Third_Party/LoRaWAN/Mac/region/RegionKR920.c ****     calcBackOffParams.Channels = NvmCtx.Channels;
 836:../../../../../../Middlewares/Third_Party/LoRaWAN/Mac/region/RegionKR920.c ****     calcBackOffParams.Bands = NvmCtx.Bands;
 837:../../../../../../Middlewares/Third_Party/LoRaWAN/Mac/region/RegionKR920.c ****     calcBackOffParams.LastTxIsJoinRequest = calcBackOff->LastTxIsJoinRequest;
 838:../../../../../../Middlewares/Third_Party/LoRaWAN/Mac/region/RegionKR920.c ****     calcBackOffParams.Joined = calcBackOff->Joined;
 839:../../../../../../Middlewares/Third_Party/LoRaWAN/Mac/region/RegionKR920.c ****     calcBackOffParams.DutyCycleEnabled = calcBackOff->DutyCycleEnabled;
 840:../../../../../../Middlewares/Third_Party/LoRaWAN/Mac/region/RegionKR920.c ****     calcBackOffParams.Channel = calcBackOff->Channel;
 841:../../../../../../Middlewares/Third_Party/LoRaWAN/Mac/region/RegionKR920.c ****     calcBackOffParams.ElapsedTime = calcBackOff->ElapsedTime;
 842:../../../../../../Middlewares/Third_Party/LoRaWAN/Mac/region/RegionKR920.c ****     calcBackOffParams.TxTimeOnAir = calcBackOff->TxTimeOnAir;
 843:../../../../../../Middlewares/Third_Party/LoRaWAN/Mac/region/RegionKR920.c **** 
 844:../../../../../../Middlewares/Third_Party/LoRaWAN/Mac/region/RegionKR920.c ****     RegionCommonCalcBackOff( &calcBackOffParams );
 845:../../../../../../Middlewares/Third_Party/LoRaWAN/Mac/region/RegionKR920.c **** }
 846:../../../../../../Middlewares/Third_Party/LoRaWAN/Mac/region/RegionKR920.c **** 
 847:../../../../../../Middlewares/Third_Party/LoRaWAN/Mac/region/RegionKR920.c **** LoRaMacStatus_t RegionKR920NextChannel( NextChanParams_t* nextChanParams, uint8_t* channel, TimerTi
 848:../../../../../../Middlewares/Third_Party/LoRaWAN/Mac/region/RegionKR920.c **** {
 849:../../../../../../Middlewares/Third_Party/LoRaWAN/Mac/region/RegionKR920.c ****     uint8_t channelNext = 0;
 850:../../../../../../Middlewares/Third_Party/LoRaWAN/Mac/region/RegionKR920.c ****     uint8_t nbEnabledChannels = 0;
 851:../../../../../../Middlewares/Third_Party/LoRaWAN/Mac/region/RegionKR920.c ****     uint8_t delayTx = 0;
 852:../../../../../../Middlewares/Third_Party/LoRaWAN/Mac/region/RegionKR920.c ****     uint8_t enabledChannels[KR920_MAX_NB_CHANNELS] = { 0 };
 853:../../../../../../Middlewares/Third_Party/LoRaWAN/Mac/region/RegionKR920.c ****     TimerTime_t nextTxDelay = 0;
 854:../../../../../../Middlewares/Third_Party/LoRaWAN/Mac/region/RegionKR920.c **** 
 855:../../../../../../Middlewares/Third_Party/LoRaWAN/Mac/region/RegionKR920.c ****     if( RegionCommonCountChannels( NvmCtx.ChannelsMask, 0, 1 ) == 0 )
 856:../../../../../../Middlewares/Third_Party/LoRaWAN/Mac/region/RegionKR920.c ****     { // Reactivate default channels
 857:../../../../../../Middlewares/Third_Party/LoRaWAN/Mac/region/RegionKR920.c ****         NvmCtx.ChannelsMask[0] |= LC( 1 ) + LC( 2 ) + LC( 3 );
 858:../../../../../../Middlewares/Third_Party/LoRaWAN/Mac/region/RegionKR920.c ****     }
 859:../../../../../../Middlewares/Third_Party/LoRaWAN/Mac/region/RegionKR920.c **** 
 860:../../../../../../Middlewares/Third_Party/LoRaWAN/Mac/region/RegionKR920.c ****     if( nextChanParams->AggrTimeOff <= TimerGetElapsedTime( nextChanParams->LastAggrTx ) )
 861:../../../../../../Middlewares/Third_Party/LoRaWAN/Mac/region/RegionKR920.c ****     {
 862:../../../../../../Middlewares/Third_Party/LoRaWAN/Mac/region/RegionKR920.c ****         // Reset Aggregated time off
 863:../../../../../../Middlewares/Third_Party/LoRaWAN/Mac/region/RegionKR920.c ****         *aggregatedTimeOff = 0;
 864:../../../../../../Middlewares/Third_Party/LoRaWAN/Mac/region/RegionKR920.c **** 
 865:../../../../../../Middlewares/Third_Party/LoRaWAN/Mac/region/RegionKR920.c ****         // Update bands Time OFF
 866:../../../../../../Middlewares/Third_Party/LoRaWAN/Mac/region/RegionKR920.c ****         nextTxDelay = RegionCommonUpdateBandTimeOff( nextChanParams->Joined, nextChanParams->DutyCy
 867:../../../../../../Middlewares/Third_Party/LoRaWAN/Mac/region/RegionKR920.c **** 
 868:../../../../../../Middlewares/Third_Party/LoRaWAN/Mac/region/RegionKR920.c ****         // Search how many channels are enabled
 869:../../../../../../Middlewares/Third_Party/LoRaWAN/Mac/region/RegionKR920.c ****         nbEnabledChannels = CountNbOfEnabledChannels( nextChanParams->Joined, nextChanParams->Datar
 870:../../../../../../Middlewares/Third_Party/LoRaWAN/Mac/region/RegionKR920.c ****                                                       NvmCtx.ChannelsMask, NvmCtx.Channels,
 871:../../../../../../Middlewares/Third_Party/LoRaWAN/Mac/region/RegionKR920.c ****                                                       NvmCtx.Bands, enabledChannels, &delayTx );
 872:../../../../../../Middlewares/Third_Party/LoRaWAN/Mac/region/RegionKR920.c ****     }
 873:../../../../../../Middlewares/Third_Party/LoRaWAN/Mac/region/RegionKR920.c ****     else
 874:../../../../../../Middlewares/Third_Party/LoRaWAN/Mac/region/RegionKR920.c ****     {
 875:../../../../../../Middlewares/Third_Party/LoRaWAN/Mac/region/RegionKR920.c ****         delayTx++;
 876:../../../../../../Middlewares/Third_Party/LoRaWAN/Mac/region/RegionKR920.c ****         nextTxDelay = nextChanParams->AggrTimeOff - TimerGetElapsedTime( nextChanParams->LastAggrTx
 877:../../../../../../Middlewares/Third_Party/LoRaWAN/Mac/region/RegionKR920.c ****     }
 878:../../../../../../Middlewares/Third_Party/LoRaWAN/Mac/region/RegionKR920.c **** 
 879:../../../../../../Middlewares/Third_Party/LoRaWAN/Mac/region/RegionKR920.c ****     if( nbEnabledChannels > 0 )
 880:../../../../../../Middlewares/Third_Party/LoRaWAN/Mac/region/RegionKR920.c ****     {
 881:../../../../../../Middlewares/Third_Party/LoRaWAN/Mac/region/RegionKR920.c ****         for( uint8_t  i = 0, j = randr( 0, nbEnabledChannels - 1 ); i < KR920_MAX_NB_CHANNELS; i++ 
ARM GAS  C:\Users\EBANO_~1\AppData\Local\Temp\ccLo4wHn.s 			page 29


 882:../../../../../../Middlewares/Third_Party/LoRaWAN/Mac/region/RegionKR920.c ****         {
 883:../../../../../../Middlewares/Third_Party/LoRaWAN/Mac/region/RegionKR920.c ****             channelNext = enabledChannels[j];
 884:../../../../../../Middlewares/Third_Party/LoRaWAN/Mac/region/RegionKR920.c ****             j = ( j + 1 ) % nbEnabledChannels;
 885:../../../../../../Middlewares/Third_Party/LoRaWAN/Mac/region/RegionKR920.c **** 
 886:../../../../../../Middlewares/Third_Party/LoRaWAN/Mac/region/RegionKR920.c ****             // Perform carrier sense for KR920_CARRIER_SENSE_TIME
 887:../../../../../../Middlewares/Third_Party/LoRaWAN/Mac/region/RegionKR920.c ****             // If the channel is free, we can stop the LBT mechanism
 888:../../../../../../Middlewares/Third_Party/LoRaWAN/Mac/region/RegionKR920.c ****             if( Radio.IsChannelFree( MODEM_LORA, NvmCtx.Channels[channelNext].Frequency, KR920_RSSI
 889:../../../../../../Middlewares/Third_Party/LoRaWAN/Mac/region/RegionKR920.c ****             {
 890:../../../../../../Middlewares/Third_Party/LoRaWAN/Mac/region/RegionKR920.c ****                 // Free channel found
 891:../../../../../../Middlewares/Third_Party/LoRaWAN/Mac/region/RegionKR920.c ****                 *channel = channelNext;
 892:../../../../../../Middlewares/Third_Party/LoRaWAN/Mac/region/RegionKR920.c ****                 *time = 0;
 893:../../../../../../Middlewares/Third_Party/LoRaWAN/Mac/region/RegionKR920.c ****                 return LORAMAC_STATUS_OK;
 894:../../../../../../Middlewares/Third_Party/LoRaWAN/Mac/region/RegionKR920.c ****             }
 895:../../../../../../Middlewares/Third_Party/LoRaWAN/Mac/region/RegionKR920.c ****         }
 896:../../../../../../Middlewares/Third_Party/LoRaWAN/Mac/region/RegionKR920.c ****         return LORAMAC_STATUS_NO_FREE_CHANNEL_FOUND;
 897:../../../../../../Middlewares/Third_Party/LoRaWAN/Mac/region/RegionKR920.c ****     }
 898:../../../../../../Middlewares/Third_Party/LoRaWAN/Mac/region/RegionKR920.c ****     else
 899:../../../../../../Middlewares/Third_Party/LoRaWAN/Mac/region/RegionKR920.c ****     {
 900:../../../../../../Middlewares/Third_Party/LoRaWAN/Mac/region/RegionKR920.c ****         if( delayTx > 0 )
 901:../../../../../../Middlewares/Third_Party/LoRaWAN/Mac/region/RegionKR920.c ****         {
 902:../../../../../../Middlewares/Third_Party/LoRaWAN/Mac/region/RegionKR920.c ****             // Delay transmission due to AggregatedTimeOff or to a band time off
 903:../../../../../../Middlewares/Third_Party/LoRaWAN/Mac/region/RegionKR920.c ****             *time = nextTxDelay;
 904:../../../../../../Middlewares/Third_Party/LoRaWAN/Mac/region/RegionKR920.c ****             return LORAMAC_STATUS_DUTYCYCLE_RESTRICTED;
 905:../../../../../../Middlewares/Third_Party/LoRaWAN/Mac/region/RegionKR920.c ****         }
 906:../../../../../../Middlewares/Third_Party/LoRaWAN/Mac/region/RegionKR920.c ****         // Datarate not supported by any channel, restore defaults
 907:../../../../../../Middlewares/Third_Party/LoRaWAN/Mac/region/RegionKR920.c ****         NvmCtx.ChannelsMask[0] |= LC( 1 ) + LC( 2 ) + LC( 3 );
 908:../../../../../../Middlewares/Third_Party/LoRaWAN/Mac/region/RegionKR920.c ****         *time = 0;
 909:../../../../../../Middlewares/Third_Party/LoRaWAN/Mac/region/RegionKR920.c ****         return LORAMAC_STATUS_NO_CHANNEL_FOUND;
 910:../../../../../../Middlewares/Third_Party/LoRaWAN/Mac/region/RegionKR920.c ****     }
 911:../../../../../../Middlewares/Third_Party/LoRaWAN/Mac/region/RegionKR920.c **** }
 912:../../../../../../Middlewares/Third_Party/LoRaWAN/Mac/region/RegionKR920.c **** 
 913:../../../../../../Middlewares/Third_Party/LoRaWAN/Mac/region/RegionKR920.c **** LoRaMacStatus_t RegionKR920ChannelAdd( ChannelAddParams_t* channelAdd )
 914:../../../../../../Middlewares/Third_Party/LoRaWAN/Mac/region/RegionKR920.c **** {
 915:../../../../../../Middlewares/Third_Party/LoRaWAN/Mac/region/RegionKR920.c ****     bool drInvalid = false;
 916:../../../../../../Middlewares/Third_Party/LoRaWAN/Mac/region/RegionKR920.c ****     bool freqInvalid = false;
 917:../../../../../../Middlewares/Third_Party/LoRaWAN/Mac/region/RegionKR920.c ****     uint8_t id = channelAdd->ChannelId;
 918:../../../../../../Middlewares/Third_Party/LoRaWAN/Mac/region/RegionKR920.c **** 
 919:../../../../../../Middlewares/Third_Party/LoRaWAN/Mac/region/RegionKR920.c ****     if( id < KR920_NUMB_DEFAULT_CHANNELS )
 920:../../../../../../Middlewares/Third_Party/LoRaWAN/Mac/region/RegionKR920.c ****     {
 921:../../../../../../Middlewares/Third_Party/LoRaWAN/Mac/region/RegionKR920.c ****         return LORAMAC_STATUS_FREQ_AND_DR_INVALID;
 922:../../../../../../Middlewares/Third_Party/LoRaWAN/Mac/region/RegionKR920.c ****     }
 923:../../../../../../Middlewares/Third_Party/LoRaWAN/Mac/region/RegionKR920.c **** 
 924:../../../../../../Middlewares/Third_Party/LoRaWAN/Mac/region/RegionKR920.c ****     if( id >= KR920_MAX_NB_CHANNELS )
 925:../../../../../../Middlewares/Third_Party/LoRaWAN/Mac/region/RegionKR920.c ****     {
 926:../../../../../../Middlewares/Third_Party/LoRaWAN/Mac/region/RegionKR920.c ****         return LORAMAC_STATUS_PARAMETER_INVALID;
 927:../../../../../../Middlewares/Third_Party/LoRaWAN/Mac/region/RegionKR920.c ****     }
 928:../../../../../../Middlewares/Third_Party/LoRaWAN/Mac/region/RegionKR920.c **** 
 929:../../../../../../Middlewares/Third_Party/LoRaWAN/Mac/region/RegionKR920.c ****     // Validate the datarate range
 930:../../../../../../Middlewares/Third_Party/LoRaWAN/Mac/region/RegionKR920.c ****     if( RegionCommonValueInRange( channelAdd->NewChannel->DrRange.Fields.Min, KR920_TX_MIN_DATARATE
 931:../../../../../../Middlewares/Third_Party/LoRaWAN/Mac/region/RegionKR920.c ****     {
 932:../../../../../../Middlewares/Third_Party/LoRaWAN/Mac/region/RegionKR920.c ****         drInvalid = true;
 933:../../../../../../Middlewares/Third_Party/LoRaWAN/Mac/region/RegionKR920.c ****     }
 934:../../../../../../Middlewares/Third_Party/LoRaWAN/Mac/region/RegionKR920.c ****     if( RegionCommonValueInRange( channelAdd->NewChannel->DrRange.Fields.Max, KR920_TX_MIN_DATARATE
 935:../../../../../../Middlewares/Third_Party/LoRaWAN/Mac/region/RegionKR920.c ****     {
 936:../../../../../../Middlewares/Third_Party/LoRaWAN/Mac/region/RegionKR920.c ****         drInvalid = true;
 937:../../../../../../Middlewares/Third_Party/LoRaWAN/Mac/region/RegionKR920.c ****     }
 938:../../../../../../Middlewares/Third_Party/LoRaWAN/Mac/region/RegionKR920.c ****     if( channelAdd->NewChannel->DrRange.Fields.Min > channelAdd->NewChannel->DrRange.Fields.Max )
ARM GAS  C:\Users\EBANO_~1\AppData\Local\Temp\ccLo4wHn.s 			page 30


 939:../../../../../../Middlewares/Third_Party/LoRaWAN/Mac/region/RegionKR920.c ****     {
 940:../../../../../../Middlewares/Third_Party/LoRaWAN/Mac/region/RegionKR920.c ****         drInvalid = true;
 941:../../../../../../Middlewares/Third_Party/LoRaWAN/Mac/region/RegionKR920.c ****     }
 942:../../../../../../Middlewares/Third_Party/LoRaWAN/Mac/region/RegionKR920.c **** 
 943:../../../../../../Middlewares/Third_Party/LoRaWAN/Mac/region/RegionKR920.c ****     // Check frequency
 944:../../../../../../Middlewares/Third_Party/LoRaWAN/Mac/region/RegionKR920.c ****     if( freqInvalid == false )
 945:../../../../../../Middlewares/Third_Party/LoRaWAN/Mac/region/RegionKR920.c ****     {
 946:../../../../../../Middlewares/Third_Party/LoRaWAN/Mac/region/RegionKR920.c ****         if( VerifyRfFreq( channelAdd->NewChannel->Frequency ) == false )
 947:../../../../../../Middlewares/Third_Party/LoRaWAN/Mac/region/RegionKR920.c ****         {
 948:../../../../../../Middlewares/Third_Party/LoRaWAN/Mac/region/RegionKR920.c ****             freqInvalid = true;
 949:../../../../../../Middlewares/Third_Party/LoRaWAN/Mac/region/RegionKR920.c ****         }
 950:../../../../../../Middlewares/Third_Party/LoRaWAN/Mac/region/RegionKR920.c ****     }
 951:../../../../../../Middlewares/Third_Party/LoRaWAN/Mac/region/RegionKR920.c **** 
 952:../../../../../../Middlewares/Third_Party/LoRaWAN/Mac/region/RegionKR920.c ****     // Check status
 953:../../../../../../Middlewares/Third_Party/LoRaWAN/Mac/region/RegionKR920.c ****     if( ( drInvalid == true ) && ( freqInvalid == true ) )
 954:../../../../../../Middlewares/Third_Party/LoRaWAN/Mac/region/RegionKR920.c ****     {
 955:../../../../../../Middlewares/Third_Party/LoRaWAN/Mac/region/RegionKR920.c ****         return LORAMAC_STATUS_FREQ_AND_DR_INVALID;
 956:../../../../../../Middlewares/Third_Party/LoRaWAN/Mac/region/RegionKR920.c ****     }
 957:../../../../../../Middlewares/Third_Party/LoRaWAN/Mac/region/RegionKR920.c ****     if( drInvalid == true )
 958:../../../../../../Middlewares/Third_Party/LoRaWAN/Mac/region/RegionKR920.c ****     {
 959:../../../../../../Middlewares/Third_Party/LoRaWAN/Mac/region/RegionKR920.c ****         return LORAMAC_STATUS_DATARATE_INVALID;
 960:../../../../../../Middlewares/Third_Party/LoRaWAN/Mac/region/RegionKR920.c ****     }
 961:../../../../../../Middlewares/Third_Party/LoRaWAN/Mac/region/RegionKR920.c ****     if( freqInvalid == true )
 962:../../../../../../Middlewares/Third_Party/LoRaWAN/Mac/region/RegionKR920.c ****     {
 963:../../../../../../Middlewares/Third_Party/LoRaWAN/Mac/region/RegionKR920.c ****         return LORAMAC_STATUS_FREQUENCY_INVALID;
 964:../../../../../../Middlewares/Third_Party/LoRaWAN/Mac/region/RegionKR920.c ****     }
 965:../../../../../../Middlewares/Third_Party/LoRaWAN/Mac/region/RegionKR920.c **** 
 966:../../../../../../Middlewares/Third_Party/LoRaWAN/Mac/region/RegionKR920.c ****     memcpy1( ( uint8_t* ) &(NvmCtx.Channels[id]), ( uint8_t* ) channelAdd->NewChannel, sizeof( NvmC
 967:../../../../../../Middlewares/Third_Party/LoRaWAN/Mac/region/RegionKR920.c ****     NvmCtx.Channels[id].Band = 0;
 968:../../../../../../Middlewares/Third_Party/LoRaWAN/Mac/region/RegionKR920.c ****     NvmCtx.ChannelsMask[0] |= ( 1 << id );
 969:../../../../../../Middlewares/Third_Party/LoRaWAN/Mac/region/RegionKR920.c ****     return LORAMAC_STATUS_OK;
 970:../../../../../../Middlewares/Third_Party/LoRaWAN/Mac/region/RegionKR920.c **** }
 971:../../../../../../Middlewares/Third_Party/LoRaWAN/Mac/region/RegionKR920.c **** 
 972:../../../../../../Middlewares/Third_Party/LoRaWAN/Mac/region/RegionKR920.c **** bool RegionKR920ChannelsRemove( ChannelRemoveParams_t* channelRemove  )
 973:../../../../../../Middlewares/Third_Party/LoRaWAN/Mac/region/RegionKR920.c **** {
 974:../../../../../../Middlewares/Third_Party/LoRaWAN/Mac/region/RegionKR920.c ****     uint8_t id = channelRemove->ChannelId;
 975:../../../../../../Middlewares/Third_Party/LoRaWAN/Mac/region/RegionKR920.c **** 
 976:../../../../../../Middlewares/Third_Party/LoRaWAN/Mac/region/RegionKR920.c ****     if( id < KR920_NUMB_DEFAULT_CHANNELS )
 977:../../../../../../Middlewares/Third_Party/LoRaWAN/Mac/region/RegionKR920.c ****     {
 978:../../../../../../Middlewares/Third_Party/LoRaWAN/Mac/region/RegionKR920.c ****         return false;
 979:../../../../../../Middlewares/Third_Party/LoRaWAN/Mac/region/RegionKR920.c ****     }
 980:../../../../../../Middlewares/Third_Party/LoRaWAN/Mac/region/RegionKR920.c **** 
 981:../../../../../../Middlewares/Third_Party/LoRaWAN/Mac/region/RegionKR920.c ****     // Remove the channel from the list of channels
 982:../../../../../../Middlewares/Third_Party/LoRaWAN/Mac/region/RegionKR920.c ****     NvmCtx.Channels[id] = ( ChannelParams_t ){ 0, 0, { 0 }, 0 };
 652              		.loc 1 982 0
 653 0032 3E4B     		ldr	r3, .L74
 654              	.LBE33:
 655              	.LBE32:
 656              	.LBE31:
 657 0034 0126     		movs	r6, #1
 658              	.LBB48:
 659              	.LBB37:
 660              	.LBB34:
 661 0036 9946     		mov	r9, r3
 983:../../../../../../Middlewares/Third_Party/LoRaWAN/Mac/region/RegionKR920.c **** 
 984:../../../../../../Middlewares/Third_Party/LoRaWAN/Mac/region/RegionKR920.c ****     return RegionCommonChanDisable( NvmCtx.ChannelsMask, id, KR920_MAX_NB_CHANNELS );
 662              		.loc 1 984 0
ARM GAS  C:\Users\EBANO_~1\AppData\Local\Temp\ccLo4wHn.s 			page 31


 663 0038 D023     		movs	r3, #208
 664 003a 4B44     		add	r3, r3, r9
 665              	.LBE34:
 666              	.LBE37:
 667              	.LBE48:
 668 003c 0325     		movs	r5, #3
 669              	.LBB49:
 670              	.LBB38:
 671              	.LBB35:
 672 003e 9A46     		mov	r10, r3
 673 0040 14E0     		b	.L63
 674              	.LVL38:
 675              	.L57:
 676              	.LBE35:
 677              	.LBE38:
 490:../../../../../../Middlewares/Third_Party/LoRaWAN/Mac/region/RegionKR920.c ****             newChannel.DrRange.Value = 0;
 678              		.loc 1 490 0
 679 0042 0023     		movs	r3, #0
 680 0044 2360     		str	r3, [r4]
 491:../../../../../../Middlewares/Third_Party/LoRaWAN/Mac/region/RegionKR920.c ****             newChannel.Rx1Frequency = 0;
 681              		.loc 1 491 0
 682 0046 2372     		strb	r3, [r4, #8]
 492:../../../../../../Middlewares/Third_Party/LoRaWAN/Mac/region/RegionKR920.c ****         }
 683              		.loc 1 492 0
 684 0048 6360     		str	r3, [r4, #4]
 685              	.L59:
 686              	.LVL39:
 687              	.LBB39:
 688              	.LBB36:
 982:../../../../../../Middlewares/Third_Party/LoRaWAN/Mac/region/RegionKR920.c **** 
 689              		.loc 1 982 0
 690 004a 6800     		lsls	r0, r5, #1
 691 004c 4019     		adds	r0, r0, r5
 692 004e 8000     		lsls	r0, r0, #2
 693 0050 0C22     		movs	r2, #12
 694 0052 0021     		movs	r1, #0
 695 0054 4844     		add	r0, r0, r9
 696 0056 FFF7FEFF 		bl	memset
 697              	.LVL40:
 698              		.loc 1 984 0
 699 005a 1022     		movs	r2, #16
 700 005c 3900     		movs	r1, r7
 701 005e 5046     		mov	r0, r10
 702 0060 FFF7FEFF 		bl	RegionCommonChanDisable
 703              	.LVL41:
 704              	.L61:
 705 0064 0336     		adds	r6, r6, #3
 706              	.LVL42:
 707 0066 0135     		adds	r5, r5, #1
 708              	.LVL43:
 709              	.LBE36:
 710              	.LBE39:
 475:../../../../../../Middlewares/Third_Party/LoRaWAN/Mac/region/RegionKR920.c ****     {
 711              		.loc 1 475 0 discriminator 2
 712 0068 282E     		cmp	r6, #40
 713 006a D7D0     		beq	.L55
 714              	.L63:
ARM GAS  C:\Users\EBANO_~1\AppData\Local\Temp\ccLo4wHn.s 			page 32


 715 006c EFB2     		uxtb	r7, r5
 716              	.LVL44:
 477:../../../../../../Middlewares/Third_Party/LoRaWAN/Mac/region/RegionKR920.c ****         {
 717              		.loc 1 477 0
 718 006e 072D     		cmp	r5, #7
 719 0070 E7D8     		bhi	.L57
 480:../../../../../../Middlewares/Third_Party/LoRaWAN/Mac/region/RegionKR920.c ****             newChannel.Frequency |= ( (uint32_t) applyCFList->Payload[i + 1] << 8 );
 720              		.loc 1 480 0
 721 0072 4346     		mov	r3, r8
 722 0074 1B68     		ldr	r3, [r3]
 723 0076 9A19     		adds	r2, r3, r6
 724 0078 511E     		subs	r1, r2, #1
 725 007a 0978     		ldrb	r1, [r1]
 726 007c 2160     		str	r1, [r4]
 481:../../../../../../Middlewares/Third_Party/LoRaWAN/Mac/region/RegionKR920.c ****             newChannel.Frequency |= ( (uint32_t) applyCFList->Payload[i + 2] << 16 );
 727              		.loc 1 481 0
 728 007e 9B5D     		ldrb	r3, [r3, r6]
 729 0080 1B02     		lsls	r3, r3, #8
 730 0082 0B43     		orrs	r3, r1
 731 0084 2360     		str	r3, [r4]
 482:../../../../../../Middlewares/Third_Party/LoRaWAN/Mac/region/RegionKR920.c ****             newChannel.Frequency *= 100;
 732              		.loc 1 482 0
 733 0086 5278     		ldrb	r2, [r2, #1]
 734 0088 1204     		lsls	r2, r2, #16
 735 008a 1343     		orrs	r3, r2
 483:../../../../../../Middlewares/Third_Party/LoRaWAN/Mac/region/RegionKR920.c **** 
 736              		.loc 1 483 0
 737 008c 6422     		movs	r2, #100
 738 008e 5343     		muls	r3, r2
 486:../../../../../../Middlewares/Third_Party/LoRaWAN/Mac/region/RegionKR920.c ****         }
 739              		.loc 1 486 0
 740 0090 0022     		movs	r2, #0
 483:../../../../../../Middlewares/Third_Party/LoRaWAN/Mac/region/RegionKR920.c **** 
 741              		.loc 1 483 0
 742 0092 2360     		str	r3, [r4]
 486:../../../../../../Middlewares/Third_Party/LoRaWAN/Mac/region/RegionKR920.c ****         }
 743              		.loc 1 486 0
 744 0094 6260     		str	r2, [r4, #4]
 495:../../../../../../Middlewares/Third_Party/LoRaWAN/Mac/region/RegionKR920.c ****         {
 745              		.loc 1 495 0
 746 0096 002B     		cmp	r3, #0
 747 0098 D7D0     		beq	.L59
 748              	.LVL45:
 749              	.LBB40:
 750              	.LBB41:
 930:../../../../../../Middlewares/Third_Party/LoRaWAN/Mac/region/RegionKR920.c ****     {
 751              		.loc 1 930 0
 752 009a 207A     		ldrb	r0, [r4, #8]
 753 009c 0522     		movs	r2, #5
 754 009e 0007     		lsls	r0, r0, #28
 755 00a0 0021     		movs	r1, #0
 756 00a2 0017     		asrs	r0, r0, #28
 757 00a4 FFF7FEFF 		bl	RegionCommonValueInRange
 758              	.LVL46:
 759 00a8 0700     		movs	r7, r0
 760              	.LVL47:
 934:../../../../../../Middlewares/Third_Party/LoRaWAN/Mac/region/RegionKR920.c ****     {
ARM GAS  C:\Users\EBANO_~1\AppData\Local\Temp\ccLo4wHn.s 			page 33


 761              		.loc 1 934 0
 762 00aa 0820     		movs	r0, #8
 763 00ac 2056     		ldrsb	r0, [r4, r0]
 764 00ae 0522     		movs	r2, #5
 765 00b0 0011     		asrs	r0, r0, #4
 766 00b2 0021     		movs	r1, #0
 767 00b4 FFF7FEFF 		bl	RegionCommonValueInRange
 768              	.LVL48:
 936:../../../../../../Middlewares/Third_Party/LoRaWAN/Mac/region/RegionKR920.c ****     }
 769              		.loc 1 936 0
 770 00b8 0123     		movs	r3, #1
 771 00ba 9B46     		mov	fp, r3
 934:../../../../../../Middlewares/Third_Party/LoRaWAN/Mac/region/RegionKR920.c ****     {
 772              		.loc 1 934 0
 773 00bc 0028     		cmp	r0, #0
 774 00be 03D0     		beq	.L64
 930:../../../../../../Middlewares/Third_Party/LoRaWAN/Mac/region/RegionKR920.c ****     {
 775              		.loc 1 930 0
 776 00c0 7B42     		rsbs	r3, r7, #0
 777 00c2 5F41     		adcs	r7, r7, r3
 778              	.LVL49:
 779 00c4 FBB2     		uxtb	r3, r7
 780 00c6 9B46     		mov	fp, r3
 781              	.L64:
 782              	.LVL50:
 938:../../../../../../Middlewares/Third_Party/LoRaWAN/Mac/region/RegionKR920.c ****     {
 783              		.loc 1 938 0
 784 00c8 237A     		ldrb	r3, [r4, #8]
 785 00ca 1A07     		lsls	r2, r3, #28
 786 00cc 5BB2     		sxtb	r3, r3
 787 00ce 1217     		asrs	r2, r2, #28
 788 00d0 1B11     		asrs	r3, r3, #4
 789 00d2 9A42     		cmp	r2, r3
 790 00d4 01DD     		ble	.L60
 940:../../../../../../Middlewares/Third_Party/LoRaWAN/Mac/region/RegionKR920.c ****     }
 791              		.loc 1 940 0
 792 00d6 0123     		movs	r3, #1
 793 00d8 9B46     		mov	fp, r3
 794              	.LVL51:
 795              	.L60:
 796              	.LBB42:
 797              	.LBB43:
 123:../../../../../../Middlewares/Third_Party/LoRaWAN/Mac/region/RegionKR920.c ****     {
 798              		.loc 1 123 0
 799 00da 154B     		ldr	r3, .L74+4
 800              	.LBE43:
 801              	.LBE42:
 946:../../../../../../Middlewares/Third_Party/LoRaWAN/Mac/region/RegionKR920.c ****         {
 802              		.loc 1 946 0
 803 00dc 2768     		ldr	r7, [r4]
 804              	.LVL52:
 805              	.LBB47:
 806              	.LBB46:
 123:../../../../../../Middlewares/Third_Party/LoRaWAN/Mac/region/RegionKR920.c ****     {
 807              		.loc 1 123 0
 808 00de 9B6A     		ldr	r3, [r3, #40]
 809 00e0 3800     		movs	r0, r7
ARM GAS  C:\Users\EBANO_~1\AppData\Local\Temp\ccLo4wHn.s 			page 34


 810 00e2 0193     		str	r3, [sp, #4]
 811 00e4 9847     		blx	r3
 812              	.LVL53:
 813 00e6 0028     		cmp	r0, #0
 814 00e8 BCD0     		beq	.L61
 815              	.LVL54:
 816              	.LBB44:
 817              	.LBB45:
 130:../../../../../../Middlewares/Third_Party/LoRaWAN/Mac/region/RegionKR920.c ****     {
 818              		.loc 1 130 0
 819 00ea 124B     		ldr	r3, .L74+8
 820 00ec F818     		adds	r0, r7, r3
 821 00ee 124B     		ldr	r3, .L74+12
 822 00f0 9842     		cmp	r0, r3
 823 00f2 B7D8     		bhi	.L61
 824              	.LVL55:
 134:../../../../../../Middlewares/Third_Party/LoRaWAN/Mac/region/RegionKR920.c ****         {
 825              		.loc 1 134 0
 826 00f4 1149     		ldr	r1, .L74+16
 827 00f6 FFF7FEFF 		bl	__aeabi_uidivmod
 828              	.LVL56:
 829 00fa 0029     		cmp	r1, #0
 830 00fc B2D1     		bne	.L61
 831              	.LVL57:
 832              	.LBE45:
 833              	.LBE44:
 834              	.LBE46:
 835              	.LBE47:
 953:../../../../../../Middlewares/Third_Party/LoRaWAN/Mac/region/RegionKR920.c ****     {
 836              		.loc 1 953 0
 837 00fe 5B46     		mov	r3, fp
 838 0100 002B     		cmp	r3, #0
 839 0102 AFD1     		bne	.L61
 966:../../../../../../Middlewares/Third_Party/LoRaWAN/Mac/region/RegionKR920.c ****     NvmCtx.Channels[id].Band = 0;
 840              		.loc 1 966 0
 841 0104 6800     		lsls	r0, r5, #1
 842 0106 094F     		ldr	r7, .L74
 843              	.LVL58:
 844 0108 4019     		adds	r0, r0, r5
 845 010a 8000     		lsls	r0, r0, #2
 846 010c 0C22     		movs	r2, #12
 847 010e 2100     		movs	r1, r4
 848 0110 C019     		adds	r0, r0, r7
 849 0112 FFF7FEFF 		bl	memcpy1
 850              	.LVL59:
 967:../../../../../../Middlewares/Third_Party/LoRaWAN/Mac/region/RegionKR920.c ****     NvmCtx.ChannelsMask[0] |= ( 1 << id );
 851              		.loc 1 967 0
 852 0116 5A46     		mov	r2, fp
 853 0118 B300     		lsls	r3, r6, #2
 854 011a 2933     		adds	r3, r3, #41
 855 011c FA54     		strb	r2, [r7, r3]
 968:../../../../../../Middlewares/Third_Party/LoRaWAN/Mac/region/RegionKR920.c ****     return LORAMAC_STATUS_OK;
 856              		.loc 1 968 0
 857 011e 0122     		movs	r2, #1
 858 0120 D021     		movs	r1, #208
 859 0122 AA40     		lsls	r2, r2, r5
 860 0124 7B5A     		ldrh	r3, [r7, r1]
ARM GAS  C:\Users\EBANO_~1\AppData\Local\Temp\ccLo4wHn.s 			page 35


 861 0126 1343     		orrs	r3, r2
 862 0128 7B52     		strh	r3, [r7, r1]
 863 012a 9BE7     		b	.L61
 864              	.L75:
 865              		.align	2
 866              	.L74:
 867 012c 00000000 		.word	NvmCtx
 868 0130 00000000 		.word	Radio
 869 0134 602E1CC9 		.word	-920900000
 870 0138 009F2400 		.word	2400000
 871 013c 400D0300 		.word	200000
 872              	.LBE41:
 873              	.LBE40:
 874              	.LBE49:
 875              		.cfi_endproc
 876              	.LFE50:
 877              		.size	RegionKR920ApplyCFList, .-RegionKR920ApplyCFList
 878              		.section	.text.RegionKR920ChanMaskSet,"ax",%progbits
 879              		.align	1
 880              		.p2align 2,,3
 881              		.global	RegionKR920ChanMaskSet
 882              		.syntax unified
 883              		.code	16
 884              		.thumb_func
 885              		.fpu softvfp
 886              		.type	RegionKR920ChanMaskSet, %function
 887              	RegionKR920ChanMaskSet:
 888              	.LFB51:
 513:../../../../../../Middlewares/Third_Party/LoRaWAN/Mac/region/RegionKR920.c ****     switch( chanMaskSet->ChannelsMaskType )
 889              		.loc 1 513 0
 890              		.cfi_startproc
 891              		@ args = 0, pretend = 0, frame = 0
 892              		@ frame_needed = 0, uses_anonymous_args = 0
 893              	.LVL60:
 894 0000 10B5     		push	{r4, lr}
 895              	.LCFI9:
 896              		.cfi_def_cfa_offset 8
 897              		.cfi_offset 4, -8
 898              		.cfi_offset 14, -4
 514:../../../../../../Middlewares/Third_Party/LoRaWAN/Mac/region/RegionKR920.c ****     {
 899              		.loc 1 514 0
 900 0002 0379     		ldrb	r3, [r0, #4]
 901 0004 002B     		cmp	r3, #0
 902 0006 0AD0     		beq	.L78
 903 0008 012B     		cmp	r3, #1
 904 000a 01D0     		beq	.L79
 527:../../../../../../Middlewares/Third_Party/LoRaWAN/Mac/region/RegionKR920.c ****     }
 905              		.loc 1 527 0
 906 000c 0020     		movs	r0, #0
 907              	.LVL61:
 908              	.L77:
 530:../../../../../../Middlewares/Third_Party/LoRaWAN/Mac/region/RegionKR920.c **** 
 909              		.loc 1 530 0
 910              		@ sp needed
 911 000e 10BD     		pop	{r4, pc}
 912              	.LVL62:
 913              	.L79:
ARM GAS  C:\Users\EBANO_~1\AppData\Local\Temp\ccLo4wHn.s 			page 36


 523:../../../../../../Middlewares/Third_Party/LoRaWAN/Mac/region/RegionKR920.c ****             break;
 914              		.loc 1 523 0
 915 0010 0168     		ldr	r1, [r0]
 916 0012 0122     		movs	r2, #1
 917 0014 0548     		ldr	r0, .L82
 918              	.LVL63:
 919 0016 FFF7FEFF 		bl	RegionCommonChanMaskCopy
 920              	.LVL64:
 529:../../../../../../Middlewares/Third_Party/LoRaWAN/Mac/region/RegionKR920.c **** }
 921              		.loc 1 529 0
 922 001a 0120     		movs	r0, #1
 524:../../../../../../Middlewares/Third_Party/LoRaWAN/Mac/region/RegionKR920.c ****         }
 923              		.loc 1 524 0
 924 001c F7E7     		b	.L77
 925              	.LVL65:
 926              	.L78:
 518:../../../../../../Middlewares/Third_Party/LoRaWAN/Mac/region/RegionKR920.c ****             break;
 927              		.loc 1 518 0
 928 001e 0168     		ldr	r1, [r0]
 929 0020 0122     		movs	r2, #1
 930 0022 0348     		ldr	r0, .L82+4
 931              	.LVL66:
 932 0024 FFF7FEFF 		bl	RegionCommonChanMaskCopy
 933              	.LVL67:
 529:../../../../../../Middlewares/Third_Party/LoRaWAN/Mac/region/RegionKR920.c **** }
 934              		.loc 1 529 0
 935 0028 0120     		movs	r0, #1
 519:../../../../../../Middlewares/Third_Party/LoRaWAN/Mac/region/RegionKR920.c ****         }
 936              		.loc 1 519 0
 937 002a F0E7     		b	.L77
 938              	.L83:
 939              		.align	2
 940              	.L82:
 941 002c D2000000 		.word	NvmCtx+210
 942 0030 D0000000 		.word	NvmCtx+208
 943              		.cfi_endproc
 944              	.LFE51:
 945              		.size	RegionKR920ChanMaskSet, .-RegionKR920ChanMaskSet
 946              		.section	.text.RegionKR920ComputeRxWindowParameters,"ax",%progbits
 947              		.align	1
 948              		.p2align 2,,3
 949              		.global	RegionKR920ComputeRxWindowParameters
 950              		.syntax unified
 951              		.code	16
 952              		.thumb_func
 953              		.fpu softvfp
 954              		.type	RegionKR920ComputeRxWindowParameters, %function
 955              	RegionKR920ComputeRxWindowParameters:
 956              	.LFB52:
 533:../../../../../../Middlewares/Third_Party/LoRaWAN/Mac/region/RegionKR920.c ****     double tSymbol = 0.0;
 957              		.loc 1 533 0
 958              		.cfi_startproc
 959              		@ args = 0, pretend = 0, frame = 8
 960              		@ frame_needed = 0, uses_anonymous_args = 0
 961              	.LVL68:
 962 0000 F0B5     		push	{r4, r5, r6, r7, lr}
 963              	.LCFI10:
ARM GAS  C:\Users\EBANO_~1\AppData\Local\Temp\ccLo4wHn.s 			page 37


 964              		.cfi_def_cfa_offset 20
 965              		.cfi_offset 4, -20
 966              		.cfi_offset 5, -16
 967              		.cfi_offset 6, -12
 968              		.cfi_offset 7, -8
 969              		.cfi_offset 14, -4
 970 0002 C646     		mov	lr, r8
 971 0004 00B5     		push	{lr}
 972              	.LCFI11:
 973              		.cfi_def_cfa_offset 24
 974              		.cfi_offset 8, -24
 975 0006 1C00     		movs	r4, r3
 976 0008 86B0     		sub	sp, sp, #24
 977              	.LCFI12:
 978              		.cfi_def_cfa_offset 48
 533:../../../../../../Middlewares/Third_Party/LoRaWAN/Mac/region/RegionKR920.c ****     double tSymbol = 0.0;
 979              		.loc 1 533 0
 980 000a 0D00     		movs	r5, r1
 981 000c 9046     		mov	r8, r2
 537:../../../../../../Middlewares/Third_Party/LoRaWAN/Mac/region/RegionKR920.c ****     rxConfigParams->Bandwidth = GetBandwidth( rxConfigParams->Datarate );
 982              		.loc 1 537 0
 983 000e 031C     		adds	r3, r0, #0
 984              	.LVL69:
 985 0010 0528     		cmp	r0, #5
 986 0012 00DD     		ble	.L85
 987 0014 0523     		movs	r3, #5
 988              	.L85:
 989 0016 58B2     		sxtb	r0, r3
 990              	.LVL70:
 991              	.LBB50:
 992              	.LBB51:
  96:../../../../../../Middlewares/Third_Party/LoRaWAN/Mac/region/RegionKR920.c ****     {
 993              		.loc 1 96 0
 994 0018 154A     		ldr	r2, .L90
 995              	.LVL71:
 996 001a 8100     		lsls	r1, r0, #2
 997              	.LVL72:
 998              	.LBE51:
 999              	.LBE50:
 537:../../../../../../Middlewares/Third_Party/LoRaWAN/Mac/region/RegionKR920.c ****     rxConfigParams->Bandwidth = GetBandwidth( rxConfigParams->Datarate );
 1000              		.loc 1 537 0
 1001 001c 6370     		strb	r3, [r4, #1]
 1002              	.LVL73:
 1003              	.LBB54:
 1004              	.LBB52:
  96:../../../../../../Middlewares/Third_Party/LoRaWAN/Mac/region/RegionKR920.c ****     {
 1005              		.loc 1 96 0
 1006 001e 154E     		ldr	r6, .L90+4
 1007 0020 5358     		ldr	r3, [r2, r1]
 1008 0022 B342     		cmp	r3, r6
 1009 0024 21D0     		beq	.L89
 1010 0026 144E     		ldr	r6, .L90+8
 1011 0028 B446     		mov	ip, r6
 1012 002a 6344     		add	r3, r3, ip
 1013 002c 5E42     		rsbs	r6, r3, #0
 1014 002e 7341     		adcs	r3, r3, r6
 1015 0030 5B00     		lsls	r3, r3, #1
ARM GAS  C:\Users\EBANO_~1\AppData\Local\Temp\ccLo4wHn.s 			page 38


 1016              	.L87:
 1017              	.LBE52:
 1018              	.LBE54:
 540:../../../../../../Middlewares/Third_Party/LoRaWAN/Mac/region/RegionKR920.c **** 
 1019              		.loc 1 540 0
 1020 0032 5158     		ldr	r1, [r2, r1]
 1021 0034 1218     		adds	r2, r2, r0
 538:../../../../../../Middlewares/Third_Party/LoRaWAN/Mac/region/RegionKR920.c **** 
 1022              		.loc 1 538 0
 1023 0036 A370     		strb	r3, [r4, #2]
 540:../../../../../../Middlewares/Third_Party/LoRaWAN/Mac/region/RegionKR920.c **** 
 1024              		.loc 1 540 0
 1025 0038 107E     		ldrb	r0, [r2, #24]
 1026 003a FFF7FEFF 		bl	RegionCommonComputeSymbolTimeLoRa
 1027              	.LVL74:
 542:../../../../../../Middlewares/Third_Party/LoRaWAN/Mac/region/RegionKR920.c **** }
 1028              		.loc 1 542 0
 1029 003e 0F4B     		ldr	r3, .L90+12
 540:../../../../../../Middlewares/Third_Party/LoRaWAN/Mac/region/RegionKR920.c **** 
 1030              		.loc 1 540 0
 1031 0040 0600     		movs	r6, r0
 542:../../../../../../Middlewares/Third_Party/LoRaWAN/Mac/region/RegionKR920.c **** }
 1032              		.loc 1 542 0
 1033 0042 5B6E     		ldr	r3, [r3, #100]
 540:../../../../../../Middlewares/Third_Party/LoRaWAN/Mac/region/RegionKR920.c **** 
 1034              		.loc 1 540 0
 1035 0044 0F00     		movs	r7, r1
 1036              	.LVL75:
 542:../../../../../../Middlewares/Third_Party/LoRaWAN/Mac/region/RegionKR920.c **** }
 1037              		.loc 1 542 0
 1038 0046 0593     		str	r3, [sp, #20]
 1039 0048 9847     		blx	r3
 1040              	.LVL76:
 1041 004a 2300     		movs	r3, r4
 1042 004c 0834     		adds	r4, r4, #8
 1043              	.LVL77:
 1044 004e 0C33     		adds	r3, r3, #12
 1045              	.LVL78:
 1046 0050 0293     		str	r3, [sp, #8]
 1047 0052 0090     		str	r0, [sp]
 1048 0054 0194     		str	r4, [sp, #4]
 1049 0056 4346     		mov	r3, r8
 1050              	.LVL79:
 1051 0058 2A00     		movs	r2, r5
 1052 005a 3000     		movs	r0, r6
 1053 005c 3900     		movs	r1, r7
 1054 005e FFF7FEFF 		bl	RegionCommonComputeRxWindowParameters
 1055              	.LVL80:
 543:../../../../../../Middlewares/Third_Party/LoRaWAN/Mac/region/RegionKR920.c **** 
 1056              		.loc 1 543 0
 1057 0062 06B0     		add	sp, sp, #24
 1058              		@ sp needed
 1059              	.LVL81:
 1060              	.LVL82:
 1061              	.LVL83:
 1062 0064 04BC     		pop	{r2}
 1063 0066 9046     		mov	r8, r2
ARM GAS  C:\Users\EBANO_~1\AppData\Local\Temp\ccLo4wHn.s 			page 39


 1064 0068 F0BD     		pop	{r4, r5, r6, r7, pc}
 1065              	.LVL84:
 1066              	.L89:
 1067              	.LBB55:
 1068              	.LBB53:
  96:../../../../../../Middlewares/Third_Party/LoRaWAN/Mac/region/RegionKR920.c ****     {
 1069              		.loc 1 96 0
 1070 006a 0123     		movs	r3, #1
 1071 006c E1E7     		b	.L87
 1072              	.L91:
 1073 006e C046     		.align	2
 1074              	.L90:
 1075 0070 AC000000 		.word	.LANCHOR1
 1076 0074 90D00300 		.word	250000
 1077 0078 E05EF8FF 		.word	-500000
 1078 007c 00000000 		.word	Radio
 1079              	.LBE53:
 1080              	.LBE55:
 1081              		.cfi_endproc
 1082              	.LFE52:
 1083              		.size	RegionKR920ComputeRxWindowParameters, .-RegionKR920ComputeRxWindowParameters
 1084              		.section	.text.RegionKR920RxConfig,"ax",%progbits
 1085              		.align	1
 1086              		.p2align 2,,3
 1087              		.global	RegionKR920RxConfig
 1088              		.syntax unified
 1089              		.code	16
 1090              		.thumb_func
 1091              		.fpu softvfp
 1092              		.type	RegionKR920RxConfig, %function
 1093              	RegionKR920RxConfig:
 1094              	.LFB53:
 546:../../../../../../Middlewares/Third_Party/LoRaWAN/Mac/region/RegionKR920.c ****     int8_t dr = rxConfig->Datarate;
 1095              		.loc 1 546 0
 1096              		.cfi_startproc
 1097              		@ args = 0, pretend = 0, frame = 8
 1098              		@ frame_needed = 0, uses_anonymous_args = 0
 1099              	.LVL85:
 1100 0000 F0B5     		push	{r4, r5, r6, r7, lr}
 1101              	.LCFI13:
 1102              		.cfi_def_cfa_offset 20
 1103              		.cfi_offset 4, -20
 1104              		.cfi_offset 5, -16
 1105              		.cfi_offset 6, -12
 1106              		.cfi_offset 7, -8
 1107              		.cfi_offset 14, -4
 1108 0002 4746     		mov	r7, r8
 1109 0004 CE46     		mov	lr, r9
 547:../../../../../../Middlewares/Third_Party/LoRaWAN/Mac/region/RegionKR920.c ****     uint8_t maxPayload = 0;
 1110              		.loc 1 547 0
 1111 0006 0126     		movs	r6, #1
 546:../../../../../../Middlewares/Third_Party/LoRaWAN/Mac/region/RegionKR920.c ****     int8_t dr = rxConfig->Datarate;
 1112              		.loc 1 546 0
 1113 0008 80B5     		push	{r7, lr}
 1114              	.LCFI14:
 1115              		.cfi_def_cfa_offset 28
 1116              		.cfi_offset 8, -28
ARM GAS  C:\Users\EBANO_~1\AppData\Local\Temp\ccLo4wHn.s 			page 40


 1117              		.cfi_offset 9, -24
 550:../../../../../../Middlewares/Third_Party/LoRaWAN/Mac/region/RegionKR920.c **** 
 1118              		.loc 1 550 0
 1119 000a 4368     		ldr	r3, [r0, #4]
 552:../../../../../../Middlewares/Third_Party/LoRaWAN/Mac/region/RegionKR920.c ****     {
 1120              		.loc 1 552 0
 1121 000c 254D     		ldr	r5, .L100
 550:../../../../../../Middlewares/Third_Party/LoRaWAN/Mac/region/RegionKR920.c **** 
 1122              		.loc 1 550 0
 1123 000e 9846     		mov	r8, r3
 552:../../../../../../Middlewares/Third_Party/LoRaWAN/Mac/region/RegionKR920.c ****     {
 1124              		.loc 1 552 0
 1125 0010 EB68     		ldr	r3, [r5, #12]
 546:../../../../../../Middlewares/Third_Party/LoRaWAN/Mac/region/RegionKR920.c ****     int8_t dr = rxConfig->Datarate;
 1126              		.loc 1 546 0
 1127 0012 8DB0     		sub	sp, sp, #52
 1128              	.LCFI15:
 1129              		.cfi_def_cfa_offset 80
 547:../../../../../../Middlewares/Third_Party/LoRaWAN/Mac/region/RegionKR920.c ****     uint8_t maxPayload = 0;
 1130              		.loc 1 547 0
 1131 0014 8657     		ldrsb	r6, [r0, r6]
 1132              	.LVL86:
 546:../../../../../../Middlewares/Third_Party/LoRaWAN/Mac/region/RegionKR920.c ****     int8_t dr = rxConfig->Datarate;
 1133              		.loc 1 546 0
 1134 0016 0400     		movs	r4, r0
 552:../../../../../../Middlewares/Third_Party/LoRaWAN/Mac/region/RegionKR920.c ****     {
 1135              		.loc 1 552 0
 1136 0018 0B93     		str	r3, [sp, #44]
 546:../../../../../../Middlewares/Third_Party/LoRaWAN/Mac/region/RegionKR920.c ****     int8_t dr = rxConfig->Datarate;
 1137              		.loc 1 546 0
 1138 001a 0F00     		movs	r7, r1
 552:../../../../../../Middlewares/Third_Party/LoRaWAN/Mac/region/RegionKR920.c ****     {
 1139              		.loc 1 552 0
 1140 001c 9847     		blx	r3
 1141              	.LVL87:
 554:../../../../../../Middlewares/Third_Party/LoRaWAN/Mac/region/RegionKR920.c ****     }
 1142              		.loc 1 554 0
 1143 001e 0023     		movs	r3, #0
 552:../../../../../../Middlewares/Third_Party/LoRaWAN/Mac/region/RegionKR920.c ****     {
 1144              		.loc 1 552 0
 1145 0020 0028     		cmp	r0, #0
 1146 0022 2CD1     		bne	.L93
 557:../../../../../../Middlewares/Third_Party/LoRaWAN/Mac/region/RegionKR920.c ****     {
 1147              		.loc 1 557 0
 1148 0024 E37C     		ldrb	r3, [r4, #19]
 1149 0026 002B     		cmp	r3, #0
 1150 0028 2FD0     		beq	.L99
 1151              	.LVL88:
 1152              	.L94:
 569:../../../../../../Middlewares/Third_Party/LoRaWAN/Mac/region/RegionKR920.c **** 
 1153              		.loc 1 569 0
 1154 002a 1F4B     		ldr	r3, .L100+4
 571:../../../../../../Middlewares/Third_Party/LoRaWAN/Mac/region/RegionKR920.c **** 
 1155              		.loc 1 571 0
 1156 002c 4046     		mov	r0, r8
 569:../../../../../../Middlewares/Third_Party/LoRaWAN/Mac/region/RegionKR920.c **** 
 1157              		.loc 1 569 0
ARM GAS  C:\Users\EBANO_~1\AppData\Local\Temp\ccLo4wHn.s 			page 41


 1158 002e 9B19     		adds	r3, r3, r6
 1159 0030 1B7E     		ldrb	r3, [r3, #24]
 1160 0032 5BB2     		sxtb	r3, r3
 1161 0034 9946     		mov	r9, r3
 1162              	.LVL89:
 571:../../../../../../Middlewares/Third_Party/LoRaWAN/Mac/region/RegionKR920.c **** 
 1163              		.loc 1 571 0
 1164 0036 6B69     		ldr	r3, [r5, #20]
 1165 0038 0B93     		str	r3, [sp, #44]
 1166 003a 9847     		blx	r3
 1167              	.LVL90:
 574:../../../../../../Middlewares/Third_Party/LoRaWAN/Mac/region/RegionKR920.c ****     maxPayload = MaxPayloadOfDatarateKR920[dr];
 1168              		.loc 1 574 0
 1169 003c A37C     		ldrb	r3, [r4, #18]
 1170 003e A178     		ldrb	r1, [r4, #2]
 1171 0040 0993     		str	r3, [sp, #36]
 1172 0042 0123     		movs	r3, #1
 1173 0044 0893     		str	r3, [sp, #32]
 1174 0046 0023     		movs	r3, #0
 1175 0048 0793     		str	r3, [sp, #28]
 1176 004a 0693     		str	r3, [sp, #24]
 1177 004c 0593     		str	r3, [sp, #20]
 1178 004e 0493     		str	r3, [sp, #16]
 1179 0050 0393     		str	r3, [sp, #12]
 1180 0052 2289     		ldrh	r2, [r4, #8]
 1181 0054 0093     		str	r3, [sp]
 1182 0056 0292     		str	r2, [sp, #8]
 1183 0058 0822     		movs	r2, #8
 1184 005a 2B6A     		ldr	r3, [r5, #32]
 1185 005c 0192     		str	r2, [sp, #4]
 1186 005e 0B93     		str	r3, [sp, #44]
 1187 0060 4A46     		mov	r2, r9
 1188 0062 0123     		movs	r3, #1
 1189 0064 0120     		movs	r0, #1
 1190 0066 0B9C     		ldr	r4, [sp, #44]
 1191              	.LVL91:
 1192 0068 A047     		blx	r4
 1193              	.LVL92:
 575:../../../../../../Middlewares/Third_Party/LoRaWAN/Mac/region/RegionKR920.c ****     Radio.SetMaxPayloadLength( MODEM_LORA, maxPayload + LORA_MAC_FRMPAYLOAD_OVERHEAD );
 1194              		.loc 1 575 0
 1195 006a 104B     		ldr	r3, .L100+8
 576:../../../../../../Middlewares/Third_Party/LoRaWAN/Mac/region/RegionKR920.c ****     TVL1( PRINTF( "RX on freq %d Hz at DR %d\n\r", frequency, dr );)
 1196              		.loc 1 576 0
 1197 006c 0120     		movs	r0, #1
 1198 006e 995D     		ldrb	r1, [r3, r6]
 1199 0070 EB6D     		ldr	r3, [r5, #92]
 1200 0072 0D31     		adds	r1, r1, #13
 1201 0074 C9B2     		uxtb	r1, r1
 1202 0076 0B93     		str	r3, [sp, #44]
 1203 0078 9847     		blx	r3
 1204              	.LVL93:
 580:../../../../../../Middlewares/Third_Party/LoRaWAN/Mac/region/RegionKR920.c **** }
 1205              		.loc 1 580 0
 1206 007a 0123     		movs	r3, #1
 579:../../../../../../Middlewares/Third_Party/LoRaWAN/Mac/region/RegionKR920.c ****     return true;
 1207              		.loc 1 579 0
 1208 007c 3E70     		strb	r6, [r7]
ARM GAS  C:\Users\EBANO_~1\AppData\Local\Temp\ccLo4wHn.s 			page 42


 1209              	.LVL94:
 1210              	.L93:
 581:../../../../../../Middlewares/Third_Party/LoRaWAN/Mac/region/RegionKR920.c **** 
 1211              		.loc 1 581 0
 1212 007e 1800     		movs	r0, r3
 1213 0080 0DB0     		add	sp, sp, #52
 1214              		@ sp needed
 1215              	.LVL95:
 1216              	.LVL96:
 1217              	.LVL97:
 1218 0082 0CBC     		pop	{r2, r3}
 1219 0084 9046     		mov	r8, r2
 1220 0086 9946     		mov	r9, r3
 1221 0088 F0BD     		pop	{r4, r5, r6, r7, pc}
 1222              	.LVL98:
 1223              	.L99:
 560:../../../../../../Middlewares/Third_Party/LoRaWAN/Mac/region/RegionKR920.c ****         // Apply the alternative RX 1 window frequency, if it is available
 1224              		.loc 1 560 0
 1225 008a 2178     		ldrb	r1, [r4]
 1226 008c 084A     		ldr	r2, .L100+12
 1227 008e 4B00     		lsls	r3, r1, #1
 1228 0090 5B18     		adds	r3, r3, r1
 1229 0092 9B00     		lsls	r3, r3, #2
 1230 0094 9958     		ldr	r1, [r3, r2]
 562:../../../../../../Middlewares/Third_Party/LoRaWAN/Mac/region/RegionKR920.c ****         {
 1231              		.loc 1 562 0
 1232 0096 D318     		adds	r3, r2, r3
 1233 0098 5B68     		ldr	r3, [r3, #4]
 560:../../../../../../Middlewares/Third_Party/LoRaWAN/Mac/region/RegionKR920.c ****         // Apply the alternative RX 1 window frequency, if it is available
 1234              		.loc 1 560 0
 1235 009a 8846     		mov	r8, r1
 1236              	.LVL99:
 562:../../../../../../Middlewares/Third_Party/LoRaWAN/Mac/region/RegionKR920.c ****         {
 1237              		.loc 1 562 0
 1238 009c 002B     		cmp	r3, #0
 1239 009e C4D0     		beq	.L94
 1240 00a0 9846     		mov	r8, r3
 1241 00a2 C2E7     		b	.L94
 1242              	.L101:
 1243              		.align	2
 1244              	.L100:
 1245 00a4 00000000 		.word	Radio
 1246 00a8 AC000000 		.word	.LANCHOR1
 1247 00ac CC000000 		.word	.LANCHOR0
 1248 00b0 00000000 		.word	NvmCtx
 1249              		.cfi_endproc
 1250              	.LFE53:
 1251              		.size	RegionKR920RxConfig, .-RegionKR920RxConfig
 1252              		.global	__aeabi_fcmplt
 1253              		.section	.text.RegionKR920TxConfig,"ax",%progbits
 1254              		.align	1
 1255              		.p2align 2,,3
 1256              		.global	RegionKR920TxConfig
 1257              		.syntax unified
 1258              		.code	16
 1259              		.thumb_func
 1260              		.fpu softvfp
ARM GAS  C:\Users\EBANO_~1\AppData\Local\Temp\ccLo4wHn.s 			page 43


 1261              		.type	RegionKR920TxConfig, %function
 1262              	RegionKR920TxConfig:
 1263              	.LFB54:
 584:../../../../../../Middlewares/Third_Party/LoRaWAN/Mac/region/RegionKR920.c ****     int8_t phyDr = DataratesKR920[txConfig->Datarate];
 1264              		.loc 1 584 0
 1265              		.cfi_startproc
 1266              		@ args = 0, pretend = 0, frame = 8
 1267              		@ frame_needed = 0, uses_anonymous_args = 0
 1268              	.LVL100:
 1269 0000 F0B5     		push	{r4, r5, r6, r7, lr}
 1270              	.LCFI16:
 1271              		.cfi_def_cfa_offset 20
 1272              		.cfi_offset 4, -20
 1273              		.cfi_offset 5, -16
 1274              		.cfi_offset 6, -12
 1275              		.cfi_offset 7, -8
 1276              		.cfi_offset 14, -4
 1277 0002 5746     		mov	r7, r10
 1278 0004 4E46     		mov	r6, r9
 1279 0006 4546     		mov	r5, r8
 1280 0008 DE46     		mov	lr, fp
 1281 000a 8946     		mov	r9, r1
 585:../../../../../../Middlewares/Third_Party/LoRaWAN/Mac/region/RegionKR920.c ****     int8_t txPowerLimited = LimitTxPower( txConfig->TxPower, NvmCtx.Bands[NvmCtx.Channels[txConfig-
 1282              		.loc 1 585 0
 1283 000c 0121     		movs	r1, #1
 1284              	.LVL101:
 584:../../../../../../Middlewares/Third_Party/LoRaWAN/Mac/region/RegionKR920.c ****     int8_t phyDr = DataratesKR920[txConfig->Datarate];
 1285              		.loc 1 584 0
 1286 000e 0400     		movs	r4, r0
 1287 0010 E0B5     		push	{r5, r6, r7, lr}
 1288              	.LCFI17:
 1289              		.cfi_def_cfa_offset 36
 1290              		.cfi_offset 8, -36
 1291              		.cfi_offset 9, -32
 1292              		.cfi_offset 10, -28
 1293              		.cfi_offset 11, -24
 585:../../../../../../Middlewares/Third_Party/LoRaWAN/Mac/region/RegionKR920.c ****     int8_t txPowerLimited = LimitTxPower( txConfig->TxPower, NvmCtx.Bands[NvmCtx.Channels[txConfig-
 1294              		.loc 1 585 0
 1295 0012 3E4F     		ldr	r7, .L111
 1296 0014 4156     		ldrsb	r1, [r0, r1]
 586:../../../../../../Middlewares/Third_Party/LoRaWAN/Mac/region/RegionKR920.c ****     uint32_t bandwidth = GetBandwidth( txConfig->Datarate );
 1297              		.loc 1 586 0
 1298 0016 0078     		ldrb	r0, [r0]
 1299              	.LVL102:
 585:../../../../../../Middlewares/Third_Party/LoRaWAN/Mac/region/RegionKR920.c ****     int8_t txPowerLimited = LimitTxPower( txConfig->TxPower, NvmCtx.Bands[NvmCtx.Channels[txConfig-
 1300              		.loc 1 585 0
 1301 0018 7B18     		adds	r3, r7, r1
 1302 001a 1B7E     		ldrb	r3, [r3, #24]
 584:../../../../../../Middlewares/Third_Party/LoRaWAN/Mac/region/RegionKR920.c ****     int8_t phyDr = DataratesKR920[txConfig->Datarate];
 1303              		.loc 1 584 0
 1304 001c 9246     		mov	r10, r2
 585:../../../../../../Middlewares/Third_Party/LoRaWAN/Mac/region/RegionKR920.c ****     int8_t txPowerLimited = LimitTxPower( txConfig->TxPower, NvmCtx.Bands[NvmCtx.Channels[txConfig-
 1305              		.loc 1 585 0
 1306 001e 5BB2     		sxtb	r3, r3
 586:../../../../../../Middlewares/Third_Party/LoRaWAN/Mac/region/RegionKR920.c ****     uint32_t bandwidth = GetBandwidth( txConfig->Datarate );
 1307              		.loc 1 586 0
 1308 0020 4200     		lsls	r2, r0, #1
ARM GAS  C:\Users\EBANO_~1\AppData\Local\Temp\ccLo4wHn.s 			page 44


 1309              	.LVL103:
 1310 0022 3B4E     		ldr	r6, .L111+4
 585:../../../../../../Middlewares/Third_Party/LoRaWAN/Mac/region/RegionKR920.c ****     int8_t txPowerLimited = LimitTxPower( txConfig->TxPower, NvmCtx.Bands[NvmCtx.Channels[txConfig-
 1311              		.loc 1 585 0
 1312 0024 9B46     		mov	fp, r3
 1313              	.LVL104:
 586:../../../../../../Middlewares/Third_Party/LoRaWAN/Mac/region/RegionKR920.c ****     uint32_t bandwidth = GetBandwidth( txConfig->Datarate );
 1314              		.loc 1 586 0
 1315 0026 1318     		adds	r3, r2, r0
 1316 0028 9B00     		lsls	r3, r3, #2
 1317 002a F318     		adds	r3, r6, r3
 1318 002c 5B7A     		ldrb	r3, [r3, #9]
 1319              	.LBB56:
 1320              	.LBB57:
 113:../../../../../../Middlewares/Third_Party/LoRaWAN/Mac/region/RegionKR920.c **** 
 1321              		.loc 1 113 0
 1322 002e A578     		ldrb	r5, [r4, #2]
 1323              	.LBE57:
 1324              	.LBE56:
 586:../../../../../../Middlewares/Third_Party/LoRaWAN/Mac/region/RegionKR920.c ****     uint32_t bandwidth = GetBandwidth( txConfig->Datarate );
 1325              		.loc 1 586 0
 1326 0030 0C33     		adds	r3, r3, #12
 1327 0032 1B01     		lsls	r3, r3, #4
 1328 0034 F318     		adds	r3, r6, r3
 1329              	.LBB61:
 1330              	.LBB58:
 113:../../../../../../Middlewares/Third_Party/LoRaWAN/Mac/region/RegionKR920.c **** 
 1331              		.loc 1 113 0
 1332 0036 9B78     		ldrb	r3, [r3, #2]
 1333              	.LBE58:
 1334              	.LBE61:
 584:../../../../../../Middlewares/Third_Party/LoRaWAN/Mac/region/RegionKR920.c ****     int8_t phyDr = DataratesKR920[txConfig->Datarate];
 1335              		.loc 1 584 0
 1336 0038 8DB0     		sub	sp, sp, #52
 1337              	.LCFI18:
 1338              		.cfi_def_cfa_offset 88
 1339              	.LBB62:
 1340              	.LBB59:
 113:../../../../../../Middlewares/Third_Party/LoRaWAN/Mac/region/RegionKR920.c **** 
 1341              		.loc 1 113 0
 1342 003a 9C46     		mov	ip, r3
 1343 003c 5BB2     		sxtb	r3, r3
 1344 003e 0A93     		str	r3, [sp, #40]
 1345 0040 6BB2     		sxtb	r3, r5
 1346 0042 9846     		mov	r8, r3
 1347 0044 0A9B     		ldr	r3, [sp, #40]
 1348 0046 4345     		cmp	r3, r8
 1349 0048 00DA     		bge	.L103
 1350 004a AC46     		mov	ip, r5
 1351              	.L103:
 1352 004c 6346     		mov	r3, ip
 1353              	.LBE59:
 1354              	.LBE62:
 1355              	.LBB63:
 1356              	.LBB64:
  96:../../../../../../Middlewares/Third_Party/LoRaWAN/Mac/region/RegionKR920.c ****     {
 1357              		.loc 1 96 0
ARM GAS  C:\Users\EBANO_~1\AppData\Local\Temp\ccLo4wHn.s 			page 45


 1358 004e 8900     		lsls	r1, r1, #2
 1359              	.LVL105:
 1360              	.LBE64:
 1361              	.LBE63:
 1362              	.LBB67:
 1363              	.LBB60:
 113:../../../../../../Middlewares/Third_Party/LoRaWAN/Mac/region/RegionKR920.c **** 
 1364              		.loc 1 113 0
 1365 0050 5DB2     		sxtb	r5, r3
 1366              	.LVL106:
 1367              	.LBE60:
 1368              	.LBE67:
 1369              	.LBB68:
 1370              	.LBB65:
  96:../../../../../../Middlewares/Third_Party/LoRaWAN/Mac/region/RegionKR920.c ****     {
 1371              		.loc 1 96 0
 1372 0052 7B58     		ldr	r3, [r7, r1]
 1373 0054 2F49     		ldr	r1, .L111+8
 1374 0056 8B42     		cmp	r3, r1
 1375 0058 54D0     		beq	.L109
 100:../../../../../../Middlewares/Third_Party/LoRaWAN/Mac/region/RegionKR920.c ****         case 250000:
 1376              		.loc 1 100 0
 1377 005a 2F49     		ldr	r1, .L111+12
 1378 005c 8C46     		mov	ip, r1
 1379 005e 6344     		add	r3, r3, ip
 1380 0060 5942     		rsbs	r1, r3, #0
 1381 0062 4B41     		adcs	r3, r3, r1
 1382 0064 5B00     		lsls	r3, r3, #1
 1383 0066 0A93     		str	r3, [sp, #40]
 1384              	.L105:
 1385              	.LVL107:
 1386              	.LBE65:
 1387              	.LBE68:
 588:../../../../../../Middlewares/Third_Party/LoRaWAN/Mac/region/RegionKR920.c ****     int8_t phyTxPower = 0;
 1388              		.loc 1 588 0
 1389 0068 1218     		adds	r2, r2, r0
 1390 006a 9200     		lsls	r2, r2, #2
 1391              	.LBB69:
 1392              	.LBB70:
  86:../../../../../../Middlewares/Third_Party/LoRaWAN/Mac/region/RegionKR920.c ****     {// Limit to 14dBm
 1393              		.loc 1 86 0
 1394 006c 2B4B     		ldr	r3, .L111+16
 1395 006e B258     		ldr	r2, [r6, r2]
 1396 0070 9A42     		cmp	r2, r3
 1397 0072 44D9     		bls	.L110
 1398 0074 2A4B     		ldr	r3, .L111+20
 1399 0076 9846     		mov	r8, r3
 1400              	.L107:
 1401              	.LVL108:
 1402              	.LBE70:
 1403              	.LBE69:
 593:../../../../../../Middlewares/Third_Party/LoRaWAN/Mac/region/RegionKR920.c **** 
 1404              		.loc 1 593 0
 1405 0078 6768     		ldr	r7, [r4, #4]
 1406 007a 4146     		mov	r1, r8
 1407 007c 381C     		adds	r0, r7, #0
 1408 007e FFF7FEFF 		bl	__aeabi_fcmplt
ARM GAS  C:\Users\EBANO_~1\AppData\Local\Temp\ccLo4wHn.s 			page 46


 1409              	.LVL109:
 1410 0082 0028     		cmp	r0, #0
 1411 0084 00D1     		bne	.L108
 1412 0086 4746     		mov	r7, r8
 1413              	.L108:
 1414              	.LVL110:
 596:../../../../../../Middlewares/Third_Party/LoRaWAN/Mac/region/RegionKR920.c **** 
 1415              		.loc 1 596 0 discriminator 4
 1416 0088 391C     		adds	r1, r7, #0
 1417 008a A268     		ldr	r2, [r4, #8]
 1418 008c 2800     		movs	r0, r5
 1419 008e FFF7FEFF 		bl	RegionCommonComputeTxPower
 1420              	.LVL111:
 599:../../../../../../Middlewares/Third_Party/LoRaWAN/Mac/region/RegionKR920.c **** 
 1421              		.loc 1 599 0 discriminator 4
 1422 0092 2278     		ldrb	r2, [r4]
 596:../../../../../../Middlewares/Third_Party/LoRaWAN/Mac/region/RegionKR920.c **** 
 1423              		.loc 1 596 0 discriminator 4
 1424 0094 0700     		movs	r7, r0
 1425              	.LVL112:
 599:../../../../../../Middlewares/Third_Party/LoRaWAN/Mac/region/RegionKR920.c **** 
 1426              		.loc 1 599 0 discriminator 4
 1427 0096 5300     		lsls	r3, r2, #1
 1428 0098 9B18     		adds	r3, r3, r2
 1429 009a 9B00     		lsls	r3, r3, #2
 1430 009c F058     		ldr	r0, [r6, r3]
 1431 009e 214E     		ldr	r6, .L111+24
 1432 00a0 7369     		ldr	r3, [r6, #20]
 1433 00a2 0B93     		str	r3, [sp, #44]
 1434 00a4 9847     		blx	r3
 1435              	.LVL113:
 601:../../../../../../Middlewares/Third_Party/LoRaWAN/Mac/region/RegionKR920.c ****     TVL1( PRINTF( "TX on freq %d Hz at DR %d\n\r", NvmCtx.Channels[txConfig->Channel].Frequency, tx
 1436              		.loc 1 601 0 discriminator 4
 1437 00a6 204B     		ldr	r3, .L111+28
 1438 00a8 0122     		movs	r2, #1
 1439 00aa 0893     		str	r3, [sp, #32]
 1440 00ac 0023     		movs	r3, #0
 1441 00ae 0793     		str	r3, [sp, #28]
 1442 00b0 0693     		str	r3, [sp, #24]
 1443 00b2 0593     		str	r3, [sp, #20]
 1444 00b4 0393     		str	r3, [sp, #12]
 1445 00b6 0833     		adds	r3, r3, #8
 1446 00b8 0293     		str	r3, [sp, #8]
 1447 00ba 5B46     		mov	r3, fp
 1448 00bc 0093     		str	r3, [sp]
 1449 00be 736A     		ldr	r3, [r6, #36]
 1450 00c0 0492     		str	r2, [sp, #16]
 1451 00c2 0B93     		str	r3, [sp, #44]
 1452 00c4 0192     		str	r2, [sp, #4]
 1453 00c6 0A9B     		ldr	r3, [sp, #40]
 1454 00c8 0022     		movs	r2, #0
 1455 00ca 3900     		movs	r1, r7
 1456 00cc 0120     		movs	r0, #1
 1457 00ce 0B9F     		ldr	r7, [sp, #44]
 1458              	.LVL114:
 1459 00d0 B847     		blx	r7
 1460              	.LVL115:
ARM GAS  C:\Users\EBANO_~1\AppData\Local\Temp\ccLo4wHn.s 			page 47


 605:../../../../../../Middlewares/Third_Party/LoRaWAN/Mac/region/RegionKR920.c ****     // Get the time-on-air of the next tx frame
 1461              		.loc 1 605 0 discriminator 4
 1462 00d2 F36D     		ldr	r3, [r6, #92]
 1463 00d4 217B     		ldrb	r1, [r4, #12]
 1464 00d6 0120     		movs	r0, #1
 1465 00d8 0A93     		str	r3, [sp, #40]
 1466 00da 9847     		blx	r3
 1467              	.LVL116:
 607:../../../../../../Middlewares/Third_Party/LoRaWAN/Mac/region/RegionKR920.c **** 
 1468              		.loc 1 607 0 discriminator 4
 1469 00dc F36A     		ldr	r3, [r6, #44]
 1470 00de 217B     		ldrb	r1, [r4, #12]
 1471 00e0 0120     		movs	r0, #1
 1472 00e2 0A93     		str	r3, [sp, #40]
 1473 00e4 9847     		blx	r3
 1474              	.LVL117:
 1475 00e6 5346     		mov	r3, r10
 1476 00e8 1860     		str	r0, [r3]
 609:../../../../../../Middlewares/Third_Party/LoRaWAN/Mac/region/RegionKR920.c ****     return true;
 1477              		.loc 1 609 0 discriminator 4
 1478 00ea 4B46     		mov	r3, r9
 611:../../../../../../Middlewares/Third_Party/LoRaWAN/Mac/region/RegionKR920.c **** 
 1479              		.loc 1 611 0 discriminator 4
 1480 00ec 0120     		movs	r0, #1
 609:../../../../../../Middlewares/Third_Party/LoRaWAN/Mac/region/RegionKR920.c ****     return true;
 1481              		.loc 1 609 0 discriminator 4
 1482 00ee 1D70     		strb	r5, [r3]
 611:../../../../../../Middlewares/Third_Party/LoRaWAN/Mac/region/RegionKR920.c **** 
 1483              		.loc 1 611 0 discriminator 4
 1484 00f0 0DB0     		add	sp, sp, #52
 1485              		@ sp needed
 1486              	.LVL118:
 1487              	.LVL119:
 1488              	.LVL120:
 1489              	.LVL121:
 1490 00f2 3CBC     		pop	{r2, r3, r4, r5}
 1491 00f4 9046     		mov	r8, r2
 1492 00f6 9946     		mov	r9, r3
 1493 00f8 A246     		mov	r10, r4
 1494 00fa AB46     		mov	fp, r5
 1495 00fc F0BD     		pop	{r4, r5, r6, r7, pc}
 1496              	.LVL122:
 1497              	.L110:
 1498              	.LBB72:
 1499              	.LBB71:
  86:../../../../../../Middlewares/Third_Party/LoRaWAN/Mac/region/RegionKR920.c ****     {// Limit to 14dBm
 1500              		.loc 1 86 0
 1501 00fe 0B4B     		ldr	r3, .L111+32
 1502 0100 9846     		mov	r8, r3
 1503 0102 B9E7     		b	.L107
 1504              	.LVL123:
 1505              	.L109:
 1506              	.LBE71:
 1507              	.LBE72:
 1508              	.LBB73:
 1509              	.LBB66:
 102:../../../../../../Middlewares/Third_Party/LoRaWAN/Mac/region/RegionKR920.c ****         case 500000:
ARM GAS  C:\Users\EBANO_~1\AppData\Local\Temp\ccLo4wHn.s 			page 48


 1510              		.loc 1 102 0
 1511 0104 0123     		movs	r3, #1
 1512 0106 0A93     		str	r3, [sp, #40]
 1513 0108 AEE7     		b	.L105
 1514              	.L112:
 1515 010a C046     		.align	2
 1516              	.L111:
 1517 010c AC000000 		.word	.LANCHOR1
 1518 0110 00000000 		.word	NvmCtx
 1519 0114 90D00300 		.word	250000
 1520 0118 E05EF8FF 		.word	-500000
 1521 011c 1F21F636 		.word	922099999
 1522 0120 00006041 		.word	1096810496
 1523 0124 00000000 		.word	Radio
 1524 0128 B80B0000 		.word	3000
 1525 012c 00002041 		.word	1092616192
 1526              	.LBE66:
 1527              	.LBE73:
 1528              		.cfi_endproc
 1529              	.LFE54:
 1530              		.size	RegionKR920TxConfig, .-RegionKR920TxConfig
 1531              		.section	.text.RegionKR920LinkAdrReq,"ax",%progbits
 1532              		.align	1
 1533              		.p2align 2,,3
 1534              		.global	RegionKR920LinkAdrReq
 1535              		.syntax unified
 1536              		.code	16
 1537              		.thumb_func
 1538              		.fpu softvfp
 1539              		.type	RegionKR920LinkAdrReq, %function
 1540              	RegionKR920LinkAdrReq:
 1541              	.LFB55:
 614:../../../../../../Middlewares/Third_Party/LoRaWAN/Mac/region/RegionKR920.c ****     uint8_t status = 0x07;
 1542              		.loc 1 614 0
 1543              		.cfi_startproc
 1544              		@ args = 4, pretend = 0, frame = 56
 1545              		@ frame_needed = 0, uses_anonymous_args = 0
 1546              	.LVL124:
 1547 0000 F0B5     		push	{r4, r5, r6, r7, lr}
 1548              	.LCFI19:
 1549              		.cfi_def_cfa_offset 20
 1550              		.cfi_offset 4, -20
 1551              		.cfi_offset 5, -16
 1552              		.cfi_offset 6, -12
 1553              		.cfi_offset 7, -8
 1554              		.cfi_offset 14, -4
 1555 0002 5746     		mov	r7, r10
 1556 0004 4E46     		mov	r6, r9
 1557 0006 4546     		mov	r5, r8
 1558 0008 DE46     		mov	lr, fp
 1559 000a E0B5     		push	{r5, r6, r7, lr}
 1560              	.LCFI20:
 1561              		.cfi_def_cfa_offset 36
 1562              		.cfi_offset 8, -36
 1563              		.cfi_offset 9, -32
 1564              		.cfi_offset 10, -28
 1565              		.cfi_offset 11, -24
ARM GAS  C:\Users\EBANO_~1\AppData\Local\Temp\ccLo4wHn.s 			page 49


 1566 000c 8FB0     		sub	sp, sp, #60
 1567              	.LCFI21:
 1568              		.cfi_def_cfa_offset 96
 614:../../../../../../Middlewares/Third_Party/LoRaWAN/Mac/region/RegionKR920.c ****     uint8_t status = 0x07;
 1569              		.loc 1 614 0
 1570 000e 0193     		str	r3, [sp, #4]
 619:../../../../../../Middlewares/Third_Party/LoRaWAN/Mac/region/RegionKR920.c ****     GetPhyParams_t getPhy;
 1571              		.loc 1 619 0
 1572 0010 0023     		movs	r3, #0
 1573              	.LVL125:
 614:../../../../../../Middlewares/Third_Party/LoRaWAN/Mac/region/RegionKR920.c ****     uint8_t status = 0x07;
 1574              		.loc 1 614 0
 1575 0012 9246     		mov	r10, r2
 619:../../../../../../Middlewares/Third_Party/LoRaWAN/Mac/region/RegionKR920.c ****     GetPhyParams_t getPhy;
 1576              		.loc 1 619 0
 1577 0014 02AA     		add	r2, sp, #8
 1578              	.LVL126:
 1579 0016 D380     		strh	r3, [r2, #6]
 615:../../../../../../Middlewares/Third_Party/LoRaWAN/Mac/region/RegionKR920.c ****     RegionCommonLinkAdrParams_t linkAdrParams;
 1580              		.loc 1 615 0
 1581 0018 0733     		adds	r3, r3, #7
 614:../../../../../../Middlewares/Third_Party/LoRaWAN/Mac/region/RegionKR920.c ****     uint8_t status = 0x07;
 1582              		.loc 1 614 0
 1583 001a 0600     		movs	r6, r0
 1584 001c 8B46     		mov	fp, r1
 618:../../../../../../Middlewares/Third_Party/LoRaWAN/Mac/region/RegionKR920.c ****     uint16_t chMask = 0;
 1585              		.loc 1 618 0
 1586 001e 0024     		movs	r4, #0
 615:../../../../../../Middlewares/Third_Party/LoRaWAN/Mac/region/RegionKR920.c ****     RegionCommonLinkAdrParams_t linkAdrParams;
 1587              		.loc 1 615 0
 1588 0020 9946     		mov	r9, r3
 1589              	.LBB79:
 658:../../../../../../Middlewares/Third_Party/LoRaWAN/Mac/region/RegionKR920.c ****                     {
 1590              		.loc 1 658 0
 1591 0022 9846     		mov	r8, r3
 1592 0024 B44F     		ldr	r7, .L269
 1593 0026 04AD     		add	r5, sp, #16
 1594              	.LVL127:
 1595              	.L114:
 1596              	.LBE79:
 624:../../../../../../Middlewares/Third_Party/LoRaWAN/Mac/region/RegionKR920.c ****     {
 1597              		.loc 1 624 0
 1598 0028 337A     		ldrb	r3, [r6, #8]
 1599 002a A342     		cmp	r3, r4
 1600 002c 00D8     		bhi	.LCB1437
 1601 002e 93E0     		b	.L159	@long jump
 1602              	.LCB1437:
 1603              	.L158:
 627:../../../../../../Middlewares/Third_Party/LoRaWAN/Mac/region/RegionKR920.c **** 
 1604              		.loc 1 627 0
 1605 0030 7368     		ldr	r3, [r6, #4]
 1606 0032 2900     		movs	r1, r5
 1607 0034 1819     		adds	r0, r3, r4
 1608 0036 FFF7FEFF 		bl	RegionCommonParseLinkAdrReq
 1609              	.LVL128:
 629:../../../../../../Middlewares/Third_Party/LoRaWAN/Mac/region/RegionKR920.c ****             break; // break loop, since no more request has been found
 1610              		.loc 1 629 0
ARM GAS  C:\Users\EBANO_~1\AppData\Local\Temp\ccLo4wHn.s 			page 50


 1611 003a 0028     		cmp	r0, #0
 1612 003c 00D1     		bne	.LCB1449
 1613 003e 8BE0     		b	.L159	@long jump
 1614              	.LCB1449:
 639:../../../../../../Middlewares/Third_Party/LoRaWAN/Mac/region/RegionKR920.c **** 
 1615              		.loc 1 639 0
 1616 0040 AB88     		ldrh	r3, [r5, #4]
 1617 0042 02AA     		add	r2, sp, #8
 1618 0044 D380     		strh	r3, [r2, #6]
 642:../../../../../../Middlewares/Third_Party/LoRaWAN/Mac/region/RegionKR920.c ****         {
 1619              		.loc 1 642 0
 1620 0046 EA78     		ldrb	r2, [r5, #3]
 633:../../../../../../Middlewares/Third_Party/LoRaWAN/Mac/region/RegionKR920.c **** 
 1621              		.loc 1 633 0
 1622 0048 2418     		adds	r4, r4, r0
 1623              	.LVL129:
 1624 004a E4B2     		uxtb	r4, r4
 1625              	.LVL130:
 639:../../../../../../Middlewares/Third_Party/LoRaWAN/Mac/region/RegionKR920.c **** 
 1626              		.loc 1 639 0
 1627 004c 181C     		adds	r0, r3, #0
 1628              	.LVL131:
 642:../../../../../../Middlewares/Third_Party/LoRaWAN/Mac/region/RegionKR920.c ****         {
 1629              		.loc 1 642 0
 1630 004e 002A     		cmp	r2, #0
 1631 0050 00D0     		beq	.LCB1462
 1632 0052 BFE0     		b	.L118	@long jump
 1633              	.LCB1462:
 644:../../../../../../Middlewares/Third_Party/LoRaWAN/Mac/region/RegionKR920.c ****         }
 1634              		.loc 1 644 0 discriminator 1
 1635 0054 0632     		adds	r2, r2, #6
 1636 0056 9146     		mov	r9, r2
 642:../../../../../../Middlewares/Third_Party/LoRaWAN/Mac/region/RegionKR920.c ****         {
 1637              		.loc 1 642 0 discriminator 1
 1638 0058 002B     		cmp	r3, #0
 1639 005a E5D0     		beq	.L114
 1640              	.LVL132:
 1641              	.LBB80:
 665:../../../../../../Middlewares/Third_Party/LoRaWAN/Mac/region/RegionKR920.c ****                         ( NvmCtx.Channels[i].Frequency == 0 ) )
 1642              		.loc 1 665 0
 1643 005c 0722     		movs	r2, #7
 1644 005e 9146     		mov	r9, r2
 1645 0060 DA07     		lsls	r2, r3, #31
 1646 0062 04D5     		bpl	.L122
 1647 0064 3A68     		ldr	r2, [r7]
 1648 0066 511E     		subs	r1, r2, #1
 1649 0068 8A41     		sbcs	r2, r2, r1
 1650 006a 0632     		adds	r2, r2, #6
 1651 006c 9146     		mov	r9, r2
 1652              	.L122:
 1653              	.LVL133:
 1654 006e 9A07     		lsls	r2, r3, #30
 1655 0070 04D5     		bpl	.L123
 1656 0072 FA68     		ldr	r2, [r7, #12]
 1657 0074 002A     		cmp	r2, #0
 1658 0076 01D1     		bne	.L123
 668:../../../../../../Middlewares/Third_Party/LoRaWAN/Mac/region/RegionKR920.c ****                     }
ARM GAS  C:\Users\EBANO_~1\AppData\Local\Temp\ccLo4wHn.s 			page 51


 1659              		.loc 1 668 0
 1660 0078 0632     		adds	r2, r2, #6
 1661 007a 9146     		mov	r9, r2
 1662              	.LVL134:
 1663              	.L123:
 665:../../../../../../Middlewares/Third_Party/LoRaWAN/Mac/region/RegionKR920.c ****                         ( NvmCtx.Channels[i].Frequency == 0 ) )
 1664              		.loc 1 665 0
 1665 007c 5A07     		lsls	r2, r3, #29
 1666 007e 04D5     		bpl	.L124
 1667 0080 BA69     		ldr	r2, [r7, #24]
 1668 0082 002A     		cmp	r2, #0
 1669 0084 01D1     		bne	.L124
 668:../../../../../../Middlewares/Third_Party/LoRaWAN/Mac/region/RegionKR920.c ****                     }
 1670              		.loc 1 668 0
 1671 0086 0632     		adds	r2, r2, #6
 1672 0088 9146     		mov	r9, r2
 1673              	.LVL135:
 1674              	.L124:
 665:../../../../../../Middlewares/Third_Party/LoRaWAN/Mac/region/RegionKR920.c ****                         ( NvmCtx.Channels[i].Frequency == 0 ) )
 1675              		.loc 1 665 0
 1676 008a 1A07     		lsls	r2, r3, #28
 1677 008c 04D5     		bpl	.L125
 1678 008e 7A6A     		ldr	r2, [r7, #36]
 1679 0090 002A     		cmp	r2, #0
 1680 0092 01D1     		bne	.L125
 668:../../../../../../Middlewares/Third_Party/LoRaWAN/Mac/region/RegionKR920.c ****                     }
 1681              		.loc 1 668 0
 1682 0094 0632     		adds	r2, r2, #6
 1683 0096 9146     		mov	r9, r2
 1684              	.LVL136:
 1685              	.L125:
 665:../../../../../../Middlewares/Third_Party/LoRaWAN/Mac/region/RegionKR920.c ****                         ( NvmCtx.Channels[i].Frequency == 0 ) )
 1686              		.loc 1 665 0
 1687 0098 DA06     		lsls	r2, r3, #27
 1688 009a 04D5     		bpl	.L126
 1689 009c 3A6B     		ldr	r2, [r7, #48]
 1690 009e 002A     		cmp	r2, #0
 1691 00a0 01D1     		bne	.L126
 668:../../../../../../Middlewares/Third_Party/LoRaWAN/Mac/region/RegionKR920.c ****                     }
 1692              		.loc 1 668 0
 1693 00a2 0632     		adds	r2, r2, #6
 1694 00a4 9146     		mov	r9, r2
 1695              	.LVL137:
 1696              	.L126:
 665:../../../../../../Middlewares/Third_Party/LoRaWAN/Mac/region/RegionKR920.c ****                         ( NvmCtx.Channels[i].Frequency == 0 ) )
 1697              		.loc 1 665 0
 1698 00a6 9A06     		lsls	r2, r3, #26
 1699 00a8 04D5     		bpl	.L127
 1700 00aa FA6B     		ldr	r2, [r7, #60]
 1701 00ac 002A     		cmp	r2, #0
 1702 00ae 01D1     		bne	.L127
 668:../../../../../../Middlewares/Third_Party/LoRaWAN/Mac/region/RegionKR920.c ****                     }
 1703              		.loc 1 668 0
 1704 00b0 0632     		adds	r2, r2, #6
 1705 00b2 9146     		mov	r9, r2
 1706              	.LVL138:
 1707              	.L127:
ARM GAS  C:\Users\EBANO_~1\AppData\Local\Temp\ccLo4wHn.s 			page 52


 665:../../../../../../Middlewares/Third_Party/LoRaWAN/Mac/region/RegionKR920.c ****                         ( NvmCtx.Channels[i].Frequency == 0 ) )
 1708              		.loc 1 665 0
 1709 00b4 5A06     		lsls	r2, r3, #25
 1710 00b6 04D5     		bpl	.L128
 1711 00b8 BA6C     		ldr	r2, [r7, #72]
 1712 00ba 002A     		cmp	r2, #0
 1713 00bc 01D1     		bne	.L128
 668:../../../../../../Middlewares/Third_Party/LoRaWAN/Mac/region/RegionKR920.c ****                     }
 1714              		.loc 1 668 0
 1715 00be 0632     		adds	r2, r2, #6
 1716 00c0 9146     		mov	r9, r2
 1717              	.LVL139:
 1718              	.L128:
 665:../../../../../../Middlewares/Third_Party/LoRaWAN/Mac/region/RegionKR920.c ****                         ( NvmCtx.Channels[i].Frequency == 0 ) )
 1719              		.loc 1 665 0
 1720 00c2 1A06     		lsls	r2, r3, #24
 1721 00c4 04D5     		bpl	.L129
 1722 00c6 7A6D     		ldr	r2, [r7, #84]
 1723 00c8 002A     		cmp	r2, #0
 1724 00ca 01D1     		bne	.L129
 668:../../../../../../Middlewares/Third_Party/LoRaWAN/Mac/region/RegionKR920.c ****                     }
 1725              		.loc 1 668 0
 1726 00cc 0632     		adds	r2, r2, #6
 1727 00ce 9146     		mov	r9, r2
 1728              	.LVL140:
 1729              	.L129:
 665:../../../../../../Middlewares/Third_Party/LoRaWAN/Mac/region/RegionKR920.c ****                         ( NvmCtx.Channels[i].Frequency == 0 ) )
 1730              		.loc 1 665 0
 1731 00d0 DA05     		lsls	r2, r3, #23
 1732 00d2 04D5     		bpl	.L130
 1733 00d4 3A6E     		ldr	r2, [r7, #96]
 1734 00d6 002A     		cmp	r2, #0
 1735 00d8 01D1     		bne	.L130
 668:../../../../../../Middlewares/Third_Party/LoRaWAN/Mac/region/RegionKR920.c ****                     }
 1736              		.loc 1 668 0
 1737 00da 0632     		adds	r2, r2, #6
 1738 00dc 9146     		mov	r9, r2
 1739              	.LVL141:
 1740              	.L130:
 665:../../../../../../Middlewares/Third_Party/LoRaWAN/Mac/region/RegionKR920.c ****                         ( NvmCtx.Channels[i].Frequency == 0 ) )
 1741              		.loc 1 665 0
 1742 00de 9A05     		lsls	r2, r3, #22
 1743 00e0 04D5     		bpl	.L131
 1744 00e2 FA6E     		ldr	r2, [r7, #108]
 1745 00e4 002A     		cmp	r2, #0
 1746 00e6 01D1     		bne	.L131
 668:../../../../../../Middlewares/Third_Party/LoRaWAN/Mac/region/RegionKR920.c ****                     }
 1747              		.loc 1 668 0
 1748 00e8 0632     		adds	r2, r2, #6
 1749 00ea 9146     		mov	r9, r2
 1750              	.LVL142:
 1751              	.L131:
 665:../../../../../../Middlewares/Third_Party/LoRaWAN/Mac/region/RegionKR920.c ****                         ( NvmCtx.Channels[i].Frequency == 0 ) )
 1752              		.loc 1 665 0
 1753 00ec 5A05     		lsls	r2, r3, #21
 1754 00ee 04D5     		bpl	.L132
 1755 00f0 BA6F     		ldr	r2, [r7, #120]
ARM GAS  C:\Users\EBANO_~1\AppData\Local\Temp\ccLo4wHn.s 			page 53


 1756 00f2 002A     		cmp	r2, #0
 1757 00f4 01D1     		bne	.L132
 668:../../../../../../Middlewares/Third_Party/LoRaWAN/Mac/region/RegionKR920.c ****                     }
 1758              		.loc 1 668 0
 1759 00f6 0632     		adds	r2, r2, #6
 1760 00f8 9146     		mov	r9, r2
 1761              	.LVL143:
 1762              	.L132:
 665:../../../../../../Middlewares/Third_Party/LoRaWAN/Mac/region/RegionKR920.c ****                         ( NvmCtx.Channels[i].Frequency == 0 ) )
 1763              		.loc 1 665 0
 1764 00fa 1A05     		lsls	r2, r3, #20
 1765 00fc 05D5     		bpl	.L133
 666:../../../../../../Middlewares/Third_Party/LoRaWAN/Mac/region/RegionKR920.c ****                     {// Trying to enable an undefined channel
 1766              		.loc 1 666 0
 1767 00fe 8422     		movs	r2, #132
 665:../../../../../../Middlewares/Third_Party/LoRaWAN/Mac/region/RegionKR920.c ****                         ( NvmCtx.Channels[i].Frequency == 0 ) )
 1768              		.loc 1 665 0
 1769 0100 BA58     		ldr	r2, [r7, r2]
 1770 0102 002A     		cmp	r2, #0
 1771 0104 01D1     		bne	.L133
 668:../../../../../../Middlewares/Third_Party/LoRaWAN/Mac/region/RegionKR920.c ****                     }
 1772              		.loc 1 668 0
 1773 0106 0632     		adds	r2, r2, #6
 1774 0108 9146     		mov	r9, r2
 1775              	.LVL144:
 1776              	.L133:
 665:../../../../../../Middlewares/Third_Party/LoRaWAN/Mac/region/RegionKR920.c ****                         ( NvmCtx.Channels[i].Frequency == 0 ) )
 1777              		.loc 1 665 0
 1778 010a DA04     		lsls	r2, r3, #19
 1779 010c 05D5     		bpl	.L134
 666:../../../../../../Middlewares/Third_Party/LoRaWAN/Mac/region/RegionKR920.c ****                     {// Trying to enable an undefined channel
 1780              		.loc 1 666 0
 1781 010e 9022     		movs	r2, #144
 665:../../../../../../Middlewares/Third_Party/LoRaWAN/Mac/region/RegionKR920.c ****                         ( NvmCtx.Channels[i].Frequency == 0 ) )
 1782              		.loc 1 665 0
 1783 0110 BA58     		ldr	r2, [r7, r2]
 1784 0112 002A     		cmp	r2, #0
 1785 0114 01D1     		bne	.L134
 668:../../../../../../Middlewares/Third_Party/LoRaWAN/Mac/region/RegionKR920.c ****                     }
 1786              		.loc 1 668 0
 1787 0116 0632     		adds	r2, r2, #6
 1788 0118 9146     		mov	r9, r2
 1789              	.LVL145:
 1790              	.L134:
 665:../../../../../../Middlewares/Third_Party/LoRaWAN/Mac/region/RegionKR920.c ****                         ( NvmCtx.Channels[i].Frequency == 0 ) )
 1791              		.loc 1 665 0
 1792 011a 9A04     		lsls	r2, r3, #18
 1793 011c 05D5     		bpl	.L135
 666:../../../../../../Middlewares/Third_Party/LoRaWAN/Mac/region/RegionKR920.c ****                     {// Trying to enable an undefined channel
 1794              		.loc 1 666 0
 1795 011e 9C22     		movs	r2, #156
 665:../../../../../../Middlewares/Third_Party/LoRaWAN/Mac/region/RegionKR920.c ****                         ( NvmCtx.Channels[i].Frequency == 0 ) )
 1796              		.loc 1 665 0
 1797 0120 BA58     		ldr	r2, [r7, r2]
 1798 0122 002A     		cmp	r2, #0
 1799 0124 01D1     		bne	.L135
 668:../../../../../../Middlewares/Third_Party/LoRaWAN/Mac/region/RegionKR920.c ****                     }
ARM GAS  C:\Users\EBANO_~1\AppData\Local\Temp\ccLo4wHn.s 			page 54


 1800              		.loc 1 668 0
 1801 0126 0632     		adds	r2, r2, #6
 1802 0128 9146     		mov	r9, r2
 1803              	.LVL146:
 1804              	.L135:
 665:../../../../../../Middlewares/Third_Party/LoRaWAN/Mac/region/RegionKR920.c ****                         ( NvmCtx.Channels[i].Frequency == 0 ) )
 1805              		.loc 1 665 0
 1806 012a 5A04     		lsls	r2, r3, #17
 1807 012c 05D5     		bpl	.L136
 666:../../../../../../Middlewares/Third_Party/LoRaWAN/Mac/region/RegionKR920.c ****                     {// Trying to enable an undefined channel
 1808              		.loc 1 666 0
 1809 012e A822     		movs	r2, #168
 665:../../../../../../Middlewares/Third_Party/LoRaWAN/Mac/region/RegionKR920.c ****                         ( NvmCtx.Channels[i].Frequency == 0 ) )
 1810              		.loc 1 665 0
 1811 0130 BA58     		ldr	r2, [r7, r2]
 1812 0132 002A     		cmp	r2, #0
 1813 0134 01D1     		bne	.L136
 668:../../../../../../Middlewares/Third_Party/LoRaWAN/Mac/region/RegionKR920.c ****                     }
 1814              		.loc 1 668 0
 1815 0136 0632     		adds	r2, r2, #6
 1816 0138 9146     		mov	r9, r2
 1817              	.LVL147:
 1818              	.L136:
 665:../../../../../../Middlewares/Third_Party/LoRaWAN/Mac/region/RegionKR920.c ****                         ( NvmCtx.Channels[i].Frequency == 0 ) )
 1819              		.loc 1 665 0
 1820 013a 1BB2     		sxth	r3, r3
 1821 013c 002B     		cmp	r3, #0
 1822 013e 00DB     		blt	.LCB1712
 1823 0140 72E7     		b	.L114	@long jump
 1824              	.LCB1712:
 666:../../../../../../Middlewares/Third_Party/LoRaWAN/Mac/region/RegionKR920.c ****                     {// Trying to enable an undefined channel
 1825              		.loc 1 666 0
 1826 0142 B423     		movs	r3, #180
 665:../../../../../../Middlewares/Third_Party/LoRaWAN/Mac/region/RegionKR920.c ****                         ( NvmCtx.Channels[i].Frequency == 0 ) )
 1827              		.loc 1 665 0
 1828 0144 FB58     		ldr	r3, [r7, r3]
 1829 0146 002B     		cmp	r3, #0
 1830 0148 00D0     		beq	.LCB1716
 1831 014a 6DE7     		b	.L114	@long jump
 1832              	.LCB1716:
 668:../../../../../../Middlewares/Third_Party/LoRaWAN/Mac/region/RegionKR920.c ****                     }
 1833              		.loc 1 668 0
 1834 014c 0633     		adds	r3, r3, #6
 1835 014e 9946     		mov	r9, r3
 1836              	.LVL148:
 1837              	.LBE80:
 624:../../../../../../Middlewares/Third_Party/LoRaWAN/Mac/region/RegionKR920.c ****     {
 1838              		.loc 1 624 0
 1839 0150 337A     		ldrb	r3, [r6, #8]
 1840 0152 A342     		cmp	r3, r4
 1841 0154 00D9     		bls	.LCB1725
 1842 0156 6BE7     		b	.L158	@long jump
 1843              	.LCB1725:
 1844              	.LVL149:
 1845              	.L159:
 680:../../../../../../Middlewares/Third_Party/LoRaWAN/Mac/region/RegionKR920.c ****     linkAdrVerifyParams.AdrEnabled = linkAdrReq->AdrEnabled;
 1846              		.loc 1 680 0
ARM GAS  C:\Users\EBANO_~1\AppData\Local\Temp\ccLo4wHn.s 			page 55


 1847 0158 4B46     		mov	r3, r9
 1848 015a 06A8     		add	r0, sp, #24
 1849 015c 0371     		strb	r3, [r0, #4]
 681:../../../../../../Middlewares/Third_Party/LoRaWAN/Mac/region/RegionKR920.c ****     linkAdrVerifyParams.Datarate = linkAdrParams.Datarate;
 1850              		.loc 1 681 0
 1851 015e B37A     		ldrb	r3, [r6, #10]
 698:../../../../../../Middlewares/Third_Party/LoRaWAN/Mac/region/RegionKR920.c **** 
 1852              		.loc 1 698 0
 1853 0160 02A9     		add	r1, sp, #8
 681:../../../../../../Middlewares/Third_Party/LoRaWAN/Mac/region/RegionKR920.c ****     linkAdrVerifyParams.Datarate = linkAdrParams.Datarate;
 1854              		.loc 1 681 0
 1855 0162 4371     		strb	r3, [r0, #5]
 682:../../../../../../Middlewares/Third_Party/LoRaWAN/Mac/region/RegionKR920.c ****     linkAdrVerifyParams.TxPower = linkAdrParams.TxPower;
 1856              		.loc 1 682 0
 1857 0164 6B78     		ldrb	r3, [r5, #1]
 698:../../../../../../Middlewares/Third_Party/LoRaWAN/Mac/region/RegionKR920.c **** 
 1858              		.loc 1 698 0
 1859 0166 8C46     		mov	ip, r1
 682:../../../../../../Middlewares/Third_Party/LoRaWAN/Mac/region/RegionKR920.c ****     linkAdrVerifyParams.TxPower = linkAdrParams.TxPower;
 1860              		.loc 1 682 0
 1861 0168 8371     		strb	r3, [r0, #6]
 683:../../../../../../Middlewares/Third_Party/LoRaWAN/Mac/region/RegionKR920.c ****     linkAdrVerifyParams.NbRep = linkAdrParams.NbRep;
 1862              		.loc 1 683 0
 1863 016a AB78     		ldrb	r3, [r5, #2]
 698:../../../../../../Middlewares/Third_Party/LoRaWAN/Mac/region/RegionKR920.c **** 
 1864              		.loc 1 698 0
 1865 016c 0A22     		movs	r2, #10
 683:../../../../../../Middlewares/Third_Party/LoRaWAN/Mac/region/RegionKR920.c ****     linkAdrVerifyParams.NbRep = linkAdrParams.NbRep;
 1866              		.loc 1 683 0
 1867 016e C371     		strb	r3, [r0, #7]
 684:../../../../../../Middlewares/Third_Party/LoRaWAN/Mac/region/RegionKR920.c ****     linkAdrVerifyParams.CurrentDatarate = linkAdrReq->CurrentDatarate;
 1868              		.loc 1 684 0
 1869 0170 2B78     		ldrb	r3, [r5]
 698:../../../../../../Middlewares/Third_Party/LoRaWAN/Mac/region/RegionKR920.c **** 
 1870              		.loc 1 698 0
 1871 0172 0921     		movs	r1, #9
 684:../../../../../../Middlewares/Third_Party/LoRaWAN/Mac/region/RegionKR920.c ****     linkAdrVerifyParams.CurrentDatarate = linkAdrReq->CurrentDatarate;
 1872              		.loc 1 684 0
 1873 0174 0372     		strb	r3, [r0, #8]
 685:../../../../../../Middlewares/Third_Party/LoRaWAN/Mac/region/RegionKR920.c ****     linkAdrVerifyParams.CurrentTxPower = linkAdrReq->CurrentTxPower;
 1874              		.loc 1 685 0
 1875 0176 F37A     		ldrb	r3, [r6, #11]
 698:../../../../../../Middlewares/Third_Party/LoRaWAN/Mac/region/RegionKR920.c **** 
 1876              		.loc 1 698 0
 1877 0178 6244     		add	r2, r2, ip
 685:../../../../../../Middlewares/Third_Party/LoRaWAN/Mac/region/RegionKR920.c ****     linkAdrVerifyParams.CurrentTxPower = linkAdrReq->CurrentTxPower;
 1878              		.loc 1 685 0
 1879 017a 4372     		strb	r3, [r0, #9]
 686:../../../../../../Middlewares/Third_Party/LoRaWAN/Mac/region/RegionKR920.c ****     linkAdrVerifyParams.CurrentNbRep = linkAdrReq->CurrentNbRep;
 1880              		.loc 1 686 0
 1881 017c 337B     		ldrb	r3, [r6, #12]
 698:../../../../../../Middlewares/Third_Party/LoRaWAN/Mac/region/RegionKR920.c **** 
 1882              		.loc 1 698 0
 1883 017e 6144     		add	r1, r1, ip
 686:../../../../../../Middlewares/Third_Party/LoRaWAN/Mac/region/RegionKR920.c ****     linkAdrVerifyParams.CurrentNbRep = linkAdrReq->CurrentNbRep;
 1884              		.loc 1 686 0
 1885 0180 8372     		strb	r3, [r0, #10]
ARM GAS  C:\Users\EBANO_~1\AppData\Local\Temp\ccLo4wHn.s 			page 56


 687:../../../../../../Middlewares/Third_Party/LoRaWAN/Mac/region/RegionKR920.c ****     linkAdrVerifyParams.NbChannels = KR920_MAX_NB_CHANNELS;
 1886              		.loc 1 687 0
 1887 0182 737B     		ldrb	r3, [r6, #13]
 692:../../../../../../Middlewares/Third_Party/LoRaWAN/Mac/region/RegionKR920.c ****     linkAdrVerifyParams.MinTxPower = KR920_MIN_TX_POWER;
 1888              		.loc 1 692 0
 1889 0184 8761     		str	r7, [r0, #24]
 687:../../../../../../Middlewares/Third_Party/LoRaWAN/Mac/region/RegionKR920.c ****     linkAdrVerifyParams.NbChannels = KR920_MAX_NB_CHANNELS;
 1890              		.loc 1 687 0
 1891 0186 C372     		strb	r3, [r0, #11]
 688:../../../../../../Middlewares/Third_Party/LoRaWAN/Mac/region/RegionKR920.c ****     linkAdrVerifyParams.ChannelsMask = &chMask;
 1892              		.loc 1 688 0
 1893 0188 1023     		movs	r3, #16
 1894 018a 0373     		strb	r3, [r0, #12]
 689:../../../../../../Middlewares/Third_Party/LoRaWAN/Mac/region/RegionKR920.c ****     linkAdrVerifyParams.MinDatarate = ( int8_t )phyParam.Value;
 1895              		.loc 1 689 0
 1896 018c 02AB     		add	r3, sp, #8
 1897 018e 0633     		adds	r3, r3, #6
 1898 0190 0361     		str	r3, [r0, #16]
 690:../../../../../../Middlewares/Third_Party/LoRaWAN/Mac/region/RegionKR920.c ****     linkAdrVerifyParams.MaxDatarate = KR920_TX_MAX_DATARATE;
 1899              		.loc 1 690 0
 1900 0192 A023     		movs	r3, #160
 1901 0194 DB00     		lsls	r3, r3, #3
 1902 0196 8382     		strh	r3, [r0, #20]
 693:../../../../../../Middlewares/Third_Party/LoRaWAN/Mac/region/RegionKR920.c ****     linkAdrVerifyParams.MaxTxPower = KR920_MAX_TX_POWER;
 1903              		.loc 1 693 0
 1904 0198 0723     		movs	r3, #7
 1905 019a 8383     		strh	r3, [r0, #28]
 695:../../../../../../Middlewares/Third_Party/LoRaWAN/Mac/region/RegionKR920.c **** 
 1906              		.loc 1 695 0
 1907 019c 3368     		ldr	r3, [r6]
 1908 019e 0693     		str	r3, [sp, #24]
 698:../../../../../../Middlewares/Third_Party/LoRaWAN/Mac/region/RegionKR920.c **** 
 1909              		.loc 1 698 0
 1910 01a0 2B00     		movs	r3, r5
 1911 01a2 FFF7FEFF 		bl	RegionCommonLinkAdrReqVerifyParams
 1912              	.LVL150:
 1913 01a6 0600     		movs	r6, r0
 1914              	.LVL151:
 701:../../../../../../Middlewares/Third_Party/LoRaWAN/Mac/region/RegionKR920.c ****     {
 1915              		.loc 1 701 0
 1916 01a8 0728     		cmp	r0, #7
 1917 01aa 00D1     		bne	.LCB1776
 1918 01ac 91E0     		b	.L267	@long jump
 1919              	.LCB1776:
 1920              	.LVL152:
 1921              	.L117:
 710:../../../../../../Middlewares/Third_Party/LoRaWAN/Mac/region/RegionKR920.c ****     *txPowOut = linkAdrParams.TxPower;
 1922              		.loc 1 710 0
 1923 01ae 5A46     		mov	r2, fp
 1924 01b0 6B78     		ldrb	r3, [r5, #1]
 716:../../../../../../Middlewares/Third_Party/LoRaWAN/Mac/region/RegionKR920.c **** 
 1925              		.loc 1 716 0
 1926 01b2 3000     		movs	r0, r6
 710:../../../../../../Middlewares/Third_Party/LoRaWAN/Mac/region/RegionKR920.c ****     *txPowOut = linkAdrParams.TxPower;
 1927              		.loc 1 710 0
 1928 01b4 1370     		strb	r3, [r2]
 711:../../../../../../Middlewares/Third_Party/LoRaWAN/Mac/region/RegionKR920.c ****     *nbRepOut = linkAdrParams.NbRep;
ARM GAS  C:\Users\EBANO_~1\AppData\Local\Temp\ccLo4wHn.s 			page 57


 1929              		.loc 1 711 0
 1930 01b6 5246     		mov	r2, r10
 1931 01b8 AB78     		ldrb	r3, [r5, #2]
 1932 01ba 1370     		strb	r3, [r2]
 712:../../../../../../Middlewares/Third_Party/LoRaWAN/Mac/region/RegionKR920.c ****     *nbBytesParsed = bytesProcessed;
 1933              		.loc 1 712 0
 1934 01bc 2B78     		ldrb	r3, [r5]
 1935 01be 019A     		ldr	r2, [sp, #4]
 1936 01c0 1370     		strb	r3, [r2]
 713:../../../../../../Middlewares/Third_Party/LoRaWAN/Mac/region/RegionKR920.c **** 
 1937              		.loc 1 713 0
 1938 01c2 189B     		ldr	r3, [sp, #96]
 1939 01c4 1C70     		strb	r4, [r3]
 716:../../../../../../Middlewares/Third_Party/LoRaWAN/Mac/region/RegionKR920.c **** 
 1940              		.loc 1 716 0
 1941 01c6 0FB0     		add	sp, sp, #60
 1942              		@ sp needed
 1943              	.LVL153:
 1944              	.LVL154:
 1945              	.LVL155:
 1946 01c8 3CBC     		pop	{r2, r3, r4, r5}
 1947 01ca 9046     		mov	r8, r2
 1948 01cc 9946     		mov	r9, r3
 1949 01ce A246     		mov	r10, r4
 1950 01d0 AB46     		mov	fp, r5
 1951 01d2 F0BD     		pop	{r4, r5, r6, r7, pc}
 1952              	.LVL156:
 1953              	.L118:
 644:../../../../../../Middlewares/Third_Party/LoRaWAN/Mac/region/RegionKR920.c ****         }
 1954              		.loc 1 644 0
 1955 01d4 0621     		movs	r1, #6
 1956 01d6 8946     		mov	r9, r1
 646:../../../../../../Middlewares/Third_Party/LoRaWAN/Mac/region/RegionKR920.c ****                 ( linkAdrParams.ChMaskCtrl >= 7 ) )
 1957              		.loc 1 646 0
 1958 01d8 511E     		subs	r1, r2, #1
 1959 01da 0429     		cmp	r1, #4
 1960 01dc 00D8     		bhi	.LCB1827
 1961 01de 23E7     		b	.L114	@long jump
 1962              	.LCB1827:
 646:../../../../../../Middlewares/Third_Party/LoRaWAN/Mac/region/RegionKR920.c ****                 ( linkAdrParams.ChMaskCtrl >= 7 ) )
 1963              		.loc 1 646 0 is_stmt 0 discriminator 1
 1964 01e0 062A     		cmp	r2, #6
 1965 01e2 00D0     		beq	.LCB1829
 1966 01e4 20E7     		b	.L114	@long jump
 1967              	.LCB1829:
 1968              	.LVL157:
 1969              	.LBB81:
 658:../../../../../../Middlewares/Third_Party/LoRaWAN/Mac/region/RegionKR920.c ****                     {
 1970              		.loc 1 658 0 is_stmt 1
 1971 01e6 3968     		ldr	r1, [r7]
 1972 01e8 0022     		movs	r2, #0
 1973 01ea 0029     		cmp	r1, #0
 1974 01ec 02D0     		beq	.L139
 660:../../../../../../Middlewares/Third_Party/LoRaWAN/Mac/region/RegionKR920.c ****                     }
 1975              		.loc 1 660 0
 1976 01ee 0123     		movs	r3, #1
 1977 01f0 0132     		adds	r2, r2, #1
ARM GAS  C:\Users\EBANO_~1\AppData\Local\Temp\ccLo4wHn.s 			page 58


 1978 01f2 0343     		orrs	r3, r0
 1979              	.L139:
 1980              	.LVL158:
 658:../../../../../../Middlewares/Third_Party/LoRaWAN/Mac/region/RegionKR920.c ****                     {
 1981              		.loc 1 658 0
 1982 01f4 F968     		ldr	r1, [r7, #12]
 1983 01f6 0029     		cmp	r1, #0
 1984 01f8 02D0     		beq	.L140
 660:../../../../../../Middlewares/Third_Party/LoRaWAN/Mac/region/RegionKR920.c ****                     }
 1985              		.loc 1 660 0
 1986 01fa 0222     		movs	r2, #2
 1987 01fc 1343     		orrs	r3, r2
 1988 01fe 0122     		movs	r2, #1
 1989              	.L140:
 1990              	.LVL159:
 658:../../../../../../Middlewares/Third_Party/LoRaWAN/Mac/region/RegionKR920.c ****                     {
 1991              		.loc 1 658 0
 1992 0200 B969     		ldr	r1, [r7, #24]
 1993 0202 0029     		cmp	r1, #0
 1994 0204 02D0     		beq	.L141
 660:../../../../../../Middlewares/Third_Party/LoRaWAN/Mac/region/RegionKR920.c ****                     }
 1995              		.loc 1 660 0
 1996 0206 0422     		movs	r2, #4
 1997 0208 1343     		orrs	r3, r2
 1998 020a 0122     		movs	r2, #1
 1999              	.L141:
 2000              	.LVL160:
 658:../../../../../../Middlewares/Third_Party/LoRaWAN/Mac/region/RegionKR920.c ****                     {
 2001              		.loc 1 658 0
 2002 020c 796A     		ldr	r1, [r7, #36]
 2003 020e 0029     		cmp	r1, #0
 2004 0210 02D0     		beq	.L142
 660:../../../../../../Middlewares/Third_Party/LoRaWAN/Mac/region/RegionKR920.c ****                     }
 2005              		.loc 1 660 0
 2006 0212 0822     		movs	r2, #8
 2007 0214 1343     		orrs	r3, r2
 2008 0216 0122     		movs	r2, #1
 2009              	.L142:
 2010              	.LVL161:
 658:../../../../../../Middlewares/Third_Party/LoRaWAN/Mac/region/RegionKR920.c ****                     {
 2011              		.loc 1 658 0
 2012 0218 396B     		ldr	r1, [r7, #48]
 2013 021a 0029     		cmp	r1, #0
 2014 021c 02D0     		beq	.L143
 660:../../../../../../Middlewares/Third_Party/LoRaWAN/Mac/region/RegionKR920.c ****                     }
 2015              		.loc 1 660 0
 2016 021e 1022     		movs	r2, #16
 2017 0220 1343     		orrs	r3, r2
 2018 0222 0122     		movs	r2, #1
 2019              	.L143:
 2020              	.LVL162:
 658:../../../../../../Middlewares/Third_Party/LoRaWAN/Mac/region/RegionKR920.c ****                     {
 2021              		.loc 1 658 0
 2022 0224 F96B     		ldr	r1, [r7, #60]
 2023 0226 0029     		cmp	r1, #0
 2024 0228 02D0     		beq	.L144
 660:../../../../../../Middlewares/Third_Party/LoRaWAN/Mac/region/RegionKR920.c ****                     }
ARM GAS  C:\Users\EBANO_~1\AppData\Local\Temp\ccLo4wHn.s 			page 59


 2025              		.loc 1 660 0
 2026 022a 2022     		movs	r2, #32
 2027 022c 1343     		orrs	r3, r2
 2028 022e 0122     		movs	r2, #1
 2029              	.L144:
 2030              	.LVL163:
 658:../../../../../../Middlewares/Third_Party/LoRaWAN/Mac/region/RegionKR920.c ****                     {
 2031              		.loc 1 658 0
 2032 0230 B96C     		ldr	r1, [r7, #72]
 2033 0232 0029     		cmp	r1, #0
 2034 0234 02D0     		beq	.L145
 660:../../../../../../Middlewares/Third_Party/LoRaWAN/Mac/region/RegionKR920.c ****                     }
 2035              		.loc 1 660 0
 2036 0236 4022     		movs	r2, #64
 2037 0238 1343     		orrs	r3, r2
 2038 023a 0122     		movs	r2, #1
 2039              	.L145:
 2040              	.LVL164:
 658:../../../../../../Middlewares/Third_Party/LoRaWAN/Mac/region/RegionKR920.c ****                     {
 2041              		.loc 1 658 0
 2042 023c 796D     		ldr	r1, [r7, #84]
 2043 023e 0029     		cmp	r1, #0
 2044 0240 02D0     		beq	.L146
 660:../../../../../../Middlewares/Third_Party/LoRaWAN/Mac/region/RegionKR920.c ****                     }
 2045              		.loc 1 660 0
 2046 0242 8022     		movs	r2, #128
 2047 0244 1343     		orrs	r3, r2
 2048 0246 0122     		movs	r2, #1
 2049              	.L146:
 2050              	.LVL165:
 658:../../../../../../Middlewares/Third_Party/LoRaWAN/Mac/region/RegionKR920.c ****                     {
 2051              		.loc 1 658 0
 2052 0248 396E     		ldr	r1, [r7, #96]
 2053 024a 0029     		cmp	r1, #0
 2054 024c 03D0     		beq	.L147
 660:../../../../../../Middlewares/Third_Party/LoRaWAN/Mac/region/RegionKR920.c ****                     }
 2055              		.loc 1 660 0
 2056 024e 8022     		movs	r2, #128
 2057 0250 5200     		lsls	r2, r2, #1
 2058 0252 1343     		orrs	r3, r2
 2059 0254 FF3A     		subs	r2, r2, #255
 2060              	.L147:
 2061              	.LVL166:
 658:../../../../../../Middlewares/Third_Party/LoRaWAN/Mac/region/RegionKR920.c ****                     {
 2062              		.loc 1 658 0
 2063 0256 F96E     		ldr	r1, [r7, #108]
 2064 0258 0029     		cmp	r1, #0
 2065 025a 03D0     		beq	.L148
 660:../../../../../../Middlewares/Third_Party/LoRaWAN/Mac/region/RegionKR920.c ****                     }
 2066              		.loc 1 660 0
 2067 025c 8022     		movs	r2, #128
 2068 025e 9200     		lsls	r2, r2, #2
 2069 0260 1343     		orrs	r3, r2
 2070 0262 0122     		movs	r2, #1
 2071              	.L148:
 2072              	.LVL167:
 658:../../../../../../Middlewares/Third_Party/LoRaWAN/Mac/region/RegionKR920.c ****                     {
ARM GAS  C:\Users\EBANO_~1\AppData\Local\Temp\ccLo4wHn.s 			page 60


 2073              		.loc 1 658 0
 2074 0264 B96F     		ldr	r1, [r7, #120]
 2075 0266 0029     		cmp	r1, #0
 2076 0268 03D0     		beq	.L149
 660:../../../../../../Middlewares/Third_Party/LoRaWAN/Mac/region/RegionKR920.c ****                     }
 2077              		.loc 1 660 0
 2078 026a 8022     		movs	r2, #128
 2079 026c D200     		lsls	r2, r2, #3
 2080 026e 1343     		orrs	r3, r2
 2081 0270 0122     		movs	r2, #1
 2082              	.L149:
 2083              	.LVL168:
 658:../../../../../../Middlewares/Third_Party/LoRaWAN/Mac/region/RegionKR920.c ****                     {
 2084              		.loc 1 658 0
 2085 0272 8421     		movs	r1, #132
 2086 0274 7958     		ldr	r1, [r7, r1]
 2087 0276 0029     		cmp	r1, #0
 2088 0278 03D0     		beq	.L150
 660:../../../../../../Middlewares/Third_Party/LoRaWAN/Mac/region/RegionKR920.c ****                     }
 2089              		.loc 1 660 0
 2090 027a 8022     		movs	r2, #128
 2091 027c 1201     		lsls	r2, r2, #4
 2092 027e 1343     		orrs	r3, r2
 2093 0280 0122     		movs	r2, #1
 2094              	.L150:
 2095              	.LVL169:
 658:../../../../../../Middlewares/Third_Party/LoRaWAN/Mac/region/RegionKR920.c ****                     {
 2096              		.loc 1 658 0
 2097 0282 9021     		movs	r1, #144
 2098 0284 7958     		ldr	r1, [r7, r1]
 2099 0286 0029     		cmp	r1, #0
 2100 0288 03D0     		beq	.L151
 660:../../../../../../Middlewares/Third_Party/LoRaWAN/Mac/region/RegionKR920.c ****                     }
 2101              		.loc 1 660 0
 2102 028a 8022     		movs	r2, #128
 2103 028c 5201     		lsls	r2, r2, #5
 2104 028e 1343     		orrs	r3, r2
 2105 0290 0122     		movs	r2, #1
 2106              	.L151:
 2107              	.LVL170:
 658:../../../../../../Middlewares/Third_Party/LoRaWAN/Mac/region/RegionKR920.c ****                     {
 2108              		.loc 1 658 0
 2109 0292 9C21     		movs	r1, #156
 2110 0294 7958     		ldr	r1, [r7, r1]
 2111 0296 0029     		cmp	r1, #0
 2112 0298 26D1     		bne	.L268
 2113              	.LVL171:
 2114 029a A821     		movs	r1, #168
 2115 029c 7958     		ldr	r1, [r7, r1]
 2116 029e 0029     		cmp	r1, #0
 2117 02a0 0DD0     		beq	.L156
 2118              	.L153:
 660:../../../../../../Middlewares/Third_Party/LoRaWAN/Mac/region/RegionKR920.c ****                     }
 2119              		.loc 1 660 0
 2120 02a2 8022     		movs	r2, #128
 2121 02a4 D201     		lsls	r2, r2, #7
 2122 02a6 1343     		orrs	r3, r2
ARM GAS  C:\Users\EBANO_~1\AppData\Local\Temp\ccLo4wHn.s 			page 61


 2123              	.L266:
 2124              	.LVL172:
 658:../../../../../../Middlewares/Third_Party/LoRaWAN/Mac/region/RegionKR920.c ****                     {
 2125              		.loc 1 658 0
 2126 02a8 B422     		movs	r2, #180
 2127 02aa BA58     		ldr	r2, [r7, r2]
 2128 02ac 002A     		cmp	r2, #0
 2129 02ae 02D0     		beq	.L155
 2130              	.L154:
 660:../../../../../../Middlewares/Third_Party/LoRaWAN/Mac/region/RegionKR920.c ****                     }
 2131              		.loc 1 660 0
 2132 02b0 8022     		movs	r2, #128
 2133 02b2 1202     		lsls	r2, r2, #8
 2134 02b4 1343     		orrs	r3, r2
 2135              	.LVL173:
 2136              	.L155:
 2137 02b6 02AA     		add	r2, sp, #8
 2138 02b8 D380     		strh	r3, [r2, #6]
 658:../../../../../../Middlewares/Third_Party/LoRaWAN/Mac/region/RegionKR920.c ****                     {
 2139              		.loc 1 658 0
 2140 02ba C146     		mov	r9, r8
 2141 02bc B4E6     		b	.L114
 2142              	.LVL174:
 2143              	.L156:
 2144 02be B421     		movs	r1, #180
 2145 02c0 7958     		ldr	r1, [r7, r1]
 2146 02c2 0029     		cmp	r1, #0
 2147 02c4 F4D1     		bne	.L154
 2148              	.LVL175:
 2149 02c6 0721     		movs	r1, #7
 2150 02c8 8946     		mov	r9, r1
 2151 02ca 002A     		cmp	r2, #0
 2152 02cc 00D1     		bne	.LCB2047
 2153 02ce ABE6     		b	.L114	@long jump
 2154              	.LCB2047:
 2155 02d0 F1E7     		b	.L155
 2156              	.LVL176:
 2157              	.L267:
 2158              	.LBE81:
 704:../../../../../../Middlewares/Third_Party/LoRaWAN/Mac/region/RegionKR920.c ****         // Update the channels mask
 2159              		.loc 1 704 0
 2160 02d2 3800     		movs	r0, r7
 2161              	.LVL177:
 2162 02d4 0222     		movs	r2, #2
 2163 02d6 D030     		adds	r0, r0, #208
 2164 02d8 0021     		movs	r1, #0
 2165 02da FFF7FEFF 		bl	memset1
 2166              	.LVL178:
 706:../../../../../../Middlewares/Third_Party/LoRaWAN/Mac/region/RegionKR920.c ****     }
 2167              		.loc 1 706 0
 2168 02de 02AB     		add	r3, sp, #8
 2169 02e0 DA88     		ldrh	r2, [r3, #6]
 2170 02e2 D023     		movs	r3, #208
 2171 02e4 FA52     		strh	r2, [r7, r3]
 2172 02e6 62E7     		b	.L117
 2173              	.LVL179:
 2174              	.L268:
ARM GAS  C:\Users\EBANO_~1\AppData\Local\Temp\ccLo4wHn.s 			page 62


 2175              	.LBB82:
 660:../../../../../../Middlewares/Third_Party/LoRaWAN/Mac/region/RegionKR920.c ****                     }
 2176              		.loc 1 660 0
 2177 02e8 8022     		movs	r2, #128
 2178 02ea 9201     		lsls	r2, r2, #6
 2179 02ec 1343     		orrs	r3, r2
 2180              	.LVL180:
 658:../../../../../../Middlewares/Third_Party/LoRaWAN/Mac/region/RegionKR920.c ****                     {
 2181              		.loc 1 658 0
 2182 02ee A822     		movs	r2, #168
 2183 02f0 BA58     		ldr	r2, [r7, r2]
 2184 02f2 002A     		cmp	r2, #0
 2185 02f4 D5D1     		bne	.L153
 2186 02f6 D7E7     		b	.L266
 2187              	.L270:
 2188              		.align	2
 2189              	.L269:
 2190 02f8 00000000 		.word	NvmCtx
 2191              	.LBE82:
 2192              		.cfi_endproc
 2193              	.LFE55:
 2194              		.size	RegionKR920LinkAdrReq, .-RegionKR920LinkAdrReq
 2195              		.section	.text.RegionKR920RxParamSetupReq,"ax",%progbits
 2196              		.align	1
 2197              		.p2align 2,,3
 2198              		.global	RegionKR920RxParamSetupReq
 2199              		.syntax unified
 2200              		.code	16
 2201              		.thumb_func
 2202              		.fpu softvfp
 2203              		.type	RegionKR920RxParamSetupReq, %function
 2204              	RegionKR920RxParamSetupReq:
 2205              	.LFB56:
 719:../../../../../../Middlewares/Third_Party/LoRaWAN/Mac/region/RegionKR920.c ****     uint8_t status = 0x07;
 2206              		.loc 1 719 0
 2207              		.cfi_startproc
 2208              		@ args = 0, pretend = 0, frame = 8
 2209              		@ frame_needed = 0, uses_anonymous_args = 0
 2210              	.LVL181:
 2211 0000 70B5     		push	{r4, r5, r6, lr}
 2212              	.LCFI22:
 2213              		.cfi_def_cfa_offset 16
 2214              		.cfi_offset 4, -16
 2215              		.cfi_offset 5, -12
 2216              		.cfi_offset 6, -8
 2217              		.cfi_offset 14, -4
 2218              	.LBB87:
 2219              	.LBB88:
 123:../../../../../../Middlewares/Third_Party/LoRaWAN/Mac/region/RegionKR920.c ****     {
 2220              		.loc 1 123 0
 2221 0002 174B     		ldr	r3, .L282
 2222              	.LBE88:
 2223              	.LBE87:
 723:../../../../../../Middlewares/Third_Party/LoRaWAN/Mac/region/RegionKR920.c ****     {
 2224              		.loc 1 723 0
 2225 0004 4568     		ldr	r5, [r0, #4]
 2226              	.LVL182:
ARM GAS  C:\Users\EBANO_~1\AppData\Local\Temp\ccLo4wHn.s 			page 63


 2227              	.LBB96:
 2228              	.LBB93:
 123:../../../../../../Middlewares/Third_Party/LoRaWAN/Mac/region/RegionKR920.c ****     {
 2229              		.loc 1 123 0
 2230 0006 9B6A     		ldr	r3, [r3, #40]
 2231              	.LBE93:
 2232              	.LBE96:
 719:../../../../../../Middlewares/Third_Party/LoRaWAN/Mac/region/RegionKR920.c ****     uint8_t status = 0x07;
 2233              		.loc 1 719 0
 2234 0008 82B0     		sub	sp, sp, #8
 2235              	.LCFI23:
 2236              		.cfi_def_cfa_offset 24
 719:../../../../../../Middlewares/Third_Party/LoRaWAN/Mac/region/RegionKR920.c ****     uint8_t status = 0x07;
 2237              		.loc 1 719 0
 2238 000a 0400     		movs	r4, r0
 2239              	.LBB97:
 2240              	.LBB94:
 123:../../../../../../Middlewares/Third_Party/LoRaWAN/Mac/region/RegionKR920.c ****     {
 2241              		.loc 1 123 0
 2242 000c 2800     		movs	r0, r5
 2243              	.LVL183:
 2244 000e 0193     		str	r3, [sp, #4]
 2245 0010 9847     		blx	r3
 2246              	.LVL184:
 2247 0012 0028     		cmp	r0, #0
 2248 0014 04D0     		beq	.L277
 2249              	.LVL185:
 2250              	.LBB89:
 2251              	.LBB90:
 130:../../../../../../Middlewares/Third_Party/LoRaWAN/Mac/region/RegionKR920.c ****     {
 2252              		.loc 1 130 0
 2253 0016 134B     		ldr	r3, .L282+4
 2254 0018 E818     		adds	r0, r5, r3
 2255 001a 134B     		ldr	r3, .L282+8
 2256 001c 9842     		cmp	r0, r3
 2257 001e 17D9     		bls	.L281
 2258              	.LVL186:
 2259              	.L277:
 134:../../../../../../Middlewares/Third_Party/LoRaWAN/Mac/region/RegionKR920.c ****         {
 2260              		.loc 1 134 0
 2261 0020 0425     		movs	r5, #4
 2262              	.LVL187:
 2263              	.LBE90:
 2264              	.LBE89:
 2265              	.LBE94:
 2266              	.LBE97:
 725:../../../../../../Middlewares/Third_Party/LoRaWAN/Mac/region/RegionKR920.c ****     }
 2267              		.loc 1 725 0
 2268 0022 0626     		movs	r6, #6
 2269              	.L272:
 2270              	.LVL188:
 729:../../../../../../Middlewares/Third_Party/LoRaWAN/Mac/region/RegionKR920.c ****     {
 2271              		.loc 1 729 0
 2272 0024 0020     		movs	r0, #0
 2273 0026 0522     		movs	r2, #5
 2274 0028 2056     		ldrsb	r0, [r4, r0]
 2275 002a 0021     		movs	r1, #0
ARM GAS  C:\Users\EBANO_~1\AppData\Local\Temp\ccLo4wHn.s 			page 64


 2276 002c FFF7FEFF 		bl	RegionCommonValueInRange
 2277              	.LVL189:
 2278 0030 0028     		cmp	r0, #0
 2279 0032 00D0     		beq	.L273
 2280 0034 3500     		movs	r5, r6
 2281              	.L273:
 2282              	.LVL190:
 735:../../../../../../Middlewares/Third_Party/LoRaWAN/Mac/region/RegionKR920.c ****     {
 2283              		.loc 1 735 0
 2284 0036 0120     		movs	r0, #1
 2285 0038 0522     		movs	r2, #5
 2286 003a 2056     		ldrsb	r0, [r4, r0]
 2287 003c 0021     		movs	r1, #0
 2288 003e FFF7FEFF 		bl	RegionCommonValueInRange
 2289              	.LVL191:
 2290 0042 0028     		cmp	r0, #0
 2291 0044 01D1     		bne	.L274
 737:../../../../../../Middlewares/Third_Party/LoRaWAN/Mac/region/RegionKR920.c ****     }
 2292              		.loc 1 737 0
 2293 0046 FB23     		movs	r3, #251
 2294 0048 1D40     		ands	r5, r3
 2295              	.LVL192:
 2296              	.L274:
 741:../../../../../../Middlewares/Third_Party/LoRaWAN/Mac/region/RegionKR920.c **** 
 2297              		.loc 1 741 0
 2298 004a 2800     		movs	r0, r5
 2299 004c 02B0     		add	sp, sp, #8
 2300              		@ sp needed
 2301              	.LVL193:
 2302              	.LVL194:
 2303 004e 70BD     		pop	{r4, r5, r6, pc}
 2304              	.LVL195:
 2305              	.L281:
 2306              	.LBB98:
 2307              	.LBB95:
 2308              	.LBB92:
 2309              	.LBB91:
 134:../../../../../../Middlewares/Third_Party/LoRaWAN/Mac/region/RegionKR920.c ****         {
 2310              		.loc 1 134 0
 2311 0050 0649     		ldr	r1, .L282+12
 2312 0052 FFF7FEFF 		bl	__aeabi_uidivmod
 2313              	.LVL196:
 2314 0056 0029     		cmp	r1, #0
 2315 0058 E2D1     		bne	.L277
 2316 005a 0525     		movs	r5, #5
 2317              	.LVL197:
 2318              	.LBE91:
 2319              	.LBE92:
 2320              	.LBE95:
 2321              	.LBE98:
 720:../../../../../../Middlewares/Third_Party/LoRaWAN/Mac/region/RegionKR920.c **** 
 2322              		.loc 1 720 0
 2323 005c 0726     		movs	r6, #7
 2324 005e E1E7     		b	.L272
 2325              	.L283:
 2326              		.align	2
 2327              	.L282:
ARM GAS  C:\Users\EBANO_~1\AppData\Local\Temp\ccLo4wHn.s 			page 65


 2328 0060 00000000 		.word	Radio
 2329 0064 602E1CC9 		.word	-920900000
 2330 0068 009F2400 		.word	2400000
 2331 006c 400D0300 		.word	200000
 2332              		.cfi_endproc
 2333              	.LFE56:
 2334              		.size	RegionKR920RxParamSetupReq, .-RegionKR920RxParamSetupReq
 2335              		.section	.text.RegionKR920NewChannelReq,"ax",%progbits
 2336              		.align	1
 2337              		.p2align 2,,3
 2338              		.global	RegionKR920NewChannelReq
 2339              		.syntax unified
 2340              		.code	16
 2341              		.thumb_func
 2342              		.fpu softvfp
 2343              		.type	RegionKR920NewChannelReq, %function
 2344              	RegionKR920NewChannelReq:
 2345              	.LFB57:
 744:../../../../../../Middlewares/Third_Party/LoRaWAN/Mac/region/RegionKR920.c ****     uint8_t status = 0x03;
 2346              		.loc 1 744 0
 2347              		.cfi_startproc
 2348              		@ args = 0, pretend = 0, frame = 8
 2349              		@ frame_needed = 0, uses_anonymous_args = 0
 2350              	.LVL198:
 2351 0000 F0B5     		push	{r4, r5, r6, r7, lr}
 2352              	.LCFI24:
 2353              		.cfi_def_cfa_offset 20
 2354              		.cfi_offset 4, -20
 2355              		.cfi_offset 5, -16
 2356              		.cfi_offset 6, -12
 2357              		.cfi_offset 7, -8
 2358              		.cfi_offset 14, -4
 2359 0002 C646     		mov	lr, r8
 2360 0004 00B5     		push	{lr}
 2361              	.LCFI25:
 2362              		.cfi_def_cfa_offset 24
 2363              		.cfi_offset 8, -24
 749:../../../../../../Middlewares/Third_Party/LoRaWAN/Mac/region/RegionKR920.c ****     {
 2364              		.loc 1 749 0
 2365 0006 0468     		ldr	r4, [r0]
 744:../../../../../../Middlewares/Third_Party/LoRaWAN/Mac/region/RegionKR920.c ****     uint8_t status = 0x03;
 2366              		.loc 1 744 0
 2367 0008 82B0     		sub	sp, sp, #8
 2368              	.LCFI26:
 2369              		.cfi_def_cfa_offset 32
 749:../../../../../../Middlewares/Third_Party/LoRaWAN/Mac/region/RegionKR920.c ****     {
 2370              		.loc 1 749 0
 2371 000a 2368     		ldr	r3, [r4]
 2372 000c 0579     		ldrb	r5, [r0, #4]
 2373 000e 002B     		cmp	r3, #0
 2374 0010 06D1     		bne	.L285
 2375              	.LVL199:
 2376              	.LBB107:
 2377              	.LBB108:
 976:../../../../../../Middlewares/Third_Party/LoRaWAN/Mac/region/RegionKR920.c ****     {
 2378              		.loc 1 976 0
 2379 0012 022D     		cmp	r5, #2
ARM GAS  C:\Users\EBANO_~1\AppData\Local\Temp\ccLo4wHn.s 			page 66


 2380 0014 30D8     		bhi	.L304
 2381              	.LVL200:
 2382              	.L286:
 2383              	.LBE108:
 2384              	.LBE107:
 756:../../../../../../Middlewares/Third_Party/LoRaWAN/Mac/region/RegionKR920.c ****         }
 2385              		.loc 1 756 0
 2386 0016 0020     		movs	r0, #0
 2387              	.LVL201:
 2388              	.L299:
 794:../../../../../../Middlewares/Third_Party/LoRaWAN/Mac/region/RegionKR920.c **** 
 2389              		.loc 1 794 0
 2390 0018 02B0     		add	sp, sp, #8
 2391              		@ sp needed
 2392 001a 04BC     		pop	{r2}
 2393 001c 9046     		mov	r8, r2
 2394 001e F0BD     		pop	{r4, r5, r6, r7, pc}
 2395              	.LVL202:
 2396              	.L285:
 2397              	.LBB110:
 2398              	.LBB111:
 919:../../../../../../Middlewares/Third_Party/LoRaWAN/Mac/region/RegionKR920.c ****     {
 2399              		.loc 1 919 0
 2400 0020 EB1E     		subs	r3, r5, #3
 2401 0022 0C2B     		cmp	r3, #12
 2402 0024 F7D8     		bhi	.L286
 930:../../../../../../Middlewares/Third_Party/LoRaWAN/Mac/region/RegionKR920.c ****     {
 2403              		.loc 1 930 0
 2404 0026 207A     		ldrb	r0, [r4, #8]
 2405              	.LVL203:
 2406 0028 0522     		movs	r2, #5
 2407 002a 0007     		lsls	r0, r0, #28
 2408 002c 0021     		movs	r1, #0
 2409 002e 0017     		asrs	r0, r0, #28
 2410 0030 FFF7FEFF 		bl	RegionCommonValueInRange
 2411              	.LVL204:
 2412 0034 0600     		movs	r6, r0
 2413              	.LVL205:
 934:../../../../../../Middlewares/Third_Party/LoRaWAN/Mac/region/RegionKR920.c ****     {
 2414              		.loc 1 934 0
 2415 0036 0820     		movs	r0, #8
 2416 0038 2056     		ldrsb	r0, [r4, r0]
 2417 003a 0522     		movs	r2, #5
 2418 003c 0011     		asrs	r0, r0, #4
 2419 003e 0021     		movs	r1, #0
 2420 0040 FFF7FEFF 		bl	RegionCommonValueInRange
 2421              	.LVL206:
 936:../../../../../../Middlewares/Third_Party/LoRaWAN/Mac/region/RegionKR920.c ****     }
 2422              		.loc 1 936 0
 2423 0044 0127     		movs	r7, #1
 934:../../../../../../Middlewares/Third_Party/LoRaWAN/Mac/region/RegionKR920.c ****     {
 2424              		.loc 1 934 0
 2425 0046 0028     		cmp	r0, #0
 2426 0048 02D0     		beq	.L288
 930:../../../../../../Middlewares/Third_Party/LoRaWAN/Mac/region/RegionKR920.c ****     {
 2427              		.loc 1 930 0
 2428 004a 7742     		rsbs	r7, r6, #0
ARM GAS  C:\Users\EBANO_~1\AppData\Local\Temp\ccLo4wHn.s 			page 67


 2429 004c 7741     		adcs	r7, r7, r6
 2430              	.LVL207:
 2431 004e FFB2     		uxtb	r7, r7
 2432              	.L288:
 2433              	.LVL208:
 2434 0050 2D4B     		ldr	r3, .L306
 2435 0052 2668     		ldr	r6, [r4]
 2436 0054 9B6A     		ldr	r3, [r3, #40]
 2437              	.LBB112:
 2438              	.LBB113:
 123:../../../../../../Middlewares/Third_Party/LoRaWAN/Mac/region/RegionKR920.c ****     {
 2439              		.loc 1 123 0
 2440 0056 3000     		movs	r0, r6
 2441 0058 0193     		str	r3, [sp, #4]
 2442              	.LBE113:
 2443              	.LBE112:
 938:../../../../../../Middlewares/Third_Party/LoRaWAN/Mac/region/RegionKR920.c ****     {
 2444              		.loc 1 938 0
 2445 005a 237A     		ldrb	r3, [r4, #8]
 2446 005c 1A07     		lsls	r2, r3, #28
 2447 005e 5BB2     		sxtb	r3, r3
 2448 0060 1217     		asrs	r2, r2, #28
 2449 0062 1B11     		asrs	r3, r3, #4
 2450 0064 9A42     		cmp	r2, r3
 2451 0066 1BDC     		bgt	.L289
 2452              	.LVL209:
 2453              	.LBB121:
 2454              	.LBB118:
 123:../../../../../../Middlewares/Third_Party/LoRaWAN/Mac/region/RegionKR920.c ****     {
 2455              		.loc 1 123 0
 2456 0068 019B     		ldr	r3, [sp, #4]
 2457 006a 9847     		blx	r3
 2458              	.LVL210:
 2459 006c 0028     		cmp	r0, #0
 2460 006e 27D1     		bne	.L305
 2461              	.L290:
 2462              	.LVL211:
 2463              	.LBE118:
 2464              	.LBE121:
 953:../../../../../../Middlewares/Third_Party/LoRaWAN/Mac/region/RegionKR920.c ****     {
 2465              		.loc 1 953 0
 2466 0070 002F     		cmp	r7, #0
 2467 0072 D0D1     		bne	.L286
 2468              	.LBE111:
 2469              	.LBE110:
 772:../../../../../../Middlewares/Third_Party/LoRaWAN/Mac/region/RegionKR920.c ****                 break;
 2470              		.loc 1 772 0
 2471 0074 0220     		movs	r0, #2
 2472              	.LVL212:
 793:../../../../../../Middlewares/Third_Party/LoRaWAN/Mac/region/RegionKR920.c **** }
 2473              		.loc 1 793 0
 2474 0076 CFE7     		b	.L299
 2475              	.LVL213:
 2476              	.L304:
 2477              	.LBB127:
 2478              	.LBB109:
 982:../../../../../../Middlewares/Third_Party/LoRaWAN/Mac/region/RegionKR920.c **** 
ARM GAS  C:\Users\EBANO_~1\AppData\Local\Temp\ccLo4wHn.s 			page 68


 2479              		.loc 1 982 0
 2480 0078 6800     		lsls	r0, r5, #1
 2481              	.LVL214:
 2482 007a 244C     		ldr	r4, .L306+4
 2483 007c 4019     		adds	r0, r0, r5
 2484 007e 8000     		lsls	r0, r0, #2
 2485 0080 0C22     		movs	r2, #12
 2486 0082 0021     		movs	r1, #0
 2487 0084 2018     		adds	r0, r4, r0
 2488 0086 FFF7FEFF 		bl	memset
 2489              	.LVL215:
 2490              		.loc 1 984 0
 2491 008a 2000     		movs	r0, r4
 2492 008c 1022     		movs	r2, #16
 2493 008e D030     		adds	r0, r0, #208
 2494 0090 2900     		movs	r1, r5
 2495 0092 FFF7FEFF 		bl	RegionCommonChanDisable
 2496              	.LVL216:
 2497 0096 0300     		movs	r3, r0
 2498              	.LVL217:
 2499              	.LBE109:
 2500              	.LBE127:
 745:../../../../../../Middlewares/Third_Party/LoRaWAN/Mac/region/RegionKR920.c ****     ChannelAddParams_t channelAdd;
 2501              		.loc 1 745 0
 2502 0098 0320     		movs	r0, #3
 754:../../../../../../Middlewares/Third_Party/LoRaWAN/Mac/region/RegionKR920.c ****         {
 2503              		.loc 1 754 0
 2504 009a 002B     		cmp	r3, #0
 2505 009c BCD1     		bne	.L299
 2506 009e BAE7     		b	.L286
 2507              	.LVL218:
 2508              	.L289:
 2509              	.LBB128:
 2510              	.LBB124:
 2511              	.LBB122:
 2512              	.LBB119:
 123:../../../../../../Middlewares/Third_Party/LoRaWAN/Mac/region/RegionKR920.c ****     {
 2513              		.loc 1 123 0
 2514 00a0 019B     		ldr	r3, [sp, #4]
 2515 00a2 9847     		blx	r3
 2516              	.LVL219:
 2517 00a4 0028     		cmp	r0, #0
 2518 00a6 B6D0     		beq	.L286
 2519              	.LVL220:
 2520              	.LBB114:
 2521              	.LBB115:
 130:../../../../../../Middlewares/Third_Party/LoRaWAN/Mac/region/RegionKR920.c ****     {
 2522              		.loc 1 130 0
 2523 00a8 194B     		ldr	r3, .L306+8
 2524 00aa F018     		adds	r0, r6, r3
 2525 00ac 194B     		ldr	r3, .L306+12
 2526 00ae 9842     		cmp	r0, r3
 2527 00b0 B1D8     		bhi	.L286
 2528              	.LVL221:
 134:../../../../../../Middlewares/Third_Party/LoRaWAN/Mac/region/RegionKR920.c ****         {
 2529              		.loc 1 134 0
 2530 00b2 1949     		ldr	r1, .L306+16
ARM GAS  C:\Users\EBANO_~1\AppData\Local\Temp\ccLo4wHn.s 			page 69


 2531 00b4 FFF7FEFF 		bl	__aeabi_uidivmod
 2532              	.LVL222:
 2533              	.LBE115:
 2534              	.LBE114:
 2535              	.LBE119:
 2536              	.LBE122:
 2537              	.LBE124:
 2538              	.LBE128:
 777:../../../../../../Middlewares/Third_Party/LoRaWAN/Mac/region/RegionKR920.c ****                 break;
 2539              		.loc 1 777 0
 2540 00b8 0120     		movs	r0, #1
 2541              	.LBB129:
 2542              	.LBB125:
 2543              	.LBB123:
 2544              	.LBB120:
 2545              	.LBB117:
 2546              	.LBB116:
 134:../../../../../../Middlewares/Third_Party/LoRaWAN/Mac/region/RegionKR920.c ****         {
 2547              		.loc 1 134 0
 2548 00ba 0029     		cmp	r1, #0
 2549 00bc ABD1     		bne	.L286
 2550 00be ABE7     		b	.L299
 2551              	.LVL223:
 2552              	.L305:
 130:../../../../../../Middlewares/Third_Party/LoRaWAN/Mac/region/RegionKR920.c ****     {
 2553              		.loc 1 130 0
 2554 00c0 134B     		ldr	r3, .L306+8
 2555 00c2 F018     		adds	r0, r6, r3
 2556 00c4 134B     		ldr	r3, .L306+12
 2557 00c6 9842     		cmp	r0, r3
 2558 00c8 D2D8     		bhi	.L290
 2559              	.LVL224:
 134:../../../../../../Middlewares/Third_Party/LoRaWAN/Mac/region/RegionKR920.c ****         {
 2560              		.loc 1 134 0
 2561 00ca 1349     		ldr	r1, .L306+16
 2562 00cc FFF7FEFF 		bl	__aeabi_uidivmod
 2563              	.LVL225:
 2564 00d0 0029     		cmp	r1, #0
 2565 00d2 CDD1     		bne	.L290
 2566              	.LBE116:
 2567              	.LBE117:
 2568              	.LBE120:
 2569              	.LBE123:
 953:../../../../../../Middlewares/Third_Party/LoRaWAN/Mac/region/RegionKR920.c ****     {
 2570              		.loc 1 953 0
 2571 00d4 002F     		cmp	r7, #0
 2572 00d6 15D1     		bne	.L293
 966:../../../../../../Middlewares/Third_Party/LoRaWAN/Mac/region/RegionKR920.c ****     NvmCtx.Channels[id].Band = 0;
 2573              		.loc 1 966 0
 2574 00d8 0C4B     		ldr	r3, .L306+4
 2575 00da 6E00     		lsls	r6, r5, #1
 2576              	.LVL226:
 2577 00dc 9846     		mov	r8, r3
 2578 00de 7619     		adds	r6, r6, r5
 2579 00e0 B600     		lsls	r6, r6, #2
 2580 00e2 4644     		add	r6, r6, r8
 2581 00e4 0C22     		movs	r2, #12
ARM GAS  C:\Users\EBANO_~1\AppData\Local\Temp\ccLo4wHn.s 			page 70


 2582 00e6 2100     		movs	r1, r4
 2583 00e8 3000     		movs	r0, r6
 2584 00ea FFF7FEFF 		bl	memcpy1
 2585              	.LVL227:
 968:../../../../../../Middlewares/Third_Party/LoRaWAN/Mac/region/RegionKR920.c ****     return LORAMAC_STATUS_OK;
 2586              		.loc 1 968 0
 2587 00ee 0122     		movs	r2, #1
 2588 00f0 D021     		movs	r1, #208
 2589 00f2 4346     		mov	r3, r8
 2590 00f4 AA40     		lsls	r2, r2, r5
 967:../../../../../../Middlewares/Third_Party/LoRaWAN/Mac/region/RegionKR920.c ****     NvmCtx.ChannelsMask[0] |= ( 1 << id );
 2591              		.loc 1 967 0
 2592 00f6 7772     		strb	r7, [r6, #9]
 968:../../../../../../Middlewares/Third_Party/LoRaWAN/Mac/region/RegionKR920.c ****     return LORAMAC_STATUS_OK;
 2593              		.loc 1 968 0
 2594 00f8 5B5A     		ldrh	r3, [r3, r1]
 2595              	.LBE125:
 2596              	.LBE129:
 745:../../../../../../Middlewares/Third_Party/LoRaWAN/Mac/region/RegionKR920.c ****     ChannelAddParams_t channelAdd;
 2597              		.loc 1 745 0
 2598 00fa 0320     		movs	r0, #3
 2599              	.LBB130:
 2600              	.LBB126:
 968:../../../../../../Middlewares/Third_Party/LoRaWAN/Mac/region/RegionKR920.c ****     return LORAMAC_STATUS_OK;
 2601              		.loc 1 968 0
 2602 00fc 1343     		orrs	r3, r2
 2603 00fe 4246     		mov	r2, r8
 2604 0100 5352     		strh	r3, [r2, r1]
 2605              	.LVL228:
 2606 0102 89E7     		b	.L299
 2607              	.LVL229:
 2608              	.L293:
 2609              	.LBE126:
 2610              	.LBE130:
 777:../../../../../../Middlewares/Third_Party/LoRaWAN/Mac/region/RegionKR920.c ****                 break;
 2611              		.loc 1 777 0
 2612 0104 0120     		movs	r0, #1
 2613 0106 87E7     		b	.L299
 2614              	.L307:
 2615              		.align	2
 2616              	.L306:
 2617 0108 00000000 		.word	Radio
 2618 010c 00000000 		.word	NvmCtx
 2619 0110 602E1CC9 		.word	-920900000
 2620 0114 009F2400 		.word	2400000
 2621 0118 400D0300 		.word	200000
 2622              		.cfi_endproc
 2623              	.LFE57:
 2624              		.size	RegionKR920NewChannelReq, .-RegionKR920NewChannelReq
 2625              		.section	.text.RegionKR920TxParamSetupReq,"ax",%progbits
 2626              		.align	1
 2627              		.p2align 2,,3
 2628              		.global	RegionKR920TxParamSetupReq
 2629              		.syntax unified
 2630              		.code	16
 2631              		.thumb_func
 2632              		.fpu softvfp
ARM GAS  C:\Users\EBANO_~1\AppData\Local\Temp\ccLo4wHn.s 			page 71


 2633              		.type	RegionKR920TxParamSetupReq, %function
 2634              	RegionKR920TxParamSetupReq:
 2635              	.LFB58:
