ARM GAS  C:\Users\EBANO_~1\AppData\Local\Temp\ccKJ5gfE.s 			page 1


   1              		.cpu cortex-m0plus
   2              		.eabi_attribute 20, 1
   3              		.eabi_attribute 21, 1
   4              		.eabi_attribute 23, 3
   5              		.eabi_attribute 24, 1
   6              		.eabi_attribute 25, 1
   7              		.eabi_attribute 26, 1
   8              		.eabi_attribute 30, 2
   9              		.eabi_attribute 34, 0
  10              		.eabi_attribute 18, 4
  11              		.file	"RegionCN779.c"
  12              		.text
  13              	.Ltext0:
  14              		.cfi_sections	.debug_frame
  15              		.section	.text.RegionCN779GetPhyParam,"ax",%progbits
  16              		.align	1
  17              		.p2align 2,,3
  18              		.global	RegionCN779GetPhyParam
  19              		.syntax unified
  20              		.code	16
  21              		.thumb_func
  22              		.fpu softvfp
  23              		.type	RegionCN779GetPhyParam, %function
  24              	RegionCN779GetPhyParam:
  25              	.LFB44:
  26              		.file 1 "../../../../../../Middlewares/Third_Party/LoRaWAN/Mac/region/RegionCN779.c"
   1:../../../../../../Middlewares/Third_Party/LoRaWAN/Mac/region/RegionCN779.c **** /*!
   2:../../../../../../Middlewares/Third_Party/LoRaWAN/Mac/region/RegionCN779.c ****  * \file      RegionCN779.c
   3:../../../../../../Middlewares/Third_Party/LoRaWAN/Mac/region/RegionCN779.c ****  *
   4:../../../../../../Middlewares/Third_Party/LoRaWAN/Mac/region/RegionCN779.c ****  * \brief     Region implementation for CN779
   5:../../../../../../Middlewares/Third_Party/LoRaWAN/Mac/region/RegionCN779.c ****  *
   6:../../../../../../Middlewares/Third_Party/LoRaWAN/Mac/region/RegionCN779.c ****  * \copyright Revised BSD License, see section \ref LICENSE.
   7:../../../../../../Middlewares/Third_Party/LoRaWAN/Mac/region/RegionCN779.c ****  *
   8:../../../../../../Middlewares/Third_Party/LoRaWAN/Mac/region/RegionCN779.c ****  * \code
   9:../../../../../../Middlewares/Third_Party/LoRaWAN/Mac/region/RegionCN779.c ****  *                ______                              _
  10:../../../../../../Middlewares/Third_Party/LoRaWAN/Mac/region/RegionCN779.c ****  *               / _____)             _              | |
  11:../../../../../../Middlewares/Third_Party/LoRaWAN/Mac/region/RegionCN779.c ****  *              ( (____  _____ ____ _| |_ _____  ____| |__
  12:../../../../../../Middlewares/Third_Party/LoRaWAN/Mac/region/RegionCN779.c ****  *               \____ \| ___ |    (_   _) ___ |/ ___)  _ \
  13:../../../../../../Middlewares/Third_Party/LoRaWAN/Mac/region/RegionCN779.c ****  *               _____) ) ____| | | || |_| ____( (___| | | |
  14:../../../../../../Middlewares/Third_Party/LoRaWAN/Mac/region/RegionCN779.c ****  *              (______/|_____)_|_|_| \__)_____)\____)_| |_|
  15:../../../../../../Middlewares/Third_Party/LoRaWAN/Mac/region/RegionCN779.c ****  *              (C)2013-2017 Semtech
  16:../../../../../../Middlewares/Third_Party/LoRaWAN/Mac/region/RegionCN779.c ****  *
  17:../../../../../../Middlewares/Third_Party/LoRaWAN/Mac/region/RegionCN779.c ****  *               ___ _____ _   ___ _  _____ ___  ___  ___ ___
  18:../../../../../../Middlewares/Third_Party/LoRaWAN/Mac/region/RegionCN779.c ****  *              / __|_   _/_\ / __| |/ / __/ _ \| _ \/ __| __|
  19:../../../../../../Middlewares/Third_Party/LoRaWAN/Mac/region/RegionCN779.c ****  *              \__ \ | |/ _ \ (__| ' <| _| (_) |   / (__| _|
  20:../../../../../../Middlewares/Third_Party/LoRaWAN/Mac/region/RegionCN779.c ****  *              |___/ |_/_/ \_\___|_|\_\_| \___/|_|_\\___|___|
  21:../../../../../../Middlewares/Third_Party/LoRaWAN/Mac/region/RegionCN779.c ****  *              embedded.connectivity.solutions===============
  22:../../../../../../Middlewares/Third_Party/LoRaWAN/Mac/region/RegionCN779.c ****  *
  23:../../../../../../Middlewares/Third_Party/LoRaWAN/Mac/region/RegionCN779.c ****  * \endcode
  24:../../../../../../Middlewares/Third_Party/LoRaWAN/Mac/region/RegionCN779.c ****  *
  25:../../../../../../Middlewares/Third_Party/LoRaWAN/Mac/region/RegionCN779.c ****  * \author    Miguel Luis ( Semtech )
  26:../../../../../../Middlewares/Third_Party/LoRaWAN/Mac/region/RegionCN779.c ****  *
  27:../../../../../../Middlewares/Third_Party/LoRaWAN/Mac/region/RegionCN779.c ****  * \author    Gregory Cristian ( Semtech )
  28:../../../../../../Middlewares/Third_Party/LoRaWAN/Mac/region/RegionCN779.c ****  *
  29:../../../../../../Middlewares/Third_Party/LoRaWAN/Mac/region/RegionCN779.c ****  * \author    Daniel Jaeckle ( STACKFORCE )
  30:../../../../../../Middlewares/Third_Party/LoRaWAN/Mac/region/RegionCN779.c **** */
  31:../../../../../../Middlewares/Third_Party/LoRaWAN/Mac/region/RegionCN779.c **** #include "utilities.h"
ARM GAS  C:\Users\EBANO_~1\AppData\Local\Temp\ccKJ5gfE.s 			page 2


  32:../../../../../../Middlewares/Third_Party/LoRaWAN/Mac/region/RegionCN779.c **** 
  33:../../../../../../Middlewares/Third_Party/LoRaWAN/Mac/region/RegionCN779.c **** #include "RegionCommon.h"
  34:../../../../../../Middlewares/Third_Party/LoRaWAN/Mac/region/RegionCN779.c **** #include "RegionCN779.h"
  35:../../../../../../Middlewares/Third_Party/LoRaWAN/Mac/region/RegionCN779.c **** #include "util_console.h"
  36:../../../../../../Middlewares/Third_Party/LoRaWAN/Mac/region/RegionCN779.c **** 
  37:../../../../../../Middlewares/Third_Party/LoRaWAN/Mac/region/RegionCN779.c **** // Definitions
  38:../../../../../../Middlewares/Third_Party/LoRaWAN/Mac/region/RegionCN779.c **** #define CHANNELS_MASK_SIZE              1
  39:../../../../../../Middlewares/Third_Party/LoRaWAN/Mac/region/RegionCN779.c **** 
  40:../../../../../../Middlewares/Third_Party/LoRaWAN/Mac/region/RegionCN779.c **** /*!
  41:../../../../../../Middlewares/Third_Party/LoRaWAN/Mac/region/RegionCN779.c ****  * Region specific context
  42:../../../../../../Middlewares/Third_Party/LoRaWAN/Mac/region/RegionCN779.c ****  */
  43:../../../../../../Middlewares/Third_Party/LoRaWAN/Mac/region/RegionCN779.c **** typedef struct sRegionCN779NvmCtx
  44:../../../../../../Middlewares/Third_Party/LoRaWAN/Mac/region/RegionCN779.c **** {
  45:../../../../../../Middlewares/Third_Party/LoRaWAN/Mac/region/RegionCN779.c ****     /*!
  46:../../../../../../Middlewares/Third_Party/LoRaWAN/Mac/region/RegionCN779.c ****      * LoRaMAC channels
  47:../../../../../../Middlewares/Third_Party/LoRaWAN/Mac/region/RegionCN779.c ****      */
  48:../../../../../../Middlewares/Third_Party/LoRaWAN/Mac/region/RegionCN779.c ****     ChannelParams_t Channels[ CN779_MAX_NB_CHANNELS ];
  49:../../../../../../Middlewares/Third_Party/LoRaWAN/Mac/region/RegionCN779.c ****     /*!
  50:../../../../../../Middlewares/Third_Party/LoRaWAN/Mac/region/RegionCN779.c ****      * LoRaMac bands
  51:../../../../../../Middlewares/Third_Party/LoRaWAN/Mac/region/RegionCN779.c ****      */
  52:../../../../../../Middlewares/Third_Party/LoRaWAN/Mac/region/RegionCN779.c ****     Band_t Bands[ CN779_MAX_NB_BANDS ];
  53:../../../../../../Middlewares/Third_Party/LoRaWAN/Mac/region/RegionCN779.c ****     /*!
  54:../../../../../../Middlewares/Third_Party/LoRaWAN/Mac/region/RegionCN779.c ****      * LoRaMac channels mask
  55:../../../../../../Middlewares/Third_Party/LoRaWAN/Mac/region/RegionCN779.c ****      */
  56:../../../../../../Middlewares/Third_Party/LoRaWAN/Mac/region/RegionCN779.c ****     uint16_t ChannelsMask[ CHANNELS_MASK_SIZE ];
  57:../../../../../../Middlewares/Third_Party/LoRaWAN/Mac/region/RegionCN779.c ****     /*!
  58:../../../../../../Middlewares/Third_Party/LoRaWAN/Mac/region/RegionCN779.c ****      * LoRaMac channels default mask
  59:../../../../../../Middlewares/Third_Party/LoRaWAN/Mac/region/RegionCN779.c ****      */
  60:../../../../../../Middlewares/Third_Party/LoRaWAN/Mac/region/RegionCN779.c ****     uint16_t ChannelsDefaultMask[ CHANNELS_MASK_SIZE ];
  61:../../../../../../Middlewares/Third_Party/LoRaWAN/Mac/region/RegionCN779.c **** }RegionCN779NvmCtx_t;
  62:../../../../../../Middlewares/Third_Party/LoRaWAN/Mac/region/RegionCN779.c **** 
  63:../../../../../../Middlewares/Third_Party/LoRaWAN/Mac/region/RegionCN779.c **** /*
  64:../../../../../../Middlewares/Third_Party/LoRaWAN/Mac/region/RegionCN779.c ****  * Non-volatile module context.
  65:../../../../../../Middlewares/Third_Party/LoRaWAN/Mac/region/RegionCN779.c ****  */
  66:../../../../../../Middlewares/Third_Party/LoRaWAN/Mac/region/RegionCN779.c **** static RegionCN779NvmCtx_t NvmCtx;
  67:../../../../../../Middlewares/Third_Party/LoRaWAN/Mac/region/RegionCN779.c **** 
  68:../../../../../../Middlewares/Third_Party/LoRaWAN/Mac/region/RegionCN779.c **** // Static functions
  69:../../../../../../Middlewares/Third_Party/LoRaWAN/Mac/region/RegionCN779.c **** static int8_t GetNextLowerTxDr( int8_t dr, int8_t minDr )
  70:../../../../../../Middlewares/Third_Party/LoRaWAN/Mac/region/RegionCN779.c **** {
  71:../../../../../../Middlewares/Third_Party/LoRaWAN/Mac/region/RegionCN779.c ****     uint8_t nextLowerDr = 0;
  72:../../../../../../Middlewares/Third_Party/LoRaWAN/Mac/region/RegionCN779.c **** 
  73:../../../../../../Middlewares/Third_Party/LoRaWAN/Mac/region/RegionCN779.c ****     if( dr == minDr )
  74:../../../../../../Middlewares/Third_Party/LoRaWAN/Mac/region/RegionCN779.c ****     {
  75:../../../../../../Middlewares/Third_Party/LoRaWAN/Mac/region/RegionCN779.c ****         nextLowerDr = minDr;
  76:../../../../../../Middlewares/Third_Party/LoRaWAN/Mac/region/RegionCN779.c ****     }
  77:../../../../../../Middlewares/Third_Party/LoRaWAN/Mac/region/RegionCN779.c ****     else
  78:../../../../../../Middlewares/Third_Party/LoRaWAN/Mac/region/RegionCN779.c ****     {
  79:../../../../../../Middlewares/Third_Party/LoRaWAN/Mac/region/RegionCN779.c ****         nextLowerDr = dr - 1;
  80:../../../../../../Middlewares/Third_Party/LoRaWAN/Mac/region/RegionCN779.c ****     }
  81:../../../../../../Middlewares/Third_Party/LoRaWAN/Mac/region/RegionCN779.c ****     return nextLowerDr;
  82:../../../../../../Middlewares/Third_Party/LoRaWAN/Mac/region/RegionCN779.c **** }
  83:../../../../../../Middlewares/Third_Party/LoRaWAN/Mac/region/RegionCN779.c **** 
  84:../../../../../../Middlewares/Third_Party/LoRaWAN/Mac/region/RegionCN779.c **** static uint32_t GetBandwidth( uint32_t drIndex )
  85:../../../../../../Middlewares/Third_Party/LoRaWAN/Mac/region/RegionCN779.c **** {
  86:../../../../../../Middlewares/Third_Party/LoRaWAN/Mac/region/RegionCN779.c ****     switch( BandwidthsCN779[drIndex] )
  87:../../../../../../Middlewares/Third_Party/LoRaWAN/Mac/region/RegionCN779.c ****     {
  88:../../../../../../Middlewares/Third_Party/LoRaWAN/Mac/region/RegionCN779.c ****         default:
ARM GAS  C:\Users\EBANO_~1\AppData\Local\Temp\ccKJ5gfE.s 			page 3


  89:../../../../../../Middlewares/Third_Party/LoRaWAN/Mac/region/RegionCN779.c ****         case 125000:
  90:../../../../../../Middlewares/Third_Party/LoRaWAN/Mac/region/RegionCN779.c ****             return 0;
  91:../../../../../../Middlewares/Third_Party/LoRaWAN/Mac/region/RegionCN779.c ****         case 250000:
  92:../../../../../../Middlewares/Third_Party/LoRaWAN/Mac/region/RegionCN779.c ****             return 1;
  93:../../../../../../Middlewares/Third_Party/LoRaWAN/Mac/region/RegionCN779.c ****         case 500000:
  94:../../../../../../Middlewares/Third_Party/LoRaWAN/Mac/region/RegionCN779.c ****             return 2;
  95:../../../../../../Middlewares/Third_Party/LoRaWAN/Mac/region/RegionCN779.c ****     }
  96:../../../../../../Middlewares/Third_Party/LoRaWAN/Mac/region/RegionCN779.c **** }
  97:../../../../../../Middlewares/Third_Party/LoRaWAN/Mac/region/RegionCN779.c **** 
  98:../../../../../../Middlewares/Third_Party/LoRaWAN/Mac/region/RegionCN779.c **** static int8_t LimitTxPower( int8_t txPower, int8_t maxBandTxPower, int8_t datarate, uint16_t* chann
  99:../../../../../../Middlewares/Third_Party/LoRaWAN/Mac/region/RegionCN779.c **** {
 100:../../../../../../Middlewares/Third_Party/LoRaWAN/Mac/region/RegionCN779.c ****     int8_t txPowerResult = txPower;
 101:../../../../../../Middlewares/Third_Party/LoRaWAN/Mac/region/RegionCN779.c **** 
 102:../../../../../../Middlewares/Third_Party/LoRaWAN/Mac/region/RegionCN779.c ****     // Limit tx power to the band max
 103:../../../../../../Middlewares/Third_Party/LoRaWAN/Mac/region/RegionCN779.c ****     txPowerResult =  MAX( txPower, maxBandTxPower );
 104:../../../../../../Middlewares/Third_Party/LoRaWAN/Mac/region/RegionCN779.c **** 
 105:../../../../../../Middlewares/Third_Party/LoRaWAN/Mac/region/RegionCN779.c ****     return txPowerResult;
 106:../../../../../../Middlewares/Third_Party/LoRaWAN/Mac/region/RegionCN779.c **** }
 107:../../../../../../Middlewares/Third_Party/LoRaWAN/Mac/region/RegionCN779.c **** 
 108:../../../../../../Middlewares/Third_Party/LoRaWAN/Mac/region/RegionCN779.c **** static bool VerifyRfFreq( uint32_t freq )
 109:../../../../../../Middlewares/Third_Party/LoRaWAN/Mac/region/RegionCN779.c **** {
 110:../../../../../../Middlewares/Third_Party/LoRaWAN/Mac/region/RegionCN779.c ****     // Check radio driver support
 111:../../../../../../Middlewares/Third_Party/LoRaWAN/Mac/region/RegionCN779.c ****     if( Radio.CheckRfFrequency( freq ) == false )
 112:../../../../../../Middlewares/Third_Party/LoRaWAN/Mac/region/RegionCN779.c ****     {
 113:../../../../../../Middlewares/Third_Party/LoRaWAN/Mac/region/RegionCN779.c ****         return false;
 114:../../../../../../Middlewares/Third_Party/LoRaWAN/Mac/region/RegionCN779.c ****     }
 115:../../../../../../Middlewares/Third_Party/LoRaWAN/Mac/region/RegionCN779.c **** 
 116:../../../../../../Middlewares/Third_Party/LoRaWAN/Mac/region/RegionCN779.c ****     if( ( freq < 779500000 ) || ( freq > 786500000 ) )
 117:../../../../../../Middlewares/Third_Party/LoRaWAN/Mac/region/RegionCN779.c ****     {
 118:../../../../../../Middlewares/Third_Party/LoRaWAN/Mac/region/RegionCN779.c ****         return false;
 119:../../../../../../Middlewares/Third_Party/LoRaWAN/Mac/region/RegionCN779.c ****     }
 120:../../../../../../Middlewares/Third_Party/LoRaWAN/Mac/region/RegionCN779.c ****     return true;
 121:../../../../../../Middlewares/Third_Party/LoRaWAN/Mac/region/RegionCN779.c **** }
 122:../../../../../../Middlewares/Third_Party/LoRaWAN/Mac/region/RegionCN779.c **** 
 123:../../../../../../Middlewares/Third_Party/LoRaWAN/Mac/region/RegionCN779.c **** static uint8_t CountNbOfEnabledChannels( bool joined, uint8_t datarate, uint16_t* channelsMask, Cha
 124:../../../../../../Middlewares/Third_Party/LoRaWAN/Mac/region/RegionCN779.c **** {
 125:../../../../../../Middlewares/Third_Party/LoRaWAN/Mac/region/RegionCN779.c ****     uint8_t nbEnabledChannels = 0;
 126:../../../../../../Middlewares/Third_Party/LoRaWAN/Mac/region/RegionCN779.c ****     uint8_t delayTransmission = 0;
 127:../../../../../../Middlewares/Third_Party/LoRaWAN/Mac/region/RegionCN779.c **** 
 128:../../../../../../Middlewares/Third_Party/LoRaWAN/Mac/region/RegionCN779.c ****     for( uint8_t i = 0, k = 0; i < CN779_MAX_NB_CHANNELS; i += 16, k++ )
 129:../../../../../../Middlewares/Third_Party/LoRaWAN/Mac/region/RegionCN779.c ****     {
 130:../../../../../../Middlewares/Third_Party/LoRaWAN/Mac/region/RegionCN779.c ****         for( uint8_t j = 0; j < 16; j++ )
 131:../../../../../../Middlewares/Third_Party/LoRaWAN/Mac/region/RegionCN779.c ****         {
 132:../../../../../../Middlewares/Third_Party/LoRaWAN/Mac/region/RegionCN779.c ****             if( ( channelsMask[k] & ( 1 << j ) ) != 0 )
 133:../../../../../../Middlewares/Third_Party/LoRaWAN/Mac/region/RegionCN779.c ****             {
 134:../../../../../../Middlewares/Third_Party/LoRaWAN/Mac/region/RegionCN779.c ****                 if( channels[i + j].Frequency == 0 )
 135:../../../../../../Middlewares/Third_Party/LoRaWAN/Mac/region/RegionCN779.c ****                 { // Check if the channel is enabled
 136:../../../../../../Middlewares/Third_Party/LoRaWAN/Mac/region/RegionCN779.c ****                     continue;
 137:../../../../../../Middlewares/Third_Party/LoRaWAN/Mac/region/RegionCN779.c ****                 }
 138:../../../../../../Middlewares/Third_Party/LoRaWAN/Mac/region/RegionCN779.c ****                 if( joined == false )
 139:../../../../../../Middlewares/Third_Party/LoRaWAN/Mac/region/RegionCN779.c ****                 {
 140:../../../../../../Middlewares/Third_Party/LoRaWAN/Mac/region/RegionCN779.c ****                     if( ( CN779_JOIN_CHANNELS & ( 1 << j ) ) == 0 )
 141:../../../../../../Middlewares/Third_Party/LoRaWAN/Mac/region/RegionCN779.c ****                     {
 142:../../../../../../Middlewares/Third_Party/LoRaWAN/Mac/region/RegionCN779.c ****                         continue;
 143:../../../../../../Middlewares/Third_Party/LoRaWAN/Mac/region/RegionCN779.c ****                     }
 144:../../../../../../Middlewares/Third_Party/LoRaWAN/Mac/region/RegionCN779.c ****                 }
 145:../../../../../../Middlewares/Third_Party/LoRaWAN/Mac/region/RegionCN779.c ****                 if( RegionCommonValueInRange( datarate, channels[i + j].DrRange.Fields.Min,
ARM GAS  C:\Users\EBANO_~1\AppData\Local\Temp\ccKJ5gfE.s 			page 4


 146:../../../../../../Middlewares/Third_Party/LoRaWAN/Mac/region/RegionCN779.c ****                                               channels[i + j].DrRange.Fields.Max ) == false )
 147:../../../../../../Middlewares/Third_Party/LoRaWAN/Mac/region/RegionCN779.c ****                 { // Check if the current channel selection supports the given datarate
 148:../../../../../../Middlewares/Third_Party/LoRaWAN/Mac/region/RegionCN779.c ****                     continue;
 149:../../../../../../Middlewares/Third_Party/LoRaWAN/Mac/region/RegionCN779.c ****                 }
 150:../../../../../../Middlewares/Third_Party/LoRaWAN/Mac/region/RegionCN779.c ****                 if( bands[channels[i + j].Band].TimeOff > 0 )
 151:../../../../../../Middlewares/Third_Party/LoRaWAN/Mac/region/RegionCN779.c ****                 { // Check if the band is available for transmission
 152:../../../../../../Middlewares/Third_Party/LoRaWAN/Mac/region/RegionCN779.c ****                     delayTransmission++;
 153:../../../../../../Middlewares/Third_Party/LoRaWAN/Mac/region/RegionCN779.c ****                     continue;
 154:../../../../../../Middlewares/Third_Party/LoRaWAN/Mac/region/RegionCN779.c ****                 }
 155:../../../../../../Middlewares/Third_Party/LoRaWAN/Mac/region/RegionCN779.c ****                 enabledChannels[nbEnabledChannels++] = i + j;
 156:../../../../../../Middlewares/Third_Party/LoRaWAN/Mac/region/RegionCN779.c ****             }
 157:../../../../../../Middlewares/Third_Party/LoRaWAN/Mac/region/RegionCN779.c ****         }
 158:../../../../../../Middlewares/Third_Party/LoRaWAN/Mac/region/RegionCN779.c ****     }
 159:../../../../../../Middlewares/Third_Party/LoRaWAN/Mac/region/RegionCN779.c **** 
 160:../../../../../../Middlewares/Third_Party/LoRaWAN/Mac/region/RegionCN779.c ****     *delayTx = delayTransmission;
 161:../../../../../../Middlewares/Third_Party/LoRaWAN/Mac/region/RegionCN779.c ****     return nbEnabledChannels;
 162:../../../../../../Middlewares/Third_Party/LoRaWAN/Mac/region/RegionCN779.c **** }
 163:../../../../../../Middlewares/Third_Party/LoRaWAN/Mac/region/RegionCN779.c **** 
 164:../../../../../../Middlewares/Third_Party/LoRaWAN/Mac/region/RegionCN779.c **** PhyParam_t RegionCN779GetPhyParam( GetPhyParams_t* getPhy )
 165:../../../../../../Middlewares/Third_Party/LoRaWAN/Mac/region/RegionCN779.c **** {
  27              		.loc 1 165 0
  28              		.cfi_startproc
  29              		@ args = 0, pretend = 0, frame = 8
  30              		@ frame_needed = 0, uses_anonymous_args = 0
  31              	.LVL0:
 166:../../../../../../Middlewares/Third_Party/LoRaWAN/Mac/region/RegionCN779.c ****     PhyParam_t phyParam = { 0 };
  32              		.loc 1 166 0
  33 0000 0023     		movs	r3, #0
 165:../../../../../../Middlewares/Third_Party/LoRaWAN/Mac/region/RegionCN779.c ****     PhyParam_t phyParam = { 0 };
  34              		.loc 1 165 0
  35 0002 00B5     		push	{lr}
  36              	.LCFI0:
  37              		.cfi_def_cfa_offset 4
  38              		.cfi_offset 14, -4
  39 0004 83B0     		sub	sp, sp, #12
  40              	.LCFI1:
  41              		.cfi_def_cfa_offset 16
  42              		.loc 1 166 0
  43 0006 0093     		str	r3, [sp]
 167:../../../../../../Middlewares/Third_Party/LoRaWAN/Mac/region/RegionCN779.c **** 
 168:../../../../../../Middlewares/Third_Party/LoRaWAN/Mac/region/RegionCN779.c ****     switch( getPhy->Attribute )
  44              		.loc 1 168 0
  45 0008 0378     		ldrb	r3, [r0]
  46 000a 0A3B     		subs	r3, r3, #10
  47 000c DBB2     		uxtb	r3, r3
  48 000e 2A2B     		cmp	r3, #42
  49 0010 05D8     		bhi	.L2
  50 0012 324A     		ldr	r2, .L31
  51 0014 9B00     		lsls	r3, r3, #2
  52 0016 D358     		ldr	r3, [r2, r3]
  53 0018 9F46     		mov	pc, r3
  54              		.section	.rodata
  55              		.align	2
  56              	.L4:
  57 0000 BC000000 		.word	.L3
  58 0004 B6000000 		.word	.L5
  59 0008 AA000000 		.word	.L6
ARM GAS  C:\Users\EBANO_~1\AppData\Local\Temp\ccKJ5gfE.s 			page 5


  60 000c 9C000000 		.word	.L7
  61 0010 96000000 		.word	.L8
  62 0014 90000000 		.word	.L9
  63 0018 88000000 		.word	.L10
  64 001c 80000000 		.word	.L11
  65 0020 7A000000 		.word	.L12
  66 0024 74000000 		.word	.L13
  67 0028 6C000000 		.word	.L14
  68 002c 56000000 		.word	.L15
  69 0030 1E000000 		.word	.L2
  70 0034 4A000000 		.word	.L16
  71 0038 1E000000 		.word	.L2
  72 003c 3E000000 		.word	.L17
  73 0040 38000000 		.word	.L18
  74 0044 1A000000 		.word	.L19
  75 0048 32000000 		.word	.L20
  76 004c 1E000000 		.word	.L2
  77 0050 1E000000 		.word	.L2
  78 0054 44000000 		.word	.L21
  79 0058 50000000 		.word	.L22
  80 005c C2000000 		.word	.L23
  81 0060 1E000000 		.word	.L2
  82 0064 1E000000 		.word	.L2
  83 0068 1E000000 		.word	.L2
  84 006c 1E000000 		.word	.L2
  85 0070 1E000000 		.word	.L2
  86 0074 1E000000 		.word	.L2
  87 0078 1E000000 		.word	.L2
  88 007c 1E000000 		.word	.L2
  89 0080 1E000000 		.word	.L2
  90 0084 1E000000 		.word	.L2
  91 0088 1E000000 		.word	.L2
  92 008c 1E000000 		.word	.L2
  93 0090 1E000000 		.word	.L2
  94 0094 D4000000 		.word	.L24
  95 0098 2A000000 		.word	.L25
  96 009c 24000000 		.word	.L26
  97 00a0 1E000000 		.word	.L2
  98 00a4 1E000000 		.word	.L2
  99 00a8 24000000 		.word	.L26
 100              		.section	.text.RegionCN779GetPhyParam
 101              	.L19:
 169:../../../../../../Middlewares/Third_Party/LoRaWAN/Mac/region/RegionCN779.c ****     {
 170:../../../../../../Middlewares/Third_Party/LoRaWAN/Mac/region/RegionCN779.c ****         case PHY_MIN_RX_DR:
 171:../../../../../../Middlewares/Third_Party/LoRaWAN/Mac/region/RegionCN779.c ****         {
 172:../../../../../../Middlewares/Third_Party/LoRaWAN/Mac/region/RegionCN779.c ****             phyParam.Value = CN779_RX_MIN_DATARATE;
 173:../../../../../../Middlewares/Third_Party/LoRaWAN/Mac/region/RegionCN779.c ****             break;
 174:../../../../../../Middlewares/Third_Party/LoRaWAN/Mac/region/RegionCN779.c ****         }
 175:../../../../../../Middlewares/Third_Party/LoRaWAN/Mac/region/RegionCN779.c ****         case PHY_MIN_TX_DR:
 176:../../../../../../Middlewares/Third_Party/LoRaWAN/Mac/region/RegionCN779.c ****         {
 177:../../../../../../Middlewares/Third_Party/LoRaWAN/Mac/region/RegionCN779.c ****             phyParam.Value = CN779_TX_MIN_DATARATE;
 178:../../../../../../Middlewares/Third_Party/LoRaWAN/Mac/region/RegionCN779.c ****             break;
 179:../../../../../../Middlewares/Third_Party/LoRaWAN/Mac/region/RegionCN779.c ****         }
 180:../../../../../../Middlewares/Third_Party/LoRaWAN/Mac/region/RegionCN779.c ****         case PHY_DEF_TX_DR:
 181:../../../../../../Middlewares/Third_Party/LoRaWAN/Mac/region/RegionCN779.c ****         {
 182:../../../../../../Middlewares/Third_Party/LoRaWAN/Mac/region/RegionCN779.c ****             phyParam.Value = CN779_DEFAULT_DATARATE;
 183:../../../../../../Middlewares/Third_Party/LoRaWAN/Mac/region/RegionCN779.c ****             break;
ARM GAS  C:\Users\EBANO_~1\AppData\Local\Temp\ccKJ5gfE.s 			page 6


 184:../../../../../../Middlewares/Third_Party/LoRaWAN/Mac/region/RegionCN779.c ****         }
 185:../../../../../../Middlewares/Third_Party/LoRaWAN/Mac/region/RegionCN779.c ****         case PHY_NEXT_LOWER_TX_DR:
 186:../../../../../../Middlewares/Third_Party/LoRaWAN/Mac/region/RegionCN779.c ****         {
 187:../../../../../../Middlewares/Third_Party/LoRaWAN/Mac/region/RegionCN779.c ****             phyParam.Value = GetNextLowerTxDr( getPhy->Datarate, CN779_TX_MIN_DATARATE );
 188:../../../../../../Middlewares/Third_Party/LoRaWAN/Mac/region/RegionCN779.c ****             break;
 189:../../../../../../Middlewares/Third_Party/LoRaWAN/Mac/region/RegionCN779.c ****         }
 190:../../../../../../Middlewares/Third_Party/LoRaWAN/Mac/region/RegionCN779.c ****         case PHY_MAX_TX_POWER:
 191:../../../../../../Middlewares/Third_Party/LoRaWAN/Mac/region/RegionCN779.c ****         {
 192:../../../../../../Middlewares/Third_Party/LoRaWAN/Mac/region/RegionCN779.c ****             phyParam.Value = CN779_MAX_TX_POWER;
 193:../../../../../../Middlewares/Third_Party/LoRaWAN/Mac/region/RegionCN779.c ****             break;
 194:../../../../../../Middlewares/Third_Party/LoRaWAN/Mac/region/RegionCN779.c ****         }
 195:../../../../../../Middlewares/Third_Party/LoRaWAN/Mac/region/RegionCN779.c ****         case PHY_DEF_TX_POWER:
 196:../../../../../../Middlewares/Third_Party/LoRaWAN/Mac/region/RegionCN779.c ****         {
 197:../../../../../../Middlewares/Third_Party/LoRaWAN/Mac/region/RegionCN779.c ****             phyParam.Value = CN779_DEFAULT_TX_POWER;
 198:../../../../../../Middlewares/Third_Party/LoRaWAN/Mac/region/RegionCN779.c ****             break;
 199:../../../../../../Middlewares/Third_Party/LoRaWAN/Mac/region/RegionCN779.c ****         }
 200:../../../../../../Middlewares/Third_Party/LoRaWAN/Mac/region/RegionCN779.c ****         case PHY_DEF_ADR_ACK_LIMIT:
 201:../../../../../../Middlewares/Third_Party/LoRaWAN/Mac/region/RegionCN779.c ****         {
 202:../../../../../../Middlewares/Third_Party/LoRaWAN/Mac/region/RegionCN779.c ****             phyParam.Value = CN779_ADR_ACK_LIMIT;
 203:../../../../../../Middlewares/Third_Party/LoRaWAN/Mac/region/RegionCN779.c ****             break;
 204:../../../../../../Middlewares/Third_Party/LoRaWAN/Mac/region/RegionCN779.c ****         }
 205:../../../../../../Middlewares/Third_Party/LoRaWAN/Mac/region/RegionCN779.c ****         case PHY_DEF_ADR_ACK_DELAY:
 206:../../../../../../Middlewares/Third_Party/LoRaWAN/Mac/region/RegionCN779.c ****         {
 207:../../../../../../Middlewares/Third_Party/LoRaWAN/Mac/region/RegionCN779.c ****             phyParam.Value = CN779_ADR_ACK_DELAY;
 208:../../../../../../Middlewares/Third_Party/LoRaWAN/Mac/region/RegionCN779.c ****             break;
 209:../../../../../../Middlewares/Third_Party/LoRaWAN/Mac/region/RegionCN779.c ****         }
 210:../../../../../../Middlewares/Third_Party/LoRaWAN/Mac/region/RegionCN779.c ****         case PHY_MAX_PAYLOAD:
 211:../../../../../../Middlewares/Third_Party/LoRaWAN/Mac/region/RegionCN779.c ****         {
 212:../../../../../../Middlewares/Third_Party/LoRaWAN/Mac/region/RegionCN779.c ****             phyParam.Value = MaxPayloadOfDatarateCN779[getPhy->Datarate];
 213:../../../../../../Middlewares/Third_Party/LoRaWAN/Mac/region/RegionCN779.c ****             break;
 214:../../../../../../Middlewares/Third_Party/LoRaWAN/Mac/region/RegionCN779.c ****         }
 215:../../../../../../Middlewares/Third_Party/LoRaWAN/Mac/region/RegionCN779.c ****         case PHY_MAX_PAYLOAD_REPEATER:
 216:../../../../../../Middlewares/Third_Party/LoRaWAN/Mac/region/RegionCN779.c ****         {
 217:../../../../../../Middlewares/Third_Party/LoRaWAN/Mac/region/RegionCN779.c ****             phyParam.Value = MaxPayloadOfDatarateRepeaterCN779[getPhy->Datarate];
 218:../../../../../../Middlewares/Third_Party/LoRaWAN/Mac/region/RegionCN779.c ****             break;
 219:../../../../../../Middlewares/Third_Party/LoRaWAN/Mac/region/RegionCN779.c ****         }
 220:../../../../../../Middlewares/Third_Party/LoRaWAN/Mac/region/RegionCN779.c ****         case PHY_DUTY_CYCLE:
 221:../../../../../../Middlewares/Third_Party/LoRaWAN/Mac/region/RegionCN779.c ****         {
 222:../../../../../../Middlewares/Third_Party/LoRaWAN/Mac/region/RegionCN779.c ****             phyParam.Value = CN779_DUTY_CYCLE_ENABLED;
 223:../../../../../../Middlewares/Third_Party/LoRaWAN/Mac/region/RegionCN779.c ****             break;
 224:../../../../../../Middlewares/Third_Party/LoRaWAN/Mac/region/RegionCN779.c ****         }
 225:../../../../../../Middlewares/Third_Party/LoRaWAN/Mac/region/RegionCN779.c ****         case PHY_MAX_RX_WINDOW:
 226:../../../../../../Middlewares/Third_Party/LoRaWAN/Mac/region/RegionCN779.c ****         {
 227:../../../../../../Middlewares/Third_Party/LoRaWAN/Mac/region/RegionCN779.c ****             phyParam.Value = CN779_MAX_RX_WINDOW;
 228:../../../../../../Middlewares/Third_Party/LoRaWAN/Mac/region/RegionCN779.c ****             break;
 229:../../../../../../Middlewares/Third_Party/LoRaWAN/Mac/region/RegionCN779.c ****         }
 230:../../../../../../Middlewares/Third_Party/LoRaWAN/Mac/region/RegionCN779.c ****         case PHY_RECEIVE_DELAY1:
 231:../../../../../../Middlewares/Third_Party/LoRaWAN/Mac/region/RegionCN779.c ****         {
 232:../../../../../../Middlewares/Third_Party/LoRaWAN/Mac/region/RegionCN779.c ****             phyParam.Value = CN779_RECEIVE_DELAY1;
 233:../../../../../../Middlewares/Third_Party/LoRaWAN/Mac/region/RegionCN779.c ****             break;
 234:../../../../../../Middlewares/Third_Party/LoRaWAN/Mac/region/RegionCN779.c ****         }
 235:../../../../../../Middlewares/Third_Party/LoRaWAN/Mac/region/RegionCN779.c ****         case PHY_RECEIVE_DELAY2:
 236:../../../../../../Middlewares/Third_Party/LoRaWAN/Mac/region/RegionCN779.c ****         {
 237:../../../../../../Middlewares/Third_Party/LoRaWAN/Mac/region/RegionCN779.c ****             phyParam.Value = CN779_RECEIVE_DELAY2;
 238:../../../../../../Middlewares/Third_Party/LoRaWAN/Mac/region/RegionCN779.c ****             break;
 239:../../../../../../Middlewares/Third_Party/LoRaWAN/Mac/region/RegionCN779.c ****         }
 240:../../../../../../Middlewares/Third_Party/LoRaWAN/Mac/region/RegionCN779.c ****         case PHY_JOIN_ACCEPT_DELAY1:
ARM GAS  C:\Users\EBANO_~1\AppData\Local\Temp\ccKJ5gfE.s 			page 7


 241:../../../../../../Middlewares/Third_Party/LoRaWAN/Mac/region/RegionCN779.c ****         {
 242:../../../../../../Middlewares/Third_Party/LoRaWAN/Mac/region/RegionCN779.c ****             phyParam.Value = CN779_JOIN_ACCEPT_DELAY1;
 243:../../../../../../Middlewares/Third_Party/LoRaWAN/Mac/region/RegionCN779.c ****             break;
 244:../../../../../../Middlewares/Third_Party/LoRaWAN/Mac/region/RegionCN779.c ****         }
 245:../../../../../../Middlewares/Third_Party/LoRaWAN/Mac/region/RegionCN779.c ****         case PHY_JOIN_ACCEPT_DELAY2:
 246:../../../../../../Middlewares/Third_Party/LoRaWAN/Mac/region/RegionCN779.c ****         {
 247:../../../../../../Middlewares/Third_Party/LoRaWAN/Mac/region/RegionCN779.c ****             phyParam.Value = CN779_JOIN_ACCEPT_DELAY2;
 248:../../../../../../Middlewares/Third_Party/LoRaWAN/Mac/region/RegionCN779.c ****             break;
 249:../../../../../../Middlewares/Third_Party/LoRaWAN/Mac/region/RegionCN779.c ****         }
 250:../../../../../../Middlewares/Third_Party/LoRaWAN/Mac/region/RegionCN779.c ****         case PHY_MAX_FCNT_GAP:
 251:../../../../../../Middlewares/Third_Party/LoRaWAN/Mac/region/RegionCN779.c ****         {
 252:../../../../../../Middlewares/Third_Party/LoRaWAN/Mac/region/RegionCN779.c ****             phyParam.Value = CN779_MAX_FCNT_GAP;
 253:../../../../../../Middlewares/Third_Party/LoRaWAN/Mac/region/RegionCN779.c ****             break;
 254:../../../../../../Middlewares/Third_Party/LoRaWAN/Mac/region/RegionCN779.c ****         }
 255:../../../../../../Middlewares/Third_Party/LoRaWAN/Mac/region/RegionCN779.c ****         case PHY_ACK_TIMEOUT:
 256:../../../../../../Middlewares/Third_Party/LoRaWAN/Mac/region/RegionCN779.c ****         {
 257:../../../../../../Middlewares/Third_Party/LoRaWAN/Mac/region/RegionCN779.c ****             phyParam.Value = ( CN779_ACKTIMEOUT + randr( -CN779_ACK_TIMEOUT_RND, CN779_ACK_TIMEOUT_
 258:../../../../../../Middlewares/Third_Party/LoRaWAN/Mac/region/RegionCN779.c ****             break;
 259:../../../../../../Middlewares/Third_Party/LoRaWAN/Mac/region/RegionCN779.c ****         }
 260:../../../../../../Middlewares/Third_Party/LoRaWAN/Mac/region/RegionCN779.c ****         case PHY_DEF_DR1_OFFSET:
 261:../../../../../../Middlewares/Third_Party/LoRaWAN/Mac/region/RegionCN779.c ****         {
 262:../../../../../../Middlewares/Third_Party/LoRaWAN/Mac/region/RegionCN779.c ****             phyParam.Value = CN779_DEFAULT_RX1_DR_OFFSET;
 263:../../../../../../Middlewares/Third_Party/LoRaWAN/Mac/region/RegionCN779.c ****             break;
 264:../../../../../../Middlewares/Third_Party/LoRaWAN/Mac/region/RegionCN779.c ****         }
 265:../../../../../../Middlewares/Third_Party/LoRaWAN/Mac/region/RegionCN779.c ****         case PHY_DEF_RX2_FREQUENCY:
 266:../../../../../../Middlewares/Third_Party/LoRaWAN/Mac/region/RegionCN779.c ****         {
 267:../../../../../../Middlewares/Third_Party/LoRaWAN/Mac/region/RegionCN779.c ****             phyParam.Value = CN779_RX_WND_2_FREQ;
 268:../../../../../../Middlewares/Third_Party/LoRaWAN/Mac/region/RegionCN779.c ****             break;
 269:../../../../../../Middlewares/Third_Party/LoRaWAN/Mac/region/RegionCN779.c ****         }
 270:../../../../../../Middlewares/Third_Party/LoRaWAN/Mac/region/RegionCN779.c ****         case PHY_DEF_RX2_DR:
 271:../../../../../../Middlewares/Third_Party/LoRaWAN/Mac/region/RegionCN779.c ****         {
 272:../../../../../../Middlewares/Third_Party/LoRaWAN/Mac/region/RegionCN779.c ****             phyParam.Value = CN779_RX_WND_2_DR;
 273:../../../../../../Middlewares/Third_Party/LoRaWAN/Mac/region/RegionCN779.c ****             break;
 274:../../../../../../Middlewares/Third_Party/LoRaWAN/Mac/region/RegionCN779.c ****         }
 275:../../../../../../Middlewares/Third_Party/LoRaWAN/Mac/region/RegionCN779.c ****         case PHY_CHANNELS_MASK:
 276:../../../../../../Middlewares/Third_Party/LoRaWAN/Mac/region/RegionCN779.c ****         {
 277:../../../../../../Middlewares/Third_Party/LoRaWAN/Mac/region/RegionCN779.c ****             phyParam.ChannelsMask = NvmCtx.ChannelsMask;
 278:../../../../../../Middlewares/Third_Party/LoRaWAN/Mac/region/RegionCN779.c ****             break;
 279:../../../../../../Middlewares/Third_Party/LoRaWAN/Mac/region/RegionCN779.c ****         }
 280:../../../../../../Middlewares/Third_Party/LoRaWAN/Mac/region/RegionCN779.c ****         case PHY_CHANNELS_DEFAULT_MASK:
 281:../../../../../../Middlewares/Third_Party/LoRaWAN/Mac/region/RegionCN779.c ****         {
 282:../../../../../../Middlewares/Third_Party/LoRaWAN/Mac/region/RegionCN779.c ****             phyParam.ChannelsMask = NvmCtx.ChannelsDefaultMask;
 283:../../../../../../Middlewares/Third_Party/LoRaWAN/Mac/region/RegionCN779.c ****             break;
 284:../../../../../../Middlewares/Third_Party/LoRaWAN/Mac/region/RegionCN779.c ****         }
 285:../../../../../../Middlewares/Third_Party/LoRaWAN/Mac/region/RegionCN779.c ****         case PHY_MAX_NB_CHANNELS:
 286:../../../../../../Middlewares/Third_Party/LoRaWAN/Mac/region/RegionCN779.c ****         {
 287:../../../../../../Middlewares/Third_Party/LoRaWAN/Mac/region/RegionCN779.c ****             phyParam.Value = CN779_MAX_NB_CHANNELS;
 102              		.loc 1 287 0
 103 001a 1023     		movs	r3, #16
 104 001c 0093     		str	r3, [sp]
 105              	.LVL1:
 106              	.L2:
 288:../../../../../../Middlewares/Third_Party/LoRaWAN/Mac/region/RegionCN779.c ****             break;
 289:../../../../../../Middlewares/Third_Party/LoRaWAN/Mac/region/RegionCN779.c ****         }
 290:../../../../../../Middlewares/Third_Party/LoRaWAN/Mac/region/RegionCN779.c ****         case PHY_CHANNELS:
 291:../../../../../../Middlewares/Third_Party/LoRaWAN/Mac/region/RegionCN779.c ****         {
 292:../../../../../../Middlewares/Third_Party/LoRaWAN/Mac/region/RegionCN779.c ****             phyParam.Channels = NvmCtx.Channels;
ARM GAS  C:\Users\EBANO_~1\AppData\Local\Temp\ccKJ5gfE.s 			page 8


 293:../../../../../../Middlewares/Third_Party/LoRaWAN/Mac/region/RegionCN779.c ****             break;
 294:../../../../../../Middlewares/Third_Party/LoRaWAN/Mac/region/RegionCN779.c ****         }
 295:../../../../../../Middlewares/Third_Party/LoRaWAN/Mac/region/RegionCN779.c ****         case PHY_DEF_UPLINK_DWELL_TIME:
 296:../../../../../../Middlewares/Third_Party/LoRaWAN/Mac/region/RegionCN779.c ****         case PHY_DEF_DOWNLINK_DWELL_TIME:
 297:../../../../../../Middlewares/Third_Party/LoRaWAN/Mac/region/RegionCN779.c ****         {
 298:../../../../../../Middlewares/Third_Party/LoRaWAN/Mac/region/RegionCN779.c ****             phyParam.Value = 0;
 299:../../../../../../Middlewares/Third_Party/LoRaWAN/Mac/region/RegionCN779.c ****             break;
 300:../../../../../../Middlewares/Third_Party/LoRaWAN/Mac/region/RegionCN779.c ****         }
 301:../../../../../../Middlewares/Third_Party/LoRaWAN/Mac/region/RegionCN779.c ****         case PHY_DEF_MAX_EIRP:
 302:../../../../../../Middlewares/Third_Party/LoRaWAN/Mac/region/RegionCN779.c ****         {
 303:../../../../../../Middlewares/Third_Party/LoRaWAN/Mac/region/RegionCN779.c ****             phyParam.fValue = CN779_DEFAULT_MAX_EIRP;
 304:../../../../../../Middlewares/Third_Party/LoRaWAN/Mac/region/RegionCN779.c ****             break;
 305:../../../../../../Middlewares/Third_Party/LoRaWAN/Mac/region/RegionCN779.c ****         }
 306:../../../../../../Middlewares/Third_Party/LoRaWAN/Mac/region/RegionCN779.c ****         case PHY_DEF_ANTENNA_GAIN:
 307:../../../../../../Middlewares/Third_Party/LoRaWAN/Mac/region/RegionCN779.c ****         {
 308:../../../../../../Middlewares/Third_Party/LoRaWAN/Mac/region/RegionCN779.c ****             phyParam.fValue = CN779_DEFAULT_ANTENNA_GAIN;
 309:../../../../../../Middlewares/Third_Party/LoRaWAN/Mac/region/RegionCN779.c ****             break;
 310:../../../../../../Middlewares/Third_Party/LoRaWAN/Mac/region/RegionCN779.c ****         }
 311:../../../../../../Middlewares/Third_Party/LoRaWAN/Mac/region/RegionCN779.c ****         case PHY_BEACON_CHANNEL_FREQ:
 312:../../../../../../Middlewares/Third_Party/LoRaWAN/Mac/region/RegionCN779.c ****         {
 313:../../../../../../Middlewares/Third_Party/LoRaWAN/Mac/region/RegionCN779.c ****             phyParam.Value = CN779_BEACON_CHANNEL_FREQ;
 314:../../../../../../Middlewares/Third_Party/LoRaWAN/Mac/region/RegionCN779.c ****             break;
 315:../../../../../../Middlewares/Third_Party/LoRaWAN/Mac/region/RegionCN779.c ****         }
 316:../../../../../../Middlewares/Third_Party/LoRaWAN/Mac/region/RegionCN779.c ****         case PHY_BEACON_FORMAT:
 317:../../../../../../Middlewares/Third_Party/LoRaWAN/Mac/region/RegionCN779.c ****         {
 318:../../../../../../Middlewares/Third_Party/LoRaWAN/Mac/region/RegionCN779.c ****             phyParam.BeaconFormat.BeaconSize = CN779_BEACON_SIZE;
 319:../../../../../../Middlewares/Third_Party/LoRaWAN/Mac/region/RegionCN779.c ****             phyParam.BeaconFormat.Rfu1Size = CN779_RFU1_SIZE;
 320:../../../../../../Middlewares/Third_Party/LoRaWAN/Mac/region/RegionCN779.c ****             phyParam.BeaconFormat.Rfu2Size = CN779_RFU2_SIZE;
 321:../../../../../../Middlewares/Third_Party/LoRaWAN/Mac/region/RegionCN779.c ****             break;
 322:../../../../../../Middlewares/Third_Party/LoRaWAN/Mac/region/RegionCN779.c ****         }
 323:../../../../../../Middlewares/Third_Party/LoRaWAN/Mac/region/RegionCN779.c ****         case PHY_BEACON_CHANNEL_DR:
 324:../../../../../../Middlewares/Third_Party/LoRaWAN/Mac/region/RegionCN779.c ****         {
 325:../../../../../../Middlewares/Third_Party/LoRaWAN/Mac/region/RegionCN779.c ****             phyParam.Value = CN779_BEACON_CHANNEL_DR;
 326:../../../../../../Middlewares/Third_Party/LoRaWAN/Mac/region/RegionCN779.c ****             break;
 327:../../../../../../Middlewares/Third_Party/LoRaWAN/Mac/region/RegionCN779.c ****         }
 328:../../../../../../Middlewares/Third_Party/LoRaWAN/Mac/region/RegionCN779.c ****         case PHY_PING_SLOT_CHANNEL_DR:
 329:../../../../../../Middlewares/Third_Party/LoRaWAN/Mac/region/RegionCN779.c ****         {
 330:../../../../../../Middlewares/Third_Party/LoRaWAN/Mac/region/RegionCN779.c ****             phyParam.Value = CN779_PING_SLOT_CHANNEL_DR;
 331:../../../../../../Middlewares/Third_Party/LoRaWAN/Mac/region/RegionCN779.c ****             break;
 332:../../../../../../Middlewares/Third_Party/LoRaWAN/Mac/region/RegionCN779.c ****         }
 333:../../../../../../Middlewares/Third_Party/LoRaWAN/Mac/region/RegionCN779.c ****         default:
 334:../../../../../../Middlewares/Third_Party/LoRaWAN/Mac/region/RegionCN779.c ****         {
 335:../../../../../../Middlewares/Third_Party/LoRaWAN/Mac/region/RegionCN779.c ****             break;
 336:../../../../../../Middlewares/Third_Party/LoRaWAN/Mac/region/RegionCN779.c ****         }
 337:../../../../../../Middlewares/Third_Party/LoRaWAN/Mac/region/RegionCN779.c ****     }
 338:../../../../../../Middlewares/Third_Party/LoRaWAN/Mac/region/RegionCN779.c **** 
 339:../../../../../../Middlewares/Third_Party/LoRaWAN/Mac/region/RegionCN779.c ****     return phyParam;
 340:../../../../../../Middlewares/Third_Party/LoRaWAN/Mac/region/RegionCN779.c **** }
 107              		.loc 1 340 0
 108 001e 0098     		ldr	r0, [sp]
 109 0020 03B0     		add	sp, sp, #12
 110              		@ sp needed
 111 0022 00BD     		pop	{pc}
 112              	.LVL2:
 113              	.L26:
 325:../../../../../../Middlewares/Third_Party/LoRaWAN/Mac/region/RegionCN779.c ****             break;
 114              		.loc 1 325 0
ARM GAS  C:\Users\EBANO_~1\AppData\Local\Temp\ccKJ5gfE.s 			page 9


 115 0024 0323     		movs	r3, #3
 116 0026 0093     		str	r3, [sp]
 326:../../../../../../Middlewares/Third_Party/LoRaWAN/Mac/region/RegionCN779.c ****         }
 117              		.loc 1 326 0
 118 0028 F9E7     		b	.L2
 119              	.L25:
 318:../../../../../../Middlewares/Third_Party/LoRaWAN/Mac/region/RegionCN779.c ****             phyParam.BeaconFormat.Rfu1Size = CN779_RFU1_SIZE;
 120              		.loc 1 318 0
 121 002a 6A46     		mov	r2, sp
 122 002c 2C4B     		ldr	r3, .L31+4
 123 002e 1380     		strh	r3, [r2]
 321:../../../../../../Middlewares/Third_Party/LoRaWAN/Mac/region/RegionCN779.c ****         }
 124              		.loc 1 321 0
 125 0030 F5E7     		b	.L2
 126              	.L20:
 292:../../../../../../Middlewares/Third_Party/LoRaWAN/Mac/region/RegionCN779.c ****             break;
 127              		.loc 1 292 0
 128 0032 2C4B     		ldr	r3, .L31+8
 129 0034 0093     		str	r3, [sp]
 293:../../../../../../Middlewares/Third_Party/LoRaWAN/Mac/region/RegionCN779.c ****         }
 130              		.loc 1 293 0
 131 0036 F2E7     		b	.L2
 132              	.L18:
 282:../../../../../../Middlewares/Third_Party/LoRaWAN/Mac/region/RegionCN779.c ****             break;
 133              		.loc 1 282 0
 134 0038 2B4B     		ldr	r3, .L31+12
 135 003a 0093     		str	r3, [sp]
 283:../../../../../../Middlewares/Third_Party/LoRaWAN/Mac/region/RegionCN779.c ****         }
 136              		.loc 1 283 0
 137 003c EFE7     		b	.L2
 138              	.L17:
 277:../../../../../../Middlewares/Third_Party/LoRaWAN/Mac/region/RegionCN779.c ****             break;
 139              		.loc 1 277 0
 140 003e 2B4B     		ldr	r3, .L31+16
 141 0040 0093     		str	r3, [sp]
 278:../../../../../../Middlewares/Third_Party/LoRaWAN/Mac/region/RegionCN779.c ****         }
 142              		.loc 1 278 0
 143 0042 ECE7     		b	.L2
 144              	.L21:
 303:../../../../../../Middlewares/Third_Party/LoRaWAN/Mac/region/RegionCN779.c ****             break;
 145              		.loc 1 303 0
 146 0044 2A4B     		ldr	r3, .L31+20
 147 0046 0093     		str	r3, [sp]
 304:../../../../../../Middlewares/Third_Party/LoRaWAN/Mac/region/RegionCN779.c ****         }
 148              		.loc 1 304 0
 149 0048 E9E7     		b	.L2
 150              	.L16:
 267:../../../../../../Middlewares/Third_Party/LoRaWAN/Mac/region/RegionCN779.c ****             break;
 151              		.loc 1 267 0
 152 004a 2A4B     		ldr	r3, .L31+24
 153 004c 0093     		str	r3, [sp]
 268:../../../../../../Middlewares/Third_Party/LoRaWAN/Mac/region/RegionCN779.c ****         }
 154              		.loc 1 268 0
 155 004e E6E7     		b	.L2
 156              	.L22:
 308:../../../../../../Middlewares/Third_Party/LoRaWAN/Mac/region/RegionCN779.c ****             break;
 157              		.loc 1 308 0
ARM GAS  C:\Users\EBANO_~1\AppData\Local\Temp\ccKJ5gfE.s 			page 10


 158 0050 294B     		ldr	r3, .L31+28
 159 0052 0093     		str	r3, [sp]
 309:../../../../../../Middlewares/Third_Party/LoRaWAN/Mac/region/RegionCN779.c ****         }
 160              		.loc 1 309 0
 161 0054 E3E7     		b	.L2
 162              	.L15:
 257:../../../../../../Middlewares/Third_Party/LoRaWAN/Mac/region/RegionCN779.c ****             break;
 163              		.loc 1 257 0
 164 0056 FA21     		movs	r1, #250
 165 0058 2848     		ldr	r0, .L31+32
 166              	.LVL3:
 167 005a 8900     		lsls	r1, r1, #2
 168 005c FFF7FEFF 		bl	randr
 169              	.LVL4:
 170 0060 FA23     		movs	r3, #250
 171 0062 DB00     		lsls	r3, r3, #3
 172 0064 9C46     		mov	ip, r3
 173 0066 6044     		add	r0, r0, ip
 174 0068 0090     		str	r0, [sp]
 258:../../../../../../Middlewares/Third_Party/LoRaWAN/Mac/region/RegionCN779.c ****         }
 175              		.loc 1 258 0
 176 006a D8E7     		b	.L2
 177              	.LVL5:
 178              	.L14:
 252:../../../../../../Middlewares/Third_Party/LoRaWAN/Mac/region/RegionCN779.c ****             break;
 179              		.loc 1 252 0
 180 006c 8023     		movs	r3, #128
 181 006e DB01     		lsls	r3, r3, #7
 182 0070 0093     		str	r3, [sp]
 253:../../../../../../Middlewares/Third_Party/LoRaWAN/Mac/region/RegionCN779.c ****         }
 183              		.loc 1 253 0
 184 0072 D4E7     		b	.L2
 185              	.L13:
 247:../../../../../../Middlewares/Third_Party/LoRaWAN/Mac/region/RegionCN779.c ****             break;
 186              		.loc 1 247 0
 187 0074 224B     		ldr	r3, .L31+36
 188 0076 0093     		str	r3, [sp]
 248:../../../../../../Middlewares/Third_Party/LoRaWAN/Mac/region/RegionCN779.c ****         }
 189              		.loc 1 248 0
 190 0078 D1E7     		b	.L2
 191              	.L12:
 242:../../../../../../Middlewares/Third_Party/LoRaWAN/Mac/region/RegionCN779.c ****             break;
 192              		.loc 1 242 0
 193 007a 224B     		ldr	r3, .L31+40
 194 007c 0093     		str	r3, [sp]
 243:../../../../../../Middlewares/Third_Party/LoRaWAN/Mac/region/RegionCN779.c ****         }
 195              		.loc 1 243 0
 196 007e CEE7     		b	.L2
 197              	.L11:
 237:../../../../../../Middlewares/Third_Party/LoRaWAN/Mac/region/RegionCN779.c ****             break;
 198              		.loc 1 237 0
 199 0080 FA23     		movs	r3, #250
 200 0082 DB00     		lsls	r3, r3, #3
 201 0084 0093     		str	r3, [sp]
 238:../../../../../../Middlewares/Third_Party/LoRaWAN/Mac/region/RegionCN779.c ****         }
 202              		.loc 1 238 0
 203 0086 CAE7     		b	.L2
ARM GAS  C:\Users\EBANO_~1\AppData\Local\Temp\ccKJ5gfE.s 			page 11


 204              	.L10:
 232:../../../../../../Middlewares/Third_Party/LoRaWAN/Mac/region/RegionCN779.c ****             break;
 205              		.loc 1 232 0
 206 0088 FA23     		movs	r3, #250
 207 008a 9B00     		lsls	r3, r3, #2
 208 008c 0093     		str	r3, [sp]
 233:../../../../../../Middlewares/Third_Party/LoRaWAN/Mac/region/RegionCN779.c ****         }
 209              		.loc 1 233 0
 210 008e C6E7     		b	.L2
 211              	.L9:
 227:../../../../../../Middlewares/Third_Party/LoRaWAN/Mac/region/RegionCN779.c ****             break;
 212              		.loc 1 227 0
 213 0090 1D4B     		ldr	r3, .L31+44
 214 0092 0093     		str	r3, [sp]
 228:../../../../../../Middlewares/Third_Party/LoRaWAN/Mac/region/RegionCN779.c ****         }
 215              		.loc 1 228 0
 216 0094 C3E7     		b	.L2
 217              	.L8:
 222:../../../../../../Middlewares/Third_Party/LoRaWAN/Mac/region/RegionCN779.c ****             break;
 218              		.loc 1 222 0
 219 0096 0123     		movs	r3, #1
 220 0098 0093     		str	r3, [sp]
 223:../../../../../../Middlewares/Third_Party/LoRaWAN/Mac/region/RegionCN779.c ****         }
 221              		.loc 1 223 0
 222 009a C0E7     		b	.L2
 223              	.L7:
 217:../../../../../../Middlewares/Third_Party/LoRaWAN/Mac/region/RegionCN779.c ****             break;
 224              		.loc 1 217 0
 225 009c 0122     		movs	r2, #1
 226 009e 1B4B     		ldr	r3, .L31+48
 227 00a0 8256     		ldrsb	r2, [r0, r2]
 228 00a2 9B18     		adds	r3, r3, r2
 229 00a4 1B7A     		ldrb	r3, [r3, #8]
 230 00a6 0093     		str	r3, [sp]
 218:../../../../../../Middlewares/Third_Party/LoRaWAN/Mac/region/RegionCN779.c ****         }
 231              		.loc 1 218 0
 232 00a8 B9E7     		b	.L2
 233              	.L6:
 212:../../../../../../Middlewares/Third_Party/LoRaWAN/Mac/region/RegionCN779.c ****             break;
 234              		.loc 1 212 0
 235 00aa 0123     		movs	r3, #1
 236 00ac 174A     		ldr	r2, .L31+48
 237 00ae C356     		ldrsb	r3, [r0, r3]
 238 00b0 D35C     		ldrb	r3, [r2, r3]
 239 00b2 0093     		str	r3, [sp]
 213:../../../../../../Middlewares/Third_Party/LoRaWAN/Mac/region/RegionCN779.c ****         }
 240              		.loc 1 213 0
 241 00b4 B3E7     		b	.L2
 242              	.L5:
 207:../../../../../../Middlewares/Third_Party/LoRaWAN/Mac/region/RegionCN779.c ****             break;
 243              		.loc 1 207 0
 244 00b6 2023     		movs	r3, #32
 245 00b8 0093     		str	r3, [sp]
 208:../../../../../../Middlewares/Third_Party/LoRaWAN/Mac/region/RegionCN779.c ****         }
 246              		.loc 1 208 0
 247 00ba B0E7     		b	.L2
 248              	.L3:
ARM GAS  C:\Users\EBANO_~1\AppData\Local\Temp\ccKJ5gfE.s 			page 12


 202:../../../../../../Middlewares/Third_Party/LoRaWAN/Mac/region/RegionCN779.c ****             break;
 249              		.loc 1 202 0
 250 00bc 4023     		movs	r3, #64
 251 00be 0093     		str	r3, [sp]
 203:../../../../../../Middlewares/Third_Party/LoRaWAN/Mac/region/RegionCN779.c ****         }
 252              		.loc 1 203 0
 253 00c0 ADE7     		b	.L2
 254              	.L23:
 187:../../../../../../Middlewares/Third_Party/LoRaWAN/Mac/region/RegionCN779.c ****             break;
 255              		.loc 1 187 0
 256 00c2 0123     		movs	r3, #1
 257 00c4 C356     		ldrsb	r3, [r0, r3]
 258              	.LVL6:
 259              	.LBB22:
 260              	.LBB23:
  73:../../../../../../Middlewares/Third_Party/LoRaWAN/Mac/region/RegionCN779.c ****     {
 261              		.loc 1 73 0
 262 00c6 0022     		movs	r2, #0
 263 00c8 002B     		cmp	r3, #0
 264 00ca 01D0     		beq	.L27
 265              	.LVL7:
  79:../../../../../../Middlewares/Third_Party/LoRaWAN/Mac/region/RegionCN779.c ****     }
 266              		.loc 1 79 0
 267 00cc 013B     		subs	r3, r3, #1
 268              	.LVL8:
 269 00ce 5AB2     		sxtb	r2, r3
 270              	.LVL9:
 271              	.L27:
 272              	.LBE23:
 273              	.LBE22:
 187:../../../../../../Middlewares/Third_Party/LoRaWAN/Mac/region/RegionCN779.c ****             break;
 274              		.loc 1 187 0
 275 00d0 0092     		str	r2, [sp]
 188:../../../../../../Middlewares/Third_Party/LoRaWAN/Mac/region/RegionCN779.c ****         }
 276              		.loc 1 188 0
 277 00d2 A4E7     		b	.L2
 278              	.L24:
 313:../../../../../../Middlewares/Third_Party/LoRaWAN/Mac/region/RegionCN779.c ****             break;
 279              		.loc 1 313 0
 280 00d4 0E4B     		ldr	r3, .L31+52
 281 00d6 0093     		str	r3, [sp]
 314:../../../../../../Middlewares/Third_Party/LoRaWAN/Mac/region/RegionCN779.c ****         }
 282              		.loc 1 314 0
 283 00d8 A1E7     		b	.L2
 284              	.L32:
 285 00da C046     		.align	2
 286              	.L31:
 287 00dc 00000000 		.word	.L4
 288 00e0 11020000 		.word	529
 289 00e4 00000000 		.word	NvmCtx
 290 00e8 D2000000 		.word	NvmCtx+210
 291 00ec D0000000 		.word	NvmCtx+208
 292 00f0 66664241 		.word	1094870630
 293 00f4 8068D92E 		.word	786000000
 294 00f8 9A990940 		.word	1074370970
 295 00fc 18FCFFFF 		.word	-1000
 296 0100 70170000 		.word	6000
ARM GAS  C:\Users\EBANO_~1\AppData\Local\Temp\ccKJ5gfE.s 			page 13


 297 0104 88130000 		.word	5000
 298 0108 B80B0000 		.word	3000
 299 010c 00010000 		.word	.LANCHOR0
 300 0110 4026CA2E 		.word	785000000
 301              		.cfi_endproc
 302              	.LFE44:
 303              		.size	RegionCN779GetPhyParam, .-RegionCN779GetPhyParam
 304              		.section	.text.RegionCN779SetBandTxDone,"ax",%progbits
 305              		.align	1
 306              		.p2align 2,,3
 307              		.global	RegionCN779SetBandTxDone
 308              		.syntax unified
 309              		.code	16
 310              		.thumb_func
 311              		.fpu softvfp
 312              		.type	RegionCN779SetBandTxDone, %function
 313              	RegionCN779SetBandTxDone:
 314              	.LFB45:
 341:../../../../../../Middlewares/Third_Party/LoRaWAN/Mac/region/RegionCN779.c **** 
 342:../../../../../../Middlewares/Third_Party/LoRaWAN/Mac/region/RegionCN779.c **** void RegionCN779SetBandTxDone( SetBandTxDoneParams_t* txDone )
 343:../../../../../../Middlewares/Third_Party/LoRaWAN/Mac/region/RegionCN779.c **** {
 315              		.loc 1 343 0
 316              		.cfi_startproc
 317              		@ args = 0, pretend = 0, frame = 0
 318              		@ frame_needed = 0, uses_anonymous_args = 0
 319              	.LVL10:
 344:../../../../../../Middlewares/Third_Party/LoRaWAN/Mac/region/RegionCN779.c ****     RegionCommonSetBandTxDone( txDone->Joined, &NvmCtx.Bands[NvmCtx.Channels[txDone->Channel].Band]
 320              		.loc 1 344 0
 321 0000 0178     		ldrb	r1, [r0]
 343:../../../../../../Middlewares/Third_Party/LoRaWAN/Mac/region/RegionCN779.c ****     RegionCommonSetBandTxDone( txDone->Joined, &NvmCtx.Bands[NvmCtx.Channels[txDone->Channel].Band]
 322              		.loc 1 343 0
 323 0002 10B5     		push	{r4, lr}
 324              	.LCFI2:
 325              		.cfi_def_cfa_offset 8
 326              		.cfi_offset 4, -8
 327              		.cfi_offset 14, -4
 328              		.loc 1 344 0
 329 0004 4B00     		lsls	r3, r1, #1
 330 0006 064C     		ldr	r4, .L34
 331 0008 5B18     		adds	r3, r3, r1
 332 000a 9B00     		lsls	r3, r3, #2
 333 000c E318     		adds	r3, r4, r3
 334 000e 597A     		ldrb	r1, [r3, #9]
 335 0010 4268     		ldr	r2, [r0, #4]
 336 0012 0C31     		adds	r1, r1, #12
 337 0014 0901     		lsls	r1, r1, #4
 338 0016 0919     		adds	r1, r1, r4
 339 0018 4078     		ldrb	r0, [r0, #1]
 340              	.LVL11:
 341 001a FFF7FEFF 		bl	RegionCommonSetBandTxDone
 342              	.LVL12:
 345:../../../../../../Middlewares/Third_Party/LoRaWAN/Mac/region/RegionCN779.c **** }
 343              		.loc 1 345 0
 344              		@ sp needed
 345 001e 10BD     		pop	{r4, pc}
 346              	.L35:
 347              		.align	2
ARM GAS  C:\Users\EBANO_~1\AppData\Local\Temp\ccKJ5gfE.s 			page 14


 348              	.L34:
 349 0020 00000000 		.word	NvmCtx
 350              		.cfi_endproc
 351              	.LFE45:
 352              		.size	RegionCN779SetBandTxDone, .-RegionCN779SetBandTxDone
 353              		.section	.text.RegionCN779InitDefaults,"ax",%progbits
 354              		.align	1
 355              		.p2align 2,,3
 356              		.global	RegionCN779InitDefaults
 357              		.syntax unified
 358              		.code	16
 359              		.thumb_func
 360              		.fpu softvfp
 361              		.type	RegionCN779InitDefaults, %function
 362              	RegionCN779InitDefaults:
 363              	.LFB46:
 346:../../../../../../Middlewares/Third_Party/LoRaWAN/Mac/region/RegionCN779.c **** 
 347:../../../../../../Middlewares/Third_Party/LoRaWAN/Mac/region/RegionCN779.c **** void RegionCN779InitDefaults( InitDefaultsParams_t* params )
 348:../../../../../../Middlewares/Third_Party/LoRaWAN/Mac/region/RegionCN779.c **** {
 364              		.loc 1 348 0
 365              		.cfi_startproc
 366              		@ args = 0, pretend = 0, frame = 16
 367              		@ frame_needed = 0, uses_anonymous_args = 0
 368              	.LVL13:
 369 0000 F0B5     		push	{r4, r5, r6, r7, lr}
 370              	.LCFI3:
 371              		.cfi_def_cfa_offset 20
 372              		.cfi_offset 4, -20
 373              		.cfi_offset 5, -16
 374              		.cfi_offset 6, -12
 375              		.cfi_offset 7, -8
 376              		.cfi_offset 14, -4
 377 0002 85B0     		sub	sp, sp, #20
 378              	.LCFI4:
 379              		.cfi_def_cfa_offset 40
 349:../../../../../../Middlewares/Third_Party/LoRaWAN/Mac/region/RegionCN779.c ****     Band_t bands[CN779_MAX_NB_BANDS] =
 380              		.loc 1 349 0
 381 0004 6423     		movs	r3, #100
 382 0006 6A46     		mov	r2, sp
 383 0008 1380     		strh	r3, [r2]
 384 000a 0023     		movs	r3, #0
 385 000c 9370     		strb	r3, [r2, #2]
 386 000e 0193     		str	r3, [sp, #4]
 387 0010 0293     		str	r3, [sp, #8]
 388 0012 0393     		str	r3, [sp, #12]
 350:../../../../../../Middlewares/Third_Party/LoRaWAN/Mac/region/RegionCN779.c ****     {
 351:../../../../../../Middlewares/Third_Party/LoRaWAN/Mac/region/RegionCN779.c ****         CN779_BAND0
 352:../../../../../../Middlewares/Third_Party/LoRaWAN/Mac/region/RegionCN779.c ****     };
 353:../../../../../../Middlewares/Third_Party/LoRaWAN/Mac/region/RegionCN779.c **** 
 354:../../../../../../Middlewares/Third_Party/LoRaWAN/Mac/region/RegionCN779.c ****     switch( params->Type )
 389              		.loc 1 354 0
 390 0014 0379     		ldrb	r3, [r0, #4]
 391 0016 012B     		cmp	r3, #1
 392 0018 2ED0     		beq	.L38
 393 001a 002B     		cmp	r3, #0
 394 001c 0AD0     		beq	.L39
 395 001e 022B     		cmp	r3, #2
ARM GAS  C:\Users\EBANO_~1\AppData\Local\Temp\ccKJ5gfE.s 			page 15


 396 0020 06D1     		bne	.L36
 355:../../../../../../Middlewares/Third_Party/LoRaWAN/Mac/region/RegionCN779.c ****     {
 356:../../../../../../Middlewares/Third_Party/LoRaWAN/Mac/region/RegionCN779.c ****         case INIT_TYPE_INIT:
 357:../../../../../../Middlewares/Third_Party/LoRaWAN/Mac/region/RegionCN779.c ****         {
 358:../../../../../../Middlewares/Third_Party/LoRaWAN/Mac/region/RegionCN779.c ****             // Initialize bands
 359:../../../../../../Middlewares/Third_Party/LoRaWAN/Mac/region/RegionCN779.c ****             memcpy1( ( uint8_t* )NvmCtx.Bands, ( uint8_t* )bands, sizeof( Band_t ) * CN779_MAX_NB_B
 360:../../../../../../Middlewares/Third_Party/LoRaWAN/Mac/region/RegionCN779.c **** 
 361:../../../../../../Middlewares/Third_Party/LoRaWAN/Mac/region/RegionCN779.c ****             // Channels
 362:../../../../../../Middlewares/Third_Party/LoRaWAN/Mac/region/RegionCN779.c ****             NvmCtx.Channels[0] = ( ChannelParams_t ) CN779_LC1;
 363:../../../../../../Middlewares/Third_Party/LoRaWAN/Mac/region/RegionCN779.c ****             NvmCtx.Channels[1] = ( ChannelParams_t ) CN779_LC2;
 364:../../../../../../Middlewares/Third_Party/LoRaWAN/Mac/region/RegionCN779.c ****             NvmCtx.Channels[2] = ( ChannelParams_t ) CN779_LC3;
 365:../../../../../../Middlewares/Third_Party/LoRaWAN/Mac/region/RegionCN779.c **** 
 366:../../../../../../Middlewares/Third_Party/LoRaWAN/Mac/region/RegionCN779.c ****             // Initialize the channels default mask
 367:../../../../../../Middlewares/Third_Party/LoRaWAN/Mac/region/RegionCN779.c ****             NvmCtx.ChannelsDefaultMask[0] = LC( 1 ) + LC( 2 ) + LC( 3 );
 368:../../../../../../Middlewares/Third_Party/LoRaWAN/Mac/region/RegionCN779.c ****             // Update the channels mask
 369:../../../../../../Middlewares/Third_Party/LoRaWAN/Mac/region/RegionCN779.c ****             RegionCommonChanMaskCopy( NvmCtx.ChannelsMask, NvmCtx.ChannelsDefaultMask, 1 );
 370:../../../../../../Middlewares/Third_Party/LoRaWAN/Mac/region/RegionCN779.c ****             break;
 371:../../../../../../Middlewares/Third_Party/LoRaWAN/Mac/region/RegionCN779.c ****         }
 372:../../../../../../Middlewares/Third_Party/LoRaWAN/Mac/region/RegionCN779.c ****         case INIT_TYPE_RESTORE_CTX:
 373:../../../../../../Middlewares/Third_Party/LoRaWAN/Mac/region/RegionCN779.c ****         {
 374:../../../../../../Middlewares/Third_Party/LoRaWAN/Mac/region/RegionCN779.c ****             if( params->NvmCtx != 0 )
 397              		.loc 1 374 0
 398 0022 0168     		ldr	r1, [r0]
 399 0024 0029     		cmp	r1, #0
 400 0026 03D0     		beq	.L36
 375:../../../../../../Middlewares/Third_Party/LoRaWAN/Mac/region/RegionCN779.c ****             {
 376:../../../../../../Middlewares/Third_Party/LoRaWAN/Mac/region/RegionCN779.c ****                 memcpy1( (uint8_t*) &NvmCtx, (uint8_t*) params->NvmCtx, sizeof( NvmCtx ) );
 401              		.loc 1 376 0
 402 0028 D422     		movs	r2, #212
 403 002a 1748     		ldr	r0, .L44
 404              	.LVL14:
 405 002c FFF7FEFF 		bl	memcpy1
 406              	.LVL15:
 407              	.L36:
 377:../../../../../../Middlewares/Third_Party/LoRaWAN/Mac/region/RegionCN779.c ****             }
 378:../../../../../../Middlewares/Third_Party/LoRaWAN/Mac/region/RegionCN779.c ****             break;
 379:../../../../../../Middlewares/Third_Party/LoRaWAN/Mac/region/RegionCN779.c ****         }
 380:../../../../../../Middlewares/Third_Party/LoRaWAN/Mac/region/RegionCN779.c ****         case INIT_TYPE_RESTORE_DEFAULT_CHANNELS:
 381:../../../../../../Middlewares/Third_Party/LoRaWAN/Mac/region/RegionCN779.c ****         {
 382:../../../../../../Middlewares/Third_Party/LoRaWAN/Mac/region/RegionCN779.c ****             // Restore channels default mask
 383:../../../../../../Middlewares/Third_Party/LoRaWAN/Mac/region/RegionCN779.c ****             NvmCtx.ChannelsMask[0] |= NvmCtx.ChannelsDefaultMask[0];
 384:../../../../../../Middlewares/Third_Party/LoRaWAN/Mac/region/RegionCN779.c ****             break;
 385:../../../../../../Middlewares/Third_Party/LoRaWAN/Mac/region/RegionCN779.c ****         }
 386:../../../../../../Middlewares/Third_Party/LoRaWAN/Mac/region/RegionCN779.c ****         default:
 387:../../../../../../Middlewares/Third_Party/LoRaWAN/Mac/region/RegionCN779.c ****         {
 388:../../../../../../Middlewares/Third_Party/LoRaWAN/Mac/region/RegionCN779.c ****             break;
 389:../../../../../../Middlewares/Third_Party/LoRaWAN/Mac/region/RegionCN779.c ****         }
 390:../../../../../../Middlewares/Third_Party/LoRaWAN/Mac/region/RegionCN779.c ****     }
 391:../../../../../../Middlewares/Third_Party/LoRaWAN/Mac/region/RegionCN779.c **** }
 408              		.loc 1 391 0
 409 0030 05B0     		add	sp, sp, #20
 410              		@ sp needed
 411 0032 F0BD     		pop	{r4, r5, r6, r7, pc}
 412              	.LVL16:
 413              	.L39:
 359:../../../../../../Middlewares/Third_Party/LoRaWAN/Mac/region/RegionCN779.c **** 
 414              		.loc 1 359 0
ARM GAS  C:\Users\EBANO_~1\AppData\Local\Temp\ccKJ5gfE.s 			page 16


 415 0034 154C     		ldr	r4, .L44+4
 416 0036 6946     		mov	r1, sp
 417 0038 2000     		movs	r0, r4
 418              	.LVL17:
 419 003a 1022     		movs	r2, #16
 420 003c FFF7FEFF 		bl	memcpy1
 421              	.LVL18:
 362:../../../../../../Middlewares/Third_Party/LoRaWAN/Mac/region/RegionCN779.c ****             NvmCtx.Channels[1] = ( ChannelParams_t ) CN779_LC2;
 422              		.loc 1 362 0
 423 0040 2200     		movs	r2, r4
 424 0042 134B     		ldr	r3, .L44+8
 425 0044 C03A     		subs	r2, r2, #192
 426 0046 1900     		movs	r1, r3
 427 0048 1000     		movs	r0, r2
 428 004a 1031     		adds	r1, r1, #16
 429 004c E0C9     		ldmia	r1!, {r5, r6, r7}
 430 004e E0C0     		stmia	r0!, {r5, r6, r7}
 363:../../../../../../Middlewares/Third_Party/LoRaWAN/Mac/region/RegionCN779.c ****             NvmCtx.Channels[2] = ( ChannelParams_t ) CN779_LC3;
 431              		.loc 1 363 0
 432 0050 1900     		movs	r1, r3
 433 0052 1C31     		adds	r1, r1, #28
 434 0054 E0C9     		ldmia	r1!, {r5, r6, r7}
 435 0056 E0C0     		stmia	r0!, {r5, r6, r7}
 364:../../../../../../Middlewares/Third_Party/LoRaWAN/Mac/region/RegionCN779.c **** 
 436              		.loc 1 364 0
 437 0058 2100     		movs	r1, r4
 438 005a 2833     		adds	r3, r3, #40
 439 005c A839     		subs	r1, r1, #168
 440 005e 61CB     		ldmia	r3!, {r0, r5, r6}
 441 0060 61C1     		stmia	r1!, {r0, r5, r6}
 367:../../../../../../Middlewares/Third_Party/LoRaWAN/Mac/region/RegionCN779.c ****             // Update the channels mask
 442              		.loc 1 367 0
 443 0062 D223     		movs	r3, #210
 444 0064 0721     		movs	r1, #7
 369:../../../../../../Middlewares/Third_Party/LoRaWAN/Mac/region/RegionCN779.c ****             break;
 445              		.loc 1 369 0
 446 0066 2000     		movs	r0, r4
 367:../../../../../../Middlewares/Third_Party/LoRaWAN/Mac/region/RegionCN779.c ****             // Update the channels mask
 447              		.loc 1 367 0
 448 0068 D152     		strh	r1, [r2, r3]
 369:../../../../../../Middlewares/Third_Party/LoRaWAN/Mac/region/RegionCN779.c ****             break;
 449              		.loc 1 369 0
 450 006a 2100     		movs	r1, r4
 451 006c 1030     		adds	r0, r0, #16
 452 006e 1231     		adds	r1, r1, #18
 453 0070 0122     		movs	r2, #1
 454 0072 FFF7FEFF 		bl	RegionCommonChanMaskCopy
 455              	.LVL19:
 370:../../../../../../Middlewares/Third_Party/LoRaWAN/Mac/region/RegionCN779.c ****         }
 456              		.loc 1 370 0
 457 0076 DBE7     		b	.L36
 458              	.LVL20:
 459              	.L38:
 383:../../../../../../Middlewares/Third_Party/LoRaWAN/Mac/region/RegionCN779.c ****             break;
 460              		.loc 1 383 0
 461 0078 D021     		movs	r1, #208
 462 007a D220     		movs	r0, #210
ARM GAS  C:\Users\EBANO_~1\AppData\Local\Temp\ccKJ5gfE.s 			page 17


 463              	.LVL21:
 464 007c 024B     		ldr	r3, .L44
 465 007e 5A5A     		ldrh	r2, [r3, r1]
 466 0080 185A     		ldrh	r0, [r3, r0]
 467 0082 0243     		orrs	r2, r0
 468 0084 5A52     		strh	r2, [r3, r1]
 469              		.loc 1 391 0
 470 0086 D3E7     		b	.L36
 471              	.L45:
 472              		.align	2
 473              	.L44:
 474 0088 00000000 		.word	NvmCtx
 475 008c C0000000 		.word	NvmCtx+192
 476 0090 00010000 		.word	.LANCHOR0
 477              		.cfi_endproc
 478              	.LFE46:
 479              		.size	RegionCN779InitDefaults, .-RegionCN779InitDefaults
 480              		.section	.text.RegionCN779GetNvmCtx,"ax",%progbits
 481              		.align	1
 482              		.p2align 2,,3
 483              		.global	RegionCN779GetNvmCtx
 484              		.syntax unified
 485              		.code	16
 486              		.thumb_func
 487              		.fpu softvfp
 488              		.type	RegionCN779GetNvmCtx, %function
 489              	RegionCN779GetNvmCtx:
 490              	.LFB47:
 392:../../../../../../Middlewares/Third_Party/LoRaWAN/Mac/region/RegionCN779.c **** 
 393:../../../../../../Middlewares/Third_Party/LoRaWAN/Mac/region/RegionCN779.c **** void* RegionCN779GetNvmCtx( GetNvmCtxParams_t* params )
 394:../../../../../../Middlewares/Third_Party/LoRaWAN/Mac/region/RegionCN779.c **** {
 491              		.loc 1 394 0
 492              		.cfi_startproc
 493              		@ args = 0, pretend = 0, frame = 0
 494              		@ frame_needed = 0, uses_anonymous_args = 0
 495              		@ link register save eliminated.
 496              	.LVL22:
 395:../../../../../../Middlewares/Third_Party/LoRaWAN/Mac/region/RegionCN779.c ****     params->nvmCtxSize = sizeof( RegionCN779NvmCtx_t );
 497              		.loc 1 395 0
 498 0000 D423     		movs	r3, #212
 396:../../../../../../Middlewares/Third_Party/LoRaWAN/Mac/region/RegionCN779.c ****     return &NvmCtx;
 397:../../../../../../Middlewares/Third_Party/LoRaWAN/Mac/region/RegionCN779.c **** }
 499              		.loc 1 397 0
 500              		@ sp needed
 395:../../../../../../Middlewares/Third_Party/LoRaWAN/Mac/region/RegionCN779.c ****     params->nvmCtxSize = sizeof( RegionCN779NvmCtx_t );
 501              		.loc 1 395 0
 502 0002 0360     		str	r3, [r0]
 503              		.loc 1 397 0
 504 0004 0048     		ldr	r0, .L47
 505              	.LVL23:
 506 0006 7047     		bx	lr
 507              	.L48:
 508              		.align	2
 509              	.L47:
 510 0008 00000000 		.word	NvmCtx
 511              		.cfi_endproc
 512              	.LFE47:
ARM GAS  C:\Users\EBANO_~1\AppData\Local\Temp\ccKJ5gfE.s 			page 18


 513              		.size	RegionCN779GetNvmCtx, .-RegionCN779GetNvmCtx
 514              		.section	.text.RegionCN779Verify,"ax",%progbits
 515              		.align	1
 516              		.p2align 2,,3
 517              		.global	RegionCN779Verify
 518              		.syntax unified
 519              		.code	16
 520              		.thumb_func
 521              		.fpu softvfp
 522              		.type	RegionCN779Verify, %function
 523              	RegionCN779Verify:
 524              	.LFB48:
 398:../../../../../../Middlewares/Third_Party/LoRaWAN/Mac/region/RegionCN779.c **** 
 399:../../../../../../Middlewares/Third_Party/LoRaWAN/Mac/region/RegionCN779.c **** bool RegionCN779Verify( VerifyParams_t* verify, PhyAttribute_t phyAttribute )
 400:../../../../../../Middlewares/Third_Party/LoRaWAN/Mac/region/RegionCN779.c **** {
 525              		.loc 1 400 0
 526              		.cfi_startproc
 527              		@ args = 0, pretend = 0, frame = 0
 528              		@ frame_needed = 0, uses_anonymous_args = 0
 529              	.LVL24:
 401:../../../../../../Middlewares/Third_Party/LoRaWAN/Mac/region/RegionCN779.c ****     switch( phyAttribute )
 530              		.loc 1 401 0
 531 0000 0439     		subs	r1, r1, #4
 532              	.LVL25:
 533 0002 C9B2     		uxtb	r1, r1
 400:../../../../../../Middlewares/Third_Party/LoRaWAN/Mac/region/RegionCN779.c ****     switch( phyAttribute )
 534              		.loc 1 400 0
 535 0004 10B5     		push	{r4, lr}
 536              	.LCFI5:
 537              		.cfi_def_cfa_offset 8
 538              		.cfi_offset 4, -8
 539              		.cfi_offset 14, -4
 540              		.loc 1 401 0
 541 0006 0A29     		cmp	r1, #10
 542 0008 19D8     		bhi	.L50
 543 000a 0E4B     		ldr	r3, .L57
 544 000c 8900     		lsls	r1, r1, #2
 545 000e 5B58     		ldr	r3, [r3, r1]
 546 0010 9F46     		mov	pc, r3
 547              		.section	.rodata
 548              		.align	2
 549              	.L52:
 550 00ac 26000000 		.word	.L51
 551 00b0 12000000 		.word	.L54
 552 00b4 26000000 		.word	.L51
 553 00b8 3E000000 		.word	.L50
 554 00bc 12000000 		.word	.L54
 555 00c0 12000000 		.word	.L54
 556 00c4 3E000000 		.word	.L50
 557 00c8 3E000000 		.word	.L50
 558 00cc 3E000000 		.word	.L50
 559 00d0 3E000000 		.word	.L50
 560 00d4 3A000000 		.word	.L56
 561              		.section	.text.RegionCN779Verify
 562              	.L54:
 402:../../../../../../Middlewares/Third_Party/LoRaWAN/Mac/region/RegionCN779.c ****     {
 403:../../../../../../Middlewares/Third_Party/LoRaWAN/Mac/region/RegionCN779.c ****         case PHY_TX_DR:
ARM GAS  C:\Users\EBANO_~1\AppData\Local\Temp\ccKJ5gfE.s 			page 19


 404:../../../../../../Middlewares/Third_Party/LoRaWAN/Mac/region/RegionCN779.c ****         {
 405:../../../../../../Middlewares/Third_Party/LoRaWAN/Mac/region/RegionCN779.c ****             return RegionCommonValueInRange( verify->DatarateParams.Datarate, CN779_TX_MIN_DATARATE
 406:../../../../../../Middlewares/Third_Party/LoRaWAN/Mac/region/RegionCN779.c ****         }
 407:../../../../../../Middlewares/Third_Party/LoRaWAN/Mac/region/RegionCN779.c ****         case PHY_DEF_TX_DR:
 408:../../../../../../Middlewares/Third_Party/LoRaWAN/Mac/region/RegionCN779.c ****         {
 409:../../../../../../Middlewares/Third_Party/LoRaWAN/Mac/region/RegionCN779.c ****             return RegionCommonValueInRange( verify->DatarateParams.Datarate, DR_0, DR_5 );
 410:../../../../../../Middlewares/Third_Party/LoRaWAN/Mac/region/RegionCN779.c ****         }
 411:../../../../../../Middlewares/Third_Party/LoRaWAN/Mac/region/RegionCN779.c ****         case PHY_RX_DR:
 412:../../../../../../Middlewares/Third_Party/LoRaWAN/Mac/region/RegionCN779.c ****         {
 413:../../../../../../Middlewares/Third_Party/LoRaWAN/Mac/region/RegionCN779.c ****             return RegionCommonValueInRange( verify->DatarateParams.Datarate, CN779_RX_MIN_DATARATE
 414:../../../../../../Middlewares/Third_Party/LoRaWAN/Mac/region/RegionCN779.c ****         }
 415:../../../../../../Middlewares/Third_Party/LoRaWAN/Mac/region/RegionCN779.c ****         case PHY_DEF_TX_POWER:
 416:../../../../../../Middlewares/Third_Party/LoRaWAN/Mac/region/RegionCN779.c ****         case PHY_TX_POWER:
 417:../../../../../../Middlewares/Third_Party/LoRaWAN/Mac/region/RegionCN779.c ****         {
 418:../../../../../../Middlewares/Third_Party/LoRaWAN/Mac/region/RegionCN779.c ****             // Remark: switched min and max!
 419:../../../../../../Middlewares/Third_Party/LoRaWAN/Mac/region/RegionCN779.c ****             return RegionCommonValueInRange( verify->TxPower, CN779_MAX_TX_POWER, CN779_MIN_TX_POWE
 563              		.loc 1 419 0
 564 0012 0078     		ldrb	r0, [r0]
 565              	.LVL26:
 566 0014 0522     		movs	r2, #5
 567 0016 40B2     		sxtb	r0, r0
 568 0018 0021     		movs	r1, #0
 569 001a FFF7FEFF 		bl	RegionCommonValueInRange
 570              	.LVL27:
 571 001e 431E     		subs	r3, r0, #1
 572 0020 9841     		sbcs	r0, r0, r3
 573 0022 C0B2     		uxtb	r0, r0
 574              	.L55:
 420:../../../../../../Middlewares/Third_Party/LoRaWAN/Mac/region/RegionCN779.c ****         }
 421:../../../../../../Middlewares/Third_Party/LoRaWAN/Mac/region/RegionCN779.c ****         case PHY_DUTY_CYCLE:
 422:../../../../../../Middlewares/Third_Party/LoRaWAN/Mac/region/RegionCN779.c ****         {
 423:../../../../../../Middlewares/Third_Party/LoRaWAN/Mac/region/RegionCN779.c ****             return CN779_DUTY_CYCLE_ENABLED;
 424:../../../../../../Middlewares/Third_Party/LoRaWAN/Mac/region/RegionCN779.c ****         }
 425:../../../../../../Middlewares/Third_Party/LoRaWAN/Mac/region/RegionCN779.c ****         default:
 426:../../../../../../Middlewares/Third_Party/LoRaWAN/Mac/region/RegionCN779.c ****             return false;
 427:../../../../../../Middlewares/Third_Party/LoRaWAN/Mac/region/RegionCN779.c ****     }
 428:../../../../../../Middlewares/Third_Party/LoRaWAN/Mac/region/RegionCN779.c **** }
 575              		.loc 1 428 0
 576              		@ sp needed
 577 0024 10BD     		pop	{r4, pc}
 578              	.LVL28:
 579              	.L51:
 405:../../../../../../Middlewares/Third_Party/LoRaWAN/Mac/region/RegionCN779.c ****         }
 580              		.loc 1 405 0
 581 0026 0078     		ldrb	r0, [r0]
 582              	.LVL29:
 583 0028 0722     		movs	r2, #7
 584 002a 40B2     		sxtb	r0, r0
 585 002c 0021     		movs	r1, #0
 586 002e FFF7FEFF 		bl	RegionCommonValueInRange
 587              	.LVL30:
 588 0032 431E     		subs	r3, r0, #1
 589 0034 9841     		sbcs	r0, r0, r3
 590 0036 C0B2     		uxtb	r0, r0
 591 0038 F4E7     		b	.L55
 592              	.LVL31:
 593              	.L56:
ARM GAS  C:\Users\EBANO_~1\AppData\Local\Temp\ccKJ5gfE.s 			page 20


 423:../../../../../../Middlewares/Third_Party/LoRaWAN/Mac/region/RegionCN779.c ****         }
 594              		.loc 1 423 0
 595 003a 0120     		movs	r0, #1
 596              	.LVL32:
 597 003c F2E7     		b	.L55
 598              	.LVL33:
 599              	.L50:
 426:../../../../../../Middlewares/Third_Party/LoRaWAN/Mac/region/RegionCN779.c ****     }
 600              		.loc 1 426 0
 601 003e 0020     		movs	r0, #0
 602              	.LVL34:
 603 0040 F0E7     		b	.L55
 604              	.L58:
 605 0042 C046     		.align	2
 606              	.L57:
 607 0044 AC000000 		.word	.L52
 608              		.cfi_endproc
 609              	.LFE48:
 610              		.size	RegionCN779Verify, .-RegionCN779Verify
 611              		.section	.text.RegionCN779ApplyCFList,"ax",%progbits
 612              		.align	1
 613              		.p2align 2,,3
 614              		.global	RegionCN779ApplyCFList
 615              		.syntax unified
 616              		.code	16
 617              		.thumb_func
 618              		.fpu softvfp
 619              		.type	RegionCN779ApplyCFList, %function
 620              	RegionCN779ApplyCFList:
 621              	.LFB49:
 429:../../../../../../Middlewares/Third_Party/LoRaWAN/Mac/region/RegionCN779.c **** 
 430:../../../../../../Middlewares/Third_Party/LoRaWAN/Mac/region/RegionCN779.c **** void RegionCN779ApplyCFList( ApplyCFListParams_t* applyCFList )
 431:../../../../../../Middlewares/Third_Party/LoRaWAN/Mac/region/RegionCN779.c **** {
 622              		.loc 1 431 0
 623              		.cfi_startproc
 624              		@ args = 0, pretend = 0, frame = 24
 625              		@ frame_needed = 0, uses_anonymous_args = 0
 626              	.LVL35:
 627 0000 F0B5     		push	{r4, r5, r6, r7, lr}
 628              	.LCFI6:
 629              		.cfi_def_cfa_offset 20
 630              		.cfi_offset 4, -20
 631              		.cfi_offset 5, -16
 632              		.cfi_offset 6, -12
 633              		.cfi_offset 7, -8
 634              		.cfi_offset 14, -4
 635 0002 5746     		mov	r7, r10
 636 0004 DE46     		mov	lr, fp
 637 0006 4E46     		mov	r6, r9
 638 0008 4546     		mov	r5, r8
 432:../../../../../../Middlewares/Third_Party/LoRaWAN/Mac/region/RegionCN779.c ****     ChannelParams_t newChannel;
 433:../../../../../../Middlewares/Third_Party/LoRaWAN/Mac/region/RegionCN779.c ****     ChannelAddParams_t channelAdd;
 434:../../../../../../Middlewares/Third_Party/LoRaWAN/Mac/region/RegionCN779.c ****     ChannelRemoveParams_t channelRemove;
 435:../../../../../../Middlewares/Third_Party/LoRaWAN/Mac/region/RegionCN779.c **** 
 436:../../../../../../Middlewares/Third_Party/LoRaWAN/Mac/region/RegionCN779.c ****     // Setup default datarate range
 437:../../../../../../Middlewares/Third_Party/LoRaWAN/Mac/region/RegionCN779.c ****     newChannel.DrRange.Value = ( DR_5 << 4 ) | DR_0;
 639              		.loc 1 437 0
ARM GAS  C:\Users\EBANO_~1\AppData\Local\Temp\ccKJ5gfE.s 			page 21


 640 000a 5023     		movs	r3, #80
 431:../../../../../../Middlewares/Third_Party/LoRaWAN/Mac/region/RegionCN779.c ****     ChannelParams_t newChannel;
 641              		.loc 1 431 0
 642 000c E0B5     		push	{r5, r6, r7, lr}
 643              	.LCFI7:
 644              		.cfi_def_cfa_offset 36
 645              		.cfi_offset 8, -36
 646              		.cfi_offset 9, -32
 647              		.cfi_offset 10, -28
 648              		.cfi_offset 11, -24
 649 000e 87B0     		sub	sp, sp, #28
 650              	.LCFI8:
 651              		.cfi_def_cfa_offset 64
 652              		.loc 1 437 0
 653 0010 03AC     		add	r4, sp, #12
 654 0012 2372     		strb	r3, [r4, #8]
 438:../../../../../../Middlewares/Third_Party/LoRaWAN/Mac/region/RegionCN779.c **** 
 439:../../../../../../Middlewares/Third_Party/LoRaWAN/Mac/region/RegionCN779.c ****     // Size of the optional CF list
 440:../../../../../../Middlewares/Third_Party/LoRaWAN/Mac/region/RegionCN779.c ****     if( applyCFList->Size != 16 )
 655              		.loc 1 440 0
 656 0014 0379     		ldrb	r3, [r0, #4]
 431:../../../../../../Middlewares/Third_Party/LoRaWAN/Mac/region/RegionCN779.c ****     ChannelParams_t newChannel;
 657              		.loc 1 431 0
 658 0016 0700     		movs	r7, r0
 659              		.loc 1 440 0
 660 0018 102B     		cmp	r3, #16
 661 001a 06D0     		beq	.L76
 662              	.LVL36:
 663              	.L59:
 441:../../../../../../Middlewares/Third_Party/LoRaWAN/Mac/region/RegionCN779.c ****     {
 442:../../../../../../Middlewares/Third_Party/LoRaWAN/Mac/region/RegionCN779.c ****         return;
 443:../../../../../../Middlewares/Third_Party/LoRaWAN/Mac/region/RegionCN779.c ****     }
 444:../../../../../../Middlewares/Third_Party/LoRaWAN/Mac/region/RegionCN779.c **** 
 445:../../../../../../Middlewares/Third_Party/LoRaWAN/Mac/region/RegionCN779.c ****     // Last byte CFListType must be 0 to indicate the CFList contains a list of frequencies
 446:../../../../../../Middlewares/Third_Party/LoRaWAN/Mac/region/RegionCN779.c ****     if( applyCFList->Payload[15] != 0 )
 447:../../../../../../Middlewares/Third_Party/LoRaWAN/Mac/region/RegionCN779.c ****     {
 448:../../../../../../Middlewares/Third_Party/LoRaWAN/Mac/region/RegionCN779.c ****         return;
 449:../../../../../../Middlewares/Third_Party/LoRaWAN/Mac/region/RegionCN779.c ****     }
 450:../../../../../../Middlewares/Third_Party/LoRaWAN/Mac/region/RegionCN779.c **** 
 451:../../../../../../Middlewares/Third_Party/LoRaWAN/Mac/region/RegionCN779.c ****     // Last byte is RFU, don't take it into account
 452:../../../../../../Middlewares/Third_Party/LoRaWAN/Mac/region/RegionCN779.c ****     for( uint8_t i = 0, chanIdx = CN779_NUMB_DEFAULT_CHANNELS; chanIdx < CN779_MAX_NB_CHANNELS; i+=
 453:../../../../../../Middlewares/Third_Party/LoRaWAN/Mac/region/RegionCN779.c ****     {
 454:../../../../../../Middlewares/Third_Party/LoRaWAN/Mac/region/RegionCN779.c ****         if( chanIdx < ( CN779_NUMB_CHANNELS_CF_LIST + CN779_NUMB_DEFAULT_CHANNELS ) )
 455:../../../../../../Middlewares/Third_Party/LoRaWAN/Mac/region/RegionCN779.c ****         {
 456:../../../../../../Middlewares/Third_Party/LoRaWAN/Mac/region/RegionCN779.c ****             // Channel frequency
 457:../../../../../../Middlewares/Third_Party/LoRaWAN/Mac/region/RegionCN779.c ****             newChannel.Frequency = (uint32_t) applyCFList->Payload[i];
 458:../../../../../../Middlewares/Third_Party/LoRaWAN/Mac/region/RegionCN779.c ****             newChannel.Frequency |= ( (uint32_t) applyCFList->Payload[i + 1] << 8 );
 459:../../../../../../Middlewares/Third_Party/LoRaWAN/Mac/region/RegionCN779.c ****             newChannel.Frequency |= ( (uint32_t) applyCFList->Payload[i + 2] << 16 );
 460:../../../../../../Middlewares/Third_Party/LoRaWAN/Mac/region/RegionCN779.c ****             newChannel.Frequency *= 100;
 461:../../../../../../Middlewares/Third_Party/LoRaWAN/Mac/region/RegionCN779.c **** 
 462:../../../../../../Middlewares/Third_Party/LoRaWAN/Mac/region/RegionCN779.c ****             // Initialize alternative frequency to 0
 463:../../../../../../Middlewares/Third_Party/LoRaWAN/Mac/region/RegionCN779.c ****             newChannel.Rx1Frequency = 0;
 464:../../../../../../Middlewares/Third_Party/LoRaWAN/Mac/region/RegionCN779.c ****         }
 465:../../../../../../Middlewares/Third_Party/LoRaWAN/Mac/region/RegionCN779.c ****         else
 466:../../../../../../Middlewares/Third_Party/LoRaWAN/Mac/region/RegionCN779.c ****         {
 467:../../../../../../Middlewares/Third_Party/LoRaWAN/Mac/region/RegionCN779.c ****             newChannel.Frequency = 0;
 468:../../../../../../Middlewares/Third_Party/LoRaWAN/Mac/region/RegionCN779.c ****             newChannel.DrRange.Value = 0;
ARM GAS  C:\Users\EBANO_~1\AppData\Local\Temp\ccKJ5gfE.s 			page 22


 469:../../../../../../Middlewares/Third_Party/LoRaWAN/Mac/region/RegionCN779.c ****             newChannel.Rx1Frequency = 0;
 470:../../../../../../Middlewares/Third_Party/LoRaWAN/Mac/region/RegionCN779.c ****         }
 471:../../../../../../Middlewares/Third_Party/LoRaWAN/Mac/region/RegionCN779.c **** 
 472:../../../../../../Middlewares/Third_Party/LoRaWAN/Mac/region/RegionCN779.c ****         if( newChannel.Frequency != 0 )
 473:../../../../../../Middlewares/Third_Party/LoRaWAN/Mac/region/RegionCN779.c ****         {
 474:../../../../../../Middlewares/Third_Party/LoRaWAN/Mac/region/RegionCN779.c ****             channelAdd.NewChannel = &newChannel;
 475:../../../../../../Middlewares/Third_Party/LoRaWAN/Mac/region/RegionCN779.c ****             channelAdd.ChannelId = chanIdx;
 476:../../../../../../Middlewares/Third_Party/LoRaWAN/Mac/region/RegionCN779.c **** 
 477:../../../../../../Middlewares/Third_Party/LoRaWAN/Mac/region/RegionCN779.c ****             // Try to add all channels
 478:../../../../../../Middlewares/Third_Party/LoRaWAN/Mac/region/RegionCN779.c ****             RegionCN779ChannelAdd( &channelAdd );
 479:../../../../../../Middlewares/Third_Party/LoRaWAN/Mac/region/RegionCN779.c ****         }
 480:../../../../../../Middlewares/Third_Party/LoRaWAN/Mac/region/RegionCN779.c ****         else
 481:../../../../../../Middlewares/Third_Party/LoRaWAN/Mac/region/RegionCN779.c ****         {
 482:../../../../../../Middlewares/Third_Party/LoRaWAN/Mac/region/RegionCN779.c ****             channelRemove.ChannelId = chanIdx;
 483:../../../../../../Middlewares/Third_Party/LoRaWAN/Mac/region/RegionCN779.c **** 
 484:../../../../../../Middlewares/Third_Party/LoRaWAN/Mac/region/RegionCN779.c ****             RegionCN779ChannelsRemove( &channelRemove );
 485:../../../../../../Middlewares/Third_Party/LoRaWAN/Mac/region/RegionCN779.c ****         }
 486:../../../../../../Middlewares/Third_Party/LoRaWAN/Mac/region/RegionCN779.c ****     }
 487:../../../../../../Middlewares/Third_Party/LoRaWAN/Mac/region/RegionCN779.c **** }
 664              		.loc 1 487 0
 665 001c 07B0     		add	sp, sp, #28
 666              		@ sp needed
 667              	.LVL37:
 668 001e 3CBC     		pop	{r2, r3, r4, r5}
 669 0020 9046     		mov	r8, r2
 670 0022 9946     		mov	r9, r3
 671 0024 A246     		mov	r10, r4
 672 0026 AB46     		mov	fp, r5
 673 0028 F0BD     		pop	{r4, r5, r6, r7, pc}
 674              	.LVL38:
 675              	.L76:
 446:../../../../../../Middlewares/Third_Party/LoRaWAN/Mac/region/RegionCN779.c ****     {
 676              		.loc 1 446 0
 677 002a 0368     		ldr	r3, [r0]
 678 002c DB7B     		ldrb	r3, [r3, #15]
 679 002e 002B     		cmp	r3, #0
 680 0030 F4D1     		bne	.L59
 681              	.LBB31:
 682              	.LBB32:
 683              	.LBB33:
 488:../../../../../../Middlewares/Third_Party/LoRaWAN/Mac/region/RegionCN779.c **** 
 489:../../../../../../Middlewares/Third_Party/LoRaWAN/Mac/region/RegionCN779.c **** bool RegionCN779ChanMaskSet( ChanMaskSetParams_t* chanMaskSet )
 490:../../../../../../Middlewares/Third_Party/LoRaWAN/Mac/region/RegionCN779.c **** {
 491:../../../../../../Middlewares/Third_Party/LoRaWAN/Mac/region/RegionCN779.c ****     switch( chanMaskSet->ChannelsMaskType )
 492:../../../../../../Middlewares/Third_Party/LoRaWAN/Mac/region/RegionCN779.c ****     {
 493:../../../../../../Middlewares/Third_Party/LoRaWAN/Mac/region/RegionCN779.c ****         case CHANNELS_MASK:
 494:../../../../../../Middlewares/Third_Party/LoRaWAN/Mac/region/RegionCN779.c ****         {
 495:../../../../../../Middlewares/Third_Party/LoRaWAN/Mac/region/RegionCN779.c ****             RegionCommonChanMaskCopy( NvmCtx.ChannelsMask, chanMaskSet->ChannelsMaskIn, 1 );
 496:../../../../../../Middlewares/Third_Party/LoRaWAN/Mac/region/RegionCN779.c ****             break;
 497:../../../../../../Middlewares/Third_Party/LoRaWAN/Mac/region/RegionCN779.c ****         }
 498:../../../../../../Middlewares/Third_Party/LoRaWAN/Mac/region/RegionCN779.c ****         case CHANNELS_DEFAULT_MASK:
 499:../../../../../../Middlewares/Third_Party/LoRaWAN/Mac/region/RegionCN779.c ****         {
 500:../../../../../../Middlewares/Third_Party/LoRaWAN/Mac/region/RegionCN779.c ****             RegionCommonChanMaskCopy( NvmCtx.ChannelsDefaultMask, chanMaskSet->ChannelsMaskIn, 1 );
 501:../../../../../../Middlewares/Third_Party/LoRaWAN/Mac/region/RegionCN779.c ****             break;
 502:../../../../../../Middlewares/Third_Party/LoRaWAN/Mac/region/RegionCN779.c ****         }
 503:../../../../../../Middlewares/Third_Party/LoRaWAN/Mac/region/RegionCN779.c ****         default:
 504:../../../../../../Middlewares/Third_Party/LoRaWAN/Mac/region/RegionCN779.c ****             return false;
ARM GAS  C:\Users\EBANO_~1\AppData\Local\Temp\ccKJ5gfE.s 			page 23


 505:../../../../../../Middlewares/Third_Party/LoRaWAN/Mac/region/RegionCN779.c ****     }
 506:../../../../../../Middlewares/Third_Party/LoRaWAN/Mac/region/RegionCN779.c ****     return true;
 507:../../../../../../Middlewares/Third_Party/LoRaWAN/Mac/region/RegionCN779.c **** }
 508:../../../../../../Middlewares/Third_Party/LoRaWAN/Mac/region/RegionCN779.c **** 
 509:../../../../../../Middlewares/Third_Party/LoRaWAN/Mac/region/RegionCN779.c **** void RegionCN779ComputeRxWindowParameters( int8_t datarate, uint8_t minRxSymbols, uint32_t rxError,
 510:../../../../../../Middlewares/Third_Party/LoRaWAN/Mac/region/RegionCN779.c **** {
 511:../../../../../../Middlewares/Third_Party/LoRaWAN/Mac/region/RegionCN779.c ****     double tSymbol = 0.0;
 512:../../../../../../Middlewares/Third_Party/LoRaWAN/Mac/region/RegionCN779.c **** 
 513:../../../../../../Middlewares/Third_Party/LoRaWAN/Mac/region/RegionCN779.c ****     // Get the datarate, perform a boundary check
 514:../../../../../../Middlewares/Third_Party/LoRaWAN/Mac/region/RegionCN779.c ****     rxConfigParams->Datarate = MIN( datarate, CN779_RX_MAX_DATARATE );
 515:../../../../../../Middlewares/Third_Party/LoRaWAN/Mac/region/RegionCN779.c ****     rxConfigParams->Bandwidth = GetBandwidth( rxConfigParams->Datarate );
 516:../../../../../../Middlewares/Third_Party/LoRaWAN/Mac/region/RegionCN779.c **** 
 517:../../../../../../Middlewares/Third_Party/LoRaWAN/Mac/region/RegionCN779.c ****     if( rxConfigParams->Datarate == DR_7 )
 518:../../../../../../Middlewares/Third_Party/LoRaWAN/Mac/region/RegionCN779.c ****     { // FSK
 519:../../../../../../Middlewares/Third_Party/LoRaWAN/Mac/region/RegionCN779.c ****         tSymbol = RegionCommonComputeSymbolTimeFsk( DataratesCN779[rxConfigParams->Datarate] );
 520:../../../../../../Middlewares/Third_Party/LoRaWAN/Mac/region/RegionCN779.c ****     }
 521:../../../../../../Middlewares/Third_Party/LoRaWAN/Mac/region/RegionCN779.c ****     else
 522:../../../../../../Middlewares/Third_Party/LoRaWAN/Mac/region/RegionCN779.c ****     { // LoRa
 523:../../../../../../Middlewares/Third_Party/LoRaWAN/Mac/region/RegionCN779.c ****         tSymbol = RegionCommonComputeSymbolTimeLoRa( DataratesCN779[rxConfigParams->Datarate], Band
 524:../../../../../../Middlewares/Third_Party/LoRaWAN/Mac/region/RegionCN779.c ****     }
 525:../../../../../../Middlewares/Third_Party/LoRaWAN/Mac/region/RegionCN779.c **** 
 526:../../../../../../Middlewares/Third_Party/LoRaWAN/Mac/region/RegionCN779.c ****     RegionCommonComputeRxWindowParameters( tSymbol, minRxSymbols, rxError, Radio.GetWakeupTime( ), 
 527:../../../../../../Middlewares/Third_Party/LoRaWAN/Mac/region/RegionCN779.c **** }
 528:../../../../../../Middlewares/Third_Party/LoRaWAN/Mac/region/RegionCN779.c **** 
 529:../../../../../../Middlewares/Third_Party/LoRaWAN/Mac/region/RegionCN779.c **** bool RegionCN779RxConfig( RxConfigParams_t* rxConfig, int8_t* datarate )
 530:../../../../../../Middlewares/Third_Party/LoRaWAN/Mac/region/RegionCN779.c **** {
 531:../../../../../../Middlewares/Third_Party/LoRaWAN/Mac/region/RegionCN779.c ****     RadioModems_t modem;
 532:../../../../../../Middlewares/Third_Party/LoRaWAN/Mac/region/RegionCN779.c ****     int8_t dr = rxConfig->Datarate;
 533:../../../../../../Middlewares/Third_Party/LoRaWAN/Mac/region/RegionCN779.c ****     uint8_t maxPayload = 0;
 534:../../../../../../Middlewares/Third_Party/LoRaWAN/Mac/region/RegionCN779.c ****     int8_t phyDr = 0;
 535:../../../../../../Middlewares/Third_Party/LoRaWAN/Mac/region/RegionCN779.c ****     uint32_t frequency = rxConfig->Frequency;
 536:../../../../../../Middlewares/Third_Party/LoRaWAN/Mac/region/RegionCN779.c **** 
 537:../../../../../../Middlewares/Third_Party/LoRaWAN/Mac/region/RegionCN779.c ****     if( Radio.GetStatus( ) != RF_IDLE )
 538:../../../../../../Middlewares/Third_Party/LoRaWAN/Mac/region/RegionCN779.c ****     {
 539:../../../../../../Middlewares/Third_Party/LoRaWAN/Mac/region/RegionCN779.c ****         return false;
 540:../../../../../../Middlewares/Third_Party/LoRaWAN/Mac/region/RegionCN779.c ****     }
 541:../../../../../../Middlewares/Third_Party/LoRaWAN/Mac/region/RegionCN779.c **** 
 542:../../../../../../Middlewares/Third_Party/LoRaWAN/Mac/region/RegionCN779.c ****     if( rxConfig->RxSlot == RX_SLOT_WIN_1 )
 543:../../../../../../Middlewares/Third_Party/LoRaWAN/Mac/region/RegionCN779.c ****     {
 544:../../../../../../Middlewares/Third_Party/LoRaWAN/Mac/region/RegionCN779.c ****         // Apply window 1 frequency
 545:../../../../../../Middlewares/Third_Party/LoRaWAN/Mac/region/RegionCN779.c ****         frequency = NvmCtx.Channels[rxConfig->Channel].Frequency;
 546:../../../../../../Middlewares/Third_Party/LoRaWAN/Mac/region/RegionCN779.c ****         // Apply the alternative RX 1 window frequency, if it is available
 547:../../../../../../Middlewares/Third_Party/LoRaWAN/Mac/region/RegionCN779.c ****         if( NvmCtx.Channels[rxConfig->Channel].Rx1Frequency != 0 )
 548:../../../../../../Middlewares/Third_Party/LoRaWAN/Mac/region/RegionCN779.c ****         {
 549:../../../../../../Middlewares/Third_Party/LoRaWAN/Mac/region/RegionCN779.c ****             frequency = NvmCtx.Channels[rxConfig->Channel].Rx1Frequency;
 550:../../../../../../Middlewares/Third_Party/LoRaWAN/Mac/region/RegionCN779.c ****         }
 551:../../../../../../Middlewares/Third_Party/LoRaWAN/Mac/region/RegionCN779.c ****     }
 552:../../../../../../Middlewares/Third_Party/LoRaWAN/Mac/region/RegionCN779.c **** 
 553:../../../../../../Middlewares/Third_Party/LoRaWAN/Mac/region/RegionCN779.c ****     // Read the physical datarate from the datarates table
 554:../../../../../../Middlewares/Third_Party/LoRaWAN/Mac/region/RegionCN779.c ****     phyDr = DataratesCN779[dr];
 555:../../../../../../Middlewares/Third_Party/LoRaWAN/Mac/region/RegionCN779.c **** 
 556:../../../../../../Middlewares/Third_Party/LoRaWAN/Mac/region/RegionCN779.c ****     Radio.SetChannel( frequency );
 557:../../../../../../Middlewares/Third_Party/LoRaWAN/Mac/region/RegionCN779.c **** 
 558:../../../../../../Middlewares/Third_Party/LoRaWAN/Mac/region/RegionCN779.c ****     // Radio configuration
 559:../../../../../../Middlewares/Third_Party/LoRaWAN/Mac/region/RegionCN779.c ****     if( dr == DR_7 )
 560:../../../../../../Middlewares/Third_Party/LoRaWAN/Mac/region/RegionCN779.c ****     {
 561:../../../../../../Middlewares/Third_Party/LoRaWAN/Mac/region/RegionCN779.c ****         modem = MODEM_FSK;
ARM GAS  C:\Users\EBANO_~1\AppData\Local\Temp\ccKJ5gfE.s 			page 24


 562:../../../../../../Middlewares/Third_Party/LoRaWAN/Mac/region/RegionCN779.c ****         Radio.SetRxConfig( modem, 50000, phyDr * 1000, 0, 83333, 5, rxConfig->WindowTimeout, false,
 563:../../../../../../Middlewares/Third_Party/LoRaWAN/Mac/region/RegionCN779.c ****     }
 564:../../../../../../Middlewares/Third_Party/LoRaWAN/Mac/region/RegionCN779.c ****     else
 565:../../../../../../Middlewares/Third_Party/LoRaWAN/Mac/region/RegionCN779.c ****     {
 566:../../../../../../Middlewares/Third_Party/LoRaWAN/Mac/region/RegionCN779.c ****         modem = MODEM_LORA;
 567:../../../../../../Middlewares/Third_Party/LoRaWAN/Mac/region/RegionCN779.c ****         Radio.SetRxConfig( modem, rxConfig->Bandwidth, phyDr, 1, 0, 8, rxConfig->WindowTimeout, fal
 568:../../../../../../Middlewares/Third_Party/LoRaWAN/Mac/region/RegionCN779.c ****     }
 569:../../../../../../Middlewares/Third_Party/LoRaWAN/Mac/region/RegionCN779.c **** 
 570:../../../../../../Middlewares/Third_Party/LoRaWAN/Mac/region/RegionCN779.c ****     if( rxConfig->RepeaterSupport == true )
 571:../../../../../../Middlewares/Third_Party/LoRaWAN/Mac/region/RegionCN779.c ****     {
 572:../../../../../../Middlewares/Third_Party/LoRaWAN/Mac/region/RegionCN779.c ****         maxPayload = MaxPayloadOfDatarateRepeaterCN779[dr];
 573:../../../../../../Middlewares/Third_Party/LoRaWAN/Mac/region/RegionCN779.c ****     }
 574:../../../../../../Middlewares/Third_Party/LoRaWAN/Mac/region/RegionCN779.c ****     else
 575:../../../../../../Middlewares/Third_Party/LoRaWAN/Mac/region/RegionCN779.c ****     {
 576:../../../../../../Middlewares/Third_Party/LoRaWAN/Mac/region/RegionCN779.c ****         maxPayload = MaxPayloadOfDatarateCN779[dr];
 577:../../../../../../Middlewares/Third_Party/LoRaWAN/Mac/region/RegionCN779.c ****     }
 578:../../../../../../Middlewares/Third_Party/LoRaWAN/Mac/region/RegionCN779.c ****     Radio.SetMaxPayloadLength( modem, maxPayload + LORA_MAC_FRMPAYLOAD_OVERHEAD );
 579:../../../../../../Middlewares/Third_Party/LoRaWAN/Mac/region/RegionCN779.c ****     TVL1( PRINTF( "RX on freq %d Hz at DR %d\n\r", frequency, dr );)
 580:../../../../../../Middlewares/Third_Party/LoRaWAN/Mac/region/RegionCN779.c **** 
 581:../../../../../../Middlewares/Third_Party/LoRaWAN/Mac/region/RegionCN779.c ****     *datarate = (uint8_t) dr;
 582:../../../../../../Middlewares/Third_Party/LoRaWAN/Mac/region/RegionCN779.c ****     return true;
 583:../../../../../../Middlewares/Third_Party/LoRaWAN/Mac/region/RegionCN779.c **** }
 584:../../../../../../Middlewares/Third_Party/LoRaWAN/Mac/region/RegionCN779.c **** 
 585:../../../../../../Middlewares/Third_Party/LoRaWAN/Mac/region/RegionCN779.c **** bool RegionCN779TxConfig( TxConfigParams_t* txConfig, int8_t* txPower, TimerTime_t* txTimeOnAir )
 586:../../../../../../Middlewares/Third_Party/LoRaWAN/Mac/region/RegionCN779.c **** {
 587:../../../../../../Middlewares/Third_Party/LoRaWAN/Mac/region/RegionCN779.c ****     RadioModems_t modem;
 588:../../../../../../Middlewares/Third_Party/LoRaWAN/Mac/region/RegionCN779.c ****     int8_t phyDr = DataratesCN779[txConfig->Datarate];
 589:../../../../../../Middlewares/Third_Party/LoRaWAN/Mac/region/RegionCN779.c ****     int8_t txPowerLimited = LimitTxPower( txConfig->TxPower, NvmCtx.Bands[NvmCtx.Channels[txConfig-
 590:../../../../../../Middlewares/Third_Party/LoRaWAN/Mac/region/RegionCN779.c ****     uint32_t bandwidth = GetBandwidth( txConfig->Datarate );
 591:../../../../../../Middlewares/Third_Party/LoRaWAN/Mac/region/RegionCN779.c ****     int8_t phyTxPower = 0;
 592:../../../../../../Middlewares/Third_Party/LoRaWAN/Mac/region/RegionCN779.c **** 
 593:../../../../../../Middlewares/Third_Party/LoRaWAN/Mac/region/RegionCN779.c ****     // Calculate physical TX power
 594:../../../../../../Middlewares/Third_Party/LoRaWAN/Mac/region/RegionCN779.c ****     phyTxPower = RegionCommonComputeTxPower( txPowerLimited, txConfig->MaxEirp, txConfig->AntennaGa
 595:../../../../../../Middlewares/Third_Party/LoRaWAN/Mac/region/RegionCN779.c **** 
 596:../../../../../../Middlewares/Third_Party/LoRaWAN/Mac/region/RegionCN779.c ****     // Setup the radio frequency
 597:../../../../../../Middlewares/Third_Party/LoRaWAN/Mac/region/RegionCN779.c ****     Radio.SetChannel( NvmCtx.Channels[txConfig->Channel].Frequency );
 598:../../../../../../Middlewares/Third_Party/LoRaWAN/Mac/region/RegionCN779.c **** 
 599:../../../../../../Middlewares/Third_Party/LoRaWAN/Mac/region/RegionCN779.c ****     if( txConfig->Datarate == DR_7 )
 600:../../../../../../Middlewares/Third_Party/LoRaWAN/Mac/region/RegionCN779.c ****     { // High Speed FSK channel
 601:../../../../../../Middlewares/Third_Party/LoRaWAN/Mac/region/RegionCN779.c ****         modem = MODEM_FSK;
 602:../../../../../../Middlewares/Third_Party/LoRaWAN/Mac/region/RegionCN779.c ****         Radio.SetTxConfig( modem, phyTxPower, 25000, bandwidth, phyDr * 1000, 0, 5, false, true, 0,
 603:../../../../../../Middlewares/Third_Party/LoRaWAN/Mac/region/RegionCN779.c ****     }
 604:../../../../../../Middlewares/Third_Party/LoRaWAN/Mac/region/RegionCN779.c ****     else
 605:../../../../../../Middlewares/Third_Party/LoRaWAN/Mac/region/RegionCN779.c ****     {
 606:../../../../../../Middlewares/Third_Party/LoRaWAN/Mac/region/RegionCN779.c ****         modem = MODEM_LORA;
 607:../../../../../../Middlewares/Third_Party/LoRaWAN/Mac/region/RegionCN779.c ****         Radio.SetTxConfig( modem, phyTxPower, 0, bandwidth, phyDr, 1, 8, false, true, 0, 0, false, 
 608:../../../../../../Middlewares/Third_Party/LoRaWAN/Mac/region/RegionCN779.c ****     }
 609:../../../../../../Middlewares/Third_Party/LoRaWAN/Mac/region/RegionCN779.c ****     TVL1( PRINTF( "TX on freq %d Hz at DR %d\n\r", NvmCtx.Channels[txConfig->Channel].Frequency, tx
 610:../../../../../../Middlewares/Third_Party/LoRaWAN/Mac/region/RegionCN779.c **** 
 611:../../../../../../Middlewares/Third_Party/LoRaWAN/Mac/region/RegionCN779.c ****     // Setup maximum payload lenght of the radio driver
 612:../../../../../../Middlewares/Third_Party/LoRaWAN/Mac/region/RegionCN779.c ****     Radio.SetMaxPayloadLength( modem, txConfig->PktLen );
 613:../../../../../../Middlewares/Third_Party/LoRaWAN/Mac/region/RegionCN779.c ****     // Get the time-on-air of the next tx frame
 614:../../../../../../Middlewares/Third_Party/LoRaWAN/Mac/region/RegionCN779.c ****     *txTimeOnAir = Radio.TimeOnAir( modem, txConfig->PktLen );
 615:../../../../../../Middlewares/Third_Party/LoRaWAN/Mac/region/RegionCN779.c **** 
 616:../../../../../../Middlewares/Third_Party/LoRaWAN/Mac/region/RegionCN779.c ****     *txPower = txPowerLimited;
 617:../../../../../../Middlewares/Third_Party/LoRaWAN/Mac/region/RegionCN779.c ****     return true;
 618:../../../../../../Middlewares/Third_Party/LoRaWAN/Mac/region/RegionCN779.c **** }
ARM GAS  C:\Users\EBANO_~1\AppData\Local\Temp\ccKJ5gfE.s 			page 25


 619:../../../../../../Middlewares/Third_Party/LoRaWAN/Mac/region/RegionCN779.c **** 
 620:../../../../../../Middlewares/Third_Party/LoRaWAN/Mac/region/RegionCN779.c **** uint8_t RegionCN779LinkAdrReq( LinkAdrReqParams_t* linkAdrReq, int8_t* drOut, int8_t* txPowOut, uin
 621:../../../../../../Middlewares/Third_Party/LoRaWAN/Mac/region/RegionCN779.c **** {
 622:../../../../../../Middlewares/Third_Party/LoRaWAN/Mac/region/RegionCN779.c ****     uint8_t status = 0x07;
 623:../../../../../../Middlewares/Third_Party/LoRaWAN/Mac/region/RegionCN779.c ****     RegionCommonLinkAdrParams_t linkAdrParams;
 624:../../../../../../Middlewares/Third_Party/LoRaWAN/Mac/region/RegionCN779.c ****     uint8_t nextIndex = 0;
 625:../../../../../../Middlewares/Third_Party/LoRaWAN/Mac/region/RegionCN779.c ****     uint8_t bytesProcessed = 0;
 626:../../../../../../Middlewares/Third_Party/LoRaWAN/Mac/region/RegionCN779.c ****     uint16_t chMask = 0;
 627:../../../../../../Middlewares/Third_Party/LoRaWAN/Mac/region/RegionCN779.c ****     GetPhyParams_t getPhy;
 628:../../../../../../Middlewares/Third_Party/LoRaWAN/Mac/region/RegionCN779.c ****     PhyParam_t phyParam;
 629:../../../../../../Middlewares/Third_Party/LoRaWAN/Mac/region/RegionCN779.c ****     RegionCommonLinkAdrReqVerifyParams_t linkAdrVerifyParams;
 630:../../../../../../Middlewares/Third_Party/LoRaWAN/Mac/region/RegionCN779.c **** 
 631:../../../../../../Middlewares/Third_Party/LoRaWAN/Mac/region/RegionCN779.c ****     while( bytesProcessed < linkAdrReq->PayloadSize )
 632:../../../../../../Middlewares/Third_Party/LoRaWAN/Mac/region/RegionCN779.c ****     {
 633:../../../../../../Middlewares/Third_Party/LoRaWAN/Mac/region/RegionCN779.c ****         // Get ADR request parameters
 634:../../../../../../Middlewares/Third_Party/LoRaWAN/Mac/region/RegionCN779.c ****         nextIndex = RegionCommonParseLinkAdrReq( &( linkAdrReq->Payload[bytesProcessed] ), &linkAdr
 635:../../../../../../Middlewares/Third_Party/LoRaWAN/Mac/region/RegionCN779.c **** 
 636:../../../../../../Middlewares/Third_Party/LoRaWAN/Mac/region/RegionCN779.c ****         if( nextIndex == 0 )
 637:../../../../../../Middlewares/Third_Party/LoRaWAN/Mac/region/RegionCN779.c ****             break; // break loop, since no more request has been found
 638:../../../../../../Middlewares/Third_Party/LoRaWAN/Mac/region/RegionCN779.c **** 
 639:../../../../../../Middlewares/Third_Party/LoRaWAN/Mac/region/RegionCN779.c ****         // Update bytes processed
 640:../../../../../../Middlewares/Third_Party/LoRaWAN/Mac/region/RegionCN779.c ****         bytesProcessed += nextIndex;
 641:../../../../../../Middlewares/Third_Party/LoRaWAN/Mac/region/RegionCN779.c **** 
 642:../../../../../../Middlewares/Third_Party/LoRaWAN/Mac/region/RegionCN779.c ****         // Revert status, as we only check the last ADR request for the channel mask KO
 643:../../../../../../Middlewares/Third_Party/LoRaWAN/Mac/region/RegionCN779.c ****         status = 0x07;
 644:../../../../../../Middlewares/Third_Party/LoRaWAN/Mac/region/RegionCN779.c **** 
 645:../../../../../../Middlewares/Third_Party/LoRaWAN/Mac/region/RegionCN779.c ****         // Setup temporary channels mask
 646:../../../../../../Middlewares/Third_Party/LoRaWAN/Mac/region/RegionCN779.c ****         chMask = linkAdrParams.ChMask;
 647:../../../../../../Middlewares/Third_Party/LoRaWAN/Mac/region/RegionCN779.c **** 
 648:../../../../../../Middlewares/Third_Party/LoRaWAN/Mac/region/RegionCN779.c ****         // Verify channels mask
 649:../../../../../../Middlewares/Third_Party/LoRaWAN/Mac/region/RegionCN779.c ****         if( ( linkAdrParams.ChMaskCtrl == 0 ) && ( chMask == 0 ) )
 650:../../../../../../Middlewares/Third_Party/LoRaWAN/Mac/region/RegionCN779.c ****         {
 651:../../../../../../Middlewares/Third_Party/LoRaWAN/Mac/region/RegionCN779.c ****             status &= 0xFE; // Channel mask KO
 652:../../../../../../Middlewares/Third_Party/LoRaWAN/Mac/region/RegionCN779.c ****         }
 653:../../../../../../Middlewares/Third_Party/LoRaWAN/Mac/region/RegionCN779.c ****         else if( ( ( linkAdrParams.ChMaskCtrl >= 1 ) && ( linkAdrParams.ChMaskCtrl <= 5 )) ||
 654:../../../../../../Middlewares/Third_Party/LoRaWAN/Mac/region/RegionCN779.c ****                 ( linkAdrParams.ChMaskCtrl >= 7 ) )
 655:../../../../../../Middlewares/Third_Party/LoRaWAN/Mac/region/RegionCN779.c ****         {
 656:../../../../../../Middlewares/Third_Party/LoRaWAN/Mac/region/RegionCN779.c ****             // RFU
 657:../../../../../../Middlewares/Third_Party/LoRaWAN/Mac/region/RegionCN779.c ****             status &= 0xFE; // Channel mask KO
 658:../../../../../../Middlewares/Third_Party/LoRaWAN/Mac/region/RegionCN779.c ****         }
 659:../../../../../../Middlewares/Third_Party/LoRaWAN/Mac/region/RegionCN779.c ****         else
 660:../../../../../../Middlewares/Third_Party/LoRaWAN/Mac/region/RegionCN779.c ****         {
 661:../../../../../../Middlewares/Third_Party/LoRaWAN/Mac/region/RegionCN779.c ****             for( uint8_t i = 0; i < CN779_MAX_NB_CHANNELS; i++ )
 662:../../../../../../Middlewares/Third_Party/LoRaWAN/Mac/region/RegionCN779.c ****             {
 663:../../../../../../Middlewares/Third_Party/LoRaWAN/Mac/region/RegionCN779.c ****                 if( linkAdrParams.ChMaskCtrl == 6 )
 664:../../../../../../Middlewares/Third_Party/LoRaWAN/Mac/region/RegionCN779.c ****                 {
 665:../../../../../../Middlewares/Third_Party/LoRaWAN/Mac/region/RegionCN779.c ****                     if( NvmCtx.Channels[i].Frequency != 0 )
 666:../../../../../../Middlewares/Third_Party/LoRaWAN/Mac/region/RegionCN779.c ****                     {
 667:../../../../../../Middlewares/Third_Party/LoRaWAN/Mac/region/RegionCN779.c ****                         chMask |= 1 << i;
 668:../../../../../../Middlewares/Third_Party/LoRaWAN/Mac/region/RegionCN779.c ****                     }
 669:../../../../../../Middlewares/Third_Party/LoRaWAN/Mac/region/RegionCN779.c ****                 }
 670:../../../../../../Middlewares/Third_Party/LoRaWAN/Mac/region/RegionCN779.c ****                 else
 671:../../../../../../Middlewares/Third_Party/LoRaWAN/Mac/region/RegionCN779.c ****                 {
 672:../../../../../../Middlewares/Third_Party/LoRaWAN/Mac/region/RegionCN779.c ****                     if( ( ( chMask & ( 1 << i ) ) != 0 ) &&
 673:../../../../../../Middlewares/Third_Party/LoRaWAN/Mac/region/RegionCN779.c ****                         ( NvmCtx.Channels[i].Frequency == 0 ) )
 674:../../../../../../Middlewares/Third_Party/LoRaWAN/Mac/region/RegionCN779.c ****                     {// Trying to enable an undefined channel
 675:../../../../../../Middlewares/Third_Party/LoRaWAN/Mac/region/RegionCN779.c ****                         status &= 0xFE; // Channel mask KO
ARM GAS  C:\Users\EBANO_~1\AppData\Local\Temp\ccKJ5gfE.s 			page 26


 676:../../../../../../Middlewares/Third_Party/LoRaWAN/Mac/region/RegionCN779.c ****                     }
 677:../../../../../../Middlewares/Third_Party/LoRaWAN/Mac/region/RegionCN779.c ****                 }
 678:../../../../../../Middlewares/Third_Party/LoRaWAN/Mac/region/RegionCN779.c ****             }
 679:../../../../../../Middlewares/Third_Party/LoRaWAN/Mac/region/RegionCN779.c ****         }
 680:../../../../../../Middlewares/Third_Party/LoRaWAN/Mac/region/RegionCN779.c ****     }
 681:../../../../../../Middlewares/Third_Party/LoRaWAN/Mac/region/RegionCN779.c **** 
 682:../../../../../../Middlewares/Third_Party/LoRaWAN/Mac/region/RegionCN779.c ****     // Get the minimum possible datarate
 683:../../../../../../Middlewares/Third_Party/LoRaWAN/Mac/region/RegionCN779.c ****     getPhy.Attribute = PHY_MIN_TX_DR;
 684:../../../../../../Middlewares/Third_Party/LoRaWAN/Mac/region/RegionCN779.c ****     getPhy.UplinkDwellTime = linkAdrReq->UplinkDwellTime;
 685:../../../../../../Middlewares/Third_Party/LoRaWAN/Mac/region/RegionCN779.c ****     phyParam = RegionCN779GetPhyParam( &getPhy );
 686:../../../../../../Middlewares/Third_Party/LoRaWAN/Mac/region/RegionCN779.c **** 
 687:../../../../../../Middlewares/Third_Party/LoRaWAN/Mac/region/RegionCN779.c ****     linkAdrVerifyParams.Status = status;
 688:../../../../../../Middlewares/Third_Party/LoRaWAN/Mac/region/RegionCN779.c ****     linkAdrVerifyParams.AdrEnabled = linkAdrReq->AdrEnabled;
 689:../../../../../../Middlewares/Third_Party/LoRaWAN/Mac/region/RegionCN779.c ****     linkAdrVerifyParams.Datarate = linkAdrParams.Datarate;
 690:../../../../../../Middlewares/Third_Party/LoRaWAN/Mac/region/RegionCN779.c ****     linkAdrVerifyParams.TxPower = linkAdrParams.TxPower;
 691:../../../../../../Middlewares/Third_Party/LoRaWAN/Mac/region/RegionCN779.c ****     linkAdrVerifyParams.NbRep = linkAdrParams.NbRep;
 692:../../../../../../Middlewares/Third_Party/LoRaWAN/Mac/region/RegionCN779.c ****     linkAdrVerifyParams.CurrentDatarate = linkAdrReq->CurrentDatarate;
 693:../../../../../../Middlewares/Third_Party/LoRaWAN/Mac/region/RegionCN779.c ****     linkAdrVerifyParams.CurrentTxPower = linkAdrReq->CurrentTxPower;
 694:../../../../../../Middlewares/Third_Party/LoRaWAN/Mac/region/RegionCN779.c ****     linkAdrVerifyParams.CurrentNbRep = linkAdrReq->CurrentNbRep;
 695:../../../../../../Middlewares/Third_Party/LoRaWAN/Mac/region/RegionCN779.c ****     linkAdrVerifyParams.NbChannels = CN779_MAX_NB_CHANNELS;
 696:../../../../../../Middlewares/Third_Party/LoRaWAN/Mac/region/RegionCN779.c ****     linkAdrVerifyParams.ChannelsMask = &chMask;
 697:../../../../../../Middlewares/Third_Party/LoRaWAN/Mac/region/RegionCN779.c ****     linkAdrVerifyParams.MinDatarate = ( int8_t )phyParam.Value;
 698:../../../../../../Middlewares/Third_Party/LoRaWAN/Mac/region/RegionCN779.c ****     linkAdrVerifyParams.MaxDatarate = CN779_TX_MAX_DATARATE;
 699:../../../../../../Middlewares/Third_Party/LoRaWAN/Mac/region/RegionCN779.c ****     linkAdrVerifyParams.Channels = NvmCtx.Channels;
 700:../../../../../../Middlewares/Third_Party/LoRaWAN/Mac/region/RegionCN779.c ****     linkAdrVerifyParams.MinTxPower = CN779_MIN_TX_POWER;
 701:../../../../../../Middlewares/Third_Party/LoRaWAN/Mac/region/RegionCN779.c ****     linkAdrVerifyParams.MaxTxPower = CN779_MAX_TX_POWER;
 702:../../../../../../Middlewares/Third_Party/LoRaWAN/Mac/region/RegionCN779.c ****     linkAdrVerifyParams.Version = linkAdrReq->Version;
 703:../../../../../../Middlewares/Third_Party/LoRaWAN/Mac/region/RegionCN779.c **** 
 704:../../../../../../Middlewares/Third_Party/LoRaWAN/Mac/region/RegionCN779.c ****     // Verify the parameters and update, if necessary
 705:../../../../../../Middlewares/Third_Party/LoRaWAN/Mac/region/RegionCN779.c ****     status = RegionCommonLinkAdrReqVerifyParams( &linkAdrVerifyParams, &linkAdrParams.Datarate, &li
 706:../../../../../../Middlewares/Third_Party/LoRaWAN/Mac/region/RegionCN779.c **** 
 707:../../../../../../Middlewares/Third_Party/LoRaWAN/Mac/region/RegionCN779.c ****     // Update channelsMask if everything is correct
 708:../../../../../../Middlewares/Third_Party/LoRaWAN/Mac/region/RegionCN779.c ****     if( status == 0x07 )
 709:../../../../../../Middlewares/Third_Party/LoRaWAN/Mac/region/RegionCN779.c ****     {
 710:../../../../../../Middlewares/Third_Party/LoRaWAN/Mac/region/RegionCN779.c ****         // Set the channels mask to a default value
 711:../../../../../../Middlewares/Third_Party/LoRaWAN/Mac/region/RegionCN779.c ****         memset1( ( uint8_t* ) NvmCtx.ChannelsMask, 0, sizeof( NvmCtx.ChannelsMask ) );
 712:../../../../../../Middlewares/Third_Party/LoRaWAN/Mac/region/RegionCN779.c ****         // Update the channels mask
 713:../../../../../../Middlewares/Third_Party/LoRaWAN/Mac/region/RegionCN779.c ****         NvmCtx.ChannelsMask[0] = chMask;
 714:../../../../../../Middlewares/Third_Party/LoRaWAN/Mac/region/RegionCN779.c ****     }
 715:../../../../../../Middlewares/Third_Party/LoRaWAN/Mac/region/RegionCN779.c **** 
 716:../../../../../../Middlewares/Third_Party/LoRaWAN/Mac/region/RegionCN779.c ****     // Update status variables
 717:../../../../../../Middlewares/Third_Party/LoRaWAN/Mac/region/RegionCN779.c ****     *drOut = linkAdrParams.Datarate;
 718:../../../../../../Middlewares/Third_Party/LoRaWAN/Mac/region/RegionCN779.c ****     *txPowOut = linkAdrParams.TxPower;
 719:../../../../../../Middlewares/Third_Party/LoRaWAN/Mac/region/RegionCN779.c ****     *nbRepOut = linkAdrParams.NbRep;
 720:../../../../../../Middlewares/Third_Party/LoRaWAN/Mac/region/RegionCN779.c ****     *nbBytesParsed = bytesProcessed;
 721:../../../../../../Middlewares/Third_Party/LoRaWAN/Mac/region/RegionCN779.c **** 
 722:../../../../../../Middlewares/Third_Party/LoRaWAN/Mac/region/RegionCN779.c ****     return status;
 723:../../../../../../Middlewares/Third_Party/LoRaWAN/Mac/region/RegionCN779.c **** }
 724:../../../../../../Middlewares/Third_Party/LoRaWAN/Mac/region/RegionCN779.c **** 
 725:../../../../../../Middlewares/Third_Party/LoRaWAN/Mac/region/RegionCN779.c **** uint8_t RegionCN779RxParamSetupReq( RxParamSetupReqParams_t* rxParamSetupReq )
 726:../../../../../../Middlewares/Third_Party/LoRaWAN/Mac/region/RegionCN779.c **** {
 727:../../../../../../Middlewares/Third_Party/LoRaWAN/Mac/region/RegionCN779.c ****     uint8_t status = 0x07;
 728:../../../../../../Middlewares/Third_Party/LoRaWAN/Mac/region/RegionCN779.c **** 
 729:../../../../../../Middlewares/Third_Party/LoRaWAN/Mac/region/RegionCN779.c ****     // Verify radio frequency
 730:../../../../../../Middlewares/Third_Party/LoRaWAN/Mac/region/RegionCN779.c ****     if( VerifyRfFreq( rxParamSetupReq->Frequency ) == false )
 731:../../../../../../Middlewares/Third_Party/LoRaWAN/Mac/region/RegionCN779.c ****     {
 732:../../../../../../Middlewares/Third_Party/LoRaWAN/Mac/region/RegionCN779.c ****         status &= 0xFE; // Channel frequency KO
ARM GAS  C:\Users\EBANO_~1\AppData\Local\Temp\ccKJ5gfE.s 			page 27


 733:../../../../../../Middlewares/Third_Party/LoRaWAN/Mac/region/RegionCN779.c ****     }
 734:../../../../../../Middlewares/Third_Party/LoRaWAN/Mac/region/RegionCN779.c **** 
 735:../../../../../../Middlewares/Third_Party/LoRaWAN/Mac/region/RegionCN779.c ****     // Verify datarate
 736:../../../../../../Middlewares/Third_Party/LoRaWAN/Mac/region/RegionCN779.c ****     if( RegionCommonValueInRange( rxParamSetupReq->Datarate, CN779_RX_MIN_DATARATE, CN779_RX_MAX_DA
 737:../../../../../../Middlewares/Third_Party/LoRaWAN/Mac/region/RegionCN779.c ****     {
 738:../../../../../../Middlewares/Third_Party/LoRaWAN/Mac/region/RegionCN779.c ****         status &= 0xFD; // Datarate KO
 739:../../../../../../Middlewares/Third_Party/LoRaWAN/Mac/region/RegionCN779.c ****     }
 740:../../../../../../Middlewares/Third_Party/LoRaWAN/Mac/region/RegionCN779.c **** 
 741:../../../../../../Middlewares/Third_Party/LoRaWAN/Mac/region/RegionCN779.c ****     // Verify datarate offset
 742:../../../../../../Middlewares/Third_Party/LoRaWAN/Mac/region/RegionCN779.c ****     if( RegionCommonValueInRange( rxParamSetupReq->DrOffset, CN779_MIN_RX1_DR_OFFSET, CN779_MAX_RX1
 743:../../../../../../Middlewares/Third_Party/LoRaWAN/Mac/region/RegionCN779.c ****     {
 744:../../../../../../Middlewares/Third_Party/LoRaWAN/Mac/region/RegionCN779.c ****         status &= 0xFB; // Rx1DrOffset range KO
 745:../../../../../../Middlewares/Third_Party/LoRaWAN/Mac/region/RegionCN779.c ****     }
 746:../../../../../../Middlewares/Third_Party/LoRaWAN/Mac/region/RegionCN779.c **** 
 747:../../../../../../Middlewares/Third_Party/LoRaWAN/Mac/region/RegionCN779.c ****     return status;
 748:../../../../../../Middlewares/Third_Party/LoRaWAN/Mac/region/RegionCN779.c **** }
 749:../../../../../../Middlewares/Third_Party/LoRaWAN/Mac/region/RegionCN779.c **** 
 750:../../../../../../Middlewares/Third_Party/LoRaWAN/Mac/region/RegionCN779.c **** uint8_t RegionCN779NewChannelReq( NewChannelReqParams_t* newChannelReq )
 751:../../../../../../Middlewares/Third_Party/LoRaWAN/Mac/region/RegionCN779.c **** {
 752:../../../../../../Middlewares/Third_Party/LoRaWAN/Mac/region/RegionCN779.c ****     uint8_t status = 0x03;
 753:../../../../../../Middlewares/Third_Party/LoRaWAN/Mac/region/RegionCN779.c ****     ChannelAddParams_t channelAdd;
 754:../../../../../../Middlewares/Third_Party/LoRaWAN/Mac/region/RegionCN779.c ****     ChannelRemoveParams_t channelRemove;
 755:../../../../../../Middlewares/Third_Party/LoRaWAN/Mac/region/RegionCN779.c **** 
 756:../../../../../../Middlewares/Third_Party/LoRaWAN/Mac/region/RegionCN779.c ****     if( newChannelReq->NewChannel->Frequency == 0 )
 757:../../../../../../Middlewares/Third_Party/LoRaWAN/Mac/region/RegionCN779.c ****     {
 758:../../../../../../Middlewares/Third_Party/LoRaWAN/Mac/region/RegionCN779.c ****         channelRemove.ChannelId = newChannelReq->ChannelId;
 759:../../../../../../Middlewares/Third_Party/LoRaWAN/Mac/region/RegionCN779.c **** 
 760:../../../../../../Middlewares/Third_Party/LoRaWAN/Mac/region/RegionCN779.c ****         // Remove
 761:../../../../../../Middlewares/Third_Party/LoRaWAN/Mac/region/RegionCN779.c ****         if( RegionCN779ChannelsRemove( &channelRemove ) == false )
 762:../../../../../../Middlewares/Third_Party/LoRaWAN/Mac/region/RegionCN779.c ****         {
 763:../../../../../../Middlewares/Third_Party/LoRaWAN/Mac/region/RegionCN779.c ****             status &= 0xFC;
 764:../../../../../../Middlewares/Third_Party/LoRaWAN/Mac/region/RegionCN779.c ****         }
 765:../../../../../../Middlewares/Third_Party/LoRaWAN/Mac/region/RegionCN779.c ****     }
 766:../../../../../../Middlewares/Third_Party/LoRaWAN/Mac/region/RegionCN779.c ****     else
 767:../../../../../../Middlewares/Third_Party/LoRaWAN/Mac/region/RegionCN779.c ****     {
 768:../../../../../../Middlewares/Third_Party/LoRaWAN/Mac/region/RegionCN779.c ****         channelAdd.NewChannel = newChannelReq->NewChannel;
 769:../../../../../../Middlewares/Third_Party/LoRaWAN/Mac/region/RegionCN779.c ****         channelAdd.ChannelId = newChannelReq->ChannelId;
 770:../../../../../../Middlewares/Third_Party/LoRaWAN/Mac/region/RegionCN779.c **** 
 771:../../../../../../Middlewares/Third_Party/LoRaWAN/Mac/region/RegionCN779.c ****         switch( RegionCN779ChannelAdd( &channelAdd ) )
 772:../../../../../../Middlewares/Third_Party/LoRaWAN/Mac/region/RegionCN779.c ****         {
 773:../../../../../../Middlewares/Third_Party/LoRaWAN/Mac/region/RegionCN779.c ****             case LORAMAC_STATUS_OK:
 774:../../../../../../Middlewares/Third_Party/LoRaWAN/Mac/region/RegionCN779.c ****             {
 775:../../../../../../Middlewares/Third_Party/LoRaWAN/Mac/region/RegionCN779.c ****                 break;
 776:../../../../../../Middlewares/Third_Party/LoRaWAN/Mac/region/RegionCN779.c ****             }
 777:../../../../../../Middlewares/Third_Party/LoRaWAN/Mac/region/RegionCN779.c ****             case LORAMAC_STATUS_FREQUENCY_INVALID:
 778:../../../../../../Middlewares/Third_Party/LoRaWAN/Mac/region/RegionCN779.c ****             {
 779:../../../../../../Middlewares/Third_Party/LoRaWAN/Mac/region/RegionCN779.c ****                 status &= 0xFE;
 780:../../../../../../Middlewares/Third_Party/LoRaWAN/Mac/region/RegionCN779.c ****                 break;
 781:../../../../../../Middlewares/Third_Party/LoRaWAN/Mac/region/RegionCN779.c ****             }
 782:../../../../../../Middlewares/Third_Party/LoRaWAN/Mac/region/RegionCN779.c ****             case LORAMAC_STATUS_DATARATE_INVALID:
 783:../../../../../../Middlewares/Third_Party/LoRaWAN/Mac/region/RegionCN779.c ****             {
 784:../../../../../../Middlewares/Third_Party/LoRaWAN/Mac/region/RegionCN779.c ****                 status &= 0xFD;
 785:../../../../../../Middlewares/Third_Party/LoRaWAN/Mac/region/RegionCN779.c ****                 break;
 786:../../../../../../Middlewares/Third_Party/LoRaWAN/Mac/region/RegionCN779.c ****             }
 787:../../../../../../Middlewares/Third_Party/LoRaWAN/Mac/region/RegionCN779.c ****             case LORAMAC_STATUS_FREQ_AND_DR_INVALID:
 788:../../../../../../Middlewares/Third_Party/LoRaWAN/Mac/region/RegionCN779.c ****             {
 789:../../../../../../Middlewares/Third_Party/LoRaWAN/Mac/region/RegionCN779.c ****                 status &= 0xFC;
ARM GAS  C:\Users\EBANO_~1\AppData\Local\Temp\ccKJ5gfE.s 			page 28


 790:../../../../../../Middlewares/Third_Party/LoRaWAN/Mac/region/RegionCN779.c ****                 break;
 791:../../../../../../Middlewares/Third_Party/LoRaWAN/Mac/region/RegionCN779.c ****             }
 792:../../../../../../Middlewares/Third_Party/LoRaWAN/Mac/region/RegionCN779.c ****             default:
 793:../../../../../../Middlewares/Third_Party/LoRaWAN/Mac/region/RegionCN779.c ****             {
 794:../../../../../../Middlewares/Third_Party/LoRaWAN/Mac/region/RegionCN779.c ****                 status &= 0xFC;
 795:../../../../../../Middlewares/Third_Party/LoRaWAN/Mac/region/RegionCN779.c ****                 break;
 796:../../../../../../Middlewares/Third_Party/LoRaWAN/Mac/region/RegionCN779.c ****             }
 797:../../../../../../Middlewares/Third_Party/LoRaWAN/Mac/region/RegionCN779.c ****         }
 798:../../../../../../Middlewares/Third_Party/LoRaWAN/Mac/region/RegionCN779.c ****     }
 799:../../../../../../Middlewares/Third_Party/LoRaWAN/Mac/region/RegionCN779.c **** 
 800:../../../../../../Middlewares/Third_Party/LoRaWAN/Mac/region/RegionCN779.c ****     return status;
 801:../../../../../../Middlewares/Third_Party/LoRaWAN/Mac/region/RegionCN779.c **** }
 802:../../../../../../Middlewares/Third_Party/LoRaWAN/Mac/region/RegionCN779.c **** 
 803:../../../../../../Middlewares/Third_Party/LoRaWAN/Mac/region/RegionCN779.c **** int8_t RegionCN779TxParamSetupReq( TxParamSetupReqParams_t* txParamSetupReq )
 804:../../../../../../Middlewares/Third_Party/LoRaWAN/Mac/region/RegionCN779.c **** {
 805:../../../../../../Middlewares/Third_Party/LoRaWAN/Mac/region/RegionCN779.c ****     return -1;
 806:../../../../../../Middlewares/Third_Party/LoRaWAN/Mac/region/RegionCN779.c **** }
 807:../../../../../../Middlewares/Third_Party/LoRaWAN/Mac/region/RegionCN779.c **** 
 808:../../../../../../Middlewares/Third_Party/LoRaWAN/Mac/region/RegionCN779.c **** uint8_t RegionCN779DlChannelReq( DlChannelReqParams_t* dlChannelReq )
 809:../../../../../../Middlewares/Third_Party/LoRaWAN/Mac/region/RegionCN779.c **** {
 810:../../../../../../Middlewares/Third_Party/LoRaWAN/Mac/region/RegionCN779.c ****     uint8_t status = 0x03;
 811:../../../../../../Middlewares/Third_Party/LoRaWAN/Mac/region/RegionCN779.c **** 
 812:../../../../../../Middlewares/Third_Party/LoRaWAN/Mac/region/RegionCN779.c ****     // Verify if the frequency is supported
 813:../../../../../../Middlewares/Third_Party/LoRaWAN/Mac/region/RegionCN779.c ****     if( VerifyRfFreq( dlChannelReq->Rx1Frequency ) == false )
 814:../../../../../../Middlewares/Third_Party/LoRaWAN/Mac/region/RegionCN779.c ****     {
 815:../../../../../../Middlewares/Third_Party/LoRaWAN/Mac/region/RegionCN779.c ****         status &= 0xFE;
 816:../../../../../../Middlewares/Third_Party/LoRaWAN/Mac/region/RegionCN779.c ****     }
 817:../../../../../../Middlewares/Third_Party/LoRaWAN/Mac/region/RegionCN779.c **** 
 818:../../../../../../Middlewares/Third_Party/LoRaWAN/Mac/region/RegionCN779.c ****     // Verify if an uplink frequency exists
 819:../../../../../../Middlewares/Third_Party/LoRaWAN/Mac/region/RegionCN779.c ****     if( NvmCtx.Channels[dlChannelReq->ChannelId].Frequency == 0 )
 820:../../../../../../Middlewares/Third_Party/LoRaWAN/Mac/region/RegionCN779.c ****     {
 821:../../../../../../Middlewares/Third_Party/LoRaWAN/Mac/region/RegionCN779.c ****         status &= 0xFD;
 822:../../../../../../Middlewares/Third_Party/LoRaWAN/Mac/region/RegionCN779.c ****     }
 823:../../../../../../Middlewares/Third_Party/LoRaWAN/Mac/region/RegionCN779.c **** 
 824:../../../../../../Middlewares/Third_Party/LoRaWAN/Mac/region/RegionCN779.c ****     // Apply Rx1 frequency, if the status is OK
 825:../../../../../../Middlewares/Third_Party/LoRaWAN/Mac/region/RegionCN779.c ****     if( status == 0x03 )
 826:../../../../../../Middlewares/Third_Party/LoRaWAN/Mac/region/RegionCN779.c ****     {
 827:../../../../../../Middlewares/Third_Party/LoRaWAN/Mac/region/RegionCN779.c ****         NvmCtx.Channels[dlChannelReq->ChannelId].Rx1Frequency = dlChannelReq->Rx1Frequency;
 828:../../../../../../Middlewares/Third_Party/LoRaWAN/Mac/region/RegionCN779.c ****     }
 829:../../../../../../Middlewares/Third_Party/LoRaWAN/Mac/region/RegionCN779.c **** 
 830:../../../../../../Middlewares/Third_Party/LoRaWAN/Mac/region/RegionCN779.c ****     return status;
 831:../../../../../../Middlewares/Third_Party/LoRaWAN/Mac/region/RegionCN779.c **** }
 832:../../../../../../Middlewares/Third_Party/LoRaWAN/Mac/region/RegionCN779.c **** 
 833:../../../../../../Middlewares/Third_Party/LoRaWAN/Mac/region/RegionCN779.c **** int8_t RegionCN779AlternateDr( int8_t currentDr, AlternateDrType_t type )
 834:../../../../../../Middlewares/Third_Party/LoRaWAN/Mac/region/RegionCN779.c **** {
 835:../../../../../../Middlewares/Third_Party/LoRaWAN/Mac/region/RegionCN779.c ****     return currentDr;
 836:../../../../../../Middlewares/Third_Party/LoRaWAN/Mac/region/RegionCN779.c **** }
 837:../../../../../../Middlewares/Third_Party/LoRaWAN/Mac/region/RegionCN779.c **** 
 838:../../../../../../Middlewares/Third_Party/LoRaWAN/Mac/region/RegionCN779.c **** void RegionCN779CalcBackOff( CalcBackOffParams_t* calcBackOff )
 839:../../../../../../Middlewares/Third_Party/LoRaWAN/Mac/region/RegionCN779.c **** {
 840:../../../../../../Middlewares/Third_Party/LoRaWAN/Mac/region/RegionCN779.c ****     RegionCommonCalcBackOffParams_t calcBackOffParams;
 841:../../../../../../Middlewares/Third_Party/LoRaWAN/Mac/region/RegionCN779.c **** 
 842:../../../../../../Middlewares/Third_Party/LoRaWAN/Mac/region/RegionCN779.c ****     calcBackOffParams.Channels = NvmCtx.Channels;
 843:../../../../../../Middlewares/Third_Party/LoRaWAN/Mac/region/RegionCN779.c ****     calcBackOffParams.Bands = NvmCtx.Bands;
 844:../../../../../../Middlewares/Third_Party/LoRaWAN/Mac/region/RegionCN779.c ****     calcBackOffParams.LastTxIsJoinRequest = calcBackOff->LastTxIsJoinRequest;
 845:../../../../../../Middlewares/Third_Party/LoRaWAN/Mac/region/RegionCN779.c ****     calcBackOffParams.Joined = calcBackOff->Joined;
 846:../../../../../../Middlewares/Third_Party/LoRaWAN/Mac/region/RegionCN779.c ****     calcBackOffParams.DutyCycleEnabled = calcBackOff->DutyCycleEnabled;
ARM GAS  C:\Users\EBANO_~1\AppData\Local\Temp\ccKJ5gfE.s 			page 29


 847:../../../../../../Middlewares/Third_Party/LoRaWAN/Mac/region/RegionCN779.c ****     calcBackOffParams.Channel = calcBackOff->Channel;
 848:../../../../../../Middlewares/Third_Party/LoRaWAN/Mac/region/RegionCN779.c ****     calcBackOffParams.ElapsedTime = calcBackOff->ElapsedTime;
 849:../../../../../../Middlewares/Third_Party/LoRaWAN/Mac/region/RegionCN779.c ****     calcBackOffParams.TxTimeOnAir = calcBackOff->TxTimeOnAir;
 850:../../../../../../Middlewares/Third_Party/LoRaWAN/Mac/region/RegionCN779.c **** 
 851:../../../../../../Middlewares/Third_Party/LoRaWAN/Mac/region/RegionCN779.c ****     RegionCommonCalcBackOff( &calcBackOffParams );
 852:../../../../../../Middlewares/Third_Party/LoRaWAN/Mac/region/RegionCN779.c **** }
 853:../../../../../../Middlewares/Third_Party/LoRaWAN/Mac/region/RegionCN779.c **** 
 854:../../../../../../Middlewares/Third_Party/LoRaWAN/Mac/region/RegionCN779.c **** LoRaMacStatus_t RegionCN779NextChannel( NextChanParams_t* nextChanParams, uint8_t* channel, TimerTi
 855:../../../../../../Middlewares/Third_Party/LoRaWAN/Mac/region/RegionCN779.c **** {
 856:../../../../../../Middlewares/Third_Party/LoRaWAN/Mac/region/RegionCN779.c ****     uint8_t nbEnabledChannels = 0;
 857:../../../../../../Middlewares/Third_Party/LoRaWAN/Mac/region/RegionCN779.c ****     uint8_t delayTx = 0;
 858:../../../../../../Middlewares/Third_Party/LoRaWAN/Mac/region/RegionCN779.c ****     uint8_t enabledChannels[CN779_MAX_NB_CHANNELS] = { 0 };
 859:../../../../../../Middlewares/Third_Party/LoRaWAN/Mac/region/RegionCN779.c ****     TimerTime_t nextTxDelay = 0;
 860:../../../../../../Middlewares/Third_Party/LoRaWAN/Mac/region/RegionCN779.c **** 
 861:../../../../../../Middlewares/Third_Party/LoRaWAN/Mac/region/RegionCN779.c ****     if( RegionCommonCountChannels( NvmCtx.ChannelsMask, 0, 1 ) == 0 )
 862:../../../../../../Middlewares/Third_Party/LoRaWAN/Mac/region/RegionCN779.c ****     { // Reactivate default channels
 863:../../../../../../Middlewares/Third_Party/LoRaWAN/Mac/region/RegionCN779.c ****         NvmCtx.ChannelsMask[0] |= LC( 1 ) + LC( 2 ) + LC( 3 );
 864:../../../../../../Middlewares/Third_Party/LoRaWAN/Mac/region/RegionCN779.c ****     }
 865:../../../../../../Middlewares/Third_Party/LoRaWAN/Mac/region/RegionCN779.c **** 
 866:../../../../../../Middlewares/Third_Party/LoRaWAN/Mac/region/RegionCN779.c ****     if( nextChanParams->AggrTimeOff <= TimerGetElapsedTime( nextChanParams->LastAggrTx ) )
 867:../../../../../../Middlewares/Third_Party/LoRaWAN/Mac/region/RegionCN779.c ****     {
 868:../../../../../../Middlewares/Third_Party/LoRaWAN/Mac/region/RegionCN779.c ****         // Reset Aggregated time off
 869:../../../../../../Middlewares/Third_Party/LoRaWAN/Mac/region/RegionCN779.c ****         *aggregatedTimeOff = 0;
 870:../../../../../../Middlewares/Third_Party/LoRaWAN/Mac/region/RegionCN779.c **** 
 871:../../../../../../Middlewares/Third_Party/LoRaWAN/Mac/region/RegionCN779.c ****         // Update bands Time OFF
 872:../../../../../../Middlewares/Third_Party/LoRaWAN/Mac/region/RegionCN779.c ****         nextTxDelay = RegionCommonUpdateBandTimeOff( nextChanParams->Joined, nextChanParams->DutyCy
 873:../../../../../../Middlewares/Third_Party/LoRaWAN/Mac/region/RegionCN779.c **** 
 874:../../../../../../Middlewares/Third_Party/LoRaWAN/Mac/region/RegionCN779.c ****         // Search how many channels are enabled
 875:../../../../../../Middlewares/Third_Party/LoRaWAN/Mac/region/RegionCN779.c ****         nbEnabledChannels = CountNbOfEnabledChannels( nextChanParams->Joined, nextChanParams->Datar
 876:../../../../../../Middlewares/Third_Party/LoRaWAN/Mac/region/RegionCN779.c ****                                                       NvmCtx.ChannelsMask, NvmCtx.Channels,
 877:../../../../../../Middlewares/Third_Party/LoRaWAN/Mac/region/RegionCN779.c ****                                                       NvmCtx.Bands, enabledChannels, &delayTx );
 878:../../../../../../Middlewares/Third_Party/LoRaWAN/Mac/region/RegionCN779.c ****     }
 879:../../../../../../Middlewares/Third_Party/LoRaWAN/Mac/region/RegionCN779.c ****     else
 880:../../../../../../Middlewares/Third_Party/LoRaWAN/Mac/region/RegionCN779.c ****     {
 881:../../../../../../Middlewares/Third_Party/LoRaWAN/Mac/region/RegionCN779.c ****         delayTx++;
 882:../../../../../../Middlewares/Third_Party/LoRaWAN/Mac/region/RegionCN779.c ****         nextTxDelay = nextChanParams->AggrTimeOff - TimerGetElapsedTime( nextChanParams->LastAggrTx
 883:../../../../../../Middlewares/Third_Party/LoRaWAN/Mac/region/RegionCN779.c ****     }
 884:../../../../../../Middlewares/Third_Party/LoRaWAN/Mac/region/RegionCN779.c **** 
 885:../../../../../../Middlewares/Third_Party/LoRaWAN/Mac/region/RegionCN779.c ****     if( nbEnabledChannels > 0 )
 886:../../../../../../Middlewares/Third_Party/LoRaWAN/Mac/region/RegionCN779.c ****     {
 887:../../../../../../Middlewares/Third_Party/LoRaWAN/Mac/region/RegionCN779.c ****         // We found a valid channel
 888:../../../../../../Middlewares/Third_Party/LoRaWAN/Mac/region/RegionCN779.c ****         *channel = enabledChannels[randr( 0, nbEnabledChannels - 1 )];
 889:../../../../../../Middlewares/Third_Party/LoRaWAN/Mac/region/RegionCN779.c **** 
 890:../../../../../../Middlewares/Third_Party/LoRaWAN/Mac/region/RegionCN779.c ****         *time = 0;
 891:../../../../../../Middlewares/Third_Party/LoRaWAN/Mac/region/RegionCN779.c ****         return LORAMAC_STATUS_OK;
 892:../../../../../../Middlewares/Third_Party/LoRaWAN/Mac/region/RegionCN779.c ****     }
 893:../../../../../../Middlewares/Third_Party/LoRaWAN/Mac/region/RegionCN779.c ****     else
 894:../../../../../../Middlewares/Third_Party/LoRaWAN/Mac/region/RegionCN779.c ****     {
 895:../../../../../../Middlewares/Third_Party/LoRaWAN/Mac/region/RegionCN779.c ****         if( delayTx > 0 )
 896:../../../../../../Middlewares/Third_Party/LoRaWAN/Mac/region/RegionCN779.c ****         {
 897:../../../../../../Middlewares/Third_Party/LoRaWAN/Mac/region/RegionCN779.c ****             // Delay transmission due to AggregatedTimeOff or to a band time off
 898:../../../../../../Middlewares/Third_Party/LoRaWAN/Mac/region/RegionCN779.c ****             *time = nextTxDelay;
 899:../../../../../../Middlewares/Third_Party/LoRaWAN/Mac/region/RegionCN779.c ****             return LORAMAC_STATUS_DUTYCYCLE_RESTRICTED;
 900:../../../../../../Middlewares/Third_Party/LoRaWAN/Mac/region/RegionCN779.c ****         }
 901:../../../../../../Middlewares/Third_Party/LoRaWAN/Mac/region/RegionCN779.c ****         // Datarate not supported by any channel, restore defaults
 902:../../../../../../Middlewares/Third_Party/LoRaWAN/Mac/region/RegionCN779.c ****         NvmCtx.ChannelsMask[0] |= LC( 1 ) + LC( 2 ) + LC( 3 );
 903:../../../../../../Middlewares/Third_Party/LoRaWAN/Mac/region/RegionCN779.c ****         *time = 0;
ARM GAS  C:\Users\EBANO_~1\AppData\Local\Temp\ccKJ5gfE.s 			page 30


 904:../../../../../../Middlewares/Third_Party/LoRaWAN/Mac/region/RegionCN779.c ****         return LORAMAC_STATUS_NO_CHANNEL_FOUND;
 905:../../../../../../Middlewares/Third_Party/LoRaWAN/Mac/region/RegionCN779.c ****     }
 906:../../../../../../Middlewares/Third_Party/LoRaWAN/Mac/region/RegionCN779.c **** }
 907:../../../../../../Middlewares/Third_Party/LoRaWAN/Mac/region/RegionCN779.c **** 
 908:../../../../../../Middlewares/Third_Party/LoRaWAN/Mac/region/RegionCN779.c **** LoRaMacStatus_t RegionCN779ChannelAdd( ChannelAddParams_t* channelAdd )
 909:../../../../../../Middlewares/Third_Party/LoRaWAN/Mac/region/RegionCN779.c **** {
 910:../../../../../../Middlewares/Third_Party/LoRaWAN/Mac/region/RegionCN779.c ****     bool drInvalid = false;
 911:../../../../../../Middlewares/Third_Party/LoRaWAN/Mac/region/RegionCN779.c ****     bool freqInvalid = false;
 912:../../../../../../Middlewares/Third_Party/LoRaWAN/Mac/region/RegionCN779.c ****     uint8_t id = channelAdd->ChannelId;
 913:../../../../../../Middlewares/Third_Party/LoRaWAN/Mac/region/RegionCN779.c **** 
 914:../../../../../../Middlewares/Third_Party/LoRaWAN/Mac/region/RegionCN779.c ****     if( id < CN779_NUMB_DEFAULT_CHANNELS )
 915:../../../../../../Middlewares/Third_Party/LoRaWAN/Mac/region/RegionCN779.c ****     {
 916:../../../../../../Middlewares/Third_Party/LoRaWAN/Mac/region/RegionCN779.c ****         return LORAMAC_STATUS_FREQ_AND_DR_INVALID;
 917:../../../../../../Middlewares/Third_Party/LoRaWAN/Mac/region/RegionCN779.c ****     }
 918:../../../../../../Middlewares/Third_Party/LoRaWAN/Mac/region/RegionCN779.c **** 
 919:../../../../../../Middlewares/Third_Party/LoRaWAN/Mac/region/RegionCN779.c ****     if( id >= CN779_MAX_NB_CHANNELS )
 920:../../../../../../Middlewares/Third_Party/LoRaWAN/Mac/region/RegionCN779.c ****     {
 921:../../../../../../Middlewares/Third_Party/LoRaWAN/Mac/region/RegionCN779.c ****         return LORAMAC_STATUS_PARAMETER_INVALID;
 922:../../../../../../Middlewares/Third_Party/LoRaWAN/Mac/region/RegionCN779.c ****     }
 923:../../../../../../Middlewares/Third_Party/LoRaWAN/Mac/region/RegionCN779.c **** 
 924:../../../../../../Middlewares/Third_Party/LoRaWAN/Mac/region/RegionCN779.c ****     // Validate the datarate range
 925:../../../../../../Middlewares/Third_Party/LoRaWAN/Mac/region/RegionCN779.c ****     if( RegionCommonValueInRange( channelAdd->NewChannel->DrRange.Fields.Min, CN779_TX_MIN_DATARATE
 926:../../../../../../Middlewares/Third_Party/LoRaWAN/Mac/region/RegionCN779.c ****     {
 927:../../../../../../Middlewares/Third_Party/LoRaWAN/Mac/region/RegionCN779.c ****         drInvalid = true;
 928:../../../../../../Middlewares/Third_Party/LoRaWAN/Mac/region/RegionCN779.c ****     }
 929:../../../../../../Middlewares/Third_Party/LoRaWAN/Mac/region/RegionCN779.c ****     if( RegionCommonValueInRange( channelAdd->NewChannel->DrRange.Fields.Max, CN779_TX_MIN_DATARATE
 930:../../../../../../Middlewares/Third_Party/LoRaWAN/Mac/region/RegionCN779.c ****     {
 931:../../../../../../Middlewares/Third_Party/LoRaWAN/Mac/region/RegionCN779.c ****         drInvalid = true;
 932:../../../../../../Middlewares/Third_Party/LoRaWAN/Mac/region/RegionCN779.c ****     }
 933:../../../../../../Middlewares/Third_Party/LoRaWAN/Mac/region/RegionCN779.c ****     if( channelAdd->NewChannel->DrRange.Fields.Min > channelAdd->NewChannel->DrRange.Fields.Max )
 934:../../../../../../Middlewares/Third_Party/LoRaWAN/Mac/region/RegionCN779.c ****     {
 935:../../../../../../Middlewares/Third_Party/LoRaWAN/Mac/region/RegionCN779.c ****         drInvalid = true;
 936:../../../../../../Middlewares/Third_Party/LoRaWAN/Mac/region/RegionCN779.c ****     }
 937:../../../../../../Middlewares/Third_Party/LoRaWAN/Mac/region/RegionCN779.c **** 
 938:../../../../../../Middlewares/Third_Party/LoRaWAN/Mac/region/RegionCN779.c ****     // Check frequency
 939:../../../../../../Middlewares/Third_Party/LoRaWAN/Mac/region/RegionCN779.c ****     if( freqInvalid == false )
 940:../../../../../../Middlewares/Third_Party/LoRaWAN/Mac/region/RegionCN779.c ****     {
 941:../../../../../../Middlewares/Third_Party/LoRaWAN/Mac/region/RegionCN779.c ****         if( VerifyRfFreq( channelAdd->NewChannel->Frequency ) == false )
 942:../../../../../../Middlewares/Third_Party/LoRaWAN/Mac/region/RegionCN779.c ****         {
 943:../../../../../../Middlewares/Third_Party/LoRaWAN/Mac/region/RegionCN779.c ****             freqInvalid = true;
 944:../../../../../../Middlewares/Third_Party/LoRaWAN/Mac/region/RegionCN779.c ****         }
 945:../../../../../../Middlewares/Third_Party/LoRaWAN/Mac/region/RegionCN779.c ****     }
 946:../../../../../../Middlewares/Third_Party/LoRaWAN/Mac/region/RegionCN779.c **** 
 947:../../../../../../Middlewares/Third_Party/LoRaWAN/Mac/region/RegionCN779.c ****     // Check status
 948:../../../../../../Middlewares/Third_Party/LoRaWAN/Mac/region/RegionCN779.c ****     if( ( drInvalid == true ) && ( freqInvalid == true ) )
 949:../../../../../../Middlewares/Third_Party/LoRaWAN/Mac/region/RegionCN779.c ****     {
 950:../../../../../../Middlewares/Third_Party/LoRaWAN/Mac/region/RegionCN779.c ****         return LORAMAC_STATUS_FREQ_AND_DR_INVALID;
 951:../../../../../../Middlewares/Third_Party/LoRaWAN/Mac/region/RegionCN779.c ****     }
 952:../../../../../../Middlewares/Third_Party/LoRaWAN/Mac/region/RegionCN779.c ****     if( drInvalid == true )
 953:../../../../../../Middlewares/Third_Party/LoRaWAN/Mac/region/RegionCN779.c ****     {
 954:../../../../../../Middlewares/Third_Party/LoRaWAN/Mac/region/RegionCN779.c ****         return LORAMAC_STATUS_DATARATE_INVALID;
 955:../../../../../../Middlewares/Third_Party/LoRaWAN/Mac/region/RegionCN779.c ****     }
 956:../../../../../../Middlewares/Third_Party/LoRaWAN/Mac/region/RegionCN779.c ****     if( freqInvalid == true )
 957:../../../../../../Middlewares/Third_Party/LoRaWAN/Mac/region/RegionCN779.c ****     {
 958:../../../../../../Middlewares/Third_Party/LoRaWAN/Mac/region/RegionCN779.c ****         return LORAMAC_STATUS_FREQUENCY_INVALID;
 959:../../../../../../Middlewares/Third_Party/LoRaWAN/Mac/region/RegionCN779.c ****     }
 960:../../../../../../Middlewares/Third_Party/LoRaWAN/Mac/region/RegionCN779.c **** 
ARM GAS  C:\Users\EBANO_~1\AppData\Local\Temp\ccKJ5gfE.s 			page 31


 961:../../../../../../Middlewares/Third_Party/LoRaWAN/Mac/region/RegionCN779.c ****     memcpy1( ( uint8_t* ) &(NvmCtx.Channels[id]), ( uint8_t* ) channelAdd->NewChannel, sizeof( NvmC
 962:../../../../../../Middlewares/Third_Party/LoRaWAN/Mac/region/RegionCN779.c ****     NvmCtx.Channels[id].Band = 0;
 963:../../../../../../Middlewares/Third_Party/LoRaWAN/Mac/region/RegionCN779.c ****     NvmCtx.ChannelsMask[0] |= ( 1 << id );
 964:../../../../../../Middlewares/Third_Party/LoRaWAN/Mac/region/RegionCN779.c ****     return LORAMAC_STATUS_OK;
 965:../../../../../../Middlewares/Third_Party/LoRaWAN/Mac/region/RegionCN779.c **** }
 966:../../../../../../Middlewares/Third_Party/LoRaWAN/Mac/region/RegionCN779.c **** 
 967:../../../../../../Middlewares/Third_Party/LoRaWAN/Mac/region/RegionCN779.c **** bool RegionCN779ChannelsRemove( ChannelRemoveParams_t* channelRemove  )
 968:../../../../../../Middlewares/Third_Party/LoRaWAN/Mac/region/RegionCN779.c **** {
 969:../../../../../../Middlewares/Third_Party/LoRaWAN/Mac/region/RegionCN779.c ****     uint8_t id = channelRemove->ChannelId;
 970:../../../../../../Middlewares/Third_Party/LoRaWAN/Mac/region/RegionCN779.c **** 
 971:../../../../../../Middlewares/Third_Party/LoRaWAN/Mac/region/RegionCN779.c ****     if( id < CN779_NUMB_DEFAULT_CHANNELS )
 972:../../../../../../Middlewares/Third_Party/LoRaWAN/Mac/region/RegionCN779.c ****     {
 973:../../../../../../Middlewares/Third_Party/LoRaWAN/Mac/region/RegionCN779.c ****         return false;
 974:../../../../../../Middlewares/Third_Party/LoRaWAN/Mac/region/RegionCN779.c ****     }
 975:../../../../../../Middlewares/Third_Party/LoRaWAN/Mac/region/RegionCN779.c **** 
 976:../../../../../../Middlewares/Third_Party/LoRaWAN/Mac/region/RegionCN779.c ****     // Remove the channel from the list of channels
 977:../../../../../../Middlewares/Third_Party/LoRaWAN/Mac/region/RegionCN779.c ****     NvmCtx.Channels[id] = ( ChannelParams_t ){ 0, 0, { 0 }, 0 };
 684              		.loc 1 977 0
 685 0032 3F4B     		ldr	r3, .L77
 686              	.LBE33:
 687              	.LBE32:
 688              	.LBE31:
 689 0034 0126     		movs	r6, #1
 690              	.LBB46:
 691              	.LBB36:
 692              	.LBB34:
 693 0036 9946     		mov	r9, r3
 694 0038 3E4B     		ldr	r3, .L77+4
 695              	.LBE34:
 696              	.LBE36:
 697              	.LBE46:
 698 003a 0325     		movs	r5, #3
 699 003c 9B46     		mov	fp, r3
 700 003e 14E0     		b	.L67
 701              	.LVL39:
 702              	.L61:
 703              	.LBB47:
 467:../../../../../../Middlewares/Third_Party/LoRaWAN/Mac/region/RegionCN779.c ****             newChannel.DrRange.Value = 0;
 704              		.loc 1 467 0
 705 0040 0023     		movs	r3, #0
 706              	.LVL40:
 707 0042 2360     		str	r3, [r4]
 468:../../../../../../Middlewares/Third_Party/LoRaWAN/Mac/region/RegionCN779.c ****             newChannel.Rx1Frequency = 0;
 708              		.loc 1 468 0
 709 0044 2372     		strb	r3, [r4, #8]
 469:../../../../../../Middlewares/Third_Party/LoRaWAN/Mac/region/RegionCN779.c ****         }
 710              		.loc 1 469 0
 711 0046 6360     		str	r3, [r4, #4]
 712              	.L63:
 713              	.LVL41:
 714              	.LBB37:
 715              	.LBB35:
 716              		.loc 1 977 0
 717 0048 6800     		lsls	r0, r5, #1
 718 004a 4019     		adds	r0, r0, r5
 719 004c 8000     		lsls	r0, r0, #2
 720 004e 0C22     		movs	r2, #12
ARM GAS  C:\Users\EBANO_~1\AppData\Local\Temp\ccKJ5gfE.s 			page 32


 721 0050 0021     		movs	r1, #0
 722 0052 4844     		add	r0, r0, r9
 723 0054 FFF7FEFF 		bl	memset
 724              	.LVL42:
 978:../../../../../../Middlewares/Third_Party/LoRaWAN/Mac/region/RegionCN779.c **** 
 979:../../../../../../Middlewares/Third_Party/LoRaWAN/Mac/region/RegionCN779.c ****     return RegionCommonChanDisable( NvmCtx.ChannelsMask, id, CN779_MAX_NB_CHANNELS );
 725              		.loc 1 979 0
 726 0058 1022     		movs	r2, #16
 727 005a 4146     		mov	r1, r8
 728 005c 3648     		ldr	r0, .L77+8
 729 005e FFF7FEFF 		bl	RegionCommonChanDisable
 730              	.LVL43:
 731              	.L65:
 732 0062 0336     		adds	r6, r6, #3
 733              	.LVL44:
 734 0064 0135     		adds	r5, r5, #1
 735              	.LVL45:
 736              	.LBE35:
 737              	.LBE37:
 452:../../../../../../Middlewares/Third_Party/LoRaWAN/Mac/region/RegionCN779.c ****     {
 738              		.loc 1 452 0 discriminator 2
 739 0066 282E     		cmp	r6, #40
 740 0068 D8D0     		beq	.L59
 741              	.L67:
 742 006a EBB2     		uxtb	r3, r5
 743 006c 9846     		mov	r8, r3
 744              	.LVL46:
 454:../../../../../../Middlewares/Third_Party/LoRaWAN/Mac/region/RegionCN779.c ****         {
 745              		.loc 1 454 0
 746 006e 072D     		cmp	r5, #7
 747 0070 E6D8     		bhi	.L61
 457:../../../../../../Middlewares/Third_Party/LoRaWAN/Mac/region/RegionCN779.c ****             newChannel.Frequency |= ( (uint32_t) applyCFList->Payload[i + 1] << 8 );
 748              		.loc 1 457 0
 749 0072 3B68     		ldr	r3, [r7]
 750              	.LVL47:
 751 0074 9A19     		adds	r2, r3, r6
 752 0076 511E     		subs	r1, r2, #1
 753 0078 0978     		ldrb	r1, [r1]
 754 007a 2160     		str	r1, [r4]
 458:../../../../../../Middlewares/Third_Party/LoRaWAN/Mac/region/RegionCN779.c ****             newChannel.Frequency |= ( (uint32_t) applyCFList->Payload[i + 2] << 16 );
 755              		.loc 1 458 0
 756 007c 9B5D     		ldrb	r3, [r3, r6]
 757 007e 1B02     		lsls	r3, r3, #8
 758 0080 0B43     		orrs	r3, r1
 759 0082 2360     		str	r3, [r4]
 459:../../../../../../Middlewares/Third_Party/LoRaWAN/Mac/region/RegionCN779.c ****             newChannel.Frequency *= 100;
 760              		.loc 1 459 0
 761 0084 5278     		ldrb	r2, [r2, #1]
 762 0086 1204     		lsls	r2, r2, #16
 763 0088 1343     		orrs	r3, r2
 460:../../../../../../Middlewares/Third_Party/LoRaWAN/Mac/region/RegionCN779.c **** 
 764              		.loc 1 460 0
 765 008a 6422     		movs	r2, #100
 766 008c 5343     		muls	r3, r2
 463:../../../../../../Middlewares/Third_Party/LoRaWAN/Mac/region/RegionCN779.c ****         }
 767              		.loc 1 463 0
 768 008e 0022     		movs	r2, #0
ARM GAS  C:\Users\EBANO_~1\AppData\Local\Temp\ccKJ5gfE.s 			page 33


 460:../../../../../../Middlewares/Third_Party/LoRaWAN/Mac/region/RegionCN779.c **** 
 769              		.loc 1 460 0
 770 0090 2360     		str	r3, [r4]
 463:../../../../../../Middlewares/Third_Party/LoRaWAN/Mac/region/RegionCN779.c ****         }
 771              		.loc 1 463 0
 772 0092 6260     		str	r2, [r4, #4]
 472:../../../../../../Middlewares/Third_Party/LoRaWAN/Mac/region/RegionCN779.c ****         {
 773              		.loc 1 472 0
 774 0094 002B     		cmp	r3, #0
 775 0096 D7D0     		beq	.L63
 776              	.LVL48:
 777              	.LBB38:
 778              	.LBB39:
 925:../../../../../../Middlewares/Third_Party/LoRaWAN/Mac/region/RegionCN779.c ****     {
 779              		.loc 1 925 0
 780 0098 207A     		ldrb	r0, [r4, #8]
 781 009a 0722     		movs	r2, #7
 782 009c 0007     		lsls	r0, r0, #28
 783 009e 0021     		movs	r1, #0
 784 00a0 0017     		asrs	r0, r0, #28
 785 00a2 FFF7FEFF 		bl	RegionCommonValueInRange
 786              	.LVL49:
 787 00a6 8046     		mov	r8, r0
 788              	.LVL50:
 929:../../../../../../Middlewares/Third_Party/LoRaWAN/Mac/region/RegionCN779.c ****     {
 789              		.loc 1 929 0
 790 00a8 0820     		movs	r0, #8
 791 00aa 2056     		ldrsb	r0, [r4, r0]
 792 00ac 0722     		movs	r2, #7
 793 00ae 0011     		asrs	r0, r0, #4
 794 00b0 0021     		movs	r1, #0
 795 00b2 FFF7FEFF 		bl	RegionCommonValueInRange
 796              	.LVL51:
 931:../../../../../../Middlewares/Third_Party/LoRaWAN/Mac/region/RegionCN779.c ****     }
 797              		.loc 1 931 0
 798 00b6 0123     		movs	r3, #1
 799 00b8 9A46     		mov	r10, r3
 929:../../../../../../Middlewares/Third_Party/LoRaWAN/Mac/region/RegionCN779.c ****     {
 800              		.loc 1 929 0
 801 00ba 0028     		cmp	r0, #0
 802 00bc 04D0     		beq	.L68
 925:../../../../../../Middlewares/Third_Party/LoRaWAN/Mac/region/RegionCN779.c ****     {
 803              		.loc 1 925 0
 804 00be 4346     		mov	r3, r8
 805 00c0 5A42     		rsbs	r2, r3, #0
 806 00c2 5341     		adcs	r3, r3, r2
 807 00c4 DBB2     		uxtb	r3, r3
 808 00c6 9A46     		mov	r10, r3
 809              	.L68:
 810              	.LVL52:
 811 00c8 2368     		ldr	r3, [r4]
 812 00ca 9846     		mov	r8, r3
 813 00cc 5B46     		mov	r3, fp
 814 00ce 9B6A     		ldr	r3, [r3, #40]
 815              	.LBB40:
 816              	.LBB41:
 111:../../../../../../Middlewares/Third_Party/LoRaWAN/Mac/region/RegionCN779.c ****     {
ARM GAS  C:\Users\EBANO_~1\AppData\Local\Temp\ccKJ5gfE.s 			page 34


 817              		.loc 1 111 0
 818 00d0 4046     		mov	r0, r8
 819 00d2 0193     		str	r3, [sp, #4]
 820              	.LBE41:
 821              	.LBE40:
 933:../../../../../../Middlewares/Third_Party/LoRaWAN/Mac/region/RegionCN779.c ****     {
 822              		.loc 1 933 0
 823 00d4 237A     		ldrb	r3, [r4, #8]
 824 00d6 1A07     		lsls	r2, r3, #28
 825 00d8 5BB2     		sxtb	r3, r3
 826 00da 1217     		asrs	r2, r2, #28
 827 00dc 1B11     		asrs	r3, r3, #4
 828 00de 9A42     		cmp	r2, r3
 829 00e0 23DC     		bgt	.L64
 830              	.LVL53:
 831              	.LBB44:
 832              	.LBB42:
 111:../../../../../../Middlewares/Third_Party/LoRaWAN/Mac/region/RegionCN779.c ****     {
 833              		.loc 1 111 0
 834 00e2 019B     		ldr	r3, [sp, #4]
 835 00e4 9847     		blx	r3
 836              	.LVL54:
 837 00e6 0028     		cmp	r0, #0
 838 00e8 BBD0     		beq	.L65
 116:../../../../../../Middlewares/Third_Party/LoRaWAN/Mac/region/RegionCN779.c ****     {
 839              		.loc 1 116 0
 840 00ea 144A     		ldr	r2, .L77+12
 841 00ec 144B     		ldr	r3, .L77+16
 842 00ee 4244     		add	r2, r2, r8
 843 00f0 9A42     		cmp	r2, r3
 844 00f2 B6D8     		bhi	.L65
 845              	.LBE42:
 846              	.LBE44:
 948:../../../../../../Middlewares/Third_Party/LoRaWAN/Mac/region/RegionCN779.c ****     {
 847              		.loc 1 948 0
 848 00f4 5346     		mov	r3, r10
 849 00f6 002B     		cmp	r3, #0
 850 00f8 B3D1     		bne	.L65
 961:../../../../../../Middlewares/Third_Party/LoRaWAN/Mac/region/RegionCN779.c ****     NvmCtx.Channels[id].Band = 0;
 851              		.loc 1 961 0
 852 00fa 0D4B     		ldr	r3, .L77
 853 00fc 6800     		lsls	r0, r5, #1
 854 00fe 9846     		mov	r8, r3
 855 0100 4019     		adds	r0, r0, r5
 856 0102 8000     		lsls	r0, r0, #2
 857 0104 0C22     		movs	r2, #12
 858 0106 2100     		movs	r1, r4
 859 0108 4044     		add	r0, r0, r8
 860 010a FFF7FEFF 		bl	memcpy1
 861              	.LVL55:
 962:../../../../../../Middlewares/Third_Party/LoRaWAN/Mac/region/RegionCN779.c ****     NvmCtx.ChannelsMask[0] |= ( 1 << id );
 862              		.loc 1 962 0
 863 010e 4246     		mov	r2, r8
 864 0110 5146     		mov	r1, r10
 865 0112 B300     		lsls	r3, r6, #2
 866 0114 2933     		adds	r3, r3, #41
 867 0116 D154     		strb	r1, [r2, r3]
ARM GAS  C:\Users\EBANO_~1\AppData\Local\Temp\ccKJ5gfE.s 			page 35


 963:../../../../../../Middlewares/Third_Party/LoRaWAN/Mac/region/RegionCN779.c ****     return LORAMAC_STATUS_OK;
 868              		.loc 1 963 0
 869 0118 0122     		movs	r2, #1
 870 011a D021     		movs	r1, #208
 871 011c 4346     		mov	r3, r8
 872 011e AA40     		lsls	r2, r2, r5
 873 0120 5B5A     		ldrh	r3, [r3, r1]
 874 0122 1343     		orrs	r3, r2
 875 0124 4246     		mov	r2, r8
 876 0126 5352     		strh	r3, [r2, r1]
 877 0128 9BE7     		b	.L65
 878              	.L64:
 879              	.LVL56:
 880              	.LBB45:
 881              	.LBB43:
 111:../../../../../../Middlewares/Third_Party/LoRaWAN/Mac/region/RegionCN779.c ****     {
 882              		.loc 1 111 0
 883 012a 019B     		ldr	r3, [sp, #4]
 884 012c 9847     		blx	r3
 885              	.LVL57:
 886 012e 98E7     		b	.L65
 887              	.L78:
 888              		.align	2
 889              	.L77:
 890 0130 00000000 		.word	NvmCtx
 891 0134 00000000 		.word	Radio
 892 0138 D0000000 		.word	NvmCtx+208
 893 013c 20C689D1 		.word	-779500000
 894 0140 C0CF6A00 		.word	7000000
 895              	.LBE43:
 896              	.LBE45:
 897              	.LBE39:
 898              	.LBE38:
 899              	.LBE47:
 900              		.cfi_endproc
 901              	.LFE49:
 902              		.size	RegionCN779ApplyCFList, .-RegionCN779ApplyCFList
 903              		.section	.text.RegionCN779ChanMaskSet,"ax",%progbits
 904              		.align	1
 905              		.p2align 2,,3
 906              		.global	RegionCN779ChanMaskSet
 907              		.syntax unified
 908              		.code	16
 909              		.thumb_func
 910              		.fpu softvfp
 911              		.type	RegionCN779ChanMaskSet, %function
 912              	RegionCN779ChanMaskSet:
 913              	.LFB50:
 490:../../../../../../Middlewares/Third_Party/LoRaWAN/Mac/region/RegionCN779.c ****     switch( chanMaskSet->ChannelsMaskType )
 914              		.loc 1 490 0
 915              		.cfi_startproc
 916              		@ args = 0, pretend = 0, frame = 0
 917              		@ frame_needed = 0, uses_anonymous_args = 0
 918              	.LVL58:
 919 0000 10B5     		push	{r4, lr}
 920              	.LCFI9:
 921              		.cfi_def_cfa_offset 8
ARM GAS  C:\Users\EBANO_~1\AppData\Local\Temp\ccKJ5gfE.s 			page 36


 922              		.cfi_offset 4, -8
 923              		.cfi_offset 14, -4
 491:../../../../../../Middlewares/Third_Party/LoRaWAN/Mac/region/RegionCN779.c ****     {
 924              		.loc 1 491 0
 925 0002 0379     		ldrb	r3, [r0, #4]
 926 0004 002B     		cmp	r3, #0
 927 0006 0AD0     		beq	.L81
 928 0008 012B     		cmp	r3, #1
 929 000a 01D0     		beq	.L82
 504:../../../../../../Middlewares/Third_Party/LoRaWAN/Mac/region/RegionCN779.c ****     }
 930              		.loc 1 504 0
 931 000c 0020     		movs	r0, #0
 932              	.LVL59:
 933              	.L80:
 507:../../../../../../Middlewares/Third_Party/LoRaWAN/Mac/region/RegionCN779.c **** 
 934              		.loc 1 507 0
 935              		@ sp needed
 936 000e 10BD     		pop	{r4, pc}
 937              	.LVL60:
 938              	.L82:
 500:../../../../../../Middlewares/Third_Party/LoRaWAN/Mac/region/RegionCN779.c ****             break;
 939              		.loc 1 500 0
 940 0010 0168     		ldr	r1, [r0]
 941 0012 0122     		movs	r2, #1
 942 0014 0548     		ldr	r0, .L85
 943              	.LVL61:
 944 0016 FFF7FEFF 		bl	RegionCommonChanMaskCopy
 945              	.LVL62:
 506:../../../../../../Middlewares/Third_Party/LoRaWAN/Mac/region/RegionCN779.c **** }
 946              		.loc 1 506 0
 947 001a 0120     		movs	r0, #1
 501:../../../../../../Middlewares/Third_Party/LoRaWAN/Mac/region/RegionCN779.c ****         }
 948              		.loc 1 501 0
 949 001c F7E7     		b	.L80
 950              	.LVL63:
 951              	.L81:
 495:../../../../../../Middlewares/Third_Party/LoRaWAN/Mac/region/RegionCN779.c ****             break;
 952              		.loc 1 495 0
 953 001e 0168     		ldr	r1, [r0]
 954 0020 0122     		movs	r2, #1
 955 0022 0348     		ldr	r0, .L85+4
 956              	.LVL64:
 957 0024 FFF7FEFF 		bl	RegionCommonChanMaskCopy
 958              	.LVL65:
 506:../../../../../../Middlewares/Third_Party/LoRaWAN/Mac/region/RegionCN779.c **** }
 959              		.loc 1 506 0
 960 0028 0120     		movs	r0, #1
 496:../../../../../../Middlewares/Third_Party/LoRaWAN/Mac/region/RegionCN779.c ****         }
 961              		.loc 1 496 0
 962 002a F0E7     		b	.L80
 963              	.L86:
 964              		.align	2
 965              	.L85:
 966 002c D2000000 		.word	NvmCtx+210
 967 0030 D0000000 		.word	NvmCtx+208
 968              		.cfi_endproc
 969              	.LFE50:
ARM GAS  C:\Users\EBANO_~1\AppData\Local\Temp\ccKJ5gfE.s 			page 37


 970              		.size	RegionCN779ChanMaskSet, .-RegionCN779ChanMaskSet
 971              		.section	.text.RegionCN779ComputeRxWindowParameters,"ax",%progbits
 972              		.align	1
 973              		.p2align 2,,3
 974              		.global	RegionCN779ComputeRxWindowParameters
 975              		.syntax unified
 976              		.code	16
 977              		.thumb_func
 978              		.fpu softvfp
 979              		.type	RegionCN779ComputeRxWindowParameters, %function
 980              	RegionCN779ComputeRxWindowParameters:
 981              	.LFB51:
 510:../../../../../../Middlewares/Third_Party/LoRaWAN/Mac/region/RegionCN779.c ****     double tSymbol = 0.0;
 982              		.loc 1 510 0
 983              		.cfi_startproc
 984              		@ args = 0, pretend = 0, frame = 8
 985              		@ frame_needed = 0, uses_anonymous_args = 0
 986              	.LVL66:
 987 0000 F0B5     		push	{r4, r5, r6, r7, lr}
 988              	.LCFI10:
 989              		.cfi_def_cfa_offset 20
 990              		.cfi_offset 4, -20
 991              		.cfi_offset 5, -16
 992              		.cfi_offset 6, -12
 993              		.cfi_offset 7, -8
 994              		.cfi_offset 14, -4
 995 0002 C646     		mov	lr, r8
 996 0004 00B5     		push	{lr}
 997              	.LCFI11:
 998              		.cfi_def_cfa_offset 24
 999              		.cfi_offset 8, -24
 1000 0006 1C00     		movs	r4, r3
 1001 0008 86B0     		sub	sp, sp, #24
 1002              	.LCFI12:
 1003              		.cfi_def_cfa_offset 48
 510:../../../../../../Middlewares/Third_Party/LoRaWAN/Mac/region/RegionCN779.c ****     double tSymbol = 0.0;
 1004              		.loc 1 510 0
 1005 000a 0D00     		movs	r5, r1
 1006 000c 9046     		mov	r8, r2
 514:../../../../../../Middlewares/Third_Party/LoRaWAN/Mac/region/RegionCN779.c ****     rxConfigParams->Bandwidth = GetBandwidth( rxConfigParams->Datarate );
 1007              		.loc 1 514 0
 1008 000e 031C     		adds	r3, r0, #0
 1009              	.LVL67:
 1010 0010 0728     		cmp	r0, #7
 1011 0012 00DD     		ble	.L88
 1012 0014 0723     		movs	r3, #7
 1013              	.L88:
 1014 0016 5EB2     		sxtb	r6, r3
 1015              	.LBB48:
 1016              	.LBB49:
  86:../../../../../../Middlewares/Third_Party/LoRaWAN/Mac/region/RegionCN779.c ****     {
 1017              		.loc 1 86 0
 1018 0018 1A4A     		ldr	r2, .L96
 1019              	.LVL68:
 1020 001a B100     		lsls	r1, r6, #2
 1021              	.LVL69:
 1022              	.LBE49:
ARM GAS  C:\Users\EBANO_~1\AppData\Local\Temp\ccKJ5gfE.s 			page 38


 1023              	.LBE48:
 514:../../../../../../Middlewares/Third_Party/LoRaWAN/Mac/region/RegionCN779.c ****     rxConfigParams->Bandwidth = GetBandwidth( rxConfigParams->Datarate );
 1024              		.loc 1 514 0
 1025 001c 6370     		strb	r3, [r4, #1]
 1026              	.LVL70:
 1027              	.LBB52:
 1028              	.LBB50:
  86:../../../../../../Middlewares/Third_Party/LoRaWAN/Mac/region/RegionCN779.c ****     {
 1029              		.loc 1 86 0
 1030 001e 1A4F     		ldr	r7, .L96+4
 1031 0020 5358     		ldr	r3, [r2, r1]
 1032 0022 BB42     		cmp	r3, r7
 1033 0024 24D0     		beq	.L94
 1034 0026 194F     		ldr	r7, .L96+8
 1035 0028 BC46     		mov	ip, r7
 1036 002a 6344     		add	r3, r3, ip
 1037 002c 5F42     		rsbs	r7, r3, #0
 1038 002e 7B41     		adcs	r3, r3, r7
 1039 0030 5B00     		lsls	r3, r3, #1
 1040              	.LBE50:
 1041              	.LBE52:
 515:../../../../../../Middlewares/Third_Party/LoRaWAN/Mac/region/RegionCN779.c **** 
 1042              		.loc 1 515 0
 1043 0032 A370     		strb	r3, [r4, #2]
 517:../../../../../../Middlewares/Third_Party/LoRaWAN/Mac/region/RegionCN779.c ****     { // FSK
 1044              		.loc 1 517 0
 1045 0034 0628     		cmp	r0, #6
 1046 0036 1FDC     		bgt	.L95
 1047              	.L92:
 523:../../../../../../Middlewares/Third_Party/LoRaWAN/Mac/region/RegionCN779.c ****     }
 1048              		.loc 1 523 0
 1049 0038 2023     		movs	r3, #32
 1050 003a 5158     		ldr	r1, [r2, r1]
 1051 003c 9219     		adds	r2, r2, r6
 1052 003e D05C     		ldrb	r0, [r2, r3]
 1053              	.LVL71:
 1054 0040 FFF7FEFF 		bl	RegionCommonComputeSymbolTimeLoRa
 1055              	.LVL72:
 1056 0044 0600     		movs	r6, r0
 1057 0046 0F00     		movs	r7, r1
 1058              	.LVL73:
 1059              	.L93:
 526:../../../../../../Middlewares/Third_Party/LoRaWAN/Mac/region/RegionCN779.c **** }
 1060              		.loc 1 526 0
 1061 0048 114B     		ldr	r3, .L96+12
 1062 004a 5B6E     		ldr	r3, [r3, #100]
 1063 004c 0593     		str	r3, [sp, #20]
 1064 004e 9847     		blx	r3
 1065              	.LVL74:
 1066 0050 2300     		movs	r3, r4
 1067 0052 0834     		adds	r4, r4, #8
 1068              	.LVL75:
 1069 0054 0C33     		adds	r3, r3, #12
 1070              	.LVL76:
 1071 0056 0293     		str	r3, [sp, #8]
 1072 0058 0090     		str	r0, [sp]
 1073 005a 0194     		str	r4, [sp, #4]
ARM GAS  C:\Users\EBANO_~1\AppData\Local\Temp\ccKJ5gfE.s 			page 39


 1074 005c 4346     		mov	r3, r8
 1075              	.LVL77:
 1076 005e 2A00     		movs	r2, r5
 1077 0060 3000     		movs	r0, r6
 1078 0062 3900     		movs	r1, r7
 1079 0064 FFF7FEFF 		bl	RegionCommonComputeRxWindowParameters
 1080              	.LVL78:
 527:../../../../../../Middlewares/Third_Party/LoRaWAN/Mac/region/RegionCN779.c **** 
 1081              		.loc 1 527 0
 1082 0068 06B0     		add	sp, sp, #24
 1083              		@ sp needed
 1084              	.LVL79:
 1085              	.LVL80:
 1086              	.LVL81:
 1087 006a 04BC     		pop	{r2}
 1088 006c 9046     		mov	r8, r2
 1089 006e F0BD     		pop	{r4, r5, r6, r7, pc}
 1090              	.LVL82:
 1091              	.L94:
 1092              	.LBB53:
 1093              	.LBB51:
  86:../../../../../../Middlewares/Third_Party/LoRaWAN/Mac/region/RegionCN779.c ****     {
 1094              		.loc 1 86 0
 1095 0070 0123     		movs	r3, #1
 1096              	.LBE51:
 1097              	.LBE53:
 515:../../../../../../Middlewares/Third_Party/LoRaWAN/Mac/region/RegionCN779.c **** 
 1098              		.loc 1 515 0
 1099 0072 A370     		strb	r3, [r4, #2]
 517:../../../../../../Middlewares/Third_Party/LoRaWAN/Mac/region/RegionCN779.c ****     { // FSK
 1100              		.loc 1 517 0
 1101 0074 0628     		cmp	r0, #6
 1102 0076 DFDD     		ble	.L92
 1103              	.L95:
 519:../../../../../../Middlewares/Third_Party/LoRaWAN/Mac/region/RegionCN779.c ****     }
 1104              		.loc 1 519 0
 1105 0078 3220     		movs	r0, #50
 1106              	.LVL83:
 1107 007a FFF7FEFF 		bl	RegionCommonComputeSymbolTimeFsk
 1108              	.LVL84:
 1109 007e 0600     		movs	r6, r0
 1110 0080 0F00     		movs	r7, r1
 1111              	.LVL85:
 1112 0082 E1E7     		b	.L93
 1113              	.L97:
 1114              		.align	2
 1115              	.L96:
 1116 0084 D8000000 		.word	.LANCHOR1
 1117 0088 90D00300 		.word	250000
 1118 008c E05EF8FF 		.word	-500000
 1119 0090 00000000 		.word	Radio
 1120              		.cfi_endproc
 1121              	.LFE51:
 1122              		.size	RegionCN779ComputeRxWindowParameters, .-RegionCN779ComputeRxWindowParameters
 1123              		.section	.text.RegionCN779RxConfig,"ax",%progbits
 1124              		.align	1
 1125              		.p2align 2,,3
ARM GAS  C:\Users\EBANO_~1\AppData\Local\Temp\ccKJ5gfE.s 			page 40


 1126              		.global	RegionCN779RxConfig
 1127              		.syntax unified
 1128              		.code	16
 1129              		.thumb_func
 1130              		.fpu softvfp
 1131              		.type	RegionCN779RxConfig, %function
 1132              	RegionCN779RxConfig:
 1133              	.LFB52:
 530:../../../../../../Middlewares/Third_Party/LoRaWAN/Mac/region/RegionCN779.c ****     RadioModems_t modem;
 1134              		.loc 1 530 0
 1135              		.cfi_startproc
 1136              		@ args = 0, pretend = 0, frame = 8
 1137              		@ frame_needed = 0, uses_anonymous_args = 0
 1138              	.LVL86:
 1139 0000 F0B5     		push	{r4, r5, r6, r7, lr}
 1140              	.LCFI13:
 1141              		.cfi_def_cfa_offset 20
 1142              		.cfi_offset 4, -20
 1143              		.cfi_offset 5, -16
 1144              		.cfi_offset 6, -12
 1145              		.cfi_offset 7, -8
 1146              		.cfi_offset 14, -4
 1147 0002 D646     		mov	lr, r10
 1148 0004 4646     		mov	r6, r8
 1149 0006 4F46     		mov	r7, r9
 1150 0008 C0B5     		push	{r6, r7, lr}
 1151              	.LCFI14:
 1152              		.cfi_def_cfa_offset 32
 1153              		.cfi_offset 8, -32
 1154              		.cfi_offset 9, -28
 1155              		.cfi_offset 10, -24
 532:../../../../../../Middlewares/Third_Party/LoRaWAN/Mac/region/RegionCN779.c ****     uint8_t maxPayload = 0;
 1156              		.loc 1 532 0
 1157 000a 0126     		movs	r6, #1
 535:../../../../../../Middlewares/Third_Party/LoRaWAN/Mac/region/RegionCN779.c **** 
 1158              		.loc 1 535 0
 1159 000c 4368     		ldr	r3, [r0, #4]
 537:../../../../../../Middlewares/Third_Party/LoRaWAN/Mac/region/RegionCN779.c ****     {
 1160              		.loc 1 537 0
 1161 000e 394D     		ldr	r5, .L108
 535:../../../../../../Middlewares/Third_Party/LoRaWAN/Mac/region/RegionCN779.c **** 
 1162              		.loc 1 535 0
 1163 0010 9846     		mov	r8, r3
 537:../../../../../../Middlewares/Third_Party/LoRaWAN/Mac/region/RegionCN779.c ****     {
 1164              		.loc 1 537 0
 1165 0012 EB68     		ldr	r3, [r5, #12]
 530:../../../../../../Middlewares/Third_Party/LoRaWAN/Mac/region/RegionCN779.c ****     RadioModems_t modem;
 1166              		.loc 1 530 0
 1167 0014 8CB0     		sub	sp, sp, #48
 1168              	.LCFI15:
 1169              		.cfi_def_cfa_offset 80
 532:../../../../../../Middlewares/Third_Party/LoRaWAN/Mac/region/RegionCN779.c ****     uint8_t maxPayload = 0;
 1170              		.loc 1 532 0
 1171 0016 8657     		ldrsb	r6, [r0, r6]
 1172              	.LVL87:
 530:../../../../../../Middlewares/Third_Party/LoRaWAN/Mac/region/RegionCN779.c ****     RadioModems_t modem;
 1173              		.loc 1 530 0
ARM GAS  C:\Users\EBANO_~1\AppData\Local\Temp\ccKJ5gfE.s 			page 41


 1174 0018 0400     		movs	r4, r0
 537:../../../../../../Middlewares/Third_Party/LoRaWAN/Mac/region/RegionCN779.c ****     {
 1175              		.loc 1 537 0
 1176 001a 0B93     		str	r3, [sp, #44]
 530:../../../../../../Middlewares/Third_Party/LoRaWAN/Mac/region/RegionCN779.c ****     RadioModems_t modem;
 1177              		.loc 1 530 0
 1178 001c 8A46     		mov	r10, r1
 537:../../../../../../Middlewares/Third_Party/LoRaWAN/Mac/region/RegionCN779.c ****     {
 1179              		.loc 1 537 0
 1180 001e 9847     		blx	r3
 1181              	.LVL88:
 539:../../../../../../Middlewares/Third_Party/LoRaWAN/Mac/region/RegionCN779.c ****     }
 1182              		.loc 1 539 0
 1183 0020 0023     		movs	r3, #0
 537:../../../../../../Middlewares/Third_Party/LoRaWAN/Mac/region/RegionCN779.c ****     {
 1184              		.loc 1 537 0
 1185 0022 0028     		cmp	r0, #0
 1186 0024 3ED1     		bne	.L99
 542:../../../../../../Middlewares/Third_Party/LoRaWAN/Mac/region/RegionCN779.c ****     {
 1187              		.loc 1 542 0
 1188 0026 E37C     		ldrb	r3, [r4, #19]
 1189 0028 002B     		cmp	r3, #0
 1190 002a 0AD1     		bne	.L100
 545:../../../../../../Middlewares/Third_Party/LoRaWAN/Mac/region/RegionCN779.c ****         // Apply the alternative RX 1 window frequency, if it is available
 1191              		.loc 1 545 0
 1192 002c 2178     		ldrb	r1, [r4]
 1193 002e 324A     		ldr	r2, .L108+4
 1194 0030 4B00     		lsls	r3, r1, #1
 1195 0032 5B18     		adds	r3, r3, r1
 1196 0034 9B00     		lsls	r3, r3, #2
 1197 0036 9958     		ldr	r1, [r3, r2]
 1198              	.LVL89:
 547:../../../../../../Middlewares/Third_Party/LoRaWAN/Mac/region/RegionCN779.c ****         {
 1199              		.loc 1 547 0
 1200 0038 D318     		adds	r3, r2, r3
 1201 003a 5B68     		ldr	r3, [r3, #4]
 1202 003c 9846     		mov	r8, r3
 1203 003e 002B     		cmp	r3, #0
 1204 0040 56D0     		beq	.L106
 1205              	.LVL90:
 1206              	.L100:
 554:../../../../../../Middlewares/Third_Party/LoRaWAN/Mac/region/RegionCN779.c **** 
 1207              		.loc 1 554 0
 1208 0042 2022     		movs	r2, #32
 1209 0044 2D4B     		ldr	r3, .L108+8
 556:../../../../../../Middlewares/Third_Party/LoRaWAN/Mac/region/RegionCN779.c **** 
 1210              		.loc 1 556 0
 1211 0046 4046     		mov	r0, r8
 554:../../../../../../Middlewares/Third_Party/LoRaWAN/Mac/region/RegionCN779.c **** 
 1212              		.loc 1 554 0
 1213 0048 9B19     		adds	r3, r3, r6
 1214 004a 9B56     		ldrsb	r3, [r3, r2]
 1215 004c 9946     		mov	r9, r3
 1216              	.LVL91:
 556:../../../../../../Middlewares/Third_Party/LoRaWAN/Mac/region/RegionCN779.c **** 
 1217              		.loc 1 556 0
 1218 004e 6B69     		ldr	r3, [r5, #20]
ARM GAS  C:\Users\EBANO_~1\AppData\Local\Temp\ccKJ5gfE.s 			page 42


 1219 0050 0B93     		str	r3, [sp, #44]
 1220 0052 9847     		blx	r3
 1221              	.LVL92:
 1222 0054 2B6A     		ldr	r3, [r5, #32]
 1223 0056 0B93     		str	r3, [sp, #44]
 1224 0058 1F00     		movs	r7, r3
 559:../../../../../../Middlewares/Third_Party/LoRaWAN/Mac/region/RegionCN779.c ****     {
 1225              		.loc 1 559 0
 1226 005a 072E     		cmp	r6, #7
 1227 005c 2CD0     		beq	.L107
 1228              	.LVL93:
 567:../../../../../../Middlewares/Third_Party/LoRaWAN/Mac/region/RegionCN779.c ****     }
 1229              		.loc 1 567 0
 1230 005e A37C     		ldrb	r3, [r4, #18]
 1231 0060 2289     		ldrh	r2, [r4, #8]
 1232 0062 0993     		str	r3, [sp, #36]
 1233 0064 0123     		movs	r3, #1
 1234 0066 0292     		str	r2, [sp, #8]
 1235 0068 0893     		str	r3, [sp, #32]
 1236 006a 0822     		movs	r2, #8
 1237 006c 0023     		movs	r3, #0
 1238 006e 0192     		str	r2, [sp, #4]
 1239 0070 0793     		str	r3, [sp, #28]
 1240 0072 0693     		str	r3, [sp, #24]
 1241 0074 0593     		str	r3, [sp, #20]
 1242 0076 0493     		str	r3, [sp, #16]
 1243 0078 0393     		str	r3, [sp, #12]
 1244 007a 0093     		str	r3, [sp]
 1245 007c 0120     		movs	r0, #1
 1246 007e A178     		ldrb	r1, [r4, #2]
 1247 0080 0133     		adds	r3, r3, #1
 1248 0082 4A46     		mov	r2, r9
 1249 0084 B847     		blx	r7
 1250              	.LVL94:
 566:../../../../../../Middlewares/Third_Party/LoRaWAN/Mac/region/RegionCN779.c ****         Radio.SetRxConfig( modem, rxConfig->Bandwidth, phyDr, 1, 0, 8, rxConfig->WindowTimeout, fal
 1251              		.loc 1 566 0
 1252 0086 0120     		movs	r0, #1
 1253              	.LVL95:
 1254              	.L102:
 570:../../../../../../Middlewares/Third_Party/LoRaWAN/Mac/region/RegionCN779.c ****     {
 1255              		.loc 1 570 0
 1256 0088 637C     		ldrb	r3, [r4, #17]
 1257 008a 002B     		cmp	r3, #0
 1258 008c 11D0     		beq	.L103
 572:../../../../../../Middlewares/Third_Party/LoRaWAN/Mac/region/RegionCN779.c ****     }
 1259              		.loc 1 572 0
 1260 008e 1C4B     		ldr	r3, .L108+12
 1261 0090 9B19     		adds	r3, r3, r6
 1262 0092 197A     		ldrb	r1, [r3, #8]
 1263              	.LVL96:
 1264              	.L104:
 578:../../../../../../Middlewares/Third_Party/LoRaWAN/Mac/region/RegionCN779.c ****     TVL1( PRINTF( "RX on freq %d Hz at DR %d\n\r", frequency, dr );)
 1265              		.loc 1 578 0
 1266 0094 EB6D     		ldr	r3, [r5, #92]
 1267 0096 0D31     		adds	r1, r1, #13
 1268              	.LVL97:
 1269 0098 C9B2     		uxtb	r1, r1
ARM GAS  C:\Users\EBANO_~1\AppData\Local\Temp\ccKJ5gfE.s 			page 43


 1270 009a 0B93     		str	r3, [sp, #44]
 1271 009c 9847     		blx	r3
 1272              	.LVL98:
 581:../../../../../../Middlewares/Third_Party/LoRaWAN/Mac/region/RegionCN779.c ****     return true;
 1273              		.loc 1 581 0
 1274 009e 5346     		mov	r3, r10
 1275 00a0 1E70     		strb	r6, [r3]
 582:../../../../../../Middlewares/Third_Party/LoRaWAN/Mac/region/RegionCN779.c **** }
 1276              		.loc 1 582 0
 1277 00a2 0123     		movs	r3, #1
 1278              	.LVL99:
 1279              	.L99:
 583:../../../../../../Middlewares/Third_Party/LoRaWAN/Mac/region/RegionCN779.c **** 
 1280              		.loc 1 583 0
 1281 00a4 1800     		movs	r0, r3
 1282 00a6 0CB0     		add	sp, sp, #48
 1283              		@ sp needed
 1284              	.LVL100:
 1285              	.LVL101:
 1286              	.LVL102:
 1287              	.LVL103:
 1288 00a8 1CBC     		pop	{r2, r3, r4}
 1289 00aa 9046     		mov	r8, r2
 1290 00ac 9946     		mov	r9, r3
 1291 00ae A246     		mov	r10, r4
 1292 00b0 F0BD     		pop	{r4, r5, r6, r7, pc}
 1293              	.LVL104:
 1294              	.L103:
 576:../../../../../../Middlewares/Third_Party/LoRaWAN/Mac/region/RegionCN779.c ****     }
 1295              		.loc 1 576 0
 1296 00b2 134B     		ldr	r3, .L108+12
 1297 00b4 995D     		ldrb	r1, [r3, r6]
 1298              	.LVL105:
 1299 00b6 EDE7     		b	.L104
 1300              	.LVL106:
 1301              	.L107:
 562:../../../../../../Middlewares/Third_Party/LoRaWAN/Mac/region/RegionCN779.c ****     }
 1302              		.loc 1 562 0
 1303 00b8 4B46     		mov	r3, r9
 1304 00ba 5A01     		lsls	r2, r3, #5
 1305 00bc D21A     		subs	r2, r2, r3
 1306 00be A37C     		ldrb	r3, [r4, #18]
 1307 00c0 0121     		movs	r1, #1
 1308 00c2 0993     		str	r3, [sp, #36]
 1309 00c4 0023     		movs	r3, #0
 1310 00c6 0893     		str	r3, [sp, #32]
 1311 00c8 0793     		str	r3, [sp, #28]
 1312 00ca 0693     		str	r3, [sp, #24]
 1313 00cc 0493     		str	r3, [sp, #16]
 1314 00ce 0393     		str	r3, [sp, #12]
 1315 00d0 2389     		ldrh	r3, [r4, #8]
 1316 00d2 9200     		lsls	r2, r2, #2
 1317 00d4 0293     		str	r3, [sp, #8]
 1318 00d6 0523     		movs	r3, #5
 1319 00d8 0193     		str	r3, [sp, #4]
 1320 00da 0A4B     		ldr	r3, .L108+16
 1321 00dc 4A44     		add	r2, r2, r9
ARM GAS  C:\Users\EBANO_~1\AppData\Local\Temp\ccKJ5gfE.s 			page 44


 1322 00de 0591     		str	r1, [sp, #20]
 1323 00e0 0093     		str	r3, [sp]
 1324 00e2 0020     		movs	r0, #0
 1325 00e4 D200     		lsls	r2, r2, #3
 1326 00e6 0023     		movs	r3, #0
 1327 00e8 0749     		ldr	r1, .L108+20
 1328 00ea B847     		blx	r7
 1329              	.LVL107:
 561:../../../../../../Middlewares/Third_Party/LoRaWAN/Mac/region/RegionCN779.c ****         Radio.SetRxConfig( modem, 50000, phyDr * 1000, 0, 83333, 5, rxConfig->WindowTimeout, false,
 1330              		.loc 1 561 0
 1331 00ec 0020     		movs	r0, #0
 1332 00ee CBE7     		b	.L102
 1333              	.LVL108:
 1334              	.L106:
 545:../../../../../../Middlewares/Third_Party/LoRaWAN/Mac/region/RegionCN779.c ****         // Apply the alternative RX 1 window frequency, if it is available
 1335              		.loc 1 545 0
 1336 00f0 8846     		mov	r8, r1
 1337 00f2 A6E7     		b	.L100
 1338              	.L109:
 1339              		.align	2
 1340              	.L108:
 1341 00f4 00000000 		.word	Radio
 1342 00f8 00000000 		.word	NvmCtx
 1343 00fc D8000000 		.word	.LANCHOR1
 1344 0100 00010000 		.word	.LANCHOR0
 1345 0104 85450100 		.word	83333
 1346 0108 50C30000 		.word	50000
 1347              		.cfi_endproc
 1348              	.LFE52:
 1349              		.size	RegionCN779RxConfig, .-RegionCN779RxConfig
 1350              		.section	.text.RegionCN779TxConfig,"ax",%progbits
 1351              		.align	1
 1352              		.p2align 2,,3
 1353              		.global	RegionCN779TxConfig
 1354              		.syntax unified
 1355              		.code	16
 1356              		.thumb_func
 1357              		.fpu softvfp
 1358              		.type	RegionCN779TxConfig, %function
 1359              	RegionCN779TxConfig:
 1360              	.LFB53:
 586:../../../../../../Middlewares/Third_Party/LoRaWAN/Mac/region/RegionCN779.c ****     RadioModems_t modem;
 1361              		.loc 1 586 0
 1362              		.cfi_startproc
 1363              		@ args = 0, pretend = 0, frame = 8
 1364              		@ frame_needed = 0, uses_anonymous_args = 0
 1365              	.LVL109:
 1366 0000 F0B5     		push	{r4, r5, r6, r7, lr}
 1367              	.LCFI16:
 1368              		.cfi_def_cfa_offset 20
 1369              		.cfi_offset 4, -20
 1370              		.cfi_offset 5, -16
 1371              		.cfi_offset 6, -12
 1372              		.cfi_offset 7, -8
 1373              		.cfi_offset 14, -4
 1374 0002 4546     		mov	r5, r8
 1375 0004 5746     		mov	r7, r10
ARM GAS  C:\Users\EBANO_~1\AppData\Local\Temp\ccKJ5gfE.s 			page 45


 1376 0006 4E46     		mov	r6, r9
 1377 0008 DE46     		mov	lr, fp
 1378 000a 9046     		mov	r8, r2
 588:../../../../../../Middlewares/Third_Party/LoRaWAN/Mac/region/RegionCN779.c ****     int8_t txPowerLimited = LimitTxPower( txConfig->TxPower, NvmCtx.Bands[NvmCtx.Channels[txConfig-
 1379              		.loc 1 588 0
 1380 000c 0122     		movs	r2, #1
 1381              	.LVL110:
 586:../../../../../../Middlewares/Third_Party/LoRaWAN/Mac/region/RegionCN779.c ****     RadioModems_t modem;
 1382              		.loc 1 586 0
 1383 000e 0400     		movs	r4, r0
 588:../../../../../../Middlewares/Third_Party/LoRaWAN/Mac/region/RegionCN779.c ****     int8_t txPowerLimited = LimitTxPower( txConfig->TxPower, NvmCtx.Bands[NvmCtx.Channels[txConfig-
 1384              		.loc 1 588 0
 1385 0010 2023     		movs	r3, #32
 586:../../../../../../Middlewares/Third_Party/LoRaWAN/Mac/region/RegionCN779.c ****     RadioModems_t modem;
 1386              		.loc 1 586 0
 1387 0012 E0B5     		push	{r5, r6, r7, lr}
 1388              	.LCFI17:
 1389              		.cfi_def_cfa_offset 36
 1390              		.cfi_offset 8, -36
 1391              		.cfi_offset 9, -32
 1392              		.cfi_offset 10, -28
 1393              		.cfi_offset 11, -24
 1394 0014 8DB0     		sub	sp, sp, #52
 1395              	.LCFI18:
 1396              		.cfi_def_cfa_offset 88
 586:../../../../../../Middlewares/Third_Party/LoRaWAN/Mac/region/RegionCN779.c ****     RadioModems_t modem;
 1397              		.loc 1 586 0
 1398 0016 0A91     		str	r1, [sp, #40]
 588:../../../../../../Middlewares/Third_Party/LoRaWAN/Mac/region/RegionCN779.c ****     int8_t txPowerLimited = LimitTxPower( txConfig->TxPower, NvmCtx.Bands[NvmCtx.Channels[txConfig-
 1399              		.loc 1 588 0
 1400 0018 8256     		ldrsb	r2, [r0, r2]
 1401 001a 4149     		ldr	r1, .L119
 1402              	.LVL111:
 589:../../../../../../Middlewares/Third_Party/LoRaWAN/Mac/region/RegionCN779.c ****     uint32_t bandwidth = GetBandwidth( txConfig->Datarate );
 1403              		.loc 1 589 0
 1404 001c 414D     		ldr	r5, .L119+4
 588:../../../../../../Middlewares/Third_Party/LoRaWAN/Mac/region/RegionCN779.c ****     int8_t txPowerLimited = LimitTxPower( txConfig->TxPower, NvmCtx.Bands[NvmCtx.Channels[txConfig-
 1405              		.loc 1 588 0
 1406 001e 8818     		adds	r0, r1, r2
 1407              	.LVL112:
 1408 0020 C656     		ldrsb	r6, [r0, r3]
 1409              	.LVL113:
 589:../../../../../../Middlewares/Third_Party/LoRaWAN/Mac/region/RegionCN779.c ****     uint32_t bandwidth = GetBandwidth( txConfig->Datarate );
 1410              		.loc 1 589 0
 1411 0022 2078     		ldrb	r0, [r4]
 1412              	.LVL114:
 1413 0024 4300     		lsls	r3, r0, #1
 1414 0026 1B18     		adds	r3, r3, r0
 1415              	.LBB54:
 1416              	.LBB55:
 103:../../../../../../Middlewares/Third_Party/LoRaWAN/Mac/region/RegionCN779.c **** 
 1417              		.loc 1 103 0
 1418 0028 A078     		ldrb	r0, [r4, #2]
 1419              	.LVL115:
 1420              	.LBE55:
 1421              	.LBE54:
 589:../../../../../../Middlewares/Third_Party/LoRaWAN/Mac/region/RegionCN779.c ****     uint32_t bandwidth = GetBandwidth( txConfig->Datarate );
ARM GAS  C:\Users\EBANO_~1\AppData\Local\Temp\ccKJ5gfE.s 			page 46


 1422              		.loc 1 589 0
 1423 002a 9B00     		lsls	r3, r3, #2
 1424              	.LBB60:
 1425              	.LBB56:
 103:../../../../../../Middlewares/Third_Party/LoRaWAN/Mac/region/RegionCN779.c **** 
 1426              		.loc 1 103 0
 1427 002c 8446     		mov	ip, r0
 1428 002e 6746     		mov	r7, ip
 1429              	.LBE56:
 1430              	.LBE60:
 589:../../../../../../Middlewares/Third_Party/LoRaWAN/Mac/region/RegionCN779.c ****     uint32_t bandwidth = GetBandwidth( txConfig->Datarate );
 1431              		.loc 1 589 0
 1432 0030 EB18     		adds	r3, r5, r3
 1433 0032 5B7A     		ldrb	r3, [r3, #9]
 1434              	.LBB61:
 1435              	.LBB57:
 103:../../../../../../Middlewares/Third_Party/LoRaWAN/Mac/region/RegionCN779.c **** 
 1436              		.loc 1 103 0
 1437 0034 7FB2     		sxtb	r7, r7
 1438              	.LBE57:
 1439              	.LBE61:
 589:../../../../../../Middlewares/Third_Party/LoRaWAN/Mac/region/RegionCN779.c ****     uint32_t bandwidth = GetBandwidth( txConfig->Datarate );
 1440              		.loc 1 589 0
 1441 0036 0C33     		adds	r3, r3, #12
 1442 0038 1B01     		lsls	r3, r3, #4
 1443 003a EB18     		adds	r3, r5, r3
 1444              	.LBB62:
 1445              	.LBB58:
 103:../../../../../../Middlewares/Third_Party/LoRaWAN/Mac/region/RegionCN779.c **** 
 1446              		.loc 1 103 0
 1447 003c 9B78     		ldrb	r3, [r3, #2]
 1448 003e 181C     		adds	r0, r3, #0
 1449 0040 5BB2     		sxtb	r3, r3
 1450 0042 BB42     		cmp	r3, r7
 1451 0044 00DA     		bge	.L111
 1452 0046 6046     		mov	r0, ip
 1453              	.L111:
 1454 0048 43B2     		sxtb	r3, r0
 1455              	.LBE58:
 1456              	.LBE62:
 1457              	.LBB63:
 1458              	.LBB64:
  86:../../../../../../Middlewares/Third_Party/LoRaWAN/Mac/region/RegionCN779.c ****     {
 1459              		.loc 1 86 0
 1460 004a 9200     		lsls	r2, r2, #2
 1461              	.LVL116:
 1462              	.LBE64:
 1463              	.LBE63:
 1464              	.LBB67:
 1465              	.LBB59:
 103:../../../../../../Middlewares/Third_Party/LoRaWAN/Mac/region/RegionCN779.c **** 
 1466              		.loc 1 103 0
 1467 004c 9946     		mov	r9, r3
 1468              	.LVL117:
 1469              	.LBE59:
 1470              	.LBE67:
 1471              	.LBB68:
ARM GAS  C:\Users\EBANO_~1\AppData\Local\Temp\ccKJ5gfE.s 			page 47


 1472              	.LBB65:
  86:../../../../../../Middlewares/Third_Party/LoRaWAN/Mac/region/RegionCN779.c ****     {
 1473              		.loc 1 86 0
 1474 004e 8B58     		ldr	r3, [r1, r2]
 1475 0050 354A     		ldr	r2, .L119+8
 1476 0052 9342     		cmp	r3, r2
 1477 0054 46D0     		beq	.L117
  90:../../../../../../Middlewares/Third_Party/LoRaWAN/Mac/region/RegionCN779.c ****         case 250000:
 1478              		.loc 1 90 0
 1479 0056 354A     		ldr	r2, .L119+12
 1480 0058 9446     		mov	ip, r2
 1481 005a 6344     		add	r3, r3, ip
 1482 005c 5A42     		rsbs	r2, r3, #0
 1483 005e 5341     		adcs	r3, r3, r2
 1484 0060 5B00     		lsls	r3, r3, #1
 1485 0062 9A46     		mov	r10, r3
 1486              	.L113:
 1487              	.LVL118:
 1488              	.LBE65:
 1489              	.LBE68:
 594:../../../../../../Middlewares/Third_Party/LoRaWAN/Mac/region/RegionCN779.c **** 
 1490              		.loc 1 594 0
 1491 0064 A268     		ldr	r2, [r4, #8]
 1492 0066 6168     		ldr	r1, [r4, #4]
 1493 0068 4846     		mov	r0, r9
 1494 006a FFF7FEFF 		bl	RegionCommonComputeTxPower
 1495              	.LVL119:
 597:../../../../../../Middlewares/Third_Party/LoRaWAN/Mac/region/RegionCN779.c **** 
 1496              		.loc 1 597 0
 1497 006e 2278     		ldrb	r2, [r4]
 594:../../../../../../Middlewares/Third_Party/LoRaWAN/Mac/region/RegionCN779.c **** 
 1498              		.loc 1 594 0
 1499 0070 8346     		mov	fp, r0
 1500              	.LVL120:
 597:../../../../../../Middlewares/Third_Party/LoRaWAN/Mac/region/RegionCN779.c **** 
 1501              		.loc 1 597 0
 1502 0072 5300     		lsls	r3, r2, #1
 1503 0074 9B18     		adds	r3, r3, r2
 1504 0076 9B00     		lsls	r3, r3, #2
 1505 0078 E858     		ldr	r0, [r5, r3]
 1506 007a 2D4D     		ldr	r5, .L119+16
 1507 007c 6B69     		ldr	r3, [r5, #20]
 1508 007e 0B93     		str	r3, [sp, #44]
 1509 0080 9847     		blx	r3
 1510              	.LVL121:
 1511 0082 6B6A     		ldr	r3, [r5, #36]
 1512 0084 0B93     		str	r3, [sp, #44]
 599:../../../../../../Middlewares/Third_Party/LoRaWAN/Mac/region/RegionCN779.c ****     { // High Speed FSK channel
 1513              		.loc 1 599 0
 1514 0086 0123     		movs	r3, #1
 1515 0088 E356     		ldrsb	r3, [r4, r3]
 1516 008a 072B     		cmp	r3, #7
 1517 008c 2DD0     		beq	.L118
 1518              	.LVL122:
 607:../../../../../../Middlewares/Third_Party/LoRaWAN/Mac/region/RegionCN779.c ****     }
 1519              		.loc 1 607 0
 1520 008e 294B     		ldr	r3, .L119+20
ARM GAS  C:\Users\EBANO_~1\AppData\Local\Temp\ccKJ5gfE.s 			page 48


 1521 0090 0122     		movs	r2, #1
 1522 0092 0893     		str	r3, [sp, #32]
 1523 0094 0023     		movs	r3, #0
 1524 0096 0793     		str	r3, [sp, #28]
 1525 0098 0693     		str	r3, [sp, #24]
 1526 009a 0593     		str	r3, [sp, #20]
 1527 009c 0393     		str	r3, [sp, #12]
 1528 009e 0833     		adds	r3, r3, #8
 1529 00a0 0492     		str	r2, [sp, #16]
 1530 00a2 0293     		str	r3, [sp, #8]
 1531 00a4 0192     		str	r2, [sp, #4]
 1532 00a6 0096     		str	r6, [sp]
 1533 00a8 5346     		mov	r3, r10
 1534 00aa 0B9E     		ldr	r6, [sp, #44]
 1535              	.LVL123:
 1536 00ac 0022     		movs	r2, #0
 1537 00ae 5946     		mov	r1, fp
 1538 00b0 0120     		movs	r0, #1
 1539 00b2 B047     		blx	r6
 1540              	.LVL124:
 606:../../../../../../Middlewares/Third_Party/LoRaWAN/Mac/region/RegionCN779.c ****         Radio.SetTxConfig( modem, phyTxPower, 0, bandwidth, phyDr, 1, 8, false, true, 0, 0, false, 
 1541              		.loc 1 606 0
 1542 00b4 0126     		movs	r6, #1
 1543              	.LVL125:
 1544              	.L116:
 612:../../../../../../Middlewares/Third_Party/LoRaWAN/Mac/region/RegionCN779.c ****     // Get the time-on-air of the next tx frame
 1545              		.loc 1 612 0
 1546 00b6 EB6D     		ldr	r3, [r5, #92]
 1547 00b8 217B     		ldrb	r1, [r4, #12]
 1548 00ba 3000     		movs	r0, r6
 1549 00bc 0B93     		str	r3, [sp, #44]
 1550 00be 9847     		blx	r3
 1551              	.LVL126:
 614:../../../../../../Middlewares/Third_Party/LoRaWAN/Mac/region/RegionCN779.c **** 
 1552              		.loc 1 614 0
 1553 00c0 EB6A     		ldr	r3, [r5, #44]
 1554 00c2 217B     		ldrb	r1, [r4, #12]
 1555 00c4 3000     		movs	r0, r6
 1556 00c6 0B93     		str	r3, [sp, #44]
 1557 00c8 9847     		blx	r3
 1558              	.LVL127:
 1559 00ca 4346     		mov	r3, r8
 1560 00cc 1860     		str	r0, [r3]
 616:../../../../../../Middlewares/Third_Party/LoRaWAN/Mac/region/RegionCN779.c ****     return true;
 1561              		.loc 1 616 0
 1562 00ce 4B46     		mov	r3, r9
 618:../../../../../../Middlewares/Third_Party/LoRaWAN/Mac/region/RegionCN779.c **** 
 1563              		.loc 1 618 0
 1564 00d0 0120     		movs	r0, #1
 616:../../../../../../Middlewares/Third_Party/LoRaWAN/Mac/region/RegionCN779.c ****     return true;
 1565              		.loc 1 616 0
 1566 00d2 0A9A     		ldr	r2, [sp, #40]
 1567 00d4 1370     		strb	r3, [r2]
 618:../../../../../../Middlewares/Third_Party/LoRaWAN/Mac/region/RegionCN779.c **** 
 1568              		.loc 1 618 0
 1569 00d6 0DB0     		add	sp, sp, #52
 1570              		@ sp needed
ARM GAS  C:\Users\EBANO_~1\AppData\Local\Temp\ccKJ5gfE.s 			page 49


 1571              	.LVL128:
 1572              	.LVL129:
 1573              	.LVL130:
 1574              	.LVL131:
 1575 00d8 3CBC     		pop	{r2, r3, r4, r5}
 1576 00da 9046     		mov	r8, r2
 1577 00dc 9946     		mov	r9, r3
 1578 00de A246     		mov	r10, r4
 1579 00e0 AB46     		mov	fp, r5
 1580 00e2 F0BD     		pop	{r4, r5, r6, r7, pc}
 1581              	.LVL132:
 1582              	.L117:
 1583              	.LBB69:
 1584              	.LBB66:
  92:../../../../../../Middlewares/Third_Party/LoRaWAN/Mac/region/RegionCN779.c ****         case 500000:
 1585              		.loc 1 92 0
 1586 00e4 0123     		movs	r3, #1
 1587              	.LVL133:
 1588 00e6 9A46     		mov	r10, r3
 1589 00e8 BCE7     		b	.L113
 1590              	.LVL134:
 1591              	.L118:
 1592              	.LBE66:
 1593              	.LBE69:
 602:../../../../../../Middlewares/Third_Party/LoRaWAN/Mac/region/RegionCN779.c ****     }
 1594              		.loc 1 602 0
 1595 00ea 124B     		ldr	r3, .L119+20
 1596 00ec 0122     		movs	r2, #1
 1597 00ee 0893     		str	r3, [sp, #32]
 1598 00f0 0023     		movs	r3, #0
 1599 00f2 0793     		str	r3, [sp, #28]
 1600 00f4 0693     		str	r3, [sp, #24]
 1601 00f6 0593     		str	r3, [sp, #20]
 1602 00f8 0393     		str	r3, [sp, #12]
 1603 00fa 0193     		str	r3, [sp, #4]
 1604 00fc 7301     		lsls	r3, r6, #5
 1605 00fe 9B1B     		subs	r3, r3, r6
 1606 0100 9B00     		lsls	r3, r3, #2
 1607 0102 9E19     		adds	r6, r3, r6
 1608              	.LVL135:
 1609 0104 0492     		str	r2, [sp, #16]
 1610 0106 F600     		lsls	r6, r6, #3
 1611 0108 0432     		adds	r2, r2, #4
 1612 010a 0292     		str	r2, [sp, #8]
 1613 010c 0096     		str	r6, [sp]
 1614 010e 5346     		mov	r3, r10
 1615 0110 0B9E     		ldr	r6, [sp, #44]
 1616 0112 094A     		ldr	r2, .L119+24
 1617 0114 5946     		mov	r1, fp
 1618 0116 0020     		movs	r0, #0
 1619 0118 B047     		blx	r6
 1620              	.LVL136:
 601:../../../../../../Middlewares/Third_Party/LoRaWAN/Mac/region/RegionCN779.c ****         Radio.SetTxConfig( modem, phyTxPower, 25000, bandwidth, phyDr * 1000, 0, 5, false, true, 0,
 1621              		.loc 1 601 0
 1622 011a 0026     		movs	r6, #0
 1623 011c CBE7     		b	.L116
 1624              	.L120:
ARM GAS  C:\Users\EBANO_~1\AppData\Local\Temp\ccKJ5gfE.s 			page 50


 1625 011e C046     		.align	2
 1626              	.L119:
 1627 0120 D8000000 		.word	.LANCHOR1
 1628 0124 00000000 		.word	NvmCtx
 1629 0128 90D00300 		.word	250000
 1630 012c E05EF8FF 		.word	-500000
 1631 0130 00000000 		.word	Radio
 1632 0134 B80B0000 		.word	3000
 1633 0138 A8610000 		.word	25000
 1634              		.cfi_endproc
 1635              	.LFE53:
 1636              		.size	RegionCN779TxConfig, .-RegionCN779TxConfig
 1637              		.section	.text.RegionCN779LinkAdrReq,"ax",%progbits
 1638              		.align	1
 1639              		.p2align 2,,3
 1640              		.global	RegionCN779LinkAdrReq
 1641              		.syntax unified
 1642              		.code	16
 1643              		.thumb_func
 1644              		.fpu softvfp
 1645              		.type	RegionCN779LinkAdrReq, %function
 1646              	RegionCN779LinkAdrReq:
 1647              	.LFB54:
 621:../../../../../../Middlewares/Third_Party/LoRaWAN/Mac/region/RegionCN779.c ****     uint8_t status = 0x07;
 1648              		.loc 1 621 0
 1649              		.cfi_startproc
 1650              		@ args = 4, pretend = 0, frame = 56
 1651              		@ frame_needed = 0, uses_anonymous_args = 0
 1652              	.LVL137:
 1653 0000 F0B5     		push	{r4, r5, r6, r7, lr}
 1654              	.LCFI19:
 1655              		.cfi_def_cfa_offset 20
 1656              		.cfi_offset 4, -20
 1657              		.cfi_offset 5, -16
 1658              		.cfi_offset 6, -12
 1659              		.cfi_offset 7, -8
 1660              		.cfi_offset 14, -4
 1661 0002 5746     		mov	r7, r10
 1662 0004 4E46     		mov	r6, r9
 1663 0006 4546     		mov	r5, r8
 1664 0008 DE46     		mov	lr, fp
 1665 000a E0B5     		push	{r5, r6, r7, lr}
 1666              	.LCFI20:
 1667              		.cfi_def_cfa_offset 36
 1668              		.cfi_offset 8, -36
 1669              		.cfi_offset 9, -32
 1670              		.cfi_offset 10, -28
 1671              		.cfi_offset 11, -24
 1672 000c 8FB0     		sub	sp, sp, #60
 1673              	.LCFI21:
 1674              		.cfi_def_cfa_offset 96
 621:../../../../../../Middlewares/Third_Party/LoRaWAN/Mac/region/RegionCN779.c ****     uint8_t status = 0x07;
 1675              		.loc 1 621 0
 1676 000e 0193     		str	r3, [sp, #4]
 626:../../../../../../Middlewares/Third_Party/LoRaWAN/Mac/region/RegionCN779.c ****     GetPhyParams_t getPhy;
 1677              		.loc 1 626 0
 1678 0010 0023     		movs	r3, #0
ARM GAS  C:\Users\EBANO_~1\AppData\Local\Temp\ccKJ5gfE.s 			page 51


 1679              	.LVL138:
 621:../../../../../../Middlewares/Third_Party/LoRaWAN/Mac/region/RegionCN779.c ****     uint8_t status = 0x07;
 1680              		.loc 1 621 0
 1681 0012 9246     		mov	r10, r2
 626:../../../../../../Middlewares/Third_Party/LoRaWAN/Mac/region/RegionCN779.c ****     GetPhyParams_t getPhy;
 1682              		.loc 1 626 0
 1683 0014 02AA     		add	r2, sp, #8
 1684              	.LVL139:
 1685 0016 D380     		strh	r3, [r2, #6]
 622:../../../../../../Middlewares/Third_Party/LoRaWAN/Mac/region/RegionCN779.c ****     RegionCommonLinkAdrParams_t linkAdrParams;
 1686              		.loc 1 622 0
 1687 0018 0733     		adds	r3, r3, #7
 621:../../../../../../Middlewares/Third_Party/LoRaWAN/Mac/region/RegionCN779.c ****     uint8_t status = 0x07;
 1688              		.loc 1 621 0
 1689 001a 0600     		movs	r6, r0
 1690 001c 8B46     		mov	fp, r1
 625:../../../../../../Middlewares/Third_Party/LoRaWAN/Mac/region/RegionCN779.c ****     uint16_t chMask = 0;
 1691              		.loc 1 625 0
 1692 001e 0024     		movs	r4, #0
 622:../../../../../../Middlewares/Third_Party/LoRaWAN/Mac/region/RegionCN779.c ****     RegionCommonLinkAdrParams_t linkAdrParams;
 1693              		.loc 1 622 0
 1694 0020 9946     		mov	r9, r3
 1695              	.LBB75:
 665:../../../../../../Middlewares/Third_Party/LoRaWAN/Mac/region/RegionCN779.c ****                     {
 1696              		.loc 1 665 0
 1697 0022 9846     		mov	r8, r3
 1698 0024 B44F     		ldr	r7, .L277
 1699 0026 04AD     		add	r5, sp, #16
 1700              	.LVL140:
 1701              	.L122:
 1702              	.LBE75:
 631:../../../../../../Middlewares/Third_Party/LoRaWAN/Mac/region/RegionCN779.c ****     {
 1703              		.loc 1 631 0
 1704 0028 337A     		ldrb	r3, [r6, #8]
 1705 002a A342     		cmp	r3, r4
 1706 002c 00D8     		bhi	.LCB1564
 1707 002e 93E0     		b	.L167	@long jump
 1708              	.LCB1564:
 1709              	.L166:
 634:../../../../../../Middlewares/Third_Party/LoRaWAN/Mac/region/RegionCN779.c **** 
 1710              		.loc 1 634 0
 1711 0030 7368     		ldr	r3, [r6, #4]
 1712 0032 2900     		movs	r1, r5
 1713 0034 1819     		adds	r0, r3, r4
 1714 0036 FFF7FEFF 		bl	RegionCommonParseLinkAdrReq
 1715              	.LVL141:
 636:../../../../../../Middlewares/Third_Party/LoRaWAN/Mac/region/RegionCN779.c ****             break; // break loop, since no more request has been found
 1716              		.loc 1 636 0
 1717 003a 0028     		cmp	r0, #0
 1718 003c 00D1     		bne	.LCB1576
 1719 003e 8BE0     		b	.L167	@long jump
 1720              	.LCB1576:
 646:../../../../../../Middlewares/Third_Party/LoRaWAN/Mac/region/RegionCN779.c **** 
 1721              		.loc 1 646 0
 1722 0040 AB88     		ldrh	r3, [r5, #4]
 1723 0042 02AA     		add	r2, sp, #8
 1724 0044 D380     		strh	r3, [r2, #6]
ARM GAS  C:\Users\EBANO_~1\AppData\Local\Temp\ccKJ5gfE.s 			page 52


 649:../../../../../../Middlewares/Third_Party/LoRaWAN/Mac/region/RegionCN779.c ****         {
 1725              		.loc 1 649 0
 1726 0046 EA78     		ldrb	r2, [r5, #3]
 640:../../../../../../Middlewares/Third_Party/LoRaWAN/Mac/region/RegionCN779.c **** 
 1727              		.loc 1 640 0
 1728 0048 2418     		adds	r4, r4, r0
 1729              	.LVL142:
 1730 004a E4B2     		uxtb	r4, r4
 1731              	.LVL143:
 646:../../../../../../Middlewares/Third_Party/LoRaWAN/Mac/region/RegionCN779.c **** 
 1732              		.loc 1 646 0
 1733 004c 181C     		adds	r0, r3, #0
 1734              	.LVL144:
 649:../../../../../../Middlewares/Third_Party/LoRaWAN/Mac/region/RegionCN779.c ****         {
 1735              		.loc 1 649 0
 1736 004e 002A     		cmp	r2, #0
 1737 0050 00D0     		beq	.LCB1589
 1738 0052 BFE0     		b	.L126	@long jump
 1739              	.LCB1589:
 651:../../../../../../Middlewares/Third_Party/LoRaWAN/Mac/region/RegionCN779.c ****         }
 1740              		.loc 1 651 0 discriminator 1
 1741 0054 0632     		adds	r2, r2, #6
 1742 0056 9146     		mov	r9, r2
 649:../../../../../../Middlewares/Third_Party/LoRaWAN/Mac/region/RegionCN779.c ****         {
 1743              		.loc 1 649 0 discriminator 1
 1744 0058 002B     		cmp	r3, #0
 1745 005a E5D0     		beq	.L122
 1746              	.LVL145:
 1747              	.LBB76:
 672:../../../../../../Middlewares/Third_Party/LoRaWAN/Mac/region/RegionCN779.c ****                         ( NvmCtx.Channels[i].Frequency == 0 ) )
 1748              		.loc 1 672 0
 1749 005c 0722     		movs	r2, #7
 1750 005e 9146     		mov	r9, r2
 1751 0060 DA07     		lsls	r2, r3, #31
 1752 0062 04D5     		bpl	.L130
 1753 0064 3A68     		ldr	r2, [r7]
 1754 0066 511E     		subs	r1, r2, #1
 1755 0068 8A41     		sbcs	r2, r2, r1
 1756 006a 0632     		adds	r2, r2, #6
 1757 006c 9146     		mov	r9, r2
 1758              	.L130:
 1759              	.LVL146:
 1760 006e 9A07     		lsls	r2, r3, #30
 1761 0070 04D5     		bpl	.L131
 1762 0072 FA68     		ldr	r2, [r7, #12]
 1763 0074 002A     		cmp	r2, #0
 1764 0076 01D1     		bne	.L131
 675:../../../../../../Middlewares/Third_Party/LoRaWAN/Mac/region/RegionCN779.c ****                     }
 1765              		.loc 1 675 0
 1766 0078 0632     		adds	r2, r2, #6
 1767 007a 9146     		mov	r9, r2
 1768              	.LVL147:
 1769              	.L131:
 672:../../../../../../Middlewares/Third_Party/LoRaWAN/Mac/region/RegionCN779.c ****                         ( NvmCtx.Channels[i].Frequency == 0 ) )
 1770              		.loc 1 672 0
 1771 007c 5A07     		lsls	r2, r3, #29
 1772 007e 04D5     		bpl	.L132
ARM GAS  C:\Users\EBANO_~1\AppData\Local\Temp\ccKJ5gfE.s 			page 53


 1773 0080 BA69     		ldr	r2, [r7, #24]
 1774 0082 002A     		cmp	r2, #0
 1775 0084 01D1     		bne	.L132
 675:../../../../../../Middlewares/Third_Party/LoRaWAN/Mac/region/RegionCN779.c ****                     }
 1776              		.loc 1 675 0
 1777 0086 0632     		adds	r2, r2, #6
 1778 0088 9146     		mov	r9, r2
 1779              	.LVL148:
 1780              	.L132:
 672:../../../../../../Middlewares/Third_Party/LoRaWAN/Mac/region/RegionCN779.c ****                         ( NvmCtx.Channels[i].Frequency == 0 ) )
 1781              		.loc 1 672 0
 1782 008a 1A07     		lsls	r2, r3, #28
 1783 008c 04D5     		bpl	.L133
 1784 008e 7A6A     		ldr	r2, [r7, #36]
 1785 0090 002A     		cmp	r2, #0
 1786 0092 01D1     		bne	.L133
 675:../../../../../../Middlewares/Third_Party/LoRaWAN/Mac/region/RegionCN779.c ****                     }
 1787              		.loc 1 675 0
 1788 0094 0632     		adds	r2, r2, #6
 1789 0096 9146     		mov	r9, r2
 1790              	.LVL149:
 1791              	.L133:
 672:../../../../../../Middlewares/Third_Party/LoRaWAN/Mac/region/RegionCN779.c ****                         ( NvmCtx.Channels[i].Frequency == 0 ) )
 1792              		.loc 1 672 0
 1793 0098 DA06     		lsls	r2, r3, #27
 1794 009a 04D5     		bpl	.L134
 1795 009c 3A6B     		ldr	r2, [r7, #48]
 1796 009e 002A     		cmp	r2, #0
 1797 00a0 01D1     		bne	.L134
 675:../../../../../../Middlewares/Third_Party/LoRaWAN/Mac/region/RegionCN779.c ****                     }
 1798              		.loc 1 675 0
 1799 00a2 0632     		adds	r2, r2, #6
 1800 00a4 9146     		mov	r9, r2
 1801              	.LVL150:
 1802              	.L134:
 672:../../../../../../Middlewares/Third_Party/LoRaWAN/Mac/region/RegionCN779.c ****                         ( NvmCtx.Channels[i].Frequency == 0 ) )
 1803              		.loc 1 672 0
 1804 00a6 9A06     		lsls	r2, r3, #26
 1805 00a8 04D5     		bpl	.L135
 1806 00aa FA6B     		ldr	r2, [r7, #60]
 1807 00ac 002A     		cmp	r2, #0
 1808 00ae 01D1     		bne	.L135
 675:../../../../../../Middlewares/Third_Party/LoRaWAN/Mac/region/RegionCN779.c ****                     }
 1809              		.loc 1 675 0
 1810 00b0 0632     		adds	r2, r2, #6
 1811 00b2 9146     		mov	r9, r2
 1812              	.LVL151:
 1813              	.L135:
 672:../../../../../../Middlewares/Third_Party/LoRaWAN/Mac/region/RegionCN779.c ****                         ( NvmCtx.Channels[i].Frequency == 0 ) )
 1814              		.loc 1 672 0
 1815 00b4 5A06     		lsls	r2, r3, #25
 1816 00b6 04D5     		bpl	.L136
 1817 00b8 BA6C     		ldr	r2, [r7, #72]
 1818 00ba 002A     		cmp	r2, #0
 1819 00bc 01D1     		bne	.L136
 675:../../../../../../Middlewares/Third_Party/LoRaWAN/Mac/region/RegionCN779.c ****                     }
 1820              		.loc 1 675 0
ARM GAS  C:\Users\EBANO_~1\AppData\Local\Temp\ccKJ5gfE.s 			page 54


 1821 00be 0632     		adds	r2, r2, #6
 1822 00c0 9146     		mov	r9, r2
 1823              	.LVL152:
 1824              	.L136:
 672:../../../../../../Middlewares/Third_Party/LoRaWAN/Mac/region/RegionCN779.c ****                         ( NvmCtx.Channels[i].Frequency == 0 ) )
 1825              		.loc 1 672 0
 1826 00c2 1A06     		lsls	r2, r3, #24
 1827 00c4 04D5     		bpl	.L137
 1828 00c6 7A6D     		ldr	r2, [r7, #84]
 1829 00c8 002A     		cmp	r2, #0
 1830 00ca 01D1     		bne	.L137
 675:../../../../../../Middlewares/Third_Party/LoRaWAN/Mac/region/RegionCN779.c ****                     }
 1831              		.loc 1 675 0
 1832 00cc 0632     		adds	r2, r2, #6
 1833 00ce 9146     		mov	r9, r2
 1834              	.LVL153:
 1835              	.L137:
 672:../../../../../../Middlewares/Third_Party/LoRaWAN/Mac/region/RegionCN779.c ****                         ( NvmCtx.Channels[i].Frequency == 0 ) )
 1836              		.loc 1 672 0
 1837 00d0 DA05     		lsls	r2, r3, #23
 1838 00d2 04D5     		bpl	.L138
 1839 00d4 3A6E     		ldr	r2, [r7, #96]
 1840 00d6 002A     		cmp	r2, #0
 1841 00d8 01D1     		bne	.L138
 675:../../../../../../Middlewares/Third_Party/LoRaWAN/Mac/region/RegionCN779.c ****                     }
 1842              		.loc 1 675 0
 1843 00da 0632     		adds	r2, r2, #6
 1844 00dc 9146     		mov	r9, r2
 1845              	.LVL154:
 1846              	.L138:
 672:../../../../../../Middlewares/Third_Party/LoRaWAN/Mac/region/RegionCN779.c ****                         ( NvmCtx.Channels[i].Frequency == 0 ) )
 1847              		.loc 1 672 0
 1848 00de 9A05     		lsls	r2, r3, #22
 1849 00e0 04D5     		bpl	.L139
 1850 00e2 FA6E     		ldr	r2, [r7, #108]
 1851 00e4 002A     		cmp	r2, #0
 1852 00e6 01D1     		bne	.L139
 675:../../../../../../Middlewares/Third_Party/LoRaWAN/Mac/region/RegionCN779.c ****                     }
 1853              		.loc 1 675 0
 1854 00e8 0632     		adds	r2, r2, #6
 1855 00ea 9146     		mov	r9, r2
 1856              	.LVL155:
 1857              	.L139:
 672:../../../../../../Middlewares/Third_Party/LoRaWAN/Mac/region/RegionCN779.c ****                         ( NvmCtx.Channels[i].Frequency == 0 ) )
 1858              		.loc 1 672 0
 1859 00ec 5A05     		lsls	r2, r3, #21
 1860 00ee 04D5     		bpl	.L140
 1861 00f0 BA6F     		ldr	r2, [r7, #120]
 1862 00f2 002A     		cmp	r2, #0
 1863 00f4 01D1     		bne	.L140
 675:../../../../../../Middlewares/Third_Party/LoRaWAN/Mac/region/RegionCN779.c ****                     }
 1864              		.loc 1 675 0
 1865 00f6 0632     		adds	r2, r2, #6
 1866 00f8 9146     		mov	r9, r2
 1867              	.LVL156:
 1868              	.L140:
 672:../../../../../../Middlewares/Third_Party/LoRaWAN/Mac/region/RegionCN779.c ****                         ( NvmCtx.Channels[i].Frequency == 0 ) )
ARM GAS  C:\Users\EBANO_~1\AppData\Local\Temp\ccKJ5gfE.s 			page 55


 1869              		.loc 1 672 0
 1870 00fa 1A05     		lsls	r2, r3, #20
 1871 00fc 05D5     		bpl	.L141
 673:../../../../../../Middlewares/Third_Party/LoRaWAN/Mac/region/RegionCN779.c ****                     {// Trying to enable an undefined channel
 1872              		.loc 1 673 0
 1873 00fe 8422     		movs	r2, #132
 672:../../../../../../Middlewares/Third_Party/LoRaWAN/Mac/region/RegionCN779.c ****                         ( NvmCtx.Channels[i].Frequency == 0 ) )
 1874              		.loc 1 672 0
 1875 0100 BA58     		ldr	r2, [r7, r2]
 1876 0102 002A     		cmp	r2, #0
 1877 0104 01D1     		bne	.L141
 675:../../../../../../Middlewares/Third_Party/LoRaWAN/Mac/region/RegionCN779.c ****                     }
 1878              		.loc 1 675 0
 1879 0106 0632     		adds	r2, r2, #6
 1880 0108 9146     		mov	r9, r2
 1881              	.LVL157:
 1882              	.L141:
 672:../../../../../../Middlewares/Third_Party/LoRaWAN/Mac/region/RegionCN779.c ****                         ( NvmCtx.Channels[i].Frequency == 0 ) )
 1883              		.loc 1 672 0
 1884 010a DA04     		lsls	r2, r3, #19
 1885 010c 05D5     		bpl	.L142
 673:../../../../../../Middlewares/Third_Party/LoRaWAN/Mac/region/RegionCN779.c ****                     {// Trying to enable an undefined channel
 1886              		.loc 1 673 0
 1887 010e 9022     		movs	r2, #144
 672:../../../../../../Middlewares/Third_Party/LoRaWAN/Mac/region/RegionCN779.c ****                         ( NvmCtx.Channels[i].Frequency == 0 ) )
 1888              		.loc 1 672 0
 1889 0110 BA58     		ldr	r2, [r7, r2]
 1890 0112 002A     		cmp	r2, #0
 1891 0114 01D1     		bne	.L142
 675:../../../../../../Middlewares/Third_Party/LoRaWAN/Mac/region/RegionCN779.c ****                     }
 1892              		.loc 1 675 0
 1893 0116 0632     		adds	r2, r2, #6
 1894 0118 9146     		mov	r9, r2
 1895              	.LVL158:
 1896              	.L142:
 672:../../../../../../Middlewares/Third_Party/LoRaWAN/Mac/region/RegionCN779.c ****                         ( NvmCtx.Channels[i].Frequency == 0 ) )
 1897              		.loc 1 672 0
 1898 011a 9A04     		lsls	r2, r3, #18
 1899 011c 05D5     		bpl	.L143
 673:../../../../../../Middlewares/Third_Party/LoRaWAN/Mac/region/RegionCN779.c ****                     {// Trying to enable an undefined channel
 1900              		.loc 1 673 0
 1901 011e 9C22     		movs	r2, #156
 672:../../../../../../Middlewares/Third_Party/LoRaWAN/Mac/region/RegionCN779.c ****                         ( NvmCtx.Channels[i].Frequency == 0 ) )
 1902              		.loc 1 672 0
 1903 0120 BA58     		ldr	r2, [r7, r2]
 1904 0122 002A     		cmp	r2, #0
 1905 0124 01D1     		bne	.L143
 675:../../../../../../Middlewares/Third_Party/LoRaWAN/Mac/region/RegionCN779.c ****                     }
 1906              		.loc 1 675 0
 1907 0126 0632     		adds	r2, r2, #6
 1908 0128 9146     		mov	r9, r2
 1909              	.LVL159:
 1910              	.L143:
 672:../../../../../../Middlewares/Third_Party/LoRaWAN/Mac/region/RegionCN779.c ****                         ( NvmCtx.Channels[i].Frequency == 0 ) )
 1911              		.loc 1 672 0
 1912 012a 5A04     		lsls	r2, r3, #17
 1913 012c 05D5     		bpl	.L144
ARM GAS  C:\Users\EBANO_~1\AppData\Local\Temp\ccKJ5gfE.s 			page 56


 673:../../../../../../Middlewares/Third_Party/LoRaWAN/Mac/region/RegionCN779.c ****                     {// Trying to enable an undefined channel
 1914              		.loc 1 673 0
 1915 012e A822     		movs	r2, #168
 672:../../../../../../Middlewares/Third_Party/LoRaWAN/Mac/region/RegionCN779.c ****                         ( NvmCtx.Channels[i].Frequency == 0 ) )
 1916              		.loc 1 672 0
 1917 0130 BA58     		ldr	r2, [r7, r2]
 1918 0132 002A     		cmp	r2, #0
 1919 0134 01D1     		bne	.L144
 675:../../../../../../Middlewares/Third_Party/LoRaWAN/Mac/region/RegionCN779.c ****                     }
 1920              		.loc 1 675 0
 1921 0136 0632     		adds	r2, r2, #6
 1922 0138 9146     		mov	r9, r2
 1923              	.LVL160:
 1924              	.L144:
 672:../../../../../../Middlewares/Third_Party/LoRaWAN/Mac/region/RegionCN779.c ****                         ( NvmCtx.Channels[i].Frequency == 0 ) )
 1925              		.loc 1 672 0
 1926 013a 1BB2     		sxth	r3, r3
 1927 013c 002B     		cmp	r3, #0
 1928 013e 00DB     		blt	.LCB1839
 1929 0140 72E7     		b	.L122	@long jump
 1930              	.LCB1839:
 673:../../../../../../Middlewares/Third_Party/LoRaWAN/Mac/region/RegionCN779.c ****                     {// Trying to enable an undefined channel
 1931              		.loc 1 673 0
 1932 0142 B423     		movs	r3, #180
 672:../../../../../../Middlewares/Third_Party/LoRaWAN/Mac/region/RegionCN779.c ****                         ( NvmCtx.Channels[i].Frequency == 0 ) )
 1933              		.loc 1 672 0
 1934 0144 FB58     		ldr	r3, [r7, r3]
 1935 0146 002B     		cmp	r3, #0
 1936 0148 00D0     		beq	.LCB1843
 1937 014a 6DE7     		b	.L122	@long jump
 1938              	.LCB1843:
 675:../../../../../../Middlewares/Third_Party/LoRaWAN/Mac/region/RegionCN779.c ****                     }
 1939              		.loc 1 675 0
 1940 014c 0633     		adds	r3, r3, #6
 1941 014e 9946     		mov	r9, r3
 1942              	.LVL161:
 1943              	.LBE76:
 631:../../../../../../Middlewares/Third_Party/LoRaWAN/Mac/region/RegionCN779.c ****     {
 1944              		.loc 1 631 0
 1945 0150 337A     		ldrb	r3, [r6, #8]
 1946 0152 A342     		cmp	r3, r4
 1947 0154 00D9     		bls	.LCB1852
 1948 0156 6BE7     		b	.L166	@long jump
 1949              	.LCB1852:
 1950              	.LVL162:
 1951              	.L167:
 687:../../../../../../Middlewares/Third_Party/LoRaWAN/Mac/region/RegionCN779.c ****     linkAdrVerifyParams.AdrEnabled = linkAdrReq->AdrEnabled;
 1952              		.loc 1 687 0
 1953 0158 4B46     		mov	r3, r9
 1954 015a 06A8     		add	r0, sp, #24
 1955 015c 0371     		strb	r3, [r0, #4]
 688:../../../../../../Middlewares/Third_Party/LoRaWAN/Mac/region/RegionCN779.c ****     linkAdrVerifyParams.Datarate = linkAdrParams.Datarate;
 1956              		.loc 1 688 0
 1957 015e B37A     		ldrb	r3, [r6, #10]
 705:../../../../../../Middlewares/Third_Party/LoRaWAN/Mac/region/RegionCN779.c **** 
 1958              		.loc 1 705 0
 1959 0160 02A9     		add	r1, sp, #8
ARM GAS  C:\Users\EBANO_~1\AppData\Local\Temp\ccKJ5gfE.s 			page 57


 688:../../../../../../Middlewares/Third_Party/LoRaWAN/Mac/region/RegionCN779.c ****     linkAdrVerifyParams.Datarate = linkAdrParams.Datarate;
 1960              		.loc 1 688 0
 1961 0162 4371     		strb	r3, [r0, #5]
 689:../../../../../../Middlewares/Third_Party/LoRaWAN/Mac/region/RegionCN779.c ****     linkAdrVerifyParams.TxPower = linkAdrParams.TxPower;
 1962              		.loc 1 689 0
 1963 0164 6B78     		ldrb	r3, [r5, #1]
 705:../../../../../../Middlewares/Third_Party/LoRaWAN/Mac/region/RegionCN779.c **** 
 1964              		.loc 1 705 0
 1965 0166 8C46     		mov	ip, r1
 689:../../../../../../Middlewares/Third_Party/LoRaWAN/Mac/region/RegionCN779.c ****     linkAdrVerifyParams.TxPower = linkAdrParams.TxPower;
 1966              		.loc 1 689 0
 1967 0168 8371     		strb	r3, [r0, #6]
 690:../../../../../../Middlewares/Third_Party/LoRaWAN/Mac/region/RegionCN779.c ****     linkAdrVerifyParams.NbRep = linkAdrParams.NbRep;
 1968              		.loc 1 690 0
 1969 016a AB78     		ldrb	r3, [r5, #2]
 705:../../../../../../Middlewares/Third_Party/LoRaWAN/Mac/region/RegionCN779.c **** 
 1970              		.loc 1 705 0
 1971 016c 0A22     		movs	r2, #10
 690:../../../../../../Middlewares/Third_Party/LoRaWAN/Mac/region/RegionCN779.c ****     linkAdrVerifyParams.NbRep = linkAdrParams.NbRep;
 1972              		.loc 1 690 0
 1973 016e C371     		strb	r3, [r0, #7]
 691:../../../../../../Middlewares/Third_Party/LoRaWAN/Mac/region/RegionCN779.c ****     linkAdrVerifyParams.CurrentDatarate = linkAdrReq->CurrentDatarate;
 1974              		.loc 1 691 0
 1975 0170 2B78     		ldrb	r3, [r5]
 705:../../../../../../Middlewares/Third_Party/LoRaWAN/Mac/region/RegionCN779.c **** 
 1976              		.loc 1 705 0
 1977 0172 0921     		movs	r1, #9
 691:../../../../../../Middlewares/Third_Party/LoRaWAN/Mac/region/RegionCN779.c ****     linkAdrVerifyParams.CurrentDatarate = linkAdrReq->CurrentDatarate;
 1978              		.loc 1 691 0
 1979 0174 0372     		strb	r3, [r0, #8]
 692:../../../../../../Middlewares/Third_Party/LoRaWAN/Mac/region/RegionCN779.c ****     linkAdrVerifyParams.CurrentTxPower = linkAdrReq->CurrentTxPower;
 1980              		.loc 1 692 0
 1981 0176 F37A     		ldrb	r3, [r6, #11]
 705:../../../../../../Middlewares/Third_Party/LoRaWAN/Mac/region/RegionCN779.c **** 
 1982              		.loc 1 705 0
 1983 0178 6244     		add	r2, r2, ip
 692:../../../../../../Middlewares/Third_Party/LoRaWAN/Mac/region/RegionCN779.c ****     linkAdrVerifyParams.CurrentTxPower = linkAdrReq->CurrentTxPower;
 1984              		.loc 1 692 0
 1985 017a 4372     		strb	r3, [r0, #9]
 693:../../../../../../Middlewares/Third_Party/LoRaWAN/Mac/region/RegionCN779.c ****     linkAdrVerifyParams.CurrentNbRep = linkAdrReq->CurrentNbRep;
 1986              		.loc 1 693 0
 1987 017c 337B     		ldrb	r3, [r6, #12]
 705:../../../../../../Middlewares/Third_Party/LoRaWAN/Mac/region/RegionCN779.c **** 
 1988              		.loc 1 705 0
 1989 017e 6144     		add	r1, r1, ip
 693:../../../../../../Middlewares/Third_Party/LoRaWAN/Mac/region/RegionCN779.c ****     linkAdrVerifyParams.CurrentNbRep = linkAdrReq->CurrentNbRep;
 1990              		.loc 1 693 0
 1991 0180 8372     		strb	r3, [r0, #10]
 694:../../../../../../Middlewares/Third_Party/LoRaWAN/Mac/region/RegionCN779.c ****     linkAdrVerifyParams.NbChannels = CN779_MAX_NB_CHANNELS;
 1992              		.loc 1 694 0
 1993 0182 737B     		ldrb	r3, [r6, #13]
 699:../../../../../../Middlewares/Third_Party/LoRaWAN/Mac/region/RegionCN779.c ****     linkAdrVerifyParams.MinTxPower = CN779_MIN_TX_POWER;
 1994              		.loc 1 699 0
 1995 0184 8761     		str	r7, [r0, #24]
 694:../../../../../../Middlewares/Third_Party/LoRaWAN/Mac/region/RegionCN779.c ****     linkAdrVerifyParams.NbChannels = CN779_MAX_NB_CHANNELS;
 1996              		.loc 1 694 0
 1997 0186 C372     		strb	r3, [r0, #11]
ARM GAS  C:\Users\EBANO_~1\AppData\Local\Temp\ccKJ5gfE.s 			page 58


 695:../../../../../../Middlewares/Third_Party/LoRaWAN/Mac/region/RegionCN779.c ****     linkAdrVerifyParams.ChannelsMask = &chMask;
 1998              		.loc 1 695 0
 1999 0188 1023     		movs	r3, #16
 2000 018a 0373     		strb	r3, [r0, #12]
 696:../../../../../../Middlewares/Third_Party/LoRaWAN/Mac/region/RegionCN779.c ****     linkAdrVerifyParams.MinDatarate = ( int8_t )phyParam.Value;
 2001              		.loc 1 696 0
 2002 018c 02AB     		add	r3, sp, #8
 2003 018e 0633     		adds	r3, r3, #6
 2004 0190 0361     		str	r3, [r0, #16]
 697:../../../../../../Middlewares/Third_Party/LoRaWAN/Mac/region/RegionCN779.c ****     linkAdrVerifyParams.MaxDatarate = CN779_TX_MAX_DATARATE;
 2005              		.loc 1 697 0
 2006 0192 E023     		movs	r3, #224
 2007 0194 DB00     		lsls	r3, r3, #3
 2008 0196 8382     		strh	r3, [r0, #20]
 700:../../../../../../Middlewares/Third_Party/LoRaWAN/Mac/region/RegionCN779.c ****     linkAdrVerifyParams.MaxTxPower = CN779_MAX_TX_POWER;
 2009              		.loc 1 700 0
 2010 0198 0523     		movs	r3, #5
 2011 019a 8383     		strh	r3, [r0, #28]
 702:../../../../../../Middlewares/Third_Party/LoRaWAN/Mac/region/RegionCN779.c **** 
 2012              		.loc 1 702 0
 2013 019c 3368     		ldr	r3, [r6]
 2014 019e 0693     		str	r3, [sp, #24]
 705:../../../../../../Middlewares/Third_Party/LoRaWAN/Mac/region/RegionCN779.c **** 
 2015              		.loc 1 705 0
 2016 01a0 2B00     		movs	r3, r5
 2017 01a2 FFF7FEFF 		bl	RegionCommonLinkAdrReqVerifyParams
 2018              	.LVL163:
 2019 01a6 0600     		movs	r6, r0
 2020              	.LVL164:
 708:../../../../../../Middlewares/Third_Party/LoRaWAN/Mac/region/RegionCN779.c ****     {
 2021              		.loc 1 708 0
 2022 01a8 0728     		cmp	r0, #7
 2023 01aa 00D1     		bne	.LCB1903
 2024 01ac 91E0     		b	.L275	@long jump
 2025              	.LCB1903:
 2026              	.LVL165:
 2027              	.L125:
 717:../../../../../../Middlewares/Third_Party/LoRaWAN/Mac/region/RegionCN779.c ****     *txPowOut = linkAdrParams.TxPower;
 2028              		.loc 1 717 0
 2029 01ae 5A46     		mov	r2, fp
 2030 01b0 6B78     		ldrb	r3, [r5, #1]
 723:../../../../../../Middlewares/Third_Party/LoRaWAN/Mac/region/RegionCN779.c **** 
 2031              		.loc 1 723 0
 2032 01b2 3000     		movs	r0, r6
 717:../../../../../../Middlewares/Third_Party/LoRaWAN/Mac/region/RegionCN779.c ****     *txPowOut = linkAdrParams.TxPower;
 2033              		.loc 1 717 0
 2034 01b4 1370     		strb	r3, [r2]
 718:../../../../../../Middlewares/Third_Party/LoRaWAN/Mac/region/RegionCN779.c ****     *nbRepOut = linkAdrParams.NbRep;
 2035              		.loc 1 718 0
 2036 01b6 5246     		mov	r2, r10
 2037 01b8 AB78     		ldrb	r3, [r5, #2]
 2038 01ba 1370     		strb	r3, [r2]
 719:../../../../../../Middlewares/Third_Party/LoRaWAN/Mac/region/RegionCN779.c ****     *nbBytesParsed = bytesProcessed;
 2039              		.loc 1 719 0
 2040 01bc 2B78     		ldrb	r3, [r5]
 2041 01be 019A     		ldr	r2, [sp, #4]
 2042 01c0 1370     		strb	r3, [r2]
ARM GAS  C:\Users\EBANO_~1\AppData\Local\Temp\ccKJ5gfE.s 			page 59


 720:../../../../../../Middlewares/Third_Party/LoRaWAN/Mac/region/RegionCN779.c **** 
 2043              		.loc 1 720 0
 2044 01c2 189B     		ldr	r3, [sp, #96]
 2045 01c4 1C70     		strb	r4, [r3]
 723:../../../../../../Middlewares/Third_Party/LoRaWAN/Mac/region/RegionCN779.c **** 
 2046              		.loc 1 723 0
 2047 01c6 0FB0     		add	sp, sp, #60
 2048              		@ sp needed
 2049              	.LVL166:
 2050              	.LVL167:
 2051              	.LVL168:
 2052 01c8 3CBC     		pop	{r2, r3, r4, r5}
 2053 01ca 9046     		mov	r8, r2
 2054 01cc 9946     		mov	r9, r3
 2055 01ce A246     		mov	r10, r4
 2056 01d0 AB46     		mov	fp, r5
 2057 01d2 F0BD     		pop	{r4, r5, r6, r7, pc}
 2058              	.LVL169:
 2059              	.L126:
 651:../../../../../../Middlewares/Third_Party/LoRaWAN/Mac/region/RegionCN779.c ****         }
 2060              		.loc 1 651 0
 2061 01d4 0621     		movs	r1, #6
 2062 01d6 8946     		mov	r9, r1
 653:../../../../../../Middlewares/Third_Party/LoRaWAN/Mac/region/RegionCN779.c ****                 ( linkAdrParams.ChMaskCtrl >= 7 ) )
 2063              		.loc 1 653 0
 2064 01d8 511E     		subs	r1, r2, #1
 2065 01da 0429     		cmp	r1, #4
 2066 01dc 00D8     		bhi	.LCB1954
 2067 01de 23E7     		b	.L122	@long jump
 2068              	.LCB1954:
 653:../../../../../../Middlewares/Third_Party/LoRaWAN/Mac/region/RegionCN779.c ****                 ( linkAdrParams.ChMaskCtrl >= 7 ) )
 2069              		.loc 1 653 0 is_stmt 0 discriminator 1
 2070 01e0 062A     		cmp	r2, #6
 2071 01e2 00D0     		beq	.LCB1956
 2072 01e4 20E7     		b	.L122	@long jump
 2073              	.LCB1956:
 2074              	.LVL170:
 2075              	.LBB77:
 665:../../../../../../Middlewares/Third_Party/LoRaWAN/Mac/region/RegionCN779.c ****                     {
 2076              		.loc 1 665 0 is_stmt 1
 2077 01e6 3968     		ldr	r1, [r7]
 2078 01e8 0022     		movs	r2, #0
 2079 01ea 0029     		cmp	r1, #0
 2080 01ec 02D0     		beq	.L147
 667:../../../../../../Middlewares/Third_Party/LoRaWAN/Mac/region/RegionCN779.c ****                     }
 2081              		.loc 1 667 0
 2082 01ee 0123     		movs	r3, #1
 2083 01f0 0132     		adds	r2, r2, #1
 2084 01f2 0343     		orrs	r3, r0
 2085              	.L147:
 2086              	.LVL171:
 665:../../../../../../Middlewares/Third_Party/LoRaWAN/Mac/region/RegionCN779.c ****                     {
 2087              		.loc 1 665 0
 2088 01f4 F968     		ldr	r1, [r7, #12]
 2089 01f6 0029     		cmp	r1, #0
 2090 01f8 02D0     		beq	.L148
 667:../../../../../../Middlewares/Third_Party/LoRaWAN/Mac/region/RegionCN779.c ****                     }
ARM GAS  C:\Users\EBANO_~1\AppData\Local\Temp\ccKJ5gfE.s 			page 60


 2091              		.loc 1 667 0
 2092 01fa 0222     		movs	r2, #2
 2093 01fc 1343     		orrs	r3, r2
 2094 01fe 0122     		movs	r2, #1
 2095              	.L148:
 2096              	.LVL172:
 665:../../../../../../Middlewares/Third_Party/LoRaWAN/Mac/region/RegionCN779.c ****                     {
 2097              		.loc 1 665 0
 2098 0200 B969     		ldr	r1, [r7, #24]
 2099 0202 0029     		cmp	r1, #0
 2100 0204 02D0     		beq	.L149
 667:../../../../../../Middlewares/Third_Party/LoRaWAN/Mac/region/RegionCN779.c ****                     }
 2101              		.loc 1 667 0
 2102 0206 0422     		movs	r2, #4
 2103 0208 1343     		orrs	r3, r2
 2104 020a 0122     		movs	r2, #1
 2105              	.L149:
 2106              	.LVL173:
 665:../../../../../../Middlewares/Third_Party/LoRaWAN/Mac/region/RegionCN779.c ****                     {
 2107              		.loc 1 665 0
 2108 020c 796A     		ldr	r1, [r7, #36]
 2109 020e 0029     		cmp	r1, #0
 2110 0210 02D0     		beq	.L150
 667:../../../../../../Middlewares/Third_Party/LoRaWAN/Mac/region/RegionCN779.c ****                     }
 2111              		.loc 1 667 0
 2112 0212 0822     		movs	r2, #8
 2113 0214 1343     		orrs	r3, r2
 2114 0216 0122     		movs	r2, #1
 2115              	.L150:
 2116              	.LVL174:
 665:../../../../../../Middlewares/Third_Party/LoRaWAN/Mac/region/RegionCN779.c ****                     {
 2117              		.loc 1 665 0
 2118 0218 396B     		ldr	r1, [r7, #48]
 2119 021a 0029     		cmp	r1, #0
 2120 021c 02D0     		beq	.L151
 667:../../../../../../Middlewares/Third_Party/LoRaWAN/Mac/region/RegionCN779.c ****                     }
 2121              		.loc 1 667 0
 2122 021e 1022     		movs	r2, #16
 2123 0220 1343     		orrs	r3, r2
 2124 0222 0122     		movs	r2, #1
 2125              	.L151:
 2126              	.LVL175:
 665:../../../../../../Middlewares/Third_Party/LoRaWAN/Mac/region/RegionCN779.c ****                     {
 2127              		.loc 1 665 0
 2128 0224 F96B     		ldr	r1, [r7, #60]
 2129 0226 0029     		cmp	r1, #0
 2130 0228 02D0     		beq	.L152
 667:../../../../../../Middlewares/Third_Party/LoRaWAN/Mac/region/RegionCN779.c ****                     }
 2131              		.loc 1 667 0
 2132 022a 2022     		movs	r2, #32
 2133 022c 1343     		orrs	r3, r2
 2134 022e 0122     		movs	r2, #1
 2135              	.L152:
 2136              	.LVL176:
 665:../../../../../../Middlewares/Third_Party/LoRaWAN/Mac/region/RegionCN779.c ****                     {
 2137              		.loc 1 665 0
 2138 0230 B96C     		ldr	r1, [r7, #72]
ARM GAS  C:\Users\EBANO_~1\AppData\Local\Temp\ccKJ5gfE.s 			page 61


 2139 0232 0029     		cmp	r1, #0
 2140 0234 02D0     		beq	.L153
 667:../../../../../../Middlewares/Third_Party/LoRaWAN/Mac/region/RegionCN779.c ****                     }
 2141              		.loc 1 667 0
 2142 0236 4022     		movs	r2, #64
 2143 0238 1343     		orrs	r3, r2
 2144 023a 0122     		movs	r2, #1
 2145              	.L153:
 2146              	.LVL177:
 665:../../../../../../Middlewares/Third_Party/LoRaWAN/Mac/region/RegionCN779.c ****                     {
 2147              		.loc 1 665 0
 2148 023c 796D     		ldr	r1, [r7, #84]
 2149 023e 0029     		cmp	r1, #0
 2150 0240 02D0     		beq	.L154
 667:../../../../../../Middlewares/Third_Party/LoRaWAN/Mac/region/RegionCN779.c ****                     }
 2151              		.loc 1 667 0
 2152 0242 8022     		movs	r2, #128
 2153 0244 1343     		orrs	r3, r2
 2154 0246 0122     		movs	r2, #1
 2155              	.L154:
 2156              	.LVL178:
 665:../../../../../../Middlewares/Third_Party/LoRaWAN/Mac/region/RegionCN779.c ****                     {
 2157              		.loc 1 665 0
 2158 0248 396E     		ldr	r1, [r7, #96]
 2159 024a 0029     		cmp	r1, #0
 2160 024c 03D0     		beq	.L155
 667:../../../../../../Middlewares/Third_Party/LoRaWAN/Mac/region/RegionCN779.c ****                     }
 2161              		.loc 1 667 0
 2162 024e 8022     		movs	r2, #128
 2163 0250 5200     		lsls	r2, r2, #1
 2164 0252 1343     		orrs	r3, r2
 2165 0254 FF3A     		subs	r2, r2, #255
 2166              	.L155:
 2167              	.LVL179:
 665:../../../../../../Middlewares/Third_Party/LoRaWAN/Mac/region/RegionCN779.c ****                     {
 2168              		.loc 1 665 0
 2169 0256 F96E     		ldr	r1, [r7, #108]
 2170 0258 0029     		cmp	r1, #0
 2171 025a 03D0     		beq	.L156
 667:../../../../../../Middlewares/Third_Party/LoRaWAN/Mac/region/RegionCN779.c ****                     }
 2172              		.loc 1 667 0
 2173 025c 8022     		movs	r2, #128
 2174 025e 9200     		lsls	r2, r2, #2
 2175 0260 1343     		orrs	r3, r2
 2176 0262 0122     		movs	r2, #1
 2177              	.L156:
 2178              	.LVL180:
 665:../../../../../../Middlewares/Third_Party/LoRaWAN/Mac/region/RegionCN779.c ****                     {
 2179              		.loc 1 665 0
 2180 0264 B96F     		ldr	r1, [r7, #120]
 2181 0266 0029     		cmp	r1, #0
 2182 0268 03D0     		beq	.L157
 667:../../../../../../Middlewares/Third_Party/LoRaWAN/Mac/region/RegionCN779.c ****                     }
 2183              		.loc 1 667 0
 2184 026a 8022     		movs	r2, #128
 2185 026c D200     		lsls	r2, r2, #3
 2186 026e 1343     		orrs	r3, r2
ARM GAS  C:\Users\EBANO_~1\AppData\Local\Temp\ccKJ5gfE.s 			page 62


 2187 0270 0122     		movs	r2, #1
 2188              	.L157:
 2189              	.LVL181:
 665:../../../../../../Middlewares/Third_Party/LoRaWAN/Mac/region/RegionCN779.c ****                     {
 2190              		.loc 1 665 0
 2191 0272 8421     		movs	r1, #132
 2192 0274 7958     		ldr	r1, [r7, r1]
 2193 0276 0029     		cmp	r1, #0
 2194 0278 03D0     		beq	.L158
 667:../../../../../../Middlewares/Third_Party/LoRaWAN/Mac/region/RegionCN779.c ****                     }
 2195              		.loc 1 667 0
 2196 027a 8022     		movs	r2, #128
 2197 027c 1201     		lsls	r2, r2, #4
 2198 027e 1343     		orrs	r3, r2
 2199 0280 0122     		movs	r2, #1
 2200              	.L158:
 2201              	.LVL182:
 665:../../../../../../Middlewares/Third_Party/LoRaWAN/Mac/region/RegionCN779.c ****                     {
 2202              		.loc 1 665 0
 2203 0282 9021     		movs	r1, #144
 2204 0284 7958     		ldr	r1, [r7, r1]
 2205 0286 0029     		cmp	r1, #0
 2206 0288 03D0     		beq	.L159
 667:../../../../../../Middlewares/Third_Party/LoRaWAN/Mac/region/RegionCN779.c ****                     }
 2207              		.loc 1 667 0
 2208 028a 8022     		movs	r2, #128
 2209 028c 5201     		lsls	r2, r2, #5
 2210 028e 1343     		orrs	r3, r2
 2211 0290 0122     		movs	r2, #1
 2212              	.L159:
 2213              	.LVL183:
 665:../../../../../../Middlewares/Third_Party/LoRaWAN/Mac/region/RegionCN779.c ****                     {
 2214              		.loc 1 665 0
 2215 0292 9C21     		movs	r1, #156
 2216 0294 7958     		ldr	r1, [r7, r1]
 2217 0296 0029     		cmp	r1, #0
 2218 0298 26D1     		bne	.L276
 2219              	.LVL184:
 2220 029a A821     		movs	r1, #168
 2221 029c 7958     		ldr	r1, [r7, r1]
 2222 029e 0029     		cmp	r1, #0
 2223 02a0 0DD0     		beq	.L164
 2224              	.L161:
 667:../../../../../../Middlewares/Third_Party/LoRaWAN/Mac/region/RegionCN779.c ****                     }
 2225              		.loc 1 667 0
 2226 02a2 8022     		movs	r2, #128
 2227 02a4 D201     		lsls	r2, r2, #7
 2228 02a6 1343     		orrs	r3, r2
 2229              	.L274:
 2230              	.LVL185:
 665:../../../../../../Middlewares/Third_Party/LoRaWAN/Mac/region/RegionCN779.c ****                     {
 2231              		.loc 1 665 0
 2232 02a8 B422     		movs	r2, #180
 2233 02aa BA58     		ldr	r2, [r7, r2]
 2234 02ac 002A     		cmp	r2, #0
 2235 02ae 02D0     		beq	.L163
 2236              	.L162:
ARM GAS  C:\Users\EBANO_~1\AppData\Local\Temp\ccKJ5gfE.s 			page 63


 667:../../../../../../Middlewares/Third_Party/LoRaWAN/Mac/region/RegionCN779.c ****                     }
 2237              		.loc 1 667 0
 2238 02b0 8022     		movs	r2, #128
 2239 02b2 1202     		lsls	r2, r2, #8
 2240 02b4 1343     		orrs	r3, r2
 2241              	.LVL186:
 2242              	.L163:
 2243 02b6 02AA     		add	r2, sp, #8
 2244 02b8 D380     		strh	r3, [r2, #6]
 665:../../../../../../Middlewares/Third_Party/LoRaWAN/Mac/region/RegionCN779.c ****                     {
 2245              		.loc 1 665 0
 2246 02ba C146     		mov	r9, r8
 2247 02bc B4E6     		b	.L122
 2248              	.LVL187:
 2249              	.L164:
 2250 02be B421     		movs	r1, #180
 2251 02c0 7958     		ldr	r1, [r7, r1]
 2252 02c2 0029     		cmp	r1, #0
 2253 02c4 F4D1     		bne	.L162
 2254              	.LVL188:
 2255 02c6 0721     		movs	r1, #7
 2256 02c8 8946     		mov	r9, r1
 2257 02ca 002A     		cmp	r2, #0
 2258 02cc 00D1     		bne	.LCB2174
 2259 02ce ABE6     		b	.L122	@long jump
 2260              	.LCB2174:
 2261 02d0 F1E7     		b	.L163
 2262              	.LVL189:
 2263              	.L275:
 2264              	.LBE77:
 711:../../../../../../Middlewares/Third_Party/LoRaWAN/Mac/region/RegionCN779.c ****         // Update the channels mask
 2265              		.loc 1 711 0
 2266 02d2 3800     		movs	r0, r7
 2267              	.LVL190:
 2268 02d4 0222     		movs	r2, #2
 2269 02d6 D030     		adds	r0, r0, #208
 2270 02d8 0021     		movs	r1, #0
 2271 02da FFF7FEFF 		bl	memset1
 2272              	.LVL191:
 713:../../../../../../Middlewares/Third_Party/LoRaWAN/Mac/region/RegionCN779.c ****     }
 2273              		.loc 1 713 0
 2274 02de 02AB     		add	r3, sp, #8
 2275 02e0 DA88     		ldrh	r2, [r3, #6]
 2276 02e2 D023     		movs	r3, #208
 2277 02e4 FA52     		strh	r2, [r7, r3]
 2278 02e6 62E7     		b	.L125
 2279              	.LVL192:
 2280              	.L276:
 2281              	.LBB78:
 667:../../../../../../Middlewares/Third_Party/LoRaWAN/Mac/region/RegionCN779.c ****                     }
 2282              		.loc 1 667 0
 2283 02e8 8022     		movs	r2, #128
 2284 02ea 9201     		lsls	r2, r2, #6
 2285 02ec 1343     		orrs	r3, r2
 2286              	.LVL193:
 665:../../../../../../Middlewares/Third_Party/LoRaWAN/Mac/region/RegionCN779.c ****                     {
 2287              		.loc 1 665 0
ARM GAS  C:\Users\EBANO_~1\AppData\Local\Temp\ccKJ5gfE.s 			page 64


 2288 02ee A822     		movs	r2, #168
 2289 02f0 BA58     		ldr	r2, [r7, r2]
 2290 02f2 002A     		cmp	r2, #0
 2291 02f4 D5D1     		bne	.L161
 2292 02f6 D7E7     		b	.L274
 2293              	.L278:
 2294              		.align	2
 2295              	.L277:
 2296 02f8 00000000 		.word	NvmCtx
 2297              	.LBE78:
 2298              		.cfi_endproc
 2299              	.LFE54:
 2300              		.size	RegionCN779LinkAdrReq, .-RegionCN779LinkAdrReq
 2301              		.section	.text.RegionCN779RxParamSetupReq,"ax",%progbits
 2302              		.align	1
 2303              		.p2align 2,,3
 2304              		.global	RegionCN779RxParamSetupReq
 2305              		.syntax unified
 2306              		.code	16
 2307              		.thumb_func
 2308              		.fpu softvfp
 2309              		.type	RegionCN779RxParamSetupReq, %function
 2310              	RegionCN779RxParamSetupReq:
 2311              	.LFB55:
 726:../../../../../../Middlewares/Third_Party/LoRaWAN/Mac/region/RegionCN779.c ****     uint8_t status = 0x07;
 2312              		.loc 1 726 0
 2313              		.cfi_startproc
 2314              		@ args = 0, pretend = 0, frame = 8
 2315              		@ frame_needed = 0, uses_anonymous_args = 0
 2316              	.LVL194:
 2317 0000 70B5     		push	{r4, r5, r6, lr}
 2318              	.LCFI22:
 2319              		.cfi_def_cfa_offset 16
 2320              		.cfi_offset 4, -16
 2321              		.cfi_offset 5, -12
 2322              		.cfi_offset 6, -8
 2323              		.cfi_offset 14, -4
 2324              	.LBB79:
 2325              	.LBB80:
 111:../../../../../../Middlewares/Third_Party/LoRaWAN/Mac/region/RegionCN779.c ****     {
 2326              		.loc 1 111 0
 2327 0002 154B     		ldr	r3, .L289
 2328              	.LBE80:
 2329              	.LBE79:
 730:../../../../../../Middlewares/Third_Party/LoRaWAN/Mac/region/RegionCN779.c ****     {
 2330              		.loc 1 730 0
 2331 0004 4568     		ldr	r5, [r0, #4]
 2332              	.LVL195:
 2333              	.LBB84:
 2334              	.LBB81:
 111:../../../../../../Middlewares/Third_Party/LoRaWAN/Mac/region/RegionCN779.c ****     {
 2335              		.loc 1 111 0
 2336 0006 9B6A     		ldr	r3, [r3, #40]
 2337              	.LBE81:
 2338              	.LBE84:
 726:../../../../../../Middlewares/Third_Party/LoRaWAN/Mac/region/RegionCN779.c ****     uint8_t status = 0x07;
 2339              		.loc 1 726 0
ARM GAS  C:\Users\EBANO_~1\AppData\Local\Temp\ccKJ5gfE.s 			page 65


 2340 0008 82B0     		sub	sp, sp, #8
 2341              	.LCFI23:
 2342              		.cfi_def_cfa_offset 24
 726:../../../../../../Middlewares/Third_Party/LoRaWAN/Mac/region/RegionCN779.c ****     uint8_t status = 0x07;
 2343              		.loc 1 726 0
 2344 000a 0400     		movs	r4, r0
 2345              	.LBB85:
 2346              	.LBB82:
 111:../../../../../../Middlewares/Third_Party/LoRaWAN/Mac/region/RegionCN779.c ****     {
 2347              		.loc 1 111 0
 2348 000c 2800     		movs	r0, r5
 2349              	.LVL196:
 2350 000e 0193     		str	r3, [sp, #4]
 2351 0010 9847     		blx	r3
 2352              	.LVL197:
 2353 0012 0028     		cmp	r0, #0
 2354 0014 05D0     		beq	.L284
 116:../../../../../../Middlewares/Third_Party/LoRaWAN/Mac/region/RegionCN779.c ****     {
 2355              		.loc 1 116 0
 2356 0016 114B     		ldr	r3, .L289+4
 2357 0018 9C46     		mov	ip, r3
 2358 001a 114B     		ldr	r3, .L289+8
 2359 001c 6544     		add	r5, r5, ip
 2360              	.LVL198:
 2361 001e 9D42     		cmp	r5, r3
 2362 0020 17D9     		bls	.L288
 2363              	.LVL199:
 2364              	.L284:
 2365 0022 0425     		movs	r5, #4
 2366              	.LBE82:
 2367              	.LBE85:
 732:../../../../../../Middlewares/Third_Party/LoRaWAN/Mac/region/RegionCN779.c ****     }
 2368              		.loc 1 732 0
 2369 0024 0626     		movs	r6, #6
 2370              	.L280:
 2371              	.LVL200:
 736:../../../../../../Middlewares/Third_Party/LoRaWAN/Mac/region/RegionCN779.c ****     {
 2372              		.loc 1 736 0
 2373 0026 0020     		movs	r0, #0
 2374 0028 0722     		movs	r2, #7
 2375 002a 2056     		ldrsb	r0, [r4, r0]
 2376 002c 0021     		movs	r1, #0
 2377 002e FFF7FEFF 		bl	RegionCommonValueInRange
 2378              	.LVL201:
 2379 0032 0028     		cmp	r0, #0
 2380 0034 00D0     		beq	.L281
 2381 0036 3500     		movs	r5, r6
 2382              	.L281:
 2383              	.LVL202:
 742:../../../../../../Middlewares/Third_Party/LoRaWAN/Mac/region/RegionCN779.c ****     {
 2384              		.loc 1 742 0
 2385 0038 0120     		movs	r0, #1
 2386 003a 0522     		movs	r2, #5
 2387 003c 2056     		ldrsb	r0, [r4, r0]
 2388 003e 0021     		movs	r1, #0
 2389 0040 FFF7FEFF 		bl	RegionCommonValueInRange
 2390              	.LVL203:
ARM GAS  C:\Users\EBANO_~1\AppData\Local\Temp\ccKJ5gfE.s 			page 66


 2391 0044 0028     		cmp	r0, #0
 2392 0046 01D1     		bne	.L282
 744:../../../../../../Middlewares/Third_Party/LoRaWAN/Mac/region/RegionCN779.c ****     }
 2393              		.loc 1 744 0
 2394 0048 FB23     		movs	r3, #251
 2395 004a 1D40     		ands	r5, r3
 2396              	.LVL204:
 2397              	.L282:
 748:../../../../../../Middlewares/Third_Party/LoRaWAN/Mac/region/RegionCN779.c **** 
 2398              		.loc 1 748 0
 2399 004c 2800     		movs	r0, r5
 2400 004e 02B0     		add	sp, sp, #8
 2401              		@ sp needed
 2402              	.LVL205:
 2403              	.LVL206:
 2404 0050 70BD     		pop	{r4, r5, r6, pc}
 2405              	.LVL207:
 2406              	.L288:
 2407              	.LBB86:
 2408              	.LBB83:
 116:../../../../../../Middlewares/Third_Party/LoRaWAN/Mac/region/RegionCN779.c ****     {
 2409              		.loc 1 116 0
 2410 0052 0525     		movs	r5, #5
 2411              	.LVL208:
 2412              	.LBE83:
 2413              	.LBE86:
 727:../../../../../../Middlewares/Third_Party/LoRaWAN/Mac/region/RegionCN779.c **** 
 2414              		.loc 1 727 0
 2415 0054 0726     		movs	r6, #7
 2416 0056 E6E7     		b	.L280
 2417              	.L290:
 2418              		.align	2
 2419              	.L289:
 2420 0058 00000000 		.word	Radio
 2421 005c 20C689D1 		.word	-779500000
 2422 0060 C0CF6A00 		.word	7000000
 2423              		.cfi_endproc
 2424              	.LFE55:
 2425              		.size	RegionCN779RxParamSetupReq, .-RegionCN779RxParamSetupReq
 2426              		.section	.text.RegionCN779NewChannelReq,"ax",%progbits
 2427              		.align	1
 2428              		.p2align 2,,3
 2429              		.global	RegionCN779NewChannelReq
 2430              		.syntax unified
 2431              		.code	16
 2432              		.thumb_func
 2433              		.fpu softvfp
 2434              		.type	RegionCN779NewChannelReq, %function
 2435              	RegionCN779NewChannelReq:
 2436              	.LFB56:
 751:../../../../../../Middlewares/Third_Party/LoRaWAN/Mac/region/RegionCN779.c ****     uint8_t status = 0x03;
 2437              		.loc 1 751 0
 2438              		.cfi_startproc
 2439              		@ args = 0, pretend = 0, frame = 8
 2440              		@ frame_needed = 0, uses_anonymous_args = 0
 2441              	.LVL209:
 2442 0000 F0B5     		push	{r4, r5, r6, r7, lr}
ARM GAS  C:\Users\EBANO_~1\AppData\Local\Temp\ccKJ5gfE.s 			page 67


 2443              	.LCFI24:
 2444              		.cfi_def_cfa_offset 20
 2445              		.cfi_offset 4, -20
 2446              		.cfi_offset 5, -16
 2447              		.cfi_offset 6, -12
 2448              		.cfi_offset 7, -8
 2449              		.cfi_offset 14, -4
 2450 0002 C646     		mov	lr, r8
 2451 0004 00B5     		push	{lr}
 2452              	.LCFI25:
 2453              		.cfi_def_cfa_offset 24
 2454              		.cfi_offset 8, -24
 756:../../../../../../Middlewares/Third_Party/LoRaWAN/Mac/region/RegionCN779.c ****     {
 2455              		.loc 1 756 0
 2456 0006 0468     		ldr	r4, [r0]
 751:../../../../../../Middlewares/Third_Party/LoRaWAN/Mac/region/RegionCN779.c ****     uint8_t status = 0x03;
 2457              		.loc 1 751 0
 2458 0008 82B0     		sub	sp, sp, #8
 2459              	.LCFI26:
 2460              		.cfi_def_cfa_offset 32
 756:../../../../../../Middlewares/Third_Party/LoRaWAN/Mac/region/RegionCN779.c ****     {
 2461              		.loc 1 756 0
 2462 000a 2368     		ldr	r3, [r4]
 2463 000c 0579     		ldrb	r5, [r0, #4]
 2464 000e 002B     		cmp	r3, #0
 2465 0010 06D1     		bne	.L292
 2466              	.LVL210:
 2467              	.LBB93:
 2468              	.LBB94:
 971:../../../../../../Middlewares/Third_Party/LoRaWAN/Mac/region/RegionCN779.c ****     {
 2469              		.loc 1 971 0
 2470 0012 022D     		cmp	r5, #2
 2471 0014 4AD8     		bhi	.L311
 2472              	.LVL211:
 2473              	.L293:
 2474              	.LBE94:
 2475              	.LBE93:
 763:../../../../../../Middlewares/Third_Party/LoRaWAN/Mac/region/RegionCN779.c ****         }
 2476              		.loc 1 763 0
 2477 0016 0020     		movs	r0, #0
 2478              	.L306:
 801:../../../../../../Middlewares/Third_Party/LoRaWAN/Mac/region/RegionCN779.c **** 
 2479              		.loc 1 801 0
 2480 0018 02B0     		add	sp, sp, #8
 2481              		@ sp needed
 2482 001a 04BC     		pop	{r2}
 2483 001c 9046     		mov	r8, r2
 2484 001e F0BD     		pop	{r4, r5, r6, r7, pc}
 2485              	.LVL212:
 2486              	.L292:
 2487              	.LBB96:
 2488              	.LBB97:
 914:../../../../../../Middlewares/Third_Party/LoRaWAN/Mac/region/RegionCN779.c ****     {
 2489              		.loc 1 914 0
 2490 0020 EB1E     		subs	r3, r5, #3
 2491 0022 0C2B     		cmp	r3, #12
 2492 0024 F7D8     		bhi	.L293
ARM GAS  C:\Users\EBANO_~1\AppData\Local\Temp\ccKJ5gfE.s 			page 68


 925:../../../../../../Middlewares/Third_Party/LoRaWAN/Mac/region/RegionCN779.c ****     {
 2493              		.loc 1 925 0
 2494 0026 207A     		ldrb	r0, [r4, #8]
 2495              	.LVL213:
 2496 0028 0722     		movs	r2, #7
 2497 002a 0007     		lsls	r0, r0, #28
 2498 002c 0021     		movs	r1, #0
 2499 002e 0017     		asrs	r0, r0, #28
 2500 0030 FFF7FEFF 		bl	RegionCommonValueInRange
 2501              	.LVL214:
 2502 0034 0600     		movs	r6, r0
 2503              	.LVL215:
 929:../../../../../../Middlewares/Third_Party/LoRaWAN/Mac/region/RegionCN779.c ****     {
 2504              		.loc 1 929 0
 2505 0036 0820     		movs	r0, #8
 2506 0038 2056     		ldrsb	r0, [r4, r0]
 2507 003a 0722     		movs	r2, #7
 2508 003c 0011     		asrs	r0, r0, #4
 2509 003e 0021     		movs	r1, #0
 2510 0040 FFF7FEFF 		bl	RegionCommonValueInRange
 2511              	.LVL216:
 931:../../../../../../Middlewares/Third_Party/LoRaWAN/Mac/region/RegionCN779.c ****     }
 2512              		.loc 1 931 0
 2513 0044 0127     		movs	r7, #1
 929:../../../../../../Middlewares/Third_Party/LoRaWAN/Mac/region/RegionCN779.c ****     {
 2514              		.loc 1 929 0
 2515 0046 0028     		cmp	r0, #0
 2516 0048 02D0     		beq	.L295
 925:../../../../../../Middlewares/Third_Party/LoRaWAN/Mac/region/RegionCN779.c ****     {
 2517              		.loc 1 925 0
 2518 004a 7742     		rsbs	r7, r6, #0
 2519 004c 7741     		adcs	r7, r7, r6
 2520              	.LVL217:
 2521 004e FFB2     		uxtb	r7, r7
 2522              	.L295:
 2523              	.LVL218:
 2524 0050 294B     		ldr	r3, .L312
 2525 0052 2668     		ldr	r6, [r4]
 2526 0054 9B6A     		ldr	r3, [r3, #40]
 2527              	.LBB98:
 2528              	.LBB99:
 111:../../../../../../Middlewares/Third_Party/LoRaWAN/Mac/region/RegionCN779.c ****     {
 2529              		.loc 1 111 0
 2530 0056 3000     		movs	r0, r6
 2531 0058 0193     		str	r3, [sp, #4]
 2532              	.LBE99:
 2533              	.LBE98:
 933:../../../../../../Middlewares/Third_Party/LoRaWAN/Mac/region/RegionCN779.c ****     {
 2534              		.loc 1 933 0
 2535 005a 237A     		ldrb	r3, [r4, #8]
 2536 005c 1A07     		lsls	r2, r3, #28
 2537 005e 5BB2     		sxtb	r3, r3
 2538 0060 1217     		asrs	r2, r2, #28
 2539 0062 1B11     		asrs	r3, r3, #4
 2540 0064 9A42     		cmp	r2, r3
 2541 0066 39DC     		bgt	.L296
 2542              	.LVL219:
ARM GAS  C:\Users\EBANO_~1\AppData\Local\Temp\ccKJ5gfE.s 			page 69


 2543              	.LBB102:
 2544              	.LBB100:
 111:../../../../../../Middlewares/Third_Party/LoRaWAN/Mac/region/RegionCN779.c ****     {
 2545              		.loc 1 111 0
 2546 0068 019B     		ldr	r3, [sp, #4]
 2547 006a 9847     		blx	r3
 2548              	.LVL220:
 2549 006c 0028     		cmp	r0, #0
 2550 006e 31D0     		beq	.L297
 116:../../../../../../Middlewares/Third_Party/LoRaWAN/Mac/region/RegionCN779.c ****     {
 2551              		.loc 1 116 0
 2552 0070 224B     		ldr	r3, .L312+4
 2553 0072 9C46     		mov	ip, r3
 2554 0074 224B     		ldr	r3, .L312+8
 2555 0076 6644     		add	r6, r6, ip
 2556 0078 9E42     		cmp	r6, r3
 2557 007a 2BD8     		bhi	.L297
 2558              	.LBE100:
 2559              	.LBE102:
 948:../../../../../../Middlewares/Third_Party/LoRaWAN/Mac/region/RegionCN779.c ****     {
 2560              		.loc 1 948 0
 2561 007c 002F     		cmp	r7, #0
 2562 007e 38D1     		bne	.L301
 961:../../../../../../Middlewares/Third_Party/LoRaWAN/Mac/region/RegionCN779.c ****     NvmCtx.Channels[id].Band = 0;
 2563              		.loc 1 961 0
 2564 0080 204B     		ldr	r3, .L312+12
 2565 0082 6E00     		lsls	r6, r5, #1
 2566 0084 9846     		mov	r8, r3
 2567 0086 7619     		adds	r6, r6, r5
 2568 0088 B600     		lsls	r6, r6, #2
 2569 008a 4644     		add	r6, r6, r8
 2570 008c 0C22     		movs	r2, #12
 2571 008e 2100     		movs	r1, r4
 2572 0090 3000     		movs	r0, r6
 2573 0092 FFF7FEFF 		bl	memcpy1
 2574              	.LVL221:
 963:../../../../../../Middlewares/Third_Party/LoRaWAN/Mac/region/RegionCN779.c ****     return LORAMAC_STATUS_OK;
 2575              		.loc 1 963 0
 2576 0096 0122     		movs	r2, #1
 2577 0098 D021     		movs	r1, #208
 2578 009a 4346     		mov	r3, r8
 2579 009c AA40     		lsls	r2, r2, r5
 962:../../../../../../Middlewares/Third_Party/LoRaWAN/Mac/region/RegionCN779.c ****     NvmCtx.ChannelsMask[0] |= ( 1 << id );
 2580              		.loc 1 962 0
 2581 009e 7772     		strb	r7, [r6, #9]
 963:../../../../../../Middlewares/Third_Party/LoRaWAN/Mac/region/RegionCN779.c ****     return LORAMAC_STATUS_OK;
 2582              		.loc 1 963 0
 2583 00a0 5B5A     		ldrh	r3, [r3, r1]
 2584              	.LBE97:
 2585              	.LBE96:
 752:../../../../../../Middlewares/Third_Party/LoRaWAN/Mac/region/RegionCN779.c ****     ChannelAddParams_t channelAdd;
 2586              		.loc 1 752 0
 2587 00a2 0320     		movs	r0, #3
 2588              	.LBB107:
 2589              	.LBB104:
 963:../../../../../../Middlewares/Third_Party/LoRaWAN/Mac/region/RegionCN779.c ****     return LORAMAC_STATUS_OK;
 2590              		.loc 1 963 0
ARM GAS  C:\Users\EBANO_~1\AppData\Local\Temp\ccKJ5gfE.s 			page 70


 2591 00a4 1343     		orrs	r3, r2
 2592 00a6 4246     		mov	r2, r8
 2593 00a8 5352     		strh	r3, [r2, r1]
 2594              	.LVL222:
 2595              	.LBE104:
 2596              	.LBE107:
 800:../../../../../../Middlewares/Third_Party/LoRaWAN/Mac/region/RegionCN779.c **** }
 2597              		.loc 1 800 0
 2598 00aa B5E7     		b	.L306
 2599              	.LVL223:
 2600              	.L311:
 2601              	.LBB108:
 2602              	.LBB95:
 977:../../../../../../Middlewares/Third_Party/LoRaWAN/Mac/region/RegionCN779.c **** 
 2603              		.loc 1 977 0
 2604 00ac 6800     		lsls	r0, r5, #1
 2605              	.LVL224:
 2606 00ae 154C     		ldr	r4, .L312+12
 2607 00b0 4019     		adds	r0, r0, r5
 2608 00b2 8000     		lsls	r0, r0, #2
 2609 00b4 0C22     		movs	r2, #12
 2610 00b6 0021     		movs	r1, #0
 2611 00b8 2018     		adds	r0, r4, r0
 2612 00ba FFF7FEFF 		bl	memset
 2613              	.LVL225:
 2614              		.loc 1 979 0
 2615 00be 2000     		movs	r0, r4
 2616 00c0 1022     		movs	r2, #16
 2617 00c2 D030     		adds	r0, r0, #208
 2618 00c4 2900     		movs	r1, r5
 2619 00c6 FFF7FEFF 		bl	RegionCommonChanDisable
 2620              	.LVL226:
 2621 00ca 0300     		movs	r3, r0
 2622              	.LVL227:
 2623              	.LBE95:
 2624              	.LBE108:
 752:../../../../../../Middlewares/Third_Party/LoRaWAN/Mac/region/RegionCN779.c ****     ChannelAddParams_t channelAdd;
 2625              		.loc 1 752 0
 2626 00cc 0320     		movs	r0, #3
 761:../../../../../../Middlewares/Third_Party/LoRaWAN/Mac/region/RegionCN779.c ****         {
 2627              		.loc 1 761 0
 2628 00ce 002B     		cmp	r3, #0
 2629 00d0 A2D1     		bne	.L306
 2630 00d2 A0E7     		b	.L293
 2631              	.LVL228:
 2632              	.L297:
 2633              	.LBB109:
 2634              	.LBB105:
 948:../../../../../../Middlewares/Third_Party/LoRaWAN/Mac/region/RegionCN779.c ****     {
 2635              		.loc 1 948 0
 2636 00d4 002F     		cmp	r7, #0
 2637 00d6 9ED1     		bne	.L293
 2638              	.LBE105:
 2639              	.LBE109:
 779:../../../../../../Middlewares/Third_Party/LoRaWAN/Mac/region/RegionCN779.c ****                 break;
 2640              		.loc 1 779 0
 2641 00d8 0220     		movs	r0, #2
ARM GAS  C:\Users\EBANO_~1\AppData\Local\Temp\ccKJ5gfE.s 			page 71


 2642 00da 9DE7     		b	.L306
 2643              	.LVL229:
 2644              	.L296:
 2645              	.LBB110:
 2646              	.LBB106:
 2647              	.LBB103:
 2648              	.LBB101:
 111:../../../../../../Middlewares/Third_Party/LoRaWAN/Mac/region/RegionCN779.c ****     {
 2649              		.loc 1 111 0
 2650 00dc 019B     		ldr	r3, [sp, #4]
 2651 00de 9847     		blx	r3
 2652              	.LVL230:
 2653 00e0 0028     		cmp	r0, #0
 2654 00e2 98D0     		beq	.L293
 116:../../../../../../Middlewares/Third_Party/LoRaWAN/Mac/region/RegionCN779.c ****     {
 2655              		.loc 1 116 0
 2656 00e4 054B     		ldr	r3, .L312+4
 2657 00e6 9C46     		mov	ip, r3
 2658 00e8 054B     		ldr	r3, .L312+8
 2659 00ea 6644     		add	r6, r6, ip
 2660 00ec 9E42     		cmp	r6, r3
 2661 00ee 00D9     		bls	.LCB2593
 2662 00f0 91E7     		b	.L293	@long jump
 2663              	.LCB2593:
 2664              	.LVL231:
 2665              	.L301:
 2666              	.LBE101:
 2667              	.LBE103:
 2668              	.LBE106:
 2669              	.LBE110:
 784:../../../../../../Middlewares/Third_Party/LoRaWAN/Mac/region/RegionCN779.c ****                 break;
 2670              		.loc 1 784 0
 2671 00f2 0120     		movs	r0, #1
 2672 00f4 90E7     		b	.L306
 2673              	.L313:
 2674 00f6 C046     		.align	2
 2675              	.L312:
 2676 00f8 00000000 		.word	Radio
 2677 00fc 20C689D1 		.word	-779500000
 2678 0100 C0CF6A00 		.word	7000000
 2679 0104 00000000 		.word	NvmCtx
 2680              		.cfi_endproc
 2681              	.LFE56:
