ARM GAS  C:\Users\EBANO_~1\AppData\Local\Temp\ccLo4wHn.s 			page 1


   1              		.cpu cortex-m0plus
   2              		.eabi_attribute 20, 1
   3              		.eabi_attribute 21, 1
   4              		.eabi_attribute 23, 3
   5              		.eabi_attribute 24, 1
   6              		.eabi_attribute 25, 1
   7              		.eabi_attribute 26, 1
   8              		.eabi_attribute 30, 2
   9              		.eabi_attribute 34, 0
  10              		.eabi_attribute 18, 4
  11              		.file	"RegionKR920.c"
  12              		.text
  13              	.Ltext0:
  14              		.cfi_sections	.debug_frame
  15              		.section	.text.RegionKR920GetPhyParam,"ax",%progbits
  16              		.align	1
  17              		.p2align 2,,3
  18              		.global	RegionKR920GetPhyParam
  19              		.syntax unified
  20              		.code	16
  21              		.thumb_func
  22              		.fpu softvfp
  23              		.type	RegionKR920GetPhyParam, %function
  24              	RegionKR920GetPhyParam:
  25              	.LFB45:
  26              		.file 1 "../../../../../../Middlewares/Third_Party/LoRaWAN/Mac/region/RegionKR920.c"
   1:../../../../../../Middlewares/Third_Party/LoRaWAN/Mac/region/RegionKR920.c **** /*!
   2:../../../../../../Middlewares/Third_Party/LoRaWAN/Mac/region/RegionKR920.c ****  * \file      RegionKR920.c
   3:../../../../../../Middlewares/Third_Party/LoRaWAN/Mac/region/RegionKR920.c ****  *
   4:../../../../../../Middlewares/Third_Party/LoRaWAN/Mac/region/RegionKR920.c ****  * \brief     Region implementation for KR920
   5:../../../../../../Middlewares/Third_Party/LoRaWAN/Mac/region/RegionKR920.c ****  *
   6:../../../../../../Middlewares/Third_Party/LoRaWAN/Mac/region/RegionKR920.c ****  * \copyright Revised BSD License, see section \ref LICENSE.
   7:../../../../../../Middlewares/Third_Party/LoRaWAN/Mac/region/RegionKR920.c ****  *
   8:../../../../../../Middlewares/Third_Party/LoRaWAN/Mac/region/RegionKR920.c ****  * \code
   9:../../../../../../Middlewares/Third_Party/LoRaWAN/Mac/region/RegionKR920.c ****  *                ______                              _
  10:../../../../../../Middlewares/Third_Party/LoRaWAN/Mac/region/RegionKR920.c ****  *               / _____)             _              | |
  11:../../../../../../Middlewares/Third_Party/LoRaWAN/Mac/region/RegionKR920.c ****  *              ( (____  _____ ____ _| |_ _____  ____| |__
  12:../../../../../../Middlewares/Third_Party/LoRaWAN/Mac/region/RegionKR920.c ****  *               \____ \| ___ |    (_   _) ___ |/ ___)  _ \
  13:../../../../../../Middlewares/Third_Party/LoRaWAN/Mac/region/RegionKR920.c ****  *               _____) ) ____| | | || |_| ____( (___| | | |
  14:../../../../../../Middlewares/Third_Party/LoRaWAN/Mac/region/RegionKR920.c ****  *              (______/|_____)_|_|_| \__)_____)\____)_| |_|
  15:../../../../../../Middlewares/Third_Party/LoRaWAN/Mac/region/RegionKR920.c ****  *              (C)2013-2017 Semtech
  16:../../../../../../Middlewares/Third_Party/LoRaWAN/Mac/region/RegionKR920.c ****  *
  17:../../../../../../Middlewares/Third_Party/LoRaWAN/Mac/region/RegionKR920.c ****  *               ___ _____ _   ___ _  _____ ___  ___  ___ ___
  18:../../../../../../Middlewares/Third_Party/LoRaWAN/Mac/region/RegionKR920.c ****  *              / __|_   _/_\ / __| |/ / __/ _ \| _ \/ __| __|
  19:../../../../../../Middlewares/Third_Party/LoRaWAN/Mac/region/RegionKR920.c ****  *              \__ \ | |/ _ \ (__| ' <| _| (_) |   / (__| _|
  20:../../../../../../Middlewares/Third_Party/LoRaWAN/Mac/region/RegionKR920.c ****  *              |___/ |_/_/ \_\___|_|\_\_| \___/|_|_\\___|___|
  21:../../../../../../Middlewares/Third_Party/LoRaWAN/Mac/region/RegionKR920.c ****  *              embedded.connectivity.solutions===============
  22:../../../../../../Middlewares/Third_Party/LoRaWAN/Mac/region/RegionKR920.c ****  *
  23:../../../../../../Middlewares/Third_Party/LoRaWAN/Mac/region/RegionKR920.c ****  * \endcode
  24:../../../../../../Middlewares/Third_Party/LoRaWAN/Mac/region/RegionKR920.c ****  *
  25:../../../../../../Middlewares/Third_Party/LoRaWAN/Mac/region/RegionKR920.c ****  * \author    Miguel Luis ( Semtech )
  26:../../../../../../Middlewares/Third_Party/LoRaWAN/Mac/region/RegionKR920.c ****  *
  27:../../../../../../Middlewares/Third_Party/LoRaWAN/Mac/region/RegionKR920.c ****  * \author    Gregory Cristian ( Semtech )
  28:../../../../../../Middlewares/Third_Party/LoRaWAN/Mac/region/RegionKR920.c ****  *
  29:../../../../../../Middlewares/Third_Party/LoRaWAN/Mac/region/RegionKR920.c ****  * \author    Daniel Jaeckle ( STACKFORCE )
  30:../../../../../../Middlewares/Third_Party/LoRaWAN/Mac/region/RegionKR920.c **** */
  31:../../../../../../Middlewares/Third_Party/LoRaWAN/Mac/region/RegionKR920.c **** #include "utilities.h"
ARM GAS  C:\Users\EBANO_~1\AppData\Local\Temp\ccLo4wHn.s 			page 2


  32:../../../../../../Middlewares/Third_Party/LoRaWAN/Mac/region/RegionKR920.c **** 
  33:../../../../../../Middlewares/Third_Party/LoRaWAN/Mac/region/RegionKR920.c **** #include "RegionCommon.h"
  34:../../../../../../Middlewares/Third_Party/LoRaWAN/Mac/region/RegionKR920.c **** #include "RegionKR920.h"
  35:../../../../../../Middlewares/Third_Party/LoRaWAN/Mac/region/RegionKR920.c **** #include "util_console.h"
  36:../../../../../../Middlewares/Third_Party/LoRaWAN/Mac/region/RegionKR920.c **** 
  37:../../../../../../Middlewares/Third_Party/LoRaWAN/Mac/region/RegionKR920.c **** // Definitions
  38:../../../../../../Middlewares/Third_Party/LoRaWAN/Mac/region/RegionKR920.c **** #define CHANNELS_MASK_SIZE              1
  39:../../../../../../Middlewares/Third_Party/LoRaWAN/Mac/region/RegionKR920.c **** 
  40:../../../../../../Middlewares/Third_Party/LoRaWAN/Mac/region/RegionKR920.c **** /*!
  41:../../../../../../Middlewares/Third_Party/LoRaWAN/Mac/region/RegionKR920.c ****  * Region specific context
  42:../../../../../../Middlewares/Third_Party/LoRaWAN/Mac/region/RegionKR920.c ****  */
  43:../../../../../../Middlewares/Third_Party/LoRaWAN/Mac/region/RegionKR920.c **** typedef struct sRegionKR920NvmCtx
  44:../../../../../../Middlewares/Third_Party/LoRaWAN/Mac/region/RegionKR920.c **** {
  45:../../../../../../Middlewares/Third_Party/LoRaWAN/Mac/region/RegionKR920.c ****     /*!
  46:../../../../../../Middlewares/Third_Party/LoRaWAN/Mac/region/RegionKR920.c ****      * LoRaMAC channels
  47:../../../../../../Middlewares/Third_Party/LoRaWAN/Mac/region/RegionKR920.c ****      */
  48:../../../../../../Middlewares/Third_Party/LoRaWAN/Mac/region/RegionKR920.c ****     ChannelParams_t Channels[ KR920_MAX_NB_CHANNELS ];
  49:../../../../../../Middlewares/Third_Party/LoRaWAN/Mac/region/RegionKR920.c ****     /*!
  50:../../../../../../Middlewares/Third_Party/LoRaWAN/Mac/region/RegionKR920.c ****      * LoRaMac bands
  51:../../../../../../Middlewares/Third_Party/LoRaWAN/Mac/region/RegionKR920.c ****      */
  52:../../../../../../Middlewares/Third_Party/LoRaWAN/Mac/region/RegionKR920.c ****     Band_t Bands[ KR920_MAX_NB_BANDS ];
  53:../../../../../../Middlewares/Third_Party/LoRaWAN/Mac/region/RegionKR920.c ****     /*!
  54:../../../../../../Middlewares/Third_Party/LoRaWAN/Mac/region/RegionKR920.c ****      * LoRaMac channels mask
  55:../../../../../../Middlewares/Third_Party/LoRaWAN/Mac/region/RegionKR920.c ****      */
  56:../../../../../../Middlewares/Third_Party/LoRaWAN/Mac/region/RegionKR920.c ****     uint16_t ChannelsMask[ CHANNELS_MASK_SIZE ];
  57:../../../../../../Middlewares/Third_Party/LoRaWAN/Mac/region/RegionKR920.c ****     /*!
  58:../../../../../../Middlewares/Third_Party/LoRaWAN/Mac/region/RegionKR920.c ****      * LoRaMac channels default mask
  59:../../../../../../Middlewares/Third_Party/LoRaWAN/Mac/region/RegionKR920.c ****      */
  60:../../../../../../Middlewares/Third_Party/LoRaWAN/Mac/region/RegionKR920.c ****     uint16_t ChannelsDefaultMask[ CHANNELS_MASK_SIZE ];
  61:../../../../../../Middlewares/Third_Party/LoRaWAN/Mac/region/RegionKR920.c **** }RegionKR920NvmCtx_t;
  62:../../../../../../Middlewares/Third_Party/LoRaWAN/Mac/region/RegionKR920.c **** 
  63:../../../../../../Middlewares/Third_Party/LoRaWAN/Mac/region/RegionKR920.c **** /*
  64:../../../../../../Middlewares/Third_Party/LoRaWAN/Mac/region/RegionKR920.c ****  * Non-volatile module context.
  65:../../../../../../Middlewares/Third_Party/LoRaWAN/Mac/region/RegionKR920.c ****  */
  66:../../../../../../Middlewares/Third_Party/LoRaWAN/Mac/region/RegionKR920.c **** static RegionKR920NvmCtx_t NvmCtx;
  67:../../../../../../Middlewares/Third_Party/LoRaWAN/Mac/region/RegionKR920.c **** 
  68:../../../../../../Middlewares/Third_Party/LoRaWAN/Mac/region/RegionKR920.c **** // Static functions
  69:../../../../../../Middlewares/Third_Party/LoRaWAN/Mac/region/RegionKR920.c **** static int8_t GetNextLowerTxDr( int8_t dr, int8_t minDr )
  70:../../../../../../Middlewares/Third_Party/LoRaWAN/Mac/region/RegionKR920.c **** {
  71:../../../../../../Middlewares/Third_Party/LoRaWAN/Mac/region/RegionKR920.c ****     uint8_t nextLowerDr = 0;
  72:../../../../../../Middlewares/Third_Party/LoRaWAN/Mac/region/RegionKR920.c **** 
  73:../../../../../../Middlewares/Third_Party/LoRaWAN/Mac/region/RegionKR920.c ****     if( dr == minDr )
  74:../../../../../../Middlewares/Third_Party/LoRaWAN/Mac/region/RegionKR920.c ****     {
  75:../../../../../../Middlewares/Third_Party/LoRaWAN/Mac/region/RegionKR920.c ****         nextLowerDr = minDr;
  76:../../../../../../Middlewares/Third_Party/LoRaWAN/Mac/region/RegionKR920.c ****     }
  77:../../../../../../Middlewares/Third_Party/LoRaWAN/Mac/region/RegionKR920.c ****     else
  78:../../../../../../Middlewares/Third_Party/LoRaWAN/Mac/region/RegionKR920.c ****     {
  79:../../../../../../Middlewares/Third_Party/LoRaWAN/Mac/region/RegionKR920.c ****         nextLowerDr = dr - 1;
  80:../../../../../../Middlewares/Third_Party/LoRaWAN/Mac/region/RegionKR920.c ****     }
  81:../../../../../../Middlewares/Third_Party/LoRaWAN/Mac/region/RegionKR920.c ****     return nextLowerDr;
  82:../../../../../../Middlewares/Third_Party/LoRaWAN/Mac/region/RegionKR920.c **** }
  83:../../../../../../Middlewares/Third_Party/LoRaWAN/Mac/region/RegionKR920.c **** 
  84:../../../../../../Middlewares/Third_Party/LoRaWAN/Mac/region/RegionKR920.c **** static int8_t GetMaxEIRP( uint32_t freq )
  85:../../../../../../Middlewares/Third_Party/LoRaWAN/Mac/region/RegionKR920.c **** {
  86:../../../../../../Middlewares/Third_Party/LoRaWAN/Mac/region/RegionKR920.c ****     if( freq >= 922100000 )
  87:../../../../../../Middlewares/Third_Party/LoRaWAN/Mac/region/RegionKR920.c ****     {// Limit to 14dBm
  88:../../../../../../Middlewares/Third_Party/LoRaWAN/Mac/region/RegionKR920.c ****         return KR920_DEFAULT_MAX_EIRP_HIGH;
ARM GAS  C:\Users\EBANO_~1\AppData\Local\Temp\ccLo4wHn.s 			page 3


  89:../../../../../../Middlewares/Third_Party/LoRaWAN/Mac/region/RegionKR920.c ****     }
  90:../../../../../../Middlewares/Third_Party/LoRaWAN/Mac/region/RegionKR920.c ****     // Limit to 10dBm
  91:../../../../../../Middlewares/Third_Party/LoRaWAN/Mac/region/RegionKR920.c ****     return KR920_DEFAULT_MAX_EIRP_LOW;
  92:../../../../../../Middlewares/Third_Party/LoRaWAN/Mac/region/RegionKR920.c **** }
  93:../../../../../../Middlewares/Third_Party/LoRaWAN/Mac/region/RegionKR920.c **** 
  94:../../../../../../Middlewares/Third_Party/LoRaWAN/Mac/region/RegionKR920.c **** static uint32_t GetBandwidth( uint32_t drIndex )
  95:../../../../../../Middlewares/Third_Party/LoRaWAN/Mac/region/RegionKR920.c **** {
  96:../../../../../../Middlewares/Third_Party/LoRaWAN/Mac/region/RegionKR920.c ****     switch( BandwidthsKR920[drIndex] )
  97:../../../../../../Middlewares/Third_Party/LoRaWAN/Mac/region/RegionKR920.c ****     {
  98:../../../../../../Middlewares/Third_Party/LoRaWAN/Mac/region/RegionKR920.c ****         default:
  99:../../../../../../Middlewares/Third_Party/LoRaWAN/Mac/region/RegionKR920.c ****         case 125000:
 100:../../../../../../Middlewares/Third_Party/LoRaWAN/Mac/region/RegionKR920.c ****             return 0;
 101:../../../../../../Middlewares/Third_Party/LoRaWAN/Mac/region/RegionKR920.c ****         case 250000:
 102:../../../../../../Middlewares/Third_Party/LoRaWAN/Mac/region/RegionKR920.c ****             return 1;
 103:../../../../../../Middlewares/Third_Party/LoRaWAN/Mac/region/RegionKR920.c ****         case 500000:
 104:../../../../../../Middlewares/Third_Party/LoRaWAN/Mac/region/RegionKR920.c ****             return 2;
 105:../../../../../../Middlewares/Third_Party/LoRaWAN/Mac/region/RegionKR920.c ****     }
 106:../../../../../../Middlewares/Third_Party/LoRaWAN/Mac/region/RegionKR920.c **** }
 107:../../../../../../Middlewares/Third_Party/LoRaWAN/Mac/region/RegionKR920.c **** 
 108:../../../../../../Middlewares/Third_Party/LoRaWAN/Mac/region/RegionKR920.c **** static int8_t LimitTxPower( int8_t txPower, int8_t maxBandTxPower, int8_t datarate, uint16_t* chann
 109:../../../../../../Middlewares/Third_Party/LoRaWAN/Mac/region/RegionKR920.c **** {
 110:../../../../../../Middlewares/Third_Party/LoRaWAN/Mac/region/RegionKR920.c ****     int8_t txPowerResult = txPower;
 111:../../../../../../Middlewares/Third_Party/LoRaWAN/Mac/region/RegionKR920.c **** 
 112:../../../../../../Middlewares/Third_Party/LoRaWAN/Mac/region/RegionKR920.c ****     // Limit tx power to the band max
 113:../../../../../../Middlewares/Third_Party/LoRaWAN/Mac/region/RegionKR920.c ****     txPowerResult =  MAX( txPower, maxBandTxPower );
 114:../../../../../../Middlewares/Third_Party/LoRaWAN/Mac/region/RegionKR920.c **** 
 115:../../../../../../Middlewares/Third_Party/LoRaWAN/Mac/region/RegionKR920.c ****     return txPowerResult;
 116:../../../../../../Middlewares/Third_Party/LoRaWAN/Mac/region/RegionKR920.c **** }
 117:../../../../../../Middlewares/Third_Party/LoRaWAN/Mac/region/RegionKR920.c **** 
 118:../../../../../../Middlewares/Third_Party/LoRaWAN/Mac/region/RegionKR920.c **** static bool VerifyRfFreq( uint32_t freq )
 119:../../../../../../Middlewares/Third_Party/LoRaWAN/Mac/region/RegionKR920.c **** {
 120:../../../../../../Middlewares/Third_Party/LoRaWAN/Mac/region/RegionKR920.c ****     uint32_t tmpFreq = freq;
 121:../../../../../../Middlewares/Third_Party/LoRaWAN/Mac/region/RegionKR920.c **** 
 122:../../../../../../Middlewares/Third_Party/LoRaWAN/Mac/region/RegionKR920.c ****     // Check radio driver support
 123:../../../../../../Middlewares/Third_Party/LoRaWAN/Mac/region/RegionKR920.c ****     if( Radio.CheckRfFrequency( tmpFreq ) == false )
 124:../../../../../../Middlewares/Third_Party/LoRaWAN/Mac/region/RegionKR920.c ****     {
 125:../../../../../../Middlewares/Third_Party/LoRaWAN/Mac/region/RegionKR920.c ****         return false;
 126:../../../../../../Middlewares/Third_Party/LoRaWAN/Mac/region/RegionKR920.c ****     }
 127:../../../../../../Middlewares/Third_Party/LoRaWAN/Mac/region/RegionKR920.c **** 
 128:../../../../../../Middlewares/Third_Party/LoRaWAN/Mac/region/RegionKR920.c ****     // Verify if the frequency is valid. The frequency must be in a specified
 129:../../../../../../Middlewares/Third_Party/LoRaWAN/Mac/region/RegionKR920.c ****     // range and can be set to specific values.
 130:../../../../../../Middlewares/Third_Party/LoRaWAN/Mac/region/RegionKR920.c ****     if( ( tmpFreq >= 920900000 ) && ( tmpFreq <=923300000 ) )
 131:../../../../../../Middlewares/Third_Party/LoRaWAN/Mac/region/RegionKR920.c ****     {
 132:../../../../../../Middlewares/Third_Party/LoRaWAN/Mac/region/RegionKR920.c ****         // Range ok, check for specific value
 133:../../../../../../Middlewares/Third_Party/LoRaWAN/Mac/region/RegionKR920.c ****         tmpFreq -= 920900000;
 134:../../../../../../Middlewares/Third_Party/LoRaWAN/Mac/region/RegionKR920.c ****         if( ( tmpFreq % 200000 ) == 0 )
 135:../../../../../../Middlewares/Third_Party/LoRaWAN/Mac/region/RegionKR920.c ****         {
 136:../../../../../../Middlewares/Third_Party/LoRaWAN/Mac/region/RegionKR920.c ****             return true;
 137:../../../../../../Middlewares/Third_Party/LoRaWAN/Mac/region/RegionKR920.c ****         }
 138:../../../../../../Middlewares/Third_Party/LoRaWAN/Mac/region/RegionKR920.c ****     }
 139:../../../../../../Middlewares/Third_Party/LoRaWAN/Mac/region/RegionKR920.c ****     return false;
 140:../../../../../../Middlewares/Third_Party/LoRaWAN/Mac/region/RegionKR920.c **** }
 141:../../../../../../Middlewares/Third_Party/LoRaWAN/Mac/region/RegionKR920.c **** 
 142:../../../../../../Middlewares/Third_Party/LoRaWAN/Mac/region/RegionKR920.c **** static uint8_t CountNbOfEnabledChannels( bool joined, uint8_t datarate, uint16_t* channelsMask, Cha
 143:../../../../../../Middlewares/Third_Party/LoRaWAN/Mac/region/RegionKR920.c **** {
 144:../../../../../../Middlewares/Third_Party/LoRaWAN/Mac/region/RegionKR920.c ****     uint8_t nbEnabledChannels = 0;
 145:../../../../../../Middlewares/Third_Party/LoRaWAN/Mac/region/RegionKR920.c ****     uint8_t delayTransmission = 0;
ARM GAS  C:\Users\EBANO_~1\AppData\Local\Temp\ccLo4wHn.s 			page 4


 146:../../../../../../Middlewares/Third_Party/LoRaWAN/Mac/region/RegionKR920.c **** 
 147:../../../../../../Middlewares/Third_Party/LoRaWAN/Mac/region/RegionKR920.c ****     for( uint8_t i = 0, k = 0; i < KR920_MAX_NB_CHANNELS; i += 16, k++ )
 148:../../../../../../Middlewares/Third_Party/LoRaWAN/Mac/region/RegionKR920.c ****     {
 149:../../../../../../Middlewares/Third_Party/LoRaWAN/Mac/region/RegionKR920.c ****         for( uint8_t j = 0; j < 16; j++ )
 150:../../../../../../Middlewares/Third_Party/LoRaWAN/Mac/region/RegionKR920.c ****         {
 151:../../../../../../Middlewares/Third_Party/LoRaWAN/Mac/region/RegionKR920.c ****             if( ( channelsMask[k] & ( 1 << j ) ) != 0 )
 152:../../../../../../Middlewares/Third_Party/LoRaWAN/Mac/region/RegionKR920.c ****             {
 153:../../../../../../Middlewares/Third_Party/LoRaWAN/Mac/region/RegionKR920.c ****                 if( channels[i + j].Frequency == 0 )
 154:../../../../../../Middlewares/Third_Party/LoRaWAN/Mac/region/RegionKR920.c ****                 { // Check if the channel is enabled
 155:../../../../../../Middlewares/Third_Party/LoRaWAN/Mac/region/RegionKR920.c ****                     continue;
 156:../../../../../../Middlewares/Third_Party/LoRaWAN/Mac/region/RegionKR920.c ****                 }
 157:../../../../../../Middlewares/Third_Party/LoRaWAN/Mac/region/RegionKR920.c ****                 if( joined == false )
 158:../../../../../../Middlewares/Third_Party/LoRaWAN/Mac/region/RegionKR920.c ****                 {
 159:../../../../../../Middlewares/Third_Party/LoRaWAN/Mac/region/RegionKR920.c ****                     if( ( KR920_JOIN_CHANNELS & ( 1 << j ) ) == 0 )
 160:../../../../../../Middlewares/Third_Party/LoRaWAN/Mac/region/RegionKR920.c ****                     {
 161:../../../../../../Middlewares/Third_Party/LoRaWAN/Mac/region/RegionKR920.c ****                         continue;
 162:../../../../../../Middlewares/Third_Party/LoRaWAN/Mac/region/RegionKR920.c ****                     }
 163:../../../../../../Middlewares/Third_Party/LoRaWAN/Mac/region/RegionKR920.c ****                 }
 164:../../../../../../Middlewares/Third_Party/LoRaWAN/Mac/region/RegionKR920.c ****                 if( RegionCommonValueInRange( datarate, channels[i + j].DrRange.Fields.Min,
 165:../../../../../../Middlewares/Third_Party/LoRaWAN/Mac/region/RegionKR920.c ****                                               channels[i + j].DrRange.Fields.Max ) == false )
 166:../../../../../../Middlewares/Third_Party/LoRaWAN/Mac/region/RegionKR920.c ****                 { // Check if the current channel selection supports the given datarate
 167:../../../../../../Middlewares/Third_Party/LoRaWAN/Mac/region/RegionKR920.c ****                     continue;
 168:../../../../../../Middlewares/Third_Party/LoRaWAN/Mac/region/RegionKR920.c ****                 }
 169:../../../../../../Middlewares/Third_Party/LoRaWAN/Mac/region/RegionKR920.c ****                 if( bands[channels[i + j].Band].TimeOff > 0 )
 170:../../../../../../Middlewares/Third_Party/LoRaWAN/Mac/region/RegionKR920.c ****                 { // Check if the band is available for transmission
 171:../../../../../../Middlewares/Third_Party/LoRaWAN/Mac/region/RegionKR920.c ****                     delayTransmission++;
 172:../../../../../../Middlewares/Third_Party/LoRaWAN/Mac/region/RegionKR920.c ****                     continue;
 173:../../../../../../Middlewares/Third_Party/LoRaWAN/Mac/region/RegionKR920.c ****                 }
 174:../../../../../../Middlewares/Third_Party/LoRaWAN/Mac/region/RegionKR920.c ****                 enabledChannels[nbEnabledChannels++] = i + j;
 175:../../../../../../Middlewares/Third_Party/LoRaWAN/Mac/region/RegionKR920.c ****             }
 176:../../../../../../Middlewares/Third_Party/LoRaWAN/Mac/region/RegionKR920.c ****         }
 177:../../../../../../Middlewares/Third_Party/LoRaWAN/Mac/region/RegionKR920.c ****     }
 178:../../../../../../Middlewares/Third_Party/LoRaWAN/Mac/region/RegionKR920.c **** 
 179:../../../../../../Middlewares/Third_Party/LoRaWAN/Mac/region/RegionKR920.c ****     *delayTx = delayTransmission;
 180:../../../../../../Middlewares/Third_Party/LoRaWAN/Mac/region/RegionKR920.c ****     return nbEnabledChannels;
 181:../../../../../../Middlewares/Third_Party/LoRaWAN/Mac/region/RegionKR920.c **** }
 182:../../../../../../Middlewares/Third_Party/LoRaWAN/Mac/region/RegionKR920.c **** 
 183:../../../../../../Middlewares/Third_Party/LoRaWAN/Mac/region/RegionKR920.c **** PhyParam_t RegionKR920GetPhyParam( GetPhyParams_t* getPhy )
 184:../../../../../../Middlewares/Third_Party/LoRaWAN/Mac/region/RegionKR920.c **** {
  27              		.loc 1 184 0
  28              		.cfi_startproc
  29              		@ args = 0, pretend = 0, frame = 8
  30              		@ frame_needed = 0, uses_anonymous_args = 0
  31              	.LVL0:
 185:../../../../../../Middlewares/Third_Party/LoRaWAN/Mac/region/RegionKR920.c ****     PhyParam_t phyParam = { 0 };
  32              		.loc 1 185 0
  33 0000 0023     		movs	r3, #0
 184:../../../../../../Middlewares/Third_Party/LoRaWAN/Mac/region/RegionKR920.c ****     PhyParam_t phyParam = { 0 };
  34              		.loc 1 184 0
  35 0002 00B5     		push	{lr}
  36              	.LCFI0:
  37              		.cfi_def_cfa_offset 4
  38              		.cfi_offset 14, -4
  39 0004 83B0     		sub	sp, sp, #12
  40              	.LCFI1:
  41              		.cfi_def_cfa_offset 16
  42              		.loc 1 185 0
ARM GAS  C:\Users\EBANO_~1\AppData\Local\Temp\ccLo4wHn.s 			page 5


  43 0006 0093     		str	r3, [sp]
 186:../../../../../../Middlewares/Third_Party/LoRaWAN/Mac/region/RegionKR920.c **** 
 187:../../../../../../Middlewares/Third_Party/LoRaWAN/Mac/region/RegionKR920.c ****     switch( getPhy->Attribute )
  44              		.loc 1 187 0
  45 0008 0378     		ldrb	r3, [r0]
  46 000a 0A3B     		subs	r3, r3, #10
  47 000c DBB2     		uxtb	r3, r3
  48 000e 2A2B     		cmp	r3, #42
  49 0010 05D8     		bhi	.L2
  50 0012 314A     		ldr	r2, .L30
  51 0014 9B00     		lsls	r3, r3, #2
  52 0016 D358     		ldr	r3, [r2, r3]
  53 0018 9F46     		mov	pc, r3
  54              		.section	.rodata
  55              		.align	2
  56              	.L4:
  57 0000 B8000000 		.word	.L3
  58 0004 B2000000 		.word	.L5
  59 0008 A6000000 		.word	.L6
  60 000c 98000000 		.word	.L7
  61 0010 1E000000 		.word	.L2
  62 0014 8A000000 		.word	.L8
  63 0018 82000000 		.word	.L9
  64 001c 7A000000 		.word	.L10
  65 0020 74000000 		.word	.L11
  66 0024 6E000000 		.word	.L12
  67 0028 66000000 		.word	.L13
  68 002c 50000000 		.word	.L14
  69 0030 1E000000 		.word	.L2
  70 0034 44000000 		.word	.L15
  71 0038 1E000000 		.word	.L2
  72 003c 38000000 		.word	.L16
  73 0040 1A000000 		.word	.L17
  74 0044 32000000 		.word	.L18
  75 0048 3E000000 		.word	.L19
  76 004c 1E000000 		.word	.L2
  77 0050 1E000000 		.word	.L2
  78 0054 4A000000 		.word	.L20
  79 0058 92000000 		.word	.L21
  80 005c BE000000 		.word	.L22
  81 0060 1E000000 		.word	.L2
  82 0064 1E000000 		.word	.L2
  83 0068 1E000000 		.word	.L2
  84 006c 1E000000 		.word	.L2
  85 0070 1E000000 		.word	.L2
  86 0074 1E000000 		.word	.L2
  87 0078 1E000000 		.word	.L2
  88 007c 1E000000 		.word	.L2
  89 0080 1E000000 		.word	.L2
  90 0084 1E000000 		.word	.L2
  91 0088 1E000000 		.word	.L2
  92 008c 1E000000 		.word	.L2
  93 0090 1E000000 		.word	.L2
  94 0094 D0000000 		.word	.L23
  95 0098 2A000000 		.word	.L24
  96 009c 24000000 		.word	.L25
  97 00a0 1E000000 		.word	.L2
ARM GAS  C:\Users\EBANO_~1\AppData\Local\Temp\ccLo4wHn.s 			page 6


  98 00a4 1E000000 		.word	.L2
  99 00a8 24000000 		.word	.L25
 100              		.section	.text.RegionKR920GetPhyParam
 101              	.L17:
 188:../../../../../../Middlewares/Third_Party/LoRaWAN/Mac/region/RegionKR920.c ****     {
 189:../../../../../../Middlewares/Third_Party/LoRaWAN/Mac/region/RegionKR920.c ****         case PHY_MIN_RX_DR:
 190:../../../../../../Middlewares/Third_Party/LoRaWAN/Mac/region/RegionKR920.c ****         {
 191:../../../../../../Middlewares/Third_Party/LoRaWAN/Mac/region/RegionKR920.c ****             phyParam.Value = KR920_RX_MIN_DATARATE;
 192:../../../../../../Middlewares/Third_Party/LoRaWAN/Mac/region/RegionKR920.c ****             break;
 193:../../../../../../Middlewares/Third_Party/LoRaWAN/Mac/region/RegionKR920.c ****         }
 194:../../../../../../Middlewares/Third_Party/LoRaWAN/Mac/region/RegionKR920.c ****         case PHY_MIN_TX_DR:
 195:../../../../../../Middlewares/Third_Party/LoRaWAN/Mac/region/RegionKR920.c ****         {
 196:../../../../../../Middlewares/Third_Party/LoRaWAN/Mac/region/RegionKR920.c ****             phyParam.Value = KR920_TX_MIN_DATARATE;
 197:../../../../../../Middlewares/Third_Party/LoRaWAN/Mac/region/RegionKR920.c ****             break;
 198:../../../../../../Middlewares/Third_Party/LoRaWAN/Mac/region/RegionKR920.c ****         }
 199:../../../../../../Middlewares/Third_Party/LoRaWAN/Mac/region/RegionKR920.c ****         case PHY_DEF_TX_DR:
 200:../../../../../../Middlewares/Third_Party/LoRaWAN/Mac/region/RegionKR920.c ****         {
 201:../../../../../../Middlewares/Third_Party/LoRaWAN/Mac/region/RegionKR920.c ****             phyParam.Value = KR920_DEFAULT_DATARATE;
 202:../../../../../../Middlewares/Third_Party/LoRaWAN/Mac/region/RegionKR920.c ****             break;
 203:../../../../../../Middlewares/Third_Party/LoRaWAN/Mac/region/RegionKR920.c ****         }
 204:../../../../../../Middlewares/Third_Party/LoRaWAN/Mac/region/RegionKR920.c ****         case PHY_NEXT_LOWER_TX_DR:
 205:../../../../../../Middlewares/Third_Party/LoRaWAN/Mac/region/RegionKR920.c ****         {
 206:../../../../../../Middlewares/Third_Party/LoRaWAN/Mac/region/RegionKR920.c ****             phyParam.Value = GetNextLowerTxDr( getPhy->Datarate, KR920_TX_MIN_DATARATE );
 207:../../../../../../Middlewares/Third_Party/LoRaWAN/Mac/region/RegionKR920.c ****             break;
 208:../../../../../../Middlewares/Third_Party/LoRaWAN/Mac/region/RegionKR920.c ****         }
 209:../../../../../../Middlewares/Third_Party/LoRaWAN/Mac/region/RegionKR920.c ****         case PHY_MAX_TX_POWER:
 210:../../../../../../Middlewares/Third_Party/LoRaWAN/Mac/region/RegionKR920.c ****         {
 211:../../../../../../Middlewares/Third_Party/LoRaWAN/Mac/region/RegionKR920.c ****             phyParam.Value = KR920_MAX_TX_POWER;
 212:../../../../../../Middlewares/Third_Party/LoRaWAN/Mac/region/RegionKR920.c ****             break;
 213:../../../../../../Middlewares/Third_Party/LoRaWAN/Mac/region/RegionKR920.c ****         }
 214:../../../../../../Middlewares/Third_Party/LoRaWAN/Mac/region/RegionKR920.c ****         case PHY_DEF_TX_POWER:
 215:../../../../../../Middlewares/Third_Party/LoRaWAN/Mac/region/RegionKR920.c ****         {
 216:../../../../../../Middlewares/Third_Party/LoRaWAN/Mac/region/RegionKR920.c ****             phyParam.Value = KR920_DEFAULT_TX_POWER;
 217:../../../../../../Middlewares/Third_Party/LoRaWAN/Mac/region/RegionKR920.c ****             break;
 218:../../../../../../Middlewares/Third_Party/LoRaWAN/Mac/region/RegionKR920.c ****         }
 219:../../../../../../Middlewares/Third_Party/LoRaWAN/Mac/region/RegionKR920.c ****         case PHY_DEF_ADR_ACK_LIMIT:
 220:../../../../../../Middlewares/Third_Party/LoRaWAN/Mac/region/RegionKR920.c ****         {
 221:../../../../../../Middlewares/Third_Party/LoRaWAN/Mac/region/RegionKR920.c ****             phyParam.Value = KR920_ADR_ACK_LIMIT;
 222:../../../../../../Middlewares/Third_Party/LoRaWAN/Mac/region/RegionKR920.c ****             break;
 223:../../../../../../Middlewares/Third_Party/LoRaWAN/Mac/region/RegionKR920.c ****         }
 224:../../../../../../Middlewares/Third_Party/LoRaWAN/Mac/region/RegionKR920.c ****         case PHY_DEF_ADR_ACK_DELAY:
 225:../../../../../../Middlewares/Third_Party/LoRaWAN/Mac/region/RegionKR920.c ****         {
 226:../../../../../../Middlewares/Third_Party/LoRaWAN/Mac/region/RegionKR920.c ****             phyParam.Value = KR920_ADR_ACK_DELAY;
 227:../../../../../../Middlewares/Third_Party/LoRaWAN/Mac/region/RegionKR920.c ****             break;
 228:../../../../../../Middlewares/Third_Party/LoRaWAN/Mac/region/RegionKR920.c ****         }
 229:../../../../../../Middlewares/Third_Party/LoRaWAN/Mac/region/RegionKR920.c ****         case PHY_MAX_PAYLOAD:
 230:../../../../../../Middlewares/Third_Party/LoRaWAN/Mac/region/RegionKR920.c ****         {
 231:../../../../../../Middlewares/Third_Party/LoRaWAN/Mac/region/RegionKR920.c ****             phyParam.Value = MaxPayloadOfDatarateKR920[getPhy->Datarate];
 232:../../../../../../Middlewares/Third_Party/LoRaWAN/Mac/region/RegionKR920.c ****             break;
 233:../../../../../../Middlewares/Third_Party/LoRaWAN/Mac/region/RegionKR920.c ****         }
 234:../../../../../../Middlewares/Third_Party/LoRaWAN/Mac/region/RegionKR920.c ****         case PHY_MAX_PAYLOAD_REPEATER:
 235:../../../../../../Middlewares/Third_Party/LoRaWAN/Mac/region/RegionKR920.c ****         {
 236:../../../../../../Middlewares/Third_Party/LoRaWAN/Mac/region/RegionKR920.c ****             phyParam.Value = MaxPayloadOfDatarateRepeaterKR920[getPhy->Datarate];
 237:../../../../../../Middlewares/Third_Party/LoRaWAN/Mac/region/RegionKR920.c ****             break;
 238:../../../../../../Middlewares/Third_Party/LoRaWAN/Mac/region/RegionKR920.c ****         }
 239:../../../../../../Middlewares/Third_Party/LoRaWAN/Mac/region/RegionKR920.c ****         case PHY_DUTY_CYCLE:
 240:../../../../../../Middlewares/Third_Party/LoRaWAN/Mac/region/RegionKR920.c ****         {
ARM GAS  C:\Users\EBANO_~1\AppData\Local\Temp\ccLo4wHn.s 			page 7


 241:../../../../../../Middlewares/Third_Party/LoRaWAN/Mac/region/RegionKR920.c ****             phyParam.Value = KR920_DUTY_CYCLE_ENABLED;
 242:../../../../../../Middlewares/Third_Party/LoRaWAN/Mac/region/RegionKR920.c ****             break;
 243:../../../../../../Middlewares/Third_Party/LoRaWAN/Mac/region/RegionKR920.c ****         }
 244:../../../../../../Middlewares/Third_Party/LoRaWAN/Mac/region/RegionKR920.c ****         case PHY_MAX_RX_WINDOW:
 245:../../../../../../Middlewares/Third_Party/LoRaWAN/Mac/region/RegionKR920.c ****         {
 246:../../../../../../Middlewares/Third_Party/LoRaWAN/Mac/region/RegionKR920.c ****             phyParam.Value = KR920_MAX_RX_WINDOW;
 247:../../../../../../Middlewares/Third_Party/LoRaWAN/Mac/region/RegionKR920.c ****             break;
 248:../../../../../../Middlewares/Third_Party/LoRaWAN/Mac/region/RegionKR920.c ****         }
 249:../../../../../../Middlewares/Third_Party/LoRaWAN/Mac/region/RegionKR920.c ****         case PHY_RECEIVE_DELAY1:
 250:../../../../../../Middlewares/Third_Party/LoRaWAN/Mac/region/RegionKR920.c ****         {
 251:../../../../../../Middlewares/Third_Party/LoRaWAN/Mac/region/RegionKR920.c ****             phyParam.Value = KR920_RECEIVE_DELAY1;
 252:../../../../../../Middlewares/Third_Party/LoRaWAN/Mac/region/RegionKR920.c ****             break;
 253:../../../../../../Middlewares/Third_Party/LoRaWAN/Mac/region/RegionKR920.c ****         }
 254:../../../../../../Middlewares/Third_Party/LoRaWAN/Mac/region/RegionKR920.c ****         case PHY_RECEIVE_DELAY2:
 255:../../../../../../Middlewares/Third_Party/LoRaWAN/Mac/region/RegionKR920.c ****         {
 256:../../../../../../Middlewares/Third_Party/LoRaWAN/Mac/region/RegionKR920.c ****             phyParam.Value = KR920_RECEIVE_DELAY2;
 257:../../../../../../Middlewares/Third_Party/LoRaWAN/Mac/region/RegionKR920.c ****             break;
 258:../../../../../../Middlewares/Third_Party/LoRaWAN/Mac/region/RegionKR920.c ****         }
 259:../../../../../../Middlewares/Third_Party/LoRaWAN/Mac/region/RegionKR920.c ****         case PHY_JOIN_ACCEPT_DELAY1:
 260:../../../../../../Middlewares/Third_Party/LoRaWAN/Mac/region/RegionKR920.c ****         {
 261:../../../../../../Middlewares/Third_Party/LoRaWAN/Mac/region/RegionKR920.c ****             phyParam.Value = KR920_JOIN_ACCEPT_DELAY1;
 262:../../../../../../Middlewares/Third_Party/LoRaWAN/Mac/region/RegionKR920.c ****             break;
 263:../../../../../../Middlewares/Third_Party/LoRaWAN/Mac/region/RegionKR920.c ****         }
 264:../../../../../../Middlewares/Third_Party/LoRaWAN/Mac/region/RegionKR920.c ****         case PHY_JOIN_ACCEPT_DELAY2:
 265:../../../../../../Middlewares/Third_Party/LoRaWAN/Mac/region/RegionKR920.c ****         {
 266:../../../../../../Middlewares/Third_Party/LoRaWAN/Mac/region/RegionKR920.c ****             phyParam.Value = KR920_JOIN_ACCEPT_DELAY2;
 267:../../../../../../Middlewares/Third_Party/LoRaWAN/Mac/region/RegionKR920.c ****             break;
 268:../../../../../../Middlewares/Third_Party/LoRaWAN/Mac/region/RegionKR920.c ****         }
 269:../../../../../../Middlewares/Third_Party/LoRaWAN/Mac/region/RegionKR920.c ****         case PHY_MAX_FCNT_GAP:
 270:../../../../../../Middlewares/Third_Party/LoRaWAN/Mac/region/RegionKR920.c ****         {
 271:../../../../../../Middlewares/Third_Party/LoRaWAN/Mac/region/RegionKR920.c ****             phyParam.Value = KR920_MAX_FCNT_GAP;
 272:../../../../../../Middlewares/Third_Party/LoRaWAN/Mac/region/RegionKR920.c ****             break;
 273:../../../../../../Middlewares/Third_Party/LoRaWAN/Mac/region/RegionKR920.c ****         }
 274:../../../../../../Middlewares/Third_Party/LoRaWAN/Mac/region/RegionKR920.c ****         case PHY_ACK_TIMEOUT:
 275:../../../../../../Middlewares/Third_Party/LoRaWAN/Mac/region/RegionKR920.c ****         {
 276:../../../../../../Middlewares/Third_Party/LoRaWAN/Mac/region/RegionKR920.c ****             phyParam.Value = ( KR920_ACKTIMEOUT + randr( -KR920_ACK_TIMEOUT_RND, KR920_ACK_TIMEOUT_
 277:../../../../../../Middlewares/Third_Party/LoRaWAN/Mac/region/RegionKR920.c ****             break;
 278:../../../../../../Middlewares/Third_Party/LoRaWAN/Mac/region/RegionKR920.c ****         }
 279:../../../../../../Middlewares/Third_Party/LoRaWAN/Mac/region/RegionKR920.c ****         case PHY_DEF_DR1_OFFSET:
 280:../../../../../../Middlewares/Third_Party/LoRaWAN/Mac/region/RegionKR920.c ****         {
 281:../../../../../../Middlewares/Third_Party/LoRaWAN/Mac/region/RegionKR920.c ****             phyParam.Value = KR920_DEFAULT_RX1_DR_OFFSET;
 282:../../../../../../Middlewares/Third_Party/LoRaWAN/Mac/region/RegionKR920.c ****             break;
 283:../../../../../../Middlewares/Third_Party/LoRaWAN/Mac/region/RegionKR920.c ****         }
 284:../../../../../../Middlewares/Third_Party/LoRaWAN/Mac/region/RegionKR920.c ****         case PHY_DEF_RX2_FREQUENCY:
 285:../../../../../../Middlewares/Third_Party/LoRaWAN/Mac/region/RegionKR920.c ****         {
 286:../../../../../../Middlewares/Third_Party/LoRaWAN/Mac/region/RegionKR920.c ****             phyParam.Value = KR920_RX_WND_2_FREQ;
 287:../../../../../../Middlewares/Third_Party/LoRaWAN/Mac/region/RegionKR920.c ****             break;
 288:../../../../../../Middlewares/Third_Party/LoRaWAN/Mac/region/RegionKR920.c ****         }
 289:../../../../../../Middlewares/Third_Party/LoRaWAN/Mac/region/RegionKR920.c ****         case PHY_DEF_RX2_DR:
 290:../../../../../../Middlewares/Third_Party/LoRaWAN/Mac/region/RegionKR920.c ****         {
 291:../../../../../../Middlewares/Third_Party/LoRaWAN/Mac/region/RegionKR920.c ****             phyParam.Value = KR920_RX_WND_2_DR;
 292:../../../../../../Middlewares/Third_Party/LoRaWAN/Mac/region/RegionKR920.c ****             break;
 293:../../../../../../Middlewares/Third_Party/LoRaWAN/Mac/region/RegionKR920.c ****         }
 294:../../../../../../Middlewares/Third_Party/LoRaWAN/Mac/region/RegionKR920.c ****         case PHY_CHANNELS_MASK:
 295:../../../../../../Middlewares/Third_Party/LoRaWAN/Mac/region/RegionKR920.c ****         {
 296:../../../../../../Middlewares/Third_Party/LoRaWAN/Mac/region/RegionKR920.c ****             phyParam.ChannelsMask = NvmCtx.ChannelsMask;
 297:../../../../../../Middlewares/Third_Party/LoRaWAN/Mac/region/RegionKR920.c ****             break;
ARM GAS  C:\Users\EBANO_~1\AppData\Local\Temp\ccLo4wHn.s 			page 8


 298:../../../../../../Middlewares/Third_Party/LoRaWAN/Mac/region/RegionKR920.c ****         }
 299:../../../../../../Middlewares/Third_Party/LoRaWAN/Mac/region/RegionKR920.c ****         case PHY_CHANNELS_DEFAULT_MASK:
 300:../../../../../../Middlewares/Third_Party/LoRaWAN/Mac/region/RegionKR920.c ****         {
 301:../../../../../../Middlewares/Third_Party/LoRaWAN/Mac/region/RegionKR920.c ****             phyParam.ChannelsMask = NvmCtx.ChannelsDefaultMask;
 102              		.loc 1 301 0
 103 001a 304B     		ldr	r3, .L30+4
 104 001c 0093     		str	r3, [sp]
 105              	.LVL1:
 106              	.L2:
 302:../../../../../../Middlewares/Third_Party/LoRaWAN/Mac/region/RegionKR920.c ****             break;
 303:../../../../../../Middlewares/Third_Party/LoRaWAN/Mac/region/RegionKR920.c ****         }
 304:../../../../../../Middlewares/Third_Party/LoRaWAN/Mac/region/RegionKR920.c ****         case PHY_MAX_NB_CHANNELS:
 305:../../../../../../Middlewares/Third_Party/LoRaWAN/Mac/region/RegionKR920.c ****         {
 306:../../../../../../Middlewares/Third_Party/LoRaWAN/Mac/region/RegionKR920.c ****             phyParam.Value = KR920_MAX_NB_CHANNELS;
 307:../../../../../../Middlewares/Third_Party/LoRaWAN/Mac/region/RegionKR920.c ****             break;
 308:../../../../../../Middlewares/Third_Party/LoRaWAN/Mac/region/RegionKR920.c ****         }
 309:../../../../../../Middlewares/Third_Party/LoRaWAN/Mac/region/RegionKR920.c ****         case PHY_CHANNELS:
 310:../../../../../../Middlewares/Third_Party/LoRaWAN/Mac/region/RegionKR920.c ****         {
 311:../../../../../../Middlewares/Third_Party/LoRaWAN/Mac/region/RegionKR920.c ****             phyParam.Channels = NvmCtx.Channels;
 312:../../../../../../Middlewares/Third_Party/LoRaWAN/Mac/region/RegionKR920.c ****             break;
 313:../../../../../../Middlewares/Third_Party/LoRaWAN/Mac/region/RegionKR920.c ****         }
 314:../../../../../../Middlewares/Third_Party/LoRaWAN/Mac/region/RegionKR920.c ****         case PHY_DEF_UPLINK_DWELL_TIME:
 315:../../../../../../Middlewares/Third_Party/LoRaWAN/Mac/region/RegionKR920.c ****         case PHY_DEF_DOWNLINK_DWELL_TIME:
 316:../../../../../../Middlewares/Third_Party/LoRaWAN/Mac/region/RegionKR920.c ****         {
 317:../../../../../../Middlewares/Third_Party/LoRaWAN/Mac/region/RegionKR920.c ****             phyParam.Value = 0;
 318:../../../../../../Middlewares/Third_Party/LoRaWAN/Mac/region/RegionKR920.c ****             break;
 319:../../../../../../Middlewares/Third_Party/LoRaWAN/Mac/region/RegionKR920.c ****         }
 320:../../../../../../Middlewares/Third_Party/LoRaWAN/Mac/region/RegionKR920.c ****         case PHY_DEF_MAX_EIRP:
 321:../../../../../../Middlewares/Third_Party/LoRaWAN/Mac/region/RegionKR920.c ****         {
 322:../../../../../../Middlewares/Third_Party/LoRaWAN/Mac/region/RegionKR920.c ****             // We set the higher maximum EIRP as default value.
 323:../../../../../../Middlewares/Third_Party/LoRaWAN/Mac/region/RegionKR920.c ****             // The reason for this is, that the frequency may
 324:../../../../../../Middlewares/Third_Party/LoRaWAN/Mac/region/RegionKR920.c ****             // change during a channel selection for the next uplink.
 325:../../../../../../Middlewares/Third_Party/LoRaWAN/Mac/region/RegionKR920.c ****             // The value has to be recalculated in the TX configuration.
 326:../../../../../../Middlewares/Third_Party/LoRaWAN/Mac/region/RegionKR920.c ****             phyParam.fValue = KR920_DEFAULT_MAX_EIRP_HIGH;
 327:../../../../../../Middlewares/Third_Party/LoRaWAN/Mac/region/RegionKR920.c ****             break;
 328:../../../../../../Middlewares/Third_Party/LoRaWAN/Mac/region/RegionKR920.c ****         }
 329:../../../../../../Middlewares/Third_Party/LoRaWAN/Mac/region/RegionKR920.c ****         case PHY_DEF_ANTENNA_GAIN:
 330:../../../../../../Middlewares/Third_Party/LoRaWAN/Mac/region/RegionKR920.c ****         {
 331:../../../../../../Middlewares/Third_Party/LoRaWAN/Mac/region/RegionKR920.c ****             phyParam.fValue = KR920_DEFAULT_ANTENNA_GAIN;
 332:../../../../../../Middlewares/Third_Party/LoRaWAN/Mac/region/RegionKR920.c ****             break;
 333:../../../../../../Middlewares/Third_Party/LoRaWAN/Mac/region/RegionKR920.c ****         }
 334:../../../../../../Middlewares/Third_Party/LoRaWAN/Mac/region/RegionKR920.c ****         case PHY_BEACON_CHANNEL_FREQ:
 335:../../../../../../Middlewares/Third_Party/LoRaWAN/Mac/region/RegionKR920.c ****         {
 336:../../../../../../Middlewares/Third_Party/LoRaWAN/Mac/region/RegionKR920.c ****             phyParam.Value = KR920_BEACON_CHANNEL_FREQ;
 337:../../../../../../Middlewares/Third_Party/LoRaWAN/Mac/region/RegionKR920.c ****             break;
 338:../../../../../../Middlewares/Third_Party/LoRaWAN/Mac/region/RegionKR920.c ****         }
 339:../../../../../../Middlewares/Third_Party/LoRaWAN/Mac/region/RegionKR920.c ****         case PHY_BEACON_FORMAT:
 340:../../../../../../Middlewares/Third_Party/LoRaWAN/Mac/region/RegionKR920.c ****         {
 341:../../../../../../Middlewares/Third_Party/LoRaWAN/Mac/region/RegionKR920.c ****             phyParam.BeaconFormat.BeaconSize = KR920_BEACON_SIZE;
 342:../../../../../../Middlewares/Third_Party/LoRaWAN/Mac/region/RegionKR920.c ****             phyParam.BeaconFormat.Rfu1Size = KR920_RFU1_SIZE;
 343:../../../../../../Middlewares/Third_Party/LoRaWAN/Mac/region/RegionKR920.c ****             phyParam.BeaconFormat.Rfu2Size = KR920_RFU2_SIZE;
 344:../../../../../../Middlewares/Third_Party/LoRaWAN/Mac/region/RegionKR920.c ****             break;
 345:../../../../../../Middlewares/Third_Party/LoRaWAN/Mac/region/RegionKR920.c ****         }
 346:../../../../../../Middlewares/Third_Party/LoRaWAN/Mac/region/RegionKR920.c ****         case PHY_BEACON_CHANNEL_DR:
 347:../../../../../../Middlewares/Third_Party/LoRaWAN/Mac/region/RegionKR920.c ****         {
 348:../../../../../../Middlewares/Third_Party/LoRaWAN/Mac/region/RegionKR920.c ****             phyParam.Value = KR920_BEACON_CHANNEL_DR;
 349:../../../../../../Middlewares/Third_Party/LoRaWAN/Mac/region/RegionKR920.c ****             break;
ARM GAS  C:\Users\EBANO_~1\AppData\Local\Temp\ccLo4wHn.s 			page 9


 350:../../../../../../Middlewares/Third_Party/LoRaWAN/Mac/region/RegionKR920.c ****         }
 351:../../../../../../Middlewares/Third_Party/LoRaWAN/Mac/region/RegionKR920.c ****         case PHY_PING_SLOT_CHANNEL_DR:
 352:../../../../../../Middlewares/Third_Party/LoRaWAN/Mac/region/RegionKR920.c ****         {
 353:../../../../../../Middlewares/Third_Party/LoRaWAN/Mac/region/RegionKR920.c ****             phyParam.Value = KR920_PING_SLOT_CHANNEL_DR;
 354:../../../../../../Middlewares/Third_Party/LoRaWAN/Mac/region/RegionKR920.c ****             break;
 355:../../../../../../Middlewares/Third_Party/LoRaWAN/Mac/region/RegionKR920.c ****         }
 356:../../../../../../Middlewares/Third_Party/LoRaWAN/Mac/region/RegionKR920.c ****         default:
 357:../../../../../../Middlewares/Third_Party/LoRaWAN/Mac/region/RegionKR920.c ****         {
 358:../../../../../../Middlewares/Third_Party/LoRaWAN/Mac/region/RegionKR920.c ****             break;
 359:../../../../../../Middlewares/Third_Party/LoRaWAN/Mac/region/RegionKR920.c ****         }
 360:../../../../../../Middlewares/Third_Party/LoRaWAN/Mac/region/RegionKR920.c ****     }
 361:../../../../../../Middlewares/Third_Party/LoRaWAN/Mac/region/RegionKR920.c **** 
 362:../../../../../../Middlewares/Third_Party/LoRaWAN/Mac/region/RegionKR920.c ****     return phyParam;
 363:../../../../../../Middlewares/Third_Party/LoRaWAN/Mac/region/RegionKR920.c **** }
 107              		.loc 1 363 0
 108 001e 0098     		ldr	r0, [sp]
 109 0020 03B0     		add	sp, sp, #12
 110              		@ sp needed
 111 0022 00BD     		pop	{pc}
 112              	.LVL2:
 113              	.L25:
 348:../../../../../../Middlewares/Third_Party/LoRaWAN/Mac/region/RegionKR920.c ****             break;
 114              		.loc 1 348 0
 115 0024 0323     		movs	r3, #3
 116 0026 0093     		str	r3, [sp]
 349:../../../../../../Middlewares/Third_Party/LoRaWAN/Mac/region/RegionKR920.c ****         }
 117              		.loc 1 349 0
 118 0028 F9E7     		b	.L2
 119              	.L24:
 341:../../../../../../Middlewares/Third_Party/LoRaWAN/Mac/region/RegionKR920.c ****             phyParam.BeaconFormat.Rfu1Size = KR920_RFU1_SIZE;
 120              		.loc 1 341 0
 121 002a 6A46     		mov	r2, sp
 122 002c 2C4B     		ldr	r3, .L30+8
 123 002e 1380     		strh	r3, [r2]
 344:../../../../../../Middlewares/Third_Party/LoRaWAN/Mac/region/RegionKR920.c ****         }
 124              		.loc 1 344 0
 125 0030 F5E7     		b	.L2
 126              	.L18:
 306:../../../../../../Middlewares/Third_Party/LoRaWAN/Mac/region/RegionKR920.c ****             break;
 127              		.loc 1 306 0
 128 0032 1023     		movs	r3, #16
 129 0034 0093     		str	r3, [sp]
 307:../../../../../../Middlewares/Third_Party/LoRaWAN/Mac/region/RegionKR920.c ****         }
 130              		.loc 1 307 0
 131 0036 F2E7     		b	.L2
 132              	.L16:
 296:../../../../../../Middlewares/Third_Party/LoRaWAN/Mac/region/RegionKR920.c ****             break;
 133              		.loc 1 296 0
 134 0038 2A4B     		ldr	r3, .L30+12
 135 003a 0093     		str	r3, [sp]
 297:../../../../../../Middlewares/Third_Party/LoRaWAN/Mac/region/RegionKR920.c ****         }
 136              		.loc 1 297 0
 137 003c EFE7     		b	.L2
 138              	.L19:
 311:../../../../../../Middlewares/Third_Party/LoRaWAN/Mac/region/RegionKR920.c ****             break;
 139              		.loc 1 311 0
 140 003e 2A4B     		ldr	r3, .L30+16
ARM GAS  C:\Users\EBANO_~1\AppData\Local\Temp\ccLo4wHn.s 			page 10


 141 0040 0093     		str	r3, [sp]
 312:../../../../../../Middlewares/Third_Party/LoRaWAN/Mac/region/RegionKR920.c ****         }
 142              		.loc 1 312 0
 143 0042 ECE7     		b	.L2
 144              	.L15:
 286:../../../../../../Middlewares/Third_Party/LoRaWAN/Mac/region/RegionKR920.c ****             break;
 145              		.loc 1 286 0
 146 0044 294B     		ldr	r3, .L30+20
 147 0046 0093     		str	r3, [sp]
 287:../../../../../../Middlewares/Third_Party/LoRaWAN/Mac/region/RegionKR920.c ****         }
 148              		.loc 1 287 0
 149 0048 E9E7     		b	.L2
 150              	.L20:
 326:../../../../../../Middlewares/Third_Party/LoRaWAN/Mac/region/RegionKR920.c ****             break;
 151              		.loc 1 326 0
 152 004a 294B     		ldr	r3, .L30+24
 153 004c 0093     		str	r3, [sp]
 327:../../../../../../Middlewares/Third_Party/LoRaWAN/Mac/region/RegionKR920.c ****         }
 154              		.loc 1 327 0
 155 004e E6E7     		b	.L2
 156              	.L14:
 276:../../../../../../Middlewares/Third_Party/LoRaWAN/Mac/region/RegionKR920.c ****             break;
 157              		.loc 1 276 0
 158 0050 FA21     		movs	r1, #250
 159 0052 2848     		ldr	r0, .L30+28
 160              	.LVL3:
 161 0054 8900     		lsls	r1, r1, #2
 162 0056 FFF7FEFF 		bl	randr
 163              	.LVL4:
 164 005a FA23     		movs	r3, #250
 165 005c DB00     		lsls	r3, r3, #3
 166 005e 9C46     		mov	ip, r3
 167 0060 6044     		add	r0, r0, ip
 168 0062 0090     		str	r0, [sp]
 277:../../../../../../Middlewares/Third_Party/LoRaWAN/Mac/region/RegionKR920.c ****         }
 169              		.loc 1 277 0
 170 0064 DBE7     		b	.L2
 171              	.LVL5:
 172              	.L13:
 271:../../../../../../Middlewares/Third_Party/LoRaWAN/Mac/region/RegionKR920.c ****             break;
 173              		.loc 1 271 0
 174 0066 8023     		movs	r3, #128
 175 0068 DB01     		lsls	r3, r3, #7
 176 006a 0093     		str	r3, [sp]
 272:../../../../../../Middlewares/Third_Party/LoRaWAN/Mac/region/RegionKR920.c ****         }
 177              		.loc 1 272 0
 178 006c D7E7     		b	.L2
 179              	.L12:
 266:../../../../../../Middlewares/Third_Party/LoRaWAN/Mac/region/RegionKR920.c ****             break;
 180              		.loc 1 266 0
 181 006e 224B     		ldr	r3, .L30+32
 182 0070 0093     		str	r3, [sp]
 267:../../../../../../Middlewares/Third_Party/LoRaWAN/Mac/region/RegionKR920.c ****         }
 183              		.loc 1 267 0
 184 0072 D4E7     		b	.L2
 185              	.L11:
 261:../../../../../../Middlewares/Third_Party/LoRaWAN/Mac/region/RegionKR920.c ****             break;
ARM GAS  C:\Users\EBANO_~1\AppData\Local\Temp\ccLo4wHn.s 			page 11


 186              		.loc 1 261 0
 187 0074 214B     		ldr	r3, .L30+36
 188 0076 0093     		str	r3, [sp]
 262:../../../../../../Middlewares/Third_Party/LoRaWAN/Mac/region/RegionKR920.c ****         }
 189              		.loc 1 262 0
 190 0078 D1E7     		b	.L2
 191              	.L10:
 256:../../../../../../Middlewares/Third_Party/LoRaWAN/Mac/region/RegionKR920.c ****             break;
 192              		.loc 1 256 0
 193 007a FA23     		movs	r3, #250
 194 007c DB00     		lsls	r3, r3, #3
 195 007e 0093     		str	r3, [sp]
 257:../../../../../../Middlewares/Third_Party/LoRaWAN/Mac/region/RegionKR920.c ****         }
 196              		.loc 1 257 0
 197 0080 CDE7     		b	.L2
 198              	.L9:
 251:../../../../../../Middlewares/Third_Party/LoRaWAN/Mac/region/RegionKR920.c ****             break;
 199              		.loc 1 251 0
 200 0082 FA23     		movs	r3, #250
 201 0084 9B00     		lsls	r3, r3, #2
 202 0086 0093     		str	r3, [sp]
 252:../../../../../../Middlewares/Third_Party/LoRaWAN/Mac/region/RegionKR920.c ****         }
 203              		.loc 1 252 0
 204 0088 C9E7     		b	.L2
 205              	.L8:
 246:../../../../../../Middlewares/Third_Party/LoRaWAN/Mac/region/RegionKR920.c ****             break;
 206              		.loc 1 246 0
 207 008a FA23     		movs	r3, #250
 208 008c 1B01     		lsls	r3, r3, #4
 209 008e 0093     		str	r3, [sp]
 247:../../../../../../Middlewares/Third_Party/LoRaWAN/Mac/region/RegionKR920.c ****         }
 210              		.loc 1 247 0
 211 0090 C5E7     		b	.L2
 212              	.L21:
 331:../../../../../../Middlewares/Third_Party/LoRaWAN/Mac/region/RegionKR920.c ****             break;
 213              		.loc 1 331 0
 214 0092 1B4B     		ldr	r3, .L30+40
 215 0094 0093     		str	r3, [sp]
 332:../../../../../../Middlewares/Third_Party/LoRaWAN/Mac/region/RegionKR920.c ****         }
 216              		.loc 1 332 0
 217 0096 C2E7     		b	.L2
 218              	.L7:
 236:../../../../../../Middlewares/Third_Party/LoRaWAN/Mac/region/RegionKR920.c ****             break;
 219              		.loc 1 236 0
 220 0098 0122     		movs	r2, #1
 221 009a 1A4B     		ldr	r3, .L30+44
 222 009c 8256     		ldrsb	r2, [r0, r2]
 223 009e 9B18     		adds	r3, r3, r2
 224 00a0 1B7A     		ldrb	r3, [r3, #8]
 225 00a2 0093     		str	r3, [sp]
 237:../../../../../../Middlewares/Third_Party/LoRaWAN/Mac/region/RegionKR920.c ****         }
 226              		.loc 1 237 0
 227 00a4 BBE7     		b	.L2
 228              	.L6:
 231:../../../../../../Middlewares/Third_Party/LoRaWAN/Mac/region/RegionKR920.c ****             break;
 229              		.loc 1 231 0
 230 00a6 0123     		movs	r3, #1
ARM GAS  C:\Users\EBANO_~1\AppData\Local\Temp\ccLo4wHn.s 			page 12


 231 00a8 164A     		ldr	r2, .L30+44
 232 00aa C356     		ldrsb	r3, [r0, r3]
 233 00ac D35C     		ldrb	r3, [r2, r3]
 234 00ae 0093     		str	r3, [sp]
 232:../../../../../../Middlewares/Third_Party/LoRaWAN/Mac/region/RegionKR920.c ****         }
 235              		.loc 1 232 0
 236 00b0 B5E7     		b	.L2
 237              	.L5:
 226:../../../../../../Middlewares/Third_Party/LoRaWAN/Mac/region/RegionKR920.c ****             break;
 238              		.loc 1 226 0
 239 00b2 2023     		movs	r3, #32
 240 00b4 0093     		str	r3, [sp]
 227:../../../../../../Middlewares/Third_Party/LoRaWAN/Mac/region/RegionKR920.c ****         }
 241              		.loc 1 227 0
 242 00b6 B2E7     		b	.L2
 243              	.L3:
 221:../../../../../../Middlewares/Third_Party/LoRaWAN/Mac/region/RegionKR920.c ****             break;
 244              		.loc 1 221 0
 245 00b8 4023     		movs	r3, #64
 246 00ba 0093     		str	r3, [sp]
 222:../../../../../../Middlewares/Third_Party/LoRaWAN/Mac/region/RegionKR920.c ****         }
 247              		.loc 1 222 0
 248 00bc AFE7     		b	.L2
 249              	.L22:
 206:../../../../../../Middlewares/Third_Party/LoRaWAN/Mac/region/RegionKR920.c ****             break;
 250              		.loc 1 206 0
 251 00be 0123     		movs	r3, #1
 252 00c0 C356     		ldrsb	r3, [r0, r3]
 253              	.LVL6:
 254              	.LBB20:
 255              	.LBB21:
  73:../../../../../../Middlewares/Third_Party/LoRaWAN/Mac/region/RegionKR920.c ****     {
 256              		.loc 1 73 0
 257 00c2 0022     		movs	r2, #0
 258 00c4 002B     		cmp	r3, #0
 259 00c6 01D0     		beq	.L26
 260              	.LVL7:
  79:../../../../../../Middlewares/Third_Party/LoRaWAN/Mac/region/RegionKR920.c ****     }
 261              		.loc 1 79 0
 262 00c8 013B     		subs	r3, r3, #1
 263              	.LVL8:
 264 00ca 5AB2     		sxtb	r2, r3
 265              	.LVL9:
 266              	.L26:
 267              	.LBE21:
 268              	.LBE20:
 206:../../../../../../Middlewares/Third_Party/LoRaWAN/Mac/region/RegionKR920.c ****             break;
 269              		.loc 1 206 0
 270 00cc 0092     		str	r2, [sp]
 207:../../../../../../Middlewares/Third_Party/LoRaWAN/Mac/region/RegionKR920.c ****         }
 271              		.loc 1 207 0
 272 00ce A6E7     		b	.L2
 273              	.L23:
 336:../../../../../../Middlewares/Third_Party/LoRaWAN/Mac/region/RegionKR920.c ****             break;
 274              		.loc 1 336 0
 275 00d0 0D4B     		ldr	r3, .L30+48
 276 00d2 0093     		str	r3, [sp]
ARM GAS  C:\Users\EBANO_~1\AppData\Local\Temp\ccLo4wHn.s 			page 13


 337:../../../../../../Middlewares/Third_Party/LoRaWAN/Mac/region/RegionKR920.c ****         }
 277              		.loc 1 337 0
 278 00d4 A3E7     		b	.L2
 279              	.L31:
 280 00d6 C046     		.align	2
 281              	.L30:
 282 00d8 00000000 		.word	.L4
 283 00dc D2000000 		.word	NvmCtx+210
 284 00e0 11020000 		.word	529
 285 00e4 D0000000 		.word	NvmCtx+208
 286 00e8 00000000 		.word	NvmCtx
 287 00ec E013F336 		.word	921900000
 288 00f0 00006041 		.word	1096810496
 289 00f4 18FCFFFF 		.word	-1000
 290 00f8 70170000 		.word	6000
 291 00fc 88130000 		.word	5000
 292 0100 9A990940 		.word	1074370970
 293 0104 CC000000 		.word	.LANCHOR0
 294 0108 60630537 		.word	923100000
 295              		.cfi_endproc
 296              	.LFE45:
 297              		.size	RegionKR920GetPhyParam, .-RegionKR920GetPhyParam
 298              		.section	.text.RegionKR920SetBandTxDone,"ax",%progbits
 299              		.align	1
 300              		.p2align 2,,3
 301              		.global	RegionKR920SetBandTxDone
 302              		.syntax unified
 303              		.code	16
 304              		.thumb_func
 305              		.fpu softvfp
 306              		.type	RegionKR920SetBandTxDone, %function
 307              	RegionKR920SetBandTxDone:
 308              	.LFB46:
 364:../../../../../../Middlewares/Third_Party/LoRaWAN/Mac/region/RegionKR920.c **** 
 365:../../../../../../Middlewares/Third_Party/LoRaWAN/Mac/region/RegionKR920.c **** void RegionKR920SetBandTxDone( SetBandTxDoneParams_t* txDone )
 366:../../../../../../Middlewares/Third_Party/LoRaWAN/Mac/region/RegionKR920.c **** {
 309              		.loc 1 366 0
 310              		.cfi_startproc
 311              		@ args = 0, pretend = 0, frame = 0
 312              		@ frame_needed = 0, uses_anonymous_args = 0
 313              	.LVL10:
 367:../../../../../../Middlewares/Third_Party/LoRaWAN/Mac/region/RegionKR920.c ****     RegionCommonSetBandTxDone( txDone->Joined, &NvmCtx.Bands[NvmCtx.Channels[txDone->Channel].Band]
 314              		.loc 1 367 0
 315 0000 0178     		ldrb	r1, [r0]
 366:../../../../../../Middlewares/Third_Party/LoRaWAN/Mac/region/RegionKR920.c ****     RegionCommonSetBandTxDone( txDone->Joined, &NvmCtx.Bands[NvmCtx.Channels[txDone->Channel].Band]
 316              		.loc 1 366 0
 317 0002 10B5     		push	{r4, lr}
 318              	.LCFI2:
 319              		.cfi_def_cfa_offset 8
 320              		.cfi_offset 4, -8
 321              		.cfi_offset 14, -4
 322              		.loc 1 367 0
 323 0004 4B00     		lsls	r3, r1, #1
 324 0006 064C     		ldr	r4, .L33
 325 0008 5B18     		adds	r3, r3, r1
 326 000a 9B00     		lsls	r3, r3, #2
 327 000c E318     		adds	r3, r4, r3
ARM GAS  C:\Users\EBANO_~1\AppData\Local\Temp\ccLo4wHn.s 			page 14


 328 000e 597A     		ldrb	r1, [r3, #9]
 329 0010 4268     		ldr	r2, [r0, #4]
 330 0012 0C31     		adds	r1, r1, #12
 331 0014 0901     		lsls	r1, r1, #4
 332 0016 0919     		adds	r1, r1, r4
 333 0018 4078     		ldrb	r0, [r0, #1]
 334              	.LVL11:
 335 001a FFF7FEFF 		bl	RegionCommonSetBandTxDone
 336              	.LVL12:
 368:../../../../../../Middlewares/Third_Party/LoRaWAN/Mac/region/RegionKR920.c **** }
 337              		.loc 1 368 0
 338              		@ sp needed
 339 001e 10BD     		pop	{r4, pc}
 340              	.L34:
 341              		.align	2
 342              	.L33:
 343 0020 00000000 		.word	NvmCtx
 344              		.cfi_endproc
 345              	.LFE46:
 346              		.size	RegionKR920SetBandTxDone, .-RegionKR920SetBandTxDone
 347              		.section	.text.RegionKR920InitDefaults,"ax",%progbits
 348              		.align	1
 349              		.p2align 2,,3
 350              		.global	RegionKR920InitDefaults
 351              		.syntax unified
 352              		.code	16
 353              		.thumb_func
 354              		.fpu softvfp
 355              		.type	RegionKR920InitDefaults, %function
 356              	RegionKR920InitDefaults:
 357              	.LFB47:
 369:../../../../../../Middlewares/Third_Party/LoRaWAN/Mac/region/RegionKR920.c **** 
 370:../../../../../../Middlewares/Third_Party/LoRaWAN/Mac/region/RegionKR920.c **** void RegionKR920InitDefaults( InitDefaultsParams_t* params )
 371:../../../../../../Middlewares/Third_Party/LoRaWAN/Mac/region/RegionKR920.c **** {
 358              		.loc 1 371 0
 359              		.cfi_startproc
 360              		@ args = 0, pretend = 0, frame = 16
 361              		@ frame_needed = 0, uses_anonymous_args = 0
 362              	.LVL13:
 363 0000 F0B5     		push	{r4, r5, r6, r7, lr}
 364              	.LCFI3:
 365              		.cfi_def_cfa_offset 20
 366              		.cfi_offset 4, -20
 367              		.cfi_offset 5, -16
 368              		.cfi_offset 6, -12
 369              		.cfi_offset 7, -8
 370              		.cfi_offset 14, -4
 371 0002 85B0     		sub	sp, sp, #20
 372              	.LCFI4:
 373              		.cfi_def_cfa_offset 40
 372:../../../../../../Middlewares/Third_Party/LoRaWAN/Mac/region/RegionKR920.c ****     Band_t bands[KR920_MAX_NB_BANDS] =
 374              		.loc 1 372 0
 375 0004 0123     		movs	r3, #1
 376 0006 6A46     		mov	r2, sp
 377 0008 1380     		strh	r3, [r2]
 378 000a 0023     		movs	r3, #0
 379 000c 9370     		strb	r3, [r2, #2]
ARM GAS  C:\Users\EBANO_~1\AppData\Local\Temp\ccLo4wHn.s 			page 15


 380 000e 0193     		str	r3, [sp, #4]
 381 0010 0293     		str	r3, [sp, #8]
 382 0012 0393     		str	r3, [sp, #12]
 373:../../../../../../Middlewares/Third_Party/LoRaWAN/Mac/region/RegionKR920.c ****     {
 374:../../../../../../Middlewares/Third_Party/LoRaWAN/Mac/region/RegionKR920.c ****         KR920_BAND0
 375:../../../../../../Middlewares/Third_Party/LoRaWAN/Mac/region/RegionKR920.c ****     };
 376:../../../../../../Middlewares/Third_Party/LoRaWAN/Mac/region/RegionKR920.c **** 
 377:../../../../../../Middlewares/Third_Party/LoRaWAN/Mac/region/RegionKR920.c ****     switch( params->Type )
 383              		.loc 1 377 0
 384 0014 0379     		ldrb	r3, [r0, #4]
 385 0016 012B     		cmp	r3, #1
 386 0018 2ED0     		beq	.L37
 387 001a 002B     		cmp	r3, #0
 388 001c 0AD0     		beq	.L38
 389 001e 022B     		cmp	r3, #2
 390 0020 06D1     		bne	.L35
 378:../../../../../../Middlewares/Third_Party/LoRaWAN/Mac/region/RegionKR920.c ****     {
 379:../../../../../../Middlewares/Third_Party/LoRaWAN/Mac/region/RegionKR920.c ****         case INIT_TYPE_INIT:
 380:../../../../../../Middlewares/Third_Party/LoRaWAN/Mac/region/RegionKR920.c ****         {
 381:../../../../../../Middlewares/Third_Party/LoRaWAN/Mac/region/RegionKR920.c ****             // Initialize bands
 382:../../../../../../Middlewares/Third_Party/LoRaWAN/Mac/region/RegionKR920.c ****             memcpy1( ( uint8_t* )NvmCtx.Bands, ( uint8_t* )bands, sizeof( Band_t ) * KR920_MAX_NB_B
 383:../../../../../../Middlewares/Third_Party/LoRaWAN/Mac/region/RegionKR920.c **** 
 384:../../../../../../Middlewares/Third_Party/LoRaWAN/Mac/region/RegionKR920.c ****             // Channels
 385:../../../../../../Middlewares/Third_Party/LoRaWAN/Mac/region/RegionKR920.c ****             NvmCtx.Channels[0] = ( ChannelParams_t ) KR920_LC1;
 386:../../../../../../Middlewares/Third_Party/LoRaWAN/Mac/region/RegionKR920.c ****             NvmCtx.Channels[1] = ( ChannelParams_t ) KR920_LC2;
 387:../../../../../../Middlewares/Third_Party/LoRaWAN/Mac/region/RegionKR920.c ****             NvmCtx.Channels[2] = ( ChannelParams_t ) KR920_LC3;
 388:../../../../../../Middlewares/Third_Party/LoRaWAN/Mac/region/RegionKR920.c **** 
 389:../../../../../../Middlewares/Third_Party/LoRaWAN/Mac/region/RegionKR920.c ****             // Initialize the channels default mask
 390:../../../../../../Middlewares/Third_Party/LoRaWAN/Mac/region/RegionKR920.c ****             NvmCtx.ChannelsDefaultMask[0] = LC( 1 ) + LC( 2 ) + LC( 3 );
 391:../../../../../../Middlewares/Third_Party/LoRaWAN/Mac/region/RegionKR920.c ****             // Update the channels mask
 392:../../../../../../Middlewares/Third_Party/LoRaWAN/Mac/region/RegionKR920.c ****             RegionCommonChanMaskCopy( NvmCtx.ChannelsMask, NvmCtx.ChannelsDefaultMask, 1 );
 393:../../../../../../Middlewares/Third_Party/LoRaWAN/Mac/region/RegionKR920.c ****             break;
 394:../../../../../../Middlewares/Third_Party/LoRaWAN/Mac/region/RegionKR920.c ****         }
 395:../../../../../../Middlewares/Third_Party/LoRaWAN/Mac/region/RegionKR920.c ****         case INIT_TYPE_RESTORE_CTX:
 396:../../../../../../Middlewares/Third_Party/LoRaWAN/Mac/region/RegionKR920.c ****         {
 397:../../../../../../Middlewares/Third_Party/LoRaWAN/Mac/region/RegionKR920.c ****             if( params->NvmCtx != 0 )
 391              		.loc 1 397 0
 392 0022 0168     		ldr	r1, [r0]
 393 0024 0029     		cmp	r1, #0
 394 0026 03D0     		beq	.L35
 398:../../../../../../Middlewares/Third_Party/LoRaWAN/Mac/region/RegionKR920.c ****             {
 399:../../../../../../Middlewares/Third_Party/LoRaWAN/Mac/region/RegionKR920.c ****                 memcpy1( (uint8_t*) &NvmCtx, (uint8_t*) params->NvmCtx, sizeof( NvmCtx ) );
 395              		.loc 1 399 0
 396 0028 D422     		movs	r2, #212
 397 002a 1748     		ldr	r0, .L43
 398              	.LVL14:
 399 002c FFF7FEFF 		bl	memcpy1
 400              	.LVL15:
 401              	.L35:
 400:../../../../../../Middlewares/Third_Party/LoRaWAN/Mac/region/RegionKR920.c ****             }
 401:../../../../../../Middlewares/Third_Party/LoRaWAN/Mac/region/RegionKR920.c ****             break;
 402:../../../../../../Middlewares/Third_Party/LoRaWAN/Mac/region/RegionKR920.c ****         }
 403:../../../../../../Middlewares/Third_Party/LoRaWAN/Mac/region/RegionKR920.c ****         case INIT_TYPE_RESTORE_DEFAULT_CHANNELS:
 404:../../../../../../Middlewares/Third_Party/LoRaWAN/Mac/region/RegionKR920.c ****         {
 405:../../../../../../Middlewares/Third_Party/LoRaWAN/Mac/region/RegionKR920.c ****             // Restore channels default mask
 406:../../../../../../Middlewares/Third_Party/LoRaWAN/Mac/region/RegionKR920.c ****             NvmCtx.ChannelsMask[0] |= NvmCtx.ChannelsDefaultMask[0];
 407:../../../../../../Middlewares/Third_Party/LoRaWAN/Mac/region/RegionKR920.c ****             break;
ARM GAS  C:\Users\EBANO_~1\AppData\Local\Temp\ccLo4wHn.s 			page 16


 408:../../../../../../Middlewares/Third_Party/LoRaWAN/Mac/region/RegionKR920.c ****         }
 409:../../../../../../Middlewares/Third_Party/LoRaWAN/Mac/region/RegionKR920.c ****         default:
 410:../../../../../../Middlewares/Third_Party/LoRaWAN/Mac/region/RegionKR920.c ****         {
 411:../../../../../../Middlewares/Third_Party/LoRaWAN/Mac/region/RegionKR920.c ****             break;
 412:../../../../../../Middlewares/Third_Party/LoRaWAN/Mac/region/RegionKR920.c ****         }
 413:../../../../../../Middlewares/Third_Party/LoRaWAN/Mac/region/RegionKR920.c ****     }
 414:../../../../../../Middlewares/Third_Party/LoRaWAN/Mac/region/RegionKR920.c **** }
 402              		.loc 1 414 0
 403 0030 05B0     		add	sp, sp, #20
 404              		@ sp needed
 405 0032 F0BD     		pop	{r4, r5, r6, r7, pc}
 406              	.LVL16:
 407              	.L38:
 382:../../../../../../Middlewares/Third_Party/LoRaWAN/Mac/region/RegionKR920.c **** 
 408              		.loc 1 382 0
 409 0034 154C     		ldr	r4, .L43+4
 410 0036 6946     		mov	r1, sp
 411 0038 2000     		movs	r0, r4
 412              	.LVL17:
 413 003a 1022     		movs	r2, #16
 414 003c FFF7FEFF 		bl	memcpy1
 415              	.LVL18:
 385:../../../../../../Middlewares/Third_Party/LoRaWAN/Mac/region/RegionKR920.c ****             NvmCtx.Channels[1] = ( ChannelParams_t ) KR920_LC2;
 416              		.loc 1 385 0
 417 0040 2200     		movs	r2, r4
 418 0042 134B     		ldr	r3, .L43+8
 419 0044 C03A     		subs	r2, r2, #192
 420 0046 1900     		movs	r1, r3
 421 0048 1000     		movs	r0, r2
 422 004a 1031     		adds	r1, r1, #16
 423 004c E0C9     		ldmia	r1!, {r5, r6, r7}
 424 004e E0C0     		stmia	r0!, {r5, r6, r7}
 386:../../../../../../Middlewares/Third_Party/LoRaWAN/Mac/region/RegionKR920.c ****             NvmCtx.Channels[2] = ( ChannelParams_t ) KR920_LC3;
 425              		.loc 1 386 0
 426 0050 1900     		movs	r1, r3
 427 0052 1C31     		adds	r1, r1, #28
 428 0054 E0C9     		ldmia	r1!, {r5, r6, r7}
 429 0056 E0C0     		stmia	r0!, {r5, r6, r7}
 387:../../../../../../Middlewares/Third_Party/LoRaWAN/Mac/region/RegionKR920.c **** 
 430              		.loc 1 387 0
 431 0058 2100     		movs	r1, r4
 432 005a 2833     		adds	r3, r3, #40
 433 005c A839     		subs	r1, r1, #168
 434 005e 61CB     		ldmia	r3!, {r0, r5, r6}
 435 0060 61C1     		stmia	r1!, {r0, r5, r6}
 390:../../../../../../Middlewares/Third_Party/LoRaWAN/Mac/region/RegionKR920.c ****             // Update the channels mask
 436              		.loc 1 390 0
 437 0062 D223     		movs	r3, #210
 438 0064 0721     		movs	r1, #7
 392:../../../../../../Middlewares/Third_Party/LoRaWAN/Mac/region/RegionKR920.c ****             break;
 439              		.loc 1 392 0
 440 0066 2000     		movs	r0, r4
 390:../../../../../../Middlewares/Third_Party/LoRaWAN/Mac/region/RegionKR920.c ****             // Update the channels mask
 441              		.loc 1 390 0
 442 0068 D152     		strh	r1, [r2, r3]
 392:../../../../../../Middlewares/Third_Party/LoRaWAN/Mac/region/RegionKR920.c ****             break;
 443              		.loc 1 392 0
ARM GAS  C:\Users\EBANO_~1\AppData\Local\Temp\ccLo4wHn.s 			page 17


 444 006a 2100     		movs	r1, r4
 445 006c 1030     		adds	r0, r0, #16
 446 006e 1231     		adds	r1, r1, #18
 447 0070 0122     		movs	r2, #1
 448 0072 FFF7FEFF 		bl	RegionCommonChanMaskCopy
 449              	.LVL19:
 393:../../../../../../Middlewares/Third_Party/LoRaWAN/Mac/region/RegionKR920.c ****         }
 450              		.loc 1 393 0
 451 0076 DBE7     		b	.L35
 452              	.LVL20:
 453              	.L37:
 406:../../../../../../Middlewares/Third_Party/LoRaWAN/Mac/region/RegionKR920.c ****             break;
 454              		.loc 1 406 0
 455 0078 D021     		movs	r1, #208
 456 007a D220     		movs	r0, #210
 457              	.LVL21:
 458 007c 024B     		ldr	r3, .L43
 459 007e 5A5A     		ldrh	r2, [r3, r1]
 460 0080 185A     		ldrh	r0, [r3, r0]
 461 0082 0243     		orrs	r2, r0
 462 0084 5A52     		strh	r2, [r3, r1]
 463              		.loc 1 414 0
 464 0086 D3E7     		b	.L35
 465              	.L44:
 466              		.align	2
 467              	.L43:
 468 0088 00000000 		.word	NvmCtx
 469 008c C0000000 		.word	NvmCtx+192
 470 0090 CC000000 		.word	.LANCHOR0
 471              		.cfi_endproc
 472              	.LFE47:
 473              		.size	RegionKR920InitDefaults, .-RegionKR920InitDefaults
 474              		.section	.text.RegionKR920GetNvmCtx,"ax",%progbits
 475              		.align	1
 476              		.p2align 2,,3
 477              		.global	RegionKR920GetNvmCtx
 478              		.syntax unified
 479              		.code	16
 480              		.thumb_func
 481              		.fpu softvfp
 482              		.type	RegionKR920GetNvmCtx, %function
 483              	RegionKR920GetNvmCtx:
 484              	.LFB48:
 415:../../../../../../Middlewares/Third_Party/LoRaWAN/Mac/region/RegionKR920.c **** 
 416:../../../../../../Middlewares/Third_Party/LoRaWAN/Mac/region/RegionKR920.c **** void* RegionKR920GetNvmCtx( GetNvmCtxParams_t* params )
 417:../../../../../../Middlewares/Third_Party/LoRaWAN/Mac/region/RegionKR920.c **** {
 485              		.loc 1 417 0
 486              		.cfi_startproc
 487              		@ args = 0, pretend = 0, frame = 0
 488              		@ frame_needed = 0, uses_anonymous_args = 0
 489              		@ link register save eliminated.
 490              	.LVL22:
 418:../../../../../../Middlewares/Third_Party/LoRaWAN/Mac/region/RegionKR920.c ****     params->nvmCtxSize = sizeof( RegionKR920NvmCtx_t );
 491              		.loc 1 418 0
 492 0000 D423     		movs	r3, #212
 419:../../../../../../Middlewares/Third_Party/LoRaWAN/Mac/region/RegionKR920.c ****     return &NvmCtx;
 420:../../../../../../Middlewares/Third_Party/LoRaWAN/Mac/region/RegionKR920.c **** }
ARM GAS  C:\Users\EBANO_~1\AppData\Local\Temp\ccLo4wHn.s 			page 18


 493              		.loc 1 420 0
 494              		@ sp needed
 418:../../../../../../Middlewares/Third_Party/LoRaWAN/Mac/region/RegionKR920.c ****     params->nvmCtxSize = sizeof( RegionKR920NvmCtx_t );
 495              		.loc 1 418 0
 496 0002 0360     		str	r3, [r0]
 497              		.loc 1 420 0
 498 0004 0048     		ldr	r0, .L46
 499              	.LVL23:
 500 0006 7047     		bx	lr
 501              	.L47:
 502              		.align	2
 503              	.L46:
 504 0008 00000000 		.word	NvmCtx
 505              		.cfi_endproc
 506              	.LFE48:
 507              		.size	RegionKR920GetNvmCtx, .-RegionKR920GetNvmCtx
 508              		.section	.text.RegionKR920Verify,"ax",%progbits
 509              		.align	1
 510              		.p2align 2,,3
 511              		.global	RegionKR920Verify
 512              		.syntax unified
 513              		.code	16
 514              		.thumb_func
 515              		.fpu softvfp
 516              		.type	RegionKR920Verify, %function
 517              	RegionKR920Verify:
 518              	.LFB49:
 421:../../../../../../Middlewares/Third_Party/LoRaWAN/Mac/region/RegionKR920.c **** 
 422:../../../../../../Middlewares/Third_Party/LoRaWAN/Mac/region/RegionKR920.c **** bool RegionKR920Verify( VerifyParams_t* verify, PhyAttribute_t phyAttribute )
 423:../../../../../../Middlewares/Third_Party/LoRaWAN/Mac/region/RegionKR920.c **** {
 519              		.loc 1 423 0
 520              		.cfi_startproc
 521              		@ args = 0, pretend = 0, frame = 0
 522              		@ frame_needed = 0, uses_anonymous_args = 0
 523              	.LVL24:
 524 0000 10B5     		push	{r4, lr}
 525              	.LCFI5:
 526              		.cfi_def_cfa_offset 8
 527              		.cfi_offset 4, -8
 528              		.cfi_offset 14, -4
 424:../../../../../../Middlewares/Third_Party/LoRaWAN/Mac/region/RegionKR920.c ****     switch( phyAttribute )
 529              		.loc 1 424 0
 530 0002 0429     		cmp	r1, #4
 531 0004 18D3     		bcc	.L52
 532 0006 0629     		cmp	r1, #6
 533 0008 09D8     		bhi	.L54
 425:../../../../../../Middlewares/Third_Party/LoRaWAN/Mac/region/RegionKR920.c ****     {
 426:../../../../../../Middlewares/Third_Party/LoRaWAN/Mac/region/RegionKR920.c ****         case PHY_TX_DR:
 427:../../../../../../Middlewares/Third_Party/LoRaWAN/Mac/region/RegionKR920.c ****         {
 428:../../../../../../Middlewares/Third_Party/LoRaWAN/Mac/region/RegionKR920.c ****             return RegionCommonValueInRange( verify->DatarateParams.Datarate, KR920_TX_MIN_DATARATE
 534              		.loc 1 428 0
 535 000a 0078     		ldrb	r0, [r0]
 536              	.LVL25:
 537 000c 0522     		movs	r2, #5
 538 000e 40B2     		sxtb	r0, r0
 539 0010 0021     		movs	r1, #0
 540              	.LVL26:
ARM GAS  C:\Users\EBANO_~1\AppData\Local\Temp\ccLo4wHn.s 			page 19


 541 0012 FFF7FEFF 		bl	RegionCommonValueInRange
 542              	.LVL27:
 543 0016 431E     		subs	r3, r0, #1
 544 0018 9841     		sbcs	r0, r0, r3
 545 001a C0B2     		uxtb	r0, r0
 546              	.L49:
 429:../../../../../../Middlewares/Third_Party/LoRaWAN/Mac/region/RegionKR920.c ****         }
 430:../../../../../../Middlewares/Third_Party/LoRaWAN/Mac/region/RegionKR920.c ****         case PHY_DEF_TX_DR:
 431:../../../../../../Middlewares/Third_Party/LoRaWAN/Mac/region/RegionKR920.c ****         {
 432:../../../../../../Middlewares/Third_Party/LoRaWAN/Mac/region/RegionKR920.c ****             return RegionCommonValueInRange( verify->DatarateParams.Datarate, DR_0, DR_5 );
 433:../../../../../../Middlewares/Third_Party/LoRaWAN/Mac/region/RegionKR920.c ****         }
 434:../../../../../../Middlewares/Third_Party/LoRaWAN/Mac/region/RegionKR920.c ****         case PHY_RX_DR:
 435:../../../../../../Middlewares/Third_Party/LoRaWAN/Mac/region/RegionKR920.c ****         {
 436:../../../../../../Middlewares/Third_Party/LoRaWAN/Mac/region/RegionKR920.c ****             return RegionCommonValueInRange( verify->DatarateParams.Datarate, KR920_RX_MIN_DATARATE
 437:../../../../../../Middlewares/Third_Party/LoRaWAN/Mac/region/RegionKR920.c ****         }
 438:../../../../../../Middlewares/Third_Party/LoRaWAN/Mac/region/RegionKR920.c ****         case PHY_DEF_TX_POWER:
 439:../../../../../../Middlewares/Third_Party/LoRaWAN/Mac/region/RegionKR920.c ****         case PHY_TX_POWER:
 440:../../../../../../Middlewares/Third_Party/LoRaWAN/Mac/region/RegionKR920.c ****         {
 441:../../../../../../Middlewares/Third_Party/LoRaWAN/Mac/region/RegionKR920.c ****             // Remark: switched min and max!
 442:../../../../../../Middlewares/Third_Party/LoRaWAN/Mac/region/RegionKR920.c ****             return RegionCommonValueInRange( verify->TxPower, KR920_MAX_TX_POWER, KR920_MIN_TX_POWE
 443:../../../../../../Middlewares/Third_Party/LoRaWAN/Mac/region/RegionKR920.c ****         }
 444:../../../../../../Middlewares/Third_Party/LoRaWAN/Mac/region/RegionKR920.c ****         case PHY_DUTY_CYCLE:
 445:../../../../../../Middlewares/Third_Party/LoRaWAN/Mac/region/RegionKR920.c ****         {
 446:../../../../../../Middlewares/Third_Party/LoRaWAN/Mac/region/RegionKR920.c ****             return KR920_DUTY_CYCLE_ENABLED;
 447:../../../../../../Middlewares/Third_Party/LoRaWAN/Mac/region/RegionKR920.c ****         }
 448:../../../../../../Middlewares/Third_Party/LoRaWAN/Mac/region/RegionKR920.c ****         default:
 449:../../../../../../Middlewares/Third_Party/LoRaWAN/Mac/region/RegionKR920.c ****             return false;
 450:../../../../../../Middlewares/Third_Party/LoRaWAN/Mac/region/RegionKR920.c ****     }
 451:../../../../../../Middlewares/Third_Party/LoRaWAN/Mac/region/RegionKR920.c **** }
 547              		.loc 1 451 0
 548              		@ sp needed
 549 001c 10BD     		pop	{r4, pc}
 550              	.LVL28:
 551              	.L54:
 424:../../../../../../Middlewares/Third_Party/LoRaWAN/Mac/region/RegionKR920.c ****     {
 552              		.loc 1 424 0
 553 001e 0839     		subs	r1, r1, #8
 554              	.LVL29:
 555 0020 0129     		cmp	r1, #1
 556 0022 09D8     		bhi	.L52
 442:../../../../../../Middlewares/Third_Party/LoRaWAN/Mac/region/RegionKR920.c ****         }
 557              		.loc 1 442 0
 558 0024 0078     		ldrb	r0, [r0]
 559              	.LVL30:
 560 0026 0722     		movs	r2, #7
 561 0028 40B2     		sxtb	r0, r0
 562 002a 0021     		movs	r1, #0
 563 002c FFF7FEFF 		bl	RegionCommonValueInRange
 564              	.LVL31:
 565 0030 431E     		subs	r3, r0, #1
 566 0032 9841     		sbcs	r0, r0, r3
 567 0034 C0B2     		uxtb	r0, r0
 568 0036 F1E7     		b	.L49
 569              	.LVL32:
 570              	.L52:
 446:../../../../../../Middlewares/Third_Party/LoRaWAN/Mac/region/RegionKR920.c ****         }
 571              		.loc 1 446 0
ARM GAS  C:\Users\EBANO_~1\AppData\Local\Temp\ccLo4wHn.s 			page 20


 572 0038 0020     		movs	r0, #0
 573              	.LVL33:
 574 003a EFE7     		b	.L49
 575              		.cfi_endproc
 576              	.LFE49:
 577              		.size	RegionKR920Verify, .-RegionKR920Verify
 578              		.global	__aeabi_uidivmod
 579              		.section	.text.RegionKR920ApplyCFList,"ax",%progbits
 580              		.align	1
 581              		.p2align 2,,3
 582              		.global	RegionKR920ApplyCFList
 583              		.syntax unified
 584              		.code	16
 585              		.thumb_func
 586              		.fpu softvfp
 587              		.type	RegionKR920ApplyCFList, %function
 588              	RegionKR920ApplyCFList:
 589              	.LFB50:
 452:../../../../../../Middlewares/Third_Party/LoRaWAN/Mac/region/RegionKR920.c **** 
 453:../../../../../../Middlewares/Third_Party/LoRaWAN/Mac/region/RegionKR920.c **** void RegionKR920ApplyCFList( ApplyCFListParams_t* applyCFList )
 454:../../../../../../Middlewares/Third_Party/LoRaWAN/Mac/region/RegionKR920.c **** {
 590              		.loc 1 454 0
 591              		.cfi_startproc
 592              		@ args = 0, pretend = 0, frame = 24
 593              		@ frame_needed = 0, uses_anonymous_args = 0
 594              	.LVL34:
 595 0000 F0B5     		push	{r4, r5, r6, r7, lr}
 596              	.LCFI6:
 597              		.cfi_def_cfa_offset 20
 598              		.cfi_offset 4, -20
 599              		.cfi_offset 5, -16
 600              		.cfi_offset 6, -12
 601              		.cfi_offset 7, -8
 602              		.cfi_offset 14, -4
 603 0002 4546     		mov	r5, r8
 604 0004 DE46     		mov	lr, fp
 605 0006 5746     		mov	r7, r10
 606 0008 4E46     		mov	r6, r9
 455:../../../../../../Middlewares/Third_Party/LoRaWAN/Mac/region/RegionKR920.c ****     ChannelParams_t newChannel;
 456:../../../../../../Middlewares/Third_Party/LoRaWAN/Mac/region/RegionKR920.c ****     ChannelAddParams_t channelAdd;
 457:../../../../../../Middlewares/Third_Party/LoRaWAN/Mac/region/RegionKR920.c ****     ChannelRemoveParams_t channelRemove;
 458:../../../../../../Middlewares/Third_Party/LoRaWAN/Mac/region/RegionKR920.c **** 
 459:../../../../../../Middlewares/Third_Party/LoRaWAN/Mac/region/RegionKR920.c ****     // Setup default datarate range
 460:../../../../../../Middlewares/Third_Party/LoRaWAN/Mac/region/RegionKR920.c ****     newChannel.DrRange.Value = ( DR_5 << 4 ) | DR_0;
 607              		.loc 1 460 0
 608 000a 5023     		movs	r3, #80
 454:../../../../../../Middlewares/Third_Party/LoRaWAN/Mac/region/RegionKR920.c ****     ChannelParams_t newChannel;
 609              		.loc 1 454 0
 610 000c E0B5     		push	{r5, r6, r7, lr}
 611              	.LCFI7:
 612              		.cfi_def_cfa_offset 36
 613              		.cfi_offset 8, -36
 614              		.cfi_offset 9, -32
 615              		.cfi_offset 10, -28
 616              		.cfi_offset 11, -24
 617 000e 87B0     		sub	sp, sp, #28
 618              	.LCFI8:
ARM GAS  C:\Users\EBANO_~1\AppData\Local\Temp\ccLo4wHn.s 			page 21


 619              		.cfi_def_cfa_offset 64
 620              		.loc 1 460 0
 621 0010 03AC     		add	r4, sp, #12
 622 0012 2372     		strb	r3, [r4, #8]
 461:../../../../../../Middlewares/Third_Party/LoRaWAN/Mac/region/RegionKR920.c **** 
 462:../../../../../../Middlewares/Third_Party/LoRaWAN/Mac/region/RegionKR920.c ****     // Size of the optional CF list
 463:../../../../../../Middlewares/Third_Party/LoRaWAN/Mac/region/RegionKR920.c ****     if( applyCFList->Size != 16 )
 623              		.loc 1 463 0
 624 0014 0379     		ldrb	r3, [r0, #4]
 454:../../../../../../Middlewares/Third_Party/LoRaWAN/Mac/region/RegionKR920.c ****     ChannelParams_t newChannel;
 625              		.loc 1 454 0
 626 0016 8046     		mov	r8, r0
 627              		.loc 1 463 0
 628 0018 102B     		cmp	r3, #16
 629 001a 06D0     		beq	.L73
 630              	.LVL35:
 631              	.L55:
 464:../../../../../../Middlewares/Third_Party/LoRaWAN/Mac/region/RegionKR920.c ****     {
 465:../../../../../../Middlewares/Third_Party/LoRaWAN/Mac/region/RegionKR920.c ****         return;
 466:../../../../../../Middlewares/Third_Party/LoRaWAN/Mac/region/RegionKR920.c ****     }
 467:../../../../../../Middlewares/Third_Party/LoRaWAN/Mac/region/RegionKR920.c **** 
 468:../../../../../../Middlewares/Third_Party/LoRaWAN/Mac/region/RegionKR920.c ****     // Last byte CFListType must be 0 to indicate the CFList contains a list of frequencies
 469:../../../../../../Middlewares/Third_Party/LoRaWAN/Mac/region/RegionKR920.c ****     if( applyCFList->Payload[15] != 0 )
 470:../../../../../../Middlewares/Third_Party/LoRaWAN/Mac/region/RegionKR920.c ****     {
 471:../../../../../../Middlewares/Third_Party/LoRaWAN/Mac/region/RegionKR920.c ****         return;
 472:../../../../../../Middlewares/Third_Party/LoRaWAN/Mac/region/RegionKR920.c ****     }
 473:../../../../../../Middlewares/Third_Party/LoRaWAN/Mac/region/RegionKR920.c **** 
 474:../../../../../../Middlewares/Third_Party/LoRaWAN/Mac/region/RegionKR920.c ****     // Last byte is RFU, don't take it into account
 475:../../../../../../Middlewares/Third_Party/LoRaWAN/Mac/region/RegionKR920.c ****     for( uint8_t i = 0, chanIdx = KR920_NUMB_DEFAULT_CHANNELS; chanIdx < KR920_MAX_NB_CHANNELS; i+=
 476:../../../../../../Middlewares/Third_Party/LoRaWAN/Mac/region/RegionKR920.c ****     {
 477:../../../../../../Middlewares/Third_Party/LoRaWAN/Mac/region/RegionKR920.c ****         if( chanIdx < ( KR920_NUMB_CHANNELS_CF_LIST + KR920_NUMB_DEFAULT_CHANNELS ) )
 478:../../../../../../Middlewares/Third_Party/LoRaWAN/Mac/region/RegionKR920.c ****         {
 479:../../../../../../Middlewares/Third_Party/LoRaWAN/Mac/region/RegionKR920.c ****             // Channel frequency
 480:../../../../../../Middlewares/Third_Party/LoRaWAN/Mac/region/RegionKR920.c ****             newChannel.Frequency = (uint32_t) applyCFList->Payload[i];
 481:../../../../../../Middlewares/Third_Party/LoRaWAN/Mac/region/RegionKR920.c ****             newChannel.Frequency |= ( (uint32_t) applyCFList->Payload[i + 1] << 8 );
 482:../../../../../../Middlewares/Third_Party/LoRaWAN/Mac/region/RegionKR920.c ****             newChannel.Frequency |= ( (uint32_t) applyCFList->Payload[i + 2] << 16 );
 483:../../../../../../Middlewares/Third_Party/LoRaWAN/Mac/region/RegionKR920.c ****             newChannel.Frequency *= 100;
 484:../../../../../../Middlewares/Third_Party/LoRaWAN/Mac/region/RegionKR920.c **** 
 485:../../../../../../Middlewares/Third_Party/LoRaWAN/Mac/region/RegionKR920.c ****             // Initialize alternative frequency to 0
 486:../../../../../../Middlewares/Third_Party/LoRaWAN/Mac/region/RegionKR920.c ****             newChannel.Rx1Frequency = 0;
 487:../../../../../../Middlewares/Third_Party/LoRaWAN/Mac/region/RegionKR920.c ****         }
 488:../../../../../../Middlewares/Third_Party/LoRaWAN/Mac/region/RegionKR920.c ****         else
 489:../../../../../../Middlewares/Third_Party/LoRaWAN/Mac/region/RegionKR920.c ****         {
 490:../../../../../../Middlewares/Third_Party/LoRaWAN/Mac/region/RegionKR920.c ****             newChannel.Frequency = 0;
 491:../../../../../../Middlewares/Third_Party/LoRaWAN/Mac/region/RegionKR920.c ****             newChannel.DrRange.Value = 0;
 492:../../../../../../Middlewares/Third_Party/LoRaWAN/Mac/region/RegionKR920.c ****             newChannel.Rx1Frequency = 0;
 493:../../../../../../Middlewares/Third_Party/LoRaWAN/Mac/region/RegionKR920.c ****         }
 494:../../../../../../Middlewares/Third_Party/LoRaWAN/Mac/region/RegionKR920.c **** 
 495:../../../../../../Middlewares/Third_Party/LoRaWAN/Mac/region/RegionKR920.c ****         if( newChannel.Frequency != 0 )
 496:../../../../../../Middlewares/Third_Party/LoRaWAN/Mac/region/RegionKR920.c ****         {
 497:../../../../../../Middlewares/Third_Party/LoRaWAN/Mac/region/RegionKR920.c ****             channelAdd.NewChannel = &newChannel;
 498:../../../../../../Middlewares/Third_Party/LoRaWAN/Mac/region/RegionKR920.c ****             channelAdd.ChannelId = chanIdx;
 499:../../../../../../Middlewares/Third_Party/LoRaWAN/Mac/region/RegionKR920.c **** 
 500:../../../../../../Middlewares/Third_Party/LoRaWAN/Mac/region/RegionKR920.c ****             // Try to add all channels
 501:../../../../../../Middlewares/Third_Party/LoRaWAN/Mac/region/RegionKR920.c ****             RegionKR920ChannelAdd( &channelAdd );
 502:../../../../../../Middlewares/Third_Party/LoRaWAN/Mac/region/RegionKR920.c ****         }
 503:../../../../../../Middlewares/Third_Party/LoRaWAN/Mac/region/RegionKR920.c ****         else
ARM GAS  C:\Users\EBANO_~1\AppData\Local\Temp\ccLo4wHn.s 			page 22


 504:../../../../../../Middlewares/Third_Party/LoRaWAN/Mac/region/RegionKR920.c ****         {
 505:../../../../../../Middlewares/Third_Party/LoRaWAN/Mac/region/RegionKR920.c ****             channelRemove.ChannelId = chanIdx;
 506:../../../../../../Middlewares/Third_Party/LoRaWAN/Mac/region/RegionKR920.c **** 
 507:../../../../../../Middlewares/Third_Party/LoRaWAN/Mac/region/RegionKR920.c ****             RegionKR920ChannelsRemove( &channelRemove );
 508:../../../../../../Middlewares/Third_Party/LoRaWAN/Mac/region/RegionKR920.c ****         }
 509:../../../../../../Middlewares/Third_Party/LoRaWAN/Mac/region/RegionKR920.c ****     }
 510:../../../../../../Middlewares/Third_Party/LoRaWAN/Mac/region/RegionKR920.c **** }
 632              		.loc 1 510 0
 633 001c 07B0     		add	sp, sp, #28
 634              		@ sp needed
 635              	.LVL36:
 636 001e 3CBC     		pop	{r2, r3, r4, r5}
 637 0020 9046     		mov	r8, r2
 638 0022 9946     		mov	r9, r3
 639 0024 A246     		mov	r10, r4
 640 0026 AB46     		mov	fp, r5
 641 0028 F0BD     		pop	{r4, r5, r6, r7, pc}
 642              	.LVL37:
 643              	.L73:
 469:../../../../../../Middlewares/Third_Party/LoRaWAN/Mac/region/RegionKR920.c ****     {
 644              		.loc 1 469 0
 645 002a 0368     		ldr	r3, [r0]
 646 002c DB7B     		ldrb	r3, [r3, #15]
 647 002e 002B     		cmp	r3, #0
 648 0030 F4D1     		bne	.L55
 649              	.LBB31:
 650              	.LBB32:
 651              	.LBB33:
 511:../../../../../../Middlewares/Third_Party/LoRaWAN/Mac/region/RegionKR920.c **** 
 512:../../../../../../Middlewares/Third_Party/LoRaWAN/Mac/region/RegionKR920.c **** bool RegionKR920ChanMaskSet( ChanMaskSetParams_t* chanMaskSet )
 513:../../../../../../Middlewares/Third_Party/LoRaWAN/Mac/region/RegionKR920.c **** {
 514:../../../../../../Middlewares/Third_Party/LoRaWAN/Mac/region/RegionKR920.c ****     switch( chanMaskSet->ChannelsMaskType )
 515:../../../../../../Middlewares/Third_Party/LoRaWAN/Mac/region/RegionKR920.c ****     {
 516:../../../../../../Middlewares/Third_Party/LoRaWAN/Mac/region/RegionKR920.c ****         case CHANNELS_MASK:
 517:../../../../../../Middlewares/Third_Party/LoRaWAN/Mac/region/RegionKR920.c ****         {
 518:../../../../../../Middlewares/Third_Party/LoRaWAN/Mac/region/RegionKR920.c ****             RegionCommonChanMaskCopy( NvmCtx.ChannelsMask, chanMaskSet->ChannelsMaskIn, 1 );
 519:../../../../../../Middlewares/Third_Party/LoRaWAN/Mac/region/RegionKR920.c ****             break;
 520:../../../../../../Middlewares/Third_Party/LoRaWAN/Mac/region/RegionKR920.c ****         }
 521:../../../../../../Middlewares/Third_Party/LoRaWAN/Mac/region/RegionKR920.c ****         case CHANNELS_DEFAULT_MASK:
 522:../../../../../../Middlewares/Third_Party/LoRaWAN/Mac/region/RegionKR920.c ****         {
 523:../../../../../../Middlewares/Third_Party/LoRaWAN/Mac/region/RegionKR920.c ****             RegionCommonChanMaskCopy( NvmCtx.ChannelsDefaultMask, chanMaskSet->ChannelsMaskIn, 1 );
 524:../../../../../../Middlewares/Third_Party/LoRaWAN/Mac/region/RegionKR920.c ****             break;
 525:../../../../../../Middlewares/Third_Party/LoRaWAN/Mac/region/RegionKR920.c ****         }
 526:../../../../../../Middlewares/Third_Party/LoRaWAN/Mac/region/RegionKR920.c ****         default:
 527:../../../../../../Middlewares/Third_Party/LoRaWAN/Mac/region/RegionKR920.c ****             return false;
 528:../../../../../../Middlewares/Third_Party/LoRaWAN/Mac/region/RegionKR920.c ****     }
 529:../../../../../../Middlewares/Third_Party/LoRaWAN/Mac/region/RegionKR920.c ****     return true;
 530:../../../../../../Middlewares/Third_Party/LoRaWAN/Mac/region/RegionKR920.c **** }
 531:../../../../../../Middlewares/Third_Party/LoRaWAN/Mac/region/RegionKR920.c **** 
 532:../../../../../../Middlewares/Third_Party/LoRaWAN/Mac/region/RegionKR920.c **** void RegionKR920ComputeRxWindowParameters( int8_t datarate, uint8_t minRxSymbols, uint32_t rxError,
 533:../../../../../../Middlewares/Third_Party/LoRaWAN/Mac/region/RegionKR920.c **** {
 534:../../../../../../Middlewares/Third_Party/LoRaWAN/Mac/region/RegionKR920.c ****     double tSymbol = 0.0;
 535:../../../../../../Middlewares/Third_Party/LoRaWAN/Mac/region/RegionKR920.c **** 
 536:../../../../../../Middlewares/Third_Party/LoRaWAN/Mac/region/RegionKR920.c ****     // Get the datarate, perform a boundary check
 537:../../../../../../Middlewares/Third_Party/LoRaWAN/Mac/region/RegionKR920.c ****     rxConfigParams->Datarate = MIN( datarate, KR920_RX_MAX_DATARATE );
 538:../../../../../../Middlewares/Third_Party/LoRaWAN/Mac/region/RegionKR920.c ****     rxConfigParams->Bandwidth = GetBandwidth( rxConfigParams->Datarate );
 539:../../../../../../Middlewares/Third_Party/LoRaWAN/Mac/region/RegionKR920.c **** 
ARM GAS  C:\Users\EBANO_~1\AppData\Local\Temp\ccLo4wHn.s 			page 23


 540:../../../../../../Middlewares/Third_Party/LoRaWAN/Mac/region/RegionKR920.c ****     tSymbol = RegionCommonComputeSymbolTimeLoRa( DataratesKR920[rxConfigParams->Datarate], Bandwidt
 541:../../../../../../Middlewares/Third_Party/LoRaWAN/Mac/region/RegionKR920.c **** 
 542:../../../../../../Middlewares/Third_Party/LoRaWAN/Mac/region/RegionKR920.c ****     RegionCommonComputeRxWindowParameters( tSymbol, minRxSymbols, rxError, Radio.GetWakeupTime( ), 
 543:../../../../../../Middlewares/Third_Party/LoRaWAN/Mac/region/RegionKR920.c **** }
 544:../../../../../../Middlewares/Third_Party/LoRaWAN/Mac/region/RegionKR920.c **** 
 545:../../../../../../Middlewares/Third_Party/LoRaWAN/Mac/region/RegionKR920.c **** bool RegionKR920RxConfig( RxConfigParams_t* rxConfig, int8_t* datarate )
 546:../../../../../../Middlewares/Third_Party/LoRaWAN/Mac/region/RegionKR920.c **** {
 547:../../../../../../Middlewares/Third_Party/LoRaWAN/Mac/region/RegionKR920.c ****     int8_t dr = rxConfig->Datarate;
 548:../../../../../../Middlewares/Third_Party/LoRaWAN/Mac/region/RegionKR920.c ****     uint8_t maxPayload = 0;
 549:../../../../../../Middlewares/Third_Party/LoRaWAN/Mac/region/RegionKR920.c ****     int8_t phyDr = 0;
 550:../../../../../../Middlewares/Third_Party/LoRaWAN/Mac/region/RegionKR920.c ****     uint32_t frequency = rxConfig->Frequency;
 551:../../../../../../Middlewares/Third_Party/LoRaWAN/Mac/region/RegionKR920.c **** 
 552:../../../../../../Middlewares/Third_Party/LoRaWAN/Mac/region/RegionKR920.c ****     if( Radio.GetStatus( ) != RF_IDLE )
 553:../../../../../../Middlewares/Third_Party/LoRaWAN/Mac/region/RegionKR920.c ****     {
 554:../../../../../../Middlewares/Third_Party/LoRaWAN/Mac/region/RegionKR920.c ****         return false;
 555:../../../../../../Middlewares/Third_Party/LoRaWAN/Mac/region/RegionKR920.c ****     }
 556:../../../../../../Middlewares/Third_Party/LoRaWAN/Mac/region/RegionKR920.c **** 
 557:../../../../../../Middlewares/Third_Party/LoRaWAN/Mac/region/RegionKR920.c ****     if( rxConfig->RxSlot == RX_SLOT_WIN_1 )
 558:../../../../../../Middlewares/Third_Party/LoRaWAN/Mac/region/RegionKR920.c ****     {
 559:../../../../../../Middlewares/Third_Party/LoRaWAN/Mac/region/RegionKR920.c ****         // Apply window 1 frequency
 560:../../../../../../Middlewares/Third_Party/LoRaWAN/Mac/region/RegionKR920.c ****         frequency = NvmCtx.Channels[rxConfig->Channel].Frequency;
 561:../../../../../../Middlewares/Third_Party/LoRaWAN/Mac/region/RegionKR920.c ****         // Apply the alternative RX 1 window frequency, if it is available
 562:../../../../../../Middlewares/Third_Party/LoRaWAN/Mac/region/RegionKR920.c ****         if( NvmCtx.Channels[rxConfig->Channel].Rx1Frequency != 0 )
 563:../../../../../../Middlewares/Third_Party/LoRaWAN/Mac/region/RegionKR920.c ****         {
 564:../../../../../../Middlewares/Third_Party/LoRaWAN/Mac/region/RegionKR920.c ****             frequency = NvmCtx.Channels[rxConfig->Channel].Rx1Frequency;
 565:../../../../../../Middlewares/Third_Party/LoRaWAN/Mac/region/RegionKR920.c ****         }
 566:../../../../../../Middlewares/Third_Party/LoRaWAN/Mac/region/RegionKR920.c ****     }
 567:../../../../../../Middlewares/Third_Party/LoRaWAN/Mac/region/RegionKR920.c **** 
 568:../../../../../../Middlewares/Third_Party/LoRaWAN/Mac/region/RegionKR920.c ****     // Read the physical datarate from the datarates table
 569:../../../../../../Middlewares/Third_Party/LoRaWAN/Mac/region/RegionKR920.c ****     phyDr = DataratesKR920[dr];
 570:../../../../../../Middlewares/Third_Party/LoRaWAN/Mac/region/RegionKR920.c **** 
 571:../../../../../../Middlewares/Third_Party/LoRaWAN/Mac/region/RegionKR920.c ****     Radio.SetChannel( frequency );
 572:../../../../../../Middlewares/Third_Party/LoRaWAN/Mac/region/RegionKR920.c **** 
 573:../../../../../../Middlewares/Third_Party/LoRaWAN/Mac/region/RegionKR920.c ****     // Radio configuration
 574:../../../../../../Middlewares/Third_Party/LoRaWAN/Mac/region/RegionKR920.c ****     Radio.SetRxConfig( MODEM_LORA, rxConfig->Bandwidth, phyDr, 1, 0, 8, rxConfig->WindowTimeout, fa
 575:../../../../../../Middlewares/Third_Party/LoRaWAN/Mac/region/RegionKR920.c ****     maxPayload = MaxPayloadOfDatarateKR920[dr];
 576:../../../../../../Middlewares/Third_Party/LoRaWAN/Mac/region/RegionKR920.c ****     Radio.SetMaxPayloadLength( MODEM_LORA, maxPayload + LORA_MAC_FRMPAYLOAD_OVERHEAD );
 577:../../../../../../Middlewares/Third_Party/LoRaWAN/Mac/region/RegionKR920.c ****     TVL1( PRINTF( "RX on freq %d Hz at DR %d\n\r", frequency, dr );)
 578:../../../../../../Middlewares/Third_Party/LoRaWAN/Mac/region/RegionKR920.c **** 
 579:../../../../../../Middlewares/Third_Party/LoRaWAN/Mac/region/RegionKR920.c ****     *datarate = (uint8_t) dr;
 580:../../../../../../Middlewares/Third_Party/LoRaWAN/Mac/region/RegionKR920.c ****     return true;
 581:../../../../../../Middlewares/Third_Party/LoRaWAN/Mac/region/RegionKR920.c **** }
 582:../../../../../../Middlewares/Third_Party/LoRaWAN/Mac/region/RegionKR920.c **** 
 583:../../../../../../Middlewares/Third_Party/LoRaWAN/Mac/region/RegionKR920.c **** bool RegionKR920TxConfig( TxConfigParams_t* txConfig, int8_t* txPower, TimerTime_t* txTimeOnAir )
 584:../../../../../../Middlewares/Third_Party/LoRaWAN/Mac/region/RegionKR920.c **** {
 585:../../../../../../Middlewares/Third_Party/LoRaWAN/Mac/region/RegionKR920.c ****     int8_t phyDr = DataratesKR920[txConfig->Datarate];
 586:../../../../../../Middlewares/Third_Party/LoRaWAN/Mac/region/RegionKR920.c ****     int8_t txPowerLimited = LimitTxPower( txConfig->TxPower, NvmCtx.Bands[NvmCtx.Channels[txConfig-
 587:../../../../../../Middlewares/Third_Party/LoRaWAN/Mac/region/RegionKR920.c ****     uint32_t bandwidth = GetBandwidth( txConfig->Datarate );
 588:../../../../../../Middlewares/Third_Party/LoRaWAN/Mac/region/RegionKR920.c ****     float maxEIRP = GetMaxEIRP( NvmCtx.Channels[txConfig->Channel].Frequency );
 589:../../../../../../Middlewares/Third_Party/LoRaWAN/Mac/region/RegionKR920.c ****     int8_t phyTxPower = 0;
 590:../../../../../../Middlewares/Third_Party/LoRaWAN/Mac/region/RegionKR920.c **** 
 591:../../../../../../Middlewares/Third_Party/LoRaWAN/Mac/region/RegionKR920.c ****     // Take the minimum between the maxEIRP and txConfig->MaxEirp.
 592:../../../../../../Middlewares/Third_Party/LoRaWAN/Mac/region/RegionKR920.c ****     // The value of txConfig->MaxEirp could have changed during runtime, e.g. due to a MAC command.
 593:../../../../../../Middlewares/Third_Party/LoRaWAN/Mac/region/RegionKR920.c ****     maxEIRP = MIN( txConfig->MaxEirp, maxEIRP );
 594:../../../../../../Middlewares/Third_Party/LoRaWAN/Mac/region/RegionKR920.c **** 
 595:../../../../../../Middlewares/Third_Party/LoRaWAN/Mac/region/RegionKR920.c ****     // Calculate physical TX power
 596:../../../../../../Middlewares/Third_Party/LoRaWAN/Mac/region/RegionKR920.c ****     phyTxPower = RegionCommonComputeTxPower( txPowerLimited, maxEIRP, txConfig->AntennaGain );
ARM GAS  C:\Users\EBANO_~1\AppData\Local\Temp\ccLo4wHn.s 			page 24


 597:../../../../../../Middlewares/Third_Party/LoRaWAN/Mac/region/RegionKR920.c **** 
 598:../../../../../../Middlewares/Third_Party/LoRaWAN/Mac/region/RegionKR920.c ****     // Setup the radio frequency
 599:../../../../../../Middlewares/Third_Party/LoRaWAN/Mac/region/RegionKR920.c ****     Radio.SetChannel( NvmCtx.Channels[txConfig->Channel].Frequency );
 600:../../../../../../Middlewares/Third_Party/LoRaWAN/Mac/region/RegionKR920.c **** 
 601:../../../../../../Middlewares/Third_Party/LoRaWAN/Mac/region/RegionKR920.c ****     Radio.SetTxConfig( MODEM_LORA, phyTxPower, 0, bandwidth, phyDr, 1, 8, false, true, 0, 0, false,
 602:../../../../../../Middlewares/Third_Party/LoRaWAN/Mac/region/RegionKR920.c ****     TVL1( PRINTF( "TX on freq %d Hz at DR %d\n\r", NvmCtx.Channels[txConfig->Channel].Frequency, tx
 603:../../../../../../Middlewares/Third_Party/LoRaWAN/Mac/region/RegionKR920.c **** 
 604:../../../../../../Middlewares/Third_Party/LoRaWAN/Mac/region/RegionKR920.c ****     // Setup maximum payload lenght of the radio driver
 605:../../../../../../Middlewares/Third_Party/LoRaWAN/Mac/region/RegionKR920.c ****     Radio.SetMaxPayloadLength( MODEM_LORA, txConfig->PktLen );
 606:../../../../../../Middlewares/Third_Party/LoRaWAN/Mac/region/RegionKR920.c ****     // Get the time-on-air of the next tx frame
 607:../../../../../../Middlewares/Third_Party/LoRaWAN/Mac/region/RegionKR920.c ****     *txTimeOnAir = Radio.TimeOnAir( MODEM_LORA, txConfig->PktLen );
 608:../../../../../../Middlewares/Third_Party/LoRaWAN/Mac/region/RegionKR920.c **** 
 609:../../../../../../Middlewares/Third_Party/LoRaWAN/Mac/region/RegionKR920.c ****     *txPower = txPowerLimited;
 610:../../../../../../Middlewares/Third_Party/LoRaWAN/Mac/region/RegionKR920.c ****     return true;
 611:../../../../../../Middlewares/Third_Party/LoRaWAN/Mac/region/RegionKR920.c **** }
 612:../../../../../../Middlewares/Third_Party/LoRaWAN/Mac/region/RegionKR920.c **** 
 613:../../../../../../Middlewares/Third_Party/LoRaWAN/Mac/region/RegionKR920.c **** uint8_t RegionKR920LinkAdrReq( LinkAdrReqParams_t* linkAdrReq, int8_t* drOut, int8_t* txPowOut, uin
 614:../../../../../../Middlewares/Third_Party/LoRaWAN/Mac/region/RegionKR920.c **** {
 615:../../../../../../Middlewares/Third_Party/LoRaWAN/Mac/region/RegionKR920.c ****     uint8_t status = 0x07;
 616:../../../../../../Middlewares/Third_Party/LoRaWAN/Mac/region/RegionKR920.c ****     RegionCommonLinkAdrParams_t linkAdrParams;
 617:../../../../../../Middlewares/Third_Party/LoRaWAN/Mac/region/RegionKR920.c ****     uint8_t nextIndex = 0;
 618:../../../../../../Middlewares/Third_Party/LoRaWAN/Mac/region/RegionKR920.c ****     uint8_t bytesProcessed = 0;
 619:../../../../../../Middlewares/Third_Party/LoRaWAN/Mac/region/RegionKR920.c ****     uint16_t chMask = 0;
 620:../../../../../../Middlewares/Third_Party/LoRaWAN/Mac/region/RegionKR920.c ****     GetPhyParams_t getPhy;
 621:../../../../../../Middlewares/Third_Party/LoRaWAN/Mac/region/RegionKR920.c ****     PhyParam_t phyParam;
 622:../../../../../../Middlewares/Third_Party/LoRaWAN/Mac/region/RegionKR920.c ****     RegionCommonLinkAdrReqVerifyParams_t linkAdrVerifyParams;
 623:../../../../../../Middlewares/Third_Party/LoRaWAN/Mac/region/RegionKR920.c **** 
 624:../../../../../../Middlewares/Third_Party/LoRaWAN/Mac/region/RegionKR920.c ****     while( bytesProcessed < linkAdrReq->PayloadSize )
 625:../../../../../../Middlewares/Third_Party/LoRaWAN/Mac/region/RegionKR920.c ****     {
 626:../../../../../../Middlewares/Third_Party/LoRaWAN/Mac/region/RegionKR920.c ****         // Get ADR request parameters
 627:../../../../../../Middlewares/Third_Party/LoRaWAN/Mac/region/RegionKR920.c ****         nextIndex = RegionCommonParseLinkAdrReq( &( linkAdrReq->Payload[bytesProcessed] ), &linkAdr
 628:../../../../../../Middlewares/Third_Party/LoRaWAN/Mac/region/RegionKR920.c **** 
 629:../../../../../../Middlewares/Third_Party/LoRaWAN/Mac/region/RegionKR920.c ****         if( nextIndex == 0 )
 630:../../../../../../Middlewares/Third_Party/LoRaWAN/Mac/region/RegionKR920.c ****             break; // break loop, since no more request has been found
 631:../../../../../../Middlewares/Third_Party/LoRaWAN/Mac/region/RegionKR920.c **** 
 632:../../../../../../Middlewares/Third_Party/LoRaWAN/Mac/region/RegionKR920.c ****         // Update bytes processed
 633:../../../../../../Middlewares/Third_Party/LoRaWAN/Mac/region/RegionKR920.c ****         bytesProcessed += nextIndex;
 634:../../../../../../Middlewares/Third_Party/LoRaWAN/Mac/region/RegionKR920.c **** 
 635:../../../../../../Middlewares/Third_Party/LoRaWAN/Mac/region/RegionKR920.c ****         // Revert status, as we only check the last ADR request for the channel mask KO
 636:../../../../../../Middlewares/Third_Party/LoRaWAN/Mac/region/RegionKR920.c ****         status = 0x07;
 637:../../../../../../Middlewares/Third_Party/LoRaWAN/Mac/region/RegionKR920.c **** 
 638:../../../../../../Middlewares/Third_Party/LoRaWAN/Mac/region/RegionKR920.c ****         // Setup temporary channels mask
 639:../../../../../../Middlewares/Third_Party/LoRaWAN/Mac/region/RegionKR920.c ****         chMask = linkAdrParams.ChMask;
 640:../../../../../../Middlewares/Third_Party/LoRaWAN/Mac/region/RegionKR920.c **** 
 641:../../../../../../Middlewares/Third_Party/LoRaWAN/Mac/region/RegionKR920.c ****         // Verify channels mask
 642:../../../../../../Middlewares/Third_Party/LoRaWAN/Mac/region/RegionKR920.c ****         if( ( linkAdrParams.ChMaskCtrl == 0 ) && ( chMask == 0 ) )
 643:../../../../../../Middlewares/Third_Party/LoRaWAN/Mac/region/RegionKR920.c ****         {
 644:../../../../../../Middlewares/Third_Party/LoRaWAN/Mac/region/RegionKR920.c ****             status &= 0xFE; // Channel mask KO
 645:../../../../../../Middlewares/Third_Party/LoRaWAN/Mac/region/RegionKR920.c ****         }
 646:../../../../../../Middlewares/Third_Party/LoRaWAN/Mac/region/RegionKR920.c ****         else if( ( ( linkAdrParams.ChMaskCtrl >= 1 ) && ( linkAdrParams.ChMaskCtrl <= 5 )) ||
 647:../../../../../../Middlewares/Third_Party/LoRaWAN/Mac/region/RegionKR920.c ****                 ( linkAdrParams.ChMaskCtrl >= 7 ) )
 648:../../../../../../Middlewares/Third_Party/LoRaWAN/Mac/region/RegionKR920.c ****         {
 649:../../../../../../Middlewares/Third_Party/LoRaWAN/Mac/region/RegionKR920.c ****             // RFU
 650:../../../../../../Middlewares/Third_Party/LoRaWAN/Mac/region/RegionKR920.c ****             status &= 0xFE; // Channel mask KO
 651:../../../../../../Middlewares/Third_Party/LoRaWAN/Mac/region/RegionKR920.c ****         }
 652:../../../../../../Middlewares/Third_Party/LoRaWAN/Mac/region/RegionKR920.c ****         else
 653:../../../../../../Middlewares/Third_Party/LoRaWAN/Mac/region/RegionKR920.c ****         {
ARM GAS  C:\Users\EBANO_~1\AppData\Local\Temp\ccLo4wHn.s 			page 25


 654:../../../../../../Middlewares/Third_Party/LoRaWAN/Mac/region/RegionKR920.c ****             for( uint8_t i = 0; i < KR920_MAX_NB_CHANNELS; i++ )
 655:../../../../../../Middlewares/Third_Party/LoRaWAN/Mac/region/RegionKR920.c ****             {
 656:../../../../../../Middlewares/Third_Party/LoRaWAN/Mac/region/RegionKR920.c ****                 if( linkAdrParams.ChMaskCtrl == 6 )
 657:../../../../../../Middlewares/Third_Party/LoRaWAN/Mac/region/RegionKR920.c ****                 {
 658:../../../../../../Middlewares/Third_Party/LoRaWAN/Mac/region/RegionKR920.c ****                     if( NvmCtx.Channels[i].Frequency != 0 )
 659:../../../../../../Middlewares/Third_Party/LoRaWAN/Mac/region/RegionKR920.c ****                     {
 660:../../../../../../Middlewares/Third_Party/LoRaWAN/Mac/region/RegionKR920.c ****                         chMask |= 1 << i;
 661:../../../../../../Middlewares/Third_Party/LoRaWAN/Mac/region/RegionKR920.c ****                     }
 662:../../../../../../Middlewares/Third_Party/LoRaWAN/Mac/region/RegionKR920.c ****                 }
 663:../../../../../../Middlewares/Third_Party/LoRaWAN/Mac/region/RegionKR920.c ****                 else
 664:../../../../../../Middlewares/Third_Party/LoRaWAN/Mac/region/RegionKR920.c ****                 {
 665:../../../../../../Middlewares/Third_Party/LoRaWAN/Mac/region/RegionKR920.c ****                     if( ( ( chMask & ( 1 << i ) ) != 0 ) &&
 666:../../../../../../Middlewares/Third_Party/LoRaWAN/Mac/region/RegionKR920.c ****                         ( NvmCtx.Channels[i].Frequency == 0 ) )
 667:../../../../../../Middlewares/Third_Party/LoRaWAN/Mac/region/RegionKR920.c ****                     {// Trying to enable an undefined channel
 668:../../../../../../Middlewares/Third_Party/LoRaWAN/Mac/region/RegionKR920.c ****                         status &= 0xFE; // Channel mask KO
 669:../../../../../../Middlewares/Third_Party/LoRaWAN/Mac/region/RegionKR920.c ****                     }
 670:../../../../../../Middlewares/Third_Party/LoRaWAN/Mac/region/RegionKR920.c ****                 }
 671:../../../../../../Middlewares/Third_Party/LoRaWAN/Mac/region/RegionKR920.c ****             }
 672:../../../../../../Middlewares/Third_Party/LoRaWAN/Mac/region/RegionKR920.c ****         }
 673:../../../../../../Middlewares/Third_Party/LoRaWAN/Mac/region/RegionKR920.c ****     }
 674:../../../../../../Middlewares/Third_Party/LoRaWAN/Mac/region/RegionKR920.c **** 
 675:../../../../../../Middlewares/Third_Party/LoRaWAN/Mac/region/RegionKR920.c ****     // Get the minimum possible datarate
 676:../../../../../../Middlewares/Third_Party/LoRaWAN/Mac/region/RegionKR920.c ****     getPhy.Attribute = PHY_MIN_TX_DR;
 677:../../../../../../Middlewares/Third_Party/LoRaWAN/Mac/region/RegionKR920.c ****     getPhy.UplinkDwellTime = linkAdrReq->UplinkDwellTime;
 678:../../../../../../Middlewares/Third_Party/LoRaWAN/Mac/region/RegionKR920.c ****     phyParam = RegionKR920GetPhyParam( &getPhy );
 679:../../../../../../Middlewares/Third_Party/LoRaWAN/Mac/region/RegionKR920.c **** 
 680:../../../../../../Middlewares/Third_Party/LoRaWAN/Mac/region/RegionKR920.c ****     linkAdrVerifyParams.Status = status;
 681:../../../../../../Middlewares/Third_Party/LoRaWAN/Mac/region/RegionKR920.c ****     linkAdrVerifyParams.AdrEnabled = linkAdrReq->AdrEnabled;
 682:../../../../../../Middlewares/Third_Party/LoRaWAN/Mac/region/RegionKR920.c ****     linkAdrVerifyParams.Datarate = linkAdrParams.Datarate;
 683:../../../../../../Middlewares/Third_Party/LoRaWAN/Mac/region/RegionKR920.c ****     linkAdrVerifyParams.TxPower = linkAdrParams.TxPower;
 684:../../../../../../Middlewares/Third_Party/LoRaWAN/Mac/region/RegionKR920.c ****     linkAdrVerifyParams.NbRep = linkAdrParams.NbRep;
 685:../../../../../../Middlewares/Third_Party/LoRaWAN/Mac/region/RegionKR920.c ****     linkAdrVerifyParams.CurrentDatarate = linkAdrReq->CurrentDatarate;
 686:../../../../../../Middlewares/Third_Party/LoRaWAN/Mac/region/RegionKR920.c ****     linkAdrVerifyParams.CurrentTxPower = linkAdrReq->CurrentTxPower;
 687:../../../../../../Middlewares/Third_Party/LoRaWAN/Mac/region/RegionKR920.c ****     linkAdrVerifyParams.CurrentNbRep = linkAdrReq->CurrentNbRep;
 688:../../../../../../Middlewares/Third_Party/LoRaWAN/Mac/region/RegionKR920.c ****     linkAdrVerifyParams.NbChannels = KR920_MAX_NB_CHANNELS;
 689:../../../../../../Middlewares/Third_Party/LoRaWAN/Mac/region/RegionKR920.c ****     linkAdrVerifyParams.ChannelsMask = &chMask;
 690:../../../../../../Middlewares/Third_Party/LoRaWAN/Mac/region/RegionKR920.c ****     linkAdrVerifyParams.MinDatarate = ( int8_t )phyParam.Value;
 691:../../../../../../Middlewares/Third_Party/LoRaWAN/Mac/region/RegionKR920.c ****     linkAdrVerifyParams.MaxDatarate = KR920_TX_MAX_DATARATE;
 692:../../../../../../Middlewares/Third_Party/LoRaWAN/Mac/region/RegionKR920.c ****     linkAdrVerifyParams.Channels = NvmCtx.Channels;
 693:../../../../../../Middlewares/Third_Party/LoRaWAN/Mac/region/RegionKR920.c ****     linkAdrVerifyParams.MinTxPower = KR920_MIN_TX_POWER;
 694:../../../../../../Middlewares/Third_Party/LoRaWAN/Mac/region/RegionKR920.c ****     linkAdrVerifyParams.MaxTxPower = KR920_MAX_TX_POWER;
 695:../../../../../../Middlewares/Third_Party/LoRaWAN/Mac/region/RegionKR920.c ****     linkAdrVerifyParams.Version = linkAdrReq->Version;
 696:../../../../../../Middlewares/Third_Party/LoRaWAN/Mac/region/RegionKR920.c **** 
 697:../../../../../../Middlewares/Third_Party/LoRaWAN/Mac/region/RegionKR920.c ****     // Verify the parameters and update, if necessary
 698:../../../../../../Middlewares/Third_Party/LoRaWAN/Mac/region/RegionKR920.c ****     status = RegionCommonLinkAdrReqVerifyParams( &linkAdrVerifyParams, &linkAdrParams.Datarate, &li
 699:../../../../../../Middlewares/Third_Party/LoRaWAN/Mac/region/RegionKR920.c **** 
 700:../../../../../../Middlewares/Third_Party/LoRaWAN/Mac/region/RegionKR920.c ****     // Update channelsMask if everything is correct
 701:../../../../../../Middlewares/Third_Party/LoRaWAN/Mac/region/RegionKR920.c ****     if( status == 0x07 )
 702:../../../../../../Middlewares/Third_Party/LoRaWAN/Mac/region/RegionKR920.c ****     {
 703:../../../../../../Middlewares/Third_Party/LoRaWAN/Mac/region/RegionKR920.c ****         // Set the channels mask to a default value
 704:../../../../../../Middlewares/Third_Party/LoRaWAN/Mac/region/RegionKR920.c ****         memset1( ( uint8_t* ) NvmCtx.ChannelsMask, 0, sizeof( NvmCtx.ChannelsMask ) );
 705:../../../../../../Middlewares/Third_Party/LoRaWAN/Mac/region/RegionKR920.c ****         // Update the channels mask
 706:../../../../../../Middlewares/Third_Party/LoRaWAN/Mac/region/RegionKR920.c ****         NvmCtx.ChannelsMask[0] = chMask;
 707:../../../../../../Middlewares/Third_Party/LoRaWAN/Mac/region/RegionKR920.c ****     }
 708:../../../../../../Middlewares/Third_Party/LoRaWAN/Mac/region/RegionKR920.c **** 
 709:../../../../../../Middlewares/Third_Party/LoRaWAN/Mac/region/RegionKR920.c ****     // Update status variables
 710:../../../../../../Middlewares/Third_Party/LoRaWAN/Mac/region/RegionKR920.c ****     *drOut = linkAdrParams.Datarate;
ARM GAS  C:\Users\EBANO_~1\AppData\Local\Temp\ccLo4wHn.s 			page 26


 711:../../../../../../Middlewares/Third_Party/LoRaWAN/Mac/region/RegionKR920.c ****     *txPowOut = linkAdrParams.TxPower;
 712:../../../../../../Middlewares/Third_Party/LoRaWAN/Mac/region/RegionKR920.c ****     *nbRepOut = linkAdrParams.NbRep;
 713:../../../../../../Middlewares/Third_Party/LoRaWAN/Mac/region/RegionKR920.c ****     *nbBytesParsed = bytesProcessed;
 714:../../../../../../Middlewares/Third_Party/LoRaWAN/Mac/region/RegionKR920.c **** 
 715:../../../../../../Middlewares/Third_Party/LoRaWAN/Mac/region/RegionKR920.c ****     return status;
 716:../../../../../../Middlewares/Third_Party/LoRaWAN/Mac/region/RegionKR920.c **** }
 717:../../../../../../Middlewares/Third_Party/LoRaWAN/Mac/region/RegionKR920.c **** 
 718:../../../../../../Middlewares/Third_Party/LoRaWAN/Mac/region/RegionKR920.c **** uint8_t RegionKR920RxParamSetupReq( RxParamSetupReqParams_t* rxParamSetupReq )
 719:../../../../../../Middlewares/Third_Party/LoRaWAN/Mac/region/RegionKR920.c **** {
 720:../../../../../../Middlewares/Third_Party/LoRaWAN/Mac/region/RegionKR920.c ****     uint8_t status = 0x07;
 721:../../../../../../Middlewares/Third_Party/LoRaWAN/Mac/region/RegionKR920.c **** 
 722:../../../../../../Middlewares/Third_Party/LoRaWAN/Mac/region/RegionKR920.c ****     // Verify radio frequency
 723:../../../../../../Middlewares/Third_Party/LoRaWAN/Mac/region/RegionKR920.c ****     if( VerifyRfFreq( rxParamSetupReq->Frequency ) == false )
 724:../../../../../../Middlewares/Third_Party/LoRaWAN/Mac/region/RegionKR920.c ****     {
 725:../../../../../../Middlewares/Third_Party/LoRaWAN/Mac/region/RegionKR920.c ****         status &= 0xFE; // Channel frequency KO
 726:../../../../../../Middlewares/Third_Party/LoRaWAN/Mac/region/RegionKR920.c ****     }
 727:../../../../../../Middlewares/Third_Party/LoRaWAN/Mac/region/RegionKR920.c **** 
 728:../../../../../../Middlewares/Third_Party/LoRaWAN/Mac/region/RegionKR920.c ****     // Verify datarate
 729:../../../../../../Middlewares/Third_Party/LoRaWAN/Mac/region/RegionKR920.c ****     if( RegionCommonValueInRange( rxParamSetupReq->Datarate, KR920_RX_MIN_DATARATE, KR920_RX_MAX_DA
 730:../../../../../../Middlewares/Third_Party/LoRaWAN/Mac/region/RegionKR920.c ****     {
 731:../../../../../../Middlewares/Third_Party/LoRaWAN/Mac/region/RegionKR920.c ****         status &= 0xFD; // Datarate KO
 732:../../../../../../Middlewares/Third_Party/LoRaWAN/Mac/region/RegionKR920.c ****     }
 733:../../../../../../Middlewares/Third_Party/LoRaWAN/Mac/region/RegionKR920.c **** 
 734:../../../../../../Middlewares/Third_Party/LoRaWAN/Mac/region/RegionKR920.c ****     // Verify datarate offset
 735:../../../../../../Middlewares/Third_Party/LoRaWAN/Mac/region/RegionKR920.c ****     if( RegionCommonValueInRange( rxParamSetupReq->DrOffset, KR920_MIN_RX1_DR_OFFSET, KR920_MAX_RX1
 736:../../../../../../Middlewares/Third_Party/LoRaWAN/Mac/region/RegionKR920.c ****     {
 737:../../../../../../Middlewares/Third_Party/LoRaWAN/Mac/region/RegionKR920.c ****         status &= 0xFB; // Rx1DrOffset range KO
 738:../../../../../../Middlewares/Third_Party/LoRaWAN/Mac/region/RegionKR920.c ****     }
 739:../../../../../../Middlewares/Third_Party/LoRaWAN/Mac/region/RegionKR920.c **** 
 740:../../../../../../Middlewares/Third_Party/LoRaWAN/Mac/region/RegionKR920.c ****     return status;
 741:../../../../../../Middlewares/Third_Party/LoRaWAN/Mac/region/RegionKR920.c **** }
 742:../../../../../../Middlewares/Third_Party/LoRaWAN/Mac/region/RegionKR920.c **** 
 743:../../../../../../Middlewares/Third_Party/LoRaWAN/Mac/region/RegionKR920.c **** uint8_t RegionKR920NewChannelReq( NewChannelReqParams_t* newChannelReq )
 744:../../../../../../Middlewares/Third_Party/LoRaWAN/Mac/region/RegionKR920.c **** {
 745:../../../../../../Middlewares/Third_Party/LoRaWAN/Mac/region/RegionKR920.c ****     uint8_t status = 0x03;
 746:../../../../../../Middlewares/Third_Party/LoRaWAN/Mac/region/RegionKR920.c ****     ChannelAddParams_t channelAdd;
 747:../../../../../../Middlewares/Third_Party/LoRaWAN/Mac/region/RegionKR920.c ****     ChannelRemoveParams_t channelRemove;
 748:../../../../../../Middlewares/Third_Party/LoRaWAN/Mac/region/RegionKR920.c **** 
 749:../../../../../../Middlewares/Third_Party/LoRaWAN/Mac/region/RegionKR920.c ****     if( newChannelReq->NewChannel->Frequency == 0 )
 750:../../../../../../Middlewares/Third_Party/LoRaWAN/Mac/region/RegionKR920.c ****     {
 751:../../../../../../Middlewares/Third_Party/LoRaWAN/Mac/region/RegionKR920.c ****         channelRemove.ChannelId = newChannelReq->ChannelId;
 752:../../../../../../Middlewares/Third_Party/LoRaWAN/Mac/region/RegionKR920.c **** 
 753:../../../../../../Middlewares/Third_Party/LoRaWAN/Mac/region/RegionKR920.c ****         // Remove
 754:../../../../../../Middlewares/Third_Party/LoRaWAN/Mac/region/RegionKR920.c ****         if( RegionKR920ChannelsRemove( &channelRemove ) == false )
 755:../../../../../../Middlewares/Third_Party/LoRaWAN/Mac/region/RegionKR920.c ****         {
 756:../../../../../../Middlewares/Third_Party/LoRaWAN/Mac/region/RegionKR920.c ****             status &= 0xFC;
 757:../../../../../../Middlewares/Third_Party/LoRaWAN/Mac/region/RegionKR920.c ****         }
 758:../../../../../../Middlewares/Third_Party/LoRaWAN/Mac/region/RegionKR920.c ****     }
 759:../../../../../../Middlewares/Third_Party/LoRaWAN/Mac/region/RegionKR920.c ****     else
 760:../../../../../../Middlewares/Third_Party/LoRaWAN/Mac/region/RegionKR920.c ****     {
 761:../../../../../../Middlewares/Third_Party/LoRaWAN/Mac/region/RegionKR920.c ****         channelAdd.NewChannel = newChannelReq->NewChannel;
 762:../../../../../../Middlewares/Third_Party/LoRaWAN/Mac/region/RegionKR920.c ****         channelAdd.ChannelId = newChannelReq->ChannelId;
 763:../../../../../../Middlewares/Third_Party/LoRaWAN/Mac/region/RegionKR920.c **** 
 764:../../../../../../Middlewares/Third_Party/LoRaWAN/Mac/region/RegionKR920.c ****         switch( RegionKR920ChannelAdd( &channelAdd ) )
 765:../../../../../../Middlewares/Third_Party/LoRaWAN/Mac/region/RegionKR920.c ****         {
 766:../../../../../../Middlewares/Third_Party/LoRaWAN/Mac/region/RegionKR920.c ****             case LORAMAC_STATUS_OK:
 767:../../../../../../Middlewares/Third_Party/LoRaWAN/Mac/region/RegionKR920.c ****             {
ARM GAS  C:\Users\EBANO_~1\AppData\Local\Temp\ccLo4wHn.s 			page 27


 768:../../../../../../Middlewares/Third_Party/LoRaWAN/Mac/region/RegionKR920.c ****                 break;
 769:../../../../../../Middlewares/Third_Party/LoRaWAN/Mac/region/RegionKR920.c ****             }
 770:../../../../../../Middlewares/Third_Party/LoRaWAN/Mac/region/RegionKR920.c ****             case LORAMAC_STATUS_FREQUENCY_INVALID:
 771:../../../../../../Middlewares/Third_Party/LoRaWAN/Mac/region/RegionKR920.c ****             {
 772:../../../../../../Middlewares/Third_Party/LoRaWAN/Mac/region/RegionKR920.c ****                 status &= 0xFE;
 773:../../../../../../Middlewares/Third_Party/LoRaWAN/Mac/region/RegionKR920.c ****                 break;
 774:../../../../../../Middlewares/Third_Party/LoRaWAN/Mac/region/RegionKR920.c ****             }
 775:../../../../../../Middlewares/Third_Party/LoRaWAN/Mac/region/RegionKR920.c ****             case LORAMAC_STATUS_DATARATE_INVALID:
 776:../../../../../../Middlewares/Third_Party/LoRaWAN/Mac/region/RegionKR920.c ****             {
 777:../../../../../../Middlewares/Third_Party/LoRaWAN/Mac/region/RegionKR920.c ****                 status &= 0xFD;
 778:../../../../../../Middlewares/Third_Party/LoRaWAN/Mac/region/RegionKR920.c ****                 break;
 779:../../../../../../Middlewares/Third_Party/LoRaWAN/Mac/region/RegionKR920.c ****             }
 780:../../../../../../Middlewares/Third_Party/LoRaWAN/Mac/region/RegionKR920.c ****             case LORAMAC_STATUS_FREQ_AND_DR_INVALID:
 781:../../../../../../Middlewares/Third_Party/LoRaWAN/Mac/region/RegionKR920.c ****             {
 782:../../../../../../Middlewares/Third_Party/LoRaWAN/Mac/region/RegionKR920.c ****                 status &= 0xFC;
 783:../../../../../../Middlewares/Third_Party/LoRaWAN/Mac/region/RegionKR920.c ****                 break;
 784:../../../../../../Middlewares/Third_Party/LoRaWAN/Mac/region/RegionKR920.c ****             }
 785:../../../../../../Middlewares/Third_Party/LoRaWAN/Mac/region/RegionKR920.c ****             default:
 786:../../../../../../Middlewares/Third_Party/LoRaWAN/Mac/region/RegionKR920.c ****             {
 787:../../../../../../Middlewares/Third_Party/LoRaWAN/Mac/region/RegionKR920.c ****                 status &= 0xFC;
 788:../../../../../../Middlewares/Third_Party/LoRaWAN/Mac/region/RegionKR920.c ****                 break;
 789:../../../../../../Middlewares/Third_Party/LoRaWAN/Mac/region/RegionKR920.c ****             }
 790:../../../../../../Middlewares/Third_Party/LoRaWAN/Mac/region/RegionKR920.c ****         }
 791:../../../../../../Middlewares/Third_Party/LoRaWAN/Mac/region/RegionKR920.c ****     }
 792:../../../../../../Middlewares/Third_Party/LoRaWAN/Mac/region/RegionKR920.c **** 
 793:../../../../../../Middlewares/Third_Party/LoRaWAN/Mac/region/RegionKR920.c ****     return status;
 794:../../../../../../Middlewares/Third_Party/LoRaWAN/Mac/region/RegionKR920.c **** }
 795:../../../../../../Middlewares/Third_Party/LoRaWAN/Mac/region/RegionKR920.c **** 
 796:../../../../../../Middlewares/Third_Party/LoRaWAN/Mac/region/RegionKR920.c **** int8_t RegionKR920TxParamSetupReq( TxParamSetupReqParams_t* txParamSetupReq )
 797:../../../../../../Middlewares/Third_Party/LoRaWAN/Mac/region/RegionKR920.c **** {
 798:../../../../../../Middlewares/Third_Party/LoRaWAN/Mac/region/RegionKR920.c ****     return -1;
 799:../../../../../../Middlewares/Third_Party/LoRaWAN/Mac/region/RegionKR920.c **** }
 800:../../../../../../Middlewares/Third_Party/LoRaWAN/Mac/region/RegionKR920.c **** 
 801:../../../../../../Middlewares/Third_Party/LoRaWAN/Mac/region/RegionKR920.c **** uint8_t RegionKR920DlChannelReq( DlChannelReqParams_t* dlChannelReq )
 802:../../../../../../Middlewares/Third_Party/LoRaWAN/Mac/region/RegionKR920.c **** {
 803:../../../../../../Middlewares/Third_Party/LoRaWAN/Mac/region/RegionKR920.c ****     uint8_t status = 0x03;
 804:../../../../../../Middlewares/Third_Party/LoRaWAN/Mac/region/RegionKR920.c **** 
 805:../../../../../../Middlewares/Third_Party/LoRaWAN/Mac/region/RegionKR920.c ****     // Verify if the frequency is supported
 806:../../../../../../Middlewares/Third_Party/LoRaWAN/Mac/region/RegionKR920.c ****     if( VerifyRfFreq( dlChannelReq->Rx1Frequency ) == false )
 807:../../../../../../Middlewares/Third_Party/LoRaWAN/Mac/region/RegionKR920.c ****     {
 808:../../../../../../Middlewares/Third_Party/LoRaWAN/Mac/region/RegionKR920.c ****         status &= 0xFE;
 809:../../../../../../Middlewares/Third_Party/LoRaWAN/Mac/region/RegionKR920.c ****     }
 810:../../../../../../Middlewares/Third_Party/LoRaWAN/Mac/region/RegionKR920.c **** 
 811:../../../../../../Middlewares/Third_Party/LoRaWAN/Mac/region/RegionKR920.c ****     // Verify if an uplink frequency exists
 812:../../../../../../Middlewares/Third_Party/LoRaWAN/Mac/region/RegionKR920.c ****     if( NvmCtx.Channels[dlChannelReq->ChannelId].Frequency == 0 )
 813:../../../../../../Middlewares/Third_Party/LoRaWAN/Mac/region/RegionKR920.c ****     {
 814:../../../../../../Middlewares/Third_Party/LoRaWAN/Mac/region/RegionKR920.c ****         status &= 0xFD;
 815:../../../../../../Middlewares/Third_Party/LoRaWAN/Mac/region/RegionKR920.c ****     }
 816:../../../../../../Middlewares/Third_Party/LoRaWAN/Mac/region/RegionKR920.c **** 
 817:../../../../../../Middlewares/Third_Party/LoRaWAN/Mac/region/RegionKR920.c ****     // Apply Rx1 frequency, if the status is OK
 818:../../../../../../Middlewares/Third_Party/LoRaWAN/Mac/region/RegionKR920.c ****     if( status == 0x03 )
 819:../../../../../../Middlewares/Third_Party/LoRaWAN/Mac/region/RegionKR920.c ****     {
 820:../../../../../../Middlewares/Third_Party/LoRaWAN/Mac/region/RegionKR920.c ****         NvmCtx.Channels[dlChannelReq->ChannelId].Rx1Frequency = dlChannelReq->Rx1Frequency;
 821:../../../../../../Middlewares/Third_Party/LoRaWAN/Mac/region/RegionKR920.c ****     }
 822:../../../../../../Middlewares/Third_Party/LoRaWAN/Mac/region/RegionKR920.c **** 
 823:../../../../../../Middlewares/Third_Party/LoRaWAN/Mac/region/RegionKR920.c ****     return status;
 824:../../../../../../Middlewares/Third_Party/LoRaWAN/Mac/region/RegionKR920.c **** }
ARM GAS  C:\Users\EBANO_~1\AppData\Local\Temp\ccLo4wHn.s 			page 28


 825:../../../../../../Middlewares/Third_Party/LoRaWAN/Mac/region/RegionKR920.c **** 
 826:../../../../../../Middlewares/Third_Party/LoRaWAN/Mac/region/RegionKR920.c **** int8_t RegionKR920AlternateDr( int8_t currentDr, AlternateDrType_t type )
 827:../../../../../../Middlewares/Third_Party/LoRaWAN/Mac/region/RegionKR920.c **** {
 828:../../../../../../Middlewares/Third_Party/LoRaWAN/Mac/region/RegionKR920.c ****     return currentDr;
 829:../../../../../../Middlewares/Third_Party/LoRaWAN/Mac/region/RegionKR920.c **** }
 830:../../../../../../Middlewares/Third_Party/LoRaWAN/Mac/region/RegionKR920.c **** 
 831:../../../../../../Middlewares/Third_Party/LoRaWAN/Mac/region/RegionKR920.c **** void RegionKR920CalcBackOff( CalcBackOffParams_t* calcBackOff )
 832:../../../../../../Middlewares/Third_Party/LoRaWAN/Mac/region/RegionKR920.c **** {
 833:../../../../../../Middlewares/Third_Party/LoRaWAN/Mac/region/RegionKR920.c ****     RegionCommonCalcBackOffParams_t calcBackOffParams;
 834:../../../../../../Middlewares/Third_Party/LoRaWAN/Mac/region/RegionKR920.c **** 
 835:../../../../../../Middlewares/Third_Party/LoRaWAN/Mac/region/RegionKR920.c ****     calcBackOffParams.Channels = NvmCtx.Channels;
 836:../../../../../../Middlewares/Third_Party/LoRaWAN/Mac/region/RegionKR920.c ****     calcBackOffParams.Bands = NvmCtx.Bands;
 837:../../../../../../Middlewares/Third_Party/LoRaWAN/Mac/region/RegionKR920.c ****     calcBackOffParams.LastTxIsJoinRequest = calcBackOff->LastTxIsJoinRequest;
 838:../../../../../../Middlewares/Third_Party/LoRaWAN/Mac/region/RegionKR920.c ****     calcBackOffParams.Joined = calcBackOff->Joined;
 839:../../../../../../Middlewares/Third_Party/LoRaWAN/Mac/region/RegionKR920.c ****     calcBackOffParams.DutyCycleEnabled = calcBackOff->DutyCycleEnabled;
 840:../../../../../../Middlewares/Third_Party/LoRaWAN/Mac/region/RegionKR920.c ****     calcBackOffParams.Channel = calcBackOff->Channel;
 841:../../../../../../Middlewares/Third_Party/LoRaWAN/Mac/region/RegionKR920.c ****     calcBackOffParams.ElapsedTime = calcBackOff->ElapsedTime;
 842:../../../../../../Middlewares/Third_Party/LoRaWAN/Mac/region/RegionKR920.c ****     calcBackOffParams.TxTimeOnAir = calcBackOff->TxTimeOnAir;
 843:../../../../../../Middlewares/Third_Party/LoRaWAN/Mac/region/RegionKR920.c **** 
 844:../../../../../../Middlewares/Third_Party/LoRaWAN/Mac/region/RegionKR920.c ****     RegionCommonCalcBackOff( &calcBackOffParams );
 845:../../../../../../Middlewares/Third_Party/LoRaWAN/Mac/region/RegionKR920.c **** }
 846:../../../../../../Middlewares/Third_Party/LoRaWAN/Mac/region/RegionKR920.c **** 
 847:../../../../../../Middlewares/Third_Party/LoRaWAN/Mac/region/RegionKR920.c **** LoRaMacStatus_t RegionKR920NextChannel( NextChanParams_t* nextChanParams, uint8_t* channel, TimerTi
 848:../../../../../../Middlewares/Third_Party/LoRaWAN/Mac/region/RegionKR920.c **** {
 849:../../../../../../Middlewares/Third_Party/LoRaWAN/Mac/region/RegionKR920.c ****     uint8_t channelNext = 0;
 850:../../../../../../Middlewares/Third_Party/LoRaWAN/Mac/region/RegionKR920.c ****     uint8_t nbEnabledChannels = 0;
 851:../../../../../../Middlewares/Third_Party/LoRaWAN/Mac/region/RegionKR920.c ****     uint8_t delayTx = 0;
 852:../../../../../../Middlewares/Third_Party/LoRaWAN/Mac/region/RegionKR920.c ****     uint8_t enabledChannels[KR920_MAX_NB_CHANNELS] = { 0 };
 853:../../../../../../Middlewares/Third_Party/LoRaWAN/Mac/region/RegionKR920.c ****     TimerTime_t nextTxDelay = 0;
 854:../../../../../../Middlewares/Third_Party/LoRaWAN/Mac/region/RegionKR920.c **** 
 855:../../../../../../Middlewares/Third_Party/LoRaWAN/Mac/region/RegionKR920.c ****     if( RegionCommonCountChannels( NvmCtx.ChannelsMask, 0, 1 ) == 0 )
 856:../../../../../../Middlewares/Third_Party/LoRaWAN/Mac/region/RegionKR920.c ****     { // Reactivate default channels
 857:../../../../../../Middlewares/Third_Party/LoRaWAN/Mac/region/RegionKR920.c ****         NvmCtx.ChannelsMask[0] |= LC( 1 ) + LC( 2 ) + LC( 3 );
 858:../../../../../../Middlewares/Third_Party/LoRaWAN/Mac/region/RegionKR920.c ****     }
 859:../../../../../../Middlewares/Third_Party/LoRaWAN/Mac/region/RegionKR920.c **** 
 860:../../../../../../Middlewares/Third_Party/LoRaWAN/Mac/region/RegionKR920.c ****     if( nextChanParams->AggrTimeOff <= TimerGetElapsedTime( nextChanParams->LastAggrTx ) )
 861:../../../../../../Middlewares/Third_Party/LoRaWAN/Mac/region/RegionKR920.c ****     {
 862:../../../../../../Middlewares/Third_Party/LoRaWAN/Mac/region/RegionKR920.c ****         // Reset Aggregated time off
 863:../../../../../../Middlewares/Third_Party/LoRaWAN/Mac/region/RegionKR920.c ****         *aggregatedTimeOff = 0;
 864:../../../../../../Middlewares/Third_Party/LoRaWAN/Mac/region/RegionKR920.c **** 
 865:../../../../../../Middlewares/Third_Party/LoRaWAN/Mac/region/RegionKR920.c ****         // Update bands Time OFF
 866:../../../../../../Middlewares/Third_Party/LoRaWAN/Mac/region/RegionKR920.c ****         nextTxDelay = RegionCommonUpdateBandTimeOff( nextChanParams->Joined, nextChanParams->DutyCy
 867:../../../../../../Middlewares/Third_Party/LoRaWAN/Mac/region/RegionKR920.c **** 
 868:../../../../../../Middlewares/Third_Party/LoRaWAN/Mac/region/RegionKR920.c ****         // Search how many channels are enabled
 869:../../../../../../Middlewares/Third_Party/LoRaWAN/Mac/region/RegionKR920.c ****         nbEnabledChannels = CountNbOfEnabledChannels( nextChanParams->Joined, nextChanParams->Datar
 870:../../../../../../Middlewares/Third_Party/LoRaWAN/Mac/region/RegionKR920.c ****                                                       NvmCtx.ChannelsMask, NvmCtx.Channels,
 871:../../../../../../Middlewares/Third_Party/LoRaWAN/Mac/region/RegionKR920.c ****                                                       NvmCtx.Bands, enabledChannels, &delayTx );
 872:../../../../../../Middlewares/Third_Party/LoRaWAN/Mac/region/RegionKR920.c ****     }
 873:../../../../../../Middlewares/Third_Party/LoRaWAN/Mac/region/RegionKR920.c ****     else
 874:../../../../../../Middlewares/Third_Party/LoRaWAN/Mac/region/RegionKR920.c ****     {
 875:../../../../../../Middlewares/Third_Party/LoRaWAN/Mac/region/RegionKR920.c ****         delayTx++;
 876:../../../../../../Middlewares/Third_Party/LoRaWAN/Mac/region/RegionKR920.c ****         nextTxDelay = nextChanParams->AggrTimeOff - TimerGetElapsedTime( nextChanParams->LastAggrTx
 877:../../../../../../Middlewares/Third_Party/LoRaWAN/Mac/region/RegionKR920.c ****     }
 878:../../../../../../Middlewares/Third_Party/LoRaWAN/Mac/region/RegionKR920.c **** 
 879:../../../../../../Middlewares/Third_Party/LoRaWAN/Mac/region/RegionKR920.c ****     if( nbEnabledChannels > 0 )
 880:../../../../../../Middlewares/Third_Party/LoRaWAN/Mac/region/RegionKR920.c ****     {
 881:../../../../../../Middlewares/Third_Party/LoRaWAN/Mac/region/RegionKR920.c ****         for( uint8_t  i = 0, j = randr( 0, nbEnabledChannels - 1 ); i < KR920_MAX_NB_CHANNELS; i++ 
ARM GAS  C:\Users\EBANO_~1\AppData\Local\Temp\ccLo4wHn.s 			page 29


 882:../../../../../../Middlewares/Third_Party/LoRaWAN/Mac/region/RegionKR920.c ****         {
 883:../../../../../../Middlewares/Third_Party/LoRaWAN/Mac/region/RegionKR920.c ****             channelNext = enabledChannels[j];
 884:../../../../../../Middlewares/Third_Party/LoRaWAN/Mac/region/RegionKR920.c ****             j = ( j + 1 ) % nbEnabledChannels;
 885:../../../../../../Middlewares/Third_Party/LoRaWAN/Mac/region/RegionKR920.c **** 
 886:../../../../../../Middlewares/Third_Party/LoRaWAN/Mac/region/RegionKR920.c ****             // Perform carrier sense for KR920_CARRIER_SENSE_TIME
 887:../../../../../../Middlewares/Third_Party/LoRaWAN/Mac/region/RegionKR920.c ****             // If the channel is free, we can stop the LBT mechanism
 888:../../../../../../Middlewares/Third_Party/LoRaWAN/Mac/region/RegionKR920.c ****             if( Radio.IsChannelFree( MODEM_LORA, NvmCtx.Channels[channelNext].Frequency, KR920_RSSI
 889:../../../../../../Middlewares/Third_Party/LoRaWAN/Mac/region/RegionKR920.c ****             {
 890:../../../../../../Middlewares/Third_Party/LoRaWAN/Mac/region/RegionKR920.c ****                 // Free channel found
 891:../../../../../../Middlewares/Third_Party/LoRaWAN/Mac/region/RegionKR920.c ****                 *channel = channelNext;
 892:../../../../../../Middlewares/Third_Party/LoRaWAN/Mac/region/RegionKR920.c ****                 *time = 0;
 893:../../../../../../Middlewares/Third_Party/LoRaWAN/Mac/region/RegionKR920.c ****                 return LORAMAC_STATUS_OK;
 894:../../../../../../Middlewares/Third_Party/LoRaWAN/Mac/region/RegionKR920.c ****             }
 895:../../../../../../Middlewares/Third_Party/LoRaWAN/Mac/region/RegionKR920.c ****         }
 896:../../../../../../Middlewares/Third_Party/LoRaWAN/Mac/region/RegionKR920.c ****         return LORAMAC_STATUS_NO_FREE_CHANNEL_FOUND;
 897:../../../../../../Middlewares/Third_Party/LoRaWAN/Mac/region/RegionKR920.c ****     }
 898:../../../../../../Middlewares/Third_Party/LoRaWAN/Mac/region/RegionKR920.c ****     else
 899:../../../../../../Middlewares/Third_Party/LoRaWAN/Mac/region/RegionKR920.c ****     {
 900:../../../../../../Middlewares/Third_Party/LoRaWAN/Mac/region/RegionKR920.c ****         if( delayTx > 0 )
 901:../../../../../../Middlewares/Third_Party/LoRaWAN/Mac/region/RegionKR920.c ****         {
 902:../../../../../../Middlewares/Third_Party/LoRaWAN/Mac/region/RegionKR920.c ****             // Delay transmission due to AggregatedTimeOff or to a band time off
 903:../../../../../../Middlewares/Third_Party/LoRaWAN/Mac/region/RegionKR920.c ****             *time = nextTxDelay;
 904:../../../../../../Middlewares/Third_Party/LoRaWAN/Mac/region/RegionKR920.c ****             return LORAMAC_STATUS_DUTYCYCLE_RESTRICTED;
 905:../../../../../../Middlewares/Third_Party/LoRaWAN/Mac/region/RegionKR920.c ****         }
 906:../../../../../../Middlewares/Third_Party/LoRaWAN/Mac/region/RegionKR920.c ****         // Datarate not supported by any channel, restore defaults
 907:../../../../../../Middlewares/Third_Party/LoRaWAN/Mac/region/RegionKR920.c ****         NvmCtx.ChannelsMask[0] |= LC( 1 ) + LC( 2 ) + LC( 3 );
 908:../../../../../../Middlewares/Third_Party/LoRaWAN/Mac/region/RegionKR920.c ****         *time = 0;
 909:../../../../../../Middlewares/Third_Party/LoRaWAN/Mac/region/RegionKR920.c ****         return LORAMAC_STATUS_NO_CHANNEL_FOUND;
 910:../../../../../../Middlewares/Third_Party/LoRaWAN/Mac/region/RegionKR920.c ****     }
 911:../../../../../../Middlewares/Third_Party/LoRaWAN/Mac/region/RegionKR920.c **** }
 912:../../../../../../Middlewares/Third_Party/LoRaWAN/Mac/region/RegionKR920.c **** 
 913:../../../../../../Middlewares/Third_Party/LoRaWAN/Mac/region/RegionKR920.c **** LoRaMacStatus_t RegionKR920ChannelAdd( ChannelAddParams_t* channelAdd )
 914:../../../../../../Middlewares/Third_Party/LoRaWAN/Mac/region/RegionKR920.c **** {
 915:../../../../../../Middlewares/Third_Party/LoRaWAN/Mac/region/RegionKR920.c ****     bool drInvalid = false;
 916:../../../../../../Middlewares/Third_Party/LoRaWAN/Mac/region/RegionKR920.c ****     bool freqInvalid = false;
 917:../../../../../../Middlewares/Third_Party/LoRaWAN/Mac/region/RegionKR920.c ****     uint8_t id = channelAdd->ChannelId;
 918:../../../../../../Middlewares/Third_Party/LoRaWAN/Mac/region/RegionKR920.c **** 
 919:../../../../../../Middlewares/Third_Party/LoRaWAN/Mac/region/RegionKR920.c ****     if( id < KR920_NUMB_DEFAULT_CHANNELS )
 920:../../../../../../Middlewares/Third_Party/LoRaWAN/Mac/region/RegionKR920.c ****     {
 921:../../../../../../Middlewares/Third_Party/LoRaWAN/Mac/region/RegionKR920.c ****         return LORAMAC_STATUS_FREQ_AND_DR_INVALID;
 922:../../../../../../Middlewares/Third_Party/LoRaWAN/Mac/region/RegionKR920.c ****     }
 923:../../../../../../Middlewares/Third_Party/LoRaWAN/Mac/region/RegionKR920.c **** 
 924:../../../../../../Middlewares/Third_Party/LoRaWAN/Mac/region/RegionKR920.c ****     if( id >= KR920_MAX_NB_CHANNELS )
 925:../../../../../../Middlewares/Third_Party/LoRaWAN/Mac/region/RegionKR920.c ****     {
 926:../../../../../../Middlewares/Third_Party/LoRaWAN/Mac/region/RegionKR920.c ****         return LORAMAC_STATUS_PARAMETER_INVALID;
 927:../../../../../../Middlewares/Third_Party/LoRaWAN/Mac/region/RegionKR920.c ****     }
 928:../../../../../../Middlewares/Third_Party/LoRaWAN/Mac/region/RegionKR920.c **** 
 929:../../../../../../Middlewares/Third_Party/LoRaWAN/Mac/region/RegionKR920.c ****     // Validate the datarate range
 930:../../../../../../Middlewares/Third_Party/LoRaWAN/Mac/region/RegionKR920.c ****     if( RegionCommonValueInRange( channelAdd->NewChannel->DrRange.Fields.Min, KR920_TX_MIN_DATARATE
 931:../../../../../../Middlewares/Third_Party/LoRaWAN/Mac/region/RegionKR920.c ****     {
 932:../../../../../../Middlewares/Third_Party/LoRaWAN/Mac/region/RegionKR920.c ****         drInvalid = true;
 933:../../../../../../Middlewares/Third_Party/LoRaWAN/Mac/region/RegionKR920.c ****     }
 934:../../../../../../Middlewares/Third_Party/LoRaWAN/Mac/region/RegionKR920.c ****     if( RegionCommonValueInRange( channelAdd->NewChannel->DrRange.Fields.Max, KR920_TX_MIN_DATARATE
 935:../../../../../../Middlewares/Third_Party/LoRaWAN/Mac/region/RegionKR920.c ****     {
 936:../../../../../../Middlewares/Third_Party/LoRaWAN/Mac/region/RegionKR920.c ****         drInvalid = true;
 937:../../../../../../Middlewares/Third_Party/LoRaWAN/Mac/region/RegionKR920.c ****     }
 938:../../../../../../Middlewares/Third_Party/LoRaWAN/Mac/region/RegionKR920.c ****     if( channelAdd->NewChannel->DrRange.Fields.Min > channelAdd->NewChannel->DrRange.Fields.Max )
ARM GAS  C:\Users\EBANO_~1\AppData\Local\Temp\ccLo4wHn.s 			page 30


 939:../../../../../../Middlewares/Third_Party/LoRaWAN/Mac/region/RegionKR920.c ****     {
 940:../../../../../../Middlewares/Third_Party/LoRaWAN/Mac/region/RegionKR920.c ****         drInvalid = true;
 941:../../../../../../Middlewares/Third_Party/LoRaWAN/Mac/region/RegionKR920.c ****     }
 942:../../../../../../Middlewares/Third_Party/LoRaWAN/Mac/region/RegionKR920.c **** 
 943:../../../../../../Middlewares/Third_Party/LoRaWAN/Mac/region/RegionKR920.c ****     // Check frequency
 944:../../../../../../Middlewares/Third_Party/LoRaWAN/Mac/region/RegionKR920.c ****     if( freqInvalid == false )
 945:../../../../../../Middlewares/Third_Party/LoRaWAN/Mac/region/RegionKR920.c ****     {
 946:../../../../../../Middlewares/Third_Party/LoRaWAN/Mac/region/RegionKR920.c ****         if( VerifyRfFreq( channelAdd->NewChannel->Frequency ) == false )
 947:../../../../../../Middlewares/Third_Party/LoRaWAN/Mac/region/RegionKR920.c ****         {
 948:../../../../../../Middlewares/Third_Party/LoRaWAN/Mac/region/RegionKR920.c ****             freqInvalid = true;
 949:../../../../../../Middlewares/Third_Party/LoRaWAN/Mac/region/RegionKR920.c ****         }
 950:../../../../../../Middlewares/Third_Party/LoRaWAN/Mac/region/RegionKR920.c ****     }
 951:../../../../../../Middlewares/Third_Party/LoRaWAN/Mac/region/RegionKR920.c **** 
 952:../../../../../../Middlewares/Third_Party/LoRaWAN/Mac/region/RegionKR920.c ****     // Check status
 953:../../../../../../Middlewares/Third_Party/LoRaWAN/Mac/region/RegionKR920.c ****     if( ( drInvalid == true ) && ( freqInvalid == true ) )
 954:../../../../../../Middlewares/Third_Party/LoRaWAN/Mac/region/RegionKR920.c ****     {
 955:../../../../../../Middlewares/Third_Party/LoRaWAN/Mac/region/RegionKR920.c ****         return LORAMAC_STATUS_FREQ_AND_DR_INVALID;
 956:../../../../../../Middlewares/Third_Party/LoRaWAN/Mac/region/RegionKR920.c ****     }
 957:../../../../../../Middlewares/Third_Party/LoRaWAN/Mac/region/RegionKR920.c ****     if( drInvalid == true )
 958:../../../../../../Middlewares/Third_Party/LoRaWAN/Mac/region/RegionKR920.c ****     {
 959:../../../../../../Middlewares/Third_Party/LoRaWAN/Mac/region/RegionKR920.c ****         return LORAMAC_STATUS_DATARATE_INVALID;
 960:../../../../../../Middlewares/Third_Party/LoRaWAN/Mac/region/RegionKR920.c ****     }
 961:../../../../../../Middlewares/Third_Party/LoRaWAN/Mac/region/RegionKR920.c ****     if( freqInvalid == true )
 962:../../../../../../Middlewares/Third_Party/LoRaWAN/Mac/region/RegionKR920.c ****     {
 963:../../../../../../Middlewares/Third_Party/LoRaWAN/Mac/region/RegionKR920.c ****         return LORAMAC_STATUS_FREQUENCY_INVALID;
 964:../../../../../../Middlewares/Third_Party/LoRaWAN/Mac/region/RegionKR920.c ****     }
 965:../../../../../../Middlewares/Third_Party/LoRaWAN/Mac/region/RegionKR920.c **** 
 966:../../../../../../Middlewares/Third_Party/LoRaWAN/Mac/region/RegionKR920.c ****     memcpy1( ( uint8_t* ) &(NvmCtx.Channels[id]), ( uint8_t* ) channelAdd->NewChannel, sizeof( NvmC
 967:../../../../../../Middlewares/Third_Party/LoRaWAN/Mac/region/RegionKR920.c ****     NvmCtx.Channels[id].Band = 0;
 968:../../../../../../Middlewares/Third_Party/LoRaWAN/Mac/region/RegionKR920.c ****     NvmCtx.ChannelsMask[0] |= ( 1 << id );
 969:../../../../../../Middlewares/Third_Party/LoRaWAN/Mac/region/RegionKR920.c ****     return LORAMAC_STATUS_OK;
 970:../../../../../../Middlewares/Third_Party/LoRaWAN/Mac/region/RegionKR920.c **** }
 971:../../../../../../Middlewares/Third_Party/LoRaWAN/Mac/region/RegionKR920.c **** 
 972:../../../../../../Middlewares/Third_Party/LoRaWAN/Mac/region/RegionKR920.c **** bool RegionKR920ChannelsRemove( ChannelRemoveParams_t* channelRemove  )
 973:../../../../../../Middlewares/Third_Party/LoRaWAN/Mac/region/RegionKR920.c **** {
 974:../../../../../../Middlewares/Third_Party/LoRaWAN/Mac/region/RegionKR920.c ****     uint8_t id = channelRemove->ChannelId;
 975:../../../../../../Middlewares/Third_Party/LoRaWAN/Mac/region/RegionKR920.c **** 
 976:../../../../../../Middlewares/Third_Party/LoRaWAN/Mac/region/RegionKR920.c ****     if( id < KR920_NUMB_DEFAULT_CHANNELS )
 977:../../../../../../Middlewares/Third_Party/LoRaWAN/Mac/region/RegionKR920.c ****     {
 978:../../../../../../Middlewares/Third_Party/LoRaWAN/Mac/region/RegionKR920.c ****         return false;
 979:../../../../../../Middlewares/Third_Party/LoRaWAN/Mac/region/RegionKR920.c ****     }
 980:../../../../../../Middlewares/Third_Party/LoRaWAN/Mac/region/RegionKR920.c **** 
 981:../../../../../../Middlewares/Third_Party/LoRaWAN/Mac/region/RegionKR920.c ****     // Remove the channel from the list of channels
 982:../../../../../../Middlewares/Third_Party/LoRaWAN/Mac/region/RegionKR920.c ****     NvmCtx.Channels[id] = ( ChannelParams_t ){ 0, 0, { 0 }, 0 };
 652              		.loc 1 982 0
 653 0032 3E4B     		ldr	r3, .L74
 654              	.LBE33:
 655              	.LBE32:
 656              	.LBE31:
 657 0034 0126     		movs	r6, #1
 658              	.LBB48:
 659              	.LBB37:
 660              	.LBB34:
 661 0036 9946     		mov	r9, r3
 983:../../../../../../Middlewares/Third_Party/LoRaWAN/Mac/region/RegionKR920.c **** 
 984:../../../../../../Middlewares/Third_Party/LoRaWAN/Mac/region/RegionKR920.c ****     return RegionCommonChanDisable( NvmCtx.ChannelsMask, id, KR920_MAX_NB_CHANNELS );
 662              		.loc 1 984 0
ARM GAS  C:\Users\EBANO_~1\AppData\Local\Temp\ccLo4wHn.s 			page 31


 663 0038 D023     		movs	r3, #208
 664 003a 4B44     		add	r3, r3, r9
 665              	.LBE34:
 666              	.LBE37:
 667              	.LBE48:
 668 003c 0325     		movs	r5, #3
 669              	.LBB49:
 670              	.LBB38:
 671              	.LBB35:
 672 003e 9A46     		mov	r10, r3
 673 0040 14E0     		b	.L63
 674              	.LVL38:
 675              	.L57:
 676              	.LBE35:
 677              	.LBE38:
 490:../../../../../../Middlewares/Third_Party/LoRaWAN/Mac/region/RegionKR920.c ****             newChannel.DrRange.Value = 0;
 678              		.loc 1 490 0
 679 0042 0023     		movs	r3, #0
 680 0044 2360     		str	r3, [r4]
 491:../../../../../../Middlewares/Third_Party/LoRaWAN/Mac/region/RegionKR920.c ****             newChannel.Rx1Frequency = 0;
 681              		.loc 1 491 0
 682 0046 2372     		strb	r3, [r4, #8]
 492:../../../../../../Middlewares/Third_Party/LoRaWAN/Mac/region/RegionKR920.c ****         }
 683              		.loc 1 492 0
 684 0048 6360     		str	r3, [r4, #4]
 685              	.L59:
 686              	.LVL39:
 687              	.LBB39:
 688              	.LBB36:
 982:../../../../../../Middlewares/Third_Party/LoRaWAN/Mac/region/RegionKR920.c **** 
 689              		.loc 1 982 0
 690 004a 6800     		lsls	r0, r5, #1
 691 004c 4019     		adds	r0, r0, r5
 692 004e 8000     		lsls	r0, r0, #2
 693 0050 0C22     		movs	r2, #12
 694 0052 0021     		movs	r1, #0
 695 0054 4844     		add	r0, r0, r9
 696 0056 FFF7FEFF 		bl	memset
 697              	.LVL40:
 698              		.loc 1 984 0
 699 005a 1022     		movs	r2, #16
 700 005c 3900     		movs	r1, r7
 701 005e 5046     		mov	r0, r10
 702 0060 FFF7FEFF 		bl	RegionCommonChanDisable
 703              	.LVL41:
 704              	.L61:
 705 0064 0336     		adds	r6, r6, #3
 706              	.LVL42:
 707 0066 0135     		adds	r5, r5, #1
 708              	.LVL43:
 709              	.LBE36:
 710              	.LBE39:
 475:../../../../../../Middlewares/Third_Party/LoRaWAN/Mac/region/RegionKR920.c ****     {
 711              		.loc 1 475 0 discriminator 2
 712 0068 282E     		cmp	r6, #40
 713 006a D7D0     		beq	.L55
 714              	.L63:
ARM GAS  C:\Users\EBANO_~1\AppData\Local\Temp\ccLo4wHn.s 			page 32


 715 006c EFB2     		uxtb	r7, r5
 716              	.LVL44:
 477:../../../../../../Middlewares/Third_Party/LoRaWAN/Mac/region/RegionKR920.c ****         {
 717              		.loc 1 477 0
 718 006e 072D     		cmp	r5, #7
 719 0070 E7D8     		bhi	.L57
 480:../../../../../../Middlewares/Third_Party/LoRaWAN/Mac/region/RegionKR920.c ****             newChannel.Frequency |= ( (uint32_t) applyCFList->Payload[i + 1] << 8 );
 720              		.loc 1 480 0
 721 0072 4346     		mov	r3, r8
 722 0074 1B68     		ldr	r3, [r3]
 723 0076 9A19     		adds	r2, r3, r6
 724 0078 511E     		subs	r1, r2, #1
 725 007a 0978     		ldrb	r1, [r1]
 726 007c 2160     		str	r1, [r4]
 481:../../../../../../Middlewares/Third_Party/LoRaWAN/Mac/region/RegionKR920.c ****             newChannel.Frequency |= ( (uint32_t) applyCFList->Payload[i + 2] << 16 );
 727              		.loc 1 481 0
 728 007e 9B5D     		ldrb	r3, [r3, r6]
 729 0080 1B02     		lsls	r3, r3, #8
 730 0082 0B43     		orrs	r3, r1
 731 0084 2360     		str	r3, [r4]
 482:../../../../../../Middlewares/Third_Party/LoRaWAN/Mac/region/RegionKR920.c ****             newChannel.Frequency *= 100;
 732              		.loc 1 482 0
 733 0086 5278     		ldrb	r2, [r2, #1]
 734 0088 1204     		lsls	r2, r2, #16
 735 008a 1343     		orrs	r3, r2
 483:../../../../../../Middlewares/Third_Party/LoRaWAN/Mac/region/RegionKR920.c **** 
 736              		.loc 1 483 0
 737 008c 6422     		movs	r2, #100
 738 008e 5343     		muls	r3, r2
 486:../../../../../../Middlewares/Third_Party/LoRaWAN/Mac/region/RegionKR920.c ****         }
 739              		.loc 1 486 0
 740 0090 0022     		movs	r2, #0
 483:../../../../../../Middlewares/Third_Party/LoRaWAN/Mac/region/RegionKR920.c **** 
 741              		.loc 1 483 0
 742 0092 2360     		str	r3, [r4]
 486:../../../../../../Middlewares/Third_Party/LoRaWAN/Mac/region/RegionKR920.c ****         }
 743              		.loc 1 486 0
 744 0094 6260     		str	r2, [r4, #4]
 495:../../../../../../Middlewares/Third_Party/LoRaWAN/Mac/region/RegionKR920.c ****         {
 745              		.loc 1 495 0
 746 0096 002B     		cmp	r3, #0
 747 0098 D7D0     		beq	.L59
 748              	.LVL45:
 749              	.LBB40:
 750              	.LBB41:
 930:../../../../../../Middlewares/Third_Party/LoRaWAN/Mac/region/RegionKR920.c ****     {
 751              		.loc 1 930 0
 752 009a 207A     		ldrb	r0, [r4, #8]
 753 009c 0522     		movs	r2, #5
 754 009e 0007     		lsls	r0, r0, #28
 755 00a0 0021     		movs	r1, #0
 756 00a2 0017     		asrs	r0, r0, #28
 757 00a4 FFF7FEFF 		bl	RegionCommonValueInRange
 758              	.LVL46:
 759 00a8 0700     		movs	r7, r0
 760              	.LVL47:
 934:../../../../../../Middlewares/Third_Party/LoRaWAN/Mac/region/RegionKR920.c ****     {
ARM GAS  C:\Users\EBANO_~1\AppData\Local\Temp\ccLo4wHn.s 			page 33


 761              		.loc 1 934 0
 762 00aa 0820     		movs	r0, #8
 763 00ac 2056     		ldrsb	r0, [r4, r0]
 764 00ae 0522     		movs	r2, #5
 765 00b0 0011     		asrs	r0, r0, #4
 766 00b2 0021     		movs	r1, #0
 767 00b4 FFF7FEFF 		bl	RegionCommonValueInRange
 768              	.LVL48:
 936:../../../../../../Middlewares/Third_Party/LoRaWAN/Mac/region/RegionKR920.c ****     }
 769              		.loc 1 936 0
 770 00b8 0123     		movs	r3, #1
 771 00ba 9B46     		mov	fp, r3
 934:../../../../../../Middlewares/Third_Party/LoRaWAN/Mac/region/RegionKR920.c ****     {
 772              		.loc 1 934 0
 773 00bc 0028     		cmp	r0, #0
 774 00be 03D0     		beq	.L64
 930:../../../../../../Middlewares/Third_Party/LoRaWAN/Mac/region/RegionKR920.c ****     {
 775              		.loc 1 930 0
 776 00c0 7B42     		rsbs	r3, r7, #0
 777 00c2 5F41     		adcs	r7, r7, r3
 778              	.LVL49:
 779 00c4 FBB2     		uxtb	r3, r7
 780 00c6 9B46     		mov	fp, r3
 781              	.L64:
 782              	.LVL50:
 938:../../../../../../Middlewares/Third_Party/LoRaWAN/Mac/region/RegionKR920.c ****     {
 783              		.loc 1 938 0
 784 00c8 237A     		ldrb	r3, [r4, #8]
 785 00ca 1A07     		lsls	r2, r3, #28
 786 00cc 5BB2     		sxtb	r3, r3
 787 00ce 1217     		asrs	r2, r2, #28
 788 00d0 1B11     		asrs	r3, r3, #4
 789 00d2 9A42     		cmp	r2, r3
 790 00d4 01DD     		ble	.L60
 940:../../../../../../Middlewares/Third_Party/LoRaWAN/Mac/region/RegionKR920.c ****     }
 791              		.loc 1 940 0
 792 00d6 0123     		movs	r3, #1
 793 00d8 9B46     		mov	fp, r3
 794              	.LVL51:
 795              	.L60:
 796              	.LBB42:
 797              	.LBB43:
 123:../../../../../../Middlewares/Third_Party/LoRaWAN/Mac/region/RegionKR920.c ****     {
 798              		.loc 1 123 0
 799 00da 154B     		ldr	r3, .L74+4
 800              	.LBE43:
 801              	.LBE42:
 946:../../../../../../Middlewares/Third_Party/LoRaWAN/Mac/region/RegionKR920.c ****         {
 802              		.loc 1 946 0
 803 00dc 2768     		ldr	r7, [r4]
 804              	.LVL52:
 805              	.LBB47:
 806              	.LBB46:
 123:../../../../../../Middlewares/Third_Party/LoRaWAN/Mac/region/RegionKR920.c ****     {
 807              		.loc 1 123 0
 808 00de 9B6A     		ldr	r3, [r3, #40]
 809 00e0 3800     		movs	r0, r7
ARM GAS  C:\Users\EBANO_~1\AppData\Local\Temp\ccLo4wHn.s 			page 34


 810 00e2 0193     		str	r3, [sp, #4]
 811 00e4 9847     		blx	r3
 812              	.LVL53:
 813 00e6 0028     		cmp	r0, #0
 814 00e8 BCD0     		beq	.L61
 815              	.LVL54:
 816              	.LBB44:
 817              	.LBB45:
 130:../../../../../../Middlewares/Third_Party/LoRaWAN/Mac/region/RegionKR920.c ****     {
 818              		.loc 1 130 0
 819 00ea 124B     		ldr	r3, .L74+8
 820 00ec F818     		adds	r0, r7, r3
 821 00ee 124B     		ldr	r3, .L74+12
 822 00f0 9842     		cmp	r0, r3
 823 00f2 B7D8     		bhi	.L61
 824              	.LVL55:
 134:../../../../../../Middlewares/Third_Party/LoRaWAN/Mac/region/RegionKR920.c ****         {
 825              		.loc 1 134 0
 826 00f4 1149     		ldr	r1, .L74+16
 827 00f6 FFF7FEFF 		bl	__aeabi_uidivmod
 828              	.LVL56:
 829 00fa 0029     		cmp	r1, #0
 830 00fc B2D1     		bne	.L61
 831              	.LVL57:
 832              	.LBE45:
 833              	.LBE44:
 834              	.LBE46:
 835              	.LBE47:
 953:../../../../../../Middlewares/Third_Party/LoRaWAN/Mac/region/RegionKR920.c ****     {
 836              		.loc 1 953 0
 837 00fe 5B46     		mov	r3, fp
 838 0100 002B     		cmp	r3, #0
 839 0102 AFD1     		bne	.L61
 966:../../../../../../Middlewares/Third_Party/LoRaWAN/Mac/region/RegionKR920.c ****     NvmCtx.Channels[id].Band = 0;
 840              		.loc 1 966 0
 841 0104 6800     		lsls	r0, r5, #1
 842 0106 094F     		ldr	r7, .L74
 843              	.LVL58:
 844 0108 4019     		adds	r0, r0, r5
 845 010a 8000     		lsls	r0, r0, #2
 846 010c 0C22     		movs	r2, #12
 847 010e 2100     		movs	r1, r4
 848 0110 C019     		adds	r0, r0, r7
 849 0112 FFF7FEFF 		bl	memcpy1
 850              	.LVL59:
 967:../../../../../../Middlewares/Third_Party/LoRaWAN/Mac/region/RegionKR920.c ****     NvmCtx.ChannelsMask[0] |= ( 1 << id );
 851              		.loc 1 967 0
 852 0116 5A46     		mov	r2, fp
 853 0118 B300     		lsls	r3, r6, #2
 854 011a 2933     		adds	r3, r3, #41
 855 011c FA54     		strb	r2, [r7, r3]
 968:../../../../../../Middlewares/Third_Party/LoRaWAN/Mac/region/RegionKR920.c ****     return LORAMAC_STATUS_OK;
 856              		.loc 1 968 0
 857 011e 0122     		movs	r2, #1
 858 0120 D021     		movs	r1, #208
 859 0122 AA40     		lsls	r2, r2, r5
 860 0124 7B5A     		ldrh	r3, [r7, r1]
ARM GAS  C:\Users\EBANO_~1\AppData\Local\Temp\ccLo4wHn.s 			page 35


 861 0126 1343     		orrs	r3, r2
 862 0128 7B52     		strh	r3, [r7, r1]
 863 012a 9BE7     		b	.L61
 864              	.L75:
 865              		.align	2
 866              	.L74:
 867 012c 00000000 		.word	NvmCtx
 868 0130 00000000 		.word	Radio
 869 0134 602E1CC9 		.word	-920900000
 870 0138 009F2400 		.word	2400000
 871 013c 400D0300 		.word	200000
 872              	.LBE41:
 873              	.LBE40:
 874              	.LBE49:
 875              		.cfi_endproc
 876              	.LFE50:
 877              		.size	RegionKR920ApplyCFList, .-RegionKR920ApplyCFList
 878              		.section	.text.RegionKR920ChanMaskSet,"ax",%progbits
 879              		.align	1
 880              		.p2align 2,,3
 881              		.global	RegionKR920ChanMaskSet
 882              		.syntax unified
 883              		.code	16
 884              		.thumb_func
 885              		.fpu softvfp
 886              		.type	RegionKR920ChanMaskSet, %function
 887              	RegionKR920ChanMaskSet:
 888              	.LFB51:
 513:../../../../../../Middlewares/Third_Party/LoRaWAN/Mac/region/RegionKR920.c ****     switch( chanMaskSet->ChannelsMaskType )
 889              		.loc 1 513 0
 890              		.cfi_startproc
 891              		@ args = 0, pretend = 0, frame = 0
 892              		@ frame_needed = 0, uses_anonymous_args = 0
 893              	.LVL60:
 894 0000 10B5     		push	{r4, lr}
 895              	.LCFI9:
 896              		.cfi_def_cfa_offset 8
 897              		.cfi_offset 4, -8
 898              		.cfi_offset 14, -4
 514:../../../../../../Middlewares/Third_Party/LoRaWAN/Mac/region/RegionKR920.c ****     {
 899              		.loc 1 514 0
 900 0002 0379     		ldrb	r3, [r0, #4]
 901 0004 002B     		cmp	r3, #0
 902 0006 0AD0     		beq	.L78
 903 0008 012B     		cmp	r3, #1
 904 000a 01D0     		beq	.L79
 527:../../../../../../Middlewares/Third_Party/LoRaWAN/Mac/region/RegionKR920.c ****     }
 905              		.loc 1 527 0
 906 000c 0020     		movs	r0, #0
 907              	.LVL61:
 908              	.L77:
 530:../../../../../../Middlewares/Third_Party/LoRaWAN/Mac/region/RegionKR920.c **** 
 909              		.loc 1 530 0
 910              		@ sp needed
 911 000e 10BD     		pop	{r4, pc}
 912              	.LVL62:
 913              	.L79:
ARM GAS  C:\Users\EBANO_~1\AppData\Local\Temp\ccLo4wHn.s 			page 36


 523:../../../../../../Middlewares/Third_Party/LoRaWAN/Mac/region/RegionKR920.c ****             break;
 914              		.loc 1 523 0
 915 0010 0168     		ldr	r1, [r0]
 916 0012 0122     		movs	r2, #1
 917 0014 0548     		ldr	r0, .L82
 918              	.LVL63:
 919 0016 FFF7FEFF 		bl	RegionCommonChanMaskCopy
 920              	.LVL64:
 529:../../../../../../Middlewares/Third_Party/LoRaWAN/Mac/region/RegionKR920.c **** }
 921              		.loc 1 529 0
 922 001a 0120     		movs	r0, #1
 524:../../../../../../Middlewares/Third_Party/LoRaWAN/Mac/region/RegionKR920.c ****         }
 923              		.loc 1 524 0
 924 001c F7E7     		b	.L77
 925              	.LVL65:
 926              	.L78:
 518:../../../../../../Middlewares/Third_Party/LoRaWAN/Mac/region/RegionKR920.c ****             break;
 927              		.loc 1 518 0
 928 001e 0168     		ldr	r1, [r0]
 929 0020 0122     		movs	r2, #1
 930 0022 0348     		ldr	r0, .L82+4
 931              	.LVL66:
 932 0024 FFF7FEFF 		bl	RegionCommonChanMaskCopy
 933              	.LVL67:
 529:../../../../../../Middlewares/Third_Party/LoRaWAN/Mac/region/RegionKR920.c **** }
 934              		.loc 1 529 0
 935 0028 0120     		movs	r0, #1
 519:../../../../../../Middlewares/Third_Party/LoRaWAN/Mac/region/RegionKR920.c ****         }
 936              		.loc 1 519 0
 937 002a F0E7     		b	.L77
 938              	.L83:
 939              		.align	2
 940              	.L82:
 941 002c D2000000 		.word	NvmCtx+210
 942 0030 D0000000 		.word	NvmCtx+208
 943              		.cfi_endproc
 944              	.LFE51:
 945              		.size	RegionKR920ChanMaskSet, .-RegionKR920ChanMaskSet
 946              		.section	.text.RegionKR920ComputeRxWindowParameters,"ax",%progbits
 947              		.align	1
 948              		.p2align 2,,3
 949              		.global	RegionKR920ComputeRxWindowParameters
 950              		.syntax unified
 951              		.code	16
 952              		.thumb_func
 953              		.fpu softvfp
 954              		.type	RegionKR920ComputeRxWindowParameters, %function
 955              	RegionKR920ComputeRxWindowParameters:
 956              	.LFB52:
 533:../../../../../../Middlewares/Third_Party/LoRaWAN/Mac/region/RegionKR920.c ****     double tSymbol = 0.0;
 957              		.loc 1 533 0
 958              		.cfi_startproc
 959              		@ args = 0, pretend = 0, frame = 8
 960              		@ frame_needed = 0, uses_anonymous_args = 0
 961              	.LVL68:
 962 0000 F0B5     		push	{r4, r5, r6, r7, lr}
 963              	.LCFI10:
ARM GAS  C:\Users\EBANO_~1\AppData\Local\Temp\ccLo4wHn.s 			page 37


 964              		.cfi_def_cfa_offset 20
 965              		.cfi_offset 4, -20
 966              		.cfi_offset 5, -16
 967              		.cfi_offset 6, -12
 968              		.cfi_offset 7, -8
 969              		.cfi_offset 14, -4
 970 0002 C646     		mov	lr, r8
 971 0004 00B5     		push	{lr}
 972              	.LCFI11:
 973              		.cfi_def_cfa_offset 24
 974              		.cfi_offset 8, -24
 975 0006 1C00     		movs	r4, r3
 976 0008 86B0     		sub	sp, sp, #24
 977              	.LCFI12:
 978              		.cfi_def_cfa_offset 48
 533:../../../../../../Middlewares/Third_Party/LoRaWAN/Mac/region/RegionKR920.c ****     double tSymbol = 0.0;
 979              		.loc 1 533 0
 980 000a 0D00     		movs	r5, r1
 981 000c 9046     		mov	r8, r2
 537:../../../../../../Middlewares/Third_Party/LoRaWAN/Mac/region/RegionKR920.c ****     rxConfigParams->Bandwidth = GetBandwidth( rxConfigParams->Datarate );
 982              		.loc 1 537 0
 983 000e 031C     		adds	r3, r0, #0
 984              	.LVL69:
 985 0010 0528     		cmp	r0, #5
 986 0012 00DD     		ble	.L85
 987 0014 0523     		movs	r3, #5
 988              	.L85:
 989 0016 58B2     		sxtb	r0, r3
 990              	.LVL70:
 991              	.LBB50:
 992              	.LBB51:
  96:../../../../../../Middlewares/Third_Party/LoRaWAN/Mac/region/RegionKR920.c ****     {
 993              		.loc 1 96 0
 994 0018 154A     		ldr	r2, .L90
 995              	.LVL71:
 996 001a 8100     		lsls	r1, r0, #2
 997              	.LVL72:
 998              	.LBE51:
 999              	.LBE50:
 537:../../../../../../Middlewares/Third_Party/LoRaWAN/Mac/region/RegionKR920.c ****     rxConfigParams->Bandwidth = GetBandwidth( rxConfigParams->Datarate );
 1000              		.loc 1 537 0
 1001 001c 6370     		strb	r3, [r4, #1]
 1002              	.LVL73:
 1003              	.LBB54:
 1004              	.LBB52:
  96:../../../../../../Middlewares/Third_Party/LoRaWAN/Mac/region/RegionKR920.c ****     {
 1005              		.loc 1 96 0
 1006 001e 154E     		ldr	r6, .L90+4
 1007 0020 5358     		ldr	r3, [r2, r1]
 1008 0022 B342     		cmp	r3, r6
 1009 0024 21D0     		beq	.L89
 1010 0026 144E     		ldr	r6, .L90+8
 1011 0028 B446     		mov	ip, r6
 1012 002a 6344     		add	r3, r3, ip
 1013 002c 5E42     		rsbs	r6, r3, #0
 1014 002e 7341     		adcs	r3, r3, r6
 1015 0030 5B00     		lsls	r3, r3, #1
ARM GAS  C:\Users\EBANO_~1\AppData\Local\Temp\ccLo4wHn.s 			page 38


 1016              	.L87:
 1017              	.LBE52:
 1018              	.LBE54:
 540:../../../../../../Middlewares/Third_Party/LoRaWAN/Mac/region/RegionKR920.c **** 
 1019              		.loc 1 540 0
 1020 0032 5158     		ldr	r1, [r2, r1]
 1021 0034 1218     		adds	r2, r2, r0
 538:../../../../../../Middlewares/Third_Party/LoRaWAN/Mac/region/RegionKR920.c **** 
 1022              		.loc 1 538 0
 1023 0036 A370     		strb	r3, [r4, #2]
 540:../../../../../../Middlewares/Third_Party/LoRaWAN/Mac/region/RegionKR920.c **** 
 1024              		.loc 1 540 0
 1025 0038 107E     		ldrb	r0, [r2, #24]
 1026 003a FFF7FEFF 		bl	RegionCommonComputeSymbolTimeLoRa
 1027              	.LVL74:
 542:../../../../../../Middlewares/Third_Party/LoRaWAN/Mac/region/RegionKR920.c **** }
 1028              		.loc 1 542 0
 1029 003e 0F4B     		ldr	r3, .L90+12
 540:../../../../../../Middlewares/Third_Party/LoRaWAN/Mac/region/RegionKR920.c **** 
 1030              		.loc 1 540 0
 1031 0040 0600     		movs	r6, r0
 542:../../../../../../Middlewares/Third_Party/LoRaWAN/Mac/region/RegionKR920.c **** }
 1032              		.loc 1 542 0
 1033 0042 5B6E     		ldr	r3, [r3, #100]
 540:../../../../../../Middlewares/Third_Party/LoRaWAN/Mac/region/RegionKR920.c **** 
 1034              		.loc 1 540 0
 1035 0044 0F00     		movs	r7, r1
 1036              	.LVL75:
 542:../../../../../../Middlewares/Third_Party/LoRaWAN/Mac/region/RegionKR920.c **** }
 1037              		.loc 1 542 0
 1038 0046 0593     		str	r3, [sp, #20]
 1039 0048 9847     		blx	r3
 1040              	.LVL76:
 1041 004a 2300     		movs	r3, r4
 1042 004c 0834     		adds	r4, r4, #8
 1043              	.LVL77:
 1044 004e 0C33     		adds	r3, r3, #12
 1045              	.LVL78:
 1046 0050 0293     		str	r3, [sp, #8]
 1047 0052 0090     		str	r0, [sp]
 1048 0054 0194     		str	r4, [sp, #4]
 1049 0056 4346     		mov	r3, r8
 1050              	.LVL79:
 1051 0058 2A00     		movs	r2, r5
 1052 005a 3000     		movs	r0, r6
 1053 005c 3900     		movs	r1, r7
 1054 005e FFF7FEFF 		bl	RegionCommonComputeRxWindowParameters
 1055              	.LVL80:
 543:../../../../../../Middlewares/Third_Party/LoRaWAN/Mac/region/RegionKR920.c **** 
 1056              		.loc 1 543 0
 1057 0062 06B0     		add	sp, sp, #24
 1058              		@ sp needed
 1059              	.LVL81:
 1060              	.LVL82:
 1061              	.LVL83:
 1062 0064 04BC     		pop	{r2}
 1063 0066 9046     		mov	r8, r2
ARM GAS  C:\Users\EBANO_~1\AppData\Local\Temp\ccLo4wHn.s 			page 39


 1064 0068 F0BD     		pop	{r4, r5, r6, r7, pc}
 1065              	.LVL84:
 1066              	.L89:
 1067              	.LBB55:
 1068              	.LBB53:
  96:../../../../../../Middlewares/Third_Party/LoRaWAN/Mac/region/RegionKR920.c ****     {
 1069              		.loc 1 96 0
 1070 006a 0123     		movs	r3, #1
 1071 006c E1E7     		b	.L87
 1072              	.L91:
 1073 006e C046     		.align	2
 1074              	.L90:
 1075 0070 AC000000 		.word	.LANCHOR1
 1076 0074 90D00300 		.word	250000
 1077 0078 E05EF8FF 		.word	-500000
 1078 007c 00000000 		.word	Radio
 1079              	.LBE53:
 1080              	.LBE55:
 1081              		.cfi_endproc
 1082              	.LFE52:
 1083              		.size	RegionKR920ComputeRxWindowParameters, .-RegionKR920ComputeRxWindowParameters
 1084              		.section	.text.RegionKR920RxConfig,"ax",%progbits
 1085              		.align	1
 1086              		.p2align 2,,3
 1087              		.global	RegionKR920RxConfig
 1088              		.syntax unified
 1089              		.code	16
 1090              		.thumb_func
 1091              		.fpu softvfp
 1092              		.type	RegionKR920RxConfig, %function
 1093              	RegionKR920RxConfig:
 1094              	.LFB53:
 546:../../../../../../Middlewares/Third_Party/LoRaWAN/Mac/region/RegionKR920.c ****     int8_t dr = rxConfig->Datarate;
 1095              		.loc 1 546 0
 1096              		.cfi_startproc
 1097              		@ args = 0, pretend = 0, frame = 8
 1098              		@ frame_needed = 0, uses_anonymous_args = 0
 1099              	.LVL85:
 1100 0000 F0B5     		push	{r4, r5, r6, r7, lr}
 1101              	.LCFI13:
 1102              		.cfi_def_cfa_offset 20
 1103              		.cfi_offset 4, -20
 1104              		.cfi_offset 5, -16
 1105              		.cfi_offset 6, -12
 1106              		.cfi_offset 7, -8
 1107              		.cfi_offset 14, -4
 1108 0002 4746     		mov	r7, r8
 1109 0004 CE46     		mov	lr, r9
 547:../../../../../../Middlewares/Third_Party/LoRaWAN/Mac/region/RegionKR920.c ****     uint8_t maxPayload = 0;
 1110              		.loc 1 547 0
 1111 0006 0126     		movs	r6, #1
 546:../../../../../../Middlewares/Third_Party/LoRaWAN/Mac/region/RegionKR920.c ****     int8_t dr = rxConfig->Datarate;
 1112              		.loc 1 546 0
 1113 0008 80B5     		push	{r7, lr}
 1114              	.LCFI14:
 1115              		.cfi_def_cfa_offset 28
 1116              		.cfi_offset 8, -28
ARM GAS  C:\Users\EBANO_~1\AppData\Local\Temp\ccLo4wHn.s 			page 40


 1117              		.cfi_offset 9, -24
 550:../../../../../../Middlewares/Third_Party/LoRaWAN/Mac/region/RegionKR920.c **** 
 1118              		.loc 1 550 0
 1119 000a 4368     		ldr	r3, [r0, #4]
 552:../../../../../../Middlewares/Third_Party/LoRaWAN/Mac/region/RegionKR920.c ****     {
 1120              		.loc 1 552 0
 1121 000c 254D     		ldr	r5, .L100
 550:../../../../../../Middlewares/Third_Party/LoRaWAN/Mac/region/RegionKR920.c **** 
 1122              		.loc 1 550 0
 1123 000e 9846     		mov	r8, r3
 552:../../../../../../Middlewares/Third_Party/LoRaWAN/Mac/region/RegionKR920.c ****     {
 1124              		.loc 1 552 0
 1125 0010 EB68     		ldr	r3, [r5, #12]
 546:../../../../../../Middlewares/Third_Party/LoRaWAN/Mac/region/RegionKR920.c ****     int8_t dr = rxConfig->Datarate;
 1126              		.loc 1 546 0
 1127 0012 8DB0     		sub	sp, sp, #52
 1128              	.LCFI15:
 1129              		.cfi_def_cfa_offset 80
 547:../../../../../../Middlewares/Third_Party/LoRaWAN/Mac/region/RegionKR920.c ****     uint8_t maxPayload = 0;
 1130              		.loc 1 547 0
 1131 0014 8657     		ldrsb	r6, [r0, r6]
 1132              	.LVL86:
 546:../../../../../../Middlewares/Third_Party/LoRaWAN/Mac/region/RegionKR920.c ****     int8_t dr = rxConfig->Datarate;
 1133              		.loc 1 546 0
 1134 0016 0400     		movs	r4, r0
 552:../../../../../../Middlewares/Third_Party/LoRaWAN/Mac/region/RegionKR920.c ****     {
 1135              		.loc 1 552 0
 1136 0018 0B93     		str	r3, [sp, #44]
 546:../../../../../../Middlewares/Third_Party/LoRaWAN/Mac/region/RegionKR920.c ****     int8_t dr = rxConfig->Datarate;
 1137              		.loc 1 546 0
 1138 001a 0F00     		movs	r7, r1
 552:../../../../../../Middlewares/Third_Party/LoRaWAN/Mac/region/RegionKR920.c ****     {
 1139              		.loc 1 552 0
 1140 001c 9847     		blx	r3
 1141              	.LVL87:
 554:../../../../../../Middlewares/Third_Party/LoRaWAN/Mac/region/RegionKR920.c ****     }
 1142              		.loc 1 554 0
 1143 001e 0023     		movs	r3, #0
 552:../../../../../../Middlewares/Third_Party/LoRaWAN/Mac/region/RegionKR920.c ****     {
 1144              		.loc 1 552 0
 1145 0020 0028     		cmp	r0, #0
 1146 0022 2CD1     		bne	.L93
 557:../../../../../../Middlewares/Third_Party/LoRaWAN/Mac/region/RegionKR920.c ****     {
 1147              		.loc 1 557 0
 1148 0024 E37C     		ldrb	r3, [r4, #19]
 1149 0026 002B     		cmp	r3, #0
 1150 0028 2FD0     		beq	.L99
 1151              	.LVL88:
 1152              	.L94:
 569:../../../../../../Middlewares/Third_Party/LoRaWAN/Mac/region/RegionKR920.c **** 
 1153              		.loc 1 569 0
 1154 002a 1F4B     		ldr	r3, .L100+4
 571:../../../../../../Middlewares/Third_Party/LoRaWAN/Mac/region/RegionKR920.c **** 
 1155              		.loc 1 571 0
 1156 002c 4046     		mov	r0, r8
 569:../../../../../../Middlewares/Third_Party/LoRaWAN/Mac/region/RegionKR920.c **** 
 1157              		.loc 1 569 0
ARM GAS  C:\Users\EBANO_~1\AppData\Local\Temp\ccLo4wHn.s 			page 41


 1158 002e 9B19     		adds	r3, r3, r6
 1159 0030 1B7E     		ldrb	r3, [r3, #24]
 1160 0032 5BB2     		sxtb	r3, r3
 1161 0034 9946     		mov	r9, r3
 1162              	.LVL89:
 571:../../../../../../Middlewares/Third_Party/LoRaWAN/Mac/region/RegionKR920.c **** 
 1163              		.loc 1 571 0
 1164 0036 6B69     		ldr	r3, [r5, #20]
 1165 0038 0B93     		str	r3, [sp, #44]
 1166 003a 9847     		blx	r3
 1167              	.LVL90:
 574:../../../../../../Middlewares/Third_Party/LoRaWAN/Mac/region/RegionKR920.c ****     maxPayload = MaxPayloadOfDatarateKR920[dr];
 1168              		.loc 1 574 0
 1169 003c A37C     		ldrb	r3, [r4, #18]
 1170 003e A178     		ldrb	r1, [r4, #2]
 1171 0040 0993     		str	r3, [sp, #36]
 1172 0042 0123     		movs	r3, #1
 1173 0044 0893     		str	r3, [sp, #32]
 1174 0046 0023     		movs	r3, #0
 1175 0048 0793     		str	r3, [sp, #28]
 1176 004a 0693     		str	r3, [sp, #24]
 1177 004c 0593     		str	r3, [sp, #20]
 1178 004e 0493     		str	r3, [sp, #16]
 1179 0050 0393     		str	r3, [sp, #12]
 1180 0052 2289     		ldrh	r2, [r4, #8]
 1181 0054 0093     		str	r3, [sp]
 1182 0056 0292     		str	r2, [sp, #8]
 1183 0058 0822     		movs	r2, #8
 1184 005a 2B6A     		ldr	r3, [r5, #32]
 1185 005c 0192     		str	r2, [sp, #4]
 1186 005e 0B93     		str	r3, [sp, #44]
 1187 0060 4A46     		mov	r2, r9
 1188 0062 0123     		movs	r3, #1
 1189 0064 0120     		movs	r0, #1
 1190 0066 0B9C     		ldr	r4, [sp, #44]
 1191              	.LVL91:
 1192 0068 A047     		blx	r4
 1193              	.LVL92:
 575:../../../../../../Middlewares/Third_Party/LoRaWAN/Mac/region/RegionKR920.c ****     Radio.SetMaxPayloadLength( MODEM_LORA, maxPayload + LORA_MAC_FRMPAYLOAD_OVERHEAD );
 1194              		.loc 1 575 0
 1195 006a 104B     		ldr	r3, .L100+8
 576:../../../../../../Middlewares/Third_Party/LoRaWAN/Mac/region/RegionKR920.c ****     TVL1( PRINTF( "RX on freq %d Hz at DR %d\n\r", frequency, dr );)
 1196              		.loc 1 576 0
 1197 006c 0120     		movs	r0, #1
 1198 006e 995D     		ldrb	r1, [r3, r6]
 1199 0070 EB6D     		ldr	r3, [r5, #92]
 1200 0072 0D31     		adds	r1, r1, #13
 1201 0074 C9B2     		uxtb	r1, r1
 1202 0076 0B93     		str	r3, [sp, #44]
 1203 0078 9847     		blx	r3
 1204              	.LVL93:
 580:../../../../../../Middlewares/Third_Party/LoRaWAN/Mac/region/RegionKR920.c **** }
 1205              		.loc 1 580 0
 1206 007a 0123     		movs	r3, #1
 579:../../../../../../Middlewares/Third_Party/LoRaWAN/Mac/region/RegionKR920.c ****     return true;
 1207              		.loc 1 579 0
 1208 007c 3E70     		strb	r6, [r7]
ARM GAS  C:\Users\EBANO_~1\AppData\Local\Temp\ccLo4wHn.s 			page 42


 1209              	.LVL94:
 1210              	.L93:
 581:../../../../../../Middlewares/Third_Party/LoRaWAN/Mac/region/RegionKR920.c **** 
 1211              		.loc 1 581 0
 1212 007e 1800     		movs	r0, r3
 1213 0080 0DB0     		add	sp, sp, #52
 1214              		@ sp needed
 1215              	.LVL95:
 1216              	.LVL96:
 1217              	.LVL97:
 1218 0082 0CBC     		pop	{r2, r3}
 1219 0084 9046     		mov	r8, r2
 1220 0086 9946     		mov	r9, r3
 1221 0088 F0BD     		pop	{r4, r5, r6, r7, pc}
 1222              	.LVL98:
 1223              	.L99:
 560:../../../../../../Middlewares/Third_Party/LoRaWAN/Mac/region/RegionKR920.c ****         // Apply the alternative RX 1 window frequency, if it is available
 1224              		.loc 1 560 0
 1225 008a 2178     		ldrb	r1, [r4]
 1226 008c 084A     		ldr	r2, .L100+12
 1227 008e 4B00     		lsls	r3, r1, #1
 1228 0090 5B18     		adds	r3, r3, r1
 1229 0092 9B00     		lsls	r3, r3, #2
 1230 0094 9958     		ldr	r1, [r3, r2]
 562:../../../../../../Middlewares/Third_Party/LoRaWAN/Mac/region/RegionKR920.c ****         {
 1231              		.loc 1 562 0
 1232 0096 D318     		adds	r3, r2, r3
 1233 0098 5B68     		ldr	r3, [r3, #4]
 560:../../../../../../Middlewares/Third_Party/LoRaWAN/Mac/region/RegionKR920.c ****         // Apply the alternative RX 1 window frequency, if it is available
 1234              		.loc 1 560 0
 1235 009a 8846     		mov	r8, r1
 1236              	.LVL99:
 562:../../../../../../Middlewares/Third_Party/LoRaWAN/Mac/region/RegionKR920.c ****         {
 1237              		.loc 1 562 0
 1238 009c 002B     		cmp	r3, #0
 1239 009e C4D0     		beq	.L94
 1240 00a0 9846     		mov	r8, r3
 1241 00a2 C2E7     		b	.L94
 1242              	.L101:
 1243              		.align	2
 1244              	.L100:
 1245 00a4 00000000 		.word	Radio
 1246 00a8 AC000000 		.word	.LANCHOR1
 1247 00ac CC000000 		.word	.LANCHOR0
 1248 00b0 00000000 		.word	NvmCtx
 1249              		.cfi_endproc
 1250              	.LFE53:
 1251              		.size	RegionKR920RxConfig, .-RegionKR920RxConfig
 1252              		.global	__aeabi_fcmplt
 1253              		.section	.text.RegionKR920TxConfig,"ax",%progbits
 1254              		.align	1
 1255              		.p2align 2,,3
 1256              		.global	RegionKR920TxConfig
 1257              		.syntax unified
 1258              		.code	16
 1259              		.thumb_func
 1260              		.fpu softvfp
ARM GAS  C:\Users\EBANO_~1\AppData\Local\Temp\ccLo4wHn.s 			page 43


 1261              		.type	RegionKR920TxConfig, %function
 1262              	RegionKR920TxConfig:
 1263              	.LFB54:
 584:../../../../../../Middlewares/Third_Party/LoRaWAN/Mac/region/RegionKR920.c ****     int8_t phyDr = DataratesKR920[txConfig->Datarate];
 1264              		.loc 1 584 0
 1265              		.cfi_startproc
 1266              		@ args = 0, pretend = 0, frame = 8
 1267              		@ frame_needed = 0, uses_anonymous_args = 0
 1268              	.LVL100:
 1269 0000 F0B5     		push	{r4, r5, r6, r7, lr}
 1270              	.LCFI16:
 1271              		.cfi_def_cfa_offset 20
 1272              		.cfi_offset 4, -20
 1273              		.cfi_offset 5, -16
 1274              		.cfi_offset 6, -12
 1275              		.cfi_offset 7, -8
 1276              		.cfi_offset 14, -4
 1277 0002 5746     		mov	r7, r10
 1278 0004 4E46     		mov	r6, r9
 1279 0006 4546     		mov	r5, r8
 1280 0008 DE46     		mov	lr, fp
 1281 000a 8946     		mov	r9, r1
 585:../../../../../../Middlewares/Third_Party/LoRaWAN/Mac/region/RegionKR920.c ****     int8_t txPowerLimited = LimitTxPower( txConfig->TxPower, NvmCtx.Bands[NvmCtx.Channels[txConfig-
 1282              		.loc 1 585 0
 1283 000c 0121     		movs	r1, #1
 1284              	.LVL101:
 584:../../../../../../Middlewares/Third_Party/LoRaWAN/Mac/region/RegionKR920.c ****     int8_t phyDr = DataratesKR920[txConfig->Datarate];
 1285              		.loc 1 584 0
 1286 000e 0400     		movs	r4, r0
 1287 0010 E0B5     		push	{r5, r6, r7, lr}
 1288              	.LCFI17:
 1289              		.cfi_def_cfa_offset 36
 1290              		.cfi_offset 8, -36
 1291              		.cfi_offset 9, -32
 1292              		.cfi_offset 10, -28
 1293              		.cfi_offset 11, -24
 585:../../../../../../Middlewares/Third_Party/LoRaWAN/Mac/region/RegionKR920.c ****     int8_t txPowerLimited = LimitTxPower( txConfig->TxPower, NvmCtx.Bands[NvmCtx.Channels[txConfig-
 1294              		.loc 1 585 0
 1295 0012 3E4F     		ldr	r7, .L111
 1296 0014 4156     		ldrsb	r1, [r0, r1]
 586:../../../../../../Middlewares/Third_Party/LoRaWAN/Mac/region/RegionKR920.c ****     uint32_t bandwidth = GetBandwidth( txConfig->Datarate );
 1297              		.loc 1 586 0
 1298 0016 0078     		ldrb	r0, [r0]
 1299              	.LVL102:
 585:../../../../../../Middlewares/Third_Party/LoRaWAN/Mac/region/RegionKR920.c ****     int8_t txPowerLimited = LimitTxPower( txConfig->TxPower, NvmCtx.Bands[NvmCtx.Channels[txConfig-
 1300              		.loc 1 585 0
 1301 0018 7B18     		adds	r3, r7, r1
 1302 001a 1B7E     		ldrb	r3, [r3, #24]
 584:../../../../../../Middlewares/Third_Party/LoRaWAN/Mac/region/RegionKR920.c ****     int8_t phyDr = DataratesKR920[txConfig->Datarate];
 1303              		.loc 1 584 0
 1304 001c 9246     		mov	r10, r2
 585:../../../../../../Middlewares/Third_Party/LoRaWAN/Mac/region/RegionKR920.c ****     int8_t txPowerLimited = LimitTxPower( txConfig->TxPower, NvmCtx.Bands[NvmCtx.Channels[txConfig-
 1305              		.loc 1 585 0
 1306 001e 5BB2     		sxtb	r3, r3
 586:../../../../../../Middlewares/Third_Party/LoRaWAN/Mac/region/RegionKR920.c ****     uint32_t bandwidth = GetBandwidth( txConfig->Datarate );
 1307              		.loc 1 586 0
 1308 0020 4200     		lsls	r2, r0, #1
ARM GAS  C:\Users\EBANO_~1\AppData\Local\Temp\ccLo4wHn.s 			page 44


 1309              	.LVL103:
 1310 0022 3B4E     		ldr	r6, .L111+4
 585:../../../../../../Middlewares/Third_Party/LoRaWAN/Mac/region/RegionKR920.c ****     int8_t txPowerLimited = LimitTxPower( txConfig->TxPower, NvmCtx.Bands[NvmCtx.Channels[txConfig-
 1311              		.loc 1 585 0
 1312 0024 9B46     		mov	fp, r3
 1313              	.LVL104:
 586:../../../../../../Middlewares/Third_Party/LoRaWAN/Mac/region/RegionKR920.c ****     uint32_t bandwidth = GetBandwidth( txConfig->Datarate );
 1314              		.loc 1 586 0
 1315 0026 1318     		adds	r3, r2, r0
 1316 0028 9B00     		lsls	r3, r3, #2
 1317 002a F318     		adds	r3, r6, r3
 1318 002c 5B7A     		ldrb	r3, [r3, #9]
 1319              	.LBB56:
 1320              	.LBB57:
 113:../../../../../../Middlewares/Third_Party/LoRaWAN/Mac/region/RegionKR920.c **** 
 1321              		.loc 1 113 0
 1322 002e A578     		ldrb	r5, [r4, #2]
 1323              	.LBE57:
 1324              	.LBE56:
 586:../../../../../../Middlewares/Third_Party/LoRaWAN/Mac/region/RegionKR920.c ****     uint32_t bandwidth = GetBandwidth( txConfig->Datarate );
 1325              		.loc 1 586 0
 1326 0030 0C33     		adds	r3, r3, #12
 1327 0032 1B01     		lsls	r3, r3, #4
 1328 0034 F318     		adds	r3, r6, r3
 1329              	.LBB61:
 1330              	.LBB58:
 113:../../../../../../Middlewares/Third_Party/LoRaWAN/Mac/region/RegionKR920.c **** 
 1331              		.loc 1 113 0
 1332 0036 9B78     		ldrb	r3, [r3, #2]
 1333              	.LBE58:
 1334              	.LBE61:
 584:../../../../../../Middlewares/Third_Party/LoRaWAN/Mac/region/RegionKR920.c ****     int8_t phyDr = DataratesKR920[txConfig->Datarate];
 1335              		.loc 1 584 0
 1336 0038 8DB0     		sub	sp, sp, #52
 1337              	.LCFI18:
 1338              		.cfi_def_cfa_offset 88
 1339              	.LBB62:
 1340              	.LBB59:
 113:../../../../../../Middlewares/Third_Party/LoRaWAN/Mac/region/RegionKR920.c **** 
 1341              		.loc 1 113 0
 1342 003a 9C46     		mov	ip, r3
 1343 003c 5BB2     		sxtb	r3, r3
 1344 003e 0A93     		str	r3, [sp, #40]
 1345 0040 6BB2     		sxtb	r3, r5
 1346 0042 9846     		mov	r8, r3
 1347 0044 0A9B     		ldr	r3, [sp, #40]
 1348 0046 4345     		cmp	r3, r8
 1349 0048 00DA     		bge	.L103
 1350 004a AC46     		mov	ip, r5
 1351              	.L103:
 1352 004c 6346     		mov	r3, ip
 1353              	.LBE59:
 1354              	.LBE62:
 1355              	.LBB63:
 1356              	.LBB64:
  96:../../../../../../Middlewares/Third_Party/LoRaWAN/Mac/region/RegionKR920.c ****     {
 1357              		.loc 1 96 0
ARM GAS  C:\Users\EBANO_~1\AppData\Local\Temp\ccLo4wHn.s 			page 45


 1358 004e 8900     		lsls	r1, r1, #2
 1359              	.LVL105:
 1360              	.LBE64:
 1361              	.LBE63:
 1362              	.LBB67:
 1363              	.LBB60:
 113:../../../../../../Middlewares/Third_Party/LoRaWAN/Mac/region/RegionKR920.c **** 
 1364              		.loc 1 113 0
 1365 0050 5DB2     		sxtb	r5, r3
 1366              	.LVL106:
 1367              	.LBE60:
 1368              	.LBE67:
 1369              	.LBB68:
 1370              	.LBB65:
  96:../../../../../../Middlewares/Third_Party/LoRaWAN/Mac/region/RegionKR920.c ****     {
 1371              		.loc 1 96 0
 1372 0052 7B58     		ldr	r3, [r7, r1]
 1373 0054 2F49     		ldr	r1, .L111+8
 1374 0056 8B42     		cmp	r3, r1
 1375 0058 54D0     		beq	.L109
 100:../../../../../../Middlewares/Third_Party/LoRaWAN/Mac/region/RegionKR920.c ****         case 250000:
 1376              		.loc 1 100 0
 1377 005a 2F49     		ldr	r1, .L111+12
 1378 005c 8C46     		mov	ip, r1
 1379 005e 6344     		add	r3, r3, ip
 1380 0060 5942     		rsbs	r1, r3, #0
 1381 0062 4B41     		adcs	r3, r3, r1
 1382 0064 5B00     		lsls	r3, r3, #1
 1383 0066 0A93     		str	r3, [sp, #40]
 1384              	.L105:
 1385              	.LVL107:
 1386              	.LBE65:
 1387              	.LBE68:
 588:../../../../../../Middlewares/Third_Party/LoRaWAN/Mac/region/RegionKR920.c ****     int8_t phyTxPower = 0;
 1388              		.loc 1 588 0
 1389 0068 1218     		adds	r2, r2, r0
 1390 006a 9200     		lsls	r2, r2, #2
 1391              	.LBB69:
 1392              	.LBB70:
  86:../../../../../../Middlewares/Third_Party/LoRaWAN/Mac/region/RegionKR920.c ****     {// Limit to 14dBm
 1393              		.loc 1 86 0
 1394 006c 2B4B     		ldr	r3, .L111+16
 1395 006e B258     		ldr	r2, [r6, r2]
 1396 0070 9A42     		cmp	r2, r3
 1397 0072 44D9     		bls	.L110
 1398 0074 2A4B     		ldr	r3, .L111+20
 1399 0076 9846     		mov	r8, r3
 1400              	.L107:
 1401              	.LVL108:
 1402              	.LBE70:
 1403              	.LBE69:
 593:../../../../../../Middlewares/Third_Party/LoRaWAN/Mac/region/RegionKR920.c **** 
 1404              		.loc 1 593 0
 1405 0078 6768     		ldr	r7, [r4, #4]
 1406 007a 4146     		mov	r1, r8
 1407 007c 381C     		adds	r0, r7, #0
 1408 007e FFF7FEFF 		bl	__aeabi_fcmplt
ARM GAS  C:\Users\EBANO_~1\AppData\Local\Temp\ccLo4wHn.s 			page 46


 1409              	.LVL109:
 1410 0082 0028     		cmp	r0, #0
 1411 0084 00D1     		bne	.L108
 1412 0086 4746     		mov	r7, r8
 1413              	.L108:
 1414              	.LVL110:
 596:../../../../../../Middlewares/Third_Party/LoRaWAN/Mac/region/RegionKR920.c **** 
 1415              		.loc 1 596 0 discriminator 4
 1416 0088 391C     		adds	r1, r7, #0
 1417 008a A268     		ldr	r2, [r4, #8]
 1418 008c 2800     		movs	r0, r5
 1419 008e FFF7FEFF 		bl	RegionCommonComputeTxPower
 1420              	.LVL111:
 599:../../../../../../Middlewares/Third_Party/LoRaWAN/Mac/region/RegionKR920.c **** 
 1421              		.loc 1 599 0 discriminator 4
 1422 0092 2278     		ldrb	r2, [r4]
 596:../../../../../../Middlewares/Third_Party/LoRaWAN/Mac/region/RegionKR920.c **** 
 1423              		.loc 1 596 0 discriminator 4
 1424 0094 0700     		movs	r7, r0
 1425              	.LVL112:
 599:../../../../../../Middlewares/Third_Party/LoRaWAN/Mac/region/RegionKR920.c **** 
 1426              		.loc 1 599 0 discriminator 4
 1427 0096 5300     		lsls	r3, r2, #1
 1428 0098 9B18     		adds	r3, r3, r2
 1429 009a 9B00     		lsls	r3, r3, #2
 1430 009c F058     		ldr	r0, [r6, r3]
 1431 009e 214E     		ldr	r6, .L111+24
 1432 00a0 7369     		ldr	r3, [r6, #20]
 1433 00a2 0B93     		str	r3, [sp, #44]
 1434 00a4 9847     		blx	r3
 1435              	.LVL113:
 601:../../../../../../Middlewares/Third_Party/LoRaWAN/Mac/region/RegionKR920.c ****     TVL1( PRINTF( "TX on freq %d Hz at DR %d\n\r", NvmCtx.Channels[txConfig->Channel].Frequency, tx
 1436              		.loc 1 601 0 discriminator 4
 1437 00a6 204B     		ldr	r3, .L111+28
 1438 00a8 0122     		movs	r2, #1
 1439 00aa 0893     		str	r3, [sp, #32]
 1440 00ac 0023     		movs	r3, #0
 1441 00ae 0793     		str	r3, [sp, #28]
 1442 00b0 0693     		str	r3, [sp, #24]
 1443 00b2 0593     		str	r3, [sp, #20]
 1444 00b4 0393     		str	r3, [sp, #12]
 1445 00b6 0833     		adds	r3, r3, #8
 1446 00b8 0293     		str	r3, [sp, #8]
 1447 00ba 5B46     		mov	r3, fp
 1448 00bc 0093     		str	r3, [sp]
 1449 00be 736A     		ldr	r3, [r6, #36]
 1450 00c0 0492     		str	r2, [sp, #16]
 1451 00c2 0B93     		str	r3, [sp, #44]
 1452 00c4 0192     		str	r2, [sp, #4]
 1453 00c6 0A9B     		ldr	r3, [sp, #40]
 1454 00c8 0022     		movs	r2, #0
 1455 00ca 3900     		movs	r1, r7
 1456 00cc 0120     		movs	r0, #1
 1457 00ce 0B9F     		ldr	r7, [sp, #44]
 1458              	.LVL114:
 1459 00d0 B847     		blx	r7
 1460              	.LVL115:
ARM GAS  C:\Users\EBANO_~1\AppData\Local\Temp\ccLo4wHn.s 			page 47


 605:../../../../../../Middlewares/Third_Party/LoRaWAN/Mac/region/RegionKR920.c ****     // Get the time-on-air of the next tx frame
 1461              		.loc 1 605 0 discriminator 4
 1462 00d2 F36D     		ldr	r3, [r6, #92]
 1463 00d4 217B     		ldrb	r1, [r4, #12]
 1464 00d6 0120     		movs	r0, #1
 1465 00d8 0A93     		str	r3, [sp, #40]
 1466 00da 9847     		blx	r3
 1467              	.LVL116:
 607:../../../../../../Middlewares/Third_Party/LoRaWAN/Mac/region/RegionKR920.c **** 
 1468              		.loc 1 607 0 discriminator 4
 1469 00dc F36A     		ldr	r3, [r6, #44]
 1470 00de 217B     		ldrb	r1, [r4, #12]
 1471 00e0 0120     		movs	r0, #1
 1472 00e2 0A93     		str	r3, [sp, #40]
 1473 00e4 9847     		blx	r3
 1474              	.LVL117:
 1475 00e6 5346     		mov	r3, r10
 1476 00e8 1860     		str	r0, [r3]
 609:../../../../../../Middlewares/Third_Party/LoRaWAN/Mac/region/RegionKR920.c ****     return true;
 1477              		.loc 1 609 0 discriminator 4
 1478 00ea 4B46     		mov	r3, r9
 611:../../../../../../Middlewares/Third_Party/LoRaWAN/Mac/region/RegionKR920.c **** 
 1479              		.loc 1 611 0 discriminator 4
 1480 00ec 0120     		movs	r0, #1
 609:../../../../../../Middlewares/Third_Party/LoRaWAN/Mac/region/RegionKR920.c ****     return true;
 1481              		.loc 1 609 0 discriminator 4
 1482 00ee 1D70     		strb	r5, [r3]
 611:../../../../../../Middlewares/Third_Party/LoRaWAN/Mac/region/RegionKR920.c **** 
 1483              		.loc 1 611 0 discriminator 4
 1484 00f0 0DB0     		add	sp, sp, #52
 1485              		@ sp needed
 1486              	.LVL118:
 1487              	.LVL119:
 1488              	.LVL120:
 1489              	.LVL121:
 1490 00f2 3CBC     		pop	{r2, r3, r4, r5}
 1491 00f4 9046     		mov	r8, r2
 1492 00f6 9946     		mov	r9, r3
 1493 00f8 A246     		mov	r10, r4
 1494 00fa AB46     		mov	fp, r5
 1495 00fc F0BD     		pop	{r4, r5, r6, r7, pc}
 1496              	.LVL122:
 1497              	.L110:
 1498              	.LBB72:
 1499              	.LBB71:
  86:../../../../../../Middlewares/Third_Party/LoRaWAN/Mac/region/RegionKR920.c ****     {// Limit to 14dBm
 1500              		.loc 1 86 0
 1501 00fe 0B4B     		ldr	r3, .L111+32
 1502 0100 9846     		mov	r8, r3
 1503 0102 B9E7     		b	.L107
 1504              	.LVL123:
 1505              	.L109:
 1506              	.LBE71:
 1507              	.LBE72:
 1508              	.LBB73:
 1509              	.LBB66:
 102:../../../../../../Middlewares/Third_Party/LoRaWAN/Mac/region/RegionKR920.c ****         case 500000:
ARM GAS  C:\Users\EBANO_~1\AppData\Local\Temp\ccLo4wHn.s 			page 48


 1510              		.loc 1 102 0
 1511 0104 0123     		movs	r3, #1
 1512 0106 0A93     		str	r3, [sp, #40]
 1513 0108 AEE7     		b	.L105
 1514              	.L112:
 1515 010a C046     		.align	2
 1516              	.L111:
 1517 010c AC000000 		.word	.LANCHOR1
 1518 0110 00000000 		.word	NvmCtx
 1519 0114 90D00300 		.word	250000
 1520 0118 E05EF8FF 		.word	-500000
 1521 011c 1F21F636 		.word	922099999
 1522 0120 00006041 		.word	1096810496
 1523 0124 00000000 		.word	Radio
 1524 0128 B80B0000 		.word	3000
 1525 012c 00002041 		.word	1092616192
 1526              	.LBE66:
 1527              	.LBE73:
 1528              		.cfi_endproc
 1529              	.LFE54:
 1530              		.size	RegionKR920TxConfig, .-RegionKR920TxConfig
 1531              		.section	.text.RegionKR920LinkAdrReq,"ax",%progbits
 1532              		.align	1
 1533              		.p2align 2,,3
 1534              		.global	RegionKR920LinkAdrReq
 1535              		.syntax unified
 1536              		.code	16
 1537              		.thumb_func
 1538              		.fpu softvfp
 1539              		.type	RegionKR920LinkAdrReq, %function
 1540              	RegionKR920LinkAdrReq:
 1541              	.LFB55:
 614:../../../../../../Middlewares/Third_Party/LoRaWAN/Mac/region/RegionKR920.c ****     uint8_t status = 0x07;
 1542              		.loc 1 614 0
 1543              		.cfi_startproc
 1544              		@ args = 4, pretend = 0, frame = 56
 1545              		@ frame_needed = 0, uses_anonymous_args = 0
 1546              	.LVL124:
 1547 0000 F0B5     		push	{r4, r5, r6, r7, lr}
 1548              	.LCFI19:
 1549              		.cfi_def_cfa_offset 20
 1550              		.cfi_offset 4, -20
 1551              		.cfi_offset 5, -16
 1552              		.cfi_offset 6, -12
 1553              		.cfi_offset 7, -8
 1554              		.cfi_offset 14, -4
 1555 0002 5746     		mov	r7, r10
 1556 0004 4E46     		mov	r6, r9
 1557 0006 4546     		mov	r5, r8
 1558 0008 DE46     		mov	lr, fp
 1559 000a E0B5     		push	{r5, r6, r7, lr}
 1560              	.LCFI20:
 1561              		.cfi_def_cfa_offset 36
 1562              		.cfi_offset 8, -36
 1563              		.cfi_offset 9, -32
 1564              		.cfi_offset 10, -28
 1565              		.cfi_offset 11, -24
ARM GAS  C:\Users\EBANO_~1\AppData\Local\Temp\ccLo4wHn.s 			page 49


 1566 000c 8FB0     		sub	sp, sp, #60
 1567              	.LCFI21:
 1568              		.cfi_def_cfa_offset 96
 614:../../../../../../Middlewares/Third_Party/LoRaWAN/Mac/region/RegionKR920.c ****     uint8_t status = 0x07;
 1569              		.loc 1 614 0
 1570 000e 0193     		str	r3, [sp, #4]
 619:../../../../../../Middlewares/Third_Party/LoRaWAN/Mac/region/RegionKR920.c ****     GetPhyParams_t getPhy;
 1571              		.loc 1 619 0
 1572 0010 0023     		movs	r3, #0
 1573              	.LVL125:
 614:../../../../../../Middlewares/Third_Party/LoRaWAN/Mac/region/RegionKR920.c ****     uint8_t status = 0x07;
 1574              		.loc 1 614 0
 1575 0012 9246     		mov	r10, r2
 619:../../../../../../Middlewares/Third_Party/LoRaWAN/Mac/region/RegionKR920.c ****     GetPhyParams_t getPhy;
 1576              		.loc 1 619 0
 1577 0014 02AA     		add	r2, sp, #8
 1578              	.LVL126:
 1579 0016 D380     		strh	r3, [r2, #6]
 615:../../../../../../Middlewares/Third_Party/LoRaWAN/Mac/region/RegionKR920.c ****     RegionCommonLinkAdrParams_t linkAdrParams;
 1580              		.loc 1 615 0
 1581 0018 0733     		adds	r3, r3, #7
 614:../../../../../../Middlewares/Third_Party/LoRaWAN/Mac/region/RegionKR920.c ****     uint8_t status = 0x07;
 1582              		.loc 1 614 0
 1583 001a 0600     		movs	r6, r0
 1584 001c 8B46     		mov	fp, r1
 618:../../../../../../Middlewares/Third_Party/LoRaWAN/Mac/region/RegionKR920.c ****     uint16_t chMask = 0;
 1585              		.loc 1 618 0
 1586 001e 0024     		movs	r4, #0
 615:../../../../../../Middlewares/Third_Party/LoRaWAN/Mac/region/RegionKR920.c ****     RegionCommonLinkAdrParams_t linkAdrParams;
 1587              		.loc 1 615 0
 1588 0020 9946     		mov	r9, r3
 1589              	.LBB79:
 658:../../../../../../Middlewares/Third_Party/LoRaWAN/Mac/region/RegionKR920.c ****                     {
 1590              		.loc 1 658 0
 1591 0022 9846     		mov	r8, r3
 1592 0024 B44F     		ldr	r7, .L269
 1593 0026 04AD     		add	r5, sp, #16
 1594              	.LVL127:
 1595              	.L114:
 1596              	.LBE79:
 624:../../../../../../Middlewares/Third_Party/LoRaWAN/Mac/region/RegionKR920.c ****     {
 1597              		.loc 1 624 0
 1598 0028 337A     		ldrb	r3, [r6, #8]
 1599 002a A342     		cmp	r3, r4
 1600 002c 00D8     		bhi	.LCB1437
 1601 002e 93E0     		b	.L159	@long jump
 1602              	.LCB1437:
 1603              	.L158:
 627:../../../../../../Middlewares/Third_Party/LoRaWAN/Mac/region/RegionKR920.c **** 
 1604              		.loc 1 627 0
 1605 0030 7368     		ldr	r3, [r6, #4]
 1606 0032 2900     		movs	r1, r5
 1607 0034 1819     		adds	r0, r3, r4
 1608 0036 FFF7FEFF 		bl	RegionCommonParseLinkAdrReq
 1609              	.LVL128:
 629:../../../../../../Middlewares/Third_Party/LoRaWAN/Mac/region/RegionKR920.c ****             break; // break loop, since no more request has been found
 1610              		.loc 1 629 0
ARM GAS  C:\Users\EBANO_~1\AppData\Local\Temp\ccLo4wHn.s 			page 50


 1611 003a 0028     		cmp	r0, #0
 1612 003c 00D1     		bne	.LCB1449
 1613 003e 8BE0     		b	.L159	@long jump
 1614              	.LCB1449:
 639:../../../../../../Middlewares/Third_Party/LoRaWAN/Mac/region/RegionKR920.c **** 
 1615              		.loc 1 639 0
 1616 0040 AB88     		ldrh	r3, [r5, #4]
 1617 0042 02AA     		add	r2, sp, #8
 1618 0044 D380     		strh	r3, [r2, #6]
 642:../../../../../../Middlewares/Third_Party/LoRaWAN/Mac/region/RegionKR920.c ****         {
 1619              		.loc 1 642 0
 1620 0046 EA78     		ldrb	r2, [r5, #3]
 633:../../../../../../Middlewares/Third_Party/LoRaWAN/Mac/region/RegionKR920.c **** 
 1621              		.loc 1 633 0
 1622 0048 2418     		adds	r4, r4, r0
 1623              	.LVL129:
 1624 004a E4B2     		uxtb	r4, r4
 1625              	.LVL130:
 639:../../../../../../Middlewares/Third_Party/LoRaWAN/Mac/region/RegionKR920.c **** 
 1626              		.loc 1 639 0
 1627 004c 181C     		adds	r0, r3, #0
 1628              	.LVL131:
 642:../../../../../../Middlewares/Third_Party/LoRaWAN/Mac/region/RegionKR920.c ****         {
 1629              		.loc 1 642 0
 1630 004e 002A     		cmp	r2, #0
 1631 0050 00D0     		beq	.LCB1462
 1632 0052 BFE0     		b	.L118	@long jump
 1633              	.LCB1462:
 644:../../../../../../Middlewares/Third_Party/LoRaWAN/Mac/region/RegionKR920.c ****         }
 1634              		.loc 1 644 0 discriminator 1
 1635 0054 0632     		adds	r2, r2, #6
 1636 0056 9146     		mov	r9, r2
 642:../../../../../../Middlewares/Third_Party/LoRaWAN/Mac/region/RegionKR920.c ****         {
 1637              		.loc 1 642 0 discriminator 1
 1638 0058 002B     		cmp	r3, #0
 1639 005a E5D0     		beq	.L114
 1640              	.LVL132:
 1641              	.LBB80:
 665:../../../../../../Middlewares/Third_Party/LoRaWAN/Mac/region/RegionKR920.c ****                         ( NvmCtx.Channels[i].Frequency == 0 ) )
 1642              		.loc 1 665 0
 1643 005c 0722     		movs	r2, #7
 1644 005e 9146     		mov	r9, r2
 1645 0060 DA07     		lsls	r2, r3, #31
 1646 0062 04D5     		bpl	.L122
 1647 0064 3A68     		ldr	r2, [r7]
 1648 0066 511E     		subs	r1, r2, #1
 1649 0068 8A41     		sbcs	r2, r2, r1
 1650 006a 0632     		adds	r2, r2, #6
 1651 006c 9146     		mov	r9, r2
 1652              	.L122:
 1653              	.LVL133:
 1654 006e 9A07     		lsls	r2, r3, #30
 1655 0070 04D5     		bpl	.L123
 1656 0072 FA68     		ldr	r2, [r7, #12]
 1657 0074 002A     		cmp	r2, #0
 1658 0076 01D1     		bne	.L123
 668:../../../../../../Middlewares/Third_Party/LoRaWAN/Mac/region/RegionKR920.c ****                     }
ARM GAS  C:\Users\EBANO_~1\AppData\Local\Temp\ccLo4wHn.s 			page 51


 1659              		.loc 1 668 0
 1660 0078 0632     		adds	r2, r2, #6
 1661 007a 9146     		mov	r9, r2
 1662              	.LVL134:
 1663              	.L123:
 665:../../../../../../Middlewares/Third_Party/LoRaWAN/Mac/region/RegionKR920.c ****                         ( NvmCtx.Channels[i].Frequency == 0 ) )
 1664              		.loc 1 665 0
 1665 007c 5A07     		lsls	r2, r3, #29
 1666 007e 04D5     		bpl	.L124
 1667 0080 BA69     		ldr	r2, [r7, #24]
 1668 0082 002A     		cmp	r2, #0
 1669 0084 01D1     		bne	.L124
 668:../../../../../../Middlewares/Third_Party/LoRaWAN/Mac/region/RegionKR920.c ****                     }
 1670              		.loc 1 668 0
 1671 0086 0632     		adds	r2, r2, #6
 1672 0088 9146     		mov	r9, r2
 1673              	.LVL135:
 1674              	.L124:
 665:../../../../../../Middlewares/Third_Party/LoRaWAN/Mac/region/RegionKR920.c ****                         ( NvmCtx.Channels[i].Frequency == 0 ) )
 1675              		.loc 1 665 0
 1676 008a 1A07     		lsls	r2, r3, #28
 1677 008c 04D5     		bpl	.L125
 1678 008e 7A6A     		ldr	r2, [r7, #36]
 1679 0090 002A     		cmp	r2, #0
 1680 0092 01D1     		bne	.L125
 668:../../../../../../Middlewares/Third_Party/LoRaWAN/Mac/region/RegionKR920.c ****                     }
 1681              		.loc 1 668 0
 1682 0094 0632     		adds	r2, r2, #6
 1683 0096 9146     		mov	r9, r2
 1684              	.LVL136:
 1685              	.L125:
 665:../../../../../../Middlewares/Third_Party/LoRaWAN/Mac/region/RegionKR920.c ****                         ( NvmCtx.Channels[i].Frequency == 0 ) )
 1686              		.loc 1 665 0
 1687 0098 DA06     		lsls	r2, r3, #27
 1688 009a 04D5     		bpl	.L126
 1689 009c 3A6B     		ldr	r2, [r7, #48]
 1690 009e 002A     		cmp	r2, #0
 1691 00a0 01D1     		bne	.L126
 668:../../../../../../Middlewares/Third_Party/LoRaWAN/Mac/region/RegionKR920.c ****                     }
 1692              		.loc 1 668 0
 1693 00a2 0632     		adds	r2, r2, #6
 1694 00a4 9146     		mov	r9, r2
 1695              	.LVL137:
 1696              	.L126:
 665:../../../../../../Middlewares/Third_Party/LoRaWAN/Mac/region/RegionKR920.c ****                         ( NvmCtx.Channels[i].Frequency == 0 ) )
 1697              		.loc 1 665 0
 1698 00a6 9A06     		lsls	r2, r3, #26
 1699 00a8 04D5     		bpl	.L127
 1700 00aa FA6B     		ldr	r2, [r7, #60]
 1701 00ac 002A     		cmp	r2, #0
 1702 00ae 01D1     		bne	.L127
 668:../../../../../../Middlewares/Third_Party/LoRaWAN/Mac/region/RegionKR920.c ****                     }
 1703              		.loc 1 668 0
 1704 00b0 0632     		adds	r2, r2, #6
 1705 00b2 9146     		mov	r9, r2
 1706              	.LVL138:
 1707              	.L127:
ARM GAS  C:\Users\EBANO_~1\AppData\Local\Temp\ccLo4wHn.s 			page 52


 665:../../../../../../Middlewares/Third_Party/LoRaWAN/Mac/region/RegionKR920.c ****                         ( NvmCtx.Channels[i].Frequency == 0 ) )
 1708              		.loc 1 665 0
 1709 00b4 5A06     		lsls	r2, r3, #25
 1710 00b6 04D5     		bpl	.L128
 1711 00b8 BA6C     		ldr	r2, [r7, #72]
 1712 00ba 002A     		cmp	r2, #0
 1713 00bc 01D1     		bne	.L128
 668:../../../../../../Middlewares/Third_Party/LoRaWAN/Mac/region/RegionKR920.c ****                     }
 1714              		.loc 1 668 0
 1715 00be 0632     		adds	r2, r2, #6
 1716 00c0 9146     		mov	r9, r2
 1717              	.LVL139:
 1718              	.L128:
 665:../../../../../../Middlewares/Third_Party/LoRaWAN/Mac/region/RegionKR920.c ****                         ( NvmCtx.Channels[i].Frequency == 0 ) )
 1719              		.loc 1 665 0
 1720 00c2 1A06     		lsls	r2, r3, #24
 1721 00c4 04D5     		bpl	.L129
 1722 00c6 7A6D     		ldr	r2, [r7, #84]
 1723 00c8 002A     		cmp	r2, #0
 1724 00ca 01D1     		bne	.L129
 668:../../../../../../Middlewares/Third_Party/LoRaWAN/Mac/region/RegionKR920.c ****                     }
 1725              		.loc 1 668 0
 1726 00cc 0632     		adds	r2, r2, #6
 1727 00ce 9146     		mov	r9, r2
 1728              	.LVL140:
 1729              	.L129:
 665:../../../../../../Middlewares/Third_Party/LoRaWAN/Mac/region/RegionKR920.c ****                         ( NvmCtx.Channels[i].Frequency == 0 ) )
 1730              		.loc 1 665 0
 1731 00d0 DA05     		lsls	r2, r3, #23
 1732 00d2 04D5     		bpl	.L130
 1733 00d4 3A6E     		ldr	r2, [r7, #96]
 1734 00d6 002A     		cmp	r2, #0
 1735 00d8 01D1     		bne	.L130
 668:../../../../../../Middlewares/Third_Party/LoRaWAN/Mac/region/RegionKR920.c ****                     }
 1736              		.loc 1 668 0
 1737 00da 0632     		adds	r2, r2, #6
 1738 00dc 9146     		mov	r9, r2
 1739              	.LVL141:
 1740              	.L130:
 665:../../../../../../Middlewares/Third_Party/LoRaWAN/Mac/region/RegionKR920.c ****                         ( NvmCtx.Channels[i].Frequency == 0 ) )
 1741              		.loc 1 665 0
 1742 00de 9A05     		lsls	r2, r3, #22
 1743 00e0 04D5     		bpl	.L131
 1744 00e2 FA6E     		ldr	r2, [r7, #108]
 1745 00e4 002A     		cmp	r2, #0
 1746 00e6 01D1     		bne	.L131
 668:../../../../../../Middlewares/Third_Party/LoRaWAN/Mac/region/RegionKR920.c ****                     }
 1747              		.loc 1 668 0
 1748 00e8 0632     		adds	r2, r2, #6
 1749 00ea 9146     		mov	r9, r2
 1750              	.LVL142:
 1751              	.L131:
 665:../../../../../../Middlewares/Third_Party/LoRaWAN/Mac/region/RegionKR920.c ****                         ( NvmCtx.Channels[i].Frequency == 0 ) )
 1752              		.loc 1 665 0
 1753 00ec 5A05     		lsls	r2, r3, #21
 1754 00ee 04D5     		bpl	.L132
 1755 00f0 BA6F     		ldr	r2, [r7, #120]
ARM GAS  C:\Users\EBANO_~1\AppData\Local\Temp\ccLo4wHn.s 			page 53


 1756 00f2 002A     		cmp	r2, #0
 1757 00f4 01D1     		bne	.L132
 668:../../../../../../Middlewares/Third_Party/LoRaWAN/Mac/region/RegionKR920.c ****                     }
 1758              		.loc 1 668 0
 1759 00f6 0632     		adds	r2, r2, #6
 1760 00f8 9146     		mov	r9, r2
 1761              	.LVL143:
 1762              	.L132:
 665:../../../../../../Middlewares/Third_Party/LoRaWAN/Mac/region/RegionKR920.c ****                         ( NvmCtx.Channels[i].Frequency == 0 ) )
 1763              		.loc 1 665 0
 1764 00fa 1A05     		lsls	r2, r3, #20
 1765 00fc 05D5     		bpl	.L133
 666:../../../../../../Middlewares/Third_Party/LoRaWAN/Mac/region/RegionKR920.c ****                     {// Trying to enable an undefined channel
 1766              		.loc 1 666 0
 1767 00fe 8422     		movs	r2, #132
 665:../../../../../../Middlewares/Third_Party/LoRaWAN/Mac/region/RegionKR920.c ****                         ( NvmCtx.Channels[i].Frequency == 0 ) )
 1768              		.loc 1 665 0
 1769 0100 BA58     		ldr	r2, [r7, r2]
 1770 0102 002A     		cmp	r2, #0
 1771 0104 01D1     		bne	.L133
 668:../../../../../../Middlewares/Third_Party/LoRaWAN/Mac/region/RegionKR920.c ****                     }
 1772              		.loc 1 668 0
 1773 0106 0632     		adds	r2, r2, #6
 1774 0108 9146     		mov	r9, r2
 1775              	.LVL144:
 1776              	.L133:
 665:../../../../../../Middlewares/Third_Party/LoRaWAN/Mac/region/RegionKR920.c ****                         ( NvmCtx.Channels[i].Frequency == 0 ) )
 1777              		.loc 1 665 0
 1778 010a DA04     		lsls	r2, r3, #19
 1779 010c 05D5     		bpl	.L134
 666:../../../../../../Middlewares/Third_Party/LoRaWAN/Mac/region/RegionKR920.c ****                     {// Trying to enable an undefined channel
 1780              		.loc 1 666 0
 1781 010e 9022     		movs	r2, #144
 665:../../../../../../Middlewares/Third_Party/LoRaWAN/Mac/region/RegionKR920.c ****                         ( NvmCtx.Channels[i].Frequency == 0 ) )
 1782              		.loc 1 665 0
 1783 0110 BA58     		ldr	r2, [r7, r2]
 1784 0112 002A     		cmp	r2, #0
 1785 0114 01D1     		bne	.L134
 668:../../../../../../Middlewares/Third_Party/LoRaWAN/Mac/region/RegionKR920.c ****                     }
 1786              		.loc 1 668 0
 1787 0116 0632     		adds	r2, r2, #6
 1788 0118 9146     		mov	r9, r2
 1789              	.LVL145:
 1790              	.L134:
 665:../../../../../../Middlewares/Third_Party/LoRaWAN/Mac/region/RegionKR920.c ****                         ( NvmCtx.Channels[i].Frequency == 0 ) )
 1791              		.loc 1 665 0
 1792 011a 9A04     		lsls	r2, r3, #18
 1793 011c 05D5     		bpl	.L135
 666:../../../../../../Middlewares/Third_Party/LoRaWAN/Mac/region/RegionKR920.c ****                     {// Trying to enable an undefined channel
 1794              		.loc 1 666 0
 1795 011e 9C22     		movs	r2, #156
 665:../../../../../../Middlewares/Third_Party/LoRaWAN/Mac/region/RegionKR920.c ****                         ( NvmCtx.Channels[i].Frequency == 0 ) )
 1796              		.loc 1 665 0
 1797 0120 BA58     		ldr	r2, [r7, r2]
 1798 0122 002A     		cmp	r2, #0
 1799 0124 01D1     		bne	.L135
 668:../../../../../../Middlewares/Third_Party/LoRaWAN/Mac/region/RegionKR920.c ****                     }
ARM GAS  C:\Users\EBANO_~1\AppData\Local\Temp\ccLo4wHn.s 			page 54


 1800              		.loc 1 668 0
 1801 0126 0632     		adds	r2, r2, #6
 1802 0128 9146     		mov	r9, r2
 1803              	.LVL146:
 1804              	.L135:
 665:../../../../../../Middlewares/Third_Party/LoRaWAN/Mac/region/RegionKR920.c ****                         ( NvmCtx.Channels[i].Frequency == 0 ) )
 1805              		.loc 1 665 0
 1806 012a 5A04     		lsls	r2, r3, #17
 1807 012c 05D5     		bpl	.L136
 666:../../../../../../Middlewares/Third_Party/LoRaWAN/Mac/region/RegionKR920.c ****                     {// Trying to enable an undefined channel
 1808              		.loc 1 666 0
 1809 012e A822     		movs	r2, #168
 665:../../../../../../Middlewares/Third_Party/LoRaWAN/Mac/region/RegionKR920.c ****                         ( NvmCtx.Channels[i].Frequency == 0 ) )
 1810              		.loc 1 665 0
 1811 0130 BA58     		ldr	r2, [r7, r2]
 1812 0132 002A     		cmp	r2, #0
 1813 0134 01D1     		bne	.L136
 668:../../../../../../Middlewares/Third_Party/LoRaWAN/Mac/region/RegionKR920.c ****                     }
 1814              		.loc 1 668 0
 1815 0136 0632     		adds	r2, r2, #6
 1816 0138 9146     		mov	r9, r2
 1817              	.LVL147:
 1818              	.L136:
 665:../../../../../../Middlewares/Third_Party/LoRaWAN/Mac/region/RegionKR920.c ****                         ( NvmCtx.Channels[i].Frequency == 0 ) )
 1819              		.loc 1 665 0
 1820 013a 1BB2     		sxth	r3, r3
 1821 013c 002B     		cmp	r3, #0
 1822 013e 00DB     		blt	.LCB1712
 1823 0140 72E7     		b	.L114	@long jump
 1824              	.LCB1712:
 666:../../../../../../Middlewares/Third_Party/LoRaWAN/Mac/region/RegionKR920.c ****                     {// Trying to enable an undefined channel
 1825              		.loc 1 666 0
 1826 0142 B423     		movs	r3, #180
 665:../../../../../../Middlewares/Third_Party/LoRaWAN/Mac/region/RegionKR920.c ****                         ( NvmCtx.Channels[i].Frequency == 0 ) )
 1827              		.loc 1 665 0
 1828 0144 FB58     		ldr	r3, [r7, r3]
 1829 0146 002B     		cmp	r3, #0
 1830 0148 00D0     		beq	.LCB1716
 1831 014a 6DE7     		b	.L114	@long jump
 1832              	.LCB1716:
 668:../../../../../../Middlewares/Third_Party/LoRaWAN/Mac/region/RegionKR920.c ****                     }
 1833              		.loc 1 668 0
 1834 014c 0633     		adds	r3, r3, #6
 1835 014e 9946     		mov	r9, r3
 1836              	.LVL148:
 1837              	.LBE80:
 624:../../../../../../Middlewares/Third_Party/LoRaWAN/Mac/region/RegionKR920.c ****     {
 1838              		.loc 1 624 0
 1839 0150 337A     		ldrb	r3, [r6, #8]
 1840 0152 A342     		cmp	r3, r4
 1841 0154 00D9     		bls	.LCB1725
 1842 0156 6BE7     		b	.L158	@long jump
 1843              	.LCB1725:
 1844              	.LVL149:
 1845              	.L159:
 680:../../../../../../Middlewares/Third_Party/LoRaWAN/Mac/region/RegionKR920.c ****     linkAdrVerifyParams.AdrEnabled = linkAdrReq->AdrEnabled;
 1846              		.loc 1 680 0
ARM GAS  C:\Users\EBANO_~1\AppData\Local\Temp\ccLo4wHn.s 			page 55


 1847 0158 4B46     		mov	r3, r9
 1848 015a 06A8     		add	r0, sp, #24
 1849 015c 0371     		strb	r3, [r0, #4]
 681:../../../../../../Middlewares/Third_Party/LoRaWAN/Mac/region/RegionKR920.c ****     linkAdrVerifyParams.Datarate = linkAdrParams.Datarate;
 1850              		.loc 1 681 0
 1851 015e B37A     		ldrb	r3, [r6, #10]
 698:../../../../../../Middlewares/Third_Party/LoRaWAN/Mac/region/RegionKR920.c **** 
 1852              		.loc 1 698 0
 1853 0160 02A9     		add	r1, sp, #8
 681:../../../../../../Middlewares/Third_Party/LoRaWAN/Mac/region/RegionKR920.c ****     linkAdrVerifyParams.Datarate = linkAdrParams.Datarate;
 1854              		.loc 1 681 0
 1855 0162 4371     		strb	r3, [r0, #5]
 682:../../../../../../Middlewares/Third_Party/LoRaWAN/Mac/region/RegionKR920.c ****     linkAdrVerifyParams.TxPower = linkAdrParams.TxPower;
 1856              		.loc 1 682 0
 1857 0164 6B78     		ldrb	r3, [r5, #1]
 698:../../../../../../Middlewares/Third_Party/LoRaWAN/Mac/region/RegionKR920.c **** 
 1858              		.loc 1 698 0
 1859 0166 8C46     		mov	ip, r1
 682:../../../../../../Middlewares/Third_Party/LoRaWAN/Mac/region/RegionKR920.c ****     linkAdrVerifyParams.TxPower = linkAdrParams.TxPower;
 1860              		.loc 1 682 0
 1861 0168 8371     		strb	r3, [r0, #6]
 683:../../../../../../Middlewares/Third_Party/LoRaWAN/Mac/region/RegionKR920.c ****     linkAdrVerifyParams.NbRep = linkAdrParams.NbRep;
 1862              		.loc 1 683 0
 1863 016a AB78     		ldrb	r3, [r5, #2]
 698:../../../../../../Middlewares/Third_Party/LoRaWAN/Mac/region/RegionKR920.c **** 
 1864              		.loc 1 698 0
 1865 016c 0A22     		movs	r2, #10
 683:../../../../../../Middlewares/Third_Party/LoRaWAN/Mac/region/RegionKR920.c ****     linkAdrVerifyParams.NbRep = linkAdrParams.NbRep;
 1866              		.loc 1 683 0
 1867 016e C371     		strb	r3, [r0, #7]
 684:../../../../../../Middlewares/Third_Party/LoRaWAN/Mac/region/RegionKR920.c ****     linkAdrVerifyParams.CurrentDatarate = linkAdrReq->CurrentDatarate;
 1868              		.loc 1 684 0
 1869 0170 2B78     		ldrb	r3, [r5]
 698:../../../../../../Middlewares/Third_Party/LoRaWAN/Mac/region/RegionKR920.c **** 
 1870              		.loc 1 698 0
 1871 0172 0921     		movs	r1, #9
 684:../../../../../../Middlewares/Third_Party/LoRaWAN/Mac/region/RegionKR920.c ****     linkAdrVerifyParams.CurrentDatarate = linkAdrReq->CurrentDatarate;
 1872              		.loc 1 684 0
 1873 0174 0372     		strb	r3, [r0, #8]
 685:../../../../../../Middlewares/Third_Party/LoRaWAN/Mac/region/RegionKR920.c ****     linkAdrVerifyParams.CurrentTxPower = linkAdrReq->CurrentTxPower;
 1874              		.loc 1 685 0
 1875 0176 F37A     		ldrb	r3, [r6, #11]
 698:../../../../../../Middlewares/Third_Party/LoRaWAN/Mac/region/RegionKR920.c **** 
 1876              		.loc 1 698 0
 1877 0178 6244     		add	r2, r2, ip
 685:../../../../../../Middlewares/Third_Party/LoRaWAN/Mac/region/RegionKR920.c ****     linkAdrVerifyParams.CurrentTxPower = linkAdrReq->CurrentTxPower;
 1878              		.loc 1 685 0
 1879 017a 4372     		strb	r3, [r0, #9]
 686:../../../../../../Middlewares/Third_Party/LoRaWAN/Mac/region/RegionKR920.c ****     linkAdrVerifyParams.CurrentNbRep = linkAdrReq->CurrentNbRep;
 1880              		.loc 1 686 0
 1881 017c 337B     		ldrb	r3, [r6, #12]
 698:../../../../../../Middlewares/Third_Party/LoRaWAN/Mac/region/RegionKR920.c **** 
 1882              		.loc 1 698 0
 1883 017e 6144     		add	r1, r1, ip
 686:../../../../../../Middlewares/Third_Party/LoRaWAN/Mac/region/RegionKR920.c ****     linkAdrVerifyParams.CurrentNbRep = linkAdrReq->CurrentNbRep;
 1884              		.loc 1 686 0
 1885 0180 8372     		strb	r3, [r0, #10]
ARM GAS  C:\Users\EBANO_~1\AppData\Local\Temp\ccLo4wHn.s 			page 56


 687:../../../../../../Middlewares/Third_Party/LoRaWAN/Mac/region/RegionKR920.c ****     linkAdrVerifyParams.NbChannels = KR920_MAX_NB_CHANNELS;
 1886              		.loc 1 687 0
 1887 0182 737B     		ldrb	r3, [r6, #13]
 692:../../../../../../Middlewares/Third_Party/LoRaWAN/Mac/region/RegionKR920.c ****     linkAdrVerifyParams.MinTxPower = KR920_MIN_TX_POWER;
 1888              		.loc 1 692 0
 1889 0184 8761     		str	r7, [r0, #24]
 687:../../../../../../Middlewares/Third_Party/LoRaWAN/Mac/region/RegionKR920.c ****     linkAdrVerifyParams.NbChannels = KR920_MAX_NB_CHANNELS;
 1890              		.loc 1 687 0
 1891 0186 C372     		strb	r3, [r0, #11]
 688:../../../../../../Middlewares/Third_Party/LoRaWAN/Mac/region/RegionKR920.c ****     linkAdrVerifyParams.ChannelsMask = &chMask;
 1892              		.loc 1 688 0
 1893 0188 1023     		movs	r3, #16
 1894 018a 0373     		strb	r3, [r0, #12]
 689:../../../../../../Middlewares/Third_Party/LoRaWAN/Mac/region/RegionKR920.c ****     linkAdrVerifyParams.MinDatarate = ( int8_t )phyParam.Value;
 1895              		.loc 1 689 0
 1896 018c 02AB     		add	r3, sp, #8
 1897 018e 0633     		adds	r3, r3, #6
 1898 0190 0361     		str	r3, [r0, #16]
 690:../../../../../../Middlewares/Third_Party/LoRaWAN/Mac/region/RegionKR920.c ****     linkAdrVerifyParams.MaxDatarate = KR920_TX_MAX_DATARATE;
 1899              		.loc 1 690 0
 1900 0192 A023     		movs	r3, #160
 1901 0194 DB00     		lsls	r3, r3, #3
 1902 0196 8382     		strh	r3, [r0, #20]
 693:../../../../../../Middlewares/Third_Party/LoRaWAN/Mac/region/RegionKR920.c ****     linkAdrVerifyParams.MaxTxPower = KR920_MAX_TX_POWER;
 1903              		.loc 1 693 0
 1904 0198 0723     		movs	r3, #7
 1905 019a 8383     		strh	r3, [r0, #28]
 695:../../../../../../Middlewares/Third_Party/LoRaWAN/Mac/region/RegionKR920.c **** 
 1906              		.loc 1 695 0
 1907 019c 3368     		ldr	r3, [r6]
 1908 019e 0693     		str	r3, [sp, #24]
 698:../../../../../../Middlewares/Third_Party/LoRaWAN/Mac/region/RegionKR920.c **** 
 1909              		.loc 1 698 0
 1910 01a0 2B00     		movs	r3, r5
 1911 01a2 FFF7FEFF 		bl	RegionCommonLinkAdrReqVerifyParams
 1912              	.LVL150:
 1913 01a6 0600     		movs	r6, r0
 1914              	.LVL151:
 701:../../../../../../Middlewares/Third_Party/LoRaWAN/Mac/region/RegionKR920.c ****     {
 1915              		.loc 1 701 0
 1916 01a8 0728     		cmp	r0, #7
 1917 01aa 00D1     		bne	.LCB1776
 1918 01ac 91E0     		b	.L267	@long jump
 1919              	.LCB1776:
 1920              	.LVL152:
 1921              	.L117:
 710:../../../../../../Middlewares/Third_Party/LoRaWAN/Mac/region/RegionKR920.c ****     *txPowOut = linkAdrParams.TxPower;
 1922              		.loc 1 710 0
 1923 01ae 5A46     		mov	r2, fp
 1924 01b0 6B78     		ldrb	r3, [r5, #1]
 716:../../../../../../Middlewares/Third_Party/LoRaWAN/Mac/region/RegionKR920.c **** 
 1925              		.loc 1 716 0
 1926 01b2 3000     		movs	r0, r6
 710:../../../../../../Middlewares/Third_Party/LoRaWAN/Mac/region/RegionKR920.c ****     *txPowOut = linkAdrParams.TxPower;
 1927              		.loc 1 710 0
 1928 01b4 1370     		strb	r3, [r2]
 711:../../../../../../Middlewares/Third_Party/LoRaWAN/Mac/region/RegionKR920.c ****     *nbRepOut = linkAdrParams.NbRep;
ARM GAS  C:\Users\EBANO_~1\AppData\Local\Temp\ccLo4wHn.s 			page 57


 1929              		.loc 1 711 0
 1930 01b6 5246     		mov	r2, r10
 1931 01b8 AB78     		ldrb	r3, [r5, #2]
 1932 01ba 1370     		strb	r3, [r2]
 712:../../../../../../Middlewares/Third_Party/LoRaWAN/Mac/region/RegionKR920.c ****     *nbBytesParsed = bytesProcessed;
 1933              		.loc 1 712 0
 1934 01bc 2B78     		ldrb	r3, [r5]
 1935 01be 019A     		ldr	r2, [sp, #4]
 1936 01c0 1370     		strb	r3, [r2]
 713:../../../../../../Middlewares/Third_Party/LoRaWAN/Mac/region/RegionKR920.c **** 
 1937              		.loc 1 713 0
 1938 01c2 189B     		ldr	r3, [sp, #96]
 1939 01c4 1C70     		strb	r4, [r3]
 716:../../../../../../Middlewares/Third_Party/LoRaWAN/Mac/region/RegionKR920.c **** 
 1940              		.loc 1 716 0
 1941 01c6 0FB0     		add	sp, sp, #60
 1942              		@ sp needed
 1943              	.LVL153:
 1944              	.LVL154:
 1945              	.LVL155:
 1946 01c8 3CBC     		pop	{r2, r3, r4, r5}
 1947 01ca 9046     		mov	r8, r2
 1948 01cc 9946     		mov	r9, r3
 1949 01ce A246     		mov	r10, r4
 1950 01d0 AB46     		mov	fp, r5
 1951 01d2 F0BD     		pop	{r4, r5, r6, r7, pc}
 1952              	.LVL156:
 1953              	.L118:
 644:../../../../../../Middlewares/Third_Party/LoRaWAN/Mac/region/RegionKR920.c ****         }
 1954              		.loc 1 644 0
 1955 01d4 0621     		movs	r1, #6
 1956 01d6 8946     		mov	r9, r1
 646:../../../../../../Middlewares/Third_Party/LoRaWAN/Mac/region/RegionKR920.c ****                 ( linkAdrParams.ChMaskCtrl >= 7 ) )
 1957              		.loc 1 646 0
 1958 01d8 511E     		subs	r1, r2, #1
 1959 01da 0429     		cmp	r1, #4
 1960 01dc 00D8     		bhi	.LCB1827
 1961 01de 23E7     		b	.L114	@long jump
 1962              	.LCB1827:
 646:../../../../../../Middlewares/Third_Party/LoRaWAN/Mac/region/RegionKR920.c ****                 ( linkAdrParams.ChMaskCtrl >= 7 ) )
 1963              		.loc 1 646 0 is_stmt 0 discriminator 1
 1964 01e0 062A     		cmp	r2, #6
 1965 01e2 00D0     		beq	.LCB1829
 1966 01e4 20E7     		b	.L114	@long jump
 1967              	.LCB1829:
 1968              	.LVL157:
 1969              	.LBB81:
 658:../../../../../../Middlewares/Third_Party/LoRaWAN/Mac/region/RegionKR920.c ****                     {
 1970              		.loc 1 658 0 is_stmt 1
 1971 01e6 3968     		ldr	r1, [r7]
 1972 01e8 0022     		movs	r2, #0
 1973 01ea 0029     		cmp	r1, #0
 1974 01ec 02D0     		beq	.L139
 660:../../../../../../Middlewares/Third_Party/LoRaWAN/Mac/region/RegionKR920.c ****                     }
 1975              		.loc 1 660 0
 1976 01ee 0123     		movs	r3, #1
 1977 01f0 0132     		adds	r2, r2, #1
ARM GAS  C:\Users\EBANO_~1\AppData\Local\Temp\ccLo4wHn.s 			page 58


 1978 01f2 0343     		orrs	r3, r0
 1979              	.L139:
 1980              	.LVL158:
 658:../../../../../../Middlewares/Third_Party/LoRaWAN/Mac/region/RegionKR920.c ****                     {
 1981              		.loc 1 658 0
 1982 01f4 F968     		ldr	r1, [r7, #12]
 1983 01f6 0029     		cmp	r1, #0
 1984 01f8 02D0     		beq	.L140
 660:../../../../../../Middlewares/Third_Party/LoRaWAN/Mac/region/RegionKR920.c ****                     }
 1985              		.loc 1 660 0
 1986 01fa 0222     		movs	r2, #2
 1987 01fc 1343     		orrs	r3, r2
 1988 01fe 0122     		movs	r2, #1
 1989              	.L140:
 1990              	.LVL159:
 658:../../../../../../Middlewares/Third_Party/LoRaWAN/Mac/region/RegionKR920.c ****                     {
 1991              		.loc 1 658 0
 1992 0200 B969     		ldr	r1, [r7, #24]
 1993 0202 0029     		cmp	r1, #0
 1994 0204 02D0     		beq	.L141
 660:../../../../../../Middlewares/Third_Party/LoRaWAN/Mac/region/RegionKR920.c ****                     }
 1995              		.loc 1 660 0
 1996 0206 0422     		movs	r2, #4
 1997 0208 1343     		orrs	r3, r2
 1998 020a 0122     		movs	r2, #1
 1999              	.L141:
 2000              	.LVL160:
 658:../../../../../../Middlewares/Third_Party/LoRaWAN/Mac/region/RegionKR920.c ****                     {
 2001              		.loc 1 658 0
 2002 020c 796A     		ldr	r1, [r7, #36]
 2003 020e 0029     		cmp	r1, #0
 2004 0210 02D0     		beq	.L142
 660:../../../../../../Middlewares/Third_Party/LoRaWAN/Mac/region/RegionKR920.c ****                     }
 2005              		.loc 1 660 0
 2006 0212 0822     		movs	r2, #8
 2007 0214 1343     		orrs	r3, r2
 2008 0216 0122     		movs	r2, #1
 2009              	.L142:
 2010              	.LVL161:
 658:../../../../../../Middlewares/Third_Party/LoRaWAN/Mac/region/RegionKR920.c ****                     {
 2011              		.loc 1 658 0
 2012 0218 396B     		ldr	r1, [r7, #48]
 2013 021a 0029     		cmp	r1, #0
 2014 021c 02D0     		beq	.L143
 660:../../../../../../Middlewares/Third_Party/LoRaWAN/Mac/region/RegionKR920.c ****                     }
 2015              		.loc 1 660 0
 2016 021e 1022     		movs	r2, #16
 2017 0220 1343     		orrs	r3, r2
 2018 0222 0122     		movs	r2, #1
 2019              	.L143:
 2020              	.LVL162:
 658:../../../../../../Middlewares/Third_Party/LoRaWAN/Mac/region/RegionKR920.c ****                     {
 2021              		.loc 1 658 0
 2022 0224 F96B     		ldr	r1, [r7, #60]
 2023 0226 0029     		cmp	r1, #0
 2024 0228 02D0     		beq	.L144
 660:../../../../../../Middlewares/Third_Party/LoRaWAN/Mac/region/RegionKR920.c ****                     }
ARM GAS  C:\Users\EBANO_~1\AppData\Local\Temp\ccLo4wHn.s 			page 59


 2025              		.loc 1 660 0
 2026 022a 2022     		movs	r2, #32
 2027 022c 1343     		orrs	r3, r2
 2028 022e 0122     		movs	r2, #1
 2029              	.L144:
 2030              	.LVL163:
 658:../../../../../../Middlewares/Third_Party/LoRaWAN/Mac/region/RegionKR920.c ****                     {
 2031              		.loc 1 658 0
 2032 0230 B96C     		ldr	r1, [r7, #72]
 2033 0232 0029     		cmp	r1, #0
 2034 0234 02D0     		beq	.L145
 660:../../../../../../Middlewares/Third_Party/LoRaWAN/Mac/region/RegionKR920.c ****                     }
 2035              		.loc 1 660 0
 2036 0236 4022     		movs	r2, #64
 2037 0238 1343     		orrs	r3, r2
 2038 023a 0122     		movs	r2, #1
 2039              	.L145:
 2040              	.LVL164:
 658:../../../../../../Middlewares/Third_Party/LoRaWAN/Mac/region/RegionKR920.c ****                     {
 2041              		.loc 1 658 0
 2042 023c 796D     		ldr	r1, [r7, #84]
 2043 023e 0029     		cmp	r1, #0
 2044 0240 02D0     		beq	.L146
 660:../../../../../../Middlewares/Third_Party/LoRaWAN/Mac/region/RegionKR920.c ****                     }
 2045              		.loc 1 660 0
 2046 0242 8022     		movs	r2, #128
 2047 0244 1343     		orrs	r3, r2
 2048 0246 0122     		movs	r2, #1
 2049              	.L146:
 2050              	.LVL165:
 658:../../../../../../Middlewares/Third_Party/LoRaWAN/Mac/region/RegionKR920.c ****                     {
 2051              		.loc 1 658 0
 2052 0248 396E     		ldr	r1, [r7, #96]
 2053 024a 0029     		cmp	r1, #0
 2054 024c 03D0     		beq	.L147
 660:../../../../../../Middlewares/Third_Party/LoRaWAN/Mac/region/RegionKR920.c ****                     }
 2055              		.loc 1 660 0
 2056 024e 8022     		movs	r2, #128
 2057 0250 5200     		lsls	r2, r2, #1
 2058 0252 1343     		orrs	r3, r2
 2059 0254 FF3A     		subs	r2, r2, #255
 2060              	.L147:
 2061              	.LVL166:
 658:../../../../../../Middlewares/Third_Party/LoRaWAN/Mac/region/RegionKR920.c ****                     {
 2062              		.loc 1 658 0
 2063 0256 F96E     		ldr	r1, [r7, #108]
 2064 0258 0029     		cmp	r1, #0
 2065 025a 03D0     		beq	.L148
 660:../../../../../../Middlewares/Third_Party/LoRaWAN/Mac/region/RegionKR920.c ****                     }
 2066              		.loc 1 660 0
 2067 025c 8022     		movs	r2, #128
 2068 025e 9200     		lsls	r2, r2, #2
 2069 0260 1343     		orrs	r3, r2
 2070 0262 0122     		movs	r2, #1
 2071              	.L148:
 2072              	.LVL167:
 658:../../../../../../Middlewares/Third_Party/LoRaWAN/Mac/region/RegionKR920.c ****                     {
ARM GAS  C:\Users\EBANO_~1\AppData\Local\Temp\ccLo4wHn.s 			page 60


 2073              		.loc 1 658 0
 2074 0264 B96F     		ldr	r1, [r7, #120]
 2075 0266 0029     		cmp	r1, #0
 2076 0268 03D0     		beq	.L149
 660:../../../../../../Middlewares/Third_Party/LoRaWAN/Mac/region/RegionKR920.c ****                     }
 2077              		.loc 1 660 0
 2078 026a 8022     		movs	r2, #128
 2079 026c D200     		lsls	r2, r2, #3
 2080 026e 1343     		orrs	r3, r2
 2081 0270 0122     		movs	r2, #1
 2082              	.L149:
 2083              	.LVL168:
 658:../../../../../../Middlewares/Third_Party/LoRaWAN/Mac/region/RegionKR920.c ****                     {
 2084              		.loc 1 658 0
 2085 0272 8421     		movs	r1, #132
 2086 0274 7958     		ldr	r1, [r7, r1]
 2087 0276 0029     		cmp	r1, #0
 2088 0278 03D0     		beq	.L150
 660:../../../../../../Middlewares/Third_Party/LoRaWAN/Mac/region/RegionKR920.c ****                     }
 2089              		.loc 1 660 0
 2090 027a 8022     		movs	r2, #128
 2091 027c 1201     		lsls	r2, r2, #4
 2092 027e 1343     		orrs	r3, r2
 2093 0280 0122     		movs	r2, #1
 2094              	.L150:
 2095              	.LVL169:
 658:../../../../../../Middlewares/Third_Party/LoRaWAN/Mac/region/RegionKR920.c ****                     {
 2096              		.loc 1 658 0
 2097 0282 9021     		movs	r1, #144
 2098 0284 7958     		ldr	r1, [r7, r1]
 2099 0286 0029     		cmp	r1, #0
 2100 0288 03D0     		beq	.L151
 660:../../../../../../Middlewares/Third_Party/LoRaWAN/Mac/region/RegionKR920.c ****                     }
 2101              		.loc 1 660 0
 2102 028a 8022     		movs	r2, #128
 2103 028c 5201     		lsls	r2, r2, #5
 2104 028e 1343     		orrs	r3, r2
 2105 0290 0122     		movs	r2, #1
 2106              	.L151:
 2107              	.LVL170:
 658:../../../../../../Middlewares/Third_Party/LoRaWAN/Mac/region/RegionKR920.c ****                     {
 2108              		.loc 1 658 0
 2109 0292 9C21     		movs	r1, #156
 2110 0294 7958     		ldr	r1, [r7, r1]
 2111 0296 0029     		cmp	r1, #0
 2112 0298 26D1     		bne	.L268
 2113              	.LVL171:
 2114 029a A821     		movs	r1, #168
 2115 029c 7958     		ldr	r1, [r7, r1]
 2116 029e 0029     		cmp	r1, #0
 2117 02a0 0DD0     		beq	.L156
 2118              	.L153:
 660:../../../../../../Middlewares/Third_Party/LoRaWAN/Mac/region/RegionKR920.c ****                     }
 2119              		.loc 1 660 0
 2120 02a2 8022     		movs	r2, #128
 2121 02a4 D201     		lsls	r2, r2, #7
 2122 02a6 1343     		orrs	r3, r2
ARM GAS  C:\Users\EBANO_~1\AppData\Local\Temp\ccLo4wHn.s 			page 61


 2123              	.L266:
 2124              	.LVL172:
 658:../../../../../../Middlewares/Third_Party/LoRaWAN/Mac/region/RegionKR920.c ****                     {
 2125              		.loc 1 658 0
 2126 02a8 B422     		movs	r2, #180
 2127 02aa BA58     		ldr	r2, [r7, r2]
 2128 02ac 002A     		cmp	r2, #0
 2129 02ae 02D0     		beq	.L155
 2130              	.L154:
 660:../../../../../../Middlewares/Third_Party/LoRaWAN/Mac/region/RegionKR920.c ****                     }
 2131              		.loc 1 660 0
 2132 02b0 8022     		movs	r2, #128
 2133 02b2 1202     		lsls	r2, r2, #8
 2134 02b4 1343     		orrs	r3, r2
 2135              	.LVL173:
 2136              	.L155:
 2137 02b6 02AA     		add	r2, sp, #8
 2138 02b8 D380     		strh	r3, [r2, #6]
 658:../../../../../../Middlewares/Third_Party/LoRaWAN/Mac/region/RegionKR920.c ****                     {
 2139              		.loc 1 658 0
 2140 02ba C146     		mov	r9, r8
 2141 02bc B4E6     		b	.L114
 2142              	.LVL174:
 2143              	.L156:
 2144 02be B421     		movs	r1, #180
 2145 02c0 7958     		ldr	r1, [r7, r1]
 2146 02c2 0029     		cmp	r1, #0
 2147 02c4 F4D1     		bne	.L154
 2148              	.LVL175:
 2149 02c6 0721     		movs	r1, #7
 2150 02c8 8946     		mov	r9, r1
 2151 02ca 002A     		cmp	r2, #0
 2152 02cc 00D1     		bne	.LCB2047
 2153 02ce ABE6     		b	.L114	@long jump
 2154              	.LCB2047:
 2155 02d0 F1E7     		b	.L155
 2156              	.LVL176:
 2157              	.L267:
 2158              	.LBE81:
 704:../../../../../../Middlewares/Third_Party/LoRaWAN/Mac/region/RegionKR920.c ****         // Update the channels mask
 2159              		.loc 1 704 0
 2160 02d2 3800     		movs	r0, r7
 2161              	.LVL177:
 2162 02d4 0222     		movs	r2, #2
 2163 02d6 D030     		adds	r0, r0, #208
 2164 02d8 0021     		movs	r1, #0
 2165 02da FFF7FEFF 		bl	memset1
 2166              	.LVL178:
 706:../../../../../../Middlewares/Third_Party/LoRaWAN/Mac/region/RegionKR920.c ****     }
 2167              		.loc 1 706 0
 2168 02de 02AB     		add	r3, sp, #8
 2169 02e0 DA88     		ldrh	r2, [r3, #6]
 2170 02e2 D023     		movs	r3, #208
 2171 02e4 FA52     		strh	r2, [r7, r3]
 2172 02e6 62E7     		b	.L117
 2173              	.LVL179:
 2174              	.L268:
ARM GAS  C:\Users\EBANO_~1\AppData\Local\Temp\ccLo4wHn.s 			page 62


 2175              	.LBB82:
 660:../../../../../../Middlewares/Third_Party/LoRaWAN/Mac/region/RegionKR920.c ****                     }
 2176              		.loc 1 660 0
 2177 02e8 8022     		movs	r2, #128
 2178 02ea 9201     		lsls	r2, r2, #6
 2179 02ec 1343     		orrs	r3, r2
 2180              	.LVL180:
 658:../../../../../../Middlewares/Third_Party/LoRaWAN/Mac/region/RegionKR920.c ****                     {
 2181              		.loc 1 658 0
 2182 02ee A822     		movs	r2, #168
 2183 02f0 BA58     		ldr	r2, [r7, r2]
 2184 02f2 002A     		cmp	r2, #0
 2185 02f4 D5D1     		bne	.L153
 2186 02f6 D7E7     		b	.L266
 2187              	.L270:
 2188              		.align	2
 2189              	.L269:
 2190 02f8 00000000 		.word	NvmCtx
 2191              	.LBE82:
 2192              		.cfi_endproc
 2193              	.LFE55:
 2194              		.size	RegionKR920LinkAdrReq, .-RegionKR920LinkAdrReq
 2195              		.section	.text.RegionKR920RxParamSetupReq,"ax",%progbits
 2196              		.align	1
 2197              		.p2align 2,,3
 2198              		.global	RegionKR920RxParamSetupReq
 2199              		.syntax unified
 2200              		.code	16
 2201              		.thumb_func
 2202              		.fpu softvfp
 2203              		.type	RegionKR920RxParamSetupReq, %function
 2204              	RegionKR920RxParamSetupReq:
 2205              	.LFB56:
 719:../../../../../../Middlewares/Third_Party/LoRaWAN/Mac/region/RegionKR920.c ****     uint8_t status = 0x07;
 2206              		.loc 1 719 0
 2207              		.cfi_startproc
 2208              		@ args = 0, pretend = 0, frame = 8
 2209              		@ frame_needed = 0, uses_anonymous_args = 0
 2210              	.LVL181:
 2211 0000 70B5     		push	{r4, r5, r6, lr}
 2212              	.LCFI22:
 2213              		.cfi_def_cfa_offset 16
 2214              		.cfi_offset 4, -16
 2215              		.cfi_offset 5, -12
 2216              		.cfi_offset 6, -8
 2217              		.cfi_offset 14, -4
 2218              	.LBB87:
 2219              	.LBB88:
 123:../../../../../../Middlewares/Third_Party/LoRaWAN/Mac/region/RegionKR920.c ****     {
 2220              		.loc 1 123 0
 2221 0002 174B     		ldr	r3, .L282
 2222              	.LBE88:
 2223              	.LBE87:
 723:../../../../../../Middlewares/Third_Party/LoRaWAN/Mac/region/RegionKR920.c ****     {
 2224              		.loc 1 723 0
 2225 0004 4568     		ldr	r5, [r0, #4]
 2226              	.LVL182:
ARM GAS  C:\Users\EBANO_~1\AppData\Local\Temp\ccLo4wHn.s 			page 63


 2227              	.LBB96:
 2228              	.LBB93:
 123:../../../../../../Middlewares/Third_Party/LoRaWAN/Mac/region/RegionKR920.c ****     {
 2229              		.loc 1 123 0
 2230 0006 9B6A     		ldr	r3, [r3, #40]
 2231              	.LBE93:
 2232              	.LBE96:
 719:../../../../../../Middlewares/Third_Party/LoRaWAN/Mac/region/RegionKR920.c ****     uint8_t status = 0x07;
 2233              		.loc 1 719 0
 2234 0008 82B0     		sub	sp, sp, #8
 2235              	.LCFI23:
 2236              		.cfi_def_cfa_offset 24
 719:../../../../../../Middlewares/Third_Party/LoRaWAN/Mac/region/RegionKR920.c ****     uint8_t status = 0x07;
 2237              		.loc 1 719 0
 2238 000a 0400     		movs	r4, r0
 2239              	.LBB97:
 2240              	.LBB94:
 123:../../../../../../Middlewares/Third_Party/LoRaWAN/Mac/region/RegionKR920.c ****     {
 2241              		.loc 1 123 0
 2242 000c 2800     		movs	r0, r5
 2243              	.LVL183:
 2244 000e 0193     		str	r3, [sp, #4]
 2245 0010 9847     		blx	r3
 2246              	.LVL184:
 2247 0012 0028     		cmp	r0, #0
 2248 0014 04D0     		beq	.L277
 2249              	.LVL185:
 2250              	.LBB89:
 2251              	.LBB90:
 130:../../../../../../Middlewares/Third_Party/LoRaWAN/Mac/region/RegionKR920.c ****     {
 2252              		.loc 1 130 0
 2253 0016 134B     		ldr	r3, .L282+4
 2254 0018 E818     		adds	r0, r5, r3
 2255 001a 134B     		ldr	r3, .L282+8
 2256 001c 9842     		cmp	r0, r3
 2257 001e 17D9     		bls	.L281
 2258              	.LVL186:
 2259              	.L277:
 134:../../../../../../Middlewares/Third_Party/LoRaWAN/Mac/region/RegionKR920.c ****         {
 2260              		.loc 1 134 0
 2261 0020 0425     		movs	r5, #4
 2262              	.LVL187:
 2263              	.LBE90:
 2264              	.LBE89:
 2265              	.LBE94:
 2266              	.LBE97:
 725:../../../../../../Middlewares/Third_Party/LoRaWAN/Mac/region/RegionKR920.c ****     }
 2267              		.loc 1 725 0
 2268 0022 0626     		movs	r6, #6
 2269              	.L272:
 2270              	.LVL188:
 729:../../../../../../Middlewares/Third_Party/LoRaWAN/Mac/region/RegionKR920.c ****     {
 2271              		.loc 1 729 0
 2272 0024 0020     		movs	r0, #0
 2273 0026 0522     		movs	r2, #5
 2274 0028 2056     		ldrsb	r0, [r4, r0]
 2275 002a 0021     		movs	r1, #0
ARM GAS  C:\Users\EBANO_~1\AppData\Local\Temp\ccLo4wHn.s 			page 64


 2276 002c FFF7FEFF 		bl	RegionCommonValueInRange
 2277              	.LVL189:
 2278 0030 0028     		cmp	r0, #0
 2279 0032 00D0     		beq	.L273
 2280 0034 3500     		movs	r5, r6
 2281              	.L273:
 2282              	.LVL190:
 735:../../../../../../Middlewares/Third_Party/LoRaWAN/Mac/region/RegionKR920.c ****     {
 2283              		.loc 1 735 0
 2284 0036 0120     		movs	r0, #1
 2285 0038 0522     		movs	r2, #5
 2286 003a 2056     		ldrsb	r0, [r4, r0]
 2287 003c 0021     		movs	r1, #0
 2288 003e FFF7FEFF 		bl	RegionCommonValueInRange
 2289              	.LVL191:
 2290 0042 0028     		cmp	r0, #0
 2291 0044 01D1     		bne	.L274
 737:../../../../../../Middlewares/Third_Party/LoRaWAN/Mac/region/RegionKR920.c ****     }
 2292              		.loc 1 737 0
 2293 0046 FB23     		movs	r3, #251
 2294 0048 1D40     		ands	r5, r3
 2295              	.LVL192:
 2296              	.L274:
 741:../../../../../../Middlewares/Third_Party/LoRaWAN/Mac/region/RegionKR920.c **** 
 2297              		.loc 1 741 0
 2298 004a 2800     		movs	r0, r5
 2299 004c 02B0     		add	sp, sp, #8
 2300              		@ sp needed
 2301              	.LVL193:
 2302              	.LVL194:
 2303 004e 70BD     		pop	{r4, r5, r6, pc}
 2304              	.LVL195:
 2305              	.L281:
 2306              	.LBB98:
 2307              	.LBB95:
 2308              	.LBB92:
 2309              	.LBB91:
 134:../../../../../../Middlewares/Third_Party/LoRaWAN/Mac/region/RegionKR920.c ****         {
 2310              		.loc 1 134 0
 2311 0050 0649     		ldr	r1, .L282+12
 2312 0052 FFF7FEFF 		bl	__aeabi_uidivmod
 2313              	.LVL196:
 2314 0056 0029     		cmp	r1, #0
 2315 0058 E2D1     		bne	.L277
 2316 005a 0525     		movs	r5, #5
 2317              	.LVL197:
 2318              	.LBE91:
 2319              	.LBE92:
 2320              	.LBE95:
 2321              	.LBE98:
 720:../../../../../../Middlewares/Third_Party/LoRaWAN/Mac/region/RegionKR920.c **** 
 2322              		.loc 1 720 0
 2323 005c 0726     		movs	r6, #7
 2324 005e E1E7     		b	.L272
 2325              	.L283:
 2326              		.align	2
 2327              	.L282:
ARM GAS  C:\Users\EBANO_~1\AppData\Local\Temp\ccLo4wHn.s 			page 65


 2328 0060 00000000 		.word	Radio
 2329 0064 602E1CC9 		.word	-920900000
 2330 0068 009F2400 		.word	2400000
 2331 006c 400D0300 		.word	200000
 2332              		.cfi_endproc
 2333              	.LFE56:
 2334              		.size	RegionKR920RxParamSetupReq, .-RegionKR920RxParamSetupReq
 2335              		.section	.text.RegionKR920NewChannelReq,"ax",%progbits
 2336              		.align	1
 2337              		.p2align 2,,3
 2338              		.global	RegionKR920NewChannelReq
 2339              		.syntax unified
 2340              		.code	16
 2341              		.thumb_func
 2342              		.fpu softvfp
 2343              		.type	RegionKR920NewChannelReq, %function
 2344              	RegionKR920NewChannelReq:
 2345              	.LFB57:
 744:../../../../../../Middlewares/Third_Party/LoRaWAN/Mac/region/RegionKR920.c ****     uint8_t status = 0x03;
 2346              		.loc 1 744 0
 2347              		.cfi_startproc
 2348              		@ args = 0, pretend = 0, frame = 8
 2349              		@ frame_needed = 0, uses_anonymous_args = 0
 2350              	.LVL198:
 2351 0000 F0B5     		push	{r4, r5, r6, r7, lr}
 2352              	.LCFI24:
 2353              		.cfi_def_cfa_offset 20
 2354              		.cfi_offset 4, -20
 2355              		.cfi_offset 5, -16
 2356              		.cfi_offset 6, -12
 2357              		.cfi_offset 7, -8
 2358              		.cfi_offset 14, -4
 2359 0002 C646     		mov	lr, r8
 2360 0004 00B5     		push	{lr}
 2361              	.LCFI25:
 2362              		.cfi_def_cfa_offset 24
 2363              		.cfi_offset 8, -24
 749:../../../../../../Middlewares/Third_Party/LoRaWAN/Mac/region/RegionKR920.c ****     {
 2364              		.loc 1 749 0
 2365 0006 0468     		ldr	r4, [r0]
 744:../../../../../../Middlewares/Third_Party/LoRaWAN/Mac/region/RegionKR920.c ****     uint8_t status = 0x03;
 2366              		.loc 1 744 0
 2367 0008 82B0     		sub	sp, sp, #8
 2368              	.LCFI26:
 2369              		.cfi_def_cfa_offset 32
 749:../../../../../../Middlewares/Third_Party/LoRaWAN/Mac/region/RegionKR920.c ****     {
 2370              		.loc 1 749 0
 2371 000a 2368     		ldr	r3, [r4]
 2372 000c 0579     		ldrb	r5, [r0, #4]
 2373 000e 002B     		cmp	r3, #0
 2374 0010 06D1     		bne	.L285
 2375              	.LVL199:
 2376              	.LBB107:
 2377              	.LBB108:
 976:../../../../../../Middlewares/Third_Party/LoRaWAN/Mac/region/RegionKR920.c ****     {
 2378              		.loc 1 976 0
 2379 0012 022D     		cmp	r5, #2
ARM GAS  C:\Users\EBANO_~1\AppData\Local\Temp\ccLo4wHn.s 			page 66


 2380 0014 30D8     		bhi	.L304
 2381              	.LVL200:
 2382              	.L286:
 2383              	.LBE108:
 2384              	.LBE107:
 756:../../../../../../Middlewares/Third_Party/LoRaWAN/Mac/region/RegionKR920.c ****         }
 2385              		.loc 1 756 0
 2386 0016 0020     		movs	r0, #0
 2387              	.LVL201:
 2388              	.L299:
 794:../../../../../../Middlewares/Third_Party/LoRaWAN/Mac/region/RegionKR920.c **** 
 2389              		.loc 1 794 0
 2390 0018 02B0     		add	sp, sp, #8
 2391              		@ sp needed
 2392 001a 04BC     		pop	{r2}
 2393 001c 9046     		mov	r8, r2
 2394 001e F0BD     		pop	{r4, r5, r6, r7, pc}
 2395              	.LVL202:
 2396              	.L285:
 2397              	.LBB110:
 2398              	.LBB111:
 919:../../../../../../Middlewares/Third_Party/LoRaWAN/Mac/region/RegionKR920.c ****     {
 2399              		.loc 1 919 0
 2400 0020 EB1E     		subs	r3, r5, #3
 2401 0022 0C2B     		cmp	r3, #12
 2402 0024 F7D8     		bhi	.L286
 930:../../../../../../Middlewares/Third_Party/LoRaWAN/Mac/region/RegionKR920.c ****     {
 2403              		.loc 1 930 0
 2404 0026 207A     		ldrb	r0, [r4, #8]
 2405              	.LVL203:
 2406 0028 0522     		movs	r2, #5
 2407 002a 0007     		lsls	r0, r0, #28
 2408 002c 0021     		movs	r1, #0
 2409 002e 0017     		asrs	r0, r0, #28
 2410 0030 FFF7FEFF 		bl	RegionCommonValueInRange
 2411              	.LVL204:
 2412 0034 0600     		movs	r6, r0
 2413              	.LVL205:
 934:../../../../../../Middlewares/Third_Party/LoRaWAN/Mac/region/RegionKR920.c ****     {
 2414              		.loc 1 934 0
 2415 0036 0820     		movs	r0, #8
 2416 0038 2056     		ldrsb	r0, [r4, r0]
 2417 003a 0522     		movs	r2, #5
 2418 003c 0011     		asrs	r0, r0, #4
 2419 003e 0021     		movs	r1, #0
 2420 0040 FFF7FEFF 		bl	RegionCommonValueInRange
 2421              	.LVL206:
 936:../../../../../../Middlewares/Third_Party/LoRaWAN/Mac/region/RegionKR920.c ****     }
 2422              		.loc 1 936 0
 2423 0044 0127     		movs	r7, #1
 934:../../../../../../Middlewares/Third_Party/LoRaWAN/Mac/region/RegionKR920.c ****     {
 2424              		.loc 1 934 0
 2425 0046 0028     		cmp	r0, #0
 2426 0048 02D0     		beq	.L288
 930:../../../../../../Middlewares/Third_Party/LoRaWAN/Mac/region/RegionKR920.c ****     {
 2427              		.loc 1 930 0
 2428 004a 7742     		rsbs	r7, r6, #0
ARM GAS  C:\Users\EBANO_~1\AppData\Local\Temp\ccLo4wHn.s 			page 67


 2429 004c 7741     		adcs	r7, r7, r6
 2430              	.LVL207:
 2431 004e FFB2     		uxtb	r7, r7
 2432              	.L288:
 2433              	.LVL208:
 2434 0050 2D4B     		ldr	r3, .L306
 2435 0052 2668     		ldr	r6, [r4]
 2436 0054 9B6A     		ldr	r3, [r3, #40]
 2437              	.LBB112:
 2438              	.LBB113:
 123:../../../../../../Middlewares/Third_Party/LoRaWAN/Mac/region/RegionKR920.c ****     {
 2439              		.loc 1 123 0
 2440 0056 3000     		movs	r0, r6
 2441 0058 0193     		str	r3, [sp, #4]
 2442              	.LBE113:
 2443              	.LBE112:
 938:../../../../../../Middlewares/Third_Party/LoRaWAN/Mac/region/RegionKR920.c ****     {
 2444              		.loc 1 938 0
 2445 005a 237A     		ldrb	r3, [r4, #8]
 2446 005c 1A07     		lsls	r2, r3, #28
 2447 005e 5BB2     		sxtb	r3, r3
 2448 0060 1217     		asrs	r2, r2, #28
 2449 0062 1B11     		asrs	r3, r3, #4
 2450 0064 9A42     		cmp	r2, r3
 2451 0066 1BDC     		bgt	.L289
 2452              	.LVL209:
 2453              	.LBB121:
 2454              	.LBB118:
 123:../../../../../../Middlewares/Third_Party/LoRaWAN/Mac/region/RegionKR920.c ****     {
 2455              		.loc 1 123 0
 2456 0068 019B     		ldr	r3, [sp, #4]
 2457 006a 9847     		blx	r3
 2458              	.LVL210:
 2459 006c 0028     		cmp	r0, #0
 2460 006e 27D1     		bne	.L305
 2461              	.L290:
 2462              	.LVL211:
 2463              	.LBE118:
 2464              	.LBE121:
 953:../../../../../../Middlewares/Third_Party/LoRaWAN/Mac/region/RegionKR920.c ****     {
 2465              		.loc 1 953 0
 2466 0070 002F     		cmp	r7, #0
 2467 0072 D0D1     		bne	.L286
 2468              	.LBE111:
 2469              	.LBE110:
 772:../../../../../../Middlewares/Third_Party/LoRaWAN/Mac/region/RegionKR920.c ****                 break;
 2470              		.loc 1 772 0
 2471 0074 0220     		movs	r0, #2
 2472              	.LVL212:
 793:../../../../../../Middlewares/Third_Party/LoRaWAN/Mac/region/RegionKR920.c **** }
 2473              		.loc 1 793 0
 2474 0076 CFE7     		b	.L299
 2475              	.LVL213:
 2476              	.L304:
 2477              	.LBB127:
 2478              	.LBB109:
 982:../../../../../../Middlewares/Third_Party/LoRaWAN/Mac/region/RegionKR920.c **** 
ARM GAS  C:\Users\EBANO_~1\AppData\Local\Temp\ccLo4wHn.s 			page 68


 2479              		.loc 1 982 0
 2480 0078 6800     		lsls	r0, r5, #1
 2481              	.LVL214:
 2482 007a 244C     		ldr	r4, .L306+4
 2483 007c 4019     		adds	r0, r0, r5
 2484 007e 8000     		lsls	r0, r0, #2
 2485 0080 0C22     		movs	r2, #12
 2486 0082 0021     		movs	r1, #0
 2487 0084 2018     		adds	r0, r4, r0
 2488 0086 FFF7FEFF 		bl	memset
 2489              	.LVL215:
 2490              		.loc 1 984 0
 2491 008a 2000     		movs	r0, r4
 2492 008c 1022     		movs	r2, #16
 2493 008e D030     		adds	r0, r0, #208
 2494 0090 2900     		movs	r1, r5
 2495 0092 FFF7FEFF 		bl	RegionCommonChanDisable
 2496              	.LVL216:
 2497 0096 0300     		movs	r3, r0
 2498              	.LVL217:
 2499              	.LBE109:
 2500              	.LBE127:
 745:../../../../../../Middlewares/Third_Party/LoRaWAN/Mac/region/RegionKR920.c ****     ChannelAddParams_t channelAdd;
 2501              		.loc 1 745 0
 2502 0098 0320     		movs	r0, #3
 754:../../../../../../Middlewares/Third_Party/LoRaWAN/Mac/region/RegionKR920.c ****         {
 2503              		.loc 1 754 0
 2504 009a 002B     		cmp	r3, #0
 2505 009c BCD1     		bne	.L299
 2506 009e BAE7     		b	.L286
 2507              	.LVL218:
 2508              	.L289:
 2509              	.LBB128:
 2510              	.LBB124:
 2511              	.LBB122:
 2512              	.LBB119:
 123:../../../../../../Middlewares/Third_Party/LoRaWAN/Mac/region/RegionKR920.c ****     {
 2513              		.loc 1 123 0
 2514 00a0 019B     		ldr	r3, [sp, #4]
 2515 00a2 9847     		blx	r3
 2516              	.LVL219:
 2517 00a4 0028     		cmp	r0, #0
 2518 00a6 B6D0     		beq	.L286
 2519              	.LVL220:
 2520              	.LBB114:
 2521              	.LBB115:
 130:../../../../../../Middlewares/Third_Party/LoRaWAN/Mac/region/RegionKR920.c ****     {
 2522              		.loc 1 130 0
 2523 00a8 194B     		ldr	r3, .L306+8
 2524 00aa F018     		adds	r0, r6, r3
 2525 00ac 194B     		ldr	r3, .L306+12
 2526 00ae 9842     		cmp	r0, r3
 2527 00b0 B1D8     		bhi	.L286
 2528              	.LVL221:
 134:../../../../../../Middlewares/Third_Party/LoRaWAN/Mac/region/RegionKR920.c ****         {
 2529              		.loc 1 134 0
 2530 00b2 1949     		ldr	r1, .L306+16
ARM GAS  C:\Users\EBANO_~1\AppData\Local\Temp\ccLo4wHn.s 			page 69


 2531 00b4 FFF7FEFF 		bl	__aeabi_uidivmod
 2532              	.LVL222:
 2533              	.LBE115:
 2534              	.LBE114:
 2535              	.LBE119:
 2536              	.LBE122:
 2537              	.LBE124:
 2538              	.LBE128:
 777:../../../../../../Middlewares/Third_Party/LoRaWAN/Mac/region/RegionKR920.c ****                 break;
 2539              		.loc 1 777 0
 2540 00b8 0120     		movs	r0, #1
 2541              	.LBB129:
 2542              	.LBB125:
 2543              	.LBB123:
 2544              	.LBB120:
 2545              	.LBB117:
 2546              	.LBB116:
 134:../../../../../../Middlewares/Third_Party/LoRaWAN/Mac/region/RegionKR920.c ****         {
 2547              		.loc 1 134 0
 2548 00ba 0029     		cmp	r1, #0
 2549 00bc ABD1     		bne	.L286
 2550 00be ABE7     		b	.L299
 2551              	.LVL223:
 2552              	.L305:
 130:../../../../../../Middlewares/Third_Party/LoRaWAN/Mac/region/RegionKR920.c ****     {
 2553              		.loc 1 130 0
 2554 00c0 134B     		ldr	r3, .L306+8
 2555 00c2 F018     		adds	r0, r6, r3
 2556 00c4 134B     		ldr	r3, .L306+12
 2557 00c6 9842     		cmp	r0, r3
 2558 00c8 D2D8     		bhi	.L290
 2559              	.LVL224:
 134:../../../../../../Middlewares/Third_Party/LoRaWAN/Mac/region/RegionKR920.c ****         {
 2560              		.loc 1 134 0
 2561 00ca 1349     		ldr	r1, .L306+16
 2562 00cc FFF7FEFF 		bl	__aeabi_uidivmod
 2563              	.LVL225:
 2564 00d0 0029     		cmp	r1, #0
 2565 00d2 CDD1     		bne	.L290
 2566              	.LBE116:
 2567              	.LBE117:
 2568              	.LBE120:
 2569              	.LBE123:
 953:../../../../../../Middlewares/Third_Party/LoRaWAN/Mac/region/RegionKR920.c ****     {
 2570              		.loc 1 953 0
 2571 00d4 002F     		cmp	r7, #0
 2572 00d6 15D1     		bne	.L293
 966:../../../../../../Middlewares/Third_Party/LoRaWAN/Mac/region/RegionKR920.c ****     NvmCtx.Channels[id].Band = 0;
 2573              		.loc 1 966 0
 2574 00d8 0C4B     		ldr	r3, .L306+4
 2575 00da 6E00     		lsls	r6, r5, #1
 2576              	.LVL226:
 2577 00dc 9846     		mov	r8, r3
 2578 00de 7619     		adds	r6, r6, r5
 2579 00e0 B600     		lsls	r6, r6, #2
 2580 00e2 4644     		add	r6, r6, r8
 2581 00e4 0C22     		movs	r2, #12
ARM GAS  C:\Users\EBANO_~1\AppData\Local\Temp\ccLo4wHn.s 			page 70


 2582 00e6 2100     		movs	r1, r4
 2583 00e8 3000     		movs	r0, r6
 2584 00ea FFF7FEFF 		bl	memcpy1
 2585              	.LVL227:
 968:../../../../../../Middlewares/Third_Party/LoRaWAN/Mac/region/RegionKR920.c ****     return LORAMAC_STATUS_OK;
 2586              		.loc 1 968 0
 2587 00ee 0122     		movs	r2, #1
 2588 00f0 D021     		movs	r1, #208
 2589 00f2 4346     		mov	r3, r8
 2590 00f4 AA40     		lsls	r2, r2, r5
 967:../../../../../../Middlewares/Third_Party/LoRaWAN/Mac/region/RegionKR920.c ****     NvmCtx.ChannelsMask[0] |= ( 1 << id );
 2591              		.loc 1 967 0
 2592 00f6 7772     		strb	r7, [r6, #9]
 968:../../../../../../Middlewares/Third_Party/LoRaWAN/Mac/region/RegionKR920.c ****     return LORAMAC_STATUS_OK;
 2593              		.loc 1 968 0
 2594 00f8 5B5A     		ldrh	r3, [r3, r1]
 2595              	.LBE125:
 2596              	.LBE129:
 745:../../../../../../Middlewares/Third_Party/LoRaWAN/Mac/region/RegionKR920.c ****     ChannelAddParams_t channelAdd;
 2597              		.loc 1 745 0
 2598 00fa 0320     		movs	r0, #3
 2599              	.LBB130:
 2600              	.LBB126:
 968:../../../../../../Middlewares/Third_Party/LoRaWAN/Mac/region/RegionKR920.c ****     return LORAMAC_STATUS_OK;
 2601              		.loc 1 968 0
 2602 00fc 1343     		orrs	r3, r2
 2603 00fe 4246     		mov	r2, r8
 2604 0100 5352     		strh	r3, [r2, r1]
 2605              	.LVL228:
 2606 0102 89E7     		b	.L299
 2607              	.LVL229:
 2608              	.L293:
 2609              	.LBE126:
 2610              	.LBE130:
 777:../../../../../../Middlewares/Third_Party/LoRaWAN/Mac/region/RegionKR920.c ****                 break;
 2611              		.loc 1 777 0
 2612 0104 0120     		movs	r0, #1
 2613 0106 87E7     		b	.L299
 2614              	.L307:
 2615              		.align	2
 2616              	.L306:
 2617 0108 00000000 		.word	Radio
 2618 010c 00000000 		.word	NvmCtx
 2619 0110 602E1CC9 		.word	-920900000
 2620 0114 009F2400 		.word	2400000
 2621 0118 400D0300 		.word	200000
 2622              		.cfi_endproc
 2623              	.LFE57:
 2624              		.size	RegionKR920NewChannelReq, .-RegionKR920NewChannelReq
 2625              		.section	.text.RegionKR920TxParamSetupReq,"ax",%progbits
 2626              		.align	1
 2627              		.p2align 2,,3
 2628              		.global	RegionKR920TxParamSetupReq
 2629              		.syntax unified
 2630              		.code	16
 2631              		.thumb_func
 2632              		.fpu softvfp
ARM GAS  C:\Users\EBANO_~1\AppData\Local\Temp\ccLo4wHn.s 			page 71


 2633              		.type	RegionKR920TxParamSetupReq, %function
 2634              	RegionKR920TxParamSetupReq:
 2635              	.LFB58:
 797:../../../../../../Middlewares/Third_Party/LoRaWAN/Mac/region/RegionKR920.c ****     return -1;
 2636              		.loc 1 797 0
 2637              		.cfi_startproc
 2638              		@ args = 0, pretend = 0, frame = 0
 2639              		@ frame_needed = 0, uses_anonymous_args = 0
 2640              		@ link register save eliminated.
 2641              	.LVL230:
 798:../../../../../../Middlewares/Third_Party/LoRaWAN/Mac/region/RegionKR920.c **** }
 2642              		.loc 1 798 0
 2643 0000 0120     		movs	r0, #1
 2644              	.LVL231:
 799:../../../../../../Middlewares/Third_Party/LoRaWAN/Mac/region/RegionKR920.c **** 
 2645              		.loc 1 799 0
 2646              		@ sp needed
 2647 0002 4042     		rsbs	r0, r0, #0
 2648 0004 7047     		bx	lr
 2649              		.cfi_endproc
 2650              	.LFE58:
 2651              		.size	RegionKR920TxParamSetupReq, .-RegionKR920TxParamSetupReq
 2652 0006 C046     		.section	.text.RegionKR920DlChannelReq,"ax",%progbits
 2653              		.align	1
 2654              		.p2align 2,,3
 2655              		.global	RegionKR920DlChannelReq
 2656              		.syntax unified
 2657              		.code	16
 2658              		.thumb_func
 2659              		.fpu softvfp
 2660              		.type	RegionKR920DlChannelReq, %function
 2661              	RegionKR920DlChannelReq:
 2662              	.LFB59:
 802:../../../../../../Middlewares/Third_Party/LoRaWAN/Mac/region/RegionKR920.c ****     uint8_t status = 0x03;
 2663              		.loc 1 802 0
 2664              		.cfi_startproc
 2665              		@ args = 0, pretend = 0, frame = 8
 2666              		@ frame_needed = 0, uses_anonymous_args = 0
 2667              	.LVL232:
 2668 0000 F0B5     		push	{r4, r5, r6, r7, lr}
 2669              	.LCFI27:
 2670              		.cfi_def_cfa_offset 20
 2671              		.cfi_offset 4, -20
 2672              		.cfi_offset 5, -16
 2673              		.cfi_offset 6, -12
 2674              		.cfi_offset 7, -8
 2675              		.cfi_offset 14, -4
 2676              	.LBB135:
 2677              	.LBB136:
 123:../../../../../../Middlewares/Third_Party/LoRaWAN/Mac/region/RegionKR920.c ****     {
 2678              		.loc 1 123 0
 2679 0002 174B     		ldr	r3, .L319
 2680              	.LBE136:
 2681              	.LBE135:
 806:../../../../../../Middlewares/Third_Party/LoRaWAN/Mac/region/RegionKR920.c ****     {
 2682              		.loc 1 806 0
 2683 0004 4468     		ldr	r4, [r0, #4]
ARM GAS  C:\Users\EBANO_~1\AppData\Local\Temp\ccLo4wHn.s 			page 72


 2684              	.LVL233:
 2685              	.LBB144:
 2686              	.LBB141:
 123:../../../../../../Middlewares/Third_Party/LoRaWAN/Mac/region/RegionKR920.c ****     {
 2687              		.loc 1 123 0
 2688 0006 9B6A     		ldr	r3, [r3, #40]
 2689              	.LBE141:
 2690              	.LBE144:
 802:../../../../../../Middlewares/Third_Party/LoRaWAN/Mac/region/RegionKR920.c ****     uint8_t status = 0x03;
 2691              		.loc 1 802 0
 2692 0008 83B0     		sub	sp, sp, #12
 2693              	.LCFI28:
 2694              		.cfi_def_cfa_offset 32
 802:../../../../../../Middlewares/Third_Party/LoRaWAN/Mac/region/RegionKR920.c ****     uint8_t status = 0x03;
 2695              		.loc 1 802 0
 2696 000a 0600     		movs	r6, r0
 2697              	.LBB145:
 2698              	.LBB142:
 123:../../../../../../Middlewares/Third_Party/LoRaWAN/Mac/region/RegionKR920.c ****     {
 2699              		.loc 1 123 0
 2700 000c 2000     		movs	r0, r4
 2701              	.LVL234:
 2702 000e 0193     		str	r3, [sp, #4]
 2703 0010 9847     		blx	r3
 2704              	.LVL235:
 2705 0012 0028     		cmp	r0, #0
 2706 0014 1DD0     		beq	.L317
 2707              	.LVL236:
 2708              	.LBB137:
 2709              	.LBB138:
 130:../../../../../../Middlewares/Third_Party/LoRaWAN/Mac/region/RegionKR920.c ****     {
 2710              		.loc 1 130 0
 2711 0016 134B     		ldr	r3, .L319+4
 2712 0018 134F     		ldr	r7, .L319+8
 2713 001a E018     		adds	r0, r4, r3
 2714 001c 3378     		ldrb	r3, [r6]
 2715 001e 5D00     		lsls	r5, r3, #1
 2716 0020 ED18     		adds	r5, r5, r3
 2717 0022 124B     		ldr	r3, .L319+12
 2718 0024 AD00     		lsls	r5, r5, #2
 2719 0026 EC59     		ldr	r4, [r5, r7]
 2720              	.LVL237:
 2721 0028 9842     		cmp	r0, r3
 2722 002a 05D9     		bls	.L318
 2723              	.LVL238:
 2724              	.L311:
 2725              	.LBE138:
 2726              	.LBE137:
 2727              	.LBE142:
 2728              	.LBE145:
 812:../../../../../../Middlewares/Third_Party/LoRaWAN/Mac/region/RegionKR920.c ****     {
 2729              		.loc 1 812 0
 2730 002c 2000     		movs	r0, r4
 2731 002e 441E     		subs	r4, r0, #1
 2732 0030 A041     		sbcs	r0, r0, r4
 2733 0032 4000     		lsls	r0, r0, #1
 2734              	.LVL239:
ARM GAS  C:\Users\EBANO_~1\AppData\Local\Temp\ccLo4wHn.s 			page 73


 2735              	.L314:
 824:../../../../../../Middlewares/Third_Party/LoRaWAN/Mac/region/RegionKR920.c **** 
 2736              		.loc 1 824 0
 2737 0034 03B0     		add	sp, sp, #12
 2738              		@ sp needed
 2739              	.LVL240:
 2740 0036 F0BD     		pop	{r4, r5, r6, r7, pc}
 2741              	.LVL241:
 2742              	.L318:
 2743              	.LBB146:
 2744              	.LBB143:
 2745              	.LBB140:
 2746              	.LBB139:
 134:../../../../../../Middlewares/Third_Party/LoRaWAN/Mac/region/RegionKR920.c ****         {
 2747              		.loc 1 134 0
 2748 0038 0D49     		ldr	r1, .L319+16
 2749 003a FFF7FEFF 		bl	__aeabi_uidivmod
 2750              	.LVL242:
 2751 003e 0029     		cmp	r1, #0
 2752 0040 F4D1     		bne	.L311
 2753              	.LBE139:
 2754              	.LBE140:
 2755              	.LBE143:
 2756              	.LBE146:
 812:../../../../../../Middlewares/Third_Party/LoRaWAN/Mac/region/RegionKR920.c ****     {
 2757              		.loc 1 812 0
 2758 0042 0120     		movs	r0, #1
 2759 0044 002C     		cmp	r4, #0
 2760 0046 F5D0     		beq	.L314
 820:../../../../../../Middlewares/Third_Party/LoRaWAN/Mac/region/RegionKR920.c ****     }
 2761              		.loc 1 820 0
 2762 0048 7368     		ldr	r3, [r6, #4]
 2763 004a 7D19     		adds	r5, r7, r5
 2764 004c 6B60     		str	r3, [r5, #4]
 2765 004e 0320     		movs	r0, #3
 2766 0050 F0E7     		b	.L314
 2767              	.LVL243:
 2768              	.L317:
 2769 0052 3278     		ldrb	r2, [r6]
 2770 0054 5300     		lsls	r3, r2, #1
 2771 0056 9B18     		adds	r3, r3, r2
 2772 0058 034A     		ldr	r2, .L319+8
 2773 005a 9B00     		lsls	r3, r3, #2
 2774 005c 9C58     		ldr	r4, [r3, r2]
 2775              	.LVL244:
 2776 005e E5E7     		b	.L311
 2777              	.L320:
 2778              		.align	2
 2779              	.L319:
 2780 0060 00000000 		.word	Radio
 2781 0064 602E1CC9 		.word	-920900000
 2782 0068 00000000 		.word	NvmCtx
 2783 006c 009F2400 		.word	2400000
 2784 0070 400D0300 		.word	200000
 2785              		.cfi_endproc
 2786              	.LFE59:
 2787              		.size	RegionKR920DlChannelReq, .-RegionKR920DlChannelReq
ARM GAS  C:\Users\EBANO_~1\AppData\Local\Temp\ccLo4wHn.s 			page 74


 2788              		.section	.text.RegionKR920AlternateDr,"ax",%progbits
 2789              		.align	1
 2790              		.p2align 2,,3
 2791              		.global	RegionKR920AlternateDr
 2792              		.syntax unified
 2793              		.code	16
 2794              		.thumb_func
 2795              		.fpu softvfp
 2796              		.type	RegionKR920AlternateDr, %function
 2797              	RegionKR920AlternateDr:
 2798              	.LFB60:
 827:../../../../../../Middlewares/Third_Party/LoRaWAN/Mac/region/RegionKR920.c ****     return currentDr;
 2799              		.loc 1 827 0
 2800              		.cfi_startproc
 2801              		@ args = 0, pretend = 0, frame = 0
 2802              		@ frame_needed = 0, uses_anonymous_args = 0
 2803              		@ link register save eliminated.
 2804              	.LVL245:
 829:../../../../../../Middlewares/Third_Party/LoRaWAN/Mac/region/RegionKR920.c **** 
 2805              		.loc 1 829 0
 2806              		@ sp needed
 2807 0000 7047     		bx	lr
 2808              		.cfi_endproc
 2809              	.LFE60:
 2810              		.size	RegionKR920AlternateDr, .-RegionKR920AlternateDr
 2811 0002 C046     		.section	.text.RegionKR920CalcBackOff,"ax",%progbits
 2812              		.align	1
 2813              		.p2align 2,,3
 2814              		.global	RegionKR920CalcBackOff
 2815              		.syntax unified
 2816              		.code	16
 2817              		.thumb_func
 2818              		.fpu softvfp
 2819              		.type	RegionKR920CalcBackOff, %function
 2820              	RegionKR920CalcBackOff:
 2821              	.LFB61:
 832:../../../../../../Middlewares/Third_Party/LoRaWAN/Mac/region/RegionKR920.c ****     RegionCommonCalcBackOffParams_t calcBackOffParams;
 2822              		.loc 1 832 0
 2823              		.cfi_startproc
 2824              		@ args = 0, pretend = 0, frame = 24
 2825              		@ frame_needed = 0, uses_anonymous_args = 0
 2826              	.LVL246:
 2827 0000 00B5     		push	{lr}
 2828              	.LCFI29:
 2829              		.cfi_def_cfa_offset 4
 2830              		.cfi_offset 14, -4
 835:../../../../../../Middlewares/Third_Party/LoRaWAN/Mac/region/RegionKR920.c ****     calcBackOffParams.Bands = NvmCtx.Bands;
 2831              		.loc 1 835 0
 2832 0002 0B4A     		ldr	r2, .L323
 832:../../../../../../Middlewares/Third_Party/LoRaWAN/Mac/region/RegionKR920.c ****     RegionCommonCalcBackOffParams_t calcBackOffParams;
 2833              		.loc 1 832 0
 2834 0004 87B0     		sub	sp, sp, #28
 2835              	.LCFI30:
 2836              		.cfi_def_cfa_offset 32
 835:../../../../../../Middlewares/Third_Party/LoRaWAN/Mac/region/RegionKR920.c ****     calcBackOffParams.Bands = NvmCtx.Bands;
 2837              		.loc 1 835 0
 2838 0006 0192     		str	r2, [sp, #4]
ARM GAS  C:\Users\EBANO_~1\AppData\Local\Temp\ccLo4wHn.s 			page 75


 836:../../../../../../Middlewares/Third_Party/LoRaWAN/Mac/region/RegionKR920.c ****     calcBackOffParams.LastTxIsJoinRequest = calcBackOff->LastTxIsJoinRequest;
 2839              		.loc 1 836 0
 2840 0008 C032     		adds	r2, r2, #192
 2841 000a 0292     		str	r2, [sp, #8]
 837:../../../../../../Middlewares/Third_Party/LoRaWAN/Mac/region/RegionKR920.c ****     calcBackOffParams.Joined = calcBackOff->Joined;
 2842              		.loc 1 837 0
 2843 000c 4278     		ldrb	r2, [r0, #1]
 835:../../../../../../Middlewares/Third_Party/LoRaWAN/Mac/region/RegionKR920.c ****     calcBackOffParams.Bands = NvmCtx.Bands;
 2844              		.loc 1 835 0
 2845 000e 01AB     		add	r3, sp, #4
 837:../../../../../../Middlewares/Third_Party/LoRaWAN/Mac/region/RegionKR920.c ****     calcBackOffParams.Joined = calcBackOff->Joined;
 2846              		.loc 1 837 0
 2847 0010 1A72     		strb	r2, [r3, #8]
 838:../../../../../../Middlewares/Third_Party/LoRaWAN/Mac/region/RegionKR920.c ****     calcBackOffParams.DutyCycleEnabled = calcBackOff->DutyCycleEnabled;
 2848              		.loc 1 838 0
 2849 0012 0278     		ldrb	r2, [r0]
 2850 0014 5A72     		strb	r2, [r3, #9]
 839:../../../../../../Middlewares/Third_Party/LoRaWAN/Mac/region/RegionKR920.c ****     calcBackOffParams.Channel = calcBackOff->Channel;
 2851              		.loc 1 839 0
 2852 0016 8278     		ldrb	r2, [r0, #2]
 2853 0018 9A72     		strb	r2, [r3, #10]
 840:../../../../../../Middlewares/Third_Party/LoRaWAN/Mac/region/RegionKR920.c ****     calcBackOffParams.ElapsedTime = calcBackOff->ElapsedTime;
 2854              		.loc 1 840 0
 2855 001a C278     		ldrb	r2, [r0, #3]
 2856 001c DA72     		strb	r2, [r3, #11]
 841:../../../../../../Middlewares/Third_Party/LoRaWAN/Mac/region/RegionKR920.c ****     calcBackOffParams.TxTimeOnAir = calcBackOff->TxTimeOnAir;
 2857              		.loc 1 841 0
 2858 001e 4268     		ldr	r2, [r0, #4]
 2859 0020 0492     		str	r2, [sp, #16]
 842:../../../../../../Middlewares/Third_Party/LoRaWAN/Mac/region/RegionKR920.c **** 
 2860              		.loc 1 842 0
 2861 0022 8268     		ldr	r2, [r0, #8]
 844:../../../../../../Middlewares/Third_Party/LoRaWAN/Mac/region/RegionKR920.c **** }
 2862              		.loc 1 844 0
 2863 0024 1800     		movs	r0, r3
 2864              	.LVL247:
 842:../../../../../../Middlewares/Third_Party/LoRaWAN/Mac/region/RegionKR920.c **** 
 2865              		.loc 1 842 0
 2866 0026 0592     		str	r2, [sp, #20]
 844:../../../../../../Middlewares/Third_Party/LoRaWAN/Mac/region/RegionKR920.c **** }
 2867              		.loc 1 844 0
 2868 0028 FFF7FEFF 		bl	RegionCommonCalcBackOff
 2869              	.LVL248:
 845:../../../../../../Middlewares/Third_Party/LoRaWAN/Mac/region/RegionKR920.c **** 
 2870              		.loc 1 845 0
 2871 002c 07B0     		add	sp, sp, #28
 2872              		@ sp needed
 2873 002e 00BD     		pop	{pc}
 2874              	.L324:
 2875              		.align	2
 2876              	.L323:
 2877 0030 00000000 		.word	NvmCtx
 2878              		.cfi_endproc
 2879              	.LFE61:
 2880              		.size	RegionKR920CalcBackOff, .-RegionKR920CalcBackOff
 2881              		.global	__aeabi_idivmod
 2882              		.section	.text.RegionKR920NextChannel,"ax",%progbits
ARM GAS  C:\Users\EBANO_~1\AppData\Local\Temp\ccLo4wHn.s 			page 76


 2883              		.align	1
 2884              		.p2align 2,,3
 2885              		.global	RegionKR920NextChannel
 2886              		.syntax unified
 2887              		.code	16
 2888              		.thumb_func
 2889              		.fpu softvfp
 2890              		.type	RegionKR920NextChannel, %function
 2891              	RegionKR920NextChannel:
 2892              	.LFB62:
 848:../../../../../../Middlewares/Third_Party/LoRaWAN/Mac/region/RegionKR920.c ****     uint8_t channelNext = 0;
 2893              		.loc 1 848 0
 2894              		.cfi_startproc
 2895              		@ args = 0, pretend = 0, frame = 40
 2896              		@ frame_needed = 0, uses_anonymous_args = 0
 2897              	.LVL249:
 2898 0000 F0B5     		push	{r4, r5, r6, r7, lr}
 2899              	.LCFI31:
 2900              		.cfi_def_cfa_offset 20
 2901              		.cfi_offset 4, -20
 2902              		.cfi_offset 5, -16
 2903              		.cfi_offset 6, -12
 2904              		.cfi_offset 7, -8
 2905              		.cfi_offset 14, -4
 2906 0002 DE46     		mov	lr, fp
 2907 0004 4E46     		mov	r6, r9
 2908 0006 4546     		mov	r5, r8
 2909 0008 5746     		mov	r7, r10
 2910 000a E0B5     		push	{r5, r6, r7, lr}
 2911              	.LCFI32:
 2912              		.cfi_def_cfa_offset 36
 2913              		.cfi_offset 8, -36
 2914              		.cfi_offset 9, -32
 2915              		.cfi_offset 10, -28
 2916              		.cfi_offset 11, -24
 2917 000c 8BB0     		sub	sp, sp, #44
 2918              	.LCFI33:
 2919              		.cfi_def_cfa_offset 80
 848:../../../../../../Middlewares/Third_Party/LoRaWAN/Mac/region/RegionKR920.c ****     uint8_t channelNext = 0;
 2920              		.loc 1 848 0
 2921 000e 0491     		str	r1, [sp, #16]
 2922 0010 0400     		movs	r4, r0
 852:../../../../../../Middlewares/Third_Party/LoRaWAN/Mac/region/RegionKR920.c ****     TimerTime_t nextTxDelay = 0;
 2923              		.loc 1 852 0
 2924 0012 0021     		movs	r1, #0
 2925              	.LVL250:
 848:../../../../../../Middlewares/Third_Party/LoRaWAN/Mac/region/RegionKR920.c ****     uint8_t channelNext = 0;
 2926              		.loc 1 848 0
 2927 0014 9346     		mov	fp, r2
 852:../../../../../../Middlewares/Third_Party/LoRaWAN/Mac/region/RegionKR920.c ****     TimerTime_t nextTxDelay = 0;
 2928              		.loc 1 852 0
 2929 0016 06A8     		add	r0, sp, #24
 2930              	.LVL251:
 2931 0018 1022     		movs	r2, #16
 2932              	.LVL252:
 848:../../../../../../Middlewares/Third_Party/LoRaWAN/Mac/region/RegionKR920.c ****     uint8_t channelNext = 0;
 2933              		.loc 1 848 0
ARM GAS  C:\Users\EBANO_~1\AppData\Local\Temp\ccLo4wHn.s 			page 77


 2934 001a 1E00     		movs	r6, r3
 852:../../../../../../Middlewares/Third_Party/LoRaWAN/Mac/region/RegionKR920.c ****     TimerTime_t nextTxDelay = 0;
 2935              		.loc 1 852 0
 2936 001c FFF7FEFF 		bl	memset
 2937              	.LVL253:
 855:../../../../../../Middlewares/Third_Party/LoRaWAN/Mac/region/RegionKR920.c ****     { // Reactivate default channels
 2938              		.loc 1 855 0
 2939 0020 764D     		ldr	r5, .L370
 2940 0022 0122     		movs	r2, #1
 2941 0024 0021     		movs	r1, #0
 2942 0026 2800     		movs	r0, r5
 2943 0028 FFF7FEFF 		bl	RegionCommonCountChannels
 2944              	.LVL254:
 2945 002c 0028     		cmp	r0, #0
 2946 002e 05D1     		bne	.L326
 857:../../../../../../Middlewares/Third_Party/LoRaWAN/Mac/region/RegionKR920.c ****     }
 2947              		.loc 1 857 0
 2948 0030 D022     		movs	r2, #208
 2949 0032 0721     		movs	r1, #7
 2950 0034 D03D     		subs	r5, r5, #208
 2951 0036 AB5A     		ldrh	r3, [r5, r2]
 2952 0038 0B43     		orrs	r3, r1
 2953 003a AB52     		strh	r3, [r5, r2]
 2954              	.L326:
 860:../../../../../../Middlewares/Third_Party/LoRaWAN/Mac/region/RegionKR920.c ****     {
 2955              		.loc 1 860 0
 2956 003c 6068     		ldr	r0, [r4, #4]
 2957 003e 2568     		ldr	r5, [r4]
 2958 0040 FFF7FEFF 		bl	TimerGetElapsedTime
 2959              	.LVL255:
 2960 0044 8542     		cmp	r5, r0
 2961 0046 65D8     		bhi	.L327
 863:../../../../../../Middlewares/Third_Party/LoRaWAN/Mac/region/RegionKR920.c **** 
 2962              		.loc 1 863 0
 2963 0048 0023     		movs	r3, #0
 2964 004a 3360     		str	r3, [r6]
 866:../../../../../../Middlewares/Third_Party/LoRaWAN/Mac/region/RegionKR920.c **** 
 2965              		.loc 1 866 0
 2966 004c 6C4B     		ldr	r3, .L370+4
 2967 004e A17A     		ldrb	r1, [r4, #10]
 2968 0050 9846     		mov	r8, r3
 2969 0052 607A     		ldrb	r0, [r4, #9]
 2970 0054 0123     		movs	r3, #1
 2971 0056 4246     		mov	r2, r8
 2972 0058 FFF7FEFF 		bl	RegionCommonUpdateBandTimeOff
 2973              	.LVL256:
 869:../../../../../../Middlewares/Third_Party/LoRaWAN/Mac/region/RegionKR920.c ****                                                       NvmCtx.ChannelsMask, NvmCtx.Channels,
 2974              		.loc 1 869 0
 2975 005c 0823     		movs	r3, #8
 2976 005e 4546     		mov	r5, r8
 866:../../../../../../Middlewares/Third_Party/LoRaWAN/Mac/region/RegionKR920.c **** 
 2977              		.loc 1 866 0
 2978 0060 0390     		str	r0, [sp, #12]
 2979              	.LVL257:
 869:../../../../../../Middlewares/Third_Party/LoRaWAN/Mac/region/RegionKR920.c ****                                                       NvmCtx.ChannelsMask, NvmCtx.Channels,
 2980              		.loc 1 869 0
 2981 0062 E356     		ldrsb	r3, [r4, r3]
ARM GAS  C:\Users\EBANO_~1\AppData\Local\Temp\ccLo4wHn.s 			page 78


 2982 0064 C03D     		subs	r5, r5, #192
 2983 0066 0193     		str	r3, [sp, #4]
 2984              	.LVL258:
 2985 0068 637A     		ldrb	r3, [r4, #9]
 2986 006a 0024     		movs	r4, #0
 2987              	.LVL259:
 2988 006c 002B     		cmp	r3, #0
 2989 006e 5CD1     		bne	.L328
 2990              	.LBB152:
 2991              	.LBB153:
 144:../../../../../../Middlewares/Third_Party/LoRaWAN/Mac/region/RegionKR920.c ****     uint8_t delayTransmission = 0;
 2992              		.loc 1 144 0
 2993 0070 0027     		movs	r7, #0
 145:../../../../../../Middlewares/Third_Party/LoRaWAN/Mac/region/RegionKR920.c **** 
 2994              		.loc 1 145 0
 2995 0072 0293     		str	r3, [sp, #8]
 2996              	.LBB154:
 2997              	.LBB155:
 151:../../../../../../Middlewares/Third_Party/LoRaWAN/Mac/region/RegionKR920.c ****             {
 2998              		.loc 1 151 0
 2999 0074 D033     		adds	r3, r3, #208
 3000              	.LVL260:
 3001 0076 9A46     		mov	r10, r3
 3002 0078 CF3B     		subs	r3, r3, #207
 3003 007a 2E00     		movs	r6, r5
 3004              	.LVL261:
 3005 007c 9846     		mov	r8, r3
 3006              	.LVL262:
 159:../../../../../../Middlewares/Third_Party/LoRaWAN/Mac/region/RegionKR920.c ****                     {
 3007              		.loc 1 159 0
 3008 007e B946     		mov	r9, r7
 3009 0080 0AE0     		b	.L333
 3010              	.LVL263:
 3011              	.L331:
 174:../../../../../../Middlewares/Third_Party/LoRaWAN/Mac/region/RegionKR920.c ****             }
 3012              		.loc 1 174 0
 3013 0082 4B46     		mov	r3, r9
 3014 0084 0133     		adds	r3, r3, #1
 3015              	.LVL264:
 3016 0086 4946     		mov	r1, r9
 3017 0088 DBB2     		uxtb	r3, r3
 3018 008a 9946     		mov	r9, r3
 3019 008c 06AA     		add	r2, sp, #24
 3020              	.LVL265:
 3021 008e 5754     		strb	r7, [r2, r1]
 3022              	.LVL266:
 3023              	.L329:
 3024 0090 0134     		adds	r4, r4, #1
 3025              	.LVL267:
 3026 0092 0C35     		adds	r5, r5, #12
 149:../../../../../../Middlewares/Third_Party/LoRaWAN/Mac/region/RegionKR920.c ****         {
 3027              		.loc 1 149 0
 3028 0094 102C     		cmp	r4, #16
 3029 0096 27D0     		beq	.L366
 3030              	.LVL268:
 3031              	.L333:
 151:../../../../../../Middlewares/Third_Party/LoRaWAN/Mac/region/RegionKR920.c ****             {
ARM GAS  C:\Users\EBANO_~1\AppData\Local\Temp\ccLo4wHn.s 			page 79


 3032              		.loc 1 151 0
 3033 0098 5346     		mov	r3, r10
 3034 009a F35A     		ldrh	r3, [r6, r3]
 3035 009c 4246     		mov	r2, r8
 3036 009e 2341     		asrs	r3, r3, r4
 3037 00a0 E7B2     		uxtb	r7, r4
 3038              	.LVL269:
 3039 00a2 1A42     		tst	r2, r3
 3040 00a4 F4D0     		beq	.L329
 153:../../../../../../Middlewares/Third_Party/LoRaWAN/Mac/region/RegionKR920.c ****                 { // Check if the channel is enabled
 3041              		.loc 1 153 0
 3042 00a6 2B68     		ldr	r3, [r5]
 3043 00a8 002B     		cmp	r3, #0
 3044 00aa F1D0     		beq	.L329
 159:../../../../../../Middlewares/Third_Party/LoRaWAN/Mac/region/RegionKR920.c ****                     {
 3045              		.loc 1 159 0
 3046 00ac 0723     		movs	r3, #7
 3047 00ae 2341     		asrs	r3, r3, r4
 3048 00b0 1A42     		tst	r2, r3
 3049 00b2 EDD0     		beq	.L329
 165:../../../../../../Middlewares/Third_Party/LoRaWAN/Mac/region/RegionKR920.c ****                 { // Check if the current channel selection supports the given datarate
 3050              		.loc 1 165 0
 3051 00b4 297A     		ldrb	r1, [r5, #8]
 164:../../../../../../Middlewares/Third_Party/LoRaWAN/Mac/region/RegionKR920.c ****                                               channels[i + j].DrRange.Fields.Max ) == false )
 3052              		.loc 1 164 0
 3053 00b6 0198     		ldr	r0, [sp, #4]
 165:../../../../../../Middlewares/Third_Party/LoRaWAN/Mac/region/RegionKR920.c ****                 { // Check if the current channel selection supports the given datarate
 3054              		.loc 1 165 0
 3055 00b8 4AB2     		sxtb	r2, r1
 164:../../../../../../Middlewares/Third_Party/LoRaWAN/Mac/region/RegionKR920.c ****                                               channels[i + j].DrRange.Fields.Max ) == false )
 3056              		.loc 1 164 0
 3057 00ba 0907     		lsls	r1, r1, #28
 3058 00bc 1211     		asrs	r2, r2, #4
 3059 00be 0917     		asrs	r1, r1, #28
 3060 00c0 FFF7FEFF 		bl	RegionCommonValueInRange
 3061              	.LVL270:
 3062 00c4 0028     		cmp	r0, #0
 3063 00c6 E3D0     		beq	.L329
 169:../../../../../../Middlewares/Third_Party/LoRaWAN/Mac/region/RegionKR920.c ****                 { // Check if the band is available for transmission
 3064              		.loc 1 169 0
 3065 00c8 3200     		movs	r2, r6
 3066 00ca 6B7A     		ldrb	r3, [r5, #9]
 3067 00cc C032     		adds	r2, r2, #192
 3068 00ce 1B01     		lsls	r3, r3, #4
 3069 00d0 9B18     		adds	r3, r3, r2
 3070 00d2 DB68     		ldr	r3, [r3, #12]
 3071 00d4 002B     		cmp	r3, #0
 3072 00d6 D4D0     		beq	.L331
 171:../../../../../../Middlewares/Third_Party/LoRaWAN/Mac/region/RegionKR920.c ****                     continue;
 3073              		.loc 1 171 0
 3074 00d8 029B     		ldr	r3, [sp, #8]
 3075 00da 0134     		adds	r4, r4, #1
 3076 00dc 0133     		adds	r3, r3, #1
 3077 00de DBB2     		uxtb	r3, r3
 3078 00e0 0293     		str	r3, [sp, #8]
 3079              	.LVL271:
 3080 00e2 0C35     		adds	r5, r5, #12
ARM GAS  C:\Users\EBANO_~1\AppData\Local\Temp\ccLo4wHn.s 			page 80


 149:../../../../../../Middlewares/Third_Party/LoRaWAN/Mac/region/RegionKR920.c ****         {
 3081              		.loc 1 149 0
 3082 00e4 102C     		cmp	r4, #16
 3083 00e6 D7D1     		bne	.L333
 3084              	.L366:
 3085 00e8 4F46     		mov	r7, r9
 3086              	.LVL272:
 3087              	.L334:
 3088              	.LBE155:
 3089              	.LBE154:
 3090              	.LBE153:
 3091              	.LBE152:
 879:../../../../../../Middlewares/Third_Party/LoRaWAN/Mac/region/RegionKR920.c ****     {
 3092              		.loc 1 879 0
 3093 00ea 002F     		cmp	r7, #0
 3094 00ec 51D1     		bne	.L367
 900:../../../../../../Middlewares/Third_Party/LoRaWAN/Mac/region/RegionKR920.c ****         {
 3095              		.loc 1 900 0
 3096 00ee 029B     		ldr	r3, [sp, #8]
 3097 00f0 002B     		cmp	r3, #0
 3098 00f2 15D1     		bne	.L341
 907:../../../../../../Middlewares/Third_Party/LoRaWAN/Mac/region/RegionKR920.c ****         *time = 0;
 3099              		.loc 1 907 0
 3100 00f4 D022     		movs	r2, #208
 3101 00f6 0721     		movs	r1, #7
 3102 00f8 B35A     		ldrh	r3, [r6, r2]
 909:../../../../../../Middlewares/Third_Party/LoRaWAN/Mac/region/RegionKR920.c ****     }
 3103              		.loc 1 909 0
 3104 00fa 0C20     		movs	r0, #12
 907:../../../../../../Middlewares/Third_Party/LoRaWAN/Mac/region/RegionKR920.c ****         *time = 0;
 3105              		.loc 1 907 0
 3106 00fc 0B43     		orrs	r3, r1
 3107 00fe B352     		strh	r3, [r6, r2]
 908:../../../../../../Middlewares/Third_Party/LoRaWAN/Mac/region/RegionKR920.c ****         return LORAMAC_STATUS_NO_CHANNEL_FOUND;
 3108              		.loc 1 908 0
 3109 0100 5B46     		mov	r3, fp
 3110 0102 029A     		ldr	r2, [sp, #8]
 3111 0104 1A60     		str	r2, [r3]
 3112              	.LVL273:
 3113              	.L343:
 911:../../../../../../Middlewares/Third_Party/LoRaWAN/Mac/region/RegionKR920.c **** 
 3114              		.loc 1 911 0
 3115 0106 0BB0     		add	sp, sp, #44
 3116              		@ sp needed
 3117              	.LVL274:
 3118 0108 3CBC     		pop	{r2, r3, r4, r5}
 3119 010a 9046     		mov	r8, r2
 3120 010c 9946     		mov	r9, r3
 3121 010e A246     		mov	r10, r4
 3122 0110 AB46     		mov	fp, r5
 3123 0112 F0BD     		pop	{r4, r5, r6, r7, pc}
 3124              	.LVL275:
 3125              	.L327:
 876:../../../../../../Middlewares/Third_Party/LoRaWAN/Mac/region/RegionKR920.c ****     }
 3126              		.loc 1 876 0
 3127 0114 6068     		ldr	r0, [r4, #4]
 3128 0116 2568     		ldr	r5, [r4]
ARM GAS  C:\Users\EBANO_~1\AppData\Local\Temp\ccLo4wHn.s 			page 81


 3129 0118 FFF7FEFF 		bl	TimerGetElapsedTime
 3130              	.LVL276:
 3131 011c 2B1A     		subs	r3, r5, r0
 3132 011e 0393     		str	r3, [sp, #12]
 3133              	.LVL277:
 3134              	.L341:
 903:../../../../../../Middlewares/Third_Party/LoRaWAN/Mac/region/RegionKR920.c ****             return LORAMAC_STATUS_DUTYCYCLE_RESTRICTED;
 3135              		.loc 1 903 0
 3136 0120 5B46     		mov	r3, fp
 3137 0122 039A     		ldr	r2, [sp, #12]
 904:../../../../../../Middlewares/Third_Party/LoRaWAN/Mac/region/RegionKR920.c ****         }
 3138              		.loc 1 904 0
 3139 0124 0B20     		movs	r0, #11
 903:../../../../../../Middlewares/Third_Party/LoRaWAN/Mac/region/RegionKR920.c ****             return LORAMAC_STATUS_DUTYCYCLE_RESTRICTED;
 3140              		.loc 1 903 0
 3141 0126 1A60     		str	r2, [r3]
 904:../../../../../../Middlewares/Third_Party/LoRaWAN/Mac/region/RegionKR920.c ****         }
 3142              		.loc 1 904 0
 3143 0128 EDE7     		b	.L343
 3144              	.LVL278:
 3145              	.L328:
 3146              	.LBB164:
 3147              	.LBB162:
 145:../../../../../../Middlewares/Third_Party/LoRaWAN/Mac/region/RegionKR920.c **** 
 3148              		.loc 1 145 0
 3149 012a 0023     		movs	r3, #0
 3150              	.LVL279:
 3151 012c 0293     		str	r3, [sp, #8]
 3152              	.LBB159:
 3153              	.LBB156:
 151:../../../../../../Middlewares/Third_Party/LoRaWAN/Mac/region/RegionKR920.c ****             {
 3154              		.loc 1 151 0
 3155 012e D033     		adds	r3, r3, #208
 3156 0130 9A46     		mov	r10, r3
 3157 0132 CF3B     		subs	r3, r3, #207
 3158              	.LBE156:
 3159              	.LBE159:
 144:../../../../../../Middlewares/Third_Party/LoRaWAN/Mac/region/RegionKR920.c ****     uint8_t delayTransmission = 0;
 3160              		.loc 1 144 0
 3161 0134 0027     		movs	r7, #0
 3162              	.LBB160:
 3163              	.LBB157:
 151:../../../../../../Middlewares/Third_Party/LoRaWAN/Mac/region/RegionKR920.c ****             {
 3164              		.loc 1 151 0
 3165 0136 9946     		mov	r9, r3
 169:../../../../../../Middlewares/Third_Party/LoRaWAN/Mac/region/RegionKR920.c ****                 { // Check if the band is available for transmission
 3166              		.loc 1 169 0
 3167 0138 4346     		mov	r3, r8
 3168 013a B846     		mov	r8, r7
 3169              	.LVL280:
 3170 013c 0593     		str	r3, [sp, #20]
 3171 013e 2F00     		movs	r7, r5
 3172 0140 03E0     		b	.L336
 3173              	.LVL281:
 3174              	.L337:
 3175 0142 0134     		adds	r4, r4, #1
 3176              	.LVL282:
ARM GAS  C:\Users\EBANO_~1\AppData\Local\Temp\ccLo4wHn.s 			page 82


 3177 0144 0C35     		adds	r5, r5, #12
 149:../../../../../../Middlewares/Third_Party/LoRaWAN/Mac/region/RegionKR920.c ****         {
 3178              		.loc 1 149 0
 3179 0146 102C     		cmp	r4, #16
 3180 0148 52D0     		beq	.L368
 3181              	.LVL283:
 3182              	.L336:
 151:../../../../../../Middlewares/Third_Party/LoRaWAN/Mac/region/RegionKR920.c ****             {
 3183              		.loc 1 151 0
 3184 014a 5346     		mov	r3, r10
 3185 014c FB5A     		ldrh	r3, [r7, r3]
 3186 014e 4A46     		mov	r2, r9
 3187 0150 2341     		asrs	r3, r3, r4
 3188 0152 E6B2     		uxtb	r6, r4
 3189              	.LVL284:
 3190 0154 1A42     		tst	r2, r3
 3191 0156 F4D0     		beq	.L337
 153:../../../../../../Middlewares/Third_Party/LoRaWAN/Mac/region/RegionKR920.c ****                 { // Check if the channel is enabled
 3192              		.loc 1 153 0
 3193 0158 2B68     		ldr	r3, [r5]
 3194 015a 002B     		cmp	r3, #0
 3195 015c F1D0     		beq	.L337
 165:../../../../../../Middlewares/Third_Party/LoRaWAN/Mac/region/RegionKR920.c ****                 { // Check if the current channel selection supports the given datarate
 3196              		.loc 1 165 0
 3197 015e 297A     		ldrb	r1, [r5, #8]
 164:../../../../../../Middlewares/Third_Party/LoRaWAN/Mac/region/RegionKR920.c ****                                               channels[i + j].DrRange.Fields.Max ) == false )
 3198              		.loc 1 164 0
 3199 0160 0198     		ldr	r0, [sp, #4]
 165:../../../../../../Middlewares/Third_Party/LoRaWAN/Mac/region/RegionKR920.c ****                 { // Check if the current channel selection supports the given datarate
 3200              		.loc 1 165 0
 3201 0162 4AB2     		sxtb	r2, r1
 164:../../../../../../Middlewares/Third_Party/LoRaWAN/Mac/region/RegionKR920.c ****                                               channels[i + j].DrRange.Fields.Max ) == false )
 3202              		.loc 1 164 0
 3203 0164 0907     		lsls	r1, r1, #28
 3204 0166 1211     		asrs	r2, r2, #4
 3205 0168 0917     		asrs	r1, r1, #28
 3206 016a FFF7FEFF 		bl	RegionCommonValueInRange
 3207              	.LVL285:
 3208 016e 0028     		cmp	r0, #0
 3209 0170 E7D0     		beq	.L337
 169:../../../../../../Middlewares/Third_Party/LoRaWAN/Mac/region/RegionKR920.c ****                 { // Check if the band is available for transmission
 3210              		.loc 1 169 0
 3211 0172 059A     		ldr	r2, [sp, #20]
 3212 0174 6B7A     		ldrb	r3, [r5, #9]
 3213 0176 9446     		mov	ip, r2
 3214 0178 1B01     		lsls	r3, r3, #4
 3215 017a 6344     		add	r3, r3, ip
 3216 017c DB68     		ldr	r3, [r3, #12]
 3217 017e 002B     		cmp	r3, #0
 3218 0180 31D1     		bne	.L338
 174:../../../../../../Middlewares/Third_Party/LoRaWAN/Mac/region/RegionKR920.c ****             }
 3219              		.loc 1 174 0
 3220 0182 4346     		mov	r3, r8
 3221 0184 4146     		mov	r1, r8
 3222 0186 0133     		adds	r3, r3, #1
 3223              	.LVL286:
 3224 0188 06AA     		add	r2, sp, #24
ARM GAS  C:\Users\EBANO_~1\AppData\Local\Temp\ccLo4wHn.s 			page 83


 3225              	.LVL287:
 3226 018a DBB2     		uxtb	r3, r3
 3227 018c 5654     		strb	r6, [r2, r1]
 3228 018e 9846     		mov	r8, r3
 3229 0190 D7E7     		b	.L337
 3230              	.LVL288:
 3231              	.L367:
 3232              	.LBE157:
 3233              	.LBE160:
 3234              	.LBE162:
 3235              	.LBE164:
 3236              	.LBB165:
 881:../../../../../../Middlewares/Third_Party/LoRaWAN/Mac/region/RegionKR920.c ****         {
 3237              		.loc 1 881 0
 3238 0192 791E     		subs	r1, r7, #1
 3239 0194 0020     		movs	r0, #0
 3240 0196 FFF7FEFF 		bl	randr
 3241              	.LVL289:
 3242 019a 1A4B     		ldr	r3, .L370+8
 3243 019c B846     		mov	r8, r7
 3244 019e 9B69     		ldr	r3, [r3, #24]
 3245 01a0 C4B2     		uxtb	r4, r0
 3246              	.LVL290:
 3247 01a2 1025     		movs	r5, #16
 3248 01a4 1F00     		movs	r7, r3
 3249 01a6 B146     		mov	r9, r6
 3250 01a8 03E0     		b	.L344
 3251              	.LVL291:
 3252              	.L342:
 3253 01aa 013D     		subs	r5, r5, #1
 3254 01ac EDB2     		uxtb	r5, r5
 881:../../../../../../Middlewares/Third_Party/LoRaWAN/Mac/region/RegionKR920.c ****         {
 3255              		.loc 1 881 0 is_stmt 0 discriminator 2
 3256 01ae 002D     		cmp	r5, #0
 3257 01b0 21D0     		beq	.L369
 3258              	.LVL292:
 3259              	.L344:
 883:../../../../../../Middlewares/Third_Party/LoRaWAN/Mac/region/RegionKR920.c ****             j = ( j + 1 ) % nbEnabledChannels;
 3260              		.loc 1 883 0 is_stmt 1
 3261 01b2 06AB     		add	r3, sp, #24
 884:../../../../../../Middlewares/Third_Party/LoRaWAN/Mac/region/RegionKR920.c **** 
 3262              		.loc 1 884 0
 3263 01b4 601C     		adds	r0, r4, #1
 3264 01b6 4146     		mov	r1, r8
 883:../../../../../../Middlewares/Third_Party/LoRaWAN/Mac/region/RegionKR920.c ****             j = ( j + 1 ) % nbEnabledChannels;
 3265              		.loc 1 883 0
 3266 01b8 1E5D     		ldrb	r6, [r3, r4]
 3267              	.LVL293:
 884:../../../../../../Middlewares/Third_Party/LoRaWAN/Mac/region/RegionKR920.c **** 
 3268              		.loc 1 884 0
 3269 01ba FFF7FEFF 		bl	__aeabi_idivmod
 3270              	.LVL294:
 888:../../../../../../Middlewares/Third_Party/LoRaWAN/Mac/region/RegionKR920.c ****             {
 3271              		.loc 1 888 0
 3272 01be 4A46     		mov	r2, r9
 3273 01c0 7300     		lsls	r3, r6, #1
 3274 01c2 9B19     		adds	r3, r3, r6
ARM GAS  C:\Users\EBANO_~1\AppData\Local\Temp\ccLo4wHn.s 			page 84


 3275 01c4 9B00     		lsls	r3, r3, #2
 884:../../../../../../Middlewares/Third_Party/LoRaWAN/Mac/region/RegionKR920.c **** 
 3276              		.loc 1 884 0
 3277 01c6 CCB2     		uxtb	r4, r1
 3278              	.LVL295:
 888:../../../../../../Middlewares/Third_Party/LoRaWAN/Mac/region/RegionKR920.c ****             {
 3279              		.loc 1 888 0
 3280 01c8 D158     		ldr	r1, [r2, r3]
 3281 01ca 4122     		movs	r2, #65
 3282 01cc 0623     		movs	r3, #6
 3283 01ce 5242     		rsbs	r2, r2, #0
 3284 01d0 0120     		movs	r0, #1
 3285 01d2 B847     		blx	r7
 3286              	.LVL296:
 3287 01d4 0028     		cmp	r0, #0
 3288 01d6 E8D0     		beq	.L342
 891:../../../../../../Middlewares/Third_Party/LoRaWAN/Mac/region/RegionKR920.c ****                 *time = 0;
 3289              		.loc 1 891 0
 3290 01d8 049B     		ldr	r3, [sp, #16]
 892:../../../../../../Middlewares/Third_Party/LoRaWAN/Mac/region/RegionKR920.c ****                 return LORAMAC_STATUS_OK;
 3291              		.loc 1 892 0
 3292 01da 5A46     		mov	r2, fp
 891:../../../../../../Middlewares/Third_Party/LoRaWAN/Mac/region/RegionKR920.c ****                 *time = 0;
 3293              		.loc 1 891 0
 3294 01dc 1E70     		strb	r6, [r3]
 892:../../../../../../Middlewares/Third_Party/LoRaWAN/Mac/region/RegionKR920.c ****                 return LORAMAC_STATUS_OK;
 3295              		.loc 1 892 0
 3296 01de 0023     		movs	r3, #0
 893:../../../../../../Middlewares/Third_Party/LoRaWAN/Mac/region/RegionKR920.c ****             }
 3297              		.loc 1 893 0
 3298 01e0 0020     		movs	r0, #0
 892:../../../../../../Middlewares/Third_Party/LoRaWAN/Mac/region/RegionKR920.c ****                 return LORAMAC_STATUS_OK;
 3299              		.loc 1 892 0
 3300 01e2 1360     		str	r3, [r2]
 893:../../../../../../Middlewares/Third_Party/LoRaWAN/Mac/region/RegionKR920.c ****             }
 3301              		.loc 1 893 0
 3302 01e4 8FE7     		b	.L343
 3303              	.LVL297:
 3304              	.L338:
 3305              	.LBE165:
 3306              	.LBB166:
 3307              	.LBB163:
 3308              	.LBB161:
 3309              	.LBB158:
 171:../../../../../../Middlewares/Third_Party/LoRaWAN/Mac/region/RegionKR920.c ****                     continue;
 3310              		.loc 1 171 0
 3311 01e6 029B     		ldr	r3, [sp, #8]
 3312 01e8 0133     		adds	r3, r3, #1
 3313 01ea DBB2     		uxtb	r3, r3
 3314 01ec 0293     		str	r3, [sp, #8]
 3315              	.LVL298:
 3316 01ee A8E7     		b	.L337
 3317              	.LVL299:
 3318              	.L368:
 3319 01f0 3E00     		movs	r6, r7
 3320              	.LVL300:
 3321 01f2 4746     		mov	r7, r8
ARM GAS  C:\Users\EBANO_~1\AppData\Local\Temp\ccLo4wHn.s 			page 85


 3322 01f4 79E7     		b	.L334
 3323              	.LVL301:
 3324              	.L369:
 3325              	.LBE158:
 3326              	.LBE161:
 3327              	.LBE163:
 3328              	.LBE166:
 896:../../../../../../Middlewares/Third_Party/LoRaWAN/Mac/region/RegionKR920.c ****     }
 3329              		.loc 1 896 0
 3330 01f6 0D20     		movs	r0, #13
 3331 01f8 85E7     		b	.L343
 3332              	.L371:
 3333 01fa C046     		.align	2
 3334              	.L370:
 3335 01fc D0000000 		.word	NvmCtx+208
 3336 0200 C0000000 		.word	NvmCtx+192
 3337 0204 00000000 		.word	Radio
 3338              		.cfi_endproc
 3339              	.LFE62:
 3340              		.size	RegionKR920NextChannel, .-RegionKR920NextChannel
 3341              		.section	.text.RegionKR920ChannelAdd,"ax",%progbits
 3342              		.align	1
 3343              		.p2align 2,,3
 3344              		.global	RegionKR920ChannelAdd
 3345              		.syntax unified
 3346              		.code	16
 3347              		.thumb_func
 3348              		.fpu softvfp
 3349              		.type	RegionKR920ChannelAdd, %function
 3350              	RegionKR920ChannelAdd:
 3351              	.LFB63:
 914:../../../../../../Middlewares/Third_Party/LoRaWAN/Mac/region/RegionKR920.c ****     bool drInvalid = false;
 3352              		.loc 1 914 0
 3353              		.cfi_startproc
 3354              		@ args = 0, pretend = 0, frame = 8
 3355              		@ frame_needed = 0, uses_anonymous_args = 0
 3356              	.LVL302:
 3357 0000 F0B5     		push	{r4, r5, r6, r7, lr}
 3358              	.LCFI34:
 3359              		.cfi_def_cfa_offset 20
 3360              		.cfi_offset 4, -20
 3361              		.cfi_offset 5, -16
 3362              		.cfi_offset 6, -12
 3363              		.cfi_offset 7, -8
 3364              		.cfi_offset 14, -4
 917:../../../../../../Middlewares/Third_Party/LoRaWAN/Mac/region/RegionKR920.c **** 
 3365              		.loc 1 917 0
 3366 0002 0579     		ldrb	r5, [r0, #4]
 3367              	.LVL303:
 914:../../../../../../Middlewares/Third_Party/LoRaWAN/Mac/region/RegionKR920.c ****     bool drInvalid = false;
 3368              		.loc 1 914 0
 3369 0004 83B0     		sub	sp, sp, #12
 3370              	.LCFI35:
 3371              		.cfi_def_cfa_offset 32
 914:../../../../../../Middlewares/Third_Party/LoRaWAN/Mac/region/RegionKR920.c ****     bool drInvalid = false;
 3372              		.loc 1 914 0
 3373 0006 0400     		movs	r4, r0
ARM GAS  C:\Users\EBANO_~1\AppData\Local\Temp\ccLo4wHn.s 			page 86


 919:../../../../../../Middlewares/Third_Party/LoRaWAN/Mac/region/RegionKR920.c ****     {
 3374              		.loc 1 919 0
 3375 0008 022D     		cmp	r5, #2
 3376 000a 32D9     		bls	.L378
 926:../../../../../../Middlewares/Third_Party/LoRaWAN/Mac/region/RegionKR920.c ****     }
 3377              		.loc 1 926 0
 3378 000c 0320     		movs	r0, #3
 3379              	.LVL304:
 924:../../../../../../Middlewares/Third_Party/LoRaWAN/Mac/region/RegionKR920.c ****     {
 3380              		.loc 1 924 0
 3381 000e 0F2D     		cmp	r5, #15
 3382 0010 30D8     		bhi	.L387
 930:../../../../../../Middlewares/Third_Party/LoRaWAN/Mac/region/RegionKR920.c ****     {
 3383              		.loc 1 930 0
 3384 0012 2368     		ldr	r3, [r4]
 3385 0014 0522     		movs	r2, #5
 3386 0016 187A     		ldrb	r0, [r3, #8]
 3387 0018 0021     		movs	r1, #0
 3388 001a 0007     		lsls	r0, r0, #28
 3389 001c 0017     		asrs	r0, r0, #28
 3390 001e FFF7FEFF 		bl	RegionCommonValueInRange
 3391              	.LVL305:
 3392 0022 0600     		movs	r6, r0
 3393              	.LVL306:
 934:../../../../../../Middlewares/Third_Party/LoRaWAN/Mac/region/RegionKR920.c ****     {
 3394              		.loc 1 934 0
 3395 0024 0820     		movs	r0, #8
 3396 0026 2368     		ldr	r3, [r4]
 3397 0028 0522     		movs	r2, #5
 3398 002a 1856     		ldrsb	r0, [r3, r0]
 3399 002c 0021     		movs	r1, #0
 3400 002e 0011     		asrs	r0, r0, #4
 3401 0030 FFF7FEFF 		bl	RegionCommonValueInRange
 3402              	.LVL307:
 936:../../../../../../Middlewares/Third_Party/LoRaWAN/Mac/region/RegionKR920.c ****     }
 3403              		.loc 1 936 0
 3404 0034 0127     		movs	r7, #1
 934:../../../../../../Middlewares/Third_Party/LoRaWAN/Mac/region/RegionKR920.c ****     {
 3405              		.loc 1 934 0
 3406 0036 0028     		cmp	r0, #0
 3407 0038 26D1     		bne	.L392
 3408              	.LVL308:
 3409              	.L375:
 938:../../../../../../Middlewares/Third_Party/LoRaWAN/Mac/region/RegionKR920.c ****     {
 3410              		.loc 1 938 0
 3411 003a 2368     		ldr	r3, [r4]
 3412 003c 254A     		ldr	r2, .L395
 3413 003e 1E68     		ldr	r6, [r3]
 3414 0040 926A     		ldr	r2, [r2, #40]
 3415 0042 1B7A     		ldrb	r3, [r3, #8]
 3416 0044 0192     		str	r2, [sp, #4]
 3417 0046 1A07     		lsls	r2, r3, #28
 3418 0048 5BB2     		sxtb	r3, r3
 3419 004a 1217     		asrs	r2, r2, #28
 3420 004c 1B11     		asrs	r3, r3, #4
 3421              	.LBB171:
 3422              	.LBB172:
ARM GAS  C:\Users\EBANO_~1\AppData\Local\Temp\ccLo4wHn.s 			page 87


 123:../../../../../../Middlewares/Third_Party/LoRaWAN/Mac/region/RegionKR920.c ****     {
 3423              		.loc 1 123 0
 3424 004e 3000     		movs	r0, r6
 3425              	.LBE172:
 3426              	.LBE171:
 938:../../../../../../Middlewares/Third_Party/LoRaWAN/Mac/region/RegionKR920.c ****     {
 3427              		.loc 1 938 0
 3428 0050 9A42     		cmp	r2, r3
 3429 0052 11DD     		ble	.L393
 3430              	.LVL309:
 3431              	.LBB183:
 3432              	.LBB179:
 123:../../../../../../Middlewares/Third_Party/LoRaWAN/Mac/region/RegionKR920.c ****     {
 3433              		.loc 1 123 0
 3434 0054 019B     		ldr	r3, [sp, #4]
 3435 0056 9847     		blx	r3
 3436              	.LVL310:
 3437 0058 0028     		cmp	r0, #0
 3438 005a 0AD0     		beq	.L378
 3439              	.LVL311:
 3440              	.LBB173:
 3441              	.LBB174:
 130:../../../../../../Middlewares/Third_Party/LoRaWAN/Mac/region/RegionKR920.c ****     {
 3442              		.loc 1 130 0
 3443 005c 1E4B     		ldr	r3, .L395+4
 3444 005e F018     		adds	r0, r6, r3
 3445 0060 1E4B     		ldr	r3, .L395+8
 3446 0062 9842     		cmp	r0, r3
 3447 0064 05D8     		bhi	.L378
 3448              	.LVL312:
 134:../../../../../../Middlewares/Third_Party/LoRaWAN/Mac/region/RegionKR920.c ****         {
 3449              		.loc 1 134 0
 3450 0066 1E49     		ldr	r1, .L395+12
 3451 0068 FFF7FEFF 		bl	__aeabi_uidivmod
 3452              	.LVL313:
 3453              	.LBE174:
 3454              	.LBE173:
 3455              	.LBE179:
 3456              	.LBE183:
 959:../../../../../../Middlewares/Third_Party/LoRaWAN/Mac/region/RegionKR920.c ****     }
 3457              		.loc 1 959 0
 3458 006c 0520     		movs	r0, #5
 3459              	.LBB184:
 3460              	.LBB180:
 3461              	.LBB177:
 3462              	.LBB175:
 134:../../../../../../Middlewares/Third_Party/LoRaWAN/Mac/region/RegionKR920.c ****         {
 3463              		.loc 1 134 0
 3464 006e 0029     		cmp	r1, #0
 3465 0070 00D0     		beq	.L387
 3466              	.LVL314:
 3467              	.L378:
 3468              	.LBE175:
 3469              	.LBE177:
 3470              	.LBE180:
 3471              	.LBE184:
 921:../../../../../../Middlewares/Third_Party/LoRaWAN/Mac/region/RegionKR920.c ****     }
ARM GAS  C:\Users\EBANO_~1\AppData\Local\Temp\ccLo4wHn.s 			page 88


 3472              		.loc 1 921 0
 3473 0072 0620     		movs	r0, #6
 3474              	.LVL315:
 3475              	.L387:
 970:../../../../../../Middlewares/Third_Party/LoRaWAN/Mac/region/RegionKR920.c **** 
 3476              		.loc 1 970 0
 3477 0074 03B0     		add	sp, sp, #12
 3478              		@ sp needed
 3479              	.LVL316:
 3480 0076 F0BD     		pop	{r4, r5, r6, r7, pc}
 3481              	.LVL317:
 3482              	.L393:
 3483              	.LBB185:
 3484              	.LBB181:
 123:../../../../../../Middlewares/Third_Party/LoRaWAN/Mac/region/RegionKR920.c ****     {
 3485              		.loc 1 123 0
 3486 0078 019B     		ldr	r3, [sp, #4]
 3487 007a 9847     		blx	r3
 3488              	.LVL318:
 3489 007c 0028     		cmp	r0, #0
 3490 007e 07D1     		bne	.L394
 3491              	.L377:
 3492              	.LVL319:
 3493              	.LBE181:
 3494              	.LBE185:
 953:../../../../../../Middlewares/Third_Party/LoRaWAN/Mac/region/RegionKR920.c ****     {
 3495              		.loc 1 953 0
 3496 0080 002F     		cmp	r7, #0
 3497 0082 F6D1     		bne	.L378
 963:../../../../../../Middlewares/Third_Party/LoRaWAN/Mac/region/RegionKR920.c ****     }
 3498              		.loc 1 963 0
 3499 0084 0420     		movs	r0, #4
 3500 0086 F5E7     		b	.L387
 3501              	.LVL320:
 3502              	.L392:
 930:../../../../../../Middlewares/Third_Party/LoRaWAN/Mac/region/RegionKR920.c ****     {
 3503              		.loc 1 930 0
 3504 0088 7742     		rsbs	r7, r6, #0
 3505 008a 7741     		adcs	r7, r7, r6
 3506              	.LVL321:
 3507 008c FFB2     		uxtb	r7, r7
 3508 008e D4E7     		b	.L375
 3509              	.LVL322:
 3510              	.L394:
 3511              	.LBB186:
 3512              	.LBB182:
 3513              	.LBB178:
 3514              	.LBB176:
 130:../../../../../../Middlewares/Third_Party/LoRaWAN/Mac/region/RegionKR920.c ****     {
 3515              		.loc 1 130 0
 3516 0090 114B     		ldr	r3, .L395+4
 3517 0092 F018     		adds	r0, r6, r3
 3518 0094 114B     		ldr	r3, .L395+8
 3519 0096 9842     		cmp	r0, r3
 3520 0098 F2D8     		bhi	.L377
 3521              	.LVL323:
 134:../../../../../../Middlewares/Third_Party/LoRaWAN/Mac/region/RegionKR920.c ****         {
ARM GAS  C:\Users\EBANO_~1\AppData\Local\Temp\ccLo4wHn.s 			page 89


 3522              		.loc 1 134 0
 3523 009a 1149     		ldr	r1, .L395+12
 3524 009c FFF7FEFF 		bl	__aeabi_uidivmod
 3525              	.LVL324:
 3526 00a0 0029     		cmp	r1, #0
 3527 00a2 EDD1     		bne	.L377
 3528              	.LBE176:
 3529              	.LBE178:
 3530              	.LBE182:
 3531              	.LBE186:
 953:../../../../../../Middlewares/Third_Party/LoRaWAN/Mac/region/RegionKR920.c ****     {
 3532              		.loc 1 953 0
 3533 00a4 002F     		cmp	r7, #0
 3534 00a6 12D1     		bne	.L381
 966:../../../../../../Middlewares/Third_Party/LoRaWAN/Mac/region/RegionKR920.c ****     NvmCtx.Channels[id].Band = 0;
 3535              		.loc 1 966 0
 3536 00a8 2168     		ldr	r1, [r4]
 3537 00aa 6C00     		lsls	r4, r5, #1
 3538              	.LVL325:
 3539 00ac 0D4E     		ldr	r6, .L395+16
 3540              	.LVL326:
 3541 00ae 6419     		adds	r4, r4, r5
 3542 00b0 A400     		lsls	r4, r4, #2
 3543 00b2 A419     		adds	r4, r4, r6
 3544 00b4 0C22     		movs	r2, #12
 3545 00b6 2000     		movs	r0, r4
 3546 00b8 FFF7FEFF 		bl	memcpy1
 3547              	.LVL327:
 968:../../../../../../Middlewares/Third_Party/LoRaWAN/Mac/region/RegionKR920.c ****     return LORAMAC_STATUS_OK;
 3548              		.loc 1 968 0
 3549 00bc 0122     		movs	r2, #1
 3550 00be D021     		movs	r1, #208
 3551 00c0 AA40     		lsls	r2, r2, r5
 967:../../../../../../Middlewares/Third_Party/LoRaWAN/Mac/region/RegionKR920.c ****     NvmCtx.ChannelsMask[0] |= ( 1 << id );
 3552              		.loc 1 967 0
 3553 00c2 6772     		strb	r7, [r4, #9]
 968:../../../../../../Middlewares/Third_Party/LoRaWAN/Mac/region/RegionKR920.c ****     return LORAMAC_STATUS_OK;
 3554              		.loc 1 968 0
 3555 00c4 735A     		ldrh	r3, [r6, r1]
 969:../../../../../../Middlewares/Third_Party/LoRaWAN/Mac/region/RegionKR920.c **** }
 3556              		.loc 1 969 0
 3557 00c6 0020     		movs	r0, #0
 968:../../../../../../Middlewares/Third_Party/LoRaWAN/Mac/region/RegionKR920.c ****     return LORAMAC_STATUS_OK;
 3558              		.loc 1 968 0
 3559 00c8 1343     		orrs	r3, r2
 3560 00ca 7352     		strh	r3, [r6, r1]
 969:../../../../../../Middlewares/Third_Party/LoRaWAN/Mac/region/RegionKR920.c **** }
 3561              		.loc 1 969 0
 3562 00cc D2E7     		b	.L387
 3563              	.LVL328:
 3564              	.L381:
 959:../../../../../../Middlewares/Third_Party/LoRaWAN/Mac/region/RegionKR920.c ****     }
 3565              		.loc 1 959 0
 3566 00ce 0520     		movs	r0, #5
 3567 00d0 D0E7     		b	.L387
 3568              	.L396:
 3569 00d2 C046     		.align	2
ARM GAS  C:\Users\EBANO_~1\AppData\Local\Temp\ccLo4wHn.s 			page 90


 3570              	.L395:
 3571 00d4 00000000 		.word	Radio
 3572 00d8 602E1CC9 		.word	-920900000
 3573 00dc 009F2400 		.word	2400000
 3574 00e0 400D0300 		.word	200000
 3575 00e4 00000000 		.word	NvmCtx
 3576              		.cfi_endproc
 3577              	.LFE63:
 3578              		.size	RegionKR920ChannelAdd, .-RegionKR920ChannelAdd
 3579              		.section	.text.RegionKR920ChannelsRemove,"ax",%progbits
 3580              		.align	1
 3581              		.p2align 2,,3
 3582              		.global	RegionKR920ChannelsRemove
 3583              		.syntax unified
 3584              		.code	16
 3585              		.thumb_func
 3586              		.fpu softvfp
 3587              		.type	RegionKR920ChannelsRemove, %function
 3588              	RegionKR920ChannelsRemove:
 3589              	.LFB64:
 973:../../../../../../Middlewares/Third_Party/LoRaWAN/Mac/region/RegionKR920.c ****     uint8_t id = channelRemove->ChannelId;
 3590              		.loc 1 973 0
 3591              		.cfi_startproc
 3592              		@ args = 0, pretend = 0, frame = 0
 3593              		@ frame_needed = 0, uses_anonymous_args = 0
 3594              	.LVL329:
 3595 0000 70B5     		push	{r4, r5, r6, lr}
 3596              	.LCFI36:
 3597              		.cfi_def_cfa_offset 16
 3598              		.cfi_offset 4, -16
 3599              		.cfi_offset 5, -12
 3600              		.cfi_offset 6, -8
 3601              		.cfi_offset 14, -4
 974:../../../../../../Middlewares/Third_Party/LoRaWAN/Mac/region/RegionKR920.c **** 
 3602              		.loc 1 974 0
 3603 0002 0478     		ldrb	r4, [r0]
 3604              	.LVL330:
 978:../../../../../../Middlewares/Third_Party/LoRaWAN/Mac/region/RegionKR920.c ****     }
 3605              		.loc 1 978 0
 3606 0004 0020     		movs	r0, #0
 3607              	.LVL331:
 976:../../../../../../Middlewares/Third_Party/LoRaWAN/Mac/region/RegionKR920.c ****     {
 3608              		.loc 1 976 0
 3609 0006 022C     		cmp	r4, #2
 3610 0008 0ED9     		bls	.L398
 982:../../../../../../Middlewares/Third_Party/LoRaWAN/Mac/region/RegionKR920.c **** 
 3611              		.loc 1 982 0
 3612 000a 6000     		lsls	r0, r4, #1
 3613 000c 074D     		ldr	r5, .L400
 3614 000e 0019     		adds	r0, r0, r4
 3615 0010 8000     		lsls	r0, r0, #2
 3616 0012 0C22     		movs	r2, #12
 3617 0014 0021     		movs	r1, #0
 3618 0016 2818     		adds	r0, r5, r0
 3619 0018 FFF7FEFF 		bl	memset
 3620              	.LVL332:
 3621              		.loc 1 984 0
ARM GAS  C:\Users\EBANO_~1\AppData\Local\Temp\ccLo4wHn.s 			page 91


 3622 001c 2800     		movs	r0, r5
 3623 001e 1022     		movs	r2, #16
 3624 0020 D030     		adds	r0, r0, #208
 3625 0022 2100     		movs	r1, r4
 3626 0024 FFF7FEFF 		bl	RegionCommonChanDisable
 3627              	.LVL333:
 3628              	.L398:
 985:../../../../../../Middlewares/Third_Party/LoRaWAN/Mac/region/RegionKR920.c **** }
 3629              		.loc 1 985 0
 3630              		@ sp needed
 3631              	.LVL334:
 3632 0028 70BD     		pop	{r4, r5, r6, pc}
 3633              	.L401:
 3634 002a C046     		.align	2
 3635              	.L400:
 3636 002c 00000000 		.word	NvmCtx
 3637              		.cfi_endproc
 3638              	.LFE64:
 3639              		.size	RegionKR920ChannelsRemove, .-RegionKR920ChannelsRemove
 3640              		.section	.text.RegionKR920SetContinuousWave,"ax",%progbits
 3641              		.align	1
 3642              		.p2align 2,,3
 3643              		.global	RegionKR920SetContinuousWave
 3644              		.syntax unified
 3645              		.code	16
 3646              		.thumb_func
 3647              		.fpu softvfp
 3648              		.type	RegionKR920SetContinuousWave, %function
 3649              	RegionKR920SetContinuousWave:
 3650              	.LFB65:
 986:../../../../../../Middlewares/Third_Party/LoRaWAN/Mac/region/RegionKR920.c **** 
 987:../../../../../../Middlewares/Third_Party/LoRaWAN/Mac/region/RegionKR920.c **** void RegionKR920SetContinuousWave( ContinuousWaveParams_t* continuousWave )
 988:../../../../../../Middlewares/Third_Party/LoRaWAN/Mac/region/RegionKR920.c **** {
 3651              		.loc 1 988 0
 3652              		.cfi_startproc
 3653              		@ args = 0, pretend = 0, frame = 8
 3654              		@ frame_needed = 0, uses_anonymous_args = 0
 3655              	.LVL335:
 3656 0000 F0B5     		push	{r4, r5, r6, r7, lr}
 3657              	.LCFI37:
 3658              		.cfi_def_cfa_offset 20
 3659              		.cfi_offset 4, -20
 3660              		.cfi_offset 5, -16
 3661              		.cfi_offset 6, -12
 3662              		.cfi_offset 7, -8
 3663              		.cfi_offset 14, -4
 3664 0002 C646     		mov	lr, r8
 989:../../../../../../Middlewares/Third_Party/LoRaWAN/Mac/region/RegionKR920.c ****     int8_t txPowerLimited = LimitTxPower( continuousWave->TxPower, NvmCtx.Bands[NvmCtx.Channels[con
 3665              		.loc 1 989 0
 3666 0004 0578     		ldrb	r5, [r0]
 3667              	.LVL336:
 3668 0006 1C49     		ldr	r1, .L407
 3669 0008 6A00     		lsls	r2, r5, #1
 3670 000a 5319     		adds	r3, r2, r5
 3671 000c 9B00     		lsls	r3, r3, #2
 3672 000e CB18     		adds	r3, r1, r3
 988:../../../../../../Middlewares/Third_Party/LoRaWAN/Mac/region/RegionKR920.c ****     int8_t txPowerLimited = LimitTxPower( continuousWave->TxPower, NvmCtx.Bands[NvmCtx.Channels[con
ARM GAS  C:\Users\EBANO_~1\AppData\Local\Temp\ccLo4wHn.s 			page 92


 3673              		.loc 1 988 0
 3674 0010 00B5     		push	{lr}
 3675              	.LCFI38:
 3676              		.cfi_def_cfa_offset 24
 3677              		.cfi_offset 8, -24
 3678              		.loc 1 989 0
 3679 0012 5B7A     		ldrb	r3, [r3, #9]
 988:../../../../../../Middlewares/Third_Party/LoRaWAN/Mac/region/RegionKR920.c ****     int8_t txPowerLimited = LimitTxPower( continuousWave->TxPower, NvmCtx.Bands[NvmCtx.Channels[con
 3680              		.loc 1 988 0
 3681 0014 0400     		movs	r4, r0
 3682              		.loc 1 989 0
 3683 0016 0C33     		adds	r3, r3, #12
 3684 0018 1B01     		lsls	r3, r3, #4
 3685 001a CB18     		adds	r3, r1, r3
 3686              	.LBB187:
 3687              	.LBB188:
 113:../../../../../../Middlewares/Third_Party/LoRaWAN/Mac/region/RegionKR920.c **** 
 3688              		.loc 1 113 0
 3689 001c 9B78     		ldrb	r3, [r3, #2]
 3690 001e 8078     		ldrb	r0, [r0, #2]
 3691              	.LVL337:
 3692 0020 1E1C     		adds	r6, r3, #0
 3693 0022 47B2     		sxtb	r7, r0
 3694 0024 5BB2     		sxtb	r3, r3
 3695              	.LBE188:
 3696              	.LBE187:
 988:../../../../../../Middlewares/Third_Party/LoRaWAN/Mac/region/RegionKR920.c ****     int8_t txPowerLimited = LimitTxPower( continuousWave->TxPower, NvmCtx.Bands[NvmCtx.Channels[con
 3697              		.loc 1 988 0
 3698 0026 82B0     		sub	sp, sp, #8
 3699              	.LCFI39:
 3700              		.cfi_def_cfa_offset 32
 3701              	.LBB191:
 3702              	.LBB189:
 113:../../../../../../Middlewares/Third_Party/LoRaWAN/Mac/region/RegionKR920.c **** 
 3703              		.loc 1 113 0
 3704 0028 BB42     		cmp	r3, r7
 3705 002a 00DA     		bge	.L403
 3706 002c 061C     		adds	r6, r0, #0
 3707              	.L403:
 3708              	.LBE189:
 3709              	.LBE191:
 990:../../../../../../Middlewares/Third_Party/LoRaWAN/Mac/region/RegionKR920.c ****     float maxEIRP = GetMaxEIRP( NvmCtx.Channels[continuousWave->Channel].Frequency );
 3710              		.loc 1 990 0
 3711 002e 5219     		adds	r2, r2, r5
 3712 0030 9200     		lsls	r2, r2, #2
 3713 0032 8F58     		ldr	r7, [r1, r2]
 3714              	.LBB192:
 3715              	.LBB193:
  86:../../../../../../Middlewares/Third_Party/LoRaWAN/Mac/region/RegionKR920.c ****     {// Limit to 14dBm
 3716              		.loc 1 86 0
 3717 0034 114B     		ldr	r3, .L407+4
 3718              	.LBE193:
 3719              	.LBE192:
 3720              	.LBB196:
 3721              	.LBB190:
 113:../../../../../../Middlewares/Third_Party/LoRaWAN/Mac/region/RegionKR920.c **** 
 3722              		.loc 1 113 0
ARM GAS  C:\Users\EBANO_~1\AppData\Local\Temp\ccLo4wHn.s 			page 93


 3723 0036 76B2     		sxtb	r6, r6
 3724              	.LVL338:
 3725              	.LBE190:
 3726              	.LBE196:
 3727              	.LBB197:
 3728              	.LBB194:
  86:../../../../../../Middlewares/Third_Party/LoRaWAN/Mac/region/RegionKR920.c ****     {// Limit to 14dBm
 3729              		.loc 1 86 0
 3730 0038 9F42     		cmp	r7, r3
 3731 003a 19D9     		bls	.L406
 3732 003c 104B     		ldr	r3, .L407+8
 3733 003e 9846     		mov	r8, r3
 3734              	.L404:
 3735              	.LVL339:
 3736              	.LBE194:
 3737              	.LBE197:
 991:../../../../../../Middlewares/Third_Party/LoRaWAN/Mac/region/RegionKR920.c ****     int8_t phyTxPower = 0;
 992:../../../../../../Middlewares/Third_Party/LoRaWAN/Mac/region/RegionKR920.c ****     uint32_t frequency = NvmCtx.Channels[continuousWave->Channel].Frequency;
 993:../../../../../../Middlewares/Third_Party/LoRaWAN/Mac/region/RegionKR920.c **** 
 994:../../../../../../Middlewares/Third_Party/LoRaWAN/Mac/region/RegionKR920.c ****     // Take the minimum between the maxEIRP and continuousWave->MaxEirp.
 995:../../../../../../Middlewares/Third_Party/LoRaWAN/Mac/region/RegionKR920.c ****     // The value of continuousWave->MaxEirp could have changed during runtime, e.g. due to a MAC co
 996:../../../../../../Middlewares/Third_Party/LoRaWAN/Mac/region/RegionKR920.c ****     maxEIRP = MIN( continuousWave->MaxEirp, maxEIRP );
 3738              		.loc 1 996 0
 3739 0040 6568     		ldr	r5, [r4, #4]
 3740 0042 4146     		mov	r1, r8
 3741 0044 281C     		adds	r0, r5, #0
 3742 0046 FFF7FEFF 		bl	__aeabi_fcmplt
 3743              	.LVL340:
 3744 004a 0028     		cmp	r0, #0
 3745 004c 00D1     		bne	.L405
 3746 004e 4546     		mov	r5, r8
 3747              	.L405:
 3748              	.LVL341:
 997:../../../../../../Middlewares/Third_Party/LoRaWAN/Mac/region/RegionKR920.c **** 
 998:../../../../../../Middlewares/Third_Party/LoRaWAN/Mac/region/RegionKR920.c ****     // Calculate physical TX power
 999:../../../../../../Middlewares/Third_Party/LoRaWAN/Mac/region/RegionKR920.c ****     phyTxPower = RegionCommonComputeTxPower( txPowerLimited, maxEIRP, continuousWave->AntennaGain )
 3749              		.loc 1 999 0 discriminator 4
 3750 0050 A268     		ldr	r2, [r4, #8]
 3751 0052 291C     		adds	r1, r5, #0
 3752 0054 3000     		movs	r0, r6
 3753 0056 FFF7FEFF 		bl	RegionCommonComputeTxPower
 3754              	.LVL342:
1000:../../../../../../Middlewares/Third_Party/LoRaWAN/Mac/region/RegionKR920.c **** 
1001:../../../../../../Middlewares/Third_Party/LoRaWAN/Mac/region/RegionKR920.c ****     Radio.SetTxContinuousWave( frequency, phyTxPower, continuousWave->Timeout );
 3755              		.loc 1 1001 0 discriminator 4
 3756 005a 0A4B     		ldr	r3, .L407+12
 999:../../../../../../Middlewares/Third_Party/LoRaWAN/Mac/region/RegionKR920.c **** 
 3757              		.loc 1 999 0 discriminator 4
 3758 005c 0100     		movs	r1, r0
 3759              	.LVL343:
 3760              		.loc 1 1001 0 discriminator 4
 3761 005e 5B6C     		ldr	r3, [r3, #68]
 3762 0060 A289     		ldrh	r2, [r4, #12]
 3763 0062 3800     		movs	r0, r7
 3764 0064 0193     		str	r3, [sp, #4]
 3765 0066 9847     		blx	r3
 3766              	.LVL344:
ARM GAS  C:\Users\EBANO_~1\AppData\Local\Temp\ccLo4wHn.s 			page 94


1002:../../../../../../Middlewares/Third_Party/LoRaWAN/Mac/region/RegionKR920.c **** }
 3767              		.loc 1 1002 0 discriminator 4
 3768 0068 02B0     		add	sp, sp, #8
 3769              		@ sp needed
 3770              	.LVL345:
 3771              	.LVL346:
 3772              	.LVL347:
 3773 006a 04BC     		pop	{r2}
 3774 006c 9046     		mov	r8, r2
 3775 006e F0BD     		pop	{r4, r5, r6, r7, pc}
 3776              	.LVL348:
 3777              	.L406:
 3778              	.LBB198:
 3779              	.LBB195:
  86:../../../../../../Middlewares/Third_Party/LoRaWAN/Mac/region/RegionKR920.c ****     {// Limit to 14dBm
 3780              		.loc 1 86 0
 3781 0070 054B     		ldr	r3, .L407+16
 3782 0072 9846     		mov	r8, r3
 3783 0074 E4E7     		b	.L404
 3784              	.L408:
 3785 0076 C046     		.align	2
 3786              	.L407:
 3787 0078 00000000 		.word	NvmCtx
 3788 007c 1F21F636 		.word	922099999
 3789 0080 00006041 		.word	1096810496
 3790 0084 00000000 		.word	Radio
 3791 0088 00002041 		.word	1092616192
 3792              	.LBE195:
 3793              	.LBE198:
 3794              		.cfi_endproc
 3795              	.LFE65:
 3796              		.size	RegionKR920SetContinuousWave, .-RegionKR920SetContinuousWave
 3797              		.section	.text.RegionKR920ApplyDrOffset,"ax",%progbits
 3798              		.align	1
 3799              		.p2align 2,,3
 3800              		.global	RegionKR920ApplyDrOffset
 3801              		.syntax unified
 3802              		.code	16
 3803              		.thumb_func
 3804              		.fpu softvfp
 3805              		.type	RegionKR920ApplyDrOffset, %function
 3806              	RegionKR920ApplyDrOffset:
 3807              	.LFB66:
1003:../../../../../../Middlewares/Third_Party/LoRaWAN/Mac/region/RegionKR920.c **** 
1004:../../../../../../Middlewares/Third_Party/LoRaWAN/Mac/region/RegionKR920.c **** uint8_t RegionKR920ApplyDrOffset( uint8_t downlinkDwellTime, int8_t dr, int8_t drOffset )
1005:../../../../../../Middlewares/Third_Party/LoRaWAN/Mac/region/RegionKR920.c **** {
 3808              		.loc 1 1005 0
 3809              		.cfi_startproc
 3810              		@ args = 0, pretend = 0, frame = 0
 3811              		@ frame_needed = 0, uses_anonymous_args = 0
 3812              		@ link register save eliminated.
 3813              	.LVL349:
1006:../../../../../../Middlewares/Third_Party/LoRaWAN/Mac/region/RegionKR920.c ****     int8_t datarate = dr - drOffset;
 3814              		.loc 1 1006 0
 3815 0000 891A     		subs	r1, r1, r2
 3816              	.LVL350:
 3817 0002 49B2     		sxtb	r1, r1
ARM GAS  C:\Users\EBANO_~1\AppData\Local\Temp\ccLo4wHn.s 			page 95


 3818              	.LVL351:
1007:../../../../../../Middlewares/Third_Party/LoRaWAN/Mac/region/RegionKR920.c **** 
1008:../../../../../../Middlewares/Third_Party/LoRaWAN/Mac/region/RegionKR920.c ****     if( datarate < 0 )
1009:../../../../../../Middlewares/Third_Party/LoRaWAN/Mac/region/RegionKR920.c ****     {
1010:../../../../../../Middlewares/Third_Party/LoRaWAN/Mac/region/RegionKR920.c ****         datarate = DR_0;
1011:../../../../../../Middlewares/Third_Party/LoRaWAN/Mac/region/RegionKR920.c ****     }
1012:../../../../../../Middlewares/Third_Party/LoRaWAN/Mac/region/RegionKR920.c ****     return datarate;
 3819              		.loc 1 1012 0
 3820 0004 C843     		mvns	r0, r1
 3821              	.LVL352:
 3822 0006 C017     		asrs	r0, r0, #31
 3823 0008 0840     		ands	r0, r1
 3824 000a C0B2     		uxtb	r0, r0
1013:../../../../../../Middlewares/Third_Party/LoRaWAN/Mac/region/RegionKR920.c **** }
 3825              		.loc 1 1013 0
 3826              		@ sp needed
 3827 000c 7047     		bx	lr
 3828              		.cfi_endproc
 3829              	.LFE66:
 3830              		.size	RegionKR920ApplyDrOffset, .-RegionKR920ApplyDrOffset
 3831 000e C046     		.section	.text.RegionKR920RxBeaconSetup,"ax",%progbits
 3832              		.align	1
 3833              		.p2align 2,,3
 3834              		.global	RegionKR920RxBeaconSetup
 3835              		.syntax unified
 3836              		.code	16
 3837              		.thumb_func
 3838              		.fpu softvfp
 3839              		.type	RegionKR920RxBeaconSetup, %function
 3840              	RegionKR920RxBeaconSetup:
 3841              	.LFB67:
1014:../../../../../../Middlewares/Third_Party/LoRaWAN/Mac/region/RegionKR920.c **** 
1015:../../../../../../Middlewares/Third_Party/LoRaWAN/Mac/region/RegionKR920.c **** void RegionKR920RxBeaconSetup( RxBeaconSetup_t* rxBeaconSetup, uint8_t* outDr )
1016:../../../../../../Middlewares/Third_Party/LoRaWAN/Mac/region/RegionKR920.c **** {
 3842              		.loc 1 1016 0
 3843              		.cfi_startproc
 3844              		@ args = 0, pretend = 0, frame = 24
 3845              		@ frame_needed = 0, uses_anonymous_args = 0
 3846              	.LVL353:
 3847 0000 10B5     		push	{r4, lr}
 3848              	.LCFI40:
 3849              		.cfi_def_cfa_offset 8
 3850              		.cfi_offset 4, -8
 3851              		.cfi_offset 14, -4
1017:../../../../../../Middlewares/Third_Party/LoRaWAN/Mac/region/RegionKR920.c ****     RegionCommonRxBeaconSetupParams_t regionCommonRxBeaconSetup;
1018:../../../../../../Middlewares/Third_Party/LoRaWAN/Mac/region/RegionKR920.c **** 
1019:../../../../../../Middlewares/Third_Party/LoRaWAN/Mac/region/RegionKR920.c ****     regionCommonRxBeaconSetup.Datarates = DataratesKR920;
 3852              		.loc 1 1019 0
 3853 0002 0B4A     		ldr	r2, .L412
1016:../../../../../../Middlewares/Third_Party/LoRaWAN/Mac/region/RegionKR920.c ****     RegionCommonRxBeaconSetupParams_t regionCommonRxBeaconSetup;
 3854              		.loc 1 1016 0
 3855 0004 86B0     		sub	sp, sp, #24
 3856              	.LCFI41:
 3857              		.cfi_def_cfa_offset 32
 3858              		.loc 1 1019 0
 3859 0006 1832     		adds	r2, r2, #24
 3860 0008 0192     		str	r2, [sp, #4]
ARM GAS  C:\Users\EBANO_~1\AppData\Local\Temp\ccLo4wHn.s 			page 96


1020:../../../../../../Middlewares/Third_Party/LoRaWAN/Mac/region/RegionKR920.c ****     regionCommonRxBeaconSetup.Frequency = rxBeaconSetup->Frequency;
 3861              		.loc 1 1020 0
 3862 000a 8268     		ldr	r2, [r0, #8]
1019:../../../../../../Middlewares/Third_Party/LoRaWAN/Mac/region/RegionKR920.c ****     regionCommonRxBeaconSetup.Frequency = rxBeaconSetup->Frequency;
 3863              		.loc 1 1019 0
 3864 000c 01AB     		add	r3, sp, #4
 3865              		.loc 1 1020 0
 3866 000e 0292     		str	r2, [sp, #8]
1021:../../../../../../Middlewares/Third_Party/LoRaWAN/Mac/region/RegionKR920.c ****     regionCommonRxBeaconSetup.BeaconSize = KR920_BEACON_SIZE;
 3867              		.loc 1 1021 0
 3868 0010 084A     		ldr	r2, .L412+4
1016:../../../../../../Middlewares/Third_Party/LoRaWAN/Mac/region/RegionKR920.c ****     RegionCommonRxBeaconSetupParams_t regionCommonRxBeaconSetup;
 3869              		.loc 1 1016 0
 3870 0012 0C00     		movs	r4, r1
 3871              		.loc 1 1021 0
 3872 0014 1A81     		strh	r2, [r3, #8]
1022:../../../../../../Middlewares/Third_Party/LoRaWAN/Mac/region/RegionKR920.c ****     regionCommonRxBeaconSetup.BeaconDatarate = KR920_BEACON_CHANNEL_DR;
 3873              		.loc 1 1022 0
 3874 0016 0022     		movs	r2, #0
 3875 0018 9A72     		strb	r2, [r3, #10]
1023:../../../../../../Middlewares/Third_Party/LoRaWAN/Mac/region/RegionKR920.c ****     regionCommonRxBeaconSetup.BeaconChannelBW = KR920_BEACON_CHANNEL_BW;
1024:../../../../../../Middlewares/Third_Party/LoRaWAN/Mac/region/RegionKR920.c ****     regionCommonRxBeaconSetup.RxTime = rxBeaconSetup->RxTime;
 3876              		.loc 1 1024 0
 3877 001a 4268     		ldr	r2, [r0, #4]
 3878 001c 0492     		str	r2, [sp, #16]
1025:../../../../../../Middlewares/Third_Party/LoRaWAN/Mac/region/RegionKR920.c ****     regionCommonRxBeaconSetup.SymbolTimeout = rxBeaconSetup->SymbolTimeout;
 3879              		.loc 1 1025 0
 3880 001e 0288     		ldrh	r2, [r0]
1026:../../../../../../Middlewares/Third_Party/LoRaWAN/Mac/region/RegionKR920.c **** 
1027:../../../../../../Middlewares/Third_Party/LoRaWAN/Mac/region/RegionKR920.c ****     RegionCommonRxBeaconSetup( &regionCommonRxBeaconSetup );
 3881              		.loc 1 1027 0
 3882 0020 1800     		movs	r0, r3
 3883              	.LVL354:
1025:../../../../../../Middlewares/Third_Party/LoRaWAN/Mac/region/RegionKR920.c ****     regionCommonRxBeaconSetup.SymbolTimeout = rxBeaconSetup->SymbolTimeout;
 3884              		.loc 1 1025 0
 3885 0022 1A82     		strh	r2, [r3, #16]
 3886              		.loc 1 1027 0
 3887 0024 FFF7FEFF 		bl	RegionCommonRxBeaconSetup
 3888              	.LVL355:
1028:../../../../../../Middlewares/Third_Party/LoRaWAN/Mac/region/RegionKR920.c **** 
1029:../../../../../../Middlewares/Third_Party/LoRaWAN/Mac/region/RegionKR920.c ****     // Store downlink datarate
1030:../../../../../../Middlewares/Third_Party/LoRaWAN/Mac/region/RegionKR920.c ****     *outDr = KR920_BEACON_CHANNEL_DR;
 3889              		.loc 1 1030 0
 3890 0028 0323     		movs	r3, #3
 3891 002a 2370     		strb	r3, [r4]
1031:../../../../../../Middlewares/Third_Party/LoRaWAN/Mac/region/RegionKR920.c **** }
 3892              		.loc 1 1031 0
 3893 002c 06B0     		add	sp, sp, #24
 3894              		@ sp needed
 3895              	.LVL356:
 3896 002e 10BD     		pop	{r4, pc}
 3897              	.L413:
 3898              		.align	2
 3899              	.L412:
 3900 0030 AC000000 		.word	.LANCHOR1
 3901 0034 11030000 		.word	785
 3902              		.cfi_endproc
ARM GAS  C:\Users\EBANO_~1\AppData\Local\Temp\ccLo4wHn.s 			page 97


 3903              	.LFE67:
 3904              		.size	RegionKR920RxBeaconSetup, .-RegionKR920RxBeaconSetup
 3905              		.bss
 3906              		.align	2
 3907              		.type	NvmCtx, %object
 3908              		.size	NvmCtx, 212
 3909              	NvmCtx:
 3910 0000 00000000 		.space	212
 3910      00000000 
 3910      00000000 
 3910      00000000 
 3910      00000000 
 3911              		.section	.rodata
 3912              		.align	2
 3913              		.set	.LANCHOR1,. + 0
 3914              		.type	BandwidthsKR920, %object
 3915              		.size	BandwidthsKR920, 24
 3916              	BandwidthsKR920:
 3917 00ac 48E80100 		.word	125000
 3918 00b0 48E80100 		.word	125000
 3919 00b4 48E80100 		.word	125000
 3920 00b8 48E80100 		.word	125000
 3921 00bc 48E80100 		.word	125000
 3922 00c0 48E80100 		.word	125000
 3923              		.type	DataratesKR920, %object
 3924              		.size	DataratesKR920, 6
 3925              	DataratesKR920:
 3926 00c4 0C       		.byte	12
 3927 00c5 0B       		.byte	11
 3928 00c6 0A       		.byte	10
 3929 00c7 09       		.byte	9
 3930 00c8 08       		.byte	8
 3931 00c9 07       		.byte	7
 3932 00ca 0000     		.align	2
 3933              		.set	.LANCHOR0,. + 0
 3934              		.type	MaxPayloadOfDatarateKR920, %object
 3935              		.size	MaxPayloadOfDatarateKR920, 6
 3936              	MaxPayloadOfDatarateKR920:
 3937 00cc 33       		.byte	51
 3938 00cd 33       		.byte	51
 3939 00ce 33       		.byte	51
 3940 00cf 73       		.byte	115
 3941 00d0 F2       		.byte	-14
 3942 00d1 F2       		.byte	-14
 3943 00d2 0000     		.space	2
 3944              		.type	MaxPayloadOfDatarateRepeaterKR920, %object
 3945              		.size	MaxPayloadOfDatarateRepeaterKR920, 6
 3946              	MaxPayloadOfDatarateRepeaterKR920:
 3947 00d4 33       		.byte	51
 3948 00d5 33       		.byte	51
 3949 00d6 33       		.byte	51
 3950 00d7 73       		.byte	115
 3951 00d8 DE       		.byte	-34
 3952 00d9 DE       		.byte	-34
 3953 00da 0000     		.space	2
 3954              	.LC0:
 3955 00dc 2021F636 		.word	922100000
ARM GAS  C:\Users\EBANO_~1\AppData\Local\Temp\ccLo4wHn.s 			page 98


 3956 00e0 00000000 		.word	0
 3957 00e4 50       		.byte	80
 3958 00e5 00       		.byte	0
 3959 00e6 0000     		.space	2
 3960              	.LC1:
 3961 00e8 602EF936 		.word	922300000
 3962 00ec 00000000 		.word	0
 3963 00f0 50       		.byte	80
 3964 00f1 00       		.byte	0
 3965 00f2 0000     		.space	2
 3966              	.LC2:
 3967 00f4 A03BFC36 		.word	922500000
 3968 00f8 00000000 		.word	0
 3969 00fc 50       		.byte	80
 3970 00fd 00       		.byte	0
 3971 00fe 0000     		.space	2
 3972              		.text
 3973              	.Letext0:
 3974              		.file 2 "c:\\program files (x86)\\gnu tools arm embedded\\7 2018-q2-update\\arm-none-eabi\\include
 3975              		.file 3 "c:\\program files (x86)\\gnu tools arm embedded\\7 2018-q2-update\\arm-none-eabi\\include
 3976              		.file 4 "../../../../../../Drivers/CMSIS/Device/ST/STM32L0xx/Include/system_stm32l0xx.h"
 3977              		.file 5 "c:\\program files (x86)\\gnu tools arm embedded\\7 2018-q2-update\\lib\\gcc\\arm-none-eab
 3978              		.file 6 "c:\\program files (x86)\\gnu tools arm embedded\\7 2018-q2-update\\arm-none-eabi\\include
 3979              		.file 7 "c:\\program files (x86)\\gnu tools arm embedded\\7 2018-q2-update\\arm-none-eabi\\include
 3980              		.file 8 "c:\\program files (x86)\\gnu tools arm embedded\\7 2018-q2-update\\arm-none-eabi\\include
 3981              		.file 9 "c:\\program files (x86)\\gnu tools arm embedded\\7 2018-q2-update\\arm-none-eabi\\include
 3982              		.file 10 "../../../../../../Middlewares/Third_Party/LoRaWAN/Utilities/utilities.h"
 3983              		.file 11 "../../../../../../Middlewares/Third_Party/LoRaWAN/Mac/LoRaMacTypes.h"
 3984              		.file 12 "c:\\program files (x86)\\gnu tools arm embedded\\7 2018-q2-update\\arm-none-eabi\\includ
 3985              		.file 13 "../../../../../../Middlewares/Third_Party/LoRaWAN/Phy/radio.h"
 3986              		.file 14 "../../../../../../Middlewares/Third_Party/LoRaWAN/Mac/LoRaMac.h"
 3987              		.file 15 "../../../../../../Middlewares/Third_Party/LoRaWAN/Mac/region/Region.h"
 3988              		.file 16 "../../../../../../Middlewares/Third_Party/LoRaWAN/Mac/region/RegionCommon.h"
 3989              		.file 17 "../../../../../../Middlewares/Third_Party/LoRaWAN/Mac/region/RegionKR920.h"
 3990              		.file 18 "../../../../../../Middlewares/Third_Party/LoRaWAN/Utilities/timeServer.h"
 3991              		.file 19 "<built-in>"
 3992              		.section	.debug_info,"",%progbits
 3993              	.Ldebug_info0:
 3994 0000 8C340000 		.4byte	0x348c
 3995 0004 0200     		.2byte	0x2
 3996 0006 00000000 		.4byte	.Ldebug_abbrev0
 3997 000a 04       		.byte	0x4
 3998 000b 01       		.uleb128 0x1
 3999 000c A3090000 		.4byte	.LASF451
 4000 0010 0C       		.byte	0xc
 4001 0011 E5030000 		.4byte	.LASF452
 4002 0015 F0070000 		.4byte	.LASF453
 4003 0019 E0020000 		.4byte	.Ldebug_ranges0+0x2e0
 4004 001d 00000000 		.4byte	0
 4005 0021 00000000 		.4byte	0
 4006 0025 00000000 		.4byte	.Ldebug_line0
 4007 0029 02       		.uleb128 0x2
 4008 002a 04       		.byte	0x4
 4009 002b 04       		.byte	0x4
 4010 002c BB070000 		.4byte	.LASF0
 4011 0030 02       		.uleb128 0x2
 4012 0031 01       		.byte	0x1
ARM GAS  C:\Users\EBANO_~1\AppData\Local\Temp\ccLo4wHn.s 			page 99


 4013 0032 06       		.byte	0x6
 4014 0033 7D120000 		.4byte	.LASF1
 4015 0037 03       		.uleb128 0x3
 4016 0038 5C200000 		.4byte	.LASF2
 4017 003c 02       		.byte	0x2
 4018 003d 29       		.byte	0x29
 4019 003e 30000000 		.4byte	0x30
 4020 0042 03       		.uleb128 0x3
 4021 0043 9B000000 		.4byte	.LASF3
 4022 0047 02       		.byte	0x2
 4023 0048 2B       		.byte	0x2b
 4024 0049 4D000000 		.4byte	0x4d
 4025 004d 02       		.uleb128 0x2
 4026 004e 01       		.byte	0x1
 4027 004f 08       		.byte	0x8
 4028 0050 74070000 		.4byte	.LASF4
 4029 0054 03       		.uleb128 0x3
 4030 0055 0A060000 		.4byte	.LASF5
 4031 0059 02       		.byte	0x2
 4032 005a 37       		.byte	0x37
 4033 005b 5F000000 		.4byte	0x5f
 4034 005f 02       		.uleb128 0x2
 4035 0060 02       		.byte	0x2
 4036 0061 05       		.byte	0x5
 4037 0062 07210000 		.4byte	.LASF6
 4038 0066 03       		.uleb128 0x3
 4039 0067 20060000 		.4byte	.LASF7
 4040 006b 02       		.byte	0x2
 4041 006c 39       		.byte	0x39
 4042 006d 71000000 		.4byte	0x71
 4043 0071 02       		.uleb128 0x2
 4044 0072 02       		.byte	0x2
 4045 0073 07       		.byte	0x7
 4046 0074 6A120000 		.4byte	.LASF8
 4047 0078 03       		.uleb128 0x3
 4048 0079 0F1A0000 		.4byte	.LASF9
 4049 007d 02       		.byte	0x2
 4050 007e 4D       		.byte	0x4d
 4051 007f 83000000 		.4byte	0x83
 4052 0083 02       		.uleb128 0x2
 4053 0084 04       		.byte	0x4
 4054 0085 05       		.byte	0x5
 4055 0086 64140000 		.4byte	.LASF10
 4056 008a 03       		.uleb128 0x3
 4057 008b 221A0000 		.4byte	.LASF11
 4058 008f 02       		.byte	0x2
 4059 0090 4F       		.byte	0x4f
 4060 0091 95000000 		.4byte	0x95
 4061 0095 02       		.uleb128 0x2
 4062 0096 04       		.byte	0x4
 4063 0097 07       		.byte	0x7
 4064 0098 BA150000 		.4byte	.LASF12
 4065 009c 02       		.uleb128 0x2
 4066 009d 08       		.byte	0x8
 4067 009e 05       		.byte	0x5
 4068 009f 561E0000 		.4byte	.LASF13
 4069 00a3 02       		.uleb128 0x2
ARM GAS  C:\Users\EBANO_~1\AppData\Local\Temp\ccLo4wHn.s 			page 100


 4070 00a4 08       		.byte	0x8
 4071 00a5 07       		.byte	0x7
 4072 00a6 D01B0000 		.4byte	.LASF14
 4073 00aa 04       		.uleb128 0x4
 4074 00ab 04       		.byte	0x4
 4075 00ac 05       		.byte	0x5
 4076 00ad 696E7400 		.ascii	"int\000"
 4077 00b1 02       		.uleb128 0x2
 4078 00b2 04       		.byte	0x4
 4079 00b3 07       		.byte	0x7
 4080 00b4 96200000 		.4byte	.LASF15
 4081 00b8 03       		.uleb128 0x3
 4082 00b9 7C110000 		.4byte	.LASF16
 4083 00bd 03       		.byte	0x3
 4084 00be 14       		.byte	0x14
 4085 00bf 37000000 		.4byte	0x37
 4086 00c3 03       		.uleb128 0x3
 4087 00c4 AC0B0000 		.4byte	.LASF17
 4088 00c8 03       		.byte	0x3
 4089 00c9 18       		.byte	0x18
 4090 00ca 42000000 		.4byte	0x42
 4091 00ce 05       		.uleb128 0x5
 4092 00cf C3000000 		.4byte	0xc3
 4093 00d3 03       		.uleb128 0x3
 4094 00d4 4B120000 		.4byte	.LASF18
 4095 00d8 03       		.byte	0x3
 4096 00d9 20       		.byte	0x20
 4097 00da 54000000 		.4byte	0x54
 4098 00de 03       		.uleb128 0x3
 4099 00df 54010000 		.4byte	.LASF19
 4100 00e3 03       		.byte	0x3
 4101 00e4 24       		.byte	0x24
 4102 00e5 66000000 		.4byte	0x66
 4103 00e9 03       		.uleb128 0x3
 4104 00ea E4020000 		.4byte	.LASF20
 4105 00ee 03       		.byte	0x3
 4106 00ef 2C       		.byte	0x2c
 4107 00f0 78000000 		.4byte	0x78
 4108 00f4 03       		.uleb128 0x3
 4109 00f5 19150000 		.4byte	.LASF21
 4110 00f9 03       		.byte	0x3
 4111 00fa 30       		.byte	0x30
 4112 00fb 8A000000 		.4byte	0x8a
 4113 00ff 05       		.uleb128 0x5
 4114 0100 F4000000 		.4byte	0xf4
 4115 0104 06       		.uleb128 0x6
 4116 0105 39130000 		.4byte	.LASF22
 4117 0109 04       		.byte	0x4
 4118 010a 4A       		.byte	0x4a
 4119 010b F4000000 		.4byte	0xf4
 4120 010f 01       		.byte	0x1
 4121 0110 01       		.byte	0x1
 4122 0111 07       		.uleb128 0x7
 4123 0112 CE000000 		.4byte	0xce
 4124 0116 21010000 		.4byte	0x121
 4125 011a 08       		.uleb128 0x8
 4126 011b B1000000 		.4byte	0xb1
ARM GAS  C:\Users\EBANO_~1\AppData\Local\Temp\ccLo4wHn.s 			page 101


 4127 011f 0F       		.byte	0xf
 4128 0120 00       		.byte	0
 4129 0121 05       		.uleb128 0x5
 4130 0122 11010000 		.4byte	0x111
 4131 0126 06       		.uleb128 0x6
 4132 0127 0A1F0000 		.4byte	.LASF23
 4133 012b 04       		.byte	0x4
 4134 012c 4D       		.byte	0x4d
 4135 012d 21010000 		.4byte	0x121
 4136 0131 01       		.byte	0x1
 4137 0132 01       		.byte	0x1
 4138 0133 07       		.uleb128 0x7
 4139 0134 CE000000 		.4byte	0xce
 4140 0138 43010000 		.4byte	0x143
 4141 013c 08       		.uleb128 0x8
 4142 013d B1000000 		.4byte	0xb1
 4143 0141 07       		.byte	0x7
 4144 0142 00       		.byte	0
 4145 0143 05       		.uleb128 0x5
 4146 0144 33010000 		.4byte	0x133
 4147 0148 06       		.uleb128 0x6
 4148 0149 8B160000 		.4byte	.LASF24
 4149 014d 04       		.byte	0x4
 4150 014e 4E       		.byte	0x4e
 4151 014f 43010000 		.4byte	0x143
 4152 0153 01       		.byte	0x1
 4153 0154 01       		.byte	0x1
 4154 0155 07       		.uleb128 0x7
 4155 0156 CE000000 		.4byte	0xce
 4156 015a 65010000 		.4byte	0x165
 4157 015e 08       		.uleb128 0x8
 4158 015f B1000000 		.4byte	0xb1
 4159 0163 08       		.byte	0x8
 4160 0164 00       		.byte	0
 4161 0165 05       		.uleb128 0x5
 4162 0166 55010000 		.4byte	0x155
 4163 016a 06       		.uleb128 0x6
 4164 016b 4F190000 		.4byte	.LASF25
 4165 016f 04       		.byte	0x4
 4166 0170 4F       		.byte	0x4f
 4167 0171 65010000 		.4byte	0x165
 4168 0175 01       		.byte	0x1
 4169 0176 01       		.byte	0x1
 4170 0177 03       		.uleb128 0x3
 4171 0178 8E0B0000 		.4byte	.LASF26
 4172 017c 05       		.byte	0x5
 4173 017d D8       		.byte	0xd8
 4174 017e B1000000 		.4byte	0xb1
 4175 0182 02       		.uleb128 0x2
 4176 0183 08       		.byte	0x8
 4177 0184 04       		.byte	0x4
 4178 0185 78150000 		.4byte	.LASF27
 4179 0189 09       		.uleb128 0x9
 4180 018a 04       		.byte	0x4
 4181 018b 03       		.uleb128 0x3
 4182 018c C7050000 		.4byte	.LASF28
 4183 0190 06       		.byte	0x6
ARM GAS  C:\Users\EBANO_~1\AppData\Local\Temp\ccLo4wHn.s 			page 102


 4184 0191 22       		.byte	0x22
 4185 0192 96010000 		.4byte	0x196
 4186 0196 0A       		.uleb128 0xa
 4187 0197 04       		.byte	0x4
 4188 0198 9C010000 		.4byte	0x19c
 4189 019c 0B       		.uleb128 0xb
 4190 019d CD040000 		.4byte	.LASF135
 4191 01a1 01       		.byte	0x1
 4192 01a2 03       		.uleb128 0x3
 4193 01a3 610B0000 		.4byte	.LASF29
 4194 01a7 07       		.byte	0x7
 4195 01a8 2C       		.byte	0x2c
 4196 01a9 83000000 		.4byte	0x83
 4197 01ad 03       		.uleb128 0x3
 4198 01ae 73190000 		.4byte	.LASF30
 4199 01b2 07       		.byte	0x7
 4200 01b3 72       		.byte	0x72
 4201 01b4 83000000 		.4byte	0x83
 4202 01b8 0C       		.uleb128 0xc
 4203 01b9 4E0D0000 		.4byte	.LASF31
 4204 01bd 05       		.byte	0x5
 4205 01be 6501     		.2byte	0x165
 4206 01c0 B1000000 		.4byte	0xb1
 4207 01c4 0D       		.uleb128 0xd
 4208 01c5 04       		.byte	0x4
 4209 01c6 07       		.byte	0x7
 4210 01c7 A6       		.byte	0xa6
 4211 01c8 E3010000 		.4byte	0x1e3
 4212 01cc 0E       		.uleb128 0xe
 4213 01cd D2130000 		.4byte	.LASF32
 4214 01d1 07       		.byte	0x7
 4215 01d2 A8       		.byte	0xa8
 4216 01d3 B8010000 		.4byte	0x1b8
 4217 01d7 0E       		.uleb128 0xe
 4218 01d8 F40C0000 		.4byte	.LASF33
 4219 01dc 07       		.byte	0x7
 4220 01dd A9       		.byte	0xa9
 4221 01de E3010000 		.4byte	0x1e3
 4222 01e2 00       		.byte	0
 4223 01e3 07       		.uleb128 0x7
 4224 01e4 4D000000 		.4byte	0x4d
 4225 01e8 F3010000 		.4byte	0x1f3
 4226 01ec 08       		.uleb128 0x8
 4227 01ed B1000000 		.4byte	0xb1
 4228 01f1 03       		.byte	0x3
 4229 01f2 00       		.byte	0
 4230 01f3 0F       		.uleb128 0xf
 4231 01f4 08       		.byte	0x8
 4232 01f5 07       		.byte	0x7
 4233 01f6 A3       		.byte	0xa3
 4234 01f7 18020000 		.4byte	0x218
 4235 01fb 10       		.uleb128 0x10
 4236 01fc A40B0000 		.4byte	.LASF34
 4237 0200 07       		.byte	0x7
 4238 0201 A5       		.byte	0xa5
 4239 0202 AA000000 		.4byte	0xaa
 4240 0206 02       		.byte	0x2
ARM GAS  C:\Users\EBANO_~1\AppData\Local\Temp\ccLo4wHn.s 			page 103


 4241 0207 23       		.byte	0x23
 4242 0208 00       		.uleb128 0
 4243 0209 10       		.uleb128 0x10
 4244 020a 551A0000 		.4byte	.LASF35
 4245 020e 07       		.byte	0x7
 4246 020f AA       		.byte	0xaa
 4247 0210 C4010000 		.4byte	0x1c4
 4248 0214 02       		.byte	0x2
 4249 0215 23       		.byte	0x23
 4250 0216 04       		.uleb128 0x4
 4251 0217 00       		.byte	0
 4252 0218 03       		.uleb128 0x3
 4253 0219 D2190000 		.4byte	.LASF36
 4254 021d 07       		.byte	0x7
 4255 021e AB       		.byte	0xab
 4256 021f F3010000 		.4byte	0x1f3
 4257 0223 03       		.uleb128 0x3
 4258 0224 C91D0000 		.4byte	.LASF37
 4259 0228 07       		.byte	0x7
 4260 0229 AF       		.byte	0xaf
 4261 022a 8B010000 		.4byte	0x18b
 4262 022e 03       		.uleb128 0x3
 4263 022f A8110000 		.4byte	.LASF38
 4264 0233 08       		.byte	0x8
 4265 0234 16       		.byte	0x16
 4266 0235 95000000 		.4byte	0x95
 4267 0239 11       		.uleb128 0x11
 4268 023a 59170000 		.4byte	.LASF43
 4269 023e 18       		.byte	0x18
 4270 023f 08       		.byte	0x8
 4271 0240 2F       		.byte	0x2f
 4272 0241 98020000 		.4byte	0x298
 4273 0245 10       		.uleb128 0x10
 4274 0246 BF0E0000 		.4byte	.LASF39
 4275 024a 08       		.byte	0x8
 4276 024b 31       		.byte	0x31
 4277 024c 98020000 		.4byte	0x298
 4278 0250 02       		.byte	0x2
 4279 0251 23       		.byte	0x23
 4280 0252 00       		.uleb128 0
 4281 0253 12       		.uleb128 0x12
 4282 0254 5F6B00   		.ascii	"_k\000"
 4283 0257 08       		.byte	0x8
 4284 0258 32       		.byte	0x32
 4285 0259 AA000000 		.4byte	0xaa
 4286 025d 02       		.byte	0x2
 4287 025e 23       		.byte	0x23
 4288 025f 04       		.uleb128 0x4
 4289 0260 10       		.uleb128 0x10
 4290 0261 56150000 		.4byte	.LASF40
 4291 0265 08       		.byte	0x8
 4292 0266 32       		.byte	0x32
 4293 0267 AA000000 		.4byte	0xaa
 4294 026b 02       		.byte	0x2
 4295 026c 23       		.byte	0x23
 4296 026d 08       		.uleb128 0x8
 4297 026e 10       		.uleb128 0x10
ARM GAS  C:\Users\EBANO_~1\AppData\Local\Temp\ccLo4wHn.s 			page 104


 4298 026f 56200000 		.4byte	.LASF41
 4299 0273 08       		.byte	0x8
 4300 0274 32       		.byte	0x32
 4301 0275 AA000000 		.4byte	0xaa
 4302 0279 02       		.byte	0x2
 4303 027a 23       		.byte	0x23
 4304 027b 0C       		.uleb128 0xc
 4305 027c 10       		.uleb128 0x10
 4306 027d AC070000 		.4byte	.LASF42
 4307 0281 08       		.byte	0x8
 4308 0282 32       		.byte	0x32
 4309 0283 AA000000 		.4byte	0xaa
 4310 0287 02       		.byte	0x2
 4311 0288 23       		.byte	0x23
 4312 0289 10       		.uleb128 0x10
 4313 028a 12       		.uleb128 0x12
 4314 028b 5F7800   		.ascii	"_x\000"
 4315 028e 08       		.byte	0x8
 4316 028f 33       		.byte	0x33
 4317 0290 9E020000 		.4byte	0x29e
 4318 0294 02       		.byte	0x2
 4319 0295 23       		.byte	0x23
 4320 0296 14       		.uleb128 0x14
 4321 0297 00       		.byte	0
 4322 0298 0A       		.uleb128 0xa
 4323 0299 04       		.byte	0x4
 4324 029a 39020000 		.4byte	0x239
 4325 029e 07       		.uleb128 0x7
 4326 029f 2E020000 		.4byte	0x22e
 4327 02a3 AE020000 		.4byte	0x2ae
 4328 02a7 08       		.uleb128 0x8
 4329 02a8 B1000000 		.4byte	0xb1
 4330 02ac 00       		.byte	0
 4331 02ad 00       		.byte	0
 4332 02ae 11       		.uleb128 0x11
 4333 02af 74050000 		.4byte	.LASF44
 4334 02b3 24       		.byte	0x24
 4335 02b4 08       		.byte	0x8
 4336 02b5 37       		.byte	0x37
 4337 02b6 39030000 		.4byte	0x339
 4338 02ba 10       		.uleb128 0x10
 4339 02bb 79100000 		.4byte	.LASF45
 4340 02bf 08       		.byte	0x8
 4341 02c0 39       		.byte	0x39
 4342 02c1 AA000000 		.4byte	0xaa
 4343 02c5 02       		.byte	0x2
 4344 02c6 23       		.byte	0x23
 4345 02c7 00       		.uleb128 0
 4346 02c8 10       		.uleb128 0x10
 4347 02c9 65200000 		.4byte	.LASF46
 4348 02cd 08       		.byte	0x8
 4349 02ce 3A       		.byte	0x3a
 4350 02cf AA000000 		.4byte	0xaa
 4351 02d3 02       		.byte	0x2
 4352 02d4 23       		.byte	0x23
 4353 02d5 04       		.uleb128 0x4
 4354 02d6 10       		.uleb128 0x10
ARM GAS  C:\Users\EBANO_~1\AppData\Local\Temp\ccLo4wHn.s 			page 105


 4355 02d7 0A0D0000 		.4byte	.LASF47
 4356 02db 08       		.byte	0x8
 4357 02dc 3B       		.byte	0x3b
 4358 02dd AA000000 		.4byte	0xaa
 4359 02e1 02       		.byte	0x2
 4360 02e2 23       		.byte	0x23
 4361 02e3 08       		.uleb128 0x8
 4362 02e4 10       		.uleb128 0x10
 4363 02e5 210E0000 		.4byte	.LASF48
 4364 02e9 08       		.byte	0x8
 4365 02ea 3C       		.byte	0x3c
 4366 02eb AA000000 		.4byte	0xaa
 4367 02ef 02       		.byte	0x2
 4368 02f0 23       		.byte	0x23
 4369 02f1 0C       		.uleb128 0xc
 4370 02f2 10       		.uleb128 0x10
 4371 02f3 F9000000 		.4byte	.LASF49
 4372 02f7 08       		.byte	0x8
 4373 02f8 3D       		.byte	0x3d
 4374 02f9 AA000000 		.4byte	0xaa
 4375 02fd 02       		.byte	0x2
 4376 02fe 23       		.byte	0x23
 4377 02ff 10       		.uleb128 0x10
 4378 0300 10       		.uleb128 0x10
 4379 0301 65090000 		.4byte	.LASF50
 4380 0305 08       		.byte	0x8
 4381 0306 3E       		.byte	0x3e
 4382 0307 AA000000 		.4byte	0xaa
 4383 030b 02       		.byte	0x2
 4384 030c 23       		.byte	0x23
 4385 030d 14       		.uleb128 0x14
 4386 030e 10       		.uleb128 0x10
 4387 030f 1A070000 		.4byte	.LASF51
 4388 0313 08       		.byte	0x8
 4389 0314 3F       		.byte	0x3f
 4390 0315 AA000000 		.4byte	0xaa
 4391 0319 02       		.byte	0x2
 4392 031a 23       		.byte	0x23
 4393 031b 18       		.uleb128 0x18
 4394 031c 10       		.uleb128 0x10
 4395 031d 95050000 		.4byte	.LASF52
 4396 0321 08       		.byte	0x8
 4397 0322 40       		.byte	0x40
 4398 0323 AA000000 		.4byte	0xaa
 4399 0327 02       		.byte	0x2
 4400 0328 23       		.byte	0x23
 4401 0329 1C       		.uleb128 0x1c
 4402 032a 10       		.uleb128 0x10
 4403 032b 24070000 		.4byte	.LASF53
 4404 032f 08       		.byte	0x8
 4405 0330 41       		.byte	0x41
 4406 0331 AA000000 		.4byte	0xaa
 4407 0335 02       		.byte	0x2
 4408 0336 23       		.byte	0x23
 4409 0337 20       		.uleb128 0x20
 4410 0338 00       		.byte	0
 4411 0339 13       		.uleb128 0x13
ARM GAS  C:\Users\EBANO_~1\AppData\Local\Temp\ccLo4wHn.s 			page 106


 4412 033a 82100000 		.4byte	.LASF54
 4413 033e 0801     		.2byte	0x108
 4414 0340 08       		.byte	0x8
 4415 0341 4A       		.byte	0x4a
 4416 0342 82030000 		.4byte	0x382
 4417 0346 10       		.uleb128 0x10
 4418 0347 2B0E0000 		.4byte	.LASF55
 4419 034b 08       		.byte	0x8
 4420 034c 4B       		.byte	0x4b
 4421 034d 82030000 		.4byte	0x382
 4422 0351 02       		.byte	0x2
 4423 0352 23       		.byte	0x23
 4424 0353 00       		.uleb128 0
 4425 0354 10       		.uleb128 0x10
 4426 0355 EC060000 		.4byte	.LASF56
 4427 0359 08       		.byte	0x8
 4428 035a 4C       		.byte	0x4c
 4429 035b 82030000 		.4byte	0x382
 4430 035f 03       		.byte	0x3
 4431 0360 23       		.byte	0x23
 4432 0361 8001     		.uleb128 0x80
 4433 0363 10       		.uleb128 0x10
 4434 0364 02010000 		.4byte	.LASF57
 4435 0368 08       		.byte	0x8
 4436 0369 4E       		.byte	0x4e
 4437 036a 2E020000 		.4byte	0x22e
 4438 036e 03       		.byte	0x3
 4439 036f 23       		.byte	0x23
 4440 0370 8002     		.uleb128 0x100
 4441 0372 10       		.uleb128 0x10
 4442 0373 6D1A0000 		.4byte	.LASF58
 4443 0377 08       		.byte	0x8
 4444 0378 51       		.byte	0x51
 4445 0379 2E020000 		.4byte	0x22e
 4446 037d 03       		.byte	0x3
 4447 037e 23       		.byte	0x23
 4448 037f 8402     		.uleb128 0x104
 4449 0381 00       		.byte	0
 4450 0382 07       		.uleb128 0x7
 4451 0383 89010000 		.4byte	0x189
 4452 0387 92030000 		.4byte	0x392
 4453 038b 08       		.uleb128 0x8
 4454 038c B1000000 		.4byte	0xb1
 4455 0390 1F       		.byte	0x1f
 4456 0391 00       		.byte	0
 4457 0392 13       		.uleb128 0x13
 4458 0393 DF000000 		.4byte	.LASF59
 4459 0397 9001     		.2byte	0x190
 4460 0399 08       		.byte	0x8
 4461 039a 5D       		.byte	0x5d
 4462 039b D9030000 		.4byte	0x3d9
 4463 039f 10       		.uleb128 0x10
 4464 03a0 BF0E0000 		.4byte	.LASF39
 4465 03a4 08       		.byte	0x8
 4466 03a5 5E       		.byte	0x5e
 4467 03a6 D9030000 		.4byte	0x3d9
 4468 03aa 02       		.byte	0x2
ARM GAS  C:\Users\EBANO_~1\AppData\Local\Temp\ccLo4wHn.s 			page 107


 4469 03ab 23       		.byte	0x23
 4470 03ac 00       		.uleb128 0
 4471 03ad 10       		.uleb128 0x10
 4472 03ae 23010000 		.4byte	.LASF60
 4473 03b2 08       		.byte	0x8
 4474 03b3 5F       		.byte	0x5f
 4475 03b4 AA000000 		.4byte	0xaa
 4476 03b8 02       		.byte	0x2
 4477 03b9 23       		.byte	0x23
 4478 03ba 04       		.uleb128 0x4
 4479 03bb 10       		.uleb128 0x10
 4480 03bc BC190000 		.4byte	.LASF61
 4481 03c0 08       		.byte	0x8
 4482 03c1 61       		.byte	0x61
 4483 03c2 DF030000 		.4byte	0x3df
 4484 03c6 02       		.byte	0x2
 4485 03c7 23       		.byte	0x23
 4486 03c8 08       		.uleb128 0x8
 4487 03c9 10       		.uleb128 0x10
 4488 03ca 82100000 		.4byte	.LASF54
 4489 03ce 08       		.byte	0x8
 4490 03cf 62       		.byte	0x62
 4491 03d0 39030000 		.4byte	0x339
 4492 03d4 03       		.byte	0x3
 4493 03d5 23       		.byte	0x23
 4494 03d6 8801     		.uleb128 0x88
 4495 03d8 00       		.byte	0
 4496 03d9 0A       		.uleb128 0xa
 4497 03da 04       		.byte	0x4
 4498 03db 92030000 		.4byte	0x392
 4499 03df 07       		.uleb128 0x7
 4500 03e0 EF030000 		.4byte	0x3ef
 4501 03e4 EF030000 		.4byte	0x3ef
 4502 03e8 08       		.uleb128 0x8
 4503 03e9 B1000000 		.4byte	0xb1
 4504 03ed 1F       		.byte	0x1f
 4505 03ee 00       		.byte	0
 4506 03ef 0A       		.uleb128 0xa
 4507 03f0 04       		.byte	0x4
 4508 03f1 F5030000 		.4byte	0x3f5
 4509 03f5 14       		.uleb128 0x14
 4510 03f6 01       		.byte	0x1
 4511 03f7 11       		.uleb128 0x11
 4512 03f8 65130000 		.4byte	.LASF62
 4513 03fc 08       		.byte	0x8
 4514 03fd 08       		.byte	0x8
 4515 03fe 75       		.byte	0x75
 4516 03ff 20040000 		.4byte	0x420
 4517 0403 10       		.uleb128 0x10
 4518 0404 27050000 		.4byte	.LASF63
 4519 0408 08       		.byte	0x8
 4520 0409 76       		.byte	0x76
 4521 040a 20040000 		.4byte	0x420
 4522 040e 02       		.byte	0x2
 4523 040f 23       		.byte	0x23
 4524 0410 00       		.uleb128 0
 4525 0411 10       		.uleb128 0x10
ARM GAS  C:\Users\EBANO_~1\AppData\Local\Temp\ccLo4wHn.s 			page 108


 4526 0412 91080000 		.4byte	.LASF64
 4527 0416 08       		.byte	0x8
 4528 0417 77       		.byte	0x77
 4529 0418 AA000000 		.4byte	0xaa
 4530 041c 02       		.byte	0x2
 4531 041d 23       		.byte	0x23
 4532 041e 04       		.uleb128 0x4
 4533 041f 00       		.byte	0
 4534 0420 0A       		.uleb128 0xa
 4535 0421 04       		.byte	0x4
 4536 0422 4D000000 		.4byte	0x4d
 4537 0426 11       		.uleb128 0x11
 4538 0427 A3190000 		.4byte	.LASF65
 4539 042b 68       		.byte	0x68
 4540 042c 08       		.byte	0x8
 4541 042d B5       		.byte	0xb5
 4542 042e 80050000 		.4byte	0x580
 4543 0432 12       		.uleb128 0x12
 4544 0433 5F7000   		.ascii	"_p\000"
 4545 0436 08       		.byte	0x8
 4546 0437 B6       		.byte	0xb6
 4547 0438 20040000 		.4byte	0x420
 4548 043c 02       		.byte	0x2
 4549 043d 23       		.byte	0x23
 4550 043e 00       		.uleb128 0
 4551 043f 12       		.uleb128 0x12
 4552 0440 5F7200   		.ascii	"_r\000"
 4553 0443 08       		.byte	0x8
 4554 0444 B7       		.byte	0xb7
 4555 0445 AA000000 		.4byte	0xaa
 4556 0449 02       		.byte	0x2
 4557 044a 23       		.byte	0x23
 4558 044b 04       		.uleb128 0x4
 4559 044c 12       		.uleb128 0x12
 4560 044d 5F7700   		.ascii	"_w\000"
 4561 0450 08       		.byte	0x8
 4562 0451 B8       		.byte	0xb8
 4563 0452 AA000000 		.4byte	0xaa
 4564 0456 02       		.byte	0x2
 4565 0457 23       		.byte	0x23
 4566 0458 08       		.uleb128 0x8
 4567 0459 10       		.uleb128 0x10
 4568 045a 8A010000 		.4byte	.LASF66
 4569 045e 08       		.byte	0x8
 4570 045f B9       		.byte	0xb9
 4571 0460 5F000000 		.4byte	0x5f
 4572 0464 02       		.byte	0x2
 4573 0465 23       		.byte	0x23
 4574 0466 0C       		.uleb128 0xc
 4575 0467 10       		.uleb128 0x10
 4576 0468 8E190000 		.4byte	.LASF67
 4577 046c 08       		.byte	0x8
 4578 046d BA       		.byte	0xba
 4579 046e 5F000000 		.4byte	0x5f
 4580 0472 02       		.byte	0x2
 4581 0473 23       		.byte	0x23
 4582 0474 0E       		.uleb128 0xe
ARM GAS  C:\Users\EBANO_~1\AppData\Local\Temp\ccLo4wHn.s 			page 109


 4583 0475 12       		.uleb128 0x12
 4584 0476 5F626600 		.ascii	"_bf\000"
 4585 047a 08       		.byte	0x8
 4586 047b BB       		.byte	0xbb
 4587 047c F7030000 		.4byte	0x3f7
 4588 0480 02       		.byte	0x2
 4589 0481 23       		.byte	0x23
 4590 0482 10       		.uleb128 0x10
 4591 0483 10       		.uleb128 0x10
 4592 0484 96030000 		.4byte	.LASF68
 4593 0488 08       		.byte	0x8
 4594 0489 BC       		.byte	0xbc
 4595 048a AA000000 		.4byte	0xaa
 4596 048e 02       		.byte	0x2
 4597 048f 23       		.byte	0x23
 4598 0490 18       		.uleb128 0x18
 4599 0491 10       		.uleb128 0x10
 4600 0492 0F0F0000 		.4byte	.LASF69
 4601 0496 08       		.byte	0x8
 4602 0497 C3       		.byte	0xc3
 4603 0498 89010000 		.4byte	0x189
 4604 049c 02       		.byte	0x2
 4605 049d 23       		.byte	0x23
 4606 049e 1C       		.uleb128 0x1c
 4607 049f 10       		.uleb128 0x10
 4608 04a0 43210000 		.4byte	.LASF70
 4609 04a4 08       		.byte	0x8
 4610 04a5 C5       		.byte	0xc5
 4611 04a6 1A070000 		.4byte	0x71a
 4612 04aa 02       		.byte	0x2
 4613 04ab 23       		.byte	0x23
 4614 04ac 20       		.uleb128 0x20
 4615 04ad 10       		.uleb128 0x10
 4616 04ae B6080000 		.4byte	.LASF71
 4617 04b2 08       		.byte	0x8
 4618 04b3 C7       		.byte	0xc7
 4619 04b4 45070000 		.4byte	0x745
 4620 04b8 02       		.byte	0x2
 4621 04b9 23       		.byte	0x23
 4622 04ba 24       		.uleb128 0x24
 4623 04bb 10       		.uleb128 0x10
 4624 04bc 38120000 		.4byte	.LASF72
 4625 04c0 08       		.byte	0x8
 4626 04c1 CA       		.byte	0xca
 4627 04c2 6A070000 		.4byte	0x76a
 4628 04c6 02       		.byte	0x2
 4629 04c7 23       		.byte	0x23
 4630 04c8 28       		.uleb128 0x28
 4631 04c9 10       		.uleb128 0x10
 4632 04ca 26160000 		.4byte	.LASF73
 4633 04ce 08       		.byte	0x8
 4634 04cf CB       		.byte	0xcb
 4635 04d0 85070000 		.4byte	0x785
 4636 04d4 02       		.byte	0x2
 4637 04d5 23       		.byte	0x23
 4638 04d6 2C       		.uleb128 0x2c
 4639 04d7 12       		.uleb128 0x12
ARM GAS  C:\Users\EBANO_~1\AppData\Local\Temp\ccLo4wHn.s 			page 110


 4640 04d8 5F756200 		.ascii	"_ub\000"
 4641 04dc 08       		.byte	0x8
 4642 04dd CE       		.byte	0xce
 4643 04de F7030000 		.4byte	0x3f7
 4644 04e2 02       		.byte	0x2
 4645 04e3 23       		.byte	0x23
 4646 04e4 30       		.uleb128 0x30
 4647 04e5 12       		.uleb128 0x12
 4648 04e6 5F757000 		.ascii	"_up\000"
 4649 04ea 08       		.byte	0x8
 4650 04eb CF       		.byte	0xcf
 4651 04ec 20040000 		.4byte	0x420
 4652 04f0 02       		.byte	0x2
 4653 04f1 23       		.byte	0x23
 4654 04f2 38       		.uleb128 0x38
 4655 04f3 12       		.uleb128 0x12
 4656 04f4 5F757200 		.ascii	"_ur\000"
 4657 04f8 08       		.byte	0x8
 4658 04f9 D0       		.byte	0xd0
 4659 04fa AA000000 		.4byte	0xaa
 4660 04fe 02       		.byte	0x2
 4661 04ff 23       		.byte	0x23
 4662 0500 3C       		.uleb128 0x3c
 4663 0501 10       		.uleb128 0x10
 4664 0502 D3180000 		.4byte	.LASF74
 4665 0506 08       		.byte	0x8
 4666 0507 D3       		.byte	0xd3
 4667 0508 8B070000 		.4byte	0x78b
 4668 050c 02       		.byte	0x2
 4669 050d 23       		.byte	0x23
 4670 050e 40       		.uleb128 0x40
 4671 050f 10       		.uleb128 0x10
 4672 0510 1B020000 		.4byte	.LASF75
 4673 0514 08       		.byte	0x8
 4674 0515 D4       		.byte	0xd4
 4675 0516 9B070000 		.4byte	0x79b
 4676 051a 02       		.byte	0x2
 4677 051b 23       		.byte	0x23
 4678 051c 43       		.uleb128 0x43
 4679 051d 12       		.uleb128 0x12
 4680 051e 5F6C6200 		.ascii	"_lb\000"
 4681 0522 08       		.byte	0x8
 4682 0523 D7       		.byte	0xd7
 4683 0524 F7030000 		.4byte	0x3f7
 4684 0528 02       		.byte	0x2
 4685 0529 23       		.byte	0x23
 4686 052a 44       		.uleb128 0x44
 4687 052b 10       		.uleb128 0x10
 4688 052c BB180000 		.4byte	.LASF76
 4689 0530 08       		.byte	0x8
 4690 0531 DA       		.byte	0xda
 4691 0532 AA000000 		.4byte	0xaa
 4692 0536 02       		.byte	0x2
 4693 0537 23       		.byte	0x23
 4694 0538 4C       		.uleb128 0x4c
 4695 0539 10       		.uleb128 0x10
 4696 053a 31130000 		.4byte	.LASF77
ARM GAS  C:\Users\EBANO_~1\AppData\Local\Temp\ccLo4wHn.s 			page 111


 4697 053e 08       		.byte	0x8
 4698 053f DB       		.byte	0xdb
 4699 0540 A2010000 		.4byte	0x1a2
 4700 0544 02       		.byte	0x2
 4701 0545 23       		.byte	0x23
 4702 0546 50       		.uleb128 0x50
 4703 0547 10       		.uleb128 0x10
 4704 0548 B0110000 		.4byte	.LASF78
 4705 054c 08       		.byte	0x8
 4706 054d DE       		.byte	0xde
 4707 054e 9F050000 		.4byte	0x59f
 4708 0552 02       		.byte	0x2
 4709 0553 23       		.byte	0x23
 4710 0554 54       		.uleb128 0x54
 4711 0555 10       		.uleb128 0x10
 4712 0556 15020000 		.4byte	.LASF79
 4713 055a 08       		.byte	0x8
 4714 055b E2       		.byte	0xe2
 4715 055c 23020000 		.4byte	0x223
 4716 0560 02       		.byte	0x2
 4717 0561 23       		.byte	0x23
 4718 0562 58       		.uleb128 0x58
 4719 0563 10       		.uleb128 0x10
 4720 0564 CA000000 		.4byte	.LASF80
 4721 0568 08       		.byte	0x8
 4722 0569 E4       		.byte	0xe4
 4723 056a 18020000 		.4byte	0x218
 4724 056e 02       		.byte	0x2
 4725 056f 23       		.byte	0x23
 4726 0570 5C       		.uleb128 0x5c
 4727 0571 10       		.uleb128 0x10
 4728 0572 A41E0000 		.4byte	.LASF81
 4729 0576 08       		.byte	0x8
 4730 0577 E5       		.byte	0xe5
 4731 0578 AA000000 		.4byte	0xaa
 4732 057c 02       		.byte	0x2
 4733 057d 23       		.byte	0x23
 4734 057e 64       		.uleb128 0x64
 4735 057f 00       		.byte	0
 4736 0580 15       		.uleb128 0x15
 4737 0581 01       		.byte	0x1
 4738 0582 AA000000 		.4byte	0xaa
 4739 0586 9F050000 		.4byte	0x59f
 4740 058a 16       		.uleb128 0x16
 4741 058b 9F050000 		.4byte	0x59f
 4742 058f 16       		.uleb128 0x16
 4743 0590 89010000 		.4byte	0x189
 4744 0594 16       		.uleb128 0x16
 4745 0595 08070000 		.4byte	0x708
 4746 0599 16       		.uleb128 0x16
 4747 059a AA000000 		.4byte	0xaa
 4748 059e 00       		.byte	0
 4749 059f 0A       		.uleb128 0xa
 4750 05a0 04       		.byte	0x4
 4751 05a1 AA050000 		.4byte	0x5aa
 4752 05a5 05       		.uleb128 0x5
 4753 05a6 9F050000 		.4byte	0x59f
ARM GAS  C:\Users\EBANO_~1\AppData\Local\Temp\ccLo4wHn.s 			page 112


 4754 05aa 17       		.uleb128 0x17
 4755 05ab D4040000 		.4byte	.LASF82
 4756 05af 2804     		.2byte	0x428
 4757 05b1 08       		.byte	0x8
 4758 05b2 6002     		.2byte	0x260
 4759 05b4 08070000 		.4byte	0x708
 4760 05b8 18       		.uleb128 0x18
 4761 05b9 FE0D0000 		.4byte	.LASF83
 4762 05bd 08       		.byte	0x8
 4763 05be 6202     		.2byte	0x262
 4764 05c0 AA000000 		.4byte	0xaa
 4765 05c4 02       		.byte	0x2
 4766 05c5 23       		.byte	0x23
 4767 05c6 00       		.uleb128 0
 4768 05c7 18       		.uleb128 0x18
 4769 05c8 FA0A0000 		.4byte	.LASF84
 4770 05cc 08       		.byte	0x8
 4771 05cd 6702     		.2byte	0x267
 4772 05cf F8070000 		.4byte	0x7f8
 4773 05d3 02       		.byte	0x2
 4774 05d4 23       		.byte	0x23
 4775 05d5 04       		.uleb128 0x4
 4776 05d6 18       		.uleb128 0x18
 4777 05d7 82070000 		.4byte	.LASF85
 4778 05db 08       		.byte	0x8
 4779 05dc 6702     		.2byte	0x267
 4780 05de F8070000 		.4byte	0x7f8
 4781 05e2 02       		.byte	0x2
 4782 05e3 23       		.byte	0x23
 4783 05e4 08       		.uleb128 0x8
 4784 05e5 18       		.uleb128 0x18
 4785 05e6 CD060000 		.4byte	.LASF86
 4786 05ea 08       		.byte	0x8
 4787 05eb 6702     		.2byte	0x267
 4788 05ed F8070000 		.4byte	0x7f8
 4789 05f1 02       		.byte	0x2
 4790 05f2 23       		.byte	0x23
 4791 05f3 0C       		.uleb128 0xc
 4792 05f4 18       		.uleb128 0x18
 4793 05f5 1E010000 		.4byte	.LASF87
 4794 05f9 08       		.byte	0x8
 4795 05fa 6902     		.2byte	0x269
 4796 05fc AA000000 		.4byte	0xaa
 4797 0600 02       		.byte	0x2
 4798 0601 23       		.byte	0x23
 4799 0602 10       		.uleb128 0x10
 4800 0603 18       		.uleb128 0x18
 4801 0604 D6140000 		.4byte	.LASF88
 4802 0608 08       		.byte	0x8
 4803 0609 6A02     		.2byte	0x26a
 4804 060b 130A0000 		.4byte	0xa13
 4805 060f 02       		.byte	0x2
 4806 0610 23       		.byte	0x23
 4807 0611 14       		.uleb128 0x14
 4808 0612 18       		.uleb128 0x18
 4809 0613 0A1D0000 		.4byte	.LASF89
 4810 0617 08       		.byte	0x8
ARM GAS  C:\Users\EBANO_~1\AppData\Local\Temp\ccLo4wHn.s 			page 113


 4811 0618 6D02     		.2byte	0x26d
 4812 061a AA000000 		.4byte	0xaa
 4813 061e 02       		.byte	0x2
 4814 061f 23       		.byte	0x23
 4815 0620 30       		.uleb128 0x30
 4816 0621 18       		.uleb128 0x18
 4817 0622 CF1E0000 		.4byte	.LASF90
 4818 0626 08       		.byte	0x8
 4819 0627 6E02     		.2byte	0x26e
 4820 0629 290A0000 		.4byte	0xa29
 4821 062d 02       		.byte	0x2
 4822 062e 23       		.byte	0x23
 4823 062f 34       		.uleb128 0x34
 4824 0630 18       		.uleb128 0x18
 4825 0631 651D0000 		.4byte	.LASF91
 4826 0635 08       		.byte	0x8
 4827 0636 7002     		.2byte	0x270
 4828 0638 AA000000 		.4byte	0xaa
 4829 063c 02       		.byte	0x2
 4830 063d 23       		.byte	0x23
 4831 063e 38       		.uleb128 0x38
 4832 063f 18       		.uleb128 0x18
 4833 0640 17190000 		.4byte	.LASF92
 4834 0644 08       		.byte	0x8
 4835 0645 7202     		.2byte	0x272
 4836 0647 3B0A0000 		.4byte	0xa3b
 4837 064b 02       		.byte	0x2
 4838 064c 23       		.byte	0x23
 4839 064d 3C       		.uleb128 0x3c
 4840 064e 18       		.uleb128 0x18
 4841 064f D5060000 		.4byte	.LASF93
 4842 0653 08       		.byte	0x8
 4843 0654 7502     		.2byte	0x275
 4844 0656 98020000 		.4byte	0x298
 4845 065a 02       		.byte	0x2
 4846 065b 23       		.byte	0x23
 4847 065c 40       		.uleb128 0x40
 4848 065d 18       		.uleb128 0x18
 4849 065e C3060000 		.4byte	.LASF94
 4850 0662 08       		.byte	0x8
 4851 0663 7602     		.2byte	0x276
 4852 0665 AA000000 		.4byte	0xaa
 4853 0669 02       		.byte	0x2
 4854 066a 23       		.byte	0x23
 4855 066b 44       		.uleb128 0x44
 4856 066c 18       		.uleb128 0x18
 4857 066d A71A0000 		.4byte	.LASF95
 4858 0671 08       		.byte	0x8
 4859 0672 7702     		.2byte	0x277
 4860 0674 98020000 		.4byte	0x298
 4861 0678 02       		.byte	0x2
 4862 0679 23       		.byte	0x23
 4863 067a 48       		.uleb128 0x48
 4864 067b 18       		.uleb128 0x18
 4865 067c F5120000 		.4byte	.LASF96
 4866 0680 08       		.byte	0x8
 4867 0681 7802     		.2byte	0x278
ARM GAS  C:\Users\EBANO_~1\AppData\Local\Temp\ccLo4wHn.s 			page 114


 4868 0683 410A0000 		.4byte	0xa41
 4869 0687 02       		.byte	0x2
 4870 0688 23       		.byte	0x23
 4871 0689 4C       		.uleb128 0x4c
 4872 068a 18       		.uleb128 0x18
 4873 068b A0010000 		.4byte	.LASF97
 4874 068f 08       		.byte	0x8
 4875 0690 7B02     		.2byte	0x27b
 4876 0692 AA000000 		.4byte	0xaa
 4877 0696 02       		.byte	0x2
 4878 0697 23       		.byte	0x23
 4879 0698 50       		.uleb128 0x50
 4880 0699 18       		.uleb128 0x18
 4881 069a 550C0000 		.4byte	.LASF98
 4882 069e 08       		.byte	0x8
 4883 069f 7C02     		.2byte	0x27c
 4884 06a1 08070000 		.4byte	0x708
 4885 06a5 02       		.byte	0x2
 4886 06a6 23       		.byte	0x23
 4887 06a7 54       		.uleb128 0x54
 4888 06a8 18       		.uleb128 0x18
 4889 06a9 550D0000 		.4byte	.LASF99
 4890 06ad 08       		.byte	0x8
 4891 06ae 9F02     		.2byte	0x29f
 4892 06b0 F1090000 		.4byte	0x9f1
 4893 06b4 02       		.byte	0x2
 4894 06b5 23       		.byte	0x23
 4895 06b6 58       		.uleb128 0x58
 4896 06b7 18       		.uleb128 0x18
 4897 06b8 DF000000 		.4byte	.LASF59
 4898 06bc 08       		.byte	0x8
 4899 06bd A302     		.2byte	0x2a3
 4900 06bf D9030000 		.4byte	0x3d9
 4901 06c3 03       		.byte	0x3
 4902 06c4 23       		.byte	0x23
 4903 06c5 C802     		.uleb128 0x148
 4904 06c7 18       		.uleb128 0x18
 4905 06c8 BF170000 		.4byte	.LASF100
 4906 06cc 08       		.byte	0x8
 4907 06cd A402     		.2byte	0x2a4
 4908 06cf 92030000 		.4byte	0x392
 4909 06d3 03       		.byte	0x3
 4910 06d4 23       		.byte	0x23
 4911 06d5 CC02     		.uleb128 0x14c
 4912 06d7 18       		.uleb128 0x18
 4913 06d8 C9010000 		.4byte	.LASF101
 4914 06dc 08       		.byte	0x8
 4915 06dd A802     		.2byte	0x2a8
 4916 06df 530A0000 		.4byte	0xa53
 4917 06e3 03       		.byte	0x3
 4918 06e4 23       		.byte	0x23
 4919 06e5 DC05     		.uleb128 0x2dc
 4920 06e7 18       		.uleb128 0x18
 4921 06e8 FE180000 		.4byte	.LASF102
 4922 06ec 08       		.byte	0x8
 4923 06ed AD02     		.2byte	0x2ad
 4924 06ef B7070000 		.4byte	0x7b7
ARM GAS  C:\Users\EBANO_~1\AppData\Local\Temp\ccLo4wHn.s 			page 115


 4925 06f3 03       		.byte	0x3
 4926 06f4 23       		.byte	0x23
 4927 06f5 E005     		.uleb128 0x2e0
 4928 06f7 18       		.uleb128 0x18
 4929 06f8 22050000 		.4byte	.LASF103
 4930 06fc 08       		.byte	0x8
 4931 06fd AF02     		.2byte	0x2af
 4932 06ff 5F0A0000 		.4byte	0xa5f
 4933 0703 03       		.byte	0x3
 4934 0704 23       		.byte	0x23
 4935 0705 EC05     		.uleb128 0x2ec
 4936 0707 00       		.byte	0
 4937 0708 0A       		.uleb128 0xa
 4938 0709 04       		.byte	0x4
 4939 070a 0E070000 		.4byte	0x70e
 4940 070e 02       		.uleb128 0x2
 4941 070f 01       		.byte	0x1
 4942 0710 08       		.byte	0x8
 4943 0711 3E160000 		.4byte	.LASF104
 4944 0715 05       		.uleb128 0x5
 4945 0716 0E070000 		.4byte	0x70e
 4946 071a 0A       		.uleb128 0xa
 4947 071b 04       		.byte	0x4
 4948 071c 80050000 		.4byte	0x580
 4949 0720 15       		.uleb128 0x15
 4950 0721 01       		.byte	0x1
 4951 0722 AA000000 		.4byte	0xaa
 4952 0726 3F070000 		.4byte	0x73f
 4953 072a 16       		.uleb128 0x16
 4954 072b 9F050000 		.4byte	0x59f
 4955 072f 16       		.uleb128 0x16
 4956 0730 89010000 		.4byte	0x189
 4957 0734 16       		.uleb128 0x16
 4958 0735 3F070000 		.4byte	0x73f
 4959 0739 16       		.uleb128 0x16
 4960 073a AA000000 		.4byte	0xaa
 4961 073e 00       		.byte	0
 4962 073f 0A       		.uleb128 0xa
 4963 0740 04       		.byte	0x4
 4964 0741 15070000 		.4byte	0x715
 4965 0745 0A       		.uleb128 0xa
 4966 0746 04       		.byte	0x4
 4967 0747 20070000 		.4byte	0x720
 4968 074b 15       		.uleb128 0x15
 4969 074c 01       		.byte	0x1
 4970 074d AD010000 		.4byte	0x1ad
 4971 0751 6A070000 		.4byte	0x76a
 4972 0755 16       		.uleb128 0x16
 4973 0756 9F050000 		.4byte	0x59f
 4974 075a 16       		.uleb128 0x16
 4975 075b 89010000 		.4byte	0x189
 4976 075f 16       		.uleb128 0x16
 4977 0760 AD010000 		.4byte	0x1ad
 4978 0764 16       		.uleb128 0x16
 4979 0765 AA000000 		.4byte	0xaa
 4980 0769 00       		.byte	0
 4981 076a 0A       		.uleb128 0xa
ARM GAS  C:\Users\EBANO_~1\AppData\Local\Temp\ccLo4wHn.s 			page 116


 4982 076b 04       		.byte	0x4
 4983 076c 4B070000 		.4byte	0x74b
 4984 0770 15       		.uleb128 0x15
 4985 0771 01       		.byte	0x1
 4986 0772 AA000000 		.4byte	0xaa
 4987 0776 85070000 		.4byte	0x785
 4988 077a 16       		.uleb128 0x16
 4989 077b 9F050000 		.4byte	0x59f
 4990 077f 16       		.uleb128 0x16
 4991 0780 89010000 		.4byte	0x189
 4992 0784 00       		.byte	0
 4993 0785 0A       		.uleb128 0xa
 4994 0786 04       		.byte	0x4
 4995 0787 70070000 		.4byte	0x770
 4996 078b 07       		.uleb128 0x7
 4997 078c 4D000000 		.4byte	0x4d
 4998 0790 9B070000 		.4byte	0x79b
 4999 0794 08       		.uleb128 0x8
 5000 0795 B1000000 		.4byte	0xb1
 5001 0799 02       		.byte	0x2
 5002 079a 00       		.byte	0
 5003 079b 07       		.uleb128 0x7
 5004 079c 4D000000 		.4byte	0x4d
 5005 07a0 AB070000 		.4byte	0x7ab
 5006 07a4 08       		.uleb128 0x8
 5007 07a5 B1000000 		.4byte	0xb1
 5008 07a9 00       		.byte	0
 5009 07aa 00       		.byte	0
 5010 07ab 0C       		.uleb128 0xc
 5011 07ac F71F0000 		.4byte	.LASF105
 5012 07b0 08       		.byte	0x8
 5013 07b1 1F01     		.2byte	0x11f
 5014 07b3 26040000 		.4byte	0x426
 5015 07b7 19       		.uleb128 0x19
 5016 07b8 5F160000 		.4byte	.LASF106
 5017 07bc 0C       		.byte	0xc
 5018 07bd 08       		.byte	0x8
 5019 07be 2301     		.2byte	0x123
 5020 07c0 F2070000 		.4byte	0x7f2
 5021 07c4 18       		.uleb128 0x18
 5022 07c5 BF0E0000 		.4byte	.LASF39
 5023 07c9 08       		.byte	0x8
 5024 07ca 2501     		.2byte	0x125
 5025 07cc F2070000 		.4byte	0x7f2
 5026 07d0 02       		.byte	0x2
 5027 07d1 23       		.byte	0x23
 5028 07d2 00       		.uleb128 0
 5029 07d3 18       		.uleb128 0x18
 5030 07d4 730D0000 		.4byte	.LASF107
 5031 07d8 08       		.byte	0x8
 5032 07d9 2601     		.2byte	0x126
 5033 07db AA000000 		.4byte	0xaa
 5034 07df 02       		.byte	0x2
 5035 07e0 23       		.byte	0x23
 5036 07e1 04       		.uleb128 0x4
 5037 07e2 18       		.uleb128 0x18
 5038 07e3 D0140000 		.4byte	.LASF108
ARM GAS  C:\Users\EBANO_~1\AppData\Local\Temp\ccLo4wHn.s 			page 117


 5039 07e7 08       		.byte	0x8
 5040 07e8 2701     		.2byte	0x127
 5041 07ea F8070000 		.4byte	0x7f8
 5042 07ee 02       		.byte	0x2
 5043 07ef 23       		.byte	0x23
 5044 07f0 08       		.uleb128 0x8
 5045 07f1 00       		.byte	0
 5046 07f2 0A       		.uleb128 0xa
 5047 07f3 04       		.byte	0x4
 5048 07f4 B7070000 		.4byte	0x7b7
 5049 07f8 0A       		.uleb128 0xa
 5050 07f9 04       		.byte	0x4
 5051 07fa AB070000 		.4byte	0x7ab
 5052 07fe 19       		.uleb128 0x19
 5053 07ff 6D210000 		.4byte	.LASF109
 5054 0803 0E       		.byte	0xe
 5055 0804 08       		.byte	0x8
 5056 0805 3F01     		.2byte	0x13f
 5057 0807 39080000 		.4byte	0x839
 5058 080b 18       		.uleb128 0x18
 5059 080c 26120000 		.4byte	.LASF110
 5060 0810 08       		.byte	0x8
 5061 0811 4001     		.2byte	0x140
 5062 0813 39080000 		.4byte	0x839
 5063 0817 02       		.byte	0x2
 5064 0818 23       		.byte	0x23
 5065 0819 00       		.uleb128 0
 5066 081a 18       		.uleb128 0x18
 5067 081b 3B0A0000 		.4byte	.LASF111
 5068 081f 08       		.byte	0x8
 5069 0820 4101     		.2byte	0x141
 5070 0822 39080000 		.4byte	0x839
 5071 0826 02       		.byte	0x2
 5072 0827 23       		.byte	0x23
 5073 0828 06       		.uleb128 0x6
 5074 0829 18       		.uleb128 0x18
 5075 082a 03030000 		.4byte	.LASF112
 5076 082e 08       		.byte	0x8
 5077 082f 4201     		.2byte	0x142
 5078 0831 71000000 		.4byte	0x71
 5079 0835 02       		.byte	0x2
 5080 0836 23       		.byte	0x23
 5081 0837 0C       		.uleb128 0xc
 5082 0838 00       		.byte	0
 5083 0839 07       		.uleb128 0x7
 5084 083a 71000000 		.4byte	0x71
 5085 083e 49080000 		.4byte	0x849
 5086 0842 08       		.uleb128 0x8
 5087 0843 B1000000 		.4byte	0xb1
 5088 0847 02       		.byte	0x2
 5089 0848 00       		.byte	0
 5090 0849 1A       		.uleb128 0x1a
 5091 084a D0       		.byte	0xd0
 5092 084b 08       		.byte	0x8
 5093 084c 8002     		.2byte	0x280
 5094 084e 79090000 		.4byte	0x979
 5095 0852 18       		.uleb128 0x18
ARM GAS  C:\Users\EBANO_~1\AppData\Local\Temp\ccLo4wHn.s 			page 118


 5096 0853 3E060000 		.4byte	.LASF113
 5097 0857 08       		.byte	0x8
 5098 0858 8202     		.2byte	0x282
 5099 085a B1000000 		.4byte	0xb1
 5100 085e 02       		.byte	0x2
 5101 085f 23       		.byte	0x23
 5102 0860 00       		.uleb128 0
 5103 0861 18       		.uleb128 0x18
 5104 0862 FB110000 		.4byte	.LASF114
 5105 0866 08       		.byte	0x8
 5106 0867 8302     		.2byte	0x283
 5107 0869 08070000 		.4byte	0x708
 5108 086d 02       		.byte	0x2
 5109 086e 23       		.byte	0x23
 5110 086f 04       		.uleb128 0x4
 5111 0870 18       		.uleb128 0x18
 5112 0871 B9130000 		.4byte	.LASF115
 5113 0875 08       		.byte	0x8
 5114 0876 8402     		.2byte	0x284
 5115 0878 79090000 		.4byte	0x979
 5116 087c 02       		.byte	0x2
 5117 087d 23       		.byte	0x23
 5118 087e 08       		.uleb128 0x8
 5119 087f 18       		.uleb128 0x18
 5120 0880 950B0000 		.4byte	.LASF116
 5121 0884 08       		.byte	0x8
 5122 0885 8502     		.2byte	0x285
 5123 0887 AE020000 		.4byte	0x2ae
 5124 088b 02       		.byte	0x2
 5125 088c 23       		.byte	0x23
 5126 088d 24       		.uleb128 0x24
 5127 088e 18       		.uleb128 0x18
 5128 088f 321C0000 		.4byte	.LASF117
 5129 0893 08       		.byte	0x8
 5130 0894 8602     		.2byte	0x286
 5131 0896 AA000000 		.4byte	0xaa
 5132 089a 02       		.byte	0x2
 5133 089b 23       		.byte	0x23
 5134 089c 48       		.uleb128 0x48
 5135 089d 18       		.uleb128 0x18
 5136 089e 01150000 		.4byte	.LASF118
 5137 08a2 08       		.byte	0x8
 5138 08a3 8702     		.2byte	0x287
 5139 08a5 A3000000 		.4byte	0xa3
 5140 08a9 02       		.byte	0x2
 5141 08aa 23       		.byte	0x23
 5142 08ab 50       		.uleb128 0x50
 5143 08ac 18       		.uleb128 0x18
 5144 08ad A3200000 		.4byte	.LASF119
 5145 08b1 08       		.byte	0x8
 5146 08b2 8802     		.2byte	0x288
 5147 08b4 FE070000 		.4byte	0x7fe
 5148 08b8 02       		.byte	0x2
 5149 08b9 23       		.byte	0x23
 5150 08ba 58       		.uleb128 0x58
 5151 08bb 18       		.uleb128 0x18
 5152 08bc F1180000 		.4byte	.LASF120
ARM GAS  C:\Users\EBANO_~1\AppData\Local\Temp\ccLo4wHn.s 			page 119


 5153 08c0 08       		.byte	0x8
 5154 08c1 8902     		.2byte	0x289
 5155 08c3 18020000 		.4byte	0x218
 5156 08c7 02       		.byte	0x2
 5157 08c8 23       		.byte	0x23
 5158 08c9 68       		.uleb128 0x68
 5159 08ca 18       		.uleb128 0x18
 5160 08cb 33050000 		.4byte	.LASF121
 5161 08cf 08       		.byte	0x8
 5162 08d0 8A02     		.2byte	0x28a
 5163 08d2 18020000 		.4byte	0x218
 5164 08d6 02       		.byte	0x2
 5165 08d7 23       		.byte	0x23
 5166 08d8 70       		.uleb128 0x70
 5167 08d9 18       		.uleb128 0x18
 5168 08da 6D140000 		.4byte	.LASF122
 5169 08de 08       		.byte	0x8
 5170 08df 8B02     		.2byte	0x28b
 5171 08e1 18020000 		.4byte	0x218
 5172 08e5 02       		.byte	0x2
 5173 08e6 23       		.byte	0x23
 5174 08e7 78       		.uleb128 0x78
 5175 08e8 18       		.uleb128 0x18
 5176 08e9 6C130000 		.4byte	.LASF123
 5177 08ed 08       		.byte	0x8
 5178 08ee 8C02     		.2byte	0x28c
 5179 08f0 89090000 		.4byte	0x989
 5180 08f4 03       		.byte	0x3
 5181 08f5 23       		.byte	0x23
 5182 08f6 8001     		.uleb128 0x80
 5183 08f8 18       		.uleb128 0x18
 5184 08f9 EC0E0000 		.4byte	.LASF124
 5185 08fd 08       		.byte	0x8
 5186 08fe 8D02     		.2byte	0x28d
 5187 0900 99090000 		.4byte	0x999
 5188 0904 03       		.byte	0x3
 5189 0905 23       		.byte	0x23
 5190 0906 8801     		.uleb128 0x88
 5191 0908 18       		.uleb128 0x18
 5192 0909 FA170000 		.4byte	.LASF125
 5193 090d 08       		.byte	0x8
 5194 090e 8E02     		.2byte	0x28e
 5195 0910 AA000000 		.4byte	0xaa
 5196 0914 03       		.byte	0x3
 5197 0915 23       		.byte	0x23
 5198 0916 A001     		.uleb128 0xa0
 5199 0918 18       		.uleb128 0x18
 5200 0919 780A0000 		.4byte	.LASF126
 5201 091d 08       		.byte	0x8
 5202 091e 8F02     		.2byte	0x28f
 5203 0920 18020000 		.4byte	0x218
 5204 0924 03       		.byte	0x3
 5205 0925 23       		.byte	0x23
 5206 0926 A401     		.uleb128 0xa4
 5207 0928 18       		.uleb128 0x18
 5208 0929 FB0C0000 		.4byte	.LASF127
 5209 092d 08       		.byte	0x8
ARM GAS  C:\Users\EBANO_~1\AppData\Local\Temp\ccLo4wHn.s 			page 120


 5210 092e 9002     		.2byte	0x290
 5211 0930 18020000 		.4byte	0x218
 5212 0934 03       		.byte	0x3
 5213 0935 23       		.byte	0x23
 5214 0936 AC01     		.uleb128 0xac
 5215 0938 18       		.uleb128 0x18
 5216 0939 9B070000 		.4byte	.LASF128
 5217 093d 08       		.byte	0x8
 5218 093e 9102     		.2byte	0x291
 5219 0940 18020000 		.4byte	0x218
 5220 0944 03       		.byte	0x3
 5221 0945 23       		.byte	0x23
 5222 0946 B401     		.uleb128 0xb4
 5223 0948 18       		.uleb128 0x18
 5224 0949 0C110000 		.4byte	.LASF129
 5225 094d 08       		.byte	0x8
 5226 094e 9202     		.2byte	0x292
 5227 0950 18020000 		.4byte	0x218
 5228 0954 03       		.byte	0x3
 5229 0955 23       		.byte	0x23
 5230 0956 BC01     		.uleb128 0xbc
 5231 0958 18       		.uleb128 0x18
 5232 0959 E3130000 		.4byte	.LASF130
 5233 095d 08       		.byte	0x8
 5234 095e 9302     		.2byte	0x293
 5235 0960 18020000 		.4byte	0x218
 5236 0964 03       		.byte	0x3
 5237 0965 23       		.byte	0x23
 5238 0966 C401     		.uleb128 0xc4
 5239 0968 18       		.uleb128 0x18
 5240 0969 DD190000 		.4byte	.LASF131
 5241 096d 08       		.byte	0x8
 5242 096e 9402     		.2byte	0x294
 5243 0970 AA000000 		.4byte	0xaa
 5244 0974 03       		.byte	0x3
 5245 0975 23       		.byte	0x23
 5246 0976 CC01     		.uleb128 0xcc
 5247 0978 00       		.byte	0
 5248 0979 07       		.uleb128 0x7
 5249 097a 0E070000 		.4byte	0x70e
 5250 097e 89090000 		.4byte	0x989
 5251 0982 08       		.uleb128 0x8
 5252 0983 B1000000 		.4byte	0xb1
 5253 0987 19       		.byte	0x19
 5254 0988 00       		.byte	0
 5255 0989 07       		.uleb128 0x7
 5256 098a 0E070000 		.4byte	0x70e
 5257 098e 99090000 		.4byte	0x999
 5258 0992 08       		.uleb128 0x8
 5259 0993 B1000000 		.4byte	0xb1
 5260 0997 07       		.byte	0x7
 5261 0998 00       		.byte	0
 5262 0999 07       		.uleb128 0x7
 5263 099a 0E070000 		.4byte	0x70e
 5264 099e A9090000 		.4byte	0x9a9
 5265 09a2 08       		.uleb128 0x8
 5266 09a3 B1000000 		.4byte	0xb1
ARM GAS  C:\Users\EBANO_~1\AppData\Local\Temp\ccLo4wHn.s 			page 121


 5267 09a7 17       		.byte	0x17
 5268 09a8 00       		.byte	0
 5269 09a9 1A       		.uleb128 0x1a
 5270 09aa F0       		.byte	0xf0
 5271 09ab 08       		.byte	0x8
 5272 09ac 9902     		.2byte	0x299
 5273 09ae D1090000 		.4byte	0x9d1
 5274 09b2 18       		.uleb128 0x18
 5275 09b3 FA140000 		.4byte	.LASF132
 5276 09b7 08       		.byte	0x8
 5277 09b8 9C02     		.2byte	0x29c
 5278 09ba D1090000 		.4byte	0x9d1
 5279 09be 02       		.byte	0x2
 5280 09bf 23       		.byte	0x23
 5281 09c0 00       		.uleb128 0
 5282 09c1 18       		.uleb128 0x18
 5283 09c2 0F0B0000 		.4byte	.LASF133
 5284 09c6 08       		.byte	0x8
 5285 09c7 9D02     		.2byte	0x29d
 5286 09c9 E1090000 		.4byte	0x9e1
 5287 09cd 02       		.byte	0x2
 5288 09ce 23       		.byte	0x23
 5289 09cf 78       		.uleb128 0x78
 5290 09d0 00       		.byte	0
 5291 09d1 07       		.uleb128 0x7
 5292 09d2 20040000 		.4byte	0x420
 5293 09d6 E1090000 		.4byte	0x9e1
 5294 09da 08       		.uleb128 0x8
 5295 09db B1000000 		.4byte	0xb1
 5296 09df 1D       		.byte	0x1d
 5297 09e0 00       		.byte	0
 5298 09e1 07       		.uleb128 0x7
 5299 09e2 B1000000 		.4byte	0xb1
 5300 09e6 F1090000 		.4byte	0x9f1
 5301 09ea 08       		.uleb128 0x8
 5302 09eb B1000000 		.4byte	0xb1
 5303 09ef 1D       		.byte	0x1d
 5304 09f0 00       		.byte	0
 5305 09f1 1B       		.uleb128 0x1b
 5306 09f2 F0       		.byte	0xf0
 5307 09f3 08       		.byte	0x8
 5308 09f4 7E02     		.2byte	0x27e
 5309 09f6 130A0000 		.4byte	0xa13
 5310 09fa 1C       		.uleb128 0x1c
 5311 09fb D4040000 		.4byte	.LASF82
 5312 09ff 08       		.byte	0x8
 5313 0a00 9502     		.2byte	0x295
 5314 0a02 49080000 		.4byte	0x849
 5315 0a06 1C       		.uleb128 0x1c
 5316 0a07 21020000 		.4byte	.LASF134
 5317 0a0b 08       		.byte	0x8
 5318 0a0c 9E02     		.2byte	0x29e
 5319 0a0e A9090000 		.4byte	0x9a9
 5320 0a12 00       		.byte	0
 5321 0a13 07       		.uleb128 0x7
 5322 0a14 0E070000 		.4byte	0x70e
 5323 0a18 230A0000 		.4byte	0xa23
ARM GAS  C:\Users\EBANO_~1\AppData\Local\Temp\ccLo4wHn.s 			page 122


 5324 0a1c 08       		.uleb128 0x8
 5325 0a1d B1000000 		.4byte	0xb1
 5326 0a21 18       		.byte	0x18
 5327 0a22 00       		.byte	0
 5328 0a23 0B       		.uleb128 0xb
 5329 0a24 06190000 		.4byte	.LASF136
 5330 0a28 01       		.byte	0x1
 5331 0a29 0A       		.uleb128 0xa
 5332 0a2a 04       		.byte	0x4
 5333 0a2b 230A0000 		.4byte	0xa23
 5334 0a2f 1D       		.uleb128 0x1d
 5335 0a30 01       		.byte	0x1
 5336 0a31 3B0A0000 		.4byte	0xa3b
 5337 0a35 16       		.uleb128 0x16
 5338 0a36 9F050000 		.4byte	0x59f
 5339 0a3a 00       		.byte	0
 5340 0a3b 0A       		.uleb128 0xa
 5341 0a3c 04       		.byte	0x4
 5342 0a3d 2F0A0000 		.4byte	0xa2f
 5343 0a41 0A       		.uleb128 0xa
 5344 0a42 04       		.byte	0x4
 5345 0a43 98020000 		.4byte	0x298
 5346 0a47 1D       		.uleb128 0x1d
 5347 0a48 01       		.byte	0x1
 5348 0a49 530A0000 		.4byte	0xa53
 5349 0a4d 16       		.uleb128 0x16
 5350 0a4e AA000000 		.4byte	0xaa
 5351 0a52 00       		.byte	0
 5352 0a53 0A       		.uleb128 0xa
 5353 0a54 04       		.byte	0x4
 5354 0a55 590A0000 		.4byte	0xa59
 5355 0a59 0A       		.uleb128 0xa
 5356 0a5a 04       		.byte	0x4
 5357 0a5b 470A0000 		.4byte	0xa47
 5358 0a5f 07       		.uleb128 0x7
 5359 0a60 AB070000 		.4byte	0x7ab
 5360 0a64 6F0A0000 		.4byte	0xa6f
 5361 0a68 08       		.uleb128 0x8
 5362 0a69 B1000000 		.4byte	0xb1
 5363 0a6d 02       		.byte	0x2
 5364 0a6e 00       		.byte	0
 5365 0a6f 1E       		.uleb128 0x1e
 5366 0a70 AF180000 		.4byte	.LASF137
 5367 0a74 08       		.byte	0x8
 5368 0a75 2E03     		.2byte	0x32e
 5369 0a77 9F050000 		.4byte	0x59f
 5370 0a7b 01       		.byte	0x1
 5371 0a7c 01       		.byte	0x1
 5372 0a7d 1E       		.uleb128 0x1e
 5373 0a7e E91C0000 		.4byte	.LASF138
 5374 0a82 08       		.byte	0x8
 5375 0a83 2F03     		.2byte	0x32f
 5376 0a85 A5050000 		.4byte	0x5a5
 5377 0a89 01       		.byte	0x1
 5378 0a8a 01       		.byte	0x1
 5379 0a8b 0A       		.uleb128 0xa
 5380 0a8c 04       		.byte	0x4
ARM GAS  C:\Users\EBANO_~1\AppData\Local\Temp\ccLo4wHn.s 			page 123


 5381 0a8d C3000000 		.4byte	0xc3
 5382 0a91 06       		.uleb128 0x6
 5383 0a92 84150000 		.4byte	.LASF139
 5384 0a96 09       		.byte	0x9
 5385 0a97 63       		.byte	0x63
 5386 0a98 08070000 		.4byte	0x708
 5387 0a9c 01       		.byte	0x1
 5388 0a9d 01       		.byte	0x1
 5389 0a9e 03       		.uleb128 0x3
 5390 0a9f 191B0000 		.4byte	.LASF140
 5391 0aa3 0A       		.byte	0xa
 5392 0aa4 3D       		.byte	0x3d
 5393 0aa5 F4000000 		.4byte	0xf4
 5394 0aa9 11       		.uleb128 0x11
 5395 0aaa 680B0000 		.4byte	.LASF141
 5396 0aae 04       		.byte	0x4
 5397 0aaf 0A       		.byte	0xa
 5398 0ab0 5F       		.byte	0x5f
 5399 0ab1 EE0A0000 		.4byte	0xaee
 5400 0ab5 12       		.uleb128 0x12
 5401 0ab6 52667500 		.ascii	"Rfu\000"
 5402 0aba 0A       		.byte	0xa
 5403 0abb 61       		.byte	0x61
 5404 0abc C3000000 		.4byte	0xc3
 5405 0ac0 02       		.byte	0x2
 5406 0ac1 23       		.byte	0x23
 5407 0ac2 00       		.uleb128 0
 5408 0ac3 10       		.uleb128 0x10
 5409 0ac4 88000000 		.4byte	.LASF142
 5410 0ac8 0A       		.byte	0xa
 5411 0ac9 62       		.byte	0x62
 5412 0aca C3000000 		.4byte	0xc3
 5413 0ace 02       		.byte	0x2
 5414 0acf 23       		.byte	0x23
 5415 0ad0 01       		.uleb128 0x1
 5416 0ad1 10       		.uleb128 0x10
 5417 0ad2 9E020000 		.4byte	.LASF143
 5418 0ad6 0A       		.byte	0xa
 5419 0ad7 63       		.byte	0x63
 5420 0ad8 C3000000 		.4byte	0xc3
 5421 0adc 02       		.byte	0x2
 5422 0add 23       		.byte	0x23
 5423 0ade 02       		.uleb128 0x2
 5424 0adf 10       		.uleb128 0x10
 5425 0ae0 C71C0000 		.4byte	.LASF144
 5426 0ae4 0A       		.byte	0xa
 5427 0ae5 64       		.byte	0x64
 5428 0ae6 C3000000 		.4byte	0xc3
 5429 0aea 02       		.byte	0x2
 5430 0aeb 23       		.byte	0x23
 5431 0aec 03       		.uleb128 0x3
 5432 0aed 00       		.byte	0
 5433 0aee 1F       		.uleb128 0x1f
 5434 0aef 7C0B0000 		.4byte	.LASF206
 5435 0af3 04       		.byte	0x4
 5436 0af4 0A       		.byte	0xa
 5437 0af5 5D       		.byte	0x5d
ARM GAS  C:\Users\EBANO_~1\AppData\Local\Temp\ccLo4wHn.s 			page 124


 5438 0af6 110B0000 		.4byte	0xb11
 5439 0afa 0E       		.uleb128 0xe
 5440 0afb DC110000 		.4byte	.LASF145
 5441 0aff 0A       		.byte	0xa
 5442 0b00 65       		.byte	0x65
 5443 0b01 A90A0000 		.4byte	0xaa9
 5444 0b05 0E       		.uleb128 0xe
 5445 0b06 A8200000 		.4byte	.LASF146
 5446 0b0a 0A       		.byte	0xa
 5447 0b0b 66       		.byte	0x66
 5448 0b0c F4000000 		.4byte	0xf4
 5449 0b10 00       		.byte	0
 5450 0b11 03       		.uleb128 0x3
 5451 0b12 720B0000 		.4byte	.LASF147
 5452 0b16 0A       		.byte	0xa
 5453 0b17 67       		.byte	0x67
 5454 0b18 EE0A0000 		.4byte	0xaee
 5455 0b1c 02       		.uleb128 0x2
 5456 0b1d 01       		.byte	0x1
 5457 0b1e 02       		.byte	0x2
 5458 0b1f C4000000 		.4byte	.LASF148
 5459 0b23 19       		.uleb128 0x19
 5460 0b24 F70B0000 		.4byte	.LASF149
 5461 0b28 10       		.byte	0x10
 5462 0b29 0B       		.byte	0xb
 5463 0b2a D301     		.2byte	0x1d3
 5464 0b2c 7C0B0000 		.4byte	0xb7c
 5465 0b30 18       		.uleb128 0x18
 5466 0b31 6E020000 		.4byte	.LASF150
 5467 0b35 0B       		.byte	0xb
 5468 0b36 D801     		.2byte	0x1d8
 5469 0b38 DE000000 		.4byte	0xde
 5470 0b3c 02       		.byte	0x2
 5471 0b3d 23       		.byte	0x23
 5472 0b3e 00       		.uleb128 0
 5473 0b3f 18       		.uleb128 0x18
 5474 0b40 20030000 		.4byte	.LASF151
 5475 0b44 0B       		.byte	0xb
 5476 0b45 DC01     		.2byte	0x1dc
 5477 0b47 B8000000 		.4byte	0xb8
 5478 0b4b 02       		.byte	0x2
 5479 0b4c 23       		.byte	0x23
 5480 0b4d 02       		.uleb128 0x2
 5481 0b4e 18       		.uleb128 0x18
 5482 0b4f 411C0000 		.4byte	.LASF152
 5483 0b53 0B       		.byte	0xb
 5484 0b54 E001     		.2byte	0x1e0
 5485 0b56 9E0A0000 		.4byte	0xa9e
 5486 0b5a 02       		.byte	0x2
 5487 0b5b 23       		.byte	0x23
 5488 0b5c 04       		.uleb128 0x4
 5489 0b5d 18       		.uleb128 0x18
 5490 0b5e 60050000 		.4byte	.LASF153
 5491 0b62 0B       		.byte	0xb
 5492 0b63 E401     		.2byte	0x1e4
 5493 0b65 9E0A0000 		.4byte	0xa9e
 5494 0b69 02       		.byte	0x2
ARM GAS  C:\Users\EBANO_~1\AppData\Local\Temp\ccLo4wHn.s 			page 125


 5495 0b6a 23       		.byte	0x23
 5496 0b6b 08       		.uleb128 0x8
 5497 0b6c 18       		.uleb128 0x18
 5498 0b6d 6C070000 		.4byte	.LASF154
 5499 0b71 0B       		.byte	0xb
 5500 0b72 E801     		.2byte	0x1e8
 5501 0b74 9E0A0000 		.4byte	0xa9e
 5502 0b78 02       		.byte	0x2
 5503 0b79 23       		.byte	0x23
 5504 0b7a 0C       		.uleb128 0xc
 5505 0b7b 00       		.byte	0
 5506 0b7c 0C       		.uleb128 0xc
 5507 0b7d D1020000 		.4byte	.LASF155
 5508 0b81 0B       		.byte	0xb
 5509 0b82 E901     		.2byte	0x1e9
 5510 0b84 230B0000 		.4byte	0xb23
 5511 0b88 06       		.uleb128 0x6
 5512 0b89 A81B0000 		.4byte	.LASF156
 5513 0b8d 0C       		.byte	0xc
 5514 0b8e 9A       		.byte	0x9a
 5515 0b8f 83000000 		.4byte	0x83
 5516 0b93 01       		.byte	0x1
 5517 0b94 01       		.byte	0x1
 5518 0b95 06       		.uleb128 0x6
 5519 0b96 9F040000 		.4byte	.LASF157
 5520 0b9a 0C       		.byte	0xc
 5521 0b9b 9B       		.byte	0x9b
 5522 0b9c AA000000 		.4byte	0xaa
 5523 0ba0 01       		.byte	0x1
 5524 0ba1 01       		.byte	0x1
 5525 0ba2 07       		.uleb128 0x7
 5526 0ba3 08070000 		.4byte	0x708
 5527 0ba7 B20B0000 		.4byte	0xbb2
 5528 0bab 08       		.uleb128 0x8
 5529 0bac B1000000 		.4byte	0xb1
 5530 0bb0 01       		.byte	0x1
 5531 0bb1 00       		.byte	0
 5532 0bb2 06       		.uleb128 0x6
 5533 0bb3 640F0000 		.4byte	.LASF158
 5534 0bb7 0C       		.byte	0xc
 5535 0bb8 9E       		.byte	0x9e
 5536 0bb9 A20B0000 		.4byte	0xba2
 5537 0bbd 01       		.byte	0x1
 5538 0bbe 01       		.byte	0x1
 5539 0bbf 20       		.uleb128 0x20
 5540 0bc0 07       		.byte	0x7
 5541 0bc1 01       		.byte	0x1
 5542 0bc2 4D000000 		.4byte	0x4d
 5543 0bc6 0D       		.byte	0xd
 5544 0bc7 21       		.byte	0x21
 5545 0bc8 D90B0000 		.4byte	0xbd9
 5546 0bcc 21       		.uleb128 0x21
 5547 0bcd 140D0000 		.4byte	.LASF159
 5548 0bd1 00       		.byte	0
 5549 0bd2 21       		.uleb128 0x21
 5550 0bd3 C51B0000 		.4byte	.LASF160
 5551 0bd7 01       		.byte	0x1
ARM GAS  C:\Users\EBANO_~1\AppData\Local\Temp\ccLo4wHn.s 			page 126


 5552 0bd8 00       		.byte	0
 5553 0bd9 03       		.uleb128 0x3
 5554 0bda A80D0000 		.4byte	.LASF161
 5555 0bde 0D       		.byte	0xd
 5556 0bdf 24       		.byte	0x24
 5557 0be0 BF0B0000 		.4byte	0xbbf
 5558 0be4 20       		.uleb128 0x20
 5559 0be5 07       		.byte	0x7
 5560 0be6 01       		.byte	0x1
 5561 0be7 4D000000 		.4byte	0x4d
 5562 0beb 0D       		.byte	0xd
 5563 0bec 2A       		.byte	0x2a
 5564 0bed 0A0C0000 		.4byte	0xc0a
 5565 0bf1 21       		.uleb128 0x21
 5566 0bf2 18030000 		.4byte	.LASF162
 5567 0bf6 00       		.byte	0
 5568 0bf7 21       		.uleb128 0x21
 5569 0bf8 B40F0000 		.4byte	.LASF163
 5570 0bfc 01       		.byte	0x1
 5571 0bfd 21       		.uleb128 0x21
 5572 0bfe B41A0000 		.4byte	.LASF164
 5573 0c02 02       		.byte	0x2
 5574 0c03 21       		.uleb128 0x21
 5575 0c04 58160000 		.4byte	.LASF165
 5576 0c08 03       		.byte	0x3
 5577 0c09 00       		.byte	0
 5578 0c0a 03       		.uleb128 0x3
 5579 0c0b 2B110000 		.4byte	.LASF166
 5580 0c0f 0D       		.byte	0xd
 5581 0c10 2F       		.byte	0x2f
 5582 0c11 E40B0000 		.4byte	0xbe4
 5583 0c15 0F       		.uleb128 0xf
 5584 0c16 1C       		.byte	0x1c
 5585 0c17 0D       		.byte	0xd
 5586 0c18 34       		.byte	0x34
 5587 0c19 800C0000 		.4byte	0xc80
 5588 0c1d 10       		.uleb128 0x10
 5589 0c1e 45090000 		.4byte	.LASF167
 5590 0c22 0D       		.byte	0xd
 5591 0c23 39       		.byte	0x39
 5592 0c24 EF030000 		.4byte	0x3ef
 5593 0c28 02       		.byte	0x2
 5594 0c29 23       		.byte	0x23
 5595 0c2a 00       		.uleb128 0
 5596 0c2b 10       		.uleb128 0x10
 5597 0c2c 64020000 		.4byte	.LASF168
 5598 0c30 0D       		.byte	0xd
 5599 0c31 3D       		.byte	0x3d
 5600 0c32 EF030000 		.4byte	0x3ef
 5601 0c36 02       		.byte	0x2
 5602 0c37 23       		.byte	0x23
 5603 0c38 04       		.uleb128 0x4
 5604 0c39 10       		.uleb128 0x10
 5605 0c3a F30A0000 		.4byte	.LASF169
 5606 0c3e 0D       		.byte	0xd
 5607 0c3f 48       		.byte	0x48
 5608 0c40 9B0C0000 		.4byte	0xc9b
ARM GAS  C:\Users\EBANO_~1\AppData\Local\Temp\ccLo4wHn.s 			page 127


 5609 0c44 02       		.byte	0x2
 5610 0c45 23       		.byte	0x23
 5611 0c46 08       		.uleb128 0x8
 5612 0c47 10       		.uleb128 0x10
 5613 0c48 4B020000 		.4byte	.LASF170
 5614 0c4c 0D       		.byte	0xd
 5615 0c4d 4C       		.byte	0x4c
 5616 0c4e EF030000 		.4byte	0x3ef
 5617 0c52 02       		.byte	0x2
 5618 0c53 23       		.byte	0x23
 5619 0c54 0C       		.uleb128 0xc
 5620 0c55 10       		.uleb128 0x10
 5621 0c56 34010000 		.4byte	.LASF171
 5622 0c5a 0D       		.byte	0xd
 5623 0c5b 50       		.byte	0x50
 5624 0c5c EF030000 		.4byte	0x3ef
 5625 0c60 02       		.byte	0x2
 5626 0c61 23       		.byte	0x23
 5627 0c62 10       		.uleb128 0x10
 5628 0c63 10       		.uleb128 0x10
 5629 0c64 C50E0000 		.4byte	.LASF172
 5630 0c68 0D       		.byte	0xd
 5631 0c69 56       		.byte	0x56
 5632 0c6a AD0C0000 		.4byte	0xcad
 5633 0c6e 02       		.byte	0x2
 5634 0c6f 23       		.byte	0x23
 5635 0c70 14       		.uleb128 0x14
 5636 0c71 10       		.uleb128 0x10
 5637 0c72 C71E0000 		.4byte	.LASF173
 5638 0c76 0D       		.byte	0xd
 5639 0c77 5D       		.byte	0x5d
 5640 0c78 BF0C0000 		.4byte	0xcbf
 5641 0c7c 02       		.byte	0x2
 5642 0c7d 23       		.byte	0x23
 5643 0c7e 18       		.uleb128 0x18
 5644 0c7f 00       		.byte	0
 5645 0c80 1D       		.uleb128 0x1d
 5646 0c81 01       		.byte	0x1
 5647 0c82 9B0C0000 		.4byte	0xc9b
 5648 0c86 16       		.uleb128 0x16
 5649 0c87 8B0A0000 		.4byte	0xa8b
 5650 0c8b 16       		.uleb128 0x16
 5651 0c8c DE000000 		.4byte	0xde
 5652 0c90 16       		.uleb128 0x16
 5653 0c91 D3000000 		.4byte	0xd3
 5654 0c95 16       		.uleb128 0x16
 5655 0c96 B8000000 		.4byte	0xb8
 5656 0c9a 00       		.byte	0
 5657 0c9b 0A       		.uleb128 0xa
 5658 0c9c 04       		.byte	0x4
 5659 0c9d 800C0000 		.4byte	0xc80
 5660 0ca1 1D       		.uleb128 0x1d
 5661 0ca2 01       		.byte	0x1
 5662 0ca3 AD0C0000 		.4byte	0xcad
 5663 0ca7 16       		.uleb128 0x16
 5664 0ca8 C3000000 		.4byte	0xc3
 5665 0cac 00       		.byte	0
ARM GAS  C:\Users\EBANO_~1\AppData\Local\Temp\ccLo4wHn.s 			page 128


 5666 0cad 0A       		.uleb128 0xa
 5667 0cae 04       		.byte	0x4
 5668 0caf A10C0000 		.4byte	0xca1
 5669 0cb3 1D       		.uleb128 0x1d
 5670 0cb4 01       		.byte	0x1
 5671 0cb5 BF0C0000 		.4byte	0xcbf
 5672 0cb9 16       		.uleb128 0x16
 5673 0cba 1C0B0000 		.4byte	0xb1c
 5674 0cbe 00       		.byte	0
 5675 0cbf 0A       		.uleb128 0xa
 5676 0cc0 04       		.byte	0x4
 5677 0cc1 B30C0000 		.4byte	0xcb3
 5678 0cc5 03       		.uleb128 0x3
 5679 0cc6 031E0000 		.4byte	.LASF174
 5680 0cca 0D       		.byte	0xd
 5681 0ccb 5E       		.byte	0x5e
 5682 0ccc 150C0000 		.4byte	0xc15
 5683 0cd0 11       		.uleb128 0x11
 5684 0cd1 B5030000 		.4byte	.LASF175
 5685 0cd5 74       		.byte	0x74
 5686 0cd6 0D       		.byte	0xd
 5687 0cd7 63       		.byte	0x63
 5688 0cd8 840E0000 		.4byte	0xe84
 5689 0cdc 10       		.uleb128 0x10
 5690 0cdd EE120000 		.4byte	.LASF176
 5691 0ce1 0D       		.byte	0xd
 5692 0ce2 68       		.byte	0x68
 5693 0ce3 EF030000 		.4byte	0x3ef
 5694 0ce7 02       		.byte	0x2
 5695 0ce8 23       		.byte	0x23
 5696 0ce9 00       		.uleb128 0
 5697 0cea 10       		.uleb128 0x10
 5698 0ceb D9080000 		.4byte	.LASF177
 5699 0cef 0D       		.byte	0xd
 5700 0cf0 6C       		.byte	0x6c
 5701 0cf1 EF030000 		.4byte	0x3ef
 5702 0cf5 02       		.byte	0x2
 5703 0cf6 23       		.byte	0x23
 5704 0cf7 04       		.uleb128 0x4
 5705 0cf8 10       		.uleb128 0x10
 5706 0cf9 541C0000 		.4byte	.LASF178
 5707 0cfd 0D       		.byte	0xd
 5708 0cfe 73       		.byte	0x73
 5709 0cff 9F0E0000 		.4byte	0xe9f
 5710 0d03 02       		.byte	0x2
 5711 0d04 23       		.byte	0x23
 5712 0d05 08       		.uleb128 0x8
 5713 0d06 10       		.uleb128 0x10
 5714 0d07 23100000 		.4byte	.LASF179
 5715 0d0b 0D       		.byte	0xd
 5716 0d0c 79       		.byte	0x79
 5717 0d0d AB0E0000 		.4byte	0xeab
 5718 0d11 02       		.byte	0x2
 5719 0d12 23       		.byte	0x23
 5720 0d13 0C       		.uleb128 0xc
 5721 0d14 10       		.uleb128 0x10
 5722 0d15 E2080000 		.4byte	.LASF180
ARM GAS  C:\Users\EBANO_~1\AppData\Local\Temp\ccLo4wHn.s 			page 129


 5723 0d19 0D       		.byte	0xd
 5724 0d1a 7F       		.byte	0x7f
 5725 0d1b BD0E0000 		.4byte	0xebd
 5726 0d1f 02       		.byte	0x2
 5727 0d20 23       		.byte	0x23
 5728 0d21 10       		.uleb128 0x10
 5729 0d22 10       		.uleb128 0x10
 5730 0d23 A1170000 		.4byte	.LASF181
 5731 0d27 0D       		.byte	0xd
 5732 0d28 85       		.byte	0x85
 5733 0d29 CF0E0000 		.4byte	0xecf
 5734 0d2d 02       		.byte	0x2
 5735 0d2e 23       		.byte	0x23
 5736 0d2f 14       		.uleb128 0x14
 5737 0d30 10       		.uleb128 0x10
 5738 0d31 18160000 		.4byte	.LASF182
 5739 0d35 0D       		.byte	0xd
 5740 0d36 90       		.byte	0x90
 5741 0d37 F40E0000 		.4byte	0xef4
 5742 0d3b 02       		.byte	0x2
 5743 0d3c 23       		.byte	0x23
 5744 0d3d 18       		.uleb128 0x18
 5745 0d3e 10       		.uleb128 0x10
 5746 0d3f 230B0000 		.4byte	.LASF183
 5747 0d43 0D       		.byte	0xd
 5748 0d44 9B       		.byte	0x9b
 5749 0d45 000F0000 		.4byte	0xf00
 5750 0d49 02       		.byte	0x2
 5751 0d4a 23       		.byte	0x23
 5752 0d4b 1C       		.uleb128 0x1c
 5753 0d4c 10       		.uleb128 0x10
 5754 0d4d 37210000 		.4byte	.LASF184
 5755 0d51 0D       		.byte	0xd
 5756 0d52 C3       		.byte	0xc3
 5757 0d53 530F0000 		.4byte	0xf53
 5758 0d57 02       		.byte	0x2
 5759 0d58 23       		.byte	0x23
 5760 0d59 20       		.uleb128 0x20
 5761 0d5a 10       		.uleb128 0x10
 5762 0d5b 44100000 		.4byte	.LASF185
 5763 0d5f 0D       		.byte	0xd
 5764 0d60 ED       		.byte	0xed
 5765 0d61 A10F0000 		.4byte	0xfa1
 5766 0d65 02       		.byte	0x2
 5767 0d66 23       		.byte	0x23
 5768 0d67 24       		.uleb128 0x24
 5769 0d68 10       		.uleb128 0x10
 5770 0d69 08120000 		.4byte	.LASF186
 5771 0d6d 0D       		.byte	0xd
 5772 0d6e F8       		.byte	0xf8
 5773 0d6f B70F0000 		.4byte	0xfb7
 5774 0d73 02       		.byte	0x2
 5775 0d74 23       		.byte	0x23
 5776 0d75 28       		.uleb128 0x28
 5777 0d76 18       		.uleb128 0x18
 5778 0d77 5B130000 		.4byte	.LASF187
 5779 0d7b 0D       		.byte	0xd
ARM GAS  C:\Users\EBANO_~1\AppData\Local\Temp\ccLo4wHn.s 			page 130


 5780 0d7c 0301     		.2byte	0x103
 5781 0d7e D20F0000 		.4byte	0xfd2
 5782 0d82 02       		.byte	0x2
 5783 0d83 23       		.byte	0x23
 5784 0d84 2C       		.uleb128 0x2c
 5785 0d85 18       		.uleb128 0x18
 5786 0d86 8D1D0000 		.4byte	.LASF188
 5787 0d8a 0D       		.byte	0xd
 5788 0d8b 0B01     		.2byte	0x10b
 5789 0d8d E90F0000 		.4byte	0xfe9
 5790 0d91 02       		.byte	0x2
 5791 0d92 23       		.byte	0x23
 5792 0d93 30       		.uleb128 0x30
 5793 0d94 18       		.uleb128 0x18
 5794 0d95 5A0D0000 		.4byte	.LASF189
 5795 0d99 0D       		.byte	0xd
 5796 0d9a 0F01     		.2byte	0x10f
 5797 0d9c EF030000 		.4byte	0x3ef
 5798 0da0 02       		.byte	0x2
 5799 0da1 23       		.byte	0x23
 5800 0da2 34       		.uleb128 0x34
 5801 0da3 18       		.uleb128 0x18
 5802 0da4 0E050000 		.4byte	.LASF190
 5803 0da8 0D       		.byte	0xd
 5804 0da9 1301     		.2byte	0x113
 5805 0dab EF030000 		.4byte	0x3ef
 5806 0daf 02       		.byte	0x2
 5807 0db0 23       		.byte	0x23
 5808 0db1 38       		.uleb128 0x38
 5809 0db2 22       		.uleb128 0x22
 5810 0db3 527800   		.ascii	"Rx\000"
 5811 0db6 0D       		.byte	0xd
 5812 0db7 1901     		.2byte	0x119
 5813 0db9 CF0E0000 		.4byte	0xecf
 5814 0dbd 02       		.byte	0x2
 5815 0dbe 23       		.byte	0x23
 5816 0dbf 3C       		.uleb128 0x3c
 5817 0dc0 18       		.uleb128 0x18
 5818 0dc1 5A0A0000 		.4byte	.LASF191
 5819 0dc5 0D       		.byte	0xd
 5820 0dc6 1D01     		.2byte	0x11d
 5821 0dc8 EF030000 		.4byte	0x3ef
 5822 0dcc 02       		.byte	0x2
 5823 0dcd 23       		.byte	0x23
 5824 0dce 40       		.uleb128 0x40
 5825 0dcf 18       		.uleb128 0x18
 5826 0dd0 64150000 		.4byte	.LASF192
 5827 0dd4 0D       		.byte	0xd
 5828 0dd5 2501     		.2byte	0x125
 5829 0dd7 05100000 		.4byte	0x1005
 5830 0ddb 02       		.byte	0x2
 5831 0ddc 23       		.byte	0x23
 5832 0ddd 44       		.uleb128 0x44
 5833 0dde 18       		.uleb128 0x18
 5834 0ddf C01B0000 		.4byte	.LASF193
 5835 0de3 0D       		.byte	0xd
 5836 0de4 2B01     		.2byte	0x12b
ARM GAS  C:\Users\EBANO_~1\AppData\Local\Temp\ccLo4wHn.s 			page 131


 5837 0de6 1B100000 		.4byte	0x101b
 5838 0dea 02       		.byte	0x2
 5839 0deb 23       		.byte	0x23
 5840 0dec 48       		.uleb128 0x48
 5841 0ded 18       		.uleb128 0x18
 5842 0dee 2D050000 		.4byte	.LASF194
 5843 0df2 0D       		.byte	0xd
 5844 0df3 3201     		.2byte	0x132
 5845 0df5 32100000 		.4byte	0x1032
 5846 0df9 02       		.byte	0x2
 5847 0dfa 23       		.byte	0x23
 5848 0dfb 4C       		.uleb128 0x4c
 5849 0dfc 18       		.uleb128 0x18
 5850 0dfd 6F050000 		.4byte	.LASF195
 5851 0e01 0D       		.byte	0xd
 5852 0e02 3901     		.2byte	0x139
 5853 0e04 48100000 		.4byte	0x1048
 5854 0e08 02       		.byte	0x2
 5855 0e09 23       		.byte	0x23
 5856 0e0a 50       		.uleb128 0x50
 5857 0e0b 18       		.uleb128 0x18
 5858 0e0c 28010000 		.4byte	.LASF196
 5859 0e10 0D       		.byte	0xd
 5860 0e11 4101     		.2byte	0x141
 5861 0e13 64100000 		.4byte	0x1064
 5862 0e17 02       		.byte	0x2
 5863 0e18 23       		.byte	0x23
 5864 0e19 54       		.uleb128 0x54
 5865 0e1a 18       		.uleb128 0x18
 5866 0e1b 5D010000 		.4byte	.LASF197
 5867 0e1f 0D       		.byte	0xd
 5868 0e20 4901     		.2byte	0x149
 5869 0e22 64100000 		.4byte	0x1064
 5870 0e26 02       		.byte	0x2
 5871 0e27 23       		.byte	0x23
 5872 0e28 58       		.uleb128 0x58
 5873 0e29 18       		.uleb128 0x18
 5874 0e2a 6A040000 		.4byte	.LASF198
 5875 0e2e 0D       		.byte	0xd
 5876 0e2f 5001     		.2byte	0x150
 5877 0e31 7B100000 		.4byte	0x107b
 5878 0e35 02       		.byte	0x2
 5879 0e36 23       		.byte	0x23
 5880 0e37 5C       		.uleb128 0x5c
 5881 0e38 18       		.uleb128 0x18
 5882 0e39 2D160000 		.4byte	.LASF199
 5883 0e3d 0D       		.byte	0xd
 5884 0e3e 5801     		.2byte	0x158
 5885 0e40 BF0C0000 		.4byte	0xcbf
 5886 0e44 02       		.byte	0x2
 5887 0e45 23       		.byte	0x23
 5888 0e46 60       		.uleb128 0x60
 5889 0e47 18       		.uleb128 0x18
 5890 0e48 901F0000 		.4byte	.LASF200
 5891 0e4c 0D       		.byte	0xd
 5892 0e4d 5E01     		.2byte	0x15e
 5893 0e4f 000F0000 		.4byte	0xf00
ARM GAS  C:\Users\EBANO_~1\AppData\Local\Temp\ccLo4wHn.s 			page 132


 5894 0e53 02       		.byte	0x2
 5895 0e54 23       		.byte	0x23
 5896 0e55 64       		.uleb128 0x64
 5897 0e56 18       		.uleb128 0x18
 5898 0e57 99160000 		.4byte	.LASF201
 5899 0e5b 0D       		.byte	0xd
 5900 0e5c 6201     		.2byte	0x162
 5901 0e5e EF030000 		.4byte	0x3ef
 5902 0e62 02       		.byte	0x2
 5903 0e63 23       		.byte	0x23
 5904 0e64 68       		.uleb128 0x68
 5905 0e65 18       		.uleb128 0x18
 5906 0e66 00060000 		.4byte	.LASF202
 5907 0e6a 0D       		.byte	0xd
 5908 0e6b 6E01     		.2byte	0x16e
 5909 0e6d CF0E0000 		.4byte	0xecf
 5910 0e71 02       		.byte	0x2
 5911 0e72 23       		.byte	0x23
 5912 0e73 6C       		.uleb128 0x6c
 5913 0e74 18       		.uleb128 0x18
 5914 0e75 D60C0000 		.4byte	.LASF203
 5915 0e79 0D       		.byte	0xd
 5916 0e7a 7701     		.2byte	0x177
 5917 0e7c 92100000 		.4byte	0x1092
 5918 0e80 02       		.byte	0x2
 5919 0e81 23       		.byte	0x23
 5920 0e82 70       		.uleb128 0x70
 5921 0e83 00       		.byte	0
 5922 0e84 05       		.uleb128 0x5
 5923 0e85 D00C0000 		.4byte	0xcd0
 5924 0e89 15       		.uleb128 0x15
 5925 0e8a 01       		.byte	0x1
 5926 0e8b F4000000 		.4byte	0xf4
 5927 0e8f 990E0000 		.4byte	0xe99
 5928 0e93 16       		.uleb128 0x16
 5929 0e94 990E0000 		.4byte	0xe99
 5930 0e98 00       		.byte	0
 5931 0e99 0A       		.uleb128 0xa
 5932 0e9a 04       		.byte	0x4
 5933 0e9b C50C0000 		.4byte	0xcc5
 5934 0e9f 0A       		.uleb128 0xa
 5935 0ea0 04       		.byte	0x4
 5936 0ea1 890E0000 		.4byte	0xe89
 5937 0ea5 23       		.uleb128 0x23
 5938 0ea6 01       		.byte	0x1
 5939 0ea7 0A0C0000 		.4byte	0xc0a
 5940 0eab 0A       		.uleb128 0xa
 5941 0eac 04       		.byte	0x4
 5942 0ead A50E0000 		.4byte	0xea5
 5943 0eb1 1D       		.uleb128 0x1d
 5944 0eb2 01       		.byte	0x1
 5945 0eb3 BD0E0000 		.4byte	0xebd
 5946 0eb7 16       		.uleb128 0x16
 5947 0eb8 D90B0000 		.4byte	0xbd9
 5948 0ebc 00       		.byte	0
 5949 0ebd 0A       		.uleb128 0xa
 5950 0ebe 04       		.byte	0x4
ARM GAS  C:\Users\EBANO_~1\AppData\Local\Temp\ccLo4wHn.s 			page 133


 5951 0ebf B10E0000 		.4byte	0xeb1
 5952 0ec3 1D       		.uleb128 0x1d
 5953 0ec4 01       		.byte	0x1
 5954 0ec5 CF0E0000 		.4byte	0xecf
 5955 0ec9 16       		.uleb128 0x16
 5956 0eca F4000000 		.4byte	0xf4
 5957 0ece 00       		.byte	0
 5958 0ecf 0A       		.uleb128 0xa
 5959 0ed0 04       		.byte	0x4
 5960 0ed1 C30E0000 		.4byte	0xec3
 5961 0ed5 15       		.uleb128 0x15
 5962 0ed6 01       		.byte	0x1
 5963 0ed7 1C0B0000 		.4byte	0xb1c
 5964 0edb F40E0000 		.4byte	0xef4
 5965 0edf 16       		.uleb128 0x16
 5966 0ee0 D90B0000 		.4byte	0xbd9
 5967 0ee4 16       		.uleb128 0x16
 5968 0ee5 F4000000 		.4byte	0xf4
 5969 0ee9 16       		.uleb128 0x16
 5970 0eea D3000000 		.4byte	0xd3
 5971 0eee 16       		.uleb128 0x16
 5972 0eef F4000000 		.4byte	0xf4
 5973 0ef3 00       		.byte	0
 5974 0ef4 0A       		.uleb128 0xa
 5975 0ef5 04       		.byte	0x4
 5976 0ef6 D50E0000 		.4byte	0xed5
 5977 0efa 23       		.uleb128 0x23
 5978 0efb 01       		.byte	0x1
 5979 0efc F4000000 		.4byte	0xf4
 5980 0f00 0A       		.uleb128 0xa
 5981 0f01 04       		.byte	0x4
 5982 0f02 FA0E0000 		.4byte	0xefa
 5983 0f06 1D       		.uleb128 0x1d
 5984 0f07 01       		.byte	0x1
 5985 0f08 530F0000 		.4byte	0xf53
 5986 0f0c 16       		.uleb128 0x16
 5987 0f0d D90B0000 		.4byte	0xbd9
 5988 0f11 16       		.uleb128 0x16
 5989 0f12 F4000000 		.4byte	0xf4
 5990 0f16 16       		.uleb128 0x16
 5991 0f17 F4000000 		.4byte	0xf4
 5992 0f1b 16       		.uleb128 0x16
 5993 0f1c C3000000 		.4byte	0xc3
 5994 0f20 16       		.uleb128 0x16
 5995 0f21 F4000000 		.4byte	0xf4
 5996 0f25 16       		.uleb128 0x16
 5997 0f26 DE000000 		.4byte	0xde
 5998 0f2a 16       		.uleb128 0x16
 5999 0f2b DE000000 		.4byte	0xde
 6000 0f2f 16       		.uleb128 0x16
 6001 0f30 1C0B0000 		.4byte	0xb1c
 6002 0f34 16       		.uleb128 0x16
 6003 0f35 C3000000 		.4byte	0xc3
 6004 0f39 16       		.uleb128 0x16
 6005 0f3a 1C0B0000 		.4byte	0xb1c
 6006 0f3e 16       		.uleb128 0x16
 6007 0f3f 1C0B0000 		.4byte	0xb1c
ARM GAS  C:\Users\EBANO_~1\AppData\Local\Temp\ccLo4wHn.s 			page 134


 6008 0f43 16       		.uleb128 0x16
 6009 0f44 C3000000 		.4byte	0xc3
 6010 0f48 16       		.uleb128 0x16
 6011 0f49 1C0B0000 		.4byte	0xb1c
 6012 0f4d 16       		.uleb128 0x16
 6013 0f4e 1C0B0000 		.4byte	0xb1c
 6014 0f52 00       		.byte	0
 6015 0f53 0A       		.uleb128 0xa
 6016 0f54 04       		.byte	0x4
 6017 0f55 060F0000 		.4byte	0xf06
 6018 0f59 1D       		.uleb128 0x1d
 6019 0f5a 01       		.byte	0x1
 6020 0f5b A10F0000 		.4byte	0xfa1
 6021 0f5f 16       		.uleb128 0x16
 6022 0f60 D90B0000 		.4byte	0xbd9
 6023 0f64 16       		.uleb128 0x16
 6024 0f65 B8000000 		.4byte	0xb8
 6025 0f69 16       		.uleb128 0x16
 6026 0f6a F4000000 		.4byte	0xf4
 6027 0f6e 16       		.uleb128 0x16
 6028 0f6f F4000000 		.4byte	0xf4
 6029 0f73 16       		.uleb128 0x16
 6030 0f74 F4000000 		.4byte	0xf4
 6031 0f78 16       		.uleb128 0x16
 6032 0f79 C3000000 		.4byte	0xc3
 6033 0f7d 16       		.uleb128 0x16
 6034 0f7e DE000000 		.4byte	0xde
 6035 0f82 16       		.uleb128 0x16
 6036 0f83 1C0B0000 		.4byte	0xb1c
 6037 0f87 16       		.uleb128 0x16
 6038 0f88 1C0B0000 		.4byte	0xb1c
 6039 0f8c 16       		.uleb128 0x16
 6040 0f8d 1C0B0000 		.4byte	0xb1c
 6041 0f91 16       		.uleb128 0x16
 6042 0f92 C3000000 		.4byte	0xc3
 6043 0f96 16       		.uleb128 0x16
 6044 0f97 1C0B0000 		.4byte	0xb1c
 6045 0f9b 16       		.uleb128 0x16
 6046 0f9c F4000000 		.4byte	0xf4
 6047 0fa0 00       		.byte	0
 6048 0fa1 0A       		.uleb128 0xa
 6049 0fa2 04       		.byte	0x4
 6050 0fa3 590F0000 		.4byte	0xf59
 6051 0fa7 15       		.uleb128 0x15
 6052 0fa8 01       		.byte	0x1
 6053 0fa9 1C0B0000 		.4byte	0xb1c
 6054 0fad B70F0000 		.4byte	0xfb7
 6055 0fb1 16       		.uleb128 0x16
 6056 0fb2 F4000000 		.4byte	0xf4
 6057 0fb6 00       		.byte	0
 6058 0fb7 0A       		.uleb128 0xa
 6059 0fb8 04       		.byte	0x4
 6060 0fb9 A70F0000 		.4byte	0xfa7
 6061 0fbd 15       		.uleb128 0x15
 6062 0fbe 01       		.byte	0x1
 6063 0fbf F4000000 		.4byte	0xf4
 6064 0fc3 D20F0000 		.4byte	0xfd2
ARM GAS  C:\Users\EBANO_~1\AppData\Local\Temp\ccLo4wHn.s 			page 135


 6065 0fc7 16       		.uleb128 0x16
 6066 0fc8 D90B0000 		.4byte	0xbd9
 6067 0fcc 16       		.uleb128 0x16
 6068 0fcd C3000000 		.4byte	0xc3
 6069 0fd1 00       		.byte	0
 6070 0fd2 0A       		.uleb128 0xa
 6071 0fd3 04       		.byte	0x4
 6072 0fd4 BD0F0000 		.4byte	0xfbd
 6073 0fd8 1D       		.uleb128 0x1d
 6074 0fd9 01       		.byte	0x1
 6075 0fda E90F0000 		.4byte	0xfe9
 6076 0fde 16       		.uleb128 0x16
 6077 0fdf 8B0A0000 		.4byte	0xa8b
 6078 0fe3 16       		.uleb128 0x16
 6079 0fe4 C3000000 		.4byte	0xc3
 6080 0fe8 00       		.byte	0
 6081 0fe9 0A       		.uleb128 0xa
 6082 0fea 04       		.byte	0x4
 6083 0feb D80F0000 		.4byte	0xfd8
 6084 0fef 1D       		.uleb128 0x1d
 6085 0ff0 01       		.byte	0x1
 6086 0ff1 05100000 		.4byte	0x1005
 6087 0ff5 16       		.uleb128 0x16
 6088 0ff6 F4000000 		.4byte	0xf4
 6089 0ffa 16       		.uleb128 0x16
 6090 0ffb B8000000 		.4byte	0xb8
 6091 0fff 16       		.uleb128 0x16
 6092 1000 DE000000 		.4byte	0xde
 6093 1004 00       		.byte	0
 6094 1005 0A       		.uleb128 0xa
 6095 1006 04       		.byte	0x4
 6096 1007 EF0F0000 		.4byte	0xfef
 6097 100b 15       		.uleb128 0x15
 6098 100c 01       		.byte	0x1
 6099 100d D3000000 		.4byte	0xd3
 6100 1011 1B100000 		.4byte	0x101b
 6101 1015 16       		.uleb128 0x16
 6102 1016 D90B0000 		.4byte	0xbd9
 6103 101a 00       		.byte	0
 6104 101b 0A       		.uleb128 0xa
 6105 101c 04       		.byte	0x4
 6106 101d 0B100000 		.4byte	0x100b
 6107 1021 1D       		.uleb128 0x1d
 6108 1022 01       		.byte	0x1
 6109 1023 32100000 		.4byte	0x1032
 6110 1027 16       		.uleb128 0x16
 6111 1028 DE000000 		.4byte	0xde
 6112 102c 16       		.uleb128 0x16
 6113 102d C3000000 		.4byte	0xc3
 6114 1031 00       		.byte	0
 6115 1032 0A       		.uleb128 0xa
 6116 1033 04       		.byte	0x4
 6117 1034 21100000 		.4byte	0x1021
 6118 1038 15       		.uleb128 0x15
 6119 1039 01       		.byte	0x1
 6120 103a C3000000 		.4byte	0xc3
 6121 103e 48100000 		.4byte	0x1048
ARM GAS  C:\Users\EBANO_~1\AppData\Local\Temp\ccLo4wHn.s 			page 136


 6122 1042 16       		.uleb128 0x16
 6123 1043 DE000000 		.4byte	0xde
 6124 1047 00       		.byte	0
 6125 1048 0A       		.uleb128 0xa
 6126 1049 04       		.byte	0x4
 6127 104a 38100000 		.4byte	0x1038
 6128 104e 1D       		.uleb128 0x1d
 6129 104f 01       		.byte	0x1
 6130 1050 64100000 		.4byte	0x1064
 6131 1054 16       		.uleb128 0x16
 6132 1055 DE000000 		.4byte	0xde
 6133 1059 16       		.uleb128 0x16
 6134 105a 8B0A0000 		.4byte	0xa8b
 6135 105e 16       		.uleb128 0x16
 6136 105f C3000000 		.4byte	0xc3
 6137 1063 00       		.byte	0
 6138 1064 0A       		.uleb128 0xa
 6139 1065 04       		.byte	0x4
 6140 1066 4E100000 		.4byte	0x104e
 6141 106a 1D       		.uleb128 0x1d
 6142 106b 01       		.byte	0x1
 6143 106c 7B100000 		.4byte	0x107b
 6144 1070 16       		.uleb128 0x16
 6145 1071 D90B0000 		.4byte	0xbd9
 6146 1075 16       		.uleb128 0x16
 6147 1076 C3000000 		.4byte	0xc3
 6148 107a 00       		.byte	0
 6149 107b 0A       		.uleb128 0xa
 6150 107c 04       		.byte	0x4
 6151 107d 6A100000 		.4byte	0x106a
 6152 1081 1D       		.uleb128 0x1d
 6153 1082 01       		.byte	0x1
 6154 1083 92100000 		.4byte	0x1092
 6155 1087 16       		.uleb128 0x16
 6156 1088 F4000000 		.4byte	0xf4
 6157 108c 16       		.uleb128 0x16
 6158 108d F4000000 		.4byte	0xf4
 6159 1091 00       		.byte	0
 6160 1092 0A       		.uleb128 0xa
 6161 1093 04       		.byte	0x4
 6162 1094 81100000 		.4byte	0x1081
 6163 1098 1E       		.uleb128 0x1e
 6164 1099 9D090000 		.4byte	.LASF204
 6165 109d 0D       		.byte	0xd
 6166 109e 8001     		.2byte	0x180
 6167 10a0 840E0000 		.4byte	0xe84
 6168 10a4 01       		.byte	0x1
 6169 10a5 01       		.byte	0x1
 6170 10a6 11       		.uleb128 0x11
 6171 10a7 621F0000 		.4byte	.LASF205
 6172 10ab 01       		.byte	0x1
 6173 10ac 0E       		.byte	0xe
 6174 10ad B4       		.byte	0xb4
 6175 10ae D5100000 		.4byte	0x10d5
 6176 10b2 24       		.uleb128 0x24
 6177 10b3 4D696E00 		.ascii	"Min\000"
 6178 10b7 0E       		.byte	0xe
ARM GAS  C:\Users\EBANO_~1\AppData\Local\Temp\ccLo4wHn.s 			page 137


 6179 10b8 BD       		.byte	0xbd
 6180 10b9 B8000000 		.4byte	0xb8
 6181 10bd 01       		.byte	0x1
 6182 10be 04       		.byte	0x4
 6183 10bf 04       		.byte	0x4
 6184 10c0 02       		.byte	0x2
 6185 10c1 23       		.byte	0x23
 6186 10c2 00       		.uleb128 0
 6187 10c3 24       		.uleb128 0x24
 6188 10c4 4D617800 		.ascii	"Max\000"
 6189 10c8 0E       		.byte	0xe
 6190 10c9 C5       		.byte	0xc5
 6191 10ca B8000000 		.4byte	0xb8
 6192 10ce 01       		.byte	0x1
 6193 10cf 04       		.byte	0x4
 6194 10d0 00       		.byte	0
 6195 10d1 02       		.byte	0x2
 6196 10d2 23       		.byte	0x23
 6197 10d3 00       		.uleb128 0
 6198 10d4 00       		.byte	0
 6199 10d5 1F       		.uleb128 0x1f
 6200 10d6 6F090000 		.4byte	.LASF207
 6201 10da 01       		.byte	0x1
 6202 10db 0E       		.byte	0xe
 6203 10dc AB       		.byte	0xab
 6204 10dd F8100000 		.4byte	0x10f8
 6205 10e1 0E       		.uleb128 0xe
 6206 10e2 A8200000 		.4byte	.LASF146
 6207 10e6 0E       		.byte	0xe
 6208 10e7 B0       		.byte	0xb0
 6209 10e8 B8000000 		.4byte	0xb8
 6210 10ec 0E       		.uleb128 0xe
 6211 10ed DC110000 		.4byte	.LASF145
 6212 10f1 0E       		.byte	0xe
 6213 10f2 C6       		.byte	0xc6
 6214 10f3 A6100000 		.4byte	0x10a6
 6215 10f7 00       		.byte	0
 6216 10f8 03       		.uleb128 0x3
 6217 10f9 B1070000 		.4byte	.LASF208
 6218 10fd 0E       		.byte	0xe
 6219 10fe C7       		.byte	0xc7
 6220 10ff D5100000 		.4byte	0x10d5
 6221 1103 11       		.uleb128 0x11
 6222 1104 94190000 		.4byte	.LASF209
 6223 1108 0C       		.byte	0xc
 6224 1109 0E       		.byte	0xe
 6225 110a CC       		.byte	0xcc
 6226 110b 48110000 		.4byte	0x1148
 6227 110f 10       		.uleb128 0x10
 6228 1110 CD1C0000 		.4byte	.LASF210
 6229 1114 0E       		.byte	0xe
 6230 1115 D1       		.byte	0xd1
 6231 1116 F4000000 		.4byte	0xf4
 6232 111a 02       		.byte	0x2
 6233 111b 23       		.byte	0x23
 6234 111c 00       		.uleb128 0
 6235 111d 10       		.uleb128 0x10
ARM GAS  C:\Users\EBANO_~1\AppData\Local\Temp\ccLo4wHn.s 			page 138


 6236 111e 3E120000 		.4byte	.LASF211
 6237 1122 0E       		.byte	0xe
 6238 1123 D5       		.byte	0xd5
 6239 1124 F4000000 		.4byte	0xf4
 6240 1128 02       		.byte	0x2
 6241 1129 23       		.byte	0x23
 6242 112a 04       		.uleb128 0x4
 6243 112b 10       		.uleb128 0x10
 6244 112c CF050000 		.4byte	.LASF212
 6245 1130 0E       		.byte	0xe
 6246 1131 D9       		.byte	0xd9
 6247 1132 F8100000 		.4byte	0x10f8
 6248 1136 02       		.byte	0x2
 6249 1137 23       		.byte	0x23
 6250 1138 08       		.uleb128 0x8
 6251 1139 10       		.uleb128 0x10
 6252 113a 78090000 		.4byte	.LASF213
 6253 113e 0E       		.byte	0xe
 6254 113f DD       		.byte	0xdd
 6255 1140 C3000000 		.4byte	0xc3
 6256 1144 02       		.byte	0x2
 6257 1145 23       		.byte	0x23
 6258 1146 09       		.uleb128 0x9
 6259 1147 00       		.byte	0
 6260 1148 03       		.uleb128 0x3
 6261 1149 50100000 		.4byte	.LASF214
 6262 114d 0E       		.byte	0xe
 6263 114e DE       		.byte	0xde
 6264 114f 03110000 		.4byte	0x1103
 6265 1153 25       		.uleb128 0x25
 6266 1154 460C0000 		.4byte	.LASF221
 6267 1158 07       		.byte	0x7
 6268 1159 01       		.byte	0x1
 6269 115a 4D000000 		.4byte	0x4d
 6270 115e 0E       		.byte	0xe
 6271 115f F6       		.byte	0xf6
 6272 1160 83110000 		.4byte	0x1183
 6273 1164 21       		.uleb128 0x21
 6274 1165 29190000 		.4byte	.LASF215
 6275 1169 00       		.byte	0
 6276 116a 21       		.uleb128 0x21
 6277 116b 37190000 		.4byte	.LASF216
 6278 116f 01       		.byte	0x1
 6279 1170 21       		.uleb128 0x21
 6280 1171 00000000 		.4byte	.LASF217
 6281 1175 02       		.byte	0x2
 6282 1176 21       		.uleb128 0x21
 6283 1177 FE1F0000 		.4byte	.LASF218
 6284 117b 03       		.byte	0x3
 6285 117c 21       		.uleb128 0x21
 6286 117d A90C0000 		.4byte	.LASF219
 6287 1181 04       		.byte	0x4
 6288 1182 00       		.byte	0
 6289 1183 0C       		.uleb128 0xc
 6290 1184 A40F0000 		.4byte	.LASF220
 6291 1188 0E       		.byte	0xe
 6292 1189 0C01     		.2byte	0x10c
ARM GAS  C:\Users\EBANO_~1\AppData\Local\Temp\ccLo4wHn.s 			page 139


 6293 118b 53110000 		.4byte	0x1153
 6294 118f 0A       		.uleb128 0xa
 6295 1190 04       		.byte	0x4
 6296 1191 48110000 		.4byte	0x1148
 6297 1195 0A       		.uleb128 0xa
 6298 1196 04       		.byte	0x4
 6299 1197 DE000000 		.4byte	0xde
 6300 119b 26       		.uleb128 0x26
 6301 119c B5040000 		.4byte	.LASF222
 6302 11a0 07       		.byte	0x7
 6303 11a1 01       		.byte	0x1
 6304 11a2 4D000000 		.4byte	0x4d
 6305 11a6 0E       		.byte	0xe
 6306 11a7 2508     		.2byte	0x825
 6307 11a9 38120000 		.4byte	0x1238
 6308 11ad 21       		.uleb128 0x21
 6309 11ae D7170000 		.4byte	.LASF223
 6310 11b2 00       		.byte	0
 6311 11b3 21       		.uleb128 0x21
 6312 11b4 60100000 		.4byte	.LASF224
 6313 11b8 01       		.byte	0x1
 6314 11b9 21       		.uleb128 0x21
 6315 11ba AE200000 		.4byte	.LASF225
 6316 11be 02       		.byte	0x2
 6317 11bf 21       		.uleb128 0x21
 6318 11c0 02090000 		.4byte	.LASF226
 6319 11c4 03       		.byte	0x3
 6320 11c5 21       		.uleb128 0x21
 6321 11c6 25170000 		.4byte	.LASF227
 6322 11ca 04       		.byte	0x4
 6323 11cb 21       		.uleb128 0x21
 6324 11cc D71E0000 		.4byte	.LASF228
 6325 11d0 05       		.byte	0x5
 6326 11d1 21       		.uleb128 0x21
 6327 11d2 641E0000 		.4byte	.LASF229
 6328 11d6 06       		.byte	0x6
 6329 11d7 21       		.uleb128 0x21
 6330 11d8 A8010000 		.4byte	.LASF230
 6331 11dc 07       		.byte	0x7
 6332 11dd 21       		.uleb128 0x21
 6333 11de 50070000 		.4byte	.LASF231
 6334 11e2 08       		.byte	0x8
 6335 11e3 21       		.uleb128 0x21
 6336 11e4 800F0000 		.4byte	.LASF232
 6337 11e8 09       		.byte	0x9
 6338 11e9 21       		.uleb128 0x21
 6339 11ea DE200000 		.4byte	.LASF233
 6340 11ee 0A       		.byte	0xa
 6341 11ef 21       		.uleb128 0x21
 6342 11f0 DB040000 		.4byte	.LASF234
 6343 11f4 0B       		.byte	0xb
 6344 11f5 21       		.uleb128 0x21
 6345 11f6 751A0000 		.4byte	.LASF235
 6346 11fa 0C       		.byte	0xc
 6347 11fb 21       		.uleb128 0x21
 6348 11fc 83110000 		.4byte	.LASF236
 6349 1200 0D       		.byte	0xd
ARM GAS  C:\Users\EBANO_~1\AppData\Local\Temp\ccLo4wHn.s 			page 140


 6350 1201 21       		.uleb128 0x21
 6351 1202 A9100000 		.4byte	.LASF237
 6352 1206 0E       		.byte	0xe
 6353 1207 21       		.uleb128 0x21
 6354 1208 2C200000 		.4byte	.LASF238
 6355 120c 0F       		.byte	0xf
 6356 120d 21       		.uleb128 0x21
 6357 120e DE1D0000 		.4byte	.LASF239
 6358 1212 10       		.byte	0x10
 6359 1213 21       		.uleb128 0x21
 6360 1214 2B030000 		.4byte	.LASF240
 6361 1218 11       		.byte	0x11
 6362 1219 21       		.uleb128 0x21
 6363 121a B40A0000 		.4byte	.LASF241
 6364 121e 12       		.byte	0x12
 6365 121f 21       		.uleb128 0x21
 6366 1220 880D0000 		.4byte	.LASF242
 6367 1224 13       		.byte	0x13
 6368 1225 21       		.uleb128 0x21
 6369 1226 871E0000 		.4byte	.LASF243
 6370 122a 14       		.byte	0x14
 6371 122b 21       		.uleb128 0x21
 6372 122c 921C0000 		.4byte	.LASF244
 6373 1230 15       		.byte	0x15
 6374 1231 21       		.uleb128 0x21
 6375 1232 C20F0000 		.4byte	.LASF245
 6376 1236 16       		.byte	0x16
 6377 1237 00       		.byte	0
 6378 1238 0C       		.uleb128 0xc
 6379 1239 391E0000 		.4byte	.LASF246
 6380 123d 0E       		.byte	0xe
 6381 123e 8508     		.2byte	0x885
 6382 1240 9B110000 		.4byte	0x119b
 6383 1244 27       		.uleb128 0x27
 6384 1245 AE1F0000 		.4byte	.LASF431
 6385 1249 0E       		.byte	0xe
 6386 124a 2509     		.2byte	0x925
 6387 124c 21010000 		.4byte	0x121
 6388 1250 10       		.byte	0x10
 6389 1251 08       		.byte	0x8
 6390 1252 0A       		.byte	0xa
 6391 1253 0C       		.byte	0xc
 6392 1254 0D       		.byte	0xd
 6393 1255 0E       		.byte	0xe
 6394 1256 10       		.byte	0x10
 6395 1257 12       		.byte	0x12
 6396 1258 14       		.byte	0x14
 6397 1259 15       		.byte	0x15
 6398 125a 18       		.byte	0x18
 6399 125b 1A       		.byte	0x1a
 6400 125c 1B       		.byte	0x1b
 6401 125d 1D       		.byte	0x1d
 6402 125e 1E       		.byte	0x1e
 6403 125f 21       		.byte	0x21
 6404 1260 24       		.byte	0x24
 6405 1261 26       		.uleb128 0x26
 6406 1262 83080000 		.4byte	.LASF247
ARM GAS  C:\Users\EBANO_~1\AppData\Local\Temp\ccLo4wHn.s 			page 141


 6407 1266 07       		.byte	0x7
 6408 1267 01       		.byte	0x1
 6409 1268 4D000000 		.4byte	0x4d
 6410 126c 0F       		.byte	0xf
 6411 126d 1202     		.2byte	0x212
 6412 126f B2130000 		.4byte	0x13b2
 6413 1273 21       		.uleb128 0x21
 6414 1274 010B0000 		.4byte	.LASF248
 6415 1278 00       		.byte	0
 6416 1279 21       		.uleb128 0x21
 6417 127a FD0B0000 		.4byte	.LASF249
 6418 127e 01       		.byte	0x1
 6419 127f 21       		.uleb128 0x21
 6420 1280 B21B0000 		.4byte	.LASF250
 6421 1284 02       		.byte	0x2
 6422 1285 21       		.uleb128 0x21
 6423 1286 2D100000 		.4byte	.LASF251
 6424 128a 03       		.byte	0x3
 6425 128b 21       		.uleb128 0x21
 6426 128c 831B0000 		.4byte	.LASF252
 6427 1290 04       		.byte	0x4
 6428 1291 21       		.uleb128 0x21
 6429 1292 17170000 		.4byte	.LASF253
 6430 1296 05       		.byte	0x5
 6431 1297 21       		.uleb128 0x21
 6432 1298 A6050000 		.4byte	.LASF254
 6433 129c 06       		.byte	0x6
 6434 129d 21       		.uleb128 0x21
 6435 129e 420E0000 		.4byte	.LASF255
 6436 12a2 07       		.byte	0x7
 6437 12a3 21       		.uleb128 0x21
 6438 12a4 7B170000 		.4byte	.LASF256
 6439 12a8 08       		.byte	0x8
 6440 12a9 21       		.uleb128 0x21
 6441 12aa E9170000 		.4byte	.LASF257
 6442 12ae 09       		.byte	0x9
 6443 12af 21       		.uleb128 0x21
 6444 12b0 9F030000 		.4byte	.LASF258
 6445 12b4 0A       		.byte	0xa
 6446 12b5 21       		.uleb128 0x21
 6447 12b6 F6100000 		.4byte	.LASF259
 6448 12ba 0B       		.byte	0xb
 6449 12bb 21       		.uleb128 0x21
 6450 12bc 3E0D0000 		.4byte	.LASF260
 6451 12c0 0C       		.byte	0xc
 6452 12c1 21       		.uleb128 0x21
 6453 12c2 C21A0000 		.4byte	.LASF261
 6454 12c6 0D       		.byte	0xd
 6455 12c7 21       		.uleb128 0x21
 6456 12c8 AA130000 		.4byte	.LASF262
 6457 12cc 0E       		.byte	0xe
 6458 12cd 21       		.uleb128 0x21
 6459 12ce 4F0B0000 		.4byte	.LASF263
 6460 12d2 0F       		.byte	0xf
 6461 12d3 21       		.uleb128 0x21
 6462 12d4 3E0F0000 		.4byte	.LASF264
 6463 12d8 10       		.byte	0x10
ARM GAS  C:\Users\EBANO_~1\AppData\Local\Temp\ccLo4wHn.s 			page 142


 6464 12d9 21       		.uleb128 0x21
 6465 12da 510F0000 		.4byte	.LASF265
 6466 12de 11       		.byte	0x11
 6467 12df 21       		.uleb128 0x21
 6468 12e0 38000000 		.4byte	.LASF266
 6469 12e4 12       		.byte	0x12
 6470 12e5 21       		.uleb128 0x21
 6471 12e6 4F000000 		.4byte	.LASF267
 6472 12ea 13       		.byte	0x13
 6473 12eb 21       		.uleb128 0x21
 6474 12ec 6B180000 		.4byte	.LASF268
 6475 12f0 14       		.byte	0x14
 6476 12f1 21       		.uleb128 0x21
 6477 12f2 2D1A0000 		.4byte	.LASF269
 6478 12f6 15       		.byte	0x15
 6479 12f7 21       		.uleb128 0x21
 6480 12f8 2B060000 		.4byte	.LASF270
 6481 12fc 16       		.byte	0x16
 6482 12fd 21       		.uleb128 0x21
 6483 12fe 63080000 		.4byte	.LASF271
 6484 1302 17       		.byte	0x17
 6485 1303 21       		.uleb128 0x21
 6486 1304 170F0000 		.4byte	.LASF272
 6487 1308 18       		.byte	0x18
 6488 1309 21       		.uleb128 0x21
 6489 130a B51C0000 		.4byte	.LASF273
 6490 130e 19       		.byte	0x19
 6491 130f 21       		.uleb128 0x21
 6492 1310 5B060000 		.4byte	.LASF274
 6493 1314 1A       		.byte	0x1a
 6494 1315 21       		.uleb128 0x21
 6495 1316 8E150000 		.4byte	.LASF275
 6496 131a 1B       		.byte	0x1b
 6497 131b 21       		.uleb128 0x21
 6498 131c 181F0000 		.4byte	.LASF276
 6499 1320 1C       		.byte	0x1c
 6500 1321 21       		.uleb128 0x21
 6501 1322 3B180000 		.4byte	.LASF277
 6502 1326 1D       		.byte	0x1d
 6503 1327 21       		.uleb128 0x21
 6504 1328 740E0000 		.4byte	.LASF278
 6505 132c 1E       		.byte	0x1e
 6506 132d 21       		.uleb128 0x21
 6507 132e E0180000 		.4byte	.LASF279
 6508 1332 1F       		.byte	0x1f
 6509 1333 21       		.uleb128 0x21
 6510 1334 43160000 		.4byte	.LASF280
 6511 1338 20       		.byte	0x20
 6512 1339 21       		.uleb128 0x21
 6513 133a 590E0000 		.4byte	.LASF281
 6514 133e 21       		.byte	0x21
 6515 133f 21       		.uleb128 0x21
 6516 1340 27180000 		.4byte	.LASF282
 6517 1344 22       		.byte	0x22
 6518 1345 21       		.uleb128 0x21
 6519 1346 F5010000 		.4byte	.LASF283
 6520 134a 23       		.byte	0x23
ARM GAS  C:\Users\EBANO_~1\AppData\Local\Temp\ccLo4wHn.s 			page 143


 6521 134b 21       		.uleb128 0x21
 6522 134c 7E020000 		.4byte	.LASF284
 6523 1350 24       		.byte	0x24
 6524 1351 21       		.uleb128 0x21
 6525 1352 B1060000 		.4byte	.LASF285
 6526 1356 25       		.byte	0x25
 6527 1357 21       		.uleb128 0x21
 6528 1358 E3110000 		.4byte	.LASF286
 6529 135c 26       		.byte	0x26
 6530 135d 21       		.uleb128 0x21
 6531 135e 050E0000 		.4byte	.LASF287
 6532 1362 27       		.byte	0x27
 6533 1363 21       		.uleb128 0x21
 6534 1364 290C0000 		.4byte	.LASF288
 6535 1368 28       		.byte	0x28
 6536 1369 21       		.uleb128 0x21
 6537 136a 9C0E0000 		.4byte	.LASF289
 6538 136e 29       		.byte	0x29
 6539 136f 21       		.uleb128 0x21
 6540 1370 B40B0000 		.4byte	.LASF290
 6541 1374 2A       		.byte	0x2a
 6542 1375 21       		.uleb128 0x21
 6543 1376 11210000 		.4byte	.LASF291
 6544 137a 2B       		.byte	0x2b
 6545 137b 21       		.uleb128 0x21
 6546 137c D7050000 		.4byte	.LASF292
 6547 1380 2C       		.byte	0x2c
 6548 1381 21       		.uleb128 0x21
 6549 1382 AC1E0000 		.4byte	.LASF293
 6550 1386 2D       		.byte	0x2d
 6551 1387 21       		.uleb128 0x21
 6552 1388 DB1A0000 		.4byte	.LASF294
 6553 138c 2E       		.byte	0x2e
 6554 138d 21       		.uleb128 0x21
 6555 138e 0F180000 		.4byte	.LASF295
 6556 1392 2F       		.byte	0x2f
 6557 1393 21       		.uleb128 0x21
 6558 1394 E7000000 		.4byte	.LASF296
 6559 1398 30       		.byte	0x30
 6560 1399 21       		.uleb128 0x21
 6561 139a B6110000 		.4byte	.LASF297
 6562 139e 31       		.byte	0x31
 6563 139f 21       		.uleb128 0x21
 6564 13a0 DA0B0000 		.4byte	.LASF298
 6565 13a4 32       		.byte	0x32
 6566 13a5 21       		.uleb128 0x21
 6567 13a6 53120000 		.4byte	.LASF299
 6568 13aa 33       		.byte	0x33
 6569 13ab 21       		.uleb128 0x21
 6570 13ac 921D0000 		.4byte	.LASF300
 6571 13b0 34       		.byte	0x34
 6572 13b1 00       		.byte	0
 6573 13b2 0C       		.uleb128 0xc
 6574 13b3 55020000 		.4byte	.LASF301
 6575 13b7 0F       		.byte	0xf
 6576 13b8 EE02     		.2byte	0x2ee
 6577 13ba 61120000 		.4byte	0x1261
ARM GAS  C:\Users\EBANO_~1\AppData\Local\Temp\ccLo4wHn.s 			page 144


 6578 13be 26       		.uleb128 0x26
 6579 13bf 45190000 		.4byte	.LASF302
 6580 13c3 07       		.byte	0x7
 6581 13c4 01       		.byte	0x1
 6582 13c5 4D000000 		.4byte	0x4d
 6583 13c9 0F       		.byte	0xf
 6584 13ca F302     		.2byte	0x2f3
 6585 13cc E3130000 		.4byte	0x13e3
 6586 13d0 21       		.uleb128 0x21
 6587 13d1 330E0000 		.4byte	.LASF303
 6588 13d5 00       		.byte	0
 6589 13d6 21       		.uleb128 0x21
 6590 13d7 421D0000 		.4byte	.LASF304
 6591 13db 01       		.byte	0x1
 6592 13dc 21       		.uleb128 0x21
 6593 13dd 4D1B0000 		.4byte	.LASF305
 6594 13e1 02       		.byte	0x2
 6595 13e2 00       		.byte	0
 6596 13e3 0C       		.uleb128 0xc
 6597 13e4 41050000 		.4byte	.LASF306
 6598 13e8 0F       		.byte	0xf
 6599 13e9 0203     		.2byte	0x302
 6600 13eb BE130000 		.4byte	0x13be
 6601 13ef 26       		.uleb128 0x26
 6602 13f0 0A160000 		.4byte	.LASF307
 6603 13f4 07       		.byte	0x7
 6604 13f5 01       		.byte	0x1
 6605 13f6 4D000000 		.4byte	0x4d
 6606 13fa 0F       		.byte	0xf
 6607 13fb 0403     		.2byte	0x304
 6608 13fd 0E140000 		.4byte	0x140e
 6609 1401 21       		.uleb128 0x21
 6610 1402 B5140000 		.4byte	.LASF308
 6611 1406 00       		.byte	0
 6612 1407 21       		.uleb128 0x21
 6613 1408 55180000 		.4byte	.LASF309
 6614 140c 01       		.byte	0x1
 6615 140d 00       		.byte	0
 6616 140e 0C       		.uleb128 0xc
 6617 140f 91010000 		.4byte	.LASF310
 6618 1413 0F       		.byte	0xf
 6619 1414 0E03     		.2byte	0x30e
 6620 1416 EF130000 		.4byte	0x13ef
 6621 141a 19       		.uleb128 0x19
 6622 141b A5000000 		.4byte	.LASF311
 6623 141f 03       		.byte	0x3
 6624 1420 0F       		.byte	0xf
 6625 1421 1303     		.2byte	0x313
 6626 1423 55140000 		.4byte	0x1455
 6627 1427 18       		.uleb128 0x18
 6628 1428 5F040000 		.4byte	.LASF312
 6629 142c 0F       		.byte	0xf
 6630 142d 1803     		.2byte	0x318
 6631 142f C3000000 		.4byte	0xc3
 6632 1433 02       		.byte	0x2
 6633 1434 23       		.byte	0x23
 6634 1435 00       		.uleb128 0
ARM GAS  C:\Users\EBANO_~1\AppData\Local\Temp\ccLo4wHn.s 			page 145


 6635 1436 18       		.uleb128 0x18
 6636 1437 66000000 		.4byte	.LASF313
 6637 143b 0F       		.byte	0xf
 6638 143c 1C03     		.2byte	0x31c
 6639 143e C3000000 		.4byte	0xc3
 6640 1442 02       		.byte	0x2
 6641 1443 23       		.byte	0x23
 6642 1444 01       		.uleb128 0x1
 6643 1445 18       		.uleb128 0x18
 6644 1446 3B100000 		.4byte	.LASF314
 6645 144a 0F       		.byte	0xf
 6646 144b 2003     		.2byte	0x320
 6647 144d C3000000 		.4byte	0xc3
 6648 1451 02       		.byte	0x2
 6649 1452 23       		.byte	0x23
 6650 1453 02       		.uleb128 0x2
 6651 1454 00       		.byte	0
 6652 1455 0C       		.uleb128 0xc
 6653 1456 001A0000 		.4byte	.LASF315
 6654 145a 0F       		.byte	0xf
 6655 145b 2103     		.2byte	0x321
 6656 145d 1A140000 		.4byte	0x141a
 6657 1461 28       		.uleb128 0x28
 6658 1462 AC170000 		.4byte	.LASF316
 6659 1466 04       		.byte	0x4
 6660 1467 0F       		.byte	0xf
 6661 1468 2603     		.2byte	0x326
 6662 146a AB140000 		.4byte	0x14ab
 6663 146e 1C       		.uleb128 0x1c
 6664 146f A8200000 		.4byte	.LASF146
 6665 1473 0F       		.byte	0xf
 6666 1474 2B03     		.2byte	0x32b
 6667 1476 F4000000 		.4byte	0xf4
 6668 147a 1C       		.uleb128 0x1c
 6669 147b 121B0000 		.4byte	.LASF317
 6670 147f 0F       		.byte	0xf
 6671 1480 2F03     		.2byte	0x32f
 6672 1482 29000000 		.4byte	0x29
 6673 1486 1C       		.uleb128 0x1c
 6674 1487 801D0000 		.4byte	.LASF318
 6675 148b 0F       		.byte	0xf
 6676 148c 3303     		.2byte	0x333
 6677 148e 95110000 		.4byte	0x1195
 6678 1492 1C       		.uleb128 0x1c
 6679 1493 B60D0000 		.4byte	.LASF319
 6680 1497 0F       		.byte	0xf
 6681 1498 3703     		.2byte	0x337
 6682 149a 8F110000 		.4byte	0x118f
 6683 149e 1C       		.uleb128 0x1c
 6684 149f EC0F0000 		.4byte	.LASF320
 6685 14a3 0F       		.byte	0xf
 6686 14a4 3B03     		.2byte	0x33b
 6687 14a6 55140000 		.4byte	0x1455
 6688 14aa 00       		.byte	0
 6689 14ab 0C       		.uleb128 0xc
 6690 14ac 7E130000 		.4byte	.LASF321
 6691 14b0 0F       		.byte	0xf
ARM GAS  C:\Users\EBANO_~1\AppData\Local\Temp\ccLo4wHn.s 			page 146


 6692 14b1 3C03     		.2byte	0x33c
 6693 14b3 61140000 		.4byte	0x1461
 6694 14b7 19       		.uleb128 0x19
 6695 14b8 7A0D0000 		.4byte	.LASF322
 6696 14bc 04       		.byte	0x4
 6697 14bd 0F       		.byte	0xf
 6698 14be 4103     		.2byte	0x341
 6699 14c0 01150000 		.4byte	0x1501
 6700 14c4 18       		.uleb128 0x18
 6701 14c5 79080000 		.4byte	.LASF323
 6702 14c9 0F       		.byte	0xf
 6703 14ca 4603     		.2byte	0x346
 6704 14cc B2130000 		.4byte	0x13b2
 6705 14d0 02       		.byte	0x2
 6706 14d1 23       		.byte	0x23
 6707 14d2 00       		.uleb128 0
 6708 14d3 18       		.uleb128 0x18
 6709 14d4 AB1D0000 		.4byte	.LASF324
 6710 14d8 0F       		.byte	0xf
 6711 14d9 4C03     		.2byte	0x34c
 6712 14db B8000000 		.4byte	0xb8
 6713 14df 02       		.byte	0x2
 6714 14e0 23       		.byte	0x23
 6715 14e1 01       		.uleb128 0x1
 6716 14e2 18       		.uleb128 0x18
 6717 14e3 3D1A0000 		.4byte	.LASF325
 6718 14e7 0F       		.byte	0xf
 6719 14e8 5303     		.2byte	0x353
 6720 14ea C3000000 		.4byte	0xc3
 6721 14ee 02       		.byte	0x2
 6722 14ef 23       		.byte	0x23
 6723 14f0 02       		.uleb128 0x2
 6724 14f1 18       		.uleb128 0x18
 6725 14f2 49130000 		.4byte	.LASF326
 6726 14f6 0F       		.byte	0xf
 6727 14f7 5A03     		.2byte	0x35a
 6728 14f9 C3000000 		.4byte	0xc3
 6729 14fd 02       		.byte	0x2
 6730 14fe 23       		.byte	0x23
 6731 14ff 03       		.uleb128 0x3
 6732 1500 00       		.byte	0
 6733 1501 0C       		.uleb128 0xc
 6734 1502 FF040000 		.4byte	.LASF327
 6735 1506 0F       		.byte	0xf
 6736 1507 5B03     		.2byte	0x35b
 6737 1509 B7140000 		.4byte	0x14b7
 6738 150d 19       		.uleb128 0x19
 6739 150e 89130000 		.4byte	.LASF328
 6740 1512 08       		.byte	0x8
 6741 1513 0F       		.byte	0xf
 6742 1514 6003     		.2byte	0x360
 6743 1516 48150000 		.4byte	0x1548
 6744 151a 18       		.uleb128 0x18
 6745 151b 86190000 		.4byte	.LASF329
 6746 151f 0F       		.byte	0xf
 6747 1520 6503     		.2byte	0x365
 6748 1522 C3000000 		.4byte	0xc3
ARM GAS  C:\Users\EBANO_~1\AppData\Local\Temp\ccLo4wHn.s 			page 147


 6749 1526 02       		.byte	0x2
 6750 1527 23       		.byte	0x23
 6751 1528 00       		.uleb128 0
 6752 1529 18       		.uleb128 0x18
 6753 152a 75110000 		.4byte	.LASF330
 6754 152e 0F       		.byte	0xf
 6755 152f 6903     		.2byte	0x369
 6756 1531 1C0B0000 		.4byte	0xb1c
 6757 1535 02       		.byte	0x2
 6758 1536 23       		.byte	0x23
 6759 1537 01       		.uleb128 0x1
 6760 1538 18       		.uleb128 0x18
 6761 1539 60050000 		.4byte	.LASF153
 6762 153d 0F       		.byte	0xf
 6763 153e 6D03     		.2byte	0x36d
 6764 1540 9E0A0000 		.4byte	0xa9e
 6765 1544 02       		.byte	0x2
 6766 1545 23       		.byte	0x23
 6767 1546 04       		.uleb128 0x4
 6768 1547 00       		.byte	0
 6769 1548 0C       		.uleb128 0xc
 6770 1549 BF0D0000 		.4byte	.LASF331
 6771 154d 0F       		.byte	0xf
 6772 154e 6E03     		.2byte	0x36e
 6773 1550 0D150000 		.4byte	0x150d
 6774 1554 19       		.uleb128 0x19
 6775 1555 7C180000 		.4byte	.LASF332
 6776 1559 08       		.byte	0x8
 6777 155a 0F       		.byte	0xf
 6778 155b 7303     		.2byte	0x373
 6779 155d 80150000 		.4byte	0x1580
 6780 1561 18       		.uleb128 0x18
 6781 1562 4B1F0000 		.4byte	.LASF333
 6782 1566 0F       		.byte	0xf
 6783 1567 7803     		.2byte	0x378
 6784 1569 89010000 		.4byte	0x189
 6785 156d 02       		.byte	0x2
 6786 156e 23       		.byte	0x23
 6787 156f 00       		.uleb128 0
 6788 1570 18       		.uleb128 0x18
 6789 1571 320B0000 		.4byte	.LASF334
 6790 1575 0F       		.byte	0xf
 6791 1576 7C03     		.2byte	0x37c
 6792 1578 E3130000 		.4byte	0x13e3
 6793 157c 02       		.byte	0x2
 6794 157d 23       		.byte	0x23
 6795 157e 04       		.uleb128 0x4
 6796 157f 00       		.byte	0
 6797 1580 0C       		.uleb128 0xc
 6798 1581 790C0000 		.4byte	.LASF335
 6799 1585 0F       		.byte	0xf
 6800 1586 7D03     		.2byte	0x37d
 6801 1588 54150000 		.4byte	0x1554
 6802 158c 19       		.uleb128 0x19
 6803 158d 8A070000 		.4byte	.LASF336
 6804 1591 04       		.byte	0x4
 6805 1592 0F       		.byte	0xf
ARM GAS  C:\Users\EBANO_~1\AppData\Local\Temp\ccLo4wHn.s 			page 148


 6806 1593 8203     		.2byte	0x382
 6807 1595 A9150000 		.4byte	0x15a9
 6808 1599 18       		.uleb128 0x18
 6809 159a 180B0000 		.4byte	.LASF337
 6810 159e 0F       		.byte	0xf
 6811 159f 8703     		.2byte	0x387
 6812 15a1 77010000 		.4byte	0x177
 6813 15a5 02       		.byte	0x2
 6814 15a6 23       		.byte	0x23
 6815 15a7 00       		.uleb128 0
 6816 15a8 00       		.byte	0
 6817 15a9 0C       		.uleb128 0xc
 6818 15aa A0120000 		.4byte	.LASF338
 6819 15ae 0F       		.byte	0xf
 6820 15af 8803     		.2byte	0x388
 6821 15b1 8C150000 		.4byte	0x158c
 6822 15b5 19       		.uleb128 0x19
 6823 15b6 4B060000 		.4byte	.LASF339
 6824 15ba 03       		.byte	0x3
 6825 15bb 0F       		.byte	0xf
 6826 15bc 9B03     		.2byte	0x39b
 6827 15be F0150000 		.4byte	0x15f0
 6828 15c2 18       		.uleb128 0x18
 6829 15c3 AB1D0000 		.4byte	.LASF324
 6830 15c7 0F       		.byte	0xf
 6831 15c8 A003     		.2byte	0x3a0
 6832 15ca B8000000 		.4byte	0xb8
 6833 15ce 02       		.byte	0x2
 6834 15cf 23       		.byte	0x23
 6835 15d0 00       		.uleb128 0
 6836 15d1 18       		.uleb128 0x18
 6837 15d2 49130000 		.4byte	.LASF326
 6838 15d6 0F       		.byte	0xf
 6839 15d7 A403     		.2byte	0x3a4
 6840 15d9 C3000000 		.4byte	0xc3
 6841 15dd 02       		.byte	0x2
 6842 15de 23       		.byte	0x23
 6843 15df 01       		.uleb128 0x1
 6844 15e0 18       		.uleb128 0x18
 6845 15e1 3D1A0000 		.4byte	.LASF325
 6846 15e5 0F       		.byte	0xf
 6847 15e6 A803     		.2byte	0x3a8
 6848 15e8 C3000000 		.4byte	0xc3
 6849 15ec 02       		.byte	0x2
 6850 15ed 23       		.byte	0x23
 6851 15ee 02       		.uleb128 0x2
 6852 15ef 00       		.byte	0
 6853 15f0 28       		.uleb128 0x28
 6854 15f1 1E200000 		.4byte	.LASF340
 6855 15f5 03       		.byte	0x3
 6856 15f6 0F       		.byte	0xf
 6857 15f7 8E03     		.2byte	0x38e
 6858 15f9 22160000 		.4byte	0x1622
 6859 15fd 1C       		.uleb128 0x1c
 6860 15fe AC1A0000 		.4byte	.LASF341
 6861 1602 0F       		.byte	0xf
 6862 1603 9303     		.2byte	0x393
ARM GAS  C:\Users\EBANO_~1\AppData\Local\Temp\ccLo4wHn.s 			page 149


 6863 1605 B8000000 		.4byte	0xb8
 6864 1609 1C       		.uleb128 0x1c
 6865 160a 081B0000 		.4byte	.LASF342
 6866 160e 0F       		.byte	0xf
 6867 160f 9703     		.2byte	0x397
 6868 1611 1C0B0000 		.4byte	0xb1c
 6869 1615 1C       		.uleb128 0x1c
 6870 1616 8F020000 		.4byte	.LASF343
 6871 161a 0F       		.byte	0xf
 6872 161b A903     		.2byte	0x3a9
 6873 161d B5150000 		.4byte	0x15b5
 6874 1621 00       		.byte	0
 6875 1622 0C       		.uleb128 0xc
 6876 1623 6E200000 		.4byte	.LASF344
 6877 1627 0F       		.byte	0xf
 6878 1628 AA03     		.2byte	0x3aa
 6879 162a F0150000 		.4byte	0x15f0
 6880 162e 19       		.uleb128 0x19
 6881 162f 600D0000 		.4byte	.LASF345
 6882 1633 08       		.byte	0x8
 6883 1634 0F       		.byte	0xf
 6884 1635 AF03     		.2byte	0x3af
 6885 1637 5A160000 		.4byte	0x165a
 6886 163b 18       		.uleb128 0x18
 6887 163c 470B0000 		.4byte	.LASF346
 6888 1640 0F       		.byte	0xf
 6889 1641 B403     		.2byte	0x3b4
 6890 1643 8B0A0000 		.4byte	0xa8b
 6891 1647 02       		.byte	0x2
 6892 1648 23       		.byte	0x23
 6893 1649 00       		.uleb128 0
 6894 164a 18       		.uleb128 0x18
 6895 164b 74100000 		.4byte	.LASF347
 6896 164f 0F       		.byte	0xf
 6897 1650 B803     		.2byte	0x3b8
 6898 1652 C3000000 		.4byte	0xc3
 6899 1656 02       		.byte	0x2
 6900 1657 23       		.byte	0x23
 6901 1658 04       		.uleb128 0x4
 6902 1659 00       		.byte	0
 6903 165a 0C       		.uleb128 0xc
 6904 165b 2A0D0000 		.4byte	.LASF348
 6905 165f 0F       		.byte	0xf
 6906 1660 B903     		.2byte	0x3b9
 6907 1662 2E160000 		.4byte	0x162e
 6908 1666 19       		.uleb128 0x19
 6909 1667 F71E0000 		.4byte	.LASF349
 6910 166b 08       		.byte	0x8
 6911 166c 0F       		.byte	0xf
 6912 166d BE03     		.2byte	0x3be
 6913 166f 92160000 		.4byte	0x1692
 6914 1673 18       		.uleb128 0x18
 6915 1674 C8170000 		.4byte	.LASF350
 6916 1678 0F       		.byte	0xf
 6917 1679 C303     		.2byte	0x3c3
 6918 167b 95110000 		.4byte	0x1195
 6919 167f 02       		.byte	0x2
ARM GAS  C:\Users\EBANO_~1\AppData\Local\Temp\ccLo4wHn.s 			page 150


 6920 1680 23       		.byte	0x23
 6921 1681 00       		.uleb128 0
 6922 1682 18       		.uleb128 0x18
 6923 1683 C1190000 		.4byte	.LASF351
 6924 1687 0F       		.byte	0xf
 6925 1688 C703     		.2byte	0x3c7
 6926 168a 0E140000 		.4byte	0x140e
 6927 168e 02       		.byte	0x2
 6928 168f 23       		.byte	0x23
 6929 1690 04       		.uleb128 0x4
 6930 1691 00       		.byte	0
 6931 1692 0C       		.uleb128 0xc
 6932 1693 6C0F0000 		.4byte	.LASF352
 6933 1697 0F       		.byte	0xf
 6934 1698 C803     		.2byte	0x3c8
 6935 169a 66160000 		.4byte	0x1666
 6936 169e 19       		.uleb128 0x19
 6937 169f CC110000 		.4byte	.LASF353
 6938 16a3 14       		.byte	0x14
 6939 16a4 0F       		.byte	0xf
 6940 16a5 CD03     		.2byte	0x3cd
 6941 16a7 51170000 		.4byte	0x1751
 6942 16ab 18       		.uleb128 0x18
 6943 16ac 86190000 		.4byte	.LASF329
 6944 16b0 0F       		.byte	0xf
 6945 16b1 D203     		.2byte	0x3d2
 6946 16b3 C3000000 		.4byte	0xc3
 6947 16b7 02       		.byte	0x2
 6948 16b8 23       		.byte	0x23
 6949 16b9 00       		.uleb128 0
 6950 16ba 18       		.uleb128 0x18
 6951 16bb AB1D0000 		.4byte	.LASF324
 6952 16bf 0F       		.byte	0xf
 6953 16c0 D603     		.2byte	0x3d6
 6954 16c2 B8000000 		.4byte	0xb8
 6955 16c6 02       		.byte	0x2
 6956 16c7 23       		.byte	0x23
 6957 16c8 01       		.uleb128 0x1
 6958 16c9 18       		.uleb128 0x18
 6959 16ca FE1A0000 		.4byte	.LASF354
 6960 16ce 0F       		.byte	0xf
 6961 16cf DA03     		.2byte	0x3da
 6962 16d1 C3000000 		.4byte	0xc3
 6963 16d5 02       		.byte	0x2
 6964 16d6 23       		.byte	0x23
 6965 16d7 02       		.uleb128 0x2
 6966 16d8 18       		.uleb128 0x18
 6967 16d9 75020000 		.4byte	.LASF355
 6968 16dd 0F       		.byte	0xf
 6969 16de DE03     		.2byte	0x3de
 6970 16e0 B8000000 		.4byte	0xb8
 6971 16e4 02       		.byte	0x2
 6972 16e5 23       		.byte	0x23
 6973 16e6 03       		.uleb128 0x3
 6974 16e7 18       		.uleb128 0x18
 6975 16e8 CD1C0000 		.4byte	.LASF210
 6976 16ec 0F       		.byte	0xf
ARM GAS  C:\Users\EBANO_~1\AppData\Local\Temp\ccLo4wHn.s 			page 151


 6977 16ed E203     		.2byte	0x3e2
 6978 16ef F4000000 		.4byte	0xf4
 6979 16f3 02       		.byte	0x2
 6980 16f4 23       		.byte	0x23
 6981 16f5 04       		.uleb128 0x4
 6982 16f6 18       		.uleb128 0x18
 6983 16f7 8F090000 		.4byte	.LASF356
 6984 16fb 0F       		.byte	0xf
 6985 16fc E603     		.2byte	0x3e6
 6986 16fe F4000000 		.4byte	0xf4
 6987 1702 02       		.byte	0x2
 6988 1703 23       		.byte	0x23
 6989 1704 08       		.uleb128 0x8
 6990 1705 18       		.uleb128 0x18
 6991 1706 A4060000 		.4byte	.LASF357
 6992 170a 0F       		.byte	0xf
 6993 170b EA03     		.2byte	0x3ea
 6994 170d E9000000 		.4byte	0xe9
 6995 1711 02       		.byte	0x2
 6996 1712 23       		.byte	0x23
 6997 1713 0C       		.uleb128 0xc
 6998 1714 18       		.uleb128 0x18
 6999 1715 49130000 		.4byte	.LASF326
 7000 1719 0F       		.byte	0xf
 7001 171a EE03     		.2byte	0x3ee
 7002 171c C3000000 		.4byte	0xc3
 7003 1720 02       		.byte	0x2
 7004 1721 23       		.byte	0x23
 7005 1722 10       		.uleb128 0x10
 7006 1723 18       		.uleb128 0x18
 7007 1724 990C0000 		.4byte	.LASF358
 7008 1728 0F       		.byte	0xf
 7009 1729 F203     		.2byte	0x3f2
 7010 172b 1C0B0000 		.4byte	0xb1c
 7011 172f 02       		.byte	0x2
 7012 1730 23       		.byte	0x23
 7013 1731 11       		.uleb128 0x11
 7014 1732 18       		.uleb128 0x18
 7015 1733 401B0000 		.4byte	.LASF359
 7016 1737 0F       		.byte	0xf
 7017 1738 F603     		.2byte	0x3f6
 7018 173a 1C0B0000 		.4byte	0xb1c
 7019 173e 02       		.byte	0x2
 7020 173f 23       		.byte	0x23
 7021 1740 12       		.uleb128 0x12
 7022 1741 18       		.uleb128 0x18
 7023 1742 FB080000 		.4byte	.LASF360
 7024 1746 0F       		.byte	0xf
 7025 1747 FA03     		.2byte	0x3fa
 7026 1749 83110000 		.4byte	0x1183
 7027 174d 02       		.byte	0x2
 7028 174e 23       		.byte	0x23
 7029 174f 13       		.uleb128 0x13
 7030 1750 00       		.byte	0
 7031 1751 0C       		.uleb128 0xc
 7032 1752 B3000000 		.4byte	.LASF361
 7033 1756 0F       		.byte	0xf
ARM GAS  C:\Users\EBANO_~1\AppData\Local\Temp\ccLo4wHn.s 			page 152


 7034 1757 FB03     		.2byte	0x3fb
 7035 1759 9E160000 		.4byte	0x169e
 7036 175d 19       		.uleb128 0x19
 7037 175e 1B110000 		.4byte	.LASF362
 7038 1762 10       		.byte	0x10
 7039 1763 0F       		.byte	0xf
 7040 1764 0004     		.2byte	0x400
 7041 1766 C5170000 		.4byte	0x17c5
 7042 176a 18       		.uleb128 0x18
 7043 176b 86190000 		.4byte	.LASF329
 7044 176f 0F       		.byte	0xf
 7045 1770 0504     		.2byte	0x405
 7046 1772 C3000000 		.4byte	0xc3
 7047 1776 02       		.byte	0x2
 7048 1777 23       		.byte	0x23
 7049 1778 00       		.uleb128 0
 7050 1779 18       		.uleb128 0x18
 7051 177a AB1D0000 		.4byte	.LASF324
 7052 177e 0F       		.byte	0xf
 7053 177f 0904     		.2byte	0x409
 7054 1781 B8000000 		.4byte	0xb8
 7055 1785 02       		.byte	0x2
 7056 1786 23       		.byte	0x23
 7057 1787 01       		.uleb128 0x1
 7058 1788 18       		.uleb128 0x18
 7059 1789 AC1A0000 		.4byte	.LASF341
 7060 178d 0F       		.byte	0xf
 7061 178e 0D04     		.2byte	0x40d
 7062 1790 B8000000 		.4byte	0xb8
 7063 1794 02       		.byte	0x2
 7064 1795 23       		.byte	0x23
 7065 1796 02       		.uleb128 0x2
 7066 1797 18       		.uleb128 0x18
 7067 1798 92040000 		.4byte	.LASF363
 7068 179c 0F       		.byte	0xf
 7069 179d 1104     		.2byte	0x411
 7070 179f 29000000 		.4byte	0x29
 7071 17a3 02       		.byte	0x2
 7072 17a4 23       		.byte	0x23
 7073 17a5 04       		.uleb128 0x4
 7074 17a6 18       		.uleb128 0x18
 7075 17a7 9E130000 		.4byte	.LASF364
 7076 17ab 0F       		.byte	0xf
 7077 17ac 1504     		.2byte	0x415
 7078 17ae 29000000 		.4byte	0x29
 7079 17b2 02       		.byte	0x2
 7080 17b3 23       		.byte	0x23
 7081 17b4 08       		.uleb128 0x8
 7082 17b5 18       		.uleb128 0x18
 7083 17b6 1C100000 		.4byte	.LASF365
 7084 17ba 0F       		.byte	0xf
 7085 17bb 1904     		.2byte	0x419
 7086 17bd DE000000 		.4byte	0xde
 7087 17c1 02       		.byte	0x2
 7088 17c2 23       		.byte	0x23
 7089 17c3 0C       		.uleb128 0xc
 7090 17c4 00       		.byte	0
ARM GAS  C:\Users\EBANO_~1\AppData\Local\Temp\ccLo4wHn.s 			page 153


 7091 17c5 0C       		.uleb128 0xc
 7092 17c6 CD200000 		.4byte	.LASF366
 7093 17ca 0F       		.byte	0xf
 7094 17cb 1A04     		.2byte	0x41a
 7095 17cd 5D170000 		.4byte	0x175d
 7096 17d1 19       		.uleb128 0x19
 7097 17d2 7D090000 		.4byte	.LASF367
 7098 17d6 10       		.byte	0x10
 7099 17d7 0F       		.byte	0xf
 7100 17d8 1F04     		.2byte	0x41f
 7101 17da 57180000 		.4byte	0x1857
 7102 17de 18       		.uleb128 0x18
 7103 17df AE080000 		.4byte	.LASF368
 7104 17e3 0F       		.byte	0xf
 7105 17e4 2404     		.2byte	0x424
 7106 17e6 110B0000 		.4byte	0xb11
 7107 17ea 02       		.byte	0x2
 7108 17eb 23       		.byte	0x23
 7109 17ec 00       		.uleb128 0
 7110 17ed 18       		.uleb128 0x18
 7111 17ee 470B0000 		.4byte	.LASF346
 7112 17f2 0F       		.byte	0xf
 7113 17f3 2804     		.2byte	0x428
 7114 17f5 8B0A0000 		.4byte	0xa8b
 7115 17f9 02       		.byte	0x2
 7116 17fa 23       		.byte	0x23
 7117 17fb 04       		.uleb128 0x4
 7118 17fc 18       		.uleb128 0x18
 7119 17fd 2C120000 		.4byte	.LASF369
 7120 1801 0F       		.byte	0xf
 7121 1802 2C04     		.2byte	0x42c
 7122 1804 C3000000 		.4byte	0xc3
 7123 1808 02       		.byte	0x2
 7124 1809 23       		.byte	0x23
 7125 180a 08       		.uleb128 0x8
 7126 180b 18       		.uleb128 0x18
 7127 180c 3D1A0000 		.4byte	.LASF325
 7128 1810 0F       		.byte	0xf
 7129 1811 3004     		.2byte	0x430
 7130 1813 C3000000 		.4byte	0xc3
 7131 1817 02       		.byte	0x2
 7132 1818 23       		.byte	0x23
 7133 1819 09       		.uleb128 0x9
 7134 181a 18       		.uleb128 0x18
 7135 181b EA010000 		.4byte	.LASF370
 7136 181f 0F       		.byte	0xf
 7137 1820 3404     		.2byte	0x434
 7138 1822 1C0B0000 		.4byte	0xb1c
 7139 1826 02       		.byte	0x2
 7140 1827 23       		.byte	0x23
 7141 1828 0A       		.uleb128 0xa
 7142 1829 18       		.uleb128 0x18
 7143 182a 370B0000 		.4byte	.LASF371
 7144 182e 0F       		.byte	0xf
 7145 182f 3804     		.2byte	0x438
 7146 1831 B8000000 		.4byte	0xb8
 7147 1835 02       		.byte	0x2
ARM GAS  C:\Users\EBANO_~1\AppData\Local\Temp\ccLo4wHn.s 			page 154


 7148 1836 23       		.byte	0x23
 7149 1837 0B       		.uleb128 0xb
 7150 1838 18       		.uleb128 0x18
 7151 1839 A0140000 		.4byte	.LASF372
 7152 183d 0F       		.byte	0xf
 7153 183e 3C04     		.2byte	0x43c
 7154 1840 B8000000 		.4byte	0xb8
 7155 1844 02       		.byte	0x2
 7156 1845 23       		.byte	0x23
 7157 1846 0C       		.uleb128 0xc
 7158 1847 18       		.uleb128 0x18
 7159 1848 491E0000 		.4byte	.LASF373
 7160 184c 0F       		.byte	0xf
 7161 184d 4004     		.2byte	0x440
 7162 184f C3000000 		.4byte	0xc3
 7163 1853 02       		.byte	0x2
 7164 1854 23       		.byte	0x23
 7165 1855 0D       		.uleb128 0xd
 7166 1856 00       		.byte	0
 7167 1857 0C       		.uleb128 0xc
 7168 1858 D61F0000 		.4byte	.LASF374
 7169 185c 0F       		.byte	0xf
 7170 185d 4104     		.2byte	0x441
 7171 185f D1170000 		.4byte	0x17d1
 7172 1863 19       		.uleb128 0x19
 7173 1864 67030000 		.4byte	.LASF375
 7174 1868 08       		.byte	0x8
 7175 1869 0F       		.byte	0xf
 7176 186a 4604     		.2byte	0x446
 7177 186c 9E180000 		.4byte	0x189e
 7178 1870 18       		.uleb128 0x18
 7179 1871 AB1D0000 		.4byte	.LASF324
 7180 1875 0F       		.byte	0xf
 7181 1876 4B04     		.2byte	0x44b
 7182 1878 B8000000 		.4byte	0xb8
 7183 187c 02       		.byte	0x2
 7184 187d 23       		.byte	0x23
 7185 187e 00       		.uleb128 0
 7186 187f 18       		.uleb128 0x18
 7187 1880 75020000 		.4byte	.LASF355
 7188 1884 0F       		.byte	0xf
 7189 1885 4F04     		.2byte	0x44f
 7190 1887 B8000000 		.4byte	0xb8
 7191 188b 02       		.byte	0x2
 7192 188c 23       		.byte	0x23
 7193 188d 01       		.uleb128 0x1
 7194 188e 18       		.uleb128 0x18
 7195 188f CD1C0000 		.4byte	.LASF210
 7196 1893 0F       		.byte	0xf
 7197 1894 5304     		.2byte	0x453
 7198 1896 F4000000 		.4byte	0xf4
 7199 189a 02       		.byte	0x2
 7200 189b 23       		.byte	0x23
 7201 189c 04       		.uleb128 0x4
 7202 189d 00       		.byte	0
 7203 189e 0C       		.uleb128 0xc
 7204 189f C5030000 		.4byte	.LASF376
ARM GAS  C:\Users\EBANO_~1\AppData\Local\Temp\ccLo4wHn.s 			page 155


 7205 18a3 0F       		.byte	0xf
 7206 18a4 5404     		.2byte	0x454
 7207 18a6 63180000 		.4byte	0x1863
 7208 18aa 19       		.uleb128 0x19
 7209 18ab 630A0000 		.4byte	.LASF377
 7210 18af 08       		.byte	0x8
 7211 18b0 0F       		.byte	0xf
 7212 18b1 5904     		.2byte	0x459
 7213 18b3 D6180000 		.4byte	0x18d6
 7214 18b7 18       		.uleb128 0x18
 7215 18b8 2E1D0000 		.4byte	.LASF378
 7216 18bc 0F       		.byte	0xf
 7217 18bd 5E04     		.2byte	0x45e
 7218 18bf 8F110000 		.4byte	0x118f
 7219 18c3 02       		.byte	0x2
 7220 18c4 23       		.byte	0x23
 7221 18c5 00       		.uleb128 0
 7222 18c6 18       		.uleb128 0x18
 7223 18c7 47030000 		.4byte	.LASF379
 7224 18cb 0F       		.byte	0xf
 7225 18cc 6204     		.2byte	0x462
 7226 18ce B8000000 		.4byte	0xb8
 7227 18d2 02       		.byte	0x2
 7228 18d3 23       		.byte	0x23
 7229 18d4 04       		.uleb128 0x4
 7230 18d5 00       		.byte	0
 7231 18d6 0C       		.uleb128 0xc
 7232 18d7 DD0A0000 		.4byte	.LASF380
 7233 18db 0F       		.byte	0xf
 7234 18dc 6304     		.2byte	0x463
 7235 18de AA180000 		.4byte	0x18aa
 7236 18e2 19       		.uleb128 0x19
 7237 18e3 89120000 		.4byte	.LASF381
 7238 18e7 03       		.byte	0x3
 7239 18e8 0F       		.byte	0xf
 7240 18e9 6804     		.2byte	0x468
 7241 18eb 1D190000 		.4byte	0x191d
 7242 18ef 18       		.uleb128 0x18
 7243 18f0 3D1A0000 		.4byte	.LASF325
 7244 18f4 0F       		.byte	0xf
 7245 18f5 6D04     		.2byte	0x46d
 7246 18f7 C3000000 		.4byte	0xc3
 7247 18fb 02       		.byte	0x2
 7248 18fc 23       		.byte	0x23
 7249 18fd 00       		.uleb128 0
 7250 18fe 18       		.uleb128 0x18
 7251 18ff 49130000 		.4byte	.LASF326
 7252 1903 0F       		.byte	0xf
 7253 1904 7104     		.2byte	0x471
 7254 1906 C3000000 		.4byte	0xc3
 7255 190a 02       		.byte	0x2
 7256 190b 23       		.byte	0x23
 7257 190c 01       		.uleb128 0x1
 7258 190d 18       		.uleb128 0x18
 7259 190e 92040000 		.4byte	.LASF363
 7260 1912 0F       		.byte	0xf
 7261 1913 7504     		.2byte	0x475
ARM GAS  C:\Users\EBANO_~1\AppData\Local\Temp\ccLo4wHn.s 			page 156


 7262 1915 C3000000 		.4byte	0xc3
 7263 1919 02       		.byte	0x2
 7264 191a 23       		.byte	0x23
 7265 191b 02       		.uleb128 0x2
 7266 191c 00       		.byte	0
 7267 191d 0C       		.uleb128 0xc
 7268 191e A2150000 		.4byte	.LASF382
 7269 1922 0F       		.byte	0xf
 7270 1923 7604     		.2byte	0x476
 7271 1925 E2180000 		.4byte	0x18e2
 7272 1929 19       		.uleb128 0x19
 7273 192a C21F0000 		.4byte	.LASF383
 7274 192e 08       		.byte	0x8
 7275 192f 0F       		.byte	0xf
 7276 1930 7B04     		.2byte	0x47b
 7277 1932 55190000 		.4byte	0x1955
 7278 1936 18       		.uleb128 0x18
 7279 1937 47030000 		.4byte	.LASF379
 7280 193b 0F       		.byte	0xf
 7281 193c 8004     		.2byte	0x480
 7282 193e C3000000 		.4byte	0xc3
 7283 1942 02       		.byte	0x2
 7284 1943 23       		.byte	0x23
 7285 1944 00       		.uleb128 0
 7286 1945 18       		.uleb128 0x18
 7287 1946 3E120000 		.4byte	.LASF211
 7288 194a 0F       		.byte	0xf
 7289 194b 8404     		.2byte	0x484
 7290 194d F4000000 		.4byte	0xf4
 7291 1951 02       		.byte	0x2
 7292 1952 23       		.byte	0x23
 7293 1953 04       		.uleb128 0x4
 7294 1954 00       		.byte	0
 7295 1955 0C       		.uleb128 0xc
 7296 1956 B9120000 		.4byte	.LASF384
 7297 195a 0F       		.byte	0xf
 7298 195b 8504     		.2byte	0x485
 7299 195d 29190000 		.4byte	0x1929
 7300 1961 26       		.uleb128 0x26
 7301 1962 BD080000 		.4byte	.LASF385
 7302 1966 07       		.byte	0x7
 7303 1967 01       		.byte	0x1
 7304 1968 4D000000 		.4byte	0x4d
 7305 196c 0F       		.byte	0xf
 7306 196d 8A04     		.2byte	0x48a
 7307 196f 80190000 		.4byte	0x1980
 7308 1973 21       		.uleb128 0x21
 7309 1974 61170000 		.4byte	.LASF386
 7310 1978 00       		.byte	0
 7311 1979 21       		.uleb128 0x21
 7312 197a D70F0000 		.4byte	.LASF387
 7313 197e 01       		.byte	0x1
 7314 197f 00       		.byte	0
 7315 1980 0C       		.uleb128 0xc
 7316 1981 961B0000 		.4byte	.LASF388
 7317 1985 0F       		.byte	0xf
 7318 1986 9404     		.2byte	0x494
ARM GAS  C:\Users\EBANO_~1\AppData\Local\Temp\ccLo4wHn.s 			page 157


 7319 1988 61190000 		.4byte	0x1961
 7320 198c 19       		.uleb128 0x19
 7321 198d F8060000 		.4byte	.LASF389
 7322 1991 0C       		.byte	0xc
 7323 1992 0F       		.byte	0xf
 7324 1993 9904     		.2byte	0x499
 7325 1995 F4190000 		.4byte	0x19f4
 7326 1999 18       		.uleb128 0x18
 7327 199a 75110000 		.4byte	.LASF330
 7328 199e 0F       		.byte	0xf
 7329 199f 9E04     		.2byte	0x49e
 7330 19a1 1C0B0000 		.4byte	0xb1c
 7331 19a5 02       		.byte	0x2
 7332 19a6 23       		.byte	0x23
 7333 19a7 00       		.uleb128 0
 7334 19a8 18       		.uleb128 0x18
 7335 19a9 7F210000 		.4byte	.LASF390
 7336 19ad 0F       		.byte	0xf
 7337 19ae A204     		.2byte	0x4a2
 7338 19b0 1C0B0000 		.4byte	0xb1c
 7339 19b4 02       		.byte	0x2
 7340 19b5 23       		.byte	0x23
 7341 19b6 01       		.uleb128 0x1
 7342 19b7 18       		.uleb128 0x18
 7343 19b8 F4130000 		.4byte	.LASF391
 7344 19bc 0F       		.byte	0xf
 7345 19bd A604     		.2byte	0x4a6
 7346 19bf 1C0B0000 		.4byte	0xb1c
 7347 19c3 02       		.byte	0x2
 7348 19c4 23       		.byte	0x23
 7349 19c5 02       		.uleb128 0x2
 7350 19c6 18       		.uleb128 0x18
 7351 19c7 86190000 		.4byte	.LASF329
 7352 19cb 0F       		.byte	0xf
 7353 19cc AA04     		.2byte	0x4aa
 7354 19ce C3000000 		.4byte	0xc3
 7355 19d2 02       		.byte	0x2
 7356 19d3 23       		.byte	0x23
 7357 19d4 03       		.uleb128 0x3
 7358 19d5 18       		.uleb128 0x18
 7359 19d6 900E0000 		.4byte	.LASF392
 7360 19da 0F       		.byte	0xf
 7361 19db AE04     		.2byte	0x4ae
 7362 19dd 9E0A0000 		.4byte	0xa9e
 7363 19e1 02       		.byte	0x2
 7364 19e2 23       		.byte	0x23
 7365 19e3 04       		.uleb128 0x4
 7366 19e4 18       		.uleb128 0x18
 7367 19e5 09020000 		.4byte	.LASF393
 7368 19e9 0F       		.byte	0xf
 7369 19ea B204     		.2byte	0x4b2
 7370 19ec 9E0A0000 		.4byte	0xa9e
 7371 19f0 02       		.byte	0x2
 7372 19f1 23       		.byte	0x23
 7373 19f2 08       		.uleb128 0x8
 7374 19f3 00       		.byte	0
 7375 19f4 0C       		.uleb128 0xc
ARM GAS  C:\Users\EBANO_~1\AppData\Local\Temp\ccLo4wHn.s 			page 158


 7376 19f5 77160000 		.4byte	.LASF394
 7377 19f9 0F       		.byte	0xf
 7378 19fa B304     		.2byte	0x4b3
 7379 19fc 8C190000 		.4byte	0x198c
 7380 1a00 19       		.uleb128 0x19
 7381 1a01 9E1F0000 		.4byte	.LASF395
 7382 1a05 0C       		.byte	0xc
 7383 1a06 0F       		.byte	0xf
 7384 1a07 B804     		.2byte	0x4b8
 7385 1a09 591A0000 		.4byte	0x1a59
 7386 1a0d 18       		.uleb128 0x18
 7387 1a0e D8020000 		.4byte	.LASF396
 7388 1a12 0F       		.byte	0xf
 7389 1a13 BD04     		.2byte	0x4bd
 7390 1a15 9E0A0000 		.4byte	0xa9e
 7391 1a19 02       		.byte	0x2
 7392 1a1a 23       		.byte	0x23
 7393 1a1b 00       		.uleb128 0
 7394 1a1c 18       		.uleb128 0x18
 7395 1a1d 2F020000 		.4byte	.LASF397
 7396 1a21 0F       		.byte	0xf
 7397 1a22 C104     		.2byte	0x4c1
 7398 1a24 9E0A0000 		.4byte	0xa9e
 7399 1a28 02       		.byte	0x2
 7400 1a29 23       		.byte	0x23
 7401 1a2a 04       		.uleb128 0x4
 7402 1a2b 18       		.uleb128 0x18
 7403 1a2c AB1D0000 		.4byte	.LASF324
 7404 1a30 0F       		.byte	0xf
 7405 1a31 C504     		.2byte	0x4c5
 7406 1a33 B8000000 		.4byte	0xb8
 7407 1a37 02       		.byte	0x2
 7408 1a38 23       		.byte	0x23
 7409 1a39 08       		.uleb128 0x8
 7410 1a3a 18       		.uleb128 0x18
 7411 1a3b 75110000 		.4byte	.LASF330
 7412 1a3f 0F       		.byte	0xf
 7413 1a40 C904     		.2byte	0x4c9
 7414 1a42 1C0B0000 		.4byte	0xb1c
 7415 1a46 02       		.byte	0x2
 7416 1a47 23       		.byte	0x23
 7417 1a48 09       		.uleb128 0x9
 7418 1a49 18       		.uleb128 0x18
 7419 1a4a F4130000 		.4byte	.LASF391
 7420 1a4e 0F       		.byte	0xf
 7421 1a4f CD04     		.2byte	0x4cd
 7422 1a51 1C0B0000 		.4byte	0xb1c
 7423 1a55 02       		.byte	0x2
 7424 1a56 23       		.byte	0x23
 7425 1a57 0A       		.uleb128 0xa
 7426 1a58 00       		.byte	0
 7427 1a59 0C       		.uleb128 0xc
 7428 1a5a 3A020000 		.4byte	.LASF398
 7429 1a5e 0F       		.byte	0xf
 7430 1a5f CE04     		.2byte	0x4ce
 7431 1a61 001A0000 		.4byte	0x1a00
 7432 1a65 19       		.uleb128 0x19
ARM GAS  C:\Users\EBANO_~1\AppData\Local\Temp\ccLo4wHn.s 			page 159


 7433 1a66 B5050000 		.4byte	.LASF399
 7434 1a6a 08       		.byte	0x8
 7435 1a6b 0F       		.byte	0xf
 7436 1a6c D304     		.2byte	0x4d3
 7437 1a6e 911A0000 		.4byte	0x1a91
 7438 1a72 18       		.uleb128 0x18
 7439 1a73 2E1D0000 		.4byte	.LASF378
 7440 1a77 0F       		.byte	0xf
 7441 1a78 D804     		.2byte	0x4d8
 7442 1a7a 8F110000 		.4byte	0x118f
 7443 1a7e 02       		.byte	0x2
 7444 1a7f 23       		.byte	0x23
 7445 1a80 00       		.uleb128 0
 7446 1a81 18       		.uleb128 0x18
 7447 1a82 47030000 		.4byte	.LASF379
 7448 1a86 0F       		.byte	0xf
 7449 1a87 DC04     		.2byte	0x4dc
 7450 1a89 C3000000 		.4byte	0xc3
 7451 1a8d 02       		.byte	0x2
 7452 1a8e 23       		.byte	0x23
 7453 1a8f 04       		.uleb128 0x4
 7454 1a90 00       		.byte	0
 7455 1a91 0C       		.uleb128 0xc
 7456 1a92 DB120000 		.4byte	.LASF400
 7457 1a96 0F       		.byte	0xf
 7458 1a97 DD04     		.2byte	0x4dd
 7459 1a99 651A0000 		.4byte	0x1a65
 7460 1a9d 19       		.uleb128 0x19
 7461 1a9e 671C0000 		.4byte	.LASF401
 7462 1aa2 01       		.byte	0x1
 7463 1aa3 0F       		.byte	0xf
 7464 1aa4 E204     		.2byte	0x4e2
 7465 1aa6 BA1A0000 		.4byte	0x1aba
 7466 1aaa 18       		.uleb128 0x18
 7467 1aab 47030000 		.4byte	.LASF379
 7468 1aaf 0F       		.byte	0xf
 7469 1ab0 E704     		.2byte	0x4e7
 7470 1ab2 C3000000 		.4byte	0xc3
 7471 1ab6 02       		.byte	0x2
 7472 1ab7 23       		.byte	0x23
 7473 1ab8 00       		.uleb128 0
 7474 1ab9 00       		.byte	0
 7475 1aba 0C       		.uleb128 0xc
 7476 1abb 2F090000 		.4byte	.LASF402
 7477 1abf 0F       		.byte	0xf
 7478 1ac0 E804     		.2byte	0x4e8
 7479 1ac2 9D1A0000 		.4byte	0x1a9d
 7480 1ac6 19       		.uleb128 0x19
 7481 1ac7 7C1C0000 		.4byte	.LASF403
 7482 1acb 10       		.byte	0x10
 7483 1acc 0F       		.byte	0xf
 7484 1acd ED04     		.2byte	0x4ed
 7485 1acf 2E1B0000 		.4byte	0x1b2e
 7486 1ad3 18       		.uleb128 0x18
 7487 1ad4 86190000 		.4byte	.LASF329
 7488 1ad8 0F       		.byte	0xf
 7489 1ad9 F204     		.2byte	0x4f2
ARM GAS  C:\Users\EBANO_~1\AppData\Local\Temp\ccLo4wHn.s 			page 160


 7490 1adb C3000000 		.4byte	0xc3
 7491 1adf 02       		.byte	0x2
 7492 1ae0 23       		.byte	0x23
 7493 1ae1 00       		.uleb128 0
 7494 1ae2 18       		.uleb128 0x18
 7495 1ae3 AB1D0000 		.4byte	.LASF324
 7496 1ae7 0F       		.byte	0xf
 7497 1ae8 F604     		.2byte	0x4f6
 7498 1aea B8000000 		.4byte	0xb8
 7499 1aee 02       		.byte	0x2
 7500 1aef 23       		.byte	0x23
 7501 1af0 01       		.uleb128 0x1
 7502 1af1 18       		.uleb128 0x18
 7503 1af2 AC1A0000 		.4byte	.LASF341
 7504 1af6 0F       		.byte	0xf
 7505 1af7 FA04     		.2byte	0x4fa
 7506 1af9 B8000000 		.4byte	0xb8
 7507 1afd 02       		.byte	0x2
 7508 1afe 23       		.byte	0x23
 7509 1aff 02       		.uleb128 0x2
 7510 1b00 18       		.uleb128 0x18
 7511 1b01 92040000 		.4byte	.LASF363
 7512 1b05 0F       		.byte	0xf
 7513 1b06 FE04     		.2byte	0x4fe
 7514 1b08 29000000 		.4byte	0x29
 7515 1b0c 02       		.byte	0x2
 7516 1b0d 23       		.byte	0x23
 7517 1b0e 04       		.uleb128 0x4
 7518 1b0f 18       		.uleb128 0x18
 7519 1b10 9E130000 		.4byte	.LASF364
 7520 1b14 0F       		.byte	0xf
 7521 1b15 0205     		.2byte	0x502
 7522 1b17 29000000 		.4byte	0x29
 7523 1b1b 02       		.byte	0x2
 7524 1b1c 23       		.byte	0x23
 7525 1b1d 08       		.uleb128 0x8
 7526 1b1e 18       		.uleb128 0x18
 7527 1b1f 2A0B0000 		.4byte	.LASF404
 7528 1b23 0F       		.byte	0xf
 7529 1b24 0605     		.2byte	0x506
 7530 1b26 DE000000 		.4byte	0xde
 7531 1b2a 02       		.byte	0x2
 7532 1b2b 23       		.byte	0x23
 7533 1b2c 0C       		.uleb128 0xc
 7534 1b2d 00       		.byte	0
 7535 1b2e 0C       		.uleb128 0xc
 7536 1b2f 29150000 		.4byte	.LASF405
 7537 1b33 0F       		.byte	0xf
 7538 1b34 0705     		.2byte	0x507
 7539 1b36 C61A0000 		.4byte	0x1ac6
 7540 1b3a 19       		.uleb128 0x19
 7541 1b3b 8F060000 		.4byte	.LASF406
 7542 1b3f 0C       		.byte	0xc
 7543 1b40 0F       		.byte	0xf
 7544 1b41 0C05     		.2byte	0x50c
 7545 1b43 751B0000 		.4byte	0x1b75
 7546 1b47 18       		.uleb128 0x18
ARM GAS  C:\Users\EBANO_~1\AppData\Local\Temp\ccLo4wHn.s 			page 161


 7547 1b48 FC1C0000 		.4byte	.LASF407
 7548 1b4c 0F       		.byte	0xf
 7549 1b4d 1105     		.2byte	0x511
 7550 1b4f DE000000 		.4byte	0xde
 7551 1b53 02       		.byte	0x2
 7552 1b54 23       		.byte	0x23
 7553 1b55 00       		.uleb128 0
 7554 1b56 18       		.uleb128 0x18
 7555 1b57 370F0000 		.4byte	.LASF408
 7556 1b5b 0F       		.byte	0xf
 7557 1b5c 1505     		.2byte	0x515
 7558 1b5e F4000000 		.4byte	0xf4
 7559 1b62 02       		.byte	0x2
 7560 1b63 23       		.byte	0x23
 7561 1b64 04       		.uleb128 0x4
 7562 1b65 18       		.uleb128 0x18
 7563 1b66 CD1C0000 		.4byte	.LASF210
 7564 1b6a 0F       		.byte	0xf
 7565 1b6b 1905     		.2byte	0x519
 7566 1b6d F4000000 		.4byte	0xf4
 7567 1b71 02       		.byte	0x2
 7568 1b72 23       		.byte	0x23
 7569 1b73 08       		.uleb128 0x8
 7570 1b74 00       		.byte	0
 7571 1b75 0C       		.uleb128 0xc
 7572 1b76 521F0000 		.4byte	.LASF409
 7573 1b7a 0F       		.byte	0xf
 7574 1b7b 1A05     		.2byte	0x51a
 7575 1b7d 3A1B0000 		.4byte	0x1b3a
 7576 1b81 11       		.uleb128 0x11
 7577 1b82 251B0000 		.4byte	.LASF410
 7578 1b86 06       		.byte	0x6
 7579 1b87 10       		.byte	0x10
 7580 1b88 2B       		.byte	0x2b
 7581 1b89 D41B0000 		.4byte	0x1bd4
 7582 1b8d 10       		.uleb128 0x10
 7583 1b8e 1C050000 		.4byte	.LASF411
 7584 1b92 10       		.byte	0x10
 7585 1b93 30       		.byte	0x30
 7586 1b94 C3000000 		.4byte	0xc3
 7587 1b98 02       		.byte	0x2
 7588 1b99 23       		.byte	0x23
 7589 1b9a 00       		.uleb128 0
 7590 1b9b 10       		.uleb128 0x10
 7591 1b9c AB1D0000 		.4byte	.LASF324
 7592 1ba0 10       		.byte	0x10
 7593 1ba1 34       		.byte	0x34
 7594 1ba2 B8000000 		.4byte	0xb8
 7595 1ba6 02       		.byte	0x2
 7596 1ba7 23       		.byte	0x23
 7597 1ba8 01       		.uleb128 0x1
 7598 1ba9 10       		.uleb128 0x10
 7599 1baa AC1A0000 		.4byte	.LASF341
 7600 1bae 10       		.byte	0x10
 7601 1baf 38       		.byte	0x38
 7602 1bb0 B8000000 		.4byte	0xb8
 7603 1bb4 02       		.byte	0x2
ARM GAS  C:\Users\EBANO_~1\AppData\Local\Temp\ccLo4wHn.s 			page 162


 7604 1bb5 23       		.byte	0x23
 7605 1bb6 02       		.uleb128 0x2
 7606 1bb7 10       		.uleb128 0x10
 7607 1bb8 CE080000 		.4byte	.LASF412
 7608 1bbc 10       		.byte	0x10
 7609 1bbd 3C       		.byte	0x3c
 7610 1bbe C3000000 		.4byte	0xc3
 7611 1bc2 02       		.byte	0x2
 7612 1bc3 23       		.byte	0x23
 7613 1bc4 03       		.uleb128 0x3
 7614 1bc5 10       		.uleb128 0x10
 7615 1bc6 1A0E0000 		.4byte	.LASF413
 7616 1bca 10       		.byte	0x10
 7617 1bcb 40       		.byte	0x40
 7618 1bcc DE000000 		.4byte	0xde
 7619 1bd0 02       		.byte	0x2
 7620 1bd1 23       		.byte	0x23
 7621 1bd2 04       		.uleb128 0x4
 7622 1bd3 00       		.byte	0
 7623 1bd4 03       		.uleb128 0x3
 7624 1bd5 5D0C0000 		.4byte	.LASF414
 7625 1bd9 10       		.byte	0x10
 7626 1bda 41       		.byte	0x41
 7627 1bdb 811B0000 		.4byte	0x1b81
 7628 1bdf 11       		.uleb128 0x11
 7629 1be0 14000000 		.4byte	.LASF415
 7630 1be4 20       		.byte	0x20
 7631 1be5 10       		.byte	0x10
 7632 1be6 43       		.byte	0x43
 7633 1be7 CC1C0000 		.4byte	0x1ccc
 7634 1beb 10       		.uleb128 0x10
 7635 1bec AE080000 		.4byte	.LASF368
 7636 1bf0 10       		.byte	0x10
 7637 1bf1 48       		.byte	0x48
 7638 1bf2 110B0000 		.4byte	0xb11
 7639 1bf6 02       		.byte	0x2
 7640 1bf7 23       		.byte	0x23
 7641 1bf8 00       		.uleb128 0
 7642 1bf9 10       		.uleb128 0x10
 7643 1bfa 22150000 		.4byte	.LASF416
 7644 1bfe 10       		.byte	0x10
 7645 1bff 4C       		.byte	0x4c
 7646 1c00 C3000000 		.4byte	0xc3
 7647 1c04 02       		.byte	0x2
 7648 1c05 23       		.byte	0x23
 7649 1c06 04       		.uleb128 0x4
 7650 1c07 10       		.uleb128 0x10
 7651 1c08 EA010000 		.4byte	.LASF370
 7652 1c0c 10       		.byte	0x10
 7653 1c0d 50       		.byte	0x50
 7654 1c0e 1C0B0000 		.4byte	0xb1c
 7655 1c12 02       		.byte	0x2
 7656 1c13 23       		.byte	0x23
 7657 1c14 05       		.uleb128 0x5
 7658 1c15 10       		.uleb128 0x10
 7659 1c16 AB1D0000 		.4byte	.LASF324
 7660 1c1a 10       		.byte	0x10
ARM GAS  C:\Users\EBANO_~1\AppData\Local\Temp\ccLo4wHn.s 			page 163


 7661 1c1b 54       		.byte	0x54
 7662 1c1c B8000000 		.4byte	0xb8
 7663 1c20 02       		.byte	0x2
 7664 1c21 23       		.byte	0x23
 7665 1c22 06       		.uleb128 0x6
 7666 1c23 10       		.uleb128 0x10
 7667 1c24 AC1A0000 		.4byte	.LASF341
 7668 1c28 10       		.byte	0x10
 7669 1c29 58       		.byte	0x58
 7670 1c2a B8000000 		.4byte	0xb8
 7671 1c2e 02       		.byte	0x2
 7672 1c2f 23       		.byte	0x23
 7673 1c30 07       		.uleb128 0x7
 7674 1c31 10       		.uleb128 0x10
 7675 1c32 1C050000 		.4byte	.LASF411
 7676 1c36 10       		.byte	0x10
 7677 1c37 5C       		.byte	0x5c
 7678 1c38 C3000000 		.4byte	0xc3
 7679 1c3c 02       		.byte	0x2
 7680 1c3d 23       		.byte	0x23
 7681 1c3e 08       		.uleb128 0x8
 7682 1c3f 10       		.uleb128 0x10
 7683 1c40 370B0000 		.4byte	.LASF371
 7684 1c44 10       		.byte	0x10
 7685 1c45 60       		.byte	0x60
 7686 1c46 B8000000 		.4byte	0xb8
 7687 1c4a 02       		.byte	0x2
 7688 1c4b 23       		.byte	0x23
 7689 1c4c 09       		.uleb128 0x9
 7690 1c4d 10       		.uleb128 0x10
 7691 1c4e A0140000 		.4byte	.LASF372
 7692 1c52 10       		.byte	0x10
 7693 1c53 64       		.byte	0x64
 7694 1c54 B8000000 		.4byte	0xb8
 7695 1c58 02       		.byte	0x2
 7696 1c59 23       		.byte	0x23
 7697 1c5a 0A       		.uleb128 0xa
 7698 1c5b 10       		.uleb128 0x10
 7699 1c5c 491E0000 		.4byte	.LASF373
 7700 1c60 10       		.byte	0x10
 7701 1c61 68       		.byte	0x68
 7702 1c62 B8000000 		.4byte	0xb8
 7703 1c66 02       		.byte	0x2
 7704 1c67 23       		.byte	0x23
 7705 1c68 0B       		.uleb128 0xb
 7706 1c69 10       		.uleb128 0x10
 7707 1c6a 8E0C0000 		.4byte	.LASF417
 7708 1c6e 10       		.byte	0x10
 7709 1c6f 6C       		.byte	0x6c
 7710 1c70 C3000000 		.4byte	0xc3
 7711 1c74 02       		.byte	0x2
 7712 1c75 23       		.byte	0x23
 7713 1c76 0C       		.uleb128 0xc
 7714 1c77 10       		.uleb128 0x10
 7715 1c78 801D0000 		.4byte	.LASF318
 7716 1c7c 10       		.byte	0x10
 7717 1c7d 70       		.byte	0x70
ARM GAS  C:\Users\EBANO_~1\AppData\Local\Temp\ccLo4wHn.s 			page 164


 7718 1c7e 95110000 		.4byte	0x1195
 7719 1c82 02       		.byte	0x2
 7720 1c83 23       		.byte	0x23
 7721 1c84 10       		.uleb128 0x10
 7722 1c85 10       		.uleb128 0x10
 7723 1c86 A9040000 		.4byte	.LASF418
 7724 1c8a 10       		.byte	0x10
 7725 1c8b 74       		.byte	0x74
 7726 1c8c B8000000 		.4byte	0xb8
 7727 1c90 02       		.byte	0x2
 7728 1c91 23       		.byte	0x23
 7729 1c92 14       		.uleb128 0x14
 7730 1c93 10       		.uleb128 0x10
 7731 1c94 23090000 		.4byte	.LASF419
 7732 1c98 10       		.byte	0x10
 7733 1c99 78       		.byte	0x78
 7734 1c9a B8000000 		.4byte	0xb8
 7735 1c9e 02       		.byte	0x2
 7736 1c9f 23       		.byte	0x23
 7737 1ca0 15       		.uleb128 0x15
 7738 1ca1 10       		.uleb128 0x10
 7739 1ca2 B60D0000 		.4byte	.LASF319
 7740 1ca6 10       		.byte	0x10
 7741 1ca7 7C       		.byte	0x7c
 7742 1ca8 8F110000 		.4byte	0x118f
 7743 1cac 02       		.byte	0x2
 7744 1cad 23       		.byte	0x23
 7745 1cae 18       		.uleb128 0x18
 7746 1caf 10       		.uleb128 0x10
 7747 1cb0 A4020000 		.4byte	.LASF420
 7748 1cb4 10       		.byte	0x10
 7749 1cb5 80       		.byte	0x80
 7750 1cb6 B8000000 		.4byte	0xb8
 7751 1cba 02       		.byte	0x2
 7752 1cbb 23       		.byte	0x23
 7753 1cbc 1C       		.uleb128 0x1c
 7754 1cbd 10       		.uleb128 0x10
 7755 1cbe 55050000 		.4byte	.LASF421
 7756 1cc2 10       		.byte	0x10
 7757 1cc3 84       		.byte	0x84
 7758 1cc4 B8000000 		.4byte	0xb8
 7759 1cc8 02       		.byte	0x2
 7760 1cc9 23       		.byte	0x23
 7761 1cca 1D       		.uleb128 0x1d
 7762 1ccb 00       		.byte	0
 7763 1ccc 03       		.uleb128 0x3
 7764 1ccd 7B140000 		.4byte	.LASF422
 7765 1cd1 10       		.byte	0x10
 7766 1cd2 85       		.byte	0x85
 7767 1cd3 DF1B0000 		.4byte	0x1bdf
 7768 1cd7 11       		.uleb128 0x11
 7769 1cd8 90180000 		.4byte	.LASF423
 7770 1cdc 14       		.byte	0x14
 7771 1cdd 10       		.byte	0x10
 7772 1cde 87       		.byte	0x87
 7773 1cdf 541D0000 		.4byte	0x1d54
 7774 1ce3 10       		.uleb128 0x10
ARM GAS  C:\Users\EBANO_~1\AppData\Local\Temp\ccLo4wHn.s 			page 165


 7775 1ce4 B60D0000 		.4byte	.LASF319
 7776 1ce8 10       		.byte	0x10
 7777 1ce9 8C       		.byte	0x8c
 7778 1cea 8F110000 		.4byte	0x118f
 7779 1cee 02       		.byte	0x2
 7780 1cef 23       		.byte	0x23
 7781 1cf0 00       		.uleb128 0
 7782 1cf1 10       		.uleb128 0x10
 7783 1cf2 AF140000 		.4byte	.LASF424
 7784 1cf6 10       		.byte	0x10
 7785 1cf7 90       		.byte	0x90
 7786 1cf8 541D0000 		.4byte	0x1d54
 7787 1cfc 02       		.byte	0x2
 7788 1cfd 23       		.byte	0x23
 7789 1cfe 04       		.uleb128 0x4
 7790 1cff 10       		.uleb128 0x10
 7791 1d00 7F210000 		.4byte	.LASF390
 7792 1d04 10       		.byte	0x10
 7793 1d05 94       		.byte	0x94
 7794 1d06 1C0B0000 		.4byte	0xb1c
 7795 1d0a 02       		.byte	0x2
 7796 1d0b 23       		.byte	0x23
 7797 1d0c 08       		.uleb128 0x8
 7798 1d0d 10       		.uleb128 0x10
 7799 1d0e 75110000 		.4byte	.LASF330
 7800 1d12 10       		.byte	0x10
 7801 1d13 98       		.byte	0x98
 7802 1d14 1C0B0000 		.4byte	0xb1c
 7803 1d18 02       		.byte	0x2
 7804 1d19 23       		.byte	0x23
 7805 1d1a 09       		.uleb128 0x9
 7806 1d1b 10       		.uleb128 0x10
 7807 1d1c F4130000 		.4byte	.LASF391
 7808 1d20 10       		.byte	0x10
 7809 1d21 9C       		.byte	0x9c
 7810 1d22 1C0B0000 		.4byte	0xb1c
 7811 1d26 02       		.byte	0x2
 7812 1d27 23       		.byte	0x23
 7813 1d28 0A       		.uleb128 0xa
 7814 1d29 10       		.uleb128 0x10
 7815 1d2a 86190000 		.4byte	.LASF329
 7816 1d2e 10       		.byte	0x10
 7817 1d2f A0       		.byte	0xa0
 7818 1d30 C3000000 		.4byte	0xc3
 7819 1d34 02       		.byte	0x2
 7820 1d35 23       		.byte	0x23
 7821 1d36 0B       		.uleb128 0xb
 7822 1d37 10       		.uleb128 0x10
 7823 1d38 900E0000 		.4byte	.LASF392
 7824 1d3c 10       		.byte	0x10
 7825 1d3d A4       		.byte	0xa4
 7826 1d3e 9E0A0000 		.4byte	0xa9e
 7827 1d42 02       		.byte	0x2
 7828 1d43 23       		.byte	0x23
 7829 1d44 0C       		.uleb128 0xc
 7830 1d45 10       		.uleb128 0x10
 7831 1d46 09020000 		.4byte	.LASF393
ARM GAS  C:\Users\EBANO_~1\AppData\Local\Temp\ccLo4wHn.s 			page 166


 7832 1d4a 10       		.byte	0x10
 7833 1d4b A8       		.byte	0xa8
 7834 1d4c 9E0A0000 		.4byte	0xa9e
 7835 1d50 02       		.byte	0x2
 7836 1d51 23       		.byte	0x23
 7837 1d52 10       		.uleb128 0x10
 7838 1d53 00       		.byte	0
 7839 1d54 0A       		.uleb128 0xa
 7840 1d55 04       		.byte	0x4
 7841 1d56 7C0B0000 		.4byte	0xb7c
 7842 1d5a 03       		.uleb128 0x3
 7843 1d5b 631B0000 		.4byte	.LASF425
 7844 1d5f 10       		.byte	0x10
 7845 1d60 A9       		.byte	0xa9
 7846 1d61 D71C0000 		.4byte	0x1cd7
 7847 1d65 11       		.uleb128 0x11
 7848 1d66 3E040000 		.4byte	.LASF426
 7849 1d6a 14       		.byte	0x14
 7850 1d6b 10       		.byte	0x10
 7851 1d6c AB       		.byte	0xab
 7852 1d6d D41D0000 		.4byte	0x1dd4
 7853 1d71 10       		.uleb128 0x10
 7854 1d72 91000000 		.4byte	.LASF427
 7855 1d76 10       		.byte	0x10
 7856 1d77 B0       		.byte	0xb0
 7857 1d78 D41D0000 		.4byte	0x1dd4
 7858 1d7c 02       		.byte	0x2
 7859 1d7d 23       		.byte	0x23
 7860 1d7e 00       		.uleb128 0
 7861 1d7f 10       		.uleb128 0x10
 7862 1d80 CD1C0000 		.4byte	.LASF210
 7863 1d84 10       		.byte	0x10
 7864 1d85 B4       		.byte	0xb4
 7865 1d86 F4000000 		.4byte	0xf4
 7866 1d8a 02       		.byte	0x2
 7867 1d8b 23       		.byte	0x23
 7868 1d8c 04       		.uleb128 0x4
 7869 1d8d 10       		.uleb128 0x10
 7870 1d8e 5F040000 		.4byte	.LASF312
 7871 1d92 10       		.byte	0x10
 7872 1d93 B8       		.byte	0xb8
 7873 1d94 C3000000 		.4byte	0xc3
 7874 1d98 02       		.byte	0x2
 7875 1d99 23       		.byte	0x23
 7876 1d9a 08       		.uleb128 0x8
 7877 1d9b 10       		.uleb128 0x10
 7878 1d9c DD060000 		.4byte	.LASF428
 7879 1da0 10       		.byte	0x10
 7880 1da1 BC       		.byte	0xbc
 7881 1da2 C3000000 		.4byte	0xc3
 7882 1da6 02       		.byte	0x2
 7883 1da7 23       		.byte	0x23
 7884 1da8 09       		.uleb128 0x9
 7885 1da9 10       		.uleb128 0x10
 7886 1daa 21130000 		.4byte	.LASF429
 7887 1dae 10       		.byte	0x10
 7888 1daf C0       		.byte	0xc0
ARM GAS  C:\Users\EBANO_~1\AppData\Local\Temp\ccLo4wHn.s 			page 167


 7889 1db0 C3000000 		.4byte	0xc3
 7890 1db4 02       		.byte	0x2
 7891 1db5 23       		.byte	0x23
 7892 1db6 0A       		.uleb128 0xa
 7893 1db7 10       		.uleb128 0x10
 7894 1db8 370F0000 		.4byte	.LASF408
 7895 1dbc 10       		.byte	0x10
 7896 1dbd C4       		.byte	0xc4
 7897 1dbe F4000000 		.4byte	0xf4
 7898 1dc2 02       		.byte	0x2
 7899 1dc3 23       		.byte	0x23
 7900 1dc4 0C       		.uleb128 0xc
 7901 1dc5 10       		.uleb128 0x10
 7902 1dc6 FC1C0000 		.4byte	.LASF407
 7903 1dca 10       		.byte	0x10
 7904 1dcb C8       		.byte	0xc8
 7905 1dcc DE000000 		.4byte	0xde
 7906 1dd0 02       		.byte	0x2
 7907 1dd1 23       		.byte	0x23
 7908 1dd2 10       		.uleb128 0x10
 7909 1dd3 00       		.byte	0
 7910 1dd4 0A       		.uleb128 0xa
 7911 1dd5 04       		.byte	0x4
 7912 1dd6 CE000000 		.4byte	0xce
 7913 1dda 03       		.uleb128 0x3
 7914 1ddb 68010000 		.4byte	.LASF430
 7915 1ddf 10       		.byte	0x10
 7916 1de0 C9       		.byte	0xc9
 7917 1de1 651D0000 		.4byte	0x1d65
 7918 1de5 07       		.uleb128 0x7
 7919 1de6 CE000000 		.4byte	0xce
 7920 1dea F51D0000 		.4byte	0x1df5
 7921 1dee 08       		.uleb128 0x8
 7922 1def B1000000 		.4byte	0xb1
 7923 1df3 05       		.byte	0x5
 7924 1df4 00       		.byte	0
 7925 1df5 05       		.uleb128 0x5
 7926 1df6 E51D0000 		.4byte	0x1de5
 7927 1dfa 29       		.uleb128 0x29
 7928 1dfb 0B070000 		.4byte	.LASF432
 7929 1dff 11       		.byte	0x11
 7930 1e00 1901     		.2byte	0x119
 7931 1e02 F51D0000 		.4byte	0x1df5
 7932 1e06 05       		.byte	0x5
 7933 1e07 03       		.byte	0x3
 7934 1e08 C4000000 		.4byte	DataratesKR920
 7935 1e0c 07       		.uleb128 0x7
 7936 1e0d FF000000 		.4byte	0xff
 7937 1e11 1C1E0000 		.4byte	0x1e1c
 7938 1e15 08       		.uleb128 0x8
 7939 1e16 B1000000 		.4byte	0xb1
 7940 1e1a 05       		.byte	0x5
 7941 1e1b 00       		.byte	0
 7942 1e1c 05       		.uleb128 0x5
 7943 1e1d 0C1E0000 		.4byte	0x1e0c
 7944 1e21 29       		.uleb128 0x29
 7945 1e22 EB080000 		.4byte	.LASF433
ARM GAS  C:\Users\EBANO_~1\AppData\Local\Temp\ccLo4wHn.s 			page 168


 7946 1e26 11       		.byte	0x11
 7947 1e27 1E01     		.2byte	0x11e
 7948 1e29 1C1E0000 		.4byte	0x1e1c
 7949 1e2d 05       		.byte	0x5
 7950 1e2e 03       		.byte	0x3
 7951 1e2f AC000000 		.4byte	BandwidthsKR920
 7952 1e33 29       		.uleb128 0x29
 7953 1e34 E6190000 		.4byte	.LASF434
 7954 1e38 11       		.byte	0x11
 7955 1e39 2301     		.2byte	0x123
 7956 1e3b F51D0000 		.4byte	0x1df5
 7957 1e3f 05       		.byte	0x5
 7958 1e40 03       		.byte	0x3
 7959 1e41 CC000000 		.4byte	MaxPayloadOfDatarateKR920
 7960 1e45 29       		.uleb128 0x29
 7961 1e46 FF120000 		.4byte	.LASF435
 7962 1e4a 11       		.byte	0x11
 7963 1e4b 2801     		.2byte	0x128
 7964 1e4d F51D0000 		.4byte	0x1df5
 7965 1e51 05       		.byte	0x5
 7966 1e52 03       		.byte	0x3
 7967 1e53 D4000000 		.4byte	MaxPayloadOfDatarateRepeaterKR920
 7968 1e57 11       		.uleb128 0x11
 7969 1e58 0B010000 		.4byte	.LASF436
 7970 1e5c D4       		.byte	0xd4
 7971 1e5d 01       		.byte	0x1
 7972 1e5e 2B       		.byte	0x2b
 7973 1e5f 9F1E0000 		.4byte	0x1e9f
 7974 1e63 10       		.uleb128 0x10
 7975 1e64 B60D0000 		.4byte	.LASF319
 7976 1e68 01       		.byte	0x1
 7977 1e69 30       		.byte	0x30
 7978 1e6a 9F1E0000 		.4byte	0x1e9f
 7979 1e6e 02       		.byte	0x2
 7980 1e6f 23       		.byte	0x23
 7981 1e70 00       		.uleb128 0
 7982 1e71 10       		.uleb128 0x10
 7983 1e72 AF140000 		.4byte	.LASF424
 7984 1e76 01       		.byte	0x1
 7985 1e77 34       		.byte	0x34
 7986 1e78 AF1E0000 		.4byte	0x1eaf
 7987 1e7c 03       		.byte	0x3
 7988 1e7d 23       		.byte	0x23
 7989 1e7e C001     		.uleb128 0xc0
 7990 1e80 10       		.uleb128 0x10
 7991 1e81 801D0000 		.4byte	.LASF318
 7992 1e85 01       		.byte	0x1
 7993 1e86 38       		.byte	0x38
 7994 1e87 BF1E0000 		.4byte	0x1ebf
 7995 1e8b 03       		.byte	0x3
 7996 1e8c 23       		.byte	0x23
 7997 1e8d D001     		.uleb128 0xd0
 7998 1e8f 10       		.uleb128 0x10
 7999 1e90 CC150000 		.4byte	.LASF437
 8000 1e94 01       		.byte	0x1
 8001 1e95 3C       		.byte	0x3c
 8002 1e96 BF1E0000 		.4byte	0x1ebf
ARM GAS  C:\Users\EBANO_~1\AppData\Local\Temp\ccLo4wHn.s 			page 169


 8003 1e9a 03       		.byte	0x3
 8004 1e9b 23       		.byte	0x23
 8005 1e9c D201     		.uleb128 0xd2
 8006 1e9e 00       		.byte	0
 8007 1e9f 07       		.uleb128 0x7
 8008 1ea0 48110000 		.4byte	0x1148
 8009 1ea4 AF1E0000 		.4byte	0x1eaf
 8010 1ea8 08       		.uleb128 0x8
 8011 1ea9 B1000000 		.4byte	0xb1
 8012 1ead 0F       		.byte	0xf
 8013 1eae 00       		.byte	0
 8014 1eaf 07       		.uleb128 0x7
 8015 1eb0 7C0B0000 		.4byte	0xb7c
 8016 1eb4 BF1E0000 		.4byte	0x1ebf
 8017 1eb8 08       		.uleb128 0x8
 8018 1eb9 B1000000 		.4byte	0xb1
 8019 1ebd 00       		.byte	0
 8020 1ebe 00       		.byte	0
 8021 1ebf 07       		.uleb128 0x7
 8022 1ec0 DE000000 		.4byte	0xde
 8023 1ec4 CF1E0000 		.4byte	0x1ecf
 8024 1ec8 08       		.uleb128 0x8
 8025 1ec9 B1000000 		.4byte	0xb1
 8026 1ecd 00       		.byte	0
 8027 1ece 00       		.byte	0
 8028 1ecf 03       		.uleb128 0x3
 8029 1ed0 251F0000 		.4byte	.LASF438
 8030 1ed4 01       		.byte	0x1
 8031 1ed5 3D       		.byte	0x3d
 8032 1ed6 571E0000 		.4byte	0x1e57
 8033 1eda 2A       		.uleb128 0x2a
 8034 1edb 4B1F0000 		.4byte	.LASF333
 8035 1edf 01       		.byte	0x1
 8036 1ee0 42       		.byte	0x42
 8037 1ee1 CF1E0000 		.4byte	0x1ecf
 8038 1ee5 05       		.byte	0x5
 8039 1ee6 03       		.byte	0x3
 8040 1ee7 00000000 		.4byte	NvmCtx
 8041 1eeb 2B       		.uleb128 0x2b
 8042 1eec 01       		.byte	0x1
 8043 1eed 88170000 		.4byte	.LASF445
 8044 1ef1 01       		.byte	0x1
 8045 1ef2 F703     		.2byte	0x3f7
 8046 1ef4 01       		.byte	0x1
 8047 1ef5 00000000 		.4byte	.LFB67
 8048 1ef9 38000000 		.4byte	.LFE67
 8049 1efd 00000000 		.4byte	.LLST136
 8050 1f01 01       		.byte	0x1
 8051 1f02 461F0000 		.4byte	0x1f46
 8052 1f06 2C       		.uleb128 0x2c
 8053 1f07 591C0000 		.4byte	.LASF439
 8054 1f0b 01       		.byte	0x1
 8055 1f0c F703     		.2byte	0x3f7
 8056 1f0e 461F0000 		.4byte	0x1f46
 8057 1f12 2C000000 		.4byte	.LLST137
 8058 1f16 2C       		.uleb128 0x2c
 8059 1f17 530E0000 		.4byte	.LASF440
ARM GAS  C:\Users\EBANO_~1\AppData\Local\Temp\ccLo4wHn.s 			page 170


 8060 1f1b 01       		.byte	0x1
 8061 1f1c F703     		.2byte	0x3f7
 8062 1f1e 8B0A0000 		.4byte	0xa8b
 8063 1f22 4D000000 		.4byte	.LLST138
 8064 1f26 29       		.uleb128 0x29
 8065 1f27 1F1E0000 		.4byte	.LASF441
 8066 1f2b 01       		.byte	0x1
 8067 1f2c F903     		.2byte	0x3f9
 8068 1f2e DA1D0000 		.4byte	0x1dda
 8069 1f32 02       		.byte	0x2
 8070 1f33 91       		.byte	0x91
 8071 1f34 64       		.sleb128 -28
 8072 1f35 2D       		.uleb128 0x2d
 8073 1f36 28000000 		.4byte	.LVL355
 8074 1f3a 95330000 		.4byte	0x3395
 8075 1f3e 2E       		.uleb128 0x2e
 8076 1f3f 01       		.byte	0x1
 8077 1f40 50       		.byte	0x50
 8078 1f41 02       		.byte	0x2
 8079 1f42 91       		.byte	0x91
 8080 1f43 64       		.sleb128 -28
 8081 1f44 00       		.byte	0
 8082 1f45 00       		.byte	0
 8083 1f46 0A       		.uleb128 0xa
 8084 1f47 04       		.byte	0x4
 8085 1f48 751B0000 		.4byte	0x1b75
 8086 1f4c 2F       		.uleb128 0x2f
 8087 1f4d 01       		.byte	0x1
 8088 1f4e 90100000 		.4byte	.LASF461
 8089 1f52 01       		.byte	0x1
 8090 1f53 EC03     		.2byte	0x3ec
 8091 1f55 01       		.byte	0x1
 8092 1f56 C3000000 		.4byte	0xc3
 8093 1f5a 00000000 		.4byte	.LFB66
 8094 1f5e 0E000000 		.4byte	.LFE66
 8095 1f62 02       		.byte	0x2
 8096 1f63 7D       		.byte	0x7d
 8097 1f64 00       		.sleb128 0
 8098 1f65 01       		.byte	0x1
 8099 1f66 B21F0000 		.4byte	0x1fb2
 8100 1f6a 2C       		.uleb128 0x2c
 8101 1f6b 951A0000 		.4byte	.LASF442
 8102 1f6f 01       		.byte	0x1
 8103 1f70 EC03     		.2byte	0x3ec
 8104 1f72 C3000000 		.4byte	0xc3
 8105 1f76 79000000 		.4byte	.LLST134
 8106 1f7a 30       		.uleb128 0x30
 8107 1f7b 647200   		.ascii	"dr\000"
 8108 1f7e 01       		.byte	0x1
 8109 1f7f EC03     		.2byte	0x3ec
 8110 1f81 B8000000 		.4byte	0xb8
 8111 1f85 9A000000 		.4byte	.LLST135
 8112 1f89 31       		.uleb128 0x31
 8113 1f8a FE200000 		.4byte	.LASF443
 8114 1f8e 01       		.byte	0x1
 8115 1f8f EC03     		.2byte	0x3ec
 8116 1f91 B8000000 		.4byte	0xb8
ARM GAS  C:\Users\EBANO_~1\AppData\Local\Temp\ccLo4wHn.s 			page 171


 8117 1f95 01       		.byte	0x1
 8118 1f96 52       		.byte	0x52
 8119 1f97 29       		.uleb128 0x29
 8120 1f98 4C050000 		.4byte	.LASF444
 8121 1f9c 01       		.byte	0x1
 8122 1f9d EE03     		.2byte	0x3ee
 8123 1f9f B8000000 		.4byte	0xb8
 8124 1fa3 0D       		.byte	0xd
 8125 1fa4 71       		.byte	0x71
 8126 1fa5 00       		.sleb128 0
 8127 1fa6 12       		.byte	0x12
 8128 1fa7 30       		.byte	0x30
 8129 1fa8 16       		.byte	0x16
 8130 1fa9 14       		.byte	0x14
 8131 1faa 2B       		.byte	0x2b
 8132 1fab 28       		.byte	0x28
 8133 1fac 0100     		.2byte	0x1
 8134 1fae 16       		.byte	0x16
 8135 1faf 13       		.byte	0x13
 8136 1fb0 9F       		.byte	0x9f
 8137 1fb1 00       		.byte	0
 8138 1fb2 32       		.uleb128 0x32
 8139 1fb3 01       		.byte	0x1
 8140 1fb4 E71B0000 		.4byte	.LASF446
 8141 1fb8 01       		.byte	0x1
 8142 1fb9 DB03     		.2byte	0x3db
 8143 1fbb 01       		.byte	0x1
 8144 1fbc 00000000 		.4byte	.LFB65
 8145 1fc0 8C000000 		.4byte	.LFE65
 8146 1fc4 BB000000 		.4byte	.LLST124
 8147 1fc8 01       		.byte	0x1
 8148 1fc9 AA200000 		.4byte	0x20aa
 8149 1fcd 2C       		.uleb128 0x2c
 8150 1fce 75060000 		.4byte	.LASF447
 8151 1fd2 01       		.byte	0x1
 8152 1fd3 DB03     		.2byte	0x3db
 8153 1fd5 AA200000 		.4byte	0x20aa
 8154 1fd9 F3000000 		.4byte	.LLST125
 8155 1fdd 33       		.uleb128 0x33
 8156 1fde 29140000 		.4byte	.LASF454
 8157 1fe2 01       		.byte	0x1
 8158 1fe3 DD03     		.2byte	0x3dd
 8159 1fe5 B8000000 		.4byte	0xb8
 8160 1fe9 34       		.uleb128 0x34
 8161 1fea 76130000 		.4byte	.LASF448
 8162 1fee 01       		.byte	0x1
 8163 1fef DE03     		.2byte	0x3de
 8164 1ff1 29000000 		.4byte	0x29
 8165 1ff5 2A010000 		.4byte	.LLST126
 8166 1ff9 34       		.uleb128 0x34
 8167 1ffa 84060000 		.4byte	.LASF449
 8168 1ffe 01       		.byte	0x1
 8169 1fff DF03     		.2byte	0x3df
 8170 2001 B8000000 		.4byte	0xb8
 8171 2005 3D010000 		.4byte	.LLST127
 8172 2009 34       		.uleb128 0x34
 8173 200a 14200000 		.4byte	.LASF450
ARM GAS  C:\Users\EBANO_~1\AppData\Local\Temp\ccLo4wHn.s 			page 172


 8174 200e 01       		.byte	0x1
 8175 200f E003     		.2byte	0x3e0
 8176 2011 F4000000 		.4byte	0xf4
 8177 2015 5C010000 		.4byte	.LLST128
 8178 2019 35       		.uleb128 0x35
 8179 201a 0E310000 		.4byte	0x310e
 8180 201e 1C000000 		.4byte	.LBB187
 8181 2022 A0020000 		.4byte	.Ldebug_ranges0+0x2a0
 8182 2026 01       		.byte	0x1
 8183 2027 DD03     		.2byte	0x3dd
 8184 2029 64200000 		.4byte	0x2064
 8185 202d 36       		.uleb128 0x36
 8186 202e 35310000 		.4byte	0x3135
 8187 2032 6F010000 		.4byte	.LLST129
 8188 2036 37       		.uleb128 0x37
 8189 2037 40310000 		.4byte	0x3140
 8190 203b 06       		.byte	0x6
 8191 203c 03       		.byte	0x3
 8192 203d D0000000 		.4byte	NvmCtx+208
 8193 2041 9F       		.byte	0x9f
 8194 2042 36       		.uleb128 0x36
 8195 2043 2A310000 		.4byte	0x312a
 8196 2047 9B010000 		.4byte	.LLST130
 8197 204b 36       		.uleb128 0x36
 8198 204c 1F310000 		.4byte	0x311f
 8199 2050 C6010000 		.4byte	.LLST131
 8200 2054 38       		.uleb128 0x38
 8201 2055 A0020000 		.4byte	.Ldebug_ranges0+0x2a0
 8202 2059 39       		.uleb128 0x39
 8203 205a 4B310000 		.4byte	0x314b
 8204 205e C6010000 		.4byte	.LLST131
 8205 2062 00       		.byte	0
 8206 2063 00       		.byte	0
 8207 2064 35       		.uleb128 0x35
 8208 2065 74310000 		.4byte	0x3174
 8209 2069 34000000 		.4byte	.LBB192
 8210 206d C0020000 		.4byte	.Ldebug_ranges0+0x2c0
 8211 2071 01       		.byte	0x1
 8212 2072 DE03     		.2byte	0x3de
 8213 2074 82200000 		.4byte	0x2082
 8214 2078 36       		.uleb128 0x36
 8215 2079 85310000 		.4byte	0x3185
 8216 207d E6010000 		.4byte	.LLST133
 8217 2081 00       		.byte	0
 8218 2082 3A       		.uleb128 0x3a
 8219 2083 5A000000 		.4byte	.LVL342
 8220 2087 A3330000 		.4byte	0x33a3
 8221 208b 9D200000 		.4byte	0x209d
 8222 208f 2E       		.uleb128 0x2e
 8223 2090 01       		.byte	0x1
 8224 2091 50       		.byte	0x50
 8225 2092 02       		.byte	0x2
 8226 2093 76       		.byte	0x76
 8227 2094 00       		.sleb128 0
 8228 2095 2E       		.uleb128 0x2e
 8229 2096 01       		.byte	0x1
 8230 2097 51       		.byte	0x51
ARM GAS  C:\Users\EBANO_~1\AppData\Local\Temp\ccLo4wHn.s 			page 173


 8231 2098 03       		.byte	0x3
 8232 2099 F5       		.byte	0xf5
 8233 209a 05       		.uleb128 0x5
 8234 209b 29       		.uleb128 0x29
 8235 209c 00       		.byte	0
 8236 209d 3B       		.uleb128 0x3b
 8237 209e 68000000 		.4byte	.LVL344
 8238 20a2 2E       		.uleb128 0x2e
 8239 20a3 01       		.byte	0x1
 8240 20a4 50       		.byte	0x50
 8241 20a5 02       		.byte	0x2
 8242 20a6 77       		.byte	0x77
 8243 20a7 00       		.sleb128 0
 8244 20a8 00       		.byte	0
 8245 20a9 00       		.byte	0
 8246 20aa 0A       		.uleb128 0xa
 8247 20ab 04       		.byte	0x4
 8248 20ac 2E1B0000 		.4byte	0x1b2e
 8249 20b0 3C       		.uleb128 0x3c
 8250 20b1 01       		.byte	0x1
 8251 20b2 BF160000 		.4byte	.LASF455
 8252 20b6 01       		.byte	0x1
 8253 20b7 CC03     		.2byte	0x3cc
 8254 20b9 01       		.byte	0x1
 8255 20ba 1C0B0000 		.4byte	0xb1c
 8256 20be 01       		.byte	0x1
 8257 20bf DB200000 		.4byte	0x20db
 8258 20c3 3D       		.uleb128 0x3d
 8259 20c4 E91F0000 		.4byte	.LASF457
 8260 20c8 01       		.byte	0x1
 8261 20c9 CC03     		.2byte	0x3cc
 8262 20cb DB200000 		.4byte	0x20db
 8263 20cf 3E       		.uleb128 0x3e
 8264 20d0 696400   		.ascii	"id\000"
 8265 20d3 01       		.byte	0x1
 8266 20d4 CE03     		.2byte	0x3ce
 8267 20d6 C3000000 		.4byte	0xc3
 8268 20da 00       		.byte	0
 8269 20db 0A       		.uleb128 0xa
 8270 20dc 04       		.byte	0x4
 8271 20dd BA1A0000 		.4byte	0x1aba
 8272 20e1 3C       		.uleb128 0x3c
 8273 20e2 01       		.byte	0x1
 8274 20e3 40150000 		.4byte	.LASF456
 8275 20e7 01       		.byte	0x1
 8276 20e8 9103     		.2byte	0x391
 8277 20ea 01       		.byte	0x1
 8278 20eb 38120000 		.4byte	0x1238
 8279 20ef 01       		.byte	0x1
 8280 20f0 24210000 		.4byte	0x2124
 8281 20f4 3D       		.uleb128 0x3d
 8282 20f5 D8130000 		.4byte	.LASF458
 8283 20f9 01       		.byte	0x1
 8284 20fa 9103     		.2byte	0x391
 8285 20fc 24210000 		.4byte	0x2124
 8286 2100 33       		.uleb128 0x33
 8287 2101 75210000 		.4byte	.LASF459
ARM GAS  C:\Users\EBANO_~1\AppData\Local\Temp\ccLo4wHn.s 			page 174


 8288 2105 01       		.byte	0x1
 8289 2106 9303     		.2byte	0x393
 8290 2108 1C0B0000 		.4byte	0xb1c
 8291 210c 33       		.uleb128 0x33
 8292 210d 49210000 		.4byte	.LASF460
 8293 2111 01       		.byte	0x1
 8294 2112 9403     		.2byte	0x394
 8295 2114 1C0B0000 		.4byte	0xb1c
 8296 2118 3E       		.uleb128 0x3e
 8297 2119 696400   		.ascii	"id\000"
 8298 211c 01       		.byte	0x1
 8299 211d 9503     		.2byte	0x395
 8300 211f C3000000 		.4byte	0xc3
 8301 2123 00       		.byte	0
 8302 2124 0A       		.uleb128 0xa
 8303 2125 04       		.byte	0x4
 8304 2126 911A0000 		.4byte	0x1a91
 8305 212a 3F       		.uleb128 0x3f
 8306 212b 01       		.byte	0x1
 8307 212c D50D0000 		.4byte	.LASF462
 8308 2130 01       		.byte	0x1
 8309 2131 4F03     		.2byte	0x34f
 8310 2133 01       		.byte	0x1
 8311 2134 38120000 		.4byte	0x1238
 8312 2138 00000000 		.4byte	.LFB62
 8313 213c 08020000 		.4byte	.LFE62
 8314 2140 04020000 		.4byte	.LLST89
 8315 2144 01       		.byte	0x1
 8316 2145 5E230000 		.4byte	0x235e
 8317 2149 2C       		.uleb128 0x2c
 8318 214a C4180000 		.4byte	.LASF463
 8319 214e 01       		.byte	0x1
 8320 214f 4F03     		.2byte	0x34f
 8321 2151 5E230000 		.4byte	0x235e
 8322 2155 3D020000 		.4byte	.LLST90
 8323 2159 2C       		.uleb128 0x2c
 8324 215a F90F0000 		.4byte	.LASF464
 8325 215e 01       		.byte	0x1
 8326 215f 4F03     		.2byte	0x34f
 8327 2161 8B0A0000 		.4byte	0xa8b
 8328 2165 82020000 		.4byte	.LLST91
 8329 2169 2C       		.uleb128 0x2c
 8330 216a 950A0000 		.4byte	.LASF465
 8331 216e 01       		.byte	0x1
 8332 216f 4F03     		.2byte	0x34f
 8333 2171 64230000 		.4byte	0x2364
 8334 2175 A1020000 		.4byte	.LLST92
 8335 2179 2C       		.uleb128 0x2c
 8336 217a EC0D0000 		.4byte	.LASF466
 8337 217e 01       		.byte	0x1
 8338 217f 4F03     		.2byte	0x34f
 8339 2181 64230000 		.4byte	0x2364
 8340 2185 D8020000 		.4byte	.LLST93
 8341 2189 34       		.uleb128 0x34
 8342 218a E1140000 		.4byte	.LASF467
 8343 218e 01       		.byte	0x1
 8344 218f 5103     		.2byte	0x351
ARM GAS  C:\Users\EBANO_~1\AppData\Local\Temp\ccLo4wHn.s 			page 175


 8345 2191 C3000000 		.4byte	0xc3
 8346 2195 36030000 		.4byte	.LLST94
 8347 2199 34       		.uleb128 0x34
 8348 219a 65160000 		.4byte	.LASF468
 8349 219e 01       		.byte	0x1
 8350 219f 5203     		.2byte	0x352
 8351 21a1 C3000000 		.4byte	0xc3
 8352 21a5 83030000 		.4byte	.LLST95
 8353 21a9 34       		.uleb128 0x34
 8354 21aa 2F070000 		.4byte	.LASF469
 8355 21ae 01       		.byte	0x1
 8356 21af 5303     		.2byte	0x353
 8357 21b1 C3000000 		.4byte	0xc3
 8358 21b5 BB030000 		.4byte	.LLST96
 8359 21b9 29       		.uleb128 0x29
 8360 21ba 5D1A0000 		.4byte	.LASF470
 8361 21be 01       		.byte	0x1
 8362 21bf 5403     		.2byte	0x354
 8363 21c1 6A230000 		.4byte	0x236a
 8364 21c5 02       		.byte	0x2
 8365 21c6 91       		.byte	0x91
 8366 21c7 48       		.sleb128 -56
 8367 21c8 34       		.uleb128 0x34
 8368 21c9 46170000 		.4byte	.LASF471
 8369 21cd 01       		.byte	0x1
 8370 21ce 5503     		.2byte	0x355
 8371 21d0 9E0A0000 		.4byte	0xa9e
 8372 21d4 1A040000 		.4byte	.LLST97
 8373 21d8 40       		.uleb128 0x40
 8374 21d9 92010000 		.4byte	.LBB165
 8375 21dd E6010000 		.4byte	.LBE165
 8376 21e1 31220000 		.4byte	0x2231
 8377 21e5 41       		.uleb128 0x41
 8378 21e6 6900     		.ascii	"i\000"
 8379 21e8 01       		.byte	0x1
 8380 21e9 7103     		.2byte	0x371
 8381 21eb C3000000 		.4byte	0xc3
 8382 21ef 77040000 		.4byte	.LLST110
 8383 21f3 41       		.uleb128 0x41
 8384 21f4 6A00     		.ascii	"j\000"
 8385 21f6 01       		.byte	0x1
 8386 21f7 7103     		.2byte	0x371
 8387 21f9 C3000000 		.4byte	0xc3
 8388 21fd 8B040000 		.4byte	.LLST111
 8389 2201 3A       		.uleb128 0x3a
 8390 2202 9A010000 		.4byte	.LVL289
 8391 2206 B1330000 		.4byte	0x33b1
 8392 220a 1A220000 		.4byte	0x221a
 8393 220e 2E       		.uleb128 0x2e
 8394 220f 01       		.byte	0x1
 8395 2210 50       		.byte	0x50
 8396 2211 01       		.byte	0x1
 8397 2212 30       		.byte	0x30
 8398 2213 2E       		.uleb128 0x2e
 8399 2214 01       		.byte	0x1
 8400 2215 51       		.byte	0x51
 8401 2216 02       		.byte	0x2
ARM GAS  C:\Users\EBANO_~1\AppData\Local\Temp\ccLo4wHn.s 			page 176


 8402 2217 77       		.byte	0x77
 8403 2218 7F       		.sleb128 -1
 8404 2219 00       		.byte	0
 8405 221a 3B       		.uleb128 0x3b
 8406 221b D4010000 		.4byte	.LVL296
 8407 221f 2E       		.uleb128 0x2e
 8408 2220 01       		.byte	0x1
 8409 2221 50       		.byte	0x50
 8410 2222 01       		.byte	0x1
 8411 2223 31       		.byte	0x31
 8412 2224 2E       		.uleb128 0x2e
 8413 2225 01       		.byte	0x1
 8414 2226 52       		.byte	0x52
 8415 2227 02       		.byte	0x2
 8416 2228 09       		.byte	0x9
 8417 2229 BF       		.byte	0xbf
 8418 222a 2E       		.uleb128 0x2e
 8419 222b 01       		.byte	0x1
 8420 222c 53       		.byte	0x53
 8421 222d 01       		.byte	0x1
 8422 222e 36       		.byte	0x36
 8423 222f 00       		.byte	0
 8424 2230 00       		.byte	0
 8425 2231 35       		.uleb128 0x35
 8426 2232 52300000 		.4byte	0x3052
 8427 2236 70000000 		.4byte	.LBB152
 8428 223a 08020000 		.4byte	.Ldebug_ranges0+0x208
 8429 223e 01       		.byte	0x1
 8430 223f 6503     		.2byte	0x365
 8431 2241 F6220000 		.4byte	0x22f6
 8432 2245 36       		.uleb128 0x36
 8433 2246 79300000 		.4byte	0x3079
 8434 224a A9040000 		.4byte	.LLST98
 8435 224e 36       		.uleb128 0x36
 8436 224f 84300000 		.4byte	0x3084
 8437 2253 E1040000 		.4byte	.LLST99
 8438 2257 36       		.uleb128 0x36
 8439 2258 8F300000 		.4byte	0x308f
 8440 225c 19050000 		.4byte	.LLST100
 8441 2260 36       		.uleb128 0x36
 8442 2261 A5300000 		.4byte	0x30a5
 8443 2265 6A050000 		.4byte	.LLST101
 8444 2269 36       		.uleb128 0x36
 8445 226a 9A300000 		.4byte	0x309a
 8446 226e A2050000 		.4byte	.LLST102
 8447 2272 36       		.uleb128 0x36
 8448 2273 6E300000 		.4byte	0x306e
 8449 2277 F4050000 		.4byte	.LLST103
 8450 227b 36       		.uleb128 0x36
 8451 227c 63300000 		.4byte	0x3063
 8452 2280 23060000 		.4byte	.LLST104
 8453 2284 38       		.uleb128 0x38
 8454 2285 08020000 		.4byte	.Ldebug_ranges0+0x208
 8455 2289 39       		.uleb128 0x39
 8456 228a B0300000 		.4byte	0x30b0
 8457 228e 77060000 		.4byte	.LLST105
 8458 2292 39       		.uleb128 0x39
ARM GAS  C:\Users\EBANO_~1\AppData\Local\Temp\ccLo4wHn.s 			page 177


 8459 2293 BB300000 		.4byte	0x30bb
 8460 2297 EF060000 		.4byte	.LLST106
 8461 229b 42       		.uleb128 0x42
 8462 229c C6300000 		.4byte	0x30c6
 8463 22a0 28020000 		.4byte	.Ldebug_ranges0+0x228
 8464 22a4 39       		.uleb128 0x39
 8465 22a5 C7300000 		.4byte	0x30c7
 8466 22a9 50070000 		.4byte	.LLST107
 8467 22ad 39       		.uleb128 0x39
 8468 22ae D0300000 		.4byte	0x30d0
 8469 22b2 50070000 		.4byte	.LLST107
 8470 22b6 42       		.uleb128 0x42
 8471 22b7 D9300000 		.4byte	0x30d9
 8472 22bb 28020000 		.4byte	.Ldebug_ranges0+0x228
 8473 22bf 39       		.uleb128 0x39
 8474 22c0 DA300000 		.4byte	0x30da
 8475 22c4 7C070000 		.4byte	.LLST109
 8476 22c8 3A       		.uleb128 0x3a
 8477 22c9 C4000000 		.4byte	.LVL270
 8478 22cd BE330000 		.4byte	0x33be
 8479 22d1 DF220000 		.4byte	0x22df
 8480 22d5 2E       		.uleb128 0x2e
 8481 22d6 01       		.byte	0x1
 8482 22d7 50       		.byte	0x50
 8483 22d8 05       		.byte	0x5
 8484 22d9 91       		.byte	0x91
 8485 22da B47F     		.sleb128 -76
 8486 22dc 94       		.byte	0x94
 8487 22dd 01       		.byte	0x1
 8488 22de 00       		.byte	0
 8489 22df 2D       		.uleb128 0x2d
 8490 22e0 6E010000 		.4byte	.LVL285
 8491 22e4 BE330000 		.4byte	0x33be
 8492 22e8 2E       		.uleb128 0x2e
 8493 22e9 01       		.byte	0x1
 8494 22ea 50       		.byte	0x50
 8495 22eb 05       		.byte	0x5
 8496 22ec 91       		.byte	0x91
 8497 22ed B47F     		.sleb128 -76
 8498 22ef 94       		.byte	0x94
 8499 22f0 01       		.byte	0x1
 8500 22f1 00       		.byte	0
 8501 22f2 00       		.byte	0
 8502 22f3 00       		.byte	0
 8503 22f4 00       		.byte	0
 8504 22f5 00       		.byte	0
 8505 22f6 3A       		.uleb128 0x3a
 8506 22f7 20000000 		.4byte	.LVL253
 8507 22fb CB330000 		.4byte	0x33cb
 8508 22ff 14230000 		.4byte	0x2314
 8509 2303 2E       		.uleb128 0x2e
 8510 2304 01       		.byte	0x1
 8511 2305 50       		.byte	0x50
 8512 2306 02       		.byte	0x2
 8513 2307 91       		.byte	0x91
 8514 2308 48       		.sleb128 -56
 8515 2309 2E       		.uleb128 0x2e
ARM GAS  C:\Users\EBANO_~1\AppData\Local\Temp\ccLo4wHn.s 			page 178


 8516 230a 01       		.byte	0x1
 8517 230b 51       		.byte	0x51
 8518 230c 01       		.byte	0x1
 8519 230d 30       		.byte	0x30
 8520 230e 2E       		.uleb128 0x2e
 8521 230f 01       		.byte	0x1
 8522 2310 52       		.byte	0x52
 8523 2311 01       		.byte	0x1
 8524 2312 40       		.byte	0x40
 8525 2313 00       		.byte	0
 8526 2314 3A       		.uleb128 0x3a
 8527 2315 2C000000 		.4byte	.LVL254
 8528 2319 DC330000 		.4byte	0x33dc
 8529 231d 32230000 		.4byte	0x2332
 8530 2321 2E       		.uleb128 0x2e
 8531 2322 01       		.byte	0x1
 8532 2323 50       		.byte	0x50
 8533 2324 02       		.byte	0x2
 8534 2325 75       		.byte	0x75
 8535 2326 00       		.sleb128 0
 8536 2327 2E       		.uleb128 0x2e
 8537 2328 01       		.byte	0x1
 8538 2329 51       		.byte	0x51
 8539 232a 01       		.byte	0x1
 8540 232b 30       		.byte	0x30
 8541 232c 2E       		.uleb128 0x2e
 8542 232d 01       		.byte	0x1
 8543 232e 52       		.byte	0x52
 8544 232f 01       		.byte	0x1
 8545 2330 31       		.byte	0x31
 8546 2331 00       		.byte	0
 8547 2332 43       		.uleb128 0x43
 8548 2333 44000000 		.4byte	.LVL255
 8549 2337 EA330000 		.4byte	0x33ea
 8550 233b 3A       		.uleb128 0x3a
 8551 233c 5C000000 		.4byte	.LVL256
 8552 2340 F7330000 		.4byte	0x33f7
 8553 2344 54230000 		.4byte	0x2354
 8554 2348 2E       		.uleb128 0x2e
 8555 2349 01       		.byte	0x1
 8556 234a 52       		.byte	0x52
 8557 234b 02       		.byte	0x2
 8558 234c 78       		.byte	0x78
 8559 234d 00       		.sleb128 0
 8560 234e 2E       		.uleb128 0x2e
 8561 234f 01       		.byte	0x1
 8562 2350 53       		.byte	0x53
 8563 2351 01       		.byte	0x1
 8564 2352 31       		.byte	0x31
 8565 2353 00       		.byte	0
 8566 2354 43       		.uleb128 0x43
 8567 2355 1C010000 		.4byte	.LVL276
 8568 2359 EA330000 		.4byte	0x33ea
 8569 235d 00       		.byte	0
 8570 235e 0A       		.uleb128 0xa
 8571 235f 04       		.byte	0x4
 8572 2360 591A0000 		.4byte	0x1a59
ARM GAS  C:\Users\EBANO_~1\AppData\Local\Temp\ccLo4wHn.s 			page 179


 8573 2364 0A       		.uleb128 0xa
 8574 2365 04       		.byte	0x4
 8575 2366 9E0A0000 		.4byte	0xa9e
 8576 236a 07       		.uleb128 0x7
 8577 236b C3000000 		.4byte	0xc3
 8578 236f 7A230000 		.4byte	0x237a
 8579 2373 08       		.uleb128 0x8
 8580 2374 B1000000 		.4byte	0xb1
 8581 2378 0F       		.byte	0xf
 8582 2379 00       		.byte	0
 8583 237a 2B       		.uleb128 0x2b
 8584 237b 01       		.byte	0x1
 8585 237c F80E0000 		.4byte	.LASF472
 8586 2380 01       		.byte	0x1
 8587 2381 3F03     		.2byte	0x33f
 8588 2383 01       		.byte	0x1
 8589 2384 00000000 		.4byte	.LFB61
 8590 2388 34000000 		.4byte	.LFE61
 8591 238c 09080000 		.4byte	.LLST87
 8592 2390 01       		.byte	0x1
 8593 2391 C5230000 		.4byte	0x23c5
 8594 2395 2C       		.uleb128 0x2c
 8595 2396 1E0D0000 		.4byte	.LASF473
 8596 239a 01       		.byte	0x1
 8597 239b 3F03     		.2byte	0x33f
 8598 239d C5230000 		.4byte	0x23c5
 8599 23a1 35080000 		.4byte	.LLST88
 8600 23a5 29       		.uleb128 0x29
 8601 23a6 391F0000 		.4byte	.LASF474
 8602 23aa 01       		.byte	0x1
 8603 23ab 4103     		.2byte	0x341
 8604 23ad 5A1D0000 		.4byte	0x1d5a
 8605 23b1 02       		.byte	0x2
 8606 23b2 91       		.byte	0x91
 8607 23b3 64       		.sleb128 -28
 8608 23b4 2D       		.uleb128 0x2d
 8609 23b5 2C000000 		.4byte	.LVL248
 8610 23b9 05340000 		.4byte	0x3405
 8611 23bd 2E       		.uleb128 0x2e
 8612 23be 01       		.byte	0x1
 8613 23bf 50       		.byte	0x50
 8614 23c0 02       		.byte	0x2
 8615 23c1 91       		.byte	0x91
 8616 23c2 64       		.sleb128 -28
 8617 23c3 00       		.byte	0
 8618 23c4 00       		.byte	0
 8619 23c5 0A       		.uleb128 0xa
 8620 23c6 04       		.byte	0x4
 8621 23c7 F4190000 		.4byte	0x19f4
 8622 23cb 2F       		.uleb128 0x2f
 8623 23cc 01       		.byte	0x1
 8624 23cd EC020000 		.4byte	.LASF475
 8625 23d1 01       		.byte	0x1
 8626 23d2 3A03     		.2byte	0x33a
 8627 23d4 01       		.byte	0x1
 8628 23d5 B8000000 		.4byte	0xb8
 8629 23d9 00000000 		.4byte	.LFB60
ARM GAS  C:\Users\EBANO_~1\AppData\Local\Temp\ccLo4wHn.s 			page 180


 8630 23dd 02000000 		.4byte	.LFE60
 8631 23e1 02       		.byte	0x2
 8632 23e2 7D       		.byte	0x7d
 8633 23e3 00       		.sleb128 0
 8634 23e4 01       		.byte	0x1
 8635 23e5 06240000 		.4byte	0x2406
 8636 23e9 31       		.uleb128 0x31
 8637 23ea 05140000 		.4byte	.LASF476
 8638 23ee 01       		.byte	0x1
 8639 23ef 3A03     		.2byte	0x33a
 8640 23f1 B8000000 		.4byte	0xb8
 8641 23f5 01       		.byte	0x1
 8642 23f6 50       		.byte	0x50
 8643 23f7 31       		.uleb128 0x31
 8644 23f8 B0050000 		.4byte	.LASF477
 8645 23fc 01       		.byte	0x1
 8646 23fd 3A03     		.2byte	0x33a
 8647 23ff 80190000 		.4byte	0x1980
 8648 2403 01       		.byte	0x1
 8649 2404 51       		.byte	0x51
 8650 2405 00       		.byte	0
 8651 2406 3F       		.uleb128 0x3f
 8652 2407 01       		.byte	0x1
 8653 2408 3C010000 		.4byte	.LASF478
 8654 240c 01       		.byte	0x1
 8655 240d 2103     		.2byte	0x321
 8656 240f 01       		.byte	0x1
 8657 2410 C3000000 		.4byte	0xc3
 8658 2414 00000000 		.4byte	.LFB59
 8659 2418 74000000 		.4byte	.LFE59
 8660 241c 56080000 		.4byte	.LLST80
 8661 2420 01       		.byte	0x1
 8662 2421 A1240000 		.4byte	0x24a1
 8663 2425 2C       		.uleb128 0x2c
 8664 2426 19120000 		.4byte	.LASF479
 8665 242a 01       		.byte	0x1
 8666 242b 2103     		.2byte	0x321
 8667 242d A1240000 		.4byte	0x24a1
 8668 2431 82080000 		.4byte	.LLST81
 8669 2435 34       		.uleb128 0x34
 8670 2436 B2120000 		.4byte	.LASF480
 8671 243a 01       		.byte	0x1
 8672 243b 2303     		.2byte	0x323
 8673 243d C3000000 		.4byte	0xc3
 8674 2441 B9080000 		.4byte	.LLST82
 8675 2445 44       		.uleb128 0x44
 8676 2446 E6300000 		.4byte	0x30e6
 8677 244a 02000000 		.4byte	.LBB135
 8678 244e C8010000 		.4byte	.Ldebug_ranges0+0x1c8
 8679 2452 01       		.byte	0x1
 8680 2453 2603     		.2byte	0x326
 8681 2455 36       		.uleb128 0x36
 8682 2456 F7300000 		.4byte	0x30f7
 8683 245a E5080000 		.4byte	.LLST83
 8684 245e 38       		.uleb128 0x38
 8685 245f C8010000 		.4byte	.Ldebug_ranges0+0x1c8
 8686 2463 39       		.uleb128 0x39
ARM GAS  C:\Users\EBANO_~1\AppData\Local\Temp\ccLo4wHn.s 			page 181


 8687 2464 02310000 		.4byte	0x3102
 8688 2468 E5080000 		.4byte	.LLST83
 8689 246c 45       		.uleb128 0x45
 8690 246d E6300000 		.4byte	0x30e6
 8691 2471 F0010000 		.4byte	.Ldebug_ranges0+0x1f0
 8692 2475 92240000 		.4byte	0x2492
 8693 2479 36       		.uleb128 0x36
 8694 247a F7300000 		.4byte	0x30f7
 8695 247e 25090000 		.4byte	.LLST85
 8696 2482 38       		.uleb128 0x38
 8697 2483 F0010000 		.4byte	.Ldebug_ranges0+0x1f0
 8698 2487 39       		.uleb128 0x39
 8699 2488 02310000 		.4byte	0x3102
 8700 248c 5A090000 		.4byte	.LLST86
 8701 2490 00       		.byte	0
 8702 2491 00       		.byte	0
 8703 2492 3B       		.uleb128 0x3b
 8704 2493 12000000 		.4byte	.LVL235
 8705 2497 2E       		.uleb128 0x2e
 8706 2498 01       		.byte	0x1
 8707 2499 50       		.byte	0x50
 8708 249a 02       		.byte	0x2
 8709 249b 74       		.byte	0x74
 8710 249c 00       		.sleb128 0
 8711 249d 00       		.byte	0
 8712 249e 00       		.byte	0
 8713 249f 00       		.byte	0
 8714 24a0 00       		.byte	0
 8715 24a1 0A       		.uleb128 0xa
 8716 24a2 04       		.byte	0x4
 8717 24a3 55190000 		.4byte	0x1955
 8718 24a7 2F       		.uleb128 0x2f
 8719 24a8 01       		.byte	0x1
 8720 24a9 01100000 		.4byte	.LASF481
 8721 24ad 01       		.byte	0x1
 8722 24ae 1C03     		.2byte	0x31c
 8723 24b0 01       		.byte	0x1
 8724 24b1 B8000000 		.4byte	0xb8
 8725 24b5 00000000 		.4byte	.LFB58
 8726 24b9 06000000 		.4byte	.LFE58
 8727 24bd 02       		.byte	0x2
 8728 24be 7D       		.byte	0x7d
 8729 24bf 00       		.sleb128 0
 8730 24c0 01       		.byte	0x1
 8731 24c1 D6240000 		.4byte	0x24d6
 8732 24c5 2C       		.uleb128 0x2c
 8733 24c6 701D0000 		.4byte	.LASF482
 8734 24ca 01       		.byte	0x1
 8735 24cb 1C03     		.2byte	0x31c
 8736 24cd D6240000 		.4byte	0x24d6
 8737 24d1 6D090000 		.4byte	.LLST79
 8738 24d5 00       		.byte	0
 8739 24d6 0A       		.uleb128 0xa
 8740 24d7 04       		.byte	0x4
 8741 24d8 1D190000 		.4byte	0x191d
 8742 24dc 3F       		.uleb128 0x3f
 8743 24dd 01       		.byte	0x1
ARM GAS  C:\Users\EBANO_~1\AppData\Local\Temp\ccLo4wHn.s 			page 182


 8744 24de 7D200000 		.4byte	.LASF483
 8745 24e2 01       		.byte	0x1
 8746 24e3 E702     		.2byte	0x2e7
 8747 24e5 01       		.byte	0x1
 8748 24e6 C3000000 		.4byte	0xc3
 8749 24ea 00000000 		.4byte	.LFB57
 8750 24ee 1C010000 		.4byte	.LFE57
 8751 24f2 8E090000 		.4byte	.LLST68
 8752 24f6 01       		.byte	0x1
 8753 24f7 8F260000 		.4byte	0x268f
 8754 24fb 2C       		.uleb128 0x2c
 8755 24fc AF020000 		.4byte	.LASF484
 8756 2500 01       		.byte	0x1
 8757 2501 E702     		.2byte	0x2e7
 8758 2503 8F260000 		.4byte	0x268f
 8759 2507 C6090000 		.4byte	.LLST69
 8760 250b 34       		.uleb128 0x34
 8761 250c B2120000 		.4byte	.LASF480
 8762 2510 01       		.byte	0x1
 8763 2511 E902     		.2byte	0x2e9
 8764 2513 C3000000 		.4byte	0xc3
 8765 2517 190A0000 		.4byte	.LLST70
 8766 251b 33       		.uleb128 0x33
 8767 251c D8130000 		.4byte	.LASF458
 8768 2520 01       		.byte	0x1
 8769 2521 EA02     		.2byte	0x2ea
 8770 2523 911A0000 		.4byte	0x1a91
 8771 2527 33       		.uleb128 0x33
 8772 2528 E91F0000 		.4byte	.LASF457
 8773 252c 01       		.byte	0x1
 8774 252d EB02     		.2byte	0x2eb
 8775 252f BA1A0000 		.4byte	0x1aba
 8776 2533 35       		.uleb128 0x35
 8777 2534 B0200000 		.4byte	0x20b0
 8778 2538 12000000 		.4byte	.LBB107
 8779 253c 48010000 		.4byte	.Ldebug_ranges0+0x148
 8780 2540 01       		.byte	0x1
 8781 2541 F202     		.2byte	0x2f2
 8782 2543 A4250000 		.4byte	0x25a4
 8783 2547 36       		.uleb128 0x36
 8784 2548 C3200000 		.4byte	0x20c3
 8785 254c 510A0000 		.4byte	.LLST71
 8786 2550 38       		.uleb128 0x38
 8787 2551 48010000 		.4byte	.Ldebug_ranges0+0x148
 8788 2555 39       		.uleb128 0x39
 8789 2556 CF200000 		.4byte	0x20cf
 8790 255a 790A0000 		.4byte	.LLST72
 8791 255e 3A       		.uleb128 0x3a
 8792 255f 8A000000 		.4byte	.LVL215
 8793 2563 CB330000 		.4byte	0x33cb
 8794 2567 86250000 		.4byte	0x2586
 8795 256b 2E       		.uleb128 0x2e
 8796 256c 01       		.byte	0x1
 8797 256d 50       		.byte	0x50
 8798 256e 0C       		.byte	0xc
 8799 256f 75       		.byte	0x75
 8800 2570 00       		.sleb128 0
ARM GAS  C:\Users\EBANO_~1\AppData\Local\Temp\ccLo4wHn.s 			page 183


 8801 2571 31       		.byte	0x31
 8802 2572 24       		.byte	0x24
 8803 2573 75       		.byte	0x75
 8804 2574 00       		.sleb128 0
 8805 2575 22       		.byte	0x22
 8806 2576 32       		.byte	0x32
 8807 2577 24       		.byte	0x24
 8808 2578 74       		.byte	0x74
 8809 2579 00       		.sleb128 0
 8810 257a 22       		.byte	0x22
 8811 257b 2E       		.uleb128 0x2e
 8812 257c 01       		.byte	0x1
 8813 257d 51       		.byte	0x51
 8814 257e 01       		.byte	0x1
 8815 257f 30       		.byte	0x30
 8816 2580 2E       		.uleb128 0x2e
 8817 2581 01       		.byte	0x1
 8818 2582 52       		.byte	0x52
 8819 2583 01       		.byte	0x1
 8820 2584 3C       		.byte	0x3c
 8821 2585 00       		.byte	0
 8822 2586 2D       		.uleb128 0x2d
 8823 2587 96000000 		.4byte	.LVL216
 8824 258b 13340000 		.4byte	0x3413
 8825 258f 2E       		.uleb128 0x2e
 8826 2590 01       		.byte	0x1
 8827 2591 50       		.byte	0x50
 8828 2592 03       		.byte	0x3
 8829 2593 74       		.byte	0x74
 8830 2594 D001     		.sleb128 208
 8831 2596 2E       		.uleb128 0x2e
 8832 2597 01       		.byte	0x1
 8833 2598 51       		.byte	0x51
 8834 2599 02       		.byte	0x2
 8835 259a 75       		.byte	0x75
 8836 259b 00       		.sleb128 0
 8837 259c 2E       		.uleb128 0x2e
 8838 259d 01       		.byte	0x1
 8839 259e 52       		.byte	0x52
 8840 259f 01       		.byte	0x1
 8841 25a0 40       		.byte	0x40
 8842 25a1 00       		.byte	0
 8843 25a2 00       		.byte	0
 8844 25a3 00       		.byte	0
 8845 25a4 44       		.uleb128 0x44
 8846 25a5 E1200000 		.4byte	0x20e1
 8847 25a9 20000000 		.4byte	.LBB110
 8848 25ad 60010000 		.4byte	.Ldebug_ranges0+0x160
 8849 25b1 01       		.byte	0x1
 8850 25b2 FC02     		.2byte	0x2fc
 8851 25b4 36       		.uleb128 0x36
 8852 25b5 F4200000 		.4byte	0x20f4
 8853 25b9 A80A0000 		.4byte	.LLST73
 8854 25bd 38       		.uleb128 0x38
 8855 25be 60010000 		.4byte	.Ldebug_ranges0+0x160
 8856 25c2 39       		.uleb128 0x39
 8857 25c3 00210000 		.4byte	0x2100
ARM GAS  C:\Users\EBANO_~1\AppData\Local\Temp\ccLo4wHn.s 			page 184


 8858 25c7 E00A0000 		.4byte	.LLST74
 8859 25cb 39       		.uleb128 0x39
 8860 25cc 0C210000 		.4byte	0x210c
 8861 25d0 320B0000 		.4byte	.LLST75
 8862 25d4 39       		.uleb128 0x39
 8863 25d5 18210000 		.4byte	0x2118
 8864 25d9 6A0B0000 		.4byte	.LLST76
 8865 25dd 35       		.uleb128 0x35
 8866 25de E6300000 		.4byte	0x30e6
 8867 25e2 56000000 		.4byte	.LBB112
 8868 25e6 88010000 		.4byte	.Ldebug_ranges0+0x188
 8869 25ea 01       		.byte	0x1
 8870 25eb B203     		.2byte	0x3b2
 8871 25ed 41260000 		.4byte	0x2641
 8872 25f1 46       		.uleb128 0x46
 8873 25f2 F7300000 		.4byte	0x30f7
 8874 25f6 38       		.uleb128 0x38
 8875 25f7 88010000 		.4byte	.Ldebug_ranges0+0x188
 8876 25fb 47       		.uleb128 0x47
 8877 25fc 02310000 		.4byte	0x3102
 8878 2600 45       		.uleb128 0x45
 8879 2601 E6300000 		.4byte	0x30e6
 8880 2605 B0010000 		.4byte	.Ldebug_ranges0+0x1b0
 8881 2609 26260000 		.4byte	0x2626
 8882 260d 36       		.uleb128 0x36
 8883 260e F7300000 		.4byte	0x30f7
 8884 2612 8D0B0000 		.4byte	.LLST77
 8885 2616 38       		.uleb128 0x38
 8886 2617 B0010000 		.4byte	.Ldebug_ranges0+0x1b0
 8887 261b 39       		.uleb128 0x39
 8888 261c 02310000 		.4byte	0x3102
 8889 2620 AB0B0000 		.4byte	.LLST78
 8890 2624 00       		.byte	0
 8891 2625 00       		.byte	0
 8892 2626 48       		.uleb128 0x48
 8893 2627 6C000000 		.4byte	.LVL210
 8894 262b 36260000 		.4byte	0x2636
 8895 262f 2E       		.uleb128 0x2e
 8896 2630 01       		.byte	0x1
 8897 2631 50       		.byte	0x50
 8898 2632 02       		.byte	0x2
 8899 2633 76       		.byte	0x76
 8900 2634 00       		.sleb128 0
 8901 2635 00       		.byte	0
 8902 2636 49       		.uleb128 0x49
 8903 2637 A4000000 		.4byte	.LVL219
 8904 263b 03       		.byte	0x3
 8905 263c 91       		.byte	0x91
 8906 263d 64       		.sleb128 -28
 8907 263e 06       		.byte	0x6
 8908 263f 00       		.byte	0
 8909 2640 00       		.byte	0
 8910 2641 3A       		.uleb128 0x3a
 8911 2642 34000000 		.4byte	.LVL204
 8912 2646 BE330000 		.4byte	0x33be
 8913 264a 59260000 		.4byte	0x2659
 8914 264e 2E       		.uleb128 0x2e
ARM GAS  C:\Users\EBANO_~1\AppData\Local\Temp\ccLo4wHn.s 			page 185


 8915 264f 01       		.byte	0x1
 8916 2650 51       		.byte	0x51
 8917 2651 01       		.byte	0x1
 8918 2652 30       		.byte	0x30
 8919 2653 2E       		.uleb128 0x2e
 8920 2654 01       		.byte	0x1
 8921 2655 52       		.byte	0x52
 8922 2656 01       		.byte	0x1
 8923 2657 35       		.byte	0x35
 8924 2658 00       		.byte	0
 8925 2659 3A       		.uleb128 0x3a
 8926 265a 44000000 		.4byte	.LVL206
 8927 265e BE330000 		.4byte	0x33be
 8928 2662 71260000 		.4byte	0x2671
 8929 2666 2E       		.uleb128 0x2e
 8930 2667 01       		.byte	0x1
 8931 2668 51       		.byte	0x51
 8932 2669 01       		.byte	0x1
 8933 266a 30       		.byte	0x30
 8934 266b 2E       		.uleb128 0x2e
 8935 266c 01       		.byte	0x1
 8936 266d 52       		.byte	0x52
 8937 266e 01       		.byte	0x1
 8938 266f 35       		.byte	0x35
 8939 2670 00       		.byte	0
 8940 2671 2D       		.uleb128 0x2d
 8941 2672 EE000000 		.4byte	.LVL227
 8942 2676 21340000 		.4byte	0x3421
 8943 267a 2E       		.uleb128 0x2e
 8944 267b 01       		.byte	0x1
 8945 267c 50       		.byte	0x50
 8946 267d 02       		.byte	0x2
 8947 267e 76       		.byte	0x76
 8948 267f 00       		.sleb128 0
 8949 2680 2E       		.uleb128 0x2e
 8950 2681 01       		.byte	0x1
 8951 2682 51       		.byte	0x51
 8952 2683 02       		.byte	0x2
 8953 2684 74       		.byte	0x74
 8954 2685 00       		.sleb128 0
 8955 2686 2E       		.uleb128 0x2e
 8956 2687 01       		.byte	0x1
 8957 2688 52       		.byte	0x52
 8958 2689 01       		.byte	0x1
 8959 268a 3C       		.byte	0x3c
 8960 268b 00       		.byte	0
 8961 268c 00       		.byte	0
 8962 268d 00       		.byte	0
 8963 268e 00       		.byte	0
 8964 268f 0A       		.uleb128 0xa
 8965 2690 04       		.byte	0x4
 8966 2691 D6180000 		.4byte	0x18d6
 8967 2695 3F       		.uleb128 0x3f
 8968 2696 01       		.byte	0x1
 8969 2697 DB100000 		.4byte	.LASF485
 8970 269b 01       		.byte	0x1
 8971 269c CE02     		.2byte	0x2ce
ARM GAS  C:\Users\EBANO_~1\AppData\Local\Temp\ccLo4wHn.s 			page 186


 8972 269e 01       		.byte	0x1
 8973 269f C3000000 		.4byte	0xc3
 8974 26a3 00000000 		.4byte	.LFB56
 8975 26a7 70000000 		.4byte	.LFE56
 8976 26ab FC0B0000 		.4byte	.LLST61
 8977 26af 01       		.byte	0x1
 8978 26b0 60270000 		.4byte	0x2760
 8979 26b4 2C       		.uleb128 0x2c
 8980 26b5 08030000 		.4byte	.LASF486
 8981 26b9 01       		.byte	0x1
 8982 26ba CE02     		.2byte	0x2ce
 8983 26bc 60270000 		.4byte	0x2760
 8984 26c0 280C0000 		.4byte	.LLST62
 8985 26c4 34       		.uleb128 0x34
 8986 26c5 B2120000 		.4byte	.LASF480
 8987 26c9 01       		.byte	0x1
 8988 26ca D002     		.2byte	0x2d0
 8989 26cc C3000000 		.4byte	0xc3
 8990 26d0 5F0C0000 		.4byte	.LLST63
 8991 26d4 35       		.uleb128 0x35
 8992 26d5 E6300000 		.4byte	0x30e6
 8993 26d9 02000000 		.4byte	.LBB87
 8994 26dd 08010000 		.4byte	.Ldebug_ranges0+0x108
 8995 26e1 01       		.byte	0x1
 8996 26e2 D302     		.2byte	0x2d3
 8997 26e4 33270000 		.4byte	0x2733
 8998 26e8 36       		.uleb128 0x36
 8999 26e9 F7300000 		.4byte	0x30f7
 9000 26ed 950C0000 		.4byte	.LLST64
 9001 26f1 38       		.uleb128 0x38
 9002 26f2 08010000 		.4byte	.Ldebug_ranges0+0x108
 9003 26f6 39       		.uleb128 0x39
 9004 26f7 02310000 		.4byte	0x3102
 9005 26fb 950C0000 		.4byte	.LLST64
 9006 26ff 45       		.uleb128 0x45
 9007 2700 E6300000 		.4byte	0x30e6
 9008 2704 30010000 		.4byte	.Ldebug_ranges0+0x130
 9009 2708 25270000 		.4byte	0x2725
 9010 270c 36       		.uleb128 0x36
 9011 270d F7300000 		.4byte	0x30f7
 9012 2711 B30C0000 		.4byte	.LLST66
 9013 2715 38       		.uleb128 0x38
 9014 2716 30010000 		.4byte	.Ldebug_ranges0+0x130
 9015 271a 39       		.uleb128 0x39
 9016 271b 02310000 		.4byte	0x3102
 9017 271f D10C0000 		.4byte	.LLST67
 9018 2723 00       		.byte	0
 9019 2724 00       		.byte	0
 9020 2725 3B       		.uleb128 0x3b
 9021 2726 12000000 		.4byte	.LVL184
 9022 272a 2E       		.uleb128 0x2e
 9023 272b 01       		.byte	0x1
 9024 272c 50       		.byte	0x50
 9025 272d 02       		.byte	0x2
 9026 272e 75       		.byte	0x75
 9027 272f 00       		.sleb128 0
 9028 2730 00       		.byte	0
ARM GAS  C:\Users\EBANO_~1\AppData\Local\Temp\ccLo4wHn.s 			page 187


 9029 2731 00       		.byte	0
 9030 2732 00       		.byte	0
 9031 2733 3A       		.uleb128 0x3a
 9032 2734 30000000 		.4byte	.LVL189
 9033 2738 BE330000 		.4byte	0x33be
 9034 273c 4B270000 		.4byte	0x274b
 9035 2740 2E       		.uleb128 0x2e
 9036 2741 01       		.byte	0x1
 9037 2742 51       		.byte	0x51
 9038 2743 01       		.byte	0x1
 9039 2744 30       		.byte	0x30
 9040 2745 2E       		.uleb128 0x2e
 9041 2746 01       		.byte	0x1
 9042 2747 52       		.byte	0x52
 9043 2748 01       		.byte	0x1
 9044 2749 35       		.byte	0x35
 9045 274a 00       		.byte	0
 9046 274b 2D       		.uleb128 0x2d
 9047 274c 42000000 		.4byte	.LVL191
 9048 2750 BE330000 		.4byte	0x33be
 9049 2754 2E       		.uleb128 0x2e
 9050 2755 01       		.byte	0x1
 9051 2756 51       		.byte	0x51
 9052 2757 01       		.byte	0x1
 9053 2758 30       		.byte	0x30
 9054 2759 2E       		.uleb128 0x2e
 9055 275a 01       		.byte	0x1
 9056 275b 52       		.byte	0x52
 9057 275c 01       		.byte	0x1
 9058 275d 35       		.byte	0x35
 9059 275e 00       		.byte	0
 9060 275f 00       		.byte	0
 9061 2760 0A       		.uleb128 0xa
 9062 2761 04       		.byte	0x4
 9063 2762 9E180000 		.4byte	0x189e
 9064 2766 4A       		.uleb128 0x4a
 9065 2767 01       		.byte	0x1
 9066 2768 51030000 		.4byte	.LASF487
 9067 276c 01       		.byte	0x1
 9068 276d 6502     		.2byte	0x265
 9069 276f 01       		.byte	0x1
 9070 2770 C3000000 		.4byte	0xc3
 9071 2774 00000000 		.4byte	.LFB55
 9072 2778 FC020000 		.4byte	.LFE55
 9073 277c F50C0000 		.4byte	.LLST52
 9074 2780 01       		.byte	0x1
 9075 2781 BD280000 		.4byte	0x28bd
 9076 2785 2C       		.uleb128 0x2c
 9077 2786 6A110000 		.4byte	.LASF488
 9078 278a 01       		.byte	0x1
 9079 278b 6502     		.2byte	0x265
 9080 278d BD280000 		.4byte	0x28bd
 9081 2791 2E0D0000 		.4byte	.LLST53
 9082 2795 2C       		.uleb128 0x2c
 9083 2796 11190000 		.4byte	.LASF489
 9084 279a 01       		.byte	0x1
 9085 279b 6502     		.2byte	0x265
ARM GAS  C:\Users\EBANO_~1\AppData\Local\Temp\ccLo4wHn.s 			page 188


 9086 279d C3280000 		.4byte	0x28c3
 9087 27a1 7E0D0000 		.4byte	.LLST54
 9088 27a5 2C       		.uleb128 0x2c
 9089 27a6 B6170000 		.4byte	.LASF490
 9090 27aa 01       		.byte	0x1
 9091 27ab 6502     		.2byte	0x265
 9092 27ad C3280000 		.4byte	0x28c3
 9093 27b1 B50D0000 		.4byte	.LLST55
 9094 27b5 2C       		.uleb128 0x2c
 9095 27b6 D2100000 		.4byte	.LASF491
 9096 27ba 01       		.byte	0x1
 9097 27bb 6502     		.2byte	0x265
 9098 27bd 8B0A0000 		.4byte	0xa8b
 9099 27c1 EC0D0000 		.4byte	.LLST56
 9100 27c5 31       		.uleb128 0x31
 9101 27c6 D70E0000 		.4byte	.LASF492
 9102 27ca 01       		.byte	0x1
 9103 27cb 6502     		.2byte	0x265
 9104 27cd 8B0A0000 		.4byte	0xa8b
 9105 27d1 02       		.byte	0x2
 9106 27d2 91       		.byte	0x91
 9107 27d3 00       		.sleb128 0
 9108 27d4 34       		.uleb128 0x34
 9109 27d5 B2120000 		.4byte	.LASF480
 9110 27d9 01       		.byte	0x1
 9111 27da 6702     		.2byte	0x267
 9112 27dc C3000000 		.4byte	0xc3
 9113 27e0 0C0E0000 		.4byte	.LLST57
 9114 27e4 29       		.uleb128 0x29
 9115 27e5 111E0000 		.4byte	.LASF493
 9116 27e9 01       		.byte	0x1
 9117 27ea 6802     		.2byte	0x268
 9118 27ec D41B0000 		.4byte	0x1bd4
 9119 27f0 03       		.byte	0x3
 9120 27f1 91       		.byte	0x91
 9121 27f2 B07F     		.sleb128 -80
 9122 27f4 34       		.uleb128 0x34
 9123 27f5 500A0000 		.4byte	.LASF494
 9124 27f9 01       		.byte	0x1
 9125 27fa 6902     		.2byte	0x269
 9126 27fc C3000000 		.4byte	0xc3
 9127 2800 700E0000 		.4byte	.LLST58
 9128 2804 34       		.uleb128 0x34
 9129 2805 E50C0000 		.4byte	.LASF495
 9130 2809 01       		.byte	0x1
 9131 280a 6A02     		.2byte	0x26a
 9132 280c C3000000 		.4byte	0xc3
 9133 2810 8F0E0000 		.4byte	.LLST59
 9134 2814 29       		.uleb128 0x29
 9135 2815 D60A0000 		.4byte	.LASF496
 9136 2819 01       		.byte	0x1
 9137 281a 6B02     		.2byte	0x26b
 9138 281c DE000000 		.4byte	0xde
 9139 2820 03       		.byte	0x3
 9140 2821 91       		.byte	0x91
 9141 2822 AE7F     		.sleb128 -82
 9142 2824 33       		.uleb128 0x33
ARM GAS  C:\Users\EBANO_~1\AppData\Local\Temp\ccLo4wHn.s 			page 189


 9143 2825 D9180000 		.4byte	.LASF497
 9144 2829 01       		.byte	0x1
 9145 282a 6C02     		.2byte	0x26c
 9146 282c 01150000 		.4byte	0x1501
 9147 2830 33       		.uleb128 0x33
 9148 2831 C4040000 		.4byte	.LASF498
 9149 2835 01       		.byte	0x1
 9150 2836 6D02     		.2byte	0x26d
 9151 2838 AB140000 		.4byte	0x14ab
 9152 283c 29       		.uleb128 0x29
 9153 283d 1E1C0000 		.4byte	.LASF499
 9154 2841 01       		.byte	0x1
 9155 2842 6E02     		.2byte	0x26e
 9156 2844 CC1C0000 		.4byte	0x1ccc
 9157 2848 03       		.byte	0x3
 9158 2849 91       		.byte	0x91
 9159 284a B87F     		.sleb128 -72
 9160 284c 4B       		.uleb128 0x4b
 9161 284d E0000000 		.4byte	.Ldebug_ranges0+0xe0
 9162 2851 64280000 		.4byte	0x2864
 9163 2855 41       		.uleb128 0x41
 9164 2856 6900     		.ascii	"i\000"
 9165 2858 01       		.byte	0x1
 9166 2859 8E02     		.2byte	0x28e
 9167 285b C3000000 		.4byte	0xc3
 9168 285f D00E0000 		.4byte	.LLST60
 9169 2863 00       		.byte	0
 9170 2864 3A       		.uleb128 0x3a
 9171 2865 3A000000 		.4byte	.LVL128
 9172 2869 2E340000 		.4byte	0x342e
 9173 286d 78280000 		.4byte	0x2878
 9174 2871 2E       		.uleb128 0x2e
 9175 2872 01       		.byte	0x1
 9176 2873 51       		.byte	0x51
 9177 2874 02       		.byte	0x2
 9178 2875 75       		.byte	0x75
 9179 2876 00       		.sleb128 0
 9180 2877 00       		.byte	0
 9181 2878 3A       		.uleb128 0x3a
 9182 2879 A6010000 		.4byte	.LVL150
 9183 287d 3C340000 		.4byte	0x343c
 9184 2881 A1280000 		.4byte	0x28a1
 9185 2885 2E       		.uleb128 0x2e
 9186 2886 01       		.byte	0x1
 9187 2887 50       		.byte	0x50
 9188 2888 03       		.byte	0x3
 9189 2889 91       		.byte	0x91
 9190 288a B87F     		.sleb128 -72
 9191 288c 2E       		.uleb128 0x2e
 9192 288d 01       		.byte	0x1
 9193 288e 51       		.byte	0x51
 9194 288f 03       		.byte	0x3
 9195 2890 91       		.byte	0x91
 9196 2891 B17F     		.sleb128 -79
 9197 2893 2E       		.uleb128 0x2e
 9198 2894 01       		.byte	0x1
 9199 2895 52       		.byte	0x52
ARM GAS  C:\Users\EBANO_~1\AppData\Local\Temp\ccLo4wHn.s 			page 190


 9200 2896 03       		.byte	0x3
 9201 2897 91       		.byte	0x91
 9202 2898 B27F     		.sleb128 -78
 9203 289a 2E       		.uleb128 0x2e
 9204 289b 01       		.byte	0x1
 9205 289c 53       		.byte	0x53
 9206 289d 02       		.byte	0x2
 9207 289e 75       		.byte	0x75
 9208 289f 00       		.sleb128 0
 9209 28a0 00       		.byte	0
 9210 28a1 2D       		.uleb128 0x2d
 9211 28a2 DE020000 		.4byte	.LVL178
 9212 28a6 4A340000 		.4byte	0x344a
 9213 28aa 2E       		.uleb128 0x2e
 9214 28ab 01       		.byte	0x1
 9215 28ac 50       		.byte	0x50
 9216 28ad 03       		.byte	0x3
 9217 28ae 77       		.byte	0x77
 9218 28af D001     		.sleb128 208
 9219 28b1 2E       		.uleb128 0x2e
 9220 28b2 01       		.byte	0x1
 9221 28b3 51       		.byte	0x51
 9222 28b4 01       		.byte	0x1
 9223 28b5 30       		.byte	0x30
 9224 28b6 2E       		.uleb128 0x2e
 9225 28b7 01       		.byte	0x1
 9226 28b8 52       		.byte	0x52
 9227 28b9 01       		.byte	0x1
 9228 28ba 32       		.byte	0x32
 9229 28bb 00       		.byte	0
 9230 28bc 00       		.byte	0
 9231 28bd 0A       		.uleb128 0xa
 9232 28be 04       		.byte	0x4
 9233 28bf 57180000 		.4byte	0x1857
 9234 28c3 0A       		.uleb128 0xa
 9235 28c4 04       		.byte	0x4
 9236 28c5 B8000000 		.4byte	0xb8
 9237 28c9 3F       		.uleb128 0x3f
 9238 28ca 01       		.byte	0x1
 9239 28cb 7E040000 		.4byte	.LASF500
 9240 28cf 01       		.byte	0x1
 9241 28d0 4702     		.2byte	0x247
 9242 28d2 01       		.byte	0x1
 9243 28d3 1C0B0000 		.4byte	0xb1c
 9244 28d7 00000000 		.4byte	.LFB54
 9245 28db 30010000 		.4byte	.LFE54
 9246 28df 88100000 		.4byte	.LLST40
 9247 28e3 01       		.byte	0x1
 9248 28e4 812A0000 		.4byte	0x2a81
 9249 28e8 2C       		.uleb128 0x2c
 9250 28e9 8D1B0000 		.4byte	.LASF501
 9251 28ed 01       		.byte	0x1
 9252 28ee 4702     		.2byte	0x247
 9253 28f0 812A0000 		.4byte	0x2a81
 9254 28f4 C1100000 		.4byte	.LLST41
 9255 28f8 2C       		.uleb128 0x2c
 9256 28f9 62110000 		.4byte	.LASF502
ARM GAS  C:\Users\EBANO_~1\AppData\Local\Temp\ccLo4wHn.s 			page 191


 9257 28fd 01       		.byte	0x1
 9258 28fe 4702     		.2byte	0x247
 9259 2900 C3280000 		.4byte	0x28c3
 9260 2904 F8100000 		.4byte	.LLST42
 9261 2908 2C       		.uleb128 0x2c
 9262 2909 C6130000 		.4byte	.LASF503
 9263 290d 01       		.byte	0x1
 9264 290e 4702     		.2byte	0x247
 9265 2910 64230000 		.4byte	0x2364
 9266 2914 2C110000 		.4byte	.LLST43
 9267 2918 34       		.uleb128 0x34
 9268 2919 16050000 		.4byte	.LASF504
 9269 291d 01       		.byte	0x1
 9270 291e 4902     		.2byte	0x249
 9271 2920 B8000000 		.4byte	0xb8
 9272 2924 63110000 		.4byte	.LLST44
 9273 2928 33       		.uleb128 0x33
 9274 2929 29140000 		.4byte	.LASF454
 9275 292d 01       		.byte	0x1
 9276 292e 4A02     		.2byte	0x24a
 9277 2930 B8000000 		.4byte	0xb8
 9278 2934 33       		.uleb128 0x33
 9279 2935 AB190000 		.4byte	.LASF505
 9280 2939 01       		.byte	0x1
 9281 293a 4B02     		.2byte	0x24b
 9282 293c F4000000 		.4byte	0xf4
 9283 2940 34       		.uleb128 0x34
 9284 2941 76130000 		.4byte	.LASF448
 9285 2945 01       		.byte	0x1
 9286 2946 4C02     		.2byte	0x24c
 9287 2948 29000000 		.4byte	0x29
 9288 294c 81110000 		.4byte	.LLST45
 9289 2950 34       		.uleb128 0x34
 9290 2951 84060000 		.4byte	.LASF449
 9291 2955 01       		.byte	0x1
 9292 2956 4D02     		.2byte	0x24d
 9293 2958 B8000000 		.4byte	0xb8
 9294 295c 94110000 		.4byte	.LLST46
 9295 2960 35       		.uleb128 0x35
 9296 2961 0E310000 		.4byte	0x310e
 9297 2965 2E000000 		.4byte	.LBB56
 9298 2969 80000000 		.4byte	.Ldebug_ranges0+0x80
 9299 296d 01       		.byte	0x1
 9300 296e 4A02     		.2byte	0x24a
 9301 2970 AB290000 		.4byte	0x29ab
 9302 2974 36       		.uleb128 0x36
 9303 2975 35310000 		.4byte	0x3135
 9304 2979 B3110000 		.4byte	.LLST47
 9305 297d 37       		.uleb128 0x37
 9306 297e 40310000 		.4byte	0x3140
 9307 2982 06       		.byte	0x6
 9308 2983 03       		.byte	0x3
 9309 2984 D0000000 		.4byte	NvmCtx+208
 9310 2988 9F       		.byte	0x9f
 9311 2989 36       		.uleb128 0x36
 9312 298a 2A310000 		.4byte	0x312a
 9313 298e C6110000 		.4byte	.LLST48
ARM GAS  C:\Users\EBANO_~1\AppData\Local\Temp\ccLo4wHn.s 			page 192


 9314 2992 36       		.uleb128 0x36
 9315 2993 1F310000 		.4byte	0x311f
 9316 2997 F1110000 		.4byte	.LLST49
 9317 299b 38       		.uleb128 0x38
 9318 299c 80000000 		.4byte	.Ldebug_ranges0+0x80
 9319 29a0 39       		.uleb128 0x39
 9320 29a1 4B310000 		.4byte	0x314b
 9321 29a5 F1110000 		.4byte	.LLST49
 9322 29a9 00       		.byte	0
 9323 29aa 00       		.byte	0
 9324 29ab 35       		.uleb128 0x35
 9325 29ac 57310000 		.4byte	0x3157
 9326 29b0 4E000000 		.4byte	.LBB63
 9327 29b4 A8000000 		.4byte	.Ldebug_ranges0+0xa8
 9328 29b8 01       		.byte	0x1
 9329 29b9 4B02     		.2byte	0x24b
 9330 29bb C5290000 		.4byte	0x29c5
 9331 29bf 46       		.uleb128 0x46
 9332 29c0 68310000 		.4byte	0x3168
 9333 29c4 00       		.byte	0
 9334 29c5 35       		.uleb128 0x35
 9335 29c6 74310000 		.4byte	0x3174
 9336 29ca 6C000000 		.4byte	.LBB69
 9337 29ce C8000000 		.4byte	.Ldebug_ranges0+0xc8
 9338 29d2 01       		.byte	0x1
 9339 29d3 4C02     		.2byte	0x24c
 9340 29d5 E3290000 		.4byte	0x29e3
 9341 29d9 36       		.uleb128 0x36
 9342 29da 85310000 		.4byte	0x3185
 9343 29de 05120000 		.4byte	.LLST51
 9344 29e2 00       		.byte	0
 9345 29e3 3A       		.uleb128 0x3a
 9346 29e4 92000000 		.4byte	.LVL111
 9347 29e8 A3330000 		.4byte	0x33a3
 9348 29ec FE290000 		.4byte	0x29fe
 9349 29f0 2E       		.uleb128 0x2e
 9350 29f1 01       		.byte	0x1
 9351 29f2 50       		.byte	0x50
 9352 29f3 02       		.byte	0x2
 9353 29f4 75       		.byte	0x75
 9354 29f5 00       		.sleb128 0
 9355 29f6 2E       		.uleb128 0x2e
 9356 29f7 01       		.byte	0x1
 9357 29f8 51       		.byte	0x51
 9358 29f9 03       		.byte	0x3
 9359 29fa F5       		.byte	0xf5
 9360 29fb 07       		.uleb128 0x7
 9361 29fc 29       		.uleb128 0x29
 9362 29fd 00       		.byte	0
 9363 29fe 49       		.uleb128 0x49
 9364 29ff A6000000 		.4byte	.LVL113
 9365 2a03 03       		.byte	0x3
 9366 2a04 76       		.byte	0x76
 9367 2a05 14       		.sleb128 20
 9368 2a06 06       		.byte	0x6
 9369 2a07 4C       		.uleb128 0x4c
 9370 2a08 D2000000 		.4byte	.LVL115
ARM GAS  C:\Users\EBANO_~1\AppData\Local\Temp\ccLo4wHn.s 			page 193


 9371 2a0c 02       		.byte	0x2
 9372 2a0d 77       		.byte	0x77
 9373 2a0e 00       		.sleb128 0
 9374 2a0f 5E2A0000 		.4byte	0x2a5e
 9375 2a13 2E       		.uleb128 0x2e
 9376 2a14 01       		.byte	0x1
 9377 2a15 50       		.byte	0x50
 9378 2a16 01       		.byte	0x1
 9379 2a17 31       		.byte	0x31
 9380 2a18 2E       		.uleb128 0x2e
 9381 2a19 01       		.byte	0x1
 9382 2a1a 52       		.byte	0x52
 9383 2a1b 01       		.byte	0x1
 9384 2a1c 30       		.byte	0x30
 9385 2a1d 2E       		.uleb128 0x2e
 9386 2a1e 01       		.byte	0x1
 9387 2a1f 53       		.byte	0x53
 9388 2a20 03       		.byte	0x3
 9389 2a21 91       		.byte	0x91
 9390 2a22 50       		.sleb128 -48
 9391 2a23 06       		.byte	0x6
 9392 2a24 2E       		.uleb128 0x2e
 9393 2a25 02       		.byte	0x2
 9394 2a26 7D       		.byte	0x7d
 9395 2a27 00       		.sleb128 0
 9396 2a28 02       		.byte	0x2
 9397 2a29 7B       		.byte	0x7b
 9398 2a2a 00       		.sleb128 0
 9399 2a2b 2E       		.uleb128 0x2e
 9400 2a2c 02       		.byte	0x2
 9401 2a2d 7D       		.byte	0x7d
 9402 2a2e 04       		.sleb128 4
 9403 2a2f 01       		.byte	0x1
 9404 2a30 31       		.byte	0x31
 9405 2a31 2E       		.uleb128 0x2e
 9406 2a32 02       		.byte	0x2
 9407 2a33 7D       		.byte	0x7d
 9408 2a34 08       		.sleb128 8
 9409 2a35 01       		.byte	0x1
 9410 2a36 38       		.byte	0x38
 9411 2a37 2E       		.uleb128 0x2e
 9412 2a38 02       		.byte	0x2
 9413 2a39 7D       		.byte	0x7d
 9414 2a3a 0C       		.sleb128 12
 9415 2a3b 01       		.byte	0x1
 9416 2a3c 30       		.byte	0x30
 9417 2a3d 2E       		.uleb128 0x2e
 9418 2a3e 02       		.byte	0x2
 9419 2a3f 7D       		.byte	0x7d
 9420 2a40 10       		.sleb128 16
 9421 2a41 01       		.byte	0x1
 9422 2a42 31       		.byte	0x31
 9423 2a43 2E       		.uleb128 0x2e
 9424 2a44 02       		.byte	0x2
 9425 2a45 7D       		.byte	0x7d
 9426 2a46 14       		.sleb128 20
 9427 2a47 01       		.byte	0x1
ARM GAS  C:\Users\EBANO_~1\AppData\Local\Temp\ccLo4wHn.s 			page 194


 9428 2a48 30       		.byte	0x30
 9429 2a49 2E       		.uleb128 0x2e
 9430 2a4a 02       		.byte	0x2
 9431 2a4b 7D       		.byte	0x7d
 9432 2a4c 18       		.sleb128 24
 9433 2a4d 01       		.byte	0x1
 9434 2a4e 30       		.byte	0x30
 9435 2a4f 2E       		.uleb128 0x2e
 9436 2a50 02       		.byte	0x2
 9437 2a51 7D       		.byte	0x7d
 9438 2a52 1C       		.sleb128 28
 9439 2a53 01       		.byte	0x1
 9440 2a54 30       		.byte	0x30
 9441 2a55 2E       		.uleb128 0x2e
 9442 2a56 02       		.byte	0x2
 9443 2a57 7D       		.byte	0x7d
 9444 2a58 20       		.sleb128 32
 9445 2a59 03       		.byte	0x3
 9446 2a5a 0A       		.byte	0xa
 9447 2a5b B80B     		.2byte	0xbb8
 9448 2a5d 00       		.byte	0
 9449 2a5e 4C       		.uleb128 0x4c
 9450 2a5f DC000000 		.4byte	.LVL116
 9451 2a63 03       		.byte	0x3
 9452 2a64 91       		.byte	0x91
 9453 2a65 50       		.sleb128 -48
 9454 2a66 06       		.byte	0x6
 9455 2a67 712A0000 		.4byte	0x2a71
 9456 2a6b 2E       		.uleb128 0x2e
 9457 2a6c 01       		.byte	0x1
 9458 2a6d 50       		.byte	0x50
 9459 2a6e 01       		.byte	0x1
 9460 2a6f 31       		.byte	0x31
 9461 2a70 00       		.byte	0
 9462 2a71 4D       		.uleb128 0x4d
 9463 2a72 E6000000 		.4byte	.LVL117
 9464 2a76 03       		.byte	0x3
 9465 2a77 91       		.byte	0x91
 9466 2a78 50       		.sleb128 -48
 9467 2a79 06       		.byte	0x6
 9468 2a7a 2E       		.uleb128 0x2e
 9469 2a7b 01       		.byte	0x1
 9470 2a7c 50       		.byte	0x50
 9471 2a7d 01       		.byte	0x1
 9472 2a7e 31       		.byte	0x31
 9473 2a7f 00       		.byte	0
 9474 2a80 00       		.byte	0
 9475 2a81 0A       		.uleb128 0xa
 9476 2a82 04       		.byte	0x4
 9477 2a83 C5170000 		.4byte	0x17c5
 9478 2a87 4A       		.uleb128 0x4a
 9479 2a88 01       		.byte	0x1
 9480 2a89 BD020000 		.4byte	.LASF506
 9481 2a8d 01       		.byte	0x1
 9482 2a8e 2102     		.2byte	0x221
 9483 2a90 01       		.byte	0x1
 9484 2a91 1C0B0000 		.4byte	0xb1c
ARM GAS  C:\Users\EBANO_~1\AppData\Local\Temp\ccLo4wHn.s 			page 195


 9485 2a95 00000000 		.4byte	.LFB53
 9486 2a99 B4000000 		.4byte	.LFE53
 9487 2a9d 35120000 		.4byte	.LLST33
 9488 2aa1 01       		.byte	0x1
 9489 2aa2 922B0000 		.4byte	0x2b92
 9490 2aa6 2C       		.uleb128 0x2c
 9491 2aa7 191A0000 		.4byte	.LASF507
 9492 2aab 01       		.byte	0x1
 9493 2aac 2102     		.2byte	0x221
 9494 2aae 922B0000 		.4byte	0x2b92
 9495 2ab2 6E120000 		.4byte	.LLST34
 9496 2ab6 2C       		.uleb128 0x2c
 9497 2ab7 4C050000 		.4byte	.LASF444
 9498 2abb 01       		.byte	0x1
 9499 2abc 2102     		.2byte	0x221
 9500 2abe C3280000 		.4byte	0x28c3
 9501 2ac2 A5120000 		.4byte	.LLST35
 9502 2ac6 41       		.uleb128 0x41
 9503 2ac7 647200   		.ascii	"dr\000"
 9504 2aca 01       		.byte	0x1
 9505 2acb 2302     		.2byte	0x223
 9506 2acd B8000000 		.4byte	0xb8
 9507 2ad1 DC120000 		.4byte	.LLST36
 9508 2ad5 34       		.uleb128 0x34
 9509 2ad6 4C140000 		.4byte	.LASF508
 9510 2ada 01       		.byte	0x1
 9511 2adb 2402     		.2byte	0x224
 9512 2add C3000000 		.4byte	0xc3
 9513 2ae1 FA120000 		.4byte	.LLST37
 9514 2ae5 34       		.uleb128 0x34
 9515 2ae6 16050000 		.4byte	.LASF504
 9516 2aea 01       		.byte	0x1
 9517 2aeb 2502     		.2byte	0x225
 9518 2aed B8000000 		.4byte	0xb8
 9519 2af1 2C130000 		.4byte	.LLST38
 9520 2af5 34       		.uleb128 0x34
 9521 2af6 14200000 		.4byte	.LASF450
 9522 2afa 01       		.byte	0x1
 9523 2afb 2602     		.2byte	0x226
 9524 2afd F4000000 		.4byte	0xf4
 9525 2b01 57130000 		.4byte	.LLST39
 9526 2b05 49       		.uleb128 0x49
 9527 2b06 1E000000 		.4byte	.LVL87
 9528 2b0a 03       		.byte	0x3
 9529 2b0b 75       		.byte	0x75
 9530 2b0c 0C       		.sleb128 12
 9531 2b0d 06       		.byte	0x6
 9532 2b0e 4C       		.uleb128 0x4c
 9533 2b0f 3C000000 		.4byte	.LVL90
 9534 2b13 03       		.byte	0x3
 9535 2b14 91       		.byte	0x91
 9536 2b15 5C       		.sleb128 -36
 9537 2b16 06       		.byte	0x6
 9538 2b17 222B0000 		.4byte	0x2b22
 9539 2b1b 2E       		.uleb128 0x2e
 9540 2b1c 01       		.byte	0x1
 9541 2b1d 50       		.byte	0x50
ARM GAS  C:\Users\EBANO_~1\AppData\Local\Temp\ccLo4wHn.s 			page 196


 9542 2b1e 02       		.byte	0x2
 9543 2b1f 78       		.byte	0x78
 9544 2b20 00       		.sleb128 0
 9545 2b21 00       		.byte	0
 9546 2b22 4C       		.uleb128 0x4c
 9547 2b23 6A000000 		.4byte	.LVL92
 9548 2b27 02       		.byte	0x2
 9549 2b28 74       		.byte	0x74
 9550 2b29 00       		.sleb128 0
 9551 2b2a 6F2B0000 		.4byte	0x2b6f
 9552 2b2e 2E       		.uleb128 0x2e
 9553 2b2f 01       		.byte	0x1
 9554 2b30 50       		.byte	0x50
 9555 2b31 01       		.byte	0x1
 9556 2b32 31       		.byte	0x31
 9557 2b33 2E       		.uleb128 0x2e
 9558 2b34 01       		.byte	0x1
 9559 2b35 52       		.byte	0x52
 9560 2b36 02       		.byte	0x2
 9561 2b37 79       		.byte	0x79
 9562 2b38 00       		.sleb128 0
 9563 2b39 2E       		.uleb128 0x2e
 9564 2b3a 01       		.byte	0x1
 9565 2b3b 53       		.byte	0x53
 9566 2b3c 01       		.byte	0x1
 9567 2b3d 31       		.byte	0x31
 9568 2b3e 2E       		.uleb128 0x2e
 9569 2b3f 02       		.byte	0x2
 9570 2b40 7D       		.byte	0x7d
 9571 2b41 00       		.sleb128 0
 9572 2b42 01       		.byte	0x1
 9573 2b43 30       		.byte	0x30
 9574 2b44 2E       		.uleb128 0x2e
 9575 2b45 02       		.byte	0x2
 9576 2b46 7D       		.byte	0x7d
 9577 2b47 04       		.sleb128 4
 9578 2b48 01       		.byte	0x1
 9579 2b49 38       		.byte	0x38
 9580 2b4a 2E       		.uleb128 0x2e
 9581 2b4b 02       		.byte	0x2
 9582 2b4c 7D       		.byte	0x7d
 9583 2b4d 0C       		.sleb128 12
 9584 2b4e 01       		.byte	0x1
 9585 2b4f 30       		.byte	0x30
 9586 2b50 2E       		.uleb128 0x2e
 9587 2b51 02       		.byte	0x2
 9588 2b52 7D       		.byte	0x7d
 9589 2b53 10       		.sleb128 16
 9590 2b54 01       		.byte	0x1
 9591 2b55 30       		.byte	0x30
 9592 2b56 2E       		.uleb128 0x2e
 9593 2b57 02       		.byte	0x2
 9594 2b58 7D       		.byte	0x7d
 9595 2b59 14       		.sleb128 20
 9596 2b5a 01       		.byte	0x1
 9597 2b5b 30       		.byte	0x30
 9598 2b5c 2E       		.uleb128 0x2e
ARM GAS  C:\Users\EBANO_~1\AppData\Local\Temp\ccLo4wHn.s 			page 197


 9599 2b5d 02       		.byte	0x2
 9600 2b5e 7D       		.byte	0x7d
 9601 2b5f 18       		.sleb128 24
 9602 2b60 01       		.byte	0x1
 9603 2b61 30       		.byte	0x30
 9604 2b62 2E       		.uleb128 0x2e
 9605 2b63 02       		.byte	0x2
 9606 2b64 7D       		.byte	0x7d
 9607 2b65 1C       		.sleb128 28
 9608 2b66 01       		.byte	0x1
 9609 2b67 30       		.byte	0x30
 9610 2b68 2E       		.uleb128 0x2e
 9611 2b69 02       		.byte	0x2
 9612 2b6a 7D       		.byte	0x7d
 9613 2b6b 20       		.sleb128 32
 9614 2b6c 01       		.byte	0x1
 9615 2b6d 31       		.byte	0x31
 9616 2b6e 00       		.byte	0
 9617 2b6f 4D       		.uleb128 0x4d
 9618 2b70 7A000000 		.4byte	.LVL93
 9619 2b74 03       		.byte	0x3
 9620 2b75 91       		.byte	0x91
 9621 2b76 5C       		.sleb128 -36
 9622 2b77 06       		.byte	0x6
 9623 2b78 2E       		.uleb128 0x2e
 9624 2b79 01       		.byte	0x1
 9625 2b7a 50       		.byte	0x50
 9626 2b7b 01       		.byte	0x1
 9627 2b7c 31       		.byte	0x31
 9628 2b7d 2E       		.uleb128 0x2e
 9629 2b7e 01       		.byte	0x1
 9630 2b7f 51       		.byte	0x51
 9631 2b80 0F       		.byte	0xf
 9632 2b81 76       		.byte	0x76
 9633 2b82 00       		.sleb128 0
 9634 2b83 03       		.byte	0x3
 9635 2b84 CC000000 		.4byte	.LANCHOR0
 9636 2b88 22       		.byte	0x22
 9637 2b89 94       		.byte	0x94
 9638 2b8a 01       		.byte	0x1
 9639 2b8b 08       		.byte	0x8
 9640 2b8c FF       		.byte	0xff
 9641 2b8d 1A       		.byte	0x1a
 9642 2b8e 23       		.byte	0x23
 9643 2b8f 0D       		.uleb128 0xd
 9644 2b90 00       		.byte	0
 9645 2b91 00       		.byte	0
 9646 2b92 0A       		.uleb128 0xa
 9647 2b93 04       		.byte	0x4
 9648 2b94 51170000 		.4byte	0x1751
 9649 2b98 2B       		.uleb128 0x2b
 9650 2b99 01       		.byte	0x1
 9651 2b9a D9160000 		.4byte	.LASF509
 9652 2b9e 01       		.byte	0x1
 9653 2b9f 1402     		.2byte	0x214
 9654 2ba1 01       		.byte	0x1
 9655 2ba2 00000000 		.4byte	.LFB52
ARM GAS  C:\Users\EBANO_~1\AppData\Local\Temp\ccLo4wHn.s 			page 198


 9656 2ba6 80000000 		.4byte	.LFE52
 9657 2baa 80130000 		.4byte	.LLST27
 9658 2bae 01       		.byte	0x1
 9659 2baf 502C0000 		.4byte	0x2c50
 9660 2bb3 2C       		.uleb128 0x2c
 9661 2bb4 4C050000 		.4byte	.LASF444
 9662 2bb8 01       		.byte	0x1
 9663 2bb9 1402     		.2byte	0x214
 9664 2bbb B8000000 		.4byte	0xb8
 9665 2bbf B8130000 		.4byte	.LLST28
 9666 2bc3 2C       		.uleb128 0x2c
 9667 2bc4 ED140000 		.4byte	.LASF510
 9668 2bc8 01       		.byte	0x1
 9669 2bc9 1402     		.2byte	0x214
 9670 2bcb C3000000 		.4byte	0xc3
 9671 2bcf D9130000 		.4byte	.LLST29
 9672 2bd3 2C       		.uleb128 0x2c
 9673 2bd4 21190000 		.4byte	.LASF511
 9674 2bd8 01       		.byte	0x1
 9675 2bd9 1402     		.2byte	0x214
 9676 2bdb F4000000 		.4byte	0xf4
 9677 2bdf FA130000 		.4byte	.LLST30
 9678 2be3 2C       		.uleb128 0x2c
 9679 2be4 860A0000 		.4byte	.LASF512
 9680 2be8 01       		.byte	0x1
 9681 2be9 1402     		.2byte	0x214
 9682 2beb 922B0000 		.4byte	0x2b92
 9683 2bef 31140000 		.4byte	.LLST31
 9684 2bf3 34       		.uleb128 0x34
 9685 2bf4 4D1A0000 		.4byte	.LASF513
 9686 2bf8 01       		.byte	0x1
 9687 2bf9 1602     		.2byte	0x216
 9688 2bfb 502C0000 		.4byte	0x2c50
 9689 2bff 9D140000 		.4byte	.LLST32
 9690 2c03 35       		.uleb128 0x35
 9691 2c04 57310000 		.4byte	0x3157
 9692 2c08 18000000 		.4byte	.LBB50
 9693 2c0c 60000000 		.4byte	.Ldebug_ranges0+0x60
 9694 2c10 01       		.byte	0x1
 9695 2c11 1A02     		.2byte	0x21a
 9696 2c13 1D2C0000 		.4byte	0x2c1d
 9697 2c17 46       		.uleb128 0x46
 9698 2c18 68310000 		.4byte	0x3168
 9699 2c1c 00       		.byte	0
 9700 2c1d 43       		.uleb128 0x43
 9701 2c1e 3E000000 		.4byte	.LVL74
 9702 2c22 57340000 		.4byte	0x3457
 9703 2c26 4E       		.uleb128 0x4e
 9704 2c27 4A000000 		.4byte	.LVL76
 9705 2c2b 2D       		.uleb128 0x2d
 9706 2c2c 62000000 		.4byte	.LVL80
 9707 2c30 65340000 		.4byte	0x3465
 9708 2c34 2E       		.uleb128 0x2e
 9709 2c35 01       		.byte	0x1
 9710 2c36 52       		.byte	0x52
 9711 2c37 02       		.byte	0x2
 9712 2c38 75       		.byte	0x75
ARM GAS  C:\Users\EBANO_~1\AppData\Local\Temp\ccLo4wHn.s 			page 199


 9713 2c39 00       		.sleb128 0
 9714 2c3a 2E       		.uleb128 0x2e
 9715 2c3b 01       		.byte	0x1
 9716 2c3c 53       		.byte	0x53
 9717 2c3d 02       		.byte	0x2
 9718 2c3e 78       		.byte	0x78
 9719 2c3f 00       		.sleb128 0
 9720 2c40 2E       		.uleb128 0x2e
 9721 2c41 02       		.byte	0x2
 9722 2c42 7D       		.byte	0x7d
 9723 2c43 04       		.sleb128 4
 9724 2c44 02       		.byte	0x2
 9725 2c45 74       		.byte	0x74
 9726 2c46 00       		.sleb128 0
 9727 2c47 2E       		.uleb128 0x2e
 9728 2c48 02       		.byte	0x2
 9729 2c49 7D       		.byte	0x7d
 9730 2c4a 08       		.sleb128 8
 9731 2c4b 02       		.byte	0x2
 9732 2c4c 74       		.byte	0x74
 9733 2c4d 04       		.sleb128 4
 9734 2c4e 00       		.byte	0
 9735 2c4f 00       		.byte	0
 9736 2c50 02       		.uleb128 0x2
 9737 2c51 08       		.byte	0x8
 9738 2c52 04       		.byte	0x4
 9739 2c53 B5190000 		.4byte	.LASF514
 9740 2c57 4A       		.uleb128 0x4a
 9741 2c58 01       		.byte	0x1
 9742 2c59 D3010000 		.4byte	.LASF515
 9743 2c5d 01       		.byte	0x1
 9744 2c5e 0002     		.2byte	0x200
 9745 2c60 01       		.byte	0x1
 9746 2c61 1C0B0000 		.4byte	0xb1c
 9747 2c65 00000000 		.4byte	.LFB51
 9748 2c69 34000000 		.4byte	.LFE51
 9749 2c6d DD140000 		.4byte	.LLST25
 9750 2c71 01       		.byte	0x1
 9751 2c72 BB2C0000 		.4byte	0x2cbb
 9752 2c76 2C       		.uleb128 0x2c
 9753 2c77 D3000000 		.4byte	.LASF516
 9754 2c7b 01       		.byte	0x1
 9755 2c7c 0002     		.2byte	0x200
 9756 2c7e BB2C0000 		.4byte	0x2cbb
 9757 2c82 FD140000 		.4byte	.LLST26
 9758 2c86 3A       		.uleb128 0x3a
 9759 2c87 1A000000 		.4byte	.LVL64
 9760 2c8b 73340000 		.4byte	0x3473
 9761 2c8f A22C0000 		.4byte	0x2ca2
 9762 2c93 2E       		.uleb128 0x2e
 9763 2c94 01       		.byte	0x1
 9764 2c95 50       		.byte	0x50
 9765 2c96 05       		.byte	0x5
 9766 2c97 03       		.byte	0x3
 9767 2c98 D2000000 		.4byte	NvmCtx+210
 9768 2c9c 2E       		.uleb128 0x2e
 9769 2c9d 01       		.byte	0x1
ARM GAS  C:\Users\EBANO_~1\AppData\Local\Temp\ccLo4wHn.s 			page 200


 9770 2c9e 52       		.byte	0x52
 9771 2c9f 01       		.byte	0x1
 9772 2ca0 31       		.byte	0x31
 9773 2ca1 00       		.byte	0
 9774 2ca2 2D       		.uleb128 0x2d
 9775 2ca3 28000000 		.4byte	.LVL67
 9776 2ca7 73340000 		.4byte	0x3473
 9777 2cab 2E       		.uleb128 0x2e
 9778 2cac 01       		.byte	0x1
 9779 2cad 50       		.byte	0x50
 9780 2cae 05       		.byte	0x5
 9781 2caf 03       		.byte	0x3
 9782 2cb0 D0000000 		.4byte	NvmCtx+208
 9783 2cb4 2E       		.uleb128 0x2e
 9784 2cb5 01       		.byte	0x1
 9785 2cb6 52       		.byte	0x52
 9786 2cb7 01       		.byte	0x1
 9787 2cb8 31       		.byte	0x31
 9788 2cb9 00       		.byte	0
 9789 2cba 00       		.byte	0
 9790 2cbb 0A       		.uleb128 0xa
 9791 2cbc 04       		.byte	0x4
 9792 2cbd 92160000 		.4byte	0x1692
 9793 2cc1 32       		.uleb128 0x32
 9794 2cc2 01       		.byte	0x1
 9795 2cc3 D9070000 		.4byte	.LASF517
 9796 2cc7 01       		.byte	0x1
 9797 2cc8 C501     		.2byte	0x1c5
 9798 2cca 01       		.byte	0x1
 9799 2ccb 00000000 		.4byte	.LFB50
 9800 2ccf 40010000 		.4byte	.LFE50
 9801 2cd3 50150000 		.4byte	.LLST13
 9802 2cd7 01       		.byte	0x1
 9803 2cd8 A32E0000 		.4byte	0x2ea3
 9804 2cdc 2C       		.uleb128 0x2c
 9805 2cdd 14060000 		.4byte	.LASF518
 9806 2ce1 01       		.byte	0x1
 9807 2ce2 C501     		.2byte	0x1c5
 9808 2ce4 A32E0000 		.4byte	0x2ea3
 9809 2ce8 89150000 		.4byte	.LLST14
 9810 2cec 29       		.uleb128 0x29
 9811 2ced 7B190000 		.4byte	.LASF519
 9812 2cf1 01       		.byte	0x1
 9813 2cf2 C701     		.2byte	0x1c7
 9814 2cf4 48110000 		.4byte	0x1148
 9815 2cf8 02       		.byte	0x2
 9816 2cf9 91       		.byte	0x91
 9817 2cfa 4C       		.sleb128 -52
 9818 2cfb 33       		.uleb128 0x33
 9819 2cfc D8130000 		.4byte	.LASF458
 9820 2d00 01       		.byte	0x1
 9821 2d01 C801     		.2byte	0x1c8
 9822 2d03 911A0000 		.4byte	0x1a91
 9823 2d07 33       		.uleb128 0x33
 9824 2d08 E91F0000 		.4byte	.LASF457
 9825 2d0c 01       		.byte	0x1
 9826 2d0d C901     		.2byte	0x1c9
ARM GAS  C:\Users\EBANO_~1\AppData\Local\Temp\ccLo4wHn.s 			page 201


 9827 2d0f BA1A0000 		.4byte	0x1aba
 9828 2d13 38       		.uleb128 0x38
 9829 2d14 00000000 		.4byte	.Ldebug_ranges0+0
 9830 2d18 41       		.uleb128 0x41
 9831 2d19 6900     		.ascii	"i\000"
 9832 2d1b 01       		.byte	0x1
 9833 2d1c DB01     		.2byte	0x1db
 9834 2d1e C3000000 		.4byte	0xc3
 9835 2d22 CB150000 		.4byte	.LLST15
 9836 2d26 34       		.uleb128 0x34
 9837 2d27 DD030000 		.4byte	.LASF520
 9838 2d2b 01       		.byte	0x1
 9839 2d2c DB01     		.2byte	0x1db
 9840 2d2e C3000000 		.4byte	0xc3
 9841 2d32 FA150000 		.4byte	.LLST16
 9842 2d36 35       		.uleb128 0x35
 9843 2d37 B0200000 		.4byte	0x20b0
 9844 2d3b 32000000 		.4byte	.LBB32
 9845 2d3f 20000000 		.4byte	.Ldebug_ranges0+0x20
 9846 2d43 01       		.byte	0x1
 9847 2d44 FB01     		.2byte	0x1fb
 9848 2d46 A62D0000 		.4byte	0x2da6
 9849 2d4a 36       		.uleb128 0x36
 9850 2d4b C3200000 		.4byte	0x20c3
 9851 2d4f 30160000 		.4byte	.LLST17
 9852 2d53 38       		.uleb128 0x38
 9853 2d54 20000000 		.4byte	.Ldebug_ranges0+0x20
 9854 2d58 39       		.uleb128 0x39
 9855 2d59 CF200000 		.4byte	0x20cf
 9856 2d5d 48160000 		.4byte	.LLST18
 9857 2d61 3A       		.uleb128 0x3a
 9858 2d62 5A000000 		.4byte	.LVL40
 9859 2d66 CB330000 		.4byte	0x33cb
 9860 2d6a 892D0000 		.4byte	0x2d89
 9861 2d6e 2E       		.uleb128 0x2e
 9862 2d6f 01       		.byte	0x1
 9863 2d70 50       		.byte	0x50
 9864 2d71 0C       		.byte	0xc
 9865 2d72 75       		.byte	0x75
 9866 2d73 00       		.sleb128 0
 9867 2d74 31       		.byte	0x31
 9868 2d75 24       		.byte	0x24
 9869 2d76 75       		.byte	0x75
 9870 2d77 00       		.sleb128 0
 9871 2d78 22       		.byte	0x22
 9872 2d79 32       		.byte	0x32
 9873 2d7a 24       		.byte	0x24
 9874 2d7b 79       		.byte	0x79
 9875 2d7c 00       		.sleb128 0
 9876 2d7d 22       		.byte	0x22
 9877 2d7e 2E       		.uleb128 0x2e
 9878 2d7f 01       		.byte	0x1
 9879 2d80 51       		.byte	0x51
 9880 2d81 01       		.byte	0x1
 9881 2d82 30       		.byte	0x30
 9882 2d83 2E       		.uleb128 0x2e
 9883 2d84 01       		.byte	0x1
ARM GAS  C:\Users\EBANO_~1\AppData\Local\Temp\ccLo4wHn.s 			page 202


 9884 2d85 52       		.byte	0x52
 9885 2d86 01       		.byte	0x1
 9886 2d87 3C       		.byte	0x3c
 9887 2d88 00       		.byte	0
 9888 2d89 2D       		.uleb128 0x2d
 9889 2d8a 64000000 		.4byte	.LVL41
 9890 2d8e 13340000 		.4byte	0x3413
 9891 2d92 2E       		.uleb128 0x2e
 9892 2d93 01       		.byte	0x1
 9893 2d94 50       		.byte	0x50
 9894 2d95 02       		.byte	0x2
 9895 2d96 7A       		.byte	0x7a
 9896 2d97 00       		.sleb128 0
 9897 2d98 2E       		.uleb128 0x2e
 9898 2d99 01       		.byte	0x1
 9899 2d9a 51       		.byte	0x51
 9900 2d9b 02       		.byte	0x2
 9901 2d9c 77       		.byte	0x77
 9902 2d9d 00       		.sleb128 0
 9903 2d9e 2E       		.uleb128 0x2e
 9904 2d9f 01       		.byte	0x1
 9905 2da0 52       		.byte	0x52
 9906 2da1 01       		.byte	0x1
 9907 2da2 40       		.byte	0x40
 9908 2da3 00       		.byte	0
 9909 2da4 00       		.byte	0
 9910 2da5 00       		.byte	0
 9911 2da6 4F       		.uleb128 0x4f
 9912 2da7 E1200000 		.4byte	0x20e1
 9913 2dab 9A000000 		.4byte	.LBB40
 9914 2daf 40010000 		.4byte	.LBE40
 9915 2db3 01       		.byte	0x1
 9916 2db4 F501     		.2byte	0x1f5
 9917 2db6 37       		.uleb128 0x37
 9918 2db7 F4200000 		.4byte	0x20f4
 9919 2dbb 06       		.byte	0x6
 9920 2dbc F2       		.byte	0xf2
 9921 2dbd FB2C0000 		.4byte	.Ldebug_info0+11515
 9922 2dc1 00       		.sleb128 0
 9923 2dc2 50       		.uleb128 0x50
 9924 2dc3 9A000000 		.4byte	.LBB41
 9925 2dc7 40010000 		.4byte	.LBE41
 9926 2dcb 39       		.uleb128 0x39
 9927 2dcc 00210000 		.4byte	0x2100
 9928 2dd0 5B160000 		.4byte	.LLST19
 9929 2dd4 51       		.uleb128 0x51
 9930 2dd5 0C210000 		.4byte	0x210c
 9931 2dd9 00       		.byte	0
 9932 2dda 39       		.uleb128 0x39
 9933 2ddb 18210000 		.4byte	0x2118
 9934 2ddf 8B160000 		.4byte	.LLST20
 9935 2de3 35       		.uleb128 0x35
 9936 2de4 E6300000 		.4byte	0x30e6
 9937 2de8 DA000000 		.4byte	.LBB42
 9938 2dec 48000000 		.4byte	.Ldebug_ranges0+0x48
 9939 2df0 01       		.byte	0x1
 9940 2df1 B203     		.2byte	0x3b2
ARM GAS  C:\Users\EBANO_~1\AppData\Local\Temp\ccLo4wHn.s 			page 203


 9941 2df3 4A2E0000 		.4byte	0x2e4a
 9942 2df7 36       		.uleb128 0x36
 9943 2df8 F7300000 		.4byte	0x30f7
 9944 2dfc A9160000 		.4byte	.LLST21
 9945 2e00 38       		.uleb128 0x38
 9946 2e01 48000000 		.4byte	.Ldebug_ranges0+0x48
 9947 2e05 39       		.uleb128 0x39
 9948 2e06 02310000 		.4byte	0x3102
 9949 2e0a BC160000 		.4byte	.LLST22
 9950 2e0e 52       		.uleb128 0x52
 9951 2e0f E6300000 		.4byte	0x30e6
 9952 2e13 EA000000 		.4byte	.LBB44
 9953 2e17 FE000000 		.4byte	.LBE44
 9954 2e1b 3C2E0000 		.4byte	0x2e3c
 9955 2e1f 36       		.uleb128 0x36
 9956 2e20 F7300000 		.4byte	0x30f7
 9957 2e24 CF160000 		.4byte	.LLST23
 9958 2e28 50       		.uleb128 0x50
 9959 2e29 EA000000 		.4byte	.LBB45
 9960 2e2d FE000000 		.4byte	.LBE45
 9961 2e31 39       		.uleb128 0x39
 9962 2e32 02310000 		.4byte	0x3102
 9963 2e36 E2160000 		.4byte	.LLST24
 9964 2e3a 00       		.byte	0
 9965 2e3b 00       		.byte	0
 9966 2e3c 3B       		.uleb128 0x3b
 9967 2e3d E6000000 		.4byte	.LVL53
 9968 2e41 2E       		.uleb128 0x2e
 9969 2e42 01       		.byte	0x1
 9970 2e43 50       		.byte	0x50
 9971 2e44 02       		.byte	0x2
 9972 2e45 77       		.byte	0x77
 9973 2e46 00       		.sleb128 0
 9974 2e47 00       		.byte	0
 9975 2e48 00       		.byte	0
 9976 2e49 00       		.byte	0
 9977 2e4a 3A       		.uleb128 0x3a
 9978 2e4b A8000000 		.4byte	.LVL46
 9979 2e4f BE330000 		.4byte	0x33be
 9980 2e53 622E0000 		.4byte	0x2e62
 9981 2e57 2E       		.uleb128 0x2e
 9982 2e58 01       		.byte	0x1
 9983 2e59 51       		.byte	0x51
 9984 2e5a 01       		.byte	0x1
 9985 2e5b 30       		.byte	0x30
 9986 2e5c 2E       		.uleb128 0x2e
 9987 2e5d 01       		.byte	0x1
 9988 2e5e 52       		.byte	0x52
 9989 2e5f 01       		.byte	0x1
 9990 2e60 35       		.byte	0x35
 9991 2e61 00       		.byte	0
 9992 2e62 3A       		.uleb128 0x3a
 9993 2e63 B8000000 		.4byte	.LVL48
 9994 2e67 BE330000 		.4byte	0x33be
 9995 2e6b 7A2E0000 		.4byte	0x2e7a
 9996 2e6f 2E       		.uleb128 0x2e
 9997 2e70 01       		.byte	0x1
ARM GAS  C:\Users\EBANO_~1\AppData\Local\Temp\ccLo4wHn.s 			page 204


 9998 2e71 51       		.byte	0x51
 9999 2e72 01       		.byte	0x1
 10000 2e73 30       		.byte	0x30
 10001 2e74 2E       		.uleb128 0x2e
 10002 2e75 01       		.byte	0x1
 10003 2e76 52       		.byte	0x52
 10004 2e77 01       		.byte	0x1
 10005 2e78 35       		.byte	0x35
 10006 2e79 00       		.byte	0
 10007 2e7a 2D       		.uleb128 0x2d
 10008 2e7b 16010000 		.4byte	.LVL59
 10009 2e7f 21340000 		.4byte	0x3421
 10010 2e83 2E       		.uleb128 0x2e
 10011 2e84 01       		.byte	0x1
 10012 2e85 50       		.byte	0x50
 10013 2e86 0C       		.byte	0xc
 10014 2e87 75       		.byte	0x75
 10015 2e88 00       		.sleb128 0
 10016 2e89 31       		.byte	0x31
 10017 2e8a 24       		.byte	0x24
 10018 2e8b 75       		.byte	0x75
 10019 2e8c 00       		.sleb128 0
 10020 2e8d 22       		.byte	0x22
 10021 2e8e 32       		.byte	0x32
 10022 2e8f 24       		.byte	0x24
 10023 2e90 77       		.byte	0x77
 10024 2e91 00       		.sleb128 0
 10025 2e92 22       		.byte	0x22
 10026 2e93 2E       		.uleb128 0x2e
 10027 2e94 01       		.byte	0x1
 10028 2e95 51       		.byte	0x51
 10029 2e96 02       		.byte	0x2
 10030 2e97 74       		.byte	0x74
 10031 2e98 00       		.sleb128 0
 10032 2e99 2E       		.uleb128 0x2e
 10033 2e9a 01       		.byte	0x1
 10034 2e9b 52       		.byte	0x52
 10035 2e9c 01       		.byte	0x1
 10036 2e9d 3C       		.byte	0x3c
 10037 2e9e 00       		.byte	0
 10038 2e9f 00       		.byte	0
 10039 2ea0 00       		.byte	0
 10040 2ea1 00       		.byte	0
 10041 2ea2 00       		.byte	0
 10042 2ea3 0A       		.uleb128 0xa
 10043 2ea4 04       		.byte	0x4
 10044 2ea5 5A160000 		.4byte	0x165a
 10045 2ea9 4A       		.uleb128 0x4a
 10046 2eaa 01       		.byte	0x1
 10047 2eab C40C0000 		.4byte	.LASF521
 10048 2eaf 01       		.byte	0x1
 10049 2eb0 A601     		.2byte	0x1a6
 10050 2eb2 01       		.byte	0x1
 10051 2eb3 1C0B0000 		.4byte	0xb1c
 10052 2eb7 00000000 		.4byte	.LFB49
 10053 2ebb 3C000000 		.4byte	.LFE49
 10054 2ebf 06170000 		.4byte	.LLST10
ARM GAS  C:\Users\EBANO_~1\AppData\Local\Temp\ccLo4wHn.s 			page 205


 10055 2ec3 01       		.byte	0x1
 10056 2ec4 152F0000 		.4byte	0x2f15
 10057 2ec8 2C       		.uleb128 0x2c
 10058 2ec9 7E030000 		.4byte	.LASF522
 10059 2ecd 01       		.byte	0x1
 10060 2ece A601     		.2byte	0x1a6
 10061 2ed0 152F0000 		.4byte	0x2f15
 10062 2ed4 26170000 		.4byte	.LLST11
 10063 2ed8 2C       		.uleb128 0x2c
 10064 2ed9 0C150000 		.4byte	.LASF523
 10065 2edd 01       		.byte	0x1
 10066 2ede A601     		.2byte	0x1a6
 10067 2ee0 B2130000 		.4byte	0x13b2
 10068 2ee4 79170000 		.4byte	.LLST12
 10069 2ee8 3A       		.uleb128 0x3a
 10070 2ee9 16000000 		.4byte	.LVL27
 10071 2eed BE330000 		.4byte	0x33be
 10072 2ef1 002F0000 		.4byte	0x2f00
 10073 2ef5 2E       		.uleb128 0x2e
 10074 2ef6 01       		.byte	0x1
 10075 2ef7 51       		.byte	0x51
 10076 2ef8 01       		.byte	0x1
 10077 2ef9 30       		.byte	0x30
 10078 2efa 2E       		.uleb128 0x2e
 10079 2efb 01       		.byte	0x1
 10080 2efc 52       		.byte	0x52
 10081 2efd 01       		.byte	0x1
 10082 2efe 35       		.byte	0x35
 10083 2eff 00       		.byte	0
 10084 2f00 2D       		.uleb128 0x2d
 10085 2f01 30000000 		.4byte	.LVL31
 10086 2f05 BE330000 		.4byte	0x33be
 10087 2f09 2E       		.uleb128 0x2e
 10088 2f0a 01       		.byte	0x1
 10089 2f0b 51       		.byte	0x51
 10090 2f0c 01       		.byte	0x1
 10091 2f0d 30       		.byte	0x30
 10092 2f0e 2E       		.uleb128 0x2e
 10093 2f0f 01       		.byte	0x1
 10094 2f10 52       		.byte	0x52
 10095 2f11 01       		.byte	0x1
 10096 2f12 37       		.byte	0x37
 10097 2f13 00       		.byte	0
 10098 2f14 00       		.byte	0
 10099 2f15 0A       		.uleb128 0xa
 10100 2f16 04       		.byte	0x4
 10101 2f17 22160000 		.4byte	0x1622
 10102 2f1b 2F       		.uleb128 0x2f
 10103 2f1c 01       		.byte	0x1
 10104 2f1d B41D0000 		.4byte	.LASF524
 10105 2f21 01       		.byte	0x1
 10106 2f22 A001     		.2byte	0x1a0
 10107 2f24 01       		.byte	0x1
 10108 2f25 89010000 		.4byte	0x189
 10109 2f29 00000000 		.4byte	.LFB48
 10110 2f2d 0C000000 		.4byte	.LFE48
 10111 2f31 02       		.byte	0x2
ARM GAS  C:\Users\EBANO_~1\AppData\Local\Temp\ccLo4wHn.s 			page 206


 10112 2f32 7D       		.byte	0x7d
 10113 2f33 00       		.sleb128 0
 10114 2f34 01       		.byte	0x1
 10115 2f35 4A2F0000 		.4byte	0x2f4a
 10116 2f39 2C       		.uleb128 0x2c
 10117 2f3a E50E0000 		.4byte	.LASF525
 10118 2f3e 01       		.byte	0x1
 10119 2f3f A001     		.2byte	0x1a0
 10120 2f41 4A2F0000 		.4byte	0x2f4a
 10121 2f45 B3170000 		.4byte	.LLST9
 10122 2f49 00       		.byte	0
 10123 2f4a 0A       		.uleb128 0xa
 10124 2f4b 04       		.byte	0x4
 10125 2f4c A9150000 		.4byte	0x15a9
 10126 2f50 2B       		.uleb128 0x2b
 10127 2f51 01       		.byte	0x1
 10128 2f52 C1070000 		.4byte	.LASF526
 10129 2f56 01       		.byte	0x1
 10130 2f57 7201     		.2byte	0x172
 10131 2f59 01       		.byte	0x1
 10132 2f5a 00000000 		.4byte	.LFB47
 10133 2f5e 94000000 		.4byte	.LFE47
 10134 2f62 D4170000 		.4byte	.LLST7
 10135 2f66 01       		.byte	0x1
 10136 2f67 E22F0000 		.4byte	0x2fe2
 10137 2f6b 2C       		.uleb128 0x2c
 10138 2f6c E50E0000 		.4byte	.LASF525
 10139 2f70 01       		.byte	0x1
 10140 2f71 7201     		.2byte	0x172
 10141 2f73 E22F0000 		.4byte	0x2fe2
 10142 2f77 00180000 		.4byte	.LLST8
 10143 2f7b 29       		.uleb128 0x29
 10144 2f7c 5E150000 		.4byte	.LASF527
 10145 2f80 01       		.byte	0x1
 10146 2f81 7401     		.2byte	0x174
 10147 2f83 AF1E0000 		.4byte	0x1eaf
 10148 2f87 02       		.byte	0x2
 10149 2f88 91       		.byte	0x91
 10150 2f89 58       		.sleb128 -40
 10151 2f8a 3A       		.uleb128 0x3a
 10152 2f8b 30000000 		.4byte	.LVL15
 10153 2f8f 21340000 		.4byte	0x3421
 10154 2f93 A72F0000 		.4byte	0x2fa7
 10155 2f97 2E       		.uleb128 0x2e
 10156 2f98 01       		.byte	0x1
 10157 2f99 50       		.byte	0x50
 10158 2f9a 05       		.byte	0x5
 10159 2f9b 03       		.byte	0x3
 10160 2f9c 00000000 		.4byte	NvmCtx
 10161 2fa0 2E       		.uleb128 0x2e
 10162 2fa1 01       		.byte	0x1
 10163 2fa2 52       		.byte	0x52
 10164 2fa3 02       		.byte	0x2
 10165 2fa4 08       		.byte	0x8
 10166 2fa5 D4       		.byte	0xd4
 10167 2fa6 00       		.byte	0
 10168 2fa7 3A       		.uleb128 0x3a
ARM GAS  C:\Users\EBANO_~1\AppData\Local\Temp\ccLo4wHn.s 			page 207


 10169 2fa8 40000000 		.4byte	.LVL18
 10170 2fac 21340000 		.4byte	0x3421
 10171 2fb0 C62F0000 		.4byte	0x2fc6
 10172 2fb4 2E       		.uleb128 0x2e
 10173 2fb5 01       		.byte	0x1
 10174 2fb6 50       		.byte	0x50
 10175 2fb7 02       		.byte	0x2
 10176 2fb8 74       		.byte	0x74
 10177 2fb9 00       		.sleb128 0
 10178 2fba 2E       		.uleb128 0x2e
 10179 2fbb 01       		.byte	0x1
 10180 2fbc 51       		.byte	0x51
 10181 2fbd 02       		.byte	0x2
 10182 2fbe 7D       		.byte	0x7d
 10183 2fbf 00       		.sleb128 0
 10184 2fc0 2E       		.uleb128 0x2e
 10185 2fc1 01       		.byte	0x1
 10186 2fc2 52       		.byte	0x52
 10187 2fc3 01       		.byte	0x1
 10188 2fc4 40       		.byte	0x40
 10189 2fc5 00       		.byte	0
 10190 2fc6 2D       		.uleb128 0x2d
 10191 2fc7 76000000 		.4byte	.LVL19
 10192 2fcb 73340000 		.4byte	0x3473
 10193 2fcf 2E       		.uleb128 0x2e
 10194 2fd0 01       		.byte	0x1
 10195 2fd1 50       		.byte	0x50
 10196 2fd2 02       		.byte	0x2
 10197 2fd3 74       		.byte	0x74
 10198 2fd4 10       		.sleb128 16
 10199 2fd5 2E       		.uleb128 0x2e
 10200 2fd6 01       		.byte	0x1
 10201 2fd7 51       		.byte	0x51
 10202 2fd8 02       		.byte	0x2
 10203 2fd9 74       		.byte	0x74
 10204 2fda 12       		.sleb128 18
 10205 2fdb 2E       		.uleb128 0x2e
 10206 2fdc 01       		.byte	0x1
 10207 2fdd 52       		.byte	0x52
 10208 2fde 01       		.byte	0x1
 10209 2fdf 31       		.byte	0x31
 10210 2fe0 00       		.byte	0
 10211 2fe1 00       		.byte	0
 10212 2fe2 0A       		.uleb128 0xa
 10213 2fe3 04       		.byte	0x4
 10214 2fe4 80150000 		.4byte	0x1580
 10215 2fe8 2B       		.uleb128 0x2b
 10216 2fe9 01       		.byte	0x1
 10217 2fea 6F000000 		.4byte	.LASF528
 10218 2fee 01       		.byte	0x1
 10219 2fef 6D01     		.2byte	0x16d
 10220 2ff1 01       		.byte	0x1
 10221 2ff2 00000000 		.4byte	.LFB46
 10222 2ff6 24000000 		.4byte	.LFE46
 10223 2ffa 53180000 		.4byte	.LLST5
 10224 2ffe 01       		.byte	0x1
 10225 2fff 1D300000 		.4byte	0x301d
ARM GAS  C:\Users\EBANO_~1\AppData\Local\Temp\ccLo4wHn.s 			page 208


 10226 3003 2C       		.uleb128 0x2c
 10227 3004 9F050000 		.4byte	.LASF529
 10228 3008 01       		.byte	0x1
 10229 3009 6D01     		.2byte	0x16d
 10230 300b 1D300000 		.4byte	0x301d
 10231 300f 73180000 		.4byte	.LLST6
 10232 3013 43       		.uleb128 0x43
 10233 3014 1E000000 		.4byte	.LVL12
 10234 3018 81340000 		.4byte	0x3481
 10235 301c 00       		.byte	0
 10236 301d 0A       		.uleb128 0xa
 10237 301e 04       		.byte	0x4
 10238 301f 48150000 		.4byte	0x1548
 10239 3023 53       		.uleb128 0x53
 10240 3024 01       		.byte	0x1
 10241 3025 97080000 		.4byte	.LASF530
 10242 3029 01       		.byte	0x1
 10243 302a B7       		.byte	0xb7
 10244 302b 01       		.byte	0x1
 10245 302c AB140000 		.4byte	0x14ab
 10246 3030 01       		.byte	0x1
 10247 3031 4C300000 		.4byte	0x304c
 10248 3035 54       		.uleb128 0x54
 10249 3036 D9180000 		.4byte	.LASF497
 10250 303a 01       		.byte	0x1
 10251 303b B7       		.byte	0xb7
 10252 303c 4C300000 		.4byte	0x304c
 10253 3040 55       		.uleb128 0x55
 10254 3041 C4040000 		.4byte	.LASF498
 10255 3045 01       		.byte	0x1
 10256 3046 B9       		.byte	0xb9
 10257 3047 AB140000 		.4byte	0x14ab
 10258 304b 00       		.byte	0
 10259 304c 0A       		.uleb128 0xa
 10260 304d 04       		.byte	0x4
 10261 304e 01150000 		.4byte	0x1501
 10262 3052 56       		.uleb128 0x56
 10263 3053 4C090000 		.4byte	.LASF535
 10264 3057 01       		.byte	0x1
 10265 3058 8E       		.byte	0x8e
 10266 3059 01       		.byte	0x1
 10267 305a C3000000 		.4byte	0xc3
 10268 305e 01       		.byte	0x1
 10269 305f E6300000 		.4byte	0x30e6
 10270 3063 54       		.uleb128 0x54
 10271 3064 52170000 		.4byte	.LASF531
 10272 3068 01       		.byte	0x1
 10273 3069 8E       		.byte	0x8e
 10274 306a 1C0B0000 		.4byte	0xb1c
 10275 306e 54       		.uleb128 0x54
 10276 306f 4C050000 		.4byte	.LASF444
 10277 3073 01       		.byte	0x1
 10278 3074 8E       		.byte	0x8e
 10279 3075 C3000000 		.4byte	0xc3
 10280 3079 54       		.uleb128 0x54
 10281 307a 57140000 		.4byte	.LASF532
 10282 307e 01       		.byte	0x1
ARM GAS  C:\Users\EBANO_~1\AppData\Local\Temp\ccLo4wHn.s 			page 209


 10283 307f 8E       		.byte	0x8e
 10284 3080 95110000 		.4byte	0x1195
 10285 3084 54       		.uleb128 0x54
 10286 3085 391D0000 		.4byte	.LASF533
 10287 3089 01       		.byte	0x1
 10288 308a 8E       		.byte	0x8e
 10289 308b 8F110000 		.4byte	0x118f
 10290 308f 54       		.uleb128 0x54
 10291 3090 5E150000 		.4byte	.LASF527
 10292 3094 01       		.byte	0x1
 10293 3095 8E       		.byte	0x8e
 10294 3096 541D0000 		.4byte	0x1d54
 10295 309a 54       		.uleb128 0x54
 10296 309b 5D1A0000 		.4byte	.LASF470
 10297 309f 01       		.byte	0x1
 10298 30a0 8E       		.byte	0x8e
 10299 30a1 8B0A0000 		.4byte	0xa8b
 10300 30a5 54       		.uleb128 0x54
 10301 30a6 2F070000 		.4byte	.LASF469
 10302 30aa 01       		.byte	0x1
 10303 30ab 8E       		.byte	0x8e
 10304 30ac 8B0A0000 		.4byte	0xa8b
 10305 30b0 55       		.uleb128 0x55
 10306 30b1 65160000 		.4byte	.LASF468
 10307 30b5 01       		.byte	0x1
 10308 30b6 90       		.byte	0x90
 10309 30b7 C3000000 		.4byte	0xc3
 10310 30bb 55       		.uleb128 0x55
 10311 30bc D71C0000 		.4byte	.LASF534
 10312 30c0 01       		.byte	0x1
 10313 30c1 91       		.byte	0x91
 10314 30c2 C3000000 		.4byte	0xc3
 10315 30c6 57       		.uleb128 0x57
 10316 30c7 58       		.uleb128 0x58
 10317 30c8 6900     		.ascii	"i\000"
 10318 30ca 01       		.byte	0x1
 10319 30cb 93       		.byte	0x93
 10320 30cc C3000000 		.4byte	0xc3
 10321 30d0 58       		.uleb128 0x58
 10322 30d1 6B00     		.ascii	"k\000"
 10323 30d3 01       		.byte	0x1
 10324 30d4 93       		.byte	0x93
 10325 30d5 C3000000 		.4byte	0xc3
 10326 30d9 57       		.uleb128 0x57
 10327 30da 58       		.uleb128 0x58
 10328 30db 6A00     		.ascii	"j\000"
 10329 30dd 01       		.byte	0x1
 10330 30de 95       		.byte	0x95
 10331 30df C3000000 		.4byte	0xc3
 10332 30e3 00       		.byte	0
 10333 30e4 00       		.byte	0
 10334 30e5 00       		.byte	0
 10335 30e6 56       		.uleb128 0x56
 10336 30e7 C3140000 		.4byte	.LASF536
 10337 30eb 01       		.byte	0x1
 10338 30ec 76       		.byte	0x76
 10339 30ed 01       		.byte	0x1
ARM GAS  C:\Users\EBANO_~1\AppData\Local\Temp\ccLo4wHn.s 			page 210


 10340 30ee 1C0B0000 		.4byte	0xb1c
 10341 30f2 01       		.byte	0x1
 10342 30f3 0E310000 		.4byte	0x310e
 10343 30f7 54       		.uleb128 0x54
 10344 30f8 9A040000 		.4byte	.LASF537
 10345 30fc 01       		.byte	0x1
 10346 30fd 76       		.byte	0x76
 10347 30fe F4000000 		.4byte	0xf4
 10348 3102 55       		.uleb128 0x55
 10349 3103 02160000 		.4byte	.LASF538
 10350 3107 01       		.byte	0x1
 10351 3108 78       		.byte	0x78
 10352 3109 F4000000 		.4byte	0xf4
 10353 310d 00       		.byte	0
 10354 310e 56       		.uleb128 0x56
 10355 310f CE120000 		.4byte	.LASF539
 10356 3113 01       		.byte	0x1
 10357 3114 6C       		.byte	0x6c
 10358 3115 01       		.byte	0x1
 10359 3116 B8000000 		.4byte	0xb8
 10360 311a 01       		.byte	0x1
 10361 311b 57310000 		.4byte	0x3157
 10362 311f 54       		.uleb128 0x54
 10363 3120 62110000 		.4byte	.LASF502
 10364 3124 01       		.byte	0x1
 10365 3125 6C       		.byte	0x6c
 10366 3126 B8000000 		.4byte	0xb8
 10367 312a 54       		.uleb128 0x54
 10368 312b 410A0000 		.4byte	.LASF540
 10369 312f 01       		.byte	0x1
 10370 3130 6C       		.byte	0x6c
 10371 3131 B8000000 		.4byte	0xb8
 10372 3135 54       		.uleb128 0x54
 10373 3136 4C050000 		.4byte	.LASF444
 10374 313a 01       		.byte	0x1
 10375 313b 6C       		.byte	0x6c
 10376 313c B8000000 		.4byte	0xb8
 10377 3140 54       		.uleb128 0x54
 10378 3141 57140000 		.4byte	.LASF532
 10379 3145 01       		.byte	0x1
 10380 3146 6C       		.byte	0x6c
 10381 3147 95110000 		.4byte	0x1195
 10382 314b 55       		.uleb128 0x55
 10383 314c 30040000 		.4byte	.LASF541
 10384 3150 01       		.byte	0x1
 10385 3151 6E       		.byte	0x6e
 10386 3152 B8000000 		.4byte	0xb8
 10387 3156 00       		.byte	0
 10388 3157 56       		.uleb128 0x56
 10389 3158 6E170000 		.4byte	.LASF542
 10390 315c 01       		.byte	0x1
 10391 315d 5E       		.byte	0x5e
 10392 315e 01       		.byte	0x1
 10393 315f F4000000 		.4byte	0xf4
 10394 3163 01       		.byte	0x1
 10395 3164 74310000 		.4byte	0x3174
 10396 3168 54       		.uleb128 0x54
ARM GAS  C:\Users\EBANO_~1\AppData\Local\Temp\ccLo4wHn.s 			page 211


 10397 3169 860B0000 		.4byte	.LASF543
 10398 316d 01       		.byte	0x1
 10399 316e 5E       		.byte	0x5e
 10400 316f F4000000 		.4byte	0xf4
 10401 3173 00       		.byte	0
 10402 3174 56       		.uleb128 0x56
 10403 3175 231D0000 		.4byte	.LASF544
 10404 3179 01       		.byte	0x1
 10405 317a 54       		.byte	0x54
 10406 317b 01       		.byte	0x1
 10407 317c B8000000 		.4byte	0xb8
 10408 3180 01       		.byte	0x1
 10409 3181 91310000 		.4byte	0x3191
 10410 3185 54       		.uleb128 0x54
 10411 3186 9A040000 		.4byte	.LASF537
 10412 318a 01       		.byte	0x1
 10413 318b 54       		.byte	0x54
 10414 318c F4000000 		.4byte	0xf4
 10415 3190 00       		.byte	0
 10416 3191 56       		.uleb128 0x56
 10417 3192 260F0000 		.4byte	.LASF545
 10418 3196 01       		.byte	0x1
 10419 3197 45       		.byte	0x45
 10420 3198 01       		.byte	0x1
 10421 3199 B8000000 		.4byte	0xb8
 10422 319d 01       		.byte	0x1
 10423 319e C3310000 		.4byte	0x31c3
 10424 31a2 59       		.uleb128 0x59
 10425 31a3 647200   		.ascii	"dr\000"
 10426 31a6 01       		.byte	0x1
 10427 31a7 45       		.byte	0x45
 10428 31a8 B8000000 		.4byte	0xb8
 10429 31ac 54       		.uleb128 0x54
 10430 31ad 6E0E0000 		.4byte	.LASF546
 10431 31b1 01       		.byte	0x1
 10432 31b2 45       		.byte	0x45
 10433 31b3 B8000000 		.4byte	0xb8
 10434 31b7 55       		.uleb128 0x55
 10435 31b8 D21D0000 		.4byte	.LASF547
 10436 31bc 01       		.byte	0x1
 10437 31bd 47       		.byte	0x47
 10438 31be C3000000 		.4byte	0xc3
 10439 31c2 00       		.byte	0
 10440 31c3 5A       		.uleb128 0x5a
 10441 31c4 23300000 		.4byte	0x3023
 10442 31c8 00000000 		.4byte	.LFB45
 10443 31cc 0C010000 		.4byte	.LFE45
 10444 31d0 94180000 		.4byte	.LLST0
 10445 31d4 01       		.byte	0x1
 10446 31d5 3C320000 		.4byte	0x323c
 10447 31d9 36       		.uleb128 0x36
 10448 31da 35300000 		.4byte	0x3035
 10449 31de C0180000 		.4byte	.LLST1
 10450 31e2 5B       		.uleb128 0x5b
 10451 31e3 40300000 		.4byte	0x3040
 10452 31e7 02       		.byte	0x2
 10453 31e8 91       		.byte	0x91
ARM GAS  C:\Users\EBANO_~1\AppData\Local\Temp\ccLo4wHn.s 			page 212


 10454 31e9 70       		.sleb128 -16
 10455 31ea 5C       		.uleb128 0x5c
 10456 31eb 91310000 		.4byte	0x3191
 10457 31ef C2000000 		.4byte	.LBB20
 10458 31f3 CC000000 		.4byte	.LBE20
 10459 31f7 01       		.byte	0x1
 10460 31f8 CE       		.byte	0xce
 10461 31f9 23320000 		.4byte	0x3223
 10462 31fd 36       		.uleb128 0x36
 10463 31fe AC310000 		.4byte	0x31ac
 10464 3202 05190000 		.4byte	.LLST2
 10465 3206 36       		.uleb128 0x36
 10466 3207 A2310000 		.4byte	0x31a2
 10467 320b 19190000 		.4byte	.LLST3
 10468 320f 50       		.uleb128 0x50
 10469 3210 C2000000 		.4byte	.LBB21
 10470 3214 CC000000 		.4byte	.LBE21
 10471 3218 39       		.uleb128 0x39
 10472 3219 B7310000 		.4byte	0x31b7
 10473 321d 39190000 		.4byte	.LLST4
 10474 3221 00       		.byte	0
 10475 3222 00       		.byte	0
 10476 3223 2D       		.uleb128 0x2d
 10477 3224 5A000000 		.4byte	.LVL4
 10478 3228 B1330000 		.4byte	0x33b1
 10479 322c 2E       		.uleb128 0x2e
 10480 322d 01       		.byte	0x1
 10481 322e 50       		.byte	0x50
 10482 322f 03       		.byte	0x3
 10483 3230 0B       		.byte	0xb
 10484 3231 18FC     		.2byte	0xfc18
 10485 3233 2E       		.uleb128 0x2e
 10486 3234 01       		.byte	0x1
 10487 3235 51       		.byte	0x51
 10488 3236 03       		.byte	0x3
 10489 3237 0A       		.byte	0xa
 10490 3238 E803     		.2byte	0x3e8
 10491 323a 00       		.byte	0
 10492 323b 00       		.byte	0
 10493 323c 5D       		.uleb128 0x5d
 10494 323d E1200000 		.4byte	0x20e1
 10495 3241 00000000 		.4byte	.LFB63
 10496 3245 E8000000 		.4byte	.LFE63
 10497 3249 67190000 		.4byte	.LLST112
 10498 324d 01       		.byte	0x1
 10499 324e 28330000 		.4byte	0x3328
 10500 3252 36       		.uleb128 0x36
 10501 3253 F4200000 		.4byte	0x20f4
 10502 3257 93190000 		.4byte	.LLST113
 10503 325b 39       		.uleb128 0x39
 10504 325c 00210000 		.4byte	0x2100
 10505 3260 E3190000 		.4byte	.LLST114
 10506 3264 39       		.uleb128 0x39
 10507 3265 0C210000 		.4byte	0x210c
 10508 3269 461A0000 		.4byte	.LLST115
 10509 326d 39       		.uleb128 0x39
 10510 326e 18210000 		.4byte	0x2118
ARM GAS  C:\Users\EBANO_~1\AppData\Local\Temp\ccLo4wHn.s 			page 213


 10511 3272 7E1A0000 		.4byte	.LLST116
 10512 3276 35       		.uleb128 0x35
 10513 3277 E6300000 		.4byte	0x30e6
 10514 327b 4E000000 		.4byte	.LBB171
 10515 327f 50020000 		.4byte	.Ldebug_ranges0+0x250
 10516 3283 01       		.byte	0x1
 10517 3284 B203     		.2byte	0x3b2
 10518 3286 E2320000 		.4byte	0x32e2
 10519 328a 36       		.uleb128 0x36
 10520 328b F7300000 		.4byte	0x30f7
 10521 328f 9C1A0000 		.4byte	.LLST117
 10522 3293 38       		.uleb128 0x38
 10523 3294 50020000 		.4byte	.Ldebug_ranges0+0x250
 10524 3298 39       		.uleb128 0x39
 10525 3299 02310000 		.4byte	0x3102
 10526 329d 9C1A0000 		.4byte	.LLST117
 10527 32a1 45       		.uleb128 0x45
 10528 32a2 E6300000 		.4byte	0x30e6
 10529 32a6 80020000 		.4byte	.Ldebug_ranges0+0x280
 10530 32aa C7320000 		.4byte	0x32c7
 10531 32ae 36       		.uleb128 0x36
 10532 32af F7300000 		.4byte	0x30f7
 10533 32b3 BE1A0000 		.4byte	.LLST119
 10534 32b7 38       		.uleb128 0x38
 10535 32b8 80020000 		.4byte	.Ldebug_ranges0+0x280
 10536 32bc 39       		.uleb128 0x39
 10537 32bd 02310000 		.4byte	0x3102
 10538 32c1 E71A0000 		.4byte	.LLST120
 10539 32c5 00       		.byte	0
 10540 32c6 00       		.byte	0
 10541 32c7 48       		.uleb128 0x48
 10542 32c8 58000000 		.4byte	.LVL310
 10543 32cc D7320000 		.4byte	0x32d7
 10544 32d0 2E       		.uleb128 0x2e
 10545 32d1 01       		.byte	0x1
 10546 32d2 50       		.byte	0x50
 10547 32d3 02       		.byte	0x2
 10548 32d4 76       		.byte	0x76
 10549 32d5 00       		.sleb128 0
 10550 32d6 00       		.byte	0
 10551 32d7 49       		.uleb128 0x49
 10552 32d8 7C000000 		.4byte	.LVL318
 10553 32dc 03       		.byte	0x3
 10554 32dd 91       		.byte	0x91
 10555 32de 64       		.sleb128 -28
 10556 32df 06       		.byte	0x6
 10557 32e0 00       		.byte	0
 10558 32e1 00       		.byte	0
 10559 32e2 3A       		.uleb128 0x3a
 10560 32e3 22000000 		.4byte	.LVL305
 10561 32e7 BE330000 		.4byte	0x33be
 10562 32eb FA320000 		.4byte	0x32fa
 10563 32ef 2E       		.uleb128 0x2e
 10564 32f0 01       		.byte	0x1
 10565 32f1 51       		.byte	0x51
 10566 32f2 01       		.byte	0x1
 10567 32f3 30       		.byte	0x30
ARM GAS  C:\Users\EBANO_~1\AppData\Local\Temp\ccLo4wHn.s 			page 214


 10568 32f4 2E       		.uleb128 0x2e
 10569 32f5 01       		.byte	0x1
 10570 32f6 52       		.byte	0x52
 10571 32f7 01       		.byte	0x1
 10572 32f8 35       		.byte	0x35
 10573 32f9 00       		.byte	0
 10574 32fa 3A       		.uleb128 0x3a
 10575 32fb 34000000 		.4byte	.LVL307
 10576 32ff BE330000 		.4byte	0x33be
 10577 3303 12330000 		.4byte	0x3312
 10578 3307 2E       		.uleb128 0x2e
 10579 3308 01       		.byte	0x1
 10580 3309 51       		.byte	0x51
 10581 330a 01       		.byte	0x1
 10582 330b 30       		.byte	0x30
 10583 330c 2E       		.uleb128 0x2e
 10584 330d 01       		.byte	0x1
 10585 330e 52       		.byte	0x52
 10586 330f 01       		.byte	0x1
 10587 3310 35       		.byte	0x35
 10588 3311 00       		.byte	0
 10589 3312 2D       		.uleb128 0x2d
 10590 3313 BC000000 		.4byte	.LVL327
 10591 3317 21340000 		.4byte	0x3421
 10592 331b 2E       		.uleb128 0x2e
 10593 331c 01       		.byte	0x1
 10594 331d 50       		.byte	0x50
 10595 331e 02       		.byte	0x2
 10596 331f 74       		.byte	0x74
 10597 3320 00       		.sleb128 0
 10598 3321 2E       		.uleb128 0x2e
 10599 3322 01       		.byte	0x1
 10600 3323 52       		.byte	0x52
 10601 3324 01       		.byte	0x1
 10602 3325 3C       		.byte	0x3c
 10603 3326 00       		.byte	0
 10604 3327 00       		.byte	0
 10605 3328 5A       		.uleb128 0x5a
 10606 3329 B0200000 		.4byte	0x20b0
 10607 332d 00000000 		.4byte	.LFB64
 10608 3331 30000000 		.4byte	.LFE64
 10609 3335 381B0000 		.4byte	.LLST121
 10610 3339 01       		.byte	0x1
 10611 333a 95330000 		.4byte	0x3395
 10612 333e 36       		.uleb128 0x36
 10613 333f C3200000 		.4byte	0x20c3
 10614 3343 581B0000 		.4byte	.LLST122
 10615 3347 39       		.uleb128 0x39
 10616 3348 CF200000 		.4byte	0x20cf
 10617 334c 791B0000 		.4byte	.LLST123
 10618 3350 3A       		.uleb128 0x3a
 10619 3351 1C000000 		.4byte	.LVL332
 10620 3355 CB330000 		.4byte	0x33cb
 10621 3359 78330000 		.4byte	0x3378
 10622 335d 2E       		.uleb128 0x2e
 10623 335e 01       		.byte	0x1
 10624 335f 50       		.byte	0x50
ARM GAS  C:\Users\EBANO_~1\AppData\Local\Temp\ccLo4wHn.s 			page 215


 10625 3360 0C       		.byte	0xc
 10626 3361 74       		.byte	0x74
 10627 3362 00       		.sleb128 0
 10628 3363 31       		.byte	0x31
 10629 3364 24       		.byte	0x24
 10630 3365 74       		.byte	0x74
 10631 3366 00       		.sleb128 0
 10632 3367 22       		.byte	0x22
 10633 3368 32       		.byte	0x32
 10634 3369 24       		.byte	0x24
 10635 336a 75       		.byte	0x75
 10636 336b 00       		.sleb128 0
 10637 336c 22       		.byte	0x22
 10638 336d 2E       		.uleb128 0x2e
 10639 336e 01       		.byte	0x1
 10640 336f 51       		.byte	0x51
 10641 3370 01       		.byte	0x1
 10642 3371 30       		.byte	0x30
 10643 3372 2E       		.uleb128 0x2e
 10644 3373 01       		.byte	0x1
 10645 3374 52       		.byte	0x52
 10646 3375 01       		.byte	0x1
 10647 3376 3C       		.byte	0x3c
 10648 3377 00       		.byte	0
 10649 3378 2D       		.uleb128 0x2d
 10650 3379 28000000 		.4byte	.LVL333
 10651 337d 13340000 		.4byte	0x3413
 10652 3381 2E       		.uleb128 0x2e
 10653 3382 01       		.byte	0x1
 10654 3383 50       		.byte	0x50
 10655 3384 03       		.byte	0x3
 10656 3385 75       		.byte	0x75
 10657 3386 D001     		.sleb128 208
 10658 3388 2E       		.uleb128 0x2e
 10659 3389 01       		.byte	0x1
 10660 338a 51       		.byte	0x51
 10661 338b 02       		.byte	0x2
 10662 338c 74       		.byte	0x74
 10663 338d 00       		.sleb128 0
 10664 338e 2E       		.uleb128 0x2e
 10665 338f 01       		.byte	0x1
 10666 3390 52       		.byte	0x52
 10667 3391 01       		.byte	0x1
 10668 3392 40       		.byte	0x40
 10669 3393 00       		.byte	0
 10670 3394 00       		.byte	0
 10671 3395 5E       		.uleb128 0x5e
 10672 3396 01       		.byte	0x1
 10673 3397 01       		.byte	0x1
 10674 3398 041C0000 		.4byte	.LASF548
 10675 339c 041C0000 		.4byte	.LASF548
 10676 33a0 10       		.byte	0x10
 10677 33a1 9F01     		.2byte	0x19f
 10678 33a3 5E       		.uleb128 0x5e
 10679 33a4 01       		.byte	0x1
 10680 33a5 01       		.byte	0x1
 10681 33a6 A4160000 		.4byte	.LASF549
ARM GAS  C:\Users\EBANO_~1\AppData\Local\Temp\ccLo4wHn.s 			page 216


 10682 33aa A4160000 		.4byte	.LASF549
 10683 33ae 10       		.byte	0x10
 10684 33af 9101     		.2byte	0x191
 10685 33b1 5F       		.uleb128 0x5f
 10686 33b2 01       		.byte	0x1
 10687 33b3 01       		.byte	0x1
 10688 33b4 29020000 		.4byte	.LASF550
 10689 33b8 29020000 		.4byte	.LASF550
 10690 33bc 0A       		.byte	0xa
 10691 33bd 77       		.byte	0x77
 10692 33be 5F       		.uleb128 0x5f
 10693 33bf 01       		.byte	0x1
 10694 33c0 01       		.byte	0x1
 10695 33c1 FE160000 		.4byte	.LASF551
 10696 33c5 FE160000 		.4byte	.LASF551
 10697 33c9 10       		.byte	0x10
 10698 33ca E1       		.byte	0xe1
 10699 33cb 60       		.uleb128 0x60
 10700 33cc 01       		.byte	0x1
 10701 33cd 01       		.byte	0x1
 10702 33ce 38110000 		.4byte	.LASF565
 10703 33d2 85030000 		.4byte	.LASF566
 10704 33d6 13       		.byte	0x13
 10705 33d7 00       		.byte	0
 10706 33d8 38110000 		.4byte	.LASF565
 10707 33dc 5E       		.uleb128 0x5e
 10708 33dd 01       		.byte	0x1
 10709 33de 01       		.byte	0x1
 10710 33df 9A0A0000 		.4byte	.LASF552
 10711 33e3 9A0A0000 		.4byte	.LASF552
 10712 33e7 10       		.byte	0x10
 10713 33e8 1201     		.2byte	0x112
 10714 33ea 5F       		.uleb128 0x5f
 10715 33eb 01       		.byte	0x1
 10716 33ec 01       		.byte	0x1
 10717 33ed 38140000 		.4byte	.LASF553
 10718 33f1 38140000 		.4byte	.LASF553
 10719 33f5 12       		.byte	0x12
 10720 33f6 94       		.byte	0x94
 10721 33f7 5E       		.uleb128 0x5e
 10722 33f8 01       		.byte	0x1
 10723 33f9 01       		.byte	0x1
 10724 33fa 0B0C0000 		.4byte	.LASF554
 10725 33fe 0B0C0000 		.4byte	.LASF554
 10726 3402 10       		.byte	0x10
 10727 3403 3A01     		.2byte	0x13a
 10728 3405 5E       		.uleb128 0x5e
 10729 3406 01       		.byte	0x1
 10730 3407 01       		.byte	0x1
 10731 3408 5B190000 		.4byte	.LASF555
 10732 340c 5B190000 		.4byte	.LASF555
 10733 3410 10       		.byte	0x10
 10734 3411 9801     		.2byte	0x198
 10735 3413 5E       		.uleb128 0x5e
 10736 3414 01       		.byte	0x1
 10737 3415 01       		.byte	0x1
 10738 3416 55210000 		.4byte	.LASF556
ARM GAS  C:\Users\EBANO_~1\AppData\Local\Temp\ccLo4wHn.s 			page 217


 10739 341a 55210000 		.4byte	.LASF556
 10740 341e 10       		.byte	0x10
 10741 341f 0401     		.2byte	0x104
 10742 3421 5F       		.uleb128 0x5f
 10743 3422 01       		.byte	0x1
 10744 3423 01       		.byte	0x1
 10745 3424 BD030000 		.4byte	.LASF557
 10746 3428 BD030000 		.4byte	.LASF557
 10747 342c 0A       		.byte	0xa
 10748 342d 89       		.byte	0x89
 10749 342e 5E       		.uleb128 0x5e
 10750 342f 01       		.byte	0x1
 10751 3430 01       		.byte	0x1
 10752 3431 79050000 		.4byte	.LASF558
 10753 3435 79050000 		.4byte	.LASF558
 10754 3439 10       		.byte	0x10
 10755 343a 4801     		.2byte	0x148
 10756 343c 5E       		.uleb128 0x5e
 10757 343d 01       		.byte	0x1
 10758 343e 01       		.byte	0x1
 10759 343f 3F110000 		.4byte	.LASF559
 10760 3443 3F110000 		.4byte	.LASF559
 10761 3447 10       		.byte	0x10
 10762 3448 5801     		.2byte	0x158
 10763 344a 5F       		.uleb128 0x5f
 10764 344b 01       		.byte	0x1
 10765 344c 01       		.byte	0x1
 10766 344d 07180000 		.4byte	.LASF560
 10767 3451 07180000 		.4byte	.LASF560
 10768 3455 0A       		.byte	0xa
 10769 3456 9D       		.byte	0x9d
 10770 3457 5E       		.uleb128 0x5e
 10771 3458 01       		.byte	0x1
 10772 3459 01       		.byte	0x1
 10773 345a E0150000 		.4byte	.LASF561
 10774 345e E0150000 		.4byte	.LASF561
 10775 3462 10       		.byte	0x10
 10776 3463 6301     		.2byte	0x163
 10777 3465 5E       		.uleb128 0x5e
 10778 3466 01       		.byte	0x1
 10779 3467 01       		.byte	0x1
 10780 3468 6A1F0000 		.4byte	.LASF562
 10781 346c 6A1F0000 		.4byte	.LASF562
 10782 3470 10       		.byte	0x10
 10783 3471 8001     		.2byte	0x180
 10784 3473 5E       		.uleb128 0x5e
 10785 3474 01       		.byte	0x1
 10786 3475 01       		.byte	0x1
 10787 3476 37070000 		.4byte	.LASF563
 10788 347a 37070000 		.4byte	.LASF563
 10789 347e 10       		.byte	0x10
 10790 347f 1E01     		.2byte	0x11e
 10791 3481 5E       		.uleb128 0x5e
 10792 3482 01       		.byte	0x1
 10793 3483 01       		.byte	0x1
 10794 3484 0F140000 		.4byte	.LASF564
 10795 3488 0F140000 		.4byte	.LASF564
ARM GAS  C:\Users\EBANO_~1\AppData\Local\Temp\ccLo4wHn.s 			page 218


 10796 348c 10       		.byte	0x10
 10797 348d 2A01     		.2byte	0x12a
 10798 348f 00       		.byte	0
 10799              		.section	.debug_abbrev,"",%progbits
 10800              	.Ldebug_abbrev0:
 10801 0000 01       		.uleb128 0x1
 10802 0001 11       		.uleb128 0x11
 10803 0002 01       		.byte	0x1
 10804 0003 25       		.uleb128 0x25
 10805 0004 0E       		.uleb128 0xe
 10806 0005 13       		.uleb128 0x13
 10807 0006 0B       		.uleb128 0xb
 10808 0007 03       		.uleb128 0x3
 10809 0008 0E       		.uleb128 0xe
 10810 0009 1B       		.uleb128 0x1b
 10811 000a 0E       		.uleb128 0xe
 10812 000b 55       		.uleb128 0x55
 10813 000c 06       		.uleb128 0x6
 10814 000d 11       		.uleb128 0x11
 10815 000e 01       		.uleb128 0x1
 10816 000f 52       		.uleb128 0x52
 10817 0010 01       		.uleb128 0x1
 10818 0011 10       		.uleb128 0x10
 10819 0012 06       		.uleb128 0x6
 10820 0013 00       		.byte	0
 10821 0014 00       		.byte	0
 10822 0015 02       		.uleb128 0x2
 10823 0016 24       		.uleb128 0x24
 10824 0017 00       		.byte	0
 10825 0018 0B       		.uleb128 0xb
 10826 0019 0B       		.uleb128 0xb
 10827 001a 3E       		.uleb128 0x3e
 10828 001b 0B       		.uleb128 0xb
 10829 001c 03       		.uleb128 0x3
 10830 001d 0E       		.uleb128 0xe
 10831 001e 00       		.byte	0
 10832 001f 00       		.byte	0
 10833 0020 03       		.uleb128 0x3
 10834 0021 16       		.uleb128 0x16
 10835 0022 00       		.byte	0
 10836 0023 03       		.uleb128 0x3
 10837 0024 0E       		.uleb128 0xe
 10838 0025 3A       		.uleb128 0x3a
 10839 0026 0B       		.uleb128 0xb
 10840 0027 3B       		.uleb128 0x3b
 10841 0028 0B       		.uleb128 0xb
 10842 0029 49       		.uleb128 0x49
 10843 002a 13       		.uleb128 0x13
 10844 002b 00       		.byte	0
 10845 002c 00       		.byte	0
 10846 002d 04       		.uleb128 0x4
 10847 002e 24       		.uleb128 0x24
 10848 002f 00       		.byte	0
 10849 0030 0B       		.uleb128 0xb
 10850 0031 0B       		.uleb128 0xb
 10851 0032 3E       		.uleb128 0x3e
 10852 0033 0B       		.uleb128 0xb
ARM GAS  C:\Users\EBANO_~1\AppData\Local\Temp\ccLo4wHn.s 			page 219


 10853 0034 03       		.uleb128 0x3
 10854 0035 08       		.uleb128 0x8
 10855 0036 00       		.byte	0
 10856 0037 00       		.byte	0
 10857 0038 05       		.uleb128 0x5
 10858 0039 26       		.uleb128 0x26
 10859 003a 00       		.byte	0
 10860 003b 49       		.uleb128 0x49
 10861 003c 13       		.uleb128 0x13
 10862 003d 00       		.byte	0
 10863 003e 00       		.byte	0
 10864 003f 06       		.uleb128 0x6
 10865 0040 34       		.uleb128 0x34
 10866 0041 00       		.byte	0
 10867 0042 03       		.uleb128 0x3
 10868 0043 0E       		.uleb128 0xe
 10869 0044 3A       		.uleb128 0x3a
 10870 0045 0B       		.uleb128 0xb
 10871 0046 3B       		.uleb128 0x3b
 10872 0047 0B       		.uleb128 0xb
 10873 0048 49       		.uleb128 0x49
 10874 0049 13       		.uleb128 0x13
 10875 004a 3F       		.uleb128 0x3f
 10876 004b 0C       		.uleb128 0xc
 10877 004c 3C       		.uleb128 0x3c
 10878 004d 0C       		.uleb128 0xc
 10879 004e 00       		.byte	0
 10880 004f 00       		.byte	0
 10881 0050 07       		.uleb128 0x7
 10882 0051 01       		.uleb128 0x1
 10883 0052 01       		.byte	0x1
 10884 0053 49       		.uleb128 0x49
 10885 0054 13       		.uleb128 0x13
 10886 0055 01       		.uleb128 0x1
 10887 0056 13       		.uleb128 0x13
 10888 0057 00       		.byte	0
 10889 0058 00       		.byte	0
 10890 0059 08       		.uleb128 0x8
 10891 005a 21       		.uleb128 0x21
 10892 005b 00       		.byte	0
 10893 005c 49       		.uleb128 0x49
 10894 005d 13       		.uleb128 0x13
 10895 005e 2F       		.uleb128 0x2f
 10896 005f 0B       		.uleb128 0xb
 10897 0060 00       		.byte	0
 10898 0061 00       		.byte	0
 10899 0062 09       		.uleb128 0x9
 10900 0063 0F       		.uleb128 0xf
 10901 0064 00       		.byte	0
 10902 0065 0B       		.uleb128 0xb
 10903 0066 0B       		.uleb128 0xb
 10904 0067 00       		.byte	0
 10905 0068 00       		.byte	0
 10906 0069 0A       		.uleb128 0xa
 10907 006a 0F       		.uleb128 0xf
 10908 006b 00       		.byte	0
 10909 006c 0B       		.uleb128 0xb
ARM GAS  C:\Users\EBANO_~1\AppData\Local\Temp\ccLo4wHn.s 			page 220


 10910 006d 0B       		.uleb128 0xb
 10911 006e 49       		.uleb128 0x49
 10912 006f 13       		.uleb128 0x13
 10913 0070 00       		.byte	0
 10914 0071 00       		.byte	0
 10915 0072 0B       		.uleb128 0xb
 10916 0073 13       		.uleb128 0x13
 10917 0074 00       		.byte	0
 10918 0075 03       		.uleb128 0x3
 10919 0076 0E       		.uleb128 0xe
 10920 0077 3C       		.uleb128 0x3c
 10921 0078 0C       		.uleb128 0xc
 10922 0079 00       		.byte	0
 10923 007a 00       		.byte	0
 10924 007b 0C       		.uleb128 0xc
 10925 007c 16       		.uleb128 0x16
 10926 007d 00       		.byte	0
 10927 007e 03       		.uleb128 0x3
 10928 007f 0E       		.uleb128 0xe
 10929 0080 3A       		.uleb128 0x3a
 10930 0081 0B       		.uleb128 0xb
 10931 0082 3B       		.uleb128 0x3b
 10932 0083 05       		.uleb128 0x5
 10933 0084 49       		.uleb128 0x49
 10934 0085 13       		.uleb128 0x13
 10935 0086 00       		.byte	0
 10936 0087 00       		.byte	0
 10937 0088 0D       		.uleb128 0xd
 10938 0089 17       		.uleb128 0x17
 10939 008a 01       		.byte	0x1
 10940 008b 0B       		.uleb128 0xb
 10941 008c 0B       		.uleb128 0xb
 10942 008d 3A       		.uleb128 0x3a
 10943 008e 0B       		.uleb128 0xb
 10944 008f 3B       		.uleb128 0x3b
 10945 0090 0B       		.uleb128 0xb
 10946 0091 01       		.uleb128 0x1
 10947 0092 13       		.uleb128 0x13
 10948 0093 00       		.byte	0
 10949 0094 00       		.byte	0
 10950 0095 0E       		.uleb128 0xe
 10951 0096 0D       		.uleb128 0xd
 10952 0097 00       		.byte	0
 10953 0098 03       		.uleb128 0x3
 10954 0099 0E       		.uleb128 0xe
 10955 009a 3A       		.uleb128 0x3a
 10956 009b 0B       		.uleb128 0xb
 10957 009c 3B       		.uleb128 0x3b
 10958 009d 0B       		.uleb128 0xb
 10959 009e 49       		.uleb128 0x49
 10960 009f 13       		.uleb128 0x13
 10961 00a0 00       		.byte	0
 10962 00a1 00       		.byte	0
 10963 00a2 0F       		.uleb128 0xf
 10964 00a3 13       		.uleb128 0x13
 10965 00a4 01       		.byte	0x1
 10966 00a5 0B       		.uleb128 0xb
ARM GAS  C:\Users\EBANO_~1\AppData\Local\Temp\ccLo4wHn.s 			page 221


 10967 00a6 0B       		.uleb128 0xb
 10968 00a7 3A       		.uleb128 0x3a
 10969 00a8 0B       		.uleb128 0xb
 10970 00a9 3B       		.uleb128 0x3b
 10971 00aa 0B       		.uleb128 0xb
 10972 00ab 01       		.uleb128 0x1
 10973 00ac 13       		.uleb128 0x13
 10974 00ad 00       		.byte	0
 10975 00ae 00       		.byte	0
 10976 00af 10       		.uleb128 0x10
 10977 00b0 0D       		.uleb128 0xd
 10978 00b1 00       		.byte	0
 10979 00b2 03       		.uleb128 0x3
 10980 00b3 0E       		.uleb128 0xe
 10981 00b4 3A       		.uleb128 0x3a
 10982 00b5 0B       		.uleb128 0xb
 10983 00b6 3B       		.uleb128 0x3b
 10984 00b7 0B       		.uleb128 0xb
 10985 00b8 49       		.uleb128 0x49
 10986 00b9 13       		.uleb128 0x13
 10987 00ba 38       		.uleb128 0x38
 10988 00bb 0A       		.uleb128 0xa
 10989 00bc 00       		.byte	0
 10990 00bd 00       		.byte	0
 10991 00be 11       		.uleb128 0x11
 10992 00bf 13       		.uleb128 0x13
 10993 00c0 01       		.byte	0x1
 10994 00c1 03       		.uleb128 0x3
 10995 00c2 0E       		.uleb128 0xe
 10996 00c3 0B       		.uleb128 0xb
 10997 00c4 0B       		.uleb128 0xb
 10998 00c5 3A       		.uleb128 0x3a
 10999 00c6 0B       		.uleb128 0xb
 11000 00c7 3B       		.uleb128 0x3b
 11001 00c8 0B       		.uleb128 0xb
 11002 00c9 01       		.uleb128 0x1
 11003 00ca 13       		.uleb128 0x13
 11004 00cb 00       		.byte	0
 11005 00cc 00       		.byte	0
 11006 00cd 12       		.uleb128 0x12
 11007 00ce 0D       		.uleb128 0xd
 11008 00cf 00       		.byte	0
 11009 00d0 03       		.uleb128 0x3
 11010 00d1 08       		.uleb128 0x8
 11011 00d2 3A       		.uleb128 0x3a
 11012 00d3 0B       		.uleb128 0xb
 11013 00d4 3B       		.uleb128 0x3b
 11014 00d5 0B       		.uleb128 0xb
 11015 00d6 49       		.uleb128 0x49
 11016 00d7 13       		.uleb128 0x13
 11017 00d8 38       		.uleb128 0x38
 11018 00d9 0A       		.uleb128 0xa
 11019 00da 00       		.byte	0
 11020 00db 00       		.byte	0
 11021 00dc 13       		.uleb128 0x13
 11022 00dd 13       		.uleb128 0x13
 11023 00de 01       		.byte	0x1
ARM GAS  C:\Users\EBANO_~1\AppData\Local\Temp\ccLo4wHn.s 			page 222


 11024 00df 03       		.uleb128 0x3
 11025 00e0 0E       		.uleb128 0xe
 11026 00e1 0B       		.uleb128 0xb
 11027 00e2 05       		.uleb128 0x5
 11028 00e3 3A       		.uleb128 0x3a
 11029 00e4 0B       		.uleb128 0xb
 11030 00e5 3B       		.uleb128 0x3b
 11031 00e6 0B       		.uleb128 0xb
 11032 00e7 01       		.uleb128 0x1
 11033 00e8 13       		.uleb128 0x13
 11034 00e9 00       		.byte	0
 11035 00ea 00       		.byte	0
 11036 00eb 14       		.uleb128 0x14
 11037 00ec 15       		.uleb128 0x15
 11038 00ed 00       		.byte	0
 11039 00ee 27       		.uleb128 0x27
 11040 00ef 0C       		.uleb128 0xc
 11041 00f0 00       		.byte	0
 11042 00f1 00       		.byte	0
 11043 00f2 15       		.uleb128 0x15
 11044 00f3 15       		.uleb128 0x15
 11045 00f4 01       		.byte	0x1
 11046 00f5 27       		.uleb128 0x27
 11047 00f6 0C       		.uleb128 0xc
 11048 00f7 49       		.uleb128 0x49
 11049 00f8 13       		.uleb128 0x13
 11050 00f9 01       		.uleb128 0x1
 11051 00fa 13       		.uleb128 0x13
 11052 00fb 00       		.byte	0
 11053 00fc 00       		.byte	0
 11054 00fd 16       		.uleb128 0x16
 11055 00fe 05       		.uleb128 0x5
 11056 00ff 00       		.byte	0
 11057 0100 49       		.uleb128 0x49
 11058 0101 13       		.uleb128 0x13
 11059 0102 00       		.byte	0
 11060 0103 00       		.byte	0
 11061 0104 17       		.uleb128 0x17
 11062 0105 13       		.uleb128 0x13
 11063 0106 01       		.byte	0x1
 11064 0107 03       		.uleb128 0x3
 11065 0108 0E       		.uleb128 0xe
 11066 0109 0B       		.uleb128 0xb
 11067 010a 05       		.uleb128 0x5
 11068 010b 3A       		.uleb128 0x3a
 11069 010c 0B       		.uleb128 0xb
 11070 010d 3B       		.uleb128 0x3b
 11071 010e 05       		.uleb128 0x5
 11072 010f 01       		.uleb128 0x1
 11073 0110 13       		.uleb128 0x13
 11074 0111 00       		.byte	0
 11075 0112 00       		.byte	0
 11076 0113 18       		.uleb128 0x18
 11077 0114 0D       		.uleb128 0xd
 11078 0115 00       		.byte	0
 11079 0116 03       		.uleb128 0x3
 11080 0117 0E       		.uleb128 0xe
ARM GAS  C:\Users\EBANO_~1\AppData\Local\Temp\ccLo4wHn.s 			page 223


 11081 0118 3A       		.uleb128 0x3a
 11082 0119 0B       		.uleb128 0xb
 11083 011a 3B       		.uleb128 0x3b
 11084 011b 05       		.uleb128 0x5
 11085 011c 49       		.uleb128 0x49
 11086 011d 13       		.uleb128 0x13
 11087 011e 38       		.uleb128 0x38
 11088 011f 0A       		.uleb128 0xa
 11089 0120 00       		.byte	0
 11090 0121 00       		.byte	0
 11091 0122 19       		.uleb128 0x19
 11092 0123 13       		.uleb128 0x13
 11093 0124 01       		.byte	0x1
 11094 0125 03       		.uleb128 0x3
 11095 0126 0E       		.uleb128 0xe
 11096 0127 0B       		.uleb128 0xb
 11097 0128 0B       		.uleb128 0xb
 11098 0129 3A       		.uleb128 0x3a
 11099 012a 0B       		.uleb128 0xb
 11100 012b 3B       		.uleb128 0x3b
 11101 012c 05       		.uleb128 0x5
 11102 012d 01       		.uleb128 0x1
 11103 012e 13       		.uleb128 0x13
 11104 012f 00       		.byte	0
 11105 0130 00       		.byte	0
 11106 0131 1A       		.uleb128 0x1a
 11107 0132 13       		.uleb128 0x13
 11108 0133 01       		.byte	0x1
 11109 0134 0B       		.uleb128 0xb
 11110 0135 0B       		.uleb128 0xb
 11111 0136 3A       		.uleb128 0x3a
 11112 0137 0B       		.uleb128 0xb
 11113 0138 3B       		.uleb128 0x3b
 11114 0139 05       		.uleb128 0x5
 11115 013a 01       		.uleb128 0x1
 11116 013b 13       		.uleb128 0x13
 11117 013c 00       		.byte	0
 11118 013d 00       		.byte	0
 11119 013e 1B       		.uleb128 0x1b
 11120 013f 17       		.uleb128 0x17
 11121 0140 01       		.byte	0x1
 11122 0141 0B       		.uleb128 0xb
 11123 0142 0B       		.uleb128 0xb
 11124 0143 3A       		.uleb128 0x3a
 11125 0144 0B       		.uleb128 0xb
 11126 0145 3B       		.uleb128 0x3b
 11127 0146 05       		.uleb128 0x5
 11128 0147 01       		.uleb128 0x1
 11129 0148 13       		.uleb128 0x13
 11130 0149 00       		.byte	0
 11131 014a 00       		.byte	0
 11132 014b 1C       		.uleb128 0x1c
 11133 014c 0D       		.uleb128 0xd
 11134 014d 00       		.byte	0
 11135 014e 03       		.uleb128 0x3
 11136 014f 0E       		.uleb128 0xe
 11137 0150 3A       		.uleb128 0x3a
ARM GAS  C:\Users\EBANO_~1\AppData\Local\Temp\ccLo4wHn.s 			page 224


 11138 0151 0B       		.uleb128 0xb
 11139 0152 3B       		.uleb128 0x3b
 11140 0153 05       		.uleb128 0x5
 11141 0154 49       		.uleb128 0x49
 11142 0155 13       		.uleb128 0x13
 11143 0156 00       		.byte	0
 11144 0157 00       		.byte	0
 11145 0158 1D       		.uleb128 0x1d
 11146 0159 15       		.uleb128 0x15
 11147 015a 01       		.byte	0x1
 11148 015b 27       		.uleb128 0x27
 11149 015c 0C       		.uleb128 0xc
 11150 015d 01       		.uleb128 0x1
 11151 015e 13       		.uleb128 0x13
 11152 015f 00       		.byte	0
 11153 0160 00       		.byte	0
 11154 0161 1E       		.uleb128 0x1e
 11155 0162 34       		.uleb128 0x34
 11156 0163 00       		.byte	0
 11157 0164 03       		.uleb128 0x3
 11158 0165 0E       		.uleb128 0xe
 11159 0166 3A       		.uleb128 0x3a
 11160 0167 0B       		.uleb128 0xb
 11161 0168 3B       		.uleb128 0x3b
 11162 0169 05       		.uleb128 0x5
 11163 016a 49       		.uleb128 0x49
 11164 016b 13       		.uleb128 0x13
 11165 016c 3F       		.uleb128 0x3f
 11166 016d 0C       		.uleb128 0xc
 11167 016e 3C       		.uleb128 0x3c
 11168 016f 0C       		.uleb128 0xc
 11169 0170 00       		.byte	0
 11170 0171 00       		.byte	0
 11171 0172 1F       		.uleb128 0x1f
 11172 0173 17       		.uleb128 0x17
 11173 0174 01       		.byte	0x1
 11174 0175 03       		.uleb128 0x3
 11175 0176 0E       		.uleb128 0xe
 11176 0177 0B       		.uleb128 0xb
 11177 0178 0B       		.uleb128 0xb
 11178 0179 3A       		.uleb128 0x3a
 11179 017a 0B       		.uleb128 0xb
 11180 017b 3B       		.uleb128 0x3b
 11181 017c 0B       		.uleb128 0xb
 11182 017d 01       		.uleb128 0x1
 11183 017e 13       		.uleb128 0x13
 11184 017f 00       		.byte	0
 11185 0180 00       		.byte	0
 11186 0181 20       		.uleb128 0x20
 11187 0182 04       		.uleb128 0x4
 11188 0183 01       		.byte	0x1
 11189 0184 3E       		.uleb128 0x3e
 11190 0185 0B       		.uleb128 0xb
 11191 0186 0B       		.uleb128 0xb
 11192 0187 0B       		.uleb128 0xb
 11193 0188 49       		.uleb128 0x49
 11194 0189 13       		.uleb128 0x13
ARM GAS  C:\Users\EBANO_~1\AppData\Local\Temp\ccLo4wHn.s 			page 225


 11195 018a 3A       		.uleb128 0x3a
 11196 018b 0B       		.uleb128 0xb
 11197 018c 3B       		.uleb128 0x3b
 11198 018d 0B       		.uleb128 0xb
 11199 018e 01       		.uleb128 0x1
 11200 018f 13       		.uleb128 0x13
 11201 0190 00       		.byte	0
 11202 0191 00       		.byte	0
 11203 0192 21       		.uleb128 0x21
 11204 0193 28       		.uleb128 0x28
 11205 0194 00       		.byte	0
 11206 0195 03       		.uleb128 0x3
 11207 0196 0E       		.uleb128 0xe
 11208 0197 1C       		.uleb128 0x1c
 11209 0198 0B       		.uleb128 0xb
 11210 0199 00       		.byte	0
 11211 019a 00       		.byte	0
 11212 019b 22       		.uleb128 0x22
 11213 019c 0D       		.uleb128 0xd
 11214 019d 00       		.byte	0
 11215 019e 03       		.uleb128 0x3
 11216 019f 08       		.uleb128 0x8
 11217 01a0 3A       		.uleb128 0x3a
 11218 01a1 0B       		.uleb128 0xb
 11219 01a2 3B       		.uleb128 0x3b
 11220 01a3 05       		.uleb128 0x5
 11221 01a4 49       		.uleb128 0x49
 11222 01a5 13       		.uleb128 0x13
 11223 01a6 38       		.uleb128 0x38
 11224 01a7 0A       		.uleb128 0xa
 11225 01a8 00       		.byte	0
 11226 01a9 00       		.byte	0
 11227 01aa 23       		.uleb128 0x23
 11228 01ab 15       		.uleb128 0x15
 11229 01ac 00       		.byte	0
 11230 01ad 27       		.uleb128 0x27
 11231 01ae 0C       		.uleb128 0xc
 11232 01af 49       		.uleb128 0x49
 11233 01b0 13       		.uleb128 0x13
 11234 01b1 00       		.byte	0
 11235 01b2 00       		.byte	0
 11236 01b3 24       		.uleb128 0x24
 11237 01b4 0D       		.uleb128 0xd
 11238 01b5 00       		.byte	0
 11239 01b6 03       		.uleb128 0x3
 11240 01b7 08       		.uleb128 0x8
 11241 01b8 3A       		.uleb128 0x3a
 11242 01b9 0B       		.uleb128 0xb
 11243 01ba 3B       		.uleb128 0x3b
 11244 01bb 0B       		.uleb128 0xb
 11245 01bc 49       		.uleb128 0x49
 11246 01bd 13       		.uleb128 0x13
 11247 01be 0B       		.uleb128 0xb
 11248 01bf 0B       		.uleb128 0xb
 11249 01c0 0D       		.uleb128 0xd
 11250 01c1 0B       		.uleb128 0xb
 11251 01c2 0C       		.uleb128 0xc
ARM GAS  C:\Users\EBANO_~1\AppData\Local\Temp\ccLo4wHn.s 			page 226


 11252 01c3 0B       		.uleb128 0xb
 11253 01c4 38       		.uleb128 0x38
 11254 01c5 0A       		.uleb128 0xa
 11255 01c6 00       		.byte	0
 11256 01c7 00       		.byte	0
 11257 01c8 25       		.uleb128 0x25
 11258 01c9 04       		.uleb128 0x4
 11259 01ca 01       		.byte	0x1
 11260 01cb 03       		.uleb128 0x3
 11261 01cc 0E       		.uleb128 0xe
 11262 01cd 3E       		.uleb128 0x3e
 11263 01ce 0B       		.uleb128 0xb
 11264 01cf 0B       		.uleb128 0xb
 11265 01d0 0B       		.uleb128 0xb
 11266 01d1 49       		.uleb128 0x49
 11267 01d2 13       		.uleb128 0x13
 11268 01d3 3A       		.uleb128 0x3a
 11269 01d4 0B       		.uleb128 0xb
 11270 01d5 3B       		.uleb128 0x3b
 11271 01d6 0B       		.uleb128 0xb
 11272 01d7 01       		.uleb128 0x1
 11273 01d8 13       		.uleb128 0x13
 11274 01d9 00       		.byte	0
 11275 01da 00       		.byte	0
 11276 01db 26       		.uleb128 0x26
 11277 01dc 04       		.uleb128 0x4
 11278 01dd 01       		.byte	0x1
 11279 01de 03       		.uleb128 0x3
 11280 01df 0E       		.uleb128 0xe
 11281 01e0 3E       		.uleb128 0x3e
 11282 01e1 0B       		.uleb128 0xb
 11283 01e2 0B       		.uleb128 0xb
 11284 01e3 0B       		.uleb128 0xb
 11285 01e4 49       		.uleb128 0x49
 11286 01e5 13       		.uleb128 0x13
 11287 01e6 3A       		.uleb128 0x3a
 11288 01e7 0B       		.uleb128 0xb
 11289 01e8 3B       		.uleb128 0x3b
 11290 01e9 05       		.uleb128 0x5
 11291 01ea 01       		.uleb128 0x1
 11292 01eb 13       		.uleb128 0x13
 11293 01ec 00       		.byte	0
 11294 01ed 00       		.byte	0
 11295 01ee 27       		.uleb128 0x27
 11296 01ef 34       		.uleb128 0x34
 11297 01f0 00       		.byte	0
 11298 01f1 03       		.uleb128 0x3
 11299 01f2 0E       		.uleb128 0xe
 11300 01f3 3A       		.uleb128 0x3a
 11301 01f4 0B       		.uleb128 0xb
 11302 01f5 3B       		.uleb128 0x3b
 11303 01f6 05       		.uleb128 0x5
 11304 01f7 49       		.uleb128 0x49
 11305 01f8 13       		.uleb128 0x13
 11306 01f9 1C       		.uleb128 0x1c
 11307 01fa 0A       		.uleb128 0xa
 11308 01fb 00       		.byte	0
ARM GAS  C:\Users\EBANO_~1\AppData\Local\Temp\ccLo4wHn.s 			page 227


 11309 01fc 00       		.byte	0
 11310 01fd 28       		.uleb128 0x28
 11311 01fe 17       		.uleb128 0x17
 11312 01ff 01       		.byte	0x1
 11313 0200 03       		.uleb128 0x3
 11314 0201 0E       		.uleb128 0xe
 11315 0202 0B       		.uleb128 0xb
 11316 0203 0B       		.uleb128 0xb
 11317 0204 3A       		.uleb128 0x3a
 11318 0205 0B       		.uleb128 0xb
 11319 0206 3B       		.uleb128 0x3b
 11320 0207 05       		.uleb128 0x5
 11321 0208 01       		.uleb128 0x1
 11322 0209 13       		.uleb128 0x13
 11323 020a 00       		.byte	0
 11324 020b 00       		.byte	0
 11325 020c 29       		.uleb128 0x29
 11326 020d 34       		.uleb128 0x34
 11327 020e 00       		.byte	0
 11328 020f 03       		.uleb128 0x3
 11329 0210 0E       		.uleb128 0xe
 11330 0211 3A       		.uleb128 0x3a
 11331 0212 0B       		.uleb128 0xb
 11332 0213 3B       		.uleb128 0x3b
 11333 0214 05       		.uleb128 0x5
 11334 0215 49       		.uleb128 0x49
 11335 0216 13       		.uleb128 0x13
 11336 0217 02       		.uleb128 0x2
 11337 0218 0A       		.uleb128 0xa
 11338 0219 00       		.byte	0
 11339 021a 00       		.byte	0
 11340 021b 2A       		.uleb128 0x2a
 11341 021c 34       		.uleb128 0x34
 11342 021d 00       		.byte	0
 11343 021e 03       		.uleb128 0x3
 11344 021f 0E       		.uleb128 0xe
 11345 0220 3A       		.uleb128 0x3a
 11346 0221 0B       		.uleb128 0xb
 11347 0222 3B       		.uleb128 0x3b
 11348 0223 0B       		.uleb128 0xb
 11349 0224 49       		.uleb128 0x49
 11350 0225 13       		.uleb128 0x13
 11351 0226 02       		.uleb128 0x2
 11352 0227 0A       		.uleb128 0xa
 11353 0228 00       		.byte	0
 11354 0229 00       		.byte	0
 11355 022a 2B       		.uleb128 0x2b
 11356 022b 2E       		.uleb128 0x2e
 11357 022c 01       		.byte	0x1
 11358 022d 3F       		.uleb128 0x3f
 11359 022e 0C       		.uleb128 0xc
 11360 022f 03       		.uleb128 0x3
 11361 0230 0E       		.uleb128 0xe
 11362 0231 3A       		.uleb128 0x3a
 11363 0232 0B       		.uleb128 0xb
 11364 0233 3B       		.uleb128 0x3b
 11365 0234 05       		.uleb128 0x5
ARM GAS  C:\Users\EBANO_~1\AppData\Local\Temp\ccLo4wHn.s 			page 228


 11366 0235 27       		.uleb128 0x27
 11367 0236 0C       		.uleb128 0xc
 11368 0237 11       		.uleb128 0x11
 11369 0238 01       		.uleb128 0x1
 11370 0239 12       		.uleb128 0x12
 11371 023a 01       		.uleb128 0x1
 11372 023b 40       		.uleb128 0x40
 11373 023c 06       		.uleb128 0x6
 11374 023d 9742     		.uleb128 0x2117
 11375 023f 0C       		.uleb128 0xc
 11376 0240 01       		.uleb128 0x1
 11377 0241 13       		.uleb128 0x13
 11378 0242 00       		.byte	0
 11379 0243 00       		.byte	0
 11380 0244 2C       		.uleb128 0x2c
 11381 0245 05       		.uleb128 0x5
 11382 0246 00       		.byte	0
 11383 0247 03       		.uleb128 0x3
 11384 0248 0E       		.uleb128 0xe
 11385 0249 3A       		.uleb128 0x3a
 11386 024a 0B       		.uleb128 0xb
 11387 024b 3B       		.uleb128 0x3b
 11388 024c 05       		.uleb128 0x5
 11389 024d 49       		.uleb128 0x49
 11390 024e 13       		.uleb128 0x13
 11391 024f 02       		.uleb128 0x2
 11392 0250 06       		.uleb128 0x6
 11393 0251 00       		.byte	0
 11394 0252 00       		.byte	0
 11395 0253 2D       		.uleb128 0x2d
 11396 0254 898201   		.uleb128 0x4109
 11397 0257 01       		.byte	0x1
 11398 0258 11       		.uleb128 0x11
 11399 0259 01       		.uleb128 0x1
 11400 025a 31       		.uleb128 0x31
 11401 025b 13       		.uleb128 0x13
 11402 025c 00       		.byte	0
 11403 025d 00       		.byte	0
 11404 025e 2E       		.uleb128 0x2e
 11405 025f 8A8201   		.uleb128 0x410a
 11406 0262 00       		.byte	0
 11407 0263 02       		.uleb128 0x2
 11408 0264 0A       		.uleb128 0xa
 11409 0265 9142     		.uleb128 0x2111
 11410 0267 0A       		.uleb128 0xa
 11411 0268 00       		.byte	0
 11412 0269 00       		.byte	0
 11413 026a 2F       		.uleb128 0x2f
 11414 026b 2E       		.uleb128 0x2e
 11415 026c 01       		.byte	0x1
 11416 026d 3F       		.uleb128 0x3f
 11417 026e 0C       		.uleb128 0xc
 11418 026f 03       		.uleb128 0x3
 11419 0270 0E       		.uleb128 0xe
 11420 0271 3A       		.uleb128 0x3a
 11421 0272 0B       		.uleb128 0xb
 11422 0273 3B       		.uleb128 0x3b
ARM GAS  C:\Users\EBANO_~1\AppData\Local\Temp\ccLo4wHn.s 			page 229


 11423 0274 05       		.uleb128 0x5
 11424 0275 27       		.uleb128 0x27
 11425 0276 0C       		.uleb128 0xc
 11426 0277 49       		.uleb128 0x49
 11427 0278 13       		.uleb128 0x13
 11428 0279 11       		.uleb128 0x11
 11429 027a 01       		.uleb128 0x1
 11430 027b 12       		.uleb128 0x12
 11431 027c 01       		.uleb128 0x1
 11432 027d 40       		.uleb128 0x40
 11433 027e 0A       		.uleb128 0xa
 11434 027f 9742     		.uleb128 0x2117
 11435 0281 0C       		.uleb128 0xc
 11436 0282 01       		.uleb128 0x1
 11437 0283 13       		.uleb128 0x13
 11438 0284 00       		.byte	0
 11439 0285 00       		.byte	0
 11440 0286 30       		.uleb128 0x30
 11441 0287 05       		.uleb128 0x5
 11442 0288 00       		.byte	0
 11443 0289 03       		.uleb128 0x3
 11444 028a 08       		.uleb128 0x8
 11445 028b 3A       		.uleb128 0x3a
 11446 028c 0B       		.uleb128 0xb
 11447 028d 3B       		.uleb128 0x3b
 11448 028e 05       		.uleb128 0x5
 11449 028f 49       		.uleb128 0x49
 11450 0290 13       		.uleb128 0x13
 11451 0291 02       		.uleb128 0x2
 11452 0292 06       		.uleb128 0x6
 11453 0293 00       		.byte	0
 11454 0294 00       		.byte	0
 11455 0295 31       		.uleb128 0x31
 11456 0296 05       		.uleb128 0x5
 11457 0297 00       		.byte	0
 11458 0298 03       		.uleb128 0x3
 11459 0299 0E       		.uleb128 0xe
 11460 029a 3A       		.uleb128 0x3a
 11461 029b 0B       		.uleb128 0xb
 11462 029c 3B       		.uleb128 0x3b
 11463 029d 05       		.uleb128 0x5
 11464 029e 49       		.uleb128 0x49
 11465 029f 13       		.uleb128 0x13
 11466 02a0 02       		.uleb128 0x2
 11467 02a1 0A       		.uleb128 0xa
 11468 02a2 00       		.byte	0
 11469 02a3 00       		.byte	0
 11470 02a4 32       		.uleb128 0x32
 11471 02a5 2E       		.uleb128 0x2e
 11472 02a6 01       		.byte	0x1
 11473 02a7 3F       		.uleb128 0x3f
 11474 02a8 0C       		.uleb128 0xc
 11475 02a9 03       		.uleb128 0x3
 11476 02aa 0E       		.uleb128 0xe
 11477 02ab 3A       		.uleb128 0x3a
 11478 02ac 0B       		.uleb128 0xb
 11479 02ad 3B       		.uleb128 0x3b
ARM GAS  C:\Users\EBANO_~1\AppData\Local\Temp\ccLo4wHn.s 			page 230


 11480 02ae 05       		.uleb128 0x5
 11481 02af 27       		.uleb128 0x27
 11482 02b0 0C       		.uleb128 0xc
 11483 02b1 11       		.uleb128 0x11
 11484 02b2 01       		.uleb128 0x1
 11485 02b3 12       		.uleb128 0x12
 11486 02b4 01       		.uleb128 0x1
 11487 02b5 40       		.uleb128 0x40
 11488 02b6 06       		.uleb128 0x6
 11489 02b7 9642     		.uleb128 0x2116
 11490 02b9 0C       		.uleb128 0xc
 11491 02ba 01       		.uleb128 0x1
 11492 02bb 13       		.uleb128 0x13
 11493 02bc 00       		.byte	0
 11494 02bd 00       		.byte	0
 11495 02be 33       		.uleb128 0x33
 11496 02bf 34       		.uleb128 0x34
 11497 02c0 00       		.byte	0
 11498 02c1 03       		.uleb128 0x3
 11499 02c2 0E       		.uleb128 0xe
 11500 02c3 3A       		.uleb128 0x3a
 11501 02c4 0B       		.uleb128 0xb
 11502 02c5 3B       		.uleb128 0x3b
 11503 02c6 05       		.uleb128 0x5
 11504 02c7 49       		.uleb128 0x49
 11505 02c8 13       		.uleb128 0x13
 11506 02c9 00       		.byte	0
 11507 02ca 00       		.byte	0
 11508 02cb 34       		.uleb128 0x34
 11509 02cc 34       		.uleb128 0x34
 11510 02cd 00       		.byte	0
 11511 02ce 03       		.uleb128 0x3
 11512 02cf 0E       		.uleb128 0xe
 11513 02d0 3A       		.uleb128 0x3a
 11514 02d1 0B       		.uleb128 0xb
 11515 02d2 3B       		.uleb128 0x3b
 11516 02d3 05       		.uleb128 0x5
 11517 02d4 49       		.uleb128 0x49
 11518 02d5 13       		.uleb128 0x13
 11519 02d6 02       		.uleb128 0x2
 11520 02d7 06       		.uleb128 0x6
 11521 02d8 00       		.byte	0
 11522 02d9 00       		.byte	0
 11523 02da 35       		.uleb128 0x35
 11524 02db 1D       		.uleb128 0x1d
 11525 02dc 01       		.byte	0x1
 11526 02dd 31       		.uleb128 0x31
 11527 02de 13       		.uleb128 0x13
 11528 02df 52       		.uleb128 0x52
 11529 02e0 01       		.uleb128 0x1
 11530 02e1 55       		.uleb128 0x55
 11531 02e2 06       		.uleb128 0x6
 11532 02e3 58       		.uleb128 0x58
 11533 02e4 0B       		.uleb128 0xb
 11534 02e5 59       		.uleb128 0x59
 11535 02e6 05       		.uleb128 0x5
 11536 02e7 01       		.uleb128 0x1
ARM GAS  C:\Users\EBANO_~1\AppData\Local\Temp\ccLo4wHn.s 			page 231


 11537 02e8 13       		.uleb128 0x13
 11538 02e9 00       		.byte	0
 11539 02ea 00       		.byte	0
 11540 02eb 36       		.uleb128 0x36
 11541 02ec 05       		.uleb128 0x5
 11542 02ed 00       		.byte	0
 11543 02ee 31       		.uleb128 0x31
 11544 02ef 13       		.uleb128 0x13
 11545 02f0 02       		.uleb128 0x2
 11546 02f1 06       		.uleb128 0x6
 11547 02f2 00       		.byte	0
 11548 02f3 00       		.byte	0
 11549 02f4 37       		.uleb128 0x37
 11550 02f5 05       		.uleb128 0x5
 11551 02f6 00       		.byte	0
 11552 02f7 31       		.uleb128 0x31
 11553 02f8 13       		.uleb128 0x13
 11554 02f9 02       		.uleb128 0x2
 11555 02fa 0A       		.uleb128 0xa
 11556 02fb 00       		.byte	0
 11557 02fc 00       		.byte	0
 11558 02fd 38       		.uleb128 0x38
 11559 02fe 0B       		.uleb128 0xb
 11560 02ff 01       		.byte	0x1
 11561 0300 55       		.uleb128 0x55
 11562 0301 06       		.uleb128 0x6
 11563 0302 00       		.byte	0
 11564 0303 00       		.byte	0
 11565 0304 39       		.uleb128 0x39
 11566 0305 34       		.uleb128 0x34
 11567 0306 00       		.byte	0
 11568 0307 31       		.uleb128 0x31
 11569 0308 13       		.uleb128 0x13
 11570 0309 02       		.uleb128 0x2
 11571 030a 06       		.uleb128 0x6
 11572 030b 00       		.byte	0
 11573 030c 00       		.byte	0
 11574 030d 3A       		.uleb128 0x3a
 11575 030e 898201   		.uleb128 0x4109
 11576 0311 01       		.byte	0x1
 11577 0312 11       		.uleb128 0x11
 11578 0313 01       		.uleb128 0x1
 11579 0314 31       		.uleb128 0x31
 11580 0315 13       		.uleb128 0x13
 11581 0316 01       		.uleb128 0x1
 11582 0317 13       		.uleb128 0x13
 11583 0318 00       		.byte	0
 11584 0319 00       		.byte	0
 11585 031a 3B       		.uleb128 0x3b
 11586 031b 898201   		.uleb128 0x4109
 11587 031e 01       		.byte	0x1
 11588 031f 11       		.uleb128 0x11
 11589 0320 01       		.uleb128 0x1
 11590 0321 00       		.byte	0
 11591 0322 00       		.byte	0
 11592 0323 3C       		.uleb128 0x3c
 11593 0324 2E       		.uleb128 0x2e
ARM GAS  C:\Users\EBANO_~1\AppData\Local\Temp\ccLo4wHn.s 			page 232


 11594 0325 01       		.byte	0x1
 11595 0326 3F       		.uleb128 0x3f
 11596 0327 0C       		.uleb128 0xc
 11597 0328 03       		.uleb128 0x3
 11598 0329 0E       		.uleb128 0xe
 11599 032a 3A       		.uleb128 0x3a
 11600 032b 0B       		.uleb128 0xb
 11601 032c 3B       		.uleb128 0x3b
 11602 032d 05       		.uleb128 0x5
 11603 032e 27       		.uleb128 0x27
 11604 032f 0C       		.uleb128 0xc
 11605 0330 49       		.uleb128 0x49
 11606 0331 13       		.uleb128 0x13
 11607 0332 20       		.uleb128 0x20
 11608 0333 0B       		.uleb128 0xb
 11609 0334 01       		.uleb128 0x1
 11610 0335 13       		.uleb128 0x13
 11611 0336 00       		.byte	0
 11612 0337 00       		.byte	0
 11613 0338 3D       		.uleb128 0x3d
 11614 0339 05       		.uleb128 0x5
 11615 033a 00       		.byte	0
 11616 033b 03       		.uleb128 0x3
 11617 033c 0E       		.uleb128 0xe
 11618 033d 3A       		.uleb128 0x3a
 11619 033e 0B       		.uleb128 0xb
 11620 033f 3B       		.uleb128 0x3b
 11621 0340 05       		.uleb128 0x5
 11622 0341 49       		.uleb128 0x49
 11623 0342 13       		.uleb128 0x13
 11624 0343 00       		.byte	0
 11625 0344 00       		.byte	0
 11626 0345 3E       		.uleb128 0x3e
 11627 0346 34       		.uleb128 0x34
 11628 0347 00       		.byte	0
 11629 0348 03       		.uleb128 0x3
 11630 0349 08       		.uleb128 0x8
 11631 034a 3A       		.uleb128 0x3a
 11632 034b 0B       		.uleb128 0xb
 11633 034c 3B       		.uleb128 0x3b
 11634 034d 05       		.uleb128 0x5
 11635 034e 49       		.uleb128 0x49
 11636 034f 13       		.uleb128 0x13
 11637 0350 00       		.byte	0
 11638 0351 00       		.byte	0
 11639 0352 3F       		.uleb128 0x3f
 11640 0353 2E       		.uleb128 0x2e
 11641 0354 01       		.byte	0x1
 11642 0355 3F       		.uleb128 0x3f
 11643 0356 0C       		.uleb128 0xc
 11644 0357 03       		.uleb128 0x3
 11645 0358 0E       		.uleb128 0xe
 11646 0359 3A       		.uleb128 0x3a
 11647 035a 0B       		.uleb128 0xb
 11648 035b 3B       		.uleb128 0x3b
 11649 035c 05       		.uleb128 0x5
 11650 035d 27       		.uleb128 0x27
ARM GAS  C:\Users\EBANO_~1\AppData\Local\Temp\ccLo4wHn.s 			page 233


 11651 035e 0C       		.uleb128 0xc
 11652 035f 49       		.uleb128 0x49
 11653 0360 13       		.uleb128 0x13
 11654 0361 11       		.uleb128 0x11
 11655 0362 01       		.uleb128 0x1
 11656 0363 12       		.uleb128 0x12
 11657 0364 01       		.uleb128 0x1
 11658 0365 40       		.uleb128 0x40
 11659 0366 06       		.uleb128 0x6
 11660 0367 9642     		.uleb128 0x2116
 11661 0369 0C       		.uleb128 0xc
 11662 036a 01       		.uleb128 0x1
 11663 036b 13       		.uleb128 0x13
 11664 036c 00       		.byte	0
 11665 036d 00       		.byte	0
 11666 036e 40       		.uleb128 0x40
 11667 036f 0B       		.uleb128 0xb
 11668 0370 01       		.byte	0x1
 11669 0371 11       		.uleb128 0x11
 11670 0372 01       		.uleb128 0x1
 11671 0373 12       		.uleb128 0x12
 11672 0374 01       		.uleb128 0x1
 11673 0375 01       		.uleb128 0x1
 11674 0376 13       		.uleb128 0x13
 11675 0377 00       		.byte	0
 11676 0378 00       		.byte	0
 11677 0379 41       		.uleb128 0x41
 11678 037a 34       		.uleb128 0x34
 11679 037b 00       		.byte	0
 11680 037c 03       		.uleb128 0x3
 11681 037d 08       		.uleb128 0x8
 11682 037e 3A       		.uleb128 0x3a
 11683 037f 0B       		.uleb128 0xb
 11684 0380 3B       		.uleb128 0x3b
 11685 0381 05       		.uleb128 0x5
 11686 0382 49       		.uleb128 0x49
 11687 0383 13       		.uleb128 0x13
 11688 0384 02       		.uleb128 0x2
 11689 0385 06       		.uleb128 0x6
 11690 0386 00       		.byte	0
 11691 0387 00       		.byte	0
 11692 0388 42       		.uleb128 0x42
 11693 0389 0B       		.uleb128 0xb
 11694 038a 01       		.byte	0x1
 11695 038b 31       		.uleb128 0x31
 11696 038c 13       		.uleb128 0x13
 11697 038d 55       		.uleb128 0x55
 11698 038e 06       		.uleb128 0x6
 11699 038f 00       		.byte	0
 11700 0390 00       		.byte	0
 11701 0391 43       		.uleb128 0x43
 11702 0392 898201   		.uleb128 0x4109
 11703 0395 00       		.byte	0
 11704 0396 11       		.uleb128 0x11
 11705 0397 01       		.uleb128 0x1
 11706 0398 31       		.uleb128 0x31
 11707 0399 13       		.uleb128 0x13
ARM GAS  C:\Users\EBANO_~1\AppData\Local\Temp\ccLo4wHn.s 			page 234


 11708 039a 00       		.byte	0
 11709 039b 00       		.byte	0
 11710 039c 44       		.uleb128 0x44
 11711 039d 1D       		.uleb128 0x1d
 11712 039e 01       		.byte	0x1
 11713 039f 31       		.uleb128 0x31
 11714 03a0 13       		.uleb128 0x13
 11715 03a1 52       		.uleb128 0x52
 11716 03a2 01       		.uleb128 0x1
 11717 03a3 55       		.uleb128 0x55
 11718 03a4 06       		.uleb128 0x6
 11719 03a5 58       		.uleb128 0x58
 11720 03a6 0B       		.uleb128 0xb
 11721 03a7 59       		.uleb128 0x59
 11722 03a8 05       		.uleb128 0x5
 11723 03a9 00       		.byte	0
 11724 03aa 00       		.byte	0
 11725 03ab 45       		.uleb128 0x45
 11726 03ac 0B       		.uleb128 0xb
 11727 03ad 01       		.byte	0x1
 11728 03ae 31       		.uleb128 0x31
 11729 03af 13       		.uleb128 0x13
 11730 03b0 55       		.uleb128 0x55
 11731 03b1 06       		.uleb128 0x6
 11732 03b2 01       		.uleb128 0x1
 11733 03b3 13       		.uleb128 0x13
 11734 03b4 00       		.byte	0
 11735 03b5 00       		.byte	0
 11736 03b6 46       		.uleb128 0x46
 11737 03b7 05       		.uleb128 0x5
 11738 03b8 00       		.byte	0
 11739 03b9 31       		.uleb128 0x31
 11740 03ba 13       		.uleb128 0x13
 11741 03bb 00       		.byte	0
 11742 03bc 00       		.byte	0
 11743 03bd 47       		.uleb128 0x47
 11744 03be 34       		.uleb128 0x34
 11745 03bf 00       		.byte	0
 11746 03c0 31       		.uleb128 0x31
 11747 03c1 13       		.uleb128 0x13
 11748 03c2 00       		.byte	0
 11749 03c3 00       		.byte	0
 11750 03c4 48       		.uleb128 0x48
 11751 03c5 898201   		.uleb128 0x4109
 11752 03c8 01       		.byte	0x1
 11753 03c9 11       		.uleb128 0x11
 11754 03ca 01       		.uleb128 0x1
 11755 03cb 01       		.uleb128 0x1
 11756 03cc 13       		.uleb128 0x13
 11757 03cd 00       		.byte	0
 11758 03ce 00       		.byte	0
 11759 03cf 49       		.uleb128 0x49
 11760 03d0 898201   		.uleb128 0x4109
 11761 03d3 00       		.byte	0
 11762 03d4 11       		.uleb128 0x11
 11763 03d5 01       		.uleb128 0x1
 11764 03d6 9342     		.uleb128 0x2113
ARM GAS  C:\Users\EBANO_~1\AppData\Local\Temp\ccLo4wHn.s 			page 235


 11765 03d8 0A       		.uleb128 0xa
 11766 03d9 00       		.byte	0
 11767 03da 00       		.byte	0
 11768 03db 4A       		.uleb128 0x4a
 11769 03dc 2E       		.uleb128 0x2e
 11770 03dd 01       		.byte	0x1
 11771 03de 3F       		.uleb128 0x3f
 11772 03df 0C       		.uleb128 0xc
 11773 03e0 03       		.uleb128 0x3
 11774 03e1 0E       		.uleb128 0xe
 11775 03e2 3A       		.uleb128 0x3a
 11776 03e3 0B       		.uleb128 0xb
 11777 03e4 3B       		.uleb128 0x3b
 11778 03e5 05       		.uleb128 0x5
 11779 03e6 27       		.uleb128 0x27
 11780 03e7 0C       		.uleb128 0xc
 11781 03e8 49       		.uleb128 0x49
 11782 03e9 13       		.uleb128 0x13
 11783 03ea 11       		.uleb128 0x11
 11784 03eb 01       		.uleb128 0x1
 11785 03ec 12       		.uleb128 0x12
 11786 03ed 01       		.uleb128 0x1
 11787 03ee 40       		.uleb128 0x40
 11788 03ef 06       		.uleb128 0x6
 11789 03f0 9742     		.uleb128 0x2117
 11790 03f2 0C       		.uleb128 0xc
 11791 03f3 01       		.uleb128 0x1
 11792 03f4 13       		.uleb128 0x13
 11793 03f5 00       		.byte	0
 11794 03f6 00       		.byte	0
 11795 03f7 4B       		.uleb128 0x4b
 11796 03f8 0B       		.uleb128 0xb
 11797 03f9 01       		.byte	0x1
 11798 03fa 55       		.uleb128 0x55
 11799 03fb 06       		.uleb128 0x6
 11800 03fc 01       		.uleb128 0x1
 11801 03fd 13       		.uleb128 0x13
 11802 03fe 00       		.byte	0
 11803 03ff 00       		.byte	0
 11804 0400 4C       		.uleb128 0x4c
 11805 0401 898201   		.uleb128 0x4109
 11806 0404 01       		.byte	0x1
 11807 0405 11       		.uleb128 0x11
 11808 0406 01       		.uleb128 0x1
 11809 0407 9342     		.uleb128 0x2113
 11810 0409 0A       		.uleb128 0xa
 11811 040a 01       		.uleb128 0x1
 11812 040b 13       		.uleb128 0x13
 11813 040c 00       		.byte	0
 11814 040d 00       		.byte	0
 11815 040e 4D       		.uleb128 0x4d
 11816 040f 898201   		.uleb128 0x4109
 11817 0412 01       		.byte	0x1
 11818 0413 11       		.uleb128 0x11
 11819 0414 01       		.uleb128 0x1
 11820 0415 9342     		.uleb128 0x2113
 11821 0417 0A       		.uleb128 0xa
ARM GAS  C:\Users\EBANO_~1\AppData\Local\Temp\ccLo4wHn.s 			page 236


 11822 0418 00       		.byte	0
 11823 0419 00       		.byte	0
 11824 041a 4E       		.uleb128 0x4e
 11825 041b 898201   		.uleb128 0x4109
 11826 041e 00       		.byte	0
 11827 041f 11       		.uleb128 0x11
 11828 0420 01       		.uleb128 0x1
 11829 0421 00       		.byte	0
 11830 0422 00       		.byte	0
 11831 0423 4F       		.uleb128 0x4f
 11832 0424 1D       		.uleb128 0x1d
 11833 0425 01       		.byte	0x1
 11834 0426 31       		.uleb128 0x31
 11835 0427 13       		.uleb128 0x13
 11836 0428 11       		.uleb128 0x11
 11837 0429 01       		.uleb128 0x1
 11838 042a 12       		.uleb128 0x12
 11839 042b 01       		.uleb128 0x1
 11840 042c 58       		.uleb128 0x58
 11841 042d 0B       		.uleb128 0xb
 11842 042e 59       		.uleb128 0x59
 11843 042f 05       		.uleb128 0x5
 11844 0430 00       		.byte	0
 11845 0431 00       		.byte	0
 11846 0432 50       		.uleb128 0x50
 11847 0433 0B       		.uleb128 0xb
 11848 0434 01       		.byte	0x1
 11849 0435 11       		.uleb128 0x11
 11850 0436 01       		.uleb128 0x1
 11851 0437 12       		.uleb128 0x12
 11852 0438 01       		.uleb128 0x1
 11853 0439 00       		.byte	0
 11854 043a 00       		.byte	0
 11855 043b 51       		.uleb128 0x51
 11856 043c 34       		.uleb128 0x34
 11857 043d 00       		.byte	0
 11858 043e 31       		.uleb128 0x31
 11859 043f 13       		.uleb128 0x13
 11860 0440 1C       		.uleb128 0x1c
 11861 0441 0B       		.uleb128 0xb
 11862 0442 00       		.byte	0
 11863 0443 00       		.byte	0
 11864 0444 52       		.uleb128 0x52
 11865 0445 0B       		.uleb128 0xb
 11866 0446 01       		.byte	0x1
 11867 0447 31       		.uleb128 0x31
 11868 0448 13       		.uleb128 0x13
 11869 0449 11       		.uleb128 0x11
 11870 044a 01       		.uleb128 0x1
 11871 044b 12       		.uleb128 0x12
 11872 044c 01       		.uleb128 0x1
 11873 044d 01       		.uleb128 0x1
 11874 044e 13       		.uleb128 0x13
 11875 044f 00       		.byte	0
 11876 0450 00       		.byte	0
 11877 0451 53       		.uleb128 0x53
 11878 0452 2E       		.uleb128 0x2e
ARM GAS  C:\Users\EBANO_~1\AppData\Local\Temp\ccLo4wHn.s 			page 237


 11879 0453 01       		.byte	0x1
 11880 0454 3F       		.uleb128 0x3f
 11881 0455 0C       		.uleb128 0xc
 11882 0456 03       		.uleb128 0x3
 11883 0457 0E       		.uleb128 0xe
 11884 0458 3A       		.uleb128 0x3a
 11885 0459 0B       		.uleb128 0xb
 11886 045a 3B       		.uleb128 0x3b
 11887 045b 0B       		.uleb128 0xb
 11888 045c 27       		.uleb128 0x27
 11889 045d 0C       		.uleb128 0xc
 11890 045e 49       		.uleb128 0x49
 11891 045f 13       		.uleb128 0x13
 11892 0460 20       		.uleb128 0x20
 11893 0461 0B       		.uleb128 0xb
 11894 0462 01       		.uleb128 0x1
 11895 0463 13       		.uleb128 0x13
 11896 0464 00       		.byte	0
 11897 0465 00       		.byte	0
 11898 0466 54       		.uleb128 0x54
 11899 0467 05       		.uleb128 0x5
 11900 0468 00       		.byte	0
 11901 0469 03       		.uleb128 0x3
 11902 046a 0E       		.uleb128 0xe
 11903 046b 3A       		.uleb128 0x3a
 11904 046c 0B       		.uleb128 0xb
 11905 046d 3B       		.uleb128 0x3b
 11906 046e 0B       		.uleb128 0xb
 11907 046f 49       		.uleb128 0x49
 11908 0470 13       		.uleb128 0x13
 11909 0471 00       		.byte	0
 11910 0472 00       		.byte	0
 11911 0473 55       		.uleb128 0x55
 11912 0474 34       		.uleb128 0x34
 11913 0475 00       		.byte	0
 11914 0476 03       		.uleb128 0x3
 11915 0477 0E       		.uleb128 0xe
 11916 0478 3A       		.uleb128 0x3a
 11917 0479 0B       		.uleb128 0xb
 11918 047a 3B       		.uleb128 0x3b
 11919 047b 0B       		.uleb128 0xb
 11920 047c 49       		.uleb128 0x49
 11921 047d 13       		.uleb128 0x13
 11922 047e 00       		.byte	0
 11923 047f 00       		.byte	0
 11924 0480 56       		.uleb128 0x56
 11925 0481 2E       		.uleb128 0x2e
 11926 0482 01       		.byte	0x1
 11927 0483 03       		.uleb128 0x3
 11928 0484 0E       		.uleb128 0xe
 11929 0485 3A       		.uleb128 0x3a
 11930 0486 0B       		.uleb128 0xb
 11931 0487 3B       		.uleb128 0x3b
 11932 0488 0B       		.uleb128 0xb
 11933 0489 27       		.uleb128 0x27
 11934 048a 0C       		.uleb128 0xc
 11935 048b 49       		.uleb128 0x49
ARM GAS  C:\Users\EBANO_~1\AppData\Local\Temp\ccLo4wHn.s 			page 238


 11936 048c 13       		.uleb128 0x13
 11937 048d 20       		.uleb128 0x20
 11938 048e 0B       		.uleb128 0xb
 11939 048f 01       		.uleb128 0x1
 11940 0490 13       		.uleb128 0x13
 11941 0491 00       		.byte	0
 11942 0492 00       		.byte	0
 11943 0493 57       		.uleb128 0x57
 11944 0494 0B       		.uleb128 0xb
 11945 0495 01       		.byte	0x1
 11946 0496 00       		.byte	0
 11947 0497 00       		.byte	0
 11948 0498 58       		.uleb128 0x58
 11949 0499 34       		.uleb128 0x34
 11950 049a 00       		.byte	0
 11951 049b 03       		.uleb128 0x3
 11952 049c 08       		.uleb128 0x8
 11953 049d 3A       		.uleb128 0x3a
 11954 049e 0B       		.uleb128 0xb
 11955 049f 3B       		.uleb128 0x3b
 11956 04a0 0B       		.uleb128 0xb
 11957 04a1 49       		.uleb128 0x49
 11958 04a2 13       		.uleb128 0x13
 11959 04a3 00       		.byte	0
 11960 04a4 00       		.byte	0
 11961 04a5 59       		.uleb128 0x59
 11962 04a6 05       		.uleb128 0x5
 11963 04a7 00       		.byte	0
 11964 04a8 03       		.uleb128 0x3
 11965 04a9 08       		.uleb128 0x8
 11966 04aa 3A       		.uleb128 0x3a
 11967 04ab 0B       		.uleb128 0xb
 11968 04ac 3B       		.uleb128 0x3b
 11969 04ad 0B       		.uleb128 0xb
 11970 04ae 49       		.uleb128 0x49
 11971 04af 13       		.uleb128 0x13
 11972 04b0 00       		.byte	0
 11973 04b1 00       		.byte	0
 11974 04b2 5A       		.uleb128 0x5a
 11975 04b3 2E       		.uleb128 0x2e
 11976 04b4 01       		.byte	0x1
 11977 04b5 31       		.uleb128 0x31
 11978 04b6 13       		.uleb128 0x13
 11979 04b7 11       		.uleb128 0x11
 11980 04b8 01       		.uleb128 0x1
 11981 04b9 12       		.uleb128 0x12
 11982 04ba 01       		.uleb128 0x1
 11983 04bb 40       		.uleb128 0x40
 11984 04bc 06       		.uleb128 0x6
 11985 04bd 9742     		.uleb128 0x2117
 11986 04bf 0C       		.uleb128 0xc
 11987 04c0 01       		.uleb128 0x1
 11988 04c1 13       		.uleb128 0x13
 11989 04c2 00       		.byte	0
 11990 04c3 00       		.byte	0
 11991 04c4 5B       		.uleb128 0x5b
 11992 04c5 34       		.uleb128 0x34
ARM GAS  C:\Users\EBANO_~1\AppData\Local\Temp\ccLo4wHn.s 			page 239


 11993 04c6 00       		.byte	0
 11994 04c7 31       		.uleb128 0x31
 11995 04c8 13       		.uleb128 0x13
 11996 04c9 02       		.uleb128 0x2
 11997 04ca 0A       		.uleb128 0xa
 11998 04cb 00       		.byte	0
 11999 04cc 00       		.byte	0
 12000 04cd 5C       		.uleb128 0x5c
 12001 04ce 1D       		.uleb128 0x1d
 12002 04cf 01       		.byte	0x1
 12003 04d0 31       		.uleb128 0x31
 12004 04d1 13       		.uleb128 0x13
 12005 04d2 11       		.uleb128 0x11
 12006 04d3 01       		.uleb128 0x1
 12007 04d4 12       		.uleb128 0x12
 12008 04d5 01       		.uleb128 0x1
 12009 04d6 58       		.uleb128 0x58
 12010 04d7 0B       		.uleb128 0xb
 12011 04d8 59       		.uleb128 0x59
 12012 04d9 0B       		.uleb128 0xb
 12013 04da 01       		.uleb128 0x1
 12014 04db 13       		.uleb128 0x13
 12015 04dc 00       		.byte	0
 12016 04dd 00       		.byte	0
 12017 04de 5D       		.uleb128 0x5d
 12018 04df 2E       		.uleb128 0x2e
 12019 04e0 01       		.byte	0x1
 12020 04e1 31       		.uleb128 0x31
 12021 04e2 13       		.uleb128 0x13
 12022 04e3 11       		.uleb128 0x11
 12023 04e4 01       		.uleb128 0x1
 12024 04e5 12       		.uleb128 0x12
 12025 04e6 01       		.uleb128 0x1
 12026 04e7 40       		.uleb128 0x40
 12027 04e8 06       		.uleb128 0x6
 12028 04e9 9642     		.uleb128 0x2116
 12029 04eb 0C       		.uleb128 0xc
 12030 04ec 01       		.uleb128 0x1
 12031 04ed 13       		.uleb128 0x13
 12032 04ee 00       		.byte	0
 12033 04ef 00       		.byte	0
 12034 04f0 5E       		.uleb128 0x5e
 12035 04f1 2E       		.uleb128 0x2e
 12036 04f2 00       		.byte	0
 12037 04f3 3F       		.uleb128 0x3f
 12038 04f4 0C       		.uleb128 0xc
 12039 04f5 3C       		.uleb128 0x3c
 12040 04f6 0C       		.uleb128 0xc
 12041 04f7 8740     		.uleb128 0x2007
 12042 04f9 0E       		.uleb128 0xe
 12043 04fa 03       		.uleb128 0x3
 12044 04fb 0E       		.uleb128 0xe
 12045 04fc 3A       		.uleb128 0x3a
 12046 04fd 0B       		.uleb128 0xb
 12047 04fe 3B       		.uleb128 0x3b
 12048 04ff 05       		.uleb128 0x5
 12049 0500 00       		.byte	0
ARM GAS  C:\Users\EBANO_~1\AppData\Local\Temp\ccLo4wHn.s 			page 240


 12050 0501 00       		.byte	0
 12051 0502 5F       		.uleb128 0x5f
 12052 0503 2E       		.uleb128 0x2e
 12053 0504 00       		.byte	0
 12054 0505 3F       		.uleb128 0x3f
 12055 0506 0C       		.uleb128 0xc
 12056 0507 3C       		.uleb128 0x3c
 12057 0508 0C       		.uleb128 0xc
 12058 0509 8740     		.uleb128 0x2007
 12059 050b 0E       		.uleb128 0xe
 12060 050c 03       		.uleb128 0x3
 12061 050d 0E       		.uleb128 0xe
 12062 050e 3A       		.uleb128 0x3a
 12063 050f 0B       		.uleb128 0xb
 12064 0510 3B       		.uleb128 0x3b
 12065 0511 0B       		.uleb128 0xb
 12066 0512 00       		.byte	0
 12067 0513 00       		.byte	0
 12068 0514 60       		.uleb128 0x60
 12069 0515 2E       		.uleb128 0x2e
 12070 0516 00       		.byte	0
 12071 0517 3F       		.uleb128 0x3f
 12072 0518 0C       		.uleb128 0xc
 12073 0519 3C       		.uleb128 0x3c
 12074 051a 0C       		.uleb128 0xc
 12075 051b 8740     		.uleb128 0x2007
 12076 051d 0E       		.uleb128 0xe
 12077 051e 03       		.uleb128 0x3
 12078 051f 0E       		.uleb128 0xe
 12079 0520 3A       		.uleb128 0x3a
 12080 0521 0B       		.uleb128 0xb
 12081 0522 3B       		.uleb128 0x3b
 12082 0523 0B       		.uleb128 0xb
 12083 0524 8740     		.uleb128 0x2007
 12084 0526 0E       		.uleb128 0xe
 12085 0527 00       		.byte	0
 12086 0528 00       		.byte	0
 12087 0529 00       		.byte	0
 12088              		.section	.debug_loc,"",%progbits
 12089              	.Ldebug_loc0:
 12090              	.LLST136:
 12091 0000 00000000 		.4byte	.LFB67
 12092 0004 02000000 		.4byte	.LCFI40
 12093 0008 0200     		.2byte	0x2
 12094 000a 7D       		.byte	0x7d
 12095 000b 00       		.sleb128 0
 12096 000c 02000000 		.4byte	.LCFI40
 12097 0010 06000000 		.4byte	.LCFI41
 12098 0014 0200     		.2byte	0x2
 12099 0016 7D       		.byte	0x7d
 12100 0017 08       		.sleb128 8
 12101 0018 06000000 		.4byte	.LCFI41
 12102 001c 38000000 		.4byte	.LFE67
 12103 0020 0200     		.2byte	0x2
 12104 0022 7D       		.byte	0x7d
 12105 0023 20       		.sleb128 32
 12106 0024 00000000 		.4byte	0
ARM GAS  C:\Users\EBANO_~1\AppData\Local\Temp\ccLo4wHn.s 			page 241


 12107 0028 00000000 		.4byte	0
 12108              	.LLST137:
 12109 002c 00000000 		.4byte	.LVL353
 12110 0030 22000000 		.4byte	.LVL354
 12111 0034 0100     		.2byte	0x1
 12112 0036 50       		.byte	0x50
 12113 0037 22000000 		.4byte	.LVL354
 12114 003b 38000000 		.4byte	.LFE67
 12115 003f 0400     		.2byte	0x4
 12116 0041 F3       		.byte	0xf3
 12117 0042 01       		.uleb128 0x1
 12118 0043 50       		.byte	0x50
 12119 0044 9F       		.byte	0x9f
 12120 0045 00000000 		.4byte	0
 12121 0049 00000000 		.4byte	0
 12122              	.LLST138:
 12123 004d 00000000 		.4byte	.LVL353
 12124 0051 27000000 		.4byte	.LVL355-1
 12125 0055 0100     		.2byte	0x1
 12126 0057 51       		.byte	0x51
 12127 0058 27000000 		.4byte	.LVL355-1
 12128 005c 2E000000 		.4byte	.LVL356
 12129 0060 0100     		.2byte	0x1
 12130 0062 54       		.byte	0x54
 12131 0063 2E000000 		.4byte	.LVL356
 12132 0067 38000000 		.4byte	.LFE67
 12133 006b 0400     		.2byte	0x4
 12134 006d F3       		.byte	0xf3
 12135 006e 01       		.uleb128 0x1
 12136 006f 51       		.byte	0x51
 12137 0070 9F       		.byte	0x9f
 12138 0071 00000000 		.4byte	0
 12139 0075 00000000 		.4byte	0
 12140              	.LLST134:
 12141 0079 00000000 		.4byte	.LVL349
 12142 007d 06000000 		.4byte	.LVL352
 12143 0081 0100     		.2byte	0x1
 12144 0083 50       		.byte	0x50
 12145 0084 06000000 		.4byte	.LVL352
 12146 0088 0E000000 		.4byte	.LFE66
 12147 008c 0400     		.2byte	0x4
 12148 008e F3       		.byte	0xf3
 12149 008f 01       		.uleb128 0x1
 12150 0090 50       		.byte	0x50
 12151 0091 9F       		.byte	0x9f
 12152 0092 00000000 		.4byte	0
 12153 0096 00000000 		.4byte	0
 12154              	.LLST135:
 12155 009a 00000000 		.4byte	.LVL349
 12156 009e 02000000 		.4byte	.LVL350
 12157 00a2 0100     		.2byte	0x1
 12158 00a4 51       		.byte	0x51
 12159 00a5 02000000 		.4byte	.LVL350
 12160 00a9 0E000000 		.4byte	.LFE66
 12161 00ad 0400     		.2byte	0x4
 12162 00af F3       		.byte	0xf3
 12163 00b0 01       		.uleb128 0x1
ARM GAS  C:\Users\EBANO_~1\AppData\Local\Temp\ccLo4wHn.s 			page 242


 12164 00b1 51       		.byte	0x51
 12165 00b2 9F       		.byte	0x9f
 12166 00b3 00000000 		.4byte	0
 12167 00b7 00000000 		.4byte	0
 12168              	.LLST124:
 12169 00bb 00000000 		.4byte	.LFB65
 12170 00bf 02000000 		.4byte	.LCFI37
 12171 00c3 0200     		.2byte	0x2
 12172 00c5 7D       		.byte	0x7d
 12173 00c6 00       		.sleb128 0
 12174 00c7 02000000 		.4byte	.LCFI37
 12175 00cb 12000000 		.4byte	.LCFI38
 12176 00cf 0200     		.2byte	0x2
 12177 00d1 7D       		.byte	0x7d
 12178 00d2 14       		.sleb128 20
 12179 00d3 12000000 		.4byte	.LCFI38
 12180 00d7 28000000 		.4byte	.LCFI39
 12181 00db 0200     		.2byte	0x2
 12182 00dd 7D       		.byte	0x7d
 12183 00de 18       		.sleb128 24
 12184 00df 28000000 		.4byte	.LCFI39
 12185 00e3 8C000000 		.4byte	.LFE65
 12186 00e7 0200     		.2byte	0x2
 12187 00e9 7D       		.byte	0x7d
 12188 00ea 20       		.sleb128 32
 12189 00eb 00000000 		.4byte	0
 12190 00ef 00000000 		.4byte	0
 12191              	.LLST125:
 12192 00f3 00000000 		.4byte	.LVL335
 12193 00f7 20000000 		.4byte	.LVL337
 12194 00fb 0100     		.2byte	0x1
 12195 00fd 50       		.byte	0x50
 12196 00fe 20000000 		.4byte	.LVL337
 12197 0102 6A000000 		.4byte	.LVL345
 12198 0106 0100     		.2byte	0x1
 12199 0108 54       		.byte	0x54
 12200 0109 6A000000 		.4byte	.LVL345
 12201 010d 70000000 		.4byte	.LVL348
 12202 0111 0400     		.2byte	0x4
 12203 0113 F3       		.byte	0xf3
 12204 0114 01       		.uleb128 0x1
 12205 0115 50       		.byte	0x50
 12206 0116 9F       		.byte	0x9f
 12207 0117 70000000 		.4byte	.LVL348
 12208 011b 8C000000 		.4byte	.LFE65
 12209 011f 0100     		.2byte	0x1
 12210 0121 54       		.byte	0x54
 12211 0122 00000000 		.4byte	0
 12212 0126 00000000 		.4byte	0
 12213              	.LLST126:
 12214 012a 50000000 		.4byte	.LVL341
 12215 012e 6A000000 		.4byte	.LVL346
 12216 0132 0100     		.2byte	0x1
 12217 0134 55       		.byte	0x55
 12218 0135 00000000 		.4byte	0
 12219 0139 00000000 		.4byte	0
 12220              	.LLST127:
ARM GAS  C:\Users\EBANO_~1\AppData\Local\Temp\ccLo4wHn.s 			page 243


 12221 013d 40000000 		.4byte	.LVL339
 12222 0141 5E000000 		.4byte	.LVL343
 12223 0145 0200     		.2byte	0x2
 12224 0147 30       		.byte	0x30
 12225 0148 9F       		.byte	0x9f
 12226 0149 5E000000 		.4byte	.LVL343
 12227 014d 67000000 		.4byte	.LVL344-1
 12228 0151 0100     		.2byte	0x1
 12229 0153 51       		.byte	0x51
 12230 0154 00000000 		.4byte	0
 12231 0158 00000000 		.4byte	0
 12232              	.LLST128:
 12233 015c 40000000 		.4byte	.LVL339
 12234 0160 6A000000 		.4byte	.LVL347
 12235 0164 0100     		.2byte	0x1
 12236 0166 57       		.byte	0x57
 12237 0167 00000000 		.4byte	0
 12238 016b 00000000 		.4byte	0
 12239              	.LLST129:
 12240 016f 06000000 		.4byte	.LVL336
 12241 0173 20000000 		.4byte	.LVL337
 12242 0177 0200     		.2byte	0x2
 12243 0179 70       		.byte	0x70
 12244 017a 01       		.sleb128 1
 12245 017b 20000000 		.4byte	.LVL337
 12246 017f 49000000 		.4byte	.LVL340-1
 12247 0183 0200     		.2byte	0x2
 12248 0185 74       		.byte	0x74
 12249 0186 01       		.sleb128 1
 12250 0187 70000000 		.4byte	.LVL348
 12251 018b 8C000000 		.4byte	.LFE65
 12252 018f 0200     		.2byte	0x2
 12253 0191 74       		.byte	0x74
 12254 0192 01       		.sleb128 1
 12255 0193 00000000 		.4byte	0
 12256 0197 00000000 		.4byte	0
 12257              	.LLST130:
 12258 019b 06000000 		.4byte	.LVL336
 12259 019f 38000000 		.4byte	.LVL338
 12260 01a3 1900     		.2byte	0x19
 12261 01a5 75       		.byte	0x75
 12262 01a6 00       		.sleb128 0
 12263 01a7 3C       		.byte	0x3c
 12264 01a8 1E       		.byte	0x1e
 12265 01a9 03       		.byte	0x3
 12266 01aa 09000000 		.4byte	NvmCtx+9
 12267 01ae 22       		.byte	0x22
 12268 01af 94       		.byte	0x94
 12269 01b0 01       		.byte	0x1
 12270 01b1 08       		.byte	0x8
 12271 01b2 FF       		.byte	0xff
 12272 01b3 1A       		.byte	0x1a
 12273 01b4 23       		.byte	0x23
 12274 01b5 0C       		.uleb128 0xc
 12275 01b6 34       		.byte	0x34
 12276 01b7 24       		.byte	0x24
 12277 01b8 03       		.byte	0x3
ARM GAS  C:\Users\EBANO_~1\AppData\Local\Temp\ccLo4wHn.s 			page 244


 12278 01b9 02000000 		.4byte	NvmCtx+2
 12279 01bd 22       		.byte	0x22
 12280 01be 00000000 		.4byte	0
 12281 01c2 00000000 		.4byte	0
 12282              	.LLST131:
 12283 01c6 06000000 		.4byte	.LVL336
 12284 01ca 20000000 		.4byte	.LVL337
 12285 01ce 0200     		.2byte	0x2
 12286 01d0 70       		.byte	0x70
 12287 01d1 02       		.sleb128 2
 12288 01d2 20000000 		.4byte	.LVL337
 12289 01d6 38000000 		.4byte	.LVL338
 12290 01da 0200     		.2byte	0x2
 12291 01dc 74       		.byte	0x74
 12292 01dd 02       		.sleb128 2
 12293 01de 00000000 		.4byte	0
 12294 01e2 00000000 		.4byte	0
 12295              	.LLST133:
 12296 01e6 38000000 		.4byte	.LVL338
 12297 01ea 40000000 		.4byte	.LVL339
 12298 01ee 0100     		.2byte	0x1
 12299 01f0 57       		.byte	0x57
 12300 01f1 70000000 		.4byte	.LVL348
 12301 01f5 8C000000 		.4byte	.LFE65
 12302 01f9 0100     		.2byte	0x1
 12303 01fb 57       		.byte	0x57
 12304 01fc 00000000 		.4byte	0
 12305 0200 00000000 		.4byte	0
 12306              	.LLST89:
 12307 0204 00000000 		.4byte	.LFB62
 12308 0208 02000000 		.4byte	.LCFI31
 12309 020c 0200     		.2byte	0x2
 12310 020e 7D       		.byte	0x7d
 12311 020f 00       		.sleb128 0
 12312 0210 02000000 		.4byte	.LCFI31
 12313 0214 0C000000 		.4byte	.LCFI32
 12314 0218 0200     		.2byte	0x2
 12315 021a 7D       		.byte	0x7d
 12316 021b 14       		.sleb128 20
 12317 021c 0C000000 		.4byte	.LCFI32
 12318 0220 0E000000 		.4byte	.LCFI33
 12319 0224 0200     		.2byte	0x2
 12320 0226 7D       		.byte	0x7d
 12321 0227 24       		.sleb128 36
 12322 0228 0E000000 		.4byte	.LCFI33
 12323 022c 08020000 		.4byte	.LFE62
 12324 0230 0300     		.2byte	0x3
 12325 0232 7D       		.byte	0x7d
 12326 0233 D000     		.sleb128 80
 12327 0235 00000000 		.4byte	0
 12328 0239 00000000 		.4byte	0
 12329              	.LLST90:
 12330 023d 00000000 		.4byte	.LVL249
 12331 0241 18000000 		.4byte	.LVL251
 12332 0245 0100     		.2byte	0x1
 12333 0247 50       		.byte	0x50
 12334 0248 18000000 		.4byte	.LVL251
ARM GAS  C:\Users\EBANO_~1\AppData\Local\Temp\ccLo4wHn.s 			page 245


 12335 024c 6C000000 		.4byte	.LVL259
 12336 0250 0100     		.2byte	0x1
 12337 0252 54       		.byte	0x54
 12338 0253 6C000000 		.4byte	.LVL259
 12339 0257 14010000 		.4byte	.LVL275
 12340 025b 0400     		.2byte	0x4
 12341 025d F3       		.byte	0xf3
 12342 025e 01       		.uleb128 0x1
 12343 025f 50       		.byte	0x50
 12344 0260 9F       		.byte	0x9f
 12345 0261 14010000 		.4byte	.LVL275
 12346 0265 20010000 		.4byte	.LVL277
 12347 0269 0100     		.2byte	0x1
 12348 026b 54       		.byte	0x54
 12349 026c 20010000 		.4byte	.LVL277
 12350 0270 08020000 		.4byte	.LFE62
 12351 0274 0400     		.2byte	0x4
 12352 0276 F3       		.byte	0xf3
 12353 0277 01       		.uleb128 0x1
 12354 0278 50       		.byte	0x50
 12355 0279 9F       		.byte	0x9f
 12356 027a 00000000 		.4byte	0
 12357 027e 00000000 		.4byte	0
 12358              	.LLST91:
 12359 0282 00000000 		.4byte	.LVL249
 12360 0286 14000000 		.4byte	.LVL250
 12361 028a 0100     		.2byte	0x1
 12362 028c 51       		.byte	0x51
 12363 028d 14000000 		.4byte	.LVL250
 12364 0291 08020000 		.4byte	.LFE62
 12365 0295 0200     		.2byte	0x2
 12366 0297 91       		.byte	0x91
 12367 0298 40       		.sleb128 -64
 12368 0299 00000000 		.4byte	0
 12369 029d 00000000 		.4byte	0
 12370              	.LLST92:
 12371 02a1 00000000 		.4byte	.LVL249
 12372 02a5 1A000000 		.4byte	.LVL252
 12373 02a9 0100     		.2byte	0x1
 12374 02ab 52       		.byte	0x52
 12375 02ac 1A000000 		.4byte	.LVL252
 12376 02b0 08010000 		.4byte	.LVL274
 12377 02b4 0100     		.2byte	0x1
 12378 02b6 5B       		.byte	0x5b
 12379 02b7 08010000 		.4byte	.LVL274
 12380 02bb 14010000 		.4byte	.LVL275
 12381 02bf 0400     		.2byte	0x4
 12382 02c1 F3       		.byte	0xf3
 12383 02c2 01       		.uleb128 0x1
 12384 02c3 52       		.byte	0x52
 12385 02c4 9F       		.byte	0x9f
 12386 02c5 14010000 		.4byte	.LVL275
 12387 02c9 08020000 		.4byte	.LFE62
 12388 02cd 0100     		.2byte	0x1
 12389 02cf 5B       		.byte	0x5b
 12390 02d0 00000000 		.4byte	0
 12391 02d4 00000000 		.4byte	0
ARM GAS  C:\Users\EBANO_~1\AppData\Local\Temp\ccLo4wHn.s 			page 246


 12392              	.LLST93:
 12393 02d8 00000000 		.4byte	.LVL249
 12394 02dc 1F000000 		.4byte	.LVL253-1
 12395 02e0 0100     		.2byte	0x1
 12396 02e2 53       		.byte	0x53
 12397 02e3 1F000000 		.4byte	.LVL253-1
 12398 02e7 7C000000 		.4byte	.LVL261
 12399 02eb 0100     		.2byte	0x1
 12400 02ed 56       		.byte	0x56
 12401 02ee 7C000000 		.4byte	.LVL261
 12402 02f2 14010000 		.4byte	.LVL275
 12403 02f6 0400     		.2byte	0x4
 12404 02f8 F3       		.byte	0xf3
 12405 02f9 01       		.uleb128 0x1
 12406 02fa 53       		.byte	0x53
 12407 02fb 9F       		.byte	0x9f
 12408 02fc 14010000 		.4byte	.LVL275
 12409 0300 20010000 		.4byte	.LVL277
 12410 0304 0100     		.2byte	0x1
 12411 0306 56       		.byte	0x56
 12412 0307 20010000 		.4byte	.LVL277
 12413 030b 2A010000 		.4byte	.LVL278
 12414 030f 0400     		.2byte	0x4
 12415 0311 F3       		.byte	0xf3
 12416 0312 01       		.uleb128 0x1
 12417 0313 53       		.byte	0x53
 12418 0314 9F       		.byte	0x9f
 12419 0315 2A010000 		.4byte	.LVL278
 12420 0319 42010000 		.4byte	.LVL281
 12421 031d 0100     		.2byte	0x1
 12422 031f 56       		.byte	0x56
 12423 0320 42010000 		.4byte	.LVL281
 12424 0324 08020000 		.4byte	.LFE62
 12425 0328 0400     		.2byte	0x4
 12426 032a F3       		.byte	0xf3
 12427 032b 01       		.uleb128 0x1
 12428 032c 53       		.byte	0x53
 12429 032d 9F       		.byte	0x9f
 12430 032e 00000000 		.4byte	0
 12431 0332 00000000 		.4byte	0
 12432              	.LLST94:
 12433 0336 00000000 		.4byte	.LVL249
 12434 033a 06010000 		.4byte	.LVL273
 12435 033e 0200     		.2byte	0x2
 12436 0340 30       		.byte	0x30
 12437 0341 9F       		.byte	0x9f
 12438 0342 14010000 		.4byte	.LVL275
 12439 0346 AA010000 		.4byte	.LVL291
 12440 034a 0200     		.2byte	0x2
 12441 034c 30       		.byte	0x30
 12442 034d 9F       		.byte	0x9f
 12443 034e AA010000 		.4byte	.LVL291
 12444 0352 B2010000 		.4byte	.LVL292
 12445 0356 0100     		.2byte	0x1
 12446 0358 56       		.byte	0x56
 12447 0359 BA010000 		.4byte	.LVL293
 12448 035d E6010000 		.4byte	.LVL297
ARM GAS  C:\Users\EBANO_~1\AppData\Local\Temp\ccLo4wHn.s 			page 247


 12449 0361 0100     		.2byte	0x1
 12450 0363 56       		.byte	0x56
 12451 0364 E6010000 		.4byte	.LVL297
 12452 0368 F6010000 		.4byte	.LVL301
 12453 036c 0200     		.2byte	0x2
 12454 036e 30       		.byte	0x30
 12455 036f 9F       		.byte	0x9f
 12456 0370 F6010000 		.4byte	.LVL301
 12457 0374 08020000 		.4byte	.LFE62
 12458 0378 0100     		.2byte	0x1
 12459 037a 56       		.byte	0x56
 12460 037b 00000000 		.4byte	0
 12461 037f 00000000 		.4byte	0
 12462              	.LLST95:
 12463 0383 00000000 		.4byte	.LVL249
 12464 0387 EA000000 		.4byte	.LVL272
 12465 038b 0200     		.2byte	0x2
 12466 038d 30       		.byte	0x30
 12467 038e 9F       		.byte	0x9f
 12468 038f 14010000 		.4byte	.LVL275
 12469 0393 20010000 		.4byte	.LVL277
 12470 0397 0200     		.2byte	0x2
 12471 0399 30       		.byte	0x30
 12472 039a 9F       		.byte	0x9f
 12473 039b 2A010000 		.4byte	.LVL278
 12474 039f 92010000 		.4byte	.LVL288
 12475 03a3 0200     		.2byte	0x2
 12476 03a5 30       		.byte	0x30
 12477 03a6 9F       		.byte	0x9f
 12478 03a7 E6010000 		.4byte	.LVL297
 12479 03ab F6010000 		.4byte	.LVL301
 12480 03af 0200     		.2byte	0x2
 12481 03b1 30       		.byte	0x30
 12482 03b2 9F       		.byte	0x9f
 12483 03b3 00000000 		.4byte	0
 12484 03b7 00000000 		.4byte	0
 12485              	.LLST96:
 12486 03bb 00000000 		.4byte	.LVL249
 12487 03bf EA000000 		.4byte	.LVL272
 12488 03c3 0200     		.2byte	0x2
 12489 03c5 30       		.byte	0x30
 12490 03c6 9F       		.byte	0x9f
 12491 03c7 EA000000 		.4byte	.LVL272
 12492 03cb 06010000 		.4byte	.LVL273
 12493 03cf 0300     		.2byte	0x3
 12494 03d1 91       		.byte	0x91
 12495 03d2 B87F     		.sleb128 -72
 12496 03d4 14010000 		.4byte	.LVL275
 12497 03d8 20010000 		.4byte	.LVL277
 12498 03dc 0200     		.2byte	0x2
 12499 03de 31       		.byte	0x31
 12500 03df 9F       		.byte	0x9f
 12501 03e0 2A010000 		.4byte	.LVL278
 12502 03e4 92010000 		.4byte	.LVL288
 12503 03e8 0200     		.2byte	0x2
 12504 03ea 30       		.byte	0x30
 12505 03eb 9F       		.byte	0x9f
ARM GAS  C:\Users\EBANO_~1\AppData\Local\Temp\ccLo4wHn.s 			page 248


 12506 03ec 92010000 		.4byte	.LVL288
 12507 03f0 E6010000 		.4byte	.LVL297
 12508 03f4 0300     		.2byte	0x3
 12509 03f6 91       		.byte	0x91
 12510 03f7 B87F     		.sleb128 -72
 12511 03f9 E6010000 		.4byte	.LVL297
 12512 03fd F6010000 		.4byte	.LVL301
 12513 0401 0200     		.2byte	0x2
 12514 0403 30       		.byte	0x30
 12515 0404 9F       		.byte	0x9f
 12516 0405 F6010000 		.4byte	.LVL301
 12517 0409 08020000 		.4byte	.LFE62
 12518 040d 0300     		.2byte	0x3
 12519 040f 91       		.byte	0x91
 12520 0410 B87F     		.sleb128 -72
 12521 0412 00000000 		.4byte	0
 12522 0416 00000000 		.4byte	0
 12523              	.LLST97:
 12524 041a 20000000 		.4byte	.LVL253
 12525 041e 62000000 		.4byte	.LVL257
 12526 0422 0200     		.2byte	0x2
 12527 0424 30       		.byte	0x30
 12528 0425 9F       		.byte	0x9f
 12529 0426 62000000 		.4byte	.LVL257
 12530 042a 82000000 		.4byte	.LVL263
 12531 042e 0100     		.2byte	0x1
 12532 0430 50       		.byte	0x50
 12533 0431 82000000 		.4byte	.LVL263
 12534 0435 14010000 		.4byte	.LVL275
 12535 0439 0300     		.2byte	0x3
 12536 043b 91       		.byte	0x91
 12537 043c BC7F     		.sleb128 -68
 12538 043e 14010000 		.4byte	.LVL275
 12539 0442 20010000 		.4byte	.LVL277
 12540 0446 0200     		.2byte	0x2
 12541 0448 30       		.byte	0x30
 12542 0449 9F       		.byte	0x9f
 12543 044a 20010000 		.4byte	.LVL277
 12544 044e 2A010000 		.4byte	.LVL278
 12545 0452 0300     		.2byte	0x3
 12546 0454 91       		.byte	0x91
 12547 0455 BC7F     		.sleb128 -68
 12548 0457 2A010000 		.4byte	.LVL278
 12549 045b 42010000 		.4byte	.LVL281
 12550 045f 0100     		.2byte	0x1
 12551 0461 50       		.byte	0x50
 12552 0462 42010000 		.4byte	.LVL281
 12553 0466 08020000 		.4byte	.LFE62
 12554 046a 0300     		.2byte	0x3
 12555 046c 91       		.byte	0x91
 12556 046d BC7F     		.sleb128 -68
 12557 046f 00000000 		.4byte	0
 12558 0473 00000000 		.4byte	0
 12559              	.LLST110:
 12560 0477 92010000 		.4byte	.LVL288
 12561 047b AA010000 		.4byte	.LVL291
 12562 047f 0200     		.2byte	0x2
ARM GAS  C:\Users\EBANO_~1\AppData\Local\Temp\ccLo4wHn.s 			page 249


 12563 0481 30       		.byte	0x30
 12564 0482 9F       		.byte	0x9f
 12565 0483 00000000 		.4byte	0
 12566 0487 00000000 		.4byte	0
 12567              	.LLST111:
 12568 048b A2010000 		.4byte	.LVL290
 12569 048f E6010000 		.4byte	.LVL297
 12570 0493 0100     		.2byte	0x1
 12571 0495 54       		.byte	0x54
 12572 0496 F6010000 		.4byte	.LVL301
 12573 049a 08020000 		.4byte	.LFE62
 12574 049e 0100     		.2byte	0x1
 12575 04a0 54       		.byte	0x54
 12576 04a1 00000000 		.4byte	0
 12577 04a5 00000000 		.4byte	0
 12578              	.LLST98:
 12579 04a9 68000000 		.4byte	.LVL258
 12580 04ad EA000000 		.4byte	.LVL272
 12581 04b1 0600     		.2byte	0x6
 12582 04b3 03       		.byte	0x3
 12583 04b4 D0000000 		.4byte	NvmCtx+208
 12584 04b8 9F       		.byte	0x9f
 12585 04b9 2A010000 		.4byte	.LVL278
 12586 04bd 92010000 		.4byte	.LVL288
 12587 04c1 0600     		.2byte	0x6
 12588 04c3 03       		.byte	0x3
 12589 04c4 D0000000 		.4byte	NvmCtx+208
 12590 04c8 9F       		.byte	0x9f
 12591 04c9 E6010000 		.4byte	.LVL297
 12592 04cd F6010000 		.4byte	.LVL301
 12593 04d1 0600     		.2byte	0x6
 12594 04d3 03       		.byte	0x3
 12595 04d4 D0000000 		.4byte	NvmCtx+208
 12596 04d8 9F       		.byte	0x9f
 12597 04d9 00000000 		.4byte	0
 12598 04dd 00000000 		.4byte	0
 12599              	.LLST99:
 12600 04e1 68000000 		.4byte	.LVL258
 12601 04e5 EA000000 		.4byte	.LVL272
 12602 04e9 0600     		.2byte	0x6
 12603 04eb 03       		.byte	0x3
 12604 04ec 00000000 		.4byte	NvmCtx
 12605 04f0 9F       		.byte	0x9f
 12606 04f1 2A010000 		.4byte	.LVL278
 12607 04f5 92010000 		.4byte	.LVL288
 12608 04f9 0600     		.2byte	0x6
 12609 04fb 03       		.byte	0x3
 12610 04fc 00000000 		.4byte	NvmCtx
 12611 0500 9F       		.byte	0x9f
 12612 0501 E6010000 		.4byte	.LVL297
 12613 0505 F6010000 		.4byte	.LVL301
 12614 0509 0600     		.2byte	0x6
 12615 050b 03       		.byte	0x3
 12616 050c 00000000 		.4byte	NvmCtx
 12617 0510 9F       		.byte	0x9f
 12618 0511 00000000 		.4byte	0
 12619 0515 00000000 		.4byte	0
ARM GAS  C:\Users\EBANO_~1\AppData\Local\Temp\ccLo4wHn.s 			page 250


 12620              	.LLST100:
 12621 0519 68000000 		.4byte	.LVL258
 12622 051d 7E000000 		.4byte	.LVL262
 12623 0521 0100     		.2byte	0x1
 12624 0523 58       		.byte	0x58
 12625 0524 7E000000 		.4byte	.LVL262
 12626 0528 EA000000 		.4byte	.LVL272
 12627 052c 0600     		.2byte	0x6
 12628 052e 03       		.byte	0x3
 12629 052f C0000000 		.4byte	NvmCtx+192
 12630 0533 9F       		.byte	0x9f
 12631 0534 2A010000 		.4byte	.LVL278
 12632 0538 3C010000 		.4byte	.LVL280
 12633 053c 0100     		.2byte	0x1
 12634 053e 58       		.byte	0x58
 12635 053f 3C010000 		.4byte	.LVL280
 12636 0543 42010000 		.4byte	.LVL281
 12637 0547 0100     		.2byte	0x1
 12638 0549 53       		.byte	0x53
 12639 054a 42010000 		.4byte	.LVL281
 12640 054e 92010000 		.4byte	.LVL288
 12641 0552 0200     		.2byte	0x2
 12642 0554 91       		.byte	0x91
 12643 0555 44       		.sleb128 -60
 12644 0556 E6010000 		.4byte	.LVL297
 12645 055a F6010000 		.4byte	.LVL301
 12646 055e 0200     		.2byte	0x2
 12647 0560 91       		.byte	0x91
 12648 0561 44       		.sleb128 -60
 12649 0562 00000000 		.4byte	0
 12650 0566 00000000 		.4byte	0
 12651              	.LLST101:
 12652 056a 68000000 		.4byte	.LVL258
 12653 056e EA000000 		.4byte	.LVL272
 12654 0572 0600     		.2byte	0x6
 12655 0574 F2       		.byte	0xf2
 12656 0575 A9210000 		.4byte	.Ldebug_info0+8617
 12657 0579 00       		.sleb128 0
 12658 057a 2A010000 		.4byte	.LVL278
 12659 057e 92010000 		.4byte	.LVL288
 12660 0582 0600     		.2byte	0x6
 12661 0584 F2       		.byte	0xf2
 12662 0585 A9210000 		.4byte	.Ldebug_info0+8617
 12663 0589 00       		.sleb128 0
 12664 058a E6010000 		.4byte	.LVL297
 12665 058e F6010000 		.4byte	.LVL301
 12666 0592 0600     		.2byte	0x6
 12667 0594 F2       		.byte	0xf2
 12668 0595 A9210000 		.4byte	.Ldebug_info0+8617
 12669 0599 00       		.sleb128 0
 12670 059a 00000000 		.4byte	0
 12671 059e 00000000 		.4byte	0
 12672              	.LLST102:
 12673 05a2 68000000 		.4byte	.LVL258
 12674 05a6 8E000000 		.4byte	.LVL265
 12675 05aa 0300     		.2byte	0x3
 12676 05ac 91       		.byte	0x91
ARM GAS  C:\Users\EBANO_~1\AppData\Local\Temp\ccLo4wHn.s 			page 251


 12677 05ad 48       		.sleb128 -56
 12678 05ae 9F       		.byte	0x9f
 12679 05af 8E000000 		.4byte	.LVL265
 12680 05b3 90000000 		.4byte	.LVL266
 12681 05b7 0100     		.2byte	0x1
 12682 05b9 52       		.byte	0x52
 12683 05ba 90000000 		.4byte	.LVL266
 12684 05be EA000000 		.4byte	.LVL272
 12685 05c2 0300     		.2byte	0x3
 12686 05c4 91       		.byte	0x91
 12687 05c5 48       		.sleb128 -56
 12688 05c6 9F       		.byte	0x9f
 12689 05c7 2A010000 		.4byte	.LVL278
 12690 05cb 8A010000 		.4byte	.LVL287
 12691 05cf 0300     		.2byte	0x3
 12692 05d1 91       		.byte	0x91
 12693 05d2 48       		.sleb128 -56
 12694 05d3 9F       		.byte	0x9f
 12695 05d4 8A010000 		.4byte	.LVL287
 12696 05d8 92010000 		.4byte	.LVL288
 12697 05dc 0100     		.2byte	0x1
 12698 05de 52       		.byte	0x52
 12699 05df E6010000 		.4byte	.LVL297
 12700 05e3 F6010000 		.4byte	.LVL301
 12701 05e7 0300     		.2byte	0x3
 12702 05e9 91       		.byte	0x91
 12703 05ea 48       		.sleb128 -56
 12704 05eb 9F       		.byte	0x9f
 12705 05ec 00000000 		.4byte	0
 12706 05f0 00000000 		.4byte	0
 12707              	.LLST103:
 12708 05f4 68000000 		.4byte	.LVL258
 12709 05f8 EA000000 		.4byte	.LVL272
 12710 05fc 0300     		.2byte	0x3
 12711 05fe 91       		.byte	0x91
 12712 05ff B47F     		.sleb128 -76
 12713 0601 2A010000 		.4byte	.LVL278
 12714 0605 92010000 		.4byte	.LVL288
 12715 0609 0300     		.2byte	0x3
 12716 060b 91       		.byte	0x91
 12717 060c B47F     		.sleb128 -76
 12718 060e E6010000 		.4byte	.LVL297
 12719 0612 F6010000 		.4byte	.LVL301
 12720 0616 0300     		.2byte	0x3
 12721 0618 91       		.byte	0x91
 12722 0619 B47F     		.sleb128 -76
 12723 061b 00000000 		.4byte	0
 12724 061f 00000000 		.4byte	0
 12725              	.LLST104:
 12726 0623 68000000 		.4byte	.LVL258
 12727 0627 6C000000 		.4byte	.LVL259
 12728 062b 0200     		.2byte	0x2
 12729 062d 74       		.byte	0x74
 12730 062e 09       		.sleb128 9
 12731 062f 6C000000 		.4byte	.LVL259
 12732 0633 76000000 		.4byte	.LVL260
 12733 0637 0100     		.2byte	0x1
ARM GAS  C:\Users\EBANO_~1\AppData\Local\Temp\ccLo4wHn.s 			page 252


 12734 0639 53       		.byte	0x53
 12735 063a 76000000 		.4byte	.LVL260
 12736 063e 82000000 		.4byte	.LVL263
 12737 0642 0300     		.2byte	0x3
 12738 0644 91       		.byte	0x91
 12739 0645 B87F     		.sleb128 -72
 12740 0647 82000000 		.4byte	.LVL263
 12741 064b EA000000 		.4byte	.LVL272
 12742 064f 0400     		.2byte	0x4
 12743 0651 7A       		.byte	0x7a
 12744 0652 B07E     		.sleb128 -208
 12745 0654 9F       		.byte	0x9f
 12746 0655 2A010000 		.4byte	.LVL278
 12747 0659 2C010000 		.4byte	.LVL279
 12748 065d 0100     		.2byte	0x1
 12749 065f 53       		.byte	0x53
 12750 0660 2C010000 		.4byte	.LVL279
 12751 0664 42010000 		.4byte	.LVL281
 12752 0668 0500     		.2byte	0x5
 12753 066a F3       		.byte	0xf3
 12754 066b 01       		.uleb128 0x1
 12755 066c 50       		.byte	0x50
 12756 066d 23       		.byte	0x23
 12757 066e 09       		.uleb128 0x9
 12758 066f 00000000 		.4byte	0
 12759 0673 00000000 		.4byte	0
 12760              	.LLST105:
 12761 0677 68000000 		.4byte	.LVL258
 12762 067b 82000000 		.4byte	.LVL263
 12763 067f 0200     		.2byte	0x2
 12764 0681 30       		.byte	0x30
 12765 0682 9F       		.byte	0x9f
 12766 0683 82000000 		.4byte	.LVL263
 12767 0687 86000000 		.4byte	.LVL264
 12768 068b 0100     		.2byte	0x1
 12769 068d 59       		.byte	0x59
 12770 068e 86000000 		.4byte	.LVL264
 12771 0692 90000000 		.4byte	.LVL266
 12772 0696 0100     		.2byte	0x1
 12773 0698 53       		.byte	0x53
 12774 0699 90000000 		.4byte	.LVL266
 12775 069d 98000000 		.4byte	.LVL268
 12776 06a1 0100     		.2byte	0x1
 12777 06a3 59       		.byte	0x59
 12778 06a4 A2000000 		.4byte	.LVL269
 12779 06a8 EA000000 		.4byte	.LVL272
 12780 06ac 0100     		.2byte	0x1
 12781 06ae 59       		.byte	0x59
 12782 06af 2A010000 		.4byte	.LVL278
 12783 06b3 42010000 		.4byte	.LVL281
 12784 06b7 0200     		.2byte	0x2
 12785 06b9 30       		.byte	0x30
 12786 06ba 9F       		.byte	0x9f
 12787 06bb 42010000 		.4byte	.LVL281
 12788 06bf 4A010000 		.4byte	.LVL283
 12789 06c3 0100     		.2byte	0x1
 12790 06c5 58       		.byte	0x58
ARM GAS  C:\Users\EBANO_~1\AppData\Local\Temp\ccLo4wHn.s 			page 253


 12791 06c6 54010000 		.4byte	.LVL284
 12792 06ca 88010000 		.4byte	.LVL286
 12793 06ce 0100     		.2byte	0x1
 12794 06d0 58       		.byte	0x58
 12795 06d1 88010000 		.4byte	.LVL286
 12796 06d5 92010000 		.4byte	.LVL288
 12797 06d9 0100     		.2byte	0x1
 12798 06db 53       		.byte	0x53
 12799 06dc E6010000 		.4byte	.LVL297
 12800 06e0 F6010000 		.4byte	.LVL301
 12801 06e4 0100     		.2byte	0x1
 12802 06e6 58       		.byte	0x58
 12803 06e7 00000000 		.4byte	0
 12804 06eb 00000000 		.4byte	0
 12805              	.LLST106:
 12806 06ef 68000000 		.4byte	.LVL258
 12807 06f3 82000000 		.4byte	.LVL263
 12808 06f7 0200     		.2byte	0x2
 12809 06f9 30       		.byte	0x30
 12810 06fa 9F       		.byte	0x9f
 12811 06fb 82000000 		.4byte	.LVL263
 12812 06ff 98000000 		.4byte	.LVL268
 12813 0703 0300     		.2byte	0x3
 12814 0705 91       		.byte	0x91
 12815 0706 B87F     		.sleb128 -72
 12816 0708 A2000000 		.4byte	.LVL269
 12817 070c EA000000 		.4byte	.LVL272
 12818 0710 0300     		.2byte	0x3
 12819 0712 91       		.byte	0x91
 12820 0713 B87F     		.sleb128 -72
 12821 0715 2A010000 		.4byte	.LVL278
 12822 0719 42010000 		.4byte	.LVL281
 12823 071d 0200     		.2byte	0x2
 12824 071f 30       		.byte	0x30
 12825 0720 9F       		.byte	0x9f
 12826 0721 42010000 		.4byte	.LVL281
 12827 0725 4A010000 		.4byte	.LVL283
 12828 0729 0300     		.2byte	0x3
 12829 072b 91       		.byte	0x91
 12830 072c B87F     		.sleb128 -72
 12831 072e 54010000 		.4byte	.LVL284
 12832 0732 92010000 		.4byte	.LVL288
 12833 0736 0300     		.2byte	0x3
 12834 0738 91       		.byte	0x91
 12835 0739 B87F     		.sleb128 -72
 12836 073b E6010000 		.4byte	.LVL297
 12837 073f F6010000 		.4byte	.LVL301
 12838 0743 0300     		.2byte	0x3
 12839 0745 91       		.byte	0x91
 12840 0746 B87F     		.sleb128 -72
 12841 0748 00000000 		.4byte	0
 12842 074c 00000000 		.4byte	0
 12843              	.LLST107:
 12844 0750 68000000 		.4byte	.LVL258
 12845 0754 EA000000 		.4byte	.LVL272
 12846 0758 0200     		.2byte	0x2
 12847 075a 30       		.byte	0x30
ARM GAS  C:\Users\EBANO_~1\AppData\Local\Temp\ccLo4wHn.s 			page 254


 12848 075b 9F       		.byte	0x9f
 12849 075c 2A010000 		.4byte	.LVL278
 12850 0760 92010000 		.4byte	.LVL288
 12851 0764 0200     		.2byte	0x2
 12852 0766 30       		.byte	0x30
 12853 0767 9F       		.byte	0x9f
 12854 0768 E6010000 		.4byte	.LVL297
 12855 076c F6010000 		.4byte	.LVL301
 12856 0770 0200     		.2byte	0x2
 12857 0772 30       		.byte	0x30
 12858 0773 9F       		.byte	0x9f
 12859 0774 00000000 		.4byte	0
 12860 0778 00000000 		.4byte	0
 12861              	.LLST109:
 12862 077c 68000000 		.4byte	.LVL258
 12863 0780 82000000 		.4byte	.LVL263
 12864 0784 0200     		.2byte	0x2
 12865 0786 30       		.byte	0x30
 12866 0787 9F       		.byte	0x9f
 12867 0788 82000000 		.4byte	.LVL263
 12868 078c 90000000 		.4byte	.LVL266
 12869 0790 0100     		.2byte	0x1
 12870 0792 57       		.byte	0x57
 12871 0793 90000000 		.4byte	.LVL266
 12872 0797 92000000 		.4byte	.LVL267
 12873 079b 0300     		.2byte	0x3
 12874 079d 74       		.byte	0x74
 12875 079e 01       		.sleb128 1
 12876 079f 9F       		.byte	0x9f
 12877 07a0 92000000 		.4byte	.LVL267
 12878 07a4 98000000 		.4byte	.LVL268
 12879 07a8 0300     		.2byte	0x3
 12880 07aa 77       		.byte	0x77
 12881 07ab 01       		.sleb128 1
 12882 07ac 9F       		.byte	0x9f
 12883 07ad A2000000 		.4byte	.LVL269
 12884 07b1 E2000000 		.4byte	.LVL271
 12885 07b5 0100     		.2byte	0x1
 12886 07b7 57       		.byte	0x57
 12887 07b8 2A010000 		.4byte	.LVL278
 12888 07bc 42010000 		.4byte	.LVL281
 12889 07c0 0200     		.2byte	0x2
 12890 07c2 30       		.byte	0x30
 12891 07c3 9F       		.byte	0x9f
 12892 07c4 42010000 		.4byte	.LVL281
 12893 07c8 44010000 		.4byte	.LVL282
 12894 07cc 0300     		.2byte	0x3
 12895 07ce 74       		.byte	0x74
 12896 07cf 01       		.sleb128 1
 12897 07d0 9F       		.byte	0x9f
 12898 07d1 44010000 		.4byte	.LVL282
 12899 07d5 4A010000 		.4byte	.LVL283
 12900 07d9 0300     		.2byte	0x3
 12901 07db 76       		.byte	0x76
 12902 07dc 01       		.sleb128 1
 12903 07dd 9F       		.byte	0x9f
 12904 07de 54010000 		.4byte	.LVL284
ARM GAS  C:\Users\EBANO_~1\AppData\Local\Temp\ccLo4wHn.s 			page 255


 12905 07e2 92010000 		.4byte	.LVL288
 12906 07e6 0100     		.2byte	0x1
 12907 07e8 56       		.byte	0x56
 12908 07e9 E6010000 		.4byte	.LVL297
 12909 07ed F0010000 		.4byte	.LVL299
 12910 07f1 0100     		.2byte	0x1
 12911 07f3 56       		.byte	0x56
 12912 07f4 F0010000 		.4byte	.LVL299
 12913 07f8 F2010000 		.4byte	.LVL300
 12914 07fc 0300     		.2byte	0x3
 12915 07fe 76       		.byte	0x76
 12916 07ff 01       		.sleb128 1
 12917 0800 9F       		.byte	0x9f
 12918 0801 00000000 		.4byte	0
 12919 0805 00000000 		.4byte	0
 12920              	.LLST87:
 12921 0809 00000000 		.4byte	.LFB61
 12922 080d 02000000 		.4byte	.LCFI29
 12923 0811 0200     		.2byte	0x2
 12924 0813 7D       		.byte	0x7d
 12925 0814 00       		.sleb128 0
 12926 0815 02000000 		.4byte	.LCFI29
 12927 0819 06000000 		.4byte	.LCFI30
 12928 081d 0200     		.2byte	0x2
 12929 081f 7D       		.byte	0x7d
 12930 0820 04       		.sleb128 4
 12931 0821 06000000 		.4byte	.LCFI30
 12932 0825 34000000 		.4byte	.LFE61
 12933 0829 0200     		.2byte	0x2
 12934 082b 7D       		.byte	0x7d
 12935 082c 20       		.sleb128 32
 12936 082d 00000000 		.4byte	0
 12937 0831 00000000 		.4byte	0
 12938              	.LLST88:
 12939 0835 00000000 		.4byte	.LVL246
 12940 0839 26000000 		.4byte	.LVL247
 12941 083d 0100     		.2byte	0x1
 12942 083f 50       		.byte	0x50
 12943 0840 26000000 		.4byte	.LVL247
 12944 0844 34000000 		.4byte	.LFE61
 12945 0848 0400     		.2byte	0x4
 12946 084a F3       		.byte	0xf3
 12947 084b 01       		.uleb128 0x1
 12948 084c 50       		.byte	0x50
 12949 084d 9F       		.byte	0x9f
 12950 084e 00000000 		.4byte	0
 12951 0852 00000000 		.4byte	0
 12952              	.LLST80:
 12953 0856 00000000 		.4byte	.LFB59
 12954 085a 02000000 		.4byte	.LCFI27
 12955 085e 0200     		.2byte	0x2
 12956 0860 7D       		.byte	0x7d
 12957 0861 00       		.sleb128 0
 12958 0862 02000000 		.4byte	.LCFI27
 12959 0866 0A000000 		.4byte	.LCFI28
 12960 086a 0200     		.2byte	0x2
 12961 086c 7D       		.byte	0x7d
ARM GAS  C:\Users\EBANO_~1\AppData\Local\Temp\ccLo4wHn.s 			page 256


 12962 086d 14       		.sleb128 20
 12963 086e 0A000000 		.4byte	.LCFI28
 12964 0872 74000000 		.4byte	.LFE59
 12965 0876 0200     		.2byte	0x2
 12966 0878 7D       		.byte	0x7d
 12967 0879 20       		.sleb128 32
 12968 087a 00000000 		.4byte	0
 12969 087e 00000000 		.4byte	0
 12970              	.LLST81:
 12971 0882 00000000 		.4byte	.LVL232
 12972 0886 0E000000 		.4byte	.LVL234
 12973 088a 0100     		.2byte	0x1
 12974 088c 50       		.byte	0x50
 12975 088d 0E000000 		.4byte	.LVL234
 12976 0891 36000000 		.4byte	.LVL240
 12977 0895 0100     		.2byte	0x1
 12978 0897 56       		.byte	0x56
 12979 0898 36000000 		.4byte	.LVL240
 12980 089c 38000000 		.4byte	.LVL241
 12981 08a0 0400     		.2byte	0x4
 12982 08a2 F3       		.byte	0xf3
 12983 08a3 01       		.uleb128 0x1
 12984 08a4 50       		.byte	0x50
 12985 08a5 9F       		.byte	0x9f
 12986 08a6 38000000 		.4byte	.LVL241
 12987 08aa 74000000 		.4byte	.LFE59
 12988 08ae 0100     		.2byte	0x1
 12989 08b0 56       		.byte	0x56
 12990 08b1 00000000 		.4byte	0
 12991 08b5 00000000 		.4byte	0
 12992              	.LLST82:
 12993 08b9 00000000 		.4byte	.LVL232
 12994 08bd 2C000000 		.4byte	.LVL238
 12995 08c1 0200     		.2byte	0x2
 12996 08c3 33       		.byte	0x33
 12997 08c4 9F       		.byte	0x9f
 12998 08c5 2C000000 		.4byte	.LVL238
 12999 08c9 34000000 		.4byte	.LVL239
 13000 08cd 0200     		.2byte	0x2
 13001 08cf 32       		.byte	0x32
 13002 08d0 9F       		.byte	0x9f
 13003 08d1 38000000 		.4byte	.LVL241
 13004 08d5 74000000 		.4byte	.LFE59
 13005 08d9 0200     		.2byte	0x2
 13006 08db 33       		.byte	0x33
 13007 08dc 9F       		.byte	0x9f
 13008 08dd 00000000 		.4byte	0
 13009 08e1 00000000 		.4byte	0
 13010              	.LLST83:
 13011 08e5 06000000 		.4byte	.LVL233
 13012 08e9 28000000 		.4byte	.LVL237
 13013 08ed 0100     		.2byte	0x1
 13014 08ef 54       		.byte	0x54
 13015 08f0 28000000 		.4byte	.LVL237
 13016 08f4 2C000000 		.4byte	.LVL238
 13017 08f8 0700     		.2byte	0x7
 13018 08fa 70       		.byte	0x70
ARM GAS  C:\Users\EBANO_~1\AppData\Local\Temp\ccLo4wHn.s 			page 257


 13019 08fb A0A38FB7 		.sleb128 920900000
 13019      03
 13020 0900 9F       		.byte	0x9f
 13021 0901 38000000 		.4byte	.LVL241
 13022 0905 3D000000 		.4byte	.LVL242-1
 13023 0909 0700     		.2byte	0x7
 13024 090b 70       		.byte	0x70
 13025 090c A0A38FB7 		.sleb128 920900000
 13025      03
 13026 0911 9F       		.byte	0x9f
 13027 0912 52000000 		.4byte	.LVL243
 13028 0916 5E000000 		.4byte	.LVL244
 13029 091a 0100     		.2byte	0x1
 13030 091c 54       		.byte	0x54
 13031 091d 00000000 		.4byte	0
 13032 0921 00000000 		.4byte	0
 13033              	.LLST85:
 13034 0925 16000000 		.4byte	.LVL236
 13035 0929 28000000 		.4byte	.LVL237
 13036 092d 0100     		.2byte	0x1
 13037 092f 54       		.byte	0x54
 13038 0930 28000000 		.4byte	.LVL237
 13039 0934 2C000000 		.4byte	.LVL238
 13040 0938 0700     		.2byte	0x7
 13041 093a 70       		.byte	0x70
 13042 093b A0A38FB7 		.sleb128 920900000
 13042      03
 13043 0940 9F       		.byte	0x9f
 13044 0941 38000000 		.4byte	.LVL241
 13045 0945 3D000000 		.4byte	.LVL242-1
 13046 0949 0700     		.2byte	0x7
 13047 094b 70       		.byte	0x70
 13048 094c A0A38FB7 		.sleb128 920900000
 13048      03
 13049 0951 9F       		.byte	0x9f
 13050 0952 00000000 		.4byte	0
 13051 0956 00000000 		.4byte	0
 13052              	.LLST86:
 13053 095a 38000000 		.4byte	.LVL241
 13054 095e 3D000000 		.4byte	.LVL242-1
 13055 0962 0100     		.2byte	0x1
 13056 0964 50       		.byte	0x50
 13057 0965 00000000 		.4byte	0
 13058 0969 00000000 		.4byte	0
 13059              	.LLST79:
 13060 096d 00000000 		.4byte	.LVL230
 13061 0971 02000000 		.4byte	.LVL231
 13062 0975 0100     		.2byte	0x1
 13063 0977 50       		.byte	0x50
 13064 0978 02000000 		.4byte	.LVL231
 13065 097c 06000000 		.4byte	.LFE58
 13066 0980 0400     		.2byte	0x4
 13067 0982 F3       		.byte	0xf3
 13068 0983 01       		.uleb128 0x1
 13069 0984 50       		.byte	0x50
 13070 0985 9F       		.byte	0x9f
 13071 0986 00000000 		.4byte	0
ARM GAS  C:\Users\EBANO_~1\AppData\Local\Temp\ccLo4wHn.s 			page 258


 13072 098a 00000000 		.4byte	0
 13073              	.LLST68:
 13074 098e 00000000 		.4byte	.LFB57
 13075 0992 02000000 		.4byte	.LCFI24
 13076 0996 0200     		.2byte	0x2
 13077 0998 7D       		.byte	0x7d
 13078 0999 00       		.sleb128 0
 13079 099a 02000000 		.4byte	.LCFI24
 13080 099e 06000000 		.4byte	.LCFI25
 13081 09a2 0200     		.2byte	0x2
 13082 09a4 7D       		.byte	0x7d
 13083 09a5 14       		.sleb128 20
 13084 09a6 06000000 		.4byte	.LCFI25
 13085 09aa 0A000000 		.4byte	.LCFI26
 13086 09ae 0200     		.2byte	0x2
 13087 09b0 7D       		.byte	0x7d
 13088 09b1 18       		.sleb128 24
 13089 09b2 0A000000 		.4byte	.LCFI26
 13090 09b6 1C010000 		.4byte	.LFE57
 13091 09ba 0200     		.2byte	0x2
 13092 09bc 7D       		.byte	0x7d
 13093 09bd 20       		.sleb128 32
 13094 09be 00000000 		.4byte	0
 13095 09c2 00000000 		.4byte	0
 13096              	.LLST69:
 13097 09c6 00000000 		.4byte	.LVL198
 13098 09ca 16000000 		.4byte	.LVL200
 13099 09ce 0100     		.2byte	0x1
 13100 09d0 50       		.byte	0x50
 13101 09d1 16000000 		.4byte	.LVL200
 13102 09d5 20000000 		.4byte	.LVL202
 13103 09d9 0400     		.2byte	0x4
 13104 09db F3       		.byte	0xf3
 13105 09dc 01       		.uleb128 0x1
 13106 09dd 50       		.byte	0x50
 13107 09de 9F       		.byte	0x9f
 13108 09df 20000000 		.4byte	.LVL202
 13109 09e3 28000000 		.4byte	.LVL203
 13110 09e7 0100     		.2byte	0x1
 13111 09e9 50       		.byte	0x50
 13112 09ea 28000000 		.4byte	.LVL203
 13113 09ee 78000000 		.4byte	.LVL213
 13114 09f2 0400     		.2byte	0x4
 13115 09f4 F3       		.byte	0xf3
 13116 09f5 01       		.uleb128 0x1
 13117 09f6 50       		.byte	0x50
 13118 09f7 9F       		.byte	0x9f
 13119 09f8 78000000 		.4byte	.LVL213
 13120 09fc 7A000000 		.4byte	.LVL214
 13121 0a00 0100     		.2byte	0x1
 13122 0a02 50       		.byte	0x50
 13123 0a03 7A000000 		.4byte	.LVL214
 13124 0a07 1C010000 		.4byte	.LFE57
 13125 0a0b 0400     		.2byte	0x4
 13126 0a0d F3       		.byte	0xf3
 13127 0a0e 01       		.uleb128 0x1
 13128 0a0f 50       		.byte	0x50
ARM GAS  C:\Users\EBANO_~1\AppData\Local\Temp\ccLo4wHn.s 			page 259


 13129 0a10 9F       		.byte	0x9f
 13130 0a11 00000000 		.4byte	0
 13131 0a15 00000000 		.4byte	0
 13132              	.LLST70:
 13133 0a19 00000000 		.4byte	.LVL198
 13134 0a1d 18000000 		.4byte	.LVL201
 13135 0a21 0200     		.2byte	0x2
 13136 0a23 33       		.byte	0x33
 13137 0a24 9F       		.byte	0x9f
 13138 0a25 20000000 		.4byte	.LVL202
 13139 0a29 76000000 		.4byte	.LVL212
 13140 0a2d 0200     		.2byte	0x2
 13141 0a2f 33       		.byte	0x33
 13142 0a30 9F       		.byte	0x9f
 13143 0a31 76000000 		.4byte	.LVL212
 13144 0a35 78000000 		.4byte	.LVL213
 13145 0a39 0200     		.2byte	0x2
 13146 0a3b 32       		.byte	0x32
 13147 0a3c 9F       		.byte	0x9f
 13148 0a3d 78000000 		.4byte	.LVL213
 13149 0a41 1C010000 		.4byte	.LFE57
 13150 0a45 0200     		.2byte	0x2
 13151 0a47 33       		.byte	0x33
 13152 0a48 9F       		.byte	0x9f
 13153 0a49 00000000 		.4byte	0
 13154 0a4d 00000000 		.4byte	0
 13155              	.LLST71:
 13156 0a51 12000000 		.4byte	.LVL199
 13157 0a55 16000000 		.4byte	.LVL200
 13158 0a59 0600     		.2byte	0x6
 13159 0a5b F2       		.byte	0xf2
 13160 0a5c 27250000 		.4byte	.Ldebug_info0+9511
 13161 0a60 00       		.sleb128 0
 13162 0a61 78000000 		.4byte	.LVL213
 13163 0a65 98000000 		.4byte	.LVL217
 13164 0a69 0600     		.2byte	0x6
 13165 0a6b F2       		.byte	0xf2
 13166 0a6c 27250000 		.4byte	.Ldebug_info0+9511
 13167 0a70 00       		.sleb128 0
 13168 0a71 00000000 		.4byte	0
 13169 0a75 00000000 		.4byte	0
 13170              	.LLST72:
 13171 0a79 12000000 		.4byte	.LVL199
 13172 0a7d 16000000 		.4byte	.LVL200
 13173 0a81 0200     		.2byte	0x2
 13174 0a83 70       		.byte	0x70
 13175 0a84 04       		.sleb128 4
 13176 0a85 78000000 		.4byte	.LVL213
 13177 0a89 7A000000 		.4byte	.LVL214
 13178 0a8d 0200     		.2byte	0x2
 13179 0a8f 70       		.byte	0x70
 13180 0a90 04       		.sleb128 4
 13181 0a91 7A000000 		.4byte	.LVL214
 13182 0a95 89000000 		.4byte	.LVL215-1
 13183 0a99 0500     		.2byte	0x5
 13184 0a9b F3       		.byte	0xf3
 13185 0a9c 01       		.uleb128 0x1
ARM GAS  C:\Users\EBANO_~1\AppData\Local\Temp\ccLo4wHn.s 			page 260


 13186 0a9d 50       		.byte	0x50
 13187 0a9e 23       		.byte	0x23
 13188 0a9f 04       		.uleb128 0x4
 13189 0aa0 00000000 		.4byte	0
 13190 0aa4 00000000 		.4byte	0
 13191              	.LLST73:
 13192 0aa8 20000000 		.4byte	.LVL202
 13193 0aac 78000000 		.4byte	.LVL213
 13194 0ab0 0600     		.2byte	0x6
 13195 0ab2 F2       		.byte	0xf2
 13196 0ab3 1B250000 		.4byte	.Ldebug_info0+9499
 13197 0ab7 00       		.sleb128 0
 13198 0ab8 A0000000 		.4byte	.LVL218
 13199 0abc 02010000 		.4byte	.LVL228
 13200 0ac0 0600     		.2byte	0x6
 13201 0ac2 F2       		.byte	0xf2
 13202 0ac3 1B250000 		.4byte	.Ldebug_info0+9499
 13203 0ac7 00       		.sleb128 0
 13204 0ac8 04010000 		.4byte	.LVL229
 13205 0acc 1C010000 		.4byte	.LFE57
 13206 0ad0 0600     		.2byte	0x6
 13207 0ad2 F2       		.byte	0xf2
 13208 0ad3 1B250000 		.4byte	.Ldebug_info0+9499
 13209 0ad7 00       		.sleb128 0
 13210 0ad8 00000000 		.4byte	0
 13211 0adc 00000000 		.4byte	0
 13212              	.LLST74:
 13213 0ae0 20000000 		.4byte	.LVL202
 13214 0ae4 36000000 		.4byte	.LVL205
 13215 0ae8 0200     		.2byte	0x2
 13216 0aea 30       		.byte	0x30
 13217 0aeb 9F       		.byte	0x9f
 13218 0aec 36000000 		.4byte	.LVL205
 13219 0af0 4E000000 		.4byte	.LVL207
 13220 0af4 0700     		.2byte	0x7
 13221 0af6 76       		.byte	0x76
 13222 0af7 00       		.sleb128 0
 13223 0af8 48       		.byte	0x48
 13224 0af9 24       		.byte	0x24
 13225 0afa 30       		.byte	0x30
 13226 0afb 29       		.byte	0x29
 13227 0afc 9F       		.byte	0x9f
 13228 0afd 50000000 		.4byte	.LVL208
 13229 0b01 78000000 		.4byte	.LVL213
 13230 0b05 0100     		.2byte	0x1
 13231 0b07 57       		.byte	0x57
 13232 0b08 A0000000 		.4byte	.LVL218
 13233 0b0c C0000000 		.4byte	.LVL223
 13234 0b10 0200     		.2byte	0x2
 13235 0b12 31       		.byte	0x31
 13236 0b13 9F       		.byte	0x9f
 13237 0b14 C0000000 		.4byte	.LVL223
 13238 0b18 02010000 		.4byte	.LVL228
 13239 0b1c 0100     		.2byte	0x1
 13240 0b1e 57       		.byte	0x57
 13241 0b1f 04010000 		.4byte	.LVL229
 13242 0b23 1C010000 		.4byte	.LFE57
ARM GAS  C:\Users\EBANO_~1\AppData\Local\Temp\ccLo4wHn.s 			page 261


 13243 0b27 0100     		.2byte	0x1
 13244 0b29 57       		.byte	0x57
 13245 0b2a 00000000 		.4byte	0
 13246 0b2e 00000000 		.4byte	0
 13247              	.LLST75:
 13248 0b32 20000000 		.4byte	.LVL202
 13249 0b36 70000000 		.4byte	.LVL211
 13250 0b3a 0200     		.2byte	0x2
 13251 0b3c 30       		.byte	0x30
 13252 0b3d 9F       		.byte	0x9f
 13253 0b3e 70000000 		.4byte	.LVL211
 13254 0b42 78000000 		.4byte	.LVL213
 13255 0b46 0200     		.2byte	0x2
 13256 0b48 31       		.byte	0x31
 13257 0b49 9F       		.byte	0x9f
 13258 0b4a A0000000 		.4byte	.LVL218
 13259 0b4e 02010000 		.4byte	.LVL228
 13260 0b52 0200     		.2byte	0x2
 13261 0b54 30       		.byte	0x30
 13262 0b55 9F       		.byte	0x9f
 13263 0b56 04010000 		.4byte	.LVL229
 13264 0b5a 1C010000 		.4byte	.LFE57
 13265 0b5e 0200     		.2byte	0x2
 13266 0b60 30       		.byte	0x30
 13267 0b61 9F       		.byte	0x9f
 13268 0b62 00000000 		.4byte	0
 13269 0b66 00000000 		.4byte	0
 13270              	.LLST76:
 13271 0b6a 20000000 		.4byte	.LVL202
 13272 0b6e 28000000 		.4byte	.LVL203
 13273 0b72 0200     		.2byte	0x2
 13274 0b74 70       		.byte	0x70
 13275 0b75 04       		.sleb128 4
 13276 0b76 28000000 		.4byte	.LVL203
 13277 0b7a 33000000 		.4byte	.LVL204-1
 13278 0b7e 0500     		.2byte	0x5
 13279 0b80 F3       		.byte	0xf3
 13280 0b81 01       		.uleb128 0x1
 13281 0b82 50       		.byte	0x50
 13282 0b83 23       		.byte	0x23
 13283 0b84 04       		.uleb128 0x4
 13284 0b85 00000000 		.4byte	0
 13285 0b89 00000000 		.4byte	0
 13286              	.LLST77:
 13287 0b8d A8000000 		.4byte	.LVL220
 13288 0b91 DC000000 		.4byte	.LVL226
 13289 0b95 0100     		.2byte	0x1
 13290 0b97 56       		.byte	0x56
 13291 0b98 04010000 		.4byte	.LVL229
 13292 0b9c 1C010000 		.4byte	.LFE57
 13293 0ba0 0100     		.2byte	0x1
 13294 0ba2 56       		.byte	0x56
 13295 0ba3 00000000 		.4byte	0
 13296 0ba7 00000000 		.4byte	0
 13297              	.LLST78:
 13298 0bab B2000000 		.4byte	.LVL221
 13299 0baf B7000000 		.4byte	.LVL222-1
ARM GAS  C:\Users\EBANO_~1\AppData\Local\Temp\ccLo4wHn.s 			page 262


 13300 0bb3 0100     		.2byte	0x1
 13301 0bb5 50       		.byte	0x50
 13302 0bb6 B7000000 		.4byte	.LVL222-1
 13303 0bba C0000000 		.4byte	.LVL223
 13304 0bbe 0700     		.2byte	0x7
 13305 0bc0 76       		.byte	0x76
 13306 0bc1 E0DCF0C8 		.sleb128 -920900000
 13306      7C
 13307 0bc6 9F       		.byte	0x9f
 13308 0bc7 CA000000 		.4byte	.LVL224
 13309 0bcb CF000000 		.4byte	.LVL225-1
 13310 0bcf 0100     		.2byte	0x1
 13311 0bd1 50       		.byte	0x50
 13312 0bd2 CF000000 		.4byte	.LVL225-1
 13313 0bd6 DC000000 		.4byte	.LVL226
 13314 0bda 0700     		.2byte	0x7
 13315 0bdc 76       		.byte	0x76
 13316 0bdd E0DCF0C8 		.sleb128 -920900000
 13316      7C
 13317 0be2 9F       		.byte	0x9f
 13318 0be3 04010000 		.4byte	.LVL229
 13319 0be7 1C010000 		.4byte	.LFE57
 13320 0beb 0700     		.2byte	0x7
 13321 0bed 76       		.byte	0x76
 13322 0bee E0DCF0C8 		.sleb128 -920900000
 13322      7C
 13323 0bf3 9F       		.byte	0x9f
 13324 0bf4 00000000 		.4byte	0
 13325 0bf8 00000000 		.4byte	0
 13326              	.LLST61:
 13327 0bfc 00000000 		.4byte	.LFB56
 13328 0c00 02000000 		.4byte	.LCFI22
 13329 0c04 0200     		.2byte	0x2
 13330 0c06 7D       		.byte	0x7d
 13331 0c07 00       		.sleb128 0
 13332 0c08 02000000 		.4byte	.LCFI22
 13333 0c0c 0A000000 		.4byte	.LCFI23
 13334 0c10 0200     		.2byte	0x2
 13335 0c12 7D       		.byte	0x7d
 13336 0c13 10       		.sleb128 16
 13337 0c14 0A000000 		.4byte	.LCFI23
 13338 0c18 70000000 		.4byte	.LFE56
 13339 0c1c 0200     		.2byte	0x2
 13340 0c1e 7D       		.byte	0x7d
 13341 0c1f 18       		.sleb128 24
 13342 0c20 00000000 		.4byte	0
 13343 0c24 00000000 		.4byte	0
 13344              	.LLST62:
 13345 0c28 00000000 		.4byte	.LVL181
 13346 0c2c 0E000000 		.4byte	.LVL183
 13347 0c30 0100     		.2byte	0x1
 13348 0c32 50       		.byte	0x50
 13349 0c33 0E000000 		.4byte	.LVL183
 13350 0c37 4E000000 		.4byte	.LVL193
 13351 0c3b 0100     		.2byte	0x1
 13352 0c3d 54       		.byte	0x54
 13353 0c3e 4E000000 		.4byte	.LVL193
ARM GAS  C:\Users\EBANO_~1\AppData\Local\Temp\ccLo4wHn.s 			page 263


 13354 0c42 50000000 		.4byte	.LVL195
 13355 0c46 0400     		.2byte	0x4
 13356 0c48 F3       		.byte	0xf3
 13357 0c49 01       		.uleb128 0x1
 13358 0c4a 50       		.byte	0x50
 13359 0c4b 9F       		.byte	0x9f
 13360 0c4c 50000000 		.4byte	.LVL195
 13361 0c50 70000000 		.4byte	.LFE56
 13362 0c54 0100     		.2byte	0x1
 13363 0c56 54       		.byte	0x54
 13364 0c57 00000000 		.4byte	0
 13365 0c5b 00000000 		.4byte	0
 13366              	.LLST63:
 13367 0c5f 00000000 		.4byte	.LVL181
 13368 0c63 24000000 		.4byte	.LVL188
 13369 0c67 0200     		.2byte	0x2
 13370 0c69 37       		.byte	0x37
 13371 0c6a 9F       		.byte	0x9f
 13372 0c6b 24000000 		.4byte	.LVL188
 13373 0c6f 36000000 		.4byte	.LVL190
 13374 0c73 0100     		.2byte	0x1
 13375 0c75 56       		.byte	0x56
 13376 0c76 36000000 		.4byte	.LVL190
 13377 0c7a 4E000000 		.4byte	.LVL194
 13378 0c7e 0100     		.2byte	0x1
 13379 0c80 55       		.byte	0x55
 13380 0c81 50000000 		.4byte	.LVL195
 13381 0c85 70000000 		.4byte	.LFE56
 13382 0c89 0200     		.2byte	0x2
 13383 0c8b 37       		.byte	0x37
 13384 0c8c 9F       		.byte	0x9f
 13385 0c8d 00000000 		.4byte	0
 13386 0c91 00000000 		.4byte	0
 13387              	.LLST64:
 13388 0c95 06000000 		.4byte	.LVL182
 13389 0c99 22000000 		.4byte	.LVL187
 13390 0c9d 0100     		.2byte	0x1
 13391 0c9f 55       		.byte	0x55
 13392 0ca0 50000000 		.4byte	.LVL195
 13393 0ca4 5C000000 		.4byte	.LVL197
 13394 0ca8 0100     		.2byte	0x1
 13395 0caa 55       		.byte	0x55
 13396 0cab 00000000 		.4byte	0
 13397 0caf 00000000 		.4byte	0
 13398              	.LLST66:
 13399 0cb3 16000000 		.4byte	.LVL185
 13400 0cb7 20000000 		.4byte	.LVL186
 13401 0cbb 0100     		.2byte	0x1
 13402 0cbd 55       		.byte	0x55
 13403 0cbe 50000000 		.4byte	.LVL195
 13404 0cc2 5C000000 		.4byte	.LVL197
 13405 0cc6 0100     		.2byte	0x1
 13406 0cc8 55       		.byte	0x55
 13407 0cc9 00000000 		.4byte	0
 13408 0ccd 00000000 		.4byte	0
 13409              	.LLST67:
 13410 0cd1 50000000 		.4byte	.LVL195
ARM GAS  C:\Users\EBANO_~1\AppData\Local\Temp\ccLo4wHn.s 			page 264


 13411 0cd5 55000000 		.4byte	.LVL196-1
 13412 0cd9 0100     		.2byte	0x1
 13413 0cdb 50       		.byte	0x50
 13414 0cdc 55000000 		.4byte	.LVL196-1
 13415 0ce0 5C000000 		.4byte	.LVL197
 13416 0ce4 0700     		.2byte	0x7
 13417 0ce6 75       		.byte	0x75
 13418 0ce7 E0DCF0C8 		.sleb128 -920900000
 13418      7C
 13419 0cec 9F       		.byte	0x9f
 13420 0ced 00000000 		.4byte	0
 13421 0cf1 00000000 		.4byte	0
 13422              	.LLST52:
 13423 0cf5 00000000 		.4byte	.LFB55
 13424 0cf9 02000000 		.4byte	.LCFI19
 13425 0cfd 0200     		.2byte	0x2
 13426 0cff 7D       		.byte	0x7d
 13427 0d00 00       		.sleb128 0
 13428 0d01 02000000 		.4byte	.LCFI19
 13429 0d05 0C000000 		.4byte	.LCFI20
 13430 0d09 0200     		.2byte	0x2
 13431 0d0b 7D       		.byte	0x7d
 13432 0d0c 14       		.sleb128 20
 13433 0d0d 0C000000 		.4byte	.LCFI20
 13434 0d11 0E000000 		.4byte	.LCFI21
 13435 0d15 0200     		.2byte	0x2
 13436 0d17 7D       		.byte	0x7d
 13437 0d18 24       		.sleb128 36
 13438 0d19 0E000000 		.4byte	.LCFI21
 13439 0d1d FC020000 		.4byte	.LFE55
 13440 0d21 0300     		.2byte	0x3
 13441 0d23 7D       		.byte	0x7d
 13442 0d24 E000     		.sleb128 96
 13443 0d26 00000000 		.4byte	0
 13444 0d2a 00000000 		.4byte	0
 13445              	.LLST53:
 13446 0d2e 00000000 		.4byte	.LVL124
 13447 0d32 28000000 		.4byte	.LVL127
 13448 0d36 0100     		.2byte	0x1
 13449 0d38 50       		.byte	0x50
 13450 0d39 28000000 		.4byte	.LVL127
 13451 0d3d A8010000 		.4byte	.LVL151
 13452 0d41 0100     		.2byte	0x1
 13453 0d43 56       		.byte	0x56
 13454 0d44 A8010000 		.4byte	.LVL151
 13455 0d48 D4010000 		.4byte	.LVL156
 13456 0d4c 0400     		.2byte	0x4
 13457 0d4e F3       		.byte	0xf3
 13458 0d4f 01       		.uleb128 0x1
 13459 0d50 50       		.byte	0x50
 13460 0d51 9F       		.byte	0x9f
 13461 0d52 D4010000 		.4byte	.LVL156
 13462 0d56 D2020000 		.4byte	.LVL176
 13463 0d5a 0100     		.2byte	0x1
 13464 0d5c 56       		.byte	0x56
 13465 0d5d D2020000 		.4byte	.LVL176
 13466 0d61 E8020000 		.4byte	.LVL179
ARM GAS  C:\Users\EBANO_~1\AppData\Local\Temp\ccLo4wHn.s 			page 265


 13467 0d65 0400     		.2byte	0x4
 13468 0d67 F3       		.byte	0xf3
 13469 0d68 01       		.uleb128 0x1
 13470 0d69 50       		.byte	0x50
 13471 0d6a 9F       		.byte	0x9f
 13472 0d6b E8020000 		.4byte	.LVL179
 13473 0d6f FC020000 		.4byte	.LFE55
 13474 0d73 0100     		.2byte	0x1
 13475 0d75 56       		.byte	0x56
 13476 0d76 00000000 		.4byte	0
 13477 0d7a 00000000 		.4byte	0
 13478              	.LLST54:
 13479 0d7e 00000000 		.4byte	.LVL124
 13480 0d82 28000000 		.4byte	.LVL127
 13481 0d86 0100     		.2byte	0x1
 13482 0d88 51       		.byte	0x51
 13483 0d89 28000000 		.4byte	.LVL127
 13484 0d8d C8010000 		.4byte	.LVL155
 13485 0d91 0100     		.2byte	0x1
 13486 0d93 5B       		.byte	0x5b
 13487 0d94 C8010000 		.4byte	.LVL155
 13488 0d98 D4010000 		.4byte	.LVL156
 13489 0d9c 0400     		.2byte	0x4
 13490 0d9e F3       		.byte	0xf3
 13491 0d9f 01       		.uleb128 0x1
 13492 0da0 51       		.byte	0x51
 13493 0da1 9F       		.byte	0x9f
 13494 0da2 D4010000 		.4byte	.LVL156
 13495 0da6 FC020000 		.4byte	.LFE55
 13496 0daa 0100     		.2byte	0x1
 13497 0dac 5B       		.byte	0x5b
 13498 0dad 00000000 		.4byte	0
 13499 0db1 00000000 		.4byte	0
 13500              	.LLST55:
 13501 0db5 00000000 		.4byte	.LVL124
 13502 0db9 16000000 		.4byte	.LVL126
 13503 0dbd 0100     		.2byte	0x1
 13504 0dbf 52       		.byte	0x52
 13505 0dc0 16000000 		.4byte	.LVL126
 13506 0dc4 C8010000 		.4byte	.LVL154
 13507 0dc8 0100     		.2byte	0x1
 13508 0dca 5A       		.byte	0x5a
 13509 0dcb C8010000 		.4byte	.LVL154
 13510 0dcf D4010000 		.4byte	.LVL156
 13511 0dd3 0400     		.2byte	0x4
 13512 0dd5 F3       		.byte	0xf3
 13513 0dd6 01       		.uleb128 0x1
 13514 0dd7 52       		.byte	0x52
 13515 0dd8 9F       		.byte	0x9f
 13516 0dd9 D4010000 		.4byte	.LVL156
 13517 0ddd FC020000 		.4byte	.LFE55
 13518 0de1 0100     		.2byte	0x1
 13519 0de3 5A       		.byte	0x5a
 13520 0de4 00000000 		.4byte	0
 13521 0de8 00000000 		.4byte	0
 13522              	.LLST56:
 13523 0dec 00000000 		.4byte	.LVL124
ARM GAS  C:\Users\EBANO_~1\AppData\Local\Temp\ccLo4wHn.s 			page 266


 13524 0df0 12000000 		.4byte	.LVL125
 13525 0df4 0100     		.2byte	0x1
 13526 0df6 53       		.byte	0x53
 13527 0df7 12000000 		.4byte	.LVL125
 13528 0dfb FC020000 		.4byte	.LFE55
 13529 0dff 0300     		.2byte	0x3
 13530 0e01 91       		.byte	0x91
 13531 0e02 A47F     		.sleb128 -92
 13532 0e04 00000000 		.4byte	0
 13533 0e08 00000000 		.4byte	0
 13534              	.LLST57:
 13535 0e0c 00000000 		.4byte	.LVL124
 13536 0e10 28000000 		.4byte	.LVL127
 13537 0e14 0200     		.2byte	0x2
 13538 0e16 37       		.byte	0x37
 13539 0e17 9F       		.byte	0x9f
 13540 0e18 28000000 		.4byte	.LVL127
 13541 0e1c 4C000000 		.4byte	.LVL130
 13542 0e20 0100     		.2byte	0x1
 13543 0e22 59       		.byte	0x59
 13544 0e23 4C000000 		.4byte	.LVL130
 13545 0e27 6E000000 		.4byte	.LVL133
 13546 0e2b 0200     		.2byte	0x2
 13547 0e2d 37       		.byte	0x37
 13548 0e2e 9F       		.byte	0x9f
 13549 0e2f 6E000000 		.4byte	.LVL133
 13550 0e33 A8010000 		.4byte	.LVL151
 13551 0e37 0100     		.2byte	0x1
 13552 0e39 59       		.byte	0x59
 13553 0e3a A8010000 		.4byte	.LVL151
 13554 0e3e AE010000 		.4byte	.LVL152
 13555 0e42 0100     		.2byte	0x1
 13556 0e44 50       		.byte	0x50
 13557 0e45 D4010000 		.4byte	.LVL156
 13558 0e49 D2020000 		.4byte	.LVL176
 13559 0e4d 0200     		.2byte	0x2
 13560 0e4f 37       		.byte	0x37
 13561 0e50 9F       		.byte	0x9f
 13562 0e51 D2020000 		.4byte	.LVL176
 13563 0e55 D4020000 		.4byte	.LVL177
 13564 0e59 0100     		.2byte	0x1
 13565 0e5b 50       		.byte	0x50
 13566 0e5c E8020000 		.4byte	.LVL179
 13567 0e60 FC020000 		.4byte	.LFE55
 13568 0e64 0200     		.2byte	0x2
 13569 0e66 37       		.byte	0x37
 13570 0e67 9F       		.byte	0x9f
 13571 0e68 00000000 		.4byte	0
 13572 0e6c 00000000 		.4byte	0
 13573              	.LLST58:
 13574 0e70 00000000 		.4byte	.LVL124
 13575 0e74 28000000 		.4byte	.LVL127
 13576 0e78 0200     		.2byte	0x2
 13577 0e7a 30       		.byte	0x30
 13578 0e7b 9F       		.byte	0x9f
 13579 0e7c 3A000000 		.4byte	.LVL128
 13580 0e80 4E000000 		.4byte	.LVL131
ARM GAS  C:\Users\EBANO_~1\AppData\Local\Temp\ccLo4wHn.s 			page 267


 13581 0e84 0100     		.2byte	0x1
 13582 0e86 50       		.byte	0x50
 13583 0e87 00000000 		.4byte	0
 13584 0e8b 00000000 		.4byte	0
 13585              	.LLST59:
 13586 0e8f 00000000 		.4byte	.LVL124
 13587 0e93 28000000 		.4byte	.LVL127
 13588 0e97 0200     		.2byte	0x2
 13589 0e99 30       		.byte	0x30
 13590 0e9a 9F       		.byte	0x9f
 13591 0e9b 28000000 		.4byte	.LVL127
 13592 0e9f 4A000000 		.4byte	.LVL129
 13593 0ea3 0100     		.2byte	0x1
 13594 0ea5 54       		.byte	0x54
 13595 0ea6 4C000000 		.4byte	.LVL130
 13596 0eaa C8010000 		.4byte	.LVL153
 13597 0eae 0100     		.2byte	0x1
 13598 0eb0 54       		.byte	0x54
 13599 0eb1 C8010000 		.4byte	.LVL153
 13600 0eb5 D4010000 		.4byte	.LVL156
 13601 0eb9 0200     		.2byte	0x2
 13602 0ebb 73       		.byte	0x73
 13603 0ebc 00       		.sleb128 0
 13604 0ebd D4010000 		.4byte	.LVL156
 13605 0ec1 FC020000 		.4byte	.LFE55
 13606 0ec5 0100     		.2byte	0x1
 13607 0ec7 54       		.byte	0x54
 13608 0ec8 00000000 		.4byte	0
 13609 0ecc 00000000 		.4byte	0
 13610              	.LLST60:
 13611 0ed0 5C000000 		.4byte	.LVL132
 13612 0ed4 6E000000 		.4byte	.LVL133
 13613 0ed8 0200     		.2byte	0x2
 13614 0eda 30       		.byte	0x30
 13615 0edb 9F       		.byte	0x9f
 13616 0edc 6E000000 		.4byte	.LVL133
 13617 0ee0 7C000000 		.4byte	.LVL134
 13618 0ee4 0200     		.2byte	0x2
 13619 0ee6 31       		.byte	0x31
 13620 0ee7 9F       		.byte	0x9f
 13621 0ee8 7C000000 		.4byte	.LVL134
 13622 0eec 8A000000 		.4byte	.LVL135
 13623 0ef0 0200     		.2byte	0x2
 13624 0ef2 32       		.byte	0x32
 13625 0ef3 9F       		.byte	0x9f
 13626 0ef4 8A000000 		.4byte	.LVL135
 13627 0ef8 98000000 		.4byte	.LVL136
 13628 0efc 0200     		.2byte	0x2
 13629 0efe 33       		.byte	0x33
 13630 0eff 9F       		.byte	0x9f
 13631 0f00 98000000 		.4byte	.LVL136
 13632 0f04 A6000000 		.4byte	.LVL137
 13633 0f08 0200     		.2byte	0x2
 13634 0f0a 34       		.byte	0x34
 13635 0f0b 9F       		.byte	0x9f
 13636 0f0c A6000000 		.4byte	.LVL137
 13637 0f10 B4000000 		.4byte	.LVL138
ARM GAS  C:\Users\EBANO_~1\AppData\Local\Temp\ccLo4wHn.s 			page 268


 13638 0f14 0200     		.2byte	0x2
 13639 0f16 35       		.byte	0x35
 13640 0f17 9F       		.byte	0x9f
 13641 0f18 B4000000 		.4byte	.LVL138
 13642 0f1c C2000000 		.4byte	.LVL139
 13643 0f20 0200     		.2byte	0x2
 13644 0f22 36       		.byte	0x36
 13645 0f23 9F       		.byte	0x9f
 13646 0f24 C2000000 		.4byte	.LVL139
 13647 0f28 D0000000 		.4byte	.LVL140
 13648 0f2c 0200     		.2byte	0x2
 13649 0f2e 37       		.byte	0x37
 13650 0f2f 9F       		.byte	0x9f
 13651 0f30 D0000000 		.4byte	.LVL140
 13652 0f34 DE000000 		.4byte	.LVL141
 13653 0f38 0200     		.2byte	0x2
 13654 0f3a 38       		.byte	0x38
 13655 0f3b 9F       		.byte	0x9f
 13656 0f3c DE000000 		.4byte	.LVL141
 13657 0f40 EC000000 		.4byte	.LVL142
 13658 0f44 0200     		.2byte	0x2
 13659 0f46 39       		.byte	0x39
 13660 0f47 9F       		.byte	0x9f
 13661 0f48 EC000000 		.4byte	.LVL142
 13662 0f4c FA000000 		.4byte	.LVL143
 13663 0f50 0200     		.2byte	0x2
 13664 0f52 3A       		.byte	0x3a
 13665 0f53 9F       		.byte	0x9f
 13666 0f54 FA000000 		.4byte	.LVL143
 13667 0f58 0A010000 		.4byte	.LVL144
 13668 0f5c 0200     		.2byte	0x2
 13669 0f5e 3B       		.byte	0x3b
 13670 0f5f 9F       		.byte	0x9f
 13671 0f60 0A010000 		.4byte	.LVL144
 13672 0f64 1A010000 		.4byte	.LVL145
 13673 0f68 0200     		.2byte	0x2
 13674 0f6a 3C       		.byte	0x3c
 13675 0f6b 9F       		.byte	0x9f
 13676 0f6c 1A010000 		.4byte	.LVL145
 13677 0f70 2A010000 		.4byte	.LVL146
 13678 0f74 0200     		.2byte	0x2
 13679 0f76 3D       		.byte	0x3d
 13680 0f77 9F       		.byte	0x9f
 13681 0f78 2A010000 		.4byte	.LVL146
 13682 0f7c 3A010000 		.4byte	.LVL147
 13683 0f80 0200     		.2byte	0x2
 13684 0f82 3E       		.byte	0x3e
 13685 0f83 9F       		.byte	0x9f
 13686 0f84 3A010000 		.4byte	.LVL147
 13687 0f88 58010000 		.4byte	.LVL149
 13688 0f8c 0200     		.2byte	0x2
 13689 0f8e 3F       		.byte	0x3f
 13690 0f8f 9F       		.byte	0x9f
 13691 0f90 E6010000 		.4byte	.LVL157
 13692 0f94 F4010000 		.4byte	.LVL158
 13693 0f98 0200     		.2byte	0x2
 13694 0f9a 30       		.byte	0x30
ARM GAS  C:\Users\EBANO_~1\AppData\Local\Temp\ccLo4wHn.s 			page 269


 13695 0f9b 9F       		.byte	0x9f
 13696 0f9c F4010000 		.4byte	.LVL158
 13697 0fa0 00020000 		.4byte	.LVL159
 13698 0fa4 0200     		.2byte	0x2
 13699 0fa6 31       		.byte	0x31
 13700 0fa7 9F       		.byte	0x9f
 13701 0fa8 00020000 		.4byte	.LVL159
 13702 0fac 0C020000 		.4byte	.LVL160
 13703 0fb0 0200     		.2byte	0x2
 13704 0fb2 32       		.byte	0x32
 13705 0fb3 9F       		.byte	0x9f
 13706 0fb4 0C020000 		.4byte	.LVL160
 13707 0fb8 18020000 		.4byte	.LVL161
 13708 0fbc 0200     		.2byte	0x2
 13709 0fbe 33       		.byte	0x33
 13710 0fbf 9F       		.byte	0x9f
 13711 0fc0 18020000 		.4byte	.LVL161
 13712 0fc4 24020000 		.4byte	.LVL162
 13713 0fc8 0200     		.2byte	0x2
 13714 0fca 34       		.byte	0x34
 13715 0fcb 9F       		.byte	0x9f
 13716 0fcc 24020000 		.4byte	.LVL162
 13717 0fd0 30020000 		.4byte	.LVL163
 13718 0fd4 0200     		.2byte	0x2
 13719 0fd6 35       		.byte	0x35
 13720 0fd7 9F       		.byte	0x9f
 13721 0fd8 30020000 		.4byte	.LVL163
 13722 0fdc 3C020000 		.4byte	.LVL164
 13723 0fe0 0200     		.2byte	0x2
 13724 0fe2 36       		.byte	0x36
 13725 0fe3 9F       		.byte	0x9f
 13726 0fe4 3C020000 		.4byte	.LVL164
 13727 0fe8 48020000 		.4byte	.LVL165
 13728 0fec 0200     		.2byte	0x2
 13729 0fee 37       		.byte	0x37
 13730 0fef 9F       		.byte	0x9f
 13731 0ff0 48020000 		.4byte	.LVL165
 13732 0ff4 56020000 		.4byte	.LVL166
 13733 0ff8 0200     		.2byte	0x2
 13734 0ffa 38       		.byte	0x38
 13735 0ffb 9F       		.byte	0x9f
 13736 0ffc 56020000 		.4byte	.LVL166
 13737 1000 64020000 		.4byte	.LVL167
 13738 1004 0200     		.2byte	0x2
 13739 1006 39       		.byte	0x39
 13740 1007 9F       		.byte	0x9f
 13741 1008 64020000 		.4byte	.LVL167
 13742 100c 72020000 		.4byte	.LVL168
 13743 1010 0200     		.2byte	0x2
 13744 1012 3A       		.byte	0x3a
 13745 1013 9F       		.byte	0x9f
 13746 1014 72020000 		.4byte	.LVL168
 13747 1018 82020000 		.4byte	.LVL169
 13748 101c 0200     		.2byte	0x2
 13749 101e 3B       		.byte	0x3b
 13750 101f 9F       		.byte	0x9f
 13751 1020 82020000 		.4byte	.LVL169
ARM GAS  C:\Users\EBANO_~1\AppData\Local\Temp\ccLo4wHn.s 			page 270


 13752 1024 92020000 		.4byte	.LVL170
 13753 1028 0200     		.2byte	0x2
 13754 102a 3C       		.byte	0x3c
 13755 102b 9F       		.byte	0x9f
 13756 102c 92020000 		.4byte	.LVL170
 13757 1030 9A020000 		.4byte	.LVL171
 13758 1034 0200     		.2byte	0x2
 13759 1036 3D       		.byte	0x3d
 13760 1037 9F       		.byte	0x9f
 13761 1038 9A020000 		.4byte	.LVL171
 13762 103c A8020000 		.4byte	.LVL172
 13763 1040 0200     		.2byte	0x2
 13764 1042 3E       		.byte	0x3e
 13765 1043 9F       		.byte	0x9f
 13766 1044 A8020000 		.4byte	.LVL172
 13767 1048 B6020000 		.4byte	.LVL173
 13768 104c 0200     		.2byte	0x2
 13769 104e 3F       		.byte	0x3f
 13770 104f 9F       		.byte	0x9f
 13771 1050 BE020000 		.4byte	.LVL174
 13772 1054 C6020000 		.4byte	.LVL175
 13773 1058 0200     		.2byte	0x2
 13774 105a 3F       		.byte	0x3f
 13775 105b 9F       		.byte	0x9f
 13776 105c C6020000 		.4byte	.LVL175
 13777 1060 D2020000 		.4byte	.LVL176
 13778 1064 0200     		.2byte	0x2
 13779 1066 40       		.byte	0x40
 13780 1067 9F       		.byte	0x9f
 13781 1068 E8020000 		.4byte	.LVL179
 13782 106c EE020000 		.4byte	.LVL180
 13783 1070 0200     		.2byte	0x2
 13784 1072 3D       		.byte	0x3d
 13785 1073 9F       		.byte	0x9f
 13786 1074 EE020000 		.4byte	.LVL180
 13787 1078 FC020000 		.4byte	.LFE55
 13788 107c 0200     		.2byte	0x2
 13789 107e 3E       		.byte	0x3e
 13790 107f 9F       		.byte	0x9f
 13791 1080 00000000 		.4byte	0
 13792 1084 00000000 		.4byte	0
 13793              	.LLST40:
 13794 1088 00000000 		.4byte	.LFB54
 13795 108c 02000000 		.4byte	.LCFI16
 13796 1090 0200     		.2byte	0x2
 13797 1092 7D       		.byte	0x7d
 13798 1093 00       		.sleb128 0
 13799 1094 02000000 		.4byte	.LCFI16
 13800 1098 12000000 		.4byte	.LCFI17
 13801 109c 0200     		.2byte	0x2
 13802 109e 7D       		.byte	0x7d
 13803 109f 14       		.sleb128 20
 13804 10a0 12000000 		.4byte	.LCFI17
 13805 10a4 3A000000 		.4byte	.LCFI18
 13806 10a8 0200     		.2byte	0x2
 13807 10aa 7D       		.byte	0x7d
 13808 10ab 24       		.sleb128 36
ARM GAS  C:\Users\EBANO_~1\AppData\Local\Temp\ccLo4wHn.s 			page 271


 13809 10ac 3A000000 		.4byte	.LCFI18
 13810 10b0 30010000 		.4byte	.LFE54
 13811 10b4 0300     		.2byte	0x3
 13812 10b6 7D       		.byte	0x7d
 13813 10b7 D800     		.sleb128 88
 13814 10b9 00000000 		.4byte	0
 13815 10bd 00000000 		.4byte	0
 13816              	.LLST41:
 13817 10c1 00000000 		.4byte	.LVL100
 13818 10c5 18000000 		.4byte	.LVL102
 13819 10c9 0100     		.2byte	0x1
 13820 10cb 50       		.byte	0x50
 13821 10cc 18000000 		.4byte	.LVL102
 13822 10d0 F2000000 		.4byte	.LVL118
 13823 10d4 0100     		.2byte	0x1
 13824 10d6 54       		.byte	0x54
 13825 10d7 F2000000 		.4byte	.LVL118
 13826 10db FE000000 		.4byte	.LVL122
 13827 10df 0400     		.2byte	0x4
 13828 10e1 F3       		.byte	0xf3
 13829 10e2 01       		.uleb128 0x1
 13830 10e3 50       		.byte	0x50
 13831 10e4 9F       		.byte	0x9f
 13832 10e5 FE000000 		.4byte	.LVL122
 13833 10e9 30010000 		.4byte	.LFE54
 13834 10ed 0100     		.2byte	0x1
 13835 10ef 54       		.byte	0x54
 13836 10f0 00000000 		.4byte	0
 13837 10f4 00000000 		.4byte	0
 13838              	.LLST42:
 13839 10f8 00000000 		.4byte	.LVL100
 13840 10fc 0E000000 		.4byte	.LVL101
 13841 1100 0100     		.2byte	0x1
 13842 1102 51       		.byte	0x51
 13843 1103 0E000000 		.4byte	.LVL101
 13844 1107 F2000000 		.4byte	.LVL119
 13845 110b 0100     		.2byte	0x1
 13846 110d 59       		.byte	0x59
 13847 110e F2000000 		.4byte	.LVL119
 13848 1112 FE000000 		.4byte	.LVL122
 13849 1116 0100     		.2byte	0x1
 13850 1118 53       		.byte	0x53
 13851 1119 FE000000 		.4byte	.LVL122
 13852 111d 30010000 		.4byte	.LFE54
 13853 1121 0100     		.2byte	0x1
 13854 1123 59       		.byte	0x59
 13855 1124 00000000 		.4byte	0
 13856 1128 00000000 		.4byte	0
 13857              	.LLST43:
 13858 112c 00000000 		.4byte	.LVL100
 13859 1130 22000000 		.4byte	.LVL103
 13860 1134 0100     		.2byte	0x1
 13861 1136 52       		.byte	0x52
 13862 1137 22000000 		.4byte	.LVL103
 13863 113b F2000000 		.4byte	.LVL120
 13864 113f 0100     		.2byte	0x1
 13865 1141 5A       		.byte	0x5a
ARM GAS  C:\Users\EBANO_~1\AppData\Local\Temp\ccLo4wHn.s 			page 272


 13866 1142 F2000000 		.4byte	.LVL120
 13867 1146 FE000000 		.4byte	.LVL122
 13868 114a 0400     		.2byte	0x4
 13869 114c F3       		.byte	0xf3
 13870 114d 01       		.uleb128 0x1
 13871 114e 52       		.byte	0x52
 13872 114f 9F       		.byte	0x9f
 13873 1150 FE000000 		.4byte	.LVL122
 13874 1154 30010000 		.4byte	.LFE54
 13875 1158 0100     		.2byte	0x1
 13876 115a 5A       		.byte	0x5a
 13877 115b 00000000 		.4byte	0
 13878 115f 00000000 		.4byte	0
 13879              	.LLST44:
 13880 1163 26000000 		.4byte	.LVL104
 13881 1167 F2000000 		.4byte	.LVL121
 13882 116b 0100     		.2byte	0x1
 13883 116d 5B       		.byte	0x5b
 13884 116e FE000000 		.4byte	.LVL122
 13885 1172 30010000 		.4byte	.LFE54
 13886 1176 0100     		.2byte	0x1
 13887 1178 5B       		.byte	0x5b
 13888 1179 00000000 		.4byte	0
 13889 117d 00000000 		.4byte	0
 13890              	.LLST45:
 13891 1181 88000000 		.4byte	.LVL110
 13892 1185 96000000 		.4byte	.LVL112
 13893 1189 0100     		.2byte	0x1
 13894 118b 57       		.byte	0x57
 13895 118c 00000000 		.4byte	0
 13896 1190 00000000 		.4byte	0
 13897              	.LLST46:
 13898 1194 78000000 		.4byte	.LVL108
 13899 1198 96000000 		.4byte	.LVL112
 13900 119c 0200     		.2byte	0x2
 13901 119e 30       		.byte	0x30
 13902 119f 9F       		.byte	0x9f
 13903 11a0 96000000 		.4byte	.LVL112
 13904 11a4 D0000000 		.4byte	.LVL114
 13905 11a8 0100     		.2byte	0x1
 13906 11aa 57       		.byte	0x57
 13907 11ab 00000000 		.4byte	0
 13908 11af 00000000 		.4byte	0
 13909              	.LLST47:
 13910 11b3 26000000 		.4byte	.LVL104
 13911 11b7 50000000 		.4byte	.LVL105
 13912 11bb 0100     		.2byte	0x1
 13913 11bd 51       		.byte	0x51
 13914 11be 00000000 		.4byte	0
 13915 11c2 00000000 		.4byte	0
 13916              	.LLST48:
 13917 11c6 26000000 		.4byte	.LVL104
 13918 11ca 52000000 		.4byte	.LVL106
 13919 11ce 1900     		.2byte	0x19
 13920 11d0 70       		.byte	0x70
 13921 11d1 00       		.sleb128 0
 13922 11d2 3C       		.byte	0x3c
ARM GAS  C:\Users\EBANO_~1\AppData\Local\Temp\ccLo4wHn.s 			page 273


 13923 11d3 1E       		.byte	0x1e
 13924 11d4 03       		.byte	0x3
 13925 11d5 09000000 		.4byte	NvmCtx+9
 13926 11d9 22       		.byte	0x22
 13927 11da 94       		.byte	0x94
 13928 11db 01       		.byte	0x1
 13929 11dc 08       		.byte	0x8
 13930 11dd FF       		.byte	0xff
 13931 11de 1A       		.byte	0x1a
 13932 11df 23       		.byte	0x23
 13933 11e0 0C       		.uleb128 0xc
 13934 11e1 34       		.byte	0x34
 13935 11e2 24       		.byte	0x24
 13936 11e3 03       		.byte	0x3
 13937 11e4 02000000 		.4byte	NvmCtx+2
 13938 11e8 22       		.byte	0x22
 13939 11e9 00000000 		.4byte	0
 13940 11ed 00000000 		.4byte	0
 13941              	.LLST49:
 13942 11f1 26000000 		.4byte	.LVL104
 13943 11f5 52000000 		.4byte	.LVL106
 13944 11f9 0200     		.2byte	0x2
 13945 11fb 74       		.byte	0x74
 13946 11fc 02       		.sleb128 2
 13947 11fd 00000000 		.4byte	0
 13948 1201 00000000 		.4byte	0
 13949              	.LLST51:
 13950 1205 68000000 		.4byte	.LVL107
 13951 1209 78000000 		.4byte	.LVL108
 13952 120d 0A00     		.2byte	0xa
 13953 120f 70       		.byte	0x70
 13954 1210 00       		.sleb128 0
 13955 1211 3C       		.byte	0x3c
 13956 1212 1E       		.byte	0x1e
 13957 1213 03       		.byte	0x3
 13958 1214 00000000 		.4byte	NvmCtx
 13959 1218 22       		.byte	0x22
 13960 1219 FE000000 		.4byte	.LVL122
 13961 121d 04010000 		.4byte	.LVL123
 13962 1221 0A00     		.2byte	0xa
 13963 1223 70       		.byte	0x70
 13964 1224 00       		.sleb128 0
 13965 1225 3C       		.byte	0x3c
 13966 1226 1E       		.byte	0x1e
 13967 1227 03       		.byte	0x3
 13968 1228 00000000 		.4byte	NvmCtx
 13969 122c 22       		.byte	0x22
 13970 122d 00000000 		.4byte	0
 13971 1231 00000000 		.4byte	0
 13972              	.LLST33:
 13973 1235 00000000 		.4byte	.LFB53
 13974 1239 02000000 		.4byte	.LCFI13
 13975 123d 0200     		.2byte	0x2
 13976 123f 7D       		.byte	0x7d
 13977 1240 00       		.sleb128 0
 13978 1241 02000000 		.4byte	.LCFI13
 13979 1245 0A000000 		.4byte	.LCFI14
ARM GAS  C:\Users\EBANO_~1\AppData\Local\Temp\ccLo4wHn.s 			page 274


 13980 1249 0200     		.2byte	0x2
 13981 124b 7D       		.byte	0x7d
 13982 124c 14       		.sleb128 20
 13983 124d 0A000000 		.4byte	.LCFI14
 13984 1251 14000000 		.4byte	.LCFI15
 13985 1255 0200     		.2byte	0x2
 13986 1257 7D       		.byte	0x7d
 13987 1258 1C       		.sleb128 28
 13988 1259 14000000 		.4byte	.LCFI15
 13989 125d B4000000 		.4byte	.LFE53
 13990 1261 0300     		.2byte	0x3
 13991 1263 7D       		.byte	0x7d
 13992 1264 D000     		.sleb128 80
 13993 1266 00000000 		.4byte	0
 13994 126a 00000000 		.4byte	0
 13995              	.LLST34:
 13996 126e 00000000 		.4byte	.LVL85
 13997 1272 1D000000 		.4byte	.LVL87-1
 13998 1276 0100     		.2byte	0x1
 13999 1278 50       		.byte	0x50
 14000 1279 1D000000 		.4byte	.LVL87-1
 14001 127d 68000000 		.4byte	.LVL91
 14002 1281 0100     		.2byte	0x1
 14003 1283 54       		.byte	0x54
 14004 1284 68000000 		.4byte	.LVL91
 14005 1288 8A000000 		.4byte	.LVL98
 14006 128c 0400     		.2byte	0x4
 14007 128e F3       		.byte	0xf3
 14008 128f 01       		.uleb128 0x1
 14009 1290 50       		.byte	0x50
 14010 1291 9F       		.byte	0x9f
 14011 1292 8A000000 		.4byte	.LVL98
 14012 1296 B4000000 		.4byte	.LFE53
 14013 129a 0100     		.2byte	0x1
 14014 129c 54       		.byte	0x54
 14015 129d 00000000 		.4byte	0
 14016 12a1 00000000 		.4byte	0
 14017              	.LLST35:
 14018 12a5 00000000 		.4byte	.LVL85
 14019 12a9 1D000000 		.4byte	.LVL87-1
 14020 12ad 0100     		.2byte	0x1
 14021 12af 51       		.byte	0x51
 14022 12b0 1D000000 		.4byte	.LVL87-1
 14023 12b4 82000000 		.4byte	.LVL96
 14024 12b8 0100     		.2byte	0x1
 14025 12ba 57       		.byte	0x57
 14026 12bb 82000000 		.4byte	.LVL96
 14027 12bf 8A000000 		.4byte	.LVL98
 14028 12c3 0400     		.2byte	0x4
 14029 12c5 F3       		.byte	0xf3
 14030 12c6 01       		.uleb128 0x1
 14031 12c7 51       		.byte	0x51
 14032 12c8 9F       		.byte	0x9f
 14033 12c9 8A000000 		.4byte	.LVL98
 14034 12cd B4000000 		.4byte	.LFE53
 14035 12d1 0100     		.2byte	0x1
 14036 12d3 57       		.byte	0x57
ARM GAS  C:\Users\EBANO_~1\AppData\Local\Temp\ccLo4wHn.s 			page 275


 14037 12d4 00000000 		.4byte	0
 14038 12d8 00000000 		.4byte	0
 14039              	.LLST36:
 14040 12dc 16000000 		.4byte	.LVL86
 14041 12e0 82000000 		.4byte	.LVL95
 14042 12e4 0100     		.2byte	0x1
 14043 12e6 56       		.byte	0x56
 14044 12e7 8A000000 		.4byte	.LVL98
 14045 12eb B4000000 		.4byte	.LFE53
 14046 12ef 0100     		.2byte	0x1
 14047 12f1 56       		.byte	0x56
 14048 12f2 00000000 		.4byte	0
 14049 12f6 00000000 		.4byte	0
 14050              	.LLST37:
 14051 12fa 16000000 		.4byte	.LVL86
 14052 12fe 6A000000 		.4byte	.LVL92
 14053 1302 0200     		.2byte	0x2
 14054 1304 30       		.byte	0x30
 14055 1305 9F       		.byte	0x9f
 14056 1306 6A000000 		.4byte	.LVL92
 14057 130a 7E000000 		.4byte	.LVL94
 14058 130e 0800     		.2byte	0x8
 14059 1310 76       		.byte	0x76
 14060 1311 00       		.sleb128 0
 14061 1312 03       		.byte	0x3
 14062 1313 CC000000 		.4byte	MaxPayloadOfDatarateKR920
 14063 1317 22       		.byte	0x22
 14064 1318 8A000000 		.4byte	.LVL98
 14065 131c B4000000 		.4byte	.LFE53
 14066 1320 0200     		.2byte	0x2
 14067 1322 30       		.byte	0x30
 14068 1323 9F       		.byte	0x9f
 14069 1324 00000000 		.4byte	0
 14070 1328 00000000 		.4byte	0
 14071              	.LLST38:
 14072 132c 16000000 		.4byte	.LVL86
 14073 1330 36000000 		.4byte	.LVL89
 14074 1334 0200     		.2byte	0x2
 14075 1336 30       		.byte	0x30
 14076 1337 9F       		.byte	0x9f
 14077 1338 36000000 		.4byte	.LVL89
 14078 133c 7E000000 		.4byte	.LVL94
 14079 1340 0100     		.2byte	0x1
 14080 1342 59       		.byte	0x59
 14081 1343 8A000000 		.4byte	.LVL98
 14082 1347 B4000000 		.4byte	.LFE53
 14083 134b 0200     		.2byte	0x2
 14084 134d 30       		.byte	0x30
 14085 134e 9F       		.byte	0x9f
 14086 134f 00000000 		.4byte	0
 14087 1353 00000000 		.4byte	0
 14088              	.LLST39:
 14089 1357 16000000 		.4byte	.LVL86
 14090 135b 82000000 		.4byte	.LVL97
 14091 135f 0100     		.2byte	0x1
 14092 1361 58       		.byte	0x58
 14093 1362 8A000000 		.4byte	.LVL98
ARM GAS  C:\Users\EBANO_~1\AppData\Local\Temp\ccLo4wHn.s 			page 276


 14094 1366 9C000000 		.4byte	.LVL99
 14095 136a 0100     		.2byte	0x1
 14096 136c 58       		.byte	0x58
 14097 136d 9C000000 		.4byte	.LVL99
 14098 1371 B4000000 		.4byte	.LFE53
 14099 1375 0100     		.2byte	0x1
 14100 1377 51       		.byte	0x51
 14101 1378 00000000 		.4byte	0
 14102 137c 00000000 		.4byte	0
 14103              	.LLST27:
 14104 1380 00000000 		.4byte	.LFB52
 14105 1384 02000000 		.4byte	.LCFI10
 14106 1388 0200     		.2byte	0x2
 14107 138a 7D       		.byte	0x7d
 14108 138b 00       		.sleb128 0
 14109 138c 02000000 		.4byte	.LCFI10
 14110 1390 06000000 		.4byte	.LCFI11
 14111 1394 0200     		.2byte	0x2
 14112 1396 7D       		.byte	0x7d
 14113 1397 14       		.sleb128 20
 14114 1398 06000000 		.4byte	.LCFI11
 14115 139c 0A000000 		.4byte	.LCFI12
 14116 13a0 0200     		.2byte	0x2
 14117 13a2 7D       		.byte	0x7d
 14118 13a3 18       		.sleb128 24
 14119 13a4 0A000000 		.4byte	.LCFI12
 14120 13a8 80000000 		.4byte	.LFE52
 14121 13ac 0200     		.2byte	0x2
 14122 13ae 7D       		.byte	0x7d
 14123 13af 30       		.sleb128 48
 14124 13b0 00000000 		.4byte	0
 14125 13b4 00000000 		.4byte	0
 14126              	.LLST28:
 14127 13b8 00000000 		.4byte	.LVL68
 14128 13bc 18000000 		.4byte	.LVL70
 14129 13c0 0100     		.2byte	0x1
 14130 13c2 50       		.byte	0x50
 14131 13c3 18000000 		.4byte	.LVL70
 14132 13c7 80000000 		.4byte	.LFE52
 14133 13cb 0400     		.2byte	0x4
 14134 13cd F3       		.byte	0xf3
 14135 13ce 01       		.uleb128 0x1
 14136 13cf 50       		.byte	0x50
 14137 13d0 9F       		.byte	0x9f
 14138 13d1 00000000 		.4byte	0
 14139 13d5 00000000 		.4byte	0
 14140              	.LLST29:
 14141 13d9 00000000 		.4byte	.LVL68
 14142 13dd 1C000000 		.4byte	.LVL72
 14143 13e1 0100     		.2byte	0x1
 14144 13e3 51       		.byte	0x51
 14145 13e4 1C000000 		.4byte	.LVL72
 14146 13e8 80000000 		.4byte	.LFE52
 14147 13ec 0400     		.2byte	0x4
 14148 13ee F3       		.byte	0xf3
 14149 13ef 01       		.uleb128 0x1
 14150 13f0 51       		.byte	0x51
ARM GAS  C:\Users\EBANO_~1\AppData\Local\Temp\ccLo4wHn.s 			page 277


 14151 13f1 9F       		.byte	0x9f
 14152 13f2 00000000 		.4byte	0
 14153 13f6 00000000 		.4byte	0
 14154              	.LLST30:
 14155 13fa 00000000 		.4byte	.LVL68
 14156 13fe 1A000000 		.4byte	.LVL71
 14157 1402 0100     		.2byte	0x1
 14158 1404 52       		.byte	0x52
 14159 1405 1A000000 		.4byte	.LVL71
 14160 1409 64000000 		.4byte	.LVL83
 14161 140d 0100     		.2byte	0x1
 14162 140f 58       		.byte	0x58
 14163 1410 64000000 		.4byte	.LVL83
 14164 1414 6A000000 		.4byte	.LVL84
 14165 1418 0400     		.2byte	0x4
 14166 141a F3       		.byte	0xf3
 14167 141b 01       		.uleb128 0x1
 14168 141c 52       		.byte	0x52
 14169 141d 9F       		.byte	0x9f
 14170 141e 6A000000 		.4byte	.LVL84
 14171 1422 80000000 		.4byte	.LFE52
 14172 1426 0100     		.2byte	0x1
 14173 1428 58       		.byte	0x58
 14174 1429 00000000 		.4byte	0
 14175 142d 00000000 		.4byte	0
 14176              	.LLST31:
 14177 1431 00000000 		.4byte	.LVL68
 14178 1435 10000000 		.4byte	.LVL69
 14179 1439 0100     		.2byte	0x1
 14180 143b 53       		.byte	0x53
 14181 143c 10000000 		.4byte	.LVL69
 14182 1440 4E000000 		.4byte	.LVL77
 14183 1444 0100     		.2byte	0x1
 14184 1446 54       		.byte	0x54
 14185 1447 4E000000 		.4byte	.LVL77
 14186 144b 50000000 		.4byte	.LVL78
 14187 144f 0100     		.2byte	0x1
 14188 1451 53       		.byte	0x53
 14189 1452 50000000 		.4byte	.LVL78
 14190 1456 58000000 		.4byte	.LVL79
 14191 145a 0300     		.2byte	0x3
 14192 145c 73       		.byte	0x73
 14193 145d 74       		.sleb128 -12
 14194 145e 9F       		.byte	0x9f
 14195 145f 58000000 		.4byte	.LVL79
 14196 1463 61000000 		.4byte	.LVL80-1
 14197 1467 0600     		.2byte	0x6
 14198 1469 91       		.byte	0x91
 14199 146a 58       		.sleb128 -40
 14200 146b 06       		.byte	0x6
 14201 146c 3C       		.byte	0x3c
 14202 146d 1C       		.byte	0x1c
 14203 146e 9F       		.byte	0x9f
 14204 146f 61000000 		.4byte	.LVL80-1
 14205 1473 64000000 		.4byte	.LVL81
 14206 1477 0300     		.2byte	0x3
 14207 1479 74       		.byte	0x74
ARM GAS  C:\Users\EBANO_~1\AppData\Local\Temp\ccLo4wHn.s 			page 278


 14208 147a 78       		.sleb128 -8
 14209 147b 9F       		.byte	0x9f
 14210 147c 64000000 		.4byte	.LVL81
 14211 1480 6A000000 		.4byte	.LVL84
 14212 1484 0400     		.2byte	0x4
 14213 1486 F3       		.byte	0xf3
 14214 1487 01       		.uleb128 0x1
 14215 1488 53       		.byte	0x53
 14216 1489 9F       		.byte	0x9f
 14217 148a 6A000000 		.4byte	.LVL84
 14218 148e 80000000 		.4byte	.LFE52
 14219 1492 0100     		.2byte	0x1
 14220 1494 54       		.byte	0x54
 14221 1495 00000000 		.4byte	0
 14222 1499 00000000 		.4byte	0
 14223              	.LLST32:
 14224 149d 00000000 		.4byte	.LVL68
 14225 14a1 46000000 		.4byte	.LVL75
 14226 14a5 0A00     		.2byte	0xa
 14227 14a7 9E       		.byte	0x9e
 14228 14a8 08       		.uleb128 0x8
 14229 14a9 00000000 		.4byte	0
 14230 14ad 00000000 		.4byte	0
 14231 14b1 46000000 		.4byte	.LVL75
 14232 14b5 64000000 		.4byte	.LVL82
 14233 14b9 0600     		.2byte	0x6
 14234 14bb 56       		.byte	0x56
 14235 14bc 93       		.byte	0x93
 14236 14bd 04       		.uleb128 0x4
 14237 14be 57       		.byte	0x57
 14238 14bf 93       		.byte	0x93
 14239 14c0 04       		.uleb128 0x4
 14240 14c1 6A000000 		.4byte	.LVL84
 14241 14c5 80000000 		.4byte	.LFE52
 14242 14c9 0A00     		.2byte	0xa
 14243 14cb 9E       		.byte	0x9e
 14244 14cc 08       		.uleb128 0x8
 14245 14cd 00000000 		.4byte	0
 14246 14d1 00000000 		.4byte	0
 14247 14d5 00000000 		.4byte	0
 14248 14d9 00000000 		.4byte	0
 14249              	.LLST25:
 14250 14dd 00000000 		.4byte	.LFB51
 14251 14e1 02000000 		.4byte	.LCFI9
 14252 14e5 0200     		.2byte	0x2
 14253 14e7 7D       		.byte	0x7d
 14254 14e8 00       		.sleb128 0
 14255 14e9 02000000 		.4byte	.LCFI9
 14256 14ed 34000000 		.4byte	.LFE51
 14257 14f1 0200     		.2byte	0x2
 14258 14f3 7D       		.byte	0x7d
 14259 14f4 08       		.sleb128 8
 14260 14f5 00000000 		.4byte	0
 14261 14f9 00000000 		.4byte	0
 14262              	.LLST26:
 14263 14fd 00000000 		.4byte	.LVL60
 14264 1501 0E000000 		.4byte	.LVL61
ARM GAS  C:\Users\EBANO_~1\AppData\Local\Temp\ccLo4wHn.s 			page 279


 14265 1505 0100     		.2byte	0x1
 14266 1507 50       		.byte	0x50
 14267 1508 0E000000 		.4byte	.LVL61
 14268 150c 10000000 		.4byte	.LVL62
 14269 1510 0400     		.2byte	0x4
 14270 1512 F3       		.byte	0xf3
 14271 1513 01       		.uleb128 0x1
 14272 1514 50       		.byte	0x50
 14273 1515 9F       		.byte	0x9f
 14274 1516 10000000 		.4byte	.LVL62
 14275 151a 16000000 		.4byte	.LVL63
 14276 151e 0100     		.2byte	0x1
 14277 1520 50       		.byte	0x50
 14278 1521 16000000 		.4byte	.LVL63
 14279 1525 1E000000 		.4byte	.LVL65
 14280 1529 0400     		.2byte	0x4
 14281 152b F3       		.byte	0xf3
 14282 152c 01       		.uleb128 0x1
 14283 152d 50       		.byte	0x50
 14284 152e 9F       		.byte	0x9f
 14285 152f 1E000000 		.4byte	.LVL65
 14286 1533 24000000 		.4byte	.LVL66
 14287 1537 0100     		.2byte	0x1
 14288 1539 50       		.byte	0x50
 14289 153a 24000000 		.4byte	.LVL66
 14290 153e 34000000 		.4byte	.LFE51
 14291 1542 0400     		.2byte	0x4
 14292 1544 F3       		.byte	0xf3
 14293 1545 01       		.uleb128 0x1
 14294 1546 50       		.byte	0x50
 14295 1547 9F       		.byte	0x9f
 14296 1548 00000000 		.4byte	0
 14297 154c 00000000 		.4byte	0
 14298              	.LLST13:
 14299 1550 00000000 		.4byte	.LFB50
 14300 1554 02000000 		.4byte	.LCFI6
 14301 1558 0200     		.2byte	0x2
 14302 155a 7D       		.byte	0x7d
 14303 155b 00       		.sleb128 0
 14304 155c 02000000 		.4byte	.LCFI6
 14305 1560 0E000000 		.4byte	.LCFI7
 14306 1564 0200     		.2byte	0x2
 14307 1566 7D       		.byte	0x7d
 14308 1567 14       		.sleb128 20
 14309 1568 0E000000 		.4byte	.LCFI7
 14310 156c 10000000 		.4byte	.LCFI8
 14311 1570 0200     		.2byte	0x2
 14312 1572 7D       		.byte	0x7d
 14313 1573 24       		.sleb128 36
 14314 1574 10000000 		.4byte	.LCFI8
 14315 1578 40010000 		.4byte	.LFE50
 14316 157c 0300     		.2byte	0x3
 14317 157e 7D       		.byte	0x7d
 14318 157f C000     		.sleb128 64
 14319 1581 00000000 		.4byte	0
 14320 1585 00000000 		.4byte	0
 14321              	.LLST14:
ARM GAS  C:\Users\EBANO_~1\AppData\Local\Temp\ccLo4wHn.s 			page 280


 14322 1589 00000000 		.4byte	.LVL34
 14323 158d 1C000000 		.4byte	.LVL35
 14324 1591 0100     		.2byte	0x1
 14325 1593 50       		.byte	0x50
 14326 1594 1C000000 		.4byte	.LVL35
 14327 1598 1E000000 		.4byte	.LVL36
 14328 159c 0100     		.2byte	0x1
 14329 159e 58       		.byte	0x58
 14330 159f 1E000000 		.4byte	.LVL36
 14331 15a3 2A000000 		.4byte	.LVL37
 14332 15a7 0400     		.2byte	0x4
 14333 15a9 F3       		.byte	0xf3
 14334 15aa 01       		.uleb128 0x1
 14335 15ab 50       		.byte	0x50
 14336 15ac 9F       		.byte	0x9f
 14337 15ad 2A000000 		.4byte	.LVL37
 14338 15b1 42000000 		.4byte	.LVL38
 14339 15b5 0100     		.2byte	0x1
 14340 15b7 50       		.byte	0x50
 14341 15b8 42000000 		.4byte	.LVL38
 14342 15bc 40010000 		.4byte	.LFE50
 14343 15c0 0100     		.2byte	0x1
 14344 15c2 58       		.byte	0x58
 14345 15c3 00000000 		.4byte	0
 14346 15c7 00000000 		.4byte	0
 14347              	.LLST15:
 14348 15cb 42000000 		.4byte	.LVL38
 14349 15cf 64000000 		.4byte	.LVL41
 14350 15d3 0300     		.2byte	0x3
 14351 15d5 76       		.byte	0x76
 14352 15d6 7F       		.sleb128 -1
 14353 15d7 9F       		.byte	0x9f
 14354 15d8 64000000 		.4byte	.LVL41
 14355 15dc 66000000 		.4byte	.LVL42
 14356 15e0 0300     		.2byte	0x3
 14357 15e2 76       		.byte	0x76
 14358 15e3 02       		.sleb128 2
 14359 15e4 9F       		.byte	0x9f
 14360 15e5 6E000000 		.4byte	.LVL44
 14361 15e9 40010000 		.4byte	.LFE50
 14362 15ed 0300     		.2byte	0x3
 14363 15ef 76       		.byte	0x76
 14364 15f0 7F       		.sleb128 -1
 14365 15f1 9F       		.byte	0x9f
 14366 15f2 00000000 		.4byte	0
 14367 15f6 00000000 		.4byte	0
 14368              	.LLST16:
 14369 15fa 42000000 		.4byte	.LVL38
 14370 15fe 64000000 		.4byte	.LVL41
 14371 1602 0100     		.2byte	0x1
 14372 1604 57       		.byte	0x57
 14373 1605 64000000 		.4byte	.LVL41
 14374 1609 68000000 		.4byte	.LVL43
 14375 160d 0300     		.2byte	0x3
 14376 160f 75       		.byte	0x75
 14377 1610 01       		.sleb128 1
 14378 1611 9F       		.byte	0x9f
ARM GAS  C:\Users\EBANO_~1\AppData\Local\Temp\ccLo4wHn.s 			page 281


 14379 1612 6E000000 		.4byte	.LVL44
 14380 1616 AA000000 		.4byte	.LVL47
 14381 161a 0100     		.2byte	0x1
 14382 161c 57       		.byte	0x57
 14383 161d AA000000 		.4byte	.LVL47
 14384 1621 40010000 		.4byte	.LFE50
 14385 1625 0100     		.2byte	0x1
 14386 1627 55       		.byte	0x55
 14387 1628 00000000 		.4byte	0
 14388 162c 00000000 		.4byte	0
 14389              	.LLST17:
 14390 1630 4A000000 		.4byte	.LVL39
 14391 1634 64000000 		.4byte	.LVL41
 14392 1638 0600     		.2byte	0x6
 14393 163a F2       		.byte	0xf2
 14394 163b 072D0000 		.4byte	.Ldebug_info0+11527
 14395 163f 00       		.sleb128 0
 14396 1640 00000000 		.4byte	0
 14397 1644 00000000 		.4byte	0
 14398              	.LLST18:
 14399 1648 4A000000 		.4byte	.LVL39
 14400 164c 64000000 		.4byte	.LVL41
 14401 1650 0100     		.2byte	0x1
 14402 1652 57       		.byte	0x57
 14403 1653 00000000 		.4byte	0
 14404 1657 00000000 		.4byte	0
 14405              	.LLST19:
 14406 165b 9A000000 		.4byte	.LVL45
 14407 165f AA000000 		.4byte	.LVL47
 14408 1663 0200     		.2byte	0x2
 14409 1665 30       		.byte	0x30
 14410 1666 9F       		.byte	0x9f
 14411 1667 AA000000 		.4byte	.LVL47
 14412 166b C4000000 		.4byte	.LVL49
 14413 166f 0700     		.2byte	0x7
 14414 1671 77       		.byte	0x77
 14415 1672 00       		.sleb128 0
 14416 1673 48       		.byte	0x48
 14417 1674 24       		.byte	0x24
 14418 1675 30       		.byte	0x30
 14419 1676 29       		.byte	0x29
 14420 1677 9F       		.byte	0x9f
 14421 1678 C8000000 		.4byte	.LVL50
 14422 167c 40010000 		.4byte	.LFE50
 14423 1680 0100     		.2byte	0x1
 14424 1682 5B       		.byte	0x5b
 14425 1683 00000000 		.4byte	0
 14426 1687 00000000 		.4byte	0
 14427              	.LLST20:
 14428 168b 9A000000 		.4byte	.LVL45
 14429 168f AA000000 		.4byte	.LVL47
 14430 1693 0100     		.2byte	0x1
 14431 1695 57       		.byte	0x57
 14432 1696 AA000000 		.4byte	.LVL47
 14433 169a 40010000 		.4byte	.LFE50
 14434 169e 0100     		.2byte	0x1
 14435 16a0 55       		.byte	0x55
ARM GAS  C:\Users\EBANO_~1\AppData\Local\Temp\ccLo4wHn.s 			page 282


 14436 16a1 00000000 		.4byte	0
 14437 16a5 00000000 		.4byte	0
 14438              	.LLST21:
 14439 16a9 DE000000 		.4byte	.LVL52
 14440 16ad FE000000 		.4byte	.LVL57
 14441 16b1 0100     		.2byte	0x1
 14442 16b3 57       		.byte	0x57
 14443 16b4 00000000 		.4byte	0
 14444 16b8 00000000 		.4byte	0
 14445              	.LLST22:
 14446 16bc DE000000 		.4byte	.LVL52
 14447 16c0 08010000 		.4byte	.LVL58
 14448 16c4 0100     		.2byte	0x1
 14449 16c6 57       		.byte	0x57
 14450 16c7 00000000 		.4byte	0
 14451 16cb 00000000 		.4byte	0
 14452              	.LLST23:
 14453 16cf EA000000 		.4byte	.LVL54
 14454 16d3 08010000 		.4byte	.LVL58
 14455 16d7 0100     		.2byte	0x1
 14456 16d9 57       		.byte	0x57
 14457 16da 00000000 		.4byte	0
 14458 16de 00000000 		.4byte	0
 14459              	.LLST24:
 14460 16e2 F4000000 		.4byte	.LVL55
 14461 16e6 F9000000 		.4byte	.LVL56-1
 14462 16ea 0100     		.2byte	0x1
 14463 16ec 50       		.byte	0x50
 14464 16ed F9000000 		.4byte	.LVL56-1
 14465 16f1 08010000 		.4byte	.LVL58
 14466 16f5 0700     		.2byte	0x7
 14467 16f7 77       		.byte	0x77
 14468 16f8 E0DCF0C8 		.sleb128 -920900000
 14468      7C
 14469 16fd 9F       		.byte	0x9f
 14470 16fe 00000000 		.4byte	0
 14471 1702 00000000 		.4byte	0
 14472              	.LLST10:
 14473 1706 00000000 		.4byte	.LFB49
 14474 170a 02000000 		.4byte	.LCFI5
 14475 170e 0200     		.2byte	0x2
 14476 1710 7D       		.byte	0x7d
 14477 1711 00       		.sleb128 0
 14478 1712 02000000 		.4byte	.LCFI5
 14479 1716 3C000000 		.4byte	.LFE49
 14480 171a 0200     		.2byte	0x2
 14481 171c 7D       		.byte	0x7d
 14482 171d 08       		.sleb128 8
 14483 171e 00000000 		.4byte	0
 14484 1722 00000000 		.4byte	0
 14485              	.LLST11:
 14486 1726 00000000 		.4byte	.LVL24
 14487 172a 0C000000 		.4byte	.LVL25
 14488 172e 0100     		.2byte	0x1
 14489 1730 50       		.byte	0x50
 14490 1731 0C000000 		.4byte	.LVL25
 14491 1735 1E000000 		.4byte	.LVL28
ARM GAS  C:\Users\EBANO_~1\AppData\Local\Temp\ccLo4wHn.s 			page 283


 14492 1739 0400     		.2byte	0x4
 14493 173b F3       		.byte	0xf3
 14494 173c 01       		.uleb128 0x1
 14495 173d 50       		.byte	0x50
 14496 173e 9F       		.byte	0x9f
 14497 173f 1E000000 		.4byte	.LVL28
 14498 1743 26000000 		.4byte	.LVL30
 14499 1747 0100     		.2byte	0x1
 14500 1749 50       		.byte	0x50
 14501 174a 26000000 		.4byte	.LVL30
 14502 174e 38000000 		.4byte	.LVL32
 14503 1752 0400     		.2byte	0x4
 14504 1754 F3       		.byte	0xf3
 14505 1755 01       		.uleb128 0x1
 14506 1756 50       		.byte	0x50
 14507 1757 9F       		.byte	0x9f
 14508 1758 38000000 		.4byte	.LVL32
 14509 175c 3A000000 		.4byte	.LVL33
 14510 1760 0100     		.2byte	0x1
 14511 1762 50       		.byte	0x50
 14512 1763 3A000000 		.4byte	.LVL33
 14513 1767 3C000000 		.4byte	.LFE49
 14514 176b 0400     		.2byte	0x4
 14515 176d F3       		.byte	0xf3
 14516 176e 01       		.uleb128 0x1
 14517 176f 50       		.byte	0x50
 14518 1770 9F       		.byte	0x9f
 14519 1771 00000000 		.4byte	0
 14520 1775 00000000 		.4byte	0
 14521              	.LLST12:
 14522 1779 00000000 		.4byte	.LVL24
 14523 177d 12000000 		.4byte	.LVL26
 14524 1781 0100     		.2byte	0x1
 14525 1783 51       		.byte	0x51
 14526 1784 12000000 		.4byte	.LVL26
 14527 1788 1E000000 		.4byte	.LVL28
 14528 178c 0400     		.2byte	0x4
 14529 178e F3       		.byte	0xf3
 14530 178f 01       		.uleb128 0x1
 14531 1790 51       		.byte	0x51
 14532 1791 9F       		.byte	0x9f
 14533 1792 1E000000 		.4byte	.LVL28
 14534 1796 20000000 		.4byte	.LVL29
 14535 179a 0100     		.2byte	0x1
 14536 179c 51       		.byte	0x51
 14537 179d 20000000 		.4byte	.LVL29
 14538 17a1 3C000000 		.4byte	.LFE49
 14539 17a5 0400     		.2byte	0x4
 14540 17a7 F3       		.byte	0xf3
 14541 17a8 01       		.uleb128 0x1
 14542 17a9 51       		.byte	0x51
 14543 17aa 9F       		.byte	0x9f
 14544 17ab 00000000 		.4byte	0
 14545 17af 00000000 		.4byte	0
 14546              	.LLST9:
 14547 17b3 00000000 		.4byte	.LVL22
 14548 17b7 06000000 		.4byte	.LVL23
ARM GAS  C:\Users\EBANO_~1\AppData\Local\Temp\ccLo4wHn.s 			page 284


 14549 17bb 0100     		.2byte	0x1
 14550 17bd 50       		.byte	0x50
 14551 17be 06000000 		.4byte	.LVL23
 14552 17c2 0C000000 		.4byte	.LFE48
 14553 17c6 0400     		.2byte	0x4
 14554 17c8 F3       		.byte	0xf3
 14555 17c9 01       		.uleb128 0x1
 14556 17ca 50       		.byte	0x50
 14557 17cb 9F       		.byte	0x9f
 14558 17cc 00000000 		.4byte	0
 14559 17d0 00000000 		.4byte	0
 14560              	.LLST7:
 14561 17d4 00000000 		.4byte	.LFB47
 14562 17d8 02000000 		.4byte	.LCFI3
 14563 17dc 0200     		.2byte	0x2
 14564 17de 7D       		.byte	0x7d
 14565 17df 00       		.sleb128 0
 14566 17e0 02000000 		.4byte	.LCFI3
 14567 17e4 04000000 		.4byte	.LCFI4
 14568 17e8 0200     		.2byte	0x2
 14569 17ea 7D       		.byte	0x7d
 14570 17eb 14       		.sleb128 20
 14571 17ec 04000000 		.4byte	.LCFI4
 14572 17f0 94000000 		.4byte	.LFE47
 14573 17f4 0200     		.2byte	0x2
 14574 17f6 7D       		.byte	0x7d
 14575 17f7 28       		.sleb128 40
 14576 17f8 00000000 		.4byte	0
 14577 17fc 00000000 		.4byte	0
 14578              	.LLST8:
 14579 1800 00000000 		.4byte	.LVL13
 14580 1804 2C000000 		.4byte	.LVL14
 14581 1808 0100     		.2byte	0x1
 14582 180a 50       		.byte	0x50
 14583 180b 2C000000 		.4byte	.LVL14
 14584 180f 34000000 		.4byte	.LVL16
 14585 1813 0400     		.2byte	0x4
 14586 1815 F3       		.byte	0xf3
 14587 1816 01       		.uleb128 0x1
 14588 1817 50       		.byte	0x50
 14589 1818 9F       		.byte	0x9f
 14590 1819 34000000 		.4byte	.LVL16
 14591 181d 3A000000 		.4byte	.LVL17
 14592 1821 0100     		.2byte	0x1
 14593 1823 50       		.byte	0x50
 14594 1824 3A000000 		.4byte	.LVL17
 14595 1828 78000000 		.4byte	.LVL20
 14596 182c 0400     		.2byte	0x4
 14597 182e F3       		.byte	0xf3
 14598 182f 01       		.uleb128 0x1
 14599 1830 50       		.byte	0x50
 14600 1831 9F       		.byte	0x9f
 14601 1832 78000000 		.4byte	.LVL20
 14602 1836 7C000000 		.4byte	.LVL21
 14603 183a 0100     		.2byte	0x1
 14604 183c 50       		.byte	0x50
 14605 183d 7C000000 		.4byte	.LVL21
ARM GAS  C:\Users\EBANO_~1\AppData\Local\Temp\ccLo4wHn.s 			page 285


 14606 1841 94000000 		.4byte	.LFE47
 14607 1845 0400     		.2byte	0x4
 14608 1847 F3       		.byte	0xf3
 14609 1848 01       		.uleb128 0x1
 14610 1849 50       		.byte	0x50
 14611 184a 9F       		.byte	0x9f
 14612 184b 00000000 		.4byte	0
 14613 184f 00000000 		.4byte	0
 14614              	.LLST5:
 14615 1853 00000000 		.4byte	.LFB46
 14616 1857 04000000 		.4byte	.LCFI2
 14617 185b 0200     		.2byte	0x2
 14618 185d 7D       		.byte	0x7d
 14619 185e 00       		.sleb128 0
 14620 185f 04000000 		.4byte	.LCFI2
 14621 1863 24000000 		.4byte	.LFE46
 14622 1867 0200     		.2byte	0x2
 14623 1869 7D       		.byte	0x7d
 14624 186a 08       		.sleb128 8
 14625 186b 00000000 		.4byte	0
 14626 186f 00000000 		.4byte	0
 14627              	.LLST6:
 14628 1873 00000000 		.4byte	.LVL10
 14629 1877 1A000000 		.4byte	.LVL11
 14630 187b 0100     		.2byte	0x1
 14631 187d 50       		.byte	0x50
 14632 187e 1A000000 		.4byte	.LVL11
 14633 1882 24000000 		.4byte	.LFE46
 14634 1886 0400     		.2byte	0x4
 14635 1888 F3       		.byte	0xf3
 14636 1889 01       		.uleb128 0x1
 14637 188a 50       		.byte	0x50
 14638 188b 9F       		.byte	0x9f
 14639 188c 00000000 		.4byte	0
 14640 1890 00000000 		.4byte	0
 14641              	.LLST0:
 14642 1894 00000000 		.4byte	.LFB45
 14643 1898 04000000 		.4byte	.LCFI0
 14644 189c 0200     		.2byte	0x2
 14645 189e 7D       		.byte	0x7d
 14646 189f 00       		.sleb128 0
 14647 18a0 04000000 		.4byte	.LCFI0
 14648 18a4 06000000 		.4byte	.LCFI1
 14649 18a8 0200     		.2byte	0x2
 14650 18aa 7D       		.byte	0x7d
 14651 18ab 04       		.sleb128 4
 14652 18ac 06000000 		.4byte	.LCFI1
 14653 18b0 0C010000 		.4byte	.LFE45
 14654 18b4 0200     		.2byte	0x2
 14655 18b6 7D       		.byte	0x7d
 14656 18b7 10       		.sleb128 16
 14657 18b8 00000000 		.4byte	0
 14658 18bc 00000000 		.4byte	0
 14659              	.LLST1:
 14660 18c0 00000000 		.4byte	.LVL0
 14661 18c4 1E000000 		.4byte	.LVL1
 14662 18c8 0100     		.2byte	0x1
ARM GAS  C:\Users\EBANO_~1\AppData\Local\Temp\ccLo4wHn.s 			page 286


 14663 18ca 50       		.byte	0x50
 14664 18cb 1E000000 		.4byte	.LVL1
 14665 18cf 24000000 		.4byte	.LVL2
 14666 18d3 0400     		.2byte	0x4
 14667 18d5 F3       		.byte	0xf3
 14668 18d6 01       		.uleb128 0x1
 14669 18d7 50       		.byte	0x50
 14670 18d8 9F       		.byte	0x9f
 14671 18d9 24000000 		.4byte	.LVL2
 14672 18dd 54000000 		.4byte	.LVL3
 14673 18e1 0100     		.2byte	0x1
 14674 18e3 50       		.byte	0x50
 14675 18e4 54000000 		.4byte	.LVL3
 14676 18e8 66000000 		.4byte	.LVL5
 14677 18ec 0400     		.2byte	0x4
 14678 18ee F3       		.byte	0xf3
 14679 18ef 01       		.uleb128 0x1
 14680 18f0 50       		.byte	0x50
 14681 18f1 9F       		.byte	0x9f
 14682 18f2 66000000 		.4byte	.LVL5
 14683 18f6 0C010000 		.4byte	.LFE45
 14684 18fa 0100     		.2byte	0x1
 14685 18fc 50       		.byte	0x50
 14686 18fd 00000000 		.4byte	0
 14687 1901 00000000 		.4byte	0
 14688              	.LLST2:
 14689 1905 C2000000 		.4byte	.LVL6
 14690 1909 CC000000 		.4byte	.LVL9
 14691 190d 0200     		.2byte	0x2
 14692 190f 30       		.byte	0x30
 14693 1910 9F       		.byte	0x9f
 14694 1911 00000000 		.4byte	0
 14695 1915 00000000 		.4byte	0
 14696              	.LLST3:
 14697 1919 C2000000 		.4byte	.LVL6
 14698 191d CA000000 		.4byte	.LVL8
 14699 1921 0100     		.2byte	0x1
 14700 1923 53       		.byte	0x53
 14701 1924 CA000000 		.4byte	.LVL8
 14702 1928 CC000000 		.4byte	.LVL9
 14703 192c 0300     		.2byte	0x3
 14704 192e 73       		.byte	0x73
 14705 192f 01       		.sleb128 1
 14706 1930 9F       		.byte	0x9f
 14707 1931 00000000 		.4byte	0
 14708 1935 00000000 		.4byte	0
 14709              	.LLST4:
 14710 1939 C2000000 		.4byte	.LVL6
 14711 193d C8000000 		.4byte	.LVL7
 14712 1941 0200     		.2byte	0x2
 14713 1943 30       		.byte	0x30
 14714 1944 9F       		.byte	0x9f
 14715 1945 C8000000 		.4byte	.LVL7
 14716 1949 CA000000 		.4byte	.LVL8
 14717 194d 0300     		.2byte	0x3
 14718 194f 73       		.byte	0x73
 14719 1950 7F       		.sleb128 -1
ARM GAS  C:\Users\EBANO_~1\AppData\Local\Temp\ccLo4wHn.s 			page 287


 14720 1951 9F       		.byte	0x9f
 14721 1952 CA000000 		.4byte	.LVL8
 14722 1956 CC000000 		.4byte	.LVL9
 14723 195a 0300     		.2byte	0x3
 14724 195c 73       		.byte	0x73
 14725 195d 00       		.sleb128 0
 14726 195e 9F       		.byte	0x9f
 14727 195f 00000000 		.4byte	0
 14728 1963 00000000 		.4byte	0
 14729              	.LLST112:
 14730 1967 00000000 		.4byte	.LFB63
 14731 196b 02000000 		.4byte	.LCFI34
 14732 196f 0200     		.2byte	0x2
 14733 1971 7D       		.byte	0x7d
 14734 1972 00       		.sleb128 0
 14735 1973 02000000 		.4byte	.LCFI34
 14736 1977 06000000 		.4byte	.LCFI35
 14737 197b 0200     		.2byte	0x2
 14738 197d 7D       		.byte	0x7d
 14739 197e 14       		.sleb128 20
 14740 197f 06000000 		.4byte	.LCFI35
 14741 1983 E8000000 		.4byte	.LFE63
 14742 1987 0200     		.2byte	0x2
 14743 1989 7D       		.byte	0x7d
 14744 198a 20       		.sleb128 32
 14745 198b 00000000 		.4byte	0
 14746 198f 00000000 		.4byte	0
 14747              	.LLST113:
 14748 1993 00000000 		.4byte	.LVL302
 14749 1997 0E000000 		.4byte	.LVL304
 14750 199b 0100     		.2byte	0x1
 14751 199d 50       		.byte	0x50
 14752 199e 0E000000 		.4byte	.LVL304
 14753 19a2 74000000 		.4byte	.LVL315
 14754 19a6 0100     		.2byte	0x1
 14755 19a8 54       		.byte	0x54
 14756 19a9 74000000 		.4byte	.LVL315
 14757 19ad 78000000 		.4byte	.LVL317
 14758 19b1 0400     		.2byte	0x4
 14759 19b3 F3       		.byte	0xf3
 14760 19b4 01       		.uleb128 0x1
 14761 19b5 50       		.byte	0x50
 14762 19b6 9F       		.byte	0x9f
 14763 19b7 78000000 		.4byte	.LVL317
 14764 19bb AC000000 		.4byte	.LVL325
 14765 19bf 0100     		.2byte	0x1
 14766 19c1 54       		.byte	0x54
 14767 19c2 AC000000 		.4byte	.LVL325
 14768 19c6 CE000000 		.4byte	.LVL328
 14769 19ca 0400     		.2byte	0x4
 14770 19cc F3       		.byte	0xf3
 14771 19cd 01       		.uleb128 0x1
 14772 19ce 50       		.byte	0x50
 14773 19cf 9F       		.byte	0x9f
 14774 19d0 CE000000 		.4byte	.LVL328
 14775 19d4 E8000000 		.4byte	.LFE63
 14776 19d8 0100     		.2byte	0x1
ARM GAS  C:\Users\EBANO_~1\AppData\Local\Temp\ccLo4wHn.s 			page 288


 14777 19da 54       		.byte	0x54
 14778 19db 00000000 		.4byte	0
 14779 19df 00000000 		.4byte	0
 14780              	.LLST114:
 14781 19e3 00000000 		.4byte	.LVL302
 14782 19e7 24000000 		.4byte	.LVL306
 14783 19eb 0200     		.2byte	0x2
 14784 19ed 30       		.byte	0x30
 14785 19ee 9F       		.byte	0x9f
 14786 19ef 24000000 		.4byte	.LVL306
 14787 19f3 3A000000 		.4byte	.LVL308
 14788 19f7 0700     		.2byte	0x7
 14789 19f9 76       		.byte	0x76
 14790 19fa 00       		.sleb128 0
 14791 19fb 48       		.byte	0x48
 14792 19fc 24       		.byte	0x24
 14793 19fd 30       		.byte	0x30
 14794 19fe 29       		.byte	0x29
 14795 19ff 9F       		.byte	0x9f
 14796 1a00 3A000000 		.4byte	.LVL308
 14797 1a04 54000000 		.4byte	.LVL309
 14798 1a08 0100     		.2byte	0x1
 14799 1a0a 57       		.byte	0x57
 14800 1a0b 54000000 		.4byte	.LVL309
 14801 1a0f 72000000 		.4byte	.LVL314
 14802 1a13 0200     		.2byte	0x2
 14803 1a15 31       		.byte	0x31
 14804 1a16 9F       		.byte	0x9f
 14805 1a17 78000000 		.4byte	.LVL317
 14806 1a1b 88000000 		.4byte	.LVL320
 14807 1a1f 0100     		.2byte	0x1
 14808 1a21 57       		.byte	0x57
 14809 1a22 88000000 		.4byte	.LVL320
 14810 1a26 8C000000 		.4byte	.LVL321
 14811 1a2a 0700     		.2byte	0x7
 14812 1a2c 76       		.byte	0x76
 14813 1a2d 00       		.sleb128 0
 14814 1a2e 48       		.byte	0x48
 14815 1a2f 24       		.byte	0x24
 14816 1a30 30       		.byte	0x30
 14817 1a31 29       		.byte	0x29
 14818 1a32 9F       		.byte	0x9f
 14819 1a33 90000000 		.4byte	.LVL322
 14820 1a37 E8000000 		.4byte	.LFE63
 14821 1a3b 0100     		.2byte	0x1
 14822 1a3d 57       		.byte	0x57
 14823 1a3e 00000000 		.4byte	0
 14824 1a42 00000000 		.4byte	0
 14825              	.LLST115:
 14826 1a46 00000000 		.4byte	.LVL302
 14827 1a4a 72000000 		.4byte	.LVL314
 14828 1a4e 0200     		.2byte	0x2
 14829 1a50 30       		.byte	0x30
 14830 1a51 9F       		.byte	0x9f
 14831 1a52 78000000 		.4byte	.LVL317
 14832 1a56 80000000 		.4byte	.LVL319
 14833 1a5a 0200     		.2byte	0x2
ARM GAS  C:\Users\EBANO_~1\AppData\Local\Temp\ccLo4wHn.s 			page 289


 14834 1a5c 30       		.byte	0x30
 14835 1a5d 9F       		.byte	0x9f
 14836 1a5e 80000000 		.4byte	.LVL319
 14837 1a62 88000000 		.4byte	.LVL320
 14838 1a66 0200     		.2byte	0x2
 14839 1a68 31       		.byte	0x31
 14840 1a69 9F       		.byte	0x9f
 14841 1a6a 88000000 		.4byte	.LVL320
 14842 1a6e E8000000 		.4byte	.LFE63
 14843 1a72 0200     		.2byte	0x2
 14844 1a74 30       		.byte	0x30
 14845 1a75 9F       		.byte	0x9f
 14846 1a76 00000000 		.4byte	0
 14847 1a7a 00000000 		.4byte	0
 14848              	.LLST116:
 14849 1a7e 04000000 		.4byte	.LVL303
 14850 1a82 76000000 		.4byte	.LVL316
 14851 1a86 0100     		.2byte	0x1
 14852 1a88 55       		.byte	0x55
 14853 1a89 78000000 		.4byte	.LVL317
 14854 1a8d E8000000 		.4byte	.LFE63
 14855 1a91 0100     		.2byte	0x1
 14856 1a93 55       		.byte	0x55
 14857 1a94 00000000 		.4byte	0
 14858 1a98 00000000 		.4byte	0
 14859              	.LLST117:
 14860 1a9c 54000000 		.4byte	.LVL309
 14861 1aa0 57000000 		.4byte	.LVL310-1
 14862 1aa4 0300     		.2byte	0x3
 14863 1aa6 74       		.byte	0x74
 14864 1aa7 00       		.sleb128 0
 14865 1aa8 06       		.byte	0x6
 14866 1aa9 78000000 		.4byte	.LVL317
 14867 1aad 7B000000 		.4byte	.LVL318-1
 14868 1ab1 0300     		.2byte	0x3
 14869 1ab3 74       		.byte	0x74
 14870 1ab4 00       		.sleb128 0
 14871 1ab5 06       		.byte	0x6
 14872 1ab6 00000000 		.4byte	0
 14873 1aba 00000000 		.4byte	0
 14874              	.LLST119:
 14875 1abe 5C000000 		.4byte	.LVL311
 14876 1ac2 72000000 		.4byte	.LVL314
 14877 1ac6 0100     		.2byte	0x1
 14878 1ac8 56       		.byte	0x56
 14879 1ac9 90000000 		.4byte	.LVL322
 14880 1acd AE000000 		.4byte	.LVL326
 14881 1ad1 0100     		.2byte	0x1
 14882 1ad3 56       		.byte	0x56
 14883 1ad4 CE000000 		.4byte	.LVL328
 14884 1ad8 E8000000 		.4byte	.LFE63
 14885 1adc 0100     		.2byte	0x1
 14886 1ade 56       		.byte	0x56
 14887 1adf 00000000 		.4byte	0
 14888 1ae3 00000000 		.4byte	0
 14889              	.LLST120:
 14890 1ae7 66000000 		.4byte	.LVL312
ARM GAS  C:\Users\EBANO_~1\AppData\Local\Temp\ccLo4wHn.s 			page 290


 14891 1aeb 6B000000 		.4byte	.LVL313-1
 14892 1aef 0100     		.2byte	0x1
 14893 1af1 50       		.byte	0x50
 14894 1af2 6B000000 		.4byte	.LVL313-1
 14895 1af6 72000000 		.4byte	.LVL314
 14896 1afa 0700     		.2byte	0x7
 14897 1afc 76       		.byte	0x76
 14898 1afd E0DCF0C8 		.sleb128 -920900000
 14898      7C
 14899 1b02 9F       		.byte	0x9f
 14900 1b03 9A000000 		.4byte	.LVL323
 14901 1b07 9F000000 		.4byte	.LVL324-1
 14902 1b0b 0100     		.2byte	0x1
 14903 1b0d 50       		.byte	0x50
 14904 1b0e 9F000000 		.4byte	.LVL324-1
 14905 1b12 AE000000 		.4byte	.LVL326
 14906 1b16 0700     		.2byte	0x7
 14907 1b18 76       		.byte	0x76
 14908 1b19 E0DCF0C8 		.sleb128 -920900000
 14908      7C
 14909 1b1e 9F       		.byte	0x9f
 14910 1b1f CE000000 		.4byte	.LVL328
 14911 1b23 E8000000 		.4byte	.LFE63
 14912 1b27 0700     		.2byte	0x7
 14913 1b29 76       		.byte	0x76
 14914 1b2a E0DCF0C8 		.sleb128 -920900000
 14914      7C
 14915 1b2f 9F       		.byte	0x9f
 14916 1b30 00000000 		.4byte	0
 14917 1b34 00000000 		.4byte	0
 14918              	.LLST121:
 14919 1b38 00000000 		.4byte	.LFB64
 14920 1b3c 02000000 		.4byte	.LCFI36
 14921 1b40 0200     		.2byte	0x2
 14922 1b42 7D       		.byte	0x7d
 14923 1b43 00       		.sleb128 0
 14924 1b44 02000000 		.4byte	.LCFI36
 14925 1b48 30000000 		.4byte	.LFE64
 14926 1b4c 0200     		.2byte	0x2
 14927 1b4e 7D       		.byte	0x7d
 14928 1b4f 10       		.sleb128 16
 14929 1b50 00000000 		.4byte	0
 14930 1b54 00000000 		.4byte	0
 14931              	.LLST122:
 14932 1b58 00000000 		.4byte	.LVL329
 14933 1b5c 06000000 		.4byte	.LVL331
 14934 1b60 0100     		.2byte	0x1
 14935 1b62 50       		.byte	0x50
 14936 1b63 06000000 		.4byte	.LVL331
 14937 1b67 30000000 		.4byte	.LFE64
 14938 1b6b 0400     		.2byte	0x4
 14939 1b6d F3       		.byte	0xf3
 14940 1b6e 01       		.uleb128 0x1
 14941 1b6f 50       		.byte	0x50
 14942 1b70 9F       		.byte	0x9f
 14943 1b71 00000000 		.4byte	0
 14944 1b75 00000000 		.4byte	0
ARM GAS  C:\Users\EBANO_~1\AppData\Local\Temp\ccLo4wHn.s 			page 291


 14945              	.LLST123:
 14946 1b79 04000000 		.4byte	.LVL330
 14947 1b7d 28000000 		.4byte	.LVL334
 14948 1b81 0100     		.2byte	0x1
 14949 1b83 54       		.byte	0x54
 14950 1b84 00000000 		.4byte	0
 14951 1b88 00000000 		.4byte	0
 14952              		.section	.debug_aranges,"",%progbits
 14953 0000 CC000000 		.4byte	0xcc
 14954 0004 0200     		.2byte	0x2
 14955 0006 00000000 		.4byte	.Ldebug_info0
 14956 000a 04       		.byte	0x4
 14957 000b 00       		.byte	0
 14958 000c 0000     		.2byte	0
 14959 000e 0000     		.2byte	0
 14960 0010 00000000 		.4byte	.LFB45
 14961 0014 0C010000 		.4byte	.LFE45-.LFB45
 14962 0018 00000000 		.4byte	.LFB46
 14963 001c 24000000 		.4byte	.LFE46-.LFB46
 14964 0020 00000000 		.4byte	.LFB47
 14965 0024 94000000 		.4byte	.LFE47-.LFB47
 14966 0028 00000000 		.4byte	.LFB48
 14967 002c 0C000000 		.4byte	.LFE48-.LFB48
 14968 0030 00000000 		.4byte	.LFB49
 14969 0034 3C000000 		.4byte	.LFE49-.LFB49
 14970 0038 00000000 		.4byte	.LFB50
 14971 003c 40010000 		.4byte	.LFE50-.LFB50
 14972 0040 00000000 		.4byte	.LFB51
 14973 0044 34000000 		.4byte	.LFE51-.LFB51
 14974 0048 00000000 		.4byte	.LFB52
 14975 004c 80000000 		.4byte	.LFE52-.LFB52
 14976 0050 00000000 		.4byte	.LFB53
 14977 0054 B4000000 		.4byte	.LFE53-.LFB53
 14978 0058 00000000 		.4byte	.LFB54
 14979 005c 30010000 		.4byte	.LFE54-.LFB54
 14980 0060 00000000 		.4byte	.LFB55
 14981 0064 FC020000 		.4byte	.LFE55-.LFB55
 14982 0068 00000000 		.4byte	.LFB56
 14983 006c 70000000 		.4byte	.LFE56-.LFB56
 14984 0070 00000000 		.4byte	.LFB57
 14985 0074 1C010000 		.4byte	.LFE57-.LFB57
 14986 0078 00000000 		.4byte	.LFB58
 14987 007c 06000000 		.4byte	.LFE58-.LFB58
 14988 0080 00000000 		.4byte	.LFB59
 14989 0084 74000000 		.4byte	.LFE59-.LFB59
 14990 0088 00000000 		.4byte	.LFB60
 14991 008c 02000000 		.4byte	.LFE60-.LFB60
 14992 0090 00000000 		.4byte	.LFB61
 14993 0094 34000000 		.4byte	.LFE61-.LFB61
 14994 0098 00000000 		.4byte	.LFB62
 14995 009c 08020000 		.4byte	.LFE62-.LFB62
 14996 00a0 00000000 		.4byte	.LFB63
 14997 00a4 E8000000 		.4byte	.LFE63-.LFB63
 14998 00a8 00000000 		.4byte	.LFB64
 14999 00ac 30000000 		.4byte	.LFE64-.LFB64
 15000 00b0 00000000 		.4byte	.LFB65
 15001 00b4 8C000000 		.4byte	.LFE65-.LFB65
ARM GAS  C:\Users\EBANO_~1\AppData\Local\Temp\ccLo4wHn.s 			page 292


 15002 00b8 00000000 		.4byte	.LFB66
 15003 00bc 0E000000 		.4byte	.LFE66-.LFB66
 15004 00c0 00000000 		.4byte	.LFB67
 15005 00c4 38000000 		.4byte	.LFE67-.LFB67
 15006 00c8 00000000 		.4byte	0
 15007 00cc 00000000 		.4byte	0
 15008              		.section	.debug_ranges,"",%progbits
 15009              	.Ldebug_ranges0:
 15010 0000 32000000 		.4byte	.LBB31
 15011 0004 34000000 		.4byte	.LBE31
 15012 0008 36000000 		.4byte	.LBB48
 15013 000c 3C000000 		.4byte	.LBE48
 15014 0010 3E000000 		.4byte	.LBB49
 15015 0014 40010000 		.4byte	.LBE49
 15016 0018 00000000 		.4byte	0
 15017 001c 00000000 		.4byte	0
 15018 0020 32000000 		.4byte	.LBB32
 15019 0024 34000000 		.4byte	.LBE32
 15020 0028 36000000 		.4byte	.LBB37
 15021 002c 3C000000 		.4byte	.LBE37
 15022 0030 3E000000 		.4byte	.LBB38
 15023 0034 42000000 		.4byte	.LBE38
 15024 0038 4A000000 		.4byte	.LBB39
 15025 003c 68000000 		.4byte	.LBE39
 15026 0040 00000000 		.4byte	0
 15027 0044 00000000 		.4byte	0
 15028 0048 DA000000 		.4byte	.LBB42
 15029 004c DC000000 		.4byte	.LBE42
 15030 0050 DE000000 		.4byte	.LBB47
 15031 0054 FE000000 		.4byte	.LBE47
 15032 0058 00000000 		.4byte	0
 15033 005c 00000000 		.4byte	0
 15034 0060 18000000 		.4byte	.LBB50
 15035 0064 1C000000 		.4byte	.LBE50
 15036 0068 1E000000 		.4byte	.LBB54
 15037 006c 32000000 		.4byte	.LBE54
 15038 0070 6A000000 		.4byte	.LBB55
 15039 0074 80000000 		.4byte	.LBE55
 15040 0078 00000000 		.4byte	0
 15041 007c 00000000 		.4byte	0
 15042 0080 2E000000 		.4byte	.LBB56
 15043 0084 30000000 		.4byte	.LBE56
 15044 0088 36000000 		.4byte	.LBB61
 15045 008c 38000000 		.4byte	.LBE61
 15046 0090 3A000000 		.4byte	.LBB62
 15047 0094 4E000000 		.4byte	.LBE62
 15048 0098 50000000 		.4byte	.LBB67
 15049 009c 52000000 		.4byte	.LBE67
 15050 00a0 00000000 		.4byte	0
 15051 00a4 00000000 		.4byte	0
 15052 00a8 4E000000 		.4byte	.LBB63
 15053 00ac 50000000 		.4byte	.LBE63
 15054 00b0 52000000 		.4byte	.LBB68
 15055 00b4 68000000 		.4byte	.LBE68
 15056 00b8 04010000 		.4byte	.LBB73
 15057 00bc 30010000 		.4byte	.LBE73
 15058 00c0 00000000 		.4byte	0
ARM GAS  C:\Users\EBANO_~1\AppData\Local\Temp\ccLo4wHn.s 			page 293


 15059 00c4 00000000 		.4byte	0
 15060 00c8 6C000000 		.4byte	.LBB69
 15061 00cc 78000000 		.4byte	.LBE69
 15062 00d0 FE000000 		.4byte	.LBB72
 15063 00d4 04010000 		.4byte	.LBE72
 15064 00d8 00000000 		.4byte	0
 15065 00dc 00000000 		.4byte	0
 15066 00e0 22000000 		.4byte	.LBB79
 15067 00e4 28000000 		.4byte	.LBE79
 15068 00e8 5C000000 		.4byte	.LBB80
 15069 00ec 50010000 		.4byte	.LBE80
 15070 00f0 E6010000 		.4byte	.LBB81
 15071 00f4 D2020000 		.4byte	.LBE81
 15072 00f8 E8020000 		.4byte	.LBB82
 15073 00fc FC020000 		.4byte	.LBE82
 15074 0100 00000000 		.4byte	0
 15075 0104 00000000 		.4byte	0
 15076 0108 02000000 		.4byte	.LBB87
 15077 010c 04000000 		.4byte	.LBE87
 15078 0110 06000000 		.4byte	.LBB96
 15079 0114 08000000 		.4byte	.LBE96
 15080 0118 0C000000 		.4byte	.LBB97
 15081 011c 22000000 		.4byte	.LBE97
 15082 0120 50000000 		.4byte	.LBB98
 15083 0124 5C000000 		.4byte	.LBE98
 15084 0128 00000000 		.4byte	0
 15085 012c 00000000 		.4byte	0
 15086 0130 16000000 		.4byte	.LBB89
 15087 0134 22000000 		.4byte	.LBE89
 15088 0138 50000000 		.4byte	.LBB92
 15089 013c 5C000000 		.4byte	.LBE92
 15090 0140 00000000 		.4byte	0
 15091 0144 00000000 		.4byte	0
 15092 0148 12000000 		.4byte	.LBB107
 15093 014c 16000000 		.4byte	.LBE107
 15094 0150 78000000 		.4byte	.LBB127
 15095 0154 98000000 		.4byte	.LBE127
 15096 0158 00000000 		.4byte	0
 15097 015c 00000000 		.4byte	0
 15098 0160 20000000 		.4byte	.LBB110
 15099 0164 74000000 		.4byte	.LBE110
 15100 0168 A0000000 		.4byte	.LBB128
 15101 016c B8000000 		.4byte	.LBE128
 15102 0170 BA000000 		.4byte	.LBB129
 15103 0174 FA000000 		.4byte	.LBE129
 15104 0178 FC000000 		.4byte	.LBB130
 15105 017c 04010000 		.4byte	.LBE130
 15106 0180 00000000 		.4byte	0
 15107 0184 00000000 		.4byte	0
 15108 0188 56000000 		.4byte	.LBB112
 15109 018c 5A000000 		.4byte	.LBE112
 15110 0190 68000000 		.4byte	.LBB121
 15111 0194 70000000 		.4byte	.LBE121
 15112 0198 A0000000 		.4byte	.LBB122
 15113 019c B8000000 		.4byte	.LBE122
 15114 01a0 BA000000 		.4byte	.LBB123
 15115 01a4 D4000000 		.4byte	.LBE123
ARM GAS  C:\Users\EBANO_~1\AppData\Local\Temp\ccLo4wHn.s 			page 294


 15116 01a8 00000000 		.4byte	0
 15117 01ac 00000000 		.4byte	0
 15118 01b0 A8000000 		.4byte	.LBB114
 15119 01b4 B8000000 		.4byte	.LBE114
 15120 01b8 BA000000 		.4byte	.LBB117
 15121 01bc D4000000 		.4byte	.LBE117
 15122 01c0 00000000 		.4byte	0
 15123 01c4 00000000 		.4byte	0
 15124 01c8 02000000 		.4byte	.LBB135
 15125 01cc 04000000 		.4byte	.LBE135
 15126 01d0 06000000 		.4byte	.LBB144
 15127 01d4 08000000 		.4byte	.LBE144
 15128 01d8 0C000000 		.4byte	.LBB145
 15129 01dc 2C000000 		.4byte	.LBE145
 15130 01e0 38000000 		.4byte	.LBB146
 15131 01e4 42000000 		.4byte	.LBE146
 15132 01e8 00000000 		.4byte	0
 15133 01ec 00000000 		.4byte	0
 15134 01f0 16000000 		.4byte	.LBB137
 15135 01f4 2C000000 		.4byte	.LBE137
 15136 01f8 38000000 		.4byte	.LBB140
 15137 01fc 42000000 		.4byte	.LBE140
 15138 0200 00000000 		.4byte	0
 15139 0204 00000000 		.4byte	0
 15140 0208 70000000 		.4byte	.LBB152
 15141 020c EA000000 		.4byte	.LBE152
 15142 0210 2A010000 		.4byte	.LBB164
 15143 0214 92010000 		.4byte	.LBE164
 15144 0218 E6010000 		.4byte	.LBB166
 15145 021c F6010000 		.4byte	.LBE166
 15146 0220 00000000 		.4byte	0
 15147 0224 00000000 		.4byte	0
 15148 0228 74000000 		.4byte	.LBB154
 15149 022c EA000000 		.4byte	.LBE154
 15150 0230 2E010000 		.4byte	.LBB159
 15151 0234 34010000 		.4byte	.LBE159
 15152 0238 36010000 		.4byte	.LBB160
 15153 023c 92010000 		.4byte	.LBE160
 15154 0240 E6010000 		.4byte	.LBB161
 15155 0244 F6010000 		.4byte	.LBE161
 15156 0248 00000000 		.4byte	0
 15157 024c 00000000 		.4byte	0
 15158 0250 4E000000 		.4byte	.LBB171
 15159 0254 50000000 		.4byte	.LBE171
 15160 0258 54000000 		.4byte	.LBB183
 15161 025c 6C000000 		.4byte	.LBE183
 15162 0260 6E000000 		.4byte	.LBB184
 15163 0264 72000000 		.4byte	.LBE184
 15164 0268 78000000 		.4byte	.LBB185
 15165 026c 80000000 		.4byte	.LBE185
 15166 0270 90000000 		.4byte	.LBB186
 15167 0274 A4000000 		.4byte	.LBE186
 15168 0278 00000000 		.4byte	0
 15169 027c 00000000 		.4byte	0
 15170 0280 5C000000 		.4byte	.LBB173
 15171 0284 6C000000 		.4byte	.LBE173
 15172 0288 6E000000 		.4byte	.LBB177
ARM GAS  C:\Users\EBANO_~1\AppData\Local\Temp\ccLo4wHn.s 			page 295


 15173 028c 72000000 		.4byte	.LBE177
 15174 0290 90000000 		.4byte	.LBB178
 15175 0294 A4000000 		.4byte	.LBE178
 15176 0298 00000000 		.4byte	0
 15177 029c 00000000 		.4byte	0
 15178 02a0 1C000000 		.4byte	.LBB187
 15179 02a4 26000000 		.4byte	.LBE187
 15180 02a8 28000000 		.4byte	.LBB191
 15181 02ac 2E000000 		.4byte	.LBE191
 15182 02b0 36000000 		.4byte	.LBB196
 15183 02b4 38000000 		.4byte	.LBE196
 15184 02b8 00000000 		.4byte	0
 15185 02bc 00000000 		.4byte	0
 15186 02c0 34000000 		.4byte	.LBB192
 15187 02c4 36000000 		.4byte	.LBE192
 15188 02c8 38000000 		.4byte	.LBB197
 15189 02cc 40000000 		.4byte	.LBE197
 15190 02d0 70000000 		.4byte	.LBB198
 15191 02d4 8C000000 		.4byte	.LBE198
 15192 02d8 00000000 		.4byte	0
 15193 02dc 00000000 		.4byte	0
 15194 02e0 00000000 		.4byte	.LFB45
 15195 02e4 0C010000 		.4byte	.LFE45
 15196 02e8 00000000 		.4byte	.LFB46
 15197 02ec 24000000 		.4byte	.LFE46
 15198 02f0 00000000 		.4byte	.LFB47
 15199 02f4 94000000 		.4byte	.LFE47
 15200 02f8 00000000 		.4byte	.LFB48
 15201 02fc 0C000000 		.4byte	.LFE48
 15202 0300 00000000 		.4byte	.LFB49
 15203 0304 3C000000 		.4byte	.LFE49
 15204 0308 00000000 		.4byte	.LFB50
 15205 030c 40010000 		.4byte	.LFE50
 15206 0310 00000000 		.4byte	.LFB51
 15207 0314 34000000 		.4byte	.LFE51
 15208 0318 00000000 		.4byte	.LFB52
 15209 031c 80000000 		.4byte	.LFE52
 15210 0320 00000000 		.4byte	.LFB53
 15211 0324 B4000000 		.4byte	.LFE53
 15212 0328 00000000 		.4byte	.LFB54
 15213 032c 30010000 		.4byte	.LFE54
 15214 0330 00000000 		.4byte	.LFB55
 15215 0334 FC020000 		.4byte	.LFE55
 15216 0338 00000000 		.4byte	.LFB56
 15217 033c 70000000 		.4byte	.LFE56
 15218 0340 00000000 		.4byte	.LFB57
 15219 0344 1C010000 		.4byte	.LFE57
 15220 0348 00000000 		.4byte	.LFB58
 15221 034c 06000000 		.4byte	.LFE58
 15222 0350 00000000 		.4byte	.LFB59
 15223 0354 74000000 		.4byte	.LFE59
 15224 0358 00000000 		.4byte	.LFB60
 15225 035c 02000000 		.4byte	.LFE60
 15226 0360 00000000 		.4byte	.LFB61
 15227 0364 34000000 		.4byte	.LFE61
 15228 0368 00000000 		.4byte	.LFB62
 15229 036c 08020000 		.4byte	.LFE62
ARM GAS  C:\Users\EBANO_~1\AppData\Local\Temp\ccLo4wHn.s 			page 296


 15230 0370 00000000 		.4byte	.LFB63
 15231 0374 E8000000 		.4byte	.LFE63
 15232 0378 00000000 		.4byte	.LFB64
 15233 037c 30000000 		.4byte	.LFE64
 15234 0380 00000000 		.4byte	.LFB65
 15235 0384 8C000000 		.4byte	.LFE65
 15236 0388 00000000 		.4byte	.LFB66
 15237 038c 0E000000 		.4byte	.LFE66
 15238 0390 00000000 		.4byte	.LFB67
 15239 0394 38000000 		.4byte	.LFE67
 15240 0398 00000000 		.4byte	0
 15241 039c 00000000 		.4byte	0
 15242              		.section	.debug_line,"",%progbits
 15243              	.Ldebug_line0:
 15244 0000 83090000 		.section	.debug_str,"MS",%progbits,1
 15244      0200B303 
 15244      00000201 
 15244      FB0E0D00 
 15244      01010101 
 15245              	.LASF217:
 15246 0000 52585F53 		.ascii	"RX_SLOT_WIN_CLASS_C\000"
 15246      4C4F545F 
 15246      57494E5F 
 15246      434C4153 
 15246      535F4300 
 15247              	.LASF415:
 15248 0014 73526567 		.ascii	"sRegionCommonLinkAdrReqVerifyParams\000"
 15248      696F6E43 
 15248      6F6D6D6F 
 15248      6E4C696E 
 15248      6B416472 
 15249              	.LASF266:
 15250 0038 5048595F 		.ascii	"PHY_JOIN_ACCEPT_DELAY1\000"
 15250      4A4F494E 
 15250      5F414343 
 15250      4550545F 
 15250      44454C41 
 15251              	.LASF267:
 15252 004f 5048595F 		.ascii	"PHY_JOIN_ACCEPT_DELAY2\000"
 15252      4A4F494E 
 15252      5F414343 
 15252      4550545F 
 15252      44454C41 
 15253              	.LASF313:
 15254 0066 52667531 		.ascii	"Rfu1Size\000"
 15254      53697A65 
 15254      00
 15255              	.LASF528:
 15256 006f 52656769 		.ascii	"RegionKR920SetBandTxDone\000"
 15256      6F6E4B52 
 15256      39323053 
 15256      65744261 
 15256      6E645478 
 15257              	.LASF142:
 15258 0088 52657669 		.ascii	"Revision\000"
 15258      73696F6E 
 15258      00
ARM GAS  C:\Users\EBANO_~1\AppData\Local\Temp\ccLo4wHn.s 			page 297


 15259              	.LASF427:
 15260 0091 44617461 		.ascii	"Datarates\000"
 15260      72617465 
 15260      7300
 15261              	.LASF3:
 15262 009b 5F5F7569 		.ascii	"__uint8_t\000"
 15262      6E74385F 
 15262      7400
 15263              	.LASF311:
 15264 00a5 73426561 		.ascii	"sBeaconFormat\000"
 15264      636F6E46 
 15264      6F726D61 
 15264      7400
 15265              	.LASF361:
 15266 00b3 5278436F 		.ascii	"RxConfigParams_t\000"
 15266      6E666967 
 15266      50617261 
 15266      6D735F74 
 15266      00
 15267              	.LASF148:
 15268 00c4 5F426F6F 		.ascii	"_Bool\000"
 15268      6C00
 15269              	.LASF80:
 15270 00ca 5F6D6273 		.ascii	"_mbstate\000"
 15270      74617465 
 15270      00
 15271              	.LASF516:
 15272 00d3 6368616E 		.ascii	"chanMaskSet\000"
 15272      4D61736B 
 15272      53657400 
 15273              	.LASF59:
 15274 00df 5F617465 		.ascii	"_atexit\000"
 15274      78697400 
 15275              	.LASF296:
 15276 00e7 5048595F 		.ascii	"PHY_BEACON_FORMAT\000"
 15276      42454143 
 15276      4F4E5F46 
 15276      4F524D41 
 15276      5400
 15277              	.LASF49:
 15278 00f9 5F5F746D 		.ascii	"__tm_mon\000"
 15278      5F6D6F6E 
 15278      00
 15279              	.LASF57:
 15280 0102 5F666E74 		.ascii	"_fntypes\000"
 15280      79706573 
 15280      00
 15281              	.LASF436:
 15282 010b 73526567 		.ascii	"sRegionKR920NvmCtx\000"
 15282      696F6E4B 
 15282      52393230 
 15282      4E766D43 
 15282      747800
 15283              	.LASF87:
 15284 011e 5F696E63 		.ascii	"_inc\000"
 15284      00
 15285              	.LASF60:
ARM GAS  C:\Users\EBANO_~1\AppData\Local\Temp\ccLo4wHn.s 			page 298


 15286 0123 5F696E64 		.ascii	"_ind\000"
 15286      00
 15287              	.LASF196:
 15288 0128 57726974 		.ascii	"WriteBuffer\000"
 15288      65427566 
 15288      66657200 
 15289              	.LASF171:
 15290 0134 52784572 		.ascii	"RxError\000"
 15290      726F7200 
 15291              	.LASF478:
 15292 013c 52656769 		.ascii	"RegionKR920DlChannelReq\000"
 15292      6F6E4B52 
 15292      39323044 
 15292      6C436861 
 15292      6E6E656C 
 15293              	.LASF19:
 15294 0154 75696E74 		.ascii	"uint16_t\000"
 15294      31365F74 
 15294      00
 15295              	.LASF197:
 15296 015d 52656164 		.ascii	"ReadBuffer\000"
 15296      42756666 
 15296      657200
 15297              	.LASF430:
 15298 0168 52656769 		.ascii	"RegionCommonRxBeaconSetupParams_t\000"
 15298      6F6E436F 
 15298      6D6D6F6E 
 15298      52784265 
 15298      61636F6E 
 15299              	.LASF66:
 15300 018a 5F666C61 		.ascii	"_flags\000"
 15300      677300
 15301              	.LASF310:
 15302 0191 4368616E 		.ascii	"ChannelsMask_t\000"
 15302      6E656C73 
 15302      4D61736B 
 15302      5F7400
 15303              	.LASF97:
 15304 01a0 5F637674 		.ascii	"_cvtlen\000"
 15304      6C656E00 
 15305              	.LASF230:
 15306 01a8 4C4F5241 		.ascii	"LORAMAC_STATUS_NO_NETWORK_JOINED\000"
 15306      4D41435F 
 15306      53544154 
 15306      55535F4E 
 15306      4F5F4E45 
 15307              	.LASF101:
 15308 01c9 5F736967 		.ascii	"_sig_func\000"
 15308      5F66756E 
 15308      6300
 15309              	.LASF515:
 15310 01d3 52656769 		.ascii	"RegionKR920ChanMaskSet\000"
 15310      6F6E4B52 
 15310      39323043 
 15310      68616E4D 
 15310      61736B53 
 15311              	.LASF370:
ARM GAS  C:\Users\EBANO_~1\AppData\Local\Temp\ccLo4wHn.s 			page 299


 15312 01ea 41647245 		.ascii	"AdrEnabled\000"
 15312      6E61626C 
 15312      656400
 15313              	.LASF283:
 15314 01f5 5048595F 		.ascii	"PHY_BEACON_RESERVED\000"
 15314      42454143 
 15314      4F4E5F52 
 15314      45534552 
 15314      56454400 
 15315              	.LASF393:
 15316 0209 54785469 		.ascii	"TxTimeOnAir\000"
 15316      6D654F6E 
 15316      41697200 
 15317              	.LASF79:
 15318 0215 5F6C6F63 		.ascii	"_lock\000"
 15318      6B00
 15319              	.LASF75:
 15320 021b 5F6E6275 		.ascii	"_nbuf\000"
 15320      6600
 15321              	.LASF134:
 15322 0221 5F756E75 		.ascii	"_unused\000"
 15322      73656400 
 15323              	.LASF550:
 15324 0229 72616E64 		.ascii	"randr\000"
 15324      7200
 15325              	.LASF397:
 15326 022f 4C617374 		.ascii	"LastAggrTx\000"
 15326      41676772 
 15326      547800
 15327              	.LASF398:
 15328 023a 4E657874 		.ascii	"NextChanParams_t\000"
 15328      4368616E 
 15328      50617261 
 15328      6D735F74 
 15328      00
 15329              	.LASF170:
 15330 024b 52785469 		.ascii	"RxTimeout\000"
 15330      6D656F75 
 15330      7400
 15331              	.LASF301:
 15332 0255 50687941 		.ascii	"PhyAttribute_t\000"
 15332      74747269 
 15332      62757465 
 15332      5F7400
 15333              	.LASF168:
 15334 0264 54785469 		.ascii	"TxTimeout\000"
 15334      6D656F75 
 15334      7400
 15335              	.LASF150:
 15336 026e 44437963 		.ascii	"DCycle\000"
 15336      6C6500
 15337              	.LASF355:
 15338 0275 44724F66 		.ascii	"DrOffset\000"
 15338      66736574 
 15338      00
 15339              	.LASF284:
 15340 027e 5048595F 		.ascii	"PHY_BEACON_GUARD\000"
ARM GAS  C:\Users\EBANO_~1\AppData\Local\Temp\ccLo4wHn.s 			page 300


 15340      42454143 
 15340      4F4E5F47 
 15340      55415244 
 15340      00
 15341              	.LASF343:
 15342 028f 44617461 		.ascii	"DatarateParams\000"
 15342      72617465 
 15342      50617261 
 15342      6D7300
 15343              	.LASF143:
 15344 029e 4D696E6F 		.ascii	"Minor\000"
 15344      7200
 15345              	.LASF420:
 15346 02a4 4D696E54 		.ascii	"MinTxPower\000"
 15346      78506F77 
 15346      657200
 15347              	.LASF484:
 15348 02af 6E657743 		.ascii	"newChannelReq\000"
 15348      68616E6E 
 15348      656C5265 
 15348      7100
 15349              	.LASF506:
 15350 02bd 52656769 		.ascii	"RegionKR920RxConfig\000"
 15350      6F6E4B52 
 15350      39323052 
 15350      78436F6E 
 15350      66696700 
 15351              	.LASF155:
 15352 02d1 42616E64 		.ascii	"Band_t\000"
 15352      5F7400
 15353              	.LASF396:
 15354 02d8 41676772 		.ascii	"AggrTimeOff\000"
 15354      54696D65 
 15354      4F666600 
 15355              	.LASF20:
 15356 02e4 696E7433 		.ascii	"int32_t\000"
 15356      325F7400 
 15357              	.LASF475:
 15358 02ec 52656769 		.ascii	"RegionKR920AlternateDr\000"
 15358      6F6E4B52 
 15358      39323041 
 15358      6C746572 
 15358      6E617465 
 15359              	.LASF112:
 15360 0303 5F616464 		.ascii	"_add\000"
 15360      00
 15361              	.LASF486:
 15362 0308 72785061 		.ascii	"rxParamSetupReq\000"
 15362      72616D53 
 15362      65747570 
 15362      52657100 
 15363              	.LASF162:
 15364 0318 52465F49 		.ascii	"RF_IDLE\000"
 15364      444C4500 
 15365              	.LASF151:
 15366 0320 54784D61 		.ascii	"TxMaxPower\000"
 15366      78506F77 
ARM GAS  C:\Users\EBANO_~1\AppData\Local\Temp\ccLo4wHn.s 			page 301


 15366      657200
 15367              	.LASF240:
 15368 032b 4C4F5241 		.ascii	"LORAMAC_STATUS_CRYPTO_ERROR\000"
 15368      4D41435F 
 15368      53544154 
 15368      55535F43 
 15368      52595054 
 15369              	.LASF379:
 15370 0347 4368616E 		.ascii	"ChannelId\000"
 15370      6E656C49 
 15370      6400
 15371              	.LASF487:
 15372 0351 52656769 		.ascii	"RegionKR920LinkAdrReq\000"
 15372      6F6E4B52 
 15372      3932304C 
 15372      696E6B41 
 15372      64725265 
 15373              	.LASF375:
 15374 0367 73527850 		.ascii	"sRxParamSetupReqParams\000"
 15374      6172616D 
 15374      53657475 
 15374      70526571 
 15374      50617261 
 15375              	.LASF522:
 15376 037e 76657269 		.ascii	"verify\000"
 15376      667900
 15377              	.LASF566:
 15378 0385 5F5F6275 		.ascii	"__builtin_memset\000"
 15378      696C7469 
 15378      6E5F6D65 
 15378      6D736574 
 15378      00
 15379              	.LASF68:
 15380 0396 5F6C6266 		.ascii	"_lbfsize\000"
 15380      73697A65 
 15380      00
 15381              	.LASF258:
 15382 039f 5048595F 		.ascii	"PHY_DEF_ADR_ACK_LIMIT\000"
 15382      4445465F 
 15382      4144525F 
 15382      41434B5F 
 15382      4C494D49 
 15383              	.LASF175:
 15384 03b5 52616469 		.ascii	"Radio_s\000"
 15384      6F5F7300 
 15385              	.LASF557:
 15386 03bd 6D656D63 		.ascii	"memcpy1\000"
 15386      70793100 
 15387              	.LASF376:
 15388 03c5 52785061 		.ascii	"RxParamSetupReqParams_t\000"
 15388      72616D53 
 15388      65747570 
 15388      52657150 
 15388      6172616D 
 15389              	.LASF520:
 15390 03dd 6368616E 		.ascii	"chanIdx\000"
 15390      49647800 
ARM GAS  C:\Users\EBANO_~1\AppData\Local\Temp\ccLo4wHn.s 			page 302


 15391              	.LASF452:
 15392 03e5 2E2E2F2E 		.ascii	"../../../../../../Middlewares/Third_Party/LoRaWAN/M"
 15392      2E2F2E2E 
 15392      2F2E2E2F 
 15392      2E2E2F2E 
 15392      2E2F4D69 
 15393 0418 61632F72 		.ascii	"ac/region/RegionKR920.c\000"
 15393      6567696F 
 15393      6E2F5265 
 15393      67696F6E 
 15393      4B523932 
 15394              	.LASF541:
 15395 0430 7478506F 		.ascii	"txPowerResult\000"
 15395      77657252 
 15395      6573756C 
 15395      7400
 15396              	.LASF426:
 15397 043e 73526567 		.ascii	"sRegionCommonRxBeaconSetupParams\000"
 15397      696F6E43 
 15397      6F6D6D6F 
 15397      6E527842 
 15397      6561636F 
 15398              	.LASF312:
 15399 045f 42656163 		.ascii	"BeaconSize\000"
 15399      6F6E5369 
 15399      7A6500
 15400              	.LASF198:
 15401 046a 5365744D 		.ascii	"SetMaxPayloadLength\000"
 15401      61785061 
 15401      796C6F61 
 15401      644C656E 
 15401      67746800 
 15402              	.LASF500:
 15403 047e 52656769 		.ascii	"RegionKR920TxConfig\000"
 15403      6F6E4B52 
 15403      39323054 
 15403      78436F6E 
 15403      66696700 
 15404              	.LASF363:
 15405 0492 4D617845 		.ascii	"MaxEirp\000"
 15405      69727000 
 15406              	.LASF537:
 15407 049a 66726571 		.ascii	"freq\000"
 15407      00
 15408              	.LASF157:
 15409 049f 5F646179 		.ascii	"_daylight\000"
 15409      6C696768 
 15409      7400
 15410              	.LASF418:
 15411 04a9 4D696E44 		.ascii	"MinDatarate\000"
 15411      61746172 
 15411      61746500 
 15412              	.LASF222:
 15413 04b5 654C6F52 		.ascii	"eLoRaMacStatus\000"
 15413      614D6163 
 15413      53746174 
 15413      757300
ARM GAS  C:\Users\EBANO_~1\AppData\Local\Temp\ccLo4wHn.s 			page 303


 15414              	.LASF498:
 15415 04c4 70687950 		.ascii	"phyParam\000"
 15415      6172616D 
 15415      00
 15416              	.LASF135:
 15417 04cd 5F5F6C6F 		.ascii	"__lock\000"
 15417      636B00
 15418              	.LASF82:
 15419 04d4 5F726565 		.ascii	"_reent\000"
 15419      6E7400
 15420              	.LASF234:
 15421 04db 4C4F5241 		.ascii	"LORAMAC_STATUS_DUTYCYCLE_RESTRICTED\000"
 15421      4D41435F 
 15421      53544154 
 15421      55535F44 
 15421      55545943 
 15422              	.LASF327:
 15423 04ff 47657450 		.ascii	"GetPhyParams_t\000"
 15423      68795061 
 15423      72616D73 
 15423      5F7400
 15424              	.LASF190:
 15425 050e 5374616E 		.ascii	"Standby\000"
 15425      64627900 
 15426              	.LASF504:
 15427 0516 70687944 		.ascii	"phyDr\000"
 15427      7200
 15428              	.LASF411:
 15429 051c 4E625265 		.ascii	"NbRep\000"
 15429      7000
 15430              	.LASF103:
 15431 0522 5F5F7366 		.ascii	"__sf\000"
 15431      00
 15432              	.LASF63:
 15433 0527 5F626173 		.ascii	"_base\000"
 15433      6500
 15434              	.LASF194:
 15435 052d 57726974 		.ascii	"Write\000"
 15435      6500
 15436              	.LASF121:
 15437 0533 5F6D6274 		.ascii	"_mbtowc_state\000"
 15437      6F77635F 
 15437      73746174 
 15437      6500
 15438              	.LASF306:
 15439 0541 496E6974 		.ascii	"InitType_t\000"
 15439      54797065 
 15439      5F7400
 15440              	.LASF444:
 15441 054c 64617461 		.ascii	"datarate\000"
 15441      72617465 
 15441      00
 15442              	.LASF421:
 15443 0555 4D617854 		.ascii	"MaxTxPower\000"
 15443      78506F77 
 15443      657200
 15444              	.LASF153:
ARM GAS  C:\Users\EBANO_~1\AppData\Local\Temp\ccLo4wHn.s 			page 304


 15445 0560 4C617374 		.ascii	"LastTxDoneTime\000"
 15445      5478446F 
 15445      6E655469 
 15445      6D6500
 15446              	.LASF195:
 15447 056f 52656164 		.ascii	"Read\000"
 15447      00
 15448              	.LASF44:
 15449 0574 5F5F746D 		.ascii	"__tm\000"
 15449      00
 15450              	.LASF558:
 15451 0579 52656769 		.ascii	"RegionCommonParseLinkAdrReq\000"
 15451      6F6E436F 
 15451      6D6D6F6E 
 15451      50617273 
 15451      654C696E 
 15452              	.LASF52:
 15453 0595 5F5F746D 		.ascii	"__tm_yday\000"
 15453      5F796461 
 15453      7900
 15454              	.LASF529:
 15455 059f 7478446F 		.ascii	"txDone\000"
 15455      6E6500
 15456              	.LASF254:
 15457 05a6 5048595F 		.ascii	"PHY_RX_DR\000"
 15457      52585F44 
 15457      5200
 15458              	.LASF477:
 15459 05b0 74797065 		.ascii	"type\000"
 15459      00
 15460              	.LASF399:
 15461 05b5 73436861 		.ascii	"sChannelAddParams\000"
 15461      6E6E656C 
 15461      41646450 
 15461      6172616D 
 15461      7300
 15462              	.LASF28:
 15463 05c7 5F4C4F43 		.ascii	"_LOCK_T\000"
 15463      4B5F5400 
 15464              	.LASF212:
 15465 05cf 44725261 		.ascii	"DrRange\000"
 15465      6E676500 
 15466              	.LASF292:
 15467 05d7 5048595F 		.ascii	"PHY_PING_SLOT_SYMBOL_TO_EXPANSION_FACTOR\000"
 15467      50494E47 
 15467      5F534C4F 
 15467      545F5359 
 15467      4D424F4C 
 15468              	.LASF202:
 15469 0600 5278426F 		.ascii	"RxBoosted\000"
 15469      6F737465 
 15469      6400
 15470              	.LASF5:
 15471 060a 5F5F696E 		.ascii	"__int16_t\000"
 15471      7431365F 
 15471      7400
 15472              	.LASF518:
ARM GAS  C:\Users\EBANO_~1\AppData\Local\Temp\ccLo4wHn.s 			page 305


 15473 0614 6170706C 		.ascii	"applyCFList\000"
 15473      7943464C 
 15473      69737400 
 15474              	.LASF7:
 15475 0620 5F5F7569 		.ascii	"__uint16_t\000"
 15475      6E743136 
 15475      5F7400
 15476              	.LASF270:
 15477 062b 5048595F 		.ascii	"PHY_DEF_DR1_OFFSET\000"
 15477      4445465F 
 15477      4452315F 
 15477      4F464653 
 15477      455400
 15478              	.LASF113:
 15479 063e 5F756E75 		.ascii	"_unused_rand\000"
 15479      7365645F 
 15479      72616E64 
 15479      00
 15480              	.LASF339:
 15481 064b 73446174 		.ascii	"sDatarateParams\000"
 15481      61726174 
 15481      65506172 
 15481      616D7300 
 15482              	.LASF274:
 15483 065b 5048595F 		.ascii	"PHY_CHANNELS_DEFAULT_MASK\000"
 15483      4348414E 
 15483      4E454C53 
 15483      5F444546 
 15483      41554C54 
 15484              	.LASF447:
 15485 0675 636F6E74 		.ascii	"continuousWave\000"
 15485      696E756F 
 15485      75735761 
 15485      766500
 15486              	.LASF449:
 15487 0684 70687954 		.ascii	"phyTxPower\000"
 15487      78506F77 
 15487      657200
 15488              	.LASF406:
 15489 068f 73527842 		.ascii	"sRxBeaconSetupParams\000"
 15489      6561636F 
 15489      6E536574 
 15489      75705061 
 15489      72616D73 
 15490              	.LASF357:
 15491 06a4 57696E64 		.ascii	"WindowOffset\000"
 15491      6F774F66 
 15491      66736574 
 15491      00
 15492              	.LASF285:
 15493 06b1 5048595F 		.ascii	"PHY_BEACON_WINDOW\000"
 15493      42454143 
 15493      4F4E5F57 
 15493      494E444F 
 15493      5700
 15494              	.LASF94:
 15495 06c3 5F726573 		.ascii	"_result_k\000"
ARM GAS  C:\Users\EBANO_~1\AppData\Local\Temp\ccLo4wHn.s 			page 306


 15495      756C745F 
 15495      6B00
 15496              	.LASF86:
 15497 06cd 5F737464 		.ascii	"_stderr\000"
 15497      65727200 
 15498              	.LASF93:
 15499 06d5 5F726573 		.ascii	"_result\000"
 15499      756C7400 
 15500              	.LASF428:
 15501 06dd 42656163 		.ascii	"BeaconDatarate\000"
 15501      6F6E4461 
 15501      74617261 
 15501      746500
 15502              	.LASF56:
 15503 06ec 5F64736F 		.ascii	"_dso_handle\000"
 15503      5F68616E 
 15503      646C6500 
 15504              	.LASF389:
 15505 06f8 7343616C 		.ascii	"sCalcBackOffParams\000"
 15505      63426163 
 15505      6B4F6666 
 15505      50617261 
 15505      6D7300
 15506              	.LASF432:
 15507 070b 44617461 		.ascii	"DataratesKR920\000"
 15507      72617465 
 15507      734B5239 
 15507      323000
 15508              	.LASF51:
 15509 071a 5F5F746D 		.ascii	"__tm_wday\000"
 15509      5F776461 
 15509      7900
 15510              	.LASF53:
 15511 0724 5F5F746D 		.ascii	"__tm_isdst\000"
 15511      5F697364 
 15511      737400
 15512              	.LASF469:
 15513 072f 64656C61 		.ascii	"delayTx\000"
 15513      79547800 
 15514              	.LASF563:
 15515 0737 52656769 		.ascii	"RegionCommonChanMaskCopy\000"
 15515      6F6E436F 
 15515      6D6D6F6E 
 15515      4368616E 
 15515      4D61736B 
 15516              	.LASF231:
 15517 0750 4C4F5241 		.ascii	"LORAMAC_STATUS_LENGTH_ERROR\000"
 15517      4D41435F 
 15517      53544154 
 15517      55535F4C 
 15517      454E4754 
 15518              	.LASF154:
 15519 076c 54696D65 		.ascii	"TimeOff\000"
 15519      4F666600 
 15520              	.LASF4:
 15521 0774 756E7369 		.ascii	"unsigned char\000"
 15521      676E6564 
ARM GAS  C:\Users\EBANO_~1\AppData\Local\Temp\ccLo4wHn.s 			page 307


 15521      20636861 
 15521      7200
 15522              	.LASF85:
 15523 0782 5F737464 		.ascii	"_stdout\000"
 15523      6F757400 
 15524              	.LASF336:
 15525 078a 73476574 		.ascii	"sGetNvmCtxParams\000"
 15525      4E766D43 
 15525      74785061 
 15525      72616D73 
 15525      00
 15526              	.LASF128:
 15527 079b 5F6D6273 		.ascii	"_mbsrtowcs_state\000"
 15527      72746F77 
 15527      63735F73 
 15527      74617465 
 15527      00
 15528              	.LASF42:
 15529 07ac 5F776473 		.ascii	"_wds\000"
 15529      00
 15530              	.LASF208:
 15531 07b1 44725261 		.ascii	"DrRange_t\000"
 15531      6E67655F 
 15531      7400
 15532              	.LASF0:
 15533 07bb 666C6F61 		.ascii	"float\000"
 15533      7400
 15534              	.LASF526:
 15535 07c1 52656769 		.ascii	"RegionKR920InitDefaults\000"
 15535      6F6E4B52 
 15535      39323049 
 15535      6E697444 
 15535      65666175 
 15536              	.LASF517:
 15537 07d9 52656769 		.ascii	"RegionKR920ApplyCFList\000"
 15537      6F6E4B52 
 15537      39323041 
 15537      70706C79 
 15537      43464C69 
 15538              	.LASF453:
 15539 07f0 443A5C67 		.ascii	"D:\\git_pessoal\\keil_gcc\\STM32CubeExpansion_LRWAN"
 15539      69745F70 
 15539      6573736F 
 15539      616C5C6B 
 15539      65696C5F 
 15540 0820 5F56312E 		.ascii	"_V1.2.1\\Projects\\B-L072Z-LRWAN1\\Applications\\Lo"
 15540      322E315C 
 15540      50726F6A 
 15540      65637473 
 15540      5C422D4C 
 15541 084f 52615C45 		.ascii	"Ra\\End_Node\\MDK-ARM\000"
 15541      6E645F4E 
 15541      6F64655C 
 15541      4D444B2D 
 15541      41524D00 
 15542              	.LASF271:
 15543 0863 5048595F 		.ascii	"PHY_DEF_RX2_FREQUENCY\000"
ARM GAS  C:\Users\EBANO_~1\AppData\Local\Temp\ccLo4wHn.s 			page 308


 15543      4445465F 
 15543      5258325F 
 15543      46524551 
 15543      55454E43 
 15544              	.LASF323:
 15545 0879 41747472 		.ascii	"Attribute\000"
 15545      69627574 
 15545      6500
 15546              	.LASF247:
 15547 0883 65506879 		.ascii	"ePhyAttribute\000"
 15547      41747472 
 15547      69627574 
 15547      6500
 15548              	.LASF64:
 15549 0891 5F73697A 		.ascii	"_size\000"
 15549      6500
 15550              	.LASF530:
 15551 0897 52656769 		.ascii	"RegionKR920GetPhyParam\000"
 15551      6F6E4B52 
 15551      39323047 
 15551      65745068 
 15551      79506172 
 15552              	.LASF368:
 15553 08ae 56657273 		.ascii	"Version\000"
 15553      696F6E00 
 15554              	.LASF71:
 15555 08b6 5F777269 		.ascii	"_write\000"
 15555      746500
 15556              	.LASF385:
 15557 08bd 65416C74 		.ascii	"eAlternateDrType\000"
 15557      65726E61 
 15557      74654472 
 15557      54797065 
 15557      00
 15558              	.LASF412:
 15559 08ce 43684D61 		.ascii	"ChMaskCtrl\000"
 15559      736B4374 
 15559      726C00
 15560              	.LASF177:
 15561 08d9 496F4465 		.ascii	"IoDeInit\000"
 15561      496E6974 
 15561      00
 15562              	.LASF180:
 15563 08e2 5365744D 		.ascii	"SetModem\000"
 15563      6F64656D 
 15563      00
 15564              	.LASF433:
 15565 08eb 42616E64 		.ascii	"BandwidthsKR920\000"
 15565      77696474 
 15565      68734B52 
 15565      39323000 
 15566              	.LASF360:
 15567 08fb 5278536C 		.ascii	"RxSlot\000"
 15567      6F7400
 15568              	.LASF226:
 15569 0902 4C4F5241 		.ascii	"LORAMAC_STATUS_PARAMETER_INVALID\000"
 15569      4D41435F 
ARM GAS  C:\Users\EBANO_~1\AppData\Local\Temp\ccLo4wHn.s 			page 309


 15569      53544154 
 15569      55535F50 
 15569      4152414D 
 15570              	.LASF419:
 15571 0923 4D617844 		.ascii	"MaxDatarate\000"
 15571      61746172 
 15571      61746500 
 15572              	.LASF402:
 15573 092f 4368616E 		.ascii	"ChannelRemoveParams_t\000"
 15573      6E656C52 
 15573      656D6F76 
 15573      65506172 
 15573      616D735F 
 15574              	.LASF167:
 15575 0945 5478446F 		.ascii	"TxDone\000"
 15575      6E6500
 15576              	.LASF535:
 15577 094c 436F756E 		.ascii	"CountNbOfEnabledChannels\000"
 15577      744E624F 
 15577      66456E61 
 15577      626C6564 
 15577      4368616E 
 15578              	.LASF50:
 15579 0965 5F5F746D 		.ascii	"__tm_year\000"
 15579      5F796561 
 15579      7200
 15580              	.LASF207:
 15581 096f 75447252 		.ascii	"uDrRange\000"
 15581      616E6765 
 15581      00
 15582              	.LASF213:
 15583 0978 42616E64 		.ascii	"Band\000"
 15583      00
 15584              	.LASF367:
 15585 097d 734C696E 		.ascii	"sLinkAdrReqParams\000"
 15585      6B416472 
 15585      52657150 
 15585      6172616D 
 15585      7300
 15586              	.LASF356:
 15587 098f 57696E64 		.ascii	"WindowTimeout\000"
 15587      6F775469 
 15587      6D656F75 
 15587      7400
 15588              	.LASF204:
 15589 099d 52616469 		.ascii	"Radio\000"
 15589      6F00
 15590              	.LASF451:
 15591 09a3 474E5520 		.ascii	"GNU C11 7.3.1 20180622 (release) [ARM/embedded-7-br"
 15591      43313120 
 15591      372E332E 
 15591      31203230 
 15591      31383036 
 15592 09d6 616E6368 		.ascii	"anch revision 261907] -mcpu=cortex-m0plus -mthumb -"
 15592      20726576 
 15592      6973696F 
 15592      6E203236 
ARM GAS  C:\Users\EBANO_~1\AppData\Local\Temp\ccLo4wHn.s 			page 310


 15592      31393037 
 15593 0a09 6D666C6F 		.ascii	"mfloat-abi=soft -gdwarf-2 -O3 -ffunction-sections\000"
 15593      61742D61 
 15593      62693D73 
 15593      6F667420 
 15593      2D676477 
 15594              	.LASF111:
 15595 0a3b 5F6D756C 		.ascii	"_mult\000"
 15595      7400
 15596              	.LASF540:
 15597 0a41 6D617842 		.ascii	"maxBandTxPower\000"
 15597      616E6454 
 15597      78506F77 
 15597      657200
 15598              	.LASF494:
 15599 0a50 6E657874 		.ascii	"nextIndex\000"
 15599      496E6465 
 15599      7800
 15600              	.LASF191:
 15601 0a5a 53746172 		.ascii	"StartCad\000"
 15601      74436164 
 15601      00
 15602              	.LASF377:
 15603 0a63 734E6577 		.ascii	"sNewChannelReqParams\000"
 15603      4368616E 
 15603      6E656C52 
 15603      65715061 
 15603      72616D73 
 15604              	.LASF126:
 15605 0a78 5F6D6272 		.ascii	"_mbrlen_state\000"
 15605      6C656E5F 
 15605      73746174 
 15605      6500
 15606              	.LASF512:
 15607 0a86 7278436F 		.ascii	"rxConfigParams\000"
 15607      6E666967 
 15607      50617261 
 15607      6D7300
 15608              	.LASF465:
 15609 0a95 74696D65 		.ascii	"time\000"
 15609      00
 15610              	.LASF552:
 15611 0a9a 52656769 		.ascii	"RegionCommonCountChannels\000"
 15611      6F6E436F 
 15611      6D6D6F6E 
 15611      436F756E 
 15611      74436861 
 15612              	.LASF241:
 15613 0ab4 4C4F5241 		.ascii	"LORAMAC_STATUS_FCNT_HANDLER_ERROR\000"
 15613      4D41435F 
 15613      53544154 
 15613      55535F46 
 15613      434E545F 
 15614              	.LASF496:
 15615 0ad6 63684D61 		.ascii	"chMask\000"
 15615      736B00
 15616              	.LASF380:
ARM GAS  C:\Users\EBANO_~1\AppData\Local\Temp\ccLo4wHn.s 			page 311


 15617 0add 4E657743 		.ascii	"NewChannelReqParams_t\000"
 15617      68616E6E 
 15617      656C5265 
 15617      71506172 
 15617      616D735F 
 15618              	.LASF169:
 15619 0af3 5278446F 		.ascii	"RxDone\000"
 15619      6E6500
 15620              	.LASF84:
 15621 0afa 5F737464 		.ascii	"_stdin\000"
 15621      696E00
 15622              	.LASF248:
 15623 0b01 5048595F 		.ascii	"PHY_MIN_RX_DR\000"
 15623      4D494E5F 
 15623      52585F44 
 15623      5200
 15624              	.LASF133:
 15625 0b0f 5F6E6D61 		.ascii	"_nmalloc\000"
 15625      6C6C6F63 
 15625      00
 15626              	.LASF337:
 15627 0b18 6E766D43 		.ascii	"nvmCtxSize\000"
 15627      74785369 
 15627      7A6500
 15628              	.LASF183:
 15629 0b23 52616E64 		.ascii	"Random\000"
 15629      6F6D00
 15630              	.LASF404:
 15631 0b2a 54696D65 		.ascii	"Timeout\000"
 15631      6F757400 
 15632              	.LASF334:
 15633 0b32 54797065 		.ascii	"Type\000"
 15633      00
 15634              	.LASF371:
 15635 0b37 43757272 		.ascii	"CurrentDatarate\000"
 15635      656E7444 
 15635      61746172 
 15635      61746500 
 15636              	.LASF346:
 15637 0b47 5061796C 		.ascii	"Payload\000"
 15637      6F616400 
 15638              	.LASF263:
 15639 0b4f 5048595F 		.ascii	"PHY_MAX_RX_WINDOW\000"
 15639      4D41585F 
 15639      52585F57 
 15639      494E444F 
 15639      5700
 15640              	.LASF29:
 15641 0b61 5F6F6666 		.ascii	"_off_t\000"
 15641      5F7400
 15642              	.LASF141:
 15643 0b68 56657273 		.ascii	"Version_s\000"
 15643      696F6E5F 
 15643      7300
 15644              	.LASF147:
 15645 0b72 56657273 		.ascii	"Version_t\000"
 15645      696F6E5F 
ARM GAS  C:\Users\EBANO_~1\AppData\Local\Temp\ccLo4wHn.s 			page 312


 15645      7400
 15646              	.LASF206:
 15647 0b7c 56657273 		.ascii	"Version_u\000"
 15647      696F6E5F 
 15647      7500
 15648              	.LASF543:
 15649 0b86 6472496E 		.ascii	"drIndex\000"
 15649      64657800 
 15650              	.LASF26:
 15651 0b8e 73697A65 		.ascii	"size_t\000"
 15651      5F7400
 15652              	.LASF116:
 15653 0b95 5F6C6F63 		.ascii	"_localtime_buf\000"
 15653      616C7469 
 15653      6D655F62 
 15653      756600
 15654              	.LASF34:
 15655 0ba4 5F5F636F 		.ascii	"__count\000"
 15655      756E7400 
 15656              	.LASF17:
 15657 0bac 75696E74 		.ascii	"uint8_t\000"
 15657      385F7400 
 15658              	.LASF290:
 15659 0bb4 5048595F 		.ascii	"PHY_PING_SLOT_SYMBOL_TO_EXPANSION_MAX\000"
 15659      50494E47 
 15659      5F534C4F 
 15659      545F5359 
 15659      4D424F4C 
 15660              	.LASF298:
 15661 0bda 5048595F 		.ascii	"PHY_BEACON_CHANNEL_STEPWIDTH\000"
 15661      42454143 
 15661      4F4E5F43 
 15661      48414E4E 
 15661      454C5F53 
 15662              	.LASF149:
 15663 0bf7 7342616E 		.ascii	"sBand\000"
 15663      6400
 15664              	.LASF249:
 15665 0bfd 5048595F 		.ascii	"PHY_MIN_TX_DR\000"
 15665      4D494E5F 
 15665      54585F44 
 15665      5200
 15666              	.LASF554:
 15667 0c0b 52656769 		.ascii	"RegionCommonUpdateBandTimeOff\000"
 15667      6F6E436F 
 15667      6D6D6F6E 
 15667      55706461 
 15667      74654261 
 15668              	.LASF288:
 15669 0c29 5048595F 		.ascii	"PHY_BEACON_SYMBOL_TO_DEFAULT\000"
 15669      42454143 
 15669      4F4E5F53 
 15669      594D424F 
 15669      4C5F544F 
 15670              	.LASF221:
 15671 0c46 654C6F52 		.ascii	"eLoRaMacRxSlot\000"
 15671      614D6163 
ARM GAS  C:\Users\EBANO_~1\AppData\Local\Temp\ccLo4wHn.s 			page 313


 15671      5278536C 
 15671      6F7400
 15672              	.LASF98:
 15673 0c55 5F637674 		.ascii	"_cvtbuf\000"
 15673      62756600 
 15674              	.LASF414:
 15675 0c5d 52656769 		.ascii	"RegionCommonLinkAdrParams_t\000"
 15675      6F6E436F 
 15675      6D6D6F6E 
 15675      4C696E6B 
 15675      41647250 
 15676              	.LASF335:
 15677 0c79 496E6974 		.ascii	"InitDefaultsParams_t\000"
 15677      44656661 
 15677      756C7473 
 15677      50617261 
 15677      6D735F74 
 15678              	.LASF417:
 15679 0c8e 4E624368 		.ascii	"NbChannels\000"
 15679      616E6E65 
 15679      6C7300
 15680              	.LASF358:
 15681 0c99 52657065 		.ascii	"RepeaterSupport\000"
 15681      61746572 
 15681      53757070 
 15681      6F727400 
 15682              	.LASF219:
 15683 0ca9 52585F53 		.ascii	"RX_SLOT_WIN_MULTICAST_SLOT\000"
 15683      4C4F545F 
 15683      57494E5F 
 15683      4D554C54 
 15683      49434153 
 15684              	.LASF521:
 15685 0cc4 52656769 		.ascii	"RegionKR920Verify\000"
 15685      6F6E4B52 
 15685      39323056 
 15685      65726966 
 15685      7900
 15686              	.LASF203:
 15687 0cd6 53657452 		.ascii	"SetRxDutyCycle\000"
 15687      78447574 
 15687      79437963 
 15687      6C6500
 15688              	.LASF495:
 15689 0ce5 62797465 		.ascii	"bytesProcessed\000"
 15689      7350726F 
 15689      63657373 
 15689      656400
 15690              	.LASF33:
 15691 0cf4 5F5F7763 		.ascii	"__wchb\000"
 15691      686200
 15692              	.LASF127:
 15693 0cfb 5F6D6272 		.ascii	"_mbrtowc_state\000"
 15693      746F7763 
 15693      5F737461 
 15693      746500
 15694              	.LASF47:
ARM GAS  C:\Users\EBANO_~1\AppData\Local\Temp\ccLo4wHn.s 			page 314


 15695 0d0a 5F5F746D 		.ascii	"__tm_hour\000"
 15695      5F686F75 
 15695      7200
 15696              	.LASF159:
 15697 0d14 4D4F4445 		.ascii	"MODEM_FSK\000"
 15697      4D5F4653 
 15697      4B00
 15698              	.LASF473:
 15699 0d1e 63616C63 		.ascii	"calcBackOff\000"
 15699      4261636B 
 15699      4F666600 
 15700              	.LASF348:
 15701 0d2a 4170706C 		.ascii	"ApplyCFListParams_t\000"
 15701      7943464C 
 15701      69737450 
 15701      6172616D 
 15701      735F7400 
 15702              	.LASF260:
 15703 0d3e 5048595F 		.ascii	"PHY_MAX_PAYLOAD\000"
 15703      4D41585F 
 15703      5041594C 
 15703      4F414400 
 15704              	.LASF31:
 15705 0d4e 77696E74 		.ascii	"wint_t\000"
 15705      5F7400
 15706              	.LASF99:
 15707 0d55 5F6E6577 		.ascii	"_new\000"
 15707      00
 15708              	.LASF189:
 15709 0d5a 536C6565 		.ascii	"Sleep\000"
 15709      7000
 15710              	.LASF345:
 15711 0d60 73417070 		.ascii	"sApplyCFListParams\000"
 15711      6C794346 
 15711      4C697374 
 15711      50617261 
 15711      6D7300
 15712              	.LASF107:
 15713 0d73 5F6E696F 		.ascii	"_niobs\000"
 15713      627300
 15714              	.LASF322:
 15715 0d7a 73476574 		.ascii	"sGetPhyParams\000"
 15715      50687950 
 15715      6172616D 
 15715      7300
 15716              	.LASF242:
 15717 0d88 4C4F5241 		.ascii	"LORAMAC_STATUS_MAC_COMMAD_ERROR\000"
 15717      4D41435F 
 15717      53544154 
 15717      55535F4D 
 15717      41435F43 
 15718              	.LASF161:
 15719 0da8 52616469 		.ascii	"RadioModems_t\000"
 15719      6F4D6F64 
 15719      656D735F 
 15719      7400
 15720              	.LASF319:
ARM GAS  C:\Users\EBANO_~1\AppData\Local\Temp\ccLo4wHn.s 			page 315


 15721 0db6 4368616E 		.ascii	"Channels\000"
 15721      6E656C73 
 15721      00
 15722              	.LASF331:
 15723 0dbf 53657442 		.ascii	"SetBandTxDoneParams_t\000"
 15723      616E6454 
 15723      78446F6E 
 15723      65506172 
 15723      616D735F 
 15724              	.LASF462:
 15725 0dd5 52656769 		.ascii	"RegionKR920NextChannel\000"
 15725      6F6E4B52 
 15725      3932304E 
 15725      65787443 
 15725      68616E6E 
 15726              	.LASF466:
 15727 0dec 61676772 		.ascii	"aggregatedTimeOff\000"
 15727      65676174 
 15727      65645469 
 15727      6D654F66 
 15727      6600
 15728              	.LASF83:
 15729 0dfe 5F657272 		.ascii	"_errno\000"
 15729      6E6F00
 15730              	.LASF287:
 15731 0e05 5048595F 		.ascii	"PHY_PING_SLOT_WINDOW\000"
 15731      50494E47 
 15731      5F534C4F 
 15731      545F5749 
 15731      4E444F57 
 15732              	.LASF413:
 15733 0e1a 43684D61 		.ascii	"ChMask\000"
 15733      736B00
 15734              	.LASF48:
 15735 0e21 5F5F746D 		.ascii	"__tm_mday\000"
 15735      5F6D6461 
 15735      7900
 15736              	.LASF55:
 15737 0e2b 5F666E61 		.ascii	"_fnargs\000"
 15737      72677300 
 15738              	.LASF303:
 15739 0e33 494E4954 		.ascii	"INIT_TYPE_INIT\000"
 15739      5F545950 
 15739      455F494E 
 15739      495400
 15740              	.LASF255:
 15741 0e42 5048595F 		.ascii	"PHY_MAX_TX_POWER\000"
 15741      4D41585F 
 15741      54585F50 
 15741      4F574552 
 15741      00
 15742              	.LASF440:
 15743 0e53 6F757444 		.ascii	"outDr\000"
 15743      7200
 15744              	.LASF281:
 15745 0e59 5048595F 		.ascii	"PHY_NEXT_LOWER_TX_DR\000"
 15745      4E455854 
ARM GAS  C:\Users\EBANO_~1\AppData\Local\Temp\ccLo4wHn.s 			page 316


 15745      5F4C4F57 
 15745      45525F54 
 15745      585F4452 
 15746              	.LASF546:
 15747 0e6e 6D696E44 		.ascii	"minDr\000"
 15747      7200
 15748              	.LASF278:
 15749 0e74 5048595F 		.ascii	"PHY_DEF_DOWNLINK_DWELL_TIME\000"
 15749      4445465F 
 15749      444F574E 
 15749      4C494E4B 
 15749      5F445745 
 15750              	.LASF392:
 15751 0e90 456C6170 		.ascii	"ElapsedTime\000"
 15751      73656454 
 15751      696D6500 
 15752              	.LASF289:
 15753 0e9c 5048595F 		.ascii	"PHY_BEACON_SYMBOL_TO_EXPANSION_MAX\000"
 15753      42454143 
 15753      4F4E5F53 
 15753      594D424F 
 15753      4C5F544F 
 15754              	.LASF39:
 15755 0ebf 5F6E6578 		.ascii	"_next\000"
 15755      7400
 15756              	.LASF172:
 15757 0ec5 46687373 		.ascii	"FhssChangeChannel\000"
 15757      4368616E 
 15757      67654368 
 15757      616E6E65 
 15757      6C00
 15758              	.LASF492:
 15759 0ed7 6E624279 		.ascii	"nbBytesParsed\000"
 15759      74657350 
 15759      61727365 
 15759      6400
 15760              	.LASF525:
 15761 0ee5 70617261 		.ascii	"params\000"
 15761      6D7300
 15762              	.LASF124:
 15763 0eec 5F736967 		.ascii	"_signal_buf\000"
 15763      6E616C5F 
 15763      62756600 
 15764              	.LASF472:
 15765 0ef8 52656769 		.ascii	"RegionKR920CalcBackOff\000"
 15765      6F6E4B52 
 15765      39323043 
 15765      616C6342 
 15765      61636B4F 
 15766              	.LASF69:
 15767 0f0f 5F636F6F 		.ascii	"_cookie\000"
 15767      6B696500 
 15768              	.LASF272:
 15769 0f17 5048595F 		.ascii	"PHY_DEF_RX2_DR\000"
 15769      4445465F 
 15769      5258325F 
 15769      445200
ARM GAS  C:\Users\EBANO_~1\AppData\Local\Temp\ccLo4wHn.s 			page 317


 15770              	.LASF545:
 15771 0f26 4765744E 		.ascii	"GetNextLowerTxDr\000"
 15771      6578744C 
 15771      6F776572 
 15771      54784472 
 15771      00
 15772              	.LASF408:
 15773 0f37 52785469 		.ascii	"RxTime\000"
 15773      6D6500
 15774              	.LASF264:
 15775 0f3e 5048595F 		.ascii	"PHY_RECEIVE_DELAY1\000"
 15775      52454345 
 15775      4956455F 
 15775      44454C41 
 15775      593100
 15776              	.LASF265:
 15777 0f51 5048595F 		.ascii	"PHY_RECEIVE_DELAY2\000"
 15777      52454345 
 15777      4956455F 
 15777      44454C41 
 15777      593200
 15778              	.LASF158:
 15779 0f64 5F747A6E 		.ascii	"_tzname\000"
 15779      616D6500 
 15780              	.LASF352:
 15781 0f6c 4368616E 		.ascii	"ChanMaskSetParams_t\000"
 15781      4D61736B 
 15781      53657450 
 15781      6172616D 
 15781      735F7400 
 15782              	.LASF232:
 15783 0f80 4C4F5241 		.ascii	"LORAMAC_STATUS_REGION_NOT_SUPPORTED\000"
 15783      4D41435F 
 15783      53544154 
 15783      55535F52 
 15783      4547494F 
 15784              	.LASF220:
 15785 0fa4 4C6F5261 		.ascii	"LoRaMacRxSlot_t\000"
 15785      4D616352 
 15785      78536C6F 
 15785      745F7400 
 15786              	.LASF163:
 15787 0fb4 52465F52 		.ascii	"RF_RX_RUNNING\000"
 15787      585F5255 
 15787      4E4E494E 
 15787      4700
 15788              	.LASF245:
 15789 0fc2 4C4F5241 		.ascii	"LORAMAC_STATUS_ERROR\000"
 15789      4D41435F 
 15789      53544154 
 15789      55535F45 
 15789      52524F52 
 15790              	.LASF387:
 15791 0fd7 414C5445 		.ascii	"ALTERNATE_DR_RESTORE\000"
 15791      524E4154 
 15791      455F4452 
 15791      5F524553 
ARM GAS  C:\Users\EBANO_~1\AppData\Local\Temp\ccLo4wHn.s 			page 318


 15791      544F5245 
 15792              	.LASF320:
 15793 0fec 42656163 		.ascii	"BeaconFormat\000"
 15793      6F6E466F 
 15793      726D6174 
 15793      00
 15794              	.LASF464:
 15795 0ff9 6368616E 		.ascii	"channel\000"
 15795      6E656C00 
 15796              	.LASF481:
 15797 1001 52656769 		.ascii	"RegionKR920TxParamSetupReq\000"
 15797      6F6E4B52 
 15797      39323054 
 15797      78506172 
 15797      616D5365 
 15798              	.LASF365:
 15799 101c 506B744C 		.ascii	"PktLen\000"
 15799      656E00
 15800              	.LASF179:
 15801 1023 47657453 		.ascii	"GetStatus\000"
 15801      74617475 
 15801      7300
 15802              	.LASF251:
 15803 102d 5048595F 		.ascii	"PHY_MAX_TX_DR\000"
 15803      4D41585F 
 15803      54585F44 
 15803      5200
 15804              	.LASF314:
 15805 103b 52667532 		.ascii	"Rfu2Size\000"
 15805      53697A65 
 15805      00
 15806              	.LASF185:
 15807 1044 53657454 		.ascii	"SetTxConfig\000"
 15807      78436F6E 
 15807      66696700 
 15808              	.LASF214:
 15809 1050 4368616E 		.ascii	"ChannelParams_t\000"
 15809      6E656C50 
 15809      6172616D 
 15809      735F7400 
 15810              	.LASF224:
 15811 1060 4C4F5241 		.ascii	"LORAMAC_STATUS_BUSY\000"
 15811      4D41435F 
 15811      53544154 
 15811      55535F42 
 15811      55535900 
 15812              	.LASF347:
 15813 1074 53697A65 		.ascii	"Size\000"
 15813      00
 15814              	.LASF45:
 15815 1079 5F5F746D 		.ascii	"__tm_sec\000"
 15815      5F736563 
 15815      00
 15816              	.LASF54:
 15817 1082 5F6F6E5F 		.ascii	"_on_exit_args\000"
 15817      65786974 
 15817      5F617267 
ARM GAS  C:\Users\EBANO_~1\AppData\Local\Temp\ccLo4wHn.s 			page 319


 15817      7300
 15818              	.LASF461:
 15819 1090 52656769 		.ascii	"RegionKR920ApplyDrOffset\000"
 15819      6F6E4B52 
 15819      39323041 
 15819      70706C79 
 15819      44724F66 
 15820              	.LASF237:
 15821 10a9 4C4F5241 		.ascii	"LORAMAC_STATUS_BUSY_BEACON_RESERVED_TIME\000"
 15821      4D41435F 
 15821      53544154 
 15821      55535F42 
 15821      5553595F 
 15822              	.LASF491:
 15823 10d2 6E625265 		.ascii	"nbRepOut\000"
 15823      704F7574 
 15823      00
 15824              	.LASF485:
 15825 10db 52656769 		.ascii	"RegionKR920RxParamSetupReq\000"
 15825      6F6E4B52 
 15825      39323052 
 15825      78506172 
 15825      616D5365 
 15826              	.LASF259:
 15827 10f6 5048595F 		.ascii	"PHY_DEF_ADR_ACK_DELAY\000"
 15827      4445465F 
 15827      4144525F 
 15827      41434B5F 
 15827      44454C41 
 15828              	.LASF129:
 15829 110c 5F776372 		.ascii	"_wcrtomb_state\000"
 15829      746F6D62 
 15829      5F737461 
 15829      746500
 15830              	.LASF362:
 15831 111b 73547843 		.ascii	"sTxConfigParams\000"
 15831      6F6E6669 
 15831      67506172 
 15831      616D7300 
 15832              	.LASF166:
 15833 112b 52616469 		.ascii	"RadioState_t\000"
 15833      6F537461 
 15833      74655F74 
 15833      00
 15834              	.LASF565:
 15835 1138 6D656D73 		.ascii	"memset\000"
 15835      657400
 15836              	.LASF559:
 15837 113f 52656769 		.ascii	"RegionCommonLinkAdrReqVerifyParams\000"
 15837      6F6E436F 
 15837      6D6D6F6E 
 15837      4C696E6B 
 15837      41647252 
 15838              	.LASF502:
 15839 1162 7478506F 		.ascii	"txPower\000"
 15839      77657200 
 15840              	.LASF488:
ARM GAS  C:\Users\EBANO_~1\AppData\Local\Temp\ccLo4wHn.s 			page 320


 15841 116a 6C696E6B 		.ascii	"linkAdrReq\000"
 15841      41647252 
 15841      657100
 15842              	.LASF330:
 15843 1175 4A6F696E 		.ascii	"Joined\000"
 15843      656400
 15844              	.LASF16:
 15845 117c 696E7438 		.ascii	"int8_t\000"
 15845      5F7400
 15846              	.LASF236:
 15847 1183 4C4F5241 		.ascii	"LORAMAC_STATUS_NO_FREE_CHANNEL_FOUND\000"
 15847      4D41435F 
 15847      53544154 
 15847      55535F4E 
 15847      4F5F4652 
 15848              	.LASF38:
 15849 11a8 5F5F554C 		.ascii	"__ULong\000"
 15849      6F6E6700 
 15850              	.LASF78:
 15851 11b0 5F646174 		.ascii	"_data\000"
 15851      6100
 15852              	.LASF297:
 15853 11b6 5048595F 		.ascii	"PHY_BEACON_CHANNEL_DR\000"
 15853      42454143 
 15853      4F4E5F43 
 15853      48414E4E 
 15853      454C5F44 
 15854              	.LASF353:
 15855 11cc 73527843 		.ascii	"sRxConfigParams\000"
 15855      6F6E6669 
 15855      67506172 
 15855      616D7300 
 15856              	.LASF145:
 15857 11dc 4669656C 		.ascii	"Fields\000"
 15857      647300
 15858              	.LASF286:
 15859 11e3 5048595F 		.ascii	"PHY_BEACON_WINDOW_SLOTS\000"
 15859      42454143 
 15859      4F4E5F57 
 15859      494E444F 
 15859      575F534C 
 15860              	.LASF114:
 15861 11fb 5F737472 		.ascii	"_strtok_last\000"
 15861      746F6B5F 
 15861      6C617374 
 15861      00
 15862              	.LASF186:
 15863 1208 43686563 		.ascii	"CheckRfFrequency\000"
 15863      6B526646 
 15863      72657175 
 15863      656E6379 
 15863      00
 15864              	.LASF479:
 15865 1219 646C4368 		.ascii	"dlChannelReq\000"
 15865      616E6E65 
 15865      6C526571 
 15865      00
ARM GAS  C:\Users\EBANO_~1\AppData\Local\Temp\ccLo4wHn.s 			page 321


 15866              	.LASF110:
 15867 1226 5F736565 		.ascii	"_seed\000"
 15867      6400
 15868              	.LASF369:
 15869 122c 5061796C 		.ascii	"PayloadSize\000"
 15869      6F616453 
 15869      697A6500 
 15870              	.LASF72:
 15871 1238 5F736565 		.ascii	"_seek\000"
 15871      6B00
 15872              	.LASF211:
 15873 123e 52783146 		.ascii	"Rx1Frequency\000"
 15873      72657175 
 15873      656E6379 
 15873      00
 15874              	.LASF18:
 15875 124b 696E7431 		.ascii	"int16_t\000"
 15875      365F7400 
 15876              	.LASF299:
 15877 1253 5048595F 		.ascii	"PHY_BEACON_NB_CHANNELS\000"
 15877      42454143 
 15877      4F4E5F4E 
 15877      425F4348 
 15877      414E4E45 
 15878              	.LASF8:
 15879 126a 73686F72 		.ascii	"short unsigned int\000"
 15879      7420756E 
 15879      7369676E 
 15879      65642069 
 15879      6E7400
 15880              	.LASF1:
 15881 127d 7369676E 		.ascii	"signed char\000"
 15881      65642063 
 15881      68617200 
 15882              	.LASF381:
 15883 1289 73547850 		.ascii	"sTxParamSetupReqParams\000"
 15883      6172616D 
 15883      53657475 
 15883      70526571 
 15883      50617261 
 15884              	.LASF338:
 15885 12a0 4765744E 		.ascii	"GetNvmCtxParams_t\000"
 15885      766D4374 
 15885      78506172 
 15885      616D735F 
 15885      7400
 15886              	.LASF480:
 15887 12b2 73746174 		.ascii	"status\000"
 15887      757300
 15888              	.LASF384:
 15889 12b9 446C4368 		.ascii	"DlChannelReqParams_t\000"
 15889      616E6E65 
 15889      6C526571 
 15889      50617261 
 15889      6D735F74 
 15890              	.LASF539:
 15891 12ce 4C696D69 		.ascii	"LimitTxPower\000"
ARM GAS  C:\Users\EBANO_~1\AppData\Local\Temp\ccLo4wHn.s 			page 322


 15891      74547850 
 15891      6F776572 
 15891      00
 15892              	.LASF400:
 15893 12db 4368616E 		.ascii	"ChannelAddParams_t\000"
 15893      6E656C41 
 15893      64645061 
 15893      72616D73 
 15893      5F7400
 15894              	.LASF176:
 15895 12ee 496F496E 		.ascii	"IoInit\000"
 15895      697400
 15896              	.LASF96:
 15897 12f5 5F667265 		.ascii	"_freelist\000"
 15897      656C6973 
 15897      7400
 15898              	.LASF435:
 15899 12ff 4D617850 		.ascii	"MaxPayloadOfDatarateRepeaterKR920\000"
 15899      61796C6F 
 15899      61644F66 
 15899      44617461 
 15899      72617465 
 15900              	.LASF429:
 15901 1321 42656163 		.ascii	"BeaconChannelBW\000"
 15901      6F6E4368 
 15901      616E6E65 
 15901      6C425700 
 15902              	.LASF77:
 15903 1331 5F6F6666 		.ascii	"_offset\000"
 15903      73657400 
 15904              	.LASF22:
 15905 1339 53797374 		.ascii	"SystemCoreClock\000"
 15905      656D436F 
 15905      7265436C 
 15905      6F636B00 
 15906              	.LASF326:
 15907 1349 446F776E 		.ascii	"DownlinkDwellTime\000"
 15907      6C696E6B 
 15907      4477656C 
 15907      6C54696D 
 15907      6500
 15908              	.LASF187:
 15909 135b 54696D65 		.ascii	"TimeOnAir\000"
 15909      4F6E4169 
 15909      7200
 15910              	.LASF62:
 15911 1365 5F5F7362 		.ascii	"__sbuf\000"
 15911      756600
 15912              	.LASF123:
 15913 136c 5F6C3634 		.ascii	"_l64a_buf\000"
 15913      615F6275 
 15913      6600
 15914              	.LASF448:
 15915 1376 6D617845 		.ascii	"maxEIRP\000"
 15915      49525000 
 15916              	.LASF321:
 15917 137e 50687950 		.ascii	"PhyParam_t\000"
ARM GAS  C:\Users\EBANO_~1\AppData\Local\Temp\ccLo4wHn.s 			page 323


 15917      6172616D 
 15917      5F7400
 15918              	.LASF328:
 15919 1389 73536574 		.ascii	"sSetBandTxDoneParams\000"
 15919      42616E64 
 15919      5478446F 
 15919      6E655061 
 15919      72616D73 
 15920              	.LASF364:
 15921 139e 416E7465 		.ascii	"AntennaGain\000"
 15921      6E6E6147 
 15921      61696E00 
 15922              	.LASF262:
 15923 13aa 5048595F 		.ascii	"PHY_DUTY_CYCLE\000"
 15923      44555459 
 15923      5F435943 
 15923      4C4500
 15924              	.LASF115:
 15925 13b9 5F617363 		.ascii	"_asctime_buf\000"
 15925      74696D65 
 15925      5F627566 
 15925      00
 15926              	.LASF503:
 15927 13c6 74785469 		.ascii	"txTimeOnAir\000"
 15927      6D654F6E 
 15927      41697200 
 15928              	.LASF32:
 15929 13d2 5F5F7763 		.ascii	"__wch\000"
 15929      6800
 15930              	.LASF458:
 15931 13d8 6368616E 		.ascii	"channelAdd\000"
 15931      6E656C41 
 15931      646400
 15932              	.LASF130:
 15933 13e3 5F776373 		.ascii	"_wcsrtombs_state\000"
 15933      72746F6D 
 15933      62735F73 
 15933      74617465 
 15933      00
 15934              	.LASF391:
 15935 13f4 44757479 		.ascii	"DutyCycleEnabled\000"
 15935      4379636C 
 15935      65456E61 
 15935      626C6564 
 15935      00
 15936              	.LASF476:
 15937 1405 63757272 		.ascii	"currentDr\000"
 15937      656E7444 
 15937      7200
 15938              	.LASF564:
 15939 140f 52656769 		.ascii	"RegionCommonSetBandTxDone\000"
 15939      6F6E436F 
 15939      6D6D6F6E 
 15939      53657442 
 15939      616E6454 
 15940              	.LASF454:
 15941 1429 7478506F 		.ascii	"txPowerLimited\000"
ARM GAS  C:\Users\EBANO_~1\AppData\Local\Temp\ccLo4wHn.s 			page 324


 15941      7765724C 
 15941      696D6974 
 15941      656400
 15942              	.LASF553:
 15943 1438 54696D65 		.ascii	"TimerGetElapsedTime\000"
 15943      72476574 
 15943      456C6170 
 15943      73656454 
 15943      696D6500 
 15944              	.LASF508:
 15945 144c 6D617850 		.ascii	"maxPayload\000"
 15945      61796C6F 
 15945      616400
 15946              	.LASF532:
 15947 1457 6368616E 		.ascii	"channelsMask\000"
 15947      6E656C73 
 15947      4D61736B 
 15947      00
 15948              	.LASF10:
 15949 1464 6C6F6E67 		.ascii	"long int\000"
 15949      20696E74 
 15949      00
 15950              	.LASF122:
 15951 146d 5F776374 		.ascii	"_wctomb_state\000"
 15951      6F6D625F 
 15951      73746174 
 15951      6500
 15952              	.LASF422:
 15953 147b 52656769 		.ascii	"RegionCommonLinkAdrReqVerifyParams_t\000"
 15953      6F6E436F 
 15953      6D6D6F6E 
 15953      4C696E6B 
 15953      41647252 
 15954              	.LASF372:
 15955 14a0 43757272 		.ascii	"CurrentTxPower\000"
 15955      656E7454 
 15955      78506F77 
 15955      657200
 15956              	.LASF424:
 15957 14af 42616E64 		.ascii	"Bands\000"
 15957      7300
 15958              	.LASF308:
 15959 14b5 4348414E 		.ascii	"CHANNELS_MASK\000"
 15959      4E454C53 
 15959      5F4D4153 
 15959      4B00
 15960              	.LASF536:
 15961 14c3 56657269 		.ascii	"VerifyRfFreq\000"
 15961      66795266 
 15961      46726571 
 15961      00
 15962              	.LASF108:
 15963 14d0 5F696F62 		.ascii	"_iobs\000"
 15963      7300
 15964              	.LASF88:
 15965 14d6 5F656D65 		.ascii	"_emergency\000"
 15965      7267656E 
ARM GAS  C:\Users\EBANO_~1\AppData\Local\Temp\ccLo4wHn.s 			page 325


 15965      637900
 15966              	.LASF467:
 15967 14e1 6368616E 		.ascii	"channelNext\000"
 15967      6E656C4E 
 15967      65787400 
 15968              	.LASF510:
 15969 14ed 6D696E52 		.ascii	"minRxSymbols\000"
 15969      7853796D 
 15969      626F6C73 
 15969      00
 15970              	.LASF132:
 15971 14fa 5F6E6578 		.ascii	"_nextf\000"
 15971      746600
 15972              	.LASF118:
 15973 1501 5F72616E 		.ascii	"_rand_next\000"
 15973      645F6E65 
 15973      787400
 15974              	.LASF523:
 15975 150c 70687941 		.ascii	"phyAttribute\000"
 15975      74747269 
 15975      62757465 
 15975      00
 15976              	.LASF21:
 15977 1519 75696E74 		.ascii	"uint32_t\000"
 15977      33325F74 
 15977      00
 15978              	.LASF416:
 15979 1522 53746174 		.ascii	"Status\000"
 15979      757300
 15980              	.LASF405:
 15981 1529 436F6E74 		.ascii	"ContinuousWaveParams_t\000"
 15981      696E756F 
 15981      75735761 
 15981      76655061 
 15981      72616D73 
 15982              	.LASF456:
 15983 1540 52656769 		.ascii	"RegionKR920ChannelAdd\000"
 15983      6F6E4B52 
 15983      39323043 
 15983      68616E6E 
 15983      656C4164 
 15984              	.LASF40:
 15985 1556 5F6D6178 		.ascii	"_maxwds\000"
 15985      77647300 
 15986              	.LASF527:
 15987 155e 62616E64 		.ascii	"bands\000"
 15987      7300
 15988              	.LASF192:
 15989 1564 53657454 		.ascii	"SetTxContinuousWave\000"
 15989      78436F6E 
 15989      74696E75 
 15989      6F757357 
 15989      61766500 
 15990              	.LASF27:
 15991 1578 6C6F6E67 		.ascii	"long double\000"
 15991      20646F75 
 15991      626C6500 
ARM GAS  C:\Users\EBANO_~1\AppData\Local\Temp\ccLo4wHn.s 			page 326


 15992              	.LASF139:
 15993 1584 7375626F 		.ascii	"suboptarg\000"
 15993      70746172 
 15993      6700
 15994              	.LASF275:
 15995 158e 5048595F 		.ascii	"PHY_MAX_NB_CHANNELS\000"
 15995      4D41585F 
 15995      4E425F43 
 15995      48414E4E 
 15995      454C5300 
 15996              	.LASF382:
 15997 15a2 54785061 		.ascii	"TxParamSetupReqParams_t\000"
 15997      72616D53 
 15997      65747570 
 15997      52657150 
 15997      6172616D 
 15998              	.LASF12:
 15999 15ba 6C6F6E67 		.ascii	"long unsigned int\000"
 15999      20756E73 
 15999      69676E65 
 15999      6420696E 
 15999      7400
 16000              	.LASF437:
 16001 15cc 4368616E 		.ascii	"ChannelsDefaultMask\000"
 16001      6E656C73 
 16001      44656661 
 16001      756C744D 
 16001      61736B00 
 16002              	.LASF561:
 16003 15e0 52656769 		.ascii	"RegionCommonComputeSymbolTimeLoRa\000"
 16003      6F6E436F 
 16003      6D6D6F6E 
 16003      436F6D70 
 16003      75746553 
 16004              	.LASF538:
 16005 1602 746D7046 		.ascii	"tmpFreq\000"
 16005      72657100 
 16006              	.LASF307:
 16007 160a 65436861 		.ascii	"eChannelsMask\000"
 16007      6E6E656C 
 16007      734D6173 
 16007      6B00
 16008              	.LASF182:
 16009 1618 49734368 		.ascii	"IsChannelFree\000"
 16009      616E6E65 
 16009      6C467265 
 16009      6500
 16010              	.LASF73:
 16011 1626 5F636C6F 		.ascii	"_close\000"
 16011      736500
 16012              	.LASF199:
 16013 162d 53657450 		.ascii	"SetPublicNetwork\000"
 16013      75626C69 
 16013      634E6574 
 16013      776F726B 
 16013      00
 16014              	.LASF104:
ARM GAS  C:\Users\EBANO_~1\AppData\Local\Temp\ccLo4wHn.s 			page 327


 16015 163e 63686172 		.ascii	"char\000"
 16015      00
 16016              	.LASF280:
 16017 1643 5048595F 		.ascii	"PHY_DEF_ANTENNA_GAIN\000"
 16017      4445465F 
 16017      414E5445 
 16017      4E4E415F 
 16017      4741494E 
 16018              	.LASF165:
 16019 1658 52465F43 		.ascii	"RF_CAD\000"
 16019      414400
 16020              	.LASF106:
 16021 165f 5F676C75 		.ascii	"_glue\000"
 16021      6500
 16022              	.LASF468:
 16023 1665 6E62456E 		.ascii	"nbEnabledChannels\000"
 16023      61626C65 
 16023      64436861 
 16023      6E6E656C 
 16023      7300
 16024              	.LASF394:
 16025 1677 43616C63 		.ascii	"CalcBackOffParams_t\000"
 16025      4261636B 
 16025      4F666650 
 16025      6172616D 
 16025      735F7400 
 16026              	.LASF24:
 16027 168b 41504250 		.ascii	"APBPrescTable\000"
 16027      72657363 
 16027      5461626C 
 16027      6500
 16028              	.LASF201:
 16029 1699 49727150 		.ascii	"IrqProcess\000"
 16029      726F6365 
 16029      737300
 16030              	.LASF549:
 16031 16a4 52656769 		.ascii	"RegionCommonComputeTxPower\000"
 16031      6F6E436F 
 16031      6D6D6F6E 
 16031      436F6D70 
 16031      75746554 
 16032              	.LASF455:
 16033 16bf 52656769 		.ascii	"RegionKR920ChannelsRemove\000"
 16033      6F6E4B52 
 16033      39323043 
 16033      68616E6E 
 16033      656C7352 
 16034              	.LASF509:
 16035 16d9 52656769 		.ascii	"RegionKR920ComputeRxWindowParameters\000"
 16035      6F6E4B52 
 16035      39323043 
 16035      6F6D7075 
 16035      74655278 
 16036              	.LASF551:
 16037 16fe 52656769 		.ascii	"RegionCommonValueInRange\000"
 16037      6F6E436F 
 16037      6D6D6F6E 
ARM GAS  C:\Users\EBANO_~1\AppData\Local\Temp\ccLo4wHn.s 			page 328


 16037      56616C75 
 16037      65496E52 
 16038              	.LASF253:
 16039 1717 5048595F 		.ascii	"PHY_DEF_TX_DR\000"
 16039      4445465F 
 16039      54585F44 
 16039      5200
 16040              	.LASF227:
 16041 1725 4C4F5241 		.ascii	"LORAMAC_STATUS_FREQUENCY_INVALID\000"
 16041      4D41435F 
 16041      53544154 
 16041      55535F46 
 16041      52455155 
 16042              	.LASF471:
 16043 1746 6E657874 		.ascii	"nextTxDelay\000"
 16043      54784465 
 16043      6C617900 
 16044              	.LASF531:
 16045 1752 6A6F696E 		.ascii	"joined\000"
 16045      656400
 16046              	.LASF43:
 16047 1759 5F426967 		.ascii	"_Bigint\000"
 16047      696E7400 
 16048              	.LASF386:
 16049 1761 414C5445 		.ascii	"ALTERNATE_DR\000"
 16049      524E4154 
 16049      455F4452 
 16049      00
 16050              	.LASF542:
 16051 176e 47657442 		.ascii	"GetBandwidth\000"
 16051      616E6477 
 16051      69647468 
 16051      00
 16052              	.LASF256:
 16053 177b 5048595F 		.ascii	"PHY_TX_POWER\000"
 16053      54585F50 
 16053      4F574552 
 16053      00
 16054              	.LASF445:
 16055 1788 52656769 		.ascii	"RegionKR920RxBeaconSetup\000"
 16055      6F6E4B52 
 16055      39323052 
 16055      78426561 
 16055      636F6E53 
 16056              	.LASF181:
 16057 17a1 53657443 		.ascii	"SetChannel\000"
 16057      68616E6E 
 16057      656C00
 16058              	.LASF316:
 16059 17ac 75506879 		.ascii	"uPhyParam\000"
 16059      50617261 
 16059      6D00
 16060              	.LASF490:
 16061 17b6 7478506F 		.ascii	"txPowOut\000"
 16061      774F7574 
 16061      00
 16062              	.LASF100:
ARM GAS  C:\Users\EBANO_~1\AppData\Local\Temp\ccLo4wHn.s 			page 329


 16063 17bf 5F617465 		.ascii	"_atexit0\000"
 16063      78697430 
 16063      00
 16064              	.LASF350:
 16065 17c8 4368616E 		.ascii	"ChannelsMaskIn\000"
 16065      6E656C73 
 16065      4D61736B 
 16065      496E00
 16066              	.LASF223:
 16067 17d7 4C4F5241 		.ascii	"LORAMAC_STATUS_OK\000"
 16067      4D41435F 
 16067      53544154 
 16067      55535F4F 
 16067      4B00
 16068              	.LASF257:
 16069 17e9 5048595F 		.ascii	"PHY_DEF_TX_POWER\000"
 16069      4445465F 
 16069      54585F50 
 16069      4F574552 
 16069      00
 16070              	.LASF125:
 16071 17fa 5F676574 		.ascii	"_getdate_err\000"
 16071      64617465 
 16071      5F657272 
 16071      00
 16072              	.LASF560:
 16073 1807 6D656D73 		.ascii	"memset1\000"
 16073      65743100 
 16074              	.LASF295:
 16075 180f 5048595F 		.ascii	"PHY_BEACON_CHANNEL_FREQ\000"
 16075      42454143 
 16075      4F4E5F43 
 16075      48414E4E 
 16075      454C5F46 
 16076              	.LASF282:
 16077 1827 5048595F 		.ascii	"PHY_BEACON_INTERVAL\000"
 16077      42454143 
 16077      4F4E5F49 
 16077      4E544552 
 16077      56414C00 
 16078              	.LASF277:
 16079 183b 5048595F 		.ascii	"PHY_DEF_UPLINK_DWELL_TIME\000"
 16079      4445465F 
 16079      55504C49 
 16079      4E4B5F44 
 16079      57454C4C 
 16080              	.LASF309:
 16081 1855 4348414E 		.ascii	"CHANNELS_DEFAULT_MASK\000"
 16081      4E454C53 
 16081      5F444546 
 16081      41554C54 
 16081      5F4D4153 
 16082              	.LASF268:
 16083 186b 5048595F 		.ascii	"PHY_MAX_FCNT_GAP\000"
 16083      4D41585F 
 16083      46434E54 
 16083      5F474150 
ARM GAS  C:\Users\EBANO_~1\AppData\Local\Temp\ccLo4wHn.s 			page 330


 16083      00
 16084              	.LASF332:
 16085 187c 73496E69 		.ascii	"sInitDefaultsParams\000"
 16085      74446566 
 16085      61756C74 
 16085      73506172 
 16085      616D7300 
 16086              	.LASF423:
 16087 1890 73526567 		.ascii	"sRegionCommonCalcBackOffParams\000"
 16087      696F6E43 
 16087      6F6D6D6F 
 16087      6E43616C 
 16087      63426163 
 16088              	.LASF137:
 16089 18af 5F696D70 		.ascii	"_impure_ptr\000"
 16089      7572655F 
 16089      70747200 
 16090              	.LASF76:
 16091 18bb 5F626C6B 		.ascii	"_blksize\000"
 16091      73697A65 
 16091      00
 16092              	.LASF463:
 16093 18c4 6E657874 		.ascii	"nextChanParams\000"
 16093      4368616E 
 16093      50617261 
 16093      6D7300
 16094              	.LASF74:
 16095 18d3 5F756275 		.ascii	"_ubuf\000"
 16095      6600
 16096              	.LASF497:
 16097 18d9 67657450 		.ascii	"getPhy\000"
 16097      687900
 16098              	.LASF279:
 16099 18e0 5048595F 		.ascii	"PHY_DEF_MAX_EIRP\000"
 16099      4445465F 
 16099      4D41585F 
 16099      45495250 
 16099      00
 16100              	.LASF120:
 16101 18f1 5F6D626C 		.ascii	"_mblen_state\000"
 16101      656E5F73 
 16101      74617465 
 16101      00
 16102              	.LASF102:
 16103 18fe 5F5F7367 		.ascii	"__sglue\000"
 16103      6C756500 
 16104              	.LASF136:
 16105 1906 5F5F6C6F 		.ascii	"__locale_t\000"
 16105      63616C65 
 16105      5F7400
 16106              	.LASF489:
 16107 1911 64724F75 		.ascii	"drOut\000"
 16107      7400
 16108              	.LASF92:
 16109 1917 5F5F636C 		.ascii	"__cleanup\000"
 16109      65616E75 
 16109      7000
ARM GAS  C:\Users\EBANO_~1\AppData\Local\Temp\ccLo4wHn.s 			page 331


 16110              	.LASF511:
 16111 1921 72784572 		.ascii	"rxError\000"
 16111      726F7200 
 16112              	.LASF215:
 16113 1929 52585F53 		.ascii	"RX_SLOT_WIN_1\000"
 16113      4C4F545F 
 16113      57494E5F 
 16113      3100
 16114              	.LASF216:
 16115 1937 52585F53 		.ascii	"RX_SLOT_WIN_2\000"
 16115      4C4F545F 
 16115      57494E5F 
 16115      3200
 16116              	.LASF302:
 16117 1945 65496E69 		.ascii	"eInitType\000"
 16117      74547970 
 16117      6500
 16118              	.LASF25:
 16119 194f 504C4C4D 		.ascii	"PLLMulTable\000"
 16119      756C5461 
 16119      626C6500 
 16120              	.LASF555:
 16121 195b 52656769 		.ascii	"RegionCommonCalcBackOff\000"
 16121      6F6E436F 
 16121      6D6D6F6E 
 16121      43616C63 
 16121      4261636B 
 16122              	.LASF30:
 16123 1973 5F66706F 		.ascii	"_fpos_t\000"
 16123      735F7400 
 16124              	.LASF519:
 16125 197b 6E657743 		.ascii	"newChannel\000"
 16125      68616E6E 
 16125      656C00
 16126              	.LASF329:
 16127 1986 4368616E 		.ascii	"Channel\000"
 16127      6E656C00 
 16128              	.LASF67:
 16129 198e 5F66696C 		.ascii	"_file\000"
 16129      6500
 16130              	.LASF209:
 16131 1994 73436861 		.ascii	"sChannelParams\000"
 16131      6E6E656C 
 16131      50617261 
 16131      6D7300
 16132              	.LASF65:
 16133 19a3 5F5F7346 		.ascii	"__sFILE\000"
 16133      494C4500 
 16134              	.LASF505:
 16135 19ab 62616E64 		.ascii	"bandwidth\000"
 16135      77696474 
 16135      6800
 16136              	.LASF514:
 16137 19b5 646F7562 		.ascii	"double\000"
 16137      6C6500
 16138              	.LASF61:
 16139 19bc 5F666E73 		.ascii	"_fns\000"
ARM GAS  C:\Users\EBANO_~1\AppData\Local\Temp\ccLo4wHn.s 			page 332


 16139      00
 16140              	.LASF351:
 16141 19c1 4368616E 		.ascii	"ChannelsMaskType\000"
 16141      6E656C73 
 16141      4D61736B 
 16141      54797065 
 16141      00
 16142              	.LASF36:
 16143 19d2 5F6D6273 		.ascii	"_mbstate_t\000"
 16143      74617465 
 16143      5F7400
 16144              	.LASF131:
 16145 19dd 5F685F65 		.ascii	"_h_errno\000"
 16145      72726E6F 
 16145      00
 16146              	.LASF434:
 16147 19e6 4D617850 		.ascii	"MaxPayloadOfDatarateKR920\000"
 16147      61796C6F 
 16147      61644F66 
 16147      44617461 
 16147      72617465 
 16148              	.LASF315:
 16149 1a00 42656163 		.ascii	"BeaconFormat_t\000"
 16149      6F6E466F 
 16149      726D6174 
 16149      5F7400
 16150              	.LASF9:
 16151 1a0f 5F5F696E 		.ascii	"__int32_t\000"
 16151      7433325F 
 16151      7400
 16152              	.LASF507:
 16153 1a19 7278436F 		.ascii	"rxConfig\000"
 16153      6E666967 
 16153      00
 16154              	.LASF11:
 16155 1a22 5F5F7569 		.ascii	"__uint32_t\000"
 16155      6E743332 
 16155      5F7400
 16156              	.LASF269:
 16157 1a2d 5048595F 		.ascii	"PHY_ACK_TIMEOUT\000"
 16157      41434B5F 
 16157      54494D45 
 16157      4F555400 
 16158              	.LASF325:
 16159 1a3d 55706C69 		.ascii	"UplinkDwellTime\000"
 16159      6E6B4477 
 16159      656C6C54 
 16159      696D6500 
 16160              	.LASF513:
 16161 1a4d 7453796D 		.ascii	"tSymbol\000"
 16161      626F6C00 
 16162              	.LASF35:
 16163 1a55 5F5F7661 		.ascii	"__value\000"
 16163      6C756500 
 16164              	.LASF470:
 16165 1a5d 656E6162 		.ascii	"enabledChannels\000"
 16165      6C656443 
ARM GAS  C:\Users\EBANO_~1\AppData\Local\Temp\ccLo4wHn.s 			page 333


 16165      68616E6E 
 16165      656C7300 
 16166              	.LASF58:
 16167 1a6d 5F69735F 		.ascii	"_is_cxa\000"
 16167      63786100 
 16168              	.LASF235:
 16169 1a75 4C4F5241 		.ascii	"LORAMAC_STATUS_NO_CHANNEL_FOUND\000"
 16169      4D41435F 
 16169      53544154 
 16169      55535F4E 
 16169      4F5F4348 
 16170              	.LASF442:
 16171 1a95 646F776E 		.ascii	"downlinkDwellTime\000"
 16171      6C696E6B 
 16171      4477656C 
 16171      6C54696D 
 16171      6500
 16172              	.LASF95:
 16173 1aa7 5F703573 		.ascii	"_p5s\000"
 16173      00
 16174              	.LASF341:
 16175 1aac 5478506F 		.ascii	"TxPower\000"
 16175      77657200 
 16176              	.LASF164:
 16177 1ab4 52465F54 		.ascii	"RF_TX_RUNNING\000"
 16177      585F5255 
 16177      4E4E494E 
 16177      4700
 16178              	.LASF261:
 16179 1ac2 5048595F 		.ascii	"PHY_MAX_PAYLOAD_REPEATER\000"
 16179      4D41585F 
 16179      5041594C 
 16179      4F41445F 
 16179      52455045 
 16180              	.LASF294:
 16181 1adb 5048595F 		.ascii	"PHY_BEACON_DELAY_BEACON_TIMING_ANS\000"
 16181      42454143 
 16181      4F4E5F44 
 16181      454C4159 
 16181      5F424541 
 16182              	.LASF354:
 16183 1afe 42616E64 		.ascii	"Bandwidth\000"
 16183      77696474 
 16183      6800
 16184              	.LASF342:
 16185 1b08 44757479 		.ascii	"DutyCycle\000"
 16185      4379636C 
 16185      6500
 16186              	.LASF317:
 16187 1b12 6656616C 		.ascii	"fValue\000"
 16187      756500
 16188              	.LASF140:
 16189 1b19 54696D65 		.ascii	"TimerTime_t\000"
 16189      7254696D 
 16189      655F7400 
 16190              	.LASF410:
 16191 1b25 73526567 		.ascii	"sRegionCommonLinkAdrParams\000"
ARM GAS  C:\Users\EBANO_~1\AppData\Local\Temp\ccLo4wHn.s 			page 334


 16191      696F6E43 
 16191      6F6D6D6F 
 16191      6E4C696E 
 16191      6B416472 
 16192              	.LASF359:
 16193 1b40 5278436F 		.ascii	"RxContinuous\000"
 16193      6E74696E 
 16193      756F7573 
 16193      00
 16194              	.LASF305:
 16195 1b4d 494E4954 		.ascii	"INIT_TYPE_RESTORE_CTX\000"
 16195      5F545950 
 16195      455F5245 
 16195      53544F52 
 16195      455F4354 
 16196              	.LASF425:
 16197 1b63 52656769 		.ascii	"RegionCommonCalcBackOffParams_t\000"
 16197      6F6E436F 
 16197      6D6D6F6E 
 16197      43616C63 
 16197      4261636B 
 16198              	.LASF252:
 16199 1b83 5048595F 		.ascii	"PHY_TX_DR\000"
 16199      54585F44 
 16199      5200
 16200              	.LASF501:
 16201 1b8d 7478436F 		.ascii	"txConfig\000"
 16201      6E666967 
 16201      00
 16202              	.LASF388:
 16203 1b96 416C7465 		.ascii	"AlternateDrType_t\000"
 16203      726E6174 
 16203      65447254 
 16203      7970655F 
 16203      7400
 16204              	.LASF156:
 16205 1ba8 5F74696D 		.ascii	"_timezone\000"
 16205      657A6F6E 
 16205      6500
 16206              	.LASF250:
 16207 1bb2 5048595F 		.ascii	"PHY_MAX_RX_DR\000"
 16207      4D41585F 
 16207      52585F44 
 16207      5200
 16208              	.LASF193:
 16209 1bc0 52737369 		.ascii	"Rssi\000"
 16209      00
 16210              	.LASF160:
 16211 1bc5 4D4F4445 		.ascii	"MODEM_LORA\000"
 16211      4D5F4C4F 
 16211      524100
 16212              	.LASF14:
 16213 1bd0 6C6F6E67 		.ascii	"long long unsigned int\000"
 16213      206C6F6E 
 16213      6720756E 
 16213      7369676E 
 16213      65642069 
ARM GAS  C:\Users\EBANO_~1\AppData\Local\Temp\ccLo4wHn.s 			page 335


 16214              	.LASF446:
 16215 1be7 52656769 		.ascii	"RegionKR920SetContinuousWave\000"
 16215      6F6E4B52 
 16215      39323053 
 16215      6574436F 
 16215      6E74696E 
 16216              	.LASF548:
 16217 1c04 52656769 		.ascii	"RegionCommonRxBeaconSetup\000"
 16217      6F6E436F 
 16217      6D6D6F6E 
 16217      52784265 
 16217      61636F6E 
 16218              	.LASF499:
 16219 1c1e 6C696E6B 		.ascii	"linkAdrVerifyParams\000"
 16219      41647256 
 16219      65726966 
 16219      79506172 
 16219      616D7300 
 16220              	.LASF117:
 16221 1c32 5F67616D 		.ascii	"_gamma_signgam\000"
 16221      6D615F73 
 16221      69676E67 
 16221      616D00
 16222              	.LASF152:
 16223 1c41 4C617374 		.ascii	"LastJoinTxDoneTime\000"
 16223      4A6F696E 
 16223      5478446F 
 16223      6E655469 
 16223      6D6500
 16224              	.LASF178:
 16225 1c54 496E6974 		.ascii	"Init\000"
 16225      00
 16226              	.LASF439:
 16227 1c59 72784265 		.ascii	"rxBeaconSetup\000"
 16227      61636F6E 
 16227      53657475 
 16227      7000
 16228              	.LASF401:
 16229 1c67 73436861 		.ascii	"sChannelRemoveParams\000"
 16229      6E6E656C 
 16229      52656D6F 
 16229      76655061 
 16229      72616D73 
 16230              	.LASF403:
 16231 1c7c 73436F6E 		.ascii	"sContinuousWaveParams\000"
 16231      74696E75 
 16231      6F757357 
 16231      61766550 
 16231      6172616D 
 16232              	.LASF244:
 16233 1c92 4C4F5241 		.ascii	"LORAMAC_STATUS_CONFIRM_QUEUE_ERROR\000"
 16233      4D41435F 
 16233      53544154 
 16233      55535F43 
 16233      4F4E4649 
 16234              	.LASF273:
 16235 1cb5 5048595F 		.ascii	"PHY_CHANNELS_MASK\000"
ARM GAS  C:\Users\EBANO_~1\AppData\Local\Temp\ccLo4wHn.s 			page 336


 16235      4348414E 
 16235      4E454C53 
 16235      5F4D4153 
 16235      4B00
 16236              	.LASF144:
 16237 1cc7 4D616A6F 		.ascii	"Major\000"
 16237      7200
 16238              	.LASF210:
 16239 1ccd 46726571 		.ascii	"Frequency\000"
 16239      75656E63 
 16239      7900
 16240              	.LASF534:
 16241 1cd7 64656C61 		.ascii	"delayTransmission\000"
 16241      79547261 
 16241      6E736D69 
 16241      7373696F 
 16241      6E00
 16242              	.LASF138:
 16243 1ce9 5F676C6F 		.ascii	"_global_impure_ptr\000"
 16243      62616C5F 
 16243      696D7075 
 16243      72655F70 
 16243      747200
 16244              	.LASF407:
 16245 1cfc 53796D62 		.ascii	"SymbolTimeout\000"
 16245      6F6C5469 
 16245      6D656F75 
 16245      7400
 16246              	.LASF89:
 16247 1d0a 5F756E73 		.ascii	"_unspecified_locale_info\000"
 16247      70656369 
 16247      66696564 
 16247      5F6C6F63 
 16247      616C655F 
 16248              	.LASF544:
 16249 1d23 4765744D 		.ascii	"GetMaxEIRP\000"
 16249      61784549 
 16249      525000
 16250              	.LASF378:
 16251 1d2e 4E657743 		.ascii	"NewChannel\000"
 16251      68616E6E 
 16251      656C00
 16252              	.LASF533:
 16253 1d39 6368616E 		.ascii	"channels\000"
 16253      6E656C73 
 16253      00
 16254              	.LASF304:
 16255 1d42 494E4954 		.ascii	"INIT_TYPE_RESTORE_DEFAULT_CHANNELS\000"
 16255      5F545950 
 16255      455F5245 
 16255      53544F52 
 16255      455F4445 
 16256              	.LASF91:
 16257 1d65 5F5F7364 		.ascii	"__sdidinit\000"
 16257      6964696E 
 16257      697400
 16258              	.LASF482:
ARM GAS  C:\Users\EBANO_~1\AppData\Local\Temp\ccLo4wHn.s 			page 337


 16259 1d70 74785061 		.ascii	"txParamSetupReq\000"
 16259      72616D53 
 16259      65747570 
 16259      52657100 
 16260              	.LASF318:
 16261 1d80 4368616E 		.ascii	"ChannelsMask\000"
 16261      6E656C73 
 16261      4D61736B 
 16261      00
 16262              	.LASF188:
 16263 1d8d 53656E64 		.ascii	"Send\000"
 16263      00
 16264              	.LASF300:
 16265 1d92 5048595F 		.ascii	"PHY_PING_SLOT_CHANNEL_DR\000"
 16265      50494E47 
 16265      5F534C4F 
 16265      545F4348 
 16265      414E4E45 
 16266              	.LASF324:
 16267 1dab 44617461 		.ascii	"Datarate\000"
 16267      72617465 
 16267      00
 16268              	.LASF524:
 16269 1db4 52656769 		.ascii	"RegionKR920GetNvmCtx\000"
 16269      6F6E4B52 
 16269      39323047 
 16269      65744E76 
 16269      6D437478 
 16270              	.LASF37:
 16271 1dc9 5F666C6F 		.ascii	"_flock_t\000"
 16271      636B5F74 
 16271      00
 16272              	.LASF547:
 16273 1dd2 6E657874 		.ascii	"nextLowerDr\000"
 16273      4C6F7765 
 16273      72447200 
 16274              	.LASF239:
 16275 1dde 4C4F5241 		.ascii	"LORAMAC_STATUS_BUSY_UPLINK_COLLISION\000"
 16275      4D41435F 
 16275      53544154 
 16275      55535F42 
 16275      5553595F 
 16276              	.LASF174:
 16277 1e03 52616469 		.ascii	"RadioEvents_t\000"
 16277      6F457665 
 16277      6E74735F 
 16277      7400
 16278              	.LASF493:
 16279 1e11 6C696E6B 		.ascii	"linkAdrParams\000"
 16279      41647250 
 16279      6172616D 
 16279      7300
 16280              	.LASF441:
 16281 1e1f 72656769 		.ascii	"regionCommonRxBeaconSetup\000"
 16281      6F6E436F 
 16281      6D6D6F6E 
 16281      52784265 
ARM GAS  C:\Users\EBANO_~1\AppData\Local\Temp\ccLo4wHn.s 			page 338


 16281      61636F6E 
 16282              	.LASF246:
 16283 1e39 4C6F5261 		.ascii	"LoRaMacStatus_t\000"
 16283      4D616353 
 16283      74617475 
 16283      735F7400 
 16284              	.LASF373:
 16285 1e49 43757272 		.ascii	"CurrentNbRep\000"
 16285      656E744E 
 16285      62526570 
 16285      00
 16286              	.LASF13:
 16287 1e56 6C6F6E67 		.ascii	"long long int\000"
 16287      206C6F6E 
 16287      6720696E 
 16287      7400
 16288              	.LASF229:
 16289 1e64 4C4F5241 		.ascii	"LORAMAC_STATUS_FREQ_AND_DR_INVALID\000"
 16289      4D41435F 
 16289      53544154 
 16289      55535F46 
 16289      5245515F 
 16290              	.LASF243:
 16291 1e87 4C4F5241 		.ascii	"LORAMAC_STATUS_CLASS_B_ERROR\000"
 16291      4D41435F 
 16291      53544154 
 16291      55535F43 
 16291      4C415353 
 16292              	.LASF81:
 16293 1ea4 5F666C61 		.ascii	"_flags2\000"
 16293      67733200 
 16294              	.LASF293:
 16295 1eac 5048595F 		.ascii	"PHY_MAX_BEACON_LESS_PERIOD\000"
 16295      4D41585F 
 16295      42454143 
 16295      4F4E5F4C 
 16295      4553535F 
 16296              	.LASF173:
 16297 1ec7 43616444 		.ascii	"CadDone\000"
 16297      6F6E6500 
 16298              	.LASF90:
 16299 1ecf 5F6C6F63 		.ascii	"_locale\000"
 16299      616C6500 
 16300              	.LASF228:
 16301 1ed7 4C4F5241 		.ascii	"LORAMAC_STATUS_DATARATE_INVALID\000"
 16301      4D41435F 
 16301      53544154 
 16301      55535F44 
 16301      41544152 
 16302              	.LASF349:
 16303 1ef7 73436861 		.ascii	"sChanMaskSetParams\000"
 16303      6E4D6173 
 16303      6B536574 
 16303      50617261 
 16303      6D7300
 16304              	.LASF23:
 16305 1f0a 41484250 		.ascii	"AHBPrescTable\000"
ARM GAS  C:\Users\EBANO_~1\AppData\Local\Temp\ccLo4wHn.s 			page 339


 16305      72657363 
 16305      5461626C 
 16305      6500
 16306              	.LASF276:
 16307 1f18 5048595F 		.ascii	"PHY_CHANNELS\000"
 16307      4348414E 
 16307      4E454C53 
 16307      00
 16308              	.LASF438:
 16309 1f25 52656769 		.ascii	"RegionKR920NvmCtx_t\000"
 16309      6F6E4B52 
 16309      3932304E 
 16309      766D4374 
 16309      785F7400 
 16310              	.LASF474:
 16311 1f39 63616C63 		.ascii	"calcBackOffParams\000"
 16311      4261636B 
 16311      4F666650 
 16311      6172616D 
 16311      7300
 16312              	.LASF333:
 16313 1f4b 4E766D43 		.ascii	"NvmCtx\000"
 16313      747800
 16314              	.LASF409:
 16315 1f52 52784265 		.ascii	"RxBeaconSetup_t\000"
 16315      61636F6E 
 16315      53657475 
 16315      705F7400 
 16316              	.LASF205:
 16317 1f62 73466965 		.ascii	"sFields\000"
 16317      6C647300 
 16318              	.LASF562:
 16319 1f6a 52656769 		.ascii	"RegionCommonComputeRxWindowParameters\000"
 16319      6F6E436F 
 16319      6D6D6F6E 
 16319      436F6D70 
 16319      75746552 
 16320              	.LASF200:
 16321 1f90 47657457 		.ascii	"GetWakeupTime\000"
 16321      616B6575 
 16321      7054696D 
 16321      6500
 16322              	.LASF395:
 16323 1f9e 734E6578 		.ascii	"sNextChanParams\000"
 16323      74436861 
 16323      6E506172 
 16323      616D7300 
 16324              	.LASF431:
 16325 1fae 4C6F5261 		.ascii	"LoRaMacMaxEirpTable\000"
 16325      4D61634D 
 16325      61784569 
 16325      72705461 
 16325      626C6500 
 16326              	.LASF383:
 16327 1fc2 73446C43 		.ascii	"sDlChannelReqParams\000"
 16327      68616E6E 
 16327      656C5265 
ARM GAS  C:\Users\EBANO_~1\AppData\Local\Temp\ccLo4wHn.s 			page 340


 16327      71506172 
 16327      616D7300 
 16328              	.LASF374:
 16329 1fd6 4C696E6B 		.ascii	"LinkAdrReqParams_t\000"
 16329      41647252 
 16329      65715061 
 16329      72616D73 
 16329      5F7400
 16330              	.LASF457:
 16331 1fe9 6368616E 		.ascii	"channelRemove\000"
 16331      6E656C52 
 16331      656D6F76 
 16331      6500
 16332              	.LASF105:
 16333 1ff7 5F5F4649 		.ascii	"__FILE\000"
 16333      4C4500
 16334              	.LASF218:
 16335 1ffe 52585F53 		.ascii	"RX_SLOT_WIN_PING_SLOT\000"
 16335      4C4F545F 
 16335      57494E5F 
 16335      50494E47 
 16335      5F534C4F 
 16336              	.LASF450:
 16337 2014 66726571 		.ascii	"frequency\000"
 16337      75656E63 
 16337      7900
 16338              	.LASF340:
 16339 201e 75566572 		.ascii	"uVerifyParams\000"
 16339      69667950 
 16339      6172616D 
 16339      7300
 16340              	.LASF238:
 16341 202c 4C4F5241 		.ascii	"LORAMAC_STATUS_BUSY_PING_SLOT_WINDOW_TIME\000"
 16341      4D41435F 
 16341      53544154 
 16341      55535F42 
 16341      5553595F 
 16342              	.LASF41:
 16343 2056 5F736967 		.ascii	"_sign\000"
 16343      6E00
 16344              	.LASF2:
 16345 205c 5F5F696E 		.ascii	"__int8_t\000"
 16345      74385F74 
 16345      00
 16346              	.LASF46:
 16347 2065 5F5F746D 		.ascii	"__tm_min\000"
 16347      5F6D696E 
 16347      00
 16348              	.LASF344:
 16349 206e 56657269 		.ascii	"VerifyParams_t\000"
 16349      66795061 
 16349      72616D73 
 16349      5F7400
 16350              	.LASF483:
 16351 207d 52656769 		.ascii	"RegionKR920NewChannelReq\000"
 16351      6F6E4B52 
 16351      3932304E 
ARM GAS  C:\Users\EBANO_~1\AppData\Local\Temp\ccLo4wHn.s 			page 341


 16351      65774368 
 16351      616E6E65 
 16352              	.LASF15:
 16353 2096 756E7369 		.ascii	"unsigned int\000"
 16353      676E6564 
 16353      20696E74 
 16353      00
 16354              	.LASF119:
 16355 20a3 5F723438 		.ascii	"_r48\000"
 16355      00
 16356              	.LASF146:
 16357 20a8 56616C75 		.ascii	"Value\000"
 16357      6500
 16358              	.LASF225:
 16359 20ae 4C4F5241 		.ascii	"LORAMAC_STATUS_SERVICE_UNKNOWN\000"
 16359      4D41435F 
 16359      53544154 
 16359      55535F53 
 16359      45525649 
 16360              	.LASF366:
 16361 20cd 5478436F 		.ascii	"TxConfigParams_t\000"
 16361      6E666967 
 16361      50617261 
 16361      6D735F74 
 16361      00
 16362              	.LASF233:
 16363 20de 4C4F5241 		.ascii	"LORAMAC_STATUS_SKIPPED_APP_DATA\000"
 16363      4D41435F 
 16363      53544154 
 16363      55535F53 
 16363      4B495050 
 16364              	.LASF443:
 16365 20fe 64724F66 		.ascii	"drOffset\000"
 16365      66736574 
 16365      00
 16366              	.LASF6:
 16367 2107 73686F72 		.ascii	"short int\000"
 16367      7420696E 
 16367      7400
 16368              	.LASF291:
 16369 2111 5048595F 		.ascii	"PHY_BEACON_SYMBOL_TO_EXPANSION_FACTOR\000"
 16369      42454143 
 16369      4F4E5F53 
 16369      594D424F 
 16369      4C5F544F 
 16370              	.LASF184:
 16371 2137 53657452 		.ascii	"SetRxConfig\000"
 16371      78436F6E 
 16371      66696700 
 16372              	.LASF70:
 16373 2143 5F726561 		.ascii	"_read\000"
 16373      6400
 16374              	.LASF460:
 16375 2149 66726571 		.ascii	"freqInvalid\000"
 16375      496E7661 
 16375      6C696400 
 16376              	.LASF556:
ARM GAS  C:\Users\EBANO_~1\AppData\Local\Temp\ccLo4wHn.s 			page 342


 16377 2155 52656769 		.ascii	"RegionCommonChanDisable\000"
 16377      6F6E436F 
 16377      6D6D6F6E 
 16377      4368616E 
 16377      44697361 
 16378              	.LASF109:
 16379 216d 5F72616E 		.ascii	"_rand48\000"
 16379      64343800 
 16380              	.LASF459:
 16381 2175 6472496E 		.ascii	"drInvalid\000"
 16381      76616C69 
 16381      6400
 16382              	.LASF390:
 16383 217f 4C617374 		.ascii	"LastTxIsJoinRequest\000"
 16383      54784973 
 16383      4A6F696E 
 16383      52657175 
 16383      65737400 
 16384              		.ident	"GCC: (GNU Tools for Arm Embedded Processors 7-2018-q2-update) 7.3.1 20180622 (release) [AR
ARM GAS  C:\Users\EBANO_~1\AppData\Local\Temp\ccLo4wHn.s 			page 343


DEFINED SYMBOLS
                            *ABS*:00000000 RegionKR920.c
C:\Users\EBANO_~1\AppData\Local\Temp\ccLo4wHn.s:16     .text.RegionKR920GetPhyParam:00000000 $t
C:\Users\EBANO_~1\AppData\Local\Temp\ccLo4wHn.s:24     .text.RegionKR920GetPhyParam:00000000 RegionKR920GetPhyParam
C:\Users\EBANO_~1\AppData\Local\Temp\ccLo4wHn.s:55     .rodata:00000000 $d
C:\Users\EBANO_~1\AppData\Local\Temp\ccLo4wHn.s:282    .text.RegionKR920GetPhyParam:000000d8 $d
C:\Users\EBANO_~1\AppData\Local\Temp\ccLo4wHn.s:3909   .bss:00000000 NvmCtx
C:\Users\EBANO_~1\AppData\Local\Temp\ccLo4wHn.s:299    .text.RegionKR920SetBandTxDone:00000000 $t
C:\Users\EBANO_~1\AppData\Local\Temp\ccLo4wHn.s:307    .text.RegionKR920SetBandTxDone:00000000 RegionKR920SetBandTxDone
C:\Users\EBANO_~1\AppData\Local\Temp\ccLo4wHn.s:343    .text.RegionKR920SetBandTxDone:00000020 $d
C:\Users\EBANO_~1\AppData\Local\Temp\ccLo4wHn.s:348    .text.RegionKR920InitDefaults:00000000 $t
C:\Users\EBANO_~1\AppData\Local\Temp\ccLo4wHn.s:356    .text.RegionKR920InitDefaults:00000000 RegionKR920InitDefaults
C:\Users\EBANO_~1\AppData\Local\Temp\ccLo4wHn.s:468    .text.RegionKR920InitDefaults:00000088 $d
C:\Users\EBANO_~1\AppData\Local\Temp\ccLo4wHn.s:475    .text.RegionKR920GetNvmCtx:00000000 $t
C:\Users\EBANO_~1\AppData\Local\Temp\ccLo4wHn.s:483    .text.RegionKR920GetNvmCtx:00000000 RegionKR920GetNvmCtx
C:\Users\EBANO_~1\AppData\Local\Temp\ccLo4wHn.s:504    .text.RegionKR920GetNvmCtx:00000008 $d
C:\Users\EBANO_~1\AppData\Local\Temp\ccLo4wHn.s:509    .text.RegionKR920Verify:00000000 $t
C:\Users\EBANO_~1\AppData\Local\Temp\ccLo4wHn.s:517    .text.RegionKR920Verify:00000000 RegionKR920Verify
C:\Users\EBANO_~1\AppData\Local\Temp\ccLo4wHn.s:580    .text.RegionKR920ApplyCFList:00000000 $t
C:\Users\EBANO_~1\AppData\Local\Temp\ccLo4wHn.s:588    .text.RegionKR920ApplyCFList:00000000 RegionKR920ApplyCFList
C:\Users\EBANO_~1\AppData\Local\Temp\ccLo4wHn.s:867    .text.RegionKR920ApplyCFList:0000012c $d
C:\Users\EBANO_~1\AppData\Local\Temp\ccLo4wHn.s:879    .text.RegionKR920ChanMaskSet:00000000 $t
C:\Users\EBANO_~1\AppData\Local\Temp\ccLo4wHn.s:887    .text.RegionKR920ChanMaskSet:00000000 RegionKR920ChanMaskSet
C:\Users\EBANO_~1\AppData\Local\Temp\ccLo4wHn.s:941    .text.RegionKR920ChanMaskSet:0000002c $d
C:\Users\EBANO_~1\AppData\Local\Temp\ccLo4wHn.s:947    .text.RegionKR920ComputeRxWindowParameters:00000000 $t
C:\Users\EBANO_~1\AppData\Local\Temp\ccLo4wHn.s:955    .text.RegionKR920ComputeRxWindowParameters:00000000 RegionKR920ComputeRxWindowParameters
C:\Users\EBANO_~1\AppData\Local\Temp\ccLo4wHn.s:1075   .text.RegionKR920ComputeRxWindowParameters:00000070 $d
C:\Users\EBANO_~1\AppData\Local\Temp\ccLo4wHn.s:1085   .text.RegionKR920RxConfig:00000000 $t
C:\Users\EBANO_~1\AppData\Local\Temp\ccLo4wHn.s:1093   .text.RegionKR920RxConfig:00000000 RegionKR920RxConfig
C:\Users\EBANO_~1\AppData\Local\Temp\ccLo4wHn.s:1245   .text.RegionKR920RxConfig:000000a4 $d
C:\Users\EBANO_~1\AppData\Local\Temp\ccLo4wHn.s:1254   .text.RegionKR920TxConfig:00000000 $t
C:\Users\EBANO_~1\AppData\Local\Temp\ccLo4wHn.s:1262   .text.RegionKR920TxConfig:00000000 RegionKR920TxConfig
C:\Users\EBANO_~1\AppData\Local\Temp\ccLo4wHn.s:1517   .text.RegionKR920TxConfig:0000010c $d
C:\Users\EBANO_~1\AppData\Local\Temp\ccLo4wHn.s:1532   .text.RegionKR920LinkAdrReq:00000000 $t
C:\Users\EBANO_~1\AppData\Local\Temp\ccLo4wHn.s:1540   .text.RegionKR920LinkAdrReq:00000000 RegionKR920LinkAdrReq
C:\Users\EBANO_~1\AppData\Local\Temp\ccLo4wHn.s:2190   .text.RegionKR920LinkAdrReq:000002f8 $d
C:\Users\EBANO_~1\AppData\Local\Temp\ccLo4wHn.s:2196   .text.RegionKR920RxParamSetupReq:00000000 $t
C:\Users\EBANO_~1\AppData\Local\Temp\ccLo4wHn.s:2204   .text.RegionKR920RxParamSetupReq:00000000 RegionKR920RxParamSetupReq
C:\Users\EBANO_~1\AppData\Local\Temp\ccLo4wHn.s:2328   .text.RegionKR920RxParamSetupReq:00000060 $d
C:\Users\EBANO_~1\AppData\Local\Temp\ccLo4wHn.s:2336   .text.RegionKR920NewChannelReq:00000000 $t
C:\Users\EBANO_~1\AppData\Local\Temp\ccLo4wHn.s:2344   .text.RegionKR920NewChannelReq:00000000 RegionKR920NewChannelReq
C:\Users\EBANO_~1\AppData\Local\Temp\ccLo4wHn.s:2617   .text.RegionKR920NewChannelReq:00000108 $d
C:\Users\EBANO_~1\AppData\Local\Temp\ccLo4wHn.s:2626   .text.RegionKR920TxParamSetupReq:00000000 $t
C:\Users\EBANO_~1\AppData\Local\Temp\ccLo4wHn.s:2634   .text.RegionKR920TxParamSetupReq:00000000 RegionKR920TxParamSetupReq
C:\Users\EBANO_~1\AppData\Local\Temp\ccLo4wHn.s:2653   .text.RegionKR920DlChannelReq:00000000 $t
C:\Users\EBANO_~1\AppData\Local\Temp\ccLo4wHn.s:2661   .text.RegionKR920DlChannelReq:00000000 RegionKR920DlChannelReq
C:\Users\EBANO_~1\AppData\Local\Temp\ccLo4wHn.s:2780   .text.RegionKR920DlChannelReq:00000060 $d
C:\Users\EBANO_~1\AppData\Local\Temp\ccLo4wHn.s:2789   .text.RegionKR920AlternateDr:00000000 $t
C:\Users\EBANO_~1\AppData\Local\Temp\ccLo4wHn.s:2797   .text.RegionKR920AlternateDr:00000000 RegionKR920AlternateDr
C:\Users\EBANO_~1\AppData\Local\Temp\ccLo4wHn.s:2812   .text.RegionKR920CalcBackOff:00000000 $t
C:\Users\EBANO_~1\AppData\Local\Temp\ccLo4wHn.s:2820   .text.RegionKR920CalcBackOff:00000000 RegionKR920CalcBackOff
C:\Users\EBANO_~1\AppData\Local\Temp\ccLo4wHn.s:2877   .text.RegionKR920CalcBackOff:00000030 $d
C:\Users\EBANO_~1\AppData\Local\Temp\ccLo4wHn.s:2883   .text.RegionKR920NextChannel:00000000 $t
C:\Users\EBANO_~1\AppData\Local\Temp\ccLo4wHn.s:2891   .text.RegionKR920NextChannel:00000000 RegionKR920NextChannel
C:\Users\EBANO_~1\AppData\Local\Temp\ccLo4wHn.s:3335   .text.RegionKR920NextChannel:000001fc $d
C:\Users\EBANO_~1\AppData\Local\Temp\ccLo4wHn.s:3342   .text.RegionKR920ChannelAdd:00000000 $t
C:\Users\EBANO_~1\AppData\Local\Temp\ccLo4wHn.s:3350   .text.RegionKR920ChannelAdd:00000000 RegionKR920ChannelAdd
ARM GAS  C:\Users\EBANO_~1\AppData\Local\Temp\ccLo4wHn.s 			page 344


C:\Users\EBANO_~1\AppData\Local\Temp\ccLo4wHn.s:3571   .text.RegionKR920ChannelAdd:000000d4 $d
C:\Users\EBANO_~1\AppData\Local\Temp\ccLo4wHn.s:3580   .text.RegionKR920ChannelsRemove:00000000 $t
C:\Users\EBANO_~1\AppData\Local\Temp\ccLo4wHn.s:3588   .text.RegionKR920ChannelsRemove:00000000 RegionKR920ChannelsRemove
C:\Users\EBANO_~1\AppData\Local\Temp\ccLo4wHn.s:3636   .text.RegionKR920ChannelsRemove:0000002c $d
C:\Users\EBANO_~1\AppData\Local\Temp\ccLo4wHn.s:3641   .text.RegionKR920SetContinuousWave:00000000 $t
C:\Users\EBANO_~1\AppData\Local\Temp\ccLo4wHn.s:3649   .text.RegionKR920SetContinuousWave:00000000 RegionKR920SetContinuousWave
C:\Users\EBANO_~1\AppData\Local\Temp\ccLo4wHn.s:3787   .text.RegionKR920SetContinuousWave:00000078 $d
C:\Users\EBANO_~1\AppData\Local\Temp\ccLo4wHn.s:3798   .text.RegionKR920ApplyDrOffset:00000000 $t
C:\Users\EBANO_~1\AppData\Local\Temp\ccLo4wHn.s:3806   .text.RegionKR920ApplyDrOffset:00000000 RegionKR920ApplyDrOffset
C:\Users\EBANO_~1\AppData\Local\Temp\ccLo4wHn.s:3832   .text.RegionKR920RxBeaconSetup:00000000 $t
C:\Users\EBANO_~1\AppData\Local\Temp\ccLo4wHn.s:3840   .text.RegionKR920RxBeaconSetup:00000000 RegionKR920RxBeaconSetup
C:\Users\EBANO_~1\AppData\Local\Temp\ccLo4wHn.s:3900   .text.RegionKR920RxBeaconSetup:00000030 $d
C:\Users\EBANO_~1\AppData\Local\Temp\ccLo4wHn.s:3906   .bss:00000000 $d
C:\Users\EBANO_~1\AppData\Local\Temp\ccLo4wHn.s:3916   .rodata:000000ac BandwidthsKR920
C:\Users\EBANO_~1\AppData\Local\Temp\ccLo4wHn.s:3925   .rodata:000000c4 DataratesKR920
C:\Users\EBANO_~1\AppData\Local\Temp\ccLo4wHn.s:3936   .rodata:000000cc MaxPayloadOfDatarateKR920
C:\Users\EBANO_~1\AppData\Local\Temp\ccLo4wHn.s:3946   .rodata:000000d4 MaxPayloadOfDatarateRepeaterKR920

UNDEFINED SYMBOLS
randr
RegionCommonSetBandTxDone
memcpy1
RegionCommonChanMaskCopy
RegionCommonValueInRange
__aeabi_uidivmod
memset
RegionCommonChanDisable
Radio
RegionCommonComputeSymbolTimeLoRa
RegionCommonComputeRxWindowParameters
__aeabi_fcmplt
RegionCommonComputeTxPower
RegionCommonParseLinkAdrReq
RegionCommonLinkAdrReqVerifyParams
memset1
RegionCommonCalcBackOff
__aeabi_idivmod
RegionCommonCountChannels
TimerGetElapsedTime
RegionCommonUpdateBandTimeOff
RegionCommonRxBeaconSetup
