ARM GAS  C:\Users\EBANO_~1\AppData\Local\Temp\cc3htvjc.s 			page 1


   1              		.cpu cortex-m0plus
   2              		.eabi_attribute 20, 1
   3              		.eabi_attribute 21, 1
   4              		.eabi_attribute 23, 3
   5              		.eabi_attribute 24, 1
   6              		.eabi_attribute 25, 1
   7              		.eabi_attribute 26, 1
   8              		.eabi_attribute 30, 2
   9              		.eabi_attribute 34, 0
  10              		.eabi_attribute 18, 4
  11              		.file	"soft-se.c"
  12              		.text
  13              	.Ltext0:
  14              		.cfi_sections	.debug_frame
  15              		.section	.text.DummyCB,"ax",%progbits
  16              		.align	1
  17              		.p2align 2,,3
  18              		.syntax unified
  19              		.code	16
  20              		.thumb_func
  21              		.fpu softvfp
  22              		.type	DummyCB, %function
  23              	DummyCB:
  24              	.LFB41:
  25              		.file 1 "../../../../../../Middlewares/Third_Party/LoRaWAN/Crypto/soft-se.c"
   1:../../../../../../Middlewares/Third_Party/LoRaWAN/Crypto/soft-se.c **** /*
   2:../../../../../../Middlewares/Third_Party/LoRaWAN/Crypto/soft-se.c ****  / _____)             _              | |
   3:../../../../../../Middlewares/Third_Party/LoRaWAN/Crypto/soft-se.c **** ( (____  _____ ____ _| |_ _____  ____| |__
   4:../../../../../../Middlewares/Third_Party/LoRaWAN/Crypto/soft-se.c ****  \____ \| ___ |    (_   _) ___ |/ ___)  _ \
   5:../../../../../../Middlewares/Third_Party/LoRaWAN/Crypto/soft-se.c ****  _____) ) ____| | | || |_| ____( (___| | | |
   6:../../../../../../Middlewares/Third_Party/LoRaWAN/Crypto/soft-se.c **** (______/|_____)_|_|_| \__)_____)\____)_| |_|
   7:../../../../../../Middlewares/Third_Party/LoRaWAN/Crypto/soft-se.c ****     (C)2013 Semtech
   8:../../../../../../Middlewares/Third_Party/LoRaWAN/Crypto/soft-se.c ****  ___ _____ _   ___ _  _____ ___  ___  ___ ___
   9:../../../../../../Middlewares/Third_Party/LoRaWAN/Crypto/soft-se.c **** / __|_   _/_\ / __| |/ / __/ _ \| _ \/ __| __|
  10:../../../../../../Middlewares/Third_Party/LoRaWAN/Crypto/soft-se.c **** \__ \ | |/ _ \ (__| ' <| _| (_) |   / (__| _|
  11:../../../../../../Middlewares/Third_Party/LoRaWAN/Crypto/soft-se.c **** |___/ |_/_/ \_\___|_|\_\_| \___/|_|_\\___|___|
  12:../../../../../../Middlewares/Third_Party/LoRaWAN/Crypto/soft-se.c **** embedded.connectivity.solutions===============
  13:../../../../../../Middlewares/Third_Party/LoRaWAN/Crypto/soft-se.c **** 
  14:../../../../../../Middlewares/Third_Party/LoRaWAN/Crypto/soft-se.c **** Description: Secure Element software implementation
  15:../../../../../../Middlewares/Third_Party/LoRaWAN/Crypto/soft-se.c **** 
  16:../../../../../../Middlewares/Third_Party/LoRaWAN/Crypto/soft-se.c **** License: Revised BSD License, see LICENSE.TXT file include in the project
  17:../../../../../../Middlewares/Third_Party/LoRaWAN/Crypto/soft-se.c **** 
  18:../../../../../../Middlewares/Third_Party/LoRaWAN/Crypto/soft-se.c **** Maintainer: Miguel Luis ( Semtech ), Gregory Cristian ( Semtech ),
  19:../../../../../../Middlewares/Third_Party/LoRaWAN/Crypto/soft-se.c ****             Daniel Jaeckle ( STACKFORCE ),  Johannes Bruder ( STACKFORCE )
  20:../../../../../../Middlewares/Third_Party/LoRaWAN/Crypto/soft-se.c **** */
  21:../../../../../../Middlewares/Third_Party/LoRaWAN/Crypto/soft-se.c **** #include "secure-element.h"
  22:../../../../../../Middlewares/Third_Party/LoRaWAN/Crypto/soft-se.c **** 
  23:../../../../../../Middlewares/Third_Party/LoRaWAN/Crypto/soft-se.c **** #include <stdlib.h>
  24:../../../../../../Middlewares/Third_Party/LoRaWAN/Crypto/soft-se.c **** #include <stdint.h>
  25:../../../../../../Middlewares/Third_Party/LoRaWAN/Crypto/soft-se.c **** 
  26:../../../../../../Middlewares/Third_Party/LoRaWAN/Crypto/soft-se.c **** #include "LoRaMacCrypto.h"
  27:../../../../../../Middlewares/Third_Party/LoRaWAN/Crypto/soft-se.c **** #include "utilities.h"
  28:../../../../../../Middlewares/Third_Party/LoRaWAN/Crypto/soft-se.c **** #include "aes.h"
  29:../../../../../../Middlewares/Third_Party/LoRaWAN/Crypto/soft-se.c **** #include "cmac.h"
  30:../../../../../../Middlewares/Third_Party/LoRaWAN/Crypto/soft-se.c **** #include "radio.h"
  31:../../../../../../Middlewares/Third_Party/LoRaWAN/Crypto/soft-se.c **** 
  32:../../../../../../Middlewares/Third_Party/LoRaWAN/Crypto/soft-se.c **** #define NUM_OF_KEYS      22
ARM GAS  C:\Users\EBANO_~1\AppData\Local\Temp\cc3htvjc.s 			page 2


  33:../../../../../../Middlewares/Third_Party/LoRaWAN/Crypto/soft-se.c **** #define KEY_SIZE         16
  34:../../../../../../Middlewares/Third_Party/LoRaWAN/Crypto/soft-se.c **** 
  35:../../../../../../Middlewares/Third_Party/LoRaWAN/Crypto/soft-se.c **** /*!
  36:../../../../../../Middlewares/Third_Party/LoRaWAN/Crypto/soft-se.c ****  * Identifier value pair type for Keys
  37:../../../../../../Middlewares/Third_Party/LoRaWAN/Crypto/soft-se.c ****  */
  38:../../../../../../Middlewares/Third_Party/LoRaWAN/Crypto/soft-se.c **** typedef struct sKey
  39:../../../../../../Middlewares/Third_Party/LoRaWAN/Crypto/soft-se.c **** {
  40:../../../../../../Middlewares/Third_Party/LoRaWAN/Crypto/soft-se.c ****     /*
  41:../../../../../../Middlewares/Third_Party/LoRaWAN/Crypto/soft-se.c ****      * Key identifier
  42:../../../../../../Middlewares/Third_Party/LoRaWAN/Crypto/soft-se.c ****      */
  43:../../../../../../Middlewares/Third_Party/LoRaWAN/Crypto/soft-se.c ****     KeyIdentifier_t KeyID;
  44:../../../../../../Middlewares/Third_Party/LoRaWAN/Crypto/soft-se.c ****     /*
  45:../../../../../../Middlewares/Third_Party/LoRaWAN/Crypto/soft-se.c ****      * Key value
  46:../../../../../../Middlewares/Third_Party/LoRaWAN/Crypto/soft-se.c ****      */
  47:../../../../../../Middlewares/Third_Party/LoRaWAN/Crypto/soft-se.c ****     uint8_t KeyValue[KEY_SIZE];
  48:../../../../../../Middlewares/Third_Party/LoRaWAN/Crypto/soft-se.c **** } Key_t;
  49:../../../../../../Middlewares/Third_Party/LoRaWAN/Crypto/soft-se.c **** 
  50:../../../../../../Middlewares/Third_Party/LoRaWAN/Crypto/soft-se.c **** /*
  51:../../../../../../Middlewares/Third_Party/LoRaWAN/Crypto/soft-se.c ****  * Secure Element Non Volatile Context structure
  52:../../../../../../Middlewares/Third_Party/LoRaWAN/Crypto/soft-se.c ****  */
  53:../../../../../../Middlewares/Third_Party/LoRaWAN/Crypto/soft-se.c **** typedef struct sSecureElementNvCtx
  54:../../../../../../Middlewares/Third_Party/LoRaWAN/Crypto/soft-se.c **** {
  55:../../../../../../Middlewares/Third_Party/LoRaWAN/Crypto/soft-se.c ****     /*
  56:../../../../../../Middlewares/Third_Party/LoRaWAN/Crypto/soft-se.c ****      * AES computation context variable
  57:../../../../../../Middlewares/Third_Party/LoRaWAN/Crypto/soft-se.c ****      */
  58:../../../../../../Middlewares/Third_Party/LoRaWAN/Crypto/soft-se.c ****     aes_context AesContext;
  59:../../../../../../Middlewares/Third_Party/LoRaWAN/Crypto/soft-se.c ****     /*
  60:../../../../../../Middlewares/Third_Party/LoRaWAN/Crypto/soft-se.c ****      * CMAC computation context variable
  61:../../../../../../Middlewares/Third_Party/LoRaWAN/Crypto/soft-se.c ****      */
  62:../../../../../../Middlewares/Third_Party/LoRaWAN/Crypto/soft-se.c ****     AES_CMAC_CTX AesCmacCtx[1];
  63:../../../../../../Middlewares/Third_Party/LoRaWAN/Crypto/soft-se.c ****     /*
  64:../../../../../../Middlewares/Third_Party/LoRaWAN/Crypto/soft-se.c ****      * Key List
  65:../../../../../../Middlewares/Third_Party/LoRaWAN/Crypto/soft-se.c ****      */
  66:../../../../../../Middlewares/Third_Party/LoRaWAN/Crypto/soft-se.c ****     Key_t KeyList[NUM_OF_KEYS];
  67:../../../../../../Middlewares/Third_Party/LoRaWAN/Crypto/soft-se.c **** }SecureElementNvCtx_t;
  68:../../../../../../Middlewares/Third_Party/LoRaWAN/Crypto/soft-se.c **** 
  69:../../../../../../Middlewares/Third_Party/LoRaWAN/Crypto/soft-se.c **** /*
  70:../../../../../../Middlewares/Third_Party/LoRaWAN/Crypto/soft-se.c ****  * Module context
  71:../../../../../../Middlewares/Third_Party/LoRaWAN/Crypto/soft-se.c ****  */
  72:../../../../../../Middlewares/Third_Party/LoRaWAN/Crypto/soft-se.c **** static SecureElementNvCtx_t SeNvmCtx;
  73:../../../../../../Middlewares/Third_Party/LoRaWAN/Crypto/soft-se.c **** 
  74:../../../../../../Middlewares/Third_Party/LoRaWAN/Crypto/soft-se.c **** static EventNvmCtxChanged SeNvmCtxChanged;
  75:../../../../../../Middlewares/Third_Party/LoRaWAN/Crypto/soft-se.c **** 
  76:../../../../../../Middlewares/Third_Party/LoRaWAN/Crypto/soft-se.c **** /*
  77:../../../../../../Middlewares/Third_Party/LoRaWAN/Crypto/soft-se.c ****  * Local functions
  78:../../../../../../Middlewares/Third_Party/LoRaWAN/Crypto/soft-se.c ****  */
  79:../../../../../../Middlewares/Third_Party/LoRaWAN/Crypto/soft-se.c **** 
  80:../../../../../../Middlewares/Third_Party/LoRaWAN/Crypto/soft-se.c **** /*
  81:../../../../../../Middlewares/Third_Party/LoRaWAN/Crypto/soft-se.c ****  * Gets key item from key list.
  82:../../../../../../Middlewares/Third_Party/LoRaWAN/Crypto/soft-se.c ****  *
  83:../../../../../../Middlewares/Third_Party/LoRaWAN/Crypto/soft-se.c ****  *  cmac = aes128_cmac(keyID, B0 | msg)
  84:../../../../../../Middlewares/Third_Party/LoRaWAN/Crypto/soft-se.c ****  *
  85:../../../../../../Middlewares/Third_Party/LoRaWAN/Crypto/soft-se.c ****  * \param[IN]  keyID          - Key identifier
  86:../../../../../../Middlewares/Third_Party/LoRaWAN/Crypto/soft-se.c ****  * \param[OUT] keyItem        - Key item reference
  87:../../../../../../Middlewares/Third_Party/LoRaWAN/Crypto/soft-se.c ****  * \retval                    - Status of the operation
  88:../../../../../../Middlewares/Third_Party/LoRaWAN/Crypto/soft-se.c ****  */
  89:../../../../../../Middlewares/Third_Party/LoRaWAN/Crypto/soft-se.c **** SecureElementStatus_t GetKeyByID( KeyIdentifier_t keyID, Key_t** keyItem )
ARM GAS  C:\Users\EBANO_~1\AppData\Local\Temp\cc3htvjc.s 			page 3


  90:../../../../../../Middlewares/Third_Party/LoRaWAN/Crypto/soft-se.c **** {
  91:../../../../../../Middlewares/Third_Party/LoRaWAN/Crypto/soft-se.c ****     for( uint8_t i = 0; i < NUM_OF_KEYS; i++ )
  92:../../../../../../Middlewares/Third_Party/LoRaWAN/Crypto/soft-se.c ****     {
  93:../../../../../../Middlewares/Third_Party/LoRaWAN/Crypto/soft-se.c ****         if( SeNvmCtx.KeyList[i].KeyID == keyID )
  94:../../../../../../Middlewares/Third_Party/LoRaWAN/Crypto/soft-se.c ****         {
  95:../../../../../../Middlewares/Third_Party/LoRaWAN/Crypto/soft-se.c ****             *keyItem = &( SeNvmCtx.KeyList[i] );
  96:../../../../../../Middlewares/Third_Party/LoRaWAN/Crypto/soft-se.c ****             return SECURE_ELEMENT_SUCCESS;
  97:../../../../../../Middlewares/Third_Party/LoRaWAN/Crypto/soft-se.c ****         }
  98:../../../../../../Middlewares/Third_Party/LoRaWAN/Crypto/soft-se.c ****     }
  99:../../../../../../Middlewares/Third_Party/LoRaWAN/Crypto/soft-se.c ****     return SECURE_ELEMENT_ERROR_INVALID_KEY_ID;
 100:../../../../../../Middlewares/Third_Party/LoRaWAN/Crypto/soft-se.c **** }
 101:../../../../../../Middlewares/Third_Party/LoRaWAN/Crypto/soft-se.c **** 
 102:../../../../../../Middlewares/Third_Party/LoRaWAN/Crypto/soft-se.c **** /*
 103:../../../../../../Middlewares/Third_Party/LoRaWAN/Crypto/soft-se.c ****  * Computes a CMAC
 104:../../../../../../Middlewares/Third_Party/LoRaWAN/Crypto/soft-se.c ****  *
 105:../../../../../../Middlewares/Third_Party/LoRaWAN/Crypto/soft-se.c ****  * \param[IN]  buffer         - Data buffer
 106:../../../../../../Middlewares/Third_Party/LoRaWAN/Crypto/soft-se.c ****  * \param[IN]  size           - Data buffer size
 107:../../../../../../Middlewares/Third_Party/LoRaWAN/Crypto/soft-se.c ****  * \param[IN]  keyID          - Key identifier to determine the AES key to be used
 108:../../../../../../Middlewares/Third_Party/LoRaWAN/Crypto/soft-se.c ****  * \param[OUT] cmac           - Computed cmac
 109:../../../../../../Middlewares/Third_Party/LoRaWAN/Crypto/soft-se.c ****  * \retval                    - Status of the operation
 110:../../../../../../Middlewares/Third_Party/LoRaWAN/Crypto/soft-se.c ****  */
 111:../../../../../../Middlewares/Third_Party/LoRaWAN/Crypto/soft-se.c **** SecureElementStatus_t ComputeCmac( uint8_t* buffer, uint16_t size, KeyIdentifier_t keyID, uint32_t*
 112:../../../../../../Middlewares/Third_Party/LoRaWAN/Crypto/soft-se.c **** {
 113:../../../../../../Middlewares/Third_Party/LoRaWAN/Crypto/soft-se.c ****     if( buffer == NULL || cmac == NULL )
 114:../../../../../../Middlewares/Third_Party/LoRaWAN/Crypto/soft-se.c ****     {
 115:../../../../../../Middlewares/Third_Party/LoRaWAN/Crypto/soft-se.c ****         return SECURE_ELEMENT_ERROR_NPE;
 116:../../../../../../Middlewares/Third_Party/LoRaWAN/Crypto/soft-se.c ****     }
 117:../../../../../../Middlewares/Third_Party/LoRaWAN/Crypto/soft-se.c **** 
 118:../../../../../../Middlewares/Third_Party/LoRaWAN/Crypto/soft-se.c ****     uint8_t Cmac[16];
 119:../../../../../../Middlewares/Third_Party/LoRaWAN/Crypto/soft-se.c **** 
 120:../../../../../../Middlewares/Third_Party/LoRaWAN/Crypto/soft-se.c ****     AES_CMAC_Init( SeNvmCtx.AesCmacCtx );
 121:../../../../../../Middlewares/Third_Party/LoRaWAN/Crypto/soft-se.c **** 
 122:../../../../../../Middlewares/Third_Party/LoRaWAN/Crypto/soft-se.c ****     Key_t* keyItem;
 123:../../../../../../Middlewares/Third_Party/LoRaWAN/Crypto/soft-se.c ****     SecureElementStatus_t retval = GetKeyByID( keyID, &keyItem );
 124:../../../../../../Middlewares/Third_Party/LoRaWAN/Crypto/soft-se.c **** 
 125:../../../../../../Middlewares/Third_Party/LoRaWAN/Crypto/soft-se.c ****     if( retval == SECURE_ELEMENT_SUCCESS )
 126:../../../../../../Middlewares/Third_Party/LoRaWAN/Crypto/soft-se.c ****     {
 127:../../../../../../Middlewares/Third_Party/LoRaWAN/Crypto/soft-se.c ****         AES_CMAC_SetKey( SeNvmCtx.AesCmacCtx, keyItem->KeyValue );
 128:../../../../../../Middlewares/Third_Party/LoRaWAN/Crypto/soft-se.c **** 
 129:../../../../../../Middlewares/Third_Party/LoRaWAN/Crypto/soft-se.c ****         AES_CMAC_Update( SeNvmCtx.AesCmacCtx, buffer, size );
 130:../../../../../../Middlewares/Third_Party/LoRaWAN/Crypto/soft-se.c **** 
 131:../../../../../../Middlewares/Third_Party/LoRaWAN/Crypto/soft-se.c ****         AES_CMAC_Final( Cmac, SeNvmCtx.AesCmacCtx );
 132:../../../../../../Middlewares/Third_Party/LoRaWAN/Crypto/soft-se.c **** 
 133:../../../../../../Middlewares/Third_Party/LoRaWAN/Crypto/soft-se.c ****         // Bring into the required format
 134:../../../../../../Middlewares/Third_Party/LoRaWAN/Crypto/soft-se.c ****         *cmac = ( uint32_t )( ( uint32_t ) Cmac[3] << 24 | ( uint32_t ) Cmac[2] << 16 | ( uint32_t 
 135:../../../../../../Middlewares/Third_Party/LoRaWAN/Crypto/soft-se.c ****     }
 136:../../../../../../Middlewares/Third_Party/LoRaWAN/Crypto/soft-se.c **** 
 137:../../../../../../Middlewares/Third_Party/LoRaWAN/Crypto/soft-se.c ****     return retval;
 138:../../../../../../Middlewares/Third_Party/LoRaWAN/Crypto/soft-se.c **** }
 139:../../../../../../Middlewares/Third_Party/LoRaWAN/Crypto/soft-se.c **** 
 140:../../../../../../Middlewares/Third_Party/LoRaWAN/Crypto/soft-se.c **** /*
 141:../../../../../../Middlewares/Third_Party/LoRaWAN/Crypto/soft-se.c ****  * Dummy callback in case if the user provides NULL function pointer
 142:../../../../../../Middlewares/Third_Party/LoRaWAN/Crypto/soft-se.c ****  */
 143:../../../../../../Middlewares/Third_Party/LoRaWAN/Crypto/soft-se.c **** static void DummyCB( void )
 144:../../../../../../Middlewares/Third_Party/LoRaWAN/Crypto/soft-se.c **** {
  26              		.loc 1 144 0
  27              		.cfi_startproc
ARM GAS  C:\Users\EBANO_~1\AppData\Local\Temp\cc3htvjc.s 			page 4


  28              		@ args = 0, pretend = 0, frame = 0
  29              		@ frame_needed = 0, uses_anonymous_args = 0
  30              		@ link register save eliminated.
 145:../../../../../../Middlewares/Third_Party/LoRaWAN/Crypto/soft-se.c ****     return;
 146:../../../../../../Middlewares/Third_Party/LoRaWAN/Crypto/soft-se.c **** }
  31              		.loc 1 146 0
  32              		@ sp needed
  33 0000 7047     		bx	lr
  34              		.cfi_endproc
  35              	.LFE41:
  36              		.size	DummyCB, .-DummyCB
  37 0002 C046     		.section	.text.GetKeyByID,"ax",%progbits
  38              		.align	1
  39              		.p2align 2,,3
  40              		.global	GetKeyByID
  41              		.syntax unified
  42              		.code	16
  43              		.thumb_func
  44              		.fpu softvfp
  45              		.type	GetKeyByID, %function
  46              	GetKeyByID:
  47              	.LFB39:
  90:../../../../../../Middlewares/Third_Party/LoRaWAN/Crypto/soft-se.c ****     for( uint8_t i = 0; i < NUM_OF_KEYS; i++ )
  48              		.loc 1 90 0
  49              		.cfi_startproc
  50              		@ args = 0, pretend = 0, frame = 0
  51              		@ frame_needed = 0, uses_anonymous_args = 0
  52              	.LVL0:
  53 0000 30B5     		push	{r4, r5, lr}
  54              	.LCFI0:
  55              		.cfi_def_cfa_offset 12
  56              		.cfi_offset 4, -12
  57              		.cfi_offset 5, -8
  58              		.cfi_offset 14, -4
  90:../../../../../../Middlewares/Third_Party/LoRaWAN/Crypto/soft-se.c ****     for( uint8_t i = 0; i < NUM_OF_KEYS; i++ )
  59              		.loc 1 90 0
  60 0002 0022     		movs	r2, #0
  61 0004 094D     		ldr	r5, .L9
  62 0006 02E0     		b	.L6
  63              	.LVL1:
  64              	.L4:
  65 0008 0132     		adds	r2, r2, #1
  66              	.LVL2:
  67              	.LBB33:
  91:../../../../../../Middlewares/Third_Party/LoRaWAN/Crypto/soft-se.c ****     {
  68              		.loc 1 91 0 discriminator 2
  69 000a 162A     		cmp	r2, #22
  70 000c 0CD0     		beq	.L8
  71              	.L6:
  72              	.LVL3:
  93:../../../../../../Middlewares/Third_Party/LoRaWAN/Crypto/soft-se.c ****         {
  73              		.loc 1 93 0
  74 000e 8324     		movs	r4, #131
  75 0010 A400     		lsls	r4, r4, #2
  76 0012 A446     		mov	ip, r4
  77 0014 1301     		lsls	r3, r2, #4
  78 0016 9B18     		adds	r3, r3, r2
ARM GAS  C:\Users\EBANO_~1\AppData\Local\Temp\cc3htvjc.s 			page 5


  79 0018 6344     		add	r3, r3, ip
  80 001a EB18     		adds	r3, r5, r3
  81 001c 1C78     		ldrb	r4, [r3]
  82 001e 8442     		cmp	r4, r0
  83 0020 F2D1     		bne	.L4
  96:../../../../../../Middlewares/Third_Party/LoRaWAN/Crypto/soft-se.c ****         }
  84              		.loc 1 96 0
  85 0022 0020     		movs	r0, #0
  86              	.LVL4:
  95:../../../../../../Middlewares/Third_Party/LoRaWAN/Crypto/soft-se.c ****             return SECURE_ELEMENT_SUCCESS;
  87              		.loc 1 95 0
  88 0024 0B60     		str	r3, [r1]
  89              	.LVL5:
  90              	.L5:
  91              	.LBE33:
 100:../../../../../../Middlewares/Third_Party/LoRaWAN/Crypto/soft-se.c **** 
  92              		.loc 1 100 0
  93              		@ sp needed
  94 0026 30BD     		pop	{r4, r5, pc}
  95              	.LVL6:
  96              	.L8:
  99:../../../../../../Middlewares/Third_Party/LoRaWAN/Crypto/soft-se.c **** }
  97              		.loc 1 99 0
  98 0028 0320     		movs	r0, #3
  99              	.LVL7:
 100 002a FCE7     		b	.L5
 101              	.L10:
 102              		.align	2
 103              	.L9:
 104 002c 04000000 		.word	SeNvmCtx
 105              		.cfi_endproc
 106              	.LFE39:
 107              		.size	GetKeyByID, .-GetKeyByID
 108              		.section	.text.ComputeCmac,"ax",%progbits
 109              		.align	1
 110              		.p2align 2,,3
 111              		.global	ComputeCmac
 112              		.syntax unified
 113              		.code	16
 114              		.thumb_func
 115              		.fpu softvfp
 116              		.type	ComputeCmac, %function
 117              	ComputeCmac:
 118              	.LFB40:
 112:../../../../../../Middlewares/Third_Party/LoRaWAN/Crypto/soft-se.c ****     if( buffer == NULL || cmac == NULL )
 119              		.loc 1 112 0
 120              		.cfi_startproc
 121              		@ args = 0, pretend = 0, frame = 16
 122              		@ frame_needed = 0, uses_anonymous_args = 0
 123              	.LVL8:
 124 0000 F0B5     		push	{r4, r5, r6, r7, lr}
 125              	.LCFI1:
 126              		.cfi_def_cfa_offset 20
 127              		.cfi_offset 4, -20
 128              		.cfi_offset 5, -16
 129              		.cfi_offset 6, -12
 130              		.cfi_offset 7, -8
ARM GAS  C:\Users\EBANO_~1\AppData\Local\Temp\cc3htvjc.s 			page 6


 131              		.cfi_offset 14, -4
 132 0002 C646     		mov	lr, r8
 133 0004 00B5     		push	{lr}
 134              	.LCFI2:
 135              		.cfi_def_cfa_offset 24
 136              		.cfi_offset 8, -24
 137 0006 0400     		movs	r4, r0
 138 0008 84B0     		sub	sp, sp, #16
 139              	.LCFI3:
 140              		.cfi_def_cfa_offset 40
 112:../../../../../../Middlewares/Third_Party/LoRaWAN/Crypto/soft-se.c ****     if( buffer == NULL || cmac == NULL )
 141              		.loc 1 112 0
 142 000a 0E00     		movs	r6, r1
 143 000c 1700     		movs	r7, r2
 144 000e 1D00     		movs	r5, r3
 113:../../../../../../Middlewares/Third_Party/LoRaWAN/Crypto/soft-se.c ****     {
 145              		.loc 1 113 0
 146 0010 0028     		cmp	r0, #0
 147 0012 2DD0     		beq	.L17
 113:../../../../../../Middlewares/Third_Party/LoRaWAN/Crypto/soft-se.c ****     {
 148              		.loc 1 113 0 is_stmt 0 discriminator 1
 149 0014 002B     		cmp	r3, #0
 150 0016 2BD0     		beq	.L17
 151              	.LVL9:
 152              	.LBB39:
 153              	.LBB40:
 120:../../../../../../Middlewares/Third_Party/LoRaWAN/Crypto/soft-se.c **** 
 154              		.loc 1 120 0 is_stmt 1
 155 0018 174B     		ldr	r3, .L20
 156              	.LVL10:
 157 001a 9846     		mov	r8, r3
 158 001c 1800     		movs	r0, r3
 159              	.LVL11:
 160 001e FFF7FEFF 		bl	AES_CMAC_Init
 161              	.LVL12:
 162 0022 4046     		mov	r0, r8
 163 0024 0023     		movs	r3, #0
 164 0026 F438     		subs	r0, r0, #244
 165 0028 02E0     		b	.L15
 166              	.LVL13:
 167              	.L13:
 168 002a 0133     		adds	r3, r3, #1
 169              	.LVL14:
 170              	.LBB41:
 171              	.LBB42:
 172              	.LBB43:
  91:../../../../../../Middlewares/Third_Party/LoRaWAN/Crypto/soft-se.c ****     {
 173              		.loc 1 91 0
 174 002c 162B     		cmp	r3, #22
 175 002e 21D0     		beq	.L19
 176              	.L15:
 177              	.LVL15:
  93:../../../../../../Middlewares/Third_Party/LoRaWAN/Crypto/soft-se.c ****         {
 178              		.loc 1 93 0
 179 0030 8322     		movs	r2, #131
 180 0032 1901     		lsls	r1, r3, #4
 181 0034 C918     		adds	r1, r1, r3
ARM GAS  C:\Users\EBANO_~1\AppData\Local\Temp\cc3htvjc.s 			page 7


 182 0036 9200     		lsls	r2, r2, #2
 183 0038 8A18     		adds	r2, r1, r2
 184 003a 825C     		ldrb	r2, [r0, r2]
 185 003c BA42     		cmp	r2, r7
 186 003e F4D1     		bne	.L13
 187              	.LVL16:
 188              	.LBE43:
 189              	.LBE42:
 190              	.LBE41:
 127:../../../../../../Middlewares/Third_Party/LoRaWAN/Crypto/soft-se.c **** 
 191              		.loc 1 127 0
 192 0040 0E4B     		ldr	r3, .L20+4
 193              	.LVL17:
 194 0042 9C46     		mov	ip, r3
 195 0044 6144     		add	r1, r1, ip
 196 0046 4118     		adds	r1, r0, r1
 197 0048 F430     		adds	r0, r0, #244
 198 004a 0700     		movs	r7, r0
 199              	.LVL18:
 200 004c FFF7FEFF 		bl	AES_CMAC_SetKey
 201              	.LVL19:
 129:../../../../../../Middlewares/Third_Party/LoRaWAN/Crypto/soft-se.c **** 
 202              		.loc 1 129 0
 203 0050 3200     		movs	r2, r6
 204 0052 2100     		movs	r1, r4
 205 0054 3800     		movs	r0, r7
 206 0056 FFF7FEFF 		bl	AES_CMAC_Update
 207              	.LVL20:
 131:../../../../../../Middlewares/Third_Party/LoRaWAN/Crypto/soft-se.c **** 
 208              		.loc 1 131 0
 209 005a 6846     		mov	r0, sp
 210 005c 3900     		movs	r1, r7
 211 005e FFF7FEFF 		bl	AES_CMAC_Final
 212              	.LVL21:
 134:../../../../../../Middlewares/Third_Party/LoRaWAN/Crypto/soft-se.c ****     }
 213              		.loc 1 134 0
 214 0062 0020     		movs	r0, #0
 215 0064 009B     		ldr	r3, [sp]
 216 0066 2B60     		str	r3, [r5]
 217              	.LVL22:
 218              	.L12:
 219              	.LBE40:
 220              	.LBE39:
 138:../../../../../../Middlewares/Third_Party/LoRaWAN/Crypto/soft-se.c **** 
 221              		.loc 1 138 0
 222 0068 04B0     		add	sp, sp, #16
 223              		@ sp needed
 224              	.LVL23:
 225              	.LVL24:
 226 006a 04BC     		pop	{r2}
 227 006c 9046     		mov	r8, r2
 228 006e F0BD     		pop	{r4, r5, r6, r7, pc}
 229              	.LVL25:
 230              	.L17:
 115:../../../../../../Middlewares/Third_Party/LoRaWAN/Crypto/soft-se.c ****     }
 231              		.loc 1 115 0
 232 0070 0220     		movs	r0, #2
ARM GAS  C:\Users\EBANO_~1\AppData\Local\Temp\cc3htvjc.s 			page 8


 233              	.LVL26:
 234 0072 F9E7     		b	.L12
 235              	.LVL27:
 236              	.L19:
 237              	.LBB47:
 238              	.LBB46:
 239              	.LBB45:
 240              	.LBB44:
  99:../../../../../../Middlewares/Third_Party/LoRaWAN/Crypto/soft-se.c **** }
 241              		.loc 1 99 0
 242 0074 0320     		movs	r0, #3
 243              	.LVL28:
 244 0076 F7E7     		b	.L12
 245              	.L21:
 246              		.align	2
 247              	.L20:
 248 0078 F8000000 		.word	SeNvmCtx+244
 249 007c 0D020000 		.word	525
 250              	.LBE44:
 251              	.LBE45:
 252              	.LBE46:
 253              	.LBE47:
 254              		.cfi_endproc
 255              	.LFE40:
 256              		.size	ComputeCmac, .-ComputeCmac
 257              		.section	.text.SecureElementInit,"ax",%progbits
 258              		.align	1
 259              		.p2align 2,,3
 260              		.global	SecureElementInit
 261              		.syntax unified
 262              		.code	16
 263              		.thumb_func
 264              		.fpu softvfp
 265              		.type	SecureElementInit, %function
 266              	SecureElementInit:
 267              	.LFB42:
 147:../../../../../../Middlewares/Third_Party/LoRaWAN/Crypto/soft-se.c **** 
 148:../../../../../../Middlewares/Third_Party/LoRaWAN/Crypto/soft-se.c **** /*
 149:../../../../../../Middlewares/Third_Party/LoRaWAN/Crypto/soft-se.c ****  * API functions
 150:../../../../../../Middlewares/Third_Party/LoRaWAN/Crypto/soft-se.c ****  */
 151:../../../../../../Middlewares/Third_Party/LoRaWAN/Crypto/soft-se.c **** 
 152:../../../../../../Middlewares/Third_Party/LoRaWAN/Crypto/soft-se.c **** SecureElementStatus_t SecureElementInit( EventNvmCtxChanged seNvmCtxChanged )
 153:../../../../../../Middlewares/Third_Party/LoRaWAN/Crypto/soft-se.c **** {
 268              		.loc 1 153 0
 269              		.cfi_startproc
 270              		@ args = 0, pretend = 0, frame = 0
 271              		@ frame_needed = 0, uses_anonymous_args = 0
 272              		@ link register save eliminated.
 273              	.LVL29:
 154:../../../../../../Middlewares/Third_Party/LoRaWAN/Crypto/soft-se.c ****     // Initialize with defaults
 155:../../../../../../Middlewares/Third_Party/LoRaWAN/Crypto/soft-se.c ****     uint8_t itr = 0;
 156:../../../../../../Middlewares/Third_Party/LoRaWAN/Crypto/soft-se.c ****     SeNvmCtx.KeyList[itr++].KeyID = APP_KEY;
 274              		.loc 1 156 0
 275 0000 8322     		movs	r2, #131
 276 0002 0021     		movs	r1, #0
 277 0004 244B     		ldr	r3, .L25
 278 0006 9200     		lsls	r2, r2, #2
ARM GAS  C:\Users\EBANO_~1\AppData\Local\Temp\cc3htvjc.s 			page 9


 279 0008 9954     		strb	r1, [r3, r2]
 280              	.LVL30:
 157:../../../../../../Middlewares/Third_Party/LoRaWAN/Crypto/soft-se.c ****     SeNvmCtx.KeyList[itr++].KeyID = NWK_KEY;
 281              		.loc 1 157 0
 282 000a 244A     		ldr	r2, .L25+4
 283 000c 0131     		adds	r1, r1, #1
 284 000e 9954     		strb	r1, [r3, r2]
 285              	.LVL31:
 158:../../../../../../Middlewares/Third_Party/LoRaWAN/Crypto/soft-se.c ****     SeNvmCtx.KeyList[itr++].KeyID = J_S_INT_KEY;
 286              		.loc 1 158 0
 287 0010 234A     		ldr	r2, .L25+8
 288 0012 0131     		adds	r1, r1, #1
 289 0014 9954     		strb	r1, [r3, r2]
 290              	.LVL32:
 159:../../../../../../Middlewares/Third_Party/LoRaWAN/Crypto/soft-se.c ****     SeNvmCtx.KeyList[itr++].KeyID = J_S_ENC_KEY;
 291              		.loc 1 159 0
 292 0016 234A     		ldr	r2, .L25+12
 293 0018 0131     		adds	r1, r1, #1
 294 001a 9954     		strb	r1, [r3, r2]
 295              	.LVL33:
 160:../../../../../../Middlewares/Third_Party/LoRaWAN/Crypto/soft-se.c ****     SeNvmCtx.KeyList[itr++].KeyID = F_NWK_S_INT_KEY;
 296              		.loc 1 160 0
 297 001c 1132     		adds	r2, r2, #17
 298 001e 0131     		adds	r1, r1, #1
 299 0020 9954     		strb	r1, [r3, r2]
 300              	.LVL34:
 161:../../../../../../Middlewares/Third_Party/LoRaWAN/Crypto/soft-se.c ****     SeNvmCtx.KeyList[itr++].KeyID = S_NWK_S_INT_KEY;
 301              		.loc 1 161 0
 302 0022 214A     		ldr	r2, .L25+16
 303 0024 0131     		adds	r1, r1, #1
 304 0026 9954     		strb	r1, [r3, r2]
 305              	.LVL35:
 162:../../../../../../Middlewares/Third_Party/LoRaWAN/Crypto/soft-se.c ****     SeNvmCtx.KeyList[itr++].KeyID = NWK_S_ENC_KEY;
 306              		.loc 1 162 0
 307 0028 204A     		ldr	r2, .L25+20
 308 002a 0131     		adds	r1, r1, #1
 309 002c 9954     		strb	r1, [r3, r2]
 310              	.LVL36:
 163:../../../../../../Middlewares/Third_Party/LoRaWAN/Crypto/soft-se.c ****     SeNvmCtx.KeyList[itr++].KeyID = APP_S_KEY;
 311              		.loc 1 163 0
 312 002e 204A     		ldr	r2, .L25+24
 313 0030 0131     		adds	r1, r1, #1
 314 0032 9954     		strb	r1, [r3, r2]
 315              	.LVL37:
 164:../../../../../../Middlewares/Third_Party/LoRaWAN/Crypto/soft-se.c ****     SeNvmCtx.KeyList[itr++].KeyID = MC_KE_KEY;
 316              		.loc 1 164 0
 317 0034 1132     		adds	r2, r2, #17
 318 0036 7831     		adds	r1, r1, #120
 319 0038 9954     		strb	r1, [r3, r2]
 320              	.LVL38:
 165:../../../../../../Middlewares/Third_Party/LoRaWAN/Crypto/soft-se.c ****     SeNvmCtx.KeyList[itr++].KeyID = MC_KEY_0;
 321              		.loc 1 165 0
 322 003a 1E4A     		ldr	r2, .L25+28
 323 003c 0131     		adds	r1, r1, #1
 324 003e 9954     		strb	r1, [r3, r2]
 325              	.LVL39:
 166:../../../../../../Middlewares/Third_Party/LoRaWAN/Crypto/soft-se.c ****     SeNvmCtx.KeyList[itr++].KeyID = MC_APP_S_KEY_0;
ARM GAS  C:\Users\EBANO_~1\AppData\Local\Temp\cc3htvjc.s 			page 10


 326              		.loc 1 166 0
 327 0040 1D4A     		ldr	r2, .L25+32
 328 0042 0131     		adds	r1, r1, #1
 329 0044 9954     		strb	r1, [r3, r2]
 330              	.LVL40:
 167:../../../../../../Middlewares/Third_Party/LoRaWAN/Crypto/soft-se.c ****     SeNvmCtx.KeyList[itr++].KeyID = MC_NWK_S_KEY_0;
 331              		.loc 1 167 0
 332 0046 1D4A     		ldr	r2, .L25+36
 333 0048 0131     		adds	r1, r1, #1
 334 004a 9954     		strb	r1, [r3, r2]
 335              	.LVL41:
 168:../../../../../../Middlewares/Third_Party/LoRaWAN/Crypto/soft-se.c ****     SeNvmCtx.KeyList[itr++].KeyID = MC_KEY_1;
 336              		.loc 1 168 0
 337 004c 1132     		adds	r2, r2, #17
 338 004e 0131     		adds	r1, r1, #1
 339 0050 9954     		strb	r1, [r3, r2]
 340              	.LVL42:
 169:../../../../../../Middlewares/Third_Party/LoRaWAN/Crypto/soft-se.c ****     SeNvmCtx.KeyList[itr++].KeyID = MC_APP_S_KEY_1;
 341              		.loc 1 169 0
 342 0052 1B4A     		ldr	r2, .L25+40
 343 0054 0131     		adds	r1, r1, #1
 344 0056 9954     		strb	r1, [r3, r2]
 345              	.LVL43:
 170:../../../../../../Middlewares/Third_Party/LoRaWAN/Crypto/soft-se.c ****     SeNvmCtx.KeyList[itr++].KeyID = MC_NWK_S_KEY_1;
 346              		.loc 1 170 0
 347 0058 1A4A     		ldr	r2, .L25+44
 348 005a 0131     		adds	r1, r1, #1
 349 005c 9954     		strb	r1, [r3, r2]
 350              	.LVL44:
 171:../../../../../../Middlewares/Third_Party/LoRaWAN/Crypto/soft-se.c ****     SeNvmCtx.KeyList[itr++].KeyID = MC_KEY_2;
 351              		.loc 1 171 0
 352 005e 1A4A     		ldr	r2, .L25+48
 353 0060 0131     		adds	r1, r1, #1
 354 0062 9954     		strb	r1, [r3, r2]
 355              	.LVL45:
 172:../../../../../../Middlewares/Third_Party/LoRaWAN/Crypto/soft-se.c ****     SeNvmCtx.KeyList[itr++].KeyID = MC_APP_S_KEY_2;
 356              		.loc 1 172 0
 357 0064 1132     		adds	r2, r2, #17
 358 0066 0131     		adds	r1, r1, #1
 359 0068 9954     		strb	r1, [r3, r2]
 360              	.LVL46:
 173:../../../../../../Middlewares/Third_Party/LoRaWAN/Crypto/soft-se.c ****     SeNvmCtx.KeyList[itr++].KeyID = MC_NWK_S_KEY_2;
 361              		.loc 1 173 0
 362 006a 184A     		ldr	r2, .L25+52
 363 006c 0131     		adds	r1, r1, #1
 364 006e 9954     		strb	r1, [r3, r2]
 365              	.LVL47:
 174:../../../../../../Middlewares/Third_Party/LoRaWAN/Crypto/soft-se.c ****     SeNvmCtx.KeyList[itr++].KeyID = MC_KEY_3;
 366              		.loc 1 174 0
 367 0070 174A     		ldr	r2, .L25+56
 368 0072 0131     		adds	r1, r1, #1
 369 0074 9954     		strb	r1, [r3, r2]
 370              	.LVL48:
 175:../../../../../../Middlewares/Third_Party/LoRaWAN/Crypto/soft-se.c ****     SeNvmCtx.KeyList[itr++].KeyID = MC_APP_S_KEY_3;
 371              		.loc 1 175 0
 372 0076 174A     		ldr	r2, .L25+60
 373 0078 0131     		adds	r1, r1, #1
ARM GAS  C:\Users\EBANO_~1\AppData\Local\Temp\cc3htvjc.s 			page 11


 374 007a 9954     		strb	r1, [r3, r2]
 375              	.LVL49:
 176:../../../../../../Middlewares/Third_Party/LoRaWAN/Crypto/soft-se.c ****     SeNvmCtx.KeyList[itr++].KeyID = MC_NWK_S_KEY_3;
 376              		.loc 1 176 0
 377 007c 1132     		adds	r2, r2, #17
 378 007e 0131     		adds	r1, r1, #1
 379 0080 9954     		strb	r1, [r3, r2]
 380              	.LVL50:
 177:../../../../../../Middlewares/Third_Party/LoRaWAN/Crypto/soft-se.c ****     SeNvmCtx.KeyList[itr++].KeyID = SLOT_RAND_ZERO_KEY;
 381              		.loc 1 177 0
 382 0082 154A     		ldr	r2, .L25+64
 383 0084 0131     		adds	r1, r1, #1
 384 0086 9954     		strb	r1, [r3, r2]
 178:../../../../../../Middlewares/Third_Party/LoRaWAN/Crypto/soft-se.c **** 
 179:../../../../../../Middlewares/Third_Party/LoRaWAN/Crypto/soft-se.c ****     // Assign callback
 180:../../../../../../Middlewares/Third_Party/LoRaWAN/Crypto/soft-se.c ****     if( seNvmCtxChanged != 0 )
 385              		.loc 1 180 0
 386 0088 0028     		cmp	r0, #0
 387 008a 00D1     		bne	.L23
 181:../../../../../../Middlewares/Third_Party/LoRaWAN/Crypto/soft-se.c ****     {
 182:../../../../../../Middlewares/Third_Party/LoRaWAN/Crypto/soft-se.c ****         SeNvmCtxChanged = seNvmCtxChanged;
 183:../../../../../../Middlewares/Third_Party/LoRaWAN/Crypto/soft-se.c ****     }
 184:../../../../../../Middlewares/Third_Party/LoRaWAN/Crypto/soft-se.c ****     else
 185:../../../../../../Middlewares/Third_Party/LoRaWAN/Crypto/soft-se.c ****     {
 186:../../../../../../Middlewares/Third_Party/LoRaWAN/Crypto/soft-se.c ****         SeNvmCtxChanged = DummyCB;
 388              		.loc 1 186 0
 389 008c 1348     		ldr	r0, .L25+68
 390              	.LVL51:
 391              	.L23:
 392 008e 144B     		ldr	r3, .L25+72
 187:../../../../../../Middlewares/Third_Party/LoRaWAN/Crypto/soft-se.c ****     }
 188:../../../../../../Middlewares/Third_Party/LoRaWAN/Crypto/soft-se.c **** 
 189:../../../../../../Middlewares/Third_Party/LoRaWAN/Crypto/soft-se.c ****     return SECURE_ELEMENT_SUCCESS;
 190:../../../../../../Middlewares/Third_Party/LoRaWAN/Crypto/soft-se.c **** }
 393              		.loc 1 190 0
 394              		@ sp needed
 395 0090 1860     		str	r0, [r3]
 396 0092 0020     		movs	r0, #0
 397 0094 7047     		bx	lr
 398              	.L26:
 399 0096 C046     		.align	2
 400              	.L25:
 401 0098 04000000 		.word	SeNvmCtx
 402 009c 1D020000 		.word	541
 403 00a0 2E020000 		.word	558
 404 00a4 3F020000 		.word	575
 405 00a8 61020000 		.word	609
 406 00ac 72020000 		.word	626
 407 00b0 83020000 		.word	643
 408 00b4 A5020000 		.word	677
 409 00b8 B6020000 		.word	694
 410 00bc C7020000 		.word	711
 411 00c0 E9020000 		.word	745
 412 00c4 FA020000 		.word	762
 413 00c8 0B030000 		.word	779
 414 00cc 2D030000 		.word	813
 415 00d0 3E030000 		.word	830
ARM GAS  C:\Users\EBANO_~1\AppData\Local\Temp\cc3htvjc.s 			page 12


 416 00d4 4F030000 		.word	847
 417 00d8 71030000 		.word	881
 418 00dc 00000000 		.word	DummyCB
 419 00e0 00000000 		.word	.LANCHOR0
 420              		.cfi_endproc
 421              	.LFE42:
 422              		.size	SecureElementInit, .-SecureElementInit
 423              		.section	.text.SecureElementRestoreNvmCtx,"ax",%progbits
 424              		.align	1
 425              		.p2align 2,,3
 426              		.global	SecureElementRestoreNvmCtx
 427              		.syntax unified
 428              		.code	16
 429              		.thumb_func
 430              		.fpu softvfp
 431              		.type	SecureElementRestoreNvmCtx, %function
 432              	SecureElementRestoreNvmCtx:
 433              	.LFB43:
 191:../../../../../../Middlewares/Third_Party/LoRaWAN/Crypto/soft-se.c **** 
 192:../../../../../../Middlewares/Third_Party/LoRaWAN/Crypto/soft-se.c **** SecureElementStatus_t SecureElementRestoreNvmCtx( void* seNvmCtx )
 193:../../../../../../Middlewares/Third_Party/LoRaWAN/Crypto/soft-se.c **** {
 434              		.loc 1 193 0
 435              		.cfi_startproc
 436              		@ args = 0, pretend = 0, frame = 0
 437              		@ frame_needed = 0, uses_anonymous_args = 0
 438              	.LVL52:
 439 0000 10B5     		push	{r4, lr}
 440              	.LCFI4:
 441              		.cfi_def_cfa_offset 8
 442              		.cfi_offset 4, -8
 443              		.cfi_offset 14, -4
 194:../../../../../../Middlewares/Third_Party/LoRaWAN/Crypto/soft-se.c ****     // Restore nvm context
 195:../../../../../../Middlewares/Third_Party/LoRaWAN/Crypto/soft-se.c ****     if( seNvmCtx != 0 )
 444              		.loc 1 195 0
 445 0002 0028     		cmp	r0, #0
 446 0004 07D0     		beq	.L29
 196:../../../../../../Middlewares/Third_Party/LoRaWAN/Crypto/soft-se.c ****     {
 197:../../../../../../Middlewares/Third_Party/LoRaWAN/Crypto/soft-se.c ****         memcpy1( ( uint8_t* ) &SeNvmCtx, ( uint8_t* ) seNvmCtx, sizeof( SeNvmCtx ) );
 447              		.loc 1 197 0
 448 0006 E122     		movs	r2, #225
 449 0008 0100     		movs	r1, r0
 450 000a 9200     		lsls	r2, r2, #2
 451 000c 0348     		ldr	r0, .L30
 452              	.LVL53:
 453 000e FFF7FEFF 		bl	memcpy1
 454              	.LVL54:
 198:../../../../../../Middlewares/Third_Party/LoRaWAN/Crypto/soft-se.c ****         return SECURE_ELEMENT_SUCCESS;
 455              		.loc 1 198 0
 456 0012 0020     		movs	r0, #0
 457              	.L28:
 199:../../../../../../Middlewares/Third_Party/LoRaWAN/Crypto/soft-se.c ****     }
 200:../../../../../../Middlewares/Third_Party/LoRaWAN/Crypto/soft-se.c ****     else
 201:../../../../../../Middlewares/Third_Party/LoRaWAN/Crypto/soft-se.c ****     {
 202:../../../../../../Middlewares/Third_Party/LoRaWAN/Crypto/soft-se.c ****         return SECURE_ELEMENT_ERROR_NPE;
 203:../../../../../../Middlewares/Third_Party/LoRaWAN/Crypto/soft-se.c ****     }
 204:../../../../../../Middlewares/Third_Party/LoRaWAN/Crypto/soft-se.c **** }
 458              		.loc 1 204 0
ARM GAS  C:\Users\EBANO_~1\AppData\Local\Temp\cc3htvjc.s 			page 13


 459              		@ sp needed
 460 0014 10BD     		pop	{r4, pc}
 461              	.LVL55:
 462              	.L29:
 202:../../../../../../Middlewares/Third_Party/LoRaWAN/Crypto/soft-se.c ****     }
 463              		.loc 1 202 0
 464 0016 0220     		movs	r0, #2
 465              	.LVL56:
 466 0018 FCE7     		b	.L28
 467              	.L31:
 468 001a C046     		.align	2
 469              	.L30:
 470 001c 04000000 		.word	SeNvmCtx
 471              		.cfi_endproc
 472              	.LFE43:
 473              		.size	SecureElementRestoreNvmCtx, .-SecureElementRestoreNvmCtx
 474              		.section	.text.SecureElementGetNvmCtx,"ax",%progbits
 475              		.align	1
 476              		.p2align 2,,3
 477              		.global	SecureElementGetNvmCtx
 478              		.syntax unified
 479              		.code	16
 480              		.thumb_func
 481              		.fpu softvfp
 482              		.type	SecureElementGetNvmCtx, %function
 483              	SecureElementGetNvmCtx:
 484              	.LFB44:
 205:../../../../../../Middlewares/Third_Party/LoRaWAN/Crypto/soft-se.c **** 
 206:../../../../../../Middlewares/Third_Party/LoRaWAN/Crypto/soft-se.c **** void* SecureElementGetNvmCtx( size_t* seNvmCtxSize )
 207:../../../../../../Middlewares/Third_Party/LoRaWAN/Crypto/soft-se.c **** {
 485              		.loc 1 207 0
 486              		.cfi_startproc
 487              		@ args = 0, pretend = 0, frame = 0
 488              		@ frame_needed = 0, uses_anonymous_args = 0
 489              		@ link register save eliminated.
 490              	.LVL57:
 208:../../../../../../Middlewares/Third_Party/LoRaWAN/Crypto/soft-se.c ****     *seNvmCtxSize = sizeof( SeNvmCtx );
 491              		.loc 1 208 0
 492 0000 E123     		movs	r3, #225
 493 0002 9B00     		lsls	r3, r3, #2
 494 0004 0360     		str	r3, [r0]
 209:../../../../../../Middlewares/Third_Party/LoRaWAN/Crypto/soft-se.c ****     return &SeNvmCtx;
 210:../../../../../../Middlewares/Third_Party/LoRaWAN/Crypto/soft-se.c **** }
 495              		.loc 1 210 0
 496              		@ sp needed
 497 0006 0148     		ldr	r0, .L33
 498              	.LVL58:
 499 0008 7047     		bx	lr
 500              	.L34:
 501 000a C046     		.align	2
 502              	.L33:
 503 000c 04000000 		.word	SeNvmCtx
 504              		.cfi_endproc
 505              	.LFE44:
 506              		.size	SecureElementGetNvmCtx, .-SecureElementGetNvmCtx
 507              		.section	.text.SecureElementSetKey,"ax",%progbits
 508              		.align	1
ARM GAS  C:\Users\EBANO_~1\AppData\Local\Temp\cc3htvjc.s 			page 14


 509              		.p2align 2,,3
 510              		.global	SecureElementSetKey
 511              		.syntax unified
 512              		.code	16
 513              		.thumb_func
 514              		.fpu softvfp
 515              		.type	SecureElementSetKey, %function
 516              	SecureElementSetKey:
 517              	.LFB45:
 211:../../../../../../Middlewares/Third_Party/LoRaWAN/Crypto/soft-se.c **** 
 212:../../../../../../Middlewares/Third_Party/LoRaWAN/Crypto/soft-se.c **** SecureElementStatus_t SecureElementSetKey( KeyIdentifier_t keyID, uint8_t* key )
 213:../../../../../../Middlewares/Third_Party/LoRaWAN/Crypto/soft-se.c **** {
 518              		.loc 1 213 0
 519              		.cfi_startproc
 520              		@ args = 0, pretend = 0, frame = 16
 521              		@ frame_needed = 0, uses_anonymous_args = 0
 522              	.LVL59:
 523 0000 F0B5     		push	{r4, r5, r6, r7, lr}
 524              	.LCFI5:
 525              		.cfi_def_cfa_offset 20
 526              		.cfi_offset 4, -20
 527              		.cfi_offset 5, -16
 528              		.cfi_offset 6, -12
 529              		.cfi_offset 7, -8
 530              		.cfi_offset 14, -4
 531 0002 C646     		mov	lr, r8
 532 0004 00B5     		push	{lr}
 533              	.LCFI6:
 534              		.cfi_def_cfa_offset 24
 535              		.cfi_offset 8, -24
 536 0006 0600     		movs	r6, r0
 537 0008 84B0     		sub	sp, sp, #16
 538              	.LCFI7:
 539              		.cfi_def_cfa_offset 40
 540              		.loc 1 213 0
 541 000a 0F1E     		subs	r7, r1, #0
 214:../../../../../../Middlewares/Third_Party/LoRaWAN/Crypto/soft-se.c ****     if( key == NULL )
 542              		.loc 1 214 0
 543 000c 4BD0     		beq	.L42
 544              	.LBB61:
 545              	.LBB62:
 546              	.LBB63:
 215:../../../../../../Middlewares/Third_Party/LoRaWAN/Crypto/soft-se.c ****     {
 216:../../../../../../Middlewares/Third_Party/LoRaWAN/Crypto/soft-se.c ****         return SECURE_ELEMENT_ERROR_NPE;
 217:../../../../../../Middlewares/Third_Party/LoRaWAN/Crypto/soft-se.c ****     }
 218:../../../../../../Middlewares/Third_Party/LoRaWAN/Crypto/soft-se.c ****     SecureElementStatus_t retval = SECURE_ELEMENT_ERROR;
 219:../../../../../../Middlewares/Third_Party/LoRaWAN/Crypto/soft-se.c **** 
 220:../../../../../../Middlewares/Third_Party/LoRaWAN/Crypto/soft-se.c ****     for( uint8_t i = 0; i < NUM_OF_KEYS; i++ )
 221:../../../../../../Middlewares/Third_Party/LoRaWAN/Crypto/soft-se.c ****     {
 222:../../../../../../Middlewares/Third_Party/LoRaWAN/Crypto/soft-se.c ****         if( SeNvmCtx.KeyList[i].KeyID == keyID )
 223:../../../../../../Middlewares/Third_Party/LoRaWAN/Crypto/soft-se.c ****         {
 224:../../../../../../Middlewares/Third_Party/LoRaWAN/Crypto/soft-se.c ****             if( LORAMAC_CRYPTO_MULITCAST_KEYS < SeNvmCtx.KeyList[i].KeyID )
 547              		.loc 1 224 0
 548 000e 43B2     		sxtb	r3, r0
 549 0010 9846     		mov	r8, r3
 550 0012 0025     		movs	r5, #0
 551 0014 254C     		ldr	r4, .L46
ARM GAS  C:\Users\EBANO_~1\AppData\Local\Temp\cc3htvjc.s 			page 15


 552 0016 02E0     		b	.L41
 553              	.LVL60:
 554              	.L37:
 555 0018 0135     		adds	r5, r5, #1
 556              	.LVL61:
 220:../../../../../../Middlewares/Third_Party/LoRaWAN/Crypto/soft-se.c ****     {
 557              		.loc 1 220 0
 558 001a 162D     		cmp	r5, #22
 559 001c 31D0     		beq	.L45
 560              	.L41:
 561              	.LVL62:
 222:../../../../../../Middlewares/Third_Party/LoRaWAN/Crypto/soft-se.c ****         {
 562              		.loc 1 222 0
 563 001e 8323     		movs	r3, #131
 564 0020 2801     		lsls	r0, r5, #4
 565 0022 4019     		adds	r0, r0, r5
 566 0024 9B00     		lsls	r3, r3, #2
 567 0026 C318     		adds	r3, r0, r3
 568 0028 E35C     		ldrb	r3, [r4, r3]
 569 002a B342     		cmp	r3, r6
 570 002c F4D1     		bne	.L37
 571              		.loc 1 224 0
 572 002e 4346     		mov	r3, r8
 573 0030 002B     		cmp	r3, #0
 574 0032 2BDA     		bge	.L38
 575              	.LVL63:
 576              	.LBB64:
 225:../../../../../../Middlewares/Third_Party/LoRaWAN/Crypto/soft-se.c ****             {  // Decrypt the key if its a Mulitcast key
 226:../../../../../../Middlewares/Third_Party/LoRaWAN/Crypto/soft-se.c **** 
 227:../../../../../../Middlewares/Third_Party/LoRaWAN/Crypto/soft-se.c ****                 uint8_t decryptedKey[16] = { 0 };
 577              		.loc 1 227 0
 578 0034 1022     		movs	r2, #16
 579 0036 0021     		movs	r1, #0
 580 0038 6846     		mov	r0, sp
 581 003a FFF7FEFF 		bl	memset
 582              	.LVL64:
 583              	.LBB65:
 584              	.LBB66:
 585              	.LBB67:
 586              	.LBB68:
 228:../../../../../../Middlewares/Third_Party/LoRaWAN/Crypto/soft-se.c **** 
 229:../../../../../../Middlewares/Third_Party/LoRaWAN/Crypto/soft-se.c ****                 retval = SecureElementAesEncrypt( key, 16, MC_KE_KEY, decryptedKey );
 230:../../../../../../Middlewares/Third_Party/LoRaWAN/Crypto/soft-se.c ****                 if( retval != SECURE_ELEMENT_SUCCESS )
 231:../../../../../../Middlewares/Third_Party/LoRaWAN/Crypto/soft-se.c ****                 {
 232:../../../../../../Middlewares/Third_Party/LoRaWAN/Crypto/soft-se.c ****                     return retval;
 233:../../../../../../Middlewares/Third_Party/LoRaWAN/Crypto/soft-se.c ****                 }
 234:../../../../../../Middlewares/Third_Party/LoRaWAN/Crypto/soft-se.c ****             }
 235:../../../../../../Middlewares/Third_Party/LoRaWAN/Crypto/soft-se.c ****             else
 236:../../../../../../Middlewares/Third_Party/LoRaWAN/Crypto/soft-se.c ****             {
 237:../../../../../../Middlewares/Third_Party/LoRaWAN/Crypto/soft-se.c ****                 memcpy1( SeNvmCtx.KeyList[i].KeyValue, key, KEY_SIZE );
 238:../../../../../../Middlewares/Third_Party/LoRaWAN/Crypto/soft-se.c ****                 SeNvmCtxChanged( );
 239:../../../../../../Middlewares/Third_Party/LoRaWAN/Crypto/soft-se.c ****                 return SECURE_ELEMENT_SUCCESS;
 240:../../../../../../Middlewares/Third_Party/LoRaWAN/Crypto/soft-se.c ****             }
 241:../../../../../../Middlewares/Third_Party/LoRaWAN/Crypto/soft-se.c ****         }
 242:../../../../../../Middlewares/Third_Party/LoRaWAN/Crypto/soft-se.c ****     }
 243:../../../../../../Middlewares/Third_Party/LoRaWAN/Crypto/soft-se.c **** 
 244:../../../../../../Middlewares/Third_Party/LoRaWAN/Crypto/soft-se.c ****     return SECURE_ELEMENT_ERROR_INVALID_KEY_ID;
ARM GAS  C:\Users\EBANO_~1\AppData\Local\Temp\cc3htvjc.s 			page 16


 245:../../../../../../Middlewares/Third_Party/LoRaWAN/Crypto/soft-se.c **** }
 246:../../../../../../Middlewares/Third_Party/LoRaWAN/Crypto/soft-se.c **** 
 247:../../../../../../Middlewares/Third_Party/LoRaWAN/Crypto/soft-se.c **** SecureElementStatus_t SecureElementComputeAesCmac( uint8_t* buffer, uint16_t size, KeyIdentifier_t 
 248:../../../../../../Middlewares/Third_Party/LoRaWAN/Crypto/soft-se.c **** {
 249:../../../../../../Middlewares/Third_Party/LoRaWAN/Crypto/soft-se.c ****     if( keyID >= LORAMAC_CRYPTO_MULITCAST_KEYS )
 250:../../../../../../Middlewares/Third_Party/LoRaWAN/Crypto/soft-se.c ****     {
 251:../../../../../../Middlewares/Third_Party/LoRaWAN/Crypto/soft-se.c ****         //Never accept multicast key identifier for cmac computation
 252:../../../../../../Middlewares/Third_Party/LoRaWAN/Crypto/soft-se.c ****         return SECURE_ELEMENT_ERROR_INVALID_KEY_ID;
 253:../../../../../../Middlewares/Third_Party/LoRaWAN/Crypto/soft-se.c ****     }
 254:../../../../../../Middlewares/Third_Party/LoRaWAN/Crypto/soft-se.c **** 
 255:../../../../../../Middlewares/Third_Party/LoRaWAN/Crypto/soft-se.c ****     return ComputeCmac( buffer, size, keyID, cmac );
 256:../../../../../../Middlewares/Third_Party/LoRaWAN/Crypto/soft-se.c **** }
 257:../../../../../../Middlewares/Third_Party/LoRaWAN/Crypto/soft-se.c **** 
 258:../../../../../../Middlewares/Third_Party/LoRaWAN/Crypto/soft-se.c **** SecureElementStatus_t SecureElementVerifyAesCmac( uint8_t* buffer, uint16_t size, uint32_t expected
 259:../../../../../../Middlewares/Third_Party/LoRaWAN/Crypto/soft-se.c **** {
 260:../../../../../../Middlewares/Third_Party/LoRaWAN/Crypto/soft-se.c ****     if( buffer == NULL )
 261:../../../../../../Middlewares/Third_Party/LoRaWAN/Crypto/soft-se.c ****     {
 262:../../../../../../Middlewares/Third_Party/LoRaWAN/Crypto/soft-se.c ****         return SECURE_ELEMENT_ERROR_NPE;
 263:../../../../../../Middlewares/Third_Party/LoRaWAN/Crypto/soft-se.c ****     }
 264:../../../../../../Middlewares/Third_Party/LoRaWAN/Crypto/soft-se.c **** 
 265:../../../../../../Middlewares/Third_Party/LoRaWAN/Crypto/soft-se.c ****     SecureElementStatus_t retval = SECURE_ELEMENT_ERROR;
 266:../../../../../../Middlewares/Third_Party/LoRaWAN/Crypto/soft-se.c ****     uint32_t compCmac = 0;
 267:../../../../../../Middlewares/Third_Party/LoRaWAN/Crypto/soft-se.c **** 
 268:../../../../../../Middlewares/Third_Party/LoRaWAN/Crypto/soft-se.c ****     retval = ComputeCmac( buffer, size, keyID, &compCmac );
 269:../../../../../../Middlewares/Third_Party/LoRaWAN/Crypto/soft-se.c ****     if( retval != SECURE_ELEMENT_SUCCESS )
 270:../../../../../../Middlewares/Third_Party/LoRaWAN/Crypto/soft-se.c ****     {
 271:../../../../../../Middlewares/Third_Party/LoRaWAN/Crypto/soft-se.c ****         return retval;
 272:../../../../../../Middlewares/Third_Party/LoRaWAN/Crypto/soft-se.c ****     }
 273:../../../../../../Middlewares/Third_Party/LoRaWAN/Crypto/soft-se.c **** 
 274:../../../../../../Middlewares/Third_Party/LoRaWAN/Crypto/soft-se.c ****     if( expectedCmac != compCmac )
 275:../../../../../../Middlewares/Third_Party/LoRaWAN/Crypto/soft-se.c ****     {
 276:../../../../../../Middlewares/Third_Party/LoRaWAN/Crypto/soft-se.c ****         retval = SECURE_ELEMENT_FAIL_CMAC;
 277:../../../../../../Middlewares/Third_Party/LoRaWAN/Crypto/soft-se.c ****     }
 278:../../../../../../Middlewares/Third_Party/LoRaWAN/Crypto/soft-se.c **** 
 279:../../../../../../Middlewares/Third_Party/LoRaWAN/Crypto/soft-se.c ****     return retval;
 280:../../../../../../Middlewares/Third_Party/LoRaWAN/Crypto/soft-se.c **** }
 281:../../../../../../Middlewares/Third_Party/LoRaWAN/Crypto/soft-se.c **** 
 282:../../../../../../Middlewares/Third_Party/LoRaWAN/Crypto/soft-se.c **** SecureElementStatus_t SecureElementAesEncrypt( uint8_t* buffer, uint16_t size, KeyIdentifier_t keyI
 283:../../../../../../Middlewares/Third_Party/LoRaWAN/Crypto/soft-se.c **** {
 284:../../../../../../Middlewares/Third_Party/LoRaWAN/Crypto/soft-se.c ****     if( buffer == NULL || encBuffer == NULL )
 285:../../../../../../Middlewares/Third_Party/LoRaWAN/Crypto/soft-se.c ****     {
 286:../../../../../../Middlewares/Third_Party/LoRaWAN/Crypto/soft-se.c ****         return SECURE_ELEMENT_ERROR_NPE;
 287:../../../../../../Middlewares/Third_Party/LoRaWAN/Crypto/soft-se.c ****     }
 288:../../../../../../Middlewares/Third_Party/LoRaWAN/Crypto/soft-se.c **** 
 289:../../../../../../Middlewares/Third_Party/LoRaWAN/Crypto/soft-se.c ****     // Check if the size is divisible by 16,
 290:../../../../../../Middlewares/Third_Party/LoRaWAN/Crypto/soft-se.c ****     if( ( size % 16 ) != 0 )
 291:../../../../../../Middlewares/Third_Party/LoRaWAN/Crypto/soft-se.c ****     {
 292:../../../../../../Middlewares/Third_Party/LoRaWAN/Crypto/soft-se.c ****         return SECURE_ELEMENT_ERROR_BUF_SIZE;
 293:../../../../../../Middlewares/Third_Party/LoRaWAN/Crypto/soft-se.c ****     }
 294:../../../../../../Middlewares/Third_Party/LoRaWAN/Crypto/soft-se.c **** 
 295:../../../../../../Middlewares/Third_Party/LoRaWAN/Crypto/soft-se.c ****     memset1( SeNvmCtx.AesContext.ksch, '\0', 240 );
 587              		.loc 1 295 0
 588 003e F022     		movs	r2, #240
 589 0040 0021     		movs	r1, #0
 590 0042 2000     		movs	r0, r4
 591 0044 FFF7FEFF 		bl	memset1
 592              	.LVL65:
ARM GAS  C:\Users\EBANO_~1\AppData\Local\Temp\cc3htvjc.s 			page 17


 593 0048 0023     		movs	r3, #0
 594 004a 02E0     		b	.L40
 595              	.LVL66:
 596              	.L39:
 597 004c 0133     		adds	r3, r3, #1
 598              	.LVL67:
 599              	.LBB69:
 600              	.LBB70:
 601              	.LBB71:
  91:../../../../../../Middlewares/Third_Party/LoRaWAN/Crypto/soft-se.c ****     {
 602              		.loc 1 91 0
 603 004e 162B     		cmp	r3, #22
 604 0050 17D0     		beq	.L45
 605              	.L40:
 606              	.LVL68:
  93:../../../../../../Middlewares/Third_Party/LoRaWAN/Crypto/soft-se.c ****         {
 607              		.loc 1 93 0
 608 0052 8322     		movs	r2, #131
 609 0054 1801     		lsls	r0, r3, #4
 610 0056 C018     		adds	r0, r0, r3
 611 0058 9200     		lsls	r2, r2, #2
 612 005a 8218     		adds	r2, r0, r2
 613 005c A25C     		ldrb	r2, [r4, r2]
 614 005e 7F2A     		cmp	r2, #127
 615 0060 F4D1     		bne	.L39
 616              	.LVL69:
 617              	.LBE71:
 618              	.LBE70:
 619              	.LBE69:
 620              	.LBB72:
 296:../../../../../../Middlewares/Third_Party/LoRaWAN/Crypto/soft-se.c **** 
 297:../../../../../../Middlewares/Third_Party/LoRaWAN/Crypto/soft-se.c ****     Key_t* pItem;
 298:../../../../../../Middlewares/Third_Party/LoRaWAN/Crypto/soft-se.c ****     SecureElementStatus_t retval = GetKeyByID( keyID, &pItem );
 299:../../../../../../Middlewares/Third_Party/LoRaWAN/Crypto/soft-se.c **** 
 300:../../../../../../Middlewares/Third_Party/LoRaWAN/Crypto/soft-se.c ****     if( retval == SECURE_ELEMENT_SUCCESS )
 301:../../../../../../Middlewares/Third_Party/LoRaWAN/Crypto/soft-se.c ****     {
 302:../../../../../../Middlewares/Third_Party/LoRaWAN/Crypto/soft-se.c ****         aes_set_key( pItem->KeyValue, 16, &SeNvmCtx.AesContext );
 621              		.loc 1 302 0
 622 0062 134B     		ldr	r3, .L46+4
 623              	.LVL70:
 624 0064 2200     		movs	r2, r4
 625 0066 9C46     		mov	ip, r3
 626 0068 6044     		add	r0, r0, ip
 627 006a 1021     		movs	r1, #16
 628 006c 2018     		adds	r0, r4, r0
 629 006e FFF7FEFF 		bl	aes_set_key
 630              	.LVL71:
 631 0072 0135     		adds	r5, r5, #1
 632              	.LVL72:
 303:../../../../../../Middlewares/Third_Party/LoRaWAN/Crypto/soft-se.c **** 
 304:../../../../../../Middlewares/Third_Party/LoRaWAN/Crypto/soft-se.c ****         uint8_t block = 0;
 305:../../../../../../Middlewares/Third_Party/LoRaWAN/Crypto/soft-se.c **** 
 306:../../../../../../Middlewares/Third_Party/LoRaWAN/Crypto/soft-se.c ****         while( size != 0 )
 307:../../../../../../Middlewares/Third_Party/LoRaWAN/Crypto/soft-se.c ****         {
 308:../../../../../../Middlewares/Third_Party/LoRaWAN/Crypto/soft-se.c ****             aes_encrypt( &buffer[block], &encBuffer[block], &SeNvmCtx.AesContext );
 633              		.loc 1 308 0
 634 0074 2200     		movs	r2, r4
ARM GAS  C:\Users\EBANO_~1\AppData\Local\Temp\cc3htvjc.s 			page 18


 635 0076 6946     		mov	r1, sp
 636 0078 3800     		movs	r0, r7
 637 007a FFF7FEFF 		bl	aes_encrypt
 638              	.LVL73:
 639              	.LBE72:
 640              	.LBE68:
 641              	.LBE67:
 642              	.LBE66:
 643              	.LBE65:
 644              	.LBE64:
 220:../../../../../../Middlewares/Third_Party/LoRaWAN/Crypto/soft-se.c ****     {
 645              		.loc 1 220 0
 646 007e 162D     		cmp	r5, #22
 647 0080 CDD1     		bne	.L41
 648              	.L45:
 649              	.LBE63:
 244:../../../../../../Middlewares/Third_Party/LoRaWAN/Crypto/soft-se.c **** }
 650              		.loc 1 244 0
 651 0082 0320     		movs	r0, #3
 652              	.LVL74:
 653              	.L36:
 654              	.LBE62:
 655              	.LBE61:
 245:../../../../../../Middlewares/Third_Party/LoRaWAN/Crypto/soft-se.c **** 
 656              		.loc 1 245 0
 657 0084 04B0     		add	sp, sp, #16
 658              		@ sp needed
 659              	.LVL75:
 660 0086 04BC     		pop	{r2}
 661 0088 9046     		mov	r8, r2
 662 008a F0BD     		pop	{r4, r5, r6, r7, pc}
 663              	.LVL76:
 664              	.L38:
 665              	.LBB75:
 666              	.LBB74:
 667              	.LBB73:
 237:../../../../../../Middlewares/Third_Party/LoRaWAN/Crypto/soft-se.c ****                 SeNvmCtxChanged( );
 668              		.loc 1 237 0
 669 008c 084B     		ldr	r3, .L46+4
 670 008e 1022     		movs	r2, #16
 671 0090 9C46     		mov	ip, r3
 672 0092 6044     		add	r0, r0, ip
 673 0094 2018     		adds	r0, r4, r0
 674 0096 3900     		movs	r1, r7
 675 0098 FFF7FEFF 		bl	memcpy1
 676              	.LVL77:
 238:../../../../../../Middlewares/Third_Party/LoRaWAN/Crypto/soft-se.c ****                 return SECURE_ELEMENT_SUCCESS;
 677              		.loc 1 238 0
 678 009c 054B     		ldr	r3, .L46+8
 679 009e 1B68     		ldr	r3, [r3]
 680 00a0 9847     		blx	r3
 681              	.LVL78:
 239:../../../../../../Middlewares/Third_Party/LoRaWAN/Crypto/soft-se.c ****             }
 682              		.loc 1 239 0
 683 00a2 0020     		movs	r0, #0
 684 00a4 EEE7     		b	.L36
 685              	.LVL79:
ARM GAS  C:\Users\EBANO_~1\AppData\Local\Temp\cc3htvjc.s 			page 19


 686              	.L42:
 687              	.LBE73:
 688              	.LBE74:
 689              	.LBE75:
 216:../../../../../../Middlewares/Third_Party/LoRaWAN/Crypto/soft-se.c ****     }
 690              		.loc 1 216 0
 691 00a6 0220     		movs	r0, #2
 692              	.LVL80:
 693 00a8 ECE7     		b	.L36
 694              	.L47:
 695 00aa C046     		.align	2
 696              	.L46:
 697 00ac 04000000 		.word	SeNvmCtx
 698 00b0 0D020000 		.word	525
 699 00b4 00000000 		.word	.LANCHOR0
 700              		.cfi_endproc
 701              	.LFE45:
 702              		.size	SecureElementSetKey, .-SecureElementSetKey
 703              		.section	.text.SecureElementComputeAesCmac,"ax",%progbits
 704              		.align	1
 705              		.p2align 2,,3
 706              		.global	SecureElementComputeAesCmac
 707              		.syntax unified
 708              		.code	16
 709              		.thumb_func
 710              		.fpu softvfp
 711              		.type	SecureElementComputeAesCmac, %function
 712              	SecureElementComputeAesCmac:
 713              	.LFB46:
 248:../../../../../../Middlewares/Third_Party/LoRaWAN/Crypto/soft-se.c ****     if( keyID >= LORAMAC_CRYPTO_MULITCAST_KEYS )
 714              		.loc 1 248 0
 715              		.cfi_startproc
 716              		@ args = 0, pretend = 0, frame = 16
 717              		@ frame_needed = 0, uses_anonymous_args = 0
 718              	.LVL81:
 719 0000 F0B5     		push	{r4, r5, r6, r7, lr}
 720              	.LCFI8:
 721              		.cfi_def_cfa_offset 20
 722              		.cfi_offset 4, -20
 723              		.cfi_offset 5, -16
 724              		.cfi_offset 6, -12
 725              		.cfi_offset 7, -8
 726              		.cfi_offset 14, -4
 727 0002 C646     		mov	lr, r8
 728 0004 00B5     		push	{lr}
 729              	.LCFI9:
 730              		.cfi_def_cfa_offset 24
 731              		.cfi_offset 8, -24
 732 0006 0400     		movs	r4, r0
 733 0008 84B0     		sub	sp, sp, #16
 734              	.LCFI10:
 735              		.cfi_def_cfa_offset 40
 248:../../../../../../Middlewares/Third_Party/LoRaWAN/Crypto/soft-se.c ****     if( keyID >= LORAMAC_CRYPTO_MULITCAST_KEYS )
 736              		.loc 1 248 0
 737 000a 0E00     		movs	r6, r1
 738 000c 1700     		movs	r7, r2
 739 000e 1D00     		movs	r5, r3
ARM GAS  C:\Users\EBANO_~1\AppData\Local\Temp\cc3htvjc.s 			page 20


 249:../../../../../../Middlewares/Third_Party/LoRaWAN/Crypto/soft-se.c ****     {
 740              		.loc 1 249 0
 741 0010 7E2A     		cmp	r2, #126
 742 0012 31D8     		bhi	.L53
 743              	.LVL82:
 744              	.LBB83:
 745              	.LBB84:
 113:../../../../../../Middlewares/Third_Party/LoRaWAN/Crypto/soft-se.c ****     {
 746              		.loc 1 113 0
 747 0014 0028     		cmp	r0, #0
 748 0016 2DD0     		beq	.L55
 749 0018 002B     		cmp	r3, #0
 750 001a 2BD0     		beq	.L55
 751              	.LVL83:
 752              	.LBB85:
 753              	.LBB86:
 120:../../../../../../Middlewares/Third_Party/LoRaWAN/Crypto/soft-se.c **** 
 754              		.loc 1 120 0
 755 001c 174B     		ldr	r3, .L57
 756              	.LVL84:
 757 001e 9846     		mov	r8, r3
 758 0020 1800     		movs	r0, r3
 759              	.LVL85:
 760 0022 FFF7FEFF 		bl	AES_CMAC_Init
 761              	.LVL86:
 762 0026 4046     		mov	r0, r8
 763 0028 0023     		movs	r3, #0
 764 002a F438     		subs	r0, r0, #244
 765 002c 02E0     		b	.L52
 766              	.LVL87:
 767              	.L50:
 768 002e 0133     		adds	r3, r3, #1
 769              	.LVL88:
 770              	.LBB87:
 771              	.LBB88:
 772              	.LBB89:
  91:../../../../../../Middlewares/Third_Party/LoRaWAN/Crypto/soft-se.c ****     {
 773              		.loc 1 91 0
 774 0030 162B     		cmp	r3, #22
 775 0032 21D0     		beq	.L53
 776              	.L52:
 777              	.LVL89:
  93:../../../../../../Middlewares/Third_Party/LoRaWAN/Crypto/soft-se.c ****         {
 778              		.loc 1 93 0
 779 0034 8322     		movs	r2, #131
 780 0036 1901     		lsls	r1, r3, #4
 781 0038 C918     		adds	r1, r1, r3
 782 003a 9200     		lsls	r2, r2, #2
 783 003c 8A18     		adds	r2, r1, r2
 784 003e 825C     		ldrb	r2, [r0, r2]
 785 0040 BA42     		cmp	r2, r7
 786 0042 F4D1     		bne	.L50
 787              	.LVL90:
 788              	.LBE89:
 789              	.LBE88:
 790              	.LBE87:
 127:../../../../../../Middlewares/Third_Party/LoRaWAN/Crypto/soft-se.c **** 
ARM GAS  C:\Users\EBANO_~1\AppData\Local\Temp\cc3htvjc.s 			page 21


 791              		.loc 1 127 0
 792 0044 0E4B     		ldr	r3, .L57+4
 793              	.LVL91:
 794 0046 9C46     		mov	ip, r3
 795 0048 6144     		add	r1, r1, ip
 796 004a 4118     		adds	r1, r0, r1
 797 004c F430     		adds	r0, r0, #244
 798 004e 0700     		movs	r7, r0
 799              	.LVL92:
 800 0050 FFF7FEFF 		bl	AES_CMAC_SetKey
 801              	.LVL93:
 129:../../../../../../Middlewares/Third_Party/LoRaWAN/Crypto/soft-se.c **** 
 802              		.loc 1 129 0
 803 0054 3200     		movs	r2, r6
 804 0056 2100     		movs	r1, r4
 805 0058 3800     		movs	r0, r7
 806 005a FFF7FEFF 		bl	AES_CMAC_Update
 807              	.LVL94:
 131:../../../../../../Middlewares/Third_Party/LoRaWAN/Crypto/soft-se.c **** 
 808              		.loc 1 131 0
 809 005e 6846     		mov	r0, sp
 810 0060 3900     		movs	r1, r7
 811 0062 FFF7FEFF 		bl	AES_CMAC_Final
 812              	.LVL95:
 134:../../../../../../Middlewares/Third_Party/LoRaWAN/Crypto/soft-se.c ****     }
 813              		.loc 1 134 0
 814 0066 0020     		movs	r0, #0
 815 0068 009B     		ldr	r3, [sp]
 816 006a 2B60     		str	r3, [r5]
 817              	.LVL96:
 818              	.L49:
 819              	.LBE86:
 820              	.LBE85:
 821              	.LBE84:
 822              	.LBE83:
 256:../../../../../../Middlewares/Third_Party/LoRaWAN/Crypto/soft-se.c **** 
 823              		.loc 1 256 0
 824 006c 04B0     		add	sp, sp, #16
 825              		@ sp needed
 826              	.LVL97:
 827              	.LVL98:
 828 006e 04BC     		pop	{r2}
 829 0070 9046     		mov	r8, r2
 830 0072 F0BD     		pop	{r4, r5, r6, r7, pc}
 831              	.LVL99:
 832              	.L55:
 833              	.LBB91:
 834              	.LBB90:
 115:../../../../../../Middlewares/Third_Party/LoRaWAN/Crypto/soft-se.c ****     }
 835              		.loc 1 115 0
 836 0074 0220     		movs	r0, #2
 837              	.LVL100:
 838 0076 F9E7     		b	.L49
 839              	.LVL101:
 840              	.L53:
 841              	.LBE90:
 842              	.LBE91:
ARM GAS  C:\Users\EBANO_~1\AppData\Local\Temp\cc3htvjc.s 			page 22


 252:../../../../../../Middlewares/Third_Party/LoRaWAN/Crypto/soft-se.c ****     }
 843              		.loc 1 252 0
 844 0078 0320     		movs	r0, #3
 845 007a F7E7     		b	.L49
 846              	.L58:
 847              		.align	2
 848              	.L57:
 849 007c F8000000 		.word	SeNvmCtx+244
 850 0080 0D020000 		.word	525
 851              		.cfi_endproc
 852              	.LFE46:
 853              		.size	SecureElementComputeAesCmac, .-SecureElementComputeAesCmac
 854              		.section	.text.SecureElementVerifyAesCmac,"ax",%progbits
 855              		.align	1
 856              		.p2align 2,,3
 857              		.global	SecureElementVerifyAesCmac
 858              		.syntax unified
 859              		.code	16
 860              		.thumb_func
 861              		.fpu softvfp
 862              		.type	SecureElementVerifyAesCmac, %function
 863              	SecureElementVerifyAesCmac:
 864              	.LFB47:
 259:../../../../../../Middlewares/Third_Party/LoRaWAN/Crypto/soft-se.c ****     if( buffer == NULL )
 865              		.loc 1 259 0
 866              		.cfi_startproc
 867              		@ args = 0, pretend = 0, frame = 16
 868              		@ frame_needed = 0, uses_anonymous_args = 0
 869              	.LVL102:
 870 0000 F0B5     		push	{r4, r5, r6, r7, lr}
 871              	.LCFI11:
 872              		.cfi_def_cfa_offset 20
 873              		.cfi_offset 4, -20
 874              		.cfi_offset 5, -16
 875              		.cfi_offset 6, -12
 876              		.cfi_offset 7, -8
 877              		.cfi_offset 14, -4
 878 0002 C646     		mov	lr, r8
 879 0004 00B5     		push	{lr}
 880              	.LCFI12:
 881              		.cfi_def_cfa_offset 24
 882              		.cfi_offset 8, -24
 883 0006 0500     		movs	r5, r0
 884 0008 84B0     		sub	sp, sp, #16
 885              	.LCFI13:
 886              		.cfi_def_cfa_offset 40
 259:../../../../../../Middlewares/Third_Party/LoRaWAN/Crypto/soft-se.c ****     if( buffer == NULL )
 887              		.loc 1 259 0
 888 000a 0E00     		movs	r6, r1
 889 000c 1400     		movs	r4, r2
 890 000e 1F00     		movs	r7, r3
 260:../../../../../../Middlewares/Third_Party/LoRaWAN/Crypto/soft-se.c ****     {
 891              		.loc 1 260 0
 892 0010 0028     		cmp	r0, #0
 893 0012 2DD0     		beq	.L63
 894              	.LVL103:
 895              	.LBB99:
ARM GAS  C:\Users\EBANO_~1\AppData\Local\Temp\cc3htvjc.s 			page 23


 896              	.LBB100:
 897              	.LBB101:
 898              	.LBB102:
 120:../../../../../../Middlewares/Third_Party/LoRaWAN/Crypto/soft-se.c **** 
 899              		.loc 1 120 0
 900 0014 184B     		ldr	r3, .L66
 901              	.LVL104:
 902 0016 9846     		mov	r8, r3
 903 0018 1800     		movs	r0, r3
 904              	.LVL105:
 905 001a FFF7FEFF 		bl	AES_CMAC_Init
 906              	.LVL106:
 907 001e 4046     		mov	r0, r8
 908 0020 0023     		movs	r3, #0
 909 0022 F438     		subs	r0, r0, #244
 910 0024 02E0     		b	.L62
 911              	.LVL107:
 912              	.L61:
 913 0026 0133     		adds	r3, r3, #1
 914              	.LVL108:
 915              	.LBB103:
 916              	.LBB104:
  91:../../../../../../Middlewares/Third_Party/LoRaWAN/Crypto/soft-se.c ****     {
 917              		.loc 1 91 0
 918 0028 162B     		cmp	r3, #22
 919 002a 23D0     		beq	.L65
 920              	.L62:
 921              	.LVL109:
  93:../../../../../../Middlewares/Third_Party/LoRaWAN/Crypto/soft-se.c ****         {
 922              		.loc 1 93 0
 923 002c 8322     		movs	r2, #131
 924 002e 1901     		lsls	r1, r3, #4
 925 0030 C918     		adds	r1, r1, r3
 926 0032 9200     		lsls	r2, r2, #2
 927 0034 8A18     		adds	r2, r1, r2
 928 0036 825C     		ldrb	r2, [r0, r2]
 929 0038 BA42     		cmp	r2, r7
 930 003a F4D1     		bne	.L61
 931              	.LVL110:
 932              	.LBE104:
 933              	.LBE103:
 127:../../../../../../Middlewares/Third_Party/LoRaWAN/Crypto/soft-se.c **** 
 934              		.loc 1 127 0
 935 003c 0F4B     		ldr	r3, .L66+4
 936              	.LVL111:
 937 003e 9C46     		mov	ip, r3
 938 0040 6144     		add	r1, r1, ip
 939 0042 4118     		adds	r1, r0, r1
 940 0044 F430     		adds	r0, r0, #244
 941 0046 0700     		movs	r7, r0
 942              	.LVL112:
 943 0048 FFF7FEFF 		bl	AES_CMAC_SetKey
 944              	.LVL113:
 129:../../../../../../Middlewares/Third_Party/LoRaWAN/Crypto/soft-se.c **** 
 945              		.loc 1 129 0
 946 004c 3200     		movs	r2, r6
 947 004e 2900     		movs	r1, r5
ARM GAS  C:\Users\EBANO_~1\AppData\Local\Temp\cc3htvjc.s 			page 24


 948 0050 3800     		movs	r0, r7
 949 0052 FFF7FEFF 		bl	AES_CMAC_Update
 950              	.LVL114:
 131:../../../../../../Middlewares/Third_Party/LoRaWAN/Crypto/soft-se.c **** 
 951              		.loc 1 131 0
 952 0056 6846     		mov	r0, sp
 953 0058 3900     		movs	r1, r7
 954 005a FFF7FEFF 		bl	AES_CMAC_Final
 955              	.LVL115:
 956              	.LBE102:
 957              	.LBE101:
 958              	.LBE100:
 959              	.LBE99:
 274:../../../../../../Middlewares/Third_Party/LoRaWAN/Crypto/soft-se.c ****     {
 960              		.loc 1 274 0
 961 005e 009B     		ldr	r3, [sp]
 962 0060 E41A     		subs	r4, r4, r3
 963              	.LVL116:
 964 0062 601E     		subs	r0, r4, #1
 965 0064 8441     		sbcs	r4, r4, r0
 262:../../../../../../Middlewares/Third_Party/LoRaWAN/Crypto/soft-se.c ****     }
 966              		.loc 1 262 0
 967 0066 E0B2     		uxtb	r0, r4
 968              	.LVL117:
 969              	.L60:
 280:../../../../../../Middlewares/Third_Party/LoRaWAN/Crypto/soft-se.c **** 
 970              		.loc 1 280 0
 971 0068 04B0     		add	sp, sp, #16
 972              		@ sp needed
 973              	.LVL118:
 974 006a 04BC     		pop	{r2}
 975 006c 9046     		mov	r8, r2
 976 006e F0BD     		pop	{r4, r5, r6, r7, pc}
 977              	.LVL119:
 978              	.L63:
 262:../../../../../../Middlewares/Third_Party/LoRaWAN/Crypto/soft-se.c ****     }
 979              		.loc 1 262 0
 980 0070 0220     		movs	r0, #2
 981              	.LVL120:
 982 0072 F9E7     		b	.L60
 983              	.LVL121:
 984              	.L65:
 985              	.LBB108:
 986              	.LBB107:
 987              	.LBB106:
 988              	.LBB105:
 989 0074 0320     		movs	r0, #3
 990 0076 F7E7     		b	.L60
 991              	.L67:
 992              		.align	2
 993              	.L66:
 994 0078 F8000000 		.word	SeNvmCtx+244
 995 007c 0D020000 		.word	525
 996              	.LBE105:
 997              	.LBE106:
 998              	.LBE107:
 999              	.LBE108:
ARM GAS  C:\Users\EBANO_~1\AppData\Local\Temp\cc3htvjc.s 			page 25


 1000              		.cfi_endproc
 1001              	.LFE47:
 1002              		.size	SecureElementVerifyAesCmac, .-SecureElementVerifyAesCmac
 1003              		.section	.text.SecureElementAesEncrypt,"ax",%progbits
 1004              		.align	1
 1005              		.p2align 2,,3
 1006              		.global	SecureElementAesEncrypt
 1007              		.syntax unified
 1008              		.code	16
 1009              		.thumb_func
 1010              		.fpu softvfp
 1011              		.type	SecureElementAesEncrypt, %function
 1012              	SecureElementAesEncrypt:
 1013              	.LFB48:
 283:../../../../../../Middlewares/Third_Party/LoRaWAN/Crypto/soft-se.c ****     if( buffer == NULL || encBuffer == NULL )
 1014              		.loc 1 283 0
 1015              		.cfi_startproc
 1016              		@ args = 0, pretend = 0, frame = 0
 1017              		@ frame_needed = 0, uses_anonymous_args = 0
 1018              	.LVL122:
 1019 0000 F0B5     		push	{r4, r5, r6, r7, lr}
 1020              	.LCFI14:
 1021              		.cfi_def_cfa_offset 20
 1022              		.cfi_offset 4, -20
 1023              		.cfi_offset 5, -16
 1024              		.cfi_offset 6, -12
 1025              		.cfi_offset 7, -8
 1026              		.cfi_offset 14, -4
 1027 0002 C646     		mov	lr, r8
 1028 0004 0600     		movs	r6, r0
 1029 0006 00B5     		push	{lr}
 1030              	.LCFI15:
 1031              		.cfi_def_cfa_offset 24
 1032              		.cfi_offset 8, -24
 283:../../../../../../Middlewares/Third_Party/LoRaWAN/Crypto/soft-se.c ****     if( buffer == NULL || encBuffer == NULL )
 1033              		.loc 1 283 0
 1034 0008 0C00     		movs	r4, r1
 1035 000a 9046     		mov	r8, r2
 1036 000c 1F00     		movs	r7, r3
 284:../../../../../../Middlewares/Third_Party/LoRaWAN/Crypto/soft-se.c ****     {
 1037              		.loc 1 284 0
 1038 000e 0028     		cmp	r0, #0
 1039 0010 35D0     		beq	.L75
 284:../../../../../../Middlewares/Third_Party/LoRaWAN/Crypto/soft-se.c ****     {
 1040              		.loc 1 284 0 is_stmt 0 discriminator 1
 1041 0012 002B     		cmp	r3, #0
 1042 0014 33D0     		beq	.L75
 292:../../../../../../Middlewares/Third_Party/LoRaWAN/Crypto/soft-se.c ****     }
 1043              		.loc 1 292 0 is_stmt 1
 1044 0016 0520     		movs	r0, #5
 1045              	.LVL123:
 290:../../../../../../Middlewares/Third_Party/LoRaWAN/Crypto/soft-se.c ****     {
 1046              		.loc 1 290 0
 1047 0018 0B07     		lsls	r3, r1, #28
 1048 001a 2DD1     		bne	.L69
 1049              	.LVL124:
 1050              	.LBB115:
ARM GAS  C:\Users\EBANO_~1\AppData\Local\Temp\cc3htvjc.s 			page 26


 1051              	.LBB116:
 295:../../../../../../Middlewares/Third_Party/LoRaWAN/Crypto/soft-se.c **** 
 1052              		.loc 1 295 0
 1053 001c 1A4D     		ldr	r5, .L82
 1054 001e F022     		movs	r2, #240
 1055              	.LVL125:
 1056 0020 0021     		movs	r1, #0
 1057              	.LVL126:
 1058 0022 2800     		movs	r0, r5
 1059 0024 FFF7FEFF 		bl	memset1
 1060              	.LVL127:
 1061 0028 0023     		movs	r3, #0
 1062 002a 02E0     		b	.L72
 1063              	.LVL128:
 1064              	.L70:
 1065 002c 0133     		adds	r3, r3, #1
 1066              	.LVL129:
 1067              	.LBB117:
 1068              	.LBB118:
 1069              	.LBB119:
  91:../../../../../../Middlewares/Third_Party/LoRaWAN/Crypto/soft-se.c ****     {
 1070              		.loc 1 91 0
 1071 002e 162B     		cmp	r3, #22
 1072 0030 27D0     		beq	.L81
 1073              	.L72:
 1074              	.LVL130:
  93:../../../../../../Middlewares/Third_Party/LoRaWAN/Crypto/soft-se.c ****         {
 1075              		.loc 1 93 0
 1076 0032 8322     		movs	r2, #131
 1077 0034 1801     		lsls	r0, r3, #4
 1078 0036 C018     		adds	r0, r0, r3
 1079 0038 9200     		lsls	r2, r2, #2
 1080 003a 8218     		adds	r2, r0, r2
 1081 003c AA5C     		ldrb	r2, [r5, r2]
 1082 003e 4245     		cmp	r2, r8
 1083 0040 F4D1     		bne	.L70
 1084              	.LVL131:
 1085              	.LBE119:
 1086              	.LBE118:
 1087              	.LBE117:
 1088              	.LBB121:
 302:../../../../../../Middlewares/Third_Party/LoRaWAN/Crypto/soft-se.c **** 
 1089              		.loc 1 302 0
 1090 0042 124B     		ldr	r3, .L82+4
 1091              	.LVL132:
 1092 0044 2A00     		movs	r2, r5
 1093 0046 9C46     		mov	ip, r3
 1094 0048 6044     		add	r0, r0, ip
 1095 004a 2818     		adds	r0, r5, r0
 1096 004c 1021     		movs	r1, #16
 1097 004e FFF7FEFF 		bl	aes_set_key
 1098              	.LVL133:
 304:../../../../../../Middlewares/Third_Party/LoRaWAN/Crypto/soft-se.c **** 
 1099              		.loc 1 304 0
 1100 0052 0023     		movs	r3, #0
 1101 0054 9846     		mov	r8, r3
 1102              	.LVL134:
ARM GAS  C:\Users\EBANO_~1\AppData\Local\Temp\cc3htvjc.s 			page 27


 306:../../../../../../Middlewares/Third_Party/LoRaWAN/Crypto/soft-se.c ****         {
 1103              		.loc 1 306 0
 1104 0056 002C     		cmp	r4, #0
 1105 0058 0DD0     		beq	.L73
 1106              	.LVL135:
 1107              	.L71:
 1108              		.loc 1 308 0
 1109 005a 4346     		mov	r3, r8
 1110 005c 2A00     		movs	r2, r5
 1111 005e F918     		adds	r1, r7, r3
 1112 0060 F018     		adds	r0, r6, r3
 1113 0062 FFF7FEFF 		bl	aes_encrypt
 1114              	.LVL136:
 309:../../../../../../Middlewares/Third_Party/LoRaWAN/Crypto/soft-se.c ****             block = block + 16;
 1115              		.loc 1 309 0
 1116 0066 4346     		mov	r3, r8
 310:../../../../../../Middlewares/Third_Party/LoRaWAN/Crypto/soft-se.c ****             size = size - 16;
 1117              		.loc 1 310 0
 1118 0068 103C     		subs	r4, r4, #16
 1119              	.LVL137:
 309:../../../../../../Middlewares/Third_Party/LoRaWAN/Crypto/soft-se.c ****             block = block + 16;
 1120              		.loc 1 309 0
 1121 006a 1033     		adds	r3, r3, #16
 1122 006c DBB2     		uxtb	r3, r3
 1123              		.loc 1 310 0
 1124 006e A4B2     		uxth	r4, r4
 309:../../../../../../Middlewares/Third_Party/LoRaWAN/Crypto/soft-se.c ****             block = block + 16;
 1125              		.loc 1 309 0
 1126 0070 9846     		mov	r8, r3
 1127              	.LVL138:
 306:../../../../../../Middlewares/Third_Party/LoRaWAN/Crypto/soft-se.c ****         {
 1128              		.loc 1 306 0
 1129 0072 002C     		cmp	r4, #0
 1130 0074 F1D1     		bne	.L71
 1131              	.LVL139:
 1132              	.L73:
 304:../../../../../../Middlewares/Third_Party/LoRaWAN/Crypto/soft-se.c **** 
 1133              		.loc 1 304 0
 1134 0076 0020     		movs	r0, #0
 1135              	.LVL140:
 1136              	.L69:
 1137              	.LBE121:
 1138              	.LBE116:
 1139              	.LBE115:
 311:../../../../../../Middlewares/Third_Party/LoRaWAN/Crypto/soft-se.c ****         }
 312:../../../../../../Middlewares/Third_Party/LoRaWAN/Crypto/soft-se.c ****     }
 313:../../../../../../Middlewares/Third_Party/LoRaWAN/Crypto/soft-se.c ****     return retval;
 314:../../../../../../Middlewares/Third_Party/LoRaWAN/Crypto/soft-se.c **** }
 1140              		.loc 1 314 0
 1141              		@ sp needed
 1142              	.LVL141:
 1143              	.LVL142:
 1144 0078 04BC     		pop	{r2}
 1145 007a 9046     		mov	r8, r2
 1146 007c F0BD     		pop	{r4, r5, r6, r7, pc}
 1147              	.LVL143:
 1148              	.L75:
ARM GAS  C:\Users\EBANO_~1\AppData\Local\Temp\cc3htvjc.s 			page 28


 286:../../../../../../Middlewares/Third_Party/LoRaWAN/Crypto/soft-se.c ****     }
 1149              		.loc 1 286 0
 1150 007e 0220     		movs	r0, #2
 1151              	.LVL144:
 1152 0080 FAE7     		b	.L69
 1153              	.LVL145:
 1154              	.L81:
 1155              	.LBB124:
 1156              	.LBB123:
 1157              	.LBB122:
 1158              	.LBB120:
  99:../../../../../../Middlewares/Third_Party/LoRaWAN/Crypto/soft-se.c **** }
 1159              		.loc 1 99 0
 1160 0082 0320     		movs	r0, #3
 1161 0084 F8E7     		b	.L69
 1162              	.L83:
 1163 0086 C046     		.align	2
 1164              	.L82:
 1165 0088 04000000 		.word	SeNvmCtx
 1166 008c 0D020000 		.word	525
 1167              	.LBE120:
 1168              	.LBE122:
 1169              	.LBE123:
 1170              	.LBE124:
 1171              		.cfi_endproc
 1172              	.LFE48:
 1173              		.size	SecureElementAesEncrypt, .-SecureElementAesEncrypt
 1174              		.section	.text.SecureElementDeriveAndStoreKey,"ax",%progbits
 1175              		.align	1
 1176              		.p2align 2,,3
 1177              		.global	SecureElementDeriveAndStoreKey
 1178              		.syntax unified
 1179              		.code	16
 1180              		.thumb_func
 1181              		.fpu softvfp
 1182              		.type	SecureElementDeriveAndStoreKey, %function
 1183              	SecureElementDeriveAndStoreKey:
 1184              	.LFB49:
 315:../../../../../../Middlewares/Third_Party/LoRaWAN/Crypto/soft-se.c **** 
 316:../../../../../../Middlewares/Third_Party/LoRaWAN/Crypto/soft-se.c **** SecureElementStatus_t SecureElementDeriveAndStoreKey( Version_t version, uint8_t* input, KeyIdentif
 317:../../../../../../Middlewares/Third_Party/LoRaWAN/Crypto/soft-se.c **** {
 1185              		.loc 1 317 0
 1186              		.cfi_startproc
 1187              		@ args = 0, pretend = 0, frame = 32
 1188              		@ frame_needed = 0, uses_anonymous_args = 0
 1189              	.LVL146:
 1190 0000 F0B5     		push	{r4, r5, r6, r7, lr}
 1191              	.LCFI16:
 1192              		.cfi_def_cfa_offset 20
 1193              		.cfi_offset 4, -20
 1194              		.cfi_offset 5, -16
 1195              		.cfi_offset 6, -12
 1196              		.cfi_offset 7, -8
 1197              		.cfi_offset 14, -4
 1198 0002 0400     		movs	r4, r0
 1199 0004 89B0     		sub	sp, sp, #36
 1200              	.LCFI17:
ARM GAS  C:\Users\EBANO_~1\AppData\Local\Temp\cc3htvjc.s 			page 29


 1201              		.cfi_def_cfa_offset 56
 1202              		.loc 1 317 0
 1203 0006 0D00     		movs	r5, r1
 1204 0008 1700     		movs	r7, r2
 1205 000a 1E00     		movs	r6, r3
 318:../../../../../../Middlewares/Third_Party/LoRaWAN/Crypto/soft-se.c ****     if( input == NULL )
 1206              		.loc 1 318 0
 1207 000c 0029     		cmp	r1, #0
 1208 000e 00D1     		bne	.LCB1323
 1209 0010 70E0     		b	.L97	@long jump
 1210              	.LCB1323:
 1211              	.LVL147:
 319:../../../../../../Middlewares/Third_Party/LoRaWAN/Crypto/soft-se.c ****     {
 320:../../../../../../Middlewares/Third_Party/LoRaWAN/Crypto/soft-se.c ****         return SECURE_ELEMENT_ERROR_NPE;
 321:../../../../../../Middlewares/Third_Party/LoRaWAN/Crypto/soft-se.c ****     }
 322:../../../../../../Middlewares/Third_Party/LoRaWAN/Crypto/soft-se.c **** 
 323:../../../../../../Middlewares/Third_Party/LoRaWAN/Crypto/soft-se.c ****     SecureElementStatus_t retval = SECURE_ELEMENT_ERROR;
 324:../../../../../../Middlewares/Third_Party/LoRaWAN/Crypto/soft-se.c ****     uint8_t key[16] = { 0 };
 1212              		.loc 1 324 0
 1213 0012 1022     		movs	r2, #16
 1214              	.LVL148:
 1215 0014 0021     		movs	r1, #0
 1216              	.LVL149:
 1217 0016 6846     		mov	r0, sp
 1218              	.LVL150:
 1219 0018 FFF7FEFF 		bl	memset
 1220              	.LVL151:
 325:../../../../../../Middlewares/Third_Party/LoRaWAN/Crypto/soft-se.c **** 
 326:../../../../../../Middlewares/Third_Party/LoRaWAN/Crypto/soft-se.c ****     // In case of MC_KE_KEY, prevent other keys than NwkKey or AppKey for LoRaWAN 1.1 or later
 327:../../../../../../Middlewares/Third_Party/LoRaWAN/Crypto/soft-se.c ****     if( targetKeyID == MC_KE_KEY )
 1221              		.loc 1 327 0
 1222 001c 7F2E     		cmp	r6, #127
 1223 001e 59D0     		beq	.L107
 1224              	.L86:
 1225              	.LVL152:
 1226              	.LBB147:
 1227              	.LBB148:
 1228              	.LBB149:
 1229              	.LBB150:
 295:../../../../../../Middlewares/Third_Party/LoRaWAN/Crypto/soft-se.c **** 
 1230              		.loc 1 295 0
 1231 0020 3C4C     		ldr	r4, .L109
 1232 0022 F022     		movs	r2, #240
 1233 0024 0021     		movs	r1, #0
 1234 0026 2000     		movs	r0, r4
 1235 0028 FFF7FEFF 		bl	memset1
 1236              	.LVL153:
 1237 002c 0023     		movs	r3, #0
 1238 002e 02E0     		b	.L92
 1239              	.LVL154:
 1240              	.L90:
 1241 0030 0133     		adds	r3, r3, #1
 1242              	.LVL155:
 1243              	.LBB151:
 1244              	.LBB152:
  91:../../../../../../Middlewares/Third_Party/LoRaWAN/Crypto/soft-se.c ****     {
 1245              		.loc 1 91 0
ARM GAS  C:\Users\EBANO_~1\AppData\Local\Temp\cc3htvjc.s 			page 30


 1246 0032 162B     		cmp	r3, #22
 1247 0034 4BD0     		beq	.L106
 1248              	.L92:
 1249              	.LVL156:
  93:../../../../../../Middlewares/Third_Party/LoRaWAN/Crypto/soft-se.c ****         {
 1250              		.loc 1 93 0
 1251 0036 8322     		movs	r2, #131
 1252 0038 1801     		lsls	r0, r3, #4
 1253 003a C018     		adds	r0, r0, r3
 1254 003c 9200     		lsls	r2, r2, #2
 1255 003e 8218     		adds	r2, r0, r2
 1256 0040 A25C     		ldrb	r2, [r4, r2]
 1257 0042 BA42     		cmp	r2, r7
 1258 0044 F4D1     		bne	.L90
 1259              	.LVL157:
 1260              	.LBE152:
 1261              	.LBE151:
 1262              	.LBB153:
 302:../../../../../../Middlewares/Third_Party/LoRaWAN/Crypto/soft-se.c **** 
 1263              		.loc 1 302 0
 1264 0046 344B     		ldr	r3, .L109+4
 1265              	.LVL158:
 1266 0048 2200     		movs	r2, r4
 1267 004a 9C46     		mov	ip, r3
 1268 004c 6044     		add	r0, r0, ip
 1269 004e 1021     		movs	r1, #16
 1270 0050 2018     		adds	r0, r4, r0
 1271 0052 FFF7FEFF 		bl	aes_set_key
 1272              	.LVL159:
 308:../../../../../../Middlewares/Third_Party/LoRaWAN/Crypto/soft-se.c ****             block = block + 16;
 1273              		.loc 1 308 0
 1274 0056 2800     		movs	r0, r5
 1275 0058 2200     		movs	r2, r4
 1276 005a 6946     		mov	r1, sp
 1277 005c FFF7FEFF 		bl	aes_encrypt
 1278              	.LVL160:
 1279              	.LBE153:
 1280              	.LBE150:
 1281              	.LBE149:
 1282              	.LBE148:
 1283              	.LBE147:
 1284              	.LBB154:
 1285              	.LBB155:
 1286              	.LBB156:
 1287              	.LBB157:
 1288              	.LBB158:
 224:../../../../../../Middlewares/Third_Party/LoRaWAN/Crypto/soft-se.c ****             {  // Decrypt the key if its a Mulitcast key
 1289              		.loc 1 224 0
 1290 0060 77B2     		sxtb	r7, r6
 1291 0062 0025     		movs	r5, #0
 1292              	.LVL161:
 1293 0064 02E0     		b	.L91
 1294              	.LVL162:
 1295              	.L93:
 1296 0066 0135     		adds	r5, r5, #1
 1297              	.LVL163:
 220:../../../../../../Middlewares/Third_Party/LoRaWAN/Crypto/soft-se.c ****     {
ARM GAS  C:\Users\EBANO_~1\AppData\Local\Temp\cc3htvjc.s 			page 31


 1298              		.loc 1 220 0
 1299 0068 162D     		cmp	r5, #22
 1300 006a 30D0     		beq	.L106
 1301              	.L91:
 1302              	.LVL164:
 222:../../../../../../Middlewares/Third_Party/LoRaWAN/Crypto/soft-se.c ****         {
 1303              		.loc 1 222 0
 1304 006c 8323     		movs	r3, #131
 1305 006e 2801     		lsls	r0, r5, #4
 1306 0070 4019     		adds	r0, r0, r5
 1307 0072 9B00     		lsls	r3, r3, #2
 1308 0074 C318     		adds	r3, r0, r3
 1309 0076 E35C     		ldrb	r3, [r4, r3]
 1310 0078 B342     		cmp	r3, r6
 1311 007a F4D1     		bne	.L93
 224:../../../../../../Middlewares/Third_Party/LoRaWAN/Crypto/soft-se.c ****             {  // Decrypt the key if its a Mulitcast key
 1312              		.loc 1 224 0
 1313 007c 002F     		cmp	r7, #0
 1314 007e 3BDA     		bge	.L94
 1315              	.LBB159:
 227:../../../../../../Middlewares/Third_Party/LoRaWAN/Crypto/soft-se.c **** 
 1316              		.loc 1 227 0
 1317 0080 1022     		movs	r2, #16
 1318 0082 0021     		movs	r1, #0
 1319 0084 04A8     		add	r0, sp, #16
 1320 0086 FFF7FEFF 		bl	memset
 1321              	.LVL165:
 1322              	.LBB160:
 1323              	.LBB161:
 1324              	.LBB162:
 1325              	.LBB163:
 295:../../../../../../Middlewares/Third_Party/LoRaWAN/Crypto/soft-se.c **** 
 1326              		.loc 1 295 0
 1327 008a F022     		movs	r2, #240
 1328 008c 0021     		movs	r1, #0
 1329 008e 2000     		movs	r0, r4
 1330 0090 FFF7FEFF 		bl	memset1
 1331              	.LVL166:
 1332 0094 0023     		movs	r3, #0
 1333 0096 02E0     		b	.L96
 1334              	.LVL167:
 1335              	.L95:
 1336 0098 0133     		adds	r3, r3, #1
 1337              	.LVL168:
 1338              	.LBB164:
 1339              	.LBB165:
  91:../../../../../../Middlewares/Third_Party/LoRaWAN/Crypto/soft-se.c ****     {
 1340              		.loc 1 91 0
 1341 009a 162B     		cmp	r3, #22
 1342 009c 17D0     		beq	.L106
 1343              	.L96:
 1344              	.LVL169:
  93:../../../../../../Middlewares/Third_Party/LoRaWAN/Crypto/soft-se.c ****         {
 1345              		.loc 1 93 0
 1346 009e 8322     		movs	r2, #131
 1347 00a0 1801     		lsls	r0, r3, #4
 1348 00a2 C018     		adds	r0, r0, r3
ARM GAS  C:\Users\EBANO_~1\AppData\Local\Temp\cc3htvjc.s 			page 32


 1349 00a4 9200     		lsls	r2, r2, #2
 1350 00a6 8218     		adds	r2, r0, r2
 1351 00a8 A25C     		ldrb	r2, [r4, r2]
 1352 00aa 7F2A     		cmp	r2, #127
 1353 00ac F4D1     		bne	.L95
 1354              	.LVL170:
 1355              	.LBE165:
 1356              	.LBE164:
 1357              	.LBB166:
 302:../../../../../../Middlewares/Third_Party/LoRaWAN/Crypto/soft-se.c **** 
 1358              		.loc 1 302 0
 1359 00ae 1A4B     		ldr	r3, .L109+4
 1360              	.LVL171:
 1361 00b0 2200     		movs	r2, r4
 1362 00b2 9C46     		mov	ip, r3
 1363 00b4 6044     		add	r0, r0, ip
 1364 00b6 1021     		movs	r1, #16
 1365 00b8 2018     		adds	r0, r4, r0
 1366 00ba FFF7FEFF 		bl	aes_set_key
 1367              	.LVL172:
 1368 00be 0135     		adds	r5, r5, #1
 1369              	.LVL173:
 308:../../../../../../Middlewares/Third_Party/LoRaWAN/Crypto/soft-se.c ****             block = block + 16;
 1370              		.loc 1 308 0
 1371 00c0 2200     		movs	r2, r4
 1372 00c2 04A9     		add	r1, sp, #16
 1373              	.LVL174:
 1374 00c4 6846     		mov	r0, sp
 1375 00c6 FFF7FEFF 		bl	aes_encrypt
 1376              	.LVL175:
 1377              	.LBE166:
 1378              	.LBE163:
 1379              	.LBE162:
 1380              	.LBE161:
 1381              	.LBE160:
 1382              	.LBE159:
 220:../../../../../../Middlewares/Third_Party/LoRaWAN/Crypto/soft-se.c ****     {
 1383              		.loc 1 220 0
 1384 00ca 162D     		cmp	r5, #22
 1385 00cc CED1     		bne	.L91
 1386              	.L106:
 1387              	.LBB167:
 232:../../../../../../Middlewares/Third_Party/LoRaWAN/Crypto/soft-se.c ****                 }
 1388              		.loc 1 232 0
 1389 00ce 0320     		movs	r0, #3
 1390              	.L105:
 1391              	.LBE167:
 1392              	.LBE158:
 1393              	.LBE157:
 1394              	.LBE156:
 1395              	.LBE155:
 1396              	.LBE154:
 328:../../../../../../Middlewares/Third_Party/LoRaWAN/Crypto/soft-se.c ****     {
 329:../../../../../../Middlewares/Third_Party/LoRaWAN/Crypto/soft-se.c ****         if( ( ( rootKeyID == APP_KEY ) && ( version.Fields.Minor == 0 ) ) || ( rootKeyID == NWK_KEY
 330:../../../../../../Middlewares/Third_Party/LoRaWAN/Crypto/soft-se.c ****         {
 331:../../../../../../Middlewares/Third_Party/LoRaWAN/Crypto/soft-se.c ****             return SECURE_ELEMENT_ERROR_INVALID_KEY_ID;
 332:../../../../../../Middlewares/Third_Party/LoRaWAN/Crypto/soft-se.c ****         }
ARM GAS  C:\Users\EBANO_~1\AppData\Local\Temp\cc3htvjc.s 			page 33


 333:../../../../../../Middlewares/Third_Party/LoRaWAN/Crypto/soft-se.c ****     }
 334:../../../../../../Middlewares/Third_Party/LoRaWAN/Crypto/soft-se.c **** 
 335:../../../../../../Middlewares/Third_Party/LoRaWAN/Crypto/soft-se.c ****     // In case of McKEKey derivation, the parameter input is concatenated: nonce | DevEUI  | pad16
 336:../../../../../../Middlewares/Third_Party/LoRaWAN/Crypto/soft-se.c ****     // where nonce SHALL be greater than 15
 337:../../../../../../Middlewares/Third_Party/LoRaWAN/Crypto/soft-se.c ****     uint16_t nonce = input[0];
 338:../../../../../../Middlewares/Third_Party/LoRaWAN/Crypto/soft-se.c ****     nonce |= ( ( uint16_t ) input[1] << 8 );
 339:../../../../../../Middlewares/Third_Party/LoRaWAN/Crypto/soft-se.c ****     if( ( targetKeyID == MC_KE_KEY ) && ( nonce < 16 ) )
 340:../../../../../../Middlewares/Third_Party/LoRaWAN/Crypto/soft-se.c ****     {
 341:../../../../../../Middlewares/Third_Party/LoRaWAN/Crypto/soft-se.c ****         return retval;
 342:../../../../../../Middlewares/Third_Party/LoRaWAN/Crypto/soft-se.c ****     }
 343:../../../../../../Middlewares/Third_Party/LoRaWAN/Crypto/soft-se.c **** 
 344:../../../../../../Middlewares/Third_Party/LoRaWAN/Crypto/soft-se.c ****     // Derive key
 345:../../../../../../Middlewares/Third_Party/LoRaWAN/Crypto/soft-se.c ****     retval = SecureElementAesEncrypt( input, 16, rootKeyID, key );
 346:../../../../../../Middlewares/Third_Party/LoRaWAN/Crypto/soft-se.c ****     if( retval != SECURE_ELEMENT_SUCCESS )
 347:../../../../../../Middlewares/Third_Party/LoRaWAN/Crypto/soft-se.c ****     {
 348:../../../../../../Middlewares/Third_Party/LoRaWAN/Crypto/soft-se.c ****         return retval;
 349:../../../../../../Middlewares/Third_Party/LoRaWAN/Crypto/soft-se.c ****     }
 350:../../../../../../Middlewares/Third_Party/LoRaWAN/Crypto/soft-se.c **** 
 351:../../../../../../Middlewares/Third_Party/LoRaWAN/Crypto/soft-se.c ****     // Store key
 352:../../../../../../Middlewares/Third_Party/LoRaWAN/Crypto/soft-se.c ****     retval = SecureElementSetKey( targetKeyID, key );
 353:../../../../../../Middlewares/Third_Party/LoRaWAN/Crypto/soft-se.c ****     if( retval != SECURE_ELEMENT_SUCCESS )
 354:../../../../../../Middlewares/Third_Party/LoRaWAN/Crypto/soft-se.c ****     {
 355:../../../../../../Middlewares/Third_Party/LoRaWAN/Crypto/soft-se.c ****         return retval;
 356:../../../../../../Middlewares/Third_Party/LoRaWAN/Crypto/soft-se.c ****     }
 357:../../../../../../Middlewares/Third_Party/LoRaWAN/Crypto/soft-se.c **** 
 358:../../../../../../Middlewares/Third_Party/LoRaWAN/Crypto/soft-se.c ****     return SECURE_ELEMENT_SUCCESS;
 359:../../../../../../Middlewares/Third_Party/LoRaWAN/Crypto/soft-se.c **** }
 1397              		.loc 1 359 0
 1398 00d0 09B0     		add	sp, sp, #36
 1399              		@ sp needed
 1400 00d2 F0BD     		pop	{r4, r5, r6, r7, pc}
 1401              	.LVL176:
 1402              	.L107:
 329:../../../../../../Middlewares/Third_Party/LoRaWAN/Crypto/soft-se.c ****         {
 1403              		.loc 1 329 0
 1404 00d4 002F     		cmp	r7, #0
 1405 00d6 09D0     		beq	.L108
 329:../../../../../../Middlewares/Third_Party/LoRaWAN/Crypto/soft-se.c ****         {
 1406              		.loc 1 329 0 is_stmt 0 discriminator 3
 1407 00d8 012F     		cmp	r7, #1
 1408 00da F8D0     		beq	.L106
 1409              	.L88:
 1410              	.LVL177:
 338:../../../../../../Middlewares/Third_Party/LoRaWAN/Crypto/soft-se.c ****     if( ( targetKeyID == MC_KE_KEY ) && ( nonce < 16 ) )
 1411              		.loc 1 338 0 is_stmt 1
 1412 00dc 6A78     		ldrb	r2, [r5, #1]
 1413 00de 2B78     		ldrb	r3, [r5]
 1414 00e0 1202     		lsls	r2, r2, #8
 339:../../../../../../Middlewares/Third_Party/LoRaWAN/Crypto/soft-se.c ****     {
 1415              		.loc 1 339 0
 1416 00e2 1343     		orrs	r3, r2
 1417 00e4 0F2B     		cmp	r3, #15
 1418 00e6 9BD8     		bhi	.L86
 341:../../../../../../Middlewares/Third_Party/LoRaWAN/Crypto/soft-se.c ****     }
 1419              		.loc 1 341 0
 1420 00e8 0620     		movs	r0, #6
 1421 00ea F1E7     		b	.L105
ARM GAS  C:\Users\EBANO_~1\AppData\Local\Temp\cc3htvjc.s 			page 34


 1422              	.LVL178:
 1423              	.L108:
 329:../../../../../../Middlewares/Third_Party/LoRaWAN/Crypto/soft-se.c ****         {
 1424              		.loc 1 329 0 discriminator 1
 1425 00ec 2402     		lsls	r4, r4, #8
 1426              	.LVL179:
 1427 00ee 240E     		lsrs	r4, r4, #24
 1428 00f0 F4D1     		bne	.L88
 1429 00f2 ECE7     		b	.L106
 1430              	.LVL180:
 1431              	.L97:
 320:../../../../../../Middlewares/Third_Party/LoRaWAN/Crypto/soft-se.c ****     }
 1432              		.loc 1 320 0
 1433 00f4 0220     		movs	r0, #2
 1434              	.LVL181:
 1435 00f6 EBE7     		b	.L105
 1436              	.LVL182:
 1437              	.L94:
 1438              	.LBB172:
 1439              	.LBB171:
 1440              	.LBB170:
 1441              	.LBB169:
 1442              	.LBB168:
 237:../../../../../../Middlewares/Third_Party/LoRaWAN/Crypto/soft-se.c ****                 SeNvmCtxChanged( );
 1443              		.loc 1 237 0
 1444 00f8 074B     		ldr	r3, .L109+4
 1445 00fa 1022     		movs	r2, #16
 1446 00fc 9C46     		mov	ip, r3
 1447 00fe 6044     		add	r0, r0, ip
 1448 0100 2018     		adds	r0, r4, r0
 1449 0102 6946     		mov	r1, sp
 1450 0104 FFF7FEFF 		bl	memcpy1
 1451              	.LVL183:
 238:../../../../../../Middlewares/Third_Party/LoRaWAN/Crypto/soft-se.c ****                 return SECURE_ELEMENT_SUCCESS;
 1452              		.loc 1 238 0
 1453 0108 044B     		ldr	r3, .L109+8
 1454 010a 1B68     		ldr	r3, [r3]
 1455 010c 9847     		blx	r3
 1456              	.LVL184:
 1457              	.LBE168:
 1458              	.LBE169:
 1459              	.LBE170:
 1460              	.LBE171:
 1461              	.LBE172:
 358:../../../../../../Middlewares/Third_Party/LoRaWAN/Crypto/soft-se.c **** }
 1462              		.loc 1 358 0
 1463 010e 0020     		movs	r0, #0
 1464 0110 DEE7     		b	.L105
 1465              	.L110:
 1466 0112 C046     		.align	2
 1467              	.L109:
 1468 0114 04000000 		.word	SeNvmCtx
 1469 0118 0D020000 		.word	525
 1470 011c 00000000 		.word	.LANCHOR0
 1471              		.cfi_endproc
 1472              	.LFE49:
 1473              		.size	SecureElementDeriveAndStoreKey, .-SecureElementDeriveAndStoreKey
ARM GAS  C:\Users\EBANO_~1\AppData\Local\Temp\cc3htvjc.s 			page 35


 1474              		.section	.text.SecureElementRandomNumber,"ax",%progbits
 1475              		.align	1
 1476              		.p2align 2,,3
 1477              		.global	SecureElementRandomNumber
 1478              		.syntax unified
 1479              		.code	16
 1480              		.thumb_func
 1481              		.fpu softvfp
 1482              		.type	SecureElementRandomNumber, %function
 1483              	SecureElementRandomNumber:
 1484              	.LFB50:
 360:../../../../../../Middlewares/Third_Party/LoRaWAN/Crypto/soft-se.c **** 
 361:../../../../../../Middlewares/Third_Party/LoRaWAN/Crypto/soft-se.c **** SecureElementStatus_t SecureElementRandomNumber( uint32_t* randomNum )
 362:../../../../../../Middlewares/Third_Party/LoRaWAN/Crypto/soft-se.c **** {
 1485              		.loc 1 362 0
 1486              		.cfi_startproc
 1487              		@ args = 0, pretend = 0, frame = 8
 1488              		@ frame_needed = 0, uses_anonymous_args = 0
 1489              	.LVL185:
 1490 0000 10B5     		push	{r4, lr}
 1491              	.LCFI18:
 1492              		.cfi_def_cfa_offset 8
 1493              		.cfi_offset 4, -8
 1494              		.cfi_offset 14, -4
 1495 0002 0400     		movs	r4, r0
 1496 0004 82B0     		sub	sp, sp, #8
 1497              	.LCFI19:
 1498              		.cfi_def_cfa_offset 16
 363:../../../../../../Middlewares/Third_Party/LoRaWAN/Crypto/soft-se.c ****     if( randomNum == NULL )
 1499              		.loc 1 363 0
 1500 0006 0028     		cmp	r0, #0
 1501 0008 07D0     		beq	.L113
 364:../../../../../../Middlewares/Third_Party/LoRaWAN/Crypto/soft-se.c ****     {
 365:../../../../../../Middlewares/Third_Party/LoRaWAN/Crypto/soft-se.c ****         return SECURE_ELEMENT_ERROR_NPE;
 366:../../../../../../Middlewares/Third_Party/LoRaWAN/Crypto/soft-se.c ****     }
 367:../../../../../../Middlewares/Third_Party/LoRaWAN/Crypto/soft-se.c ****     *randomNum = Radio.Random( );
 1502              		.loc 1 367 0
 1503 000a 054B     		ldr	r3, .L114
 1504 000c DB69     		ldr	r3, [r3, #28]
 1505 000e 0193     		str	r3, [sp, #4]
 1506 0010 9847     		blx	r3
 1507              	.LVL186:
 1508 0012 2060     		str	r0, [r4]
 368:../../../../../../Middlewares/Third_Party/LoRaWAN/Crypto/soft-se.c ****     return SECURE_ELEMENT_SUCCESS;
 1509              		.loc 1 368 0
 1510 0014 0020     		movs	r0, #0
 1511              	.L112:
 369:../../../../../../Middlewares/Third_Party/LoRaWAN/Crypto/soft-se.c **** }
 1512              		.loc 1 369 0
 1513 0016 02B0     		add	sp, sp, #8
 1514              		@ sp needed
 1515              	.LVL187:
 1516 0018 10BD     		pop	{r4, pc}
 1517              	.LVL188:
 1518              	.L113:
 365:../../../../../../Middlewares/Third_Party/LoRaWAN/Crypto/soft-se.c ****     }
 1519              		.loc 1 365 0
ARM GAS  C:\Users\EBANO_~1\AppData\Local\Temp\cc3htvjc.s 			page 36


 1520 001a 0220     		movs	r0, #2
 1521              	.LVL189:
 1522 001c FBE7     		b	.L112
 1523              	.L115:
 1524 001e C046     		.align	2
 1525              	.L114:
 1526 0020 00000000 		.word	Radio
 1527              		.cfi_endproc
 1528              	.LFE50:
 1529              		.size	SecureElementRandomNumber, .-SecureElementRandomNumber
 1530              		.bss
 1531              		.align	2
 1532              		.set	.LANCHOR0,. + 0
 1533              		.type	SeNvmCtxChanged, %object
 1534              		.size	SeNvmCtxChanged, 4
 1535              	SeNvmCtxChanged:
 1536 0000 00000000 		.space	4
 1537              		.type	SeNvmCtx, %object
 1538              		.size	SeNvmCtx, 900
 1539              	SeNvmCtx:
 1540 0004 00000000 		.space	900
 1540      00000000 
 1540      00000000 
 1540      00000000 
 1540      00000000 
 1541              		.text
 1542              	.Letext0:
 1543              		.file 2 "c:\\program files (x86)\\gnu tools arm embedded\\7 2018-q2-update\\arm-none-eabi\\include
 1544              		.file 3 "c:\\program files (x86)\\gnu tools arm embedded\\7 2018-q2-update\\arm-none-eabi\\include
 1545              		.file 4 "c:\\program files (x86)\\gnu tools arm embedded\\7 2018-q2-update\\lib\\gcc\\arm-none-eab
 1546              		.file 5 "c:\\program files (x86)\\gnu tools arm embedded\\7 2018-q2-update\\arm-none-eabi\\include
 1547              		.file 6 "c:\\program files (x86)\\gnu tools arm embedded\\7 2018-q2-update\\arm-none-eabi\\include
 1548              		.file 7 "c:\\program files (x86)\\gnu tools arm embedded\\7 2018-q2-update\\arm-none-eabi\\include
 1549              		.file 8 "c:\\program files (x86)\\gnu tools arm embedded\\7 2018-q2-update\\arm-none-eabi\\include
 1550              		.file 9 "../../../../../../Drivers/CMSIS/Device/ST/STM32L0xx/Include/system_stm32l0xx.h"
 1551              		.file 10 "../../../../../../Middlewares/Third_Party/LoRaWAN/Utilities/utilities.h"
 1552              		.file 11 "../../../../../../Middlewares/Third_Party/LoRaWAN/Mac/LoRaMacTypes.h"
 1553              		.file 12 "../../../../../../Middlewares/Third_Party/LoRaWAN/Mac/secure-element.h"
 1554              		.file 13 "../../../../../../Middlewares/Third_Party/LoRaWAN/Crypto/aes.h"
 1555              		.file 14 "../../../../../../Middlewares/Third_Party/LoRaWAN/Crypto/cmac.h"
 1556              		.file 15 "../../../../../../Middlewares/Third_Party/LoRaWAN/Phy/radio.h"
 1557              		.file 16 "<built-in>"