ARM GAS  C:\Users\EBANO_~1\AppData\Local\Temp\ccyPWgHX.s 			page 1


   1              		.cpu cortex-m0plus
   2              		.eabi_attribute 20, 1
   3              		.eabi_attribute 21, 1
   4              		.eabi_attribute 23, 3
   5              		.eabi_attribute 24, 1
   6              		.eabi_attribute 25, 1
   7              		.eabi_attribute 26, 1
   8              		.eabi_attribute 30, 2
   9              		.eabi_attribute 34, 0
  10              		.eabi_attribute 18, 4
  11              		.file	"stm32l0xx_hal_rtc_ex.c"
  12              		.text
  13              	.Ltext0:
  14              		.cfi_sections	.debug_frame
  15              		.section	.text.HAL_RTCEx_SetTimeStamp,"ax",%progbits
  16              		.align	1
  17              		.p2align 2,,3
  18              		.global	HAL_RTCEx_SetTimeStamp
  19              		.syntax unified
  20              		.code	16
  21              		.thumb_func
  22              		.fpu softvfp
  23              		.type	HAL_RTCEx_SetTimeStamp, %function
  24              	HAL_RTCEx_SetTimeStamp:
  25              	.LFB39:
  26              		.file 1 "../../../../../../Drivers/STM32L0xx_HAL_Driver/Src/stm32l0xx_hal_rtc_ex.c"
   1:../../../../../../Drivers/STM32L0xx_HAL_Driver/Src/stm32l0xx_hal_rtc_ex.c **** /**
   2:../../../../../../Drivers/STM32L0xx_HAL_Driver/Src/stm32l0xx_hal_rtc_ex.c ****   ******************************************************************************
   3:../../../../../../Drivers/STM32L0xx_HAL_Driver/Src/stm32l0xx_hal_rtc_ex.c ****   * @file    stm32l0xx_hal_rtc_ex.c
   4:../../../../../../Drivers/STM32L0xx_HAL_Driver/Src/stm32l0xx_hal_rtc_ex.c ****   * @author  MCD Application Team
   5:../../../../../../Drivers/STM32L0xx_HAL_Driver/Src/stm32l0xx_hal_rtc_ex.c ****   * @brief   Extended RTC HAL module driver.
   6:../../../../../../Drivers/STM32L0xx_HAL_Driver/Src/stm32l0xx_hal_rtc_ex.c ****   *
   7:../../../../../../Drivers/STM32L0xx_HAL_Driver/Src/stm32l0xx_hal_rtc_ex.c ****   *          This file provides firmware functions to manage the following 
   8:../../../../../../Drivers/STM32L0xx_HAL_Driver/Src/stm32l0xx_hal_rtc_ex.c ****   *          functionalities of the Real Time Clock (RTC) Extended peripheral:
   9:../../../../../../Drivers/STM32L0xx_HAL_Driver/Src/stm32l0xx_hal_rtc_ex.c ****   *           + RTC Time Stamp functions
  10:../../../../../../Drivers/STM32L0xx_HAL_Driver/Src/stm32l0xx_hal_rtc_ex.c ****   *           + RTC Tamper functions 
  11:../../../../../../Drivers/STM32L0xx_HAL_Driver/Src/stm32l0xx_hal_rtc_ex.c ****   *           + RTC Wake-up functions
  12:../../../../../../Drivers/STM32L0xx_HAL_Driver/Src/stm32l0xx_hal_rtc_ex.c ****   *           + Extended Control functions
  13:../../../../../../Drivers/STM32L0xx_HAL_Driver/Src/stm32l0xx_hal_rtc_ex.c ****   *           + Extended RTC features functions    
  14:../../../../../../Drivers/STM32L0xx_HAL_Driver/Src/stm32l0xx_hal_rtc_ex.c ****   *
  15:../../../../../../Drivers/STM32L0xx_HAL_Driver/Src/stm32l0xx_hal_rtc_ex.c ****   @verbatim
  16:../../../../../../Drivers/STM32L0xx_HAL_Driver/Src/stm32l0xx_hal_rtc_ex.c ****   ==============================================================================
  17:../../../../../../Drivers/STM32L0xx_HAL_Driver/Src/stm32l0xx_hal_rtc_ex.c ****                   ##### How to use this driver #####
  18:../../../../../../Drivers/STM32L0xx_HAL_Driver/Src/stm32l0xx_hal_rtc_ex.c ****   ==============================================================================
  19:../../../../../../Drivers/STM32L0xx_HAL_Driver/Src/stm32l0xx_hal_rtc_ex.c ****   [..]
  20:../../../../../../Drivers/STM32L0xx_HAL_Driver/Src/stm32l0xx_hal_rtc_ex.c ****     (+) Enable the RTC domain access.
  21:../../../../../../Drivers/STM32L0xx_HAL_Driver/Src/stm32l0xx_hal_rtc_ex.c ****     (+) Configure the RTC Prescaler (Asynchronous and Synchronous) and RTC hour
  22:../../../../../../Drivers/STM32L0xx_HAL_Driver/Src/stm32l0xx_hal_rtc_ex.c ****         format using the HAL_RTC_Init() function.
  23:../../../../../../Drivers/STM32L0xx_HAL_Driver/Src/stm32l0xx_hal_rtc_ex.c **** 
  24:../../../../../../Drivers/STM32L0xx_HAL_Driver/Src/stm32l0xx_hal_rtc_ex.c ****   *** RTC Wakeup configuration ***
  25:../../../../../../Drivers/STM32L0xx_HAL_Driver/Src/stm32l0xx_hal_rtc_ex.c ****   ================================
  26:../../../../../../Drivers/STM32L0xx_HAL_Driver/Src/stm32l0xx_hal_rtc_ex.c ****   [..] 
  27:../../../../../../Drivers/STM32L0xx_HAL_Driver/Src/stm32l0xx_hal_rtc_ex.c ****     (+) To configure the RTC Wakeup Clock source and Counter use the HAL_RTCEx_SetWakeUpTimer()
  28:../../../../../../Drivers/STM32L0xx_HAL_Driver/Src/stm32l0xx_hal_rtc_ex.c ****         function. You can also configure the RTC Wakeup timer with interrupt mode 
  29:../../../../../../Drivers/STM32L0xx_HAL_Driver/Src/stm32l0xx_hal_rtc_ex.c ****         using the HAL_RTCEx_SetWakeUpTimer_IT() function.
  30:../../../../../../Drivers/STM32L0xx_HAL_Driver/Src/stm32l0xx_hal_rtc_ex.c ****     (+) To read the RTC WakeUp Counter register, use the HAL_RTCEx_GetWakeUpTimer()
  31:../../../../../../Drivers/STM32L0xx_HAL_Driver/Src/stm32l0xx_hal_rtc_ex.c ****         function.
ARM GAS  C:\Users\EBANO_~1\AppData\Local\Temp\ccyPWgHX.s 			page 2


  32:../../../../../../Drivers/STM32L0xx_HAL_Driver/Src/stm32l0xx_hal_rtc_ex.c ****         
  33:../../../../../../Drivers/STM32L0xx_HAL_Driver/Src/stm32l0xx_hal_rtc_ex.c ****   *** Outputs configuration ***
  34:../../../../../../Drivers/STM32L0xx_HAL_Driver/Src/stm32l0xx_hal_rtc_ex.c ****   =============================
  35:../../../../../../Drivers/STM32L0xx_HAL_Driver/Src/stm32l0xx_hal_rtc_ex.c ****   [..] The RTC has 2 different outputs:
  36:../../../../../../Drivers/STM32L0xx_HAL_Driver/Src/stm32l0xx_hal_rtc_ex.c ****     (+) RTC_ALARM: this output is used to manage the RTC Alarm A, Alarm B
  37:../../../../../../Drivers/STM32L0xx_HAL_Driver/Src/stm32l0xx_hal_rtc_ex.c ****         and WaKeUp signals.
  38:../../../../../../Drivers/STM32L0xx_HAL_Driver/Src/stm32l0xx_hal_rtc_ex.c ****         To output the selected RTC signal, use the HAL_RTC_Init() function.             
  39:../../../../../../Drivers/STM32L0xx_HAL_Driver/Src/stm32l0xx_hal_rtc_ex.c ****     (+) RTC_CALIB: this output is 512Hz signal or 1Hz.
  40:../../../../../../Drivers/STM32L0xx_HAL_Driver/Src/stm32l0xx_hal_rtc_ex.c ****         To enable the RTC_CALIB, use the HAL_RTCEx_SetCalibrationOutPut() function.
  41:../../../../../../Drivers/STM32L0xx_HAL_Driver/Src/stm32l0xx_hal_rtc_ex.c ****     (+) Two pins can be used as RTC_ALARM or RTC_CALIB (PC13, PB14) for STM32L05x/6x/7x/8x 
  42:../../../../../../Drivers/STM32L0xx_HAL_Driver/Src/stm32l0xx_hal_rtc_ex.c **** 	    and (PA2, PB14) for STM32L03x/4x managed on the RTC_OR register.
  43:../../../../../../Drivers/STM32L0xx_HAL_Driver/Src/stm32l0xx_hal_rtc_ex.c ****     (+) When the RTC_CALIB or RTC_ALARM output is selected, the RTC_OUT pin is
  44:../../../../../../Drivers/STM32L0xx_HAL_Driver/Src/stm32l0xx_hal_rtc_ex.c ****         automatically configured in output alternate function. 
  45:../../../../../../Drivers/STM32L0xx_HAL_Driver/Src/stm32l0xx_hal_rtc_ex.c ****         
  46:../../../../../../Drivers/STM32L0xx_HAL_Driver/Src/stm32l0xx_hal_rtc_ex.c ****   *** Smooth digital Calibration configuration ***
  47:../../../../../../Drivers/STM32L0xx_HAL_Driver/Src/stm32l0xx_hal_rtc_ex.c ****   ================================================
  48:../../../../../../Drivers/STM32L0xx_HAL_Driver/Src/stm32l0xx_hal_rtc_ex.c ****   [..]
  49:../../../../../../Drivers/STM32L0xx_HAL_Driver/Src/stm32l0xx_hal_rtc_ex.c ****     (+) Configure the RTC Original Digital Calibration Value and the corresponding
  50:../../../../../../Drivers/STM32L0xx_HAL_Driver/Src/stm32l0xx_hal_rtc_ex.c ****         calibration cycle period (32s,16s and 8s) using the HAL_RTCEx_SetSmoothCalib() 
  51:../../../../../../Drivers/STM32L0xx_HAL_Driver/Src/stm32l0xx_hal_rtc_ex.c ****         function.
  52:../../../../../../Drivers/STM32L0xx_HAL_Driver/Src/stm32l0xx_hal_rtc_ex.c **** 
  53:../../../../../../Drivers/STM32L0xx_HAL_Driver/Src/stm32l0xx_hal_rtc_ex.c ****   *** TimeStamp configuration ***
  54:../../../../../../Drivers/STM32L0xx_HAL_Driver/Src/stm32l0xx_hal_rtc_ex.c ****   ===============================
  55:../../../../../../Drivers/STM32L0xx_HAL_Driver/Src/stm32l0xx_hal_rtc_ex.c ****   [..]
  56:../../../../../../Drivers/STM32L0xx_HAL_Driver/Src/stm32l0xx_hal_rtc_ex.c ****         (+) Configure the RTC_AF trigger and enable the RTC TimeStamp using the 
  57:../../../../../../Drivers/STM32L0xx_HAL_Driver/Src/stm32l0xx_hal_rtc_ex.c ****             HAL_RTCEx_SetTimeStamp() function. You can also configure the RTC TimeStamp with 
  58:../../../../../../Drivers/STM32L0xx_HAL_Driver/Src/stm32l0xx_hal_rtc_ex.c ****             interrupt mode using the HAL_RTCEx_SetTimeStamp_IT() function.
  59:../../../../../../Drivers/STM32L0xx_HAL_Driver/Src/stm32l0xx_hal_rtc_ex.c ****         (+) To read the RTC TimeStamp Time and Date register, use the HAL_RTCEx_GetTimeStamp()
  60:../../../../../../Drivers/STM32L0xx_HAL_Driver/Src/stm32l0xx_hal_rtc_ex.c ****             function.
  61:../../../../../../Drivers/STM32L0xx_HAL_Driver/Src/stm32l0xx_hal_rtc_ex.c **** 
  62:../../../../../../Drivers/STM32L0xx_HAL_Driver/Src/stm32l0xx_hal_rtc_ex.c ****   *** Tamper configuration ***
  63:../../../../../../Drivers/STM32L0xx_HAL_Driver/Src/stm32l0xx_hal_rtc_ex.c ****   ============================
  64:../../../../../../Drivers/STM32L0xx_HAL_Driver/Src/stm32l0xx_hal_rtc_ex.c ****   [..]
  65:../../../../../../Drivers/STM32L0xx_HAL_Driver/Src/stm32l0xx_hal_rtc_ex.c ****         (+) Enable the RTC Tamper and configure the Tamper filter count, trigger Edge 
  66:../../../../../../Drivers/STM32L0xx_HAL_Driver/Src/stm32l0xx_hal_rtc_ex.c ****         or Level according to the Tamper filter (if equal to 0 Edge else Level) 
  67:../../../../../../Drivers/STM32L0xx_HAL_Driver/Src/stm32l0xx_hal_rtc_ex.c ****         value, sampling frequency, NoErase, MaskFlag,  precharge or discharge and
  68:../../../../../../Drivers/STM32L0xx_HAL_Driver/Src/stm32l0xx_hal_rtc_ex.c ****         Pull-UP using the HAL_RTCEx_SetTamper() function. You can configure RTC Tamper
  69:../../../../../../Drivers/STM32L0xx_HAL_Driver/Src/stm32l0xx_hal_rtc_ex.c ****         with interrupt mode using HAL_RTCEx_SetTamper_IT() function.
  70:../../../../../../Drivers/STM32L0xx_HAL_Driver/Src/stm32l0xx_hal_rtc_ex.c ****     (+) The default configuration of the Tamper erases the backup registers. To avoid
  71:../../../../../../Drivers/STM32L0xx_HAL_Driver/Src/stm32l0xx_hal_rtc_ex.c ****         erase, enable the NoErase field on the RTC_TAMPCR register.
  72:../../../../../../Drivers/STM32L0xx_HAL_Driver/Src/stm32l0xx_hal_rtc_ex.c **** 
  73:../../../../../../Drivers/STM32L0xx_HAL_Driver/Src/stm32l0xx_hal_rtc_ex.c ****   *** Backup Data Registers configuration ***
  74:../../../../../../Drivers/STM32L0xx_HAL_Driver/Src/stm32l0xx_hal_rtc_ex.c ****   ===========================================
  75:../../../../../../Drivers/STM32L0xx_HAL_Driver/Src/stm32l0xx_hal_rtc_ex.c ****   [..]
  76:../../../../../../Drivers/STM32L0xx_HAL_Driver/Src/stm32l0xx_hal_rtc_ex.c ****     (+) To write to the RTC Backup Data registers, use the HAL_RTCEx_BKUPWrite()
  77:../../../../../../Drivers/STM32L0xx_HAL_Driver/Src/stm32l0xx_hal_rtc_ex.c ****         function.
  78:../../../../../../Drivers/STM32L0xx_HAL_Driver/Src/stm32l0xx_hal_rtc_ex.c ****     (+) To read the RTC Backup Data registers, use the HAL_RTCEx_BKUPRead()
  79:../../../../../../Drivers/STM32L0xx_HAL_Driver/Src/stm32l0xx_hal_rtc_ex.c ****         function.
  80:../../../../../../Drivers/STM32L0xx_HAL_Driver/Src/stm32l0xx_hal_rtc_ex.c **** 
  81:../../../../../../Drivers/STM32L0xx_HAL_Driver/Src/stm32l0xx_hal_rtc_ex.c ****    @endverbatim
  82:../../../../../../Drivers/STM32L0xx_HAL_Driver/Src/stm32l0xx_hal_rtc_ex.c ****   ******************************************************************************
  83:../../../../../../Drivers/STM32L0xx_HAL_Driver/Src/stm32l0xx_hal_rtc_ex.c ****   * @attention
  84:../../../../../../Drivers/STM32L0xx_HAL_Driver/Src/stm32l0xx_hal_rtc_ex.c ****   *
  85:../../../../../../Drivers/STM32L0xx_HAL_Driver/Src/stm32l0xx_hal_rtc_ex.c ****   * <h2><center>&copy; COPYRIGHT(c) 2016 STMicroelectronics</center></h2>
  86:../../../../../../Drivers/STM32L0xx_HAL_Driver/Src/stm32l0xx_hal_rtc_ex.c ****   *
  87:../../../../../../Drivers/STM32L0xx_HAL_Driver/Src/stm32l0xx_hal_rtc_ex.c ****   * Redistribution and use in source and binary forms, with or without modification,
  88:../../../../../../Drivers/STM32L0xx_HAL_Driver/Src/stm32l0xx_hal_rtc_ex.c ****   * are permitted provided that the following conditions are met:
ARM GAS  C:\Users\EBANO_~1\AppData\Local\Temp\ccyPWgHX.s 			page 3


  89:../../../../../../Drivers/STM32L0xx_HAL_Driver/Src/stm32l0xx_hal_rtc_ex.c ****   *   1. Redistributions of source code must retain the above copyright notice,
  90:../../../../../../Drivers/STM32L0xx_HAL_Driver/Src/stm32l0xx_hal_rtc_ex.c ****   *      this list of conditions and the following disclaimer.
  91:../../../../../../Drivers/STM32L0xx_HAL_Driver/Src/stm32l0xx_hal_rtc_ex.c ****   *   2. Redistributions in binary form must reproduce the above copyright notice,
  92:../../../../../../Drivers/STM32L0xx_HAL_Driver/Src/stm32l0xx_hal_rtc_ex.c ****   *      this list of conditions and the following disclaimer in the documentation
  93:../../../../../../Drivers/STM32L0xx_HAL_Driver/Src/stm32l0xx_hal_rtc_ex.c ****   *      and/or other materials provided with the distribution.
  94:../../../../../../Drivers/STM32L0xx_HAL_Driver/Src/stm32l0xx_hal_rtc_ex.c ****   *   3. Neither the name of STMicroelectronics nor the names of its contributors
  95:../../../../../../Drivers/STM32L0xx_HAL_Driver/Src/stm32l0xx_hal_rtc_ex.c ****   *      may be used to endorse or promote products derived from this software
  96:../../../../../../Drivers/STM32L0xx_HAL_Driver/Src/stm32l0xx_hal_rtc_ex.c ****   *      without specific prior written permission.
  97:../../../../../../Drivers/STM32L0xx_HAL_Driver/Src/stm32l0xx_hal_rtc_ex.c ****   *
  98:../../../../../../Drivers/STM32L0xx_HAL_Driver/Src/stm32l0xx_hal_rtc_ex.c ****   * THIS SOFTWARE IS PROVIDED BY THE COPYRIGHT HOLDERS AND CONTRIBUTORS "AS IS"
  99:../../../../../../Drivers/STM32L0xx_HAL_Driver/Src/stm32l0xx_hal_rtc_ex.c ****   * AND ANY EXPRESS OR IMPLIED WARRANTIES, INCLUDING, BUT NOT LIMITED TO, THE
 100:../../../../../../Drivers/STM32L0xx_HAL_Driver/Src/stm32l0xx_hal_rtc_ex.c ****   * IMPLIED WARRANTIES OF MERCHANTABILITY AND FITNESS FOR A PARTICULAR PURPOSE ARE
 101:../../../../../../Drivers/STM32L0xx_HAL_Driver/Src/stm32l0xx_hal_rtc_ex.c ****   * DISCLAIMED. IN NO EVENT SHALL THE COPYRIGHT HOLDER OR CONTRIBUTORS BE LIABLE
 102:../../../../../../Drivers/STM32L0xx_HAL_Driver/Src/stm32l0xx_hal_rtc_ex.c ****   * FOR ANY DIRECT, INDIRECT, INCIDENTAL, SPECIAL, EXEMPLARY, OR CONSEQUENTIAL
 103:../../../../../../Drivers/STM32L0xx_HAL_Driver/Src/stm32l0xx_hal_rtc_ex.c ****   * DAMAGES (INCLUDING, BUT NOT LIMITED TO, PROCUREMENT OF SUBSTITUTE GOODS OR
 104:../../../../../../Drivers/STM32L0xx_HAL_Driver/Src/stm32l0xx_hal_rtc_ex.c ****   * SERVICES; LOSS OF USE, DATA, OR PROFITS; OR BUSINESS INTERRUPTION) HOWEVER
 105:../../../../../../Drivers/STM32L0xx_HAL_Driver/Src/stm32l0xx_hal_rtc_ex.c ****   * CAUSED AND ON ANY THEORY OF LIABILITY, WHETHER IN CONTRACT, STRICT LIABILITY,
 106:../../../../../../Drivers/STM32L0xx_HAL_Driver/Src/stm32l0xx_hal_rtc_ex.c ****   * OR TORT (INCLUDING NEGLIGENCE OR OTHERWISE) ARISING IN ANY WAY OUT OF THE USE
 107:../../../../../../Drivers/STM32L0xx_HAL_Driver/Src/stm32l0xx_hal_rtc_ex.c ****   * OF THIS SOFTWARE, EVEN IF ADVISED OF THE POSSIBILITY OF SUCH DAMAGE.
 108:../../../../../../Drivers/STM32L0xx_HAL_Driver/Src/stm32l0xx_hal_rtc_ex.c ****   *
 109:../../../../../../Drivers/STM32L0xx_HAL_Driver/Src/stm32l0xx_hal_rtc_ex.c ****   ******************************************************************************  
 110:../../../../../../Drivers/STM32L0xx_HAL_Driver/Src/stm32l0xx_hal_rtc_ex.c ****   */
 111:../../../../../../Drivers/STM32L0xx_HAL_Driver/Src/stm32l0xx_hal_rtc_ex.c **** 
 112:../../../../../../Drivers/STM32L0xx_HAL_Driver/Src/stm32l0xx_hal_rtc_ex.c **** /* Includes ------------------------------------------------------------------*/
 113:../../../../../../Drivers/STM32L0xx_HAL_Driver/Src/stm32l0xx_hal_rtc_ex.c **** #include "stm32l0xx_hal.h"
 114:../../../../../../Drivers/STM32L0xx_HAL_Driver/Src/stm32l0xx_hal_rtc_ex.c **** 
 115:../../../../../../Drivers/STM32L0xx_HAL_Driver/Src/stm32l0xx_hal_rtc_ex.c **** /** @addtogroup STM32L0xx_HAL_Driver
 116:../../../../../../Drivers/STM32L0xx_HAL_Driver/Src/stm32l0xx_hal_rtc_ex.c ****   * @{
 117:../../../../../../Drivers/STM32L0xx_HAL_Driver/Src/stm32l0xx_hal_rtc_ex.c ****   */
 118:../../../../../../Drivers/STM32L0xx_HAL_Driver/Src/stm32l0xx_hal_rtc_ex.c **** 
 119:../../../../../../Drivers/STM32L0xx_HAL_Driver/Src/stm32l0xx_hal_rtc_ex.c **** /** @addtogroup RTCEx
 120:../../../../../../Drivers/STM32L0xx_HAL_Driver/Src/stm32l0xx_hal_rtc_ex.c ****   * @brief RTC Extended HAL module driver
 121:../../../../../../Drivers/STM32L0xx_HAL_Driver/Src/stm32l0xx_hal_rtc_ex.c ****   * @{
 122:../../../../../../Drivers/STM32L0xx_HAL_Driver/Src/stm32l0xx_hal_rtc_ex.c ****   */
 123:../../../../../../Drivers/STM32L0xx_HAL_Driver/Src/stm32l0xx_hal_rtc_ex.c **** 
 124:../../../../../../Drivers/STM32L0xx_HAL_Driver/Src/stm32l0xx_hal_rtc_ex.c **** #ifdef HAL_RTC_MODULE_ENABLED
 125:../../../../../../Drivers/STM32L0xx_HAL_Driver/Src/stm32l0xx_hal_rtc_ex.c **** 
 126:../../../../../../Drivers/STM32L0xx_HAL_Driver/Src/stm32l0xx_hal_rtc_ex.c **** /* Private typedef -----------------------------------------------------------*/
 127:../../../../../../Drivers/STM32L0xx_HAL_Driver/Src/stm32l0xx_hal_rtc_ex.c **** /* Private define ------------------------------------------------------------*/
 128:../../../../../../Drivers/STM32L0xx_HAL_Driver/Src/stm32l0xx_hal_rtc_ex.c **** /* Private macro -------------------------------------------------------------*/
 129:../../../../../../Drivers/STM32L0xx_HAL_Driver/Src/stm32l0xx_hal_rtc_ex.c **** /* Private variables ---------------------------------------------------------*/
 130:../../../../../../Drivers/STM32L0xx_HAL_Driver/Src/stm32l0xx_hal_rtc_ex.c **** /* Private function prototypes -----------------------------------------------*/
 131:../../../../../../Drivers/STM32L0xx_HAL_Driver/Src/stm32l0xx_hal_rtc_ex.c **** /* Exported functions --------------------------------------------------------*/
 132:../../../../../../Drivers/STM32L0xx_HAL_Driver/Src/stm32l0xx_hal_rtc_ex.c **** 
 133:../../../../../../Drivers/STM32L0xx_HAL_Driver/Src/stm32l0xx_hal_rtc_ex.c **** /** @addtogroup RTCEx_Exported_Functions
 134:../../../../../../Drivers/STM32L0xx_HAL_Driver/Src/stm32l0xx_hal_rtc_ex.c ****   * @{
 135:../../../../../../Drivers/STM32L0xx_HAL_Driver/Src/stm32l0xx_hal_rtc_ex.c ****   */
 136:../../../../../../Drivers/STM32L0xx_HAL_Driver/Src/stm32l0xx_hal_rtc_ex.c **** 
 137:../../../../../../Drivers/STM32L0xx_HAL_Driver/Src/stm32l0xx_hal_rtc_ex.c **** 
 138:../../../../../../Drivers/STM32L0xx_HAL_Driver/Src/stm32l0xx_hal_rtc_ex.c **** /** @addtogroup RTCEx_Exported_Functions_Group1
 139:../../../../../../Drivers/STM32L0xx_HAL_Driver/Src/stm32l0xx_hal_rtc_ex.c ****  *  @brief   RTC TimeStamp and Tamper functions
 140:../../../../../../Drivers/STM32L0xx_HAL_Driver/Src/stm32l0xx_hal_rtc_ex.c ****   *
 141:../../../../../../Drivers/STM32L0xx_HAL_Driver/Src/stm32l0xx_hal_rtc_ex.c **** @verbatim
 142:../../../../../../Drivers/STM32L0xx_HAL_Driver/Src/stm32l0xx_hal_rtc_ex.c ****  ===============================================================================
 143:../../../../../../Drivers/STM32L0xx_HAL_Driver/Src/stm32l0xx_hal_rtc_ex.c ****                  ##### RTC TimeStamp and Tamper functions #####
 144:../../../../../../Drivers/STM32L0xx_HAL_Driver/Src/stm32l0xx_hal_rtc_ex.c ****  ===============================================================================
 145:../../../../../../Drivers/STM32L0xx_HAL_Driver/Src/stm32l0xx_hal_rtc_ex.c ****  
ARM GAS  C:\Users\EBANO_~1\AppData\Local\Temp\ccyPWgHX.s 			page 4


 146:../../../../../../Drivers/STM32L0xx_HAL_Driver/Src/stm32l0xx_hal_rtc_ex.c ****  [..] This section provides functions allowing to configure TimeStamp feature
 147:../../../../../../Drivers/STM32L0xx_HAL_Driver/Src/stm32l0xx_hal_rtc_ex.c **** 
 148:../../../../../../Drivers/STM32L0xx_HAL_Driver/Src/stm32l0xx_hal_rtc_ex.c **** @endverbatim
 149:../../../../../../Drivers/STM32L0xx_HAL_Driver/Src/stm32l0xx_hal_rtc_ex.c ****   * @{
 150:../../../../../../Drivers/STM32L0xx_HAL_Driver/Src/stm32l0xx_hal_rtc_ex.c ****   */
 151:../../../../../../Drivers/STM32L0xx_HAL_Driver/Src/stm32l0xx_hal_rtc_ex.c **** 
 152:../../../../../../Drivers/STM32L0xx_HAL_Driver/Src/stm32l0xx_hal_rtc_ex.c **** /**
 153:../../../../../../Drivers/STM32L0xx_HAL_Driver/Src/stm32l0xx_hal_rtc_ex.c ****   * @brief  Set TimeStamp.
 154:../../../../../../Drivers/STM32L0xx_HAL_Driver/Src/stm32l0xx_hal_rtc_ex.c ****   * @note   This API must be called before enabling the TimeStamp feature.
 155:../../../../../../Drivers/STM32L0xx_HAL_Driver/Src/stm32l0xx_hal_rtc_ex.c ****   * @param  hrtc RTC handle
 156:../../../../../../Drivers/STM32L0xx_HAL_Driver/Src/stm32l0xx_hal_rtc_ex.c ****   * @param  TimeStampEdge Specifies the pin edge on which the TimeStamp is
 157:../../../../../../Drivers/STM32L0xx_HAL_Driver/Src/stm32l0xx_hal_rtc_ex.c ****   *         activated.
 158:../../../../../../Drivers/STM32L0xx_HAL_Driver/Src/stm32l0xx_hal_rtc_ex.c ****   *          This parameter can be one of the following values:
 159:../../../../../../Drivers/STM32L0xx_HAL_Driver/Src/stm32l0xx_hal_rtc_ex.c ****   *             @arg RTC_TIMESTAMPEDGE_RISING: the Time stamp event occurs on the  
 160:../../../../../../Drivers/STM32L0xx_HAL_Driver/Src/stm32l0xx_hal_rtc_ex.c ****   *                                        rising edge of the related pin.
 161:../../../../../../Drivers/STM32L0xx_HAL_Driver/Src/stm32l0xx_hal_rtc_ex.c ****   *             @arg RTC_TIMESTAMPEDGE_FALLING: the Time stamp event occurs on the 
 162:../../../../../../Drivers/STM32L0xx_HAL_Driver/Src/stm32l0xx_hal_rtc_ex.c ****   *                                         falling edge of the related pin.
 163:../../../../../../Drivers/STM32L0xx_HAL_Driver/Src/stm32l0xx_hal_rtc_ex.c ****   * @param  RTC_TimeStampPin specifies the RTC TimeStamp Pin.
 164:../../../../../../Drivers/STM32L0xx_HAL_Driver/Src/stm32l0xx_hal_rtc_ex.c ****   *          This parameter can be one of the following values:
 165:../../../../../../Drivers/STM32L0xx_HAL_Driver/Src/stm32l0xx_hal_rtc_ex.c ****   *             @arg RTC_TIMESTAMPPIN_DEFAULT: PC13 is selected as RTC TimeStamp Pin on STM32L05x/6
 166:../../../../../../Drivers/STM32L0xx_HAL_Driver/Src/stm32l0xx_hal_rtc_ex.c ****   *                                            and PA2 on STM32L03x/4x/2x/1x.
 167:../../../../../../Drivers/STM32L0xx_HAL_Driver/Src/stm32l0xx_hal_rtc_ex.c ****   * @retval HAL status
 168:../../../../../../Drivers/STM32L0xx_HAL_Driver/Src/stm32l0xx_hal_rtc_ex.c ****   */
 169:../../../../../../Drivers/STM32L0xx_HAL_Driver/Src/stm32l0xx_hal_rtc_ex.c **** HAL_StatusTypeDef HAL_RTCEx_SetTimeStamp(RTC_HandleTypeDef *hrtc, uint32_t TimeStampEdge, uint32_t 
 170:../../../../../../Drivers/STM32L0xx_HAL_Driver/Src/stm32l0xx_hal_rtc_ex.c **** {
  27              		.loc 1 170 0
  28              		.cfi_startproc
  29              		@ args = 0, pretend = 0, frame = 0
  30              		@ frame_needed = 0, uses_anonymous_args = 0
  31              	.LVL0:
  32 0000 70B5     		push	{r4, r5, r6, lr}
  33              	.LCFI0:
  34              		.cfi_def_cfa_offset 16
  35              		.cfi_offset 4, -16
  36              		.cfi_offset 5, -12
  37              		.cfi_offset 6, -8
  38              		.cfi_offset 14, -4
 171:../../../../../../Drivers/STM32L0xx_HAL_Driver/Src/stm32l0xx_hal_rtc_ex.c ****   uint32_t tmpreg = 0U;
 172:../../../../../../Drivers/STM32L0xx_HAL_Driver/Src/stm32l0xx_hal_rtc_ex.c **** 
 173:../../../../../../Drivers/STM32L0xx_HAL_Driver/Src/stm32l0xx_hal_rtc_ex.c ****   /* Check the parameters */
 174:../../../../../../Drivers/STM32L0xx_HAL_Driver/Src/stm32l0xx_hal_rtc_ex.c ****   assert_param(IS_TIMESTAMP_EDGE(TimeStampEdge));
 175:../../../../../../Drivers/STM32L0xx_HAL_Driver/Src/stm32l0xx_hal_rtc_ex.c ****   assert_param(IS_RTC_TIMESTAMP_PIN(RTC_TimeStampPin));
 176:../../../../../../Drivers/STM32L0xx_HAL_Driver/Src/stm32l0xx_hal_rtc_ex.c **** 
 177:../../../../../../Drivers/STM32L0xx_HAL_Driver/Src/stm32l0xx_hal_rtc_ex.c ****   /* Process Locked */
 178:../../../../../../Drivers/STM32L0xx_HAL_Driver/Src/stm32l0xx_hal_rtc_ex.c ****   __HAL_LOCK(hrtc);
  39              		.loc 1 178 0
  40 0002 2024     		movs	r4, #32
  41 0004 035D     		ldrb	r3, [r0, r4]
  42 0006 012B     		cmp	r3, #1
  43 0008 19D0     		beq	.L3
 179:../../../../../../Drivers/STM32L0xx_HAL_Driver/Src/stm32l0xx_hal_rtc_ex.c **** 
 180:../../../../../../Drivers/STM32L0xx_HAL_Driver/Src/stm32l0xx_hal_rtc_ex.c ****   hrtc->State = HAL_RTC_STATE_BUSY;
  44              		.loc 1 180 0 discriminator 2
  45 000a 2125     		movs	r5, #33
  46 000c 0223     		movs	r3, #2
  47 000e 4355     		strb	r3, [r0, r5]
 181:../../../../../../Drivers/STM32L0xx_HAL_Driver/Src/stm32l0xx_hal_rtc_ex.c **** 
ARM GAS  C:\Users\EBANO_~1\AppData\Local\Temp\ccyPWgHX.s 			page 5


 182:../../../../../../Drivers/STM32L0xx_HAL_Driver/Src/stm32l0xx_hal_rtc_ex.c ****   /* Get the RTC_CR register and clear the bits to be configured */
 183:../../../../../../Drivers/STM32L0xx_HAL_Driver/Src/stm32l0xx_hal_rtc_ex.c ****   tmpreg = (uint32_t)(hrtc->Instance->CR & (uint32_t)~(RTC_CR_TSEDGE | RTC_CR_TSE));
  48              		.loc 1 183 0 discriminator 2
  49 0010 0368     		ldr	r3, [r0]
  50 0012 0C4E     		ldr	r6, .L5
  51 0014 9A68     		ldr	r2, [r3, #8]
  52              	.LVL1:
  53 0016 3240     		ands	r2, r6
  54              	.LVL2:
 184:../../../../../../Drivers/STM32L0xx_HAL_Driver/Src/stm32l0xx_hal_rtc_ex.c **** 
 185:../../../../../../Drivers/STM32L0xx_HAL_Driver/Src/stm32l0xx_hal_rtc_ex.c ****   tmpreg|= TimeStampEdge;
  55              		.loc 1 185 0 discriminator 2
  56 0018 1143     		orrs	r1, r2
  57              	.LVL3:
 186:../../../../../../Drivers/STM32L0xx_HAL_Driver/Src/stm32l0xx_hal_rtc_ex.c **** 
 187:../../../../../../Drivers/STM32L0xx_HAL_Driver/Src/stm32l0xx_hal_rtc_ex.c ****   /* Disable the write protection for RTC registers */
 188:../../../../../../Drivers/STM32L0xx_HAL_Driver/Src/stm32l0xx_hal_rtc_ex.c ****   __HAL_RTC_WRITEPROTECTION_DISABLE(hrtc);
  58              		.loc 1 188 0 discriminator 2
  59 001a CA22     		movs	r2, #202
  60 001c 5A62     		str	r2, [r3, #36]
  61 001e 773A     		subs	r2, r2, #119
  62 0020 5A62     		str	r2, [r3, #36]
 189:../../../../../../Drivers/STM32L0xx_HAL_Driver/Src/stm32l0xx_hal_rtc_ex.c **** 
 190:../../../../../../Drivers/STM32L0xx_HAL_Driver/Src/stm32l0xx_hal_rtc_ex.c ****   /* Configure the Time Stamp TSEDGE and Enable bits */
 191:../../../../../../Drivers/STM32L0xx_HAL_Driver/Src/stm32l0xx_hal_rtc_ex.c ****   hrtc->Instance->CR = (uint32_t)tmpreg;
 192:../../../../../../Drivers/STM32L0xx_HAL_Driver/Src/stm32l0xx_hal_rtc_ex.c **** 
 193:../../../../../../Drivers/STM32L0xx_HAL_Driver/Src/stm32l0xx_hal_rtc_ex.c ****   __HAL_RTC_TIMESTAMP_ENABLE(hrtc);
  63              		.loc 1 193 0 discriminator 2
  64 0022 8022     		movs	r2, #128
 191:../../../../../../Drivers/STM32L0xx_HAL_Driver/Src/stm32l0xx_hal_rtc_ex.c **** 
  65              		.loc 1 191 0 discriminator 2
  66 0024 9960     		str	r1, [r3, #8]
  67              		.loc 1 193 0 discriminator 2
  68 0026 9968     		ldr	r1, [r3, #8]
  69              	.LVL4:
  70 0028 1201     		lsls	r2, r2, #4
  71 002a 0A43     		orrs	r2, r1
  72 002c 9A60     		str	r2, [r3, #8]
  73              	.LVL5:
 194:../../../../../../Drivers/STM32L0xx_HAL_Driver/Src/stm32l0xx_hal_rtc_ex.c **** 
 195:../../../../../../Drivers/STM32L0xx_HAL_Driver/Src/stm32l0xx_hal_rtc_ex.c ****   /* Enable the write protection for RTC registers */
 196:../../../../../../Drivers/STM32L0xx_HAL_Driver/Src/stm32l0xx_hal_rtc_ex.c ****   __HAL_RTC_WRITEPROTECTION_ENABLE(hrtc);
  74              		.loc 1 196 0 discriminator 2
  75 002e FF22     		movs	r2, #255
  76 0030 5A62     		str	r2, [r3, #36]
 197:../../../../../../Drivers/STM32L0xx_HAL_Driver/Src/stm32l0xx_hal_rtc_ex.c **** 
 198:../../../../../../Drivers/STM32L0xx_HAL_Driver/Src/stm32l0xx_hal_rtc_ex.c ****   /* Change RTC state */
 199:../../../../../../Drivers/STM32L0xx_HAL_Driver/Src/stm32l0xx_hal_rtc_ex.c ****   hrtc->State = HAL_RTC_STATE_READY; 
  77              		.loc 1 199 0 discriminator 2
  78 0032 0123     		movs	r3, #1
  79 0034 4355     		strb	r3, [r0, r5]
 200:../../../../../../Drivers/STM32L0xx_HAL_Driver/Src/stm32l0xx_hal_rtc_ex.c **** 
 201:../../../../../../Drivers/STM32L0xx_HAL_Driver/Src/stm32l0xx_hal_rtc_ex.c ****   /* Process Unlocked */ 
 202:../../../../../../Drivers/STM32L0xx_HAL_Driver/Src/stm32l0xx_hal_rtc_ex.c ****   __HAL_UNLOCK(hrtc);
  80              		.loc 1 202 0 discriminator 2
  81 0036 0023     		movs	r3, #0
  82 0038 0355     		strb	r3, [r0, r4]
ARM GAS  C:\Users\EBANO_~1\AppData\Local\Temp\ccyPWgHX.s 			page 6


 203:../../../../../../Drivers/STM32L0xx_HAL_Driver/Src/stm32l0xx_hal_rtc_ex.c **** 
 204:../../../../../../Drivers/STM32L0xx_HAL_Driver/Src/stm32l0xx_hal_rtc_ex.c ****   return HAL_OK;
  83              		.loc 1 204 0 discriminator 2
  84 003a 0020     		movs	r0, #0
  85              	.LVL6:
  86              	.L2:
 205:../../../../../../Drivers/STM32L0xx_HAL_Driver/Src/stm32l0xx_hal_rtc_ex.c **** }
  87              		.loc 1 205 0
  88              		@ sp needed
  89 003c 70BD     		pop	{r4, r5, r6, pc}
  90              	.LVL7:
  91              	.L3:
 178:../../../../../../Drivers/STM32L0xx_HAL_Driver/Src/stm32l0xx_hal_rtc_ex.c **** 
  92              		.loc 1 178 0
  93 003e 0220     		movs	r0, #2
  94              	.LVL8:
  95 0040 FCE7     		b	.L2
  96              	.L6:
  97 0042 C046     		.align	2
  98              	.L5:
  99 0044 F7F7FFFF 		.word	-2057
 100              		.cfi_endproc
 101              	.LFE39:
 102              		.size	HAL_RTCEx_SetTimeStamp, .-HAL_RTCEx_SetTimeStamp
 103              		.section	.text.HAL_RTCEx_SetTimeStamp_IT,"ax",%progbits
 104              		.align	1
 105              		.p2align 2,,3
 106              		.global	HAL_RTCEx_SetTimeStamp_IT
 107              		.syntax unified
 108              		.code	16
 109              		.thumb_func
 110              		.fpu softvfp
 111              		.type	HAL_RTCEx_SetTimeStamp_IT, %function
 112              	HAL_RTCEx_SetTimeStamp_IT:
 113              	.LFB40:
 206:../../../../../../Drivers/STM32L0xx_HAL_Driver/Src/stm32l0xx_hal_rtc_ex.c **** 
 207:../../../../../../Drivers/STM32L0xx_HAL_Driver/Src/stm32l0xx_hal_rtc_ex.c **** /**
 208:../../../../../../Drivers/STM32L0xx_HAL_Driver/Src/stm32l0xx_hal_rtc_ex.c ****   * @brief  Set TimeStamp with Interrupt.
 209:../../../../../../Drivers/STM32L0xx_HAL_Driver/Src/stm32l0xx_hal_rtc_ex.c ****   * @param  hrtc RTC handle
 210:../../../../../../Drivers/STM32L0xx_HAL_Driver/Src/stm32l0xx_hal_rtc_ex.c ****   * @note   This API must be called before enabling the TimeStamp feature.
 211:../../../../../../Drivers/STM32L0xx_HAL_Driver/Src/stm32l0xx_hal_rtc_ex.c ****   * @param  TimeStampEdge Specifies the pin edge on which the TimeStamp is
 212:../../../../../../Drivers/STM32L0xx_HAL_Driver/Src/stm32l0xx_hal_rtc_ex.c ****   *         activated.
 213:../../../../../../Drivers/STM32L0xx_HAL_Driver/Src/stm32l0xx_hal_rtc_ex.c ****   *          This parameter can be one of the following values:
 214:../../../../../../Drivers/STM32L0xx_HAL_Driver/Src/stm32l0xx_hal_rtc_ex.c ****   *             @arg RTC_TIMESTAMPEDGE_RISING: the Time stamp event occurs on the  
 215:../../../../../../Drivers/STM32L0xx_HAL_Driver/Src/stm32l0xx_hal_rtc_ex.c ****   *                                        rising edge of the related pin.
 216:../../../../../../Drivers/STM32L0xx_HAL_Driver/Src/stm32l0xx_hal_rtc_ex.c ****   *             @arg RTC_TIMESTAMPEDGE_FALLING: the Time stamp event occurs on the 
 217:../../../../../../Drivers/STM32L0xx_HAL_Driver/Src/stm32l0xx_hal_rtc_ex.c ****   *                                         falling edge of the related pin.
 218:../../../../../../Drivers/STM32L0xx_HAL_Driver/Src/stm32l0xx_hal_rtc_ex.c ****   * @param  RTC_TimeStampPin Specifies the RTC TimeStamp Pin.
 219:../../../../../../Drivers/STM32L0xx_HAL_Driver/Src/stm32l0xx_hal_rtc_ex.c ****   *          This parameter can be one of the following values:
 220:../../../../../../Drivers/STM32L0xx_HAL_Driver/Src/stm32l0xx_hal_rtc_ex.c ****   *             @arg RTC_TIMESTAMPPIN_DEFAULT: PC13 is selected as RTC TimeStamp Pin on STM32L05x/6
 221:../../../../../../Drivers/STM32L0xx_HAL_Driver/Src/stm32l0xx_hal_rtc_ex.c ****   *                                            and PA2 on STM32L03x/4x/2x/1x.
 222:../../../../../../Drivers/STM32L0xx_HAL_Driver/Src/stm32l0xx_hal_rtc_ex.c ****   * @retval HAL status
 223:../../../../../../Drivers/STM32L0xx_HAL_Driver/Src/stm32l0xx_hal_rtc_ex.c ****   */
 224:../../../../../../Drivers/STM32L0xx_HAL_Driver/Src/stm32l0xx_hal_rtc_ex.c **** HAL_StatusTypeDef HAL_RTCEx_SetTimeStamp_IT(RTC_HandleTypeDef *hrtc, uint32_t TimeStampEdge, uint32
 225:../../../../../../Drivers/STM32L0xx_HAL_Driver/Src/stm32l0xx_hal_rtc_ex.c **** {
 114              		.loc 1 225 0
 115              		.cfi_startproc
ARM GAS  C:\Users\EBANO_~1\AppData\Local\Temp\ccyPWgHX.s 			page 7


 116              		@ args = 0, pretend = 0, frame = 0
 117              		@ frame_needed = 0, uses_anonymous_args = 0
 118              	.LVL9:
 119 0000 70B5     		push	{r4, r5, r6, lr}
 120              	.LCFI1:
 121              		.cfi_def_cfa_offset 16
 122              		.cfi_offset 4, -16
 123              		.cfi_offset 5, -12
 124              		.cfi_offset 6, -8
 125              		.cfi_offset 14, -4
 226:../../../../../../Drivers/STM32L0xx_HAL_Driver/Src/stm32l0xx_hal_rtc_ex.c ****   uint32_t tmpreg = 0U;
 227:../../../../../../Drivers/STM32L0xx_HAL_Driver/Src/stm32l0xx_hal_rtc_ex.c **** 
 228:../../../../../../Drivers/STM32L0xx_HAL_Driver/Src/stm32l0xx_hal_rtc_ex.c ****   /* Check the parameters */
 229:../../../../../../Drivers/STM32L0xx_HAL_Driver/Src/stm32l0xx_hal_rtc_ex.c ****   assert_param(IS_TIMESTAMP_EDGE(TimeStampEdge));
 230:../../../../../../Drivers/STM32L0xx_HAL_Driver/Src/stm32l0xx_hal_rtc_ex.c ****   assert_param(IS_RTC_TIMESTAMP_PIN(RTC_TimeStampPin));
 231:../../../../../../Drivers/STM32L0xx_HAL_Driver/Src/stm32l0xx_hal_rtc_ex.c **** 
 232:../../../../../../Drivers/STM32L0xx_HAL_Driver/Src/stm32l0xx_hal_rtc_ex.c ****   /* Process Locked */ 
 233:../../../../../../Drivers/STM32L0xx_HAL_Driver/Src/stm32l0xx_hal_rtc_ex.c ****   __HAL_LOCK(hrtc);
 126              		.loc 1 233 0
 127 0002 2025     		movs	r5, #32
 128 0004 435D     		ldrb	r3, [r0, r5]
 129 0006 012B     		cmp	r3, #1
 130 0008 27D0     		beq	.L9
 234:../../../../../../Drivers/STM32L0xx_HAL_Driver/Src/stm32l0xx_hal_rtc_ex.c **** 
 235:../../../../../../Drivers/STM32L0xx_HAL_Driver/Src/stm32l0xx_hal_rtc_ex.c ****   hrtc->State = HAL_RTC_STATE_BUSY;
 131              		.loc 1 235 0 discriminator 2
 132 000a 2126     		movs	r6, #33
 133 000c 0223     		movs	r3, #2
 134 000e 8355     		strb	r3, [r0, r6]
 236:../../../../../../Drivers/STM32L0xx_HAL_Driver/Src/stm32l0xx_hal_rtc_ex.c **** 
 237:../../../../../../Drivers/STM32L0xx_HAL_Driver/Src/stm32l0xx_hal_rtc_ex.c ****   /* Get the RTC_CR register and clear the bits to be configured */
 238:../../../../../../Drivers/STM32L0xx_HAL_Driver/Src/stm32l0xx_hal_rtc_ex.c ****   tmpreg = (uint32_t)(hrtc->Instance->CR & (uint32_t)~(RTC_CR_TSEDGE | RTC_CR_TSE));
 135              		.loc 1 238 0 discriminator 2
 136 0010 0368     		ldr	r3, [r0]
 137 0012 134C     		ldr	r4, .L10
 138 0014 9A68     		ldr	r2, [r3, #8]
 139              	.LVL10:
 140 0016 2240     		ands	r2, r4
 141              	.LVL11:
 239:../../../../../../Drivers/STM32L0xx_HAL_Driver/Src/stm32l0xx_hal_rtc_ex.c **** 
 240:../../../../../../Drivers/STM32L0xx_HAL_Driver/Src/stm32l0xx_hal_rtc_ex.c ****   tmpreg |= TimeStampEdge;
 142              		.loc 1 240 0 discriminator 2
 143 0018 1143     		orrs	r1, r2
 144              	.LVL12:
 241:../../../../../../Drivers/STM32L0xx_HAL_Driver/Src/stm32l0xx_hal_rtc_ex.c **** 
 242:../../../../../../Drivers/STM32L0xx_HAL_Driver/Src/stm32l0xx_hal_rtc_ex.c ****   /* Disable the write protection for RTC registers */
 243:../../../../../../Drivers/STM32L0xx_HAL_Driver/Src/stm32l0xx_hal_rtc_ex.c ****   __HAL_RTC_WRITEPROTECTION_DISABLE(hrtc);
 145              		.loc 1 243 0 discriminator 2
 146 001a CA22     		movs	r2, #202
 147 001c 5A62     		str	r2, [r3, #36]
 148 001e 773A     		subs	r2, r2, #119
 149 0020 5A62     		str	r2, [r3, #36]
 244:../../../../../../Drivers/STM32L0xx_HAL_Driver/Src/stm32l0xx_hal_rtc_ex.c **** 
 245:../../../../../../Drivers/STM32L0xx_HAL_Driver/Src/stm32l0xx_hal_rtc_ex.c ****   /* Configure the Time Stamp TSEDGE and Enable bits */
 246:../../../../../../Drivers/STM32L0xx_HAL_Driver/Src/stm32l0xx_hal_rtc_ex.c ****   hrtc->Instance->CR = (uint32_t)tmpreg;
 247:../../../../../../Drivers/STM32L0xx_HAL_Driver/Src/stm32l0xx_hal_rtc_ex.c **** 
 248:../../../../../../Drivers/STM32L0xx_HAL_Driver/Src/stm32l0xx_hal_rtc_ex.c ****   __HAL_RTC_TIMESTAMP_ENABLE(hrtc);
ARM GAS  C:\Users\EBANO_~1\AppData\Local\Temp\ccyPWgHX.s 			page 8


 150              		.loc 1 248 0 discriminator 2
 151 0022 8022     		movs	r2, #128
 246:../../../../../../Drivers/STM32L0xx_HAL_Driver/Src/stm32l0xx_hal_rtc_ex.c **** 
 152              		.loc 1 246 0 discriminator 2
 153 0024 9960     		str	r1, [r3, #8]
 154              		.loc 1 248 0 discriminator 2
 155 0026 9968     		ldr	r1, [r3, #8]
 156              	.LVL13:
 157 0028 1201     		lsls	r2, r2, #4
 158 002a 0A43     		orrs	r2, r1
 159 002c 9A60     		str	r2, [r3, #8]
 160              	.LVL14:
 249:../../../../../../Drivers/STM32L0xx_HAL_Driver/Src/stm32l0xx_hal_rtc_ex.c **** 
 250:../../../../../../Drivers/STM32L0xx_HAL_Driver/Src/stm32l0xx_hal_rtc_ex.c ****   /* Enable IT timestamp */
 251:../../../../../../Drivers/STM32L0xx_HAL_Driver/Src/stm32l0xx_hal_rtc_ex.c ****   __HAL_RTC_TIMESTAMP_ENABLE_IT(hrtc,RTC_IT_TS);
 161              		.loc 1 251 0 discriminator 2
 162 002e 8022     		movs	r2, #128
 163 0030 9968     		ldr	r1, [r3, #8]
 164 0032 1202     		lsls	r2, r2, #8
 165 0034 0A43     		orrs	r2, r1
 252:../../../../../../Drivers/STM32L0xx_HAL_Driver/Src/stm32l0xx_hal_rtc_ex.c **** 
 253:../../../../../../Drivers/STM32L0xx_HAL_Driver/Src/stm32l0xx_hal_rtc_ex.c ****   /* RTC timestamp Interrupt Configuration: EXTI configuration */
 254:../../../../../../Drivers/STM32L0xx_HAL_Driver/Src/stm32l0xx_hal_rtc_ex.c ****   __HAL_RTC_TAMPER_TIMESTAMP_EXTI_ENABLE_IT();
 166              		.loc 1 254 0 discriminator 2
 167 0036 8021     		movs	r1, #128
 251:../../../../../../Drivers/STM32L0xx_HAL_Driver/Src/stm32l0xx_hal_rtc_ex.c **** 
 168              		.loc 1 251 0 discriminator 2
 169 0038 9A60     		str	r2, [r3, #8]
 170              		.loc 1 254 0 discriminator 2
 171 003a 0A4A     		ldr	r2, .L10+4
 172 003c 0903     		lsls	r1, r1, #12
 173 003e 1468     		ldr	r4, [r2]
 174 0040 0C43     		orrs	r4, r1
 175 0042 1460     		str	r4, [r2]
 255:../../../../../../Drivers/STM32L0xx_HAL_Driver/Src/stm32l0xx_hal_rtc_ex.c **** 
 256:../../../../../../Drivers/STM32L0xx_HAL_Driver/Src/stm32l0xx_hal_rtc_ex.c ****   __HAL_RTC_TAMPER_TIMESTAMP_EXTI_ENABLE_RISING_EDGE();
 176              		.loc 1 256 0 discriminator 2
 177 0044 9468     		ldr	r4, [r2, #8]
 178 0046 2143     		orrs	r1, r4
 179 0048 9160     		str	r1, [r2, #8]
 257:../../../../../../Drivers/STM32L0xx_HAL_Driver/Src/stm32l0xx_hal_rtc_ex.c **** 
 258:../../../../../../Drivers/STM32L0xx_HAL_Driver/Src/stm32l0xx_hal_rtc_ex.c ****   /* Enable the write protection for RTC registers */
 259:../../../../../../Drivers/STM32L0xx_HAL_Driver/Src/stm32l0xx_hal_rtc_ex.c ****   __HAL_RTC_WRITEPROTECTION_ENABLE(hrtc);
 180              		.loc 1 259 0 discriminator 2
 181 004a FF22     		movs	r2, #255
 182 004c 5A62     		str	r2, [r3, #36]
 260:../../../../../../Drivers/STM32L0xx_HAL_Driver/Src/stm32l0xx_hal_rtc_ex.c **** 
 261:../../../../../../Drivers/STM32L0xx_HAL_Driver/Src/stm32l0xx_hal_rtc_ex.c ****   hrtc->State = HAL_RTC_STATE_READY;
 183              		.loc 1 261 0 discriminator 2
 184 004e 0123     		movs	r3, #1
 185 0050 8355     		strb	r3, [r0, r6]
 262:../../../../../../Drivers/STM32L0xx_HAL_Driver/Src/stm32l0xx_hal_rtc_ex.c **** 
 263:../../../../../../Drivers/STM32L0xx_HAL_Driver/Src/stm32l0xx_hal_rtc_ex.c ****   /* Process Unlocked */
 264:../../../../../../Drivers/STM32L0xx_HAL_Driver/Src/stm32l0xx_hal_rtc_ex.c ****   __HAL_UNLOCK(hrtc);
 186              		.loc 1 264 0 discriminator 2
 187 0052 0023     		movs	r3, #0
 188 0054 4355     		strb	r3, [r0, r5]
ARM GAS  C:\Users\EBANO_~1\AppData\Local\Temp\ccyPWgHX.s 			page 9


 265:../../../../../../Drivers/STM32L0xx_HAL_Driver/Src/stm32l0xx_hal_rtc_ex.c **** 
 266:../../../../../../Drivers/STM32L0xx_HAL_Driver/Src/stm32l0xx_hal_rtc_ex.c ****   return HAL_OK;
 189              		.loc 1 266 0 discriminator 2
 190 0056 0020     		movs	r0, #0
 191              	.LVL15:
 192              	.L8:
 267:../../../../../../Drivers/STM32L0xx_HAL_Driver/Src/stm32l0xx_hal_rtc_ex.c **** }
 193              		.loc 1 267 0
 194              		@ sp needed
 195 0058 70BD     		pop	{r4, r5, r6, pc}
 196              	.LVL16:
 197              	.L9:
 233:../../../../../../Drivers/STM32L0xx_HAL_Driver/Src/stm32l0xx_hal_rtc_ex.c **** 
 198              		.loc 1 233 0
 199 005a 0220     		movs	r0, #2
 200              	.LVL17:
 201 005c FCE7     		b	.L8
 202              	.L11:
 203 005e C046     		.align	2
 204              	.L10:
 205 0060 F7F7FFFF 		.word	-2057
 206 0064 00040140 		.word	1073808384
 207              		.cfi_endproc
 208              	.LFE40:
 209              		.size	HAL_RTCEx_SetTimeStamp_IT, .-HAL_RTCEx_SetTimeStamp_IT
 210              		.section	.text.HAL_RTCEx_DeactivateTimeStamp,"ax",%progbits
 211              		.align	1
 212              		.p2align 2,,3
 213              		.global	HAL_RTCEx_DeactivateTimeStamp
 214              		.syntax unified
 215              		.code	16
 216              		.thumb_func
 217              		.fpu softvfp
 218              		.type	HAL_RTCEx_DeactivateTimeStamp, %function
 219              	HAL_RTCEx_DeactivateTimeStamp:
 220              	.LFB41:
 268:../../../../../../Drivers/STM32L0xx_HAL_Driver/Src/stm32l0xx_hal_rtc_ex.c **** 
 269:../../../../../../Drivers/STM32L0xx_HAL_Driver/Src/stm32l0xx_hal_rtc_ex.c **** /**
 270:../../../../../../Drivers/STM32L0xx_HAL_Driver/Src/stm32l0xx_hal_rtc_ex.c ****   * @brief  Deactivate TimeStamp.
 271:../../../../../../Drivers/STM32L0xx_HAL_Driver/Src/stm32l0xx_hal_rtc_ex.c ****   * @param  hrtc RTC handle
 272:../../../../../../Drivers/STM32L0xx_HAL_Driver/Src/stm32l0xx_hal_rtc_ex.c ****   * @retval HAL status
 273:../../../../../../Drivers/STM32L0xx_HAL_Driver/Src/stm32l0xx_hal_rtc_ex.c ****   */
 274:../../../../../../Drivers/STM32L0xx_HAL_Driver/Src/stm32l0xx_hal_rtc_ex.c **** HAL_StatusTypeDef HAL_RTCEx_DeactivateTimeStamp(RTC_HandleTypeDef *hrtc)
 275:../../../../../../Drivers/STM32L0xx_HAL_Driver/Src/stm32l0xx_hal_rtc_ex.c **** {
 221              		.loc 1 275 0
 222              		.cfi_startproc
 223              		@ args = 0, pretend = 0, frame = 0
 224              		@ frame_needed = 0, uses_anonymous_args = 0
 225              	.LVL18:
 276:../../../../../../Drivers/STM32L0xx_HAL_Driver/Src/stm32l0xx_hal_rtc_ex.c ****   uint32_t tmpreg = 0U;
 277:../../../../../../Drivers/STM32L0xx_HAL_Driver/Src/stm32l0xx_hal_rtc_ex.c **** 
 278:../../../../../../Drivers/STM32L0xx_HAL_Driver/Src/stm32l0xx_hal_rtc_ex.c ****   /* Process Locked */
 279:../../../../../../Drivers/STM32L0xx_HAL_Driver/Src/stm32l0xx_hal_rtc_ex.c ****   __HAL_LOCK(hrtc);
 226              		.loc 1 279 0
 227 0000 2021     		movs	r1, #32
 275:../../../../../../Drivers/STM32L0xx_HAL_Driver/Src/stm32l0xx_hal_rtc_ex.c ****   uint32_t tmpreg = 0U;
 228              		.loc 1 275 0
ARM GAS  C:\Users\EBANO_~1\AppData\Local\Temp\ccyPWgHX.s 			page 10


 229 0002 30B5     		push	{r4, r5, lr}
 230              	.LCFI2:
 231              		.cfi_def_cfa_offset 12
 232              		.cfi_offset 4, -12
 233              		.cfi_offset 5, -8
 234              		.cfi_offset 14, -4
 235              		.loc 1 279 0
 236 0004 435C     		ldrb	r3, [r0, r1]
 237 0006 012B     		cmp	r3, #1
 238 0008 17D0     		beq	.L14
 280:../../../../../../Drivers/STM32L0xx_HAL_Driver/Src/stm32l0xx_hal_rtc_ex.c **** 
 281:../../../../../../Drivers/STM32L0xx_HAL_Driver/Src/stm32l0xx_hal_rtc_ex.c ****   hrtc->State = HAL_RTC_STATE_BUSY;
 239              		.loc 1 281 0 discriminator 2
 240 000a 2124     		movs	r4, #33
 241 000c 0223     		movs	r3, #2
 282:../../../../../../Drivers/STM32L0xx_HAL_Driver/Src/stm32l0xx_hal_rtc_ex.c **** 
 283:../../../../../../Drivers/STM32L0xx_HAL_Driver/Src/stm32l0xx_hal_rtc_ex.c ****   /* Disable the write protection for RTC registers */
 284:../../../../../../Drivers/STM32L0xx_HAL_Driver/Src/stm32l0xx_hal_rtc_ex.c ****   __HAL_RTC_WRITEPROTECTION_DISABLE(hrtc);
 242              		.loc 1 284 0 discriminator 2
 243 000e CA22     		movs	r2, #202
 281:../../../../../../Drivers/STM32L0xx_HAL_Driver/Src/stm32l0xx_hal_rtc_ex.c **** 
 244              		.loc 1 281 0 discriminator 2
 245 0010 0355     		strb	r3, [r0, r4]
 246              		.loc 1 284 0 discriminator 2
 247 0012 0368     		ldr	r3, [r0]
 285:../../../../../../Drivers/STM32L0xx_HAL_Driver/Src/stm32l0xx_hal_rtc_ex.c **** 
 286:../../../../../../Drivers/STM32L0xx_HAL_Driver/Src/stm32l0xx_hal_rtc_ex.c ****   /* In case of interrupt mode is used, the interrupt source must disabled */
 287:../../../../../../Drivers/STM32L0xx_HAL_Driver/Src/stm32l0xx_hal_rtc_ex.c ****   __HAL_RTC_TIMESTAMP_DISABLE_IT(hrtc, RTC_IT_TS);
 248              		.loc 1 287 0 discriminator 2
 249 0014 0A4D     		ldr	r5, .L15
 284:../../../../../../Drivers/STM32L0xx_HAL_Driver/Src/stm32l0xx_hal_rtc_ex.c **** 
 250              		.loc 1 284 0 discriminator 2
 251 0016 5A62     		str	r2, [r3, #36]
 252 0018 773A     		subs	r2, r2, #119
 253 001a 5A62     		str	r2, [r3, #36]
 254              		.loc 1 287 0 discriminator 2
 255 001c 9A68     		ldr	r2, [r3, #8]
 256 001e 2A40     		ands	r2, r5
 257 0020 9A60     		str	r2, [r3, #8]
 288:../../../../../../Drivers/STM32L0xx_HAL_Driver/Src/stm32l0xx_hal_rtc_ex.c **** 
 289:../../../../../../Drivers/STM32L0xx_HAL_Driver/Src/stm32l0xx_hal_rtc_ex.c ****   /* Get the RTC_CR register and clear the bits to be configured */
 290:../../../../../../Drivers/STM32L0xx_HAL_Driver/Src/stm32l0xx_hal_rtc_ex.c ****   tmpreg = (uint32_t)(hrtc->Instance->CR & (uint32_t)~(RTC_CR_TSEDGE | RTC_CR_TSE));
 258              		.loc 1 290 0 discriminator 2
 259 0022 9A68     		ldr	r2, [r3, #8]
 260 0024 074D     		ldr	r5, .L15+4
 261 0026 2A40     		ands	r2, r5
 262              	.LVL19:
 291:../../../../../../Drivers/STM32L0xx_HAL_Driver/Src/stm32l0xx_hal_rtc_ex.c **** 
 292:../../../../../../Drivers/STM32L0xx_HAL_Driver/Src/stm32l0xx_hal_rtc_ex.c ****   /* Configure the Time Stamp TSEDGE and Enable bits */
 293:../../../../../../Drivers/STM32L0xx_HAL_Driver/Src/stm32l0xx_hal_rtc_ex.c ****   hrtc->Instance->CR = (uint32_t)tmpreg;
 263              		.loc 1 293 0 discriminator 2
 264 0028 9A60     		str	r2, [r3, #8]
 294:../../../../../../Drivers/STM32L0xx_HAL_Driver/Src/stm32l0xx_hal_rtc_ex.c **** 
 295:../../../../../../Drivers/STM32L0xx_HAL_Driver/Src/stm32l0xx_hal_rtc_ex.c ****   /* Enable the write protection for RTC registers */
 296:../../../../../../Drivers/STM32L0xx_HAL_Driver/Src/stm32l0xx_hal_rtc_ex.c ****   __HAL_RTC_WRITEPROTECTION_ENABLE(hrtc);
 265              		.loc 1 296 0 discriminator 2
 266 002a FF22     		movs	r2, #255
ARM GAS  C:\Users\EBANO_~1\AppData\Local\Temp\ccyPWgHX.s 			page 11


 267              	.LVL20:
 268 002c 5A62     		str	r2, [r3, #36]
 269              	.LVL21:
 297:../../../../../../Drivers/STM32L0xx_HAL_Driver/Src/stm32l0xx_hal_rtc_ex.c **** 
 298:../../../../../../Drivers/STM32L0xx_HAL_Driver/Src/stm32l0xx_hal_rtc_ex.c ****   hrtc->State = HAL_RTC_STATE_READY;
 270              		.loc 1 298 0 discriminator 2
 271 002e 0123     		movs	r3, #1
 272 0030 0355     		strb	r3, [r0, r4]
 299:../../../../../../Drivers/STM32L0xx_HAL_Driver/Src/stm32l0xx_hal_rtc_ex.c **** 
 300:../../../../../../Drivers/STM32L0xx_HAL_Driver/Src/stm32l0xx_hal_rtc_ex.c ****   /* Process Unlocked */
 301:../../../../../../Drivers/STM32L0xx_HAL_Driver/Src/stm32l0xx_hal_rtc_ex.c ****   __HAL_UNLOCK(hrtc);
 273              		.loc 1 301 0 discriminator 2
 274 0032 0023     		movs	r3, #0
 275 0034 4354     		strb	r3, [r0, r1]
 302:../../../../../../Drivers/STM32L0xx_HAL_Driver/Src/stm32l0xx_hal_rtc_ex.c **** 
 303:../../../../../../Drivers/STM32L0xx_HAL_Driver/Src/stm32l0xx_hal_rtc_ex.c ****   return HAL_OK;
 276              		.loc 1 303 0 discriminator 2
 277 0036 0020     		movs	r0, #0
 278              	.LVL22:
 279              	.L13:
 304:../../../../../../Drivers/STM32L0xx_HAL_Driver/Src/stm32l0xx_hal_rtc_ex.c **** }
 280              		.loc 1 304 0
 281              		@ sp needed
 282 0038 30BD     		pop	{r4, r5, pc}
 283              	.LVL23:
 284              	.L14:
 279:../../../../../../Drivers/STM32L0xx_HAL_Driver/Src/stm32l0xx_hal_rtc_ex.c **** 
 285              		.loc 1 279 0
 286 003a 0220     		movs	r0, #2
 287              	.LVL24:
 288 003c FCE7     		b	.L13
 289              	.L16:
 290 003e C046     		.align	2
 291              	.L15:
 292 0040 FF7FFFFF 		.word	-32769
 293 0044 F7F7FFFF 		.word	-2057
 294              		.cfi_endproc
 295              	.LFE41:
 296              		.size	HAL_RTCEx_DeactivateTimeStamp, .-HAL_RTCEx_DeactivateTimeStamp
 297              		.section	.text.HAL_RTCEx_GetTimeStamp,"ax",%progbits
 298              		.align	1
 299              		.p2align 2,,3
 300              		.global	HAL_RTCEx_GetTimeStamp
 301              		.syntax unified
 302              		.code	16
 303              		.thumb_func
 304              		.fpu softvfp
 305              		.type	HAL_RTCEx_GetTimeStamp, %function
 306              	HAL_RTCEx_GetTimeStamp:
 307              	.LFB42:
 305:../../../../../../Drivers/STM32L0xx_HAL_Driver/Src/stm32l0xx_hal_rtc_ex.c **** 
 306:../../../../../../Drivers/STM32L0xx_HAL_Driver/Src/stm32l0xx_hal_rtc_ex.c **** /**
 307:../../../../../../Drivers/STM32L0xx_HAL_Driver/Src/stm32l0xx_hal_rtc_ex.c ****   * @brief  Get the RTC TimeStamp value.
 308:../../../../../../Drivers/STM32L0xx_HAL_Driver/Src/stm32l0xx_hal_rtc_ex.c ****   * @param  hrtc RTC handle
 309:../../../../../../Drivers/STM32L0xx_HAL_Driver/Src/stm32l0xx_hal_rtc_ex.c **** 
 310:../../../../../../Drivers/STM32L0xx_HAL_Driver/Src/stm32l0xx_hal_rtc_ex.c ****   * @param  sTimeStamp Pointer to Time structure
 311:../../../../../../Drivers/STM32L0xx_HAL_Driver/Src/stm32l0xx_hal_rtc_ex.c ****   * @param  sTimeStampDate Pointer to Date structure  
ARM GAS  C:\Users\EBANO_~1\AppData\Local\Temp\ccyPWgHX.s 			page 12


 312:../../../../../../Drivers/STM32L0xx_HAL_Driver/Src/stm32l0xx_hal_rtc_ex.c ****   * @param  Format specifies the format of the entered parameters.
 313:../../../../../../Drivers/STM32L0xx_HAL_Driver/Src/stm32l0xx_hal_rtc_ex.c ****   *          This parameter can be one of the following values:
 314:../../../../../../Drivers/STM32L0xx_HAL_Driver/Src/stm32l0xx_hal_rtc_ex.c ****   *             @arg RTC_FORMAT_BIN: Binary data format 
 315:../../../../../../Drivers/STM32L0xx_HAL_Driver/Src/stm32l0xx_hal_rtc_ex.c ****   *             @arg RTC_FORMAT_BCD: BCD data format
 316:../../../../../../Drivers/STM32L0xx_HAL_Driver/Src/stm32l0xx_hal_rtc_ex.c ****   * @retval HAL status
 317:../../../../../../Drivers/STM32L0xx_HAL_Driver/Src/stm32l0xx_hal_rtc_ex.c ****   */
 318:../../../../../../Drivers/STM32L0xx_HAL_Driver/Src/stm32l0xx_hal_rtc_ex.c **** HAL_StatusTypeDef HAL_RTCEx_GetTimeStamp(RTC_HandleTypeDef *hrtc, RTC_TimeTypeDef* sTimeStamp, RTC_
 319:../../../../../../Drivers/STM32L0xx_HAL_Driver/Src/stm32l0xx_hal_rtc_ex.c **** {
 308              		.loc 1 319 0
 309              		.cfi_startproc
 310              		@ args = 0, pretend = 0, frame = 0
 311              		@ frame_needed = 0, uses_anonymous_args = 0
 312              	.LVL25:
 313 0000 F8B5     		push	{r3, r4, r5, r6, r7, lr}
 314              	.LCFI3:
 315              		.cfi_def_cfa_offset 24
 316              		.cfi_offset 3, -24
 317              		.cfi_offset 4, -20
 318              		.cfi_offset 5, -16
 319              		.cfi_offset 6, -12
 320              		.cfi_offset 7, -8
 321              		.cfi_offset 14, -4
 322 0002 CE46     		mov	lr, r9
 323 0004 4746     		mov	r7, r8
 324 0006 0C00     		movs	r4, r1
 320:../../../../../../Drivers/STM32L0xx_HAL_Driver/Src/stm32l0xx_hal_rtc_ex.c ****   uint32_t tmptime = 0U, tmpdate = 0U;
 321:../../../../../../Drivers/STM32L0xx_HAL_Driver/Src/stm32l0xx_hal_rtc_ex.c **** 
 322:../../../../../../Drivers/STM32L0xx_HAL_Driver/Src/stm32l0xx_hal_rtc_ex.c ****   /* Check the parameters */
 323:../../../../../../Drivers/STM32L0xx_HAL_Driver/Src/stm32l0xx_hal_rtc_ex.c ****   assert_param(IS_RTC_FORMAT(Format));
 324:../../../../../../Drivers/STM32L0xx_HAL_Driver/Src/stm32l0xx_hal_rtc_ex.c **** 
 325:../../../../../../Drivers/STM32L0xx_HAL_Driver/Src/stm32l0xx_hal_rtc_ex.c ****   /* Get the TimeStamp time and date registers values */
 326:../../../../../../Drivers/STM32L0xx_HAL_Driver/Src/stm32l0xx_hal_rtc_ex.c ****   tmptime = (uint32_t)(hrtc->Instance->TSTR & RTC_TR_RESERVED_MASK);
 325              		.loc 1 326 0
 326 0008 0168     		ldr	r1, [r0]
 327              	.LVL26:
 319:../../../../../../Drivers/STM32L0xx_HAL_Driver/Src/stm32l0xx_hal_rtc_ex.c ****   uint32_t tmptime = 0U, tmpdate = 0U;
 328              		.loc 1 319 0
 329 000a 1500     		movs	r5, r2
 330              		.loc 1 326 0
 331 000c 0E6B     		ldr	r6, [r1, #48]
 332 000e 234A     		ldr	r2, .L19
 333              	.LVL27:
 319:../../../../../../Drivers/STM32L0xx_HAL_Driver/Src/stm32l0xx_hal_rtc_ex.c ****   uint32_t tmptime = 0U, tmpdate = 0U;
 334              		.loc 1 319 0
 335 0010 80B5     		push	{r7, lr}
 336              	.LCFI4:
 337              		.cfi_def_cfa_offset 32
 338              		.cfi_offset 8, -32
 339              		.cfi_offset 9, -28
 340              		.loc 1 326 0
 341 0012 1640     		ands	r6, r2
 342              	.LVL28:
 319:../../../../../../Drivers/STM32L0xx_HAL_Driver/Src/stm32l0xx_hal_rtc_ex.c ****   uint32_t tmptime = 0U, tmpdate = 0U;
 343              		.loc 1 319 0
 344 0014 0700     		movs	r7, r0
 327:../../../../../../Drivers/STM32L0xx_HAL_Driver/Src/stm32l0xx_hal_rtc_ex.c ****   tmpdate = (uint32_t)(hrtc->Instance->TSDR & RTC_DR_RESERVED_MASK);
 345              		.loc 1 327 0
ARM GAS  C:\Users\EBANO_~1\AppData\Local\Temp\ccyPWgHX.s 			page 13


 346 0016 224A     		ldr	r2, .L19+4
 347 0018 486B     		ldr	r0, [r1, #52]
 348              	.LVL29:
 319:../../../../../../Drivers/STM32L0xx_HAL_Driver/Src/stm32l0xx_hal_rtc_ex.c ****   uint32_t tmptime = 0U, tmpdate = 0U;
 349              		.loc 1 319 0
 350 001a 9946     		mov	r9, r3
 351              		.loc 1 327 0
 352 001c 0240     		ands	r2, r0
 353              	.LVL30:
 328:../../../../../../Drivers/STM32L0xx_HAL_Driver/Src/stm32l0xx_hal_rtc_ex.c **** 
 329:../../../../../../Drivers/STM32L0xx_HAL_Driver/Src/stm32l0xx_hal_rtc_ex.c ****   /* Fill the Time structure fields with the read parameters */
 330:../../../../../../Drivers/STM32L0xx_HAL_Driver/Src/stm32l0xx_hal_rtc_ex.c ****   sTimeStamp->Hours = (uint8_t)((tmptime & (RTC_TR_HT | RTC_TR_HU)) >> 16U);
 354              		.loc 1 330 0
 355 001e 300C     		lsrs	r0, r6, #16
 356 0020 8446     		mov	ip, r0
 357 0022 3F20     		movs	r0, #63
 358 0024 6346     		mov	r3, ip
 359              	.LVL31:
 360 0026 1840     		ands	r0, r3
 331:../../../../../../Drivers/STM32L0xx_HAL_Driver/Src/stm32l0xx_hal_rtc_ex.c ****   sTimeStamp->Minutes = (uint8_t)((tmptime & (RTC_TR_MNT | RTC_TR_MNU)) >> 8U);
 361              		.loc 1 331 0
 362 0028 330A     		lsrs	r3, r6, #8
 363 002a 6370     		strb	r3, [r4, #1]
 332:../../../../../../Drivers/STM32L0xx_HAL_Driver/Src/stm32l0xx_hal_rtc_ex.c ****   sTimeStamp->Seconds = (uint8_t)(tmptime & (RTC_TR_ST | RTC_TR_SU));
 364              		.loc 1 332 0
 365 002c A670     		strb	r6, [r4, #2]
 333:../../../../../../Drivers/STM32L0xx_HAL_Driver/Src/stm32l0xx_hal_rtc_ex.c ****   sTimeStamp->TimeFormat = (uint8_t)((tmptime & (RTC_TR_PM)) >> 16U);
 366              		.loc 1 333 0
 367 002e 6346     		mov	r3, ip
 368 0030 4026     		movs	r6, #64
 369              	.LVL32:
 370 0032 1E40     		ands	r6, r3
 330:../../../../../../Drivers/STM32L0xx_HAL_Driver/Src/stm32l0xx_hal_rtc_ex.c ****   sTimeStamp->Minutes = (uint8_t)((tmptime & (RTC_TR_MNT | RTC_TR_MNU)) >> 8U);
 371              		.loc 1 330 0
 372 0034 2070     		strb	r0, [r4]
 373              		.loc 1 333 0
 374 0036 E670     		strb	r6, [r4, #3]
 334:../../../../../../Drivers/STM32L0xx_HAL_Driver/Src/stm32l0xx_hal_rtc_ex.c ****   sTimeStamp->SubSeconds = (uint32_t) hrtc->Instance->TSSSR;
 375              		.loc 1 334 0
 376 0038 8E6B     		ldr	r6, [r1, #56]
 335:../../../../../../Drivers/STM32L0xx_HAL_Driver/Src/stm32l0xx_hal_rtc_ex.c **** 
 336:../../../../../../Drivers/STM32L0xx_HAL_Driver/Src/stm32l0xx_hal_rtc_ex.c ****   /* Fill the Date structure fields with the read parameters */
 337:../../../../../../Drivers/STM32L0xx_HAL_Driver/Src/stm32l0xx_hal_rtc_ex.c ****   sTimeStampDate->Year = 0U;
 338:../../../../../../Drivers/STM32L0xx_HAL_Driver/Src/stm32l0xx_hal_rtc_ex.c ****   sTimeStampDate->Month = (uint8_t)((tmpdate & (RTC_DR_MT | RTC_DR_MU)) >> 8U);
 339:../../../../../../Drivers/STM32L0xx_HAL_Driver/Src/stm32l0xx_hal_rtc_ex.c ****   sTimeStampDate->Date = (uint8_t)(tmpdate & (RTC_DR_DT | RTC_DR_DU));
 340:../../../../../../Drivers/STM32L0xx_HAL_Driver/Src/stm32l0xx_hal_rtc_ex.c ****   sTimeStampDate->WeekDay = (uint8_t)((tmpdate & (RTC_DR_WDU)) >> 13U);
 341:../../../../../../Drivers/STM32L0xx_HAL_Driver/Src/stm32l0xx_hal_rtc_ex.c **** 
 342:../../../../../../Drivers/STM32L0xx_HAL_Driver/Src/stm32l0xx_hal_rtc_ex.c ****   /* Check the input parameters format */
 343:../../../../../../Drivers/STM32L0xx_HAL_Driver/Src/stm32l0xx_hal_rtc_ex.c ****   if(Format == RTC_FORMAT_BIN)
 377              		.loc 1 343 0
 378 003a 4B46     		mov	r3, r9
 334:../../../../../../Drivers/STM32L0xx_HAL_Driver/Src/stm32l0xx_hal_rtc_ex.c ****   sTimeStamp->SubSeconds = (uint32_t) hrtc->Instance->TSSSR;
 379              		.loc 1 334 0
 380 003c 6660     		str	r6, [r4, #4]
 337:../../../../../../Drivers/STM32L0xx_HAL_Driver/Src/stm32l0xx_hal_rtc_ex.c ****   sTimeStampDate->Month = (uint8_t)((tmpdate & (RTC_DR_MT | RTC_DR_MU)) >> 8U);
 381              		.loc 1 337 0
 382 003e 0026     		movs	r6, #0
ARM GAS  C:\Users\EBANO_~1\AppData\Local\Temp\ccyPWgHX.s 			page 14


 339:../../../../../../Drivers/STM32L0xx_HAL_Driver/Src/stm32l0xx_hal_rtc_ex.c ****   sTimeStampDate->WeekDay = (uint8_t)((tmpdate & (RTC_DR_WDU)) >> 13U);
 383              		.loc 1 339 0
 384 0040 AA70     		strb	r2, [r5, #2]
 337:../../../../../../Drivers/STM32L0xx_HAL_Driver/Src/stm32l0xx_hal_rtc_ex.c ****   sTimeStampDate->Month = (uint8_t)((tmpdate & (RTC_DR_MT | RTC_DR_MU)) >> 8U);
 385              		.loc 1 337 0
 386 0042 EE70     		strb	r6, [r5, #3]
 338:../../../../../../Drivers/STM32L0xx_HAL_Driver/Src/stm32l0xx_hal_rtc_ex.c ****   sTimeStampDate->Date = (uint8_t)(tmpdate & (RTC_DR_DT | RTC_DR_DU));
 387              		.loc 1 338 0
 388 0044 D604     		lsls	r6, r2, #19
 340:../../../../../../Drivers/STM32L0xx_HAL_Driver/Src/stm32l0xx_hal_rtc_ex.c **** 
 389              		.loc 1 340 0
 390 0046 1204     		lsls	r2, r2, #16
 391              	.LVL33:
 338:../../../../../../Drivers/STM32L0xx_HAL_Driver/Src/stm32l0xx_hal_rtc_ex.c ****   sTimeStampDate->Date = (uint8_t)(tmpdate & (RTC_DR_DT | RTC_DR_DU));
 392              		.loc 1 338 0
 393 0048 F60E     		lsrs	r6, r6, #27
 340:../../../../../../Drivers/STM32L0xx_HAL_Driver/Src/stm32l0xx_hal_rtc_ex.c **** 
 394              		.loc 1 340 0
 395 004a 520F     		lsrs	r2, r2, #29
 338:../../../../../../Drivers/STM32L0xx_HAL_Driver/Src/stm32l0xx_hal_rtc_ex.c ****   sTimeStampDate->Date = (uint8_t)(tmpdate & (RTC_DR_DT | RTC_DR_DU));
 396              		.loc 1 338 0
 397 004c 6E70     		strb	r6, [r5, #1]
 340:../../../../../../Drivers/STM32L0xx_HAL_Driver/Src/stm32l0xx_hal_rtc_ex.c **** 
 398              		.loc 1 340 0
 399 004e 2A70     		strb	r2, [r5]
 400              		.loc 1 343 0
 401 0050 002B     		cmp	r3, #0
 402 0052 17D1     		bne	.L18
 344:../../../../../../Drivers/STM32L0xx_HAL_Driver/Src/stm32l0xx_hal_rtc_ex.c ****   {
 345:../../../../../../Drivers/STM32L0xx_HAL_Driver/Src/stm32l0xx_hal_rtc_ex.c ****     /* Convert the TimeStamp structure parameters to Binary format */
 346:../../../../../../Drivers/STM32L0xx_HAL_Driver/Src/stm32l0xx_hal_rtc_ex.c ****     sTimeStamp->Hours = (uint8_t)RTC_Bcd2ToByte(sTimeStamp->Hours);
 403              		.loc 1 346 0
 404 0054 FFF7FEFF 		bl	RTC_Bcd2ToByte
 405              	.LVL34:
 406 0058 2070     		strb	r0, [r4]
 347:../../../../../../Drivers/STM32L0xx_HAL_Driver/Src/stm32l0xx_hal_rtc_ex.c ****     sTimeStamp->Minutes = (uint8_t)RTC_Bcd2ToByte(sTimeStamp->Minutes);
 407              		.loc 1 347 0
 408 005a 6078     		ldrb	r0, [r4, #1]
 409 005c FFF7FEFF 		bl	RTC_Bcd2ToByte
 410              	.LVL35:
 411 0060 6070     		strb	r0, [r4, #1]
 348:../../../../../../Drivers/STM32L0xx_HAL_Driver/Src/stm32l0xx_hal_rtc_ex.c ****     sTimeStamp->Seconds = (uint8_t)RTC_Bcd2ToByte(sTimeStamp->Seconds);
 412              		.loc 1 348 0
 413 0062 A078     		ldrb	r0, [r4, #2]
 414 0064 FFF7FEFF 		bl	RTC_Bcd2ToByte
 415              	.LVL36:
 416 0068 A070     		strb	r0, [r4, #2]
 349:../../../../../../Drivers/STM32L0xx_HAL_Driver/Src/stm32l0xx_hal_rtc_ex.c **** 
 350:../../../../../../Drivers/STM32L0xx_HAL_Driver/Src/stm32l0xx_hal_rtc_ex.c ****     /* Convert the DateTimeStamp structure parameters to Binary format */
 351:../../../../../../Drivers/STM32L0xx_HAL_Driver/Src/stm32l0xx_hal_rtc_ex.c ****     sTimeStampDate->Month = (uint8_t)RTC_Bcd2ToByte(sTimeStampDate->Month);
 417              		.loc 1 351 0
 418 006a 6878     		ldrb	r0, [r5, #1]
 419 006c FFF7FEFF 		bl	RTC_Bcd2ToByte
 420              	.LVL37:
 421 0070 6870     		strb	r0, [r5, #1]
 352:../../../../../../Drivers/STM32L0xx_HAL_Driver/Src/stm32l0xx_hal_rtc_ex.c ****     sTimeStampDate->Date = (uint8_t)RTC_Bcd2ToByte(sTimeStampDate->Date);
 422              		.loc 1 352 0
ARM GAS  C:\Users\EBANO_~1\AppData\Local\Temp\ccyPWgHX.s 			page 15


 423 0072 A878     		ldrb	r0, [r5, #2]
 424 0074 FFF7FEFF 		bl	RTC_Bcd2ToByte
 425              	.LVL38:
 426 0078 A870     		strb	r0, [r5, #2]
 353:../../../../../../Drivers/STM32L0xx_HAL_Driver/Src/stm32l0xx_hal_rtc_ex.c ****     sTimeStampDate->WeekDay = (uint8_t)RTC_Bcd2ToByte(sTimeStampDate->WeekDay);
 427              		.loc 1 353 0
 428 007a 2878     		ldrb	r0, [r5]
 429 007c FFF7FEFF 		bl	RTC_Bcd2ToByte
 430              	.LVL39:
 431 0080 2870     		strb	r0, [r5]
 432 0082 3968     		ldr	r1, [r7]
 433              	.L18:
 354:../../../../../../Drivers/STM32L0xx_HAL_Driver/Src/stm32l0xx_hal_rtc_ex.c ****   }
 355:../../../../../../Drivers/STM32L0xx_HAL_Driver/Src/stm32l0xx_hal_rtc_ex.c **** 
 356:../../../../../../Drivers/STM32L0xx_HAL_Driver/Src/stm32l0xx_hal_rtc_ex.c ****   /* Clear the TIMESTAMP Flag */
 357:../../../../../../Drivers/STM32L0xx_HAL_Driver/Src/stm32l0xx_hal_rtc_ex.c ****   __HAL_RTC_TIMESTAMP_CLEAR_FLAG(hrtc, RTC_FLAG_TSF);
 434              		.loc 1 357 0
 435 0084 FF23     		movs	r3, #255
 436 0086 CA68     		ldr	r2, [r1, #12]
 358:../../../../../../Drivers/STM32L0xx_HAL_Driver/Src/stm32l0xx_hal_rtc_ex.c **** 
 359:../../../../../../Drivers/STM32L0xx_HAL_Driver/Src/stm32l0xx_hal_rtc_ex.c ****   return HAL_OK;
 360:../../../../../../Drivers/STM32L0xx_HAL_Driver/Src/stm32l0xx_hal_rtc_ex.c **** }
 437              		.loc 1 360 0
 438 0088 0020     		movs	r0, #0
 357:../../../../../../Drivers/STM32L0xx_HAL_Driver/Src/stm32l0xx_hal_rtc_ex.c **** 
 439              		.loc 1 357 0
 440 008a 1A40     		ands	r2, r3
 441 008c 054B     		ldr	r3, .L19+8
 442              		.loc 1 360 0
 443              		@ sp needed
 357:../../../../../../Drivers/STM32L0xx_HAL_Driver/Src/stm32l0xx_hal_rtc_ex.c **** 
 444              		.loc 1 357 0
 445 008e 1343     		orrs	r3, r2
 446 0090 CB60     		str	r3, [r1, #12]
 447              	.LVL40:
 448              	.LVL41:
 449              	.LVL42:
 450              	.LVL43:
 451              		.loc 1 360 0
 452 0092 0CBC     		pop	{r2, r3}
 453 0094 9046     		mov	r8, r2
 454 0096 9946     		mov	r9, r3
 455 0098 F8BD     		pop	{r3, r4, r5, r6, r7, pc}
 456              	.L20:
 457 009a C046     		.align	2
 458              	.L19:
 459 009c 7F7F7F00 		.word	8355711
 460 00a0 3FFFFF00 		.word	16777023
 461 00a4 7FF7FFFF 		.word	-2177
 462              		.cfi_endproc
 463              	.LFE42:
 464              		.size	HAL_RTCEx_GetTimeStamp, .-HAL_RTCEx_GetTimeStamp
 465              		.section	.text.HAL_RTCEx_SetTamper,"ax",%progbits
 466              		.align	1
 467              		.p2align 2,,3
 468              		.global	HAL_RTCEx_SetTamper
 469              		.syntax unified
ARM GAS  C:\Users\EBANO_~1\AppData\Local\Temp\ccyPWgHX.s 			page 16


 470              		.code	16
 471              		.thumb_func
 472              		.fpu softvfp
 473              		.type	HAL_RTCEx_SetTamper, %function
 474              	HAL_RTCEx_SetTamper:
 475              	.LFB43:
 361:../../../../../../Drivers/STM32L0xx_HAL_Driver/Src/stm32l0xx_hal_rtc_ex.c **** 
 362:../../../../../../Drivers/STM32L0xx_HAL_Driver/Src/stm32l0xx_hal_rtc_ex.c **** /**
 363:../../../../../../Drivers/STM32L0xx_HAL_Driver/Src/stm32l0xx_hal_rtc_ex.c ****   * @brief  Set Tamper
 364:../../../../../../Drivers/STM32L0xx_HAL_Driver/Src/stm32l0xx_hal_rtc_ex.c ****   * @note   By calling this API we disable the tamper interrupt for all tampers.
 365:../../../../../../Drivers/STM32L0xx_HAL_Driver/Src/stm32l0xx_hal_rtc_ex.c ****   * @param  hrtc RTC handle
 366:../../../../../../Drivers/STM32L0xx_HAL_Driver/Src/stm32l0xx_hal_rtc_ex.c ****   * @param  sTamper Pointer to Tamper Structure.
 367:../../../../../../Drivers/STM32L0xx_HAL_Driver/Src/stm32l0xx_hal_rtc_ex.c ****   * @retval HAL status
 368:../../../../../../Drivers/STM32L0xx_HAL_Driver/Src/stm32l0xx_hal_rtc_ex.c ****   */
 369:../../../../../../Drivers/STM32L0xx_HAL_Driver/Src/stm32l0xx_hal_rtc_ex.c **** HAL_StatusTypeDef HAL_RTCEx_SetTamper(RTC_HandleTypeDef *hrtc, RTC_TamperTypeDef* sTamper)
 370:../../../../../../Drivers/STM32L0xx_HAL_Driver/Src/stm32l0xx_hal_rtc_ex.c **** {
 476              		.loc 1 370 0
 477              		.cfi_startproc
 478              		@ args = 0, pretend = 0, frame = 0
 479              		@ frame_needed = 0, uses_anonymous_args = 0
 480              	.LVL44:
 481 0000 F0B5     		push	{r4, r5, r6, r7, lr}
 482              	.LCFI5:
 483              		.cfi_def_cfa_offset 20
 484              		.cfi_offset 4, -20
 485              		.cfi_offset 5, -16
 486              		.cfi_offset 6, -12
 487              		.cfi_offset 7, -8
 488              		.cfi_offset 14, -4
 489 0002 C646     		mov	lr, r8
 371:../../../../../../Drivers/STM32L0xx_HAL_Driver/Src/stm32l0xx_hal_rtc_ex.c ****   uint32_t tmpreg = 0U;
 372:../../../../../../Drivers/STM32L0xx_HAL_Driver/Src/stm32l0xx_hal_rtc_ex.c **** 
 373:../../../../../../Drivers/STM32L0xx_HAL_Driver/Src/stm32l0xx_hal_rtc_ex.c ****   /* Check the parameters */
 374:../../../../../../Drivers/STM32L0xx_HAL_Driver/Src/stm32l0xx_hal_rtc_ex.c ****   assert_param( IS_RTC_TAMPER(sTamper->Tamper));
 375:../../../../../../Drivers/STM32L0xx_HAL_Driver/Src/stm32l0xx_hal_rtc_ex.c ****   assert_param( IS_RTC_TAMPER_TRIGGER(sTamper->Trigger));
 376:../../../../../../Drivers/STM32L0xx_HAL_Driver/Src/stm32l0xx_hal_rtc_ex.c ****   assert_param(IS_RTC_TAMPER_ERASE_MODE(sTamper->NoErase));
 377:../../../../../../Drivers/STM32L0xx_HAL_Driver/Src/stm32l0xx_hal_rtc_ex.c ****   assert_param(IS_RTC_TAMPER_MASKFLAG_STATE(sTamper->MaskFlag));
 378:../../../../../../Drivers/STM32L0xx_HAL_Driver/Src/stm32l0xx_hal_rtc_ex.c ****   assert_param(IS_RTC_TAMPER_FILTER(sTamper->Filter));
 379:../../../../../../Drivers/STM32L0xx_HAL_Driver/Src/stm32l0xx_hal_rtc_ex.c ****   assert_param(IS_RTC_TAMPER_SAMPLING_FREQ(sTamper->SamplingFrequency));
 380:../../../../../../Drivers/STM32L0xx_HAL_Driver/Src/stm32l0xx_hal_rtc_ex.c ****   assert_param(IS_RTC_TAMPER_PRECHARGE_DURATION(sTamper->PrechargeDuration));
 381:../../../../../../Drivers/STM32L0xx_HAL_Driver/Src/stm32l0xx_hal_rtc_ex.c ****   assert_param(IS_RTC_TAMPER_PULLUP_STATE(sTamper->TamperPullUp));
 382:../../../../../../Drivers/STM32L0xx_HAL_Driver/Src/stm32l0xx_hal_rtc_ex.c ****   assert_param(IS_RTC_TAMPER_TIMESTAMPONTAMPER_DETECTION(sTamper->TimeStampOnTamperDetection));
 383:../../../../../../Drivers/STM32L0xx_HAL_Driver/Src/stm32l0xx_hal_rtc_ex.c **** 
 384:../../../../../../Drivers/STM32L0xx_HAL_Driver/Src/stm32l0xx_hal_rtc_ex.c ****   /* Process Locked */
 385:../../../../../../Drivers/STM32L0xx_HAL_Driver/Src/stm32l0xx_hal_rtc_ex.c ****   __HAL_LOCK(hrtc);
 490              		.loc 1 385 0
 491 0004 2023     		movs	r3, #32
 370:../../../../../../Drivers/STM32L0xx_HAL_Driver/Src/stm32l0xx_hal_rtc_ex.c ****   uint32_t tmpreg = 0U;
 492              		.loc 1 370 0
 493 0006 00B5     		push	{lr}
 494              	.LCFI6:
 495              		.cfi_def_cfa_offset 24
 496              		.cfi_offset 8, -24
 497              		.loc 1 385 0
 498 0008 C25C     		ldrb	r2, [r0, r3]
 499 000a 012A     		cmp	r2, #1
 500 000c 64D0     		beq	.L32
ARM GAS  C:\Users\EBANO_~1\AppData\Local\Temp\ccyPWgHX.s 			page 17


 501              		.loc 1 385 0 is_stmt 0 discriminator 2
 502 000e 0122     		movs	r2, #1
 503 0010 0C68     		ldr	r4, [r1]
 504 0012 C254     		strb	r2, [r0, r3]
 386:../../../../../../Drivers/STM32L0xx_HAL_Driver/Src/stm32l0xx_hal_rtc_ex.c **** 
 387:../../../../../../Drivers/STM32L0xx_HAL_Driver/Src/stm32l0xx_hal_rtc_ex.c ****   hrtc->State = HAL_RTC_STATE_BUSY;
 388:../../../../../../Drivers/STM32L0xx_HAL_Driver/Src/stm32l0xx_hal_rtc_ex.c **** 
 389:../../../../../../Drivers/STM32L0xx_HAL_Driver/Src/stm32l0xx_hal_rtc_ex.c ****   /* Configure the tamper trigger */
 390:../../../../../../Drivers/STM32L0xx_HAL_Driver/Src/stm32l0xx_hal_rtc_ex.c ****   if(sTamper->Trigger != RTC_TAMPERTRIGGER_RISINGEDGE)
 505              		.loc 1 390 0 is_stmt 1 discriminator 2
 506 0014 8F68     		ldr	r7, [r1, #8]
 387:../../../../../../Drivers/STM32L0xx_HAL_Driver/Src/stm32l0xx_hal_rtc_ex.c **** 
 507              		.loc 1 387 0 discriminator 2
 508 0016 0133     		adds	r3, r3, #1
 509 0018 0132     		adds	r2, r2, #1
 510 001a C254     		strb	r2, [r0, r3]
 511 001c 6300     		lsls	r3, r4, #1
 512 001e 9C46     		mov	ip, r3
 513              		.loc 1 390 0 discriminator 2
 514 0020 002F     		cmp	r7, #0
 515 0022 01D0     		beq	.L23
 391:../../../../../../Drivers/STM32L0xx_HAL_Driver/Src/stm32l0xx_hal_rtc_ex.c ****   { 
 392:../../../../../../Drivers/STM32L0xx_HAL_Driver/Src/stm32l0xx_hal_rtc_ex.c ****     sTamper->Trigger = (uint32_t)(sTamper->Tamper << 1U); 
 516              		.loc 1 392 0
 517 0024 1F00     		movs	r7, r3
 518 0026 8B60     		str	r3, [r1, #8]
 519              	.L23:
 393:../../../../../../Drivers/STM32L0xx_HAL_Driver/Src/stm32l0xx_hal_rtc_ex.c ****   }
 394:../../../../../../Drivers/STM32L0xx_HAL_Driver/Src/stm32l0xx_hal_rtc_ex.c **** 
 395:../../../../../../Drivers/STM32L0xx_HAL_Driver/Src/stm32l0xx_hal_rtc_ex.c ****   if(sTamper->NoErase != RTC_TAMPER_ERASE_BACKUP_ENABLE)
 520              		.loc 1 395 0
 521 0028 CE68     		ldr	r6, [r1, #12]
 522 002a 002E     		cmp	r6, #0
 523 002c 10D0     		beq	.L24
 396:../../../../../../Drivers/STM32L0xx_HAL_Driver/Src/stm32l0xx_hal_rtc_ex.c ****   { 
 397:../../../../../../Drivers/STM32L0xx_HAL_Driver/Src/stm32l0xx_hal_rtc_ex.c ****     sTamper->NoErase = 0U;
 398:../../../../../../Drivers/STM32L0xx_HAL_Driver/Src/stm32l0xx_hal_rtc_ex.c **** #if defined (STM32L063xx) || defined (STM32L062xx) || defined (STM32L061xx) || \
 399:../../../../../../Drivers/STM32L0xx_HAL_Driver/Src/stm32l0xx_hal_rtc_ex.c ****     defined (STM32L053xx) || defined (STM32L052xx) || defined (STM32L051xx) ||\
 400:../../../../../../Drivers/STM32L0xx_HAL_Driver/Src/stm32l0xx_hal_rtc_ex.c ****     defined (STM32L083xx) || defined (STM32L082xx) || defined (STM32L081xx) || \
 401:../../../../../../Drivers/STM32L0xx_HAL_Driver/Src/stm32l0xx_hal_rtc_ex.c ****     defined (STM32L073xx) || defined (STM32L072xx) || defined (STM32L071xx) || \
 402:../../../../../../Drivers/STM32L0xx_HAL_Driver/Src/stm32l0xx_hal_rtc_ex.c ****     defined (STM32L031xx) || defined (STM32L041xx) || defined (STM32L010xB) || \
 403:../../../../../../Drivers/STM32L0xx_HAL_Driver/Src/stm32l0xx_hal_rtc_ex.c ****     defined (STM32L010x8) || defined (STM32L010x6)
 404:../../../../../../Drivers/STM32L0xx_HAL_Driver/Src/stm32l0xx_hal_rtc_ex.c **** 
 405:../../../../../../Drivers/STM32L0xx_HAL_Driver/Src/stm32l0xx_hal_rtc_ex.c ****     if((sTamper->Tamper & RTC_TAMPER_1) != 0U)
 524              		.loc 1 405 0
 525 002e 0123     		movs	r3, #1
 526 0030 2340     		ands	r3, r4
 527 0032 45D1     		bne	.L25
 397:../../../../../../Drivers/STM32L0xx_HAL_Driver/Src/stm32l0xx_hal_rtc_ex.c **** #if defined (STM32L063xx) || defined (STM32L062xx) || defined (STM32L061xx) || \
 528              		.loc 1 397 0
 529 0034 8022     		movs	r2, #128
 530 0036 0026     		movs	r6, #0
 531 0038 CB60     		str	r3, [r1, #12]
 532 003a 5203     		lsls	r2, r2, #13
 533              	.L26:
 406:../../../../../../Drivers/STM32L0xx_HAL_Driver/Src/stm32l0xx_hal_rtc_ex.c ****     {
 407:../../../../../../Drivers/STM32L0xx_HAL_Driver/Src/stm32l0xx_hal_rtc_ex.c ****       sTamper->NoErase |= RTC_TAMPCR_TAMP1NOERASE;
ARM GAS  C:\Users\EBANO_~1\AppData\Local\Temp\ccyPWgHX.s 			page 18


 408:../../../../../../Drivers/STM32L0xx_HAL_Driver/Src/stm32l0xx_hal_rtc_ex.c ****     }
 409:../../../../../../Drivers/STM32L0xx_HAL_Driver/Src/stm32l0xx_hal_rtc_ex.c **** #endif /* (STM32L063xx) || (STM32L062xx) || (STM32L061xx) ||
 410:../../../../../../Drivers/STM32L0xx_HAL_Driver/Src/stm32l0xx_hal_rtc_ex.c ****         * (STM32L053xx) || (STM32L052xx) || (STM32L051xx) ||
 411:../../../../../../Drivers/STM32L0xx_HAL_Driver/Src/stm32l0xx_hal_rtc_ex.c ****         * (STM32L083xx) || (STM32L082xx) || (STM32L081xx) ||
 412:../../../../../../Drivers/STM32L0xx_HAL_Driver/Src/stm32l0xx_hal_rtc_ex.c ****         * (STM32L073xx) || (STM32L072xx) || (STM32L071xx) || 
 413:../../../../../../Drivers/STM32L0xx_HAL_Driver/Src/stm32l0xx_hal_rtc_ex.c ****         * (STM32L031xx) || (STM32L041xx) || (STM32L010xB) ||
 414:../../../../../../Drivers/STM32L0xx_HAL_Driver/Src/stm32l0xx_hal_rtc_ex.c ****         * (STM32L010x8) || (STM32L010x6)
 415:../../../../../../Drivers/STM32L0xx_HAL_Driver/Src/stm32l0xx_hal_rtc_ex.c ****         */
 416:../../../../../../Drivers/STM32L0xx_HAL_Driver/Src/stm32l0xx_hal_rtc_ex.c **** 
 417:../../../../../../Drivers/STM32L0xx_HAL_Driver/Src/stm32l0xx_hal_rtc_ex.c ****     if((sTamper->Tamper & RTC_TAMPER_2) != 0U)
 534              		.loc 1 417 0
 535 003c 2307     		lsls	r3, r4, #28
 536 003e 01D5     		bpl	.L27
 418:../../../../../../Drivers/STM32L0xx_HAL_Driver/Src/stm32l0xx_hal_rtc_ex.c ****     {
 419:../../../../../../Drivers/STM32L0xx_HAL_Driver/Src/stm32l0xx_hal_rtc_ex.c ****       sTamper->NoErase |= RTC_TAMPCR_TAMP2NOERASE;
 537              		.loc 1 419 0
 538 0040 1600     		movs	r6, r2
 539 0042 CA60     		str	r2, [r1, #12]
 540              	.L27:
 420:../../../../../../Drivers/STM32L0xx_HAL_Driver/Src/stm32l0xx_hal_rtc_ex.c ****     }
 421:../../../../../../Drivers/STM32L0xx_HAL_Driver/Src/stm32l0xx_hal_rtc_ex.c **** #if defined (STM32L083xx) || defined (STM32L082xx) || defined (STM32L081xx) || \
 422:../../../../../../Drivers/STM32L0xx_HAL_Driver/Src/stm32l0xx_hal_rtc_ex.c ****     defined (STM32L073xx) || defined (STM32L072xx) || defined (STM32L071xx) || \
 423:../../../../../../Drivers/STM32L0xx_HAL_Driver/Src/stm32l0xx_hal_rtc_ex.c ****     defined (STM32L031xx) || defined (STM32L041xx) || defined (STM32L011xx) || \
 424:../../../../../../Drivers/STM32L0xx_HAL_Driver/Src/stm32l0xx_hal_rtc_ex.c ****     defined (STM32L021xx) || defined (STM32L010x4) || defined (STM32L010x6) || \
 425:../../../../../../Drivers/STM32L0xx_HAL_Driver/Src/stm32l0xx_hal_rtc_ex.c ****     defined (STM32L010xB)
 426:../../../../../../Drivers/STM32L0xx_HAL_Driver/Src/stm32l0xx_hal_rtc_ex.c **** 
 427:../../../../../../Drivers/STM32L0xx_HAL_Driver/Src/stm32l0xx_hal_rtc_ex.c ****     if((sTamper->Tamper & RTC_TAMPER_3) != 0U)
 541              		.loc 1 427 0
 542 0044 A306     		lsls	r3, r4, #26
 543 0046 03D5     		bpl	.L24
 428:../../../../../../Drivers/STM32L0xx_HAL_Driver/Src/stm32l0xx_hal_rtc_ex.c ****     {
 429:../../../../../../Drivers/STM32L0xx_HAL_Driver/Src/stm32l0xx_hal_rtc_ex.c ****       sTamper->NoErase |= RTC_TAMPCR_TAMP3NOERASE;
 544              		.loc 1 429 0
 545 0048 8023     		movs	r3, #128
 546 004a 1B04     		lsls	r3, r3, #16
 547 004c 1E43     		orrs	r6, r3
 548 004e CE60     		str	r6, [r1, #12]
 549              	.L24:
 430:../../../../../../Drivers/STM32L0xx_HAL_Driver/Src/stm32l0xx_hal_rtc_ex.c ****     }
 431:../../../../../../Drivers/STM32L0xx_HAL_Driver/Src/stm32l0xx_hal_rtc_ex.c **** 
 432:../../../../../../Drivers/STM32L0xx_HAL_Driver/Src/stm32l0xx_hal_rtc_ex.c **** #endif /* (STM32L083xx) || (STM32L082xx) || (STM32L081xx) ||
 433:../../../../../../Drivers/STM32L0xx_HAL_Driver/Src/stm32l0xx_hal_rtc_ex.c ****         * (STM32L073xx) || (STM32L072xx) || (STM32L071xx) ||
 434:../../../../../../Drivers/STM32L0xx_HAL_Driver/Src/stm32l0xx_hal_rtc_ex.c ****         * (STM32L031xx) || (STM32L041xx) || (STM32L011xx) ||
 435:../../../../../../Drivers/STM32L0xx_HAL_Driver/Src/stm32l0xx_hal_rtc_ex.c ****         * (STM32L021xx) || (STM32L010x4) || (STM32L010x6) ||
 436:../../../../../../Drivers/STM32L0xx_HAL_Driver/Src/stm32l0xx_hal_rtc_ex.c ****         * (STM32L010xB)
 437:../../../../../../Drivers/STM32L0xx_HAL_Driver/Src/stm32l0xx_hal_rtc_ex.c ****         */
 438:../../../../../../Drivers/STM32L0xx_HAL_Driver/Src/stm32l0xx_hal_rtc_ex.c ****   }
 439:../../../../../../Drivers/STM32L0xx_HAL_Driver/Src/stm32l0xx_hal_rtc_ex.c **** 
 440:../../../../../../Drivers/STM32L0xx_HAL_Driver/Src/stm32l0xx_hal_rtc_ex.c ****   if(sTamper->MaskFlag != RTC_TAMPERMASK_FLAG_DISABLE)
 550              		.loc 1 440 0
 551 0050 0D69     		ldr	r5, [r1, #16]
 552 0052 002D     		cmp	r5, #0
 553 0054 10D0     		beq	.L28
 441:../../../../../../Drivers/STM32L0xx_HAL_Driver/Src/stm32l0xx_hal_rtc_ex.c ****   {
 442:../../../../../../Drivers/STM32L0xx_HAL_Driver/Src/stm32l0xx_hal_rtc_ex.c ****     sTamper->MaskFlag = 0U;
 443:../../../../../../Drivers/STM32L0xx_HAL_Driver/Src/stm32l0xx_hal_rtc_ex.c ****     
 444:../../../../../../Drivers/STM32L0xx_HAL_Driver/Src/stm32l0xx_hal_rtc_ex.c **** #if defined (STM32L063xx) || defined (STM32L062xx) || defined (STM32L061xx) || \
ARM GAS  C:\Users\EBANO_~1\AppData\Local\Temp\ccyPWgHX.s 			page 19


 445:../../../../../../Drivers/STM32L0xx_HAL_Driver/Src/stm32l0xx_hal_rtc_ex.c ****     defined (STM32L053xx) || defined (STM32L052xx) || defined (STM32L051xx) ||\
 446:../../../../../../Drivers/STM32L0xx_HAL_Driver/Src/stm32l0xx_hal_rtc_ex.c ****     defined (STM32L083xx) || defined (STM32L082xx) || defined (STM32L081xx) || \
 447:../../../../../../Drivers/STM32L0xx_HAL_Driver/Src/stm32l0xx_hal_rtc_ex.c ****     defined (STM32L073xx) || defined (STM32L072xx) || defined (STM32L071xx) || \
 448:../../../../../../Drivers/STM32L0xx_HAL_Driver/Src/stm32l0xx_hal_rtc_ex.c ****     defined (STM32L031xx) || defined (STM32L041xx) || defined (STM32L010xB) || \
 449:../../../../../../Drivers/STM32L0xx_HAL_Driver/Src/stm32l0xx_hal_rtc_ex.c ****     defined (STM32L010x8) || defined (STM32L010x6)
 450:../../../../../../Drivers/STM32L0xx_HAL_Driver/Src/stm32l0xx_hal_rtc_ex.c **** 
 451:../../../../../../Drivers/STM32L0xx_HAL_Driver/Src/stm32l0xx_hal_rtc_ex.c ****     if((sTamper->Tamper & RTC_TAMPER_1) != 0U)
 554              		.loc 1 451 0
 555 0056 0123     		movs	r3, #1
 556 0058 2340     		ands	r3, r4
 557 005a 37D1     		bne	.L29
 442:../../../../../../Drivers/STM32L0xx_HAL_Driver/Src/stm32l0xx_hal_rtc_ex.c ****     
 558              		.loc 1 442 0
 559 005c 8022     		movs	r2, #128
 560 005e 0025     		movs	r5, #0
 561 0060 0B61     		str	r3, [r1, #16]
 562 0062 9203     		lsls	r2, r2, #14
 563              	.L30:
 452:../../../../../../Drivers/STM32L0xx_HAL_Driver/Src/stm32l0xx_hal_rtc_ex.c ****     {
 453:../../../../../../Drivers/STM32L0xx_HAL_Driver/Src/stm32l0xx_hal_rtc_ex.c ****       sTamper->MaskFlag |= RTC_TAMPCR_TAMP1MF;
 454:../../../../../../Drivers/STM32L0xx_HAL_Driver/Src/stm32l0xx_hal_rtc_ex.c ****     }
 455:../../../../../../Drivers/STM32L0xx_HAL_Driver/Src/stm32l0xx_hal_rtc_ex.c **** #endif /* (STM32L063xx) || (STM32L062xx) || (STM32L061xx) ||
 456:../../../../../../Drivers/STM32L0xx_HAL_Driver/Src/stm32l0xx_hal_rtc_ex.c ****         * (STM32L053xx) || (STM32L052xx) || (STM32L051xx) ||
 457:../../../../../../Drivers/STM32L0xx_HAL_Driver/Src/stm32l0xx_hal_rtc_ex.c ****         * (STM32L083xx) || (STM32L082xx) || (STM32L081xx) ||
 458:../../../../../../Drivers/STM32L0xx_HAL_Driver/Src/stm32l0xx_hal_rtc_ex.c ****         * (STM32L073xx) || (STM32L072xx) || (STM32L071xx) || 
 459:../../../../../../Drivers/STM32L0xx_HAL_Driver/Src/stm32l0xx_hal_rtc_ex.c ****         * (STM32L031xx) || (STM32L041xx) || (STM32L010xB) ||
 460:../../../../../../Drivers/STM32L0xx_HAL_Driver/Src/stm32l0xx_hal_rtc_ex.c ****         * (STM32L010x8) || (STM32L010x6)
 461:../../../../../../Drivers/STM32L0xx_HAL_Driver/Src/stm32l0xx_hal_rtc_ex.c ****         */
 462:../../../../../../Drivers/STM32L0xx_HAL_Driver/Src/stm32l0xx_hal_rtc_ex.c ****   
 463:../../../../../../Drivers/STM32L0xx_HAL_Driver/Src/stm32l0xx_hal_rtc_ex.c ****     if((sTamper->Tamper & RTC_TAMPER_2) != 0U)
 564              		.loc 1 463 0
 565 0064 2307     		lsls	r3, r4, #28
 566 0066 01D5     		bpl	.L31
 464:../../../../../../Drivers/STM32L0xx_HAL_Driver/Src/stm32l0xx_hal_rtc_ex.c ****     {
 465:../../../../../../Drivers/STM32L0xx_HAL_Driver/Src/stm32l0xx_hal_rtc_ex.c ****       sTamper->MaskFlag |= RTC_TAMPCR_TAMP2MF;
 567              		.loc 1 465 0
 568 0068 1500     		movs	r5, r2
 569 006a 0A61     		str	r2, [r1, #16]
 570              	.L31:
 466:../../../../../../Drivers/STM32L0xx_HAL_Driver/Src/stm32l0xx_hal_rtc_ex.c ****     }
 467:../../../../../../Drivers/STM32L0xx_HAL_Driver/Src/stm32l0xx_hal_rtc_ex.c **** #if defined (STM32L083xx) || defined (STM32L082xx) || defined (STM32L081xx) || \
 468:../../../../../../Drivers/STM32L0xx_HAL_Driver/Src/stm32l0xx_hal_rtc_ex.c ****     defined (STM32L073xx) || defined (STM32L072xx) || defined (STM32L071xx) || \
 469:../../../../../../Drivers/STM32L0xx_HAL_Driver/Src/stm32l0xx_hal_rtc_ex.c ****     defined (STM32L031xx) || defined (STM32L041xx) || defined (STM32L011xx) || \
 470:../../../../../../Drivers/STM32L0xx_HAL_Driver/Src/stm32l0xx_hal_rtc_ex.c ****     defined (STM32L021xx) || defined (STM32L010x4) || defined (STM32L010x6) || \
 471:../../../../../../Drivers/STM32L0xx_HAL_Driver/Src/stm32l0xx_hal_rtc_ex.c ****     defined (STM32L010xB)
 472:../../../../../../Drivers/STM32L0xx_HAL_Driver/Src/stm32l0xx_hal_rtc_ex.c **** 
 473:../../../../../../Drivers/STM32L0xx_HAL_Driver/Src/stm32l0xx_hal_rtc_ex.c ****     if((sTamper->Tamper & RTC_TAMPER_3) != 0U)
 571              		.loc 1 473 0
 572 006c A306     		lsls	r3, r4, #26
 573 006e 03D5     		bpl	.L28
 474:../../../../../../Drivers/STM32L0xx_HAL_Driver/Src/stm32l0xx_hal_rtc_ex.c ****     {
 475:../../../../../../Drivers/STM32L0xx_HAL_Driver/Src/stm32l0xx_hal_rtc_ex.c ****       sTamper->MaskFlag |= RTC_TAMPCR_TAMP3MF;
 574              		.loc 1 475 0
 575 0070 8023     		movs	r3, #128
 576 0072 5B04     		lsls	r3, r3, #17
 577 0074 1D43     		orrs	r5, r3
 578 0076 0D61     		str	r5, [r1, #16]
ARM GAS  C:\Users\EBANO_~1\AppData\Local\Temp\ccyPWgHX.s 			page 20


 579              	.L28:
 580 0078 4A69     		ldr	r2, [r1, #20]
 581 007a 8B69     		ldr	r3, [r1, #24]
 582 007c 2243     		orrs	r2, r4
 583 007e 1A43     		orrs	r2, r3
 584 0080 CB69     		ldr	r3, [r1, #28]
 585 0082 1A43     		orrs	r2, r3
 586 0084 0B6A     		ldr	r3, [r1, #32]
 587 0086 1A43     		orrs	r2, r3
 588 0088 4B6A     		ldr	r3, [r1, #36]
 476:../../../../../../Drivers/STM32L0xx_HAL_Driver/Src/stm32l0xx_hal_rtc_ex.c ****     }
 477:../../../../../../Drivers/STM32L0xx_HAL_Driver/Src/stm32l0xx_hal_rtc_ex.c **** #endif /* (STM32L083xx) || (STM32L082xx) || (STM32L081xx) ||
 478:../../../../../../Drivers/STM32L0xx_HAL_Driver/Src/stm32l0xx_hal_rtc_ex.c ****         * (STM32L073xx) || (STM32L072xx) || (STM32L071xx) ||
 479:../../../../../../Drivers/STM32L0xx_HAL_Driver/Src/stm32l0xx_hal_rtc_ex.c ****         * (STM32L031xx) || (STM32L041xx) || (STM32L011xx) ||
 480:../../../../../../Drivers/STM32L0xx_HAL_Driver/Src/stm32l0xx_hal_rtc_ex.c ****         * (STM32L021xx) || (STM32L010x4) || (STM32L010x6) ||
 481:../../../../../../Drivers/STM32L0xx_HAL_Driver/Src/stm32l0xx_hal_rtc_ex.c ****         * (STM32L010xB)
 482:../../../../../../Drivers/STM32L0xx_HAL_Driver/Src/stm32l0xx_hal_rtc_ex.c ****         */
 483:../../../../../../Drivers/STM32L0xx_HAL_Driver/Src/stm32l0xx_hal_rtc_ex.c ****   }
 484:../../../../../../Drivers/STM32L0xx_HAL_Driver/Src/stm32l0xx_hal_rtc_ex.c **** 
 485:../../../../../../Drivers/STM32L0xx_HAL_Driver/Src/stm32l0xx_hal_rtc_ex.c ****   /* Configure the RTC_TAMPCR register */
 486:../../../../../../Drivers/STM32L0xx_HAL_Driver/Src/stm32l0xx_hal_rtc_ex.c ****   tmpreg = (uint32_t)((uint32_t)sTamper->Tamper | (uint32_t)sTamper->Trigger  | (uint32_t)sTamper->
 487:../../../../../../Drivers/STM32L0xx_HAL_Driver/Src/stm32l0xx_hal_rtc_ex.c ****             (uint32_t)sTamper->MaskFlag | (uint32_t)sTamper->Filter | (uint32_t)sTamper->SamplingFr
 488:../../../../../../Drivers/STM32L0xx_HAL_Driver/Src/stm32l0xx_hal_rtc_ex.c ****             (uint32_t)sTamper->PrechargeDuration | (uint32_t)sTamper->TamperPullUp | (uint32_t)sTam
 489:../../../../../../Drivers/STM32L0xx_HAL_Driver/Src/stm32l0xx_hal_rtc_ex.c **** 
 490:../../../../../../Drivers/STM32L0xx_HAL_Driver/Src/stm32l0xx_hal_rtc_ex.c **** #if defined (STM32L063xx) || defined (STM32L062xx) || defined (STM32L061xx) || \
 491:../../../../../../Drivers/STM32L0xx_HAL_Driver/Src/stm32l0xx_hal_rtc_ex.c ****     defined (STM32L053xx) || defined (STM32L052xx) || defined (STM32L051xx) || \
 492:../../../../../../Drivers/STM32L0xx_HAL_Driver/Src/stm32l0xx_hal_rtc_ex.c ****     defined (STM32L010x8)
 493:../../../../../../Drivers/STM32L0xx_HAL_Driver/Src/stm32l0xx_hal_rtc_ex.c ****   hrtc->Instance->TAMPCR &= ((uint32_t)~((uint32_t)sTamper->Tamper | (uint32_t)(sTamper->Tamper << 
 494:../../../../../../Drivers/STM32L0xx_HAL_Driver/Src/stm32l0xx_hal_rtc_ex.c ****                                          RTC_TAMPCR_TAMPFREQ | RTC_TAMPCR_TAMPFLT | RTC_TAMPCR_TAMP
 495:../../../../../../Drivers/STM32L0xx_HAL_Driver/Src/stm32l0xx_hal_rtc_ex.c ****                                          RTC_TAMPCR_TAMPPUDIS | RTC_TAMPCR_TAMPIE | RTC_TAMPCR_TAMP
 496:../../../../../../Drivers/STM32L0xx_HAL_Driver/Src/stm32l0xx_hal_rtc_ex.c ****                                          RTC_TAMPCR_TAMP2IE | RTC_TAMPCR_TAMP1NOERASE | RTC_TAMPCR_
 497:../../../../../../Drivers/STM32L0xx_HAL_Driver/Src/stm32l0xx_hal_rtc_ex.c ****                                          RTC_TAMPCR_TAMP1MF | RTC_TAMPCR_TAMP2MF));
 498:../../../../../../Drivers/STM32L0xx_HAL_Driver/Src/stm32l0xx_hal_rtc_ex.c **** 
 499:../../../../../../Drivers/STM32L0xx_HAL_Driver/Src/stm32l0xx_hal_rtc_ex.c **** #elif defined (STM32L083xx) || defined (STM32L082xx) || defined (STM32L081xx) || \
 500:../../../../../../Drivers/STM32L0xx_HAL_Driver/Src/stm32l0xx_hal_rtc_ex.c ****       defined (STM32L073xx) || defined (STM32L072xx) || defined (STM32L071xx) || \
 501:../../../../../../Drivers/STM32L0xx_HAL_Driver/Src/stm32l0xx_hal_rtc_ex.c ****       defined (STM32L031xx) || defined (STM32L041xx) || defined (STM32L010x6) || \
 502:../../../../../../Drivers/STM32L0xx_HAL_Driver/Src/stm32l0xx_hal_rtc_ex.c ****       defined (STM32L010xB)
 503:../../../../../../Drivers/STM32L0xx_HAL_Driver/Src/stm32l0xx_hal_rtc_ex.c ****   hrtc->Instance->TAMPCR &= ((uint32_t)~((uint32_t)sTamper->Tamper | (uint32_t)(sTamper->Tamper << 
 589              		.loc 1 503 0
 590 008a 0168     		ldr	r1, [r0]
 591              	.LVL45:
 592 008c 1343     		orrs	r3, r2
 593              	.LVL46:
 594 008e 0A6C     		ldr	r2, [r1, #64]
 595 0090 9046     		mov	r8, r2
 504:../../../../../../Drivers/STM32L0xx_HAL_Driver/Src/stm32l0xx_hal_rtc_ex.c ****                                         RTC_TAMPCR_TAMPFREQ | RTC_TAMPCR_TAMPFLT | RTC_TAMPCR_TAMPP
 505:../../../../../../Drivers/STM32L0xx_HAL_Driver/Src/stm32l0xx_hal_rtc_ex.c ****                                         RTC_TAMPCR_TAMPPUDIS | RTC_TAMPCR_TAMPIE | RTC_TAMPCR_TAMP1
 506:../../../../../../Drivers/STM32L0xx_HAL_Driver/Src/stm32l0xx_hal_rtc_ex.c ****                                         RTC_TAMPCR_TAMP2IE | RTC_TAMPCR_TAMP3IE | RTC_TAMPCR_TAMP1N
 507:../../../../../../Drivers/STM32L0xx_HAL_Driver/Src/stm32l0xx_hal_rtc_ex.c ****                                         RTC_TAMPCR_TAMP2NOERASE | RTC_TAMPCR_TAMP3NOERASE | RTC_TAM
 508:../../../../../../Drivers/STM32L0xx_HAL_Driver/Src/stm32l0xx_hal_rtc_ex.c ****                                         RTC_TAMPCR_TAMP2MF | RTC_TAMPCR_TAMP3MF));
 596              		.loc 1 508 0
 597 0092 124A     		ldr	r2, .L54
 598 0094 1443     		orrs	r4, r2
 599              	.LVL47:
 600 0096 6246     		mov	r2, ip
 601 0098 1443     		orrs	r4, r2
 503:../../../../../../Drivers/STM32L0xx_HAL_Driver/Src/stm32l0xx_hal_rtc_ex.c ****                                         RTC_TAMPCR_TAMPFREQ | RTC_TAMPCR_TAMPFLT | RTC_TAMPCR_TAMPP
ARM GAS  C:\Users\EBANO_~1\AppData\Local\Temp\ccyPWgHX.s 			page 21


 602              		.loc 1 503 0
 603 009a 4246     		mov	r2, r8
 604 009c A243     		bics	r2, r4
 605 009e 0A64     		str	r2, [r1, #64]
 509:../../../../../../Drivers/STM32L0xx_HAL_Driver/Src/stm32l0xx_hal_rtc_ex.c ****                                         
 510:../../../../../../Drivers/STM32L0xx_HAL_Driver/Src/stm32l0xx_hal_rtc_ex.c **** #elif defined (STM32L011xx) || defined (STM32L021xx) || defined (STM32L010x4)
 511:../../../../../../Drivers/STM32L0xx_HAL_Driver/Src/stm32l0xx_hal_rtc_ex.c ****   hrtc->Instance->TAMPCR &= ((uint32_t)~((uint32_t)sTamper->Tamper | (uint32_t)(sTamper->Tamper << 
 512:../../../../../../Drivers/STM32L0xx_HAL_Driver/Src/stm32l0xx_hal_rtc_ex.c ****                                         RTC_TAMPCR_TAMPFREQ | RTC_TAMPCR_TAMPFLT | RTC_TAMPCR_TAMPP
 513:../../../../../../Drivers/STM32L0xx_HAL_Driver/Src/stm32l0xx_hal_rtc_ex.c ****                                         RTC_TAMPCR_TAMPPUDIS | RTC_TAMPCR_TAMPIE                   
 514:../../../../../../Drivers/STM32L0xx_HAL_Driver/Src/stm32l0xx_hal_rtc_ex.c ****                                         RTC_TAMPCR_TAMP2IE | RTC_TAMPCR_TAMP3IE                    
 515:../../../../../../Drivers/STM32L0xx_HAL_Driver/Src/stm32l0xx_hal_rtc_ex.c ****                                         RTC_TAMPCR_TAMP2NOERASE | RTC_TAMPCR_TAMP3NOERASE          
 516:../../../../../../Drivers/STM32L0xx_HAL_Driver/Src/stm32l0xx_hal_rtc_ex.c ****                                         RTC_TAMPCR_TAMP2MF | RTC_TAMPCR_TAMP3MF));
 517:../../../../../../Drivers/STM32L0xx_HAL_Driver/Src/stm32l0xx_hal_rtc_ex.c ****                                         
 518:../../../../../../Drivers/STM32L0xx_HAL_Driver/Src/stm32l0xx_hal_rtc_ex.c **** #endif /* (STM32L011xx) || (STM32L021xx) || (STM32L010x4) */
 519:../../../../../../Drivers/STM32L0xx_HAL_Driver/Src/stm32l0xx_hal_rtc_ex.c ****  
 520:../../../../../../Drivers/STM32L0xx_HAL_Driver/Src/stm32l0xx_hal_rtc_ex.c ****   hrtc->Instance->TAMPCR |= tmpreg;
 606              		.loc 1 520 0
 607 00a0 0A6C     		ldr	r2, [r1, #64]
 608 00a2 1343     		orrs	r3, r2
 609 00a4 3B43     		orrs	r3, r7
 610 00a6 3343     		orrs	r3, r6
 611 00a8 2B43     		orrs	r3, r5
 612 00aa 0B64     		str	r3, [r1, #64]
 521:../../../../../../Drivers/STM32L0xx_HAL_Driver/Src/stm32l0xx_hal_rtc_ex.c **** 
 522:../../../../../../Drivers/STM32L0xx_HAL_Driver/Src/stm32l0xx_hal_rtc_ex.c ****   hrtc->State = HAL_RTC_STATE_READY;
 613              		.loc 1 522 0
 614 00ac 0122     		movs	r2, #1
 615 00ae 2123     		movs	r3, #33
 616 00b0 C254     		strb	r2, [r0, r3]
 523:../../../../../../Drivers/STM32L0xx_HAL_Driver/Src/stm32l0xx_hal_rtc_ex.c **** 
 524:../../../../../../Drivers/STM32L0xx_HAL_Driver/Src/stm32l0xx_hal_rtc_ex.c ****   /* Process Unlocked */
 525:../../../../../../Drivers/STM32L0xx_HAL_Driver/Src/stm32l0xx_hal_rtc_ex.c ****   __HAL_UNLOCK(hrtc);
 617              		.loc 1 525 0
 618 00b2 0022     		movs	r2, #0
 619 00b4 013B     		subs	r3, r3, #1
 620 00b6 C254     		strb	r2, [r0, r3]
 526:../../../../../../Drivers/STM32L0xx_HAL_Driver/Src/stm32l0xx_hal_rtc_ex.c **** 
 527:../../../../../../Drivers/STM32L0xx_HAL_Driver/Src/stm32l0xx_hal_rtc_ex.c ****   return HAL_OK;
 621              		.loc 1 527 0
 622 00b8 0020     		movs	r0, #0
 623              	.LVL48:
 624              	.L22:
 528:../../../../../../Drivers/STM32L0xx_HAL_Driver/Src/stm32l0xx_hal_rtc_ex.c **** }
 625              		.loc 1 528 0
 626              		@ sp needed
 627 00ba 04BC     		pop	{r2}
 628 00bc 9046     		mov	r8, r2
 629 00be F0BD     		pop	{r4, r5, r6, r7, pc}
 630              	.LVL49:
 631              	.L25:
 407:../../../../../../Drivers/STM32L0xx_HAL_Driver/Src/stm32l0xx_hal_rtc_ex.c ****     }
 632              		.loc 1 407 0
 633 00c0 8026     		movs	r6, #128
 634 00c2 9022     		movs	r2, #144
 635 00c4 B602     		lsls	r6, r6, #10
 636 00c6 CE60     		str	r6, [r1, #12]
 637 00c8 5203     		lsls	r2, r2, #13
ARM GAS  C:\Users\EBANO_~1\AppData\Local\Temp\ccyPWgHX.s 			page 22


 638 00ca B7E7     		b	.L26
 639              	.L29:
 453:../../../../../../Drivers/STM32L0xx_HAL_Driver/Src/stm32l0xx_hal_rtc_ex.c ****     }
 640              		.loc 1 453 0
 641 00cc 8025     		movs	r5, #128
 642 00ce 9022     		movs	r2, #144
 643 00d0 ED02     		lsls	r5, r5, #11
 644 00d2 0D61     		str	r5, [r1, #16]
 645 00d4 9203     		lsls	r2, r2, #14
 646 00d6 C5E7     		b	.L30
 647              	.L32:
 385:../../../../../../Drivers/STM32L0xx_HAL_Driver/Src/stm32l0xx_hal_rtc_ex.c **** 
 648              		.loc 1 385 0
 649 00d8 0220     		movs	r0, #2
 650              	.LVL50:
 651 00da EEE7     		b	.L22
 652              	.L55:
 653              		.align	2
 654              	.L54:
 655 00dc 84FFFF01 		.word	33554308
 656              		.cfi_endproc
 657              	.LFE43:
 658              		.size	HAL_RTCEx_SetTamper, .-HAL_RTCEx_SetTamper
 659              		.section	.text.HAL_RTCEx_SetTamper_IT,"ax",%progbits
 660              		.align	1
 661              		.p2align 2,,3
 662              		.global	HAL_RTCEx_SetTamper_IT
 663              		.syntax unified
 664              		.code	16
 665              		.thumb_func
 666              		.fpu softvfp
 667              		.type	HAL_RTCEx_SetTamper_IT, %function
 668              	HAL_RTCEx_SetTamper_IT:
 669              	.LFB44:
 529:../../../../../../Drivers/STM32L0xx_HAL_Driver/Src/stm32l0xx_hal_rtc_ex.c **** 
 530:../../../../../../Drivers/STM32L0xx_HAL_Driver/Src/stm32l0xx_hal_rtc_ex.c **** /**
 531:../../../../../../Drivers/STM32L0xx_HAL_Driver/Src/stm32l0xx_hal_rtc_ex.c ****   * @brief  Set Tamper with interrupt.
 532:../../../../../../Drivers/STM32L0xx_HAL_Driver/Src/stm32l0xx_hal_rtc_ex.c ****   * @note   By calling this API we force the tamper interrupt for all tampers.
 533:../../../../../../Drivers/STM32L0xx_HAL_Driver/Src/stm32l0xx_hal_rtc_ex.c ****   * @param  hrtc RTC handle
 534:../../../../../../Drivers/STM32L0xx_HAL_Driver/Src/stm32l0xx_hal_rtc_ex.c ****   * @param  sTamper Pointer to RTC Tamper.
 535:../../../../../../Drivers/STM32L0xx_HAL_Driver/Src/stm32l0xx_hal_rtc_ex.c ****   * @retval HAL status
 536:../../../../../../Drivers/STM32L0xx_HAL_Driver/Src/stm32l0xx_hal_rtc_ex.c ****   */
 537:../../../../../../Drivers/STM32L0xx_HAL_Driver/Src/stm32l0xx_hal_rtc_ex.c **** HAL_StatusTypeDef HAL_RTCEx_SetTamper_IT(RTC_HandleTypeDef *hrtc, RTC_TamperTypeDef* sTamper)
 538:../../../../../../Drivers/STM32L0xx_HAL_Driver/Src/stm32l0xx_hal_rtc_ex.c **** {
 670              		.loc 1 538 0
 671              		.cfi_startproc
 672              		@ args = 0, pretend = 0, frame = 0
 673              		@ frame_needed = 0, uses_anonymous_args = 0
 674              	.LVL51:
 675 0000 F0B5     		push	{r4, r5, r6, r7, lr}
 676              	.LCFI7:
 677              		.cfi_def_cfa_offset 20
 678              		.cfi_offset 4, -20
 679              		.cfi_offset 5, -16
 680              		.cfi_offset 6, -12
 681              		.cfi_offset 7, -8
 682              		.cfi_offset 14, -4
ARM GAS  C:\Users\EBANO_~1\AppData\Local\Temp\ccyPWgHX.s 			page 23


 683 0002 CE46     		mov	lr, r9
 684 0004 4746     		mov	r7, r8
 539:../../../../../../Drivers/STM32L0xx_HAL_Driver/Src/stm32l0xx_hal_rtc_ex.c ****   uint32_t tmpreg = 0U;
 540:../../../../../../Drivers/STM32L0xx_HAL_Driver/Src/stm32l0xx_hal_rtc_ex.c **** 
 541:../../../../../../Drivers/STM32L0xx_HAL_Driver/Src/stm32l0xx_hal_rtc_ex.c ****   /* Check the parameters */
 542:../../../../../../Drivers/STM32L0xx_HAL_Driver/Src/stm32l0xx_hal_rtc_ex.c ****   assert_param( IS_RTC_TAMPER(sTamper->Tamper));
 543:../../../../../../Drivers/STM32L0xx_HAL_Driver/Src/stm32l0xx_hal_rtc_ex.c ****   assert_param(IS_RTC_TAMPER_INTERRUPT(sTamper->Interrupt));
 544:../../../../../../Drivers/STM32L0xx_HAL_Driver/Src/stm32l0xx_hal_rtc_ex.c ****   assert_param( IS_RTC_TAMPER_TRIGGER(sTamper->Trigger));
 545:../../../../../../Drivers/STM32L0xx_HAL_Driver/Src/stm32l0xx_hal_rtc_ex.c ****   assert_param(IS_RTC_TAMPER_ERASE_MODE(sTamper->NoErase));
 546:../../../../../../Drivers/STM32L0xx_HAL_Driver/Src/stm32l0xx_hal_rtc_ex.c ****   assert_param(IS_RTC_TAMPER_MASKFLAG_STATE(sTamper->MaskFlag));
 547:../../../../../../Drivers/STM32L0xx_HAL_Driver/Src/stm32l0xx_hal_rtc_ex.c ****   assert_param(IS_RTC_TAMPER_FILTER(sTamper->Filter));
 548:../../../../../../Drivers/STM32L0xx_HAL_Driver/Src/stm32l0xx_hal_rtc_ex.c ****   assert_param(IS_RTC_TAMPER_SAMPLING_FREQ(sTamper->SamplingFrequency));
 549:../../../../../../Drivers/STM32L0xx_HAL_Driver/Src/stm32l0xx_hal_rtc_ex.c ****   assert_param(IS_RTC_TAMPER_PRECHARGE_DURATION(sTamper->PrechargeDuration));
 550:../../../../../../Drivers/STM32L0xx_HAL_Driver/Src/stm32l0xx_hal_rtc_ex.c ****   assert_param(IS_RTC_TAMPER_PULLUP_STATE(sTamper->TamperPullUp));
 551:../../../../../../Drivers/STM32L0xx_HAL_Driver/Src/stm32l0xx_hal_rtc_ex.c ****   assert_param(IS_RTC_TAMPER_TIMESTAMPONTAMPER_DETECTION(sTamper->TimeStampOnTamperDetection));
 552:../../../../../../Drivers/STM32L0xx_HAL_Driver/Src/stm32l0xx_hal_rtc_ex.c **** 
 553:../../../../../../Drivers/STM32L0xx_HAL_Driver/Src/stm32l0xx_hal_rtc_ex.c ****   /* Process Locked */
 554:../../../../../../Drivers/STM32L0xx_HAL_Driver/Src/stm32l0xx_hal_rtc_ex.c ****   __HAL_LOCK(hrtc);
 685              		.loc 1 554 0
 686 0006 2023     		movs	r3, #32
 538:../../../../../../Drivers/STM32L0xx_HAL_Driver/Src/stm32l0xx_hal_rtc_ex.c ****   uint32_t tmpreg = 0U;
 687              		.loc 1 538 0
 688 0008 80B5     		push	{r7, lr}
 689              	.LCFI8:
 690              		.cfi_def_cfa_offset 28
 691              		.cfi_offset 8, -28
 692              		.cfi_offset 9, -24
 693              		.loc 1 554 0
 694 000a C25C     		ldrb	r2, [r0, r3]
 695 000c 012A     		cmp	r2, #1
 696 000e 00D1     		bne	.LCB602
 697 0010 70E0     		b	.L67	@long jump
 698              	.LCB602:
 699              		.loc 1 554 0 is_stmt 0 discriminator 2
 700 0012 0122     		movs	r2, #1
 701 0014 C254     		strb	r2, [r0, r3]
 555:../../../../../../Drivers/STM32L0xx_HAL_Driver/Src/stm32l0xx_hal_rtc_ex.c **** 
 556:../../../../../../Drivers/STM32L0xx_HAL_Driver/Src/stm32l0xx_hal_rtc_ex.c ****   hrtc->State = HAL_RTC_STATE_BUSY;
 702              		.loc 1 556 0 is_stmt 1 discriminator 2
 703 0016 0133     		adds	r3, r3, #1
 704 0018 0132     		adds	r2, r2, #1
 705 001a C254     		strb	r2, [r0, r3]
 706 001c 0A68     		ldr	r2, [r1]
 557:../../../../../../Drivers/STM32L0xx_HAL_Driver/Src/stm32l0xx_hal_rtc_ex.c **** 
 558:../../../../../../Drivers/STM32L0xx_HAL_Driver/Src/stm32l0xx_hal_rtc_ex.c ****   /* Configure the tamper trigger */
 559:../../../../../../Drivers/STM32L0xx_HAL_Driver/Src/stm32l0xx_hal_rtc_ex.c ****   if(sTamper->Trigger != RTC_TAMPERTRIGGER_RISINGEDGE)
 707              		.loc 1 559 0 discriminator 2
 708 001e 8E68     		ldr	r6, [r1, #8]
 709 0020 5300     		lsls	r3, r2, #1
 710 0022 9946     		mov	r9, r3
 711 0024 002E     		cmp	r6, #0
 712 0026 01D0     		beq	.L58
 560:../../../../../../Drivers/STM32L0xx_HAL_Driver/Src/stm32l0xx_hal_rtc_ex.c ****   {
 561:../../../../../../Drivers/STM32L0xx_HAL_Driver/Src/stm32l0xx_hal_rtc_ex.c ****     sTamper->Trigger = (uint32_t)(sTamper->Tamper << 1U);
 713              		.loc 1 561 0
 714 0028 1E00     		movs	r6, r3
 715 002a 8B60     		str	r3, [r1, #8]
ARM GAS  C:\Users\EBANO_~1\AppData\Local\Temp\ccyPWgHX.s 			page 24


 716              	.L58:
 562:../../../../../../Drivers/STM32L0xx_HAL_Driver/Src/stm32l0xx_hal_rtc_ex.c ****   }
 563:../../../../../../Drivers/STM32L0xx_HAL_Driver/Src/stm32l0xx_hal_rtc_ex.c **** 
 564:../../../../../../Drivers/STM32L0xx_HAL_Driver/Src/stm32l0xx_hal_rtc_ex.c ****   if(sTamper->NoErase != RTC_TAMPER_ERASE_BACKUP_ENABLE)
 717              		.loc 1 564 0
 718 002c CD68     		ldr	r5, [r1, #12]
 719 002e 002D     		cmp	r5, #0
 720 0030 10D0     		beq	.L59
 565:../../../../../../Drivers/STM32L0xx_HAL_Driver/Src/stm32l0xx_hal_rtc_ex.c ****   { 
 566:../../../../../../Drivers/STM32L0xx_HAL_Driver/Src/stm32l0xx_hal_rtc_ex.c ****     sTamper->NoErase = 0U;
 567:../../../../../../Drivers/STM32L0xx_HAL_Driver/Src/stm32l0xx_hal_rtc_ex.c ****     
 568:../../../../../../Drivers/STM32L0xx_HAL_Driver/Src/stm32l0xx_hal_rtc_ex.c **** #if defined (STM32L063xx) || defined (STM32L062xx) || defined (STM32L061xx) || \
 569:../../../../../../Drivers/STM32L0xx_HAL_Driver/Src/stm32l0xx_hal_rtc_ex.c ****     defined (STM32L053xx) || defined (STM32L052xx) || defined (STM32L051xx) || \
 570:../../../../../../Drivers/STM32L0xx_HAL_Driver/Src/stm32l0xx_hal_rtc_ex.c ****     defined (STM32L083xx) || defined (STM32L082xx) || defined (STM32L081xx) || \
 571:../../../../../../Drivers/STM32L0xx_HAL_Driver/Src/stm32l0xx_hal_rtc_ex.c ****     defined (STM32L073xx) || defined (STM32L072xx) || defined (STM32L071xx) || \
 572:../../../../../../Drivers/STM32L0xx_HAL_Driver/Src/stm32l0xx_hal_rtc_ex.c ****     defined (STM32L031xx) || defined (STM32L041xx) || defined (STM32L010xB) || \
 573:../../../../../../Drivers/STM32L0xx_HAL_Driver/Src/stm32l0xx_hal_rtc_ex.c ****     defined (STM32L010x8) || defined (STM32L010x6)
 574:../../../../../../Drivers/STM32L0xx_HAL_Driver/Src/stm32l0xx_hal_rtc_ex.c **** 
 575:../../../../../../Drivers/STM32L0xx_HAL_Driver/Src/stm32l0xx_hal_rtc_ex.c ****     if((sTamper->Tamper & RTC_TAMPER_1) != 0U)
 721              		.loc 1 575 0
 722 0032 0123     		movs	r3, #1
 723 0034 1340     		ands	r3, r2
 724 0036 51D1     		bne	.L60
 566:../../../../../../Drivers/STM32L0xx_HAL_Driver/Src/stm32l0xx_hal_rtc_ex.c ****     
 725              		.loc 1 566 0
 726 0038 8024     		movs	r4, #128
 727 003a 0025     		movs	r5, #0
 728 003c CB60     		str	r3, [r1, #12]
 729 003e 6403     		lsls	r4, r4, #13
 730              	.L61:
 576:../../../../../../Drivers/STM32L0xx_HAL_Driver/Src/stm32l0xx_hal_rtc_ex.c ****     {
 577:../../../../../../Drivers/STM32L0xx_HAL_Driver/Src/stm32l0xx_hal_rtc_ex.c ****       sTamper->NoErase |= RTC_TAMPCR_TAMP1NOERASE;
 578:../../../../../../Drivers/STM32L0xx_HAL_Driver/Src/stm32l0xx_hal_rtc_ex.c ****     }
 579:../../../../../../Drivers/STM32L0xx_HAL_Driver/Src/stm32l0xx_hal_rtc_ex.c **** #endif /* (STM32L063xx) || (STM32L062xx) || (STM32L061xx) ||
 580:../../../../../../Drivers/STM32L0xx_HAL_Driver/Src/stm32l0xx_hal_rtc_ex.c ****         * (STM32L053xx) || (STM32L052xx) || (STM32L051xx) ||
 581:../../../../../../Drivers/STM32L0xx_HAL_Driver/Src/stm32l0xx_hal_rtc_ex.c ****         * (STM32L083xx) || (STM32L082xx) || (STM32L081xx) ||
 582:../../../../../../Drivers/STM32L0xx_HAL_Driver/Src/stm32l0xx_hal_rtc_ex.c ****         * (STM32L073xx) || (STM32L072xx) || (STM32L071xx) || 
 583:../../../../../../Drivers/STM32L0xx_HAL_Driver/Src/stm32l0xx_hal_rtc_ex.c ****         * (STM32L031xx) || (STM32L041xx) || (STM32L010xB) ||
 584:../../../../../../Drivers/STM32L0xx_HAL_Driver/Src/stm32l0xx_hal_rtc_ex.c ****         * (STM32L010x8) || (STM32L010x6)
 585:../../../../../../Drivers/STM32L0xx_HAL_Driver/Src/stm32l0xx_hal_rtc_ex.c ****         */
 586:../../../../../../Drivers/STM32L0xx_HAL_Driver/Src/stm32l0xx_hal_rtc_ex.c **** 
 587:../../../../../../Drivers/STM32L0xx_HAL_Driver/Src/stm32l0xx_hal_rtc_ex.c **** 
 588:../../../../../../Drivers/STM32L0xx_HAL_Driver/Src/stm32l0xx_hal_rtc_ex.c ****     if((sTamper->Tamper & RTC_TAMPER_2) != 0U)
 731              		.loc 1 588 0
 732 0040 1307     		lsls	r3, r2, #28
 733 0042 01D5     		bpl	.L62
 589:../../../../../../Drivers/STM32L0xx_HAL_Driver/Src/stm32l0xx_hal_rtc_ex.c ****     {
 590:../../../../../../Drivers/STM32L0xx_HAL_Driver/Src/stm32l0xx_hal_rtc_ex.c ****       sTamper->NoErase |= RTC_TAMPCR_TAMP2NOERASE;
 734              		.loc 1 590 0
 735 0044 2500     		movs	r5, r4
 736 0046 CC60     		str	r4, [r1, #12]
 737              	.L62:
 591:../../../../../../Drivers/STM32L0xx_HAL_Driver/Src/stm32l0xx_hal_rtc_ex.c ****     }
 592:../../../../../../Drivers/STM32L0xx_HAL_Driver/Src/stm32l0xx_hal_rtc_ex.c **** #if defined (STM32L083xx) || defined (STM32L082xx) || defined (STM32L081xx) || \
 593:../../../../../../Drivers/STM32L0xx_HAL_Driver/Src/stm32l0xx_hal_rtc_ex.c ****     defined (STM32L073xx) || defined (STM32L072xx) || defined (STM32L071xx) || \
 594:../../../../../../Drivers/STM32L0xx_HAL_Driver/Src/stm32l0xx_hal_rtc_ex.c ****     defined (STM32L031xx) || defined (STM32L041xx) || defined (STM32L011xx) || \
 595:../../../../../../Drivers/STM32L0xx_HAL_Driver/Src/stm32l0xx_hal_rtc_ex.c ****     defined (STM32L021xx) || defined (STM32L010x4) || defined (STM32L010x6) || \
ARM GAS  C:\Users\EBANO_~1\AppData\Local\Temp\ccyPWgHX.s 			page 25


 596:../../../../../../Drivers/STM32L0xx_HAL_Driver/Src/stm32l0xx_hal_rtc_ex.c ****     defined (STM32L010xB)
 597:../../../../../../Drivers/STM32L0xx_HAL_Driver/Src/stm32l0xx_hal_rtc_ex.c **** 
 598:../../../../../../Drivers/STM32L0xx_HAL_Driver/Src/stm32l0xx_hal_rtc_ex.c ****     if((sTamper->Tamper & RTC_TAMPER_3) != 0U)
 738              		.loc 1 598 0
 739 0048 9306     		lsls	r3, r2, #26
 740 004a 03D5     		bpl	.L59
 599:../../../../../../Drivers/STM32L0xx_HAL_Driver/Src/stm32l0xx_hal_rtc_ex.c ****     {
 600:../../../../../../Drivers/STM32L0xx_HAL_Driver/Src/stm32l0xx_hal_rtc_ex.c ****       sTamper->NoErase |= RTC_TAMPCR_TAMP3NOERASE;
 741              		.loc 1 600 0
 742 004c 8023     		movs	r3, #128
 743 004e 1B04     		lsls	r3, r3, #16
 744 0050 1D43     		orrs	r5, r3
 745 0052 CD60     		str	r5, [r1, #12]
 746              	.L59:
 601:../../../../../../Drivers/STM32L0xx_HAL_Driver/Src/stm32l0xx_hal_rtc_ex.c ****     }
 602:../../../../../../Drivers/STM32L0xx_HAL_Driver/Src/stm32l0xx_hal_rtc_ex.c **** #endif /* (STM32L083xx) || (STM32L082xx) || (STM32L081xx) ||
 603:../../../../../../Drivers/STM32L0xx_HAL_Driver/Src/stm32l0xx_hal_rtc_ex.c ****         * (STM32L073xx) || (STM32L072xx) || (STM32L071xx) ||
 604:../../../../../../Drivers/STM32L0xx_HAL_Driver/Src/stm32l0xx_hal_rtc_ex.c ****         * (STM32L031xx) || (STM32L041xx) || (STM32L011xx) ||
 605:../../../../../../Drivers/STM32L0xx_HAL_Driver/Src/stm32l0xx_hal_rtc_ex.c ****         * (STM32L021xx) || (STM32L010x4) || (STM32L010x6) ||
 606:../../../../../../Drivers/STM32L0xx_HAL_Driver/Src/stm32l0xx_hal_rtc_ex.c ****         * (STM32L010xB)
 607:../../../../../../Drivers/STM32L0xx_HAL_Driver/Src/stm32l0xx_hal_rtc_ex.c ****         */
 608:../../../../../../Drivers/STM32L0xx_HAL_Driver/Src/stm32l0xx_hal_rtc_ex.c ****   }
 609:../../../../../../Drivers/STM32L0xx_HAL_Driver/Src/stm32l0xx_hal_rtc_ex.c **** 
 610:../../../../../../Drivers/STM32L0xx_HAL_Driver/Src/stm32l0xx_hal_rtc_ex.c ****   if(sTamper->MaskFlag != RTC_TAMPERMASK_FLAG_DISABLE)
 747              		.loc 1 610 0
 748 0054 0C69     		ldr	r4, [r1, #16]
 749 0056 002C     		cmp	r4, #0
 750 0058 10D0     		beq	.L63
 611:../../../../../../Drivers/STM32L0xx_HAL_Driver/Src/stm32l0xx_hal_rtc_ex.c ****   {
 612:../../../../../../Drivers/STM32L0xx_HAL_Driver/Src/stm32l0xx_hal_rtc_ex.c ****     sTamper->MaskFlag = 0U;
 613:../../../../../../Drivers/STM32L0xx_HAL_Driver/Src/stm32l0xx_hal_rtc_ex.c ****     
 614:../../../../../../Drivers/STM32L0xx_HAL_Driver/Src/stm32l0xx_hal_rtc_ex.c **** #if defined (STM32L063xx) || defined (STM32L062xx) || defined (STM32L061xx) || \
 615:../../../../../../Drivers/STM32L0xx_HAL_Driver/Src/stm32l0xx_hal_rtc_ex.c ****     defined (STM32L053xx) || defined (STM32L052xx) || defined (STM32L051xx) ||\
 616:../../../../../../Drivers/STM32L0xx_HAL_Driver/Src/stm32l0xx_hal_rtc_ex.c ****     defined (STM32L083xx) || defined (STM32L082xx) || defined (STM32L081xx) || \
 617:../../../../../../Drivers/STM32L0xx_HAL_Driver/Src/stm32l0xx_hal_rtc_ex.c ****     defined (STM32L073xx) || defined (STM32L072xx) || defined (STM32L071xx) || \
 618:../../../../../../Drivers/STM32L0xx_HAL_Driver/Src/stm32l0xx_hal_rtc_ex.c ****     defined (STM32L031xx) || defined (STM32L041xx) || defined (STM32L010xB) || \
 619:../../../../../../Drivers/STM32L0xx_HAL_Driver/Src/stm32l0xx_hal_rtc_ex.c ****     defined (STM32L010x8) || defined (STM32L010x6)
 620:../../../../../../Drivers/STM32L0xx_HAL_Driver/Src/stm32l0xx_hal_rtc_ex.c ****     if((sTamper->Tamper & RTC_TAMPER_1) != 0U)
 751              		.loc 1 620 0
 752 005a 0123     		movs	r3, #1
 753 005c 1340     		ands	r3, r2
 754 005e 43D1     		bne	.L64
 612:../../../../../../Drivers/STM32L0xx_HAL_Driver/Src/stm32l0xx_hal_rtc_ex.c ****     
 755              		.loc 1 612 0
 756 0060 0B61     		str	r3, [r1, #16]
 757 0062 8023     		movs	r3, #128
 758 0064 0024     		movs	r4, #0
 759 0066 9B03     		lsls	r3, r3, #14
 760              	.L65:
 621:../../../../../../Drivers/STM32L0xx_HAL_Driver/Src/stm32l0xx_hal_rtc_ex.c ****     {
 622:../../../../../../Drivers/STM32L0xx_HAL_Driver/Src/stm32l0xx_hal_rtc_ex.c ****       sTamper->MaskFlag |= RTC_TAMPCR_TAMP1MF;
 623:../../../../../../Drivers/STM32L0xx_HAL_Driver/Src/stm32l0xx_hal_rtc_ex.c ****     }
 624:../../../../../../Drivers/STM32L0xx_HAL_Driver/Src/stm32l0xx_hal_rtc_ex.c **** #endif /* (STM32L063xx) || (STM32L062xx) || (STM32L061xx) ||
 625:../../../../../../Drivers/STM32L0xx_HAL_Driver/Src/stm32l0xx_hal_rtc_ex.c ****         * (STM32L053xx) || (STM32L052xx) || (STM32L051xx) ||
 626:../../../../../../Drivers/STM32L0xx_HAL_Driver/Src/stm32l0xx_hal_rtc_ex.c ****         * (STM32L083xx) || (STM32L082xx) || (STM32L081xx) ||
 627:../../../../../../Drivers/STM32L0xx_HAL_Driver/Src/stm32l0xx_hal_rtc_ex.c ****         * (STM32L073xx) || (STM32L072xx) || (STM32L071xx) || 
 628:../../../../../../Drivers/STM32L0xx_HAL_Driver/Src/stm32l0xx_hal_rtc_ex.c ****         * (STM32L031xx) || (STM32L041xx) || (STM32L010xB) ||
ARM GAS  C:\Users\EBANO_~1\AppData\Local\Temp\ccyPWgHX.s 			page 26


 629:../../../../../../Drivers/STM32L0xx_HAL_Driver/Src/stm32l0xx_hal_rtc_ex.c ****         * (STM32L010x8) || (STM32L010x6)
 630:../../../../../../Drivers/STM32L0xx_HAL_Driver/Src/stm32l0xx_hal_rtc_ex.c ****         */
 631:../../../../../../Drivers/STM32L0xx_HAL_Driver/Src/stm32l0xx_hal_rtc_ex.c **** 
 632:../../../../../../Drivers/STM32L0xx_HAL_Driver/Src/stm32l0xx_hal_rtc_ex.c ****     if((sTamper->Tamper & RTC_TAMPER_2) != 0U)
 761              		.loc 1 632 0
 762 0068 1707     		lsls	r7, r2, #28
 763 006a 01D5     		bpl	.L66
 633:../../../../../../Drivers/STM32L0xx_HAL_Driver/Src/stm32l0xx_hal_rtc_ex.c ****     {
 634:../../../../../../Drivers/STM32L0xx_HAL_Driver/Src/stm32l0xx_hal_rtc_ex.c ****       sTamper->MaskFlag |= RTC_TAMPCR_TAMP2MF;
 764              		.loc 1 634 0
 765 006c 1C00     		movs	r4, r3
 766 006e 0B61     		str	r3, [r1, #16]
 767              	.L66:
 635:../../../../../../Drivers/STM32L0xx_HAL_Driver/Src/stm32l0xx_hal_rtc_ex.c ****     }
 636:../../../../../../Drivers/STM32L0xx_HAL_Driver/Src/stm32l0xx_hal_rtc_ex.c **** #if defined (STM32L083xx) || defined (STM32L082xx) || defined (STM32L081xx) || \
 637:../../../../../../Drivers/STM32L0xx_HAL_Driver/Src/stm32l0xx_hal_rtc_ex.c ****     defined (STM32L073xx) || defined (STM32L072xx) || defined (STM32L071xx) || \
 638:../../../../../../Drivers/STM32L0xx_HAL_Driver/Src/stm32l0xx_hal_rtc_ex.c ****     defined (STM32L031xx) || defined (STM32L041xx) || defined (STM32L011xx) || \
 639:../../../../../../Drivers/STM32L0xx_HAL_Driver/Src/stm32l0xx_hal_rtc_ex.c ****     defined (STM32L021xx) || defined (STM32L010x4) || defined (STM32L010x6) || \
 640:../../../../../../Drivers/STM32L0xx_HAL_Driver/Src/stm32l0xx_hal_rtc_ex.c ****     defined (STM32L010xB)
 641:../../../../../../Drivers/STM32L0xx_HAL_Driver/Src/stm32l0xx_hal_rtc_ex.c **** 
 642:../../../../../../Drivers/STM32L0xx_HAL_Driver/Src/stm32l0xx_hal_rtc_ex.c ****     if((sTamper->Tamper & RTC_TAMPER_3) != 0U)
 768              		.loc 1 642 0
 769 0070 9306     		lsls	r3, r2, #26
 770 0072 03D5     		bpl	.L63
 643:../../../../../../Drivers/STM32L0xx_HAL_Driver/Src/stm32l0xx_hal_rtc_ex.c ****     {
 644:../../../../../../Drivers/STM32L0xx_HAL_Driver/Src/stm32l0xx_hal_rtc_ex.c ****       sTamper->MaskFlag |= RTC_TAMPCR_TAMP3MF;
 771              		.loc 1 644 0
 772 0074 8023     		movs	r3, #128
 773 0076 5B04     		lsls	r3, r3, #17
 774 0078 1C43     		orrs	r4, r3
 775 007a 0C61     		str	r4, [r1, #16]
 776              	.L63:
 645:../../../../../../Drivers/STM32L0xx_HAL_Driver/Src/stm32l0xx_hal_rtc_ex.c ****     }
 646:../../../../../../Drivers/STM32L0xx_HAL_Driver/Src/stm32l0xx_hal_rtc_ex.c **** #endif /* (STM32L083xx) || (STM32L082xx) || (STM32L081xx) ||
 647:../../../../../../Drivers/STM32L0xx_HAL_Driver/Src/stm32l0xx_hal_rtc_ex.c ****         * (STM32L073xx) || (STM32L072xx) || (STM32L071xx) ||
 648:../../../../../../Drivers/STM32L0xx_HAL_Driver/Src/stm32l0xx_hal_rtc_ex.c ****         * (STM32L031xx) || (STM32L041xx) || (STM32L011xx) ||
 649:../../../../../../Drivers/STM32L0xx_HAL_Driver/Src/stm32l0xx_hal_rtc_ex.c ****         * (STM32L021xx) || (STM32L010x4) || (STM32L010x6) ||
 650:../../../../../../Drivers/STM32L0xx_HAL_Driver/Src/stm32l0xx_hal_rtc_ex.c ****         * (STM32L010xB)
 651:../../../../../../Drivers/STM32L0xx_HAL_Driver/Src/stm32l0xx_hal_rtc_ex.c ****         */
 652:../../../../../../Drivers/STM32L0xx_HAL_Driver/Src/stm32l0xx_hal_rtc_ex.c ****   }
 653:../../../../../../Drivers/STM32L0xx_HAL_Driver/Src/stm32l0xx_hal_rtc_ex.c **** 
 654:../../../../../../Drivers/STM32L0xx_HAL_Driver/Src/stm32l0xx_hal_rtc_ex.c ****   /* Configure the RTC_TAMPCR register */    
 655:../../../../../../Drivers/STM32L0xx_HAL_Driver/Src/stm32l0xx_hal_rtc_ex.c ****   tmpreg = (uint32_t)((uint32_t)sTamper->Tamper | (uint32_t)sTamper->Interrupt | (uint32_t)sTamper-
 777              		.loc 1 655 0
 778 007c 4B68     		ldr	r3, [r1, #4]
 779 007e 4F69     		ldr	r7, [r1, #20]
 780 0080 1343     		orrs	r3, r2
 781 0082 3B43     		orrs	r3, r7
 782 0084 8F69     		ldr	r7, [r1, #24]
 783 0086 3B43     		orrs	r3, r7
 784 0088 CF69     		ldr	r7, [r1, #28]
 785 008a 3B43     		orrs	r3, r7
 786 008c 0F6A     		ldr	r7, [r1, #32]
 787 008e 496A     		ldr	r1, [r1, #36]
 788              	.LVL52:
 789 0090 3B43     		orrs	r3, r7
 790 0092 0B43     		orrs	r3, r1
ARM GAS  C:\Users\EBANO_~1\AppData\Local\Temp\ccyPWgHX.s 			page 27


 791              	.LVL53:
 656:../../../../../../Drivers/STM32L0xx_HAL_Driver/Src/stm32l0xx_hal_rtc_ex.c ****             (uint32_t)sTamper->MaskFlag | (uint32_t)sTamper->Filter | (uint32_t)sTamper->SamplingFr
 657:../../../../../../Drivers/STM32L0xx_HAL_Driver/Src/stm32l0xx_hal_rtc_ex.c ****             (uint32_t)sTamper->PrechargeDuration | (uint32_t)sTamper->TamperPullUp | (uint32_t)sTam
 658:../../../../../../Drivers/STM32L0xx_HAL_Driver/Src/stm32l0xx_hal_rtc_ex.c ****   
 659:../../../../../../Drivers/STM32L0xx_HAL_Driver/Src/stm32l0xx_hal_rtc_ex.c **** #if defined (STM32L063xx) || defined (STM32L062xx) || defined (STM32L061xx) || \
 660:../../../../../../Drivers/STM32L0xx_HAL_Driver/Src/stm32l0xx_hal_rtc_ex.c ****     defined (STM32L053xx) || defined (STM32L052xx) || defined (STM32L051xx) || \
 661:../../../../../../Drivers/STM32L0xx_HAL_Driver/Src/stm32l0xx_hal_rtc_ex.c ****     defined (STM32L010x8)
 662:../../../../../../Drivers/STM32L0xx_HAL_Driver/Src/stm32l0xx_hal_rtc_ex.c ****   hrtc->Instance->TAMPCR &= (uint32_t)~((uint32_t)sTamper->Tamper | (uint32_t)(sTamper->Tamper << 1
 663:../../../../../../Drivers/STM32L0xx_HAL_Driver/Src/stm32l0xx_hal_rtc_ex.c ****                                        RTC_TAMPCR_TAMPFREQ | RTC_TAMPCR_TAMPFLT | RTC_TAMPCR_TAMPPR
 664:../../../../../../Drivers/STM32L0xx_HAL_Driver/Src/stm32l0xx_hal_rtc_ex.c ****                                        RTC_TAMPCR_TAMPPUDIS | RTC_TAMPCR_TAMPIE | RTC_TAMPCR_TAMP1I
 665:../../../../../../Drivers/STM32L0xx_HAL_Driver/Src/stm32l0xx_hal_rtc_ex.c ****                                        RTC_TAMPCR_TAMP2IE | RTC_TAMPCR_TAMP1NOERASE | RTC_TAMPCR_TA
 666:../../../../../../Drivers/STM32L0xx_HAL_Driver/Src/stm32l0xx_hal_rtc_ex.c ****                                        RTC_TAMPCR_TAMP1MF | RTC_TAMPCR_TAMP2MF);
 667:../../../../../../Drivers/STM32L0xx_HAL_Driver/Src/stm32l0xx_hal_rtc_ex.c **** 
 668:../../../../../../Drivers/STM32L0xx_HAL_Driver/Src/stm32l0xx_hal_rtc_ex.c **** #elif defined (STM32L083xx) || defined (STM32L082xx) || defined (STM32L081xx) || \
 669:../../../../../../Drivers/STM32L0xx_HAL_Driver/Src/stm32l0xx_hal_rtc_ex.c ****       defined (STM32L073xx) || defined (STM32L072xx) || defined (STM32L071xx) || \
 670:../../../../../../Drivers/STM32L0xx_HAL_Driver/Src/stm32l0xx_hal_rtc_ex.c ****       defined (STM32L031xx) || defined (STM32L041xx) || defined (STM32L010x6) || \
 671:../../../../../../Drivers/STM32L0xx_HAL_Driver/Src/stm32l0xx_hal_rtc_ex.c ****       defined (STM32L010xB)
 672:../../../../../../Drivers/STM32L0xx_HAL_Driver/Src/stm32l0xx_hal_rtc_ex.c ****   hrtc->Instance->TAMPCR &= (uint32_t)~((uint32_t)sTamper->Tamper | (uint32_t)(sTamper->Tamper << 1
 792              		.loc 1 672 0
 793 0094 0168     		ldr	r1, [r0]
 794              	.LVL54:
 795 0096 0F6C     		ldr	r7, [r1, #64]
 796              	.LVL55:
 797 0098 B846     		mov	r8, r7
 673:../../../../../../Drivers/STM32L0xx_HAL_Driver/Src/stm32l0xx_hal_rtc_ex.c ****                                        RTC_TAMPCR_TAMPFREQ | RTC_TAMPCR_TAMPFLT | RTC_TAMPCR_TAMPPR
 674:../../../../../../Drivers/STM32L0xx_HAL_Driver/Src/stm32l0xx_hal_rtc_ex.c ****                                        RTC_TAMPCR_TAMPPUDIS | RTC_TAMPCR_TAMPIE | RTC_TAMPCR_TAMP1I
 675:../../../../../../Drivers/STM32L0xx_HAL_Driver/Src/stm32l0xx_hal_rtc_ex.c ****                                        RTC_TAMPCR_TAMP2IE | RTC_TAMPCR_TAMP3IE | RTC_TAMPCR_TAMP1NO
 676:../../../../../../Drivers/STM32L0xx_HAL_Driver/Src/stm32l0xx_hal_rtc_ex.c ****                                        RTC_TAMPCR_TAMP2NOERASE | RTC_TAMPCR_TAMP3NOERASE | RTC_TAMP
 677:../../../../../../Drivers/STM32L0xx_HAL_Driver/Src/stm32l0xx_hal_rtc_ex.c ****                                        RTC_TAMPCR_TAMP2MF | RTC_TAMPCR_TAMP3MF);
 798              		.loc 1 677 0
 799 009a 174F     		ldr	r7, .L89
 800 009c 3A43     		orrs	r2, r7
 801              	.LVL56:
 802 009e 4F46     		mov	r7, r9
 803 00a0 1743     		orrs	r7, r2
 672:../../../../../../Drivers/STM32L0xx_HAL_Driver/Src/stm32l0xx_hal_rtc_ex.c ****                                        RTC_TAMPCR_TAMPFREQ | RTC_TAMPCR_TAMPFLT | RTC_TAMPCR_TAMPPR
 804              		.loc 1 672 0
 805 00a2 4246     		mov	r2, r8
 806 00a4 BA43     		bics	r2, r7
 807 00a6 0A64     		str	r2, [r1, #64]
 678:../../../../../../Drivers/STM32L0xx_HAL_Driver/Src/stm32l0xx_hal_rtc_ex.c **** 
 679:../../../../../../Drivers/STM32L0xx_HAL_Driver/Src/stm32l0xx_hal_rtc_ex.c **** #elif defined (STM32L011xx) || defined (STM32L021xx) || defined (STM32L010x4)
 680:../../../../../../Drivers/STM32L0xx_HAL_Driver/Src/stm32l0xx_hal_rtc_ex.c ****   hrtc->Instance->TAMPCR &= (uint32_t)~((uint32_t)sTamper->Tamper | (uint32_t)(sTamper->Tamper << 1
 681:../../../../../../Drivers/STM32L0xx_HAL_Driver/Src/stm32l0xx_hal_rtc_ex.c ****                                        RTC_TAMPCR_TAMPFREQ | RTC_TAMPCR_TAMPFLT | RTC_TAMPCR_TAMPPR
 682:../../../../../../Drivers/STM32L0xx_HAL_Driver/Src/stm32l0xx_hal_rtc_ex.c ****                                        RTC_TAMPCR_TAMPPUDIS | RTC_TAMPCR_TAMPIE                    
 683:../../../../../../Drivers/STM32L0xx_HAL_Driver/Src/stm32l0xx_hal_rtc_ex.c ****                                        RTC_TAMPCR_TAMP2IE | RTC_TAMPCR_TAMP3IE                     
 684:../../../../../../Drivers/STM32L0xx_HAL_Driver/Src/stm32l0xx_hal_rtc_ex.c ****                                        RTC_TAMPCR_TAMP2NOERASE | RTC_TAMPCR_TAMP3NOERASE           
 685:../../../../../../Drivers/STM32L0xx_HAL_Driver/Src/stm32l0xx_hal_rtc_ex.c ****                                        RTC_TAMPCR_TAMP2MF | RTC_TAMPCR_TAMP3MF);
 686:../../../../../../Drivers/STM32L0xx_HAL_Driver/Src/stm32l0xx_hal_rtc_ex.c **** 
 687:../../../../../../Drivers/STM32L0xx_HAL_Driver/Src/stm32l0xx_hal_rtc_ex.c **** #endif /* (STM32L011xx) || (STM32L021xx) || (STM32L010x4) */
 688:../../../../../../Drivers/STM32L0xx_HAL_Driver/Src/stm32l0xx_hal_rtc_ex.c **** 
 689:../../../../../../Drivers/STM32L0xx_HAL_Driver/Src/stm32l0xx_hal_rtc_ex.c ****   hrtc->Instance->TAMPCR |= tmpreg;
 808              		.loc 1 689 0
 809 00a8 0A6C     		ldr	r2, [r1, #64]
 810 00aa 1343     		orrs	r3, r2
 690:../../../../../../Drivers/STM32L0xx_HAL_Driver/Src/stm32l0xx_hal_rtc_ex.c **** 
 691:../../../../../../Drivers/STM32L0xx_HAL_Driver/Src/stm32l0xx_hal_rtc_ex.c ****   /* RTC Tamper Interrupt Configuration: EXTI configuration */
ARM GAS  C:\Users\EBANO_~1\AppData\Local\Temp\ccyPWgHX.s 			page 28


 692:../../../../../../Drivers/STM32L0xx_HAL_Driver/Src/stm32l0xx_hal_rtc_ex.c ****   __HAL_RTC_TAMPER_TIMESTAMP_EXTI_ENABLE_IT();
 811              		.loc 1 692 0
 812 00ac 8022     		movs	r2, #128
 689:../../../../../../Drivers/STM32L0xx_HAL_Driver/Src/stm32l0xx_hal_rtc_ex.c **** 
 813              		.loc 1 689 0
 814 00ae 3343     		orrs	r3, r6
 815 00b0 2B43     		orrs	r3, r5
 816 00b2 2343     		orrs	r3, r4
 817 00b4 0B64     		str	r3, [r1, #64]
 818              		.loc 1 692 0
 819 00b6 114B     		ldr	r3, .L89+4
 820 00b8 1203     		lsls	r2, r2, #12
 821 00ba 1968     		ldr	r1, [r3]
 822 00bc 1143     		orrs	r1, r2
 823 00be 1960     		str	r1, [r3]
 824              	.LVL57:
 693:../../../../../../Drivers/STM32L0xx_HAL_Driver/Src/stm32l0xx_hal_rtc_ex.c **** 
 694:../../../../../../Drivers/STM32L0xx_HAL_Driver/Src/stm32l0xx_hal_rtc_ex.c ****   __HAL_RTC_TAMPER_TIMESTAMP_EXTI_ENABLE_RISING_EDGE();
 825              		.loc 1 694 0
 826 00c0 9968     		ldr	r1, [r3, #8]
 827 00c2 0A43     		orrs	r2, r1
 828 00c4 9A60     		str	r2, [r3, #8]
 695:../../../../../../Drivers/STM32L0xx_HAL_Driver/Src/stm32l0xx_hal_rtc_ex.c **** 
 696:../../../../../../Drivers/STM32L0xx_HAL_Driver/Src/stm32l0xx_hal_rtc_ex.c ****   hrtc->State = HAL_RTC_STATE_READY;
 829              		.loc 1 696 0
 830 00c6 2123     		movs	r3, #33
 831 00c8 0122     		movs	r2, #1
 832 00ca C254     		strb	r2, [r0, r3]
 697:../../../../../../Drivers/STM32L0xx_HAL_Driver/Src/stm32l0xx_hal_rtc_ex.c **** 
 698:../../../../../../Drivers/STM32L0xx_HAL_Driver/Src/stm32l0xx_hal_rtc_ex.c ****   /* Process Unlocked */
 699:../../../../../../Drivers/STM32L0xx_HAL_Driver/Src/stm32l0xx_hal_rtc_ex.c ****   __HAL_UNLOCK(hrtc);
 833              		.loc 1 699 0
 834 00cc 0022     		movs	r2, #0
 835 00ce 013B     		subs	r3, r3, #1
 836 00d0 C254     		strb	r2, [r0, r3]
 700:../../../../../../Drivers/STM32L0xx_HAL_Driver/Src/stm32l0xx_hal_rtc_ex.c **** 
 701:../../../../../../Drivers/STM32L0xx_HAL_Driver/Src/stm32l0xx_hal_rtc_ex.c ****   return HAL_OK;
 837              		.loc 1 701 0
 838 00d2 0020     		movs	r0, #0
 839              	.LVL58:
 840              	.L57:
 702:../../../../../../Drivers/STM32L0xx_HAL_Driver/Src/stm32l0xx_hal_rtc_ex.c **** }
 841              		.loc 1 702 0
 842              		@ sp needed
 843 00d4 0CBC     		pop	{r2, r3}
 844 00d6 9046     		mov	r8, r2
 845 00d8 9946     		mov	r9, r3
 846 00da F0BD     		pop	{r4, r5, r6, r7, pc}
 847              	.LVL59:
 848              	.L60:
 577:../../../../../../Drivers/STM32L0xx_HAL_Driver/Src/stm32l0xx_hal_rtc_ex.c ****     }
 849              		.loc 1 577 0
 850 00dc 8025     		movs	r5, #128
 851 00de 9024     		movs	r4, #144
 852 00e0 AD02     		lsls	r5, r5, #10
 853 00e2 CD60     		str	r5, [r1, #12]
 854 00e4 6403     		lsls	r4, r4, #13
ARM GAS  C:\Users\EBANO_~1\AppData\Local\Temp\ccyPWgHX.s 			page 29


 855 00e6 ABE7     		b	.L61
 856              	.L64:
 622:../../../../../../Drivers/STM32L0xx_HAL_Driver/Src/stm32l0xx_hal_rtc_ex.c ****     }
 857              		.loc 1 622 0
 858 00e8 8024     		movs	r4, #128
 859 00ea 9023     		movs	r3, #144
 860 00ec E402     		lsls	r4, r4, #11
 861 00ee 0C61     		str	r4, [r1, #16]
 862 00f0 9B03     		lsls	r3, r3, #14
 863 00f2 B9E7     		b	.L65
 864              	.L67:
 554:../../../../../../Drivers/STM32L0xx_HAL_Driver/Src/stm32l0xx_hal_rtc_ex.c **** 
 865              		.loc 1 554 0
 866 00f4 0220     		movs	r0, #2
 867              	.LVL60:
 868 00f6 EDE7     		b	.L57
 869              	.L90:
 870              		.align	2
 871              	.L89:
 872 00f8 84FFFF01 		.word	33554308
 873 00fc 00040140 		.word	1073808384
 874              		.cfi_endproc
 875              	.LFE44:
 876              		.size	HAL_RTCEx_SetTamper_IT, .-HAL_RTCEx_SetTamper_IT
 877              		.section	.text.HAL_RTCEx_DeactivateTamper,"ax",%progbits
 878              		.align	1
 879              		.p2align 2,,3
 880              		.global	HAL_RTCEx_DeactivateTamper
 881              		.syntax unified
 882              		.code	16
 883              		.thumb_func
 884              		.fpu softvfp
 885              		.type	HAL_RTCEx_DeactivateTamper, %function
 886              	HAL_RTCEx_DeactivateTamper:
 887              	.LFB45:
 703:../../../../../../Drivers/STM32L0xx_HAL_Driver/Src/stm32l0xx_hal_rtc_ex.c **** 
 704:../../../../../../Drivers/STM32L0xx_HAL_Driver/Src/stm32l0xx_hal_rtc_ex.c **** /**
 705:../../../../../../Drivers/STM32L0xx_HAL_Driver/Src/stm32l0xx_hal_rtc_ex.c ****   * @brief  Deactivate Tamper.
 706:../../../../../../Drivers/STM32L0xx_HAL_Driver/Src/stm32l0xx_hal_rtc_ex.c ****   * @param  hrtc RTC handle
 707:../../../../../../Drivers/STM32L0xx_HAL_Driver/Src/stm32l0xx_hal_rtc_ex.c ****   * @param  Tamper Selected tamper pin.
 708:../../../../../../Drivers/STM32L0xx_HAL_Driver/Src/stm32l0xx_hal_rtc_ex.c ****   *          This parameter can be RTC_Tamper_1 and/or RTC_TAMPER_2 for STM32L05x/6x.
 709:../../../../../../Drivers/STM32L0xx_HAL_Driver/Src/stm32l0xx_hal_rtc_ex.c ****   *          This parameter can be any combination of RTC_TAMPER_1, RTC_TAMPER_2 and RTC_TAMPER_3 f
 710:../../../../../../Drivers/STM32L0xx_HAL_Driver/Src/stm32l0xx_hal_rtc_ex.c ****   * @retval HAL status
 711:../../../../../../Drivers/STM32L0xx_HAL_Driver/Src/stm32l0xx_hal_rtc_ex.c ****   */
 712:../../../../../../Drivers/STM32L0xx_HAL_Driver/Src/stm32l0xx_hal_rtc_ex.c **** HAL_StatusTypeDef HAL_RTCEx_DeactivateTamper(RTC_HandleTypeDef *hrtc, uint32_t Tamper)
 713:../../../../../../Drivers/STM32L0xx_HAL_Driver/Src/stm32l0xx_hal_rtc_ex.c **** {
 888              		.loc 1 713 0
 889              		.cfi_startproc
 890              		@ args = 0, pretend = 0, frame = 0
 891              		@ frame_needed = 0, uses_anonymous_args = 0
 892              	.LVL61:
 714:../../../../../../Drivers/STM32L0xx_HAL_Driver/Src/stm32l0xx_hal_rtc_ex.c ****   assert_param( IS_RTC_TAMPER(Tamper));
 715:../../../../../../Drivers/STM32L0xx_HAL_Driver/Src/stm32l0xx_hal_rtc_ex.c **** 
 716:../../../../../../Drivers/STM32L0xx_HAL_Driver/Src/stm32l0xx_hal_rtc_ex.c ****   /* Process Locked */
 717:../../../../../../Drivers/STM32L0xx_HAL_Driver/Src/stm32l0xx_hal_rtc_ex.c ****   __HAL_LOCK(hrtc);
 893              		.loc 1 717 0
 894 0000 2023     		movs	r3, #32
ARM GAS  C:\Users\EBANO_~1\AppData\Local\Temp\ccyPWgHX.s 			page 30


 713:../../../../../../Drivers/STM32L0xx_HAL_Driver/Src/stm32l0xx_hal_rtc_ex.c ****   assert_param( IS_RTC_TAMPER(Tamper));
 895              		.loc 1 713 0
 896 0002 10B5     		push	{r4, lr}
 897              	.LCFI9:
 898              		.cfi_def_cfa_offset 8
 899              		.cfi_offset 4, -8
 900              		.cfi_offset 14, -4
 901              		.loc 1 717 0
 902 0004 C25C     		ldrb	r2, [r0, r3]
 903 0006 012A     		cmp	r2, #1
 904 0008 23D0     		beq	.L96
 905              		.loc 1 717 0 is_stmt 0 discriminator 2
 906 000a 0124     		movs	r4, #1
 718:../../../../../../Drivers/STM32L0xx_HAL_Driver/Src/stm32l0xx_hal_rtc_ex.c **** 
 719:../../../../../../Drivers/STM32L0xx_HAL_Driver/Src/stm32l0xx_hal_rtc_ex.c ****   hrtc->State = HAL_RTC_STATE_BUSY;
 907              		.loc 1 719 0 is_stmt 1 discriminator 2
 908 000c 0222     		movs	r2, #2
 717:../../../../../../Drivers/STM32L0xx_HAL_Driver/Src/stm32l0xx_hal_rtc_ex.c **** 
 909              		.loc 1 717 0 discriminator 2
 910 000e C454     		strb	r4, [r0, r3]
 911              		.loc 1 719 0 discriminator 2
 912 0010 0133     		adds	r3, r3, #1
 913 0012 C254     		strb	r2, [r0, r3]
 720:../../../../../../Drivers/STM32L0xx_HAL_Driver/Src/stm32l0xx_hal_rtc_ex.c **** 
 721:../../../../../../Drivers/STM32L0xx_HAL_Driver/Src/stm32l0xx_hal_rtc_ex.c ****   /* Disable the selected Tamper pin */
 722:../../../../../../Drivers/STM32L0xx_HAL_Driver/Src/stm32l0xx_hal_rtc_ex.c ****   hrtc->Instance->TAMPCR &= ((uint32_t)~Tamper);
 914              		.loc 1 722 0 discriminator 2
 915 0014 0368     		ldr	r3, [r0]
 916 0016 1A6C     		ldr	r2, [r3, #64]
 917 0018 8A43     		bics	r2, r1
 918 001a 1A64     		str	r2, [r3, #64]
 723:../../../../../../Drivers/STM32L0xx_HAL_Driver/Src/stm32l0xx_hal_rtc_ex.c ****   
 724:../../../../../../Drivers/STM32L0xx_HAL_Driver/Src/stm32l0xx_hal_rtc_ex.c **** #if defined (STM32L063xx) || defined (STM32L062xx) || defined (STM32L061xx) || \
 725:../../../../../../Drivers/STM32L0xx_HAL_Driver/Src/stm32l0xx_hal_rtc_ex.c ****     defined (STM32L053xx) || defined (STM32L052xx) || defined (STM32L051xx) ||\
 726:../../../../../../Drivers/STM32L0xx_HAL_Driver/Src/stm32l0xx_hal_rtc_ex.c ****     defined (STM32L083xx) || defined (STM32L082xx) || defined (STM32L081xx) || \
 727:../../../../../../Drivers/STM32L0xx_HAL_Driver/Src/stm32l0xx_hal_rtc_ex.c ****     defined (STM32L073xx) || defined (STM32L072xx) || defined (STM32L071xx) || \
 728:../../../../../../Drivers/STM32L0xx_HAL_Driver/Src/stm32l0xx_hal_rtc_ex.c ****     defined (STM32L031xx) || defined (STM32L041xx) || defined (STM32L010xB) || \
 729:../../../../../../Drivers/STM32L0xx_HAL_Driver/Src/stm32l0xx_hal_rtc_ex.c ****     defined (STM32L010x8) || defined (STM32L010x6)
 730:../../../../../../Drivers/STM32L0xx_HAL_Driver/Src/stm32l0xx_hal_rtc_ex.c ****   if ((Tamper & RTC_TAMPER_1) != 0U)
 919              		.loc 1 730 0 discriminator 2
 920 001c 0C42     		tst	r4, r1
 921 001e 03D0     		beq	.L93
 731:../../../../../../Drivers/STM32L0xx_HAL_Driver/Src/stm32l0xx_hal_rtc_ex.c ****   {
 732:../../../../../../Drivers/STM32L0xx_HAL_Driver/Src/stm32l0xx_hal_rtc_ex.c ****     /* Disable the Tamper1 interrupt */
 733:../../../../../../Drivers/STM32L0xx_HAL_Driver/Src/stm32l0xx_hal_rtc_ex.c ****     hrtc->Instance->TAMPCR &= ((uint32_t)~(RTC_IT_TAMP | RTC_IT_TAMP1));
 922              		.loc 1 733 0
 923 0020 1A6C     		ldr	r2, [r3, #64]
 924 0022 0D4C     		ldr	r4, .L107
 925 0024 2240     		ands	r2, r4
 926 0026 1A64     		str	r2, [r3, #64]
 927              	.L93:
 734:../../../../../../Drivers/STM32L0xx_HAL_Driver/Src/stm32l0xx_hal_rtc_ex.c ****   }
 735:../../../../../../Drivers/STM32L0xx_HAL_Driver/Src/stm32l0xx_hal_rtc_ex.c ****   
 736:../../../../../../Drivers/STM32L0xx_HAL_Driver/Src/stm32l0xx_hal_rtc_ex.c **** #endif /* (STM32L063xx) || (STM32L062xx) || (STM32L061xx) ||
 737:../../../../../../Drivers/STM32L0xx_HAL_Driver/Src/stm32l0xx_hal_rtc_ex.c ****         * (STM32L053xx) || (STM32L052xx) || (STM32L051xx) ||
 738:../../../../../../Drivers/STM32L0xx_HAL_Driver/Src/stm32l0xx_hal_rtc_ex.c ****         * (STM32L083xx) || (STM32L082xx) || (STM32L081xx) ||
 739:../../../../../../Drivers/STM32L0xx_HAL_Driver/Src/stm32l0xx_hal_rtc_ex.c ****         * (STM32L073xx) || (STM32L072xx) || (STM32L071xx) || 
ARM GAS  C:\Users\EBANO_~1\AppData\Local\Temp\ccyPWgHX.s 			page 31


 740:../../../../../../Drivers/STM32L0xx_HAL_Driver/Src/stm32l0xx_hal_rtc_ex.c ****         * (STM32L031xx) || (STM32L041xx) || (STM32L010xB) ||
 741:../../../../../../Drivers/STM32L0xx_HAL_Driver/Src/stm32l0xx_hal_rtc_ex.c ****         * (STM32L010x8) || (STM32L010x6)
 742:../../../../../../Drivers/STM32L0xx_HAL_Driver/Src/stm32l0xx_hal_rtc_ex.c ****         */
 743:../../../../../../Drivers/STM32L0xx_HAL_Driver/Src/stm32l0xx_hal_rtc_ex.c ****   
 744:../../../../../../Drivers/STM32L0xx_HAL_Driver/Src/stm32l0xx_hal_rtc_ex.c ****   if ((Tamper & RTC_TAMPER_2) != 0U)
 928              		.loc 1 744 0
 929 0028 0A07     		lsls	r2, r1, #28
 930 002a 03D5     		bpl	.L94
 745:../../../../../../Drivers/STM32L0xx_HAL_Driver/Src/stm32l0xx_hal_rtc_ex.c ****   {
 746:../../../../../../Drivers/STM32L0xx_HAL_Driver/Src/stm32l0xx_hal_rtc_ex.c ****     /* Disable the Tamper2 interrupt */
 747:../../../../../../Drivers/STM32L0xx_HAL_Driver/Src/stm32l0xx_hal_rtc_ex.c ****     hrtc->Instance->TAMPCR &= ((uint32_t)~(RTC_IT_TAMP | RTC_IT_TAMP2));
 931              		.loc 1 747 0
 932 002c 1A6C     		ldr	r2, [r3, #64]
 933 002e 0B4C     		ldr	r4, .L107+4
 934 0030 2240     		ands	r2, r4
 935 0032 1A64     		str	r2, [r3, #64]
 936              	.L94:
 748:../../../../../../Drivers/STM32L0xx_HAL_Driver/Src/stm32l0xx_hal_rtc_ex.c ****   }
 749:../../../../../../Drivers/STM32L0xx_HAL_Driver/Src/stm32l0xx_hal_rtc_ex.c **** 
 750:../../../../../../Drivers/STM32L0xx_HAL_Driver/Src/stm32l0xx_hal_rtc_ex.c **** #if defined (STM32L083xx) || defined (STM32L082xx) || defined (STM32L081xx) || \
 751:../../../../../../Drivers/STM32L0xx_HAL_Driver/Src/stm32l0xx_hal_rtc_ex.c ****     defined (STM32L073xx) || defined (STM32L072xx) || defined (STM32L071xx) || \
 752:../../../../../../Drivers/STM32L0xx_HAL_Driver/Src/stm32l0xx_hal_rtc_ex.c ****     defined (STM32L031xx) || defined (STM32L041xx) || defined (STM32L011xx) || \
 753:../../../../../../Drivers/STM32L0xx_HAL_Driver/Src/stm32l0xx_hal_rtc_ex.c ****     defined (STM32L021xx) || defined (STM32L010x4) || defined (STM32L010x6) || \
 754:../../../../../../Drivers/STM32L0xx_HAL_Driver/Src/stm32l0xx_hal_rtc_ex.c ****     defined (STM32L010xB)
 755:../../../../../../Drivers/STM32L0xx_HAL_Driver/Src/stm32l0xx_hal_rtc_ex.c ****     if ((Tamper & RTC_TAMPER_3) != 0U)
 937              		.loc 1 755 0
 938 0034 8A06     		lsls	r2, r1, #26
 939 0036 07D4     		bmi	.L106
 940              	.LVL62:
 941              	.L95:
 756:../../../../../../Drivers/STM32L0xx_HAL_Driver/Src/stm32l0xx_hal_rtc_ex.c ****   {
 757:../../../../../../Drivers/STM32L0xx_HAL_Driver/Src/stm32l0xx_hal_rtc_ex.c ****     /* Disable the Tamper3 interrupt */
 758:../../../../../../Drivers/STM32L0xx_HAL_Driver/Src/stm32l0xx_hal_rtc_ex.c ****     hrtc->Instance->TAMPCR &= ((uint32_t)~(RTC_IT_TAMP | RTC_IT_TAMP3));
 759:../../../../../../Drivers/STM32L0xx_HAL_Driver/Src/stm32l0xx_hal_rtc_ex.c ****   }
 760:../../../../../../Drivers/STM32L0xx_HAL_Driver/Src/stm32l0xx_hal_rtc_ex.c ****   
 761:../../../../../../Drivers/STM32L0xx_HAL_Driver/Src/stm32l0xx_hal_rtc_ex.c **** #endif /* (STM32L083xx) || (STM32L082xx) || (STM32L081xx) ||
 762:../../../../../../Drivers/STM32L0xx_HAL_Driver/Src/stm32l0xx_hal_rtc_ex.c ****         * (STM32L073xx) || (STM32L072xx) || (STM32L071xx) ||
 763:../../../../../../Drivers/STM32L0xx_HAL_Driver/Src/stm32l0xx_hal_rtc_ex.c ****         * (STM32L031xx) || (STM32L041xx) || (STM32L011xx) ||
 764:../../../../../../Drivers/STM32L0xx_HAL_Driver/Src/stm32l0xx_hal_rtc_ex.c ****         * (STM32L021xx) || (STM32L010x4) || (STM32L010x6) ||
 765:../../../../../../Drivers/STM32L0xx_HAL_Driver/Src/stm32l0xx_hal_rtc_ex.c ****         * (STM32L010xB)
 766:../../../../../../Drivers/STM32L0xx_HAL_Driver/Src/stm32l0xx_hal_rtc_ex.c ****         */
 767:../../../../../../Drivers/STM32L0xx_HAL_Driver/Src/stm32l0xx_hal_rtc_ex.c **** 
 768:../../../../../../Drivers/STM32L0xx_HAL_Driver/Src/stm32l0xx_hal_rtc_ex.c ****   hrtc->State = HAL_RTC_STATE_READY;
 942              		.loc 1 768 0
 943 0038 2123     		movs	r3, #33
 944 003a 0122     		movs	r2, #1
 945 003c C254     		strb	r2, [r0, r3]
 769:../../../../../../Drivers/STM32L0xx_HAL_Driver/Src/stm32l0xx_hal_rtc_ex.c **** 
 770:../../../../../../Drivers/STM32L0xx_HAL_Driver/Src/stm32l0xx_hal_rtc_ex.c ****   /* Process Unlocked */
 771:../../../../../../Drivers/STM32L0xx_HAL_Driver/Src/stm32l0xx_hal_rtc_ex.c ****   __HAL_UNLOCK(hrtc);
 946              		.loc 1 771 0
 947 003e 0022     		movs	r2, #0
 948 0040 013B     		subs	r3, r3, #1
 949 0042 C254     		strb	r2, [r0, r3]
 772:../../../../../../Drivers/STM32L0xx_HAL_Driver/Src/stm32l0xx_hal_rtc_ex.c **** 
 773:../../../../../../Drivers/STM32L0xx_HAL_Driver/Src/stm32l0xx_hal_rtc_ex.c ****   return HAL_OK;
 950              		.loc 1 773 0
ARM GAS  C:\Users\EBANO_~1\AppData\Local\Temp\ccyPWgHX.s 			page 32


 951 0044 0020     		movs	r0, #0
 952              	.LVL63:
 953              	.L92:
 774:../../../../../../Drivers/STM32L0xx_HAL_Driver/Src/stm32l0xx_hal_rtc_ex.c **** }
 954              		.loc 1 774 0
 955              		@ sp needed
 956 0046 10BD     		pop	{r4, pc}
 957              	.LVL64:
 958              	.L106:
 758:../../../../../../Drivers/STM32L0xx_HAL_Driver/Src/stm32l0xx_hal_rtc_ex.c ****   }
 959              		.loc 1 758 0
 960 0048 1A6C     		ldr	r2, [r3, #64]
 961 004a 0549     		ldr	r1, .L107+8
 962              	.LVL65:
 963 004c 0A40     		ands	r2, r1
 964 004e 1A64     		str	r2, [r3, #64]
 965 0050 F2E7     		b	.L95
 966              	.LVL66:
 967              	.L96:
 717:../../../../../../Drivers/STM32L0xx_HAL_Driver/Src/stm32l0xx_hal_rtc_ex.c **** 
 968              		.loc 1 717 0
 969 0052 0220     		movs	r0, #2
 970              	.LVL67:
 971 0054 F7E7     		b	.L92
 972              	.L108:
 973 0056 C046     		.align	2
 974              	.L107:
 975 0058 FBFFFEFF 		.word	-65541
 976 005c FBFFF7FF 		.word	-524293
 977 0060 FBFFBFFF 		.word	-4194309
 978              		.cfi_endproc
 979              	.LFE45:
 980              		.size	HAL_RTCEx_DeactivateTamper, .-HAL_RTCEx_DeactivateTamper
 981              		.section	.text.HAL_RTCEx_TimeStampEventCallback,"ax",%progbits
 982              		.align	1
 983              		.p2align 2,,3
 984              		.weak	HAL_RTCEx_TimeStampEventCallback
 985              		.syntax unified
 986              		.code	16
 987              		.thumb_func
 988              		.fpu softvfp
 989              		.type	HAL_RTCEx_TimeStampEventCallback, %function
 990              	HAL_RTCEx_TimeStampEventCallback:
 991              	.LFB79:
 992              		.cfi_startproc
 993              		@ args = 0, pretend = 0, frame = 0
 994              		@ frame_needed = 0, uses_anonymous_args = 0
 995              		@ link register save eliminated.
 996              		@ sp needed
 997 0000 7047     		bx	lr
 998              		.cfi_endproc
 999              	.LFE79:
 1000              		.size	HAL_RTCEx_TimeStampEventCallback, .-HAL_RTCEx_TimeStampEventCallback
 1001 0002 C046     		.section	.text.HAL_RTCEx_Tamper1EventCallback,"ax",%progbits
 1002              		.align	1
 1003              		.p2align 2,,3
 1004              		.weak	HAL_RTCEx_Tamper1EventCallback
ARM GAS  C:\Users\EBANO_~1\AppData\Local\Temp\ccyPWgHX.s 			page 33


 1005              		.syntax unified
 1006              		.code	16
 1007              		.thumb_func
 1008              		.fpu softvfp
 1009              		.type	HAL_RTCEx_Tamper1EventCallback, %function
 1010              	HAL_RTCEx_Tamper1EventCallback:
 1011              	.LFB48:
 775:../../../../../../Drivers/STM32L0xx_HAL_Driver/Src/stm32l0xx_hal_rtc_ex.c **** 
 776:../../../../../../Drivers/STM32L0xx_HAL_Driver/Src/stm32l0xx_hal_rtc_ex.c **** /**
 777:../../../../../../Drivers/STM32L0xx_HAL_Driver/Src/stm32l0xx_hal_rtc_ex.c ****   * @brief  Handle TimeStamp interrupt request.
 778:../../../../../../Drivers/STM32L0xx_HAL_Driver/Src/stm32l0xx_hal_rtc_ex.c ****   * @param  hrtc RTC handle
 779:../../../../../../Drivers/STM32L0xx_HAL_Driver/Src/stm32l0xx_hal_rtc_ex.c ****   * @retval None
 780:../../../../../../Drivers/STM32L0xx_HAL_Driver/Src/stm32l0xx_hal_rtc_ex.c ****   */
 781:../../../../../../Drivers/STM32L0xx_HAL_Driver/Src/stm32l0xx_hal_rtc_ex.c **** void HAL_RTCEx_TamperTimeStampIRQHandler(RTC_HandleTypeDef *hrtc)
 782:../../../../../../Drivers/STM32L0xx_HAL_Driver/Src/stm32l0xx_hal_rtc_ex.c **** { 
 783:../../../../../../Drivers/STM32L0xx_HAL_Driver/Src/stm32l0xx_hal_rtc_ex.c ****   /* Get the TimeStamp interrupt source enable status */
 784:../../../../../../Drivers/STM32L0xx_HAL_Driver/Src/stm32l0xx_hal_rtc_ex.c ****   if(__HAL_RTC_TIMESTAMP_GET_IT_SOURCE(hrtc, RTC_IT_TS) != RESET)
 785:../../../../../../Drivers/STM32L0xx_HAL_Driver/Src/stm32l0xx_hal_rtc_ex.c ****   {
 786:../../../../../../Drivers/STM32L0xx_HAL_Driver/Src/stm32l0xx_hal_rtc_ex.c ****     /* Get the pending status of the TIMESTAMP Interrupt */
 787:../../../../../../Drivers/STM32L0xx_HAL_Driver/Src/stm32l0xx_hal_rtc_ex.c ****     if(__HAL_RTC_TIMESTAMP_GET_FLAG(hrtc, RTC_FLAG_TSF) != RESET)
 788:../../../../../../Drivers/STM32L0xx_HAL_Driver/Src/stm32l0xx_hal_rtc_ex.c ****     {
 789:../../../../../../Drivers/STM32L0xx_HAL_Driver/Src/stm32l0xx_hal_rtc_ex.c ****       /* TIMESTAMP callback */ 
 790:../../../../../../Drivers/STM32L0xx_HAL_Driver/Src/stm32l0xx_hal_rtc_ex.c ****       HAL_RTCEx_TimeStampEventCallback(hrtc);
 791:../../../../../../Drivers/STM32L0xx_HAL_Driver/Src/stm32l0xx_hal_rtc_ex.c ****       
 792:../../../../../../Drivers/STM32L0xx_HAL_Driver/Src/stm32l0xx_hal_rtc_ex.c ****       /* Clear the TIMESTAMP interrupt pending bit */
 793:../../../../../../Drivers/STM32L0xx_HAL_Driver/Src/stm32l0xx_hal_rtc_ex.c ****       __HAL_RTC_TIMESTAMP_CLEAR_FLAG(hrtc, RTC_FLAG_TSF);
 794:../../../../../../Drivers/STM32L0xx_HAL_Driver/Src/stm32l0xx_hal_rtc_ex.c ****     }
 795:../../../../../../Drivers/STM32L0xx_HAL_Driver/Src/stm32l0xx_hal_rtc_ex.c ****   }
 796:../../../../../../Drivers/STM32L0xx_HAL_Driver/Src/stm32l0xx_hal_rtc_ex.c **** 
 797:../../../../../../Drivers/STM32L0xx_HAL_Driver/Src/stm32l0xx_hal_rtc_ex.c **** #if defined (STM32L063xx) || defined (STM32L062xx) || defined (STM32L061xx) || \
 798:../../../../../../Drivers/STM32L0xx_HAL_Driver/Src/stm32l0xx_hal_rtc_ex.c ****     defined (STM32L053xx) || defined (STM32L052xx) || defined (STM32L051xx) ||\
 799:../../../../../../Drivers/STM32L0xx_HAL_Driver/Src/stm32l0xx_hal_rtc_ex.c ****     defined (STM32L083xx) || defined (STM32L082xx) || defined (STM32L081xx) || \
 800:../../../../../../Drivers/STM32L0xx_HAL_Driver/Src/stm32l0xx_hal_rtc_ex.c ****     defined (STM32L073xx) || defined (STM32L072xx) || defined (STM32L071xx) || \
 801:../../../../../../Drivers/STM32L0xx_HAL_Driver/Src/stm32l0xx_hal_rtc_ex.c ****     defined (STM32L031xx) || defined (STM32L041xx) || defined (STM32L010xB) || \
 802:../../../../../../Drivers/STM32L0xx_HAL_Driver/Src/stm32l0xx_hal_rtc_ex.c ****     defined (STM32L010x8) || defined (STM32L010x6)
 803:../../../../../../Drivers/STM32L0xx_HAL_Driver/Src/stm32l0xx_hal_rtc_ex.c **** 
 804:../../../../../../Drivers/STM32L0xx_HAL_Driver/Src/stm32l0xx_hal_rtc_ex.c ****   /* Get the Tamper1 interrupts source enable status */
 805:../../../../../../Drivers/STM32L0xx_HAL_Driver/Src/stm32l0xx_hal_rtc_ex.c ****   if(__HAL_RTC_TAMPER_GET_IT_SOURCE(hrtc, RTC_IT_TAMP | RTC_IT_TAMP1) != RESET)
 806:../../../../../../Drivers/STM32L0xx_HAL_Driver/Src/stm32l0xx_hal_rtc_ex.c ****   {
 807:../../../../../../Drivers/STM32L0xx_HAL_Driver/Src/stm32l0xx_hal_rtc_ex.c ****     /* Get the pending status of the Tamper1 Interrupt */
 808:../../../../../../Drivers/STM32L0xx_HAL_Driver/Src/stm32l0xx_hal_rtc_ex.c ****     if(__HAL_RTC_TAMPER_GET_FLAG(hrtc, RTC_FLAG_TAMP1F) != RESET)
 809:../../../../../../Drivers/STM32L0xx_HAL_Driver/Src/stm32l0xx_hal_rtc_ex.c ****     {
 810:../../../../../../Drivers/STM32L0xx_HAL_Driver/Src/stm32l0xx_hal_rtc_ex.c ****       /* Tamper1 callback */
 811:../../../../../../Drivers/STM32L0xx_HAL_Driver/Src/stm32l0xx_hal_rtc_ex.c ****       HAL_RTCEx_Tamper1EventCallback(hrtc);
 812:../../../../../../Drivers/STM32L0xx_HAL_Driver/Src/stm32l0xx_hal_rtc_ex.c **** 
 813:../../../../../../Drivers/STM32L0xx_HAL_Driver/Src/stm32l0xx_hal_rtc_ex.c ****       /* Clear the Tamper1 interrupt pending bit */
 814:../../../../../../Drivers/STM32L0xx_HAL_Driver/Src/stm32l0xx_hal_rtc_ex.c ****       __HAL_RTC_TAMPER_CLEAR_FLAG(hrtc, RTC_FLAG_TAMP1F);
 815:../../../../../../Drivers/STM32L0xx_HAL_Driver/Src/stm32l0xx_hal_rtc_ex.c ****     }
 816:../../../../../../Drivers/STM32L0xx_HAL_Driver/Src/stm32l0xx_hal_rtc_ex.c ****   }
 817:../../../../../../Drivers/STM32L0xx_HAL_Driver/Src/stm32l0xx_hal_rtc_ex.c **** #endif /* (STM32L063xx) || (STM32L062xx) || (STM32L061xx) ||
 818:../../../../../../Drivers/STM32L0xx_HAL_Driver/Src/stm32l0xx_hal_rtc_ex.c ****         * (STM32L053xx) || (STM32L052xx) || (STM32L051xx) ||
 819:../../../../../../Drivers/STM32L0xx_HAL_Driver/Src/stm32l0xx_hal_rtc_ex.c ****         * (STM32L083xx) || (STM32L082xx) || (STM32L081xx) ||
 820:../../../../../../Drivers/STM32L0xx_HAL_Driver/Src/stm32l0xx_hal_rtc_ex.c ****         * (STM32L073xx) || (STM32L072xx) || (STM32L071xx) || 
 821:../../../../../../Drivers/STM32L0xx_HAL_Driver/Src/stm32l0xx_hal_rtc_ex.c ****         * (STM32L031xx) || (STM32L041xx) || (STM32L010xB) ||
 822:../../../../../../Drivers/STM32L0xx_HAL_Driver/Src/stm32l0xx_hal_rtc_ex.c ****         * (STM32L010x8) || (STM32L010x6)
 823:../../../../../../Drivers/STM32L0xx_HAL_Driver/Src/stm32l0xx_hal_rtc_ex.c ****         */
 824:../../../../../../Drivers/STM32L0xx_HAL_Driver/Src/stm32l0xx_hal_rtc_ex.c **** 
ARM GAS  C:\Users\EBANO_~1\AppData\Local\Temp\ccyPWgHX.s 			page 34


 825:../../../../../../Drivers/STM32L0xx_HAL_Driver/Src/stm32l0xx_hal_rtc_ex.c ****   /* Get the Tamper2 interrupts source enable status */
 826:../../../../../../Drivers/STM32L0xx_HAL_Driver/Src/stm32l0xx_hal_rtc_ex.c ****   if(__HAL_RTC_TAMPER_GET_IT_SOURCE(hrtc, RTC_IT_TAMP | RTC_IT_TAMP2) != RESET)
 827:../../../../../../Drivers/STM32L0xx_HAL_Driver/Src/stm32l0xx_hal_rtc_ex.c ****   {
 828:../../../../../../Drivers/STM32L0xx_HAL_Driver/Src/stm32l0xx_hal_rtc_ex.c ****     /* Get the pending status of the Tamper2 Interrupt */
 829:../../../../../../Drivers/STM32L0xx_HAL_Driver/Src/stm32l0xx_hal_rtc_ex.c ****     if(__HAL_RTC_TAMPER_GET_FLAG(hrtc, RTC_FLAG_TAMP2F) != RESET)
 830:../../../../../../Drivers/STM32L0xx_HAL_Driver/Src/stm32l0xx_hal_rtc_ex.c ****     {
 831:../../../../../../Drivers/STM32L0xx_HAL_Driver/Src/stm32l0xx_hal_rtc_ex.c ****       /* Tamper2 callback */
 832:../../../../../../Drivers/STM32L0xx_HAL_Driver/Src/stm32l0xx_hal_rtc_ex.c ****       HAL_RTCEx_Tamper2EventCallback(hrtc);
 833:../../../../../../Drivers/STM32L0xx_HAL_Driver/Src/stm32l0xx_hal_rtc_ex.c **** 
 834:../../../../../../Drivers/STM32L0xx_HAL_Driver/Src/stm32l0xx_hal_rtc_ex.c ****       /* Clear the Tamper2 interrupt pending bit */
 835:../../../../../../Drivers/STM32L0xx_HAL_Driver/Src/stm32l0xx_hal_rtc_ex.c ****       __HAL_RTC_TAMPER_CLEAR_FLAG(hrtc, RTC_FLAG_TAMP2F);
 836:../../../../../../Drivers/STM32L0xx_HAL_Driver/Src/stm32l0xx_hal_rtc_ex.c ****     }
 837:../../../../../../Drivers/STM32L0xx_HAL_Driver/Src/stm32l0xx_hal_rtc_ex.c ****   }
 838:../../../../../../Drivers/STM32L0xx_HAL_Driver/Src/stm32l0xx_hal_rtc_ex.c **** 
 839:../../../../../../Drivers/STM32L0xx_HAL_Driver/Src/stm32l0xx_hal_rtc_ex.c **** #if defined (STM32L083xx) || defined (STM32L082xx) || defined (STM32L081xx) || \
 840:../../../../../../Drivers/STM32L0xx_HAL_Driver/Src/stm32l0xx_hal_rtc_ex.c ****     defined (STM32L073xx) || defined (STM32L072xx) || defined (STM32L071xx) || \
 841:../../../../../../Drivers/STM32L0xx_HAL_Driver/Src/stm32l0xx_hal_rtc_ex.c ****     defined (STM32L031xx) || defined (STM32L041xx) || defined (STM32L011xx) || \
 842:../../../../../../Drivers/STM32L0xx_HAL_Driver/Src/stm32l0xx_hal_rtc_ex.c ****     defined (STM32L021xx) || defined (STM32L010x4) || defined (STM32L010x6) || \
 843:../../../../../../Drivers/STM32L0xx_HAL_Driver/Src/stm32l0xx_hal_rtc_ex.c ****     defined (STM32L010xB)
 844:../../../../../../Drivers/STM32L0xx_HAL_Driver/Src/stm32l0xx_hal_rtc_ex.c ****   /* Get the Tamper3 interrupts source enable status */
 845:../../../../../../Drivers/STM32L0xx_HAL_Driver/Src/stm32l0xx_hal_rtc_ex.c ****   if(__HAL_RTC_TAMPER_GET_IT_SOURCE(hrtc, RTC_IT_TAMP | RTC_IT_TAMP3) != RESET)
 846:../../../../../../Drivers/STM32L0xx_HAL_Driver/Src/stm32l0xx_hal_rtc_ex.c ****   {
 847:../../../../../../Drivers/STM32L0xx_HAL_Driver/Src/stm32l0xx_hal_rtc_ex.c ****     /* Get the pending status of the Tamper3 Interrupt */
 848:../../../../../../Drivers/STM32L0xx_HAL_Driver/Src/stm32l0xx_hal_rtc_ex.c ****     if(__HAL_RTC_TAMPER_GET_FLAG(hrtc, RTC_FLAG_TAMP3F) != RESET)
 849:../../../../../../Drivers/STM32L0xx_HAL_Driver/Src/stm32l0xx_hal_rtc_ex.c ****     {
 850:../../../../../../Drivers/STM32L0xx_HAL_Driver/Src/stm32l0xx_hal_rtc_ex.c ****       /* Tamper3 callback */
 851:../../../../../../Drivers/STM32L0xx_HAL_Driver/Src/stm32l0xx_hal_rtc_ex.c ****       HAL_RTCEx_Tamper3EventCallback(hrtc);
 852:../../../../../../Drivers/STM32L0xx_HAL_Driver/Src/stm32l0xx_hal_rtc_ex.c **** 
 853:../../../../../../Drivers/STM32L0xx_HAL_Driver/Src/stm32l0xx_hal_rtc_ex.c ****       /* Clear the Tamper3 interrupt pending bit */
 854:../../../../../../Drivers/STM32L0xx_HAL_Driver/Src/stm32l0xx_hal_rtc_ex.c ****       __HAL_RTC_TAMPER_CLEAR_FLAG(hrtc, RTC_FLAG_TAMP3F);
 855:../../../../../../Drivers/STM32L0xx_HAL_Driver/Src/stm32l0xx_hal_rtc_ex.c ****     }
 856:../../../../../../Drivers/STM32L0xx_HAL_Driver/Src/stm32l0xx_hal_rtc_ex.c ****   }
 857:../../../../../../Drivers/STM32L0xx_HAL_Driver/Src/stm32l0xx_hal_rtc_ex.c **** 
 858:../../../../../../Drivers/STM32L0xx_HAL_Driver/Src/stm32l0xx_hal_rtc_ex.c **** #endif /* (STM32L083xx) || (STM32L082xx) || (STM32L081xx) ||
 859:../../../../../../Drivers/STM32L0xx_HAL_Driver/Src/stm32l0xx_hal_rtc_ex.c ****         * (STM32L073xx) || (STM32L072xx) || (STM32L071xx) ||
 860:../../../../../../Drivers/STM32L0xx_HAL_Driver/Src/stm32l0xx_hal_rtc_ex.c ****         * (STM32L031xx) || (STM32L041xx) || (STM32L011xx) ||
 861:../../../../../../Drivers/STM32L0xx_HAL_Driver/Src/stm32l0xx_hal_rtc_ex.c ****         * (STM32L021xx) || (STM32L010x4) || (STM32L010x6) ||
 862:../../../../../../Drivers/STM32L0xx_HAL_Driver/Src/stm32l0xx_hal_rtc_ex.c ****         * (STM32L010xB)
 863:../../../../../../Drivers/STM32L0xx_HAL_Driver/Src/stm32l0xx_hal_rtc_ex.c ****         */
 864:../../../../../../Drivers/STM32L0xx_HAL_Driver/Src/stm32l0xx_hal_rtc_ex.c **** 
 865:../../../../../../Drivers/STM32L0xx_HAL_Driver/Src/stm32l0xx_hal_rtc_ex.c ****   /* Clear the EXTI's Flag for RTC TimeStamp and Tamper */
 866:../../../../../../Drivers/STM32L0xx_HAL_Driver/Src/stm32l0xx_hal_rtc_ex.c ****   __HAL_RTC_TAMPER_TIMESTAMP_EXTI_CLEAR_FLAG();
 867:../../../../../../Drivers/STM32L0xx_HAL_Driver/Src/stm32l0xx_hal_rtc_ex.c **** 
 868:../../../../../../Drivers/STM32L0xx_HAL_Driver/Src/stm32l0xx_hal_rtc_ex.c ****   /* Change RTC state */
 869:../../../../../../Drivers/STM32L0xx_HAL_Driver/Src/stm32l0xx_hal_rtc_ex.c ****   hrtc->State = HAL_RTC_STATE_READY;
 870:../../../../../../Drivers/STM32L0xx_HAL_Driver/Src/stm32l0xx_hal_rtc_ex.c **** }
 871:../../../../../../Drivers/STM32L0xx_HAL_Driver/Src/stm32l0xx_hal_rtc_ex.c **** 
 872:../../../../../../Drivers/STM32L0xx_HAL_Driver/Src/stm32l0xx_hal_rtc_ex.c **** /**
 873:../../../../../../Drivers/STM32L0xx_HAL_Driver/Src/stm32l0xx_hal_rtc_ex.c ****   * @brief  TimeStamp callback. 
 874:../../../../../../Drivers/STM32L0xx_HAL_Driver/Src/stm32l0xx_hal_rtc_ex.c ****   * @param  hrtc RTC handle
 875:../../../../../../Drivers/STM32L0xx_HAL_Driver/Src/stm32l0xx_hal_rtc_ex.c ****   * @retval None
 876:../../../../../../Drivers/STM32L0xx_HAL_Driver/Src/stm32l0xx_hal_rtc_ex.c ****   */
 877:../../../../../../Drivers/STM32L0xx_HAL_Driver/Src/stm32l0xx_hal_rtc_ex.c **** __weak void HAL_RTCEx_TimeStampEventCallback(RTC_HandleTypeDef *hrtc)
 878:../../../../../../Drivers/STM32L0xx_HAL_Driver/Src/stm32l0xx_hal_rtc_ex.c **** {
 879:../../../../../../Drivers/STM32L0xx_HAL_Driver/Src/stm32l0xx_hal_rtc_ex.c ****   /* Prevent unused argument(s) compilation warning */
 880:../../../../../../Drivers/STM32L0xx_HAL_Driver/Src/stm32l0xx_hal_rtc_ex.c ****   UNUSED(hrtc);
 881:../../../../../../Drivers/STM32L0xx_HAL_Driver/Src/stm32l0xx_hal_rtc_ex.c **** 
ARM GAS  C:\Users\EBANO_~1\AppData\Local\Temp\ccyPWgHX.s 			page 35


 882:../../../../../../Drivers/STM32L0xx_HAL_Driver/Src/stm32l0xx_hal_rtc_ex.c ****   /* NOTE : This function should not be modified, when the callback is needed,
 883:../../../../../../Drivers/STM32L0xx_HAL_Driver/Src/stm32l0xx_hal_rtc_ex.c ****             the HAL_RTCEx_TimeStampEventCallback could be implemented in the user file
 884:../../../../../../Drivers/STM32L0xx_HAL_Driver/Src/stm32l0xx_hal_rtc_ex.c ****   */
 885:../../../../../../Drivers/STM32L0xx_HAL_Driver/Src/stm32l0xx_hal_rtc_ex.c **** }
 886:../../../../../../Drivers/STM32L0xx_HAL_Driver/Src/stm32l0xx_hal_rtc_ex.c **** 
 887:../../../../../../Drivers/STM32L0xx_HAL_Driver/Src/stm32l0xx_hal_rtc_ex.c **** /**
 888:../../../../../../Drivers/STM32L0xx_HAL_Driver/Src/stm32l0xx_hal_rtc_ex.c ****   * @brief  Tamper 1 callback.
 889:../../../../../../Drivers/STM32L0xx_HAL_Driver/Src/stm32l0xx_hal_rtc_ex.c ****   * @param  hrtc RTC handle
 890:../../../../../../Drivers/STM32L0xx_HAL_Driver/Src/stm32l0xx_hal_rtc_ex.c ****   * @retval None
 891:../../../../../../Drivers/STM32L0xx_HAL_Driver/Src/stm32l0xx_hal_rtc_ex.c ****   */
 892:../../../../../../Drivers/STM32L0xx_HAL_Driver/Src/stm32l0xx_hal_rtc_ex.c **** __weak void HAL_RTCEx_Tamper1EventCallback(RTC_HandleTypeDef *hrtc)
 893:../../../../../../Drivers/STM32L0xx_HAL_Driver/Src/stm32l0xx_hal_rtc_ex.c **** {
 1012              		.loc 1 893 0
 1013              		.cfi_startproc
 1014              		@ args = 0, pretend = 0, frame = 0
 1015              		@ frame_needed = 0, uses_anonymous_args = 0
 1016              		@ link register save eliminated.
 1017              	.LVL68:
 894:../../../../../../Drivers/STM32L0xx_HAL_Driver/Src/stm32l0xx_hal_rtc_ex.c ****   /* Prevent unused argument(s) compilation warning */
 895:../../../../../../Drivers/STM32L0xx_HAL_Driver/Src/stm32l0xx_hal_rtc_ex.c ****   UNUSED(hrtc);
 896:../../../../../../Drivers/STM32L0xx_HAL_Driver/Src/stm32l0xx_hal_rtc_ex.c **** 
 897:../../../../../../Drivers/STM32L0xx_HAL_Driver/Src/stm32l0xx_hal_rtc_ex.c ****   /* NOTE : This function should not be modified, when the callback is needed,
 898:../../../../../../Drivers/STM32L0xx_HAL_Driver/Src/stm32l0xx_hal_rtc_ex.c ****             the HAL_RTCEx_Tamper1EventCallback could be implemented in the user file
 899:../../../../../../Drivers/STM32L0xx_HAL_Driver/Src/stm32l0xx_hal_rtc_ex.c ****    */
 900:../../../../../../Drivers/STM32L0xx_HAL_Driver/Src/stm32l0xx_hal_rtc_ex.c **** }
 1018              		.loc 1 900 0
 1019              		@ sp needed
 1020 0000 7047     		bx	lr
 1021              		.cfi_endproc
 1022              	.LFE48:
 1023              		.size	HAL_RTCEx_Tamper1EventCallback, .-HAL_RTCEx_Tamper1EventCallback
 1024 0002 C046     		.section	.text.HAL_RTCEx_Tamper2EventCallback,"ax",%progbits
 1025              		.align	1
 1026              		.p2align 2,,3
 1027              		.weak	HAL_RTCEx_Tamper2EventCallback
 1028              		.syntax unified
 1029              		.code	16
 1030              		.thumb_func
 1031              		.fpu softvfp
 1032              		.type	HAL_RTCEx_Tamper2EventCallback, %function
 1033              	HAL_RTCEx_Tamper2EventCallback:
 1034              	.LFB75:
 1035              		.cfi_startproc
 1036              		@ args = 0, pretend = 0, frame = 0
 1037              		@ frame_needed = 0, uses_anonymous_args = 0
 1038              		@ link register save eliminated.
 1039              		@ sp needed
 1040 0000 7047     		bx	lr
 1041              		.cfi_endproc
 1042              	.LFE75:
 1043              		.size	HAL_RTCEx_Tamper2EventCallback, .-HAL_RTCEx_Tamper2EventCallback
 1044 0002 C046     		.section	.text.HAL_RTCEx_Tamper3EventCallback,"ax",%progbits
 1045              		.align	1
 1046              		.p2align 2,,3
 1047              		.weak	HAL_RTCEx_Tamper3EventCallback
 1048              		.syntax unified
 1049              		.code	16
ARM GAS  C:\Users\EBANO_~1\AppData\Local\Temp\ccyPWgHX.s 			page 36


 1050              		.thumb_func
 1051              		.fpu softvfp
 1052              		.type	HAL_RTCEx_Tamper3EventCallback, %function
 1053              	HAL_RTCEx_Tamper3EventCallback:
 1054              	.LFB77:
 1055              		.cfi_startproc
 1056              		@ args = 0, pretend = 0, frame = 0
 1057              		@ frame_needed = 0, uses_anonymous_args = 0
 1058              		@ link register save eliminated.
 1059              		@ sp needed
 1060 0000 7047     		bx	lr
 1061              		.cfi_endproc
 1062              	.LFE77:
 1063              		.size	HAL_RTCEx_Tamper3EventCallback, .-HAL_RTCEx_Tamper3EventCallback
 1064 0002 C046     		.section	.text.HAL_RTCEx_TamperTimeStampIRQHandler,"ax",%progbits
 1065              		.align	1
 1066              		.p2align 2,,3
 1067              		.global	HAL_RTCEx_TamperTimeStampIRQHandler
 1068              		.syntax unified
 1069              		.code	16
 1070              		.thumb_func
 1071              		.fpu softvfp
 1072              		.type	HAL_RTCEx_TamperTimeStampIRQHandler, %function
 1073              	HAL_RTCEx_TamperTimeStampIRQHandler:
 1074              	.LFB46:
 782:../../../../../../Drivers/STM32L0xx_HAL_Driver/Src/stm32l0xx_hal_rtc_ex.c ****   /* Get the TimeStamp interrupt source enable status */
 1075              		.loc 1 782 0
 1076              		.cfi_startproc
 1077              		@ args = 0, pretend = 0, frame = 0
 1078              		@ frame_needed = 0, uses_anonymous_args = 0
 1079              	.LVL69:
 784:../../../../../../Drivers/STM32L0xx_HAL_Driver/Src/stm32l0xx_hal_rtc_ex.c ****   {
 1080              		.loc 1 784 0
 1081 0000 0368     		ldr	r3, [r0]
 782:../../../../../../Drivers/STM32L0xx_HAL_Driver/Src/stm32l0xx_hal_rtc_ex.c ****   /* Get the TimeStamp interrupt source enable status */
 1082              		.loc 1 782 0
 1083 0002 10B5     		push	{r4, lr}
 1084              	.LCFI10:
 1085              		.cfi_def_cfa_offset 8
 1086              		.cfi_offset 4, -8
 1087              		.cfi_offset 14, -4
 784:../../../../../../Drivers/STM32L0xx_HAL_Driver/Src/stm32l0xx_hal_rtc_ex.c ****   {
 1088              		.loc 1 784 0
 1089 0004 9A68     		ldr	r2, [r3, #8]
 782:../../../../../../Drivers/STM32L0xx_HAL_Driver/Src/stm32l0xx_hal_rtc_ex.c ****   /* Get the TimeStamp interrupt source enable status */
 1090              		.loc 1 782 0
 1091 0006 0400     		movs	r4, r0
 784:../../../../../../Drivers/STM32L0xx_HAL_Driver/Src/stm32l0xx_hal_rtc_ex.c ****   {
 1092              		.loc 1 784 0
 1093 0008 1204     		lsls	r2, r2, #16
 1094 000a 02D5     		bpl	.L114
 787:../../../../../../Drivers/STM32L0xx_HAL_Driver/Src/stm32l0xx_hal_rtc_ex.c ****     {
 1095              		.loc 1 787 0
 1096 000c DA68     		ldr	r2, [r3, #12]
 1097 000e 1205     		lsls	r2, r2, #20
 1098 0010 27D4     		bmi	.L142
 1099              	.LVL70:
ARM GAS  C:\Users\EBANO_~1\AppData\Local\Temp\ccyPWgHX.s 			page 37


 1100              	.L114:
 805:../../../../../../Drivers/STM32L0xx_HAL_Driver/Src/stm32l0xx_hal_rtc_ex.c ****   {
 1101              		.loc 1 805 0
 1102 0012 196C     		ldr	r1, [r3, #64]
 1103 0014 234A     		ldr	r2, .L146
 1104 0016 1142     		tst	r1, r2
 1105 0018 02D0     		beq	.L115
 808:../../../../../../Drivers/STM32L0xx_HAL_Driver/Src/stm32l0xx_hal_rtc_ex.c ****     {
 1106              		.loc 1 808 0
 1107 001a DA68     		ldr	r2, [r3, #12]
 1108 001c 9204     		lsls	r2, r2, #18
 1109 001e 2AD4     		bmi	.L143
 1110              	.L115:
 826:../../../../../../Drivers/STM32L0xx_HAL_Driver/Src/stm32l0xx_hal_rtc_ex.c ****   {
 1111              		.loc 1 826 0
 1112 0020 196C     		ldr	r1, [r3, #64]
 1113 0022 214A     		ldr	r2, .L146+4
 1114 0024 1142     		tst	r1, r2
 1115 0026 02D0     		beq	.L116
 829:../../../../../../Drivers/STM32L0xx_HAL_Driver/Src/stm32l0xx_hal_rtc_ex.c ****     {
 1116              		.loc 1 829 0
 1117 0028 DA68     		ldr	r2, [r3, #12]
 1118 002a 5204     		lsls	r2, r2, #17
 1119 002c 2ED4     		bmi	.L144
 1120              	.L116:
 845:../../../../../../Drivers/STM32L0xx_HAL_Driver/Src/stm32l0xx_hal_rtc_ex.c ****   {
 1121              		.loc 1 845 0
 1122 002e 196C     		ldr	r1, [r3, #64]
 1123 0030 1E4A     		ldr	r2, .L146+8
 1124 0032 1142     		tst	r1, r2
 1125 0034 02D0     		beq	.L117
 848:../../../../../../Drivers/STM32L0xx_HAL_Driver/Src/stm32l0xx_hal_rtc_ex.c ****     {
 1126              		.loc 1 848 0
 1127 0036 DB68     		ldr	r3, [r3, #12]
 1128 0038 1B04     		lsls	r3, r3, #16
 1129 003a 07D4     		bmi	.L145
 1130              	.L117:
 866:../../../../../../Drivers/STM32L0xx_HAL_Driver/Src/stm32l0xx_hal_rtc_ex.c **** 
 1131              		.loc 1 866 0
 1132 003c 8022     		movs	r2, #128
 1133 003e 1C4B     		ldr	r3, .L146+12
 1134 0040 1203     		lsls	r2, r2, #12
 1135 0042 5A61     		str	r2, [r3, #20]
 869:../../../../../../Drivers/STM32L0xx_HAL_Driver/Src/stm32l0xx_hal_rtc_ex.c **** }
 1136              		.loc 1 869 0
 1137 0044 2123     		movs	r3, #33
 1138 0046 0122     		movs	r2, #1
 870:../../../../../../Drivers/STM32L0xx_HAL_Driver/Src/stm32l0xx_hal_rtc_ex.c **** 
 1139              		.loc 1 870 0
 1140              		@ sp needed
 869:../../../../../../Drivers/STM32L0xx_HAL_Driver/Src/stm32l0xx_hal_rtc_ex.c **** }
 1141              		.loc 1 869 0
 1142 0048 E254     		strb	r2, [r4, r3]
 1143              	.LVL71:
 870:../../../../../../Drivers/STM32L0xx_HAL_Driver/Src/stm32l0xx_hal_rtc_ex.c **** 
 1144              		.loc 1 870 0
 1145 004a 10BD     		pop	{r4, pc}
ARM GAS  C:\Users\EBANO_~1\AppData\Local\Temp\ccyPWgHX.s 			page 38


 1146              	.LVL72:
 1147              	.L145:
 851:../../../../../../Drivers/STM32L0xx_HAL_Driver/Src/stm32l0xx_hal_rtc_ex.c **** 
 1148              		.loc 1 851 0
 1149 004c 2000     		movs	r0, r4
 1150 004e FFF7FEFF 		bl	HAL_RTCEx_Tamper3EventCallback
 1151              	.LVL73:
 854:../../../../../../Drivers/STM32L0xx_HAL_Driver/Src/stm32l0xx_hal_rtc_ex.c ****     }
 1152              		.loc 1 854 0
 1153 0052 FF23     		movs	r3, #255
 1154 0054 2168     		ldr	r1, [r4]
 1155 0056 CA68     		ldr	r2, [r1, #12]
 1156 0058 1A40     		ands	r2, r3
 1157 005a 164B     		ldr	r3, .L146+16
 1158 005c 1343     		orrs	r3, r2
 1159 005e CB60     		str	r3, [r1, #12]
 1160 0060 ECE7     		b	.L117
 1161              	.LVL74:
 1162              	.L142:
 790:../../../../../../Drivers/STM32L0xx_HAL_Driver/Src/stm32l0xx_hal_rtc_ex.c ****       
 1163              		.loc 1 790 0
 1164 0062 FFF7FEFF 		bl	HAL_RTCEx_TimeStampEventCallback
 1165              	.LVL75:
 793:../../../../../../Drivers/STM32L0xx_HAL_Driver/Src/stm32l0xx_hal_rtc_ex.c ****     }
 1166              		.loc 1 793 0
 1167 0066 FF22     		movs	r2, #255
 1168 0068 2368     		ldr	r3, [r4]
 1169 006a D968     		ldr	r1, [r3, #12]
 1170 006c 1140     		ands	r1, r2
 1171 006e 124A     		ldr	r2, .L146+20
 1172 0070 0A43     		orrs	r2, r1
 1173 0072 DA60     		str	r2, [r3, #12]
 1174 0074 CDE7     		b	.L114
 1175              	.L143:
 811:../../../../../../Drivers/STM32L0xx_HAL_Driver/Src/stm32l0xx_hal_rtc_ex.c **** 
 1176              		.loc 1 811 0
 1177 0076 2000     		movs	r0, r4
 1178 0078 FFF7FEFF 		bl	HAL_RTCEx_Tamper1EventCallback
 1179              	.LVL76:
 814:../../../../../../Drivers/STM32L0xx_HAL_Driver/Src/stm32l0xx_hal_rtc_ex.c ****     }
 1180              		.loc 1 814 0
 1181 007c FF22     		movs	r2, #255
 1182 007e 2368     		ldr	r3, [r4]
 1183 0080 D968     		ldr	r1, [r3, #12]
 1184 0082 1140     		ands	r1, r2
 1185 0084 0D4A     		ldr	r2, .L146+24
 1186 0086 0A43     		orrs	r2, r1
 1187 0088 DA60     		str	r2, [r3, #12]
 1188 008a C9E7     		b	.L115
 1189              	.L144:
 832:../../../../../../Drivers/STM32L0xx_HAL_Driver/Src/stm32l0xx_hal_rtc_ex.c **** 
 1190              		.loc 1 832 0
 1191 008c 2000     		movs	r0, r4
 1192 008e FFF7FEFF 		bl	HAL_RTCEx_Tamper2EventCallback
 1193              	.LVL77:
 835:../../../../../../Drivers/STM32L0xx_HAL_Driver/Src/stm32l0xx_hal_rtc_ex.c ****     }
 1194              		.loc 1 835 0
ARM GAS  C:\Users\EBANO_~1\AppData\Local\Temp\ccyPWgHX.s 			page 39


 1195 0092 FF22     		movs	r2, #255
 1196 0094 2368     		ldr	r3, [r4]
 1197 0096 D968     		ldr	r1, [r3, #12]
 1198 0098 1140     		ands	r1, r2
 1199 009a 094A     		ldr	r2, .L146+28
 1200 009c 0A43     		orrs	r2, r1
 1201 009e DA60     		str	r2, [r3, #12]
 1202 00a0 C5E7     		b	.L116
 1203              	.L147:
 1204 00a2 C046     		.align	2
 1205              	.L146:
 1206 00a4 04000100 		.word	65540
 1207 00a8 04000800 		.word	524292
 1208 00ac 04004000 		.word	4194308
 1209 00b0 00040140 		.word	1073808384
 1210 00b4 7F7FFFFF 		.word	-32897
 1211 00b8 7FF7FFFF 		.word	-2177
 1212 00bc 7FDFFFFF 		.word	-8321
 1213 00c0 7FBFFFFF 		.word	-16513
 1214              		.cfi_endproc
 1215              	.LFE46:
 1216              		.size	HAL_RTCEx_TamperTimeStampIRQHandler, .-HAL_RTCEx_TamperTimeStampIRQHandler
 1217              		.section	.text.HAL_RTCEx_PollForTimeStampEvent,"ax",%progbits
 1218              		.align	1
 1219              		.p2align 2,,3
 1220              		.global	HAL_RTCEx_PollForTimeStampEvent
 1221              		.syntax unified
 1222              		.code	16
 1223              		.thumb_func
 1224              		.fpu softvfp
 1225              		.type	HAL_RTCEx_PollForTimeStampEvent, %function
 1226              	HAL_RTCEx_PollForTimeStampEvent:
 1227              	.LFB51:
 901:../../../../../../Drivers/STM32L0xx_HAL_Driver/Src/stm32l0xx_hal_rtc_ex.c **** 
 902:../../../../../../Drivers/STM32L0xx_HAL_Driver/Src/stm32l0xx_hal_rtc_ex.c **** /**
 903:../../../../../../Drivers/STM32L0xx_HAL_Driver/Src/stm32l0xx_hal_rtc_ex.c ****   * @brief  Tamper 2 callback. 
 904:../../../../../../Drivers/STM32L0xx_HAL_Driver/Src/stm32l0xx_hal_rtc_ex.c ****   * @param  hrtc RTC handle
 905:../../../../../../Drivers/STM32L0xx_HAL_Driver/Src/stm32l0xx_hal_rtc_ex.c ****   * @retval None
 906:../../../../../../Drivers/STM32L0xx_HAL_Driver/Src/stm32l0xx_hal_rtc_ex.c ****   */
 907:../../../../../../Drivers/STM32L0xx_HAL_Driver/Src/stm32l0xx_hal_rtc_ex.c **** __weak void HAL_RTCEx_Tamper2EventCallback(RTC_HandleTypeDef *hrtc)
 908:../../../../../../Drivers/STM32L0xx_HAL_Driver/Src/stm32l0xx_hal_rtc_ex.c **** {
 909:../../../../../../Drivers/STM32L0xx_HAL_Driver/Src/stm32l0xx_hal_rtc_ex.c ****   /* Prevent unused argument(s) compilation warning */
 910:../../../../../../Drivers/STM32L0xx_HAL_Driver/Src/stm32l0xx_hal_rtc_ex.c ****   UNUSED(hrtc);
 911:../../../../../../Drivers/STM32L0xx_HAL_Driver/Src/stm32l0xx_hal_rtc_ex.c **** 
 912:../../../../../../Drivers/STM32L0xx_HAL_Driver/Src/stm32l0xx_hal_rtc_ex.c ****   /* NOTE : This function should not be modified, when the callback is needed,
 913:../../../../../../Drivers/STM32L0xx_HAL_Driver/Src/stm32l0xx_hal_rtc_ex.c ****             the HAL_RTCEx_Tamper2EventCallback could be implemented in the user file
 914:../../../../../../Drivers/STM32L0xx_HAL_Driver/Src/stm32l0xx_hal_rtc_ex.c ****    */
 915:../../../../../../Drivers/STM32L0xx_HAL_Driver/Src/stm32l0xx_hal_rtc_ex.c **** }
 916:../../../../../../Drivers/STM32L0xx_HAL_Driver/Src/stm32l0xx_hal_rtc_ex.c **** 
 917:../../../../../../Drivers/STM32L0xx_HAL_Driver/Src/stm32l0xx_hal_rtc_ex.c **** 
 918:../../../../../../Drivers/STM32L0xx_HAL_Driver/Src/stm32l0xx_hal_rtc_ex.c **** #if defined (STM32L083xx) || defined (STM32L082xx) || defined (STM32L081xx) || \
 919:../../../../../../Drivers/STM32L0xx_HAL_Driver/Src/stm32l0xx_hal_rtc_ex.c ****     defined (STM32L073xx) || defined (STM32L072xx) || defined (STM32L071xx) || \
 920:../../../../../../Drivers/STM32L0xx_HAL_Driver/Src/stm32l0xx_hal_rtc_ex.c ****     defined (STM32L031xx) || defined (STM32L041xx) || defined (STM32L011xx) || \
 921:../../../../../../Drivers/STM32L0xx_HAL_Driver/Src/stm32l0xx_hal_rtc_ex.c ****     defined (STM32L021xx) || defined (STM32L010x4) || defined (STM32L010x6) || \
 922:../../../../../../Drivers/STM32L0xx_HAL_Driver/Src/stm32l0xx_hal_rtc_ex.c ****     defined (STM32L010xB)
 923:../../../../../../Drivers/STM32L0xx_HAL_Driver/Src/stm32l0xx_hal_rtc_ex.c **** /**
 924:../../../../../../Drivers/STM32L0xx_HAL_Driver/Src/stm32l0xx_hal_rtc_ex.c ****   * @brief  Tamper 3 callback. 
ARM GAS  C:\Users\EBANO_~1\AppData\Local\Temp\ccyPWgHX.s 			page 40


 925:../../../../../../Drivers/STM32L0xx_HAL_Driver/Src/stm32l0xx_hal_rtc_ex.c ****   * @param  hrtc RTC handle
 926:../../../../../../Drivers/STM32L0xx_HAL_Driver/Src/stm32l0xx_hal_rtc_ex.c ****   * @retval None
 927:../../../../../../Drivers/STM32L0xx_HAL_Driver/Src/stm32l0xx_hal_rtc_ex.c ****   */
 928:../../../../../../Drivers/STM32L0xx_HAL_Driver/Src/stm32l0xx_hal_rtc_ex.c **** __weak void HAL_RTCEx_Tamper3EventCallback(RTC_HandleTypeDef *hrtc)
 929:../../../../../../Drivers/STM32L0xx_HAL_Driver/Src/stm32l0xx_hal_rtc_ex.c **** {
 930:../../../../../../Drivers/STM32L0xx_HAL_Driver/Src/stm32l0xx_hal_rtc_ex.c ****   /* Prevent unused argument(s) compilation warning */
 931:../../../../../../Drivers/STM32L0xx_HAL_Driver/Src/stm32l0xx_hal_rtc_ex.c ****   UNUSED(hrtc);
 932:../../../../../../Drivers/STM32L0xx_HAL_Driver/Src/stm32l0xx_hal_rtc_ex.c **** 
 933:../../../../../../Drivers/STM32L0xx_HAL_Driver/Src/stm32l0xx_hal_rtc_ex.c ****   /* NOTE : This function should not be modified, when the callback is needed,
 934:../../../../../../Drivers/STM32L0xx_HAL_Driver/Src/stm32l0xx_hal_rtc_ex.c ****             the HAL_RTCEx_Tamper3EventCallback could be implemented in the user file
 935:../../../../../../Drivers/STM32L0xx_HAL_Driver/Src/stm32l0xx_hal_rtc_ex.c ****    */
 936:../../../../../../Drivers/STM32L0xx_HAL_Driver/Src/stm32l0xx_hal_rtc_ex.c **** }
 937:../../../../../../Drivers/STM32L0xx_HAL_Driver/Src/stm32l0xx_hal_rtc_ex.c **** 
 938:../../../../../../Drivers/STM32L0xx_HAL_Driver/Src/stm32l0xx_hal_rtc_ex.c **** #endif /* (STM32L083xx) || (STM32L082xx) || (STM32L081xx) ||
 939:../../../../../../Drivers/STM32L0xx_HAL_Driver/Src/stm32l0xx_hal_rtc_ex.c ****         * (STM32L073xx) || (STM32L072xx) || (STM32L071xx) ||
 940:../../../../../../Drivers/STM32L0xx_HAL_Driver/Src/stm32l0xx_hal_rtc_ex.c ****         * (STM32L031xx) || (STM32L041xx) || (STM32L011xx) ||
 941:../../../../../../Drivers/STM32L0xx_HAL_Driver/Src/stm32l0xx_hal_rtc_ex.c ****         * (STM32L021xx) || (STM32L010x4) || (STM32L010x6) ||
 942:../../../../../../Drivers/STM32L0xx_HAL_Driver/Src/stm32l0xx_hal_rtc_ex.c ****         * (STM32L010xB)
 943:../../../../../../Drivers/STM32L0xx_HAL_Driver/Src/stm32l0xx_hal_rtc_ex.c ****         */
 944:../../../../../../Drivers/STM32L0xx_HAL_Driver/Src/stm32l0xx_hal_rtc_ex.c **** 
 945:../../../../../../Drivers/STM32L0xx_HAL_Driver/Src/stm32l0xx_hal_rtc_ex.c **** /**
 946:../../../../../../Drivers/STM32L0xx_HAL_Driver/Src/stm32l0xx_hal_rtc_ex.c ****   * @brief  Handle TimeStamp polling request.
 947:../../../../../../Drivers/STM32L0xx_HAL_Driver/Src/stm32l0xx_hal_rtc_ex.c ****   * @param  hrtc RTC handle
 948:../../../../../../Drivers/STM32L0xx_HAL_Driver/Src/stm32l0xx_hal_rtc_ex.c ****   * @param  Timeout Timeout duration
 949:../../../../../../Drivers/STM32L0xx_HAL_Driver/Src/stm32l0xx_hal_rtc_ex.c ****   * @retval HAL status
 950:../../../../../../Drivers/STM32L0xx_HAL_Driver/Src/stm32l0xx_hal_rtc_ex.c ****   */
 951:../../../../../../Drivers/STM32L0xx_HAL_Driver/Src/stm32l0xx_hal_rtc_ex.c **** HAL_StatusTypeDef HAL_RTCEx_PollForTimeStampEvent(RTC_HandleTypeDef *hrtc, uint32_t Timeout)
 952:../../../../../../Drivers/STM32L0xx_HAL_Driver/Src/stm32l0xx_hal_rtc_ex.c **** { 
 1228              		.loc 1 952 0
 1229              		.cfi_startproc
 1230              		@ args = 0, pretend = 0, frame = 0
 1231              		@ frame_needed = 0, uses_anonymous_args = 0
 1232              	.LVL78:
 1233 0000 F0B5     		push	{r4, r5, r6, r7, lr}
 1234              	.LCFI11:
 1235              		.cfi_def_cfa_offset 20
 1236              		.cfi_offset 4, -20
 1237              		.cfi_offset 5, -16
 1238              		.cfi_offset 6, -12
 1239              		.cfi_offset 7, -8
 1240              		.cfi_offset 14, -4
 1241 0002 C646     		mov	lr, r8
 1242 0004 00B5     		push	{lr}
 1243              	.LCFI12:
 1244              		.cfi_def_cfa_offset 24
 1245              		.cfi_offset 8, -24
 1246              		.loc 1 952 0
 1247 0006 0400     		movs	r4, r0
 1248 0008 0D00     		movs	r5, r1
 953:../../../../../../Drivers/STM32L0xx_HAL_Driver/Src/stm32l0xx_hal_rtc_ex.c ****   uint32_t tickstart = HAL_GetTick();
 1249              		.loc 1 953 0
 1250 000a FFF7FEFF 		bl	HAL_GetTick
 1251              	.LVL79:
 954:../../../../../../Drivers/STM32L0xx_HAL_Driver/Src/stm32l0xx_hal_rtc_ex.c **** 
 955:../../../../../../Drivers/STM32L0xx_HAL_Driver/Src/stm32l0xx_hal_rtc_ex.c ****   while(__HAL_RTC_TIMESTAMP_GET_FLAG(hrtc, RTC_FLAG_TSF) == RESET)
 1252              		.loc 1 955 0
 1253 000e 8026     		movs	r6, #128
ARM GAS  C:\Users\EBANO_~1\AppData\Local\Temp\ccyPWgHX.s 			page 41


 956:../../../../../../Drivers/STM32L0xx_HAL_Driver/Src/stm32l0xx_hal_rtc_ex.c ****   {
 957:../../../../../../Drivers/STM32L0xx_HAL_Driver/Src/stm32l0xx_hal_rtc_ex.c ****     if(__HAL_RTC_TIMESTAMP_GET_FLAG(hrtc, RTC_FLAG_TSOVF) != RESET)
 1254              		.loc 1 957 0
 1255 0010 8027     		movs	r7, #128
 953:../../../../../../Drivers/STM32L0xx_HAL_Driver/Src/stm32l0xx_hal_rtc_ex.c **** 
 1256              		.loc 1 953 0
 1257 0012 8046     		mov	r8, r0
 1258              	.LVL80:
 955:../../../../../../Drivers/STM32L0xx_HAL_Driver/Src/stm32l0xx_hal_rtc_ex.c ****   {
 1259              		.loc 1 955 0
 1260 0014 3601     		lsls	r6, r6, #4
 1261              		.loc 1 957 0
 1262 0016 7F01     		lsls	r7, r7, #5
 1263              	.LVL81:
 1264              	.L149:
 955:../../../../../../Drivers/STM32L0xx_HAL_Driver/Src/stm32l0xx_hal_rtc_ex.c ****   {
 1265              		.loc 1 955 0
 1266 0018 2368     		ldr	r3, [r4]
 1267 001a 6A1C     		adds	r2, r5, #1
 1268 001c 11D1     		bne	.L154
 1269 001e 8021     		movs	r1, #128
 1270              		.loc 1 957 0
 1271 0020 8020     		movs	r0, #128
 955:../../../../../../Drivers/STM32L0xx_HAL_Driver/Src/stm32l0xx_hal_rtc_ex.c ****   {
 1272              		.loc 1 955 0
 1273 0022 0901     		lsls	r1, r1, #4
 1274              		.loc 1 957 0
 1275 0024 4001     		lsls	r0, r0, #5
 1276 0026 02E0     		b	.L157
 1277              	.L159:
 1278 0028 DA68     		ldr	r2, [r3, #12]
 1279 002a 0242     		tst	r2, r0
 1280 002c 1CD1     		bne	.L156
 1281              	.L157:
 955:../../../../../../Drivers/STM32L0xx_HAL_Driver/Src/stm32l0xx_hal_rtc_ex.c ****   {
 1282              		.loc 1 955 0
 1283 002e DA68     		ldr	r2, [r3, #12]
 1284 0030 0A42     		tst	r2, r1
 1285 0032 F9D0     		beq	.L159
 1286              	.L155:
 958:../../../../../../Drivers/STM32L0xx_HAL_Driver/Src/stm32l0xx_hal_rtc_ex.c ****     {
 959:../../../../../../Drivers/STM32L0xx_HAL_Driver/Src/stm32l0xx_hal_rtc_ex.c ****       /* Clear the TIMESTAMP OverRun Flag */
 960:../../../../../../Drivers/STM32L0xx_HAL_Driver/Src/stm32l0xx_hal_rtc_ex.c ****       __HAL_RTC_TIMESTAMP_CLEAR_FLAG(hrtc, RTC_FLAG_TSOVF);
 961:../../../../../../Drivers/STM32L0xx_HAL_Driver/Src/stm32l0xx_hal_rtc_ex.c **** 
 962:../../../../../../Drivers/STM32L0xx_HAL_Driver/Src/stm32l0xx_hal_rtc_ex.c ****       /* Change TIMESTAMP state */
 963:../../../../../../Drivers/STM32L0xx_HAL_Driver/Src/stm32l0xx_hal_rtc_ex.c ****       hrtc->State = HAL_RTC_STATE_ERROR; 
 964:../../../../../../Drivers/STM32L0xx_HAL_Driver/Src/stm32l0xx_hal_rtc_ex.c **** 
 965:../../../../../../Drivers/STM32L0xx_HAL_Driver/Src/stm32l0xx_hal_rtc_ex.c ****       return HAL_ERROR; 
 966:../../../../../../Drivers/STM32L0xx_HAL_Driver/Src/stm32l0xx_hal_rtc_ex.c ****     }
 967:../../../../../../Drivers/STM32L0xx_HAL_Driver/Src/stm32l0xx_hal_rtc_ex.c **** 
 968:../../../../../../Drivers/STM32L0xx_HAL_Driver/Src/stm32l0xx_hal_rtc_ex.c ****     if(Timeout != HAL_MAX_DELAY)
 969:../../../../../../Drivers/STM32L0xx_HAL_Driver/Src/stm32l0xx_hal_rtc_ex.c ****     {
 970:../../../../../../Drivers/STM32L0xx_HAL_Driver/Src/stm32l0xx_hal_rtc_ex.c ****       if((Timeout == 0U)||((HAL_GetTick() - tickstart ) > Timeout))
 971:../../../../../../Drivers/STM32L0xx_HAL_Driver/Src/stm32l0xx_hal_rtc_ex.c ****       {
 972:../../../../../../Drivers/STM32L0xx_HAL_Driver/Src/stm32l0xx_hal_rtc_ex.c ****         hrtc->State = HAL_RTC_STATE_TIMEOUT;
 973:../../../../../../Drivers/STM32L0xx_HAL_Driver/Src/stm32l0xx_hal_rtc_ex.c ****         return HAL_TIMEOUT;
 974:../../../../../../Drivers/STM32L0xx_HAL_Driver/Src/stm32l0xx_hal_rtc_ex.c ****       }
ARM GAS  C:\Users\EBANO_~1\AppData\Local\Temp\ccyPWgHX.s 			page 42


 975:../../../../../../Drivers/STM32L0xx_HAL_Driver/Src/stm32l0xx_hal_rtc_ex.c ****     }
 976:../../../../../../Drivers/STM32L0xx_HAL_Driver/Src/stm32l0xx_hal_rtc_ex.c ****   }
 977:../../../../../../Drivers/STM32L0xx_HAL_Driver/Src/stm32l0xx_hal_rtc_ex.c **** 
 978:../../../../../../Drivers/STM32L0xx_HAL_Driver/Src/stm32l0xx_hal_rtc_ex.c ****   /* Change RTC state */
 979:../../../../../../Drivers/STM32L0xx_HAL_Driver/Src/stm32l0xx_hal_rtc_ex.c ****   hrtc->State = HAL_RTC_STATE_READY;
 1287              		.loc 1 979 0
 1288 0034 2123     		movs	r3, #33
 1289 0036 0122     		movs	r2, #1
 980:../../../../../../Drivers/STM32L0xx_HAL_Driver/Src/stm32l0xx_hal_rtc_ex.c ****   
 981:../../../../../../Drivers/STM32L0xx_HAL_Driver/Src/stm32l0xx_hal_rtc_ex.c ****   return HAL_OK;
 1290              		.loc 1 981 0
 1291 0038 0020     		movs	r0, #0
 979:../../../../../../Drivers/STM32L0xx_HAL_Driver/Src/stm32l0xx_hal_rtc_ex.c ****   
 1292              		.loc 1 979 0
 1293 003a E254     		strb	r2, [r4, r3]
 1294              	.L151:
 982:../../../../../../Drivers/STM32L0xx_HAL_Driver/Src/stm32l0xx_hal_rtc_ex.c **** }
 1295              		.loc 1 982 0
 1296              		@ sp needed
 1297              	.LVL82:
 1298              	.LVL83:
 1299              	.LVL84:
 1300 003c 04BC     		pop	{r2}
 1301 003e 9046     		mov	r8, r2
 1302 0040 F0BD     		pop	{r4, r5, r6, r7, pc}
 1303              	.LVL85:
 1304              	.L154:
 955:../../../../../../Drivers/STM32L0xx_HAL_Driver/Src/stm32l0xx_hal_rtc_ex.c ****   {
 1305              		.loc 1 955 0
 1306 0042 DA68     		ldr	r2, [r3, #12]
 1307 0044 3242     		tst	r2, r6
 1308 0046 F5D1     		bne	.L155
 957:../../../../../../Drivers/STM32L0xx_HAL_Driver/Src/stm32l0xx_hal_rtc_ex.c ****     {
 1309              		.loc 1 957 0
 1310 0048 DA68     		ldr	r2, [r3, #12]
 1311 004a 3A42     		tst	r2, r7
 1312 004c 0CD1     		bne	.L156
 970:../../../../../../Drivers/STM32L0xx_HAL_Driver/Src/stm32l0xx_hal_rtc_ex.c ****       {
 1313              		.loc 1 970 0
 1314 004e 002D     		cmp	r5, #0
 1315 0050 05D0     		beq	.L153
 970:../../../../../../Drivers/STM32L0xx_HAL_Driver/Src/stm32l0xx_hal_rtc_ex.c ****       {
 1316              		.loc 1 970 0 is_stmt 0 discriminator 1
 1317 0052 FFF7FEFF 		bl	HAL_GetTick
 1318              	.LVL86:
 1319 0056 4346     		mov	r3, r8
 1320 0058 C01A     		subs	r0, r0, r3
 1321 005a A842     		cmp	r0, r5
 1322 005c DCD9     		bls	.L149
 1323              	.L153:
 972:../../../../../../Drivers/STM32L0xx_HAL_Driver/Src/stm32l0xx_hal_rtc_ex.c ****         return HAL_TIMEOUT;
 1324              		.loc 1 972 0 is_stmt 1
 1325 005e 2123     		movs	r3, #33
 1326 0060 0322     		movs	r2, #3
 973:../../../../../../Drivers/STM32L0xx_HAL_Driver/Src/stm32l0xx_hal_rtc_ex.c ****       }
 1327              		.loc 1 973 0
 1328 0062 0320     		movs	r0, #3
ARM GAS  C:\Users\EBANO_~1\AppData\Local\Temp\ccyPWgHX.s 			page 43


 972:../../../../../../Drivers/STM32L0xx_HAL_Driver/Src/stm32l0xx_hal_rtc_ex.c ****         return HAL_TIMEOUT;
 1329              		.loc 1 972 0
 1330 0064 E254     		strb	r2, [r4, r3]
 973:../../../../../../Drivers/STM32L0xx_HAL_Driver/Src/stm32l0xx_hal_rtc_ex.c ****       }
 1331              		.loc 1 973 0
 1332 0066 E9E7     		b	.L151
 1333              	.L156:
 960:../../../../../../Drivers/STM32L0xx_HAL_Driver/Src/stm32l0xx_hal_rtc_ex.c **** 
 1334              		.loc 1 960 0
 1335 0068 FF22     		movs	r2, #255
 1336 006a D968     		ldr	r1, [r3, #12]
 965:../../../../../../Drivers/STM32L0xx_HAL_Driver/Src/stm32l0xx_hal_rtc_ex.c ****     }
 1337              		.loc 1 965 0
 1338 006c 0120     		movs	r0, #1
 960:../../../../../../Drivers/STM32L0xx_HAL_Driver/Src/stm32l0xx_hal_rtc_ex.c **** 
 1339              		.loc 1 960 0
 1340 006e 1140     		ands	r1, r2
 1341 0070 034A     		ldr	r2, .L160
 1342 0072 0A43     		orrs	r2, r1
 1343 0074 DA60     		str	r2, [r3, #12]
 963:../../../../../../Drivers/STM32L0xx_HAL_Driver/Src/stm32l0xx_hal_rtc_ex.c **** 
 1344              		.loc 1 963 0
 1345 0076 2123     		movs	r3, #33
 1346 0078 0422     		movs	r2, #4
 1347 007a E254     		strb	r2, [r4, r3]
 965:../../../../../../Drivers/STM32L0xx_HAL_Driver/Src/stm32l0xx_hal_rtc_ex.c ****     }
 1348              		.loc 1 965 0
 1349 007c DEE7     		b	.L151
 1350              	.L161:
 1351 007e C046     		.align	2
 1352              	.L160:
 1353 0080 7FEFFFFF 		.word	-4225
 1354              		.cfi_endproc
 1355              	.LFE51:
 1356              		.size	HAL_RTCEx_PollForTimeStampEvent, .-HAL_RTCEx_PollForTimeStampEvent
 1357              		.section	.text.HAL_RTCEx_PollForTamper1Event,"ax",%progbits
 1358              		.align	1
 1359              		.p2align 2,,3
 1360              		.global	HAL_RTCEx_PollForTamper1Event
 1361              		.syntax unified
 1362              		.code	16
 1363              		.thumb_func
 1364              		.fpu softvfp
 1365              		.type	HAL_RTCEx_PollForTamper1Event, %function
 1366              	HAL_RTCEx_PollForTamper1Event:
 1367              	.LFB52:
 983:../../../../../../Drivers/STM32L0xx_HAL_Driver/Src/stm32l0xx_hal_rtc_ex.c **** 
 984:../../../../../../Drivers/STM32L0xx_HAL_Driver/Src/stm32l0xx_hal_rtc_ex.c **** #if defined (STM32L063xx) || defined (STM32L062xx) || defined (STM32L061xx) || \
 985:../../../../../../Drivers/STM32L0xx_HAL_Driver/Src/stm32l0xx_hal_rtc_ex.c ****     defined (STM32L053xx) || defined (STM32L052xx) || defined (STM32L051xx) ||\
 986:../../../../../../Drivers/STM32L0xx_HAL_Driver/Src/stm32l0xx_hal_rtc_ex.c ****     defined (STM32L083xx) || defined (STM32L082xx) || defined (STM32L081xx) || \
 987:../../../../../../Drivers/STM32L0xx_HAL_Driver/Src/stm32l0xx_hal_rtc_ex.c ****     defined (STM32L073xx) || defined (STM32L072xx) || defined (STM32L071xx) || \
 988:../../../../../../Drivers/STM32L0xx_HAL_Driver/Src/stm32l0xx_hal_rtc_ex.c ****     defined (STM32L031xx) || defined (STM32L041xx) || defined (STM32L010xB) || \
 989:../../../../../../Drivers/STM32L0xx_HAL_Driver/Src/stm32l0xx_hal_rtc_ex.c ****     defined (STM32L010x8) || defined (STM32L010x6)
 990:../../../../../../Drivers/STM32L0xx_HAL_Driver/Src/stm32l0xx_hal_rtc_ex.c **** /**
 991:../../../../../../Drivers/STM32L0xx_HAL_Driver/Src/stm32l0xx_hal_rtc_ex.c ****   * @brief  Handle Tamper 1 Polling.
 992:../../../../../../Drivers/STM32L0xx_HAL_Driver/Src/stm32l0xx_hal_rtc_ex.c ****   * @param  hrtc RTC handle
 993:../../../../../../Drivers/STM32L0xx_HAL_Driver/Src/stm32l0xx_hal_rtc_ex.c ****   * @param  Timeout Timeout duration
ARM GAS  C:\Users\EBANO_~1\AppData\Local\Temp\ccyPWgHX.s 			page 44


 994:../../../../../../Drivers/STM32L0xx_HAL_Driver/Src/stm32l0xx_hal_rtc_ex.c ****   * @retval HAL status
 995:../../../../../../Drivers/STM32L0xx_HAL_Driver/Src/stm32l0xx_hal_rtc_ex.c ****   */
 996:../../../../../../Drivers/STM32L0xx_HAL_Driver/Src/stm32l0xx_hal_rtc_ex.c **** HAL_StatusTypeDef HAL_RTCEx_PollForTamper1Event(RTC_HandleTypeDef *hrtc, uint32_t Timeout)
 997:../../../../../../Drivers/STM32L0xx_HAL_Driver/Src/stm32l0xx_hal_rtc_ex.c **** {
 1368              		.loc 1 997 0
 1369              		.cfi_startproc
 1370              		@ args = 0, pretend = 0, frame = 0
 1371              		@ frame_needed = 0, uses_anonymous_args = 0
 1372              	.LVL87:
 1373 0000 F8B5     		push	{r3, r4, r5, r6, r7, lr}
 1374              	.LCFI13:
 1375              		.cfi_def_cfa_offset 24
 1376              		.cfi_offset 3, -24
 1377              		.cfi_offset 4, -20
 1378              		.cfi_offset 5, -16
 1379              		.cfi_offset 6, -12
 1380              		.cfi_offset 7, -8
 1381              		.cfi_offset 14, -4
 1382              		.loc 1 997 0
 1383 0002 0500     		movs	r5, r0
 1384 0004 0C00     		movs	r4, r1
 998:../../../../../../Drivers/STM32L0xx_HAL_Driver/Src/stm32l0xx_hal_rtc_ex.c ****   uint32_t tickstart = HAL_GetTick();
 1385              		.loc 1 998 0
 1386 0006 FFF7FEFF 		bl	HAL_GetTick
 1387              	.LVL88:
 999:../../../../../../Drivers/STM32L0xx_HAL_Driver/Src/stm32l0xx_hal_rtc_ex.c **** 
1000:../../../../../../Drivers/STM32L0xx_HAL_Driver/Src/stm32l0xx_hal_rtc_ex.c ****   /* Get the status of the Interrupt */
1001:../../../../../../Drivers/STM32L0xx_HAL_Driver/Src/stm32l0xx_hal_rtc_ex.c ****   while(__HAL_RTC_TAMPER_GET_FLAG(hrtc, RTC_FLAG_TAMP1F)== RESET)
 1388              		.loc 1 1001 0
 1389 000a 8026     		movs	r6, #128
 998:../../../../../../Drivers/STM32L0xx_HAL_Driver/Src/stm32l0xx_hal_rtc_ex.c ****   uint32_t tickstart = HAL_GetTick();
 1390              		.loc 1 998 0
 1391 000c 0700     		movs	r7, r0
 1392              	.LVL89:
 1393              		.loc 1 1001 0
 1394 000e B601     		lsls	r6, r6, #6
 1395              	.LVL90:
 1396              	.L163:
 1397 0010 2A68     		ldr	r2, [r5]
 1398 0012 631C     		adds	r3, r4, #1
 1399 0014 0FD1     		bne	.L167
 1400 0016 8021     		movs	r1, #128
 1401 0018 8901     		lsls	r1, r1, #6
 1402              	.L168:
 1403 001a D368     		ldr	r3, [r2, #12]
 1404 001c 0B42     		tst	r3, r1
 1405 001e FCD0     		beq	.L168
 1406              	.L169:
1002:../../../../../../Drivers/STM32L0xx_HAL_Driver/Src/stm32l0xx_hal_rtc_ex.c ****   {
1003:../../../../../../Drivers/STM32L0xx_HAL_Driver/Src/stm32l0xx_hal_rtc_ex.c ****     if(Timeout != HAL_MAX_DELAY)
1004:../../../../../../Drivers/STM32L0xx_HAL_Driver/Src/stm32l0xx_hal_rtc_ex.c ****     {
1005:../../../../../../Drivers/STM32L0xx_HAL_Driver/Src/stm32l0xx_hal_rtc_ex.c ****       if((Timeout == 0U)||((HAL_GetTick() - tickstart ) > Timeout))
1006:../../../../../../Drivers/STM32L0xx_HAL_Driver/Src/stm32l0xx_hal_rtc_ex.c ****       {
1007:../../../../../../Drivers/STM32L0xx_HAL_Driver/Src/stm32l0xx_hal_rtc_ex.c ****         hrtc->State = HAL_RTC_STATE_TIMEOUT;
1008:../../../../../../Drivers/STM32L0xx_HAL_Driver/Src/stm32l0xx_hal_rtc_ex.c ****         return HAL_TIMEOUT;
1009:../../../../../../Drivers/STM32L0xx_HAL_Driver/Src/stm32l0xx_hal_rtc_ex.c ****       }
1010:../../../../../../Drivers/STM32L0xx_HAL_Driver/Src/stm32l0xx_hal_rtc_ex.c ****     }
ARM GAS  C:\Users\EBANO_~1\AppData\Local\Temp\ccyPWgHX.s 			page 45


1011:../../../../../../Drivers/STM32L0xx_HAL_Driver/Src/stm32l0xx_hal_rtc_ex.c ****   }
1012:../../../../../../Drivers/STM32L0xx_HAL_Driver/Src/stm32l0xx_hal_rtc_ex.c **** 
1013:../../../../../../Drivers/STM32L0xx_HAL_Driver/Src/stm32l0xx_hal_rtc_ex.c ****   /* Clear the Tamper Flag */
1014:../../../../../../Drivers/STM32L0xx_HAL_Driver/Src/stm32l0xx_hal_rtc_ex.c ****   __HAL_RTC_TAMPER_CLEAR_FLAG(hrtc,RTC_FLAG_TAMP1F);
 1407              		.loc 1 1014 0
 1408 0020 FF23     		movs	r3, #255
 1409 0022 D168     		ldr	r1, [r2, #12]
1015:../../../../../../Drivers/STM32L0xx_HAL_Driver/Src/stm32l0xx_hal_rtc_ex.c ****   
1016:../../../../../../Drivers/STM32L0xx_HAL_Driver/Src/stm32l0xx_hal_rtc_ex.c ****   /* Change RTC state */
1017:../../../../../../Drivers/STM32L0xx_HAL_Driver/Src/stm32l0xx_hal_rtc_ex.c ****   hrtc->State = HAL_RTC_STATE_READY;
1018:../../../../../../Drivers/STM32L0xx_HAL_Driver/Src/stm32l0xx_hal_rtc_ex.c ****   
1019:../../../../../../Drivers/STM32L0xx_HAL_Driver/Src/stm32l0xx_hal_rtc_ex.c ****   return HAL_OK; 
 1410              		.loc 1 1019 0
 1411 0024 0020     		movs	r0, #0
1014:../../../../../../Drivers/STM32L0xx_HAL_Driver/Src/stm32l0xx_hal_rtc_ex.c ****   
 1412              		.loc 1 1014 0
 1413 0026 1940     		ands	r1, r3
 1414 0028 0A4B     		ldr	r3, .L173
 1415 002a 0B43     		orrs	r3, r1
 1416 002c D360     		str	r3, [r2, #12]
1017:../../../../../../Drivers/STM32L0xx_HAL_Driver/Src/stm32l0xx_hal_rtc_ex.c ****   
 1417              		.loc 1 1017 0
 1418 002e 2123     		movs	r3, #33
 1419 0030 0122     		movs	r2, #1
 1420 0032 EA54     		strb	r2, [r5, r3]
 1421              	.L165:
1020:../../../../../../Drivers/STM32L0xx_HAL_Driver/Src/stm32l0xx_hal_rtc_ex.c **** }
 1422              		.loc 1 1020 0
 1423              		@ sp needed
 1424              	.LVL91:
 1425              	.LVL92:
 1426              	.LVL93:
 1427 0034 F8BD     		pop	{r3, r4, r5, r6, r7, pc}
 1428              	.LVL94:
 1429              	.L167:
1001:../../../../../../Drivers/STM32L0xx_HAL_Driver/Src/stm32l0xx_hal_rtc_ex.c ****   {
 1430              		.loc 1 1001 0
 1431 0036 D368     		ldr	r3, [r2, #12]
 1432 0038 3342     		tst	r3, r6
 1433 003a F1D1     		bne	.L169
1005:../../../../../../Drivers/STM32L0xx_HAL_Driver/Src/stm32l0xx_hal_rtc_ex.c ****       {
 1434              		.loc 1 1005 0
 1435 003c 002C     		cmp	r4, #0
 1436 003e 04D0     		beq	.L166
1005:../../../../../../Drivers/STM32L0xx_HAL_Driver/Src/stm32l0xx_hal_rtc_ex.c ****       {
 1437              		.loc 1 1005 0 is_stmt 0 discriminator 1
 1438 0040 FFF7FEFF 		bl	HAL_GetTick
 1439              	.LVL95:
 1440 0044 C01B     		subs	r0, r0, r7
 1441 0046 A042     		cmp	r0, r4
 1442 0048 E2D9     		bls	.L163
 1443              	.L166:
1007:../../../../../../Drivers/STM32L0xx_HAL_Driver/Src/stm32l0xx_hal_rtc_ex.c ****         return HAL_TIMEOUT;
 1444              		.loc 1 1007 0 is_stmt 1
 1445 004a 2123     		movs	r3, #33
 1446 004c 0322     		movs	r2, #3
1008:../../../../../../Drivers/STM32L0xx_HAL_Driver/Src/stm32l0xx_hal_rtc_ex.c ****       }
ARM GAS  C:\Users\EBANO_~1\AppData\Local\Temp\ccyPWgHX.s 			page 46


 1447              		.loc 1 1008 0
 1448 004e 0320     		movs	r0, #3
1007:../../../../../../Drivers/STM32L0xx_HAL_Driver/Src/stm32l0xx_hal_rtc_ex.c ****         return HAL_TIMEOUT;
 1449              		.loc 1 1007 0
 1450 0050 EA54     		strb	r2, [r5, r3]
1008:../../../../../../Drivers/STM32L0xx_HAL_Driver/Src/stm32l0xx_hal_rtc_ex.c ****       }
 1451              		.loc 1 1008 0
 1452 0052 EFE7     		b	.L165
 1453              	.L174:
 1454              		.align	2
 1455              	.L173:
 1456 0054 7FDFFFFF 		.word	-8321
 1457              		.cfi_endproc
 1458              	.LFE52:
 1459              		.size	HAL_RTCEx_PollForTamper1Event, .-HAL_RTCEx_PollForTamper1Event
 1460              		.section	.text.HAL_RTCEx_PollForTamper2Event,"ax",%progbits
 1461              		.align	1
 1462              		.p2align 2,,3
 1463              		.global	HAL_RTCEx_PollForTamper2Event
 1464              		.syntax unified
 1465              		.code	16
 1466              		.thumb_func
 1467              		.fpu softvfp
 1468              		.type	HAL_RTCEx_PollForTamper2Event, %function
 1469              	HAL_RTCEx_PollForTamper2Event:
 1470              	.LFB53:
1021:../../../../../../Drivers/STM32L0xx_HAL_Driver/Src/stm32l0xx_hal_rtc_ex.c **** #endif /* (STM32L063xx) || (STM32L062xx) || (STM32L061xx) ||
1022:../../../../../../Drivers/STM32L0xx_HAL_Driver/Src/stm32l0xx_hal_rtc_ex.c ****         * (STM32L053xx) || (STM32L052xx) || (STM32L051xx) ||
1023:../../../../../../Drivers/STM32L0xx_HAL_Driver/Src/stm32l0xx_hal_rtc_ex.c ****         * (STM32L083xx) || (STM32L082xx) || (STM32L081xx) ||
1024:../../../../../../Drivers/STM32L0xx_HAL_Driver/Src/stm32l0xx_hal_rtc_ex.c ****         * (STM32L073xx) || (STM32L072xx) || (STM32L071xx) || 
1025:../../../../../../Drivers/STM32L0xx_HAL_Driver/Src/stm32l0xx_hal_rtc_ex.c ****         * (STM32L031xx) || (STM32L041xx) || (STM32L010xB) ||
1026:../../../../../../Drivers/STM32L0xx_HAL_Driver/Src/stm32l0xx_hal_rtc_ex.c ****         * (STM32L010x8) || (STM32L010x6)
1027:../../../../../../Drivers/STM32L0xx_HAL_Driver/Src/stm32l0xx_hal_rtc_ex.c ****         */
1028:../../../../../../Drivers/STM32L0xx_HAL_Driver/Src/stm32l0xx_hal_rtc_ex.c **** 
1029:../../../../../../Drivers/STM32L0xx_HAL_Driver/Src/stm32l0xx_hal_rtc_ex.c **** /**
1030:../../../../../../Drivers/STM32L0xx_HAL_Driver/Src/stm32l0xx_hal_rtc_ex.c ****   * @brief  Handle Tamper 2 Polling.
1031:../../../../../../Drivers/STM32L0xx_HAL_Driver/Src/stm32l0xx_hal_rtc_ex.c ****   * @param  hrtc RTC handle
1032:../../../../../../Drivers/STM32L0xx_HAL_Driver/Src/stm32l0xx_hal_rtc_ex.c ****   * @param  Timeout Timeout duration
1033:../../../../../../Drivers/STM32L0xx_HAL_Driver/Src/stm32l0xx_hal_rtc_ex.c ****   * @retval HAL status
1034:../../../../../../Drivers/STM32L0xx_HAL_Driver/Src/stm32l0xx_hal_rtc_ex.c ****   */
1035:../../../../../../Drivers/STM32L0xx_HAL_Driver/Src/stm32l0xx_hal_rtc_ex.c **** HAL_StatusTypeDef HAL_RTCEx_PollForTamper2Event(RTC_HandleTypeDef *hrtc, uint32_t Timeout)
1036:../../../../../../Drivers/STM32L0xx_HAL_Driver/Src/stm32l0xx_hal_rtc_ex.c **** {
 1471              		.loc 1 1036 0
 1472              		.cfi_startproc
 1473              		@ args = 0, pretend = 0, frame = 0
 1474              		@ frame_needed = 0, uses_anonymous_args = 0
 1475              	.LVL96:
 1476 0000 F8B5     		push	{r3, r4, r5, r6, r7, lr}
 1477              	.LCFI14:
 1478              		.cfi_def_cfa_offset 24
 1479              		.cfi_offset 3, -24
 1480              		.cfi_offset 4, -20
 1481              		.cfi_offset 5, -16
 1482              		.cfi_offset 6, -12
 1483              		.cfi_offset 7, -8
 1484              		.cfi_offset 14, -4
 1485              		.loc 1 1036 0
ARM GAS  C:\Users\EBANO_~1\AppData\Local\Temp\ccyPWgHX.s 			page 47


 1486 0002 0500     		movs	r5, r0
 1487 0004 0C00     		movs	r4, r1
1037:../../../../../../Drivers/STM32L0xx_HAL_Driver/Src/stm32l0xx_hal_rtc_ex.c ****   uint32_t tickstart = HAL_GetTick();
 1488              		.loc 1 1037 0
 1489 0006 FFF7FEFF 		bl	HAL_GetTick
 1490              	.LVL97:
1038:../../../../../../Drivers/STM32L0xx_HAL_Driver/Src/stm32l0xx_hal_rtc_ex.c **** 
1039:../../../../../../Drivers/STM32L0xx_HAL_Driver/Src/stm32l0xx_hal_rtc_ex.c ****   /* Get the status of the Interrupt */
1040:../../../../../../Drivers/STM32L0xx_HAL_Driver/Src/stm32l0xx_hal_rtc_ex.c ****   while(__HAL_RTC_TAMPER_GET_FLAG(hrtc, RTC_FLAG_TAMP2F) == RESET)
 1491              		.loc 1 1040 0
 1492 000a 8026     		movs	r6, #128
1037:../../../../../../Drivers/STM32L0xx_HAL_Driver/Src/stm32l0xx_hal_rtc_ex.c ****   uint32_t tickstart = HAL_GetTick();
 1493              		.loc 1 1037 0
 1494 000c 0700     		movs	r7, r0
 1495              	.LVL98:
 1496              		.loc 1 1040 0
 1497 000e F601     		lsls	r6, r6, #7
 1498              	.LVL99:
 1499              	.L176:
 1500 0010 2A68     		ldr	r2, [r5]
 1501 0012 631C     		adds	r3, r4, #1
 1502 0014 0FD1     		bne	.L180
 1503 0016 8021     		movs	r1, #128
 1504 0018 C901     		lsls	r1, r1, #7
 1505              	.L181:
 1506 001a D368     		ldr	r3, [r2, #12]
 1507 001c 0B42     		tst	r3, r1
 1508 001e FCD0     		beq	.L181
 1509              	.L182:
1041:../../../../../../Drivers/STM32L0xx_HAL_Driver/Src/stm32l0xx_hal_rtc_ex.c ****   {
1042:../../../../../../Drivers/STM32L0xx_HAL_Driver/Src/stm32l0xx_hal_rtc_ex.c ****     if(Timeout != HAL_MAX_DELAY)
1043:../../../../../../Drivers/STM32L0xx_HAL_Driver/Src/stm32l0xx_hal_rtc_ex.c ****     {
1044:../../../../../../Drivers/STM32L0xx_HAL_Driver/Src/stm32l0xx_hal_rtc_ex.c ****       if((Timeout == 0U)||((HAL_GetTick() - tickstart ) > Timeout))
1045:../../../../../../Drivers/STM32L0xx_HAL_Driver/Src/stm32l0xx_hal_rtc_ex.c ****       {
1046:../../../../../../Drivers/STM32L0xx_HAL_Driver/Src/stm32l0xx_hal_rtc_ex.c ****         hrtc->State = HAL_RTC_STATE_TIMEOUT;
1047:../../../../../../Drivers/STM32L0xx_HAL_Driver/Src/stm32l0xx_hal_rtc_ex.c ****         return HAL_TIMEOUT;
1048:../../../../../../Drivers/STM32L0xx_HAL_Driver/Src/stm32l0xx_hal_rtc_ex.c ****       }
1049:../../../../../../Drivers/STM32L0xx_HAL_Driver/Src/stm32l0xx_hal_rtc_ex.c ****     }
1050:../../../../../../Drivers/STM32L0xx_HAL_Driver/Src/stm32l0xx_hal_rtc_ex.c ****   }
1051:../../../../../../Drivers/STM32L0xx_HAL_Driver/Src/stm32l0xx_hal_rtc_ex.c **** 
1052:../../../../../../Drivers/STM32L0xx_HAL_Driver/Src/stm32l0xx_hal_rtc_ex.c ****   /* Clear the Tamper Flag */
1053:../../../../../../Drivers/STM32L0xx_HAL_Driver/Src/stm32l0xx_hal_rtc_ex.c ****   __HAL_RTC_TAMPER_CLEAR_FLAG(hrtc,RTC_FLAG_TAMP2F);
 1510              		.loc 1 1053 0
 1511 0020 FF23     		movs	r3, #255
 1512 0022 D168     		ldr	r1, [r2, #12]
1054:../../../../../../Drivers/STM32L0xx_HAL_Driver/Src/stm32l0xx_hal_rtc_ex.c **** 
1055:../../../../../../Drivers/STM32L0xx_HAL_Driver/Src/stm32l0xx_hal_rtc_ex.c ****   /* Change RTC state */
1056:../../../../../../Drivers/STM32L0xx_HAL_Driver/Src/stm32l0xx_hal_rtc_ex.c ****   hrtc->State = HAL_RTC_STATE_READY;
1057:../../../../../../Drivers/STM32L0xx_HAL_Driver/Src/stm32l0xx_hal_rtc_ex.c **** 
1058:../../../../../../Drivers/STM32L0xx_HAL_Driver/Src/stm32l0xx_hal_rtc_ex.c ****   return HAL_OK;
 1513              		.loc 1 1058 0
 1514 0024 0020     		movs	r0, #0
1053:../../../../../../Drivers/STM32L0xx_HAL_Driver/Src/stm32l0xx_hal_rtc_ex.c **** 
 1515              		.loc 1 1053 0
 1516 0026 1940     		ands	r1, r3
 1517 0028 0A4B     		ldr	r3, .L186
 1518 002a 0B43     		orrs	r3, r1
ARM GAS  C:\Users\EBANO_~1\AppData\Local\Temp\ccyPWgHX.s 			page 48


 1519 002c D360     		str	r3, [r2, #12]
1056:../../../../../../Drivers/STM32L0xx_HAL_Driver/Src/stm32l0xx_hal_rtc_ex.c **** 
 1520              		.loc 1 1056 0
 1521 002e 2123     		movs	r3, #33
 1522 0030 0122     		movs	r2, #1
 1523 0032 EA54     		strb	r2, [r5, r3]
 1524              	.L178:
1059:../../../../../../Drivers/STM32L0xx_HAL_Driver/Src/stm32l0xx_hal_rtc_ex.c **** }
 1525              		.loc 1 1059 0
 1526              		@ sp needed
 1527              	.LVL100:
 1528              	.LVL101:
 1529              	.LVL102:
 1530 0034 F8BD     		pop	{r3, r4, r5, r6, r7, pc}
 1531              	.LVL103:
 1532              	.L180:
1040:../../../../../../Drivers/STM32L0xx_HAL_Driver/Src/stm32l0xx_hal_rtc_ex.c ****   {
 1533              		.loc 1 1040 0
 1534 0036 D368     		ldr	r3, [r2, #12]
 1535 0038 3342     		tst	r3, r6
 1536 003a F1D1     		bne	.L182
1044:../../../../../../Drivers/STM32L0xx_HAL_Driver/Src/stm32l0xx_hal_rtc_ex.c ****       {
 1537              		.loc 1 1044 0
 1538 003c 002C     		cmp	r4, #0
 1539 003e 04D0     		beq	.L179
1044:../../../../../../Drivers/STM32L0xx_HAL_Driver/Src/stm32l0xx_hal_rtc_ex.c ****       {
 1540              		.loc 1 1044 0 is_stmt 0 discriminator 1
 1541 0040 FFF7FEFF 		bl	HAL_GetTick
 1542              	.LVL104:
 1543 0044 C01B     		subs	r0, r0, r7
 1544 0046 A042     		cmp	r0, r4
 1545 0048 E2D9     		bls	.L176
 1546              	.L179:
1046:../../../../../../Drivers/STM32L0xx_HAL_Driver/Src/stm32l0xx_hal_rtc_ex.c ****         return HAL_TIMEOUT;
 1547              		.loc 1 1046 0 is_stmt 1
 1548 004a 2123     		movs	r3, #33
 1549 004c 0322     		movs	r2, #3
1047:../../../../../../Drivers/STM32L0xx_HAL_Driver/Src/stm32l0xx_hal_rtc_ex.c ****       }
 1550              		.loc 1 1047 0
 1551 004e 0320     		movs	r0, #3
1046:../../../../../../Drivers/STM32L0xx_HAL_Driver/Src/stm32l0xx_hal_rtc_ex.c ****         return HAL_TIMEOUT;
 1552              		.loc 1 1046 0
 1553 0050 EA54     		strb	r2, [r5, r3]
1047:../../../../../../Drivers/STM32L0xx_HAL_Driver/Src/stm32l0xx_hal_rtc_ex.c ****       }
 1554              		.loc 1 1047 0
 1555 0052 EFE7     		b	.L178
 1556              	.L187:
 1557              		.align	2
 1558              	.L186:
 1559 0054 7FBFFFFF 		.word	-16513
 1560              		.cfi_endproc
 1561              	.LFE53:
 1562              		.size	HAL_RTCEx_PollForTamper2Event, .-HAL_RTCEx_PollForTamper2Event
 1563              		.section	.text.HAL_RTCEx_PollForTamper3Event,"ax",%progbits
 1564              		.align	1
 1565              		.p2align 2,,3
 1566              		.global	HAL_RTCEx_PollForTamper3Event
ARM GAS  C:\Users\EBANO_~1\AppData\Local\Temp\ccyPWgHX.s 			page 49


 1567              		.syntax unified
 1568              		.code	16
 1569              		.thumb_func
 1570              		.fpu softvfp
 1571              		.type	HAL_RTCEx_PollForTamper3Event, %function
 1572              	HAL_RTCEx_PollForTamper3Event:
 1573              	.LFB54:
1060:../../../../../../Drivers/STM32L0xx_HAL_Driver/Src/stm32l0xx_hal_rtc_ex.c **** 
1061:../../../../../../Drivers/STM32L0xx_HAL_Driver/Src/stm32l0xx_hal_rtc_ex.c **** 
1062:../../../../../../Drivers/STM32L0xx_HAL_Driver/Src/stm32l0xx_hal_rtc_ex.c **** #if defined (STM32L083xx) || defined (STM32L082xx) || defined (STM32L081xx) || \
1063:../../../../../../Drivers/STM32L0xx_HAL_Driver/Src/stm32l0xx_hal_rtc_ex.c ****     defined (STM32L073xx) || defined (STM32L072xx) || defined (STM32L071xx) || \
1064:../../../../../../Drivers/STM32L0xx_HAL_Driver/Src/stm32l0xx_hal_rtc_ex.c ****     defined (STM32L031xx) || defined (STM32L041xx) || defined (STM32L011xx) || \
1065:../../../../../../Drivers/STM32L0xx_HAL_Driver/Src/stm32l0xx_hal_rtc_ex.c ****     defined (STM32L021xx) || defined (STM32L010x4) || defined (STM32L010x6) || \
1066:../../../../../../Drivers/STM32L0xx_HAL_Driver/Src/stm32l0xx_hal_rtc_ex.c ****     defined (STM32L010xB)
1067:../../../../../../Drivers/STM32L0xx_HAL_Driver/Src/stm32l0xx_hal_rtc_ex.c **** /**
1068:../../../../../../Drivers/STM32L0xx_HAL_Driver/Src/stm32l0xx_hal_rtc_ex.c ****   * @brief  Handle Tamper 3 Polling.
1069:../../../../../../Drivers/STM32L0xx_HAL_Driver/Src/stm32l0xx_hal_rtc_ex.c ****   * @param  hrtc RTC handle
1070:../../../../../../Drivers/STM32L0xx_HAL_Driver/Src/stm32l0xx_hal_rtc_ex.c ****   * @param  Timeout Timeout duration
1071:../../../../../../Drivers/STM32L0xx_HAL_Driver/Src/stm32l0xx_hal_rtc_ex.c ****   * @retval HAL status
1072:../../../../../../Drivers/STM32L0xx_HAL_Driver/Src/stm32l0xx_hal_rtc_ex.c ****   */
1073:../../../../../../Drivers/STM32L0xx_HAL_Driver/Src/stm32l0xx_hal_rtc_ex.c **** HAL_StatusTypeDef HAL_RTCEx_PollForTamper3Event(RTC_HandleTypeDef *hrtc, uint32_t Timeout)
1074:../../../../../../Drivers/STM32L0xx_HAL_Driver/Src/stm32l0xx_hal_rtc_ex.c **** {  
 1574              		.loc 1 1074 0
 1575              		.cfi_startproc
 1576              		@ args = 0, pretend = 0, frame = 0
 1577              		@ frame_needed = 0, uses_anonymous_args = 0
 1578              	.LVL105:
 1579 0000 F8B5     		push	{r3, r4, r5, r6, r7, lr}
 1580              	.LCFI15:
 1581              		.cfi_def_cfa_offset 24
 1582              		.cfi_offset 3, -24
 1583              		.cfi_offset 4, -20
 1584              		.cfi_offset 5, -16
 1585              		.cfi_offset 6, -12
 1586              		.cfi_offset 7, -8
 1587              		.cfi_offset 14, -4
 1588              		.loc 1 1074 0
 1589 0002 0500     		movs	r5, r0
 1590 0004 0C00     		movs	r4, r1
1075:../../../../../../Drivers/STM32L0xx_HAL_Driver/Src/stm32l0xx_hal_rtc_ex.c ****   uint32_t tickstart = HAL_GetTick();
 1591              		.loc 1 1075 0
 1592 0006 FFF7FEFF 		bl	HAL_GetTick
 1593              	.LVL106:
1076:../../../../../../Drivers/STM32L0xx_HAL_Driver/Src/stm32l0xx_hal_rtc_ex.c **** 
1077:../../../../../../Drivers/STM32L0xx_HAL_Driver/Src/stm32l0xx_hal_rtc_ex.c ****   /* Get the status of the Interrupt */
1078:../../../../../../Drivers/STM32L0xx_HAL_Driver/Src/stm32l0xx_hal_rtc_ex.c ****   while(__HAL_RTC_TAMPER_GET_FLAG(hrtc,RTC_FLAG_TAMP3F) == RESET)
 1594              		.loc 1 1078 0
 1595 000a 8026     		movs	r6, #128
1075:../../../../../../Drivers/STM32L0xx_HAL_Driver/Src/stm32l0xx_hal_rtc_ex.c ****   uint32_t tickstart = HAL_GetTick();
 1596              		.loc 1 1075 0
 1597 000c 0700     		movs	r7, r0
 1598              	.LVL107:
 1599              		.loc 1 1078 0
 1600 000e 3602     		lsls	r6, r6, #8
 1601              	.LVL108:
 1602              	.L189:
 1603 0010 2A68     		ldr	r2, [r5]
ARM GAS  C:\Users\EBANO_~1\AppData\Local\Temp\ccyPWgHX.s 			page 50


 1604 0012 631C     		adds	r3, r4, #1
 1605 0014 0FD1     		bne	.L193
 1606 0016 8021     		movs	r1, #128
 1607 0018 0902     		lsls	r1, r1, #8
 1608              	.L194:
 1609 001a D368     		ldr	r3, [r2, #12]
 1610 001c 0B42     		tst	r3, r1
 1611 001e FCD0     		beq	.L194
 1612              	.L195:
1079:../../../../../../Drivers/STM32L0xx_HAL_Driver/Src/stm32l0xx_hal_rtc_ex.c ****   {
1080:../../../../../../Drivers/STM32L0xx_HAL_Driver/Src/stm32l0xx_hal_rtc_ex.c ****     if(Timeout != HAL_MAX_DELAY)
1081:../../../../../../Drivers/STM32L0xx_HAL_Driver/Src/stm32l0xx_hal_rtc_ex.c ****     {
1082:../../../../../../Drivers/STM32L0xx_HAL_Driver/Src/stm32l0xx_hal_rtc_ex.c ****       if((Timeout == 0U) || ((HAL_GetTick()-tickstart) > Timeout))
1083:../../../../../../Drivers/STM32L0xx_HAL_Driver/Src/stm32l0xx_hal_rtc_ex.c ****       {
1084:../../../../../../Drivers/STM32L0xx_HAL_Driver/Src/stm32l0xx_hal_rtc_ex.c ****         hrtc->State = HAL_RTC_STATE_TIMEOUT;
1085:../../../../../../Drivers/STM32L0xx_HAL_Driver/Src/stm32l0xx_hal_rtc_ex.c ****         return HAL_TIMEOUT;
1086:../../../../../../Drivers/STM32L0xx_HAL_Driver/Src/stm32l0xx_hal_rtc_ex.c ****       }
1087:../../../../../../Drivers/STM32L0xx_HAL_Driver/Src/stm32l0xx_hal_rtc_ex.c ****     }
1088:../../../../../../Drivers/STM32L0xx_HAL_Driver/Src/stm32l0xx_hal_rtc_ex.c ****   }
1089:../../../../../../Drivers/STM32L0xx_HAL_Driver/Src/stm32l0xx_hal_rtc_ex.c **** 
1090:../../../../../../Drivers/STM32L0xx_HAL_Driver/Src/stm32l0xx_hal_rtc_ex.c ****   /* Clear the Tamper Flag */
1091:../../../../../../Drivers/STM32L0xx_HAL_Driver/Src/stm32l0xx_hal_rtc_ex.c ****   __HAL_RTC_TAMPER_CLEAR_FLAG(hrtc,RTC_FLAG_TAMP3F);
 1613              		.loc 1 1091 0
 1614 0020 FF23     		movs	r3, #255
 1615 0022 D168     		ldr	r1, [r2, #12]
1092:../../../../../../Drivers/STM32L0xx_HAL_Driver/Src/stm32l0xx_hal_rtc_ex.c **** 
1093:../../../../../../Drivers/STM32L0xx_HAL_Driver/Src/stm32l0xx_hal_rtc_ex.c ****   /* Change RTC state */
1094:../../../../../../Drivers/STM32L0xx_HAL_Driver/Src/stm32l0xx_hal_rtc_ex.c ****   hrtc->State = HAL_RTC_STATE_READY;
1095:../../../../../../Drivers/STM32L0xx_HAL_Driver/Src/stm32l0xx_hal_rtc_ex.c **** 
1096:../../../../../../Drivers/STM32L0xx_HAL_Driver/Src/stm32l0xx_hal_rtc_ex.c ****   return HAL_OK;
 1616              		.loc 1 1096 0
 1617 0024 0020     		movs	r0, #0
1091:../../../../../../Drivers/STM32L0xx_HAL_Driver/Src/stm32l0xx_hal_rtc_ex.c **** 
 1618              		.loc 1 1091 0
 1619 0026 1940     		ands	r1, r3
 1620 0028 0A4B     		ldr	r3, .L199
 1621 002a 0B43     		orrs	r3, r1
 1622 002c D360     		str	r3, [r2, #12]
1094:../../../../../../Drivers/STM32L0xx_HAL_Driver/Src/stm32l0xx_hal_rtc_ex.c **** 
 1623              		.loc 1 1094 0
 1624 002e 2123     		movs	r3, #33
 1625 0030 0122     		movs	r2, #1
 1626 0032 EA54     		strb	r2, [r5, r3]
 1627              	.L191:
1097:../../../../../../Drivers/STM32L0xx_HAL_Driver/Src/stm32l0xx_hal_rtc_ex.c **** }
 1628              		.loc 1 1097 0
 1629              		@ sp needed
 1630              	.LVL109:
 1631              	.LVL110:
 1632              	.LVL111:
 1633 0034 F8BD     		pop	{r3, r4, r5, r6, r7, pc}
 1634              	.LVL112:
 1635              	.L193:
1078:../../../../../../Drivers/STM32L0xx_HAL_Driver/Src/stm32l0xx_hal_rtc_ex.c ****   {
 1636              		.loc 1 1078 0
 1637 0036 D368     		ldr	r3, [r2, #12]
 1638 0038 3342     		tst	r3, r6
ARM GAS  C:\Users\EBANO_~1\AppData\Local\Temp\ccyPWgHX.s 			page 51


 1639 003a F1D1     		bne	.L195
1082:../../../../../../Drivers/STM32L0xx_HAL_Driver/Src/stm32l0xx_hal_rtc_ex.c ****       {
 1640              		.loc 1 1082 0
 1641 003c 002C     		cmp	r4, #0
 1642 003e 04D0     		beq	.L192
1082:../../../../../../Drivers/STM32L0xx_HAL_Driver/Src/stm32l0xx_hal_rtc_ex.c ****       {
 1643              		.loc 1 1082 0 is_stmt 0 discriminator 1
 1644 0040 FFF7FEFF 		bl	HAL_GetTick
 1645              	.LVL113:
 1646 0044 C01B     		subs	r0, r0, r7
 1647 0046 A042     		cmp	r0, r4
 1648 0048 E2D9     		bls	.L189
 1649              	.L192:
1084:../../../../../../Drivers/STM32L0xx_HAL_Driver/Src/stm32l0xx_hal_rtc_ex.c ****         return HAL_TIMEOUT;
 1650              		.loc 1 1084 0 is_stmt 1
 1651 004a 2123     		movs	r3, #33
 1652 004c 0322     		movs	r2, #3
1085:../../../../../../Drivers/STM32L0xx_HAL_Driver/Src/stm32l0xx_hal_rtc_ex.c ****       }
 1653              		.loc 1 1085 0
 1654 004e 0320     		movs	r0, #3
1084:../../../../../../Drivers/STM32L0xx_HAL_Driver/Src/stm32l0xx_hal_rtc_ex.c ****         return HAL_TIMEOUT;
 1655              		.loc 1 1084 0
 1656 0050 EA54     		strb	r2, [r5, r3]
1085:../../../../../../Drivers/STM32L0xx_HAL_Driver/Src/stm32l0xx_hal_rtc_ex.c ****       }
 1657              		.loc 1 1085 0
 1658 0052 EFE7     		b	.L191
 1659              	.L200:
 1660              		.align	2
 1661              	.L199:
 1662 0054 7F7FFFFF 		.word	-32897
 1663              		.cfi_endproc
 1664              	.LFE54:
 1665              		.size	HAL_RTCEx_PollForTamper3Event, .-HAL_RTCEx_PollForTamper3Event
 1666              		.section	.text.HAL_RTCEx_SetWakeUpTimer,"ax",%progbits
 1667              		.align	1
 1668              		.p2align 2,,3
 1669              		.global	HAL_RTCEx_SetWakeUpTimer
 1670              		.syntax unified
 1671              		.code	16
 1672              		.thumb_func
 1673              		.fpu softvfp
 1674              		.type	HAL_RTCEx_SetWakeUpTimer, %function
 1675              	HAL_RTCEx_SetWakeUpTimer:
 1676              	.LFB55:
1098:../../../../../../Drivers/STM32L0xx_HAL_Driver/Src/stm32l0xx_hal_rtc_ex.c **** #endif /* (STM32L083xx) || (STM32L082xx) || (STM32L081xx) ||
1099:../../../../../../Drivers/STM32L0xx_HAL_Driver/Src/stm32l0xx_hal_rtc_ex.c ****         * (STM32L073xx) || (STM32L072xx) || (STM32L071xx) ||
1100:../../../../../../Drivers/STM32L0xx_HAL_Driver/Src/stm32l0xx_hal_rtc_ex.c ****         * (STM32L031xx) || (STM32L041xx) || (STM32L011xx) ||
1101:../../../../../../Drivers/STM32L0xx_HAL_Driver/Src/stm32l0xx_hal_rtc_ex.c ****         * (STM32L021xx) || (STM32L010x4) || (STM32L010x6) ||
1102:../../../../../../Drivers/STM32L0xx_HAL_Driver/Src/stm32l0xx_hal_rtc_ex.c ****         * (STM32L010xB)
1103:../../../../../../Drivers/STM32L0xx_HAL_Driver/Src/stm32l0xx_hal_rtc_ex.c ****         */
1104:../../../../../../Drivers/STM32L0xx_HAL_Driver/Src/stm32l0xx_hal_rtc_ex.c **** 
1105:../../../../../../Drivers/STM32L0xx_HAL_Driver/Src/stm32l0xx_hal_rtc_ex.c **** /**
1106:../../../../../../Drivers/STM32L0xx_HAL_Driver/Src/stm32l0xx_hal_rtc_ex.c ****   * @}
1107:../../../../../../Drivers/STM32L0xx_HAL_Driver/Src/stm32l0xx_hal_rtc_ex.c ****   */
1108:../../../../../../Drivers/STM32L0xx_HAL_Driver/Src/stm32l0xx_hal_rtc_ex.c ****   
1109:../../../../../../Drivers/STM32L0xx_HAL_Driver/Src/stm32l0xx_hal_rtc_ex.c **** /** @addtogroup RTCEx_Exported_Functions_Group2
1110:../../../../../../Drivers/STM32L0xx_HAL_Driver/Src/stm32l0xx_hal_rtc_ex.c ****   * @brief    RTC Wake-up functions
ARM GAS  C:\Users\EBANO_~1\AppData\Local\Temp\ccyPWgHX.s 			page 52


1111:../../../../../../Drivers/STM32L0xx_HAL_Driver/Src/stm32l0xx_hal_rtc_ex.c ****   *
1112:../../../../../../Drivers/STM32L0xx_HAL_Driver/Src/stm32l0xx_hal_rtc_ex.c **** @verbatim   
1113:../../../../../../Drivers/STM32L0xx_HAL_Driver/Src/stm32l0xx_hal_rtc_ex.c ****  ===============================================================================
1114:../../../../../../Drivers/STM32L0xx_HAL_Driver/Src/stm32l0xx_hal_rtc_ex.c ****                         ##### RTC Wake-up functions #####
1115:../../../../../../Drivers/STM32L0xx_HAL_Driver/Src/stm32l0xx_hal_rtc_ex.c ****  ===============================================================================  
1116:../../../../../../Drivers/STM32L0xx_HAL_Driver/Src/stm32l0xx_hal_rtc_ex.c ****  
1117:../../../../../../Drivers/STM32L0xx_HAL_Driver/Src/stm32l0xx_hal_rtc_ex.c ****  [..] This section provides functions allowing to configure Wake-up feature
1118:../../../../../../Drivers/STM32L0xx_HAL_Driver/Src/stm32l0xx_hal_rtc_ex.c **** 
1119:../../../../../../Drivers/STM32L0xx_HAL_Driver/Src/stm32l0xx_hal_rtc_ex.c **** @endverbatim
1120:../../../../../../Drivers/STM32L0xx_HAL_Driver/Src/stm32l0xx_hal_rtc_ex.c ****   * @{
1121:../../../../../../Drivers/STM32L0xx_HAL_Driver/Src/stm32l0xx_hal_rtc_ex.c ****   */
1122:../../../../../../Drivers/STM32L0xx_HAL_Driver/Src/stm32l0xx_hal_rtc_ex.c **** 
1123:../../../../../../Drivers/STM32L0xx_HAL_Driver/Src/stm32l0xx_hal_rtc_ex.c **** /**
1124:../../../../../../Drivers/STM32L0xx_HAL_Driver/Src/stm32l0xx_hal_rtc_ex.c ****   * @brief  Set wake up timer.
1125:../../../../../../Drivers/STM32L0xx_HAL_Driver/Src/stm32l0xx_hal_rtc_ex.c ****   * @param  hrtc RTC handle
1126:../../../../../../Drivers/STM32L0xx_HAL_Driver/Src/stm32l0xx_hal_rtc_ex.c ****   * @param  WakeUpCounter Wake up counter
1127:../../../../../../Drivers/STM32L0xx_HAL_Driver/Src/stm32l0xx_hal_rtc_ex.c ****   * @param  WakeUpClock Wake up clock
1128:../../../../../../Drivers/STM32L0xx_HAL_Driver/Src/stm32l0xx_hal_rtc_ex.c ****   * @retval HAL status
1129:../../../../../../Drivers/STM32L0xx_HAL_Driver/Src/stm32l0xx_hal_rtc_ex.c ****   */
1130:../../../../../../Drivers/STM32L0xx_HAL_Driver/Src/stm32l0xx_hal_rtc_ex.c **** HAL_StatusTypeDef HAL_RTCEx_SetWakeUpTimer(RTC_HandleTypeDef *hrtc, uint32_t WakeUpCounter, uint32_
1131:../../../../../../Drivers/STM32L0xx_HAL_Driver/Src/stm32l0xx_hal_rtc_ex.c **** {
 1677              		.loc 1 1131 0
 1678              		.cfi_startproc
 1679              		@ args = 0, pretend = 0, frame = 0
 1680              		@ frame_needed = 0, uses_anonymous_args = 0
 1681              	.LVL114:
 1682 0000 F0B5     		push	{r4, r5, r6, r7, lr}
 1683              	.LCFI16:
 1684              		.cfi_def_cfa_offset 20
 1685              		.cfi_offset 4, -20
 1686              		.cfi_offset 5, -16
 1687              		.cfi_offset 6, -12
 1688              		.cfi_offset 7, -8
 1689              		.cfi_offset 14, -4
 1690 0002 D646     		mov	lr, r10
 1691 0004 4F46     		mov	r7, r9
 1692 0006 4646     		mov	r6, r8
1132:../../../../../../Drivers/STM32L0xx_HAL_Driver/Src/stm32l0xx_hal_rtc_ex.c ****   uint32_t tickstart = 0U;
1133:../../../../../../Drivers/STM32L0xx_HAL_Driver/Src/stm32l0xx_hal_rtc_ex.c **** 
1134:../../../../../../Drivers/STM32L0xx_HAL_Driver/Src/stm32l0xx_hal_rtc_ex.c ****   /* Check the parameters */
1135:../../../../../../Drivers/STM32L0xx_HAL_Driver/Src/stm32l0xx_hal_rtc_ex.c ****   assert_param(IS_RTC_WAKEUP_CLOCK(WakeUpClock));
1136:../../../../../../Drivers/STM32L0xx_HAL_Driver/Src/stm32l0xx_hal_rtc_ex.c ****   assert_param(IS_RTC_WAKEUP_COUNTER(WakeUpCounter));
1137:../../../../../../Drivers/STM32L0xx_HAL_Driver/Src/stm32l0xx_hal_rtc_ex.c **** 
1138:../../../../../../Drivers/STM32L0xx_HAL_Driver/Src/stm32l0xx_hal_rtc_ex.c ****   /* Process Locked */ 
1139:../../../../../../Drivers/STM32L0xx_HAL_Driver/Src/stm32l0xx_hal_rtc_ex.c ****   __HAL_LOCK(hrtc);
 1693              		.loc 1 1139 0
 1694 0008 2023     		movs	r3, #32
1131:../../../../../../Drivers/STM32L0xx_HAL_Driver/Src/stm32l0xx_hal_rtc_ex.c ****   uint32_t tickstart = 0U;
 1695              		.loc 1 1131 0
 1696 000a C0B5     		push	{r6, r7, lr}
 1697              	.LCFI17:
 1698              		.cfi_def_cfa_offset 32
 1699              		.cfi_offset 8, -32
 1700              		.cfi_offset 9, -28
 1701              		.cfi_offset 10, -24
1131:../../../../../../Drivers/STM32L0xx_HAL_Driver/Src/stm32l0xx_hal_rtc_ex.c ****   uint32_t tickstart = 0U;
 1702              		.loc 1 1131 0
ARM GAS  C:\Users\EBANO_~1\AppData\Local\Temp\ccyPWgHX.s 			page 53


 1703 000c 9246     		mov	r10, r2
 1704              		.loc 1 1139 0
 1705 000e C25C     		ldrb	r2, [r0, r3]
 1706              	.LVL115:
1131:../../../../../../Drivers/STM32L0xx_HAL_Driver/Src/stm32l0xx_hal_rtc_ex.c ****   uint32_t tickstart = 0U;
 1707              		.loc 1 1131 0
 1708 0010 0500     		movs	r5, r0
 1709 0012 8946     		mov	r9, r1
 1710              		.loc 1 1139 0
 1711 0014 012A     		cmp	r2, #1
 1712 0016 63D0     		beq	.L208
 1713              		.loc 1 1139 0 is_stmt 0 discriminator 2
 1714 0018 0122     		movs	r2, #1
 1715 001a C254     		strb	r2, [r0, r3]
1140:../../../../../../Drivers/STM32L0xx_HAL_Driver/Src/stm32l0xx_hal_rtc_ex.c **** 
1141:../../../../../../Drivers/STM32L0xx_HAL_Driver/Src/stm32l0xx_hal_rtc_ex.c ****   hrtc->State = HAL_RTC_STATE_BUSY;
 1716              		.loc 1 1141 0 is_stmt 1 discriminator 2
 1717 001c 0133     		adds	r3, r3, #1
 1718 001e 0132     		adds	r2, r2, #1
 1719 0020 C254     		strb	r2, [r0, r3]
1142:../../../../../../Drivers/STM32L0xx_HAL_Driver/Src/stm32l0xx_hal_rtc_ex.c **** 
1143:../../../../../../Drivers/STM32L0xx_HAL_Driver/Src/stm32l0xx_hal_rtc_ex.c ****   /* Disable the write protection for RTC registers */
1144:../../../../../../Drivers/STM32L0xx_HAL_Driver/Src/stm32l0xx_hal_rtc_ex.c ****   __HAL_RTC_WRITEPROTECTION_DISABLE(hrtc);
 1720              		.loc 1 1144 0 discriminator 2
 1721 0022 0368     		ldr	r3, [r0]
 1722 0024 C832     		adds	r2, r2, #200
 1723 0026 5A62     		str	r2, [r3, #36]
 1724 0028 773A     		subs	r2, r2, #119
 1725 002a 5A62     		str	r2, [r3, #36]
1145:../../../../../../Drivers/STM32L0xx_HAL_Driver/Src/stm32l0xx_hal_rtc_ex.c ****  
1146:../../../../../../Drivers/STM32L0xx_HAL_Driver/Src/stm32l0xx_hal_rtc_ex.c ****   /*Check RTC WUTWF flag is reset only when wake up timer enabled*/
1147:../../../../../../Drivers/STM32L0xx_HAL_Driver/Src/stm32l0xx_hal_rtc_ex.c ****   if((hrtc->Instance->CR & RTC_CR_WUTE) != RESET){
 1726              		.loc 1 1147 0 discriminator 2
 1727 002c 9A68     		ldr	r2, [r3, #8]
 1728 002e 5205     		lsls	r2, r2, #21
 1729 0030 0FD5     		bpl	.L203
1148:../../../../../../Drivers/STM32L0xx_HAL_Driver/Src/stm32l0xx_hal_rtc_ex.c ****     tickstart = HAL_GetTick();
 1730              		.loc 1 1148 0
 1731 0032 FFF7FEFF 		bl	HAL_GetTick
 1732              	.LVL116:
1149:../../../../../../Drivers/STM32L0xx_HAL_Driver/Src/stm32l0xx_hal_rtc_ex.c **** 
1150:../../../../../../Drivers/STM32L0xx_HAL_Driver/Src/stm32l0xx_hal_rtc_ex.c ****    /* Wait till RTC WUTWF flag is reset and if Time out is reached exit */
1151:../../../../../../Drivers/STM32L0xx_HAL_Driver/Src/stm32l0xx_hal_rtc_ex.c ****    while(__HAL_RTC_WAKEUPTIMER_GET_FLAG(hrtc, RTC_FLAG_WUTWF) == SET)
1152:../../../../../../Drivers/STM32L0xx_HAL_Driver/Src/stm32l0xx_hal_rtc_ex.c ****    {
1153:../../../../../../Drivers/STM32L0xx_HAL_Driver/Src/stm32l0xx_hal_rtc_ex.c ****     if((HAL_GetTick() - tickstart ) > RTC_TIMEOUT_VALUE)
 1733              		.loc 1 1153 0
 1734 0036 FA26     		movs	r6, #250
1148:../../../../../../Drivers/STM32L0xx_HAL_Driver/Src/stm32l0xx_hal_rtc_ex.c ****     tickstart = HAL_GetTick();
 1735              		.loc 1 1148 0
 1736 0038 0700     		movs	r7, r0
 1737              	.LVL117:
1151:../../../../../../Drivers/STM32L0xx_HAL_Driver/Src/stm32l0xx_hal_rtc_ex.c ****    {
 1738              		.loc 1 1151 0
 1739 003a 0424     		movs	r4, #4
 1740              		.loc 1 1153 0
 1741 003c B600     		lsls	r6, r6, #2
1151:../../../../../../Drivers/STM32L0xx_HAL_Driver/Src/stm32l0xx_hal_rtc_ex.c ****    {
ARM GAS  C:\Users\EBANO_~1\AppData\Local\Temp\ccyPWgHX.s 			page 54


 1742              		.loc 1 1151 0
 1743 003e 04E0     		b	.L204
 1744              	.LVL118:
 1745              	.L205:
 1746              		.loc 1 1153 0
 1747 0040 FFF7FEFF 		bl	HAL_GetTick
 1748              	.LVL119:
 1749 0044 C01B     		subs	r0, r0, r7
 1750 0046 B042     		cmp	r0, r6
 1751 0048 3FD8     		bhi	.L214
 1752              	.L204:
1151:../../../../../../Drivers/STM32L0xx_HAL_Driver/Src/stm32l0xx_hal_rtc_ex.c ****    {
 1753              		.loc 1 1151 0
 1754 004a 2B68     		ldr	r3, [r5]
 1755 004c DA68     		ldr	r2, [r3, #12]
 1756 004e 1442     		tst	r4, r2
 1757 0050 F6D1     		bne	.L205
 1758              	.LVL120:
 1759              	.L203:
1154:../../../../../../Drivers/STM32L0xx_HAL_Driver/Src/stm32l0xx_hal_rtc_ex.c ****       {
1155:../../../../../../Drivers/STM32L0xx_HAL_Driver/Src/stm32l0xx_hal_rtc_ex.c ****        /* Enable the write protection for RTC registers */
1156:../../../../../../Drivers/STM32L0xx_HAL_Driver/Src/stm32l0xx_hal_rtc_ex.c ****        __HAL_RTC_WRITEPROTECTION_ENABLE(hrtc);
1157:../../../../../../Drivers/STM32L0xx_HAL_Driver/Src/stm32l0xx_hal_rtc_ex.c **** 
1158:../../../../../../Drivers/STM32L0xx_HAL_Driver/Src/stm32l0xx_hal_rtc_ex.c ****        hrtc->State = HAL_RTC_STATE_TIMEOUT;
1159:../../../../../../Drivers/STM32L0xx_HAL_Driver/Src/stm32l0xx_hal_rtc_ex.c **** 
1160:../../../../../../Drivers/STM32L0xx_HAL_Driver/Src/stm32l0xx_hal_rtc_ex.c ****        /* Process Unlocked */ 
1161:../../../../../../Drivers/STM32L0xx_HAL_Driver/Src/stm32l0xx_hal_rtc_ex.c ****        __HAL_UNLOCK(hrtc);
1162:../../../../../../Drivers/STM32L0xx_HAL_Driver/Src/stm32l0xx_hal_rtc_ex.c **** 
1163:../../../../../../Drivers/STM32L0xx_HAL_Driver/Src/stm32l0xx_hal_rtc_ex.c ****        return HAL_TIMEOUT;
1164:../../../../../../Drivers/STM32L0xx_HAL_Driver/Src/stm32l0xx_hal_rtc_ex.c ****       }
1165:../../../../../../Drivers/STM32L0xx_HAL_Driver/Src/stm32l0xx_hal_rtc_ex.c ****     }
1166:../../../../../../Drivers/STM32L0xx_HAL_Driver/Src/stm32l0xx_hal_rtc_ex.c ****   }
1167:../../../../../../Drivers/STM32L0xx_HAL_Driver/Src/stm32l0xx_hal_rtc_ex.c **** 
1168:../../../../../../Drivers/STM32L0xx_HAL_Driver/Src/stm32l0xx_hal_rtc_ex.c ****   __HAL_RTC_WAKEUPTIMER_DISABLE(hrtc);
 1760              		.loc 1 1168 0
 1761 0052 9A68     		ldr	r2, [r3, #8]
 1762 0054 2349     		ldr	r1, .L216
1169:../../../../../../Drivers/STM32L0xx_HAL_Driver/Src/stm32l0xx_hal_rtc_ex.c **** 
1170:../../../../../../Drivers/STM32L0xx_HAL_Driver/Src/stm32l0xx_hal_rtc_ex.c ****   tickstart = HAL_GetTick();
1171:../../../../../../Drivers/STM32L0xx_HAL_Driver/Src/stm32l0xx_hal_rtc_ex.c **** 
1172:../../../../../../Drivers/STM32L0xx_HAL_Driver/Src/stm32l0xx_hal_rtc_ex.c ****   /* Wait till RTC WUTWF flag is set and if Time out is reached exit */
1173:../../../../../../Drivers/STM32L0xx_HAL_Driver/Src/stm32l0xx_hal_rtc_ex.c ****   while(__HAL_RTC_WAKEUPTIMER_GET_FLAG(hrtc, RTC_FLAG_WUTWF) == RESET)
1174:../../../../../../Drivers/STM32L0xx_HAL_Driver/Src/stm32l0xx_hal_rtc_ex.c ****   {
1175:../../../../../../Drivers/STM32L0xx_HAL_Driver/Src/stm32l0xx_hal_rtc_ex.c ****     if((HAL_GetTick() - tickstart ) > RTC_TIMEOUT_VALUE)
 1763              		.loc 1 1175 0
 1764 0056 FA27     		movs	r7, #250
1168:../../../../../../Drivers/STM32L0xx_HAL_Driver/Src/stm32l0xx_hal_rtc_ex.c **** 
 1765              		.loc 1 1168 0
 1766 0058 0A40     		ands	r2, r1
 1767 005a 9A60     		str	r2, [r3, #8]
1170:../../../../../../Drivers/STM32L0xx_HAL_Driver/Src/stm32l0xx_hal_rtc_ex.c **** 
 1768              		.loc 1 1170 0
 1769 005c FFF7FEFF 		bl	HAL_GetTick
 1770              	.LVL121:
1173:../../../../../../Drivers/STM32L0xx_HAL_Driver/Src/stm32l0xx_hal_rtc_ex.c ****   {
 1771              		.loc 1 1173 0
 1772 0060 0426     		movs	r6, #4
ARM GAS  C:\Users\EBANO_~1\AppData\Local\Temp\ccyPWgHX.s 			page 55


1170:../../../../../../Drivers/STM32L0xx_HAL_Driver/Src/stm32l0xx_hal_rtc_ex.c **** 
 1773              		.loc 1 1170 0
 1774 0062 8046     		mov	r8, r0
 1775              	.LVL122:
 1776              		.loc 1 1175 0
 1777 0064 BF00     		lsls	r7, r7, #2
1173:../../../../../../Drivers/STM32L0xx_HAL_Driver/Src/stm32l0xx_hal_rtc_ex.c ****   {
 1778              		.loc 1 1173 0
 1779 0066 05E0     		b	.L206
 1780              	.LVL123:
 1781              	.L207:
 1782              		.loc 1 1175 0
 1783 0068 FFF7FEFF 		bl	HAL_GetTick
 1784              	.LVL124:
 1785 006c 4346     		mov	r3, r8
 1786 006e C01A     		subs	r0, r0, r3
 1787 0070 B842     		cmp	r0, r7
 1788 0072 20D8     		bhi	.L215
 1789              	.L206:
1173:../../../../../../Drivers/STM32L0xx_HAL_Driver/Src/stm32l0xx_hal_rtc_ex.c ****   {
 1790              		.loc 1 1173 0
 1791 0074 2B68     		ldr	r3, [r5]
 1792 0076 DC68     		ldr	r4, [r3, #12]
 1793 0078 3440     		ands	r4, r6
 1794 007a F5D0     		beq	.L207
1176:../../../../../../Drivers/STM32L0xx_HAL_Driver/Src/stm32l0xx_hal_rtc_ex.c ****     {
1177:../../../../../../Drivers/STM32L0xx_HAL_Driver/Src/stm32l0xx_hal_rtc_ex.c ****       /* Enable the write protection for RTC registers */
1178:../../../../../../Drivers/STM32L0xx_HAL_Driver/Src/stm32l0xx_hal_rtc_ex.c ****       __HAL_RTC_WRITEPROTECTION_ENABLE(hrtc);
1179:../../../../../../Drivers/STM32L0xx_HAL_Driver/Src/stm32l0xx_hal_rtc_ex.c **** 
1180:../../../../../../Drivers/STM32L0xx_HAL_Driver/Src/stm32l0xx_hal_rtc_ex.c ****       hrtc->State = HAL_RTC_STATE_TIMEOUT;
1181:../../../../../../Drivers/STM32L0xx_HAL_Driver/Src/stm32l0xx_hal_rtc_ex.c **** 
1182:../../../../../../Drivers/STM32L0xx_HAL_Driver/Src/stm32l0xx_hal_rtc_ex.c ****       /* Process Unlocked */ 
1183:../../../../../../Drivers/STM32L0xx_HAL_Driver/Src/stm32l0xx_hal_rtc_ex.c ****       __HAL_UNLOCK(hrtc);
1184:../../../../../../Drivers/STM32L0xx_HAL_Driver/Src/stm32l0xx_hal_rtc_ex.c **** 
1185:../../../../../../Drivers/STM32L0xx_HAL_Driver/Src/stm32l0xx_hal_rtc_ex.c ****       return HAL_TIMEOUT;
1186:../../../../../../Drivers/STM32L0xx_HAL_Driver/Src/stm32l0xx_hal_rtc_ex.c ****     }
1187:../../../../../../Drivers/STM32L0xx_HAL_Driver/Src/stm32l0xx_hal_rtc_ex.c ****   }
1188:../../../../../../Drivers/STM32L0xx_HAL_Driver/Src/stm32l0xx_hal_rtc_ex.c **** 
1189:../../../../../../Drivers/STM32L0xx_HAL_Driver/Src/stm32l0xx_hal_rtc_ex.c ****   /* Clear the Wakeup Timer clock source bits in CR register */
1190:../../../../../../Drivers/STM32L0xx_HAL_Driver/Src/stm32l0xx_hal_rtc_ex.c ****   hrtc->Instance->CR &= (uint32_t)~RTC_CR_WUCKSEL;
 1795              		.loc 1 1190 0
 1796 007c 0721     		movs	r1, #7
 1797 007e 9A68     		ldr	r2, [r3, #8]
1191:../../../../../../Drivers/STM32L0xx_HAL_Driver/Src/stm32l0xx_hal_rtc_ex.c **** 
1192:../../../../../../Drivers/STM32L0xx_HAL_Driver/Src/stm32l0xx_hal_rtc_ex.c ****   /* Configure the clock source */
1193:../../../../../../Drivers/STM32L0xx_HAL_Driver/Src/stm32l0xx_hal_rtc_ex.c ****   hrtc->Instance->CR |= (uint32_t)WakeUpClock;
1194:../../../../../../Drivers/STM32L0xx_HAL_Driver/Src/stm32l0xx_hal_rtc_ex.c **** 
1195:../../../../../../Drivers/STM32L0xx_HAL_Driver/Src/stm32l0xx_hal_rtc_ex.c ****   /* Configure the Wakeup Timer counter */
1196:../../../../../../Drivers/STM32L0xx_HAL_Driver/Src/stm32l0xx_hal_rtc_ex.c ****   hrtc->Instance->WUTR = (uint32_t)WakeUpCounter;
1197:../../../../../../Drivers/STM32L0xx_HAL_Driver/Src/stm32l0xx_hal_rtc_ex.c **** 
1198:../../../../../../Drivers/STM32L0xx_HAL_Driver/Src/stm32l0xx_hal_rtc_ex.c ****    /* Enable the Wakeup Timer */
1199:../../../../../../Drivers/STM32L0xx_HAL_Driver/Src/stm32l0xx_hal_rtc_ex.c ****   __HAL_RTC_WAKEUPTIMER_ENABLE(hrtc);
1200:../../../../../../Drivers/STM32L0xx_HAL_Driver/Src/stm32l0xx_hal_rtc_ex.c **** 
1201:../../../../../../Drivers/STM32L0xx_HAL_Driver/Src/stm32l0xx_hal_rtc_ex.c ****   /* Enable the write protection for RTC registers */
1202:../../../../../../Drivers/STM32L0xx_HAL_Driver/Src/stm32l0xx_hal_rtc_ex.c ****   __HAL_RTC_WRITEPROTECTION_ENABLE(hrtc);
1203:../../../../../../Drivers/STM32L0xx_HAL_Driver/Src/stm32l0xx_hal_rtc_ex.c **** 
1204:../../../../../../Drivers/STM32L0xx_HAL_Driver/Src/stm32l0xx_hal_rtc_ex.c ****   hrtc->State = HAL_RTC_STATE_READY;
ARM GAS  C:\Users\EBANO_~1\AppData\Local\Temp\ccyPWgHX.s 			page 56


1205:../../../../../../Drivers/STM32L0xx_HAL_Driver/Src/stm32l0xx_hal_rtc_ex.c **** 
1206:../../../../../../Drivers/STM32L0xx_HAL_Driver/Src/stm32l0xx_hal_rtc_ex.c ****   /* Process Unlocked */
1207:../../../../../../Drivers/STM32L0xx_HAL_Driver/Src/stm32l0xx_hal_rtc_ex.c ****   __HAL_UNLOCK(hrtc);
1208:../../../../../../Drivers/STM32L0xx_HAL_Driver/Src/stm32l0xx_hal_rtc_ex.c **** 
1209:../../../../../../Drivers/STM32L0xx_HAL_Driver/Src/stm32l0xx_hal_rtc_ex.c ****   return HAL_OK;
 1798              		.loc 1 1209 0
 1799 0080 0020     		movs	r0, #0
1190:../../../../../../Drivers/STM32L0xx_HAL_Driver/Src/stm32l0xx_hal_rtc_ex.c **** 
 1800              		.loc 1 1190 0
 1801 0082 8A43     		bics	r2, r1
1193:../../../../../../Drivers/STM32L0xx_HAL_Driver/Src/stm32l0xx_hal_rtc_ex.c **** 
 1802              		.loc 1 1193 0
 1803 0084 5146     		mov	r1, r10
1190:../../../../../../Drivers/STM32L0xx_HAL_Driver/Src/stm32l0xx_hal_rtc_ex.c **** 
 1804              		.loc 1 1190 0
 1805 0086 9A60     		str	r2, [r3, #8]
1193:../../../../../../Drivers/STM32L0xx_HAL_Driver/Src/stm32l0xx_hal_rtc_ex.c **** 
 1806              		.loc 1 1193 0
 1807 0088 9A68     		ldr	r2, [r3, #8]
 1808 008a 0A43     		orrs	r2, r1
 1809 008c 9A60     		str	r2, [r3, #8]
1196:../../../../../../Drivers/STM32L0xx_HAL_Driver/Src/stm32l0xx_hal_rtc_ex.c **** 
 1810              		.loc 1 1196 0
 1811 008e 4A46     		mov	r2, r9
 1812 0090 5A61     		str	r2, [r3, #20]
1199:../../../../../../Drivers/STM32L0xx_HAL_Driver/Src/stm32l0xx_hal_rtc_ex.c **** 
 1813              		.loc 1 1199 0
 1814 0092 8022     		movs	r2, #128
 1815 0094 9968     		ldr	r1, [r3, #8]
 1816 0096 D200     		lsls	r2, r2, #3
 1817 0098 0A43     		orrs	r2, r1
 1818 009a 9A60     		str	r2, [r3, #8]
1202:../../../../../../Drivers/STM32L0xx_HAL_Driver/Src/stm32l0xx_hal_rtc_ex.c **** 
 1819              		.loc 1 1202 0
 1820 009c FF22     		movs	r2, #255
 1821 009e 5A62     		str	r2, [r3, #36]
1204:../../../../../../Drivers/STM32L0xx_HAL_Driver/Src/stm32l0xx_hal_rtc_ex.c **** 
 1822              		.loc 1 1204 0
 1823 00a0 2123     		movs	r3, #33
 1824 00a2 FE3A     		subs	r2, r2, #254
 1825 00a4 EA54     		strb	r2, [r5, r3]
1207:../../../../../../Drivers/STM32L0xx_HAL_Driver/Src/stm32l0xx_hal_rtc_ex.c **** 
 1826              		.loc 1 1207 0
 1827 00a6 0022     		movs	r2, #0
 1828 00a8 013B     		subs	r3, r3, #1
 1829 00aa EA54     		strb	r2, [r5, r3]
 1830              	.LVL125:
 1831              	.L202:
1210:../../../../../../Drivers/STM32L0xx_HAL_Driver/Src/stm32l0xx_hal_rtc_ex.c **** }
 1832              		.loc 1 1210 0
 1833              		@ sp needed
 1834              	.LVL126:
 1835              	.LVL127:
 1836              	.LVL128:
 1837 00ac 1CBC     		pop	{r2, r3, r4}
 1838 00ae 9046     		mov	r8, r2
 1839 00b0 9946     		mov	r9, r3
ARM GAS  C:\Users\EBANO_~1\AppData\Local\Temp\ccyPWgHX.s 			page 57


 1840 00b2 A246     		mov	r10, r4
 1841 00b4 F0BD     		pop	{r4, r5, r6, r7, pc}
 1842              	.LVL129:
 1843              	.L215:
1178:../../../../../../Drivers/STM32L0xx_HAL_Driver/Src/stm32l0xx_hal_rtc_ex.c **** 
 1844              		.loc 1 1178 0
 1845 00b6 FF22     		movs	r2, #255
 1846 00b8 2B68     		ldr	r3, [r5]
 1847              	.LVL130:
1185:../../../../../../Drivers/STM32L0xx_HAL_Driver/Src/stm32l0xx_hal_rtc_ex.c ****     }
 1848              		.loc 1 1185 0
 1849 00ba 0320     		movs	r0, #3
1178:../../../../../../Drivers/STM32L0xx_HAL_Driver/Src/stm32l0xx_hal_rtc_ex.c **** 
 1850              		.loc 1 1178 0
 1851 00bc 5A62     		str	r2, [r3, #36]
1180:../../../../../../Drivers/STM32L0xx_HAL_Driver/Src/stm32l0xx_hal_rtc_ex.c **** 
 1852              		.loc 1 1180 0
 1853 00be 2123     		movs	r3, #33
 1854 00c0 FC3A     		subs	r2, r2, #252
 1855 00c2 EA54     		strb	r2, [r5, r3]
1183:../../../../../../Drivers/STM32L0xx_HAL_Driver/Src/stm32l0xx_hal_rtc_ex.c **** 
 1856              		.loc 1 1183 0
 1857 00c4 013B     		subs	r3, r3, #1
 1858 00c6 EC54     		strb	r4, [r5, r3]
1185:../../../../../../Drivers/STM32L0xx_HAL_Driver/Src/stm32l0xx_hal_rtc_ex.c ****     }
 1859              		.loc 1 1185 0
 1860 00c8 F0E7     		b	.L202
 1861              	.LVL131:
 1862              	.L214:
1156:../../../../../../Drivers/STM32L0xx_HAL_Driver/Src/stm32l0xx_hal_rtc_ex.c **** 
 1863              		.loc 1 1156 0
 1864 00ca FF22     		movs	r2, #255
 1865 00cc 2B68     		ldr	r3, [r5]
1163:../../../../../../Drivers/STM32L0xx_HAL_Driver/Src/stm32l0xx_hal_rtc_ex.c ****       }
 1866              		.loc 1 1163 0
 1867 00ce 0320     		movs	r0, #3
1156:../../../../../../Drivers/STM32L0xx_HAL_Driver/Src/stm32l0xx_hal_rtc_ex.c **** 
 1868              		.loc 1 1156 0
 1869 00d0 5A62     		str	r2, [r3, #36]
1158:../../../../../../Drivers/STM32L0xx_HAL_Driver/Src/stm32l0xx_hal_rtc_ex.c **** 
 1870              		.loc 1 1158 0
 1871 00d2 2123     		movs	r3, #33
 1872 00d4 FC3A     		subs	r2, r2, #252
 1873 00d6 EA54     		strb	r2, [r5, r3]
1161:../../../../../../Drivers/STM32L0xx_HAL_Driver/Src/stm32l0xx_hal_rtc_ex.c **** 
 1874              		.loc 1 1161 0
 1875 00d8 0022     		movs	r2, #0
 1876 00da 013B     		subs	r3, r3, #1
 1877 00dc EA54     		strb	r2, [r5, r3]
1163:../../../../../../Drivers/STM32L0xx_HAL_Driver/Src/stm32l0xx_hal_rtc_ex.c ****       }
 1878              		.loc 1 1163 0
 1879 00de E5E7     		b	.L202
 1880              	.LVL132:
 1881              	.L208:
1139:../../../../../../Drivers/STM32L0xx_HAL_Driver/Src/stm32l0xx_hal_rtc_ex.c **** 
 1882              		.loc 1 1139 0
 1883 00e0 0220     		movs	r0, #2
ARM GAS  C:\Users\EBANO_~1\AppData\Local\Temp\ccyPWgHX.s 			page 58


 1884              	.LVL133:
 1885 00e2 E3E7     		b	.L202
 1886              	.L217:
 1887              		.align	2
 1888              	.L216:
 1889 00e4 FFFBFFFF 		.word	-1025
 1890              		.cfi_endproc
 1891              	.LFE55:
 1892              		.size	HAL_RTCEx_SetWakeUpTimer, .-HAL_RTCEx_SetWakeUpTimer
 1893              		.section	.text.HAL_RTCEx_SetWakeUpTimer_IT,"ax",%progbits
 1894              		.align	1
 1895              		.p2align 2,,3
 1896              		.global	HAL_RTCEx_SetWakeUpTimer_IT
 1897              		.syntax unified
 1898              		.code	16
 1899              		.thumb_func
 1900              		.fpu softvfp
 1901              		.type	HAL_RTCEx_SetWakeUpTimer_IT, %function
 1902              	HAL_RTCEx_SetWakeUpTimer_IT:
 1903              	.LFB56:
1211:../../../../../../Drivers/STM32L0xx_HAL_Driver/Src/stm32l0xx_hal_rtc_ex.c **** 
1212:../../../../../../Drivers/STM32L0xx_HAL_Driver/Src/stm32l0xx_hal_rtc_ex.c **** /**
1213:../../../../../../Drivers/STM32L0xx_HAL_Driver/Src/stm32l0xx_hal_rtc_ex.c ****   * @brief  Set wake up timer with interrupt.
1214:../../../../../../Drivers/STM32L0xx_HAL_Driver/Src/stm32l0xx_hal_rtc_ex.c ****   * @param  hrtc RTC handle
1215:../../../../../../Drivers/STM32L0xx_HAL_Driver/Src/stm32l0xx_hal_rtc_ex.c ****   * @param  WakeUpCounter Wake up counter
1216:../../../../../../Drivers/STM32L0xx_HAL_Driver/Src/stm32l0xx_hal_rtc_ex.c ****   * @param  WakeUpClock Wake up clock  
1217:../../../../../../Drivers/STM32L0xx_HAL_Driver/Src/stm32l0xx_hal_rtc_ex.c ****   * @retval HAL status
1218:../../../../../../Drivers/STM32L0xx_HAL_Driver/Src/stm32l0xx_hal_rtc_ex.c ****   */
1219:../../../../../../Drivers/STM32L0xx_HAL_Driver/Src/stm32l0xx_hal_rtc_ex.c **** HAL_StatusTypeDef HAL_RTCEx_SetWakeUpTimer_IT(RTC_HandleTypeDef *hrtc, uint32_t WakeUpCounter, uint
1220:../../../../../../Drivers/STM32L0xx_HAL_Driver/Src/stm32l0xx_hal_rtc_ex.c **** {
 1904              		.loc 1 1220 0
 1905              		.cfi_startproc
 1906              		@ args = 0, pretend = 0, frame = 0
 1907              		@ frame_needed = 0, uses_anonymous_args = 0
 1908              	.LVL134:
 1909 0000 F0B5     		push	{r4, r5, r6, r7, lr}
 1910              	.LCFI18:
 1911              		.cfi_def_cfa_offset 20
 1912              		.cfi_offset 4, -20
 1913              		.cfi_offset 5, -16
 1914              		.cfi_offset 6, -12
 1915              		.cfi_offset 7, -8
 1916              		.cfi_offset 14, -4
 1917 0002 D646     		mov	lr, r10
 1918 0004 4F46     		mov	r7, r9
 1919 0006 4646     		mov	r6, r8
1221:../../../../../../Drivers/STM32L0xx_HAL_Driver/Src/stm32l0xx_hal_rtc_ex.c ****   uint32_t tickstart = 0U;
1222:../../../../../../Drivers/STM32L0xx_HAL_Driver/Src/stm32l0xx_hal_rtc_ex.c **** 
1223:../../../../../../Drivers/STM32L0xx_HAL_Driver/Src/stm32l0xx_hal_rtc_ex.c ****   /* Check the parameters */
1224:../../../../../../Drivers/STM32L0xx_HAL_Driver/Src/stm32l0xx_hal_rtc_ex.c ****   assert_param(IS_RTC_WAKEUP_CLOCK(WakeUpClock));
1225:../../../../../../Drivers/STM32L0xx_HAL_Driver/Src/stm32l0xx_hal_rtc_ex.c ****   assert_param(IS_RTC_WAKEUP_COUNTER(WakeUpCounter));
1226:../../../../../../Drivers/STM32L0xx_HAL_Driver/Src/stm32l0xx_hal_rtc_ex.c **** 
1227:../../../../../../Drivers/STM32L0xx_HAL_Driver/Src/stm32l0xx_hal_rtc_ex.c ****   /* Process Locked */ 
1228:../../../../../../Drivers/STM32L0xx_HAL_Driver/Src/stm32l0xx_hal_rtc_ex.c ****   __HAL_LOCK(hrtc);
 1920              		.loc 1 1228 0
 1921 0008 2023     		movs	r3, #32
1220:../../../../../../Drivers/STM32L0xx_HAL_Driver/Src/stm32l0xx_hal_rtc_ex.c ****   uint32_t tickstart = 0U;
ARM GAS  C:\Users\EBANO_~1\AppData\Local\Temp\ccyPWgHX.s 			page 59


 1922              		.loc 1 1220 0
 1923 000a C0B5     		push	{r6, r7, lr}
 1924              	.LCFI19:
 1925              		.cfi_def_cfa_offset 32
 1926              		.cfi_offset 8, -32
 1927              		.cfi_offset 9, -28
 1928              		.cfi_offset 10, -24
1220:../../../../../../Drivers/STM32L0xx_HAL_Driver/Src/stm32l0xx_hal_rtc_ex.c ****   uint32_t tickstart = 0U;
 1929              		.loc 1 1220 0
 1930 000c 9146     		mov	r9, r2
 1931              		.loc 1 1228 0
 1932 000e C25C     		ldrb	r2, [r0, r3]
 1933              	.LVL135:
1220:../../../../../../Drivers/STM32L0xx_HAL_Driver/Src/stm32l0xx_hal_rtc_ex.c ****   uint32_t tickstart = 0U;
 1934              		.loc 1 1220 0
 1935 0010 0500     		movs	r5, r0
 1936 0012 8A46     		mov	r10, r1
 1937              		.loc 1 1228 0
 1938 0014 012A     		cmp	r2, #1
 1939 0016 00D1     		bne	.LCB1729
 1940 0018 77E0     		b	.L225	@long jump
 1941              	.LCB1729:
 1942              		.loc 1 1228 0 is_stmt 0 discriminator 2
 1943 001a 0122     		movs	r2, #1
 1944 001c C254     		strb	r2, [r0, r3]
1229:../../../../../../Drivers/STM32L0xx_HAL_Driver/Src/stm32l0xx_hal_rtc_ex.c **** 
1230:../../../../../../Drivers/STM32L0xx_HAL_Driver/Src/stm32l0xx_hal_rtc_ex.c ****   hrtc->State = HAL_RTC_STATE_BUSY;
 1945              		.loc 1 1230 0 is_stmt 1 discriminator 2
 1946 001e 0133     		adds	r3, r3, #1
 1947 0020 0132     		adds	r2, r2, #1
 1948 0022 C254     		strb	r2, [r0, r3]
1231:../../../../../../Drivers/STM32L0xx_HAL_Driver/Src/stm32l0xx_hal_rtc_ex.c **** 
1232:../../../../../../Drivers/STM32L0xx_HAL_Driver/Src/stm32l0xx_hal_rtc_ex.c ****   /* Disable the write protection for RTC registers */
1233:../../../../../../Drivers/STM32L0xx_HAL_Driver/Src/stm32l0xx_hal_rtc_ex.c ****   __HAL_RTC_WRITEPROTECTION_DISABLE(hrtc);
 1949              		.loc 1 1233 0 discriminator 2
 1950 0024 0368     		ldr	r3, [r0]
 1951 0026 C832     		adds	r2, r2, #200
 1952 0028 5A62     		str	r2, [r3, #36]
 1953 002a 773A     		subs	r2, r2, #119
 1954 002c 5A62     		str	r2, [r3, #36]
1234:../../../../../../Drivers/STM32L0xx_HAL_Driver/Src/stm32l0xx_hal_rtc_ex.c **** 
1235:../../../../../../Drivers/STM32L0xx_HAL_Driver/Src/stm32l0xx_hal_rtc_ex.c ****   /*Check RTC WUTWF flag is reset only when wake up timer enabled*/
1236:../../../../../../Drivers/STM32L0xx_HAL_Driver/Src/stm32l0xx_hal_rtc_ex.c ****   if((hrtc->Instance->CR & RTC_CR_WUTE) != RESET){
 1955              		.loc 1 1236 0 discriminator 2
 1956 002e 9A68     		ldr	r2, [r3, #8]
 1957 0030 5205     		lsls	r2, r2, #21
 1958 0032 0FD5     		bpl	.L220
1237:../../../../../../Drivers/STM32L0xx_HAL_Driver/Src/stm32l0xx_hal_rtc_ex.c ****     tickstart = HAL_GetTick();
 1959              		.loc 1 1237 0
 1960 0034 FFF7FEFF 		bl	HAL_GetTick
 1961              	.LVL136:
1238:../../../../../../Drivers/STM32L0xx_HAL_Driver/Src/stm32l0xx_hal_rtc_ex.c ****  
1239:../../../../../../Drivers/STM32L0xx_HAL_Driver/Src/stm32l0xx_hal_rtc_ex.c ****    /* Wait till RTC WUTWF flag is reset and if Time out is reached exit */
1240:../../../../../../Drivers/STM32L0xx_HAL_Driver/Src/stm32l0xx_hal_rtc_ex.c ****    while(__HAL_RTC_WAKEUPTIMER_GET_FLAG(hrtc, RTC_FLAG_WUTWF) == SET)
1241:../../../../../../Drivers/STM32L0xx_HAL_Driver/Src/stm32l0xx_hal_rtc_ex.c ****    {
1242:../../../../../../Drivers/STM32L0xx_HAL_Driver/Src/stm32l0xx_hal_rtc_ex.c ****     if((HAL_GetTick() - tickstart ) > RTC_TIMEOUT_VALUE)
 1962              		.loc 1 1242 0
ARM GAS  C:\Users\EBANO_~1\AppData\Local\Temp\ccyPWgHX.s 			page 60


 1963 0038 FA26     		movs	r6, #250
1237:../../../../../../Drivers/STM32L0xx_HAL_Driver/Src/stm32l0xx_hal_rtc_ex.c ****     tickstart = HAL_GetTick();
 1964              		.loc 1 1237 0
 1965 003a 0700     		movs	r7, r0
 1966              	.LVL137:
1240:../../../../../../Drivers/STM32L0xx_HAL_Driver/Src/stm32l0xx_hal_rtc_ex.c ****    {
 1967              		.loc 1 1240 0
 1968 003c 0424     		movs	r4, #4
 1969              		.loc 1 1242 0
 1970 003e B600     		lsls	r6, r6, #2
1240:../../../../../../Drivers/STM32L0xx_HAL_Driver/Src/stm32l0xx_hal_rtc_ex.c ****    {
 1971              		.loc 1 1240 0
 1972 0040 04E0     		b	.L221
 1973              	.LVL138:
 1974              	.L222:
 1975              		.loc 1 1242 0
 1976 0042 FFF7FEFF 		bl	HAL_GetTick
 1977              	.LVL139:
 1978 0046 C01B     		subs	r0, r0, r7
 1979 0048 B042     		cmp	r0, r6
 1980 004a 53D8     		bhi	.L231
 1981              	.L221:
1240:../../../../../../Drivers/STM32L0xx_HAL_Driver/Src/stm32l0xx_hal_rtc_ex.c ****    {
 1982              		.loc 1 1240 0
 1983 004c 2B68     		ldr	r3, [r5]
 1984 004e DA68     		ldr	r2, [r3, #12]
 1985 0050 1442     		tst	r4, r2
 1986 0052 F6D1     		bne	.L222
 1987              	.LVL140:
 1988              	.L220:
1243:../../../../../../Drivers/STM32L0xx_HAL_Driver/Src/stm32l0xx_hal_rtc_ex.c ****       {
1244:../../../../../../Drivers/STM32L0xx_HAL_Driver/Src/stm32l0xx_hal_rtc_ex.c ****        /* Enable the write protection for RTC registers */
1245:../../../../../../Drivers/STM32L0xx_HAL_Driver/Src/stm32l0xx_hal_rtc_ex.c ****        __HAL_RTC_WRITEPROTECTION_ENABLE(hrtc);
1246:../../../../../../Drivers/STM32L0xx_HAL_Driver/Src/stm32l0xx_hal_rtc_ex.c **** 
1247:../../../../../../Drivers/STM32L0xx_HAL_Driver/Src/stm32l0xx_hal_rtc_ex.c ****        hrtc->State = HAL_RTC_STATE_TIMEOUT;
1248:../../../../../../Drivers/STM32L0xx_HAL_Driver/Src/stm32l0xx_hal_rtc_ex.c **** 
1249:../../../../../../Drivers/STM32L0xx_HAL_Driver/Src/stm32l0xx_hal_rtc_ex.c ****        /* Process Unlocked */ 
1250:../../../../../../Drivers/STM32L0xx_HAL_Driver/Src/stm32l0xx_hal_rtc_ex.c ****        __HAL_UNLOCK(hrtc);
1251:../../../../../../Drivers/STM32L0xx_HAL_Driver/Src/stm32l0xx_hal_rtc_ex.c **** 
1252:../../../../../../Drivers/STM32L0xx_HAL_Driver/Src/stm32l0xx_hal_rtc_ex.c ****        return HAL_TIMEOUT;
1253:../../../../../../Drivers/STM32L0xx_HAL_Driver/Src/stm32l0xx_hal_rtc_ex.c ****       }
1254:../../../../../../Drivers/STM32L0xx_HAL_Driver/Src/stm32l0xx_hal_rtc_ex.c ****     }
1255:../../../../../../Drivers/STM32L0xx_HAL_Driver/Src/stm32l0xx_hal_rtc_ex.c ****   }
1256:../../../../../../Drivers/STM32L0xx_HAL_Driver/Src/stm32l0xx_hal_rtc_ex.c ****   /* Disable the Wake-Up timer */
1257:../../../../../../Drivers/STM32L0xx_HAL_Driver/Src/stm32l0xx_hal_rtc_ex.c ****   __HAL_RTC_WAKEUPTIMER_DISABLE(hrtc);
 1989              		.loc 1 1257 0
 1990 0054 9A68     		ldr	r2, [r3, #8]
 1991 0056 2E49     		ldr	r1, .L233
1258:../../../../../../Drivers/STM32L0xx_HAL_Driver/Src/stm32l0xx_hal_rtc_ex.c **** 
1259:../../../../../../Drivers/STM32L0xx_HAL_Driver/Src/stm32l0xx_hal_rtc_ex.c ****   /* Clear flag Wake-Up */
1260:../../../../../../Drivers/STM32L0xx_HAL_Driver/Src/stm32l0xx_hal_rtc_ex.c ****   __HAL_RTC_WAKEUPTIMER_CLEAR_FLAG(hrtc, RTC_FLAG_WUTF);
1261:../../../../../../Drivers/STM32L0xx_HAL_Driver/Src/stm32l0xx_hal_rtc_ex.c **** 
1262:../../../../../../Drivers/STM32L0xx_HAL_Driver/Src/stm32l0xx_hal_rtc_ex.c ****   tickstart = HAL_GetTick();
1263:../../../../../../Drivers/STM32L0xx_HAL_Driver/Src/stm32l0xx_hal_rtc_ex.c **** 
1264:../../../../../../Drivers/STM32L0xx_HAL_Driver/Src/stm32l0xx_hal_rtc_ex.c ****   /* Wait till RTC WUTWF flag is set and if Time out is reached exit */
1265:../../../../../../Drivers/STM32L0xx_HAL_Driver/Src/stm32l0xx_hal_rtc_ex.c ****   while(__HAL_RTC_WAKEUPTIMER_GET_FLAG(hrtc, RTC_FLAG_WUTWF) == RESET)
1266:../../../../../../Drivers/STM32L0xx_HAL_Driver/Src/stm32l0xx_hal_rtc_ex.c ****   {
ARM GAS  C:\Users\EBANO_~1\AppData\Local\Temp\ccyPWgHX.s 			page 61


1267:../../../../../../Drivers/STM32L0xx_HAL_Driver/Src/stm32l0xx_hal_rtc_ex.c ****     if((HAL_GetTick() - tickstart ) > RTC_TIMEOUT_VALUE)
 1992              		.loc 1 1267 0
 1993 0058 FA27     		movs	r7, #250
1257:../../../../../../Drivers/STM32L0xx_HAL_Driver/Src/stm32l0xx_hal_rtc_ex.c **** 
 1994              		.loc 1 1257 0
 1995 005a 0A40     		ands	r2, r1
 1996 005c 9A60     		str	r2, [r3, #8]
1260:../../../../../../Drivers/STM32L0xx_HAL_Driver/Src/stm32l0xx_hal_rtc_ex.c **** 
 1997              		.loc 1 1260 0
 1998 005e FF22     		movs	r2, #255
 1999 0060 D968     		ldr	r1, [r3, #12]
1265:../../../../../../Drivers/STM32L0xx_HAL_Driver/Src/stm32l0xx_hal_rtc_ex.c ****   {
 2000              		.loc 1 1265 0
 2001 0062 0426     		movs	r6, #4
1260:../../../../../../Drivers/STM32L0xx_HAL_Driver/Src/stm32l0xx_hal_rtc_ex.c **** 
 2002              		.loc 1 1260 0
 2003 0064 1140     		ands	r1, r2
 2004 0066 2B4A     		ldr	r2, .L233+4
 2005              		.loc 1 1267 0
 2006 0068 BF00     		lsls	r7, r7, #2
1260:../../../../../../Drivers/STM32L0xx_HAL_Driver/Src/stm32l0xx_hal_rtc_ex.c **** 
 2007              		.loc 1 1260 0
 2008 006a 0A43     		orrs	r2, r1
 2009 006c DA60     		str	r2, [r3, #12]
1262:../../../../../../Drivers/STM32L0xx_HAL_Driver/Src/stm32l0xx_hal_rtc_ex.c **** 
 2010              		.loc 1 1262 0
 2011 006e FFF7FEFF 		bl	HAL_GetTick
 2012              	.LVL141:
 2013 0072 8046     		mov	r8, r0
 2014              	.LVL142:
1265:../../../../../../Drivers/STM32L0xx_HAL_Driver/Src/stm32l0xx_hal_rtc_ex.c ****   {
 2015              		.loc 1 1265 0
 2016 0074 05E0     		b	.L223
 2017              	.LVL143:
 2018              	.L224:
 2019              		.loc 1 1267 0
 2020 0076 FFF7FEFF 		bl	HAL_GetTick
 2021              	.LVL144:
 2022 007a 4346     		mov	r3, r8
 2023 007c C01A     		subs	r0, r0, r3
 2024 007e B842     		cmp	r0, r7
 2025 0080 2ED8     		bhi	.L232
 2026              	.L223:
1265:../../../../../../Drivers/STM32L0xx_HAL_Driver/Src/stm32l0xx_hal_rtc_ex.c ****   {
 2027              		.loc 1 1265 0
 2028 0082 2B68     		ldr	r3, [r5]
 2029 0084 DC68     		ldr	r4, [r3, #12]
 2030 0086 3440     		ands	r4, r6
 2031 0088 F5D0     		beq	.L224
1268:../../../../../../Drivers/STM32L0xx_HAL_Driver/Src/stm32l0xx_hal_rtc_ex.c ****     {
1269:../../../../../../Drivers/STM32L0xx_HAL_Driver/Src/stm32l0xx_hal_rtc_ex.c ****       /* Enable the write protection for RTC registers */
1270:../../../../../../Drivers/STM32L0xx_HAL_Driver/Src/stm32l0xx_hal_rtc_ex.c ****       __HAL_RTC_WRITEPROTECTION_ENABLE(hrtc);
1271:../../../../../../Drivers/STM32L0xx_HAL_Driver/Src/stm32l0xx_hal_rtc_ex.c **** 
1272:../../../../../../Drivers/STM32L0xx_HAL_Driver/Src/stm32l0xx_hal_rtc_ex.c ****       hrtc->State = HAL_RTC_STATE_TIMEOUT; 
1273:../../../../../../Drivers/STM32L0xx_HAL_Driver/Src/stm32l0xx_hal_rtc_ex.c **** 
1274:../../../../../../Drivers/STM32L0xx_HAL_Driver/Src/stm32l0xx_hal_rtc_ex.c ****       /* Process Unlocked */ 
1275:../../../../../../Drivers/STM32L0xx_HAL_Driver/Src/stm32l0xx_hal_rtc_ex.c ****       __HAL_UNLOCK(hrtc);
ARM GAS  C:\Users\EBANO_~1\AppData\Local\Temp\ccyPWgHX.s 			page 62


1276:../../../../../../Drivers/STM32L0xx_HAL_Driver/Src/stm32l0xx_hal_rtc_ex.c **** 
1277:../../../../../../Drivers/STM32L0xx_HAL_Driver/Src/stm32l0xx_hal_rtc_ex.c ****       return HAL_TIMEOUT;
1278:../../../../../../Drivers/STM32L0xx_HAL_Driver/Src/stm32l0xx_hal_rtc_ex.c ****     }
1279:../../../../../../Drivers/STM32L0xx_HAL_Driver/Src/stm32l0xx_hal_rtc_ex.c ****   }
1280:../../../../../../Drivers/STM32L0xx_HAL_Driver/Src/stm32l0xx_hal_rtc_ex.c **** 
1281:../../../../../../Drivers/STM32L0xx_HAL_Driver/Src/stm32l0xx_hal_rtc_ex.c ****   /* Configure the Wakeup Timer counter */
1282:../../../../../../Drivers/STM32L0xx_HAL_Driver/Src/stm32l0xx_hal_rtc_ex.c ****   hrtc->Instance->WUTR = (uint32_t)WakeUpCounter;
 2032              		.loc 1 1282 0
 2033 008a 5246     		mov	r2, r10
1283:../../../../../../Drivers/STM32L0xx_HAL_Driver/Src/stm32l0xx_hal_rtc_ex.c **** 
1284:../../../../../../Drivers/STM32L0xx_HAL_Driver/Src/stm32l0xx_hal_rtc_ex.c ****   /* Clear the Wakeup Timer clock source bits in CR register */
1285:../../../../../../Drivers/STM32L0xx_HAL_Driver/Src/stm32l0xx_hal_rtc_ex.c ****   hrtc->Instance->CR &= (uint32_t)~RTC_CR_WUCKSEL;
 2034              		.loc 1 1285 0
 2035 008c 0721     		movs	r1, #7
1282:../../../../../../Drivers/STM32L0xx_HAL_Driver/Src/stm32l0xx_hal_rtc_ex.c **** 
 2036              		.loc 1 1282 0
 2037 008e 5A61     		str	r2, [r3, #20]
 2038              		.loc 1 1285 0
 2039 0090 9A68     		ldr	r2, [r3, #8]
 2040 0092 8A43     		bics	r2, r1
1286:../../../../../../Drivers/STM32L0xx_HAL_Driver/Src/stm32l0xx_hal_rtc_ex.c **** 
1287:../../../../../../Drivers/STM32L0xx_HAL_Driver/Src/stm32l0xx_hal_rtc_ex.c ****   /* Configure the clock source */
1288:../../../../../../Drivers/STM32L0xx_HAL_Driver/Src/stm32l0xx_hal_rtc_ex.c ****   hrtc->Instance->CR |= (uint32_t)WakeUpClock;
 2041              		.loc 1 1288 0
 2042 0094 4946     		mov	r1, r9
1285:../../../../../../Drivers/STM32L0xx_HAL_Driver/Src/stm32l0xx_hal_rtc_ex.c **** 
 2043              		.loc 1 1285 0
 2044 0096 9A60     		str	r2, [r3, #8]
 2045              		.loc 1 1288 0
 2046 0098 9A68     		ldr	r2, [r3, #8]
 2047 009a 0A43     		orrs	r2, r1
1289:../../../../../../Drivers/STM32L0xx_HAL_Driver/Src/stm32l0xx_hal_rtc_ex.c **** 
1290:../../../../../../Drivers/STM32L0xx_HAL_Driver/Src/stm32l0xx_hal_rtc_ex.c ****   /* RTC WakeUpTimer Interrupt Configuration: EXTI configuration */
1291:../../../../../../Drivers/STM32L0xx_HAL_Driver/Src/stm32l0xx_hal_rtc_ex.c ****   __HAL_RTC_WAKEUPTIMER_EXTI_ENABLE_IT();
 2048              		.loc 1 1291 0
 2049 009c 8021     		movs	r1, #128
1288:../../../../../../Drivers/STM32L0xx_HAL_Driver/Src/stm32l0xx_hal_rtc_ex.c **** 
 2050              		.loc 1 1288 0
 2051 009e 9A60     		str	r2, [r3, #8]
 2052              		.loc 1 1291 0
 2053 00a0 1D4A     		ldr	r2, .L233+8
 2054 00a2 4903     		lsls	r1, r1, #13
 2055 00a4 1068     		ldr	r0, [r2]
 2056 00a6 0843     		orrs	r0, r1
 2057 00a8 1060     		str	r0, [r2]
1292:../../../../../../Drivers/STM32L0xx_HAL_Driver/Src/stm32l0xx_hal_rtc_ex.c **** 
1293:../../../../../../Drivers/STM32L0xx_HAL_Driver/Src/stm32l0xx_hal_rtc_ex.c ****   __HAL_RTC_WAKEUPTIMER_EXTI_ENABLE_RISING_EDGE();
 2058              		.loc 1 1293 0
 2059 00aa 9068     		ldr	r0, [r2, #8]
 2060 00ac 0143     		orrs	r1, r0
 2061 00ae 9160     		str	r1, [r2, #8]
1294:../../../../../../Drivers/STM32L0xx_HAL_Driver/Src/stm32l0xx_hal_rtc_ex.c **** 
1295:../../../../../../Drivers/STM32L0xx_HAL_Driver/Src/stm32l0xx_hal_rtc_ex.c ****   /* Configure the Interrupt in the RTC_CR register */
1296:../../../../../../Drivers/STM32L0xx_HAL_Driver/Src/stm32l0xx_hal_rtc_ex.c ****   __HAL_RTC_WAKEUPTIMER_ENABLE_IT(hrtc,RTC_IT_WUT);
 2062              		.loc 1 1296 0
 2063 00b0 8022     		movs	r2, #128
 2064 00b2 9968     		ldr	r1, [r3, #8]
ARM GAS  C:\Users\EBANO_~1\AppData\Local\Temp\ccyPWgHX.s 			page 63


 2065 00b4 D201     		lsls	r2, r2, #7
 2066 00b6 0A43     		orrs	r2, r1
 2067 00b8 9A60     		str	r2, [r3, #8]
1297:../../../../../../Drivers/STM32L0xx_HAL_Driver/Src/stm32l0xx_hal_rtc_ex.c ****   
1298:../../../../../../Drivers/STM32L0xx_HAL_Driver/Src/stm32l0xx_hal_rtc_ex.c ****   /* Enable the Wakeup Timer */
1299:../../../../../../Drivers/STM32L0xx_HAL_Driver/Src/stm32l0xx_hal_rtc_ex.c ****   __HAL_RTC_WAKEUPTIMER_ENABLE(hrtc);
 2068              		.loc 1 1299 0
 2069 00ba 8022     		movs	r2, #128
 2070 00bc 9968     		ldr	r1, [r3, #8]
 2071 00be D200     		lsls	r2, r2, #3
 2072 00c0 0A43     		orrs	r2, r1
 2073 00c2 9A60     		str	r2, [r3, #8]
1300:../../../../../../Drivers/STM32L0xx_HAL_Driver/Src/stm32l0xx_hal_rtc_ex.c **** 
1301:../../../../../../Drivers/STM32L0xx_HAL_Driver/Src/stm32l0xx_hal_rtc_ex.c ****   /* Enable the write protection for RTC registers */
1302:../../../../../../Drivers/STM32L0xx_HAL_Driver/Src/stm32l0xx_hal_rtc_ex.c ****   __HAL_RTC_WRITEPROTECTION_ENABLE(hrtc);
 2074              		.loc 1 1302 0
 2075 00c4 FF22     		movs	r2, #255
 2076 00c6 5A62     		str	r2, [r3, #36]
1303:../../../../../../Drivers/STM32L0xx_HAL_Driver/Src/stm32l0xx_hal_rtc_ex.c **** 
1304:../../../../../../Drivers/STM32L0xx_HAL_Driver/Src/stm32l0xx_hal_rtc_ex.c ****   hrtc->State = HAL_RTC_STATE_READY; 
 2077              		.loc 1 1304 0
 2078 00c8 2123     		movs	r3, #33
 2079 00ca FE3A     		subs	r2, r2, #254
 2080 00cc EA54     		strb	r2, [r5, r3]
1305:../../../../../../Drivers/STM32L0xx_HAL_Driver/Src/stm32l0xx_hal_rtc_ex.c **** 
1306:../../../../../../Drivers/STM32L0xx_HAL_Driver/Src/stm32l0xx_hal_rtc_ex.c ****   /* Process Unlocked */
1307:../../../../../../Drivers/STM32L0xx_HAL_Driver/Src/stm32l0xx_hal_rtc_ex.c ****   __HAL_UNLOCK(hrtc);
 2081              		.loc 1 1307 0
 2082 00ce 0022     		movs	r2, #0
1308:../../../../../../Drivers/STM32L0xx_HAL_Driver/Src/stm32l0xx_hal_rtc_ex.c **** 
1309:../../../../../../Drivers/STM32L0xx_HAL_Driver/Src/stm32l0xx_hal_rtc_ex.c ****   return HAL_OK;
 2083              		.loc 1 1309 0
 2084 00d0 0020     		movs	r0, #0
1307:../../../../../../Drivers/STM32L0xx_HAL_Driver/Src/stm32l0xx_hal_rtc_ex.c **** 
 2085              		.loc 1 1307 0
 2086 00d2 013B     		subs	r3, r3, #1
 2087 00d4 EA54     		strb	r2, [r5, r3]
 2088              	.LVL145:
 2089              	.L219:
1310:../../../../../../Drivers/STM32L0xx_HAL_Driver/Src/stm32l0xx_hal_rtc_ex.c **** }
 2090              		.loc 1 1310 0
 2091              		@ sp needed
 2092              	.LVL146:
 2093              	.LVL147:
 2094              	.LVL148:
 2095 00d6 1CBC     		pop	{r2, r3, r4}
 2096 00d8 9046     		mov	r8, r2
 2097 00da 9946     		mov	r9, r3
 2098 00dc A246     		mov	r10, r4
 2099 00de F0BD     		pop	{r4, r5, r6, r7, pc}
 2100              	.LVL149:
 2101              	.L232:
1270:../../../../../../Drivers/STM32L0xx_HAL_Driver/Src/stm32l0xx_hal_rtc_ex.c **** 
 2102              		.loc 1 1270 0
 2103 00e0 FF22     		movs	r2, #255
 2104 00e2 2B68     		ldr	r3, [r5]
 2105              	.LVL150:
ARM GAS  C:\Users\EBANO_~1\AppData\Local\Temp\ccyPWgHX.s 			page 64


1277:../../../../../../Drivers/STM32L0xx_HAL_Driver/Src/stm32l0xx_hal_rtc_ex.c ****     }
 2106              		.loc 1 1277 0
 2107 00e4 0320     		movs	r0, #3
1270:../../../../../../Drivers/STM32L0xx_HAL_Driver/Src/stm32l0xx_hal_rtc_ex.c **** 
 2108              		.loc 1 1270 0
 2109 00e6 5A62     		str	r2, [r3, #36]
1272:../../../../../../Drivers/STM32L0xx_HAL_Driver/Src/stm32l0xx_hal_rtc_ex.c **** 
 2110              		.loc 1 1272 0
 2111 00e8 2123     		movs	r3, #33
 2112 00ea FC3A     		subs	r2, r2, #252
 2113 00ec EA54     		strb	r2, [r5, r3]
1275:../../../../../../Drivers/STM32L0xx_HAL_Driver/Src/stm32l0xx_hal_rtc_ex.c **** 
 2114              		.loc 1 1275 0
 2115 00ee 013B     		subs	r3, r3, #1
 2116 00f0 EC54     		strb	r4, [r5, r3]
1277:../../../../../../Drivers/STM32L0xx_HAL_Driver/Src/stm32l0xx_hal_rtc_ex.c ****     }
 2117              		.loc 1 1277 0
 2118 00f2 F0E7     		b	.L219
 2119              	.LVL151:
 2120              	.L231:
1245:../../../../../../Drivers/STM32L0xx_HAL_Driver/Src/stm32l0xx_hal_rtc_ex.c **** 
 2121              		.loc 1 1245 0
 2122 00f4 FF22     		movs	r2, #255
 2123 00f6 2B68     		ldr	r3, [r5]
1252:../../../../../../Drivers/STM32L0xx_HAL_Driver/Src/stm32l0xx_hal_rtc_ex.c ****       }
 2124              		.loc 1 1252 0
 2125 00f8 0320     		movs	r0, #3
1245:../../../../../../Drivers/STM32L0xx_HAL_Driver/Src/stm32l0xx_hal_rtc_ex.c **** 
 2126              		.loc 1 1245 0
 2127 00fa 5A62     		str	r2, [r3, #36]
1247:../../../../../../Drivers/STM32L0xx_HAL_Driver/Src/stm32l0xx_hal_rtc_ex.c **** 
 2128              		.loc 1 1247 0
 2129 00fc 2123     		movs	r3, #33
 2130 00fe FC3A     		subs	r2, r2, #252
 2131 0100 EA54     		strb	r2, [r5, r3]
1250:../../../../../../Drivers/STM32L0xx_HAL_Driver/Src/stm32l0xx_hal_rtc_ex.c **** 
 2132              		.loc 1 1250 0
 2133 0102 0022     		movs	r2, #0
 2134 0104 013B     		subs	r3, r3, #1
 2135 0106 EA54     		strb	r2, [r5, r3]
1252:../../../../../../Drivers/STM32L0xx_HAL_Driver/Src/stm32l0xx_hal_rtc_ex.c ****       }
 2136              		.loc 1 1252 0
 2137 0108 E5E7     		b	.L219
 2138              	.LVL152:
 2139              	.L225:
1228:../../../../../../Drivers/STM32L0xx_HAL_Driver/Src/stm32l0xx_hal_rtc_ex.c **** 
 2140              		.loc 1 1228 0
 2141 010a 0220     		movs	r0, #2
 2142              	.LVL153:
 2143 010c E3E7     		b	.L219
 2144              	.L234:
 2145 010e C046     		.align	2
 2146              	.L233:
 2147 0110 FFFBFFFF 		.word	-1025
 2148 0114 7FFBFFFF 		.word	-1153
 2149 0118 00040140 		.word	1073808384
 2150              		.cfi_endproc
ARM GAS  C:\Users\EBANO_~1\AppData\Local\Temp\ccyPWgHX.s 			page 65


 2151              	.LFE56:
 2152              		.size	HAL_RTCEx_SetWakeUpTimer_IT, .-HAL_RTCEx_SetWakeUpTimer_IT
 2153              		.section	.text.HAL_RTCEx_DeactivateWakeUpTimer,"ax",%progbits
 2154              		.align	1
 2155              		.p2align 2,,3
 2156              		.global	HAL_RTCEx_DeactivateWakeUpTimer
 2157              		.syntax unified
 2158              		.code	16
 2159              		.thumb_func
 2160              		.fpu softvfp
 2161              		.type	HAL_RTCEx_DeactivateWakeUpTimer, %function
 2162              	HAL_RTCEx_DeactivateWakeUpTimer:
 2163              	.LFB57:
1311:../../../../../../Drivers/STM32L0xx_HAL_Driver/Src/stm32l0xx_hal_rtc_ex.c **** 
1312:../../../../../../Drivers/STM32L0xx_HAL_Driver/Src/stm32l0xx_hal_rtc_ex.c **** /**
1313:../../../../../../Drivers/STM32L0xx_HAL_Driver/Src/stm32l0xx_hal_rtc_ex.c ****   * @brief  Deactivate wake up timer counter.
1314:../../../../../../Drivers/STM32L0xx_HAL_Driver/Src/stm32l0xx_hal_rtc_ex.c ****   * @param  hrtc RTC handle 
1315:../../../../../../Drivers/STM32L0xx_HAL_Driver/Src/stm32l0xx_hal_rtc_ex.c ****   * @retval HAL status
1316:../../../../../../Drivers/STM32L0xx_HAL_Driver/Src/stm32l0xx_hal_rtc_ex.c ****   */
1317:../../../../../../Drivers/STM32L0xx_HAL_Driver/Src/stm32l0xx_hal_rtc_ex.c **** uint32_t HAL_RTCEx_DeactivateWakeUpTimer(RTC_HandleTypeDef *hrtc)
1318:../../../../../../Drivers/STM32L0xx_HAL_Driver/Src/stm32l0xx_hal_rtc_ex.c **** {
 2164              		.loc 1 1318 0
 2165              		.cfi_startproc
 2166              		@ args = 0, pretend = 0, frame = 0
 2167              		@ frame_needed = 0, uses_anonymous_args = 0
 2168              	.LVL154:
 2169 0000 F0B5     		push	{r4, r5, r6, r7, lr}
 2170              	.LCFI20:
 2171              		.cfi_def_cfa_offset 20
 2172              		.cfi_offset 4, -20
 2173              		.cfi_offset 5, -16
 2174              		.cfi_offset 6, -12
 2175              		.cfi_offset 7, -8
 2176              		.cfi_offset 14, -4
 2177 0002 C646     		mov	lr, r8
1319:../../../../../../Drivers/STM32L0xx_HAL_Driver/Src/stm32l0xx_hal_rtc_ex.c ****   uint32_t tickstart = 0U;
1320:../../../../../../Drivers/STM32L0xx_HAL_Driver/Src/stm32l0xx_hal_rtc_ex.c **** 
1321:../../../../../../Drivers/STM32L0xx_HAL_Driver/Src/stm32l0xx_hal_rtc_ex.c ****   /* Process Locked */ 
1322:../../../../../../Drivers/STM32L0xx_HAL_Driver/Src/stm32l0xx_hal_rtc_ex.c ****   __HAL_LOCK(hrtc);
 2178              		.loc 1 1322 0
 2179 0004 2023     		movs	r3, #32
1318:../../../../../../Drivers/STM32L0xx_HAL_Driver/Src/stm32l0xx_hal_rtc_ex.c ****   uint32_t tickstart = 0U;
 2180              		.loc 1 1318 0
 2181 0006 00B5     		push	{lr}
 2182              	.LCFI21:
 2183              		.cfi_def_cfa_offset 24
 2184              		.cfi_offset 8, -24
 2185              		.loc 1 1322 0
 2186 0008 C25C     		ldrb	r2, [r0, r3]
1318:../../../../../../Drivers/STM32L0xx_HAL_Driver/Src/stm32l0xx_hal_rtc_ex.c ****   uint32_t tickstart = 0U;
 2187              		.loc 1 1318 0
 2188 000a 0500     		movs	r5, r0
 2189              		.loc 1 1322 0
 2190 000c 012A     		cmp	r2, #1
 2191 000e 38D0     		beq	.L239
 2192              		.loc 1 1322 0 is_stmt 0 discriminator 2
 2193 0010 0122     		movs	r2, #1
ARM GAS  C:\Users\EBANO_~1\AppData\Local\Temp\ccyPWgHX.s 			page 66


 2194 0012 C254     		strb	r2, [r0, r3]
1323:../../../../../../Drivers/STM32L0xx_HAL_Driver/Src/stm32l0xx_hal_rtc_ex.c **** 
1324:../../../../../../Drivers/STM32L0xx_HAL_Driver/Src/stm32l0xx_hal_rtc_ex.c ****   hrtc->State = HAL_RTC_STATE_BUSY;
 2195              		.loc 1 1324 0 is_stmt 1 discriminator 2
 2196 0014 0133     		adds	r3, r3, #1
 2197 0016 0132     		adds	r2, r2, #1
 2198 0018 C254     		strb	r2, [r0, r3]
1325:../../../../../../Drivers/STM32L0xx_HAL_Driver/Src/stm32l0xx_hal_rtc_ex.c **** 
1326:../../../../../../Drivers/STM32L0xx_HAL_Driver/Src/stm32l0xx_hal_rtc_ex.c ****   /* Disable the write protection for RTC registers */
1327:../../../../../../Drivers/STM32L0xx_HAL_Driver/Src/stm32l0xx_hal_rtc_ex.c ****   __HAL_RTC_WRITEPROTECTION_DISABLE(hrtc);
 2199              		.loc 1 1327 0 discriminator 2
 2200 001a 0368     		ldr	r3, [r0]
 2201 001c C832     		adds	r2, r2, #200
 2202 001e 5A62     		str	r2, [r3, #36]
 2203 0020 773A     		subs	r2, r2, #119
 2204 0022 5A62     		str	r2, [r3, #36]
1328:../../../../../../Drivers/STM32L0xx_HAL_Driver/Src/stm32l0xx_hal_rtc_ex.c **** 
1329:../../../../../../Drivers/STM32L0xx_HAL_Driver/Src/stm32l0xx_hal_rtc_ex.c ****   /* Disable the Wakeup Timer */
1330:../../../../../../Drivers/STM32L0xx_HAL_Driver/Src/stm32l0xx_hal_rtc_ex.c ****   __HAL_RTC_WAKEUPTIMER_DISABLE(hrtc);
 2205              		.loc 1 1330 0 discriminator 2
 2206 0024 9A68     		ldr	r2, [r3, #8]
 2207 0026 1849     		ldr	r1, .L242
1331:../../../../../../Drivers/STM32L0xx_HAL_Driver/Src/stm32l0xx_hal_rtc_ex.c **** 
1332:../../../../../../Drivers/STM32L0xx_HAL_Driver/Src/stm32l0xx_hal_rtc_ex.c ****   /* In case of interrupt mode is used, the interrupt source must disabled */
1333:../../../../../../Drivers/STM32L0xx_HAL_Driver/Src/stm32l0xx_hal_rtc_ex.c ****   __HAL_RTC_WAKEUPTIMER_DISABLE_IT(hrtc,RTC_IT_WUT);
1334:../../../../../../Drivers/STM32L0xx_HAL_Driver/Src/stm32l0xx_hal_rtc_ex.c **** 
1335:../../../../../../Drivers/STM32L0xx_HAL_Driver/Src/stm32l0xx_hal_rtc_ex.c ****   tickstart = HAL_GetTick();
1336:../../../../../../Drivers/STM32L0xx_HAL_Driver/Src/stm32l0xx_hal_rtc_ex.c ****   /* Wait till RTC WUTWF flag is set and if Time out is reached exit */
1337:../../../../../../Drivers/STM32L0xx_HAL_Driver/Src/stm32l0xx_hal_rtc_ex.c ****   while(__HAL_RTC_WAKEUPTIMER_GET_FLAG(hrtc, RTC_FLAG_WUTWF) == RESET)
1338:../../../../../../Drivers/STM32L0xx_HAL_Driver/Src/stm32l0xx_hal_rtc_ex.c ****   {
1339:../../../../../../Drivers/STM32L0xx_HAL_Driver/Src/stm32l0xx_hal_rtc_ex.c ****     if((HAL_GetTick() - tickstart ) > RTC_TIMEOUT_VALUE)
 2208              		.loc 1 1339 0 discriminator 2
 2209 0028 FA27     		movs	r7, #250
1330:../../../../../../Drivers/STM32L0xx_HAL_Driver/Src/stm32l0xx_hal_rtc_ex.c **** 
 2210              		.loc 1 1330 0 discriminator 2
 2211 002a 0A40     		ands	r2, r1
 2212 002c 9A60     		str	r2, [r3, #8]
1333:../../../../../../Drivers/STM32L0xx_HAL_Driver/Src/stm32l0xx_hal_rtc_ex.c **** 
 2213              		.loc 1 1333 0 discriminator 2
 2214 002e 9A68     		ldr	r2, [r3, #8]
 2215 0030 1649     		ldr	r1, .L242+4
1337:../../../../../../Drivers/STM32L0xx_HAL_Driver/Src/stm32l0xx_hal_rtc_ex.c ****   {
 2216              		.loc 1 1337 0 discriminator 2
 2217 0032 0426     		movs	r6, #4
1333:../../../../../../Drivers/STM32L0xx_HAL_Driver/Src/stm32l0xx_hal_rtc_ex.c **** 
 2218              		.loc 1 1333 0 discriminator 2
 2219 0034 0A40     		ands	r2, r1
 2220 0036 9A60     		str	r2, [r3, #8]
1335:../../../../../../Drivers/STM32L0xx_HAL_Driver/Src/stm32l0xx_hal_rtc_ex.c ****   /* Wait till RTC WUTWF flag is set and if Time out is reached exit */
 2221              		.loc 1 1335 0 discriminator 2
 2222 0038 FFF7FEFF 		bl	HAL_GetTick
 2223              	.LVL155:
 2224              		.loc 1 1339 0 discriminator 2
 2225 003c BF00     		lsls	r7, r7, #2
1335:../../../../../../Drivers/STM32L0xx_HAL_Driver/Src/stm32l0xx_hal_rtc_ex.c ****   /* Wait till RTC WUTWF flag is set and if Time out is reached exit */
 2226              		.loc 1 1335 0 discriminator 2
 2227 003e 8046     		mov	r8, r0
ARM GAS  C:\Users\EBANO_~1\AppData\Local\Temp\ccyPWgHX.s 			page 67


 2228              	.LVL156:
1337:../../../../../../Drivers/STM32L0xx_HAL_Driver/Src/stm32l0xx_hal_rtc_ex.c ****   {
 2229              		.loc 1 1337 0 discriminator 2
 2230 0040 05E0     		b	.L237
 2231              	.LVL157:
 2232              	.L238:
 2233              		.loc 1 1339 0
 2234 0042 FFF7FEFF 		bl	HAL_GetTick
 2235              	.LVL158:
 2236 0046 4346     		mov	r3, r8
 2237 0048 C01A     		subs	r0, r0, r3
 2238 004a B842     		cmp	r0, r7
 2239 004c 0FD8     		bhi	.L241
 2240              	.L237:
1337:../../../../../../Drivers/STM32L0xx_HAL_Driver/Src/stm32l0xx_hal_rtc_ex.c ****   {
 2241              		.loc 1 1337 0
 2242 004e 2B68     		ldr	r3, [r5]
 2243 0050 DC68     		ldr	r4, [r3, #12]
 2244 0052 3440     		ands	r4, r6
 2245 0054 F5D0     		beq	.L238
1340:../../../../../../Drivers/STM32L0xx_HAL_Driver/Src/stm32l0xx_hal_rtc_ex.c ****     {
1341:../../../../../../Drivers/STM32L0xx_HAL_Driver/Src/stm32l0xx_hal_rtc_ex.c ****       /* Enable the write protection for RTC registers */
1342:../../../../../../Drivers/STM32L0xx_HAL_Driver/Src/stm32l0xx_hal_rtc_ex.c ****       __HAL_RTC_WRITEPROTECTION_ENABLE(hrtc);
1343:../../../../../../Drivers/STM32L0xx_HAL_Driver/Src/stm32l0xx_hal_rtc_ex.c **** 
1344:../../../../../../Drivers/STM32L0xx_HAL_Driver/Src/stm32l0xx_hal_rtc_ex.c ****       hrtc->State = HAL_RTC_STATE_TIMEOUT;
1345:../../../../../../Drivers/STM32L0xx_HAL_Driver/Src/stm32l0xx_hal_rtc_ex.c **** 
1346:../../../../../../Drivers/STM32L0xx_HAL_Driver/Src/stm32l0xx_hal_rtc_ex.c ****       /* Process Unlocked */
1347:../../../../../../Drivers/STM32L0xx_HAL_Driver/Src/stm32l0xx_hal_rtc_ex.c ****       __HAL_UNLOCK(hrtc);
1348:../../../../../../Drivers/STM32L0xx_HAL_Driver/Src/stm32l0xx_hal_rtc_ex.c **** 
1349:../../../../../../Drivers/STM32L0xx_HAL_Driver/Src/stm32l0xx_hal_rtc_ex.c ****       return HAL_TIMEOUT;
1350:../../../../../../Drivers/STM32L0xx_HAL_Driver/Src/stm32l0xx_hal_rtc_ex.c ****     }
1351:../../../../../../Drivers/STM32L0xx_HAL_Driver/Src/stm32l0xx_hal_rtc_ex.c ****   }
1352:../../../../../../Drivers/STM32L0xx_HAL_Driver/Src/stm32l0xx_hal_rtc_ex.c **** 
1353:../../../../../../Drivers/STM32L0xx_HAL_Driver/Src/stm32l0xx_hal_rtc_ex.c ****   /* Enable the write protection for RTC registers */
1354:../../../../../../Drivers/STM32L0xx_HAL_Driver/Src/stm32l0xx_hal_rtc_ex.c ****   __HAL_RTC_WRITEPROTECTION_ENABLE(hrtc);
 2246              		.loc 1 1354 0
 2247 0056 FF22     		movs	r2, #255
 2248 0058 5A62     		str	r2, [r3, #36]
1355:../../../../../../Drivers/STM32L0xx_HAL_Driver/Src/stm32l0xx_hal_rtc_ex.c **** 
1356:../../../../../../Drivers/STM32L0xx_HAL_Driver/Src/stm32l0xx_hal_rtc_ex.c ****   hrtc->State = HAL_RTC_STATE_READY;
 2249              		.loc 1 1356 0
 2250 005a 2123     		movs	r3, #33
 2251 005c FE3A     		subs	r2, r2, #254
 2252 005e EA54     		strb	r2, [r5, r3]
1357:../../../../../../Drivers/STM32L0xx_HAL_Driver/Src/stm32l0xx_hal_rtc_ex.c **** 
1358:../../../../../../Drivers/STM32L0xx_HAL_Driver/Src/stm32l0xx_hal_rtc_ex.c ****   /* Process Unlocked */
1359:../../../../../../Drivers/STM32L0xx_HAL_Driver/Src/stm32l0xx_hal_rtc_ex.c ****   __HAL_UNLOCK(hrtc);
 2253              		.loc 1 1359 0
 2254 0060 0022     		movs	r2, #0
1360:../../../../../../Drivers/STM32L0xx_HAL_Driver/Src/stm32l0xx_hal_rtc_ex.c **** 
1361:../../../../../../Drivers/STM32L0xx_HAL_Driver/Src/stm32l0xx_hal_rtc_ex.c ****   return HAL_OK;
 2255              		.loc 1 1361 0
 2256 0062 0020     		movs	r0, #0
1359:../../../../../../Drivers/STM32L0xx_HAL_Driver/Src/stm32l0xx_hal_rtc_ex.c **** 
 2257              		.loc 1 1359 0
 2258 0064 013B     		subs	r3, r3, #1
 2259 0066 EA54     		strb	r2, [r5, r3]
ARM GAS  C:\Users\EBANO_~1\AppData\Local\Temp\ccyPWgHX.s 			page 68


 2260              	.LVL159:
 2261              	.L235:
1362:../../../../../../Drivers/STM32L0xx_HAL_Driver/Src/stm32l0xx_hal_rtc_ex.c **** }
 2262              		.loc 1 1362 0
 2263              		@ sp needed
 2264              	.LVL160:
 2265 0068 04BC     		pop	{r2}
 2266 006a 9046     		mov	r8, r2
 2267 006c F0BD     		pop	{r4, r5, r6, r7, pc}
 2268              	.LVL161:
 2269              	.L241:
1342:../../../../../../Drivers/STM32L0xx_HAL_Driver/Src/stm32l0xx_hal_rtc_ex.c **** 
 2270              		.loc 1 1342 0
 2271 006e FF22     		movs	r2, #255
 2272 0070 2B68     		ldr	r3, [r5]
 2273              	.LVL162:
1349:../../../../../../Drivers/STM32L0xx_HAL_Driver/Src/stm32l0xx_hal_rtc_ex.c ****     }
 2274              		.loc 1 1349 0
 2275 0072 0320     		movs	r0, #3
1342:../../../../../../Drivers/STM32L0xx_HAL_Driver/Src/stm32l0xx_hal_rtc_ex.c **** 
 2276              		.loc 1 1342 0
 2277 0074 5A62     		str	r2, [r3, #36]
1344:../../../../../../Drivers/STM32L0xx_HAL_Driver/Src/stm32l0xx_hal_rtc_ex.c **** 
 2278              		.loc 1 1344 0
 2279 0076 2123     		movs	r3, #33
 2280 0078 FC3A     		subs	r2, r2, #252
 2281 007a EA54     		strb	r2, [r5, r3]
1347:../../../../../../Drivers/STM32L0xx_HAL_Driver/Src/stm32l0xx_hal_rtc_ex.c **** 
 2282              		.loc 1 1347 0
 2283 007c 013B     		subs	r3, r3, #1
 2284 007e EC54     		strb	r4, [r5, r3]
1349:../../../../../../Drivers/STM32L0xx_HAL_Driver/Src/stm32l0xx_hal_rtc_ex.c ****     }
 2285              		.loc 1 1349 0
 2286 0080 F2E7     		b	.L235
 2287              	.LVL163:
 2288              	.L239:
1322:../../../../../../Drivers/STM32L0xx_HAL_Driver/Src/stm32l0xx_hal_rtc_ex.c **** 
 2289              		.loc 1 1322 0
 2290 0082 0220     		movs	r0, #2
 2291              	.LVL164:
 2292 0084 F0E7     		b	.L235
 2293              	.L243:
 2294 0086 C046     		.align	2
 2295              	.L242:
 2296 0088 FFFBFFFF 		.word	-1025
 2297 008c FFBFFFFF 		.word	-16385
 2298              		.cfi_endproc
 2299              	.LFE57:
 2300              		.size	HAL_RTCEx_DeactivateWakeUpTimer, .-HAL_RTCEx_DeactivateWakeUpTimer
 2301              		.section	.text.HAL_RTCEx_GetWakeUpTimer,"ax",%progbits
 2302              		.align	1
 2303              		.p2align 2,,3
 2304              		.global	HAL_RTCEx_GetWakeUpTimer
 2305              		.syntax unified
 2306              		.code	16
 2307              		.thumb_func
 2308              		.fpu softvfp
ARM GAS  C:\Users\EBANO_~1\AppData\Local\Temp\ccyPWgHX.s 			page 69


 2309              		.type	HAL_RTCEx_GetWakeUpTimer, %function
 2310              	HAL_RTCEx_GetWakeUpTimer:
 2311              	.LFB58:
1363:../../../../../../Drivers/STM32L0xx_HAL_Driver/Src/stm32l0xx_hal_rtc_ex.c **** 
1364:../../../../../../Drivers/STM32L0xx_HAL_Driver/Src/stm32l0xx_hal_rtc_ex.c **** /**
1365:../../../../../../Drivers/STM32L0xx_HAL_Driver/Src/stm32l0xx_hal_rtc_ex.c ****   * @brief  Get wake up timer counter.
1366:../../../../../../Drivers/STM32L0xx_HAL_Driver/Src/stm32l0xx_hal_rtc_ex.c ****   * @param  hrtc RTC handle 
1367:../../../../../../Drivers/STM32L0xx_HAL_Driver/Src/stm32l0xx_hal_rtc_ex.c ****   * @retval Counter value
1368:../../../../../../Drivers/STM32L0xx_HAL_Driver/Src/stm32l0xx_hal_rtc_ex.c ****   */
1369:../../../../../../Drivers/STM32L0xx_HAL_Driver/Src/stm32l0xx_hal_rtc_ex.c **** uint32_t HAL_RTCEx_GetWakeUpTimer(RTC_HandleTypeDef *hrtc)
1370:../../../../../../Drivers/STM32L0xx_HAL_Driver/Src/stm32l0xx_hal_rtc_ex.c **** {
 2312              		.loc 1 1370 0
 2313              		.cfi_startproc
 2314              		@ args = 0, pretend = 0, frame = 0
 2315              		@ frame_needed = 0, uses_anonymous_args = 0
 2316              		@ link register save eliminated.
 2317              	.LVL165:
1371:../../../../../../Drivers/STM32L0xx_HAL_Driver/Src/stm32l0xx_hal_rtc_ex.c ****   /* Get the counter value */
1372:../../../../../../Drivers/STM32L0xx_HAL_Driver/Src/stm32l0xx_hal_rtc_ex.c ****   return ((uint32_t)(hrtc->Instance->WUTR & RTC_WUTR_WUT));
 2318              		.loc 1 1372 0
 2319 0000 0368     		ldr	r3, [r0]
1373:../../../../../../Drivers/STM32L0xx_HAL_Driver/Src/stm32l0xx_hal_rtc_ex.c **** }
 2320              		.loc 1 1373 0
 2321              		@ sp needed
1372:../../../../../../Drivers/STM32L0xx_HAL_Driver/Src/stm32l0xx_hal_rtc_ex.c **** }
 2322              		.loc 1 1372 0
 2323 0002 5869     		ldr	r0, [r3, #20]
 2324              	.LVL166:
 2325 0004 0004     		lsls	r0, r0, #16
 2326 0006 000C     		lsrs	r0, r0, #16
 2327              		.loc 1 1373 0
 2328 0008 7047     		bx	lr
 2329              		.cfi_endproc
 2330              	.LFE58:
 2331              		.size	HAL_RTCEx_GetWakeUpTimer, .-HAL_RTCEx_GetWakeUpTimer
 2332 000a C046     		.section	.text.HAL_RTCEx_WakeUpTimerEventCallback,"ax",%progbits
 2333              		.align	1
 2334              		.p2align 2,,3
 2335              		.weak	HAL_RTCEx_WakeUpTimerEventCallback
 2336              		.syntax unified
 2337              		.code	16
 2338              		.thumb_func
 2339              		.fpu softvfp
 2340              		.type	HAL_RTCEx_WakeUpTimerEventCallback, %function
 2341              	HAL_RTCEx_WakeUpTimerEventCallback:
 2342              	.LFB81:
 2343              		.cfi_startproc
 2344              		@ args = 0, pretend = 0, frame = 0
 2345              		@ frame_needed = 0, uses_anonymous_args = 0
 2346              		@ link register save eliminated.
 2347              		@ sp needed
 2348 0000 7047     		bx	lr
 2349              		.cfi_endproc
 2350              	.LFE81:
 2351              		.size	HAL_RTCEx_WakeUpTimerEventCallback, .-HAL_RTCEx_WakeUpTimerEventCallback
 2352 0002 C046     		.section	.text.HAL_RTCEx_WakeUpTimerIRQHandler,"ax",%progbits
 2353              		.align	1
ARM GAS  C:\Users\EBANO_~1\AppData\Local\Temp\ccyPWgHX.s 			page 70


 2354              		.p2align 2,,3
 2355              		.global	HAL_RTCEx_WakeUpTimerIRQHandler
 2356              		.syntax unified
 2357              		.code	16
 2358              		.thumb_func
 2359              		.fpu softvfp
 2360              		.type	HAL_RTCEx_WakeUpTimerIRQHandler, %function
 2361              	HAL_RTCEx_WakeUpTimerIRQHandler:
 2362              	.LFB59:
1374:../../../../../../Drivers/STM32L0xx_HAL_Driver/Src/stm32l0xx_hal_rtc_ex.c **** 
1375:../../../../../../Drivers/STM32L0xx_HAL_Driver/Src/stm32l0xx_hal_rtc_ex.c **** /**
1376:../../../../../../Drivers/STM32L0xx_HAL_Driver/Src/stm32l0xx_hal_rtc_ex.c ****   * @brief  Handle Wake Up Timer interrupt request.
1377:../../../../../../Drivers/STM32L0xx_HAL_Driver/Src/stm32l0xx_hal_rtc_ex.c ****   * @param  hrtc RTC handle
1378:../../../../../../Drivers/STM32L0xx_HAL_Driver/Src/stm32l0xx_hal_rtc_ex.c ****   * @retval None
1379:../../../../../../Drivers/STM32L0xx_HAL_Driver/Src/stm32l0xx_hal_rtc_ex.c ****   */
1380:../../../../../../Drivers/STM32L0xx_HAL_Driver/Src/stm32l0xx_hal_rtc_ex.c **** void HAL_RTCEx_WakeUpTimerIRQHandler(RTC_HandleTypeDef *hrtc)
1381:../../../../../../Drivers/STM32L0xx_HAL_Driver/Src/stm32l0xx_hal_rtc_ex.c **** {  
 2363              		.loc 1 1381 0
 2364              		.cfi_startproc
 2365              		@ args = 0, pretend = 0, frame = 0
 2366              		@ frame_needed = 0, uses_anonymous_args = 0
 2367              	.LVL167:
1382:../../../../../../Drivers/STM32L0xx_HAL_Driver/Src/stm32l0xx_hal_rtc_ex.c ****     /* Get the pending status of the WAKEUPTIMER Interrupt */
1383:../../../../../../Drivers/STM32L0xx_HAL_Driver/Src/stm32l0xx_hal_rtc_ex.c ****     if(__HAL_RTC_WAKEUPTIMER_GET_FLAG(hrtc, RTC_FLAG_WUTF) != RESET)
 2368              		.loc 1 1383 0
 2369 0000 0368     		ldr	r3, [r0]
1381:../../../../../../Drivers/STM32L0xx_HAL_Driver/Src/stm32l0xx_hal_rtc_ex.c ****     /* Get the pending status of the WAKEUPTIMER Interrupt */
 2370              		.loc 1 1381 0
 2371 0002 10B5     		push	{r4, lr}
 2372              	.LCFI22:
 2373              		.cfi_def_cfa_offset 8
 2374              		.cfi_offset 4, -8
 2375              		.cfi_offset 14, -4
 2376              		.loc 1 1383 0
 2377 0004 DB68     		ldr	r3, [r3, #12]
1381:../../../../../../Drivers/STM32L0xx_HAL_Driver/Src/stm32l0xx_hal_rtc_ex.c ****     /* Get the pending status of the WAKEUPTIMER Interrupt */
 2378              		.loc 1 1381 0
 2379 0006 0400     		movs	r4, r0
 2380              		.loc 1 1383 0
 2381 0008 5B05     		lsls	r3, r3, #21
 2382 000a 08D5     		bpl	.L247
1384:../../../../../../Drivers/STM32L0xx_HAL_Driver/Src/stm32l0xx_hal_rtc_ex.c ****     {
1385:../../../../../../Drivers/STM32L0xx_HAL_Driver/Src/stm32l0xx_hal_rtc_ex.c ****       /* WAKEUPTIMER callback */ 
1386:../../../../../../Drivers/STM32L0xx_HAL_Driver/Src/stm32l0xx_hal_rtc_ex.c ****       HAL_RTCEx_WakeUpTimerEventCallback(hrtc);
 2383              		.loc 1 1386 0
 2384 000c FFF7FEFF 		bl	HAL_RTCEx_WakeUpTimerEventCallback
 2385              	.LVL168:
1387:../../../../../../Drivers/STM32L0xx_HAL_Driver/Src/stm32l0xx_hal_rtc_ex.c ****       
1388:../../../../../../Drivers/STM32L0xx_HAL_Driver/Src/stm32l0xx_hal_rtc_ex.c ****       /* Clear the WAKEUPTIMER interrupt pending bit */
1389:../../../../../../Drivers/STM32L0xx_HAL_Driver/Src/stm32l0xx_hal_rtc_ex.c ****       __HAL_RTC_WAKEUPTIMER_CLEAR_FLAG(hrtc, RTC_FLAG_WUTF);
 2386              		.loc 1 1389 0
 2387 0010 FF23     		movs	r3, #255
 2388 0012 2168     		ldr	r1, [r4]
 2389 0014 CA68     		ldr	r2, [r1, #12]
 2390 0016 1A40     		ands	r2, r3
 2391 0018 054B     		ldr	r3, .L251
 2392 001a 1343     		orrs	r3, r2
ARM GAS  C:\Users\EBANO_~1\AppData\Local\Temp\ccyPWgHX.s 			page 71


 2393 001c CB60     		str	r3, [r1, #12]
 2394              	.L247:
1390:../../../../../../Drivers/STM32L0xx_HAL_Driver/Src/stm32l0xx_hal_rtc_ex.c ****     }
1391:../../../../../../Drivers/STM32L0xx_HAL_Driver/Src/stm32l0xx_hal_rtc_ex.c **** 
1392:../../../../../../Drivers/STM32L0xx_HAL_Driver/Src/stm32l0xx_hal_rtc_ex.c **** 
1393:../../../../../../Drivers/STM32L0xx_HAL_Driver/Src/stm32l0xx_hal_rtc_ex.c ****   /* Clear the EXTI's line Flag for RTC WakeUpTimer */
1394:../../../../../../Drivers/STM32L0xx_HAL_Driver/Src/stm32l0xx_hal_rtc_ex.c ****   __HAL_RTC_WAKEUPTIMER_EXTI_CLEAR_FLAG();
 2395              		.loc 1 1394 0
 2396 001e 8022     		movs	r2, #128
 2397 0020 044B     		ldr	r3, .L251+4
 2398 0022 5203     		lsls	r2, r2, #13
 2399 0024 5A61     		str	r2, [r3, #20]
1395:../../../../../../Drivers/STM32L0xx_HAL_Driver/Src/stm32l0xx_hal_rtc_ex.c ****   
1396:../../../../../../Drivers/STM32L0xx_HAL_Driver/Src/stm32l0xx_hal_rtc_ex.c ****   /* Change RTC state */
1397:../../../../../../Drivers/STM32L0xx_HAL_Driver/Src/stm32l0xx_hal_rtc_ex.c ****   hrtc->State = HAL_RTC_STATE_READY;
 2400              		.loc 1 1397 0
 2401 0026 2123     		movs	r3, #33
 2402 0028 0122     		movs	r2, #1
1398:../../../../../../Drivers/STM32L0xx_HAL_Driver/Src/stm32l0xx_hal_rtc_ex.c **** }
 2403              		.loc 1 1398 0
 2404              		@ sp needed
1397:../../../../../../Drivers/STM32L0xx_HAL_Driver/Src/stm32l0xx_hal_rtc_ex.c **** }
 2405              		.loc 1 1397 0
 2406 002a E254     		strb	r2, [r4, r3]
 2407              	.LVL169:
 2408              		.loc 1 1398 0
 2409 002c 10BD     		pop	{r4, pc}
 2410              	.L252:
 2411 002e C046     		.align	2
 2412              	.L251:
 2413 0030 7FFBFFFF 		.word	-1153
 2414 0034 00040140 		.word	1073808384
 2415              		.cfi_endproc
 2416              	.LFE59:
 2417              		.size	HAL_RTCEx_WakeUpTimerIRQHandler, .-HAL_RTCEx_WakeUpTimerIRQHandler
 2418              		.section	.text.HAL_RTCEx_PollForWakeUpTimerEvent,"ax",%progbits
 2419              		.align	1
 2420              		.p2align 2,,3
 2421              		.global	HAL_RTCEx_PollForWakeUpTimerEvent
 2422              		.syntax unified
 2423              		.code	16
 2424              		.thumb_func
 2425              		.fpu softvfp
 2426              		.type	HAL_RTCEx_PollForWakeUpTimerEvent, %function
 2427              	HAL_RTCEx_PollForWakeUpTimerEvent:
 2428              	.LFB61:
1399:../../../../../../Drivers/STM32L0xx_HAL_Driver/Src/stm32l0xx_hal_rtc_ex.c **** 
1400:../../../../../../Drivers/STM32L0xx_HAL_Driver/Src/stm32l0xx_hal_rtc_ex.c **** /**
1401:../../../../../../Drivers/STM32L0xx_HAL_Driver/Src/stm32l0xx_hal_rtc_ex.c ****   * @brief  Wake Up Timer callback.
1402:../../../../../../Drivers/STM32L0xx_HAL_Driver/Src/stm32l0xx_hal_rtc_ex.c ****   * @param  hrtc RTC handle
1403:../../../../../../Drivers/STM32L0xx_HAL_Driver/Src/stm32l0xx_hal_rtc_ex.c ****   * @retval None
1404:../../../../../../Drivers/STM32L0xx_HAL_Driver/Src/stm32l0xx_hal_rtc_ex.c ****   */
1405:../../../../../../Drivers/STM32L0xx_HAL_Driver/Src/stm32l0xx_hal_rtc_ex.c **** __weak void HAL_RTCEx_WakeUpTimerEventCallback(RTC_HandleTypeDef *hrtc)
1406:../../../../../../Drivers/STM32L0xx_HAL_Driver/Src/stm32l0xx_hal_rtc_ex.c **** {
1407:../../../../../../Drivers/STM32L0xx_HAL_Driver/Src/stm32l0xx_hal_rtc_ex.c ****   /* Prevent unused argument(s) compilation warning */
1408:../../../../../../Drivers/STM32L0xx_HAL_Driver/Src/stm32l0xx_hal_rtc_ex.c ****   UNUSED(hrtc);
1409:../../../../../../Drivers/STM32L0xx_HAL_Driver/Src/stm32l0xx_hal_rtc_ex.c **** 
ARM GAS  C:\Users\EBANO_~1\AppData\Local\Temp\ccyPWgHX.s 			page 72


1410:../../../../../../Drivers/STM32L0xx_HAL_Driver/Src/stm32l0xx_hal_rtc_ex.c ****   /* NOTE : This function should not be modified, when the callback is needed,
1411:../../../../../../Drivers/STM32L0xx_HAL_Driver/Src/stm32l0xx_hal_rtc_ex.c ****             the HAL_RTCEx_WakeUpTimerEventCallback could be implemented in the user file
1412:../../../../../../Drivers/STM32L0xx_HAL_Driver/Src/stm32l0xx_hal_rtc_ex.c ****    */
1413:../../../../../../Drivers/STM32L0xx_HAL_Driver/Src/stm32l0xx_hal_rtc_ex.c **** }
1414:../../../../../../Drivers/STM32L0xx_HAL_Driver/Src/stm32l0xx_hal_rtc_ex.c **** 
1415:../../../../../../Drivers/STM32L0xx_HAL_Driver/Src/stm32l0xx_hal_rtc_ex.c **** 
1416:../../../../../../Drivers/STM32L0xx_HAL_Driver/Src/stm32l0xx_hal_rtc_ex.c **** /**
1417:../../../../../../Drivers/STM32L0xx_HAL_Driver/Src/stm32l0xx_hal_rtc_ex.c ****   * @brief  Handle Wake Up Timer Polling.
1418:../../../../../../Drivers/STM32L0xx_HAL_Driver/Src/stm32l0xx_hal_rtc_ex.c ****   * @param  hrtc RTC handle
1419:../../../../../../Drivers/STM32L0xx_HAL_Driver/Src/stm32l0xx_hal_rtc_ex.c ****   * @param  Timeout Timeout duration
1420:../../../../../../Drivers/STM32L0xx_HAL_Driver/Src/stm32l0xx_hal_rtc_ex.c ****   * @retval HAL status
1421:../../../../../../Drivers/STM32L0xx_HAL_Driver/Src/stm32l0xx_hal_rtc_ex.c ****   */
1422:../../../../../../Drivers/STM32L0xx_HAL_Driver/Src/stm32l0xx_hal_rtc_ex.c **** HAL_StatusTypeDef HAL_RTCEx_PollForWakeUpTimerEvent(RTC_HandleTypeDef *hrtc, uint32_t Timeout)
1423:../../../../../../Drivers/STM32L0xx_HAL_Driver/Src/stm32l0xx_hal_rtc_ex.c **** {
 2429              		.loc 1 1423 0
 2430              		.cfi_startproc
 2431              		@ args = 0, pretend = 0, frame = 0
 2432              		@ frame_needed = 0, uses_anonymous_args = 0
 2433              	.LVL170:
 2434 0000 F8B5     		push	{r3, r4, r5, r6, r7, lr}
 2435              	.LCFI23:
 2436              		.cfi_def_cfa_offset 24
 2437              		.cfi_offset 3, -24
 2438              		.cfi_offset 4, -20
 2439              		.cfi_offset 5, -16
 2440              		.cfi_offset 6, -12
 2441              		.cfi_offset 7, -8
 2442              		.cfi_offset 14, -4
 2443              		.loc 1 1423 0
 2444 0002 0500     		movs	r5, r0
 2445 0004 0C00     		movs	r4, r1
1424:../../../../../../Drivers/STM32L0xx_HAL_Driver/Src/stm32l0xx_hal_rtc_ex.c ****   uint32_t tickstart = HAL_GetTick();
 2446              		.loc 1 1424 0
 2447 0006 FFF7FEFF 		bl	HAL_GetTick
 2448              	.LVL171:
1425:../../../../../../Drivers/STM32L0xx_HAL_Driver/Src/stm32l0xx_hal_rtc_ex.c **** 
1426:../../../../../../Drivers/STM32L0xx_HAL_Driver/Src/stm32l0xx_hal_rtc_ex.c ****   while(__HAL_RTC_WAKEUPTIMER_GET_FLAG(hrtc, RTC_FLAG_WUTF) == RESET)
 2449              		.loc 1 1426 0
 2450 000a 8026     		movs	r6, #128
1424:../../../../../../Drivers/STM32L0xx_HAL_Driver/Src/stm32l0xx_hal_rtc_ex.c ****   uint32_t tickstart = HAL_GetTick();
 2451              		.loc 1 1424 0
 2452 000c 0700     		movs	r7, r0
 2453              	.LVL172:
 2454              		.loc 1 1426 0
 2455 000e F600     		lsls	r6, r6, #3
 2456              	.LVL173:
 2457              	.L254:
 2458 0010 2A68     		ldr	r2, [r5]
 2459 0012 631C     		adds	r3, r4, #1
 2460 0014 0FD1     		bne	.L258
 2461 0016 8021     		movs	r1, #128
 2462 0018 C900     		lsls	r1, r1, #3
 2463              	.L259:
 2464 001a D368     		ldr	r3, [r2, #12]
 2465 001c 0B42     		tst	r3, r1
 2466 001e FCD0     		beq	.L259
 2467              	.L260:
ARM GAS  C:\Users\EBANO_~1\AppData\Local\Temp\ccyPWgHX.s 			page 73


1427:../../../../../../Drivers/STM32L0xx_HAL_Driver/Src/stm32l0xx_hal_rtc_ex.c ****   {
1428:../../../../../../Drivers/STM32L0xx_HAL_Driver/Src/stm32l0xx_hal_rtc_ex.c ****     if(Timeout != HAL_MAX_DELAY)
1429:../../../../../../Drivers/STM32L0xx_HAL_Driver/Src/stm32l0xx_hal_rtc_ex.c ****     {
1430:../../../../../../Drivers/STM32L0xx_HAL_Driver/Src/stm32l0xx_hal_rtc_ex.c ****       if((Timeout == 0U)||((HAL_GetTick() - tickstart ) > Timeout))
1431:../../../../../../Drivers/STM32L0xx_HAL_Driver/Src/stm32l0xx_hal_rtc_ex.c ****       {
1432:../../../../../../Drivers/STM32L0xx_HAL_Driver/Src/stm32l0xx_hal_rtc_ex.c ****         hrtc->State = HAL_RTC_STATE_TIMEOUT;
1433:../../../../../../Drivers/STM32L0xx_HAL_Driver/Src/stm32l0xx_hal_rtc_ex.c ****       
1434:../../../../../../Drivers/STM32L0xx_HAL_Driver/Src/stm32l0xx_hal_rtc_ex.c ****         return HAL_TIMEOUT;
1435:../../../../../../Drivers/STM32L0xx_HAL_Driver/Src/stm32l0xx_hal_rtc_ex.c ****       }
1436:../../../../../../Drivers/STM32L0xx_HAL_Driver/Src/stm32l0xx_hal_rtc_ex.c ****     }
1437:../../../../../../Drivers/STM32L0xx_HAL_Driver/Src/stm32l0xx_hal_rtc_ex.c ****   }
1438:../../../../../../Drivers/STM32L0xx_HAL_Driver/Src/stm32l0xx_hal_rtc_ex.c **** 
1439:../../../../../../Drivers/STM32L0xx_HAL_Driver/Src/stm32l0xx_hal_rtc_ex.c ****   /* Clear the WAKEUPTIMER Flag */
1440:../../../../../../Drivers/STM32L0xx_HAL_Driver/Src/stm32l0xx_hal_rtc_ex.c ****   __HAL_RTC_WAKEUPTIMER_CLEAR_FLAG(hrtc, RTC_FLAG_WUTF);
 2468              		.loc 1 1440 0
 2469 0020 FF23     		movs	r3, #255
 2470 0022 D168     		ldr	r1, [r2, #12]
1441:../../../../../../Drivers/STM32L0xx_HAL_Driver/Src/stm32l0xx_hal_rtc_ex.c ****   
1442:../../../../../../Drivers/STM32L0xx_HAL_Driver/Src/stm32l0xx_hal_rtc_ex.c ****   /* Change RTC state */
1443:../../../../../../Drivers/STM32L0xx_HAL_Driver/Src/stm32l0xx_hal_rtc_ex.c ****   hrtc->State = HAL_RTC_STATE_READY;
1444:../../../../../../Drivers/STM32L0xx_HAL_Driver/Src/stm32l0xx_hal_rtc_ex.c **** 
1445:../../../../../../Drivers/STM32L0xx_HAL_Driver/Src/stm32l0xx_hal_rtc_ex.c ****   return HAL_OK;
 2471              		.loc 1 1445 0
 2472 0024 0020     		movs	r0, #0
1440:../../../../../../Drivers/STM32L0xx_HAL_Driver/Src/stm32l0xx_hal_rtc_ex.c ****   
 2473              		.loc 1 1440 0
 2474 0026 1940     		ands	r1, r3
 2475 0028 0A4B     		ldr	r3, .L264
 2476 002a 0B43     		orrs	r3, r1
 2477 002c D360     		str	r3, [r2, #12]
1443:../../../../../../Drivers/STM32L0xx_HAL_Driver/Src/stm32l0xx_hal_rtc_ex.c **** 
 2478              		.loc 1 1443 0
 2479 002e 2123     		movs	r3, #33
 2480 0030 0122     		movs	r2, #1
 2481 0032 EA54     		strb	r2, [r5, r3]
 2482              	.L256:
1446:../../../../../../Drivers/STM32L0xx_HAL_Driver/Src/stm32l0xx_hal_rtc_ex.c **** }
 2483              		.loc 1 1446 0
 2484              		@ sp needed
 2485              	.LVL174:
 2486              	.LVL175:
 2487              	.LVL176:
 2488 0034 F8BD     		pop	{r3, r4, r5, r6, r7, pc}
 2489              	.LVL177:
 2490              	.L258:
1426:../../../../../../Drivers/STM32L0xx_HAL_Driver/Src/stm32l0xx_hal_rtc_ex.c ****   {
 2491              		.loc 1 1426 0
 2492 0036 D368     		ldr	r3, [r2, #12]
 2493 0038 3342     		tst	r3, r6
 2494 003a F1D1     		bne	.L260
1430:../../../../../../Drivers/STM32L0xx_HAL_Driver/Src/stm32l0xx_hal_rtc_ex.c ****       {
 2495              		.loc 1 1430 0
 2496 003c 002C     		cmp	r4, #0
 2497 003e 04D0     		beq	.L257
1430:../../../../../../Drivers/STM32L0xx_HAL_Driver/Src/stm32l0xx_hal_rtc_ex.c ****       {
 2498              		.loc 1 1430 0 is_stmt 0 discriminator 1
 2499 0040 FFF7FEFF 		bl	HAL_GetTick
ARM GAS  C:\Users\EBANO_~1\AppData\Local\Temp\ccyPWgHX.s 			page 74


 2500              	.LVL178:
 2501 0044 C01B     		subs	r0, r0, r7
 2502 0046 A042     		cmp	r0, r4
 2503 0048 E2D9     		bls	.L254
 2504              	.L257:
1432:../../../../../../Drivers/STM32L0xx_HAL_Driver/Src/stm32l0xx_hal_rtc_ex.c ****       
 2505              		.loc 1 1432 0 is_stmt 1
 2506 004a 2123     		movs	r3, #33
 2507 004c 0322     		movs	r2, #3
1434:../../../../../../Drivers/STM32L0xx_HAL_Driver/Src/stm32l0xx_hal_rtc_ex.c ****       }
 2508              		.loc 1 1434 0
 2509 004e 0320     		movs	r0, #3
1432:../../../../../../Drivers/STM32L0xx_HAL_Driver/Src/stm32l0xx_hal_rtc_ex.c ****       
 2510              		.loc 1 1432 0
 2511 0050 EA54     		strb	r2, [r5, r3]
1434:../../../../../../Drivers/STM32L0xx_HAL_Driver/Src/stm32l0xx_hal_rtc_ex.c ****       }
 2512              		.loc 1 1434 0
 2513 0052 EFE7     		b	.L256
 2514              	.L265:
 2515              		.align	2
 2516              	.L264:
 2517 0054 7FFBFFFF 		.word	-1153
 2518              		.cfi_endproc
 2519              	.LFE61:
 2520              		.size	HAL_RTCEx_PollForWakeUpTimerEvent, .-HAL_RTCEx_PollForWakeUpTimerEvent
 2521              		.section	.text.HAL_RTCEx_BKUPWrite,"ax",%progbits
 2522              		.align	1
 2523              		.p2align 2,,3
 2524              		.global	HAL_RTCEx_BKUPWrite
 2525              		.syntax unified
 2526              		.code	16
 2527              		.thumb_func
 2528              		.fpu softvfp
 2529              		.type	HAL_RTCEx_BKUPWrite, %function
 2530              	HAL_RTCEx_BKUPWrite:
 2531              	.LFB62:
1447:../../../../../../Drivers/STM32L0xx_HAL_Driver/Src/stm32l0xx_hal_rtc_ex.c **** 
1448:../../../../../../Drivers/STM32L0xx_HAL_Driver/Src/stm32l0xx_hal_rtc_ex.c **** /**
1449:../../../../../../Drivers/STM32L0xx_HAL_Driver/Src/stm32l0xx_hal_rtc_ex.c ****   * @}
1450:../../../../../../Drivers/STM32L0xx_HAL_Driver/Src/stm32l0xx_hal_rtc_ex.c ****   */
1451:../../../../../../Drivers/STM32L0xx_HAL_Driver/Src/stm32l0xx_hal_rtc_ex.c **** 
1452:../../../../../../Drivers/STM32L0xx_HAL_Driver/Src/stm32l0xx_hal_rtc_ex.c **** 
1453:../../../../../../Drivers/STM32L0xx_HAL_Driver/Src/stm32l0xx_hal_rtc_ex.c **** /** @addtogroup RTCEx_Exported_Functions_Group3
1454:../../../../../../Drivers/STM32L0xx_HAL_Driver/Src/stm32l0xx_hal_rtc_ex.c ****   * @brief    Extended Peripheral Control functions
1455:../../../../../../Drivers/STM32L0xx_HAL_Driver/Src/stm32l0xx_hal_rtc_ex.c ****   *
1456:../../../../../../Drivers/STM32L0xx_HAL_Driver/Src/stm32l0xx_hal_rtc_ex.c **** @verbatim   
1457:../../../../../../Drivers/STM32L0xx_HAL_Driver/Src/stm32l0xx_hal_rtc_ex.c ****  ===============================================================================
1458:../../../../../../Drivers/STM32L0xx_HAL_Driver/Src/stm32l0xx_hal_rtc_ex.c ****               ##### Extended Peripheral Control functions #####
1459:../../../../../../Drivers/STM32L0xx_HAL_Driver/Src/stm32l0xx_hal_rtc_ex.c ****  ===============================================================================  
1460:../../../../../../Drivers/STM32L0xx_HAL_Driver/Src/stm32l0xx_hal_rtc_ex.c ****     [..]
1461:../../../../../../Drivers/STM32L0xx_HAL_Driver/Src/stm32l0xx_hal_rtc_ex.c ****     This subsection provides functions allowing to
1462:../../../../../../Drivers/STM32L0xx_HAL_Driver/Src/stm32l0xx_hal_rtc_ex.c ****       (+) Write a data in a specified RTC Backup data register
1463:../../../../../../Drivers/STM32L0xx_HAL_Driver/Src/stm32l0xx_hal_rtc_ex.c ****       (+) Read a data in a specified RTC Backup data register
1464:../../../../../../Drivers/STM32L0xx_HAL_Driver/Src/stm32l0xx_hal_rtc_ex.c ****       (+) Set the Coarse calibration parameters.
1465:../../../../../../Drivers/STM32L0xx_HAL_Driver/Src/stm32l0xx_hal_rtc_ex.c ****       (+) Deactivate the Coarse calibration parameters
1466:../../../../../../Drivers/STM32L0xx_HAL_Driver/Src/stm32l0xx_hal_rtc_ex.c ****       (+) Set the Smooth calibration parameters.
1467:../../../../../../Drivers/STM32L0xx_HAL_Driver/Src/stm32l0xx_hal_rtc_ex.c ****       (+) Configure the Synchronization Shift Control Settings.
ARM GAS  C:\Users\EBANO_~1\AppData\Local\Temp\ccyPWgHX.s 			page 75


1468:../../../../../../Drivers/STM32L0xx_HAL_Driver/Src/stm32l0xx_hal_rtc_ex.c ****       (+) Configure the Calibration Pinout (RTC_CALIB) Selection (1Hz or 512Hz).
1469:../../../../../../Drivers/STM32L0xx_HAL_Driver/Src/stm32l0xx_hal_rtc_ex.c ****       (+) Deactivate the Calibration Pinout (RTC_CALIB) Selection (1Hz or 512Hz).
1470:../../../../../../Drivers/STM32L0xx_HAL_Driver/Src/stm32l0xx_hal_rtc_ex.c ****       (+) Enable the RTC reference clock detection.
1471:../../../../../../Drivers/STM32L0xx_HAL_Driver/Src/stm32l0xx_hal_rtc_ex.c ****       (+) Disable the RTC reference clock detection.
1472:../../../../../../Drivers/STM32L0xx_HAL_Driver/Src/stm32l0xx_hal_rtc_ex.c ****       (+) Enable the Bypass Shadow feature.
1473:../../../../../../Drivers/STM32L0xx_HAL_Driver/Src/stm32l0xx_hal_rtc_ex.c ****       (+) Disable the Bypass Shadow feature.
1474:../../../../../../Drivers/STM32L0xx_HAL_Driver/Src/stm32l0xx_hal_rtc_ex.c **** 
1475:../../../../../../Drivers/STM32L0xx_HAL_Driver/Src/stm32l0xx_hal_rtc_ex.c **** @endverbatim
1476:../../../../../../Drivers/STM32L0xx_HAL_Driver/Src/stm32l0xx_hal_rtc_ex.c ****   * @{
1477:../../../../../../Drivers/STM32L0xx_HAL_Driver/Src/stm32l0xx_hal_rtc_ex.c ****   */
1478:../../../../../../Drivers/STM32L0xx_HAL_Driver/Src/stm32l0xx_hal_rtc_ex.c **** 
1479:../../../../../../Drivers/STM32L0xx_HAL_Driver/Src/stm32l0xx_hal_rtc_ex.c **** /**
1480:../../../../../../Drivers/STM32L0xx_HAL_Driver/Src/stm32l0xx_hal_rtc_ex.c ****   * @brief  Write a data in a specified RTC Backup data register.
1481:../../../../../../Drivers/STM32L0xx_HAL_Driver/Src/stm32l0xx_hal_rtc_ex.c ****   * @param  hrtc RTC handle 
1482:../../../../../../Drivers/STM32L0xx_HAL_Driver/Src/stm32l0xx_hal_rtc_ex.c ****   * @param  BackupRegister RTC Backup data Register number.
1483:../../../../../../Drivers/STM32L0xx_HAL_Driver/Src/stm32l0xx_hal_rtc_ex.c ****   *          This parameter can be: RTC_BKP_DRx where x can be from 0 to 19 to 
1484:../../../../../../Drivers/STM32L0xx_HAL_Driver/Src/stm32l0xx_hal_rtc_ex.c ****   *                                 specify the register.
1485:../../../../../../Drivers/STM32L0xx_HAL_Driver/Src/stm32l0xx_hal_rtc_ex.c ****   * @param  Data Data to be written in the specified RTC Backup data register.
1486:../../../../../../Drivers/STM32L0xx_HAL_Driver/Src/stm32l0xx_hal_rtc_ex.c ****   * @retval None
1487:../../../../../../Drivers/STM32L0xx_HAL_Driver/Src/stm32l0xx_hal_rtc_ex.c ****   */
1488:../../../../../../Drivers/STM32L0xx_HAL_Driver/Src/stm32l0xx_hal_rtc_ex.c **** void HAL_RTCEx_BKUPWrite(RTC_HandleTypeDef *hrtc, uint32_t BackupRegister, uint32_t Data)
1489:../../../../../../Drivers/STM32L0xx_HAL_Driver/Src/stm32l0xx_hal_rtc_ex.c **** {
 2532              		.loc 1 1489 0
 2533              		.cfi_startproc
 2534              		@ args = 0, pretend = 0, frame = 0
 2535              		@ frame_needed = 0, uses_anonymous_args = 0
 2536              		@ link register save eliminated.
 2537              	.LVL179:
1490:../../../../../../Drivers/STM32L0xx_HAL_Driver/Src/stm32l0xx_hal_rtc_ex.c ****   uint32_t tmp = 0U;
1491:../../../../../../Drivers/STM32L0xx_HAL_Driver/Src/stm32l0xx_hal_rtc_ex.c **** 
1492:../../../../../../Drivers/STM32L0xx_HAL_Driver/Src/stm32l0xx_hal_rtc_ex.c ****   /* Check the parameters */
1493:../../../../../../Drivers/STM32L0xx_HAL_Driver/Src/stm32l0xx_hal_rtc_ex.c ****   assert_param(IS_RTC_BKP(BackupRegister));
1494:../../../../../../Drivers/STM32L0xx_HAL_Driver/Src/stm32l0xx_hal_rtc_ex.c **** 
1495:../../../../../../Drivers/STM32L0xx_HAL_Driver/Src/stm32l0xx_hal_rtc_ex.c ****   tmp = (uint32_t)&(hrtc->Instance->BKP0R);
 2538              		.loc 1 1495 0
 2539 0000 0368     		ldr	r3, [r0]
1496:../../../../../../Drivers/STM32L0xx_HAL_Driver/Src/stm32l0xx_hal_rtc_ex.c ****   tmp += (BackupRegister * 4U);
 2540              		.loc 1 1496 0
 2541 0002 8900     		lsls	r1, r1, #2
 2542              	.LVL180:
1495:../../../../../../Drivers/STM32L0xx_HAL_Driver/Src/stm32l0xx_hal_rtc_ex.c ****   tmp += (BackupRegister * 4U);
 2543              		.loc 1 1495 0
 2544 0004 5033     		adds	r3, r3, #80
 2545              	.LVL181:
 2546              		.loc 1 1496 0
 2547 0006 C918     		adds	r1, r1, r3
1497:../../../../../../Drivers/STM32L0xx_HAL_Driver/Src/stm32l0xx_hal_rtc_ex.c **** 
1498:../../../../../../Drivers/STM32L0xx_HAL_Driver/Src/stm32l0xx_hal_rtc_ex.c ****   /* Write the specified register */
1499:../../../../../../Drivers/STM32L0xx_HAL_Driver/Src/stm32l0xx_hal_rtc_ex.c ****   *(__IO uint32_t *)tmp = (uint32_t)Data;
 2548              		.loc 1 1499 0
 2549 0008 0A60     		str	r2, [r1]
1500:../../../../../../Drivers/STM32L0xx_HAL_Driver/Src/stm32l0xx_hal_rtc_ex.c **** }
 2550              		.loc 1 1500 0
 2551              		@ sp needed
 2552 000a 7047     		bx	lr
 2553              		.cfi_endproc
 2554              	.LFE62:
ARM GAS  C:\Users\EBANO_~1\AppData\Local\Temp\ccyPWgHX.s 			page 76


 2555              		.size	HAL_RTCEx_BKUPWrite, .-HAL_RTCEx_BKUPWrite
 2556              		.section	.text.HAL_RTCEx_BKUPRead,"ax",%progbits
 2557              		.align	1
 2558              		.p2align 2,,3
 2559              		.global	HAL_RTCEx_BKUPRead
 2560              		.syntax unified
 2561              		.code	16
 2562              		.thumb_func
 2563              		.fpu softvfp
 2564              		.type	HAL_RTCEx_BKUPRead, %function
 2565              	HAL_RTCEx_BKUPRead:
 2566              	.LFB63:
1501:../../../../../../Drivers/STM32L0xx_HAL_Driver/Src/stm32l0xx_hal_rtc_ex.c **** 
1502:../../../../../../Drivers/STM32L0xx_HAL_Driver/Src/stm32l0xx_hal_rtc_ex.c **** /**
1503:../../../../../../Drivers/STM32L0xx_HAL_Driver/Src/stm32l0xx_hal_rtc_ex.c ****   * @brief  Reads data from the specified RTC Backup data Register.
1504:../../../../../../Drivers/STM32L0xx_HAL_Driver/Src/stm32l0xx_hal_rtc_ex.c ****   * @param  hrtc RTC handle 
1505:../../../../../../Drivers/STM32L0xx_HAL_Driver/Src/stm32l0xx_hal_rtc_ex.c ****   * @param  BackupRegister RTC Backup data Register number.
1506:../../../../../../Drivers/STM32L0xx_HAL_Driver/Src/stm32l0xx_hal_rtc_ex.c ****   *          This parameter can be: RTC_BKP_DRx where x can be from 0 to 19 to 
1507:../../../../../../Drivers/STM32L0xx_HAL_Driver/Src/stm32l0xx_hal_rtc_ex.c ****   *                                 specify the register.
1508:../../../../../../Drivers/STM32L0xx_HAL_Driver/Src/stm32l0xx_hal_rtc_ex.c ****   * @retval Read value
1509:../../../../../../Drivers/STM32L0xx_HAL_Driver/Src/stm32l0xx_hal_rtc_ex.c ****   */
1510:../../../../../../Drivers/STM32L0xx_HAL_Driver/Src/stm32l0xx_hal_rtc_ex.c **** uint32_t HAL_RTCEx_BKUPRead(RTC_HandleTypeDef *hrtc, uint32_t BackupRegister)
1511:../../../../../../Drivers/STM32L0xx_HAL_Driver/Src/stm32l0xx_hal_rtc_ex.c **** {
 2567              		.loc 1 1511 0
 2568              		.cfi_startproc
 2569              		@ args = 0, pretend = 0, frame = 0
 2570              		@ frame_needed = 0, uses_anonymous_args = 0
 2571              		@ link register save eliminated.
 2572              	.LVL182:
1512:../../../../../../Drivers/STM32L0xx_HAL_Driver/Src/stm32l0xx_hal_rtc_ex.c ****   uint32_t tmp = 0U;
1513:../../../../../../Drivers/STM32L0xx_HAL_Driver/Src/stm32l0xx_hal_rtc_ex.c **** 
1514:../../../../../../Drivers/STM32L0xx_HAL_Driver/Src/stm32l0xx_hal_rtc_ex.c ****   /* Check the parameters */
1515:../../../../../../Drivers/STM32L0xx_HAL_Driver/Src/stm32l0xx_hal_rtc_ex.c ****   assert_param(IS_RTC_BKP(BackupRegister));
1516:../../../../../../Drivers/STM32L0xx_HAL_Driver/Src/stm32l0xx_hal_rtc_ex.c **** 
1517:../../../../../../Drivers/STM32L0xx_HAL_Driver/Src/stm32l0xx_hal_rtc_ex.c ****   tmp = (uint32_t)&(hrtc->Instance->BKP0R);
 2573              		.loc 1 1517 0
 2574 0000 0368     		ldr	r3, [r0]
1518:../../../../../../Drivers/STM32L0xx_HAL_Driver/Src/stm32l0xx_hal_rtc_ex.c ****   tmp += (BackupRegister * 4U);
 2575              		.loc 1 1518 0
 2576 0002 8900     		lsls	r1, r1, #2
 2577              	.LVL183:
1517:../../../../../../Drivers/STM32L0xx_HAL_Driver/Src/stm32l0xx_hal_rtc_ex.c ****   tmp += (BackupRegister * 4U);
 2578              		.loc 1 1517 0
 2579 0004 5033     		adds	r3, r3, #80
 2580              	.LVL184:
 2581              		.loc 1 1518 0
 2582 0006 C918     		adds	r1, r1, r3
1519:../../../../../../Drivers/STM32L0xx_HAL_Driver/Src/stm32l0xx_hal_rtc_ex.c ****   
1520:../../../../../../Drivers/STM32L0xx_HAL_Driver/Src/stm32l0xx_hal_rtc_ex.c ****   /* Read the specified register */
1521:../../../../../../Drivers/STM32L0xx_HAL_Driver/Src/stm32l0xx_hal_rtc_ex.c ****   return (*(__IO uint32_t *)tmp);
 2583              		.loc 1 1521 0
 2584 0008 0868     		ldr	r0, [r1]
 2585              	.LVL185:
1522:../../../../../../Drivers/STM32L0xx_HAL_Driver/Src/stm32l0xx_hal_rtc_ex.c **** }
 2586              		.loc 1 1522 0
 2587              		@ sp needed
 2588 000a 7047     		bx	lr
ARM GAS  C:\Users\EBANO_~1\AppData\Local\Temp\ccyPWgHX.s 			page 77


 2589              		.cfi_endproc
 2590              	.LFE63:
 2591              		.size	HAL_RTCEx_BKUPRead, .-HAL_RTCEx_BKUPRead
 2592              		.section	.text.HAL_RTCEx_SetSmoothCalib,"ax",%progbits
 2593              		.align	1
 2594              		.p2align 2,,3
 2595              		.global	HAL_RTCEx_SetSmoothCalib
 2596              		.syntax unified
 2597              		.code	16
 2598              		.thumb_func
 2599              		.fpu softvfp
 2600              		.type	HAL_RTCEx_SetSmoothCalib, %function
 2601              	HAL_RTCEx_SetSmoothCalib:
 2602              	.LFB64:
1523:../../../../../../Drivers/STM32L0xx_HAL_Driver/Src/stm32l0xx_hal_rtc_ex.c **** 
1524:../../../../../../Drivers/STM32L0xx_HAL_Driver/Src/stm32l0xx_hal_rtc_ex.c **** /**
1525:../../../../../../Drivers/STM32L0xx_HAL_Driver/Src/stm32l0xx_hal_rtc_ex.c ****   * @brief  Set the Smooth calibration parameters.
1526:../../../../../../Drivers/STM32L0xx_HAL_Driver/Src/stm32l0xx_hal_rtc_ex.c ****   * @param  hrtc RTC handle  
1527:../../../../../../Drivers/STM32L0xx_HAL_Driver/Src/stm32l0xx_hal_rtc_ex.c ****   * @param  SmoothCalibPeriod Select the Smooth Calibration Period.
1528:../../../../../../Drivers/STM32L0xx_HAL_Driver/Src/stm32l0xx_hal_rtc_ex.c ****   *          This parameter can be can be one of the following values :
1529:../../../../../../Drivers/STM32L0xx_HAL_Driver/Src/stm32l0xx_hal_rtc_ex.c ****   *             @arg RTC_SMOOTHCALIB_PERIOD_32SEC: The smooth calibration period is 32s.
1530:../../../../../../Drivers/STM32L0xx_HAL_Driver/Src/stm32l0xx_hal_rtc_ex.c ****   *             @arg RTC_SMOOTHCALIB_PERIOD_16SEC: The smooth calibration period is 16s.
1531:../../../../../../Drivers/STM32L0xx_HAL_Driver/Src/stm32l0xx_hal_rtc_ex.c ****   *             @arg RTC_SMOOTHCALIB_PERIOD_8SEC: The smooth calibration period is 8s.
1532:../../../../../../Drivers/STM32L0xx_HAL_Driver/Src/stm32l0xx_hal_rtc_ex.c ****   * @param  SmoothCalibPlusPulses Select to Set or reset the CALP bit.
1533:../../../../../../Drivers/STM32L0xx_HAL_Driver/Src/stm32l0xx_hal_rtc_ex.c ****   *          This parameter can be one of the following values:
1534:../../../../../../Drivers/STM32L0xx_HAL_Driver/Src/stm32l0xx_hal_rtc_ex.c ****   *             @arg RTC_SMOOTHCALIB_PLUSPULSES_SET: Add one RTCCLK pulse every 2*11 pulses.
1535:../../../../../../Drivers/STM32L0xx_HAL_Driver/Src/stm32l0xx_hal_rtc_ex.c ****   *             @arg RTC_SMOOTHCALIB_PLUSPULSES_RESET: No RTCCLK pulses are added.
1536:../../../../../../Drivers/STM32L0xx_HAL_Driver/Src/stm32l0xx_hal_rtc_ex.c ****   * @param  SmoothCalibMinusPulsesValue Select the value of CALM[8:0] bits.
1537:../../../../../../Drivers/STM32L0xx_HAL_Driver/Src/stm32l0xx_hal_rtc_ex.c ****   *          This parameter can be one any value from 0 to 0x000001FF.
1538:../../../../../../Drivers/STM32L0xx_HAL_Driver/Src/stm32l0xx_hal_rtc_ex.c ****   * @note   To deactivate the smooth calibration, the field SmoothCalibPlusPulses 
1539:../../../../../../Drivers/STM32L0xx_HAL_Driver/Src/stm32l0xx_hal_rtc_ex.c ****   *         must be equal to SMOOTHCALIB_PLUSPULSES_RESET and the field
1540:../../../../../../Drivers/STM32L0xx_HAL_Driver/Src/stm32l0xx_hal_rtc_ex.c ****   *         SmoothCalibMinusPulsesValue mut be equal to 0.
1541:../../../../../../Drivers/STM32L0xx_HAL_Driver/Src/stm32l0xx_hal_rtc_ex.c ****   * @retval HAL status
1542:../../../../../../Drivers/STM32L0xx_HAL_Driver/Src/stm32l0xx_hal_rtc_ex.c ****   */
1543:../../../../../../Drivers/STM32L0xx_HAL_Driver/Src/stm32l0xx_hal_rtc_ex.c **** HAL_StatusTypeDef HAL_RTCEx_SetSmoothCalib(RTC_HandleTypeDef* hrtc, uint32_t SmoothCalibPeriod, uin
1544:../../../../../../Drivers/STM32L0xx_HAL_Driver/Src/stm32l0xx_hal_rtc_ex.c **** {
 2603              		.loc 1 1544 0
 2604              		.cfi_startproc
 2605              		@ args = 0, pretend = 0, frame = 0
 2606              		@ frame_needed = 0, uses_anonymous_args = 0
 2607              	.LVL186:
 2608 0000 F0B5     		push	{r4, r5, r6, r7, lr}
 2609              	.LCFI24:
 2610              		.cfi_def_cfa_offset 20
 2611              		.cfi_offset 4, -20
 2612              		.cfi_offset 5, -16
 2613              		.cfi_offset 6, -12
 2614              		.cfi_offset 7, -8
 2615              		.cfi_offset 14, -4
 2616 0002 D646     		mov	lr, r10
 2617 0004 4F46     		mov	r7, r9
 2618 0006 4646     		mov	r6, r8
 2619 0008 9A46     		mov	r10, r3
1545:../../../../../../Drivers/STM32L0xx_HAL_Driver/Src/stm32l0xx_hal_rtc_ex.c ****   uint32_t tickstart = 0U;
1546:../../../../../../Drivers/STM32L0xx_HAL_Driver/Src/stm32l0xx_hal_rtc_ex.c **** 
1547:../../../../../../Drivers/STM32L0xx_HAL_Driver/Src/stm32l0xx_hal_rtc_ex.c ****   /* Check the parameters */
1548:../../../../../../Drivers/STM32L0xx_HAL_Driver/Src/stm32l0xx_hal_rtc_ex.c ****   assert_param(IS_RTC_SMOOTH_CALIB_PERIOD(SmoothCalibPeriod));
ARM GAS  C:\Users\EBANO_~1\AppData\Local\Temp\ccyPWgHX.s 			page 78


1549:../../../../../../Drivers/STM32L0xx_HAL_Driver/Src/stm32l0xx_hal_rtc_ex.c ****   assert_param(IS_RTC_SMOOTH_CALIB_PLUS(SmoothCalibPlusPulses));
1550:../../../../../../Drivers/STM32L0xx_HAL_Driver/Src/stm32l0xx_hal_rtc_ex.c ****   assert_param(IS_RTC_SMOOTH_CALIB_MINUS(SmoothCalibMinusPulsesValue));
1551:../../../../../../Drivers/STM32L0xx_HAL_Driver/Src/stm32l0xx_hal_rtc_ex.c **** 
1552:../../../../../../Drivers/STM32L0xx_HAL_Driver/Src/stm32l0xx_hal_rtc_ex.c ****   /* Process Locked */ 
1553:../../../../../../Drivers/STM32L0xx_HAL_Driver/Src/stm32l0xx_hal_rtc_ex.c ****   __HAL_LOCK(hrtc);
 2620              		.loc 1 1553 0
 2621 000a 2023     		movs	r3, #32
 2622              	.LVL187:
1544:../../../../../../Drivers/STM32L0xx_HAL_Driver/Src/stm32l0xx_hal_rtc_ex.c ****   uint32_t tickstart = 0U;
 2623              		.loc 1 1544 0
 2624 000c C0B5     		push	{r6, r7, lr}
 2625              	.LCFI25:
 2626              		.cfi_def_cfa_offset 32
 2627              		.cfi_offset 8, -32
 2628              		.cfi_offset 9, -28
 2629              		.cfi_offset 10, -24
1544:../../../../../../Drivers/STM32L0xx_HAL_Driver/Src/stm32l0xx_hal_rtc_ex.c ****   uint32_t tickstart = 0U;
 2630              		.loc 1 1544 0
 2631 000e 1500     		movs	r5, r2
 2632              		.loc 1 1553 0
 2633 0010 C25C     		ldrb	r2, [r0, r3]
 2634              	.LVL188:
1544:../../../../../../Drivers/STM32L0xx_HAL_Driver/Src/stm32l0xx_hal_rtc_ex.c ****   uint32_t tickstart = 0U;
 2635              		.loc 1 1544 0
 2636 0012 0400     		movs	r4, r0
 2637 0014 8946     		mov	r9, r1
 2638              		.loc 1 1553 0
 2639 0016 012A     		cmp	r2, #1
 2640 0018 3BD0     		beq	.L273
 2641              		.loc 1 1553 0 is_stmt 0 discriminator 2
 2642 001a 0122     		movs	r2, #1
1554:../../../../../../Drivers/STM32L0xx_HAL_Driver/Src/stm32l0xx_hal_rtc_ex.c **** 
1555:../../../../../../Drivers/STM32L0xx_HAL_Driver/Src/stm32l0xx_hal_rtc_ex.c ****   hrtc->State = HAL_RTC_STATE_BUSY;
1556:../../../../../../Drivers/STM32L0xx_HAL_Driver/Src/stm32l0xx_hal_rtc_ex.c **** 
1557:../../../../../../Drivers/STM32L0xx_HAL_Driver/Src/stm32l0xx_hal_rtc_ex.c ****   /* Disable the write protection for RTC registers */
1558:../../../../../../Drivers/STM32L0xx_HAL_Driver/Src/stm32l0xx_hal_rtc_ex.c ****   __HAL_RTC_WRITEPROTECTION_DISABLE(hrtc);
1559:../../../../../../Drivers/STM32L0xx_HAL_Driver/Src/stm32l0xx_hal_rtc_ex.c **** 
1560:../../../../../../Drivers/STM32L0xx_HAL_Driver/Src/stm32l0xx_hal_rtc_ex.c ****   /* check if a calibration is pending*/
1561:../../../../../../Drivers/STM32L0xx_HAL_Driver/Src/stm32l0xx_hal_rtc_ex.c ****   if((hrtc->Instance->ISR & RTC_ISR_RECALPF) != RESET)
 2643              		.loc 1 1561 0 is_stmt 1 discriminator 2
 2644 001c 8026     		movs	r6, #128
1553:../../../../../../Drivers/STM32L0xx_HAL_Driver/Src/stm32l0xx_hal_rtc_ex.c **** 
 2645              		.loc 1 1553 0 discriminator 2
 2646 001e C254     		strb	r2, [r0, r3]
1555:../../../../../../Drivers/STM32L0xx_HAL_Driver/Src/stm32l0xx_hal_rtc_ex.c **** 
 2647              		.loc 1 1555 0 discriminator 2
 2648 0020 0133     		adds	r3, r3, #1
 2649 0022 0132     		adds	r2, r2, #1
 2650 0024 C254     		strb	r2, [r0, r3]
1558:../../../../../../Drivers/STM32L0xx_HAL_Driver/Src/stm32l0xx_hal_rtc_ex.c **** 
 2651              		.loc 1 1558 0 discriminator 2
 2652 0026 0068     		ldr	r0, [r0]
 2653              	.LVL189:
 2654 0028 A933     		adds	r3, r3, #169
 2655 002a 4362     		str	r3, [r0, #36]
 2656 002c 773B     		subs	r3, r3, #119
 2657 002e 4362     		str	r3, [r0, #36]
ARM GAS  C:\Users\EBANO_~1\AppData\Local\Temp\ccyPWgHX.s 			page 79


 2658              		.loc 1 1561 0 discriminator 2
 2659 0030 C368     		ldr	r3, [r0, #12]
 2660 0032 7602     		lsls	r6, r6, #9
 2661 0034 3342     		tst	r3, r6
 2662 0036 12D1     		bne	.L278
 2663              	.LVL190:
 2664              	.L270:
1562:../../../../../../Drivers/STM32L0xx_HAL_Driver/Src/stm32l0xx_hal_rtc_ex.c ****   {
1563:../../../../../../Drivers/STM32L0xx_HAL_Driver/Src/stm32l0xx_hal_rtc_ex.c ****     tickstart = HAL_GetTick();
1564:../../../../../../Drivers/STM32L0xx_HAL_Driver/Src/stm32l0xx_hal_rtc_ex.c **** 
1565:../../../../../../Drivers/STM32L0xx_HAL_Driver/Src/stm32l0xx_hal_rtc_ex.c ****     /* check if a calibration is pending*/
1566:../../../../../../Drivers/STM32L0xx_HAL_Driver/Src/stm32l0xx_hal_rtc_ex.c ****     while((hrtc->Instance->ISR & RTC_ISR_RECALPF) != RESET)
1567:../../../../../../Drivers/STM32L0xx_HAL_Driver/Src/stm32l0xx_hal_rtc_ex.c ****     {
1568:../../../../../../Drivers/STM32L0xx_HAL_Driver/Src/stm32l0xx_hal_rtc_ex.c ****       if((HAL_GetTick() - tickstart ) > RTC_TIMEOUT_VALUE)
1569:../../../../../../Drivers/STM32L0xx_HAL_Driver/Src/stm32l0xx_hal_rtc_ex.c ****       {
1570:../../../../../../Drivers/STM32L0xx_HAL_Driver/Src/stm32l0xx_hal_rtc_ex.c ****         /* Enable the write protection for RTC registers */
1571:../../../../../../Drivers/STM32L0xx_HAL_Driver/Src/stm32l0xx_hal_rtc_ex.c ****         __HAL_RTC_WRITEPROTECTION_ENABLE(hrtc);
1572:../../../../../../Drivers/STM32L0xx_HAL_Driver/Src/stm32l0xx_hal_rtc_ex.c **** 
1573:../../../../../../Drivers/STM32L0xx_HAL_Driver/Src/stm32l0xx_hal_rtc_ex.c ****         /* Change RTC state */
1574:../../../../../../Drivers/STM32L0xx_HAL_Driver/Src/stm32l0xx_hal_rtc_ex.c ****         hrtc->State = HAL_RTC_STATE_TIMEOUT; 
1575:../../../../../../Drivers/STM32L0xx_HAL_Driver/Src/stm32l0xx_hal_rtc_ex.c ****         
1576:../../../../../../Drivers/STM32L0xx_HAL_Driver/Src/stm32l0xx_hal_rtc_ex.c ****         /* Process Unlocked */
1577:../../../../../../Drivers/STM32L0xx_HAL_Driver/Src/stm32l0xx_hal_rtc_ex.c ****         __HAL_UNLOCK(hrtc);
1578:../../../../../../Drivers/STM32L0xx_HAL_Driver/Src/stm32l0xx_hal_rtc_ex.c **** 
1579:../../../../../../Drivers/STM32L0xx_HAL_Driver/Src/stm32l0xx_hal_rtc_ex.c ****         return HAL_TIMEOUT;
1580:../../../../../../Drivers/STM32L0xx_HAL_Driver/Src/stm32l0xx_hal_rtc_ex.c ****       }
1581:../../../../../../Drivers/STM32L0xx_HAL_Driver/Src/stm32l0xx_hal_rtc_ex.c ****     }
1582:../../../../../../Drivers/STM32L0xx_HAL_Driver/Src/stm32l0xx_hal_rtc_ex.c ****   }
1583:../../../../../../Drivers/STM32L0xx_HAL_Driver/Src/stm32l0xx_hal_rtc_ex.c **** 
1584:../../../../../../Drivers/STM32L0xx_HAL_Driver/Src/stm32l0xx_hal_rtc_ex.c ****   /* Configure the Smooth calibration settings */
1585:../../../../../../Drivers/STM32L0xx_HAL_Driver/Src/stm32l0xx_hal_rtc_ex.c ****   hrtc->Instance->CALR = (uint32_t)((uint32_t)SmoothCalibPeriod | (uint32_t)SmoothCalibPlusPulses |
 2665              		.loc 1 1585 0
 2666 0038 5346     		mov	r3, r10
 2667 003a 1D43     		orrs	r5, r3
 2668              	.LVL191:
 2669 003c 4B46     		mov	r3, r9
 2670 003e 1D43     		orrs	r5, r3
1586:../../../../../../Drivers/STM32L0xx_HAL_Driver/Src/stm32l0xx_hal_rtc_ex.c **** 
1587:../../../../../../Drivers/STM32L0xx_HAL_Driver/Src/stm32l0xx_hal_rtc_ex.c ****   /* Enable the write protection for RTC registers */
1588:../../../../../../Drivers/STM32L0xx_HAL_Driver/Src/stm32l0xx_hal_rtc_ex.c ****   __HAL_RTC_WRITEPROTECTION_ENABLE(hrtc);
 2671              		.loc 1 1588 0
 2672 0040 FF23     		movs	r3, #255
1589:../../../../../../Drivers/STM32L0xx_HAL_Driver/Src/stm32l0xx_hal_rtc_ex.c **** 
1590:../../../../../../Drivers/STM32L0xx_HAL_Driver/Src/stm32l0xx_hal_rtc_ex.c ****   /* Change RTC state */
1591:../../../../../../Drivers/STM32L0xx_HAL_Driver/Src/stm32l0xx_hal_rtc_ex.c ****   hrtc->State = HAL_RTC_STATE_READY; 
 2673              		.loc 1 1591 0
 2674 0042 0122     		movs	r2, #1
1585:../../../../../../Drivers/STM32L0xx_HAL_Driver/Src/stm32l0xx_hal_rtc_ex.c **** 
 2675              		.loc 1 1585 0
 2676 0044 C563     		str	r5, [r0, #60]
1588:../../../../../../Drivers/STM32L0xx_HAL_Driver/Src/stm32l0xx_hal_rtc_ex.c **** 
 2677              		.loc 1 1588 0
 2678 0046 4362     		str	r3, [r0, #36]
 2679              		.loc 1 1591 0
 2680 0048 DE3B     		subs	r3, r3, #222
 2681 004a E254     		strb	r2, [r4, r3]
1592:../../../../../../Drivers/STM32L0xx_HAL_Driver/Src/stm32l0xx_hal_rtc_ex.c **** 
ARM GAS  C:\Users\EBANO_~1\AppData\Local\Temp\ccyPWgHX.s 			page 80


1593:../../../../../../Drivers/STM32L0xx_HAL_Driver/Src/stm32l0xx_hal_rtc_ex.c ****   /* Process Unlocked */
1594:../../../../../../Drivers/STM32L0xx_HAL_Driver/Src/stm32l0xx_hal_rtc_ex.c ****   __HAL_UNLOCK(hrtc);
 2682              		.loc 1 1594 0
 2683 004c 0022     		movs	r2, #0
1595:../../../../../../Drivers/STM32L0xx_HAL_Driver/Src/stm32l0xx_hal_rtc_ex.c **** 
1596:../../../../../../Drivers/STM32L0xx_HAL_Driver/Src/stm32l0xx_hal_rtc_ex.c ****   return HAL_OK;
 2684              		.loc 1 1596 0
 2685 004e 0020     		movs	r0, #0
1594:../../../../../../Drivers/STM32L0xx_HAL_Driver/Src/stm32l0xx_hal_rtc_ex.c **** 
 2686              		.loc 1 1594 0
 2687 0050 013B     		subs	r3, r3, #1
 2688 0052 E254     		strb	r2, [r4, r3]
 2689              	.L269:
1597:../../../../../../Drivers/STM32L0xx_HAL_Driver/Src/stm32l0xx_hal_rtc_ex.c **** }
 2690              		.loc 1 1597 0
 2691              		@ sp needed
 2692              	.LVL192:
 2693              	.LVL193:
 2694              	.LVL194:
 2695 0054 1CBC     		pop	{r2, r3, r4}
 2696 0056 9046     		mov	r8, r2
 2697 0058 9946     		mov	r9, r3
 2698 005a A246     		mov	r10, r4
 2699 005c F0BD     		pop	{r4, r5, r6, r7, pc}
 2700              	.LVL195:
 2701              	.L278:
1563:../../../../../../Drivers/STM32L0xx_HAL_Driver/Src/stm32l0xx_hal_rtc_ex.c **** 
 2702              		.loc 1 1563 0
 2703 005e FFF7FEFF 		bl	HAL_GetTick
 2704              	.LVL196:
1568:../../../../../../Drivers/STM32L0xx_HAL_Driver/Src/stm32l0xx_hal_rtc_ex.c ****       {
 2705              		.loc 1 1568 0
 2706 0062 FA27     		movs	r7, #250
1563:../../../../../../Drivers/STM32L0xx_HAL_Driver/Src/stm32l0xx_hal_rtc_ex.c **** 
 2707              		.loc 1 1563 0
 2708 0064 8046     		mov	r8, r0
 2709              	.LVL197:
1568:../../../../../../Drivers/STM32L0xx_HAL_Driver/Src/stm32l0xx_hal_rtc_ex.c ****       {
 2710              		.loc 1 1568 0
 2711 0066 BF00     		lsls	r7, r7, #2
 2712              	.LVL198:
 2713              	.L271:
1566:../../../../../../Drivers/STM32L0xx_HAL_Driver/Src/stm32l0xx_hal_rtc_ex.c ****     {
 2714              		.loc 1 1566 0
 2715 0068 2068     		ldr	r0, [r4]
 2716 006a C368     		ldr	r3, [r0, #12]
 2717 006c 3342     		tst	r3, r6
 2718 006e E3D0     		beq	.L270
1568:../../../../../../Drivers/STM32L0xx_HAL_Driver/Src/stm32l0xx_hal_rtc_ex.c ****       {
 2719              		.loc 1 1568 0
 2720 0070 FFF7FEFF 		bl	HAL_GetTick
 2721              	.LVL199:
 2722 0074 4346     		mov	r3, r8
 2723 0076 C01A     		subs	r0, r0, r3
 2724 0078 B842     		cmp	r0, r7
 2725 007a F5D9     		bls	.L271
 2726              	.LVL200:
ARM GAS  C:\Users\EBANO_~1\AppData\Local\Temp\ccyPWgHX.s 			page 81


1571:../../../../../../Drivers/STM32L0xx_HAL_Driver/Src/stm32l0xx_hal_rtc_ex.c **** 
 2727              		.loc 1 1571 0
 2728 007c FF22     		movs	r2, #255
 2729 007e 2368     		ldr	r3, [r4]
 2730              	.LVL201:
1579:../../../../../../Drivers/STM32L0xx_HAL_Driver/Src/stm32l0xx_hal_rtc_ex.c ****       }
 2731              		.loc 1 1579 0
 2732 0080 0320     		movs	r0, #3
1571:../../../../../../Drivers/STM32L0xx_HAL_Driver/Src/stm32l0xx_hal_rtc_ex.c **** 
 2733              		.loc 1 1571 0
 2734 0082 5A62     		str	r2, [r3, #36]
1574:../../../../../../Drivers/STM32L0xx_HAL_Driver/Src/stm32l0xx_hal_rtc_ex.c ****         
 2735              		.loc 1 1574 0
 2736 0084 2123     		movs	r3, #33
 2737 0086 FC3A     		subs	r2, r2, #252
 2738 0088 E254     		strb	r2, [r4, r3]
1577:../../../../../../Drivers/STM32L0xx_HAL_Driver/Src/stm32l0xx_hal_rtc_ex.c **** 
 2739              		.loc 1 1577 0
 2740 008a 0022     		movs	r2, #0
 2741 008c 013B     		subs	r3, r3, #1
 2742 008e E254     		strb	r2, [r4, r3]
1579:../../../../../../Drivers/STM32L0xx_HAL_Driver/Src/stm32l0xx_hal_rtc_ex.c ****       }
 2743              		.loc 1 1579 0
 2744 0090 E0E7     		b	.L269
 2745              	.LVL202:
 2746              	.L273:
1553:../../../../../../Drivers/STM32L0xx_HAL_Driver/Src/stm32l0xx_hal_rtc_ex.c **** 
 2747              		.loc 1 1553 0
 2748 0092 0220     		movs	r0, #2
 2749              	.LVL203:
 2750 0094 DEE7     		b	.L269
 2751              		.cfi_endproc
 2752              	.LFE64:
 2753              		.size	HAL_RTCEx_SetSmoothCalib, .-HAL_RTCEx_SetSmoothCalib
 2754 0096 C046     		.section	.text.HAL_RTCEx_SetSynchroShift,"ax",%progbits
 2755              		.align	1
 2756              		.p2align 2,,3
 2757              		.global	HAL_RTCEx_SetSynchroShift
 2758              		.syntax unified
 2759              		.code	16
 2760              		.thumb_func
 2761              		.fpu softvfp
 2762              		.type	HAL_RTCEx_SetSynchroShift, %function
 2763              	HAL_RTCEx_SetSynchroShift:
 2764              	.LFB65:
1598:../../../../../../Drivers/STM32L0xx_HAL_Driver/Src/stm32l0xx_hal_rtc_ex.c **** 
1599:../../../../../../Drivers/STM32L0xx_HAL_Driver/Src/stm32l0xx_hal_rtc_ex.c **** /**
1600:../../../../../../Drivers/STM32L0xx_HAL_Driver/Src/stm32l0xx_hal_rtc_ex.c ****   * @brief  Configure the Synchronization Shift Control Settings.
1601:../../../../../../Drivers/STM32L0xx_HAL_Driver/Src/stm32l0xx_hal_rtc_ex.c ****   * @note   When REFCKON is set, firmware must not write to Shift control register. 
1602:../../../../../../Drivers/STM32L0xx_HAL_Driver/Src/stm32l0xx_hal_rtc_ex.c ****   * @param  hrtc RTC handle    
1603:../../../../../../Drivers/STM32L0xx_HAL_Driver/Src/stm32l0xx_hal_rtc_ex.c ****   * @param  ShiftAdd1S Select to add or not 1 second to the time calendar.
1604:../../../../../../Drivers/STM32L0xx_HAL_Driver/Src/stm32l0xx_hal_rtc_ex.c ****   *          This parameter can be one of the following values :
1605:../../../../../../Drivers/STM32L0xx_HAL_Driver/Src/stm32l0xx_hal_rtc_ex.c ****   *             @arg RTC_SHIFTADD1S_SET: Add one second to the clock calendar. 
1606:../../../../../../Drivers/STM32L0xx_HAL_Driver/Src/stm32l0xx_hal_rtc_ex.c ****   *             @arg RTC_SHIFTADD1S_RESET: No effect.
1607:../../../../../../Drivers/STM32L0xx_HAL_Driver/Src/stm32l0xx_hal_rtc_ex.c ****   * @param  ShiftSubFS Select the number of Second Fractions to substitute.
1608:../../../../../../Drivers/STM32L0xx_HAL_Driver/Src/stm32l0xx_hal_rtc_ex.c ****   *          This parameter can be one any value from 0 to 0x7FFF.
1609:../../../../../../Drivers/STM32L0xx_HAL_Driver/Src/stm32l0xx_hal_rtc_ex.c ****   * @retval HAL status
ARM GAS  C:\Users\EBANO_~1\AppData\Local\Temp\ccyPWgHX.s 			page 82


1610:../../../../../../Drivers/STM32L0xx_HAL_Driver/Src/stm32l0xx_hal_rtc_ex.c ****   */
1611:../../../../../../Drivers/STM32L0xx_HAL_Driver/Src/stm32l0xx_hal_rtc_ex.c **** HAL_StatusTypeDef HAL_RTCEx_SetSynchroShift(RTC_HandleTypeDef* hrtc, uint32_t ShiftAdd1S, uint32_t 
1612:../../../../../../Drivers/STM32L0xx_HAL_Driver/Src/stm32l0xx_hal_rtc_ex.c **** {
 2765              		.loc 1 1612 0
 2766              		.cfi_startproc
 2767              		@ args = 0, pretend = 0, frame = 0
 2768              		@ frame_needed = 0, uses_anonymous_args = 0
 2769              	.LVL204:
 2770 0000 F8B5     		push	{r3, r4, r5, r6, r7, lr}
 2771              	.LCFI26:
 2772              		.cfi_def_cfa_offset 24
 2773              		.cfi_offset 3, -24
 2774              		.cfi_offset 4, -20
 2775              		.cfi_offset 5, -16
 2776              		.cfi_offset 6, -12
 2777              		.cfi_offset 7, -8
 2778              		.cfi_offset 14, -4
 2779 0002 CE46     		mov	lr, r9
 2780 0004 4746     		mov	r7, r8
1613:../../../../../../Drivers/STM32L0xx_HAL_Driver/Src/stm32l0xx_hal_rtc_ex.c ****   uint32_t tickstart = 0U;
1614:../../../../../../Drivers/STM32L0xx_HAL_Driver/Src/stm32l0xx_hal_rtc_ex.c **** 
1615:../../../../../../Drivers/STM32L0xx_HAL_Driver/Src/stm32l0xx_hal_rtc_ex.c ****   /* Check the parameters */
1616:../../../../../../Drivers/STM32L0xx_HAL_Driver/Src/stm32l0xx_hal_rtc_ex.c ****   assert_param(IS_RTC_SHIFT_ADD1S(ShiftAdd1S));
1617:../../../../../../Drivers/STM32L0xx_HAL_Driver/Src/stm32l0xx_hal_rtc_ex.c ****   assert_param(IS_RTC_SHIFT_SUBFS(ShiftSubFS));
1618:../../../../../../Drivers/STM32L0xx_HAL_Driver/Src/stm32l0xx_hal_rtc_ex.c **** 
1619:../../../../../../Drivers/STM32L0xx_HAL_Driver/Src/stm32l0xx_hal_rtc_ex.c ****   /* Process Locked */ 
1620:../../../../../../Drivers/STM32L0xx_HAL_Driver/Src/stm32l0xx_hal_rtc_ex.c ****   __HAL_LOCK(hrtc);
 2781              		.loc 1 1620 0
 2782 0006 2023     		movs	r3, #32
1612:../../../../../../Drivers/STM32L0xx_HAL_Driver/Src/stm32l0xx_hal_rtc_ex.c ****   uint32_t tickstart = 0U;
 2783              		.loc 1 1612 0
 2784 0008 80B5     		push	{r7, lr}
 2785              	.LCFI27:
 2786              		.cfi_def_cfa_offset 32
 2787              		.cfi_offset 8, -32
 2788              		.cfi_offset 9, -28
1612:../../../../../../Drivers/STM32L0xx_HAL_Driver/Src/stm32l0xx_hal_rtc_ex.c ****   uint32_t tickstart = 0U;
 2789              		.loc 1 1612 0
 2790 000a 9046     		mov	r8, r2
 2791              		.loc 1 1620 0
 2792 000c C25C     		ldrb	r2, [r0, r3]
 2793              	.LVL205:
1612:../../../../../../Drivers/STM32L0xx_HAL_Driver/Src/stm32l0xx_hal_rtc_ex.c ****   uint32_t tickstart = 0U;
 2794              		.loc 1 1612 0
 2795 000e 0400     		movs	r4, r0
 2796 0010 8946     		mov	r9, r1
 2797              		.loc 1 1620 0
 2798 0012 012A     		cmp	r2, #1
 2799 0014 3CD0     		beq	.L286
 2800              		.loc 1 1620 0 is_stmt 0 discriminator 2
 2801 0016 0122     		movs	r2, #1
 2802 0018 C254     		strb	r2, [r0, r3]
1621:../../../../../../Drivers/STM32L0xx_HAL_Driver/Src/stm32l0xx_hal_rtc_ex.c **** 
1622:../../../../../../Drivers/STM32L0xx_HAL_Driver/Src/stm32l0xx_hal_rtc_ex.c ****   hrtc->State = HAL_RTC_STATE_BUSY;
 2803              		.loc 1 1622 0 is_stmt 1 discriminator 2
 2804 001a 0133     		adds	r3, r3, #1
 2805 001c 0132     		adds	r2, r2, #1
ARM GAS  C:\Users\EBANO_~1\AppData\Local\Temp\ccyPWgHX.s 			page 83


 2806 001e C254     		strb	r2, [r0, r3]
1623:../../../../../../Drivers/STM32L0xx_HAL_Driver/Src/stm32l0xx_hal_rtc_ex.c **** 
1624:../../../../../../Drivers/STM32L0xx_HAL_Driver/Src/stm32l0xx_hal_rtc_ex.c ****   /* Disable the write protection for RTC registers */
1625:../../../../../../Drivers/STM32L0xx_HAL_Driver/Src/stm32l0xx_hal_rtc_ex.c ****   __HAL_RTC_WRITEPROTECTION_DISABLE(hrtc);
 2807              		.loc 1 1625 0 discriminator 2
 2808 0020 0368     		ldr	r3, [r0]
 2809 0022 C832     		adds	r2, r2, #200
 2810 0024 5A62     		str	r2, [r3, #36]
 2811 0026 773A     		subs	r2, r2, #119
 2812 0028 5A62     		str	r2, [r3, #36]
1626:../../../../../../Drivers/STM32L0xx_HAL_Driver/Src/stm32l0xx_hal_rtc_ex.c **** 
1627:../../../../../../Drivers/STM32L0xx_HAL_Driver/Src/stm32l0xx_hal_rtc_ex.c ****     tickstart = HAL_GetTick();
 2813              		.loc 1 1627 0 discriminator 2
 2814 002a FFF7FEFF 		bl	HAL_GetTick
 2815              	.LVL206:
1628:../../../../../../Drivers/STM32L0xx_HAL_Driver/Src/stm32l0xx_hal_rtc_ex.c **** 
1629:../../../../../../Drivers/STM32L0xx_HAL_Driver/Src/stm32l0xx_hal_rtc_ex.c ****     /* Wait until the shift is completed*/
1630:../../../../../../Drivers/STM32L0xx_HAL_Driver/Src/stm32l0xx_hal_rtc_ex.c ****     while((hrtc->Instance->ISR & RTC_ISR_SHPF) != RESET)
1631:../../../../../../Drivers/STM32L0xx_HAL_Driver/Src/stm32l0xx_hal_rtc_ex.c ****     {
1632:../../../../../../Drivers/STM32L0xx_HAL_Driver/Src/stm32l0xx_hal_rtc_ex.c ****       if((HAL_GetTick() - tickstart ) > RTC_TIMEOUT_VALUE)
 2816              		.loc 1 1632 0 discriminator 2
 2817 002e FA26     		movs	r6, #250
1627:../../../../../../Drivers/STM32L0xx_HAL_Driver/Src/stm32l0xx_hal_rtc_ex.c **** 
 2818              		.loc 1 1627 0 discriminator 2
 2819 0030 0700     		movs	r7, r0
 2820              	.LVL207:
1630:../../../../../../Drivers/STM32L0xx_HAL_Driver/Src/stm32l0xx_hal_rtc_ex.c ****     {
 2821              		.loc 1 1630 0 discriminator 2
 2822 0032 0825     		movs	r5, #8
 2823              		.loc 1 1632 0 discriminator 2
 2824 0034 B600     		lsls	r6, r6, #2
1630:../../../../../../Drivers/STM32L0xx_HAL_Driver/Src/stm32l0xx_hal_rtc_ex.c ****     {
 2825              		.loc 1 1630 0 discriminator 2
 2826 0036 04E0     		b	.L281
 2827              	.LVL208:
 2828              	.L282:
 2829              		.loc 1 1632 0
 2830 0038 FFF7FEFF 		bl	HAL_GetTick
 2831              	.LVL209:
 2832 003c C01B     		subs	r0, r0, r7
 2833 003e B042     		cmp	r0, r6
 2834 0040 18D8     		bhi	.L288
 2835              	.L281:
1630:../../../../../../Drivers/STM32L0xx_HAL_Driver/Src/stm32l0xx_hal_rtc_ex.c ****     {
 2836              		.loc 1 1630 0
 2837 0042 2268     		ldr	r2, [r4]
 2838 0044 D368     		ldr	r3, [r2, #12]
 2839 0046 2B40     		ands	r3, r5
 2840 0048 F6D1     		bne	.L282
1633:../../../../../../Drivers/STM32L0xx_HAL_Driver/Src/stm32l0xx_hal_rtc_ex.c ****       {
1634:../../../../../../Drivers/STM32L0xx_HAL_Driver/Src/stm32l0xx_hal_rtc_ex.c ****         /* Enable the write protection for RTC registers */
1635:../../../../../../Drivers/STM32L0xx_HAL_Driver/Src/stm32l0xx_hal_rtc_ex.c ****         __HAL_RTC_WRITEPROTECTION_ENABLE(hrtc);
1636:../../../../../../Drivers/STM32L0xx_HAL_Driver/Src/stm32l0xx_hal_rtc_ex.c **** 
1637:../../../../../../Drivers/STM32L0xx_HAL_Driver/Src/stm32l0xx_hal_rtc_ex.c ****         hrtc->State = HAL_RTC_STATE_TIMEOUT;
1638:../../../../../../Drivers/STM32L0xx_HAL_Driver/Src/stm32l0xx_hal_rtc_ex.c **** 
1639:../../../../../../Drivers/STM32L0xx_HAL_Driver/Src/stm32l0xx_hal_rtc_ex.c ****         /* Process Unlocked */ 
1640:../../../../../../Drivers/STM32L0xx_HAL_Driver/Src/stm32l0xx_hal_rtc_ex.c ****         __HAL_UNLOCK(hrtc);
ARM GAS  C:\Users\EBANO_~1\AppData\Local\Temp\ccyPWgHX.s 			page 84


1641:../../../../../../Drivers/STM32L0xx_HAL_Driver/Src/stm32l0xx_hal_rtc_ex.c **** 
1642:../../../../../../Drivers/STM32L0xx_HAL_Driver/Src/stm32l0xx_hal_rtc_ex.c ****         return HAL_TIMEOUT;
1643:../../../../../../Drivers/STM32L0xx_HAL_Driver/Src/stm32l0xx_hal_rtc_ex.c ****       }
1644:../../../../../../Drivers/STM32L0xx_HAL_Driver/Src/stm32l0xx_hal_rtc_ex.c ****     }
1645:../../../../../../Drivers/STM32L0xx_HAL_Driver/Src/stm32l0xx_hal_rtc_ex.c **** 
1646:../../../../../../Drivers/STM32L0xx_HAL_Driver/Src/stm32l0xx_hal_rtc_ex.c ****     /* Check if the reference clock detection is disabled */
1647:../../../../../../Drivers/STM32L0xx_HAL_Driver/Src/stm32l0xx_hal_rtc_ex.c ****     if((hrtc->Instance->CR & RTC_CR_REFCKON) == RESET)
 2841              		.loc 1 1647 0
 2842 004a 9168     		ldr	r1, [r2, #8]
 2843 004c C906     		lsls	r1, r1, #27
 2844 004e 21D4     		bmi	.L283
1648:../../../../../../Drivers/STM32L0xx_HAL_Driver/Src/stm32l0xx_hal_rtc_ex.c ****     {
1649:../../../../../../Drivers/STM32L0xx_HAL_Driver/Src/stm32l0xx_hal_rtc_ex.c ****       /* Configure the Shift settings */
1650:../../../../../../Drivers/STM32L0xx_HAL_Driver/Src/stm32l0xx_hal_rtc_ex.c ****       hrtc->Instance->SHIFTR = (uint32_t)(uint32_t)(ShiftSubFS) | (uint32_t)(ShiftAdd1S);
 2845              		.loc 1 1650 0
 2846 0050 4346     		mov	r3, r8
 2847 0052 4946     		mov	r1, r9
1651:../../../../../../Drivers/STM32L0xx_HAL_Driver/Src/stm32l0xx_hal_rtc_ex.c **** 
1652:../../../../../../Drivers/STM32L0xx_HAL_Driver/Src/stm32l0xx_hal_rtc_ex.c ****       /* If  RTC_CR_BYPSHAD bit = 0, wait for synchro else this check is not needed */
1653:../../../../../../Drivers/STM32L0xx_HAL_Driver/Src/stm32l0xx_hal_rtc_ex.c ****       if((hrtc->Instance->CR & RTC_CR_BYPSHAD) == RESET)
 2848              		.loc 1 1653 0
 2849 0054 2026     		movs	r6, #32
1650:../../../../../../Drivers/STM32L0xx_HAL_Driver/Src/stm32l0xx_hal_rtc_ex.c **** 
 2850              		.loc 1 1650 0
 2851 0056 0B43     		orrs	r3, r1
 2852 0058 D362     		str	r3, [r2, #44]
 2853              		.loc 1 1653 0
 2854 005a 9568     		ldr	r5, [r2, #8]
 2855 005c 3540     		ands	r5, r6
 2856 005e 22D0     		beq	.L289
 2857              	.L284:
1654:../../../../../../Drivers/STM32L0xx_HAL_Driver/Src/stm32l0xx_hal_rtc_ex.c ****       {
1655:../../../../../../Drivers/STM32L0xx_HAL_Driver/Src/stm32l0xx_hal_rtc_ex.c ****         if(HAL_RTC_WaitForSynchro(hrtc) != HAL_OK)
1656:../../../../../../Drivers/STM32L0xx_HAL_Driver/Src/stm32l0xx_hal_rtc_ex.c ****         {
1657:../../../../../../Drivers/STM32L0xx_HAL_Driver/Src/stm32l0xx_hal_rtc_ex.c ****           /* Enable the write protection for RTC registers */
1658:../../../../../../Drivers/STM32L0xx_HAL_Driver/Src/stm32l0xx_hal_rtc_ex.c ****           __HAL_RTC_WRITEPROTECTION_ENABLE(hrtc);
1659:../../../../../../Drivers/STM32L0xx_HAL_Driver/Src/stm32l0xx_hal_rtc_ex.c **** 
1660:../../../../../../Drivers/STM32L0xx_HAL_Driver/Src/stm32l0xx_hal_rtc_ex.c ****           hrtc->State = HAL_RTC_STATE_ERROR;
1661:../../../../../../Drivers/STM32L0xx_HAL_Driver/Src/stm32l0xx_hal_rtc_ex.c **** 
1662:../../../../../../Drivers/STM32L0xx_HAL_Driver/Src/stm32l0xx_hal_rtc_ex.c ****           /* Process Unlocked */ 
1663:../../../../../../Drivers/STM32L0xx_HAL_Driver/Src/stm32l0xx_hal_rtc_ex.c ****           __HAL_UNLOCK(hrtc);
1664:../../../../../../Drivers/STM32L0xx_HAL_Driver/Src/stm32l0xx_hal_rtc_ex.c **** 
1665:../../../../../../Drivers/STM32L0xx_HAL_Driver/Src/stm32l0xx_hal_rtc_ex.c ****           return HAL_ERROR;
1666:../../../../../../Drivers/STM32L0xx_HAL_Driver/Src/stm32l0xx_hal_rtc_ex.c ****         }
1667:../../../../../../Drivers/STM32L0xx_HAL_Driver/Src/stm32l0xx_hal_rtc_ex.c ****       }
1668:../../../../../../Drivers/STM32L0xx_HAL_Driver/Src/stm32l0xx_hal_rtc_ex.c ****     }
1669:../../../../../../Drivers/STM32L0xx_HAL_Driver/Src/stm32l0xx_hal_rtc_ex.c ****     else
1670:../../../../../../Drivers/STM32L0xx_HAL_Driver/Src/stm32l0xx_hal_rtc_ex.c ****     {
1671:../../../../../../Drivers/STM32L0xx_HAL_Driver/Src/stm32l0xx_hal_rtc_ex.c ****       /* Enable the write protection for RTC registers */
1672:../../../../../../Drivers/STM32L0xx_HAL_Driver/Src/stm32l0xx_hal_rtc_ex.c ****       __HAL_RTC_WRITEPROTECTION_ENABLE(hrtc);
1673:../../../../../../Drivers/STM32L0xx_HAL_Driver/Src/stm32l0xx_hal_rtc_ex.c ****       
1674:../../../../../../Drivers/STM32L0xx_HAL_Driver/Src/stm32l0xx_hal_rtc_ex.c ****       /* Change RTC state */
1675:../../../../../../Drivers/STM32L0xx_HAL_Driver/Src/stm32l0xx_hal_rtc_ex.c ****       hrtc->State = HAL_RTC_STATE_ERROR;
1676:../../../../../../Drivers/STM32L0xx_HAL_Driver/Src/stm32l0xx_hal_rtc_ex.c ****       
1677:../../../../../../Drivers/STM32L0xx_HAL_Driver/Src/stm32l0xx_hal_rtc_ex.c ****       /* Process Unlocked */ 
1678:../../../../../../Drivers/STM32L0xx_HAL_Driver/Src/stm32l0xx_hal_rtc_ex.c ****       __HAL_UNLOCK(hrtc);
1679:../../../../../../Drivers/STM32L0xx_HAL_Driver/Src/stm32l0xx_hal_rtc_ex.c **** 
ARM GAS  C:\Users\EBANO_~1\AppData\Local\Temp\ccyPWgHX.s 			page 85


1680:../../../../../../Drivers/STM32L0xx_HAL_Driver/Src/stm32l0xx_hal_rtc_ex.c ****       return HAL_ERROR;
1681:../../../../../../Drivers/STM32L0xx_HAL_Driver/Src/stm32l0xx_hal_rtc_ex.c ****     }
1682:../../../../../../Drivers/STM32L0xx_HAL_Driver/Src/stm32l0xx_hal_rtc_ex.c **** 
1683:../../../../../../Drivers/STM32L0xx_HAL_Driver/Src/stm32l0xx_hal_rtc_ex.c ****   /* Enable the write protection for RTC registers */
1684:../../../../../../Drivers/STM32L0xx_HAL_Driver/Src/stm32l0xx_hal_rtc_ex.c ****   __HAL_RTC_WRITEPROTECTION_ENABLE(hrtc);
 2858              		.loc 1 1684 0
 2859 0060 FF23     		movs	r3, #255
 2860 0062 5362     		str	r3, [r2, #36]
1685:../../../../../../Drivers/STM32L0xx_HAL_Driver/Src/stm32l0xx_hal_rtc_ex.c **** 
1686:../../../../../../Drivers/STM32L0xx_HAL_Driver/Src/stm32l0xx_hal_rtc_ex.c ****   /* Change RTC state */
1687:../../../../../../Drivers/STM32L0xx_HAL_Driver/Src/stm32l0xx_hal_rtc_ex.c ****   hrtc->State = HAL_RTC_STATE_READY;
 2861              		.loc 1 1687 0
 2862 0064 0122     		movs	r2, #1
 2863 0066 DE3B     		subs	r3, r3, #222
 2864 0068 E254     		strb	r2, [r4, r3]
1688:../../../../../../Drivers/STM32L0xx_HAL_Driver/Src/stm32l0xx_hal_rtc_ex.c **** 
1689:../../../../../../Drivers/STM32L0xx_HAL_Driver/Src/stm32l0xx_hal_rtc_ex.c ****   /* Process Unlocked */
1690:../../../../../../Drivers/STM32L0xx_HAL_Driver/Src/stm32l0xx_hal_rtc_ex.c ****   __HAL_UNLOCK(hrtc);
 2865              		.loc 1 1690 0
 2866 006a 0022     		movs	r2, #0
 2867 006c 013B     		subs	r3, r3, #1
 2868 006e E254     		strb	r2, [r4, r3]
1691:../../../../../../Drivers/STM32L0xx_HAL_Driver/Src/stm32l0xx_hal_rtc_ex.c **** 
1692:../../../../../../Drivers/STM32L0xx_HAL_Driver/Src/stm32l0xx_hal_rtc_ex.c ****   return HAL_OK;
 2869              		.loc 1 1692 0
 2870 0070 0020     		movs	r0, #0
 2871 0072 09E0     		b	.L280
 2872              	.L288:
1635:../../../../../../Drivers/STM32L0xx_HAL_Driver/Src/stm32l0xx_hal_rtc_ex.c **** 
 2873              		.loc 1 1635 0
 2874 0074 FF22     		movs	r2, #255
 2875 0076 2368     		ldr	r3, [r4]
1642:../../../../../../Drivers/STM32L0xx_HAL_Driver/Src/stm32l0xx_hal_rtc_ex.c ****       }
 2876              		.loc 1 1642 0
 2877 0078 0320     		movs	r0, #3
1635:../../../../../../Drivers/STM32L0xx_HAL_Driver/Src/stm32l0xx_hal_rtc_ex.c **** 
 2878              		.loc 1 1635 0
 2879 007a 5A62     		str	r2, [r3, #36]
1637:../../../../../../Drivers/STM32L0xx_HAL_Driver/Src/stm32l0xx_hal_rtc_ex.c **** 
 2880              		.loc 1 1637 0
 2881 007c 2123     		movs	r3, #33
 2882 007e FC3A     		subs	r2, r2, #252
 2883 0080 E254     		strb	r2, [r4, r3]
1640:../../../../../../Drivers/STM32L0xx_HAL_Driver/Src/stm32l0xx_hal_rtc_ex.c **** 
 2884              		.loc 1 1640 0
 2885 0082 0022     		movs	r2, #0
 2886 0084 013B     		subs	r3, r3, #1
 2887 0086 E254     		strb	r2, [r4, r3]
 2888              	.LVL210:
 2889              	.L280:
1693:../../../../../../Drivers/STM32L0xx_HAL_Driver/Src/stm32l0xx_hal_rtc_ex.c **** }
 2890              		.loc 1 1693 0
 2891              		@ sp needed
 2892              	.LVL211:
 2893              	.LVL212:
 2894              	.LVL213:
 2895 0088 0CBC     		pop	{r2, r3}
ARM GAS  C:\Users\EBANO_~1\AppData\Local\Temp\ccyPWgHX.s 			page 86


 2896 008a 9046     		mov	r8, r2
 2897 008c 9946     		mov	r9, r3
 2898 008e F8BD     		pop	{r3, r4, r5, r6, r7, pc}
 2899              	.LVL214:
 2900              	.L286:
1620:../../../../../../Drivers/STM32L0xx_HAL_Driver/Src/stm32l0xx_hal_rtc_ex.c **** 
 2901              		.loc 1 1620 0
 2902 0090 0220     		movs	r0, #2
 2903              	.LVL215:
 2904 0092 F9E7     		b	.L280
 2905              	.LVL216:
 2906              	.L283:
1672:../../../../../../Drivers/STM32L0xx_HAL_Driver/Src/stm32l0xx_hal_rtc_ex.c ****       
 2907              		.loc 1 1672 0
 2908 0094 FF21     		movs	r1, #255
 2909 0096 5162     		str	r1, [r2, #36]
1675:../../../../../../Drivers/STM32L0xx_HAL_Driver/Src/stm32l0xx_hal_rtc_ex.c ****       
 2910              		.loc 1 1675 0
 2911 0098 2122     		movs	r2, #33
 2912 009a FB39     		subs	r1, r1, #251
 2913 009c A154     		strb	r1, [r4, r2]
1678:../../../../../../Drivers/STM32L0xx_HAL_Driver/Src/stm32l0xx_hal_rtc_ex.c **** 
 2914              		.loc 1 1678 0
 2915 009e 013A     		subs	r2, r2, #1
 2916 00a0 A354     		strb	r3, [r4, r2]
1680:../../../../../../Drivers/STM32L0xx_HAL_Driver/Src/stm32l0xx_hal_rtc_ex.c ****     }
 2917              		.loc 1 1680 0
 2918 00a2 0120     		movs	r0, #1
 2919 00a4 F0E7     		b	.L280
 2920              	.LVL217:
 2921              	.L289:
1655:../../../../../../Drivers/STM32L0xx_HAL_Driver/Src/stm32l0xx_hal_rtc_ex.c ****         {
 2922              		.loc 1 1655 0
 2923 00a6 2000     		movs	r0, r4
 2924 00a8 FFF7FEFF 		bl	HAL_RTC_WaitForSynchro
 2925              	.LVL218:
 2926 00ac 0028     		cmp	r0, #0
 2927 00ae 01D1     		bne	.L285
 2928 00b0 2268     		ldr	r2, [r4]
 2929 00b2 D5E7     		b	.L284
 2930              	.L285:
1658:../../../../../../Drivers/STM32L0xx_HAL_Driver/Src/stm32l0xx_hal_rtc_ex.c **** 
 2931              		.loc 1 1658 0
 2932 00b4 FF22     		movs	r2, #255
 2933 00b6 2368     		ldr	r3, [r4]
1665:../../../../../../Drivers/STM32L0xx_HAL_Driver/Src/stm32l0xx_hal_rtc_ex.c ****         }
 2934              		.loc 1 1665 0
 2935 00b8 0120     		movs	r0, #1
1658:../../../../../../Drivers/STM32L0xx_HAL_Driver/Src/stm32l0xx_hal_rtc_ex.c **** 
 2936              		.loc 1 1658 0
 2937 00ba 5A62     		str	r2, [r3, #36]
1660:../../../../../../Drivers/STM32L0xx_HAL_Driver/Src/stm32l0xx_hal_rtc_ex.c **** 
 2938              		.loc 1 1660 0
 2939 00bc 2123     		movs	r3, #33
 2940 00be FB3A     		subs	r2, r2, #251
 2941 00c0 E254     		strb	r2, [r4, r3]
1663:../../../../../../Drivers/STM32L0xx_HAL_Driver/Src/stm32l0xx_hal_rtc_ex.c **** 
ARM GAS  C:\Users\EBANO_~1\AppData\Local\Temp\ccyPWgHX.s 			page 87


 2942              		.loc 1 1663 0
 2943 00c2 A555     		strb	r5, [r4, r6]
1665:../../../../../../Drivers/STM32L0xx_HAL_Driver/Src/stm32l0xx_hal_rtc_ex.c ****         }
 2944              		.loc 1 1665 0
 2945 00c4 E0E7     		b	.L280
 2946              		.cfi_endproc
 2947              	.LFE65:
 2948              		.size	HAL_RTCEx_SetSynchroShift, .-HAL_RTCEx_SetSynchroShift
 2949 00c6 C046     		.section	.text.HAL_RTCEx_SetCalibrationOutPut,"ax",%progbits
 2950              		.align	1
 2951              		.p2align 2,,3
 2952              		.global	HAL_RTCEx_SetCalibrationOutPut
 2953              		.syntax unified
 2954              		.code	16
 2955              		.thumb_func
 2956              		.fpu softvfp
 2957              		.type	HAL_RTCEx_SetCalibrationOutPut, %function
 2958              	HAL_RTCEx_SetCalibrationOutPut:
 2959              	.LFB66:
1694:../../../../../../Drivers/STM32L0xx_HAL_Driver/Src/stm32l0xx_hal_rtc_ex.c **** 
1695:../../../../../../Drivers/STM32L0xx_HAL_Driver/Src/stm32l0xx_hal_rtc_ex.c **** /**
1696:../../../../../../Drivers/STM32L0xx_HAL_Driver/Src/stm32l0xx_hal_rtc_ex.c ****   * @brief  Configure the Calibration Pinout (RTC_CALIB) Selection (1Hz or 512Hz).
1697:../../../../../../Drivers/STM32L0xx_HAL_Driver/Src/stm32l0xx_hal_rtc_ex.c ****   * @param  hrtc RTC handle
1698:../../../../../../Drivers/STM32L0xx_HAL_Driver/Src/stm32l0xx_hal_rtc_ex.c ****   * @param  CalibOutput  Select the Calibration output Selection .
1699:../../../../../../Drivers/STM32L0xx_HAL_Driver/Src/stm32l0xx_hal_rtc_ex.c ****   *          This parameter can be one of the following values:
1700:../../../../../../Drivers/STM32L0xx_HAL_Driver/Src/stm32l0xx_hal_rtc_ex.c ****   *             @arg RTC_CALIBOUTPUT_512HZ: A signal has a regular waveform at 512Hz.
1701:../../../../../../Drivers/STM32L0xx_HAL_Driver/Src/stm32l0xx_hal_rtc_ex.c ****   *             @arg RTC_CALIBOUTPUT_1HZ: A signal has a regular waveform at 1Hz.
1702:../../../../../../Drivers/STM32L0xx_HAL_Driver/Src/stm32l0xx_hal_rtc_ex.c ****   * @retval HAL status
1703:../../../../../../Drivers/STM32L0xx_HAL_Driver/Src/stm32l0xx_hal_rtc_ex.c ****   */
1704:../../../../../../Drivers/STM32L0xx_HAL_Driver/Src/stm32l0xx_hal_rtc_ex.c **** HAL_StatusTypeDef HAL_RTCEx_SetCalibrationOutPut(RTC_HandleTypeDef* hrtc, uint32_t CalibOutput)
1705:../../../../../../Drivers/STM32L0xx_HAL_Driver/Src/stm32l0xx_hal_rtc_ex.c **** {
 2960              		.loc 1 1705 0
 2961              		.cfi_startproc
 2962              		@ args = 0, pretend = 0, frame = 0
 2963              		@ frame_needed = 0, uses_anonymous_args = 0
 2964              	.LVL219:
 2965 0000 70B5     		push	{r4, r5, r6, lr}
 2966              	.LCFI28:
 2967              		.cfi_def_cfa_offset 16
 2968              		.cfi_offset 4, -16
 2969              		.cfi_offset 5, -12
 2970              		.cfi_offset 6, -8
 2971              		.cfi_offset 14, -4
1706:../../../../../../Drivers/STM32L0xx_HAL_Driver/Src/stm32l0xx_hal_rtc_ex.c ****   /* Check the parameters */
1707:../../../../../../Drivers/STM32L0xx_HAL_Driver/Src/stm32l0xx_hal_rtc_ex.c ****   assert_param(IS_RTC_CALIB_OUTPUT(CalibOutput));
1708:../../../../../../Drivers/STM32L0xx_HAL_Driver/Src/stm32l0xx_hal_rtc_ex.c **** 
1709:../../../../../../Drivers/STM32L0xx_HAL_Driver/Src/stm32l0xx_hal_rtc_ex.c ****   /* Process Locked */
1710:../../../../../../Drivers/STM32L0xx_HAL_Driver/Src/stm32l0xx_hal_rtc_ex.c ****   __HAL_LOCK(hrtc);
 2972              		.loc 1 1710 0
 2973 0002 2024     		movs	r4, #32
 2974 0004 035D     		ldrb	r3, [r0, r4]
 2975 0006 012B     		cmp	r3, #1
 2976 0008 1BD0     		beq	.L292
1711:../../../../../../Drivers/STM32L0xx_HAL_Driver/Src/stm32l0xx_hal_rtc_ex.c **** 
1712:../../../../../../Drivers/STM32L0xx_HAL_Driver/Src/stm32l0xx_hal_rtc_ex.c ****   hrtc->State = HAL_RTC_STATE_BUSY;
 2977              		.loc 1 1712 0 discriminator 2
 2978 000a 2125     		movs	r5, #33
ARM GAS  C:\Users\EBANO_~1\AppData\Local\Temp\ccyPWgHX.s 			page 88


 2979 000c 0223     		movs	r3, #2
1713:../../../../../../Drivers/STM32L0xx_HAL_Driver/Src/stm32l0xx_hal_rtc_ex.c **** 
1714:../../../../../../Drivers/STM32L0xx_HAL_Driver/Src/stm32l0xx_hal_rtc_ex.c ****   /* Disable the write protection for RTC registers */
1715:../../../../../../Drivers/STM32L0xx_HAL_Driver/Src/stm32l0xx_hal_rtc_ex.c ****   __HAL_RTC_WRITEPROTECTION_DISABLE(hrtc);
 2980              		.loc 1 1715 0 discriminator 2
 2981 000e CA22     		movs	r2, #202
1712:../../../../../../Drivers/STM32L0xx_HAL_Driver/Src/stm32l0xx_hal_rtc_ex.c **** 
 2982              		.loc 1 1712 0 discriminator 2
 2983 0010 4355     		strb	r3, [r0, r5]
 2984              		.loc 1 1715 0 discriminator 2
 2985 0012 0368     		ldr	r3, [r0]
1716:../../../../../../Drivers/STM32L0xx_HAL_Driver/Src/stm32l0xx_hal_rtc_ex.c **** 
1717:../../../../../../Drivers/STM32L0xx_HAL_Driver/Src/stm32l0xx_hal_rtc_ex.c ****   /* Clear flags before config */
1718:../../../../../../Drivers/STM32L0xx_HAL_Driver/Src/stm32l0xx_hal_rtc_ex.c ****   hrtc->Instance->CR &= (uint32_t)~RTC_CR_COSEL;
 2986              		.loc 1 1718 0 discriminator 2
 2987 0014 0C4E     		ldr	r6, .L293
1715:../../../../../../Drivers/STM32L0xx_HAL_Driver/Src/stm32l0xx_hal_rtc_ex.c **** 
 2988              		.loc 1 1715 0 discriminator 2
 2989 0016 5A62     		str	r2, [r3, #36]
 2990 0018 773A     		subs	r2, r2, #119
 2991 001a 5A62     		str	r2, [r3, #36]
 2992              		.loc 1 1718 0 discriminator 2
 2993 001c 9A68     		ldr	r2, [r3, #8]
 2994 001e 3240     		ands	r2, r6
 2995 0020 9A60     		str	r2, [r3, #8]
1719:../../../../../../Drivers/STM32L0xx_HAL_Driver/Src/stm32l0xx_hal_rtc_ex.c **** 
1720:../../../../../../Drivers/STM32L0xx_HAL_Driver/Src/stm32l0xx_hal_rtc_ex.c ****   /* Configure the RTC_CR register */
1721:../../../../../../Drivers/STM32L0xx_HAL_Driver/Src/stm32l0xx_hal_rtc_ex.c ****   hrtc->Instance->CR |= (uint32_t)CalibOutput;
 2996              		.loc 1 1721 0 discriminator 2
 2997 0022 9A68     		ldr	r2, [r3, #8]
 2998 0024 1143     		orrs	r1, r2
 2999              	.LVL220:
1722:../../../../../../Drivers/STM32L0xx_HAL_Driver/Src/stm32l0xx_hal_rtc_ex.c **** 
1723:../../../../../../Drivers/STM32L0xx_HAL_Driver/Src/stm32l0xx_hal_rtc_ex.c ****   __HAL_RTC_CALIBRATION_OUTPUT_ENABLE(hrtc);
 3000              		.loc 1 1723 0 discriminator 2
 3001 0026 8022     		movs	r2, #128
1721:../../../../../../Drivers/STM32L0xx_HAL_Driver/Src/stm32l0xx_hal_rtc_ex.c **** 
 3002              		.loc 1 1721 0 discriminator 2
 3003 0028 9960     		str	r1, [r3, #8]
 3004              		.loc 1 1723 0 discriminator 2
 3005 002a 9968     		ldr	r1, [r3, #8]
 3006 002c 1204     		lsls	r2, r2, #16
 3007 002e 0A43     		orrs	r2, r1
 3008 0030 9A60     		str	r2, [r3, #8]
1724:../../../../../../Drivers/STM32L0xx_HAL_Driver/Src/stm32l0xx_hal_rtc_ex.c **** 
1725:../../../../../../Drivers/STM32L0xx_HAL_Driver/Src/stm32l0xx_hal_rtc_ex.c ****   /* Enable the write protection for RTC registers */
1726:../../../../../../Drivers/STM32L0xx_HAL_Driver/Src/stm32l0xx_hal_rtc_ex.c ****   __HAL_RTC_WRITEPROTECTION_ENABLE(hrtc);
 3009              		.loc 1 1726 0 discriminator 2
 3010 0032 FF22     		movs	r2, #255
 3011 0034 5A62     		str	r2, [r3, #36]
1727:../../../../../../Drivers/STM32L0xx_HAL_Driver/Src/stm32l0xx_hal_rtc_ex.c **** 
1728:../../../../../../Drivers/STM32L0xx_HAL_Driver/Src/stm32l0xx_hal_rtc_ex.c ****   /* Change RTC state */
1729:../../../../../../Drivers/STM32L0xx_HAL_Driver/Src/stm32l0xx_hal_rtc_ex.c ****   hrtc->State = HAL_RTC_STATE_READY;
 3012              		.loc 1 1729 0 discriminator 2
 3013 0036 0123     		movs	r3, #1
 3014 0038 4355     		strb	r3, [r0, r5]
1730:../../../../../../Drivers/STM32L0xx_HAL_Driver/Src/stm32l0xx_hal_rtc_ex.c **** 
ARM GAS  C:\Users\EBANO_~1\AppData\Local\Temp\ccyPWgHX.s 			page 89


1731:../../../../../../Drivers/STM32L0xx_HAL_Driver/Src/stm32l0xx_hal_rtc_ex.c ****   /* Process Unlocked */
1732:../../../../../../Drivers/STM32L0xx_HAL_Driver/Src/stm32l0xx_hal_rtc_ex.c ****   __HAL_UNLOCK(hrtc);
 3015              		.loc 1 1732 0 discriminator 2
 3016 003a 0023     		movs	r3, #0
 3017 003c 0355     		strb	r3, [r0, r4]
1733:../../../../../../Drivers/STM32L0xx_HAL_Driver/Src/stm32l0xx_hal_rtc_ex.c **** 
1734:../../../../../../Drivers/STM32L0xx_HAL_Driver/Src/stm32l0xx_hal_rtc_ex.c ****   return HAL_OK;
 3018              		.loc 1 1734 0 discriminator 2
 3019 003e 0020     		movs	r0, #0
 3020              	.LVL221:
 3021              	.L291:
1735:../../../../../../Drivers/STM32L0xx_HAL_Driver/Src/stm32l0xx_hal_rtc_ex.c **** }
 3022              		.loc 1 1735 0
 3023              		@ sp needed
 3024 0040 70BD     		pop	{r4, r5, r6, pc}
 3025              	.LVL222:
 3026              	.L292:
1710:../../../../../../Drivers/STM32L0xx_HAL_Driver/Src/stm32l0xx_hal_rtc_ex.c **** 
 3027              		.loc 1 1710 0
 3028 0042 0220     		movs	r0, #2
 3029              	.LVL223:
 3030 0044 FCE7     		b	.L291
 3031              	.L294:
 3032 0046 C046     		.align	2
 3033              	.L293:
 3034 0048 FFFFF7FF 		.word	-524289
 3035              		.cfi_endproc
 3036              	.LFE66:
 3037              		.size	HAL_RTCEx_SetCalibrationOutPut, .-HAL_RTCEx_SetCalibrationOutPut
 3038              		.section	.text.HAL_RTCEx_DeactivateCalibrationOutPut,"ax",%progbits
 3039              		.align	1
 3040              		.p2align 2,,3
 3041              		.global	HAL_RTCEx_DeactivateCalibrationOutPut
 3042              		.syntax unified
 3043              		.code	16
 3044              		.thumb_func
 3045              		.fpu softvfp
 3046              		.type	HAL_RTCEx_DeactivateCalibrationOutPut, %function
 3047              	HAL_RTCEx_DeactivateCalibrationOutPut:
 3048              	.LFB67:
1736:../../../../../../Drivers/STM32L0xx_HAL_Driver/Src/stm32l0xx_hal_rtc_ex.c **** 
1737:../../../../../../Drivers/STM32L0xx_HAL_Driver/Src/stm32l0xx_hal_rtc_ex.c **** /**
1738:../../../../../../Drivers/STM32L0xx_HAL_Driver/Src/stm32l0xx_hal_rtc_ex.c ****   * @brief  Deactivate the Calibration Pinout (RTC_CALIB) Selection (1Hz or 512Hz).
1739:../../../../../../Drivers/STM32L0xx_HAL_Driver/Src/stm32l0xx_hal_rtc_ex.c ****   * @param  hrtc RTC handle
1740:../../../../../../Drivers/STM32L0xx_HAL_Driver/Src/stm32l0xx_hal_rtc_ex.c ****   * @retval HAL status
1741:../../../../../../Drivers/STM32L0xx_HAL_Driver/Src/stm32l0xx_hal_rtc_ex.c ****   */
1742:../../../../../../Drivers/STM32L0xx_HAL_Driver/Src/stm32l0xx_hal_rtc_ex.c **** HAL_StatusTypeDef HAL_RTCEx_DeactivateCalibrationOutPut(RTC_HandleTypeDef* hrtc)
1743:../../../../../../Drivers/STM32L0xx_HAL_Driver/Src/stm32l0xx_hal_rtc_ex.c **** {
 3049              		.loc 1 1743 0
 3050              		.cfi_startproc
 3051              		@ args = 0, pretend = 0, frame = 0
 3052              		@ frame_needed = 0, uses_anonymous_args = 0
 3053              	.LVL224:
1744:../../../../../../Drivers/STM32L0xx_HAL_Driver/Src/stm32l0xx_hal_rtc_ex.c ****   /* Process Locked */ 
1745:../../../../../../Drivers/STM32L0xx_HAL_Driver/Src/stm32l0xx_hal_rtc_ex.c ****   __HAL_LOCK(hrtc);
 3054              		.loc 1 1745 0
 3055 0000 2021     		movs	r1, #32
ARM GAS  C:\Users\EBANO_~1\AppData\Local\Temp\ccyPWgHX.s 			page 90


1743:../../../../../../Drivers/STM32L0xx_HAL_Driver/Src/stm32l0xx_hal_rtc_ex.c ****   /* Process Locked */ 
 3056              		.loc 1 1743 0
 3057 0002 30B5     		push	{r4, r5, lr}
 3058              	.LCFI29:
 3059              		.cfi_def_cfa_offset 12
 3060              		.cfi_offset 4, -12
 3061              		.cfi_offset 5, -8
 3062              		.cfi_offset 14, -4
 3063              		.loc 1 1745 0
 3064 0004 435C     		ldrb	r3, [r0, r1]
 3065 0006 012B     		cmp	r3, #1
 3066 0008 13D0     		beq	.L297
1746:../../../../../../Drivers/STM32L0xx_HAL_Driver/Src/stm32l0xx_hal_rtc_ex.c **** 
1747:../../../../../../Drivers/STM32L0xx_HAL_Driver/Src/stm32l0xx_hal_rtc_ex.c ****   hrtc->State = HAL_RTC_STATE_BUSY;
 3067              		.loc 1 1747 0 discriminator 2
 3068 000a 2124     		movs	r4, #33
 3069 000c 0223     		movs	r3, #2
1748:../../../../../../Drivers/STM32L0xx_HAL_Driver/Src/stm32l0xx_hal_rtc_ex.c **** 
1749:../../../../../../Drivers/STM32L0xx_HAL_Driver/Src/stm32l0xx_hal_rtc_ex.c ****   /* Disable the write protection for RTC registers */
1750:../../../../../../Drivers/STM32L0xx_HAL_Driver/Src/stm32l0xx_hal_rtc_ex.c ****   __HAL_RTC_WRITEPROTECTION_DISABLE(hrtc);
 3070              		.loc 1 1750 0 discriminator 2
 3071 000e CA22     		movs	r2, #202
1747:../../../../../../Drivers/STM32L0xx_HAL_Driver/Src/stm32l0xx_hal_rtc_ex.c **** 
 3072              		.loc 1 1747 0 discriminator 2
 3073 0010 0355     		strb	r3, [r0, r4]
 3074              		.loc 1 1750 0 discriminator 2
 3075 0012 0368     		ldr	r3, [r0]
1751:../../../../../../Drivers/STM32L0xx_HAL_Driver/Src/stm32l0xx_hal_rtc_ex.c **** 
1752:../../../../../../Drivers/STM32L0xx_HAL_Driver/Src/stm32l0xx_hal_rtc_ex.c ****   __HAL_RTC_CALIBRATION_OUTPUT_DISABLE(hrtc);
 3076              		.loc 1 1752 0 discriminator 2
 3077 0014 084D     		ldr	r5, .L298
1750:../../../../../../Drivers/STM32L0xx_HAL_Driver/Src/stm32l0xx_hal_rtc_ex.c **** 
 3078              		.loc 1 1750 0 discriminator 2
 3079 0016 5A62     		str	r2, [r3, #36]
 3080 0018 773A     		subs	r2, r2, #119
 3081 001a 5A62     		str	r2, [r3, #36]
 3082              		.loc 1 1752 0 discriminator 2
 3083 001c 9A68     		ldr	r2, [r3, #8]
 3084 001e 2A40     		ands	r2, r5
 3085 0020 9A60     		str	r2, [r3, #8]
1753:../../../../../../Drivers/STM32L0xx_HAL_Driver/Src/stm32l0xx_hal_rtc_ex.c **** 
1754:../../../../../../Drivers/STM32L0xx_HAL_Driver/Src/stm32l0xx_hal_rtc_ex.c ****   /* Enable the write protection for RTC registers */
1755:../../../../../../Drivers/STM32L0xx_HAL_Driver/Src/stm32l0xx_hal_rtc_ex.c ****   __HAL_RTC_WRITEPROTECTION_ENABLE(hrtc);
 3086              		.loc 1 1755 0 discriminator 2
 3087 0022 FF22     		movs	r2, #255
 3088 0024 5A62     		str	r2, [r3, #36]
1756:../../../../../../Drivers/STM32L0xx_HAL_Driver/Src/stm32l0xx_hal_rtc_ex.c **** 
1757:../../../../../../Drivers/STM32L0xx_HAL_Driver/Src/stm32l0xx_hal_rtc_ex.c ****   /* Change RTC state */
1758:../../../../../../Drivers/STM32L0xx_HAL_Driver/Src/stm32l0xx_hal_rtc_ex.c ****   hrtc->State = HAL_RTC_STATE_READY;
 3089              		.loc 1 1758 0 discriminator 2
 3090 0026 0123     		movs	r3, #1
 3091 0028 0355     		strb	r3, [r0, r4]
1759:../../../../../../Drivers/STM32L0xx_HAL_Driver/Src/stm32l0xx_hal_rtc_ex.c **** 
1760:../../../../../../Drivers/STM32L0xx_HAL_Driver/Src/stm32l0xx_hal_rtc_ex.c ****   /* Process Unlocked */
1761:../../../../../../Drivers/STM32L0xx_HAL_Driver/Src/stm32l0xx_hal_rtc_ex.c ****   __HAL_UNLOCK(hrtc);
 3092              		.loc 1 1761 0 discriminator 2
 3093 002a 0023     		movs	r3, #0
ARM GAS  C:\Users\EBANO_~1\AppData\Local\Temp\ccyPWgHX.s 			page 91


 3094 002c 4354     		strb	r3, [r0, r1]
1762:../../../../../../Drivers/STM32L0xx_HAL_Driver/Src/stm32l0xx_hal_rtc_ex.c **** 
1763:../../../../../../Drivers/STM32L0xx_HAL_Driver/Src/stm32l0xx_hal_rtc_ex.c ****   return HAL_OK;
 3095              		.loc 1 1763 0 discriminator 2
 3096 002e 0020     		movs	r0, #0
 3097              	.LVL225:
 3098              	.L296:
1764:../../../../../../Drivers/STM32L0xx_HAL_Driver/Src/stm32l0xx_hal_rtc_ex.c **** }
 3099              		.loc 1 1764 0
 3100              		@ sp needed
 3101 0030 30BD     		pop	{r4, r5, pc}
 3102              	.LVL226:
 3103              	.L297:
1745:../../../../../../Drivers/STM32L0xx_HAL_Driver/Src/stm32l0xx_hal_rtc_ex.c **** 
 3104              		.loc 1 1745 0
 3105 0032 0220     		movs	r0, #2
 3106              	.LVL227:
 3107 0034 FCE7     		b	.L296
 3108              	.L299:
 3109 0036 C046     		.align	2
 3110              	.L298:
 3111 0038 FFFF7FFF 		.word	-8388609
 3112              		.cfi_endproc
 3113              	.LFE67:
 3114              		.size	HAL_RTCEx_DeactivateCalibrationOutPut, .-HAL_RTCEx_DeactivateCalibrationOutPut
 3115              		.section	.text.HAL_RTCEx_SetRefClock,"ax",%progbits
 3116              		.align	1
 3117              		.p2align 2,,3
 3118              		.global	HAL_RTCEx_SetRefClock
 3119              		.syntax unified
 3120              		.code	16
 3121              		.thumb_func
 3122              		.fpu softvfp
 3123              		.type	HAL_RTCEx_SetRefClock, %function
 3124              	HAL_RTCEx_SetRefClock:
 3125              	.LFB68:
1765:../../../../../../Drivers/STM32L0xx_HAL_Driver/Src/stm32l0xx_hal_rtc_ex.c **** 
1766:../../../../../../Drivers/STM32L0xx_HAL_Driver/Src/stm32l0xx_hal_rtc_ex.c **** /**
1767:../../../../../../Drivers/STM32L0xx_HAL_Driver/Src/stm32l0xx_hal_rtc_ex.c ****   * @brief  Enable the RTC reference clock detection.
1768:../../../../../../Drivers/STM32L0xx_HAL_Driver/Src/stm32l0xx_hal_rtc_ex.c ****   * @param  hrtc RTC handle
1769:../../../../../../Drivers/STM32L0xx_HAL_Driver/Src/stm32l0xx_hal_rtc_ex.c ****   * @retval HAL status
1770:../../../../../../Drivers/STM32L0xx_HAL_Driver/Src/stm32l0xx_hal_rtc_ex.c ****   */
1771:../../../../../../Drivers/STM32L0xx_HAL_Driver/Src/stm32l0xx_hal_rtc_ex.c **** HAL_StatusTypeDef HAL_RTCEx_SetRefClock(RTC_HandleTypeDef* hrtc)
1772:../../../../../../Drivers/STM32L0xx_HAL_Driver/Src/stm32l0xx_hal_rtc_ex.c **** {
 3126              		.loc 1 1772 0
 3127              		.cfi_startproc
 3128              		@ args = 0, pretend = 0, frame = 0
 3129              		@ frame_needed = 0, uses_anonymous_args = 0
 3130              	.LVL228:
 3131 0000 F8B5     		push	{r3, r4, r5, r6, r7, lr}
 3132              	.LCFI30:
 3133              		.cfi_def_cfa_offset 24
 3134              		.cfi_offset 3, -24
 3135              		.cfi_offset 4, -20
 3136              		.cfi_offset 5, -16
 3137              		.cfi_offset 6, -12
 3138              		.cfi_offset 7, -8
ARM GAS  C:\Users\EBANO_~1\AppData\Local\Temp\ccyPWgHX.s 			page 92


 3139              		.cfi_offset 14, -4
1773:../../../../../../Drivers/STM32L0xx_HAL_Driver/Src/stm32l0xx_hal_rtc_ex.c ****   /* Process Locked */
1774:../../../../../../Drivers/STM32L0xx_HAL_Driver/Src/stm32l0xx_hal_rtc_ex.c ****   __HAL_LOCK(hrtc);
 3140              		.loc 1 1774 0
 3141 0002 2025     		movs	r5, #32
 3142 0004 435D     		ldrb	r3, [r0, r5]
1772:../../../../../../Drivers/STM32L0xx_HAL_Driver/Src/stm32l0xx_hal_rtc_ex.c ****   /* Process Locked */
 3143              		.loc 1 1772 0
 3144 0006 0400     		movs	r4, r0
 3145              		.loc 1 1774 0
 3146 0008 012B     		cmp	r3, #1
 3147 000a 23D0     		beq	.L303
1775:../../../../../../Drivers/STM32L0xx_HAL_Driver/Src/stm32l0xx_hal_rtc_ex.c **** 
1776:../../../../../../Drivers/STM32L0xx_HAL_Driver/Src/stm32l0xx_hal_rtc_ex.c ****   hrtc->State = HAL_RTC_STATE_BUSY;
 3148              		.loc 1 1776 0 discriminator 2
 3149 000c 0223     		movs	r3, #2
1774:../../../../../../Drivers/STM32L0xx_HAL_Driver/Src/stm32l0xx_hal_rtc_ex.c **** 
 3150              		.loc 1 1774 0 discriminator 2
 3151 000e 0127     		movs	r7, #1
 3152              		.loc 1 1776 0 discriminator 2
 3153 0010 2126     		movs	r6, #33
1777:../../../../../../Drivers/STM32L0xx_HAL_Driver/Src/stm32l0xx_hal_rtc_ex.c **** 
1778:../../../../../../Drivers/STM32L0xx_HAL_Driver/Src/stm32l0xx_hal_rtc_ex.c ****   /* Disable the write protection for RTC registers */
1779:../../../../../../Drivers/STM32L0xx_HAL_Driver/Src/stm32l0xx_hal_rtc_ex.c ****   __HAL_RTC_WRITEPROTECTION_DISABLE(hrtc);
 3154              		.loc 1 1779 0 discriminator 2
 3155 0012 CA22     		movs	r2, #202
1774:../../../../../../Drivers/STM32L0xx_HAL_Driver/Src/stm32l0xx_hal_rtc_ex.c **** 
 3156              		.loc 1 1774 0 discriminator 2
 3157 0014 4755     		strb	r7, [r0, r5]
1776:../../../../../../Drivers/STM32L0xx_HAL_Driver/Src/stm32l0xx_hal_rtc_ex.c **** 
 3158              		.loc 1 1776 0 discriminator 2
 3159 0016 8355     		strb	r3, [r0, r6]
 3160              		.loc 1 1779 0 discriminator 2
 3161 0018 0368     		ldr	r3, [r0]
 3162 001a 5A62     		str	r2, [r3, #36]
 3163 001c 773A     		subs	r2, r2, #119
 3164 001e 5A62     		str	r2, [r3, #36]
1780:../../../../../../Drivers/STM32L0xx_HAL_Driver/Src/stm32l0xx_hal_rtc_ex.c **** 
1781:../../../../../../Drivers/STM32L0xx_HAL_Driver/Src/stm32l0xx_hal_rtc_ex.c ****   /* Set Initialization mode */
1782:../../../../../../Drivers/STM32L0xx_HAL_Driver/Src/stm32l0xx_hal_rtc_ex.c ****   if(RTC_EnterInitMode(hrtc) != HAL_OK)
 3165              		.loc 1 1782 0 discriminator 2
 3166 0020 FFF7FEFF 		bl	RTC_EnterInitMode
 3167              	.LVL229:
1783:../../../../../../Drivers/STM32L0xx_HAL_Driver/Src/stm32l0xx_hal_rtc_ex.c ****   {
1784:../../../../../../Drivers/STM32L0xx_HAL_Driver/Src/stm32l0xx_hal_rtc_ex.c ****     /* Enable the write protection for RTC registers */
1785:../../../../../../Drivers/STM32L0xx_HAL_Driver/Src/stm32l0xx_hal_rtc_ex.c ****     __HAL_RTC_WRITEPROTECTION_ENABLE(hrtc);
 3168              		.loc 1 1785 0 discriminator 2
 3169 0024 2368     		ldr	r3, [r4]
1782:../../../../../../Drivers/STM32L0xx_HAL_Driver/Src/stm32l0xx_hal_rtc_ex.c ****   {
 3170              		.loc 1 1782 0 discriminator 2
 3171 0026 0028     		cmp	r0, #0
 3172 0028 0CD1     		bne	.L304
1786:../../../../../../Drivers/STM32L0xx_HAL_Driver/Src/stm32l0xx_hal_rtc_ex.c **** 
1787:../../../../../../Drivers/STM32L0xx_HAL_Driver/Src/stm32l0xx_hal_rtc_ex.c ****     /* Set RTC state*/
1788:../../../../../../Drivers/STM32L0xx_HAL_Driver/Src/stm32l0xx_hal_rtc_ex.c ****     hrtc->State = HAL_RTC_STATE_ERROR;
1789:../../../../../../Drivers/STM32L0xx_HAL_Driver/Src/stm32l0xx_hal_rtc_ex.c **** 
1790:../../../../../../Drivers/STM32L0xx_HAL_Driver/Src/stm32l0xx_hal_rtc_ex.c ****     /* Process Unlocked */
ARM GAS  C:\Users\EBANO_~1\AppData\Local\Temp\ccyPWgHX.s 			page 93


1791:../../../../../../Drivers/STM32L0xx_HAL_Driver/Src/stm32l0xx_hal_rtc_ex.c ****     __HAL_UNLOCK(hrtc);
1792:../../../../../../Drivers/STM32L0xx_HAL_Driver/Src/stm32l0xx_hal_rtc_ex.c **** 
1793:../../../../../../Drivers/STM32L0xx_HAL_Driver/Src/stm32l0xx_hal_rtc_ex.c ****     return HAL_ERROR;
1794:../../../../../../Drivers/STM32L0xx_HAL_Driver/Src/stm32l0xx_hal_rtc_ex.c ****   }
1795:../../../../../../Drivers/STM32L0xx_HAL_Driver/Src/stm32l0xx_hal_rtc_ex.c ****   else
1796:../../../../../../Drivers/STM32L0xx_HAL_Driver/Src/stm32l0xx_hal_rtc_ex.c ****   {
1797:../../../../../../Drivers/STM32L0xx_HAL_Driver/Src/stm32l0xx_hal_rtc_ex.c ****     __HAL_RTC_CLOCKREF_DETECTION_ENABLE(hrtc);
 3173              		.loc 1 1797 0
 3174 002a 1021     		movs	r1, #16
 3175 002c 9A68     		ldr	r2, [r3, #8]
 3176 002e 0A43     		orrs	r2, r1
 3177 0030 9A60     		str	r2, [r3, #8]
1798:../../../../../../Drivers/STM32L0xx_HAL_Driver/Src/stm32l0xx_hal_rtc_ex.c **** 
1799:../../../../../../Drivers/STM32L0xx_HAL_Driver/Src/stm32l0xx_hal_rtc_ex.c ****     /* Exit Initialization mode */
1800:../../../../../../Drivers/STM32L0xx_HAL_Driver/Src/stm32l0xx_hal_rtc_ex.c ****     hrtc->Instance->ISR &= (uint32_t)~RTC_ISR_INIT;
 3178              		.loc 1 1800 0
 3179 0032 DA68     		ldr	r2, [r3, #12]
 3180 0034 7031     		adds	r1, r1, #112
 3181 0036 8A43     		bics	r2, r1
 3182 0038 DA60     		str	r2, [r3, #12]
1801:../../../../../../Drivers/STM32L0xx_HAL_Driver/Src/stm32l0xx_hal_rtc_ex.c ****   }
1802:../../../../../../Drivers/STM32L0xx_HAL_Driver/Src/stm32l0xx_hal_rtc_ex.c **** 
1803:../../../../../../Drivers/STM32L0xx_HAL_Driver/Src/stm32l0xx_hal_rtc_ex.c ****   /* Enable the write protection for RTC registers */
1804:../../../../../../Drivers/STM32L0xx_HAL_Driver/Src/stm32l0xx_hal_rtc_ex.c ****   __HAL_RTC_WRITEPROTECTION_ENABLE(hrtc);
 3183              		.loc 1 1804 0
 3184 003a FF22     		movs	r2, #255
 3185 003c 5A62     		str	r2, [r3, #36]
1805:../../../../../../Drivers/STM32L0xx_HAL_Driver/Src/stm32l0xx_hal_rtc_ex.c **** 
1806:../../../../../../Drivers/STM32L0xx_HAL_Driver/Src/stm32l0xx_hal_rtc_ex.c ****    /* Change RTC state */
1807:../../../../../../Drivers/STM32L0xx_HAL_Driver/Src/stm32l0xx_hal_rtc_ex.c ****   hrtc->State = HAL_RTC_STATE_READY;
 3186              		.loc 1 1807 0
 3187 003e A755     		strb	r7, [r4, r6]
1808:../../../../../../Drivers/STM32L0xx_HAL_Driver/Src/stm32l0xx_hal_rtc_ex.c **** 
1809:../../../../../../Drivers/STM32L0xx_HAL_Driver/Src/stm32l0xx_hal_rtc_ex.c ****   /* Process Unlocked */
1810:../../../../../../Drivers/STM32L0xx_HAL_Driver/Src/stm32l0xx_hal_rtc_ex.c ****   __HAL_UNLOCK(hrtc);
 3188              		.loc 1 1810 0
 3189 0040 6055     		strb	r0, [r4, r5]
 3190              	.L301:
1811:../../../../../../Drivers/STM32L0xx_HAL_Driver/Src/stm32l0xx_hal_rtc_ex.c **** 
1812:../../../../../../Drivers/STM32L0xx_HAL_Driver/Src/stm32l0xx_hal_rtc_ex.c ****   return HAL_OK;
1813:../../../../../../Drivers/STM32L0xx_HAL_Driver/Src/stm32l0xx_hal_rtc_ex.c **** }
 3191              		.loc 1 1813 0
 3192              		@ sp needed
 3193              	.LVL230:
 3194 0042 F8BD     		pop	{r3, r4, r5, r6, r7, pc}
 3195              	.LVL231:
 3196              	.L304:
1785:../../../../../../Drivers/STM32L0xx_HAL_Driver/Src/stm32l0xx_hal_rtc_ex.c **** 
 3197              		.loc 1 1785 0
 3198 0044 FF22     		movs	r2, #255
 3199 0046 5A62     		str	r2, [r3, #36]
1788:../../../../../../Drivers/STM32L0xx_HAL_Driver/Src/stm32l0xx_hal_rtc_ex.c **** 
 3200              		.loc 1 1788 0
 3201 0048 0423     		movs	r3, #4
 3202 004a A355     		strb	r3, [r4, r6]
1791:../../../../../../Drivers/STM32L0xx_HAL_Driver/Src/stm32l0xx_hal_rtc_ex.c **** 
 3203              		.loc 1 1791 0
ARM GAS  C:\Users\EBANO_~1\AppData\Local\Temp\ccyPWgHX.s 			page 94


 3204 004c 0023     		movs	r3, #0
1793:../../../../../../Drivers/STM32L0xx_HAL_Driver/Src/stm32l0xx_hal_rtc_ex.c ****   }
 3205              		.loc 1 1793 0
 3206 004e 0120     		movs	r0, #1
1791:../../../../../../Drivers/STM32L0xx_HAL_Driver/Src/stm32l0xx_hal_rtc_ex.c **** 
 3207              		.loc 1 1791 0
 3208 0050 6355     		strb	r3, [r4, r5]
1793:../../../../../../Drivers/STM32L0xx_HAL_Driver/Src/stm32l0xx_hal_rtc_ex.c ****   }
 3209              		.loc 1 1793 0
 3210 0052 F6E7     		b	.L301
 3211              	.LVL232:
 3212              	.L303:
1774:../../../../../../Drivers/STM32L0xx_HAL_Driver/Src/stm32l0xx_hal_rtc_ex.c **** 
 3213              		.loc 1 1774 0
 3214 0054 0220     		movs	r0, #2
 3215              	.LVL233:
 3216 0056 F4E7     		b	.L301
 3217              		.cfi_endproc
 3218              	.LFE68:
 3219              		.size	HAL_RTCEx_SetRefClock, .-HAL_RTCEx_SetRefClock
 3220              		.section	.text.HAL_RTCEx_DeactivateRefClock,"ax",%progbits
 3221              		.align	1
 3222              		.p2align 2,,3
 3223              		.global	HAL_RTCEx_DeactivateRefClock
 3224              		.syntax unified
 3225              		.code	16
 3226              		.thumb_func
 3227              		.fpu softvfp
 3228              		.type	HAL_RTCEx_DeactivateRefClock, %function
 3229              	HAL_RTCEx_DeactivateRefClock:
 3230              	.LFB69:
1814:../../../../../../Drivers/STM32L0xx_HAL_Driver/Src/stm32l0xx_hal_rtc_ex.c **** 
1815:../../../../../../Drivers/STM32L0xx_HAL_Driver/Src/stm32l0xx_hal_rtc_ex.c **** /**
1816:../../../../../../Drivers/STM32L0xx_HAL_Driver/Src/stm32l0xx_hal_rtc_ex.c ****   * @brief  Disable the RTC reference clock detection.
1817:../../../../../../Drivers/STM32L0xx_HAL_Driver/Src/stm32l0xx_hal_rtc_ex.c ****   * @param  hrtc RTC handle
1818:../../../../../../Drivers/STM32L0xx_HAL_Driver/Src/stm32l0xx_hal_rtc_ex.c ****   * @retval HAL status
1819:../../../../../../Drivers/STM32L0xx_HAL_Driver/Src/stm32l0xx_hal_rtc_ex.c ****   */
1820:../../../../../../Drivers/STM32L0xx_HAL_Driver/Src/stm32l0xx_hal_rtc_ex.c **** HAL_StatusTypeDef HAL_RTCEx_DeactivateRefClock(RTC_HandleTypeDef* hrtc)
1821:../../../../../../Drivers/STM32L0xx_HAL_Driver/Src/stm32l0xx_hal_rtc_ex.c **** {
 3231              		.loc 1 1821 0
 3232              		.cfi_startproc
 3233              		@ args = 0, pretend = 0, frame = 0
 3234              		@ frame_needed = 0, uses_anonymous_args = 0
 3235              	.LVL234:
 3236 0000 F8B5     		push	{r3, r4, r5, r6, r7, lr}
 3237              	.LCFI31:
 3238              		.cfi_def_cfa_offset 24
 3239              		.cfi_offset 3, -24
 3240              		.cfi_offset 4, -20
 3241              		.cfi_offset 5, -16
 3242              		.cfi_offset 6, -12
 3243              		.cfi_offset 7, -8
 3244              		.cfi_offset 14, -4
1822:../../../../../../Drivers/STM32L0xx_HAL_Driver/Src/stm32l0xx_hal_rtc_ex.c ****   /* Process Locked */
1823:../../../../../../Drivers/STM32L0xx_HAL_Driver/Src/stm32l0xx_hal_rtc_ex.c ****   __HAL_LOCK(hrtc);
 3245              		.loc 1 1823 0
 3246 0002 2025     		movs	r5, #32
ARM GAS  C:\Users\EBANO_~1\AppData\Local\Temp\ccyPWgHX.s 			page 95


 3247 0004 435D     		ldrb	r3, [r0, r5]
1821:../../../../../../Drivers/STM32L0xx_HAL_Driver/Src/stm32l0xx_hal_rtc_ex.c ****   /* Process Locked */
 3248              		.loc 1 1821 0
 3249 0006 0400     		movs	r4, r0
 3250              		.loc 1 1823 0
 3251 0008 012B     		cmp	r3, #1
 3252 000a 23D0     		beq	.L308
1824:../../../../../../Drivers/STM32L0xx_HAL_Driver/Src/stm32l0xx_hal_rtc_ex.c **** 
1825:../../../../../../Drivers/STM32L0xx_HAL_Driver/Src/stm32l0xx_hal_rtc_ex.c ****   hrtc->State = HAL_RTC_STATE_BUSY;
 3253              		.loc 1 1825 0 discriminator 2
 3254 000c 0223     		movs	r3, #2
1823:../../../../../../Drivers/STM32L0xx_HAL_Driver/Src/stm32l0xx_hal_rtc_ex.c **** 
 3255              		.loc 1 1823 0 discriminator 2
 3256 000e 0127     		movs	r7, #1
 3257              		.loc 1 1825 0 discriminator 2
 3258 0010 2126     		movs	r6, #33
1826:../../../../../../Drivers/STM32L0xx_HAL_Driver/Src/stm32l0xx_hal_rtc_ex.c **** 
1827:../../../../../../Drivers/STM32L0xx_HAL_Driver/Src/stm32l0xx_hal_rtc_ex.c ****   /* Disable the write protection for RTC registers */
1828:../../../../../../Drivers/STM32L0xx_HAL_Driver/Src/stm32l0xx_hal_rtc_ex.c ****   __HAL_RTC_WRITEPROTECTION_DISABLE(hrtc);
 3259              		.loc 1 1828 0 discriminator 2
 3260 0012 CA22     		movs	r2, #202
1823:../../../../../../Drivers/STM32L0xx_HAL_Driver/Src/stm32l0xx_hal_rtc_ex.c **** 
 3261              		.loc 1 1823 0 discriminator 2
 3262 0014 4755     		strb	r7, [r0, r5]
1825:../../../../../../Drivers/STM32L0xx_HAL_Driver/Src/stm32l0xx_hal_rtc_ex.c **** 
 3263              		.loc 1 1825 0 discriminator 2
 3264 0016 8355     		strb	r3, [r0, r6]
 3265              		.loc 1 1828 0 discriminator 2
 3266 0018 0368     		ldr	r3, [r0]
 3267 001a 5A62     		str	r2, [r3, #36]
 3268 001c 773A     		subs	r2, r2, #119
 3269 001e 5A62     		str	r2, [r3, #36]
1829:../../../../../../Drivers/STM32L0xx_HAL_Driver/Src/stm32l0xx_hal_rtc_ex.c ****   
1830:../../../../../../Drivers/STM32L0xx_HAL_Driver/Src/stm32l0xx_hal_rtc_ex.c ****   /* Set Initialization mode */
1831:../../../../../../Drivers/STM32L0xx_HAL_Driver/Src/stm32l0xx_hal_rtc_ex.c ****   if(RTC_EnterInitMode(hrtc) != HAL_OK)
 3270              		.loc 1 1831 0 discriminator 2
 3271 0020 FFF7FEFF 		bl	RTC_EnterInitMode
 3272              	.LVL235:
1832:../../../../../../Drivers/STM32L0xx_HAL_Driver/Src/stm32l0xx_hal_rtc_ex.c ****   {
1833:../../../../../../Drivers/STM32L0xx_HAL_Driver/Src/stm32l0xx_hal_rtc_ex.c ****     /* Enable the write protection for RTC registers */
1834:../../../../../../Drivers/STM32L0xx_HAL_Driver/Src/stm32l0xx_hal_rtc_ex.c ****     __HAL_RTC_WRITEPROTECTION_ENABLE(hrtc);
 3273              		.loc 1 1834 0 discriminator 2
 3274 0024 2368     		ldr	r3, [r4]
1831:../../../../../../Drivers/STM32L0xx_HAL_Driver/Src/stm32l0xx_hal_rtc_ex.c ****   {
 3275              		.loc 1 1831 0 discriminator 2
 3276 0026 0028     		cmp	r0, #0
 3277 0028 0CD1     		bne	.L309
1835:../../../../../../Drivers/STM32L0xx_HAL_Driver/Src/stm32l0xx_hal_rtc_ex.c **** 
1836:../../../../../../Drivers/STM32L0xx_HAL_Driver/Src/stm32l0xx_hal_rtc_ex.c ****     /* Set RTC state*/
1837:../../../../../../Drivers/STM32L0xx_HAL_Driver/Src/stm32l0xx_hal_rtc_ex.c ****     hrtc->State = HAL_RTC_STATE_ERROR;
1838:../../../../../../Drivers/STM32L0xx_HAL_Driver/Src/stm32l0xx_hal_rtc_ex.c **** 
1839:../../../../../../Drivers/STM32L0xx_HAL_Driver/Src/stm32l0xx_hal_rtc_ex.c ****     /* Process Unlocked */
1840:../../../../../../Drivers/STM32L0xx_HAL_Driver/Src/stm32l0xx_hal_rtc_ex.c ****     __HAL_UNLOCK(hrtc);
1841:../../../../../../Drivers/STM32L0xx_HAL_Driver/Src/stm32l0xx_hal_rtc_ex.c **** 
1842:../../../../../../Drivers/STM32L0xx_HAL_Driver/Src/stm32l0xx_hal_rtc_ex.c ****     return HAL_ERROR;
1843:../../../../../../Drivers/STM32L0xx_HAL_Driver/Src/stm32l0xx_hal_rtc_ex.c ****   }
1844:../../../../../../Drivers/STM32L0xx_HAL_Driver/Src/stm32l0xx_hal_rtc_ex.c ****   else
ARM GAS  C:\Users\EBANO_~1\AppData\Local\Temp\ccyPWgHX.s 			page 96


1845:../../../../../../Drivers/STM32L0xx_HAL_Driver/Src/stm32l0xx_hal_rtc_ex.c ****   {
1846:../../../../../../Drivers/STM32L0xx_HAL_Driver/Src/stm32l0xx_hal_rtc_ex.c ****     __HAL_RTC_CLOCKREF_DETECTION_DISABLE(hrtc);
 3278              		.loc 1 1846 0
 3279 002a 1021     		movs	r1, #16
 3280 002c 9A68     		ldr	r2, [r3, #8]
 3281 002e 8A43     		bics	r2, r1
 3282 0030 9A60     		str	r2, [r3, #8]
1847:../../../../../../Drivers/STM32L0xx_HAL_Driver/Src/stm32l0xx_hal_rtc_ex.c **** 
1848:../../../../../../Drivers/STM32L0xx_HAL_Driver/Src/stm32l0xx_hal_rtc_ex.c ****     /* Exit Initialization mode */
1849:../../../../../../Drivers/STM32L0xx_HAL_Driver/Src/stm32l0xx_hal_rtc_ex.c ****     hrtc->Instance->ISR &= (uint32_t)~RTC_ISR_INIT;
 3283              		.loc 1 1849 0
 3284 0032 DA68     		ldr	r2, [r3, #12]
 3285 0034 7031     		adds	r1, r1, #112
 3286 0036 8A43     		bics	r2, r1
 3287 0038 DA60     		str	r2, [r3, #12]
1850:../../../../../../Drivers/STM32L0xx_HAL_Driver/Src/stm32l0xx_hal_rtc_ex.c ****   }
1851:../../../../../../Drivers/STM32L0xx_HAL_Driver/Src/stm32l0xx_hal_rtc_ex.c **** 
1852:../../../../../../Drivers/STM32L0xx_HAL_Driver/Src/stm32l0xx_hal_rtc_ex.c ****   /* Enable the write protection for RTC registers */
1853:../../../../../../Drivers/STM32L0xx_HAL_Driver/Src/stm32l0xx_hal_rtc_ex.c ****   __HAL_RTC_WRITEPROTECTION_ENABLE(hrtc);
 3288              		.loc 1 1853 0
 3289 003a FF22     		movs	r2, #255
 3290 003c 5A62     		str	r2, [r3, #36]
1854:../../../../../../Drivers/STM32L0xx_HAL_Driver/Src/stm32l0xx_hal_rtc_ex.c **** 
1855:../../../../../../Drivers/STM32L0xx_HAL_Driver/Src/stm32l0xx_hal_rtc_ex.c ****   /* Change RTC state */
1856:../../../../../../Drivers/STM32L0xx_HAL_Driver/Src/stm32l0xx_hal_rtc_ex.c ****   hrtc->State = HAL_RTC_STATE_READY;
 3291              		.loc 1 1856 0
 3292 003e A755     		strb	r7, [r4, r6]
1857:../../../../../../Drivers/STM32L0xx_HAL_Driver/Src/stm32l0xx_hal_rtc_ex.c **** 
1858:../../../../../../Drivers/STM32L0xx_HAL_Driver/Src/stm32l0xx_hal_rtc_ex.c ****   /* Process Unlocked */
1859:../../../../../../Drivers/STM32L0xx_HAL_Driver/Src/stm32l0xx_hal_rtc_ex.c ****   __HAL_UNLOCK(hrtc);
 3293              		.loc 1 1859 0
 3294 0040 6055     		strb	r0, [r4, r5]
 3295              	.L306:
1860:../../../../../../Drivers/STM32L0xx_HAL_Driver/Src/stm32l0xx_hal_rtc_ex.c **** 
1861:../../../../../../Drivers/STM32L0xx_HAL_Driver/Src/stm32l0xx_hal_rtc_ex.c ****   return HAL_OK;
1862:../../../../../../Drivers/STM32L0xx_HAL_Driver/Src/stm32l0xx_hal_rtc_ex.c **** }
 3296              		.loc 1 1862 0
 3297              		@ sp needed
 3298              	.LVL236:
 3299 0042 F8BD     		pop	{r3, r4, r5, r6, r7, pc}
 3300              	.LVL237:
 3301              	.L309:
1834:../../../../../../Drivers/STM32L0xx_HAL_Driver/Src/stm32l0xx_hal_rtc_ex.c **** 
 3302              		.loc 1 1834 0
 3303 0044 FF22     		movs	r2, #255
 3304 0046 5A62     		str	r2, [r3, #36]
1837:../../../../../../Drivers/STM32L0xx_HAL_Driver/Src/stm32l0xx_hal_rtc_ex.c **** 
 3305              		.loc 1 1837 0
 3306 0048 0423     		movs	r3, #4
 3307 004a A355     		strb	r3, [r4, r6]
1840:../../../../../../Drivers/STM32L0xx_HAL_Driver/Src/stm32l0xx_hal_rtc_ex.c **** 
 3308              		.loc 1 1840 0
 3309 004c 0023     		movs	r3, #0
1842:../../../../../../Drivers/STM32L0xx_HAL_Driver/Src/stm32l0xx_hal_rtc_ex.c ****   }
 3310              		.loc 1 1842 0
 3311 004e 0120     		movs	r0, #1
1840:../../../../../../Drivers/STM32L0xx_HAL_Driver/Src/stm32l0xx_hal_rtc_ex.c **** 
ARM GAS  C:\Users\EBANO_~1\AppData\Local\Temp\ccyPWgHX.s 			page 97


 3312              		.loc 1 1840 0
 3313 0050 6355     		strb	r3, [r4, r5]
1842:../../../../../../Drivers/STM32L0xx_HAL_Driver/Src/stm32l0xx_hal_rtc_ex.c ****   }
 3314              		.loc 1 1842 0
 3315 0052 F6E7     		b	.L306
 3316              	.LVL238:
 3317              	.L308:
1823:../../../../../../Drivers/STM32L0xx_HAL_Driver/Src/stm32l0xx_hal_rtc_ex.c **** 
 3318              		.loc 1 1823 0
 3319 0054 0220     		movs	r0, #2
 3320              	.LVL239:
 3321 0056 F4E7     		b	.L306
 3322              		.cfi_endproc
 3323              	.LFE69:
 3324              		.size	HAL_RTCEx_DeactivateRefClock, .-HAL_RTCEx_DeactivateRefClock
 3325              		.section	.text.HAL_RTCEx_EnableBypassShadow,"ax",%progbits
 3326              		.align	1
 3327              		.p2align 2,,3
 3328              		.global	HAL_RTCEx_EnableBypassShadow
 3329              		.syntax unified
 3330              		.code	16
 3331              		.thumb_func
 3332              		.fpu softvfp
 3333              		.type	HAL_RTCEx_EnableBypassShadow, %function
 3334              	HAL_RTCEx_EnableBypassShadow:
 3335              	.LFB70:
1863:../../../../../../Drivers/STM32L0xx_HAL_Driver/Src/stm32l0xx_hal_rtc_ex.c **** 
1864:../../../../../../Drivers/STM32L0xx_HAL_Driver/Src/stm32l0xx_hal_rtc_ex.c **** /**
1865:../../../../../../Drivers/STM32L0xx_HAL_Driver/Src/stm32l0xx_hal_rtc_ex.c ****   * @brief  Enable the Bypass Shadow feature.
1866:../../../../../../Drivers/STM32L0xx_HAL_Driver/Src/stm32l0xx_hal_rtc_ex.c ****   * @param  hrtc RTC handle
1867:../../../../../../Drivers/STM32L0xx_HAL_Driver/Src/stm32l0xx_hal_rtc_ex.c ****   * @note   When the Bypass Shadow is enabled the calendar value are taken
1868:../../../../../../Drivers/STM32L0xx_HAL_Driver/Src/stm32l0xx_hal_rtc_ex.c ****   *         directly from the Calendar counter.
1869:../../../../../../Drivers/STM32L0xx_HAL_Driver/Src/stm32l0xx_hal_rtc_ex.c ****   * @retval HAL status
1870:../../../../../../Drivers/STM32L0xx_HAL_Driver/Src/stm32l0xx_hal_rtc_ex.c ****   */
1871:../../../../../../Drivers/STM32L0xx_HAL_Driver/Src/stm32l0xx_hal_rtc_ex.c **** HAL_StatusTypeDef HAL_RTCEx_EnableBypassShadow(RTC_HandleTypeDef* hrtc)
1872:../../../../../../Drivers/STM32L0xx_HAL_Driver/Src/stm32l0xx_hal_rtc_ex.c **** {
 3336              		.loc 1 1872 0
 3337              		.cfi_startproc
 3338              		@ args = 0, pretend = 0, frame = 0
 3339              		@ frame_needed = 0, uses_anonymous_args = 0
 3340              	.LVL240:
1873:../../../../../../Drivers/STM32L0xx_HAL_Driver/Src/stm32l0xx_hal_rtc_ex.c ****   /* Process Locked */
1874:../../../../../../Drivers/STM32L0xx_HAL_Driver/Src/stm32l0xx_hal_rtc_ex.c ****   __HAL_LOCK(hrtc);
 3341              		.loc 1 1874 0
 3342 0000 2022     		movs	r2, #32
1872:../../../../../../Drivers/STM32L0xx_HAL_Driver/Src/stm32l0xx_hal_rtc_ex.c ****   /* Process Locked */
 3343              		.loc 1 1872 0
 3344 0002 10B5     		push	{r4, lr}
 3345              	.LCFI32:
 3346              		.cfi_def_cfa_offset 8
 3347              		.cfi_offset 4, -8
 3348              		.cfi_offset 14, -4
 3349              		.loc 1 1874 0
 3350 0004 835C     		ldrb	r3, [r0, r2]
 3351 0006 012B     		cmp	r3, #1
 3352 0008 12D0     		beq	.L312
1875:../../../../../../Drivers/STM32L0xx_HAL_Driver/Src/stm32l0xx_hal_rtc_ex.c **** 
ARM GAS  C:\Users\EBANO_~1\AppData\Local\Temp\ccyPWgHX.s 			page 98


1876:../../../../../../Drivers/STM32L0xx_HAL_Driver/Src/stm32l0xx_hal_rtc_ex.c ****   hrtc->State = HAL_RTC_STATE_BUSY;
 3353              		.loc 1 1876 0 discriminator 2
 3354 000a 2124     		movs	r4, #33
 3355 000c 0223     		movs	r3, #2
1877:../../../../../../Drivers/STM32L0xx_HAL_Driver/Src/stm32l0xx_hal_rtc_ex.c **** 
1878:../../../../../../Drivers/STM32L0xx_HAL_Driver/Src/stm32l0xx_hal_rtc_ex.c ****   /* Disable the write protection for RTC registers */
1879:../../../../../../Drivers/STM32L0xx_HAL_Driver/Src/stm32l0xx_hal_rtc_ex.c ****   __HAL_RTC_WRITEPROTECTION_DISABLE(hrtc);
 3356              		.loc 1 1879 0 discriminator 2
 3357 000e CA21     		movs	r1, #202
1876:../../../../../../Drivers/STM32L0xx_HAL_Driver/Src/stm32l0xx_hal_rtc_ex.c **** 
 3358              		.loc 1 1876 0 discriminator 2
 3359 0010 0355     		strb	r3, [r0, r4]
 3360              		.loc 1 1879 0 discriminator 2
 3361 0012 0368     		ldr	r3, [r0]
 3362 0014 5962     		str	r1, [r3, #36]
 3363 0016 7739     		subs	r1, r1, #119
 3364 0018 5962     		str	r1, [r3, #36]
1880:../../../../../../Drivers/STM32L0xx_HAL_Driver/Src/stm32l0xx_hal_rtc_ex.c **** 
1881:../../../../../../Drivers/STM32L0xx_HAL_Driver/Src/stm32l0xx_hal_rtc_ex.c ****   /* Set the BYPSHAD bit */
1882:../../../../../../Drivers/STM32L0xx_HAL_Driver/Src/stm32l0xx_hal_rtc_ex.c ****   hrtc->Instance->CR |= (uint8_t)RTC_CR_BYPSHAD;
 3365              		.loc 1 1882 0 discriminator 2
 3366 001a 9968     		ldr	r1, [r3, #8]
 3367 001c 1143     		orrs	r1, r2
 3368 001e 9960     		str	r1, [r3, #8]
1883:../../../../../../Drivers/STM32L0xx_HAL_Driver/Src/stm32l0xx_hal_rtc_ex.c **** 
1884:../../../../../../Drivers/STM32L0xx_HAL_Driver/Src/stm32l0xx_hal_rtc_ex.c ****   /* Enable the write protection for RTC registers */
1885:../../../../../../Drivers/STM32L0xx_HAL_Driver/Src/stm32l0xx_hal_rtc_ex.c ****   __HAL_RTC_WRITEPROTECTION_ENABLE(hrtc);
 3369              		.loc 1 1885 0 discriminator 2
 3370 0020 FF21     		movs	r1, #255
 3371 0022 5962     		str	r1, [r3, #36]
1886:../../../../../../Drivers/STM32L0xx_HAL_Driver/Src/stm32l0xx_hal_rtc_ex.c **** 
1887:../../../../../../Drivers/STM32L0xx_HAL_Driver/Src/stm32l0xx_hal_rtc_ex.c ****   /* Change RTC state */
1888:../../../../../../Drivers/STM32L0xx_HAL_Driver/Src/stm32l0xx_hal_rtc_ex.c ****   hrtc->State = HAL_RTC_STATE_READY;
 3372              		.loc 1 1888 0 discriminator 2
 3373 0024 0123     		movs	r3, #1
 3374 0026 0355     		strb	r3, [r0, r4]
1889:../../../../../../Drivers/STM32L0xx_HAL_Driver/Src/stm32l0xx_hal_rtc_ex.c **** 
1890:../../../../../../Drivers/STM32L0xx_HAL_Driver/Src/stm32l0xx_hal_rtc_ex.c ****   /* Process Unlocked */
1891:../../../../../../Drivers/STM32L0xx_HAL_Driver/Src/stm32l0xx_hal_rtc_ex.c ****   __HAL_UNLOCK(hrtc);
 3375              		.loc 1 1891 0 discriminator 2
 3376 0028 0023     		movs	r3, #0
 3377 002a 8354     		strb	r3, [r0, r2]
1892:../../../../../../Drivers/STM32L0xx_HAL_Driver/Src/stm32l0xx_hal_rtc_ex.c **** 
1893:../../../../../../Drivers/STM32L0xx_HAL_Driver/Src/stm32l0xx_hal_rtc_ex.c ****   return HAL_OK;
 3378              		.loc 1 1893 0 discriminator 2
 3379 002c 0020     		movs	r0, #0
 3380              	.LVL241:
 3381              	.L311:
1894:../../../../../../Drivers/STM32L0xx_HAL_Driver/Src/stm32l0xx_hal_rtc_ex.c **** }
 3382              		.loc 1 1894 0
 3383              		@ sp needed
 3384 002e 10BD     		pop	{r4, pc}
 3385              	.LVL242:
 3386              	.L312:
1874:../../../../../../Drivers/STM32L0xx_HAL_Driver/Src/stm32l0xx_hal_rtc_ex.c **** 
 3387              		.loc 1 1874 0
 3388 0030 0220     		movs	r0, #2
ARM GAS  C:\Users\EBANO_~1\AppData\Local\Temp\ccyPWgHX.s 			page 99


 3389              	.LVL243:
 3390 0032 FCE7     		b	.L311
 3391              		.cfi_endproc
 3392              	.LFE70:
 3393              		.size	HAL_RTCEx_EnableBypassShadow, .-HAL_RTCEx_EnableBypassShadow
 3394              		.section	.text.HAL_RTCEx_DisableBypassShadow,"ax",%progbits
 3395              		.align	1
 3396              		.p2align 2,,3
 3397              		.global	HAL_RTCEx_DisableBypassShadow
 3398              		.syntax unified
 3399              		.code	16
 3400              		.thumb_func
 3401              		.fpu softvfp
 3402              		.type	HAL_RTCEx_DisableBypassShadow, %function
 3403              	HAL_RTCEx_DisableBypassShadow:
 3404              	.LFB71:
1895:../../../../../../Drivers/STM32L0xx_HAL_Driver/Src/stm32l0xx_hal_rtc_ex.c **** 
1896:../../../../../../Drivers/STM32L0xx_HAL_Driver/Src/stm32l0xx_hal_rtc_ex.c **** /**
1897:../../../../../../Drivers/STM32L0xx_HAL_Driver/Src/stm32l0xx_hal_rtc_ex.c ****   * @brief  Disable the Bypass Shadow feature.
1898:../../../../../../Drivers/STM32L0xx_HAL_Driver/Src/stm32l0xx_hal_rtc_ex.c ****   * @param  hrtc RTC handle
1899:../../../../../../Drivers/STM32L0xx_HAL_Driver/Src/stm32l0xx_hal_rtc_ex.c ****   * @note   When the Bypass Shadow is enabled the calendar value are taken
1900:../../../../../../Drivers/STM32L0xx_HAL_Driver/Src/stm32l0xx_hal_rtc_ex.c ****   *         directly from the Calendar counter.
1901:../../../../../../Drivers/STM32L0xx_HAL_Driver/Src/stm32l0xx_hal_rtc_ex.c ****   * @retval HAL status
1902:../../../../../../Drivers/STM32L0xx_HAL_Driver/Src/stm32l0xx_hal_rtc_ex.c ****   */
1903:../../../../../../Drivers/STM32L0xx_HAL_Driver/Src/stm32l0xx_hal_rtc_ex.c **** HAL_StatusTypeDef HAL_RTCEx_DisableBypassShadow(RTC_HandleTypeDef* hrtc)
1904:../../../../../../Drivers/STM32L0xx_HAL_Driver/Src/stm32l0xx_hal_rtc_ex.c **** {
 3405              		.loc 1 1904 0
 3406              		.cfi_startproc
 3407              		@ args = 0, pretend = 0, frame = 0
 3408              		@ frame_needed = 0, uses_anonymous_args = 0
 3409              	.LVL244:
1905:../../../../../../Drivers/STM32L0xx_HAL_Driver/Src/stm32l0xx_hal_rtc_ex.c ****   /* Process Locked */
1906:../../../../../../Drivers/STM32L0xx_HAL_Driver/Src/stm32l0xx_hal_rtc_ex.c ****   __HAL_LOCK(hrtc);
 3410              		.loc 1 1906 0
 3411 0000 2021     		movs	r1, #32
1904:../../../../../../Drivers/STM32L0xx_HAL_Driver/Src/stm32l0xx_hal_rtc_ex.c ****   /* Process Locked */
 3412              		.loc 1 1904 0
 3413 0002 30B5     		push	{r4, r5, lr}
 3414              	.LCFI33:
 3415              		.cfi_def_cfa_offset 12
 3416              		.cfi_offset 4, -12
 3417              		.cfi_offset 5, -8
 3418              		.cfi_offset 14, -4
 3419              		.loc 1 1906 0
 3420 0004 435C     		ldrb	r3, [r0, r1]
 3421 0006 012B     		cmp	r3, #1
 3422 0008 13D0     		beq	.L315
1907:../../../../../../Drivers/STM32L0xx_HAL_Driver/Src/stm32l0xx_hal_rtc_ex.c **** 
1908:../../../../../../Drivers/STM32L0xx_HAL_Driver/Src/stm32l0xx_hal_rtc_ex.c ****   hrtc->State = HAL_RTC_STATE_BUSY;
 3423              		.loc 1 1908 0 discriminator 2
 3424 000a 2124     		movs	r4, #33
 3425 000c 0223     		movs	r3, #2
1909:../../../../../../Drivers/STM32L0xx_HAL_Driver/Src/stm32l0xx_hal_rtc_ex.c **** 
1910:../../../../../../Drivers/STM32L0xx_HAL_Driver/Src/stm32l0xx_hal_rtc_ex.c ****   /* Disable the write protection for RTC registers */
1911:../../../../../../Drivers/STM32L0xx_HAL_Driver/Src/stm32l0xx_hal_rtc_ex.c ****   __HAL_RTC_WRITEPROTECTION_DISABLE(hrtc);
 3426              		.loc 1 1911 0 discriminator 2
 3427 000e CA22     		movs	r2, #202
ARM GAS  C:\Users\EBANO_~1\AppData\Local\Temp\ccyPWgHX.s 			page 100


1908:../../../../../../Drivers/STM32L0xx_HAL_Driver/Src/stm32l0xx_hal_rtc_ex.c **** 
 3428              		.loc 1 1908 0 discriminator 2
 3429 0010 0355     		strb	r3, [r0, r4]
 3430              		.loc 1 1911 0 discriminator 2
 3431 0012 0368     		ldr	r3, [r0]
 3432 0014 5A62     		str	r2, [r3, #36]
 3433 0016 773A     		subs	r2, r2, #119
 3434 0018 5A62     		str	r2, [r3, #36]
1912:../../../../../../Drivers/STM32L0xx_HAL_Driver/Src/stm32l0xx_hal_rtc_ex.c **** 
1913:../../../../../../Drivers/STM32L0xx_HAL_Driver/Src/stm32l0xx_hal_rtc_ex.c ****   /* Reset the BYPSHAD bit */
1914:../../../../../../Drivers/STM32L0xx_HAL_Driver/Src/stm32l0xx_hal_rtc_ex.c ****   hrtc->Instance->CR &= ((uint8_t)~RTC_CR_BYPSHAD);
 3435              		.loc 1 1914 0 discriminator 2
 3436 001a 9D68     		ldr	r5, [r3, #8]
 3437 001c 8C32     		adds	r2, r2, #140
 3438 001e 2A40     		ands	r2, r5
 3439 0020 9A60     		str	r2, [r3, #8]
1915:../../../../../../Drivers/STM32L0xx_HAL_Driver/Src/stm32l0xx_hal_rtc_ex.c **** 
1916:../../../../../../Drivers/STM32L0xx_HAL_Driver/Src/stm32l0xx_hal_rtc_ex.c ****   /* Enable the write protection for RTC registers */
1917:../../../../../../Drivers/STM32L0xx_HAL_Driver/Src/stm32l0xx_hal_rtc_ex.c ****   __HAL_RTC_WRITEPROTECTION_ENABLE(hrtc);
 3440              		.loc 1 1917 0 discriminator 2
 3441 0022 FF22     		movs	r2, #255
 3442 0024 5A62     		str	r2, [r3, #36]
1918:../../../../../../Drivers/STM32L0xx_HAL_Driver/Src/stm32l0xx_hal_rtc_ex.c **** 
1919:../../../../../../Drivers/STM32L0xx_HAL_Driver/Src/stm32l0xx_hal_rtc_ex.c ****   /* Change RTC state */
1920:../../../../../../Drivers/STM32L0xx_HAL_Driver/Src/stm32l0xx_hal_rtc_ex.c ****   hrtc->State = HAL_RTC_STATE_READY;
 3443              		.loc 1 1920 0 discriminator 2
 3444 0026 0123     		movs	r3, #1
 3445 0028 0355     		strb	r3, [r0, r4]
1921:../../../../../../Drivers/STM32L0xx_HAL_Driver/Src/stm32l0xx_hal_rtc_ex.c **** 
1922:../../../../../../Drivers/STM32L0xx_HAL_Driver/Src/stm32l0xx_hal_rtc_ex.c ****   /* Process Unlocked */
1923:../../../../../../Drivers/STM32L0xx_HAL_Driver/Src/stm32l0xx_hal_rtc_ex.c ****   __HAL_UNLOCK(hrtc);
 3446              		.loc 1 1923 0 discriminator 2
 3447 002a 0023     		movs	r3, #0
 3448 002c 4354     		strb	r3, [r0, r1]
1924:../../../../../../Drivers/STM32L0xx_HAL_Driver/Src/stm32l0xx_hal_rtc_ex.c **** 
1925:../../../../../../Drivers/STM32L0xx_HAL_Driver/Src/stm32l0xx_hal_rtc_ex.c ****   return HAL_OK;
 3449              		.loc 1 1925 0 discriminator 2
 3450 002e 0020     		movs	r0, #0
 3451              	.LVL245:
 3452              	.L314:
1926:../../../../../../Drivers/STM32L0xx_HAL_Driver/Src/stm32l0xx_hal_rtc_ex.c **** }
 3453              		.loc 1 1926 0
 3454              		@ sp needed
 3455 0030 30BD     		pop	{r4, r5, pc}
 3456              	.LVL246:
 3457              	.L315:
1906:../../../../../../Drivers/STM32L0xx_HAL_Driver/Src/stm32l0xx_hal_rtc_ex.c **** 
 3458              		.loc 1 1906 0
 3459 0032 0220     		movs	r0, #2
 3460              	.LVL247:
 3461 0034 FCE7     		b	.L314
 3462              		.cfi_endproc
 3463              	.LFE71:
 3464              		.size	HAL_RTCEx_DisableBypassShadow, .-HAL_RTCEx_DisableBypassShadow
 3465 0036 C046     		.section	.text.HAL_RTCEx_AlarmBEventCallback,"ax",%progbits
 3466              		.align	1
 3467              		.p2align 2,,3
ARM GAS  C:\Users\EBANO_~1\AppData\Local\Temp\ccyPWgHX.s 			page 101


 3468              		.weak	HAL_RTCEx_AlarmBEventCallback
 3469              		.syntax unified
 3470              		.code	16
 3471              		.thumb_func
 3472              		.fpu softvfp
 3473              		.type	HAL_RTCEx_AlarmBEventCallback, %function
 3474              	HAL_RTCEx_AlarmBEventCallback:
 3475              	.LFB83:
 3476              		.cfi_startproc
 3477              		@ args = 0, pretend = 0, frame = 0
 3478              		@ frame_needed = 0, uses_anonymous_args = 0
 3479              		@ link register save eliminated.
 3480              		@ sp needed
 3481 0000 7047     		bx	lr
 3482              		.cfi_endproc
 3483              	.LFE83:
 3484              		.size	HAL_RTCEx_AlarmBEventCallback, .-HAL_RTCEx_AlarmBEventCallback
 3485 0002 C046     		.section	.text.HAL_RTCEx_PollForAlarmBEvent,"ax",%progbits
 3486              		.align	1
 3487              		.p2align 2,,3
 3488              		.global	HAL_RTCEx_PollForAlarmBEvent
 3489              		.syntax unified
 3490              		.code	16
 3491              		.thumb_func
 3492              		.fpu softvfp
 3493              		.type	HAL_RTCEx_PollForAlarmBEvent, %function
 3494              	HAL_RTCEx_PollForAlarmBEvent:
 3495              	.LFB73:
1927:../../../../../../Drivers/STM32L0xx_HAL_Driver/Src/stm32l0xx_hal_rtc_ex.c **** 
1928:../../../../../../Drivers/STM32L0xx_HAL_Driver/Src/stm32l0xx_hal_rtc_ex.c **** /**
1929:../../../../../../Drivers/STM32L0xx_HAL_Driver/Src/stm32l0xx_hal_rtc_ex.c ****   * @}
1930:../../../../../../Drivers/STM32L0xx_HAL_Driver/Src/stm32l0xx_hal_rtc_ex.c ****   */
1931:../../../../../../Drivers/STM32L0xx_HAL_Driver/Src/stm32l0xx_hal_rtc_ex.c **** 
1932:../../../../../../Drivers/STM32L0xx_HAL_Driver/Src/stm32l0xx_hal_rtc_ex.c **** /** @addtogroup RTCEx_Exported_Functions_Group4
1933:../../../../../../Drivers/STM32L0xx_HAL_Driver/Src/stm32l0xx_hal_rtc_ex.c ****   * @brief    Extended features functions
1934:../../../../../../Drivers/STM32L0xx_HAL_Driver/Src/stm32l0xx_hal_rtc_ex.c ****   *
1935:../../../../../../Drivers/STM32L0xx_HAL_Driver/Src/stm32l0xx_hal_rtc_ex.c **** @verbatim   
1936:../../../../../../Drivers/STM32L0xx_HAL_Driver/Src/stm32l0xx_hal_rtc_ex.c ****  ===============================================================================
1937:../../../../../../Drivers/STM32L0xx_HAL_Driver/Src/stm32l0xx_hal_rtc_ex.c ****                  ##### Extended features functions #####
1938:../../../../../../Drivers/STM32L0xx_HAL_Driver/Src/stm32l0xx_hal_rtc_ex.c ****  ===============================================================================  
1939:../../../../../../Drivers/STM32L0xx_HAL_Driver/Src/stm32l0xx_hal_rtc_ex.c ****     [..]  This section provides functions allowing to:
1940:../../../../../../Drivers/STM32L0xx_HAL_Driver/Src/stm32l0xx_hal_rtc_ex.c ****       (+) RTC Alram B callback
1941:../../../../../../Drivers/STM32L0xx_HAL_Driver/Src/stm32l0xx_hal_rtc_ex.c ****       (+) RTC Poll for Alarm B request
1942:../../../../../../Drivers/STM32L0xx_HAL_Driver/Src/stm32l0xx_hal_rtc_ex.c ****                
1943:../../../../../../Drivers/STM32L0xx_HAL_Driver/Src/stm32l0xx_hal_rtc_ex.c **** @endverbatim
1944:../../../../../../Drivers/STM32L0xx_HAL_Driver/Src/stm32l0xx_hal_rtc_ex.c ****   * @{
1945:../../../../../../Drivers/STM32L0xx_HAL_Driver/Src/stm32l0xx_hal_rtc_ex.c ****   */
1946:../../../../../../Drivers/STM32L0xx_HAL_Driver/Src/stm32l0xx_hal_rtc_ex.c **** 
1947:../../../../../../Drivers/STM32L0xx_HAL_Driver/Src/stm32l0xx_hal_rtc_ex.c **** /**
1948:../../../../../../Drivers/STM32L0xx_HAL_Driver/Src/stm32l0xx_hal_rtc_ex.c ****   * @brief  Alarm B callback.
1949:../../../../../../Drivers/STM32L0xx_HAL_Driver/Src/stm32l0xx_hal_rtc_ex.c ****   * @param  hrtc RTC handle
1950:../../../../../../Drivers/STM32L0xx_HAL_Driver/Src/stm32l0xx_hal_rtc_ex.c ****   * @retval None
1951:../../../../../../Drivers/STM32L0xx_HAL_Driver/Src/stm32l0xx_hal_rtc_ex.c ****   */
1952:../../../../../../Drivers/STM32L0xx_HAL_Driver/Src/stm32l0xx_hal_rtc_ex.c **** __weak void HAL_RTCEx_AlarmBEventCallback(RTC_HandleTypeDef *hrtc)
1953:../../../../../../Drivers/STM32L0xx_HAL_Driver/Src/stm32l0xx_hal_rtc_ex.c **** {
1954:../../../../../../Drivers/STM32L0xx_HAL_Driver/Src/stm32l0xx_hal_rtc_ex.c ****   /* Prevent unused argument(s) compilation warning */
1955:../../../../../../Drivers/STM32L0xx_HAL_Driver/Src/stm32l0xx_hal_rtc_ex.c ****   UNUSED(hrtc);
ARM GAS  C:\Users\EBANO_~1\AppData\Local\Temp\ccyPWgHX.s 			page 102


1956:../../../../../../Drivers/STM32L0xx_HAL_Driver/Src/stm32l0xx_hal_rtc_ex.c **** 
1957:../../../../../../Drivers/STM32L0xx_HAL_Driver/Src/stm32l0xx_hal_rtc_ex.c ****   /* NOTE : This function should not be modified, when the callback is needed,
1958:../../../../../../Drivers/STM32L0xx_HAL_Driver/Src/stm32l0xx_hal_rtc_ex.c ****             the HAL_RTCEx_AlarmBEventCallback could be implemented in the user file
1959:../../../../../../Drivers/STM32L0xx_HAL_Driver/Src/stm32l0xx_hal_rtc_ex.c ****    */
1960:../../../../../../Drivers/STM32L0xx_HAL_Driver/Src/stm32l0xx_hal_rtc_ex.c **** }
1961:../../../../../../Drivers/STM32L0xx_HAL_Driver/Src/stm32l0xx_hal_rtc_ex.c **** 
1962:../../../../../../Drivers/STM32L0xx_HAL_Driver/Src/stm32l0xx_hal_rtc_ex.c **** /**
1963:../../../../../../Drivers/STM32L0xx_HAL_Driver/Src/stm32l0xx_hal_rtc_ex.c ****   * @brief  Handle Alarm B Polling request.
1964:../../../../../../Drivers/STM32L0xx_HAL_Driver/Src/stm32l0xx_hal_rtc_ex.c ****   * @param  hrtc RTC handle
1965:../../../../../../Drivers/STM32L0xx_HAL_Driver/Src/stm32l0xx_hal_rtc_ex.c ****   * @param  Timeout Timeout duration
1966:../../../../../../Drivers/STM32L0xx_HAL_Driver/Src/stm32l0xx_hal_rtc_ex.c ****   * @retval HAL status
1967:../../../../../../Drivers/STM32L0xx_HAL_Driver/Src/stm32l0xx_hal_rtc_ex.c ****   */
1968:../../../../../../Drivers/STM32L0xx_HAL_Driver/Src/stm32l0xx_hal_rtc_ex.c **** HAL_StatusTypeDef HAL_RTCEx_PollForAlarmBEvent(RTC_HandleTypeDef *hrtc, uint32_t Timeout)
1969:../../../../../../Drivers/STM32L0xx_HAL_Driver/Src/stm32l0xx_hal_rtc_ex.c **** { 
 3496              		.loc 1 1969 0
 3497              		.cfi_startproc
 3498              		@ args = 0, pretend = 0, frame = 0
 3499              		@ frame_needed = 0, uses_anonymous_args = 0
 3500              	.LVL248:
 3501              		.loc 1 1969 0
 3502 0000 F8B5     		push	{r3, r4, r5, r6, r7, lr}
 3503              	.LCFI34:
 3504              		.cfi_def_cfa_offset 24
 3505              		.cfi_offset 3, -24
 3506              		.cfi_offset 4, -20
 3507              		.cfi_offset 5, -16
 3508              		.cfi_offset 6, -12
 3509              		.cfi_offset 7, -8
 3510              		.cfi_offset 14, -4
 3511              		.loc 1 1969 0
 3512 0002 0500     		movs	r5, r0
 3513 0004 0C00     		movs	r4, r1
1970:../../../../../../Drivers/STM32L0xx_HAL_Driver/Src/stm32l0xx_hal_rtc_ex.c ****   uint32_t tickstart = HAL_GetTick();
 3514              		.loc 1 1970 0
 3515 0006 FFF7FEFF 		bl	HAL_GetTick
 3516              	.LVL249:
1971:../../../../../../Drivers/STM32L0xx_HAL_Driver/Src/stm32l0xx_hal_rtc_ex.c ****   
1972:../../../../../../Drivers/STM32L0xx_HAL_Driver/Src/stm32l0xx_hal_rtc_ex.c ****   while(__HAL_RTC_ALARM_GET_FLAG(hrtc, RTC_FLAG_ALRBF) == RESET)
 3517              		.loc 1 1972 0
 3518 000a 8026     		movs	r6, #128
1970:../../../../../../Drivers/STM32L0xx_HAL_Driver/Src/stm32l0xx_hal_rtc_ex.c ****   uint32_t tickstart = HAL_GetTick();
 3519              		.loc 1 1970 0
 3520 000c 0700     		movs	r7, r0
 3521              	.LVL250:
 3522              		.loc 1 1972 0
 3523 000e B600     		lsls	r6, r6, #2
 3524              	.LVL251:
 3525              	.L318:
 3526 0010 2A68     		ldr	r2, [r5]
 3527 0012 631C     		adds	r3, r4, #1
 3528 0014 0FD1     		bne	.L322
 3529 0016 8021     		movs	r1, #128
 3530 0018 8900     		lsls	r1, r1, #2
 3531              	.L323:
 3532 001a D368     		ldr	r3, [r2, #12]
 3533 001c 0B42     		tst	r3, r1
 3534 001e FCD0     		beq	.L323
ARM GAS  C:\Users\EBANO_~1\AppData\Local\Temp\ccyPWgHX.s 			page 103


 3535              	.L324:
1973:../../../../../../Drivers/STM32L0xx_HAL_Driver/Src/stm32l0xx_hal_rtc_ex.c ****   {
1974:../../../../../../Drivers/STM32L0xx_HAL_Driver/Src/stm32l0xx_hal_rtc_ex.c ****     if(Timeout != HAL_MAX_DELAY)
1975:../../../../../../Drivers/STM32L0xx_HAL_Driver/Src/stm32l0xx_hal_rtc_ex.c ****     {
1976:../../../../../../Drivers/STM32L0xx_HAL_Driver/Src/stm32l0xx_hal_rtc_ex.c ****       if((Timeout == 0U)||((HAL_GetTick() - tickstart ) > Timeout))
1977:../../../../../../Drivers/STM32L0xx_HAL_Driver/Src/stm32l0xx_hal_rtc_ex.c ****       {
1978:../../../../../../Drivers/STM32L0xx_HAL_Driver/Src/stm32l0xx_hal_rtc_ex.c ****         hrtc->State = HAL_RTC_STATE_TIMEOUT;
1979:../../../../../../Drivers/STM32L0xx_HAL_Driver/Src/stm32l0xx_hal_rtc_ex.c ****         return HAL_TIMEOUT;
1980:../../../../../../Drivers/STM32L0xx_HAL_Driver/Src/stm32l0xx_hal_rtc_ex.c ****       }
1981:../../../../../../Drivers/STM32L0xx_HAL_Driver/Src/stm32l0xx_hal_rtc_ex.c ****     }
1982:../../../../../../Drivers/STM32L0xx_HAL_Driver/Src/stm32l0xx_hal_rtc_ex.c ****   }
1983:../../../../../../Drivers/STM32L0xx_HAL_Driver/Src/stm32l0xx_hal_rtc_ex.c **** 
1984:../../../../../../Drivers/STM32L0xx_HAL_Driver/Src/stm32l0xx_hal_rtc_ex.c ****   /* Clear the Alarm Flag */
1985:../../../../../../Drivers/STM32L0xx_HAL_Driver/Src/stm32l0xx_hal_rtc_ex.c ****   __HAL_RTC_ALARM_CLEAR_FLAG(hrtc, RTC_FLAG_ALRBF);
 3536              		.loc 1 1985 0
 3537 0020 FF23     		movs	r3, #255
 3538 0022 D168     		ldr	r1, [r2, #12]
1986:../../../../../../Drivers/STM32L0xx_HAL_Driver/Src/stm32l0xx_hal_rtc_ex.c **** 
1987:../../../../../../Drivers/STM32L0xx_HAL_Driver/Src/stm32l0xx_hal_rtc_ex.c ****   /* Change RTC state */
1988:../../../../../../Drivers/STM32L0xx_HAL_Driver/Src/stm32l0xx_hal_rtc_ex.c ****   hrtc->State = HAL_RTC_STATE_READY;
1989:../../../../../../Drivers/STM32L0xx_HAL_Driver/Src/stm32l0xx_hal_rtc_ex.c **** 
1990:../../../../../../Drivers/STM32L0xx_HAL_Driver/Src/stm32l0xx_hal_rtc_ex.c ****   return HAL_OK;
 3539              		.loc 1 1990 0
 3540 0024 0020     		movs	r0, #0
1985:../../../../../../Drivers/STM32L0xx_HAL_Driver/Src/stm32l0xx_hal_rtc_ex.c **** 
 3541              		.loc 1 1985 0
 3542 0026 1940     		ands	r1, r3
 3543 0028 0A4B     		ldr	r3, .L328
 3544 002a 0B43     		orrs	r3, r1
 3545 002c D360     		str	r3, [r2, #12]
1988:../../../../../../Drivers/STM32L0xx_HAL_Driver/Src/stm32l0xx_hal_rtc_ex.c **** 
 3546              		.loc 1 1988 0
 3547 002e 2123     		movs	r3, #33
 3548 0030 0122     		movs	r2, #1
 3549 0032 EA54     		strb	r2, [r5, r3]
 3550              	.L320:
1991:../../../../../../Drivers/STM32L0xx_HAL_Driver/Src/stm32l0xx_hal_rtc_ex.c **** }
 3551              		.loc 1 1991 0
 3552              		@ sp needed
 3553              	.LVL252:
 3554              	.LVL253:
 3555              	.LVL254:
 3556 0034 F8BD     		pop	{r3, r4, r5, r6, r7, pc}
 3557              	.LVL255:
 3558              	.L322:
1972:../../../../../../Drivers/STM32L0xx_HAL_Driver/Src/stm32l0xx_hal_rtc_ex.c ****   {
 3559              		.loc 1 1972 0
 3560 0036 D368     		ldr	r3, [r2, #12]
 3561 0038 3342     		tst	r3, r6
 3562 003a F1D1     		bne	.L324
1976:../../../../../../Drivers/STM32L0xx_HAL_Driver/Src/stm32l0xx_hal_rtc_ex.c ****       {
 3563              		.loc 1 1976 0
 3564 003c 002C     		cmp	r4, #0
 3565 003e 04D0     		beq	.L321
1976:../../../../../../Drivers/STM32L0xx_HAL_Driver/Src/stm32l0xx_hal_rtc_ex.c ****       {
 3566              		.loc 1 1976 0 is_stmt 0 discriminator 1
 3567 0040 FFF7FEFF 		bl	HAL_GetTick
ARM GAS  C:\Users\EBANO_~1\AppData\Local\Temp\ccyPWgHX.s 			page 104


 3568              	.LVL256:
 3569 0044 C01B     		subs	r0, r0, r7
 3570 0046 A042     		cmp	r0, r4
 3571 0048 E2D9     		bls	.L318
 3572              	.L321:
1978:../../../../../../Drivers/STM32L0xx_HAL_Driver/Src/stm32l0xx_hal_rtc_ex.c ****         return HAL_TIMEOUT;
 3573              		.loc 1 1978 0 is_stmt 1
 3574 004a 2123     		movs	r3, #33
 3575 004c 0322     		movs	r2, #3
1979:../../../../../../Drivers/STM32L0xx_HAL_Driver/Src/stm32l0xx_hal_rtc_ex.c ****       }
 3576              		.loc 1 1979 0
 3577 004e 0320     		movs	r0, #3
1978:../../../../../../Drivers/STM32L0xx_HAL_Driver/Src/stm32l0xx_hal_rtc_ex.c ****         return HAL_TIMEOUT;
 3578              		.loc 1 1978 0
 3579 0050 EA54     		strb	r2, [r5, r3]
1979:../../../../../../Drivers/STM32L0xx_HAL_Driver/Src/stm32l0xx_hal_rtc_ex.c ****       }
 3580              		.loc 1 1979 0
 3581 0052 EFE7     		b	.L320
 3582              	.L329:
 3583              		.align	2
 3584              	.L328:
 3585 0054 7FFDFFFF 		.word	-641
 3586              		.cfi_endproc
 3587              	.LFE73:
 3588              		.size	HAL_RTCEx_PollForAlarmBEvent, .-HAL_RTCEx_PollForAlarmBEvent
 3589              		.text
 3590              	.Letext0:
 3591              		.file 2 "c:\\program files (x86)\\gnu tools arm embedded\\7 2018-q2-update\\arm-none-eabi\\include
 3592              		.file 3 "c:\\program files (x86)\\gnu tools arm embedded\\7 2018-q2-update\\arm-none-eabi\\include
 3593              		.file 4 "../../../../../../Drivers/CMSIS/Device/ST/STM32L0xx/Include/system_stm32l0xx.h"
 3594              		.file 5 "../../../../../../Drivers/CMSIS/Device/ST/STM32L0xx/Include/stm32l072xx.h"
 3595              		.file 6 "c:\\program files (x86)\\gnu tools arm embedded\\7 2018-q2-update\\arm-none-eabi\\include
 3596              		.file 7 "c:\\program files (x86)\\gnu tools arm embedded\\7 2018-q2-update\\arm-none-eabi\\include
 3597              		.file 8 "c:\\program files (x86)\\gnu tools arm embedded\\7 2018-q2-update\\lib\\gcc\\arm-none-eab
 3598              		.file 9 "c:\\program files (x86)\\gnu tools arm embedded\\7 2018-q2-update\\arm-none-eabi\\include
 3599              		.file 10 "../../../../../../Drivers/CMSIS/Device/ST/STM32L0xx/Include/stm32l0xx.h"
 3600              		.file 11 "../../../../../../Drivers/STM32L0xx_HAL_Driver/Inc/stm32l0xx_hal_def.h"
 3601              		.file 12 "../../../../../../Drivers/STM32L0xx_HAL_Driver/Inc/stm32l0xx_hal_rtc.h"
 3602              		.file 13 "../../../../../../Drivers/STM32L0xx_HAL_Driver/Inc/stm32l0xx_hal_rtc_ex.h"
 3603              		.file 14 "../../../../../../Drivers/STM32L0xx_HAL_Driver/Inc/stm32l0xx_hal.h"
 3604              		.section	.debug_info,"",%progbits
 3605              	.Ldebug_info0:
 3606 0000 0E1A0000 		.4byte	0x1a0e
 3607 0004 0200     		.2byte	0x2
 3608 0006 00000000 		.4byte	.Ldebug_abbrev0
 3609 000a 04       		.byte	0x4
 3610 000b 01       		.uleb128 0x1
 3611 000c 320C0000 		.4byte	.LASF265
 3612 0010 0C       		.byte	0xc
 3613 0011 E80B0000 		.4byte	.LASF266
 3614 0015 96030000 		.4byte	.LASF267
 3615 0019 00000000 		.4byte	.Ldebug_ranges0+0
 3616 001d 00000000 		.4byte	0
 3617 0021 00000000 		.4byte	0
 3618 0025 00000000 		.4byte	.Ldebug_line0
 3619 0029 02       		.uleb128 0x2
 3620 002a 01       		.byte	0x1
ARM GAS  C:\Users\EBANO_~1\AppData\Local\Temp\ccyPWgHX.s 			page 105


 3621 002b 06       		.byte	0x6
 3622 002c 6F020000 		.4byte	.LASF0
 3623 0030 03       		.uleb128 0x3
 3624 0031 34010000 		.4byte	.LASF5
 3625 0035 02       		.byte	0x2
 3626 0036 2B       		.byte	0x2b
 3627 0037 3B000000 		.4byte	0x3b
 3628 003b 02       		.uleb128 0x2
 3629 003c 01       		.byte	0x1
 3630 003d 08       		.byte	0x8
 3631 003e BC020000 		.4byte	.LASF1
 3632 0042 02       		.uleb128 0x2
 3633 0043 02       		.byte	0x2
 3634 0044 05       		.byte	0x5
 3635 0045 DE0B0000 		.4byte	.LASF2
 3636 0049 02       		.uleb128 0x2
 3637 004a 02       		.byte	0x2
 3638 004b 07       		.byte	0x7
 3639 004c 9C0D0000 		.4byte	.LASF3
 3640 0050 02       		.uleb128 0x2
 3641 0051 04       		.byte	0x4
 3642 0052 05       		.byte	0x5
 3643 0053 8D010000 		.4byte	.LASF4
 3644 0057 03       		.uleb128 0x3
 3645 0058 7B060000 		.4byte	.LASF6
 3646 005c 02       		.byte	0x2
 3647 005d 4F       		.byte	0x4f
 3648 005e 62000000 		.4byte	0x62
 3649 0062 02       		.uleb128 0x2
 3650 0063 04       		.byte	0x4
 3651 0064 07       		.byte	0x7
 3652 0065 49050000 		.4byte	.LASF7
 3653 0069 02       		.uleb128 0x2
 3654 006a 08       		.byte	0x8
 3655 006b 05       		.byte	0x5
 3656 006c 98060000 		.4byte	.LASF8
 3657 0070 02       		.uleb128 0x2
 3658 0071 08       		.byte	0x8
 3659 0072 07       		.byte	0x7
 3660 0073 8C090000 		.4byte	.LASF9
 3661 0077 04       		.uleb128 0x4
 3662 0078 04       		.byte	0x4
 3663 0079 05       		.byte	0x5
 3664 007a 696E7400 		.ascii	"int\000"
 3665 007e 02       		.uleb128 0x2
 3666 007f 04       		.byte	0x4
 3667 0080 07       		.byte	0x7
 3668 0081 A1070000 		.4byte	.LASF10
 3669 0085 03       		.uleb128 0x3
 3670 0086 7B020000 		.4byte	.LASF11
 3671 008a 03       		.byte	0x3
 3672 008b 18       		.byte	0x18
 3673 008c 30000000 		.4byte	0x30
 3674 0090 05       		.uleb128 0x5
 3675 0091 85000000 		.4byte	0x85
 3676 0095 03       		.uleb128 0x3
 3677 0096 610D0000 		.4byte	.LASF12
ARM GAS  C:\Users\EBANO_~1\AppData\Local\Temp\ccyPWgHX.s 			page 106


 3678 009a 03       		.byte	0x3
 3679 009b 30       		.byte	0x30
 3680 009c 57000000 		.4byte	0x57
 3681 00a0 06       		.uleb128 0x6
 3682 00a1 95000000 		.4byte	0x95
 3683 00a5 07       		.uleb128 0x7
 3684 00a6 87050000 		.4byte	.LASF13
 3685 00aa 04       		.byte	0x4
 3686 00ab 4A       		.byte	0x4a
 3687 00ac 95000000 		.4byte	0x95
 3688 00b0 01       		.byte	0x1
 3689 00b1 01       		.byte	0x1
 3690 00b2 08       		.uleb128 0x8
 3691 00b3 90000000 		.4byte	0x90
 3692 00b7 C2000000 		.4byte	0xc2
 3693 00bb 09       		.uleb128 0x9
 3694 00bc 7E000000 		.4byte	0x7e
 3695 00c0 0F       		.byte	0xf
 3696 00c1 00       		.byte	0
 3697 00c2 05       		.uleb128 0x5
 3698 00c3 B2000000 		.4byte	0xb2
 3699 00c7 07       		.uleb128 0x7
 3700 00c8 70090000 		.4byte	.LASF14
 3701 00cc 04       		.byte	0x4
 3702 00cd 4D       		.byte	0x4d
 3703 00ce C2000000 		.4byte	0xc2
 3704 00d2 01       		.byte	0x1
 3705 00d3 01       		.byte	0x1
 3706 00d4 08       		.uleb128 0x8
 3707 00d5 90000000 		.4byte	0x90
 3708 00d9 E4000000 		.4byte	0xe4
 3709 00dd 09       		.uleb128 0x9
 3710 00de 7E000000 		.4byte	0x7e
 3711 00e2 07       		.byte	0x7
 3712 00e3 00       		.byte	0
 3713 00e4 05       		.uleb128 0x5
 3714 00e5 D4000000 		.4byte	0xd4
 3715 00e9 07       		.uleb128 0x7
 3716 00ea 960B0000 		.4byte	.LASF15
 3717 00ee 04       		.byte	0x4
 3718 00ef 4E       		.byte	0x4e
 3719 00f0 E4000000 		.4byte	0xe4
 3720 00f4 01       		.byte	0x1
 3721 00f5 01       		.byte	0x1
 3722 00f6 08       		.uleb128 0x8
 3723 00f7 90000000 		.4byte	0x90
 3724 00fb 06010000 		.4byte	0x106
 3725 00ff 09       		.uleb128 0x9
 3726 0100 7E000000 		.4byte	0x7e
 3727 0104 08       		.byte	0x8
 3728 0105 00       		.byte	0
 3729 0106 05       		.uleb128 0x5
 3730 0107 F6000000 		.4byte	0xf6
 3731 010b 07       		.uleb128 0x7
 3732 010c 07050000 		.4byte	.LASF16
 3733 0110 04       		.byte	0x4
 3734 0111 4F       		.byte	0x4f
ARM GAS  C:\Users\EBANO_~1\AppData\Local\Temp\ccyPWgHX.s 			page 107


 3735 0112 06010000 		.4byte	0x106
 3736 0116 01       		.byte	0x1
 3737 0117 01       		.byte	0x1
 3738 0118 0A       		.uleb128 0xa
 3739 0119 18       		.byte	0x18
 3740 011a 05       		.byte	0x5
 3741 011b 1101     		.2byte	0x111
 3742 011d 7B010000 		.4byte	0x17b
 3743 0121 0B       		.uleb128 0xb
 3744 0122 494D5200 		.ascii	"IMR\000"
 3745 0126 05       		.byte	0x5
 3746 0127 1301     		.2byte	0x113
 3747 0129 A0000000 		.4byte	0xa0
 3748 012d 02       		.byte	0x2
 3749 012e 23       		.byte	0x23
 3750 012f 00       		.uleb128 0
 3751 0130 0B       		.uleb128 0xb
 3752 0131 454D5200 		.ascii	"EMR\000"
 3753 0135 05       		.byte	0x5
 3754 0136 1401     		.2byte	0x114
 3755 0138 A0000000 		.4byte	0xa0
 3756 013c 02       		.byte	0x2
 3757 013d 23       		.byte	0x23
 3758 013e 04       		.uleb128 0x4
 3759 013f 0C       		.uleb128 0xc
 3760 0140 CC010000 		.4byte	.LASF17
 3761 0144 05       		.byte	0x5
 3762 0145 1501     		.2byte	0x115
 3763 0147 A0000000 		.4byte	0xa0
 3764 014b 02       		.byte	0x2
 3765 014c 23       		.byte	0x23
 3766 014d 08       		.uleb128 0x8
 3767 014e 0C       		.uleb128 0xc
 3768 014f 03010000 		.4byte	.LASF18
 3769 0153 05       		.byte	0x5
 3770 0154 1601     		.2byte	0x116
 3771 0156 A0000000 		.4byte	0xa0
 3772 015a 02       		.byte	0x2
 3773 015b 23       		.byte	0x23
 3774 015c 0C       		.uleb128 0xc
 3775 015d 0C       		.uleb128 0xc
 3776 015e 63090000 		.4byte	.LASF19
 3777 0162 05       		.byte	0x5
 3778 0163 1701     		.2byte	0x117
 3779 0165 A0000000 		.4byte	0xa0
 3780 0169 02       		.byte	0x2
 3781 016a 23       		.byte	0x23
 3782 016b 10       		.uleb128 0x10
 3783 016c 0B       		.uleb128 0xb
 3784 016d 505200   		.ascii	"PR\000"
 3785 0170 05       		.byte	0x5
 3786 0171 1801     		.2byte	0x118
 3787 0173 A0000000 		.4byte	0xa0
 3788 0177 02       		.byte	0x2
 3789 0178 23       		.byte	0x23
 3790 0179 14       		.uleb128 0x14
 3791 017a 00       		.byte	0
ARM GAS  C:\Users\EBANO_~1\AppData\Local\Temp\ccyPWgHX.s 			page 108


 3792 017b 0D       		.uleb128 0xd
 3793 017c D1010000 		.4byte	.LASF20
 3794 0180 05       		.byte	0x5
 3795 0181 1901     		.2byte	0x119
 3796 0183 18010000 		.4byte	0x118
 3797 0187 0A       		.uleb128 0xa
 3798 0188 64       		.byte	0x64
 3799 0189 05       		.byte	0x5
 3800 018a CE01     		.2byte	0x1ce
 3801 018c 04030000 		.4byte	0x304
 3802 0190 0B       		.uleb128 0xb
 3803 0191 545200   		.ascii	"TR\000"
 3804 0194 05       		.byte	0x5
 3805 0195 D001     		.2byte	0x1d0
 3806 0197 A0000000 		.4byte	0xa0
 3807 019b 02       		.byte	0x2
 3808 019c 23       		.byte	0x23
 3809 019d 00       		.uleb128 0
 3810 019e 0B       		.uleb128 0xb
 3811 019f 445200   		.ascii	"DR\000"
 3812 01a2 05       		.byte	0x5
 3813 01a3 D101     		.2byte	0x1d1
 3814 01a5 A0000000 		.4byte	0xa0
 3815 01a9 02       		.byte	0x2
 3816 01aa 23       		.byte	0x23
 3817 01ab 04       		.uleb128 0x4
 3818 01ac 0B       		.uleb128 0xb
 3819 01ad 435200   		.ascii	"CR\000"
 3820 01b0 05       		.byte	0x5
 3821 01b1 D201     		.2byte	0x1d2
 3822 01b3 A0000000 		.4byte	0xa0
 3823 01b7 02       		.byte	0x2
 3824 01b8 23       		.byte	0x23
 3825 01b9 08       		.uleb128 0x8
 3826 01ba 0B       		.uleb128 0xb
 3827 01bb 49535200 		.ascii	"ISR\000"
 3828 01bf 05       		.byte	0x5
 3829 01c0 D301     		.2byte	0x1d3
 3830 01c2 A0000000 		.4byte	0xa0
 3831 01c6 02       		.byte	0x2
 3832 01c7 23       		.byte	0x23
 3833 01c8 0C       		.uleb128 0xc
 3834 01c9 0C       		.uleb128 0xc
 3835 01ca 2E040000 		.4byte	.LASF21
 3836 01ce 05       		.byte	0x5
 3837 01cf D401     		.2byte	0x1d4
 3838 01d1 A0000000 		.4byte	0xa0
 3839 01d5 02       		.byte	0x2
 3840 01d6 23       		.byte	0x23
 3841 01d7 10       		.uleb128 0x10
 3842 01d8 0C       		.uleb128 0xc
 3843 01d9 B90D0000 		.4byte	.LASF22
 3844 01dd 05       		.byte	0x5
 3845 01de D501     		.2byte	0x1d5
 3846 01e0 A0000000 		.4byte	0xa0
 3847 01e4 02       		.byte	0x2
 3848 01e5 23       		.byte	0x23
ARM GAS  C:\Users\EBANO_~1\AppData\Local\Temp\ccyPWgHX.s 			page 109


 3849 01e6 14       		.uleb128 0x14
 3850 01e7 0C       		.uleb128 0xc
 3851 01e8 86040000 		.4byte	.LASF23
 3852 01ec 05       		.byte	0x5
 3853 01ed D601     		.2byte	0x1d6
 3854 01ef 95000000 		.4byte	0x95
 3855 01f3 02       		.byte	0x2
 3856 01f4 23       		.byte	0x23
 3857 01f5 18       		.uleb128 0x18
 3858 01f6 0C       		.uleb128 0xc
 3859 01f7 91060000 		.4byte	.LASF24
 3860 01fb 05       		.byte	0x5
 3861 01fc D701     		.2byte	0x1d7
 3862 01fe A0000000 		.4byte	0xa0
 3863 0202 02       		.byte	0x2
 3864 0203 23       		.byte	0x23
 3865 0204 1C       		.uleb128 0x1c
 3866 0205 0C       		.uleb128 0xc
 3867 0206 63070000 		.4byte	.LASF25
 3868 020a 05       		.byte	0x5
 3869 020b D801     		.2byte	0x1d8
 3870 020d A0000000 		.4byte	0xa0
 3871 0211 02       		.byte	0x2
 3872 0212 23       		.byte	0x23
 3873 0213 20       		.uleb128 0x20
 3874 0214 0B       		.uleb128 0xb
 3875 0215 57505200 		.ascii	"WPR\000"
 3876 0219 05       		.byte	0x5
 3877 021a D901     		.2byte	0x1d9
 3878 021c A0000000 		.4byte	0xa0
 3879 0220 02       		.byte	0x2
 3880 0221 23       		.byte	0x23
 3881 0222 24       		.uleb128 0x24
 3882 0223 0B       		.uleb128 0xb
 3883 0224 53535200 		.ascii	"SSR\000"
 3884 0228 05       		.byte	0x5
 3885 0229 DA01     		.2byte	0x1da
 3886 022b A0000000 		.4byte	0xa0
 3887 022f 02       		.byte	0x2
 3888 0230 23       		.byte	0x23
 3889 0231 28       		.uleb128 0x28
 3890 0232 0C       		.uleb128 0xc
 3891 0233 8F0B0000 		.4byte	.LASF26
 3892 0237 05       		.byte	0x5
 3893 0238 DB01     		.2byte	0x1db
 3894 023a A0000000 		.4byte	0xa0
 3895 023e 02       		.byte	0x2
 3896 023f 23       		.byte	0x23
 3897 0240 2C       		.uleb128 0x2c
 3898 0241 0C       		.uleb128 0xc
 3899 0242 0B000000 		.4byte	.LASF27
 3900 0246 05       		.byte	0x5
 3901 0247 DC01     		.2byte	0x1dc
 3902 0249 A0000000 		.4byte	0xa0
 3903 024d 02       		.byte	0x2
 3904 024e 23       		.byte	0x23
 3905 024f 30       		.uleb128 0x30
ARM GAS  C:\Users\EBANO_~1\AppData\Local\Temp\ccyPWgHX.s 			page 110


 3906 0250 0C       		.uleb128 0xc
 3907 0251 56060000 		.4byte	.LASF28
 3908 0255 05       		.byte	0x5
 3909 0256 DD01     		.2byte	0x1dd
 3910 0258 A0000000 		.4byte	0xa0
 3911 025c 02       		.byte	0x2
 3912 025d 23       		.byte	0x23
 3913 025e 34       		.uleb128 0x34
 3914 025f 0C       		.uleb128 0xc
 3915 0260 110E0000 		.4byte	.LASF29
 3916 0264 05       		.byte	0x5
 3917 0265 DE01     		.2byte	0x1de
 3918 0267 A0000000 		.4byte	0xa0
 3919 026b 02       		.byte	0x2
 3920 026c 23       		.byte	0x23
 3921 026d 38       		.uleb128 0x38
 3922 026e 0C       		.uleb128 0xc
 3923 026f 80070000 		.4byte	.LASF30
 3924 0273 05       		.byte	0x5
 3925 0274 DF01     		.2byte	0x1df
 3926 0276 A0000000 		.4byte	0xa0
 3927 027a 02       		.byte	0x2
 3928 027b 23       		.byte	0x23
 3929 027c 3C       		.uleb128 0x3c
 3930 027d 0C       		.uleb128 0xc
 3931 027e 530E0000 		.4byte	.LASF31
 3932 0282 05       		.byte	0x5
 3933 0283 E001     		.2byte	0x1e0
 3934 0285 A0000000 		.4byte	0xa0
 3935 0289 02       		.byte	0x2
 3936 028a 23       		.byte	0x23
 3937 028b 40       		.uleb128 0x40
 3938 028c 0C       		.uleb128 0xc
 3939 028d 4A0E0000 		.4byte	.LASF32
 3940 0291 05       		.byte	0x5
 3941 0292 E101     		.2byte	0x1e1
 3942 0294 A0000000 		.4byte	0xa0
 3943 0298 02       		.byte	0x2
 3944 0299 23       		.byte	0x23
 3945 029a 44       		.uleb128 0x44
 3946 029b 0C       		.uleb128 0xc
 3947 029c 5B060000 		.4byte	.LASF33
 3948 02a0 05       		.byte	0x5
 3949 02a1 E201     		.2byte	0x1e2
 3950 02a3 A0000000 		.4byte	0xa0
 3951 02a7 02       		.byte	0x2
 3952 02a8 23       		.byte	0x23
 3953 02a9 48       		.uleb128 0x48
 3954 02aa 0B       		.uleb128 0xb
 3955 02ab 4F5200   		.ascii	"OR\000"
 3956 02ae 05       		.byte	0x5
 3957 02af E301     		.2byte	0x1e3
 3958 02b1 A0000000 		.4byte	0xa0
 3959 02b5 02       		.byte	0x2
 3960 02b6 23       		.byte	0x23
 3961 02b7 4C       		.uleb128 0x4c
 3962 02b8 0C       		.uleb128 0xc
ARM GAS  C:\Users\EBANO_~1\AppData\Local\Temp\ccyPWgHX.s 			page 111


 3963 02b9 030E0000 		.4byte	.LASF34
 3964 02bd 05       		.byte	0x5
 3965 02be E401     		.2byte	0x1e4
 3966 02c0 A0000000 		.4byte	0xa0
 3967 02c4 02       		.byte	0x2
 3968 02c5 23       		.byte	0x23
 3969 02c6 50       		.uleb128 0x50
 3970 02c7 0C       		.uleb128 0xc
 3971 02c8 770E0000 		.4byte	.LASF35
 3972 02cc 05       		.byte	0x5
 3973 02cd E501     		.2byte	0x1e5
 3974 02cf A0000000 		.4byte	0xa0
 3975 02d3 02       		.byte	0x2
 3976 02d4 23       		.byte	0x23
 3977 02d5 54       		.uleb128 0x54
 3978 02d6 0C       		.uleb128 0xc
 3979 02d7 35000000 		.4byte	.LASF36
 3980 02db 05       		.byte	0x5
 3981 02dc E601     		.2byte	0x1e6
 3982 02de A0000000 		.4byte	0xa0
 3983 02e2 02       		.byte	0x2
 3984 02e3 23       		.byte	0x23
 3985 02e4 58       		.uleb128 0x58
 3986 02e5 0C       		.uleb128 0xc
 3987 02e6 BE000000 		.4byte	.LASF37
 3988 02ea 05       		.byte	0x5
 3989 02eb E701     		.2byte	0x1e7
 3990 02ed A0000000 		.4byte	0xa0
 3991 02f1 02       		.byte	0x2
 3992 02f2 23       		.byte	0x23
 3993 02f3 5C       		.uleb128 0x5c
 3994 02f4 0C       		.uleb128 0xc
 3995 02f5 E9000000 		.4byte	.LASF38
 3996 02f9 05       		.byte	0x5
 3997 02fa E801     		.2byte	0x1e8
 3998 02fc A0000000 		.4byte	0xa0
 3999 0300 02       		.byte	0x2
 4000 0301 23       		.byte	0x23
 4001 0302 60       		.uleb128 0x60
 4002 0303 00       		.byte	0
 4003 0304 0D       		.uleb128 0xd
 4004 0305 5B050000 		.4byte	.LASF39
 4005 0309 05       		.byte	0x5
 4006 030a E901     		.2byte	0x1e9
 4007 030c 87010000 		.4byte	0x187
 4008 0310 0E       		.uleb128 0xe
 4009 0311 07       		.byte	0x7
 4010 0312 01       		.byte	0x1
 4011 0313 3B000000 		.4byte	0x3b
 4012 0317 0A       		.byte	0xa
 4013 0318 BE       		.byte	0xbe
 4014 0319 2A030000 		.4byte	0x32a
 4015 031d 0F       		.uleb128 0xf
 4016 031e 8F0A0000 		.4byte	.LASF40
 4017 0322 00       		.byte	0
 4018 0323 10       		.uleb128 0x10
 4019 0324 53455400 		.ascii	"SET\000"
ARM GAS  C:\Users\EBANO_~1\AppData\Local\Temp\ccyPWgHX.s 			page 112


 4020 0328 01       		.byte	0x1
 4021 0329 00       		.byte	0
 4022 032a 02       		.uleb128 0x2
 4023 032b 08       		.byte	0x8
 4024 032c 04       		.byte	0x4
 4025 032d 0B090000 		.4byte	.LASF41
 4026 0331 11       		.uleb128 0x11
 4027 0332 04       		.byte	0x4
 4028 0333 03       		.uleb128 0x3
 4029 0334 310D0000 		.4byte	.LASF42
 4030 0338 06       		.byte	0x6
 4031 0339 22       		.byte	0x22
 4032 033a 3E030000 		.4byte	0x33e
 4033 033e 12       		.uleb128 0x12
 4034 033f 04       		.byte	0x4
 4035 0340 44030000 		.4byte	0x344
 4036 0344 13       		.uleb128 0x13
 4037 0345 A9040000 		.4byte	.LASF149
 4038 0349 01       		.byte	0x1
 4039 034a 03       		.uleb128 0x3
 4040 034b 790D0000 		.4byte	.LASF43
 4041 034f 07       		.byte	0x7
 4042 0350 2C       		.byte	0x2c
 4043 0351 50000000 		.4byte	0x50
 4044 0355 03       		.uleb128 0x3
 4045 0356 5B090000 		.4byte	.LASF44
 4046 035a 07       		.byte	0x7
 4047 035b 72       		.byte	0x72
 4048 035c 50000000 		.4byte	0x50
 4049 0360 0D       		.uleb128 0xd
 4050 0361 D10A0000 		.4byte	.LASF45
 4051 0365 08       		.byte	0x8
 4052 0366 6501     		.2byte	0x165
 4053 0368 7E000000 		.4byte	0x7e
 4054 036c 14       		.uleb128 0x14
 4055 036d 04       		.byte	0x4
 4056 036e 07       		.byte	0x7
 4057 036f A6       		.byte	0xa6
 4058 0370 8B030000 		.4byte	0x38b
 4059 0374 15       		.uleb128 0x15
 4060 0375 29010000 		.4byte	.LASF46
 4061 0379 07       		.byte	0x7
 4062 037a A8       		.byte	0xa8
 4063 037b 60030000 		.4byte	0x360
 4064 037f 15       		.uleb128 0x15
 4065 0380 69090000 		.4byte	.LASF47
 4066 0384 07       		.byte	0x7
 4067 0385 A9       		.byte	0xa9
 4068 0386 8B030000 		.4byte	0x38b
 4069 038a 00       		.byte	0
 4070 038b 08       		.uleb128 0x8
 4071 038c 3B000000 		.4byte	0x3b
 4072 0390 9B030000 		.4byte	0x39b
 4073 0394 09       		.uleb128 0x9
 4074 0395 7E000000 		.4byte	0x7e
 4075 0399 03       		.byte	0x3
 4076 039a 00       		.byte	0
ARM GAS  C:\Users\EBANO_~1\AppData\Local\Temp\ccyPWgHX.s 			page 113


 4077 039b 16       		.uleb128 0x16
 4078 039c 08       		.byte	0x8
 4079 039d 07       		.byte	0x7
 4080 039e A3       		.byte	0xa3
 4081 039f C0030000 		.4byte	0x3c0
 4082 03a3 17       		.uleb128 0x17
 4083 03a4 B0080000 		.4byte	.LASF48
 4084 03a8 07       		.byte	0x7
 4085 03a9 A5       		.byte	0xa5
 4086 03aa 77000000 		.4byte	0x77
 4087 03ae 02       		.byte	0x2
 4088 03af 23       		.byte	0x23
 4089 03b0 00       		.uleb128 0
 4090 03b1 17       		.uleb128 0x17
 4091 03b2 10000000 		.4byte	.LASF49
 4092 03b6 07       		.byte	0x7
 4093 03b7 AA       		.byte	0xaa
 4094 03b8 6C030000 		.4byte	0x36c
 4095 03bc 02       		.byte	0x2
 4096 03bd 23       		.byte	0x23
 4097 03be 04       		.uleb128 0x4
 4098 03bf 00       		.byte	0
 4099 03c0 03       		.uleb128 0x3
 4100 03c1 B40A0000 		.4byte	.LASF50
 4101 03c5 07       		.byte	0x7
 4102 03c6 AB       		.byte	0xab
 4103 03c7 9B030000 		.4byte	0x39b
 4104 03cb 03       		.uleb128 0x3
 4105 03cc 7F0A0000 		.4byte	.LASF51
 4106 03d0 07       		.byte	0x7
 4107 03d1 AF       		.byte	0xaf
 4108 03d2 33030000 		.4byte	0x333
 4109 03d6 03       		.uleb128 0x3
 4110 03d7 4F0D0000 		.4byte	.LASF52
 4111 03db 09       		.byte	0x9
 4112 03dc 16       		.byte	0x16
 4113 03dd 62000000 		.4byte	0x62
 4114 03e1 18       		.uleb128 0x18
 4115 03e2 F4050000 		.4byte	.LASF57
 4116 03e6 18       		.byte	0x18
 4117 03e7 09       		.byte	0x9
 4118 03e8 2F       		.byte	0x2f
 4119 03e9 40040000 		.4byte	0x440
 4120 03ed 17       		.uleb128 0x17
 4121 03ee F60A0000 		.4byte	.LASF53
 4122 03f2 09       		.byte	0x9
 4123 03f3 31       		.byte	0x31
 4124 03f4 40040000 		.4byte	0x440
 4125 03f8 02       		.byte	0x2
 4126 03f9 23       		.byte	0x23
 4127 03fa 00       		.uleb128 0
 4128 03fb 19       		.uleb128 0x19
 4129 03fc 5F6B00   		.ascii	"_k\000"
 4130 03ff 09       		.byte	0x9
 4131 0400 32       		.byte	0x32
 4132 0401 77000000 		.4byte	0x77
 4133 0405 02       		.byte	0x2
ARM GAS  C:\Users\EBANO_~1\AppData\Local\Temp\ccyPWgHX.s 			page 114


 4134 0406 23       		.byte	0x23
 4135 0407 04       		.uleb128 0x4
 4136 0408 17       		.uleb128 0x17
 4137 0409 34060000 		.4byte	.LASF54
 4138 040d 09       		.byte	0x9
 4139 040e 32       		.byte	0x32
 4140 040f 77000000 		.4byte	0x77
 4141 0413 02       		.byte	0x2
 4142 0414 23       		.byte	0x23
 4143 0415 08       		.uleb128 0x8
 4144 0416 17       		.uleb128 0x17
 4145 0417 85070000 		.4byte	.LASF55
 4146 041b 09       		.byte	0x9
 4147 041c 32       		.byte	0x32
 4148 041d 77000000 		.4byte	0x77
 4149 0421 02       		.byte	0x2
 4150 0422 23       		.byte	0x23
 4151 0423 0C       		.uleb128 0xc
 4152 0424 17       		.uleb128 0x17
 4153 0425 97040000 		.4byte	.LASF56
 4154 0429 09       		.byte	0x9
 4155 042a 32       		.byte	0x32
 4156 042b 77000000 		.4byte	0x77
 4157 042f 02       		.byte	0x2
 4158 0430 23       		.byte	0x23
 4159 0431 10       		.uleb128 0x10
 4160 0432 19       		.uleb128 0x19
 4161 0433 5F7800   		.ascii	"_x\000"
 4162 0436 09       		.byte	0x9
 4163 0437 33       		.byte	0x33
 4164 0438 46040000 		.4byte	0x446
 4165 043c 02       		.byte	0x2
 4166 043d 23       		.byte	0x23
 4167 043e 14       		.uleb128 0x14
 4168 043f 00       		.byte	0
 4169 0440 12       		.uleb128 0x12
 4170 0441 04       		.byte	0x4
 4171 0442 E1030000 		.4byte	0x3e1
 4172 0446 08       		.uleb128 0x8
 4173 0447 D6030000 		.4byte	0x3d6
 4174 044b 56040000 		.4byte	0x456
 4175 044f 09       		.uleb128 0x9
 4176 0450 7E000000 		.4byte	0x7e
 4177 0454 00       		.byte	0
 4178 0455 00       		.byte	0
 4179 0456 18       		.uleb128 0x18
 4180 0457 8F000000 		.4byte	.LASF58
 4181 045b 24       		.byte	0x24
 4182 045c 09       		.byte	0x9
 4183 045d 37       		.byte	0x37
 4184 045e E1040000 		.4byte	0x4e1
 4185 0462 17       		.uleb128 0x17
 4186 0463 AB000000 		.4byte	.LASF59
 4187 0467 09       		.byte	0x9
 4188 0468 39       		.byte	0x39
 4189 0469 77000000 		.4byte	0x77
 4190 046d 02       		.byte	0x2
ARM GAS  C:\Users\EBANO_~1\AppData\Local\Temp\ccyPWgHX.s 			page 115


 4191 046e 23       		.byte	0x23
 4192 046f 00       		.uleb128 0
 4193 0470 17       		.uleb128 0x17
 4194 0471 410E0000 		.4byte	.LASF60
 4195 0475 09       		.byte	0x9
 4196 0476 3A       		.byte	0x3a
 4197 0477 77000000 		.4byte	0x77
 4198 047b 02       		.byte	0x2
 4199 047c 23       		.byte	0x23
 4200 047d 04       		.uleb128 0x4
 4201 047e 17       		.uleb128 0x17
 4202 047f AF0D0000 		.4byte	.LASF61
 4203 0483 09       		.byte	0x9
 4204 0484 3B       		.byte	0x3b
 4205 0485 77000000 		.4byte	0x77
 4206 0489 02       		.byte	0x2
 4207 048a 23       		.byte	0x23
 4208 048b 08       		.uleb128 0x8
 4209 048c 17       		.uleb128 0x17
 4210 048d 01080000 		.4byte	.LASF62
 4211 0491 09       		.byte	0x9
 4212 0492 3C       		.byte	0x3c
 4213 0493 77000000 		.4byte	0x77
 4214 0497 02       		.byte	0x2
 4215 0498 23       		.byte	0x23
 4216 0499 0C       		.uleb128 0xc
 4217 049a 17       		.uleb128 0x17
 4218 049b F7010000 		.4byte	.LASF63
 4219 049f 09       		.byte	0x9
 4220 04a0 3D       		.byte	0x3d
 4221 04a1 77000000 		.4byte	0x77
 4222 04a5 02       		.byte	0x2
 4223 04a6 23       		.byte	0x23
 4224 04a7 10       		.uleb128 0x10
 4225 04a8 17       		.uleb128 0x17
 4226 04a9 DD0C0000 		.4byte	.LASF64
 4227 04ad 09       		.byte	0x9
 4228 04ae 3E       		.byte	0x3e
 4229 04af 77000000 		.4byte	0x77
 4230 04b3 02       		.byte	0x2
 4231 04b4 23       		.byte	0x23
 4232 04b5 14       		.uleb128 0x14
 4233 04b6 17       		.uleb128 0x17
 4234 04b7 E2080000 		.4byte	.LASF65
 4235 04bb 09       		.byte	0x9
 4236 04bc 3F       		.byte	0x3f
 4237 04bd 77000000 		.4byte	0x77
 4238 04c1 02       		.byte	0x2
 4239 04c2 23       		.byte	0x23
 4240 04c3 18       		.uleb128 0x18
 4241 04c4 17       		.uleb128 0x17
 4242 04c5 37090000 		.4byte	.LASF66
 4243 04c9 09       		.byte	0x9
 4244 04ca 40       		.byte	0x40
 4245 04cb 77000000 		.4byte	0x77
 4246 04cf 02       		.byte	0x2
 4247 04d0 23       		.byte	0x23
ARM GAS  C:\Users\EBANO_~1\AppData\Local\Temp\ccyPWgHX.s 			page 116


 4248 04d1 1C       		.uleb128 0x1c
 4249 04d2 17       		.uleb128 0x17
 4250 04d3 170E0000 		.4byte	.LASF67
 4251 04d7 09       		.byte	0x9
 4252 04d8 41       		.byte	0x41
 4253 04d9 77000000 		.4byte	0x77
 4254 04dd 02       		.byte	0x2
 4255 04de 23       		.byte	0x23
 4256 04df 20       		.uleb128 0x20
 4257 04e0 00       		.byte	0
 4258 04e1 1A       		.uleb128 0x1a
 4259 04e2 44010000 		.4byte	.LASF68
 4260 04e6 0801     		.2byte	0x108
 4261 04e8 09       		.byte	0x9
 4262 04e9 4A       		.byte	0x4a
 4263 04ea 2A050000 		.4byte	0x52a
 4264 04ee 17       		.uleb128 0x17
 4265 04ef 090E0000 		.4byte	.LASF69
 4266 04f3 09       		.byte	0x9
 4267 04f4 4B       		.byte	0x4b
 4268 04f5 2A050000 		.4byte	0x52a
 4269 04f9 02       		.byte	0x2
 4270 04fa 23       		.byte	0x23
 4271 04fb 00       		.uleb128 0
 4272 04fc 17       		.uleb128 0x17
 4273 04fd F2090000 		.4byte	.LASF70
 4274 0501 09       		.byte	0x9
 4275 0502 4C       		.byte	0x4c
 4276 0503 2A050000 		.4byte	0x52a
 4277 0507 03       		.byte	0x3
 4278 0508 23       		.byte	0x23
 4279 0509 8001     		.uleb128 0x80
 4280 050b 17       		.uleb128 0x17
 4281 050c D40C0000 		.4byte	.LASF71
 4282 0510 09       		.byte	0x9
 4283 0511 4E       		.byte	0x4e
 4284 0512 D6030000 		.4byte	0x3d6
 4285 0516 03       		.byte	0x3
 4286 0517 23       		.byte	0x23
 4287 0518 8002     		.uleb128 0x100
 4288 051a 17       		.uleb128 0x17
 4289 051b 290D0000 		.4byte	.LASF72
 4290 051f 09       		.byte	0x9
 4291 0520 51       		.byte	0x51
 4292 0521 D6030000 		.4byte	0x3d6
 4293 0525 03       		.byte	0x3
 4294 0526 23       		.byte	0x23
 4295 0527 8402     		.uleb128 0x104
 4296 0529 00       		.byte	0
 4297 052a 08       		.uleb128 0x8
 4298 052b 31030000 		.4byte	0x331
 4299 052f 3A050000 		.4byte	0x53a
 4300 0533 09       		.uleb128 0x9
 4301 0534 7E000000 		.4byte	0x7e
 4302 0538 1F       		.byte	0x1f
 4303 0539 00       		.byte	0
 4304 053a 1A       		.uleb128 0x1a
ARM GAS  C:\Users\EBANO_~1\AppData\Local\Temp\ccyPWgHX.s 			page 117


 4305 053b 8F080000 		.4byte	.LASF73
 4306 053f 9001     		.2byte	0x190
 4307 0541 09       		.byte	0x9
 4308 0542 5D       		.byte	0x5d
 4309 0543 81050000 		.4byte	0x581
 4310 0547 17       		.uleb128 0x17
 4311 0548 F60A0000 		.4byte	.LASF53
 4312 054c 09       		.byte	0x9
 4313 054d 5E       		.byte	0x5e
 4314 054e 81050000 		.4byte	0x581
 4315 0552 02       		.byte	0x2
 4316 0553 23       		.byte	0x23
 4317 0554 00       		.uleb128 0
 4318 0555 17       		.uleb128 0x17
 4319 0556 150D0000 		.4byte	.LASF74
 4320 055a 09       		.byte	0x9
 4321 055b 5F       		.byte	0x5f
 4322 055c 77000000 		.4byte	0x77
 4323 0560 02       		.byte	0x2
 4324 0561 23       		.byte	0x23
 4325 0562 04       		.uleb128 0x4
 4326 0563 17       		.uleb128 0x17
 4327 0564 7E030000 		.4byte	.LASF75
 4328 0568 09       		.byte	0x9
 4329 0569 61       		.byte	0x61
 4330 056a 87050000 		.4byte	0x587
 4331 056e 02       		.byte	0x2
 4332 056f 23       		.byte	0x23
 4333 0570 08       		.uleb128 0x8
 4334 0571 17       		.uleb128 0x17
 4335 0572 44010000 		.4byte	.LASF68
 4336 0576 09       		.byte	0x9
 4337 0577 62       		.byte	0x62
 4338 0578 E1040000 		.4byte	0x4e1
 4339 057c 03       		.byte	0x3
 4340 057d 23       		.byte	0x23
 4341 057e 8801     		.uleb128 0x88
 4342 0580 00       		.byte	0
 4343 0581 12       		.uleb128 0x12
 4344 0582 04       		.byte	0x4
 4345 0583 3A050000 		.4byte	0x53a
 4346 0587 08       		.uleb128 0x8
 4347 0588 97050000 		.4byte	0x597
 4348 058c 97050000 		.4byte	0x597
 4349 0590 09       		.uleb128 0x9
 4350 0591 7E000000 		.4byte	0x7e
 4351 0595 1F       		.byte	0x1f
 4352 0596 00       		.byte	0
 4353 0597 12       		.uleb128 0x12
 4354 0598 04       		.byte	0x4
 4355 0599 9D050000 		.4byte	0x59d
 4356 059d 1B       		.uleb128 0x1b
 4357 059e 01       		.byte	0x1
 4358 059f 18       		.uleb128 0x18
 4359 05a0 220D0000 		.4byte	.LASF76
 4360 05a4 08       		.byte	0x8
 4361 05a5 09       		.byte	0x9
ARM GAS  C:\Users\EBANO_~1\AppData\Local\Temp\ccyPWgHX.s 			page 118


 4362 05a6 75       		.byte	0x75
 4363 05a7 C8050000 		.4byte	0x5c8
 4364 05ab 17       		.uleb128 0x17
 4365 05ac 570A0000 		.4byte	.LASF77
 4366 05b0 09       		.byte	0x9
 4367 05b1 76       		.byte	0x76
 4368 05b2 C8050000 		.4byte	0x5c8
 4369 05b6 02       		.byte	0x2
 4370 05b7 23       		.byte	0x23
 4371 05b8 00       		.uleb128 0
 4372 05b9 17       		.uleb128 0x17
 4373 05ba AC010000 		.4byte	.LASF78
 4374 05be 09       		.byte	0x9
 4375 05bf 77       		.byte	0x77
 4376 05c0 77000000 		.4byte	0x77
 4377 05c4 02       		.byte	0x2
 4378 05c5 23       		.byte	0x23
 4379 05c6 04       		.uleb128 0x4
 4380 05c7 00       		.byte	0
 4381 05c8 12       		.uleb128 0x12
 4382 05c9 04       		.byte	0x4
 4383 05ca 3B000000 		.4byte	0x3b
 4384 05ce 18       		.uleb128 0x18
 4385 05cf 67050000 		.4byte	.LASF79
 4386 05d3 68       		.byte	0x68
 4387 05d4 09       		.byte	0x9
 4388 05d5 B5       		.byte	0xb5
 4389 05d6 28070000 		.4byte	0x728
 4390 05da 19       		.uleb128 0x19
 4391 05db 5F7000   		.ascii	"_p\000"
 4392 05de 09       		.byte	0x9
 4393 05df B6       		.byte	0xb6
 4394 05e0 C8050000 		.4byte	0x5c8
 4395 05e4 02       		.byte	0x2
 4396 05e5 23       		.byte	0x23
 4397 05e6 00       		.uleb128 0
 4398 05e7 19       		.uleb128 0x19
 4399 05e8 5F7200   		.ascii	"_r\000"
 4400 05eb 09       		.byte	0x9
 4401 05ec B7       		.byte	0xb7
 4402 05ed 77000000 		.4byte	0x77
 4403 05f1 02       		.byte	0x2
 4404 05f2 23       		.byte	0x23
 4405 05f3 04       		.uleb128 0x4
 4406 05f4 19       		.uleb128 0x19
 4407 05f5 5F7700   		.ascii	"_w\000"
 4408 05f8 09       		.byte	0x9
 4409 05f9 B8       		.byte	0xb8
 4410 05fa 77000000 		.4byte	0x77
 4411 05fe 02       		.byte	0x2
 4412 05ff 23       		.byte	0x23
 4413 0600 08       		.uleb128 0x8
 4414 0601 17       		.uleb128 0x17
 4415 0602 69080000 		.4byte	.LASF80
 4416 0606 09       		.byte	0x9
 4417 0607 B9       		.byte	0xb9
 4418 0608 42000000 		.4byte	0x42
ARM GAS  C:\Users\EBANO_~1\AppData\Local\Temp\ccyPWgHX.s 			page 119


 4419 060c 02       		.byte	0x2
 4420 060d 23       		.byte	0x23
 4421 060e 0C       		.uleb128 0xc
 4422 060f 17       		.uleb128 0x17
 4423 0610 3E010000 		.4byte	.LASF81
 4424 0614 09       		.byte	0x9
 4425 0615 BA       		.byte	0xba
 4426 0616 42000000 		.4byte	0x42
 4427 061a 02       		.byte	0x2
 4428 061b 23       		.byte	0x23
 4429 061c 0E       		.uleb128 0xe
 4430 061d 19       		.uleb128 0x19
 4431 061e 5F626600 		.ascii	"_bf\000"
 4432 0622 09       		.byte	0x9
 4433 0623 BB       		.byte	0xbb
 4434 0624 9F050000 		.4byte	0x59f
 4435 0628 02       		.byte	0x2
 4436 0629 23       		.byte	0x23
 4437 062a 10       		.uleb128 0x10
 4438 062b 17       		.uleb128 0x17
 4439 062c 070D0000 		.4byte	.LASF82
 4440 0630 09       		.byte	0x9
 4441 0631 BC       		.byte	0xbc
 4442 0632 77000000 		.4byte	0x77
 4443 0636 02       		.byte	0x2
 4444 0637 23       		.byte	0x23
 4445 0638 18       		.uleb128 0x18
 4446 0639 17       		.uleb128 0x17
 4447 063a 8F040000 		.4byte	.LASF83
 4448 063e 09       		.byte	0x9
 4449 063f C3       		.byte	0xc3
 4450 0640 31030000 		.4byte	0x331
 4451 0644 02       		.byte	0x2
 4452 0645 23       		.byte	0x23
 4453 0646 1C       		.uleb128 0x1c
 4454 0647 17       		.uleb128 0x17
 4455 0648 2F000000 		.4byte	.LASF84
 4456 064c 09       		.byte	0x9
 4457 064d C5       		.byte	0xc5
 4458 064e C2080000 		.4byte	0x8c2
 4459 0652 02       		.byte	0x2
 4460 0653 23       		.byte	0x23
 4461 0654 20       		.uleb128 0x20
 4462 0655 17       		.uleb128 0x17
 4463 0656 3B000000 		.4byte	.LASF85
 4464 065a 09       		.byte	0x9
 4465 065b C7       		.byte	0xc7
 4466 065c ED080000 		.4byte	0x8ed
 4467 0660 02       		.byte	0x2
 4468 0661 23       		.byte	0x23
 4469 0662 24       		.uleb128 0x24
 4470 0663 17       		.uleb128 0x17
 4471 0664 47090000 		.4byte	.LASF86
 4472 0668 09       		.byte	0x9
 4473 0669 CA       		.byte	0xca
 4474 066a 12090000 		.4byte	0x912
 4475 066e 02       		.byte	0x2
ARM GAS  C:\Users\EBANO_~1\AppData\Local\Temp\ccyPWgHX.s 			page 120


 4476 066f 23       		.byte	0x23
 4477 0670 28       		.uleb128 0x28
 4478 0671 17       		.uleb128 0x17
 4479 0672 83030000 		.4byte	.LASF87
 4480 0676 09       		.byte	0x9
 4481 0677 CB       		.byte	0xcb
 4482 0678 2D090000 		.4byte	0x92d
 4483 067c 02       		.byte	0x2
 4484 067d 23       		.byte	0x23
 4485 067e 2C       		.uleb128 0x2c
 4486 067f 19       		.uleb128 0x19
 4487 0680 5F756200 		.ascii	"_ub\000"
 4488 0684 09       		.byte	0x9
 4489 0685 CE       		.byte	0xce
 4490 0686 9F050000 		.4byte	0x59f
 4491 068a 02       		.byte	0x2
 4492 068b 23       		.byte	0x23
 4493 068c 30       		.uleb128 0x30
 4494 068d 19       		.uleb128 0x19
 4495 068e 5F757000 		.ascii	"_up\000"
 4496 0692 09       		.byte	0x9
 4497 0693 CF       		.byte	0xcf
 4498 0694 C8050000 		.4byte	0x5c8
 4499 0698 02       		.byte	0x2
 4500 0699 23       		.byte	0x23
 4501 069a 38       		.uleb128 0x38
 4502 069b 19       		.uleb128 0x19
 4503 069c 5F757200 		.ascii	"_ur\000"
 4504 06a0 09       		.byte	0x9
 4505 06a1 D0       		.byte	0xd0
 4506 06a2 77000000 		.4byte	0x77
 4507 06a6 02       		.byte	0x2
 4508 06a7 23       		.byte	0x23
 4509 06a8 3C       		.uleb128 0x3c
 4510 06a9 17       		.uleb128 0x17
 4511 06aa 22080000 		.4byte	.LASF88
 4512 06ae 09       		.byte	0x9
 4513 06af D3       		.byte	0xd3
 4514 06b0 33090000 		.4byte	0x933
 4515 06b4 02       		.byte	0x2
 4516 06b5 23       		.byte	0x23
 4517 06b6 40       		.uleb128 0x40
 4518 06b7 17       		.uleb128 0x17
 4519 06b8 A5000000 		.4byte	.LASF89
 4520 06bc 09       		.byte	0x9
 4521 06bd D4       		.byte	0xd4
 4522 06be 43090000 		.4byte	0x943
 4523 06c2 02       		.byte	0x2
 4524 06c3 23       		.byte	0x23
 4525 06c4 43       		.uleb128 0x43
 4526 06c5 19       		.uleb128 0x19
 4527 06c6 5F6C6200 		.ascii	"_lb\000"
 4528 06ca 09       		.byte	0x9
 4529 06cb D7       		.byte	0xd7
 4530 06cc 9F050000 		.4byte	0x59f
 4531 06d0 02       		.byte	0x2
 4532 06d1 23       		.byte	0x23
ARM GAS  C:\Users\EBANO_~1\AppData\Local\Temp\ccyPWgHX.s 			page 121


 4533 06d2 44       		.uleb128 0x44
 4534 06d3 17       		.uleb128 0x17
 4535 06d4 2B0A0000 		.4byte	.LASF90
 4536 06d8 09       		.byte	0x9
 4537 06d9 DA       		.byte	0xda
 4538 06da 77000000 		.4byte	0x77
 4539 06de 02       		.byte	0x2
 4540 06df 23       		.byte	0x23
 4541 06e0 4C       		.uleb128 0x4c
 4542 06e1 17       		.uleb128 0x17
 4543 06e2 FF040000 		.4byte	.LASF91
 4544 06e6 09       		.byte	0x9
 4545 06e7 DB       		.byte	0xdb
 4546 06e8 4A030000 		.4byte	0x34a
 4547 06ec 02       		.byte	0x2
 4548 06ed 23       		.byte	0x23
 4549 06ee 50       		.uleb128 0x50
 4550 06ef 17       		.uleb128 0x17
 4551 06f0 030B0000 		.4byte	.LASF92
 4552 06f4 09       		.byte	0x9
 4553 06f5 DE       		.byte	0xde
 4554 06f6 47070000 		.4byte	0x747
 4555 06fa 02       		.byte	0x2
 4556 06fb 23       		.byte	0x23
 4557 06fc 54       		.uleb128 0x54
 4558 06fd 17       		.uleb128 0x17
 4559 06fe C4000000 		.4byte	.LASF93
 4560 0702 09       		.byte	0x9
 4561 0703 E2       		.byte	0xe2
 4562 0704 CB030000 		.4byte	0x3cb
 4563 0708 02       		.byte	0x2
 4564 0709 23       		.byte	0x23
 4565 070a 58       		.uleb128 0x58
 4566 070b 17       		.uleb128 0x17
 4567 070c 55080000 		.4byte	.LASF94
 4568 0710 09       		.byte	0x9
 4569 0711 E4       		.byte	0xe4
 4570 0712 C0030000 		.4byte	0x3c0
 4571 0716 02       		.byte	0x2
 4572 0717 23       		.byte	0x23
 4573 0718 5C       		.uleb128 0x5c
 4574 0719 17       		.uleb128 0x17
 4575 071a 7A050000 		.4byte	.LASF95
 4576 071e 09       		.byte	0x9
 4577 071f E5       		.byte	0xe5
 4578 0720 77000000 		.4byte	0x77
 4579 0724 02       		.byte	0x2
 4580 0725 23       		.byte	0x23
 4581 0726 64       		.uleb128 0x64
 4582 0727 00       		.byte	0
 4583 0728 1C       		.uleb128 0x1c
 4584 0729 01       		.byte	0x1
 4585 072a 77000000 		.4byte	0x77
 4586 072e 47070000 		.4byte	0x747
 4587 0732 1D       		.uleb128 0x1d
 4588 0733 47070000 		.4byte	0x747
 4589 0737 1D       		.uleb128 0x1d
ARM GAS  C:\Users\EBANO_~1\AppData\Local\Temp\ccyPWgHX.s 			page 122


 4590 0738 31030000 		.4byte	0x331
 4591 073c 1D       		.uleb128 0x1d
 4592 073d B0080000 		.4byte	0x8b0
 4593 0741 1D       		.uleb128 0x1d
 4594 0742 77000000 		.4byte	0x77
 4595 0746 00       		.byte	0
 4596 0747 12       		.uleb128 0x12
 4597 0748 04       		.byte	0x4
 4598 0749 52070000 		.4byte	0x752
 4599 074d 05       		.uleb128 0x5
 4600 074e 47070000 		.4byte	0x747
 4601 0752 1E       		.uleb128 0x1e
 4602 0753 13030000 		.4byte	.LASF96
 4603 0757 2804     		.2byte	0x428
 4604 0759 09       		.byte	0x9
 4605 075a 6002     		.2byte	0x260
 4606 075c B0080000 		.4byte	0x8b0
 4607 0760 0C       		.uleb128 0xc
 4608 0761 C2050000 		.4byte	.LASF97
 4609 0765 09       		.byte	0x9
 4610 0766 6202     		.2byte	0x262
 4611 0768 77000000 		.4byte	0x77
 4612 076c 02       		.byte	0x2
 4613 076d 23       		.byte	0x23
 4614 076e 00       		.uleb128 0
 4615 076f 0C       		.uleb128 0xc
 4616 0770 09040000 		.4byte	.LASF98
 4617 0774 09       		.byte	0x9
 4618 0775 6702     		.2byte	0x267
 4619 0777 A0090000 		.4byte	0x9a0
 4620 077b 02       		.byte	0x2
 4621 077c 23       		.byte	0x23
 4622 077d 04       		.uleb128 0x4
 4623 077e 0C       		.uleb128 0xc
 4624 077f 100A0000 		.4byte	.LASF99
 4625 0783 09       		.byte	0x9
 4626 0784 6702     		.2byte	0x267
 4627 0786 A0090000 		.4byte	0x9a0
 4628 078a 02       		.byte	0x2
 4629 078b 23       		.byte	0x23
 4630 078c 08       		.uleb128 0x8
 4631 078d 0C       		.uleb128 0xc
 4632 078e 28080000 		.4byte	.LASF100
 4633 0792 09       		.byte	0x9
 4634 0793 6702     		.2byte	0x267
 4635 0795 A0090000 		.4byte	0x9a0
 4636 0799 02       		.byte	0x2
 4637 079a 23       		.byte	0x23
 4638 079b 0C       		.uleb128 0xc
 4639 079c 0C       		.uleb128 0xc
 4640 079d 100D0000 		.4byte	.LASF101
 4641 07a1 09       		.byte	0x9
 4642 07a2 6902     		.2byte	0x269
 4643 07a4 77000000 		.4byte	0x77
 4644 07a8 02       		.byte	0x2
 4645 07a9 23       		.byte	0x23
 4646 07aa 10       		.uleb128 0x10
ARM GAS  C:\Users\EBANO_~1\AppData\Local\Temp\ccyPWgHX.s 			page 123


 4647 07ab 0C       		.uleb128 0xc
 4648 07ac 86060000 		.4byte	.LASF102
 4649 07b0 09       		.byte	0x9
 4650 07b1 6A02     		.2byte	0x26a
 4651 07b3 BB0B0000 		.4byte	0xbbb
 4652 07b7 02       		.byte	0x2
 4653 07b8 23       		.byte	0x23
 4654 07b9 14       		.uleb128 0x14
 4655 07ba 0C       		.uleb128 0xc
 4656 07bb FA020000 		.4byte	.LASF103
 4657 07bf 09       		.byte	0x9
 4658 07c0 6D02     		.2byte	0x26d
 4659 07c2 77000000 		.4byte	0x77
 4660 07c6 02       		.byte	0x2
 4661 07c7 23       		.byte	0x23
 4662 07c8 30       		.uleb128 0x30
 4663 07c9 0C       		.uleb128 0xc
 4664 07ca 470D0000 		.4byte	.LASF104
 4665 07ce 09       		.byte	0x9
 4666 07cf 6E02     		.2byte	0x26e
 4667 07d1 D10B0000 		.4byte	0xbd1
 4668 07d5 02       		.byte	0x2
 4669 07d6 23       		.byte	0x23
 4670 07d7 34       		.uleb128 0x34
 4671 07d8 0C       		.uleb128 0xc
 4672 07d9 6F050000 		.4byte	.LASF105
 4673 07dd 09       		.byte	0x9
 4674 07de 7002     		.2byte	0x270
 4675 07e0 77000000 		.4byte	0x77
 4676 07e4 02       		.byte	0x2
 4677 07e5 23       		.byte	0x23
 4678 07e6 38       		.uleb128 0x38
 4679 07e7 0C       		.uleb128 0xc
 4680 07e8 3C060000 		.4byte	.LASF106
 4681 07ec 09       		.byte	0x9
 4682 07ed 7202     		.2byte	0x272
 4683 07ef E30B0000 		.4byte	0xbe3
 4684 07f3 02       		.byte	0x2
 4685 07f4 23       		.byte	0x23
 4686 07f5 3C       		.uleb128 0x3c
 4687 07f6 0C       		.uleb128 0xc
 4688 07f7 6A0D0000 		.4byte	.LASF107
 4689 07fb 09       		.byte	0x9
 4690 07fc 7502     		.2byte	0x275
 4691 07fe 40040000 		.4byte	0x440
 4692 0802 02       		.byte	0x2
 4693 0803 23       		.byte	0x23
 4694 0804 40       		.uleb128 0x40
 4695 0805 0C       		.uleb128 0xc
 4696 0806 A2010000 		.4byte	.LASF108
 4697 080a 09       		.byte	0x9
 4698 080b 7602     		.2byte	0x276
 4699 080d 77000000 		.4byte	0x77
 4700 0811 02       		.byte	0x2
 4701 0812 23       		.byte	0x23
 4702 0813 44       		.uleb128 0x44
 4703 0814 0C       		.uleb128 0xc
ARM GAS  C:\Users\EBANO_~1\AppData\Local\Temp\ccyPWgHX.s 			page 124


 4704 0815 44050000 		.4byte	.LASF109
 4705 0819 09       		.byte	0x9
 4706 081a 7702     		.2byte	0x277
 4707 081c 40040000 		.4byte	0x440
 4708 0820 02       		.byte	0x2
 4709 0821 23       		.byte	0x23
 4710 0822 48       		.uleb128 0x48
 4711 0823 0C       		.uleb128 0xc
 4712 0824 6A070000 		.4byte	.LASF110
 4713 0828 09       		.byte	0x9
 4714 0829 7802     		.2byte	0x278
 4715 082b E90B0000 		.4byte	0xbe9
 4716 082f 02       		.byte	0x2
 4717 0830 23       		.byte	0x23
 4718 0831 4C       		.uleb128 0x4c
 4719 0832 0C       		.uleb128 0xc
 4720 0833 6C000000 		.4byte	.LASF111
 4721 0837 09       		.byte	0x9
 4722 0838 7B02     		.2byte	0x27b
 4723 083a 77000000 		.4byte	0x77
 4724 083e 02       		.byte	0x2
 4725 083f 23       		.byte	0x23
 4726 0840 50       		.uleb128 0x50
 4727 0841 0C       		.uleb128 0xc
 4728 0842 13050000 		.4byte	.LASF112
 4729 0846 09       		.byte	0x9
 4730 0847 7C02     		.2byte	0x27c
 4731 0849 B0080000 		.4byte	0x8b0
 4732 084d 02       		.byte	0x2
 4733 084e 23       		.byte	0x23
 4734 084f 54       		.uleb128 0x54
 4735 0850 0C       		.uleb128 0xc
 4736 0851 0B080000 		.4byte	.LASF113
 4737 0855 09       		.byte	0x9
 4738 0856 9F02     		.2byte	0x29f
 4739 0858 990B0000 		.4byte	0xb99
 4740 085c 02       		.byte	0x2
 4741 085d 23       		.byte	0x23
 4742 085e 58       		.uleb128 0x58
 4743 085f 0C       		.uleb128 0xc
 4744 0860 8F080000 		.4byte	.LASF73
 4745 0864 09       		.byte	0x9
 4746 0865 A302     		.2byte	0x2a3
 4747 0867 81050000 		.4byte	0x581
 4748 086b 03       		.byte	0x3
 4749 086c 23       		.byte	0x23
 4750 086d C802     		.uleb128 0x148
 4751 086f 0C       		.uleb128 0xc
 4752 0870 46060000 		.4byte	.LASF114
 4753 0874 09       		.byte	0x9
 4754 0875 A402     		.2byte	0x2a4
 4755 0877 3A050000 		.4byte	0x53a
 4756 087b 03       		.byte	0x3
 4757 087c 23       		.byte	0x23
 4758 087d CC02     		.uleb128 0x14c
 4759 087f 0C       		.uleb128 0xc
 4760 0880 BB040000 		.4byte	.LASF115
ARM GAS  C:\Users\EBANO_~1\AppData\Local\Temp\ccyPWgHX.s 			page 125


 4761 0884 09       		.byte	0x9
 4762 0885 A802     		.2byte	0x2a8
 4763 0887 FB0B0000 		.4byte	0xbfb
 4764 088b 03       		.byte	0x3
 4765 088c 23       		.byte	0x23
 4766 088d DC05     		.uleb128 0x2dc
 4767 088f 0C       		.uleb128 0xc
 4768 0890 E6060000 		.4byte	.LASF116
 4769 0894 09       		.byte	0x9
 4770 0895 AD02     		.2byte	0x2ad
 4771 0897 5F090000 		.4byte	0x95f
 4772 089b 03       		.byte	0x3
 4773 089c 23       		.byte	0x23
 4774 089d E005     		.uleb128 0x2e0
 4775 089f 0C       		.uleb128 0xc
 4776 08a0 18000000 		.4byte	.LASF117
 4777 08a4 09       		.byte	0x9
 4778 08a5 AF02     		.2byte	0x2af
 4779 08a7 070C0000 		.4byte	0xc07
 4780 08ab 03       		.byte	0x3
 4781 08ac 23       		.byte	0x23
 4782 08ad EC05     		.uleb128 0x2ec
 4783 08af 00       		.byte	0
 4784 08b0 12       		.uleb128 0x12
 4785 08b1 04       		.byte	0x4
 4786 08b2 B6080000 		.4byte	0x8b6
 4787 08b6 02       		.uleb128 0x2
 4788 08b7 01       		.byte	0x1
 4789 08b8 08       		.byte	0x8
 4790 08b9 79030000 		.4byte	.LASF118
 4791 08bd 05       		.uleb128 0x5
 4792 08be B6080000 		.4byte	0x8b6
 4793 08c2 12       		.uleb128 0x12
 4794 08c3 04       		.byte	0x4
 4795 08c4 28070000 		.4byte	0x728
 4796 08c8 1C       		.uleb128 0x1c
 4797 08c9 01       		.byte	0x1
 4798 08ca 77000000 		.4byte	0x77
 4799 08ce E7080000 		.4byte	0x8e7
 4800 08d2 1D       		.uleb128 0x1d
 4801 08d3 47070000 		.4byte	0x747
 4802 08d7 1D       		.uleb128 0x1d
 4803 08d8 31030000 		.4byte	0x331
 4804 08dc 1D       		.uleb128 0x1d
 4805 08dd E7080000 		.4byte	0x8e7
 4806 08e1 1D       		.uleb128 0x1d
 4807 08e2 77000000 		.4byte	0x77
 4808 08e6 00       		.byte	0
 4809 08e7 12       		.uleb128 0x12
 4810 08e8 04       		.byte	0x4
 4811 08e9 BD080000 		.4byte	0x8bd
 4812 08ed 12       		.uleb128 0x12
 4813 08ee 04       		.byte	0x4
 4814 08ef C8080000 		.4byte	0x8c8
 4815 08f3 1C       		.uleb128 0x1c
 4816 08f4 01       		.byte	0x1
 4817 08f5 55030000 		.4byte	0x355
ARM GAS  C:\Users\EBANO_~1\AppData\Local\Temp\ccyPWgHX.s 			page 126


 4818 08f9 12090000 		.4byte	0x912
 4819 08fd 1D       		.uleb128 0x1d
 4820 08fe 47070000 		.4byte	0x747
 4821 0902 1D       		.uleb128 0x1d
 4822 0903 31030000 		.4byte	0x331
 4823 0907 1D       		.uleb128 0x1d
 4824 0908 55030000 		.4byte	0x355
 4825 090c 1D       		.uleb128 0x1d
 4826 090d 77000000 		.4byte	0x77
 4827 0911 00       		.byte	0
 4828 0912 12       		.uleb128 0x12
 4829 0913 04       		.byte	0x4
 4830 0914 F3080000 		.4byte	0x8f3
 4831 0918 1C       		.uleb128 0x1c
 4832 0919 01       		.byte	0x1
 4833 091a 77000000 		.4byte	0x77
 4834 091e 2D090000 		.4byte	0x92d
 4835 0922 1D       		.uleb128 0x1d
 4836 0923 47070000 		.4byte	0x747
 4837 0927 1D       		.uleb128 0x1d
 4838 0928 31030000 		.4byte	0x331
 4839 092c 00       		.byte	0
 4840 092d 12       		.uleb128 0x12
 4841 092e 04       		.byte	0x4
 4842 092f 18090000 		.4byte	0x918
 4843 0933 08       		.uleb128 0x8
 4844 0934 3B000000 		.4byte	0x3b
 4845 0938 43090000 		.4byte	0x943
 4846 093c 09       		.uleb128 0x9
 4847 093d 7E000000 		.4byte	0x7e
 4848 0941 02       		.byte	0x2
 4849 0942 00       		.byte	0
 4850 0943 08       		.uleb128 0x8
 4851 0944 3B000000 		.4byte	0x3b
 4852 0948 53090000 		.4byte	0x953
 4853 094c 09       		.uleb128 0x9
 4854 094d 7E000000 		.4byte	0x7e
 4855 0951 00       		.byte	0
 4856 0952 00       		.byte	0
 4857 0953 0D       		.uleb128 0xd
 4858 0954 880A0000 		.4byte	.LASF119
 4859 0958 09       		.byte	0x9
 4860 0959 1F01     		.2byte	0x11f
 4861 095b CE050000 		.4byte	0x5ce
 4862 095f 1F       		.uleb128 0x1f
 4863 0960 7A070000 		.4byte	.LASF120
 4864 0964 0C       		.byte	0xc
 4865 0965 09       		.byte	0x9
 4866 0966 2301     		.2byte	0x123
 4867 0968 9A090000 		.4byte	0x99a
 4868 096c 0C       		.uleb128 0xc
 4869 096d F60A0000 		.4byte	.LASF53
 4870 0971 09       		.byte	0x9
 4871 0972 2501     		.2byte	0x125
 4872 0974 9A090000 		.4byte	0x99a
 4873 0978 02       		.byte	0x2
 4874 0979 23       		.byte	0x23
ARM GAS  C:\Users\EBANO_~1\AppData\Local\Temp\ccyPWgHX.s 			page 127


 4875 097a 00       		.uleb128 0
 4876 097b 0C       		.uleb128 0xc
 4877 097c DF060000 		.4byte	.LASF121
 4878 0980 09       		.byte	0x9
 4879 0981 2601     		.2byte	0x126
 4880 0983 77000000 		.4byte	0x77
 4881 0987 02       		.byte	0x2
 4882 0988 23       		.byte	0x23
 4883 0989 04       		.uleb128 0x4
 4884 098a 0C       		.uleb128 0xc
 4885 098b 74070000 		.4byte	.LASF122
 4886 098f 09       		.byte	0x9
 4887 0990 2701     		.2byte	0x127
 4888 0992 A0090000 		.4byte	0x9a0
 4889 0996 02       		.byte	0x2
 4890 0997 23       		.byte	0x23
 4891 0998 08       		.uleb128 0x8
 4892 0999 00       		.byte	0
 4893 099a 12       		.uleb128 0x12
 4894 099b 04       		.byte	0x4
 4895 099c 5F090000 		.4byte	0x95f
 4896 09a0 12       		.uleb128 0x12
 4897 09a1 04       		.byte	0x4
 4898 09a2 53090000 		.4byte	0x953
 4899 09a6 1F       		.uleb128 0x1f
 4900 09a7 FE090000 		.4byte	.LASF123
 4901 09ab 0E       		.byte	0xe
 4902 09ac 09       		.byte	0x9
 4903 09ad 3F01     		.2byte	0x13f
 4904 09af E1090000 		.4byte	0x9e1
 4905 09b3 0C       		.uleb128 0xc
 4906 09b4 41090000 		.4byte	.LASF124
 4907 09b8 09       		.byte	0x9
 4908 09b9 4001     		.2byte	0x140
 4909 09bb E1090000 		.4byte	0x9e1
 4910 09bf 02       		.byte	0x2
 4911 09c0 23       		.byte	0x23
 4912 09c1 00       		.uleb128 0
 4913 09c2 0C       		.uleb128 0xc
 4914 09c3 D5000000 		.4byte	.LASF125
 4915 09c7 09       		.byte	0x9
 4916 09c8 4101     		.2byte	0x141
 4917 09ca E1090000 		.4byte	0x9e1
 4918 09ce 02       		.byte	0x2
 4919 09cf 23       		.byte	0x23
 4920 09d0 06       		.uleb128 0x6
 4921 09d1 0C       		.uleb128 0xc
 4922 09d2 8B0D0000 		.4byte	.LASF126
 4923 09d6 09       		.byte	0x9
 4924 09d7 4201     		.2byte	0x142
 4925 09d9 49000000 		.4byte	0x49
 4926 09dd 02       		.byte	0x2
 4927 09de 23       		.byte	0x23
 4928 09df 0C       		.uleb128 0xc
 4929 09e0 00       		.byte	0
 4930 09e1 08       		.uleb128 0x8
 4931 09e2 49000000 		.4byte	0x49
ARM GAS  C:\Users\EBANO_~1\AppData\Local\Temp\ccyPWgHX.s 			page 128


 4932 09e6 F1090000 		.4byte	0x9f1
 4933 09ea 09       		.uleb128 0x9
 4934 09eb 7E000000 		.4byte	0x7e
 4935 09ef 02       		.byte	0x2
 4936 09f0 00       		.byte	0
 4937 09f1 0A       		.uleb128 0xa
 4938 09f2 D0       		.byte	0xd0
 4939 09f3 09       		.byte	0x9
 4940 09f4 8002     		.2byte	0x280
 4941 09f6 210B0000 		.4byte	0xb21
 4942 09fa 0C       		.uleb128 0xc
 4943 09fb 62020000 		.4byte	.LASF127
 4944 09ff 09       		.byte	0x9
 4945 0a00 8202     		.2byte	0x282
 4946 0a02 7E000000 		.4byte	0x7e
 4947 0a06 02       		.byte	0x2
 4948 0a07 23       		.byte	0x23
 4949 0a08 00       		.uleb128 0
 4950 0a09 0C       		.uleb128 0xc
 4951 0a0a 5D0A0000 		.4byte	.LASF128
 4952 0a0e 09       		.byte	0x9
 4953 0a0f 8302     		.2byte	0x283
 4954 0a11 B0080000 		.4byte	0x8b0
 4955 0a15 02       		.byte	0x2
 4956 0a16 23       		.byte	0x23
 4957 0a17 04       		.uleb128 0x4
 4958 0a18 0C       		.uleb128 0xc
 4959 0a19 5F000000 		.4byte	.LASF129
 4960 0a1d 09       		.byte	0x9
 4961 0a1e 8402     		.2byte	0x284
 4962 0a20 210B0000 		.4byte	0xb21
 4963 0a24 02       		.byte	0x2
 4964 0a25 23       		.byte	0x23
 4965 0a26 08       		.uleb128 0x8
 4966 0a27 0C       		.uleb128 0xc
 4967 0a28 B2010000 		.4byte	.LASF130
 4968 0a2c 09       		.byte	0x9
 4969 0a2d 8502     		.2byte	0x285
 4970 0a2f 56040000 		.4byte	0x456
 4971 0a33 02       		.byte	0x2
 4972 0a34 23       		.byte	0x23
 4973 0a35 24       		.uleb128 0x24
 4974 0a36 0C       		.uleb128 0xc
 4975 0a37 15070000 		.4byte	.LASF131
 4976 0a3b 09       		.byte	0x9
 4977 0a3c 8602     		.2byte	0x286
 4978 0a3e 77000000 		.4byte	0x77
 4979 0a42 02       		.byte	0x2
 4980 0a43 23       		.byte	0x23
 4981 0a44 48       		.uleb128 0x48
 4982 0a45 0C       		.uleb128 0xc
 4983 0a46 5E080000 		.4byte	.LASF132
 4984 0a4a 09       		.byte	0x9
 4985 0a4b 8702     		.2byte	0x287
 4986 0a4d 70000000 		.4byte	0x70
 4987 0a51 02       		.byte	0x2
 4988 0a52 23       		.byte	0x23
ARM GAS  C:\Users\EBANO_~1\AppData\Local\Temp\ccyPWgHX.s 			page 129


 4989 0a53 50       		.uleb128 0x50
 4990 0a54 0C       		.uleb128 0xc
 4991 0a55 BF0A0000 		.4byte	.LASF133
 4992 0a59 09       		.byte	0x9
 4993 0a5a 8802     		.2byte	0x288
 4994 0a5c A6090000 		.4byte	0x9a6
 4995 0a60 02       		.byte	0x2
 4996 0a61 23       		.byte	0x23
 4997 0a62 58       		.uleb128 0x58
 4998 0a63 0C       		.uleb128 0xc
 4999 0a64 CC0B0000 		.4byte	.LASF134
 5000 0a68 09       		.byte	0x9
 5001 0a69 8902     		.2byte	0x289
 5002 0a6b C0030000 		.4byte	0x3c0
 5003 0a6f 02       		.byte	0x2
 5004 0a70 23       		.byte	0x23
 5005 0a71 68       		.uleb128 0x68
 5006 0a72 0C       		.uleb128 0xc
 5007 0a73 7E090000 		.4byte	.LASF135
 5008 0a77 09       		.byte	0x9
 5009 0a78 8A02     		.2byte	0x28a
 5010 0a7a C0030000 		.4byte	0x3c0
 5011 0a7e 02       		.byte	0x2
 5012 0a7f 23       		.byte	0x23
 5013 0a80 70       		.uleb128 0x70
 5014 0a81 0C       		.uleb128 0xc
 5015 0a82 47080000 		.4byte	.LASF136
 5016 0a86 09       		.byte	0x9
 5017 0a87 8B02     		.2byte	0x28b
 5018 0a89 C0030000 		.4byte	0x3c0
 5019 0a8d 02       		.byte	0x2
 5020 0a8e 23       		.byte	0x23
 5021 0a8f 78       		.uleb128 0x78
 5022 0a90 0C       		.uleb128 0xc
 5023 0a91 B4000000 		.4byte	.LASF137
 5024 0a95 09       		.byte	0x9
 5025 0a96 8C02     		.2byte	0x28c
 5026 0a98 310B0000 		.4byte	0xb31
 5027 0a9c 03       		.byte	0x3
 5028 0a9d 23       		.byte	0x23
 5029 0a9e 8001     		.uleb128 0x80
 5030 0aa0 0C       		.uleb128 0xc
 5031 0aa1 E8050000 		.4byte	.LASF138
 5032 0aa5 09       		.byte	0x9
 5033 0aa6 8D02     		.2byte	0x28d
 5034 0aa8 410B0000 		.4byte	0xb41
 5035 0aac 03       		.byte	0x3
 5036 0aad 23       		.byte	0x23
 5037 0aae 8801     		.uleb128 0x88
 5038 0ab0 0C       		.uleb128 0xc
 5039 0ab1 5A0E0000 		.4byte	.LASF139
 5040 0ab5 09       		.byte	0x9
 5041 0ab6 8E02     		.2byte	0x28e
 5042 0ab8 77000000 		.4byte	0x77
 5043 0abc 03       		.byte	0x3
 5044 0abd 23       		.byte	0x23
 5045 0abe A001     		.uleb128 0xa0
ARM GAS  C:\Users\EBANO_~1\AppData\Local\Temp\ccyPWgHX.s 			page 130


 5046 0ac0 0C       		.uleb128 0xc
 5047 0ac1 7F010000 		.4byte	.LASF140
 5048 0ac5 09       		.byte	0x9
 5049 0ac6 8F02     		.2byte	0x28f
 5050 0ac8 C0030000 		.4byte	0x3c0
 5051 0acc 03       		.byte	0x3
 5052 0acd 23       		.byte	0x23
 5053 0ace A401     		.uleb128 0xa4
 5054 0ad0 0C       		.uleb128 0xc
 5055 0ad1 6A0A0000 		.4byte	.LASF141
 5056 0ad5 09       		.byte	0x9
 5057 0ad6 9002     		.2byte	0x290
 5058 0ad8 C0030000 		.4byte	0x3c0
 5059 0adc 03       		.byte	0x3
 5060 0add 23       		.byte	0x23
 5061 0ade AC01     		.uleb128 0xac
 5062 0ae0 0C       		.uleb128 0xc
 5063 0ae1 BE0D0000 		.4byte	.LASF142
 5064 0ae5 09       		.byte	0x9
 5065 0ae6 9102     		.2byte	0x291
 5066 0ae8 C0030000 		.4byte	0x3c0
 5067 0aec 03       		.byte	0x3
 5068 0aed 23       		.byte	0x23
 5069 0aee B401     		.uleb128 0xb4
 5070 0af0 0C       		.uleb128 0xc
 5071 0af1 F2070000 		.4byte	.LASF143
 5072 0af5 09       		.byte	0x9
 5073 0af6 9202     		.2byte	0x292
 5074 0af8 C0030000 		.4byte	0x3c0
 5075 0afc 03       		.byte	0x3
 5076 0afd 23       		.byte	0x23
 5077 0afe BC01     		.uleb128 0xbc
 5078 0b00 0C       		.uleb128 0xc
 5079 0b01 94000000 		.4byte	.LASF144
 5080 0b05 09       		.byte	0x9
 5081 0b06 9302     		.2byte	0x293
 5082 0b08 C0030000 		.4byte	0x3c0
 5083 0b0c 03       		.byte	0x3
 5084 0b0d 23       		.byte	0x23
 5085 0b0e C401     		.uleb128 0xc4
 5086 0b10 0C       		.uleb128 0xc
 5087 0b11 CA070000 		.4byte	.LASF145
 5088 0b15 09       		.byte	0x9
 5089 0b16 9402     		.2byte	0x294
 5090 0b18 77000000 		.4byte	0x77
 5091 0b1c 03       		.byte	0x3
 5092 0b1d 23       		.byte	0x23
 5093 0b1e CC01     		.uleb128 0xcc
 5094 0b20 00       		.byte	0
 5095 0b21 08       		.uleb128 0x8
 5096 0b22 B6080000 		.4byte	0x8b6
 5097 0b26 310B0000 		.4byte	0xb31
 5098 0b2a 09       		.uleb128 0x9
 5099 0b2b 7E000000 		.4byte	0x7e
 5100 0b2f 19       		.byte	0x19
 5101 0b30 00       		.byte	0
 5102 0b31 08       		.uleb128 0x8
ARM GAS  C:\Users\EBANO_~1\AppData\Local\Temp\ccyPWgHX.s 			page 131


 5103 0b32 B6080000 		.4byte	0x8b6
 5104 0b36 410B0000 		.4byte	0xb41
 5105 0b3a 09       		.uleb128 0x9
 5106 0b3b 7E000000 		.4byte	0x7e
 5107 0b3f 07       		.byte	0x7
 5108 0b40 00       		.byte	0
 5109 0b41 08       		.uleb128 0x8
 5110 0b42 B6080000 		.4byte	0x8b6
 5111 0b46 510B0000 		.4byte	0xb51
 5112 0b4a 09       		.uleb128 0x9
 5113 0b4b 7E000000 		.4byte	0x7e
 5114 0b4f 17       		.byte	0x17
 5115 0b50 00       		.byte	0
 5116 0b51 0A       		.uleb128 0xa
 5117 0b52 F0       		.byte	0xf0
 5118 0b53 09       		.byte	0x9
 5119 0b54 9902     		.2byte	0x299
 5120 0b56 790B0000 		.4byte	0xb79
 5121 0b5a 0C       		.uleb128 0xc
 5122 0b5b 400D0000 		.4byte	.LASF146
 5123 0b5f 09       		.byte	0x9
 5124 0b60 9C02     		.2byte	0x29c
 5125 0b62 790B0000 		.4byte	0xb79
 5126 0b66 02       		.byte	0x2
 5127 0b67 23       		.byte	0x23
 5128 0b68 00       		.uleb128 0
 5129 0b69 0C       		.uleb128 0xc
 5130 0b6a 0C070000 		.4byte	.LASF147
 5131 0b6e 09       		.byte	0x9
 5132 0b6f 9D02     		.2byte	0x29d
 5133 0b71 890B0000 		.4byte	0xb89
 5134 0b75 02       		.byte	0x2
 5135 0b76 23       		.byte	0x23
 5136 0b77 78       		.uleb128 0x78
 5137 0b78 00       		.byte	0
 5138 0b79 08       		.uleb128 0x8
 5139 0b7a C8050000 		.4byte	0x5c8
 5140 0b7e 890B0000 		.4byte	0xb89
 5141 0b82 09       		.uleb128 0x9
 5142 0b83 7E000000 		.4byte	0x7e
 5143 0b87 1D       		.byte	0x1d
 5144 0b88 00       		.byte	0
 5145 0b89 08       		.uleb128 0x8
 5146 0b8a 7E000000 		.4byte	0x7e
 5147 0b8e 990B0000 		.4byte	0xb99
 5148 0b92 09       		.uleb128 0x9
 5149 0b93 7E000000 		.4byte	0x7e
 5150 0b97 1D       		.byte	0x1d
 5151 0b98 00       		.byte	0
 5152 0b99 20       		.uleb128 0x20
 5153 0b9a F0       		.byte	0xf0
 5154 0b9b 09       		.byte	0x9
 5155 0b9c 7E02     		.2byte	0x27e
 5156 0b9e BB0B0000 		.4byte	0xbbb
 5157 0ba2 21       		.uleb128 0x21
 5158 0ba3 13030000 		.4byte	.LASF96
 5159 0ba7 09       		.byte	0x9
ARM GAS  C:\Users\EBANO_~1\AppData\Local\Temp\ccyPWgHX.s 			page 132


 5160 0ba8 9502     		.2byte	0x295
 5161 0baa F1090000 		.4byte	0x9f1
 5162 0bae 21       		.uleb128 0x21
 5163 0baf 87000000 		.4byte	.LASF148
 5164 0bb3 09       		.byte	0x9
 5165 0bb4 9E02     		.2byte	0x29e
 5166 0bb6 510B0000 		.4byte	0xb51
 5167 0bba 00       		.byte	0
 5168 0bbb 08       		.uleb128 0x8
 5169 0bbc B6080000 		.4byte	0x8b6
 5170 0bc0 CB0B0000 		.4byte	0xbcb
 5171 0bc4 09       		.uleb128 0x9
 5172 0bc5 7E000000 		.4byte	0x7e
 5173 0bc9 18       		.byte	0x18
 5174 0bca 00       		.byte	0
 5175 0bcb 13       		.uleb128 0x13
 5176 0bcc 00000000 		.4byte	.LASF150
 5177 0bd0 01       		.byte	0x1
 5178 0bd1 12       		.uleb128 0x12
 5179 0bd2 04       		.byte	0x4
 5180 0bd3 CB0B0000 		.4byte	0xbcb
 5181 0bd7 22       		.uleb128 0x22
 5182 0bd8 01       		.byte	0x1
 5183 0bd9 E30B0000 		.4byte	0xbe3
 5184 0bdd 1D       		.uleb128 0x1d
 5185 0bde 47070000 		.4byte	0x747
 5186 0be2 00       		.byte	0
 5187 0be3 12       		.uleb128 0x12
 5188 0be4 04       		.byte	0x4
 5189 0be5 D70B0000 		.4byte	0xbd7
 5190 0be9 12       		.uleb128 0x12
 5191 0bea 04       		.byte	0x4
 5192 0beb 40040000 		.4byte	0x440
 5193 0bef 22       		.uleb128 0x22
 5194 0bf0 01       		.byte	0x1
 5195 0bf1 FB0B0000 		.4byte	0xbfb
 5196 0bf5 1D       		.uleb128 0x1d
 5197 0bf6 77000000 		.4byte	0x77
 5198 0bfa 00       		.byte	0
 5199 0bfb 12       		.uleb128 0x12
 5200 0bfc 04       		.byte	0x4
 5201 0bfd 010C0000 		.4byte	0xc01
 5202 0c01 12       		.uleb128 0x12
 5203 0c02 04       		.byte	0x4
 5204 0c03 EF0B0000 		.4byte	0xbef
 5205 0c07 08       		.uleb128 0x8
 5206 0c08 53090000 		.4byte	0x953
 5207 0c0c 170C0000 		.4byte	0xc17
 5208 0c10 09       		.uleb128 0x9
 5209 0c11 7E000000 		.4byte	0x7e
 5210 0c15 02       		.byte	0x2
 5211 0c16 00       		.byte	0
 5212 0c17 23       		.uleb128 0x23
 5213 0c18 96010000 		.4byte	.LASF151
 5214 0c1c 09       		.byte	0x9
 5215 0c1d 2E03     		.2byte	0x32e
 5216 0c1f 47070000 		.4byte	0x747
ARM GAS  C:\Users\EBANO_~1\AppData\Local\Temp\ccyPWgHX.s 			page 133


 5217 0c23 01       		.byte	0x1
 5218 0c24 01       		.byte	0x1
 5219 0c25 23       		.uleb128 0x23
 5220 0c26 1A030000 		.4byte	.LASF152
 5221 0c2a 09       		.byte	0x9
 5222 0c2b 2F03     		.2byte	0x32f
 5223 0c2d 4D070000 		.4byte	0x74d
 5224 0c31 01       		.byte	0x1
 5225 0c32 01       		.byte	0x1
 5226 0c33 0E       		.uleb128 0xe
 5227 0c34 07       		.byte	0x7
 5228 0c35 01       		.byte	0x1
 5229 0c36 3B000000 		.4byte	0x3b
 5230 0c3a 0B       		.byte	0xb
 5231 0c3b 38       		.byte	0x38
 5232 0c3c 590C0000 		.4byte	0xc59
 5233 0c40 0F       		.uleb128 0xf
 5234 0c41 A2020000 		.4byte	.LASF153
 5235 0c45 00       		.byte	0
 5236 0c46 0F       		.uleb128 0xf
 5237 0c47 060A0000 		.4byte	.LASF154
 5238 0c4b 01       		.byte	0x1
 5239 0c4c 0F       		.uleb128 0xf
 5240 0c4d B8080000 		.4byte	.LASF155
 5241 0c51 02       		.byte	0x2
 5242 0c52 0F       		.uleb128 0xf
 5243 0c53 900D0000 		.4byte	.LASF156
 5244 0c57 03       		.byte	0x3
 5245 0c58 00       		.byte	0
 5246 0c59 03       		.uleb128 0x3
 5247 0c5a 1D000000 		.4byte	.LASF157
 5248 0c5e 0B       		.byte	0xb
 5249 0c5f 3D       		.byte	0x3d
 5250 0c60 330C0000 		.4byte	0xc33
 5251 0c64 0E       		.uleb128 0xe
 5252 0c65 07       		.byte	0x7
 5253 0c66 01       		.byte	0x1
 5254 0c67 3B000000 		.4byte	0x3b
 5255 0c6b 0B       		.byte	0xb
 5256 0c6c 43       		.byte	0x43
 5257 0c6d 7E0C0000 		.4byte	0xc7e
 5258 0c71 0F       		.uleb128 0xf
 5259 0c72 1E0A0000 		.4byte	.LASF158
 5260 0c76 00       		.byte	0
 5261 0c77 0F       		.uleb128 0xf
 5262 0c78 800D0000 		.4byte	.LASF159
 5263 0c7c 01       		.byte	0x1
 5264 0c7d 00       		.byte	0
 5265 0c7e 03       		.uleb128 0x3
 5266 0c7f 00020000 		.4byte	.LASF160
 5267 0c83 0B       		.byte	0xb
 5268 0c84 46       		.byte	0x46
 5269 0c85 640C0000 		.4byte	0xc64
 5270 0c89 0E       		.uleb128 0xe
 5271 0c8a 07       		.byte	0x7
 5272 0c8b 01       		.byte	0x1
 5273 0c8c 3B000000 		.4byte	0x3b
ARM GAS  C:\Users\EBANO_~1\AppData\Local\Temp\ccyPWgHX.s 			page 134


 5274 0c90 0C       		.byte	0xc
 5275 0c91 40       		.byte	0x40
 5276 0c92 B50C0000 		.4byte	0xcb5
 5277 0c96 0F       		.uleb128 0xf
 5278 0c97 EF000000 		.4byte	.LASF161
 5279 0c9b 00       		.byte	0
 5280 0c9c 0F       		.uleb128 0xf
 5281 0c9d D4050000 		.4byte	.LASF162
 5282 0ca1 01       		.byte	0x1
 5283 0ca2 0F       		.uleb128 0xf
 5284 0ca3 74000000 		.4byte	.LASF163
 5285 0ca7 02       		.byte	0x2
 5286 0ca8 0F       		.uleb128 0xf
 5287 0ca9 8B070000 		.4byte	.LASF164
 5288 0cad 03       		.byte	0x3
 5289 0cae 0F       		.uleb128 0xf
 5290 0caf 340A0000 		.4byte	.LASF165
 5291 0cb3 04       		.byte	0x4
 5292 0cb4 00       		.byte	0
 5293 0cb5 03       		.uleb128 0x3
 5294 0cb6 A6060000 		.4byte	.LASF166
 5295 0cba 0C       		.byte	0xc
 5296 0cbb 47       		.byte	0x47
 5297 0cbc 890C0000 		.4byte	0xc89
 5298 0cc0 06       		.uleb128 0x6
 5299 0cc1 B50C0000 		.4byte	0xcb5
 5300 0cc5 16       		.uleb128 0x16
 5301 0cc6 1C       		.byte	0x1c
 5302 0cc7 0C       		.byte	0xc
 5303 0cc8 4C       		.byte	0x4c
 5304 0cc9 300D0000 		.4byte	0xd30
 5305 0ccd 17       		.uleb128 0x17
 5306 0cce 5B040000 		.4byte	.LASF167
 5307 0cd2 0C       		.byte	0xc
 5308 0cd3 4E       		.byte	0x4e
 5309 0cd4 95000000 		.4byte	0x95
 5310 0cd8 02       		.byte	0x2
 5311 0cd9 23       		.byte	0x23
 5312 0cda 00       		.uleb128 0
 5313 0cdb 17       		.uleb128 0x17
 5314 0cdc 9C040000 		.4byte	.LASF168
 5315 0ce0 0C       		.byte	0xc
 5316 0ce1 51       		.byte	0x51
 5317 0ce2 95000000 		.4byte	0x95
 5318 0ce6 02       		.byte	0x2
 5319 0ce7 23       		.byte	0x23
 5320 0ce8 04       		.uleb128 0x4
 5321 0ce9 17       		.uleb128 0x17
 5322 0cea 8A030000 		.4byte	.LASF169
 5323 0cee 0C       		.byte	0xc
 5324 0cef 54       		.byte	0x54
 5325 0cf0 95000000 		.4byte	0x95
 5326 0cf4 02       		.byte	0x2
 5327 0cf5 23       		.byte	0x23
 5328 0cf6 08       		.uleb128 0x8
 5329 0cf7 17       		.uleb128 0x17
 5330 0cf8 390D0000 		.4byte	.LASF170
ARM GAS  C:\Users\EBANO_~1\AppData\Local\Temp\ccyPWgHX.s 			page 135


 5331 0cfc 0C       		.byte	0xc
 5332 0cfd 57       		.byte	0x57
 5333 0cfe 95000000 		.4byte	0x95
 5334 0d02 02       		.byte	0x2
 5335 0d03 23       		.byte	0x23
 5336 0d04 0C       		.uleb128 0xc
 5337 0d05 17       		.uleb128 0x17
 5338 0d06 AE070000 		.4byte	.LASF171
 5339 0d0a 0C       		.byte	0xc
 5340 0d0b 5A       		.byte	0x5a
 5341 0d0c 95000000 		.4byte	0x95
 5342 0d10 02       		.byte	0x2
 5343 0d11 23       		.byte	0x23
 5344 0d12 10       		.uleb128 0x10
 5345 0d13 17       		.uleb128 0x17
 5346 0d14 480A0000 		.4byte	.LASF172
 5347 0d18 0C       		.byte	0xc
 5348 0d19 5D       		.byte	0x5d
 5349 0d1a 95000000 		.4byte	0x95
 5350 0d1e 02       		.byte	0x2
 5351 0d1f 23       		.byte	0x23
 5352 0d20 14       		.uleb128 0x14
 5353 0d21 17       		.uleb128 0x17
 5354 0d22 E70C0000 		.4byte	.LASF173
 5355 0d26 0C       		.byte	0xc
 5356 0d27 60       		.byte	0x60
 5357 0d28 95000000 		.4byte	0x95
 5358 0d2c 02       		.byte	0x2
 5359 0d2d 23       		.byte	0x23
 5360 0d2e 18       		.uleb128 0x18
 5361 0d2f 00       		.byte	0
 5362 0d30 03       		.uleb128 0x3
 5363 0d31 4B040000 		.4byte	.LASF174
 5364 0d35 0C       		.byte	0xc
 5365 0d36 62       		.byte	0x62
 5366 0d37 C50C0000 		.4byte	0xcc5
 5367 0d3b 16       		.uleb128 0x16
 5368 0d3c 14       		.byte	0x14
 5369 0d3d 0C       		.byte	0xc
 5370 0d3e 67       		.byte	0x67
 5371 0d3f B40D0000 		.4byte	0xdb4
 5372 0d43 17       		.uleb128 0x17
 5373 0d44 010D0000 		.4byte	.LASF175
 5374 0d48 0C       		.byte	0xc
 5375 0d49 69       		.byte	0x69
 5376 0d4a 85000000 		.4byte	0x85
 5377 0d4e 02       		.byte	0x2
 5378 0d4f 23       		.byte	0x23
 5379 0d50 00       		.uleb128 0
 5380 0d51 17       		.uleb128 0x17
 5381 0d52 7E040000 		.4byte	.LASF176
 5382 0d56 0C       		.byte	0xc
 5383 0d57 6D       		.byte	0x6d
 5384 0d58 85000000 		.4byte	0x85
 5385 0d5c 02       		.byte	0x2
 5386 0d5d 23       		.byte	0x23
 5387 0d5e 01       		.uleb128 0x1
ARM GAS  C:\Users\EBANO_~1\AppData\Local\Temp\ccyPWgHX.s 			page 136


 5388 0d5f 17       		.uleb128 0x17
 5389 0d60 43040000 		.4byte	.LASF177
 5390 0d64 0C       		.byte	0xc
 5391 0d65 70       		.byte	0x70
 5392 0d66 85000000 		.4byte	0x85
 5393 0d6a 02       		.byte	0x2
 5394 0d6b 23       		.byte	0x23
 5395 0d6c 02       		.uleb128 0x2
 5396 0d6d 17       		.uleb128 0x17
 5397 0d6e 1E010000 		.4byte	.LASF178
 5398 0d72 0C       		.byte	0xc
 5399 0d73 73       		.byte	0x73
 5400 0d74 85000000 		.4byte	0x85
 5401 0d78 02       		.byte	0x2
 5402 0d79 23       		.byte	0x23
 5403 0d7a 03       		.uleb128 0x3
 5404 0d7b 17       		.uleb128 0x17
 5405 0d7c B0040000 		.4byte	.LASF179
 5406 0d80 0C       		.byte	0xc
 5407 0d81 76       		.byte	0x76
 5408 0d82 95000000 		.4byte	0x95
 5409 0d86 02       		.byte	0x2
 5410 0d87 23       		.byte	0x23
 5411 0d88 04       		.uleb128 0x4
 5412 0d89 17       		.uleb128 0x17
 5413 0d8a 97050000 		.4byte	.LASF180
 5414 0d8e 0C       		.byte	0xc
 5415 0d8f 7A       		.byte	0x7a
 5416 0d90 95000000 		.4byte	0x95
 5417 0d94 02       		.byte	0x2
 5418 0d95 23       		.byte	0x23
 5419 0d96 08       		.uleb128 0x8
 5420 0d97 17       		.uleb128 0x17
 5421 0d98 510B0000 		.4byte	.LASF181
 5422 0d9c 0C       		.byte	0xc
 5423 0d9d 80       		.byte	0x80
 5424 0d9e 95000000 		.4byte	0x95
 5425 0da2 02       		.byte	0x2
 5426 0da3 23       		.byte	0x23
 5427 0da4 0C       		.uleb128 0xc
 5428 0da5 17       		.uleb128 0x17
 5429 0da6 52010000 		.4byte	.LASF182
 5430 0daa 0C       		.byte	0xc
 5431 0dab 83       		.byte	0x83
 5432 0dac 95000000 		.4byte	0x95
 5433 0db0 02       		.byte	0x2
 5434 0db1 23       		.byte	0x23
 5435 0db2 10       		.uleb128 0x10
 5436 0db3 00       		.byte	0
 5437 0db4 03       		.uleb128 0x3
 5438 0db5 BA070000 		.4byte	.LASF183
 5439 0db9 0C       		.byte	0xc
 5440 0dba 86       		.byte	0x86
 5441 0dbb 3B0D0000 		.4byte	0xd3b
 5442 0dbf 16       		.uleb128 0x16
 5443 0dc0 04       		.byte	0x4
 5444 0dc1 0C       		.byte	0xc
ARM GAS  C:\Users\EBANO_~1\AppData\Local\Temp\ccyPWgHX.s 			page 137


 5445 0dc2 8B       		.byte	0x8b
 5446 0dc3 000E0000 		.4byte	0xe00
 5447 0dc7 17       		.uleb128 0x17
 5448 0dc8 97080000 		.4byte	.LASF184
 5449 0dcc 0C       		.byte	0xc
 5450 0dcd 8D       		.byte	0x8d
 5451 0dce 85000000 		.4byte	0x85
 5452 0dd2 02       		.byte	0x2
 5453 0dd3 23       		.byte	0x23
 5454 0dd4 00       		.uleb128 0
 5455 0dd5 17       		.uleb128 0x17
 5456 0dd6 790A0000 		.4byte	.LASF185
 5457 0dda 0C       		.byte	0xc
 5458 0ddb 90       		.byte	0x90
 5459 0ddc 85000000 		.4byte	0x85
 5460 0de0 02       		.byte	0x2
 5461 0de1 23       		.byte	0x23
 5462 0de2 01       		.uleb128 0x1
 5463 0de3 17       		.uleb128 0x17
 5464 0de4 D90B0000 		.4byte	.LASF186
 5465 0de8 0C       		.byte	0xc
 5466 0de9 93       		.byte	0x93
 5467 0dea 85000000 		.4byte	0x85
 5468 0dee 02       		.byte	0x2
 5469 0def 23       		.byte	0x23
 5470 0df0 02       		.uleb128 0x2
 5471 0df1 17       		.uleb128 0x17
 5472 0df2 9F080000 		.4byte	.LASF187
 5473 0df6 0C       		.byte	0xc
 5474 0df7 96       		.byte	0x96
 5475 0df8 85000000 		.4byte	0x85
 5476 0dfc 02       		.byte	0x2
 5477 0dfd 23       		.byte	0x23
 5478 0dfe 03       		.uleb128 0x3
 5479 0dff 00       		.byte	0
 5480 0e00 03       		.uleb128 0x3
 5481 0e01 670E0000 		.4byte	.LASF188
 5482 0e05 0C       		.byte	0xc
 5483 0e06 99       		.byte	0x99
 5484 0e07 BF0D0000 		.4byte	0xdbf
 5485 0e0b 16       		.uleb128 0x16
 5486 0e0c 24       		.byte	0x24
 5487 0e0d 0C       		.byte	0xc
 5488 0e0e B6       		.byte	0xb6
 5489 0e0f 4C0E0000 		.4byte	0xe4c
 5490 0e13 17       		.uleb128 0x17
 5491 0e14 3B050000 		.4byte	.LASF189
 5492 0e18 0C       		.byte	0xc
 5493 0e19 B8       		.byte	0xb8
 5494 0e1a 4C0E0000 		.4byte	0xe4c
 5495 0e1e 02       		.byte	0x2
 5496 0e1f 23       		.byte	0x23
 5497 0e20 00       		.uleb128 0
 5498 0e21 17       		.uleb128 0x17
 5499 0e22 8A080000 		.4byte	.LASF190
 5500 0e26 0C       		.byte	0xc
 5501 0e27 BA       		.byte	0xba
ARM GAS  C:\Users\EBANO_~1\AppData\Local\Temp\ccyPWgHX.s 			page 138


 5502 0e28 300D0000 		.4byte	0xd30
 5503 0e2c 02       		.byte	0x2
 5504 0e2d 23       		.byte	0x23
 5505 0e2e 04       		.uleb128 0x4
 5506 0e2f 17       		.uleb128 0x17
 5507 0e30 2F010000 		.4byte	.LASF191
 5508 0e34 0C       		.byte	0xc
 5509 0e35 BC       		.byte	0xbc
 5510 0e36 7E0C0000 		.4byte	0xc7e
 5511 0e3a 02       		.byte	0x2
 5512 0e3b 23       		.byte	0x23
 5513 0e3c 20       		.uleb128 0x20
 5514 0e3d 17       		.uleb128 0x17
 5515 0e3e 180A0000 		.4byte	.LASF192
 5516 0e42 0C       		.byte	0xc
 5517 0e43 BE       		.byte	0xbe
 5518 0e44 C00C0000 		.4byte	0xcc0
 5519 0e48 02       		.byte	0x2
 5520 0e49 23       		.byte	0x23
 5521 0e4a 21       		.uleb128 0x21
 5522 0e4b 00       		.byte	0
 5523 0e4c 12       		.uleb128 0x12
 5524 0e4d 04       		.byte	0x4
 5525 0e4e 04030000 		.4byte	0x304
 5526 0e52 03       		.uleb128 0x3
 5527 0e53 C9090000 		.4byte	.LASF193
 5528 0e57 0C       		.byte	0xc
 5529 0e58 C0       		.byte	0xc0
 5530 0e59 0B0E0000 		.4byte	0xe0b
 5531 0e5d 16       		.uleb128 0x16
 5532 0e5e 28       		.byte	0x28
 5533 0e5f 0D       		.byte	0xd
 5534 0e60 40       		.byte	0x40
 5535 0e61 F20E0000 		.4byte	0xef2
 5536 0e65 17       		.uleb128 0x17
 5537 0e66 090B0000 		.4byte	.LASF194
 5538 0e6a 0D       		.byte	0xd
 5539 0e6b 42       		.byte	0x42
 5540 0e6c 95000000 		.4byte	0x95
 5541 0e70 02       		.byte	0x2
 5542 0e71 23       		.byte	0x23
 5543 0e72 00       		.uleb128 0
 5544 0e73 17       		.uleb128 0x17
 5545 0e74 CA0C0000 		.4byte	.LASF195
 5546 0e78 0D       		.byte	0xd
 5547 0e79 45       		.byte	0x45
 5548 0e7a 95000000 		.4byte	0x95
 5549 0e7e 02       		.byte	0x2
 5550 0e7f 23       		.byte	0x23
 5551 0e80 04       		.uleb128 0x4
 5552 0e81 17       		.uleb128 0x17
 5553 0e82 3B040000 		.4byte	.LASF196
 5554 0e86 0D       		.byte	0xd
 5555 0e87 48       		.byte	0x48
 5556 0e88 95000000 		.4byte	0x95
 5557 0e8c 02       		.byte	0x2
 5558 0e8d 23       		.byte	0x23
ARM GAS  C:\Users\EBANO_~1\AppData\Local\Temp\ccyPWgHX.s 			page 139


 5559 0e8e 08       		.uleb128 0x8
 5560 0e8f 17       		.uleb128 0x17
 5561 0e90 33040000 		.4byte	.LASF197
 5562 0e94 0D       		.byte	0xd
 5563 0e95 4B       		.byte	0x4b
 5564 0e96 95000000 		.4byte	0x95
 5565 0e9a 02       		.byte	0x2
 5566 0e9b 23       		.byte	0x23
 5567 0e9c 0C       		.uleb128 0xc
 5568 0e9d 17       		.uleb128 0x17
 5569 0e9e EC080000 		.4byte	.LASF198
 5570 0ea2 0D       		.byte	0xd
 5571 0ea3 4E       		.byte	0x4e
 5572 0ea4 95000000 		.4byte	0x95
 5573 0ea8 02       		.byte	0x2
 5574 0ea9 23       		.byte	0x23
 5575 0eaa 10       		.uleb128 0x10
 5576 0eab 17       		.uleb128 0x17
 5577 0eac 720D0000 		.4byte	.LASF199
 5578 0eb0 0D       		.byte	0xd
 5579 0eb1 51       		.byte	0x51
 5580 0eb2 95000000 		.4byte	0x95
 5581 0eb6 02       		.byte	0x2
 5582 0eb7 23       		.byte	0x23
 5583 0eb8 14       		.uleb128 0x14
 5584 0eb9 17       		.uleb128 0x17
 5585 0eba D0080000 		.4byte	.LASF200
 5586 0ebe 0D       		.byte	0xd
 5587 0ebf 54       		.byte	0x54
 5588 0ec0 95000000 		.4byte	0x95
 5589 0ec4 02       		.byte	0x2
 5590 0ec5 23       		.byte	0x23
 5591 0ec6 18       		.uleb128 0x18
 5592 0ec7 17       		.uleb128 0x17
 5593 0ec8 2E020000 		.4byte	.LASF201
 5594 0ecc 0D       		.byte	0xd
 5595 0ecd 57       		.byte	0x57
 5596 0ece 95000000 		.4byte	0x95
 5597 0ed2 02       		.byte	0x2
 5598 0ed3 23       		.byte	0x23
 5599 0ed4 1C       		.uleb128 0x1c
 5600 0ed5 17       		.uleb128 0x17
 5601 0ed6 C40A0000 		.4byte	.LASF202
 5602 0eda 0D       		.byte	0xd
 5603 0edb 5A       		.byte	0x5a
 5604 0edc 95000000 		.4byte	0x95
 5605 0ee0 02       		.byte	0x2
 5606 0ee1 23       		.byte	0x23
 5607 0ee2 20       		.uleb128 0x20
 5608 0ee3 17       		.uleb128 0x17
 5609 0ee4 740B0000 		.4byte	.LASF203
 5610 0ee8 0D       		.byte	0xd
 5611 0ee9 5D       		.byte	0x5d
 5612 0eea 95000000 		.4byte	0x95
 5613 0eee 02       		.byte	0x2
 5614 0eef 23       		.byte	0x23
 5615 0ef0 24       		.uleb128 0x24
ARM GAS  C:\Users\EBANO_~1\AppData\Local\Temp\ccyPWgHX.s 			page 140


 5616 0ef1 00       		.byte	0
 5617 0ef2 03       		.uleb128 0x3
 5618 0ef3 10080000 		.4byte	.LASF204
 5619 0ef7 0D       		.byte	0xd
 5620 0ef8 5F       		.byte	0x5f
 5621 0ef9 5D0E0000 		.4byte	0xe5d
 5622 0efd 24       		.uleb128 0x24
 5623 0efe 01       		.byte	0x1
 5624 0eff C2060000 		.4byte	.LASF207
 5625 0f03 01       		.byte	0x1
 5626 0f04 B007     		.2byte	0x7b0
 5627 0f06 01       		.byte	0x1
 5628 0f07 590C0000 		.4byte	0xc59
 5629 0f0b 00000000 		.4byte	.LFB73
 5630 0f0f 58000000 		.4byte	.LFE73
 5631 0f13 00000000 		.4byte	.LLST98
 5632 0f17 01       		.byte	0x1
 5633 0f18 5F0F0000 		.4byte	0xf5f
 5634 0f1c 25       		.uleb128 0x25
 5635 0f1d 82050000 		.4byte	.LASF205
 5636 0f21 01       		.byte	0x1
 5637 0f22 B007     		.2byte	0x7b0
 5638 0f24 5F0F0000 		.4byte	0xf5f
 5639 0f28 20000000 		.4byte	.LLST99
 5640 0f2c 25       		.uleb128 0x25
 5641 0f2d 2D030000 		.4byte	.LASF206
 5642 0f31 01       		.byte	0x1
 5643 0f32 B007     		.2byte	0x7b0
 5644 0f34 95000000 		.4byte	0x95
 5645 0f38 57000000 		.4byte	.LLST100
 5646 0f3c 26       		.uleb128 0x26
 5647 0f3d 570D0000 		.4byte	.LASF218
 5648 0f41 01       		.byte	0x1
 5649 0f42 B207     		.2byte	0x7b2
 5650 0f44 95000000 		.4byte	0x95
 5651 0f48 8E000000 		.4byte	.LLST101
 5652 0f4c 27       		.uleb128 0x27
 5653 0f4d 0A000000 		.4byte	.LVL249
 5654 0f51 D9190000 		.4byte	0x19d9
 5655 0f55 27       		.uleb128 0x27
 5656 0f56 44000000 		.4byte	.LVL256
 5657 0f5a D9190000 		.4byte	0x19d9
 5658 0f5e 00       		.byte	0
 5659 0f5f 12       		.uleb128 0x12
 5660 0f60 04       		.byte	0x4
 5661 0f61 520E0000 		.4byte	0xe52
 5662 0f65 28       		.uleb128 0x28
 5663 0f66 01       		.byte	0x1
 5664 0f67 EE060000 		.4byte	.LASF227
 5665 0f6b 01       		.byte	0x1
 5666 0f6c A007     		.2byte	0x7a0
 5667 0f6e 01       		.byte	0x1
 5668 0f6f 800F0000 		.4byte	0xf80
 5669 0f73 29       		.uleb128 0x29
 5670 0f74 82050000 		.4byte	.LASF205
 5671 0f78 01       		.byte	0x1
 5672 0f79 A007     		.2byte	0x7a0
ARM GAS  C:\Users\EBANO_~1\AppData\Local\Temp\ccyPWgHX.s 			page 141


 5673 0f7b 5F0F0000 		.4byte	0xf5f
 5674 0f7f 00       		.byte	0
 5675 0f80 24       		.uleb128 0x24
 5676 0f81 01       		.byte	0x1
 5677 0f82 10040000 		.4byte	.LASF208
 5678 0f86 01       		.byte	0x1
 5679 0f87 6F07     		.2byte	0x76f
 5680 0f89 01       		.byte	0x1
 5681 0f8a 590C0000 		.4byte	0xc59
 5682 0f8e 00000000 		.4byte	.LFB71
 5683 0f92 36000000 		.4byte	.LFE71
 5684 0f96 B7000000 		.4byte	.LLST96
 5685 0f9a 01       		.byte	0x1
 5686 0f9b B00F0000 		.4byte	0xfb0
 5687 0f9f 25       		.uleb128 0x25
 5688 0fa0 82050000 		.4byte	.LASF205
 5689 0fa4 01       		.byte	0x1
 5690 0fa5 6F07     		.2byte	0x76f
 5691 0fa7 5F0F0000 		.4byte	0xf5f
 5692 0fab D7000000 		.4byte	.LLST97
 5693 0faf 00       		.byte	0
 5694 0fb0 24       		.uleb128 0x24
 5695 0fb1 01       		.byte	0x1
 5696 0fb2 42000000 		.4byte	.LASF209
 5697 0fb6 01       		.byte	0x1
 5698 0fb7 4F07     		.2byte	0x74f
 5699 0fb9 01       		.byte	0x1
 5700 0fba 590C0000 		.4byte	0xc59
 5701 0fbe 00000000 		.4byte	.LFB70
 5702 0fc2 34000000 		.4byte	.LFE70
 5703 0fc6 11010000 		.4byte	.LLST94
 5704 0fca 01       		.byte	0x1
 5705 0fcb E00F0000 		.4byte	0xfe0
 5706 0fcf 25       		.uleb128 0x25
 5707 0fd0 82050000 		.4byte	.LASF205
 5708 0fd4 01       		.byte	0x1
 5709 0fd5 4F07     		.2byte	0x74f
 5710 0fd7 5F0F0000 		.4byte	0xf5f
 5711 0fdb 31010000 		.4byte	.LLST95
 5712 0fdf 00       		.byte	0
 5713 0fe0 24       		.uleb128 0x24
 5714 0fe1 01       		.byte	0x1
 5715 0fe2 FC050000 		.4byte	.LASF210
 5716 0fe6 01       		.byte	0x1
 5717 0fe7 1C07     		.2byte	0x71c
 5718 0fe9 01       		.byte	0x1
 5719 0fea 590C0000 		.4byte	0xc59
 5720 0fee 00000000 		.4byte	.LFB69
 5721 0ff2 58000000 		.4byte	.LFE69
 5722 0ff6 6B010000 		.4byte	.LLST92
 5723 0ffa 01       		.byte	0x1
 5724 0ffb 20100000 		.4byte	0x1020
 5725 0fff 25       		.uleb128 0x25
 5726 1000 82050000 		.4byte	.LASF205
 5727 1004 01       		.byte	0x1
 5728 1005 1C07     		.2byte	0x71c
 5729 1007 5F0F0000 		.4byte	0xf5f
ARM GAS  C:\Users\EBANO_~1\AppData\Local\Temp\ccyPWgHX.s 			page 142


 5730 100b 8B010000 		.4byte	.LLST93
 5731 100f 2A       		.uleb128 0x2a
 5732 1010 24000000 		.4byte	.LVL235
 5733 1014 E7190000 		.4byte	0x19e7
 5734 1018 2B       		.uleb128 0x2b
 5735 1019 01       		.byte	0x1
 5736 101a 50       		.byte	0x50
 5737 101b 02       		.byte	0x2
 5738 101c 74       		.byte	0x74
 5739 101d 00       		.sleb128 0
 5740 101e 00       		.byte	0
 5741 101f 00       		.byte	0
 5742 1020 24       		.uleb128 0x24
 5743 1021 01       		.byte	0x1
 5744 1022 F5080000 		.4byte	.LASF211
 5745 1026 01       		.byte	0x1
 5746 1027 EB06     		.2byte	0x6eb
 5747 1029 01       		.byte	0x1
 5748 102a 590C0000 		.4byte	0xc59
 5749 102e 00000000 		.4byte	.LFB68
 5750 1032 58000000 		.4byte	.LFE68
 5751 1036 D8010000 		.4byte	.LLST90
 5752 103a 01       		.byte	0x1
 5753 103b 60100000 		.4byte	0x1060
 5754 103f 25       		.uleb128 0x25
 5755 1040 82050000 		.4byte	.LASF205
 5756 1044 01       		.byte	0x1
 5757 1045 EB06     		.2byte	0x6eb
 5758 1047 5F0F0000 		.4byte	0xf5f
 5759 104b F8010000 		.4byte	.LLST91
 5760 104f 2A       		.uleb128 0x2a
 5761 1050 24000000 		.4byte	.LVL229
 5762 1054 E7190000 		.4byte	0x19e7
 5763 1058 2B       		.uleb128 0x2b
 5764 1059 01       		.byte	0x1
 5765 105a 50       		.byte	0x50
 5766 105b 02       		.byte	0x2
 5767 105c 74       		.byte	0x74
 5768 105d 00       		.sleb128 0
 5769 105e 00       		.byte	0
 5770 105f 00       		.byte	0
 5771 1060 24       		.uleb128 0x24
 5772 1061 01       		.byte	0x1
 5773 1062 24070000 		.4byte	.LASF212
 5774 1066 01       		.byte	0x1
 5775 1067 CE06     		.2byte	0x6ce
 5776 1069 01       		.byte	0x1
 5777 106a 590C0000 		.4byte	0xc59
 5778 106e 00000000 		.4byte	.LFB67
 5779 1072 3C000000 		.4byte	.LFE67
 5780 1076 45020000 		.4byte	.LLST88
 5781 107a 01       		.byte	0x1
 5782 107b 90100000 		.4byte	0x1090
 5783 107f 25       		.uleb128 0x25
 5784 1080 82050000 		.4byte	.LASF205
 5785 1084 01       		.byte	0x1
 5786 1085 CE06     		.2byte	0x6ce
ARM GAS  C:\Users\EBANO_~1\AppData\Local\Temp\ccyPWgHX.s 			page 143


 5787 1087 5F0F0000 		.4byte	0xf5f
 5788 108b 65020000 		.4byte	.LLST89
 5789 108f 00       		.byte	0
 5790 1090 24       		.uleb128 0x24
 5791 1091 01       		.byte	0x1
 5792 1092 D3070000 		.4byte	.LASF213
 5793 1096 01       		.byte	0x1
 5794 1097 A806     		.2byte	0x6a8
 5795 1099 01       		.byte	0x1
 5796 109a 590C0000 		.4byte	0xc59
 5797 109e 00000000 		.4byte	.LFB66
 5798 10a2 4C000000 		.4byte	.LFE66
 5799 10a6 9F020000 		.4byte	.LLST85
 5800 10aa 01       		.byte	0x1
 5801 10ab D0100000 		.4byte	0x10d0
 5802 10af 25       		.uleb128 0x25
 5803 10b0 82050000 		.4byte	.LASF205
 5804 10b4 01       		.byte	0x1
 5805 10b5 A806     		.2byte	0x6a8
 5806 10b7 5F0F0000 		.4byte	0xf5f
 5807 10bb BF020000 		.4byte	.LLST86
 5808 10bf 25       		.uleb128 0x25
 5809 10c0 72040000 		.4byte	.LASF214
 5810 10c4 01       		.byte	0x1
 5811 10c5 A806     		.2byte	0x6a8
 5812 10c7 95000000 		.4byte	0x95
 5813 10cb F9020000 		.4byte	.LLST87
 5814 10cf 00       		.byte	0
 5815 10d0 24       		.uleb128 0x24
 5816 10d1 01       		.byte	0x1
 5817 10d2 E90D0000 		.4byte	.LASF215
 5818 10d6 01       		.byte	0x1
 5819 10d7 4B06     		.2byte	0x64b
 5820 10d9 01       		.byte	0x1
 5821 10da 590C0000 		.4byte	0xc59
 5822 10de 00000000 		.4byte	.LFB65
 5823 10e2 C6000000 		.4byte	.LFE65
 5824 10e6 25030000 		.4byte	.LLST80
 5825 10ea 01       		.byte	0x1
 5826 10eb 52110000 		.4byte	0x1152
 5827 10ef 25       		.uleb128 0x25
 5828 10f0 82050000 		.4byte	.LASF205
 5829 10f4 01       		.byte	0x1
 5830 10f5 4B06     		.2byte	0x64b
 5831 10f7 5F0F0000 		.4byte	0xf5f
 5832 10fb 51030000 		.4byte	.LLST81
 5833 10ff 25       		.uleb128 0x25
 5834 1100 CA000000 		.4byte	.LASF216
 5835 1104 01       		.byte	0x1
 5836 1105 4B06     		.2byte	0x64b
 5837 1107 95000000 		.4byte	0x95
 5838 110b 93030000 		.4byte	.LLST82
 5839 110f 25       		.uleb128 0x25
 5840 1110 C1010000 		.4byte	.LASF217
 5841 1114 01       		.byte	0x1
 5842 1115 4B06     		.2byte	0x64b
 5843 1117 95000000 		.4byte	0x95
ARM GAS  C:\Users\EBANO_~1\AppData\Local\Temp\ccyPWgHX.s 			page 144


 5844 111b EB030000 		.4byte	.LLST83
 5845 111f 26       		.uleb128 0x26
 5846 1120 570D0000 		.4byte	.LASF218
 5847 1124 01       		.byte	0x1
 5848 1125 4D06     		.2byte	0x64d
 5849 1127 95000000 		.4byte	0x95
 5850 112b 22040000 		.4byte	.LLST84
 5851 112f 27       		.uleb128 0x27
 5852 1130 2E000000 		.4byte	.LVL206
 5853 1134 D9190000 		.4byte	0x19d9
 5854 1138 27       		.uleb128 0x27
 5855 1139 3C000000 		.4byte	.LVL209
 5856 113d D9190000 		.4byte	0x19d9
 5857 1141 2A       		.uleb128 0x2a
 5858 1142 AC000000 		.4byte	.LVL218
 5859 1146 F5190000 		.4byte	0x19f5
 5860 114a 2B       		.uleb128 0x2b
 5861 114b 01       		.byte	0x1
 5862 114c 50       		.byte	0x50
 5863 114d 02       		.byte	0x2
 5864 114e 74       		.byte	0x74
 5865 114f 00       		.sleb128 0
 5866 1150 00       		.byte	0
 5867 1151 00       		.byte	0
 5868 1152 24       		.uleb128 0x24
 5869 1153 01       		.byte	0x1
 5870 1154 DE010000 		.4byte	.LASF219
 5871 1158 01       		.byte	0x1
 5872 1159 0706     		.2byte	0x607
 5873 115b 01       		.byte	0x1
 5874 115c 590C0000 		.4byte	0xc59
 5875 1160 00000000 		.4byte	.LFB64
 5876 1164 96000000 		.4byte	.LFE64
 5877 1168 63040000 		.4byte	.LLST74
 5878 116c 01       		.byte	0x1
 5879 116d D4110000 		.4byte	0x11d4
 5880 1171 25       		.uleb128 0x25
 5881 1172 82050000 		.4byte	.LASF205
 5882 1176 01       		.byte	0x1
 5883 1177 0706     		.2byte	0x607
 5884 1179 5F0F0000 		.4byte	0xf5f
 5885 117d 8F040000 		.4byte	.LLST75
 5886 1181 25       		.uleb128 0x25
 5887 1182 CF0D0000 		.4byte	.LASF220
 5888 1186 01       		.byte	0x1
 5889 1187 0706     		.2byte	0x607
 5890 1189 95000000 		.4byte	0x95
 5891 118d DC040000 		.4byte	.LLST76
 5892 1191 25       		.uleb128 0x25
 5893 1192 08010000 		.4byte	.LASF221
 5894 1196 01       		.byte	0x1
 5895 1197 0706     		.2byte	0x607
 5896 1199 95000000 		.4byte	0x95
 5897 119d 29050000 		.4byte	.LLST77
 5898 11a1 25       		.uleb128 0x25
 5899 11a2 E3040000 		.4byte	.LASF222
 5900 11a6 01       		.byte	0x1
ARM GAS  C:\Users\EBANO_~1\AppData\Local\Temp\ccyPWgHX.s 			page 145


 5901 11a7 0706     		.2byte	0x607
 5902 11a9 95000000 		.4byte	0x95
 5903 11ad 60050000 		.4byte	.LLST78
 5904 11b1 26       		.uleb128 0x26
 5905 11b2 570D0000 		.4byte	.LASF218
 5906 11b6 01       		.byte	0x1
 5907 11b7 0906     		.2byte	0x609
 5908 11b9 95000000 		.4byte	0x95
 5909 11bd 97050000 		.4byte	.LLST79
 5910 11c1 27       		.uleb128 0x27
 5911 11c2 62000000 		.4byte	.LVL196
 5912 11c6 D9190000 		.4byte	0x19d9
 5913 11ca 27       		.uleb128 0x27
 5914 11cb 74000000 		.4byte	.LVL199
 5915 11cf D9190000 		.4byte	0x19d9
 5916 11d3 00       		.byte	0
 5917 11d4 2C       		.uleb128 0x2c
 5918 11d5 01       		.byte	0x1
 5919 11d6 A9020000 		.4byte	.LASF223
 5920 11da 01       		.byte	0x1
 5921 11db E605     		.2byte	0x5e6
 5922 11dd 01       		.byte	0x1
 5923 11de 95000000 		.4byte	0x95
 5924 11e2 00000000 		.4byte	.LFB63
 5925 11e6 0C000000 		.4byte	.LFE63
 5926 11ea 02       		.byte	0x2
 5927 11eb 7D       		.byte	0x7d
 5928 11ec 00       		.sleb128 0
 5929 11ed 01       		.byte	0x1
 5930 11ee 23120000 		.4byte	0x1223
 5931 11f2 25       		.uleb128 0x25
 5932 11f3 82050000 		.4byte	.LASF205
 5933 11f7 01       		.byte	0x1
 5934 11f8 E605     		.2byte	0x5e6
 5935 11fa 5F0F0000 		.4byte	0xf5f
 5936 11fe EF050000 		.4byte	.LLST71
 5937 1202 25       		.uleb128 0x25
 5938 1203 F20C0000 		.4byte	.LASF224
 5939 1207 01       		.byte	0x1
 5940 1208 E605     		.2byte	0x5e6
 5941 120a 95000000 		.4byte	0x95
 5942 120e 10060000 		.4byte	.LLST72
 5943 1212 2D       		.uleb128 0x2d
 5944 1213 746D7000 		.ascii	"tmp\000"
 5945 1217 01       		.byte	0x1
 5946 1218 E805     		.2byte	0x5e8
 5947 121a 95000000 		.4byte	0x95
 5948 121e 31060000 		.4byte	.LLST73
 5949 1222 00       		.byte	0
 5950 1223 2E       		.uleb128 0x2e
 5951 1224 01       		.byte	0x1
 5952 1225 B5090000 		.4byte	.LASF229
 5953 1229 01       		.byte	0x1
 5954 122a D005     		.2byte	0x5d0
 5955 122c 01       		.byte	0x1
 5956 122d 00000000 		.4byte	.LFB62
 5957 1231 0C000000 		.4byte	.LFE62
ARM GAS  C:\Users\EBANO_~1\AppData\Local\Temp\ccyPWgHX.s 			page 146


 5958 1235 02       		.byte	0x2
 5959 1236 7D       		.byte	0x7d
 5960 1237 00       		.sleb128 0
 5961 1238 01       		.byte	0x1
 5962 1239 7A120000 		.4byte	0x127a
 5963 123d 2F       		.uleb128 0x2f
 5964 123e 82050000 		.4byte	.LASF205
 5965 1242 01       		.byte	0x1
 5966 1243 D005     		.2byte	0x5d0
 5967 1245 5F0F0000 		.4byte	0xf5f
 5968 1249 01       		.byte	0x1
 5969 124a 50       		.byte	0x50
 5970 124b 25       		.uleb128 0x25
 5971 124c F20C0000 		.4byte	.LASF224
 5972 1250 01       		.byte	0x1
 5973 1251 D005     		.2byte	0x5d0
 5974 1253 95000000 		.4byte	0x95
 5975 1257 45060000 		.4byte	.LLST69
 5976 125b 2F       		.uleb128 0x2f
 5977 125c C70B0000 		.4byte	.LASF225
 5978 1260 01       		.byte	0x1
 5979 1261 D005     		.2byte	0x5d0
 5980 1263 95000000 		.4byte	0x95
 5981 1267 01       		.byte	0x1
 5982 1268 52       		.byte	0x52
 5983 1269 2D       		.uleb128 0x2d
 5984 126a 746D7000 		.ascii	"tmp\000"
 5985 126e 01       		.byte	0x1
 5986 126f D205     		.2byte	0x5d2
 5987 1271 95000000 		.4byte	0x95
 5988 1275 66060000 		.4byte	.LLST70
 5989 1279 00       		.byte	0
 5990 127a 24       		.uleb128 0x24
 5991 127b 01       		.byte	0x1
 5992 127c 40020000 		.4byte	.LASF226
 5993 1280 01       		.byte	0x1
 5994 1281 8E05     		.2byte	0x58e
 5995 1283 01       		.byte	0x1
 5996 1284 590C0000 		.4byte	0xc59
 5997 1288 00000000 		.4byte	.LFB61
 5998 128c 58000000 		.4byte	.LFE61
 5999 1290 7A060000 		.4byte	.LLST65
 6000 1294 01       		.byte	0x1
 6001 1295 DC120000 		.4byte	0x12dc
 6002 1299 25       		.uleb128 0x25
 6003 129a 82050000 		.4byte	.LASF205
 6004 129e 01       		.byte	0x1
 6005 129f 8E05     		.2byte	0x58e
 6006 12a1 5F0F0000 		.4byte	0xf5f
 6007 12a5 9A060000 		.4byte	.LLST66
 6008 12a9 25       		.uleb128 0x25
 6009 12aa 2D030000 		.4byte	.LASF206
 6010 12ae 01       		.byte	0x1
 6011 12af 8E05     		.2byte	0x58e
 6012 12b1 95000000 		.4byte	0x95
 6013 12b5 D1060000 		.4byte	.LLST67
 6014 12b9 26       		.uleb128 0x26
ARM GAS  C:\Users\EBANO_~1\AppData\Local\Temp\ccyPWgHX.s 			page 147


 6015 12ba 570D0000 		.4byte	.LASF218
 6016 12be 01       		.byte	0x1
 6017 12bf 9005     		.2byte	0x590
 6018 12c1 95000000 		.4byte	0x95
 6019 12c5 08070000 		.4byte	.LLST68
 6020 12c9 27       		.uleb128 0x27
 6021 12ca 0A000000 		.4byte	.LVL171
 6022 12ce D9190000 		.4byte	0x19d9
 6023 12d2 27       		.uleb128 0x27
 6024 12d3 44000000 		.4byte	.LVL178
 6025 12d7 D9190000 		.4byte	0x19d9
 6026 12db 00       		.byte	0
 6027 12dc 28       		.uleb128 0x28
 6028 12dd 01       		.byte	0x1
 6029 12de A40B0000 		.4byte	.LASF228
 6030 12e2 01       		.byte	0x1
 6031 12e3 7D05     		.2byte	0x57d
 6032 12e5 01       		.byte	0x1
 6033 12e6 F7120000 		.4byte	0x12f7
 6034 12ea 29       		.uleb128 0x29
 6035 12eb 82050000 		.4byte	.LASF205
 6036 12ef 01       		.byte	0x1
 6037 12f0 7D05     		.2byte	0x57d
 6038 12f2 5F0F0000 		.4byte	0xf5f
 6039 12f6 00       		.byte	0
 6040 12f7 30       		.uleb128 0x30
 6041 12f8 01       		.byte	0x1
 6042 12f9 17090000 		.4byte	.LASF230
 6043 12fd 01       		.byte	0x1
 6044 12fe 6405     		.2byte	0x564
 6045 1300 01       		.byte	0x1
 6046 1301 00000000 		.4byte	.LFB59
 6047 1305 38000000 		.4byte	.LFE59
 6048 1309 31070000 		.4byte	.LLST63
 6049 130d 01       		.byte	0x1
 6050 130e 33130000 		.4byte	0x1333
 6051 1312 25       		.uleb128 0x25
 6052 1313 82050000 		.4byte	.LASF205
 6053 1317 01       		.byte	0x1
 6054 1318 6405     		.2byte	0x564
 6055 131a 5F0F0000 		.4byte	0xf5f
 6056 131e 51070000 		.4byte	.LLST64
 6057 1322 2A       		.uleb128 0x2a
 6058 1323 10000000 		.4byte	.LVL168
 6059 1327 DC120000 		.4byte	0x12dc
 6060 132b 2B       		.uleb128 0x2b
 6061 132c 01       		.byte	0x1
 6062 132d 50       		.byte	0x50
 6063 132e 02       		.byte	0x2
 6064 132f 74       		.byte	0x74
 6065 1330 00       		.sleb128 0
 6066 1331 00       		.byte	0
 6067 1332 00       		.byte	0
 6068 1333 2C       		.uleb128 0x2c
 6069 1334 01       		.byte	0x1
 6070 1335 CA020000 		.4byte	.LASF231
 6071 1339 01       		.byte	0x1
ARM GAS  C:\Users\EBANO_~1\AppData\Local\Temp\ccyPWgHX.s 			page 148


 6072 133a 5905     		.2byte	0x559
 6073 133c 01       		.byte	0x1
 6074 133d 95000000 		.4byte	0x95
 6075 1341 00000000 		.4byte	.LFB58
 6076 1345 0A000000 		.4byte	.LFE58
 6077 1349 02       		.byte	0x2
 6078 134a 7D       		.byte	0x7d
 6079 134b 00       		.sleb128 0
 6080 134c 01       		.byte	0x1
 6081 134d 62130000 		.4byte	0x1362
 6082 1351 25       		.uleb128 0x25
 6083 1352 82050000 		.4byte	.LASF205
 6084 1356 01       		.byte	0x1
 6085 1357 5905     		.2byte	0x559
 6086 1359 5F0F0000 		.4byte	0xf5f
 6087 135d 7D070000 		.4byte	.LLST62
 6088 1361 00       		.byte	0
 6089 1362 24       		.uleb128 0x24
 6090 1363 01       		.byte	0x1
 6091 1364 100B0000 		.4byte	.LASF232
 6092 1368 01       		.byte	0x1
 6093 1369 2505     		.2byte	0x525
 6094 136b 01       		.byte	0x1
 6095 136c 95000000 		.4byte	0x95
 6096 1370 00000000 		.4byte	.LFB57
 6097 1374 90000000 		.4byte	.LFE57
 6098 1378 9E070000 		.4byte	.LLST59
 6099 137c 01       		.byte	0x1
 6100 137d B4130000 		.4byte	0x13b4
 6101 1381 25       		.uleb128 0x25
 6102 1382 82050000 		.4byte	.LASF205
 6103 1386 01       		.byte	0x1
 6104 1387 2505     		.2byte	0x525
 6105 1389 5F0F0000 		.4byte	0xf5f
 6106 138d CA070000 		.4byte	.LLST60
 6107 1391 26       		.uleb128 0x26
 6108 1392 570D0000 		.4byte	.LASF218
 6109 1396 01       		.byte	0x1
 6110 1397 2705     		.2byte	0x527
 6111 1399 95000000 		.4byte	0x95
 6112 139d 17080000 		.4byte	.LLST61
 6113 13a1 27       		.uleb128 0x27
 6114 13a2 3C000000 		.4byte	.LVL155
 6115 13a6 D9190000 		.4byte	0x19d9
 6116 13aa 27       		.uleb128 0x27
 6117 13ab 46000000 		.4byte	.LVL158
 6118 13af D9190000 		.4byte	0x19d9
 6119 13b3 00       		.byte	0
 6120 13b4 24       		.uleb128 0x24
 6121 13b5 01       		.byte	0x1
 6122 13b6 A6050000 		.4byte	.LASF233
 6123 13ba 01       		.byte	0x1
 6124 13bb C304     		.2byte	0x4c3
 6125 13bd 01       		.byte	0x1
 6126 13be 590C0000 		.4byte	0xc59
 6127 13c2 00000000 		.4byte	.LFB56
 6128 13c6 1C010000 		.4byte	.LFE56
ARM GAS  C:\Users\EBANO_~1\AppData\Local\Temp\ccyPWgHX.s 			page 149


 6129 13ca 63080000 		.4byte	.LLST54
 6130 13ce 01       		.byte	0x1
 6131 13cf 38140000 		.4byte	0x1438
 6132 13d3 25       		.uleb128 0x25
 6133 13d4 82050000 		.4byte	.LASF205
 6134 13d8 01       		.byte	0x1
 6135 13d9 C304     		.2byte	0x4c3
 6136 13db 5F0F0000 		.4byte	0xf5f
 6137 13df 8F080000 		.4byte	.LLST55
 6138 13e3 25       		.uleb128 0x25
 6139 13e4 4D090000 		.4byte	.LASF234
 6140 13e8 01       		.byte	0x1
 6141 13e9 C304     		.2byte	0x4c3
 6142 13eb 95000000 		.4byte	0x95
 6143 13ef DC080000 		.4byte	.LLST56
 6144 13f3 25       		.uleb128 0x25
 6145 13f4 A4080000 		.4byte	.LASF235
 6146 13f8 01       		.byte	0x1
 6147 13f9 C304     		.2byte	0x4c3
 6148 13fb 95000000 		.4byte	0x95
 6149 13ff 1E090000 		.4byte	.LLST57
 6150 1403 26       		.uleb128 0x26
 6151 1404 570D0000 		.4byte	.LASF218
 6152 1408 01       		.byte	0x1
 6153 1409 C504     		.2byte	0x4c5
 6154 140b 95000000 		.4byte	0x95
 6155 140f 55090000 		.4byte	.LLST58
 6156 1413 27       		.uleb128 0x27
 6157 1414 38000000 		.4byte	.LVL136
 6158 1418 D9190000 		.4byte	0x19d9
 6159 141c 27       		.uleb128 0x27
 6160 141d 46000000 		.4byte	.LVL139
 6161 1421 D9190000 		.4byte	0x19d9
 6162 1425 27       		.uleb128 0x27
 6163 1426 72000000 		.4byte	.LVL141
 6164 142a D9190000 		.4byte	0x19d9
 6165 142e 27       		.uleb128 0x27
 6166 142f 7A000000 		.4byte	.LVL144
 6167 1433 D9190000 		.4byte	0x19d9
 6168 1437 00       		.byte	0
 6169 1438 24       		.uleb128 0x24
 6170 1439 01       		.byte	0x1
 6171 143a 4A070000 		.4byte	.LASF236
 6172 143e 01       		.byte	0x1
 6173 143f 6A04     		.2byte	0x46a
 6174 1441 01       		.byte	0x1
 6175 1442 590C0000 		.4byte	0xc59
 6176 1446 00000000 		.4byte	.LFB55
 6177 144a E8000000 		.4byte	.LFE55
 6178 144e C2090000 		.4byte	.LLST49
 6179 1452 01       		.byte	0x1
 6180 1453 BC140000 		.4byte	0x14bc
 6181 1457 25       		.uleb128 0x25
 6182 1458 82050000 		.4byte	.LASF205
 6183 145c 01       		.byte	0x1
 6184 145d 6A04     		.2byte	0x46a
 6185 145f 5F0F0000 		.4byte	0xf5f
ARM GAS  C:\Users\EBANO_~1\AppData\Local\Temp\ccyPWgHX.s 			page 150


 6186 1463 EE090000 		.4byte	.LLST50
 6187 1467 25       		.uleb128 0x25
 6188 1468 4D090000 		.4byte	.LASF234
 6189 146c 01       		.byte	0x1
 6190 146d 6A04     		.2byte	0x46a
 6191 146f 95000000 		.4byte	0x95
 6192 1473 3B0A0000 		.4byte	.LLST51
 6193 1477 25       		.uleb128 0x25
 6194 1478 A4080000 		.4byte	.LASF235
 6195 147c 01       		.byte	0x1
 6196 147d 6A04     		.2byte	0x46a
 6197 147f 95000000 		.4byte	0x95
 6198 1483 7D0A0000 		.4byte	.LLST52
 6199 1487 26       		.uleb128 0x26
 6200 1488 570D0000 		.4byte	.LASF218
 6201 148c 01       		.byte	0x1
 6202 148d 6C04     		.2byte	0x46c
 6203 148f 95000000 		.4byte	0x95
 6204 1493 B40A0000 		.4byte	.LLST53
 6205 1497 27       		.uleb128 0x27
 6206 1498 36000000 		.4byte	.LVL116
 6207 149c D9190000 		.4byte	0x19d9
 6208 14a0 27       		.uleb128 0x27
 6209 14a1 44000000 		.4byte	.LVL119
 6210 14a5 D9190000 		.4byte	0x19d9
 6211 14a9 27       		.uleb128 0x27
 6212 14aa 60000000 		.4byte	.LVL121
 6213 14ae D9190000 		.4byte	0x19d9
 6214 14b2 27       		.uleb128 0x27
 6215 14b3 6C000000 		.4byte	.LVL124
 6216 14b7 D9190000 		.4byte	0x19d9
 6217 14bb 00       		.byte	0
 6218 14bc 24       		.uleb128 0x24
 6219 14bd 01       		.byte	0x1
 6220 14be C5040000 		.4byte	.LASF237
 6221 14c2 01       		.byte	0x1
 6222 14c3 3104     		.2byte	0x431
 6223 14c5 01       		.byte	0x1
 6224 14c6 590C0000 		.4byte	0xc59
 6225 14ca 00000000 		.4byte	.LFB54
 6226 14ce 58000000 		.4byte	.LFE54
 6227 14d2 210B0000 		.4byte	.LLST45
 6228 14d6 01       		.byte	0x1
 6229 14d7 1E150000 		.4byte	0x151e
 6230 14db 25       		.uleb128 0x25
 6231 14dc 82050000 		.4byte	.LASF205
 6232 14e0 01       		.byte	0x1
 6233 14e1 3104     		.2byte	0x431
 6234 14e3 5F0F0000 		.4byte	0xf5f
 6235 14e7 410B0000 		.4byte	.LLST46
 6236 14eb 25       		.uleb128 0x25
 6237 14ec 2D030000 		.4byte	.LASF206
 6238 14f0 01       		.byte	0x1
 6239 14f1 3104     		.2byte	0x431
 6240 14f3 95000000 		.4byte	0x95
 6241 14f7 780B0000 		.4byte	.LLST47
 6242 14fb 26       		.uleb128 0x26
ARM GAS  C:\Users\EBANO_~1\AppData\Local\Temp\ccyPWgHX.s 			page 151


 6243 14fc 570D0000 		.4byte	.LASF218
 6244 1500 01       		.byte	0x1
 6245 1501 3304     		.2byte	0x433
 6246 1503 95000000 		.4byte	0x95
 6247 1507 AF0B0000 		.4byte	.LLST48
 6248 150b 27       		.uleb128 0x27
 6249 150c 0A000000 		.4byte	.LVL106
 6250 1510 D9190000 		.4byte	0x19d9
 6251 1514 27       		.uleb128 0x27
 6252 1515 44000000 		.4byte	.LVL113
 6253 1519 D9190000 		.4byte	0x19d9
 6254 151d 00       		.byte	0
 6255 151e 24       		.uleb128 0x24
 6256 151f 01       		.byte	0x1
 6257 1520 D80A0000 		.4byte	.LASF238
 6258 1524 01       		.byte	0x1
 6259 1525 0B04     		.2byte	0x40b
 6260 1527 01       		.byte	0x1
 6261 1528 590C0000 		.4byte	0xc59
 6262 152c 00000000 		.4byte	.LFB53
 6263 1530 58000000 		.4byte	.LFE53
 6264 1534 D80B0000 		.4byte	.LLST41
 6265 1538 01       		.byte	0x1
 6266 1539 80150000 		.4byte	0x1580
 6267 153d 25       		.uleb128 0x25
 6268 153e 82050000 		.4byte	.LASF205
 6269 1542 01       		.byte	0x1
 6270 1543 0B04     		.2byte	0x40b
 6271 1545 5F0F0000 		.4byte	0xf5f
 6272 1549 F80B0000 		.4byte	.LLST42
 6273 154d 25       		.uleb128 0x25
 6274 154e 2D030000 		.4byte	.LASF206
 6275 1552 01       		.byte	0x1
 6276 1553 0B04     		.2byte	0x40b
 6277 1555 95000000 		.4byte	0x95
 6278 1559 2F0C0000 		.4byte	.LLST43
 6279 155d 26       		.uleb128 0x26
 6280 155e 570D0000 		.4byte	.LASF218
 6281 1562 01       		.byte	0x1
 6282 1563 0D04     		.2byte	0x40d
 6283 1565 95000000 		.4byte	0x95
 6284 1569 660C0000 		.4byte	.LLST44
 6285 156d 27       		.uleb128 0x27
 6286 156e 0A000000 		.4byte	.LVL97
 6287 1572 D9190000 		.4byte	0x19d9
 6288 1576 27       		.uleb128 0x27
 6289 1577 44000000 		.4byte	.LVL104
 6290 157b D9190000 		.4byte	0x19d9
 6291 157f 00       		.byte	0
 6292 1580 24       		.uleb128 0x24
 6293 1581 01       		.byte	0x1
 6294 1582 61010000 		.4byte	.LASF239
 6295 1586 01       		.byte	0x1
 6296 1587 E403     		.2byte	0x3e4
 6297 1589 01       		.byte	0x1
 6298 158a 590C0000 		.4byte	0xc59
 6299 158e 00000000 		.4byte	.LFB52
ARM GAS  C:\Users\EBANO_~1\AppData\Local\Temp\ccyPWgHX.s 			page 152


 6300 1592 58000000 		.4byte	.LFE52
 6301 1596 8F0C0000 		.4byte	.LLST37
 6302 159a 01       		.byte	0x1
 6303 159b E2150000 		.4byte	0x15e2
 6304 159f 25       		.uleb128 0x25
 6305 15a0 82050000 		.4byte	.LASF205
 6306 15a4 01       		.byte	0x1
 6307 15a5 E403     		.2byte	0x3e4
 6308 15a7 5F0F0000 		.4byte	0xf5f
 6309 15ab AF0C0000 		.4byte	.LLST38
 6310 15af 25       		.uleb128 0x25
 6311 15b0 2D030000 		.4byte	.LASF206
 6312 15b4 01       		.byte	0x1
 6313 15b5 E403     		.2byte	0x3e4
 6314 15b7 95000000 		.4byte	0x95
 6315 15bb E60C0000 		.4byte	.LLST39
 6316 15bf 26       		.uleb128 0x26
 6317 15c0 570D0000 		.4byte	.LASF218
 6318 15c4 01       		.byte	0x1
 6319 15c5 E603     		.2byte	0x3e6
 6320 15c7 95000000 		.4byte	0x95
 6321 15cb 1D0D0000 		.4byte	.LLST40
 6322 15cf 27       		.uleb128 0x27
 6323 15d0 0A000000 		.4byte	.LVL88
 6324 15d4 D9190000 		.4byte	0x19d9
 6325 15d8 27       		.uleb128 0x27
 6326 15d9 44000000 		.4byte	.LVL95
 6327 15dd D9190000 		.4byte	0x19d9
 6328 15e1 00       		.byte	0
 6329 15e2 24       		.uleb128 0x24
 6330 15e3 01       		.byte	0x1
 6331 15e4 1B050000 		.4byte	.LASF240
 6332 15e8 01       		.byte	0x1
 6333 15e9 B703     		.2byte	0x3b7
 6334 15eb 01       		.byte	0x1
 6335 15ec 590C0000 		.4byte	0xc59
 6336 15f0 00000000 		.4byte	.LFB51
 6337 15f4 84000000 		.4byte	.LFE51
 6338 15f8 460D0000 		.4byte	.LLST33
 6339 15fc 01       		.byte	0x1
 6340 15fd 44160000 		.4byte	0x1644
 6341 1601 25       		.uleb128 0x25
 6342 1602 82050000 		.4byte	.LASF205
 6343 1606 01       		.byte	0x1
 6344 1607 B703     		.2byte	0x3b7
 6345 1609 5F0F0000 		.4byte	0xf5f
 6346 160d 720D0000 		.4byte	.LLST34
 6347 1611 25       		.uleb128 0x25
 6348 1612 2D030000 		.4byte	.LASF206
 6349 1616 01       		.byte	0x1
 6350 1617 B703     		.2byte	0x3b7
 6351 1619 95000000 		.4byte	0x95
 6352 161d A90D0000 		.4byte	.LLST35
 6353 1621 26       		.uleb128 0x26
 6354 1622 570D0000 		.4byte	.LASF218
 6355 1626 01       		.byte	0x1
 6356 1627 B903     		.2byte	0x3b9
ARM GAS  C:\Users\EBANO_~1\AppData\Local\Temp\ccyPWgHX.s 			page 153


 6357 1629 95000000 		.4byte	0x95
 6358 162d E00D0000 		.4byte	.LLST36
 6359 1631 27       		.uleb128 0x27
 6360 1632 0E000000 		.4byte	.LVL79
 6361 1636 D9190000 		.4byte	0x19d9
 6362 163a 27       		.uleb128 0x27
 6363 163b 56000000 		.4byte	.LVL86
 6364 163f D9190000 		.4byte	0x19d9
 6365 1643 00       		.byte	0
 6366 1644 28       		.uleb128 0x28
 6367 1645 01       		.byte	0x1
 6368 1646 950A0000 		.4byte	.LASF241
 6369 164a 01       		.byte	0x1
 6370 164b A003     		.2byte	0x3a0
 6371 164d 01       		.byte	0x1
 6372 164e 5F160000 		.4byte	0x165f
 6373 1652 29       		.uleb128 0x29
 6374 1653 82050000 		.4byte	.LASF205
 6375 1657 01       		.byte	0x1
 6376 1658 A003     		.2byte	0x3a0
 6377 165a 5F0F0000 		.4byte	0xf5f
 6378 165e 00       		.byte	0
 6379 165f 28       		.uleb128 0x28
 6380 1660 01       		.byte	0x1
 6381 1661 220E0000 		.4byte	.LASF242
 6382 1665 01       		.byte	0x1
 6383 1666 8B03     		.2byte	0x38b
 6384 1668 01       		.byte	0x1
 6385 1669 7A160000 		.4byte	0x167a
 6386 166d 29       		.uleb128 0x29
 6387 166e 82050000 		.4byte	.LASF205
 6388 1672 01       		.byte	0x1
 6389 1673 8B03     		.2byte	0x38b
 6390 1675 5F0F0000 		.4byte	0xf5f
 6391 1679 00       		.byte	0
 6392 167a 31       		.uleb128 0x31
 6393 167b 01       		.byte	0x1
 6394 167c 83020000 		.4byte	.LASF268
 6395 1680 01       		.byte	0x1
 6396 1681 7C03     		.2byte	0x37c
 6397 1683 01       		.byte	0x1
 6398 1684 01       		.byte	0x1
 6399 1685 96160000 		.4byte	0x1696
 6400 1689 29       		.uleb128 0x29
 6401 168a 82050000 		.4byte	.LASF205
 6402 168e 01       		.byte	0x1
 6403 168f 7C03     		.2byte	0x37c
 6404 1691 5F0F0000 		.4byte	0xf5f
 6405 1695 00       		.byte	0
 6406 1696 28       		.uleb128 0x28
 6407 1697 01       		.byte	0x1
 6408 1698 300B0000 		.4byte	.LASF243
 6409 169c 01       		.byte	0x1
 6410 169d 6D03     		.2byte	0x36d
 6411 169f 01       		.byte	0x1
 6412 16a0 B1160000 		.4byte	0x16b1
 6413 16a4 29       		.uleb128 0x29
ARM GAS  C:\Users\EBANO_~1\AppData\Local\Temp\ccyPWgHX.s 			page 154


 6414 16a5 82050000 		.4byte	.LASF205
 6415 16a9 01       		.byte	0x1
 6416 16aa 6D03     		.2byte	0x36d
 6417 16ac 5F0F0000 		.4byte	0xf5f
 6418 16b0 00       		.byte	0
 6419 16b1 30       		.uleb128 0x30
 6420 16b2 01       		.byte	0x1
 6421 16b3 35030000 		.4byte	.LASF244
 6422 16b7 01       		.byte	0x1
 6423 16b8 0D03     		.2byte	0x30d
 6424 16ba 01       		.byte	0x1
 6425 16bb 00000000 		.4byte	.LFB46
 6426 16bf C4000000 		.4byte	.LFE46
 6427 16c3 090E0000 		.4byte	.LLST31
 6428 16c7 01       		.byte	0x1
 6429 16c8 1E170000 		.4byte	0x171e
 6430 16cc 25       		.uleb128 0x25
 6431 16cd 82050000 		.4byte	.LASF205
 6432 16d1 01       		.byte	0x1
 6433 16d2 0D03     		.2byte	0x30d
 6434 16d4 5F0F0000 		.4byte	0xf5f
 6435 16d8 290E0000 		.4byte	.LLST32
 6436 16dc 32       		.uleb128 0x32
 6437 16dd 52000000 		.4byte	.LVL73
 6438 16e1 44160000 		.4byte	0x1644
 6439 16e5 F0160000 		.4byte	0x16f0
 6440 16e9 2B       		.uleb128 0x2b
 6441 16ea 01       		.byte	0x1
 6442 16eb 50       		.byte	0x50
 6443 16ec 02       		.byte	0x2
 6444 16ed 74       		.byte	0x74
 6445 16ee 00       		.sleb128 0
 6446 16ef 00       		.byte	0
 6447 16f0 27       		.uleb128 0x27
 6448 16f1 66000000 		.4byte	.LVL75
 6449 16f5 96160000 		.4byte	0x1696
 6450 16f9 32       		.uleb128 0x32
 6451 16fa 7C000000 		.4byte	.LVL76
 6452 16fe 7A160000 		.4byte	0x167a
 6453 1702 0D170000 		.4byte	0x170d
 6454 1706 2B       		.uleb128 0x2b
 6455 1707 01       		.byte	0x1
 6456 1708 50       		.byte	0x50
 6457 1709 02       		.byte	0x2
 6458 170a 74       		.byte	0x74
 6459 170b 00       		.sleb128 0
 6460 170c 00       		.byte	0
 6461 170d 2A       		.uleb128 0x2a
 6462 170e 92000000 		.4byte	.LVL77
 6463 1712 5F160000 		.4byte	0x165f
 6464 1716 2B       		.uleb128 0x2b
 6465 1717 01       		.byte	0x1
 6466 1718 50       		.byte	0x50
 6467 1719 02       		.byte	0x2
 6468 171a 74       		.byte	0x74
 6469 171b 00       		.sleb128 0
 6470 171c 00       		.byte	0
ARM GAS  C:\Users\EBANO_~1\AppData\Local\Temp\ccyPWgHX.s 			page 155


 6471 171d 00       		.byte	0
 6472 171e 24       		.uleb128 0x24
 6473 171f 01       		.byte	0x1
 6474 1720 19060000 		.4byte	.LASF245
 6475 1724 01       		.byte	0x1
 6476 1725 C802     		.2byte	0x2c8
 6477 1727 01       		.byte	0x1
 6478 1728 590C0000 		.4byte	0xc59
 6479 172c 00000000 		.4byte	.LFB45
 6480 1730 64000000 		.4byte	.LFE45
 6481 1734 760E0000 		.4byte	.LLST28
 6482 1738 01       		.byte	0x1
 6483 1739 5E170000 		.4byte	0x175e
 6484 173d 25       		.uleb128 0x25
 6485 173e 82050000 		.4byte	.LASF205
 6486 1742 01       		.byte	0x1
 6487 1743 C802     		.2byte	0x2c8
 6488 1745 5F0F0000 		.4byte	0xf5f
 6489 1749 960E0000 		.4byte	.LLST29
 6490 174d 25       		.uleb128 0x25
 6491 174e 090B0000 		.4byte	.LASF194
 6492 1752 01       		.byte	0x1
 6493 1753 C802     		.2byte	0x2c8
 6494 1755 95000000 		.4byte	0x95
 6495 1759 D00E0000 		.4byte	.LLST30
 6496 175d 00       		.byte	0
 6497 175e 24       		.uleb128 0x24
 6498 175f 01       		.byte	0x1
 6499 1760 64060000 		.4byte	.LASF246
 6500 1764 01       		.byte	0x1
 6501 1765 1902     		.2byte	0x219
 6502 1767 01       		.byte	0x1
 6503 1768 590C0000 		.4byte	0xc59
 6504 176c 00000000 		.4byte	.LFB44
 6505 1770 00010000 		.4byte	.LFE44
 6506 1774 150F0000 		.4byte	.LLST24
 6507 1778 01       		.byte	0x1
 6508 1779 AE170000 		.4byte	0x17ae
 6509 177d 25       		.uleb128 0x25
 6510 177e 82050000 		.4byte	.LASF205
 6511 1782 01       		.byte	0x1
 6512 1783 1902     		.2byte	0x219
 6513 1785 5F0F0000 		.4byte	0xf5f
 6514 1789 410F0000 		.4byte	.LLST25
 6515 178d 25       		.uleb128 0x25
 6516 178e 1A0D0000 		.4byte	.LASF247
 6517 1792 01       		.byte	0x1
 6518 1793 1902     		.2byte	0x219
 6519 1795 AE170000 		.4byte	0x17ae
 6520 1799 7B0F0000 		.4byte	.LLST26
 6521 179d 26       		.uleb128 0x26
 6522 179e FC0A0000 		.4byte	.LASF248
 6523 17a2 01       		.byte	0x1
 6524 17a3 1B02     		.2byte	0x21b
 6525 17a5 95000000 		.4byte	0x95
 6526 17a9 A70F0000 		.4byte	.LLST27
 6527 17ad 00       		.byte	0
ARM GAS  C:\Users\EBANO_~1\AppData\Local\Temp\ccyPWgHX.s 			page 156


 6528 17ae 12       		.uleb128 0x12
 6529 17af 04       		.byte	0x4
 6530 17b0 F20E0000 		.4byte	0xef2
 6531 17b4 24       		.uleb128 0x24
 6532 17b5 01       		.byte	0x1
 6533 17b6 600B0000 		.4byte	.LASF249
 6534 17ba 01       		.byte	0x1
 6535 17bb 7101     		.2byte	0x171
 6536 17bd 01       		.byte	0x1
 6537 17be 590C0000 		.4byte	0xc59
 6538 17c2 00000000 		.4byte	.LFB43
 6539 17c6 E0000000 		.4byte	.LFE43
 6540 17ca BD100000 		.4byte	.LLST20
 6541 17ce 01       		.byte	0x1
 6542 17cf 04180000 		.4byte	0x1804
 6543 17d3 25       		.uleb128 0x25
 6544 17d4 82050000 		.4byte	.LASF205
 6545 17d8 01       		.byte	0x1
 6546 17d9 7101     		.2byte	0x171
 6547 17db 5F0F0000 		.4byte	0xf5f
 6548 17df E9100000 		.4byte	.LLST21
 6549 17e3 25       		.uleb128 0x25
 6550 17e4 1A0D0000 		.4byte	.LASF247
 6551 17e8 01       		.byte	0x1
 6552 17e9 7101     		.2byte	0x171
 6553 17eb AE170000 		.4byte	0x17ae
 6554 17ef 23110000 		.4byte	.LLST22
 6555 17f3 26       		.uleb128 0x26
 6556 17f4 FC0A0000 		.4byte	.LASF248
 6557 17f8 01       		.byte	0x1
 6558 17f9 7301     		.2byte	0x173
 6559 17fb 95000000 		.4byte	0x95
 6560 17ff 4F110000 		.4byte	.LLST23
 6561 1803 00       		.byte	0
 6562 1804 24       		.uleb128 0x24
 6563 1805 01       		.byte	0x1
 6564 1806 DB090000 		.4byte	.LASF250
 6565 180a 01       		.byte	0x1
 6566 180b 3E01     		.2byte	0x13e
 6567 180d 01       		.byte	0x1
 6568 180e 590C0000 		.4byte	0xc59
 6569 1812 00000000 		.4byte	.LFB42
 6570 1816 A8000000 		.4byte	.LFE42
 6571 181a E3110000 		.4byte	.LLST13
 6572 181e 01       		.byte	0x1
 6573 181f BA180000 		.4byte	0x18ba
 6574 1823 25       		.uleb128 0x25
 6575 1824 82050000 		.4byte	.LASF205
 6576 1828 01       		.byte	0x1
 6577 1829 3E01     		.2byte	0x13e
 6578 182b 5F0F0000 		.4byte	0xf5f
 6579 182f 0F120000 		.4byte	.LLST14
 6580 1833 25       		.uleb128 0x25
 6581 1834 C9050000 		.4byte	.LASF251
 6582 1838 01       		.byte	0x1
 6583 1839 3E01     		.2byte	0x13e
 6584 183b BA180000 		.4byte	0x18ba
ARM GAS  C:\Users\EBANO_~1\AppData\Local\Temp\ccyPWgHX.s 			page 157


 6585 183f 3B120000 		.4byte	.LLST15
 6586 1843 25       		.uleb128 0x25
 6587 1844 C1080000 		.4byte	.LASF252
 6588 1848 01       		.byte	0x1
 6589 1849 3E01     		.2byte	0x13e
 6590 184b C0180000 		.4byte	0x18c0
 6591 184f 67120000 		.4byte	.LLST16
 6592 1853 25       		.uleb128 0x25
 6593 1854 4F060000 		.4byte	.LASF253
 6594 1858 01       		.byte	0x1
 6595 1859 3E01     		.2byte	0x13e
 6596 185b 95000000 		.4byte	0x95
 6597 185f 93120000 		.4byte	.LLST17
 6598 1863 26       		.uleb128 0x26
 6599 1864 E10D0000 		.4byte	.LASF254
 6600 1868 01       		.byte	0x1
 6601 1869 4001     		.2byte	0x140
 6602 186b 95000000 		.4byte	0x95
 6603 186f BF120000 		.4byte	.LLST18
 6604 1873 26       		.uleb128 0x26
 6605 1874 BA060000 		.4byte	.LASF255
 6606 1878 01       		.byte	0x1
 6607 1879 4001     		.2byte	0x140
 6608 187b 95000000 		.4byte	0x95
 6609 187f DE120000 		.4byte	.LLST19
 6610 1883 27       		.uleb128 0x27
 6611 1884 58000000 		.4byte	.LVL34
 6612 1888 031A0000 		.4byte	0x1a03
 6613 188c 27       		.uleb128 0x27
 6614 188d 60000000 		.4byte	.LVL35
 6615 1891 031A0000 		.4byte	0x1a03
 6616 1895 27       		.uleb128 0x27
 6617 1896 68000000 		.4byte	.LVL36
 6618 189a 031A0000 		.4byte	0x1a03
 6619 189e 27       		.uleb128 0x27
 6620 189f 70000000 		.4byte	.LVL37
 6621 18a3 031A0000 		.4byte	0x1a03
 6622 18a7 27       		.uleb128 0x27
 6623 18a8 78000000 		.4byte	.LVL38
 6624 18ac 031A0000 		.4byte	0x1a03
 6625 18b0 27       		.uleb128 0x27
 6626 18b1 80000000 		.4byte	.LVL39
 6627 18b5 031A0000 		.4byte	0x1a03
 6628 18b9 00       		.byte	0
 6629 18ba 12       		.uleb128 0x12
 6630 18bb 04       		.byte	0x4
 6631 18bc B40D0000 		.4byte	0xdb4
 6632 18c0 12       		.uleb128 0x12
 6633 18c1 04       		.byte	0x4
 6634 18c2 000E0000 		.4byte	0xe00
 6635 18c6 24       		.uleb128 0x24
 6636 18c7 01       		.byte	0x1
 6637 18c8 10020000 		.4byte	.LASF256
 6638 18cc 01       		.byte	0x1
 6639 18cd 1201     		.2byte	0x112
 6640 18cf 01       		.byte	0x1
 6641 18d0 590C0000 		.4byte	0xc59
ARM GAS  C:\Users\EBANO_~1\AppData\Local\Temp\ccyPWgHX.s 			page 158


 6642 18d4 00000000 		.4byte	.LFB41
 6643 18d8 48000000 		.4byte	.LFE41
 6644 18dc FD120000 		.4byte	.LLST10
 6645 18e0 01       		.byte	0x1
 6646 18e1 06190000 		.4byte	0x1906
 6647 18e5 25       		.uleb128 0x25
 6648 18e6 82050000 		.4byte	.LASF205
 6649 18ea 01       		.byte	0x1
 6650 18eb 1201     		.2byte	0x112
 6651 18ed 5F0F0000 		.4byte	0xf5f
 6652 18f1 1D130000 		.4byte	.LLST11
 6653 18f5 26       		.uleb128 0x26
 6654 18f6 FC0A0000 		.4byte	.LASF248
 6655 18fa 01       		.byte	0x1
 6656 18fb 1401     		.2byte	0x114
 6657 18fd 95000000 		.4byte	0x95
 6658 1901 57130000 		.4byte	.LLST12
 6659 1905 00       		.byte	0
 6660 1906 33       		.uleb128 0x33
 6661 1907 01       		.byte	0x1
 6662 1908 70080000 		.4byte	.LASF257
 6663 190c 01       		.byte	0x1
 6664 190d E0       		.byte	0xe0
 6665 190e 01       		.byte	0x1
 6666 190f 590C0000 		.4byte	0xc59
 6667 1913 00000000 		.4byte	.LFB40
 6668 1917 68000000 		.4byte	.LFE40
 6669 191b 8E130000 		.4byte	.LLST5
 6670 191f 01       		.byte	0x1
 6671 1920 61190000 		.4byte	0x1961
 6672 1924 34       		.uleb128 0x34
 6673 1925 82050000 		.4byte	.LASF205
 6674 1929 01       		.byte	0x1
 6675 192a E0       		.byte	0xe0
 6676 192b 5F0F0000 		.4byte	0xf5f
 6677 192f AE130000 		.4byte	.LLST6
 6678 1933 34       		.uleb128 0x34
 6679 1934 DB000000 		.4byte	.LASF258
 6680 1938 01       		.byte	0x1
 6681 1939 E0       		.byte	0xe0
 6682 193a 95000000 		.4byte	0x95
 6683 193e E8130000 		.4byte	.LLST7
 6684 1942 34       		.uleb128 0x34
 6685 1943 68030000 		.4byte	.LASF259
 6686 1947 01       		.byte	0x1
 6687 1948 E0       		.byte	0xe0
 6688 1949 95000000 		.4byte	0x95
 6689 194d 14140000 		.4byte	.LLST8
 6690 1951 35       		.uleb128 0x35
 6691 1952 FC0A0000 		.4byte	.LASF248
 6692 1956 01       		.byte	0x1
 6693 1957 E2       		.byte	0xe2
 6694 1958 95000000 		.4byte	0x95
 6695 195c 40140000 		.4byte	.LLST9
 6696 1960 00       		.byte	0
 6697 1961 33       		.uleb128 0x33
 6698 1962 01       		.byte	0x1
ARM GAS  C:\Users\EBANO_~1\AppData\Local\Temp\ccyPWgHX.s 			page 159


 6699 1963 E3020000 		.4byte	.LASF260
 6700 1967 01       		.byte	0x1
 6701 1968 A9       		.byte	0xa9
 6702 1969 01       		.byte	0x1
 6703 196a 590C0000 		.4byte	0xc59
 6704 196e 00000000 		.4byte	.LFB39
 6705 1972 48000000 		.4byte	.LFE39
 6706 1976 82140000 		.4byte	.LLST0
 6707 197a 01       		.byte	0x1
 6708 197b BC190000 		.4byte	0x19bc
 6709 197f 34       		.uleb128 0x34
 6710 1980 82050000 		.4byte	.LASF205
 6711 1984 01       		.byte	0x1
 6712 1985 A9       		.byte	0xa9
 6713 1986 5F0F0000 		.4byte	0xf5f
 6714 198a A2140000 		.4byte	.LLST1
 6715 198e 34       		.uleb128 0x34
 6716 198f DB000000 		.4byte	.LASF258
 6717 1993 01       		.byte	0x1
 6718 1994 A9       		.byte	0xa9
 6719 1995 95000000 		.4byte	0x95
 6720 1999 DC140000 		.4byte	.LLST2
 6721 199d 34       		.uleb128 0x34
 6722 199e 68030000 		.4byte	.LASF259
 6723 19a2 01       		.byte	0x1
 6724 19a3 A9       		.byte	0xa9
 6725 19a4 95000000 		.4byte	0x95
 6726 19a8 08150000 		.4byte	.LLST3
 6727 19ac 35       		.uleb128 0x35
 6728 19ad FC0A0000 		.4byte	.LASF248
 6729 19b1 01       		.byte	0x1
 6730 19b2 AB       		.byte	0xab
 6731 19b3 95000000 		.4byte	0x95
 6732 19b7 34150000 		.4byte	.LLST4
 6733 19bb 00       		.byte	0
 6734 19bc 36       		.uleb128 0x36
 6735 19bd 7A160000 		.4byte	0x167a
 6736 19c1 00000000 		.4byte	.LFB48
 6737 19c5 02000000 		.4byte	.LFE48
 6738 19c9 02       		.byte	0x2
 6739 19ca 7D       		.byte	0x7d
 6740 19cb 00       		.sleb128 0
 6741 19cc 01       		.byte	0x1
 6742 19cd D9190000 		.4byte	0x19d9
 6743 19d1 37       		.uleb128 0x37
 6744 19d2 89160000 		.4byte	0x1689
 6745 19d6 01       		.byte	0x1
 6746 19d7 50       		.byte	0x50
 6747 19d8 00       		.byte	0
 6748 19d9 38       		.uleb128 0x38
 6749 19da 01       		.byte	0x1
 6750 19db 01       		.byte	0x1
 6751 19dc 66040000 		.4byte	.LASF261
 6752 19e0 66040000 		.4byte	.LASF261
 6753 19e4 0E       		.byte	0xe
 6754 19e5 8401     		.2byte	0x184
 6755 19e7 38       		.uleb128 0x38
ARM GAS  C:\Users\EBANO_~1\AppData\Local\Temp\ccyPWgHX.s 			page 160


 6756 19e8 01       		.byte	0x1
 6757 19e9 01       		.byte	0x1
 6758 19ea A3090000 		.4byte	.LASF262
 6759 19ee A3090000 		.4byte	.LASF262
 6760 19f2 0C       		.byte	0xc
 6761 19f3 7503     		.2byte	0x375
 6762 19f5 38       		.uleb128 0x38
 6763 19f6 01       		.byte	0x1
 6764 19f7 01       		.byte	0x1
 6765 19f8 30080000 		.4byte	.LASF263
 6766 19fc 30080000 		.4byte	.LASF263
 6767 1a00 0C       		.byte	0xc
 6768 1a01 E002     		.2byte	0x2e0
 6769 1a03 38       		.uleb128 0x38
 6770 1a04 01       		.byte	0x1
 6771 1a05 01       		.byte	0x1
 6772 1a06 59030000 		.4byte	.LASF264
 6773 1a0a 59030000 		.4byte	.LASF264
 6774 1a0e 0C       		.byte	0xc
 6775 1a0f 7703     		.2byte	0x377
 6776 1a11 00       		.byte	0
 6777              		.section	.debug_abbrev,"",%progbits
 6778              	.Ldebug_abbrev0:
 6779 0000 01       		.uleb128 0x1
 6780 0001 11       		.uleb128 0x11
 6781 0002 01       		.byte	0x1
 6782 0003 25       		.uleb128 0x25
 6783 0004 0E       		.uleb128 0xe
 6784 0005 13       		.uleb128 0x13
 6785 0006 0B       		.uleb128 0xb
 6786 0007 03       		.uleb128 0x3
 6787 0008 0E       		.uleb128 0xe
 6788 0009 1B       		.uleb128 0x1b
 6789 000a 0E       		.uleb128 0xe
 6790 000b 55       		.uleb128 0x55
 6791 000c 06       		.uleb128 0x6
 6792 000d 11       		.uleb128 0x11
 6793 000e 01       		.uleb128 0x1
 6794 000f 52       		.uleb128 0x52
 6795 0010 01       		.uleb128 0x1
 6796 0011 10       		.uleb128 0x10
 6797 0012 06       		.uleb128 0x6
 6798 0013 00       		.byte	0
 6799 0014 00       		.byte	0
 6800 0015 02       		.uleb128 0x2
 6801 0016 24       		.uleb128 0x24
 6802 0017 00       		.byte	0
 6803 0018 0B       		.uleb128 0xb
 6804 0019 0B       		.uleb128 0xb
 6805 001a 3E       		.uleb128 0x3e
 6806 001b 0B       		.uleb128 0xb
 6807 001c 03       		.uleb128 0x3
 6808 001d 0E       		.uleb128 0xe
 6809 001e 00       		.byte	0
 6810 001f 00       		.byte	0
 6811 0020 03       		.uleb128 0x3
 6812 0021 16       		.uleb128 0x16
ARM GAS  C:\Users\EBANO_~1\AppData\Local\Temp\ccyPWgHX.s 			page 161


 6813 0022 00       		.byte	0
 6814 0023 03       		.uleb128 0x3
 6815 0024 0E       		.uleb128 0xe
 6816 0025 3A       		.uleb128 0x3a
 6817 0026 0B       		.uleb128 0xb
 6818 0027 3B       		.uleb128 0x3b
 6819 0028 0B       		.uleb128 0xb
 6820 0029 49       		.uleb128 0x49
 6821 002a 13       		.uleb128 0x13
 6822 002b 00       		.byte	0
 6823 002c 00       		.byte	0
 6824 002d 04       		.uleb128 0x4
 6825 002e 24       		.uleb128 0x24
 6826 002f 00       		.byte	0
 6827 0030 0B       		.uleb128 0xb
 6828 0031 0B       		.uleb128 0xb
 6829 0032 3E       		.uleb128 0x3e
 6830 0033 0B       		.uleb128 0xb
 6831 0034 03       		.uleb128 0x3
 6832 0035 08       		.uleb128 0x8
 6833 0036 00       		.byte	0
 6834 0037 00       		.byte	0
 6835 0038 05       		.uleb128 0x5
 6836 0039 26       		.uleb128 0x26
 6837 003a 00       		.byte	0
 6838 003b 49       		.uleb128 0x49
 6839 003c 13       		.uleb128 0x13
 6840 003d 00       		.byte	0
 6841 003e 00       		.byte	0
 6842 003f 06       		.uleb128 0x6
 6843 0040 35       		.uleb128 0x35
 6844 0041 00       		.byte	0
 6845 0042 49       		.uleb128 0x49
 6846 0043 13       		.uleb128 0x13
 6847 0044 00       		.byte	0
 6848 0045 00       		.byte	0
 6849 0046 07       		.uleb128 0x7
 6850 0047 34       		.uleb128 0x34
 6851 0048 00       		.byte	0
 6852 0049 03       		.uleb128 0x3
 6853 004a 0E       		.uleb128 0xe
 6854 004b 3A       		.uleb128 0x3a
 6855 004c 0B       		.uleb128 0xb
 6856 004d 3B       		.uleb128 0x3b
 6857 004e 0B       		.uleb128 0xb
 6858 004f 49       		.uleb128 0x49
 6859 0050 13       		.uleb128 0x13
 6860 0051 3F       		.uleb128 0x3f
 6861 0052 0C       		.uleb128 0xc
 6862 0053 3C       		.uleb128 0x3c
 6863 0054 0C       		.uleb128 0xc
 6864 0055 00       		.byte	0
 6865 0056 00       		.byte	0
 6866 0057 08       		.uleb128 0x8
 6867 0058 01       		.uleb128 0x1
 6868 0059 01       		.byte	0x1
 6869 005a 49       		.uleb128 0x49
ARM GAS  C:\Users\EBANO_~1\AppData\Local\Temp\ccyPWgHX.s 			page 162


 6870 005b 13       		.uleb128 0x13
 6871 005c 01       		.uleb128 0x1
 6872 005d 13       		.uleb128 0x13
 6873 005e 00       		.byte	0
 6874 005f 00       		.byte	0
 6875 0060 09       		.uleb128 0x9
 6876 0061 21       		.uleb128 0x21
 6877 0062 00       		.byte	0
 6878 0063 49       		.uleb128 0x49
 6879 0064 13       		.uleb128 0x13
 6880 0065 2F       		.uleb128 0x2f
 6881 0066 0B       		.uleb128 0xb
 6882 0067 00       		.byte	0
 6883 0068 00       		.byte	0
 6884 0069 0A       		.uleb128 0xa
 6885 006a 13       		.uleb128 0x13
 6886 006b 01       		.byte	0x1
 6887 006c 0B       		.uleb128 0xb
 6888 006d 0B       		.uleb128 0xb
 6889 006e 3A       		.uleb128 0x3a
 6890 006f 0B       		.uleb128 0xb
 6891 0070 3B       		.uleb128 0x3b
 6892 0071 05       		.uleb128 0x5
 6893 0072 01       		.uleb128 0x1
 6894 0073 13       		.uleb128 0x13
 6895 0074 00       		.byte	0
 6896 0075 00       		.byte	0
 6897 0076 0B       		.uleb128 0xb
 6898 0077 0D       		.uleb128 0xd
 6899 0078 00       		.byte	0
 6900 0079 03       		.uleb128 0x3
 6901 007a 08       		.uleb128 0x8
 6902 007b 3A       		.uleb128 0x3a
 6903 007c 0B       		.uleb128 0xb
 6904 007d 3B       		.uleb128 0x3b
 6905 007e 05       		.uleb128 0x5
 6906 007f 49       		.uleb128 0x49
 6907 0080 13       		.uleb128 0x13
 6908 0081 38       		.uleb128 0x38
 6909 0082 0A       		.uleb128 0xa
 6910 0083 00       		.byte	0
 6911 0084 00       		.byte	0
 6912 0085 0C       		.uleb128 0xc
 6913 0086 0D       		.uleb128 0xd
 6914 0087 00       		.byte	0
 6915 0088 03       		.uleb128 0x3
 6916 0089 0E       		.uleb128 0xe
 6917 008a 3A       		.uleb128 0x3a
 6918 008b 0B       		.uleb128 0xb
 6919 008c 3B       		.uleb128 0x3b
 6920 008d 05       		.uleb128 0x5
 6921 008e 49       		.uleb128 0x49
 6922 008f 13       		.uleb128 0x13
 6923 0090 38       		.uleb128 0x38
 6924 0091 0A       		.uleb128 0xa
 6925 0092 00       		.byte	0
 6926 0093 00       		.byte	0
ARM GAS  C:\Users\EBANO_~1\AppData\Local\Temp\ccyPWgHX.s 			page 163


 6927 0094 0D       		.uleb128 0xd
 6928 0095 16       		.uleb128 0x16
 6929 0096 00       		.byte	0
 6930 0097 03       		.uleb128 0x3
 6931 0098 0E       		.uleb128 0xe
 6932 0099 3A       		.uleb128 0x3a
 6933 009a 0B       		.uleb128 0xb
 6934 009b 3B       		.uleb128 0x3b
 6935 009c 05       		.uleb128 0x5
 6936 009d 49       		.uleb128 0x49
 6937 009e 13       		.uleb128 0x13
 6938 009f 00       		.byte	0
 6939 00a0 00       		.byte	0
 6940 00a1 0E       		.uleb128 0xe
 6941 00a2 04       		.uleb128 0x4
 6942 00a3 01       		.byte	0x1
 6943 00a4 3E       		.uleb128 0x3e
 6944 00a5 0B       		.uleb128 0xb
 6945 00a6 0B       		.uleb128 0xb
 6946 00a7 0B       		.uleb128 0xb
 6947 00a8 49       		.uleb128 0x49
 6948 00a9 13       		.uleb128 0x13
 6949 00aa 3A       		.uleb128 0x3a
 6950 00ab 0B       		.uleb128 0xb
 6951 00ac 3B       		.uleb128 0x3b
 6952 00ad 0B       		.uleb128 0xb
 6953 00ae 01       		.uleb128 0x1
 6954 00af 13       		.uleb128 0x13
 6955 00b0 00       		.byte	0
 6956 00b1 00       		.byte	0
 6957 00b2 0F       		.uleb128 0xf
 6958 00b3 28       		.uleb128 0x28
 6959 00b4 00       		.byte	0
 6960 00b5 03       		.uleb128 0x3
 6961 00b6 0E       		.uleb128 0xe
 6962 00b7 1C       		.uleb128 0x1c
 6963 00b8 0B       		.uleb128 0xb
 6964 00b9 00       		.byte	0
 6965 00ba 00       		.byte	0
 6966 00bb 10       		.uleb128 0x10
 6967 00bc 28       		.uleb128 0x28
 6968 00bd 00       		.byte	0
 6969 00be 03       		.uleb128 0x3
 6970 00bf 08       		.uleb128 0x8
 6971 00c0 1C       		.uleb128 0x1c
 6972 00c1 0B       		.uleb128 0xb
 6973 00c2 00       		.byte	0
 6974 00c3 00       		.byte	0
 6975 00c4 11       		.uleb128 0x11
 6976 00c5 0F       		.uleb128 0xf
 6977 00c6 00       		.byte	0
 6978 00c7 0B       		.uleb128 0xb
 6979 00c8 0B       		.uleb128 0xb
 6980 00c9 00       		.byte	0
 6981 00ca 00       		.byte	0
 6982 00cb 12       		.uleb128 0x12
 6983 00cc 0F       		.uleb128 0xf
ARM GAS  C:\Users\EBANO_~1\AppData\Local\Temp\ccyPWgHX.s 			page 164


 6984 00cd 00       		.byte	0
 6985 00ce 0B       		.uleb128 0xb
 6986 00cf 0B       		.uleb128 0xb
 6987 00d0 49       		.uleb128 0x49
 6988 00d1 13       		.uleb128 0x13
 6989 00d2 00       		.byte	0
 6990 00d3 00       		.byte	0
 6991 00d4 13       		.uleb128 0x13
 6992 00d5 13       		.uleb128 0x13
 6993 00d6 00       		.byte	0
 6994 00d7 03       		.uleb128 0x3
 6995 00d8 0E       		.uleb128 0xe
 6996 00d9 3C       		.uleb128 0x3c
 6997 00da 0C       		.uleb128 0xc
 6998 00db 00       		.byte	0
 6999 00dc 00       		.byte	0
 7000 00dd 14       		.uleb128 0x14
 7001 00de 17       		.uleb128 0x17
 7002 00df 01       		.byte	0x1
 7003 00e0 0B       		.uleb128 0xb
 7004 00e1 0B       		.uleb128 0xb
 7005 00e2 3A       		.uleb128 0x3a
 7006 00e3 0B       		.uleb128 0xb
 7007 00e4 3B       		.uleb128 0x3b
 7008 00e5 0B       		.uleb128 0xb
 7009 00e6 01       		.uleb128 0x1
 7010 00e7 13       		.uleb128 0x13
 7011 00e8 00       		.byte	0
 7012 00e9 00       		.byte	0
 7013 00ea 15       		.uleb128 0x15
 7014 00eb 0D       		.uleb128 0xd
 7015 00ec 00       		.byte	0
 7016 00ed 03       		.uleb128 0x3
 7017 00ee 0E       		.uleb128 0xe
 7018 00ef 3A       		.uleb128 0x3a
 7019 00f0 0B       		.uleb128 0xb
 7020 00f1 3B       		.uleb128 0x3b
 7021 00f2 0B       		.uleb128 0xb
 7022 00f3 49       		.uleb128 0x49
 7023 00f4 13       		.uleb128 0x13
 7024 00f5 00       		.byte	0
 7025 00f6 00       		.byte	0
 7026 00f7 16       		.uleb128 0x16
 7027 00f8 13       		.uleb128 0x13
 7028 00f9 01       		.byte	0x1
 7029 00fa 0B       		.uleb128 0xb
 7030 00fb 0B       		.uleb128 0xb
 7031 00fc 3A       		.uleb128 0x3a
 7032 00fd 0B       		.uleb128 0xb
 7033 00fe 3B       		.uleb128 0x3b
 7034 00ff 0B       		.uleb128 0xb
 7035 0100 01       		.uleb128 0x1
 7036 0101 13       		.uleb128 0x13
 7037 0102 00       		.byte	0
 7038 0103 00       		.byte	0
 7039 0104 17       		.uleb128 0x17
 7040 0105 0D       		.uleb128 0xd
ARM GAS  C:\Users\EBANO_~1\AppData\Local\Temp\ccyPWgHX.s 			page 165


 7041 0106 00       		.byte	0
 7042 0107 03       		.uleb128 0x3
 7043 0108 0E       		.uleb128 0xe
 7044 0109 3A       		.uleb128 0x3a
 7045 010a 0B       		.uleb128 0xb
 7046 010b 3B       		.uleb128 0x3b
 7047 010c 0B       		.uleb128 0xb
 7048 010d 49       		.uleb128 0x49
 7049 010e 13       		.uleb128 0x13
 7050 010f 38       		.uleb128 0x38
 7051 0110 0A       		.uleb128 0xa
 7052 0111 00       		.byte	0
 7053 0112 00       		.byte	0
 7054 0113 18       		.uleb128 0x18
 7055 0114 13       		.uleb128 0x13
 7056 0115 01       		.byte	0x1
 7057 0116 03       		.uleb128 0x3
 7058 0117 0E       		.uleb128 0xe
 7059 0118 0B       		.uleb128 0xb
 7060 0119 0B       		.uleb128 0xb
 7061 011a 3A       		.uleb128 0x3a
 7062 011b 0B       		.uleb128 0xb
 7063 011c 3B       		.uleb128 0x3b
 7064 011d 0B       		.uleb128 0xb
 7065 011e 01       		.uleb128 0x1
 7066 011f 13       		.uleb128 0x13
 7067 0120 00       		.byte	0
 7068 0121 00       		.byte	0
 7069 0122 19       		.uleb128 0x19
 7070 0123 0D       		.uleb128 0xd
 7071 0124 00       		.byte	0
 7072 0125 03       		.uleb128 0x3
 7073 0126 08       		.uleb128 0x8
 7074 0127 3A       		.uleb128 0x3a
 7075 0128 0B       		.uleb128 0xb
 7076 0129 3B       		.uleb128 0x3b
 7077 012a 0B       		.uleb128 0xb
 7078 012b 49       		.uleb128 0x49
 7079 012c 13       		.uleb128 0x13
 7080 012d 38       		.uleb128 0x38
 7081 012e 0A       		.uleb128 0xa
 7082 012f 00       		.byte	0
 7083 0130 00       		.byte	0
 7084 0131 1A       		.uleb128 0x1a
 7085 0132 13       		.uleb128 0x13
 7086 0133 01       		.byte	0x1
 7087 0134 03       		.uleb128 0x3
 7088 0135 0E       		.uleb128 0xe
 7089 0136 0B       		.uleb128 0xb
 7090 0137 05       		.uleb128 0x5
 7091 0138 3A       		.uleb128 0x3a
 7092 0139 0B       		.uleb128 0xb
 7093 013a 3B       		.uleb128 0x3b
 7094 013b 0B       		.uleb128 0xb
 7095 013c 01       		.uleb128 0x1
 7096 013d 13       		.uleb128 0x13
 7097 013e 00       		.byte	0
ARM GAS  C:\Users\EBANO_~1\AppData\Local\Temp\ccyPWgHX.s 			page 166


 7098 013f 00       		.byte	0
 7099 0140 1B       		.uleb128 0x1b
 7100 0141 15       		.uleb128 0x15
 7101 0142 00       		.byte	0
 7102 0143 27       		.uleb128 0x27
 7103 0144 0C       		.uleb128 0xc
 7104 0145 00       		.byte	0
 7105 0146 00       		.byte	0
 7106 0147 1C       		.uleb128 0x1c
 7107 0148 15       		.uleb128 0x15
 7108 0149 01       		.byte	0x1
 7109 014a 27       		.uleb128 0x27
 7110 014b 0C       		.uleb128 0xc
 7111 014c 49       		.uleb128 0x49
 7112 014d 13       		.uleb128 0x13
 7113 014e 01       		.uleb128 0x1
 7114 014f 13       		.uleb128 0x13
 7115 0150 00       		.byte	0
 7116 0151 00       		.byte	0
 7117 0152 1D       		.uleb128 0x1d
 7118 0153 05       		.uleb128 0x5
 7119 0154 00       		.byte	0
 7120 0155 49       		.uleb128 0x49
 7121 0156 13       		.uleb128 0x13
 7122 0157 00       		.byte	0
 7123 0158 00       		.byte	0
 7124 0159 1E       		.uleb128 0x1e
 7125 015a 13       		.uleb128 0x13
 7126 015b 01       		.byte	0x1
 7127 015c 03       		.uleb128 0x3
 7128 015d 0E       		.uleb128 0xe
 7129 015e 0B       		.uleb128 0xb
 7130 015f 05       		.uleb128 0x5
 7131 0160 3A       		.uleb128 0x3a
 7132 0161 0B       		.uleb128 0xb
 7133 0162 3B       		.uleb128 0x3b
 7134 0163 05       		.uleb128 0x5
 7135 0164 01       		.uleb128 0x1
 7136 0165 13       		.uleb128 0x13
 7137 0166 00       		.byte	0
 7138 0167 00       		.byte	0
 7139 0168 1F       		.uleb128 0x1f
 7140 0169 13       		.uleb128 0x13
 7141 016a 01       		.byte	0x1
 7142 016b 03       		.uleb128 0x3
 7143 016c 0E       		.uleb128 0xe
 7144 016d 0B       		.uleb128 0xb
 7145 016e 0B       		.uleb128 0xb
 7146 016f 3A       		.uleb128 0x3a
 7147 0170 0B       		.uleb128 0xb
 7148 0171 3B       		.uleb128 0x3b
 7149 0172 05       		.uleb128 0x5
 7150 0173 01       		.uleb128 0x1
 7151 0174 13       		.uleb128 0x13
 7152 0175 00       		.byte	0
 7153 0176 00       		.byte	0
 7154 0177 20       		.uleb128 0x20
ARM GAS  C:\Users\EBANO_~1\AppData\Local\Temp\ccyPWgHX.s 			page 167


 7155 0178 17       		.uleb128 0x17
 7156 0179 01       		.byte	0x1
 7157 017a 0B       		.uleb128 0xb
 7158 017b 0B       		.uleb128 0xb
 7159 017c 3A       		.uleb128 0x3a
 7160 017d 0B       		.uleb128 0xb
 7161 017e 3B       		.uleb128 0x3b
 7162 017f 05       		.uleb128 0x5
 7163 0180 01       		.uleb128 0x1
 7164 0181 13       		.uleb128 0x13
 7165 0182 00       		.byte	0
 7166 0183 00       		.byte	0
 7167 0184 21       		.uleb128 0x21
 7168 0185 0D       		.uleb128 0xd
 7169 0186 00       		.byte	0
 7170 0187 03       		.uleb128 0x3
 7171 0188 0E       		.uleb128 0xe
 7172 0189 3A       		.uleb128 0x3a
 7173 018a 0B       		.uleb128 0xb
 7174 018b 3B       		.uleb128 0x3b
 7175 018c 05       		.uleb128 0x5
 7176 018d 49       		.uleb128 0x49
 7177 018e 13       		.uleb128 0x13
 7178 018f 00       		.byte	0
 7179 0190 00       		.byte	0
 7180 0191 22       		.uleb128 0x22
 7181 0192 15       		.uleb128 0x15
 7182 0193 01       		.byte	0x1
 7183 0194 27       		.uleb128 0x27
 7184 0195 0C       		.uleb128 0xc
 7185 0196 01       		.uleb128 0x1
 7186 0197 13       		.uleb128 0x13
 7187 0198 00       		.byte	0
 7188 0199 00       		.byte	0
 7189 019a 23       		.uleb128 0x23
 7190 019b 34       		.uleb128 0x34
 7191 019c 00       		.byte	0
 7192 019d 03       		.uleb128 0x3
 7193 019e 0E       		.uleb128 0xe
 7194 019f 3A       		.uleb128 0x3a
 7195 01a0 0B       		.uleb128 0xb
 7196 01a1 3B       		.uleb128 0x3b
 7197 01a2 05       		.uleb128 0x5
 7198 01a3 49       		.uleb128 0x49
 7199 01a4 13       		.uleb128 0x13
 7200 01a5 3F       		.uleb128 0x3f
 7201 01a6 0C       		.uleb128 0xc
 7202 01a7 3C       		.uleb128 0x3c
 7203 01a8 0C       		.uleb128 0xc
 7204 01a9 00       		.byte	0
 7205 01aa 00       		.byte	0
 7206 01ab 24       		.uleb128 0x24
 7207 01ac 2E       		.uleb128 0x2e
 7208 01ad 01       		.byte	0x1
 7209 01ae 3F       		.uleb128 0x3f
 7210 01af 0C       		.uleb128 0xc
 7211 01b0 03       		.uleb128 0x3
ARM GAS  C:\Users\EBANO_~1\AppData\Local\Temp\ccyPWgHX.s 			page 168


 7212 01b1 0E       		.uleb128 0xe
 7213 01b2 3A       		.uleb128 0x3a
 7214 01b3 0B       		.uleb128 0xb
 7215 01b4 3B       		.uleb128 0x3b
 7216 01b5 05       		.uleb128 0x5
 7217 01b6 27       		.uleb128 0x27
 7218 01b7 0C       		.uleb128 0xc
 7219 01b8 49       		.uleb128 0x49
 7220 01b9 13       		.uleb128 0x13
 7221 01ba 11       		.uleb128 0x11
 7222 01bb 01       		.uleb128 0x1
 7223 01bc 12       		.uleb128 0x12
 7224 01bd 01       		.uleb128 0x1
 7225 01be 40       		.uleb128 0x40
 7226 01bf 06       		.uleb128 0x6
 7227 01c0 9742     		.uleb128 0x2117
 7228 01c2 0C       		.uleb128 0xc
 7229 01c3 01       		.uleb128 0x1
 7230 01c4 13       		.uleb128 0x13
 7231 01c5 00       		.byte	0
 7232 01c6 00       		.byte	0
 7233 01c7 25       		.uleb128 0x25
 7234 01c8 05       		.uleb128 0x5
 7235 01c9 00       		.byte	0
 7236 01ca 03       		.uleb128 0x3
 7237 01cb 0E       		.uleb128 0xe
 7238 01cc 3A       		.uleb128 0x3a
 7239 01cd 0B       		.uleb128 0xb
 7240 01ce 3B       		.uleb128 0x3b
 7241 01cf 05       		.uleb128 0x5
 7242 01d0 49       		.uleb128 0x49
 7243 01d1 13       		.uleb128 0x13
 7244 01d2 02       		.uleb128 0x2
 7245 01d3 06       		.uleb128 0x6
 7246 01d4 00       		.byte	0
 7247 01d5 00       		.byte	0
 7248 01d6 26       		.uleb128 0x26
 7249 01d7 34       		.uleb128 0x34
 7250 01d8 00       		.byte	0
 7251 01d9 03       		.uleb128 0x3
 7252 01da 0E       		.uleb128 0xe
 7253 01db 3A       		.uleb128 0x3a
 7254 01dc 0B       		.uleb128 0xb
 7255 01dd 3B       		.uleb128 0x3b
 7256 01de 05       		.uleb128 0x5
 7257 01df 49       		.uleb128 0x49
 7258 01e0 13       		.uleb128 0x13
 7259 01e1 02       		.uleb128 0x2
 7260 01e2 06       		.uleb128 0x6
 7261 01e3 00       		.byte	0
 7262 01e4 00       		.byte	0
 7263 01e5 27       		.uleb128 0x27
 7264 01e6 898201   		.uleb128 0x4109
 7265 01e9 00       		.byte	0
 7266 01ea 11       		.uleb128 0x11
 7267 01eb 01       		.uleb128 0x1
 7268 01ec 31       		.uleb128 0x31
ARM GAS  C:\Users\EBANO_~1\AppData\Local\Temp\ccyPWgHX.s 			page 169


 7269 01ed 13       		.uleb128 0x13
 7270 01ee 00       		.byte	0
 7271 01ef 00       		.byte	0
 7272 01f0 28       		.uleb128 0x28
 7273 01f1 2E       		.uleb128 0x2e
 7274 01f2 01       		.byte	0x1
 7275 01f3 3F       		.uleb128 0x3f
 7276 01f4 0C       		.uleb128 0xc
 7277 01f5 03       		.uleb128 0x3
 7278 01f6 0E       		.uleb128 0xe
 7279 01f7 3A       		.uleb128 0x3a
 7280 01f8 0B       		.uleb128 0xb
 7281 01f9 3B       		.uleb128 0x3b
 7282 01fa 05       		.uleb128 0x5
 7283 01fb 27       		.uleb128 0x27
 7284 01fc 0C       		.uleb128 0xc
 7285 01fd 01       		.uleb128 0x1
 7286 01fe 13       		.uleb128 0x13
 7287 01ff 00       		.byte	0
 7288 0200 00       		.byte	0
 7289 0201 29       		.uleb128 0x29
 7290 0202 05       		.uleb128 0x5
 7291 0203 00       		.byte	0
 7292 0204 03       		.uleb128 0x3
 7293 0205 0E       		.uleb128 0xe
 7294 0206 3A       		.uleb128 0x3a
 7295 0207 0B       		.uleb128 0xb
 7296 0208 3B       		.uleb128 0x3b
 7297 0209 05       		.uleb128 0x5
 7298 020a 49       		.uleb128 0x49
 7299 020b 13       		.uleb128 0x13
 7300 020c 00       		.byte	0
 7301 020d 00       		.byte	0
 7302 020e 2A       		.uleb128 0x2a
 7303 020f 898201   		.uleb128 0x4109
 7304 0212 01       		.byte	0x1
 7305 0213 11       		.uleb128 0x11
 7306 0214 01       		.uleb128 0x1
 7307 0215 31       		.uleb128 0x31
 7308 0216 13       		.uleb128 0x13
 7309 0217 00       		.byte	0
 7310 0218 00       		.byte	0
 7311 0219 2B       		.uleb128 0x2b
 7312 021a 8A8201   		.uleb128 0x410a
 7313 021d 00       		.byte	0
 7314 021e 02       		.uleb128 0x2
 7315 021f 0A       		.uleb128 0xa
 7316 0220 9142     		.uleb128 0x2111
 7317 0222 0A       		.uleb128 0xa
 7318 0223 00       		.byte	0
 7319 0224 00       		.byte	0
 7320 0225 2C       		.uleb128 0x2c
 7321 0226 2E       		.uleb128 0x2e
 7322 0227 01       		.byte	0x1
 7323 0228 3F       		.uleb128 0x3f
 7324 0229 0C       		.uleb128 0xc
 7325 022a 03       		.uleb128 0x3
ARM GAS  C:\Users\EBANO_~1\AppData\Local\Temp\ccyPWgHX.s 			page 170


 7326 022b 0E       		.uleb128 0xe
 7327 022c 3A       		.uleb128 0x3a
 7328 022d 0B       		.uleb128 0xb
 7329 022e 3B       		.uleb128 0x3b
 7330 022f 05       		.uleb128 0x5
 7331 0230 27       		.uleb128 0x27
 7332 0231 0C       		.uleb128 0xc
 7333 0232 49       		.uleb128 0x49
 7334 0233 13       		.uleb128 0x13
 7335 0234 11       		.uleb128 0x11
 7336 0235 01       		.uleb128 0x1
 7337 0236 12       		.uleb128 0x12
 7338 0237 01       		.uleb128 0x1
 7339 0238 40       		.uleb128 0x40
 7340 0239 0A       		.uleb128 0xa
 7341 023a 9742     		.uleb128 0x2117
 7342 023c 0C       		.uleb128 0xc
 7343 023d 01       		.uleb128 0x1
 7344 023e 13       		.uleb128 0x13
 7345 023f 00       		.byte	0
 7346 0240 00       		.byte	0
 7347 0241 2D       		.uleb128 0x2d
 7348 0242 34       		.uleb128 0x34
 7349 0243 00       		.byte	0
 7350 0244 03       		.uleb128 0x3
 7351 0245 08       		.uleb128 0x8
 7352 0246 3A       		.uleb128 0x3a
 7353 0247 0B       		.uleb128 0xb
 7354 0248 3B       		.uleb128 0x3b
 7355 0249 05       		.uleb128 0x5
 7356 024a 49       		.uleb128 0x49
 7357 024b 13       		.uleb128 0x13
 7358 024c 02       		.uleb128 0x2
 7359 024d 06       		.uleb128 0x6
 7360 024e 00       		.byte	0
 7361 024f 00       		.byte	0
 7362 0250 2E       		.uleb128 0x2e
 7363 0251 2E       		.uleb128 0x2e
 7364 0252 01       		.byte	0x1
 7365 0253 3F       		.uleb128 0x3f
 7366 0254 0C       		.uleb128 0xc
 7367 0255 03       		.uleb128 0x3
 7368 0256 0E       		.uleb128 0xe
 7369 0257 3A       		.uleb128 0x3a
 7370 0258 0B       		.uleb128 0xb
 7371 0259 3B       		.uleb128 0x3b
 7372 025a 05       		.uleb128 0x5
 7373 025b 27       		.uleb128 0x27
 7374 025c 0C       		.uleb128 0xc
 7375 025d 11       		.uleb128 0x11
 7376 025e 01       		.uleb128 0x1
 7377 025f 12       		.uleb128 0x12
 7378 0260 01       		.uleb128 0x1
 7379 0261 40       		.uleb128 0x40
 7380 0262 0A       		.uleb128 0xa
 7381 0263 9742     		.uleb128 0x2117
 7382 0265 0C       		.uleb128 0xc
ARM GAS  C:\Users\EBANO_~1\AppData\Local\Temp\ccyPWgHX.s 			page 171


 7383 0266 01       		.uleb128 0x1
 7384 0267 13       		.uleb128 0x13
 7385 0268 00       		.byte	0
 7386 0269 00       		.byte	0
 7387 026a 2F       		.uleb128 0x2f
 7388 026b 05       		.uleb128 0x5
 7389 026c 00       		.byte	0
 7390 026d 03       		.uleb128 0x3
 7391 026e 0E       		.uleb128 0xe
 7392 026f 3A       		.uleb128 0x3a
 7393 0270 0B       		.uleb128 0xb
 7394 0271 3B       		.uleb128 0x3b
 7395 0272 05       		.uleb128 0x5
 7396 0273 49       		.uleb128 0x49
 7397 0274 13       		.uleb128 0x13
 7398 0275 02       		.uleb128 0x2
 7399 0276 0A       		.uleb128 0xa
 7400 0277 00       		.byte	0
 7401 0278 00       		.byte	0
 7402 0279 30       		.uleb128 0x30
 7403 027a 2E       		.uleb128 0x2e
 7404 027b 01       		.byte	0x1
 7405 027c 3F       		.uleb128 0x3f
 7406 027d 0C       		.uleb128 0xc
 7407 027e 03       		.uleb128 0x3
 7408 027f 0E       		.uleb128 0xe
 7409 0280 3A       		.uleb128 0x3a
 7410 0281 0B       		.uleb128 0xb
 7411 0282 3B       		.uleb128 0x3b
 7412 0283 05       		.uleb128 0x5
 7413 0284 27       		.uleb128 0x27
 7414 0285 0C       		.uleb128 0xc
 7415 0286 11       		.uleb128 0x11
 7416 0287 01       		.uleb128 0x1
 7417 0288 12       		.uleb128 0x12
 7418 0289 01       		.uleb128 0x1
 7419 028a 40       		.uleb128 0x40
 7420 028b 06       		.uleb128 0x6
 7421 028c 9742     		.uleb128 0x2117
 7422 028e 0C       		.uleb128 0xc
 7423 028f 01       		.uleb128 0x1
 7424 0290 13       		.uleb128 0x13
 7425 0291 00       		.byte	0
 7426 0292 00       		.byte	0
 7427 0293 31       		.uleb128 0x31
 7428 0294 2E       		.uleb128 0x2e
 7429 0295 01       		.byte	0x1
 7430 0296 3F       		.uleb128 0x3f
 7431 0297 0C       		.uleb128 0xc
 7432 0298 03       		.uleb128 0x3
 7433 0299 0E       		.uleb128 0xe
 7434 029a 3A       		.uleb128 0x3a
 7435 029b 0B       		.uleb128 0xb
 7436 029c 3B       		.uleb128 0x3b
 7437 029d 05       		.uleb128 0x5
 7438 029e 27       		.uleb128 0x27
 7439 029f 0C       		.uleb128 0xc
ARM GAS  C:\Users\EBANO_~1\AppData\Local\Temp\ccyPWgHX.s 			page 172


 7440 02a0 20       		.uleb128 0x20
 7441 02a1 0B       		.uleb128 0xb
 7442 02a2 01       		.uleb128 0x1
 7443 02a3 13       		.uleb128 0x13
 7444 02a4 00       		.byte	0
 7445 02a5 00       		.byte	0
 7446 02a6 32       		.uleb128 0x32
 7447 02a7 898201   		.uleb128 0x4109
 7448 02aa 01       		.byte	0x1
 7449 02ab 11       		.uleb128 0x11
 7450 02ac 01       		.uleb128 0x1
 7451 02ad 31       		.uleb128 0x31
 7452 02ae 13       		.uleb128 0x13
 7453 02af 01       		.uleb128 0x1
 7454 02b0 13       		.uleb128 0x13
 7455 02b1 00       		.byte	0
 7456 02b2 00       		.byte	0
 7457 02b3 33       		.uleb128 0x33
 7458 02b4 2E       		.uleb128 0x2e
 7459 02b5 01       		.byte	0x1
 7460 02b6 3F       		.uleb128 0x3f
 7461 02b7 0C       		.uleb128 0xc
 7462 02b8 03       		.uleb128 0x3
 7463 02b9 0E       		.uleb128 0xe
 7464 02ba 3A       		.uleb128 0x3a
 7465 02bb 0B       		.uleb128 0xb
 7466 02bc 3B       		.uleb128 0x3b
 7467 02bd 0B       		.uleb128 0xb
 7468 02be 27       		.uleb128 0x27
 7469 02bf 0C       		.uleb128 0xc
 7470 02c0 49       		.uleb128 0x49
 7471 02c1 13       		.uleb128 0x13
 7472 02c2 11       		.uleb128 0x11
 7473 02c3 01       		.uleb128 0x1
 7474 02c4 12       		.uleb128 0x12
 7475 02c5 01       		.uleb128 0x1
 7476 02c6 40       		.uleb128 0x40
 7477 02c7 06       		.uleb128 0x6
 7478 02c8 9742     		.uleb128 0x2117
 7479 02ca 0C       		.uleb128 0xc
 7480 02cb 01       		.uleb128 0x1
 7481 02cc 13       		.uleb128 0x13
 7482 02cd 00       		.byte	0
 7483 02ce 00       		.byte	0
 7484 02cf 34       		.uleb128 0x34
 7485 02d0 05       		.uleb128 0x5
 7486 02d1 00       		.byte	0
 7487 02d2 03       		.uleb128 0x3
 7488 02d3 0E       		.uleb128 0xe
 7489 02d4 3A       		.uleb128 0x3a
 7490 02d5 0B       		.uleb128 0xb
 7491 02d6 3B       		.uleb128 0x3b
 7492 02d7 0B       		.uleb128 0xb
 7493 02d8 49       		.uleb128 0x49
 7494 02d9 13       		.uleb128 0x13
 7495 02da 02       		.uleb128 0x2
 7496 02db 06       		.uleb128 0x6
ARM GAS  C:\Users\EBANO_~1\AppData\Local\Temp\ccyPWgHX.s 			page 173


 7497 02dc 00       		.byte	0
 7498 02dd 00       		.byte	0
 7499 02de 35       		.uleb128 0x35
 7500 02df 34       		.uleb128 0x34
 7501 02e0 00       		.byte	0
 7502 02e1 03       		.uleb128 0x3
 7503 02e2 0E       		.uleb128 0xe
 7504 02e3 3A       		.uleb128 0x3a
 7505 02e4 0B       		.uleb128 0xb
 7506 02e5 3B       		.uleb128 0x3b
 7507 02e6 0B       		.uleb128 0xb
 7508 02e7 49       		.uleb128 0x49
 7509 02e8 13       		.uleb128 0x13
 7510 02e9 02       		.uleb128 0x2
 7511 02ea 06       		.uleb128 0x6
 7512 02eb 00       		.byte	0
 7513 02ec 00       		.byte	0
 7514 02ed 36       		.uleb128 0x36
 7515 02ee 2E       		.uleb128 0x2e
 7516 02ef 01       		.byte	0x1
 7517 02f0 31       		.uleb128 0x31
 7518 02f1 13       		.uleb128 0x13
 7519 02f2 11       		.uleb128 0x11
 7520 02f3 01       		.uleb128 0x1
 7521 02f4 12       		.uleb128 0x12
 7522 02f5 01       		.uleb128 0x1
 7523 02f6 40       		.uleb128 0x40
 7524 02f7 0A       		.uleb128 0xa
 7525 02f8 9742     		.uleb128 0x2117
 7526 02fa 0C       		.uleb128 0xc
 7527 02fb 01       		.uleb128 0x1
 7528 02fc 13       		.uleb128 0x13
 7529 02fd 00       		.byte	0
 7530 02fe 00       		.byte	0
 7531 02ff 37       		.uleb128 0x37
 7532 0300 05       		.uleb128 0x5
 7533 0301 00       		.byte	0
 7534 0302 31       		.uleb128 0x31
 7535 0303 13       		.uleb128 0x13
 7536 0304 02       		.uleb128 0x2
 7537 0305 0A       		.uleb128 0xa
 7538 0306 00       		.byte	0
 7539 0307 00       		.byte	0
 7540 0308 38       		.uleb128 0x38
 7541 0309 2E       		.uleb128 0x2e
 7542 030a 00       		.byte	0
 7543 030b 3F       		.uleb128 0x3f
 7544 030c 0C       		.uleb128 0xc
 7545 030d 3C       		.uleb128 0x3c
 7546 030e 0C       		.uleb128 0xc
 7547 030f 8740     		.uleb128 0x2007
 7548 0311 0E       		.uleb128 0xe
 7549 0312 03       		.uleb128 0x3
 7550 0313 0E       		.uleb128 0xe
 7551 0314 3A       		.uleb128 0x3a
 7552 0315 0B       		.uleb128 0xb
 7553 0316 3B       		.uleb128 0x3b
ARM GAS  C:\Users\EBANO_~1\AppData\Local\Temp\ccyPWgHX.s 			page 174


 7554 0317 05       		.uleb128 0x5
 7555 0318 00       		.byte	0
 7556 0319 00       		.byte	0
 7557 031a 00       		.byte	0
 7558              		.section	.debug_loc,"",%progbits
 7559              	.Ldebug_loc0:
 7560              	.LLST98:
 7561 0000 00000000 		.4byte	.LFB73
 7562 0004 02000000 		.4byte	.LCFI34
 7563 0008 0200     		.2byte	0x2
 7564 000a 7D       		.byte	0x7d
 7565 000b 00       		.sleb128 0
 7566 000c 02000000 		.4byte	.LCFI34
 7567 0010 58000000 		.4byte	.LFE73
 7568 0014 0200     		.2byte	0x2
 7569 0016 7D       		.byte	0x7d
 7570 0017 18       		.sleb128 24
 7571 0018 00000000 		.4byte	0
 7572 001c 00000000 		.4byte	0
 7573              	.LLST99:
 7574 0020 00000000 		.4byte	.LVL248
 7575 0024 09000000 		.4byte	.LVL249-1
 7576 0028 0100     		.2byte	0x1
 7577 002a 50       		.byte	0x50
 7578 002b 09000000 		.4byte	.LVL249-1
 7579 002f 34000000 		.4byte	.LVL253
 7580 0033 0100     		.2byte	0x1
 7581 0035 55       		.byte	0x55
 7582 0036 34000000 		.4byte	.LVL253
 7583 003a 36000000 		.4byte	.LVL255
 7584 003e 0400     		.2byte	0x4
 7585 0040 F3       		.byte	0xf3
 7586 0041 01       		.uleb128 0x1
 7587 0042 50       		.byte	0x50
 7588 0043 9F       		.byte	0x9f
 7589 0044 36000000 		.4byte	.LVL255
 7590 0048 58000000 		.4byte	.LFE73
 7591 004c 0100     		.2byte	0x1
 7592 004e 55       		.byte	0x55
 7593 004f 00000000 		.4byte	0
 7594 0053 00000000 		.4byte	0
 7595              	.LLST100:
 7596 0057 00000000 		.4byte	.LVL248
 7597 005b 09000000 		.4byte	.LVL249-1
 7598 005f 0100     		.2byte	0x1
 7599 0061 51       		.byte	0x51
 7600 0062 09000000 		.4byte	.LVL249-1
 7601 0066 34000000 		.4byte	.LVL252
 7602 006a 0100     		.2byte	0x1
 7603 006c 54       		.byte	0x54
 7604 006d 34000000 		.4byte	.LVL252
 7605 0071 36000000 		.4byte	.LVL255
 7606 0075 0400     		.2byte	0x4
 7607 0077 F3       		.byte	0xf3
 7608 0078 01       		.uleb128 0x1
 7609 0079 51       		.byte	0x51
 7610 007a 9F       		.byte	0x9f
ARM GAS  C:\Users\EBANO_~1\AppData\Local\Temp\ccyPWgHX.s 			page 175


 7611 007b 36000000 		.4byte	.LVL255
 7612 007f 58000000 		.4byte	.LFE73
 7613 0083 0100     		.2byte	0x1
 7614 0085 54       		.byte	0x54
 7615 0086 00000000 		.4byte	0
 7616 008a 00000000 		.4byte	0
 7617              	.LLST101:
 7618 008e 0E000000 		.4byte	.LVL250
 7619 0092 10000000 		.4byte	.LVL251
 7620 0096 0100     		.2byte	0x1
 7621 0098 50       		.byte	0x50
 7622 0099 10000000 		.4byte	.LVL251
 7623 009d 34000000 		.4byte	.LVL254
 7624 00a1 0100     		.2byte	0x1
 7625 00a3 57       		.byte	0x57
 7626 00a4 36000000 		.4byte	.LVL255
 7627 00a8 58000000 		.4byte	.LFE73
 7628 00ac 0100     		.2byte	0x1
 7629 00ae 57       		.byte	0x57
 7630 00af 00000000 		.4byte	0
 7631 00b3 00000000 		.4byte	0
 7632              	.LLST96:
 7633 00b7 00000000 		.4byte	.LFB71
 7634 00bb 04000000 		.4byte	.LCFI33
 7635 00bf 0200     		.2byte	0x2
 7636 00c1 7D       		.byte	0x7d
 7637 00c2 00       		.sleb128 0
 7638 00c3 04000000 		.4byte	.LCFI33
 7639 00c7 36000000 		.4byte	.LFE71
 7640 00cb 0200     		.2byte	0x2
 7641 00cd 7D       		.byte	0x7d
 7642 00ce 0C       		.sleb128 12
 7643 00cf 00000000 		.4byte	0
 7644 00d3 00000000 		.4byte	0
 7645              	.LLST97:
 7646 00d7 00000000 		.4byte	.LVL244
 7647 00db 30000000 		.4byte	.LVL245
 7648 00df 0100     		.2byte	0x1
 7649 00e1 50       		.byte	0x50
 7650 00e2 30000000 		.4byte	.LVL245
 7651 00e6 32000000 		.4byte	.LVL246
 7652 00ea 0400     		.2byte	0x4
 7653 00ec F3       		.byte	0xf3
 7654 00ed 01       		.uleb128 0x1
 7655 00ee 50       		.byte	0x50
 7656 00ef 9F       		.byte	0x9f
 7657 00f0 32000000 		.4byte	.LVL246
 7658 00f4 34000000 		.4byte	.LVL247
 7659 00f8 0100     		.2byte	0x1
 7660 00fa 50       		.byte	0x50
 7661 00fb 34000000 		.4byte	.LVL247
 7662 00ff 36000000 		.4byte	.LFE71
 7663 0103 0400     		.2byte	0x4
 7664 0105 F3       		.byte	0xf3
 7665 0106 01       		.uleb128 0x1
 7666 0107 50       		.byte	0x50
 7667 0108 9F       		.byte	0x9f
ARM GAS  C:\Users\EBANO_~1\AppData\Local\Temp\ccyPWgHX.s 			page 176


 7668 0109 00000000 		.4byte	0
 7669 010d 00000000 		.4byte	0
 7670              	.LLST94:
 7671 0111 00000000 		.4byte	.LFB70
 7672 0115 04000000 		.4byte	.LCFI32
 7673 0119 0200     		.2byte	0x2
 7674 011b 7D       		.byte	0x7d
 7675 011c 00       		.sleb128 0
 7676 011d 04000000 		.4byte	.LCFI32
 7677 0121 34000000 		.4byte	.LFE70
 7678 0125 0200     		.2byte	0x2
 7679 0127 7D       		.byte	0x7d
 7680 0128 08       		.sleb128 8
 7681 0129 00000000 		.4byte	0
 7682 012d 00000000 		.4byte	0
 7683              	.LLST95:
 7684 0131 00000000 		.4byte	.LVL240
 7685 0135 2E000000 		.4byte	.LVL241
 7686 0139 0100     		.2byte	0x1
 7687 013b 50       		.byte	0x50
 7688 013c 2E000000 		.4byte	.LVL241
 7689 0140 30000000 		.4byte	.LVL242
 7690 0144 0400     		.2byte	0x4
 7691 0146 F3       		.byte	0xf3
 7692 0147 01       		.uleb128 0x1
 7693 0148 50       		.byte	0x50
 7694 0149 9F       		.byte	0x9f
 7695 014a 30000000 		.4byte	.LVL242
 7696 014e 32000000 		.4byte	.LVL243
 7697 0152 0100     		.2byte	0x1
 7698 0154 50       		.byte	0x50
 7699 0155 32000000 		.4byte	.LVL243
 7700 0159 34000000 		.4byte	.LFE70
 7701 015d 0400     		.2byte	0x4
 7702 015f F3       		.byte	0xf3
 7703 0160 01       		.uleb128 0x1
 7704 0161 50       		.byte	0x50
 7705 0162 9F       		.byte	0x9f
 7706 0163 00000000 		.4byte	0
 7707 0167 00000000 		.4byte	0
 7708              	.LLST92:
 7709 016b 00000000 		.4byte	.LFB69
 7710 016f 02000000 		.4byte	.LCFI31
 7711 0173 0200     		.2byte	0x2
 7712 0175 7D       		.byte	0x7d
 7713 0176 00       		.sleb128 0
 7714 0177 02000000 		.4byte	.LCFI31
 7715 017b 58000000 		.4byte	.LFE69
 7716 017f 0200     		.2byte	0x2
 7717 0181 7D       		.byte	0x7d
 7718 0182 18       		.sleb128 24
 7719 0183 00000000 		.4byte	0
 7720 0187 00000000 		.4byte	0
 7721              	.LLST93:
 7722 018b 00000000 		.4byte	.LVL234
 7723 018f 23000000 		.4byte	.LVL235-1
 7724 0193 0100     		.2byte	0x1
ARM GAS  C:\Users\EBANO_~1\AppData\Local\Temp\ccyPWgHX.s 			page 177


 7725 0195 50       		.byte	0x50
 7726 0196 23000000 		.4byte	.LVL235-1
 7727 019a 42000000 		.4byte	.LVL236
 7728 019e 0100     		.2byte	0x1
 7729 01a0 54       		.byte	0x54
 7730 01a1 42000000 		.4byte	.LVL236
 7731 01a5 44000000 		.4byte	.LVL237
 7732 01a9 0400     		.2byte	0x4
 7733 01ab F3       		.byte	0xf3
 7734 01ac 01       		.uleb128 0x1
 7735 01ad 50       		.byte	0x50
 7736 01ae 9F       		.byte	0x9f
 7737 01af 44000000 		.4byte	.LVL237
 7738 01b3 54000000 		.4byte	.LVL238
 7739 01b7 0100     		.2byte	0x1
 7740 01b9 54       		.byte	0x54
 7741 01ba 54000000 		.4byte	.LVL238
 7742 01be 56000000 		.4byte	.LVL239
 7743 01c2 0100     		.2byte	0x1
 7744 01c4 50       		.byte	0x50
 7745 01c5 56000000 		.4byte	.LVL239
 7746 01c9 58000000 		.4byte	.LFE69
 7747 01cd 0100     		.2byte	0x1
 7748 01cf 54       		.byte	0x54
 7749 01d0 00000000 		.4byte	0
 7750 01d4 00000000 		.4byte	0
 7751              	.LLST90:
 7752 01d8 00000000 		.4byte	.LFB68
 7753 01dc 02000000 		.4byte	.LCFI30
 7754 01e0 0200     		.2byte	0x2
 7755 01e2 7D       		.byte	0x7d
 7756 01e3 00       		.sleb128 0
 7757 01e4 02000000 		.4byte	.LCFI30
 7758 01e8 58000000 		.4byte	.LFE68
 7759 01ec 0200     		.2byte	0x2
 7760 01ee 7D       		.byte	0x7d
 7761 01ef 18       		.sleb128 24
 7762 01f0 00000000 		.4byte	0
 7763 01f4 00000000 		.4byte	0
 7764              	.LLST91:
 7765 01f8 00000000 		.4byte	.LVL228
 7766 01fc 23000000 		.4byte	.LVL229-1
 7767 0200 0100     		.2byte	0x1
 7768 0202 50       		.byte	0x50
 7769 0203 23000000 		.4byte	.LVL229-1
 7770 0207 42000000 		.4byte	.LVL230
 7771 020b 0100     		.2byte	0x1
 7772 020d 54       		.byte	0x54
 7773 020e 42000000 		.4byte	.LVL230
 7774 0212 44000000 		.4byte	.LVL231
 7775 0216 0400     		.2byte	0x4
 7776 0218 F3       		.byte	0xf3
 7777 0219 01       		.uleb128 0x1
 7778 021a 50       		.byte	0x50
 7779 021b 9F       		.byte	0x9f
 7780 021c 44000000 		.4byte	.LVL231
 7781 0220 54000000 		.4byte	.LVL232
ARM GAS  C:\Users\EBANO_~1\AppData\Local\Temp\ccyPWgHX.s 			page 178


 7782 0224 0100     		.2byte	0x1
 7783 0226 54       		.byte	0x54
 7784 0227 54000000 		.4byte	.LVL232
 7785 022b 56000000 		.4byte	.LVL233
 7786 022f 0100     		.2byte	0x1
 7787 0231 50       		.byte	0x50
 7788 0232 56000000 		.4byte	.LVL233
 7789 0236 58000000 		.4byte	.LFE68
 7790 023a 0100     		.2byte	0x1
 7791 023c 54       		.byte	0x54
 7792 023d 00000000 		.4byte	0
 7793 0241 00000000 		.4byte	0
 7794              	.LLST88:
 7795 0245 00000000 		.4byte	.LFB67
 7796 0249 04000000 		.4byte	.LCFI29
 7797 024d 0200     		.2byte	0x2
 7798 024f 7D       		.byte	0x7d
 7799 0250 00       		.sleb128 0
 7800 0251 04000000 		.4byte	.LCFI29
 7801 0255 3C000000 		.4byte	.LFE67
 7802 0259 0200     		.2byte	0x2
 7803 025b 7D       		.byte	0x7d
 7804 025c 0C       		.sleb128 12
 7805 025d 00000000 		.4byte	0
 7806 0261 00000000 		.4byte	0
 7807              	.LLST89:
 7808 0265 00000000 		.4byte	.LVL224
 7809 0269 30000000 		.4byte	.LVL225
 7810 026d 0100     		.2byte	0x1
 7811 026f 50       		.byte	0x50
 7812 0270 30000000 		.4byte	.LVL225
 7813 0274 32000000 		.4byte	.LVL226
 7814 0278 0400     		.2byte	0x4
 7815 027a F3       		.byte	0xf3
 7816 027b 01       		.uleb128 0x1
 7817 027c 50       		.byte	0x50
 7818 027d 9F       		.byte	0x9f
 7819 027e 32000000 		.4byte	.LVL226
 7820 0282 34000000 		.4byte	.LVL227
 7821 0286 0100     		.2byte	0x1
 7822 0288 50       		.byte	0x50
 7823 0289 34000000 		.4byte	.LVL227
 7824 028d 3C000000 		.4byte	.LFE67
 7825 0291 0400     		.2byte	0x4
 7826 0293 F3       		.byte	0xf3
 7827 0294 01       		.uleb128 0x1
 7828 0295 50       		.byte	0x50
 7829 0296 9F       		.byte	0x9f
 7830 0297 00000000 		.4byte	0
 7831 029b 00000000 		.4byte	0
 7832              	.LLST85:
 7833 029f 00000000 		.4byte	.LFB66
 7834 02a3 02000000 		.4byte	.LCFI28
 7835 02a7 0200     		.2byte	0x2
 7836 02a9 7D       		.byte	0x7d
 7837 02aa 00       		.sleb128 0
 7838 02ab 02000000 		.4byte	.LCFI28
ARM GAS  C:\Users\EBANO_~1\AppData\Local\Temp\ccyPWgHX.s 			page 179


 7839 02af 4C000000 		.4byte	.LFE66
 7840 02b3 0200     		.2byte	0x2
 7841 02b5 7D       		.byte	0x7d
 7842 02b6 10       		.sleb128 16
 7843 02b7 00000000 		.4byte	0
 7844 02bb 00000000 		.4byte	0
 7845              	.LLST86:
 7846 02bf 00000000 		.4byte	.LVL219
 7847 02c3 40000000 		.4byte	.LVL221
 7848 02c7 0100     		.2byte	0x1
 7849 02c9 50       		.byte	0x50
 7850 02ca 40000000 		.4byte	.LVL221
 7851 02ce 42000000 		.4byte	.LVL222
 7852 02d2 0400     		.2byte	0x4
 7853 02d4 F3       		.byte	0xf3
 7854 02d5 01       		.uleb128 0x1
 7855 02d6 50       		.byte	0x50
 7856 02d7 9F       		.byte	0x9f
 7857 02d8 42000000 		.4byte	.LVL222
 7858 02dc 44000000 		.4byte	.LVL223
 7859 02e0 0100     		.2byte	0x1
 7860 02e2 50       		.byte	0x50
 7861 02e3 44000000 		.4byte	.LVL223
 7862 02e7 4C000000 		.4byte	.LFE66
 7863 02eb 0400     		.2byte	0x4
 7864 02ed F3       		.byte	0xf3
 7865 02ee 01       		.uleb128 0x1
 7866 02ef 50       		.byte	0x50
 7867 02f0 9F       		.byte	0x9f
 7868 02f1 00000000 		.4byte	0
 7869 02f5 00000000 		.4byte	0
 7870              	.LLST87:
 7871 02f9 00000000 		.4byte	.LVL219
 7872 02fd 26000000 		.4byte	.LVL220
 7873 0301 0100     		.2byte	0x1
 7874 0303 51       		.byte	0x51
 7875 0304 26000000 		.4byte	.LVL220
 7876 0308 42000000 		.4byte	.LVL222
 7877 030c 0400     		.2byte	0x4
 7878 030e F3       		.byte	0xf3
 7879 030f 01       		.uleb128 0x1
 7880 0310 51       		.byte	0x51
 7881 0311 9F       		.byte	0x9f
 7882 0312 42000000 		.4byte	.LVL222
 7883 0316 4C000000 		.4byte	.LFE66
 7884 031a 0100     		.2byte	0x1
 7885 031c 51       		.byte	0x51
 7886 031d 00000000 		.4byte	0
 7887 0321 00000000 		.4byte	0
 7888              	.LLST80:
 7889 0325 00000000 		.4byte	.LFB65
 7890 0329 02000000 		.4byte	.LCFI26
 7891 032d 0200     		.2byte	0x2
 7892 032f 7D       		.byte	0x7d
 7893 0330 00       		.sleb128 0
 7894 0331 02000000 		.4byte	.LCFI26
 7895 0335 0A000000 		.4byte	.LCFI27
ARM GAS  C:\Users\EBANO_~1\AppData\Local\Temp\ccyPWgHX.s 			page 180


 7896 0339 0200     		.2byte	0x2
 7897 033b 7D       		.byte	0x7d
 7898 033c 18       		.sleb128 24
 7899 033d 0A000000 		.4byte	.LCFI27
 7900 0341 C6000000 		.4byte	.LFE65
 7901 0345 0200     		.2byte	0x2
 7902 0347 7D       		.byte	0x7d
 7903 0348 20       		.sleb128 32
 7904 0349 00000000 		.4byte	0
 7905 034d 00000000 		.4byte	0
 7906              	.LLST81:
 7907 0351 00000000 		.4byte	.LVL204
 7908 0355 2D000000 		.4byte	.LVL206-1
 7909 0359 0100     		.2byte	0x1
 7910 035b 50       		.byte	0x50
 7911 035c 2D000000 		.4byte	.LVL206-1
 7912 0360 88000000 		.4byte	.LVL211
 7913 0364 0100     		.2byte	0x1
 7914 0366 54       		.byte	0x54
 7915 0367 88000000 		.4byte	.LVL211
 7916 036b 90000000 		.4byte	.LVL214
 7917 036f 0400     		.2byte	0x4
 7918 0371 F3       		.byte	0xf3
 7919 0372 01       		.uleb128 0x1
 7920 0373 50       		.byte	0x50
 7921 0374 9F       		.byte	0x9f
 7922 0375 90000000 		.4byte	.LVL214
 7923 0379 92000000 		.4byte	.LVL215
 7924 037d 0100     		.2byte	0x1
 7925 037f 50       		.byte	0x50
 7926 0380 92000000 		.4byte	.LVL215
 7927 0384 C6000000 		.4byte	.LFE65
 7928 0388 0100     		.2byte	0x1
 7929 038a 54       		.byte	0x54
 7930 038b 00000000 		.4byte	0
 7931 038f 00000000 		.4byte	0
 7932              	.LLST82:
 7933 0393 00000000 		.4byte	.LVL204
 7934 0397 2D000000 		.4byte	.LVL206-1
 7935 039b 0100     		.2byte	0x1
 7936 039d 51       		.byte	0x51
 7937 039e 2D000000 		.4byte	.LVL206-1
 7938 03a2 88000000 		.4byte	.LVL213
 7939 03a6 0100     		.2byte	0x1
 7940 03a8 59       		.byte	0x59
 7941 03a9 88000000 		.4byte	.LVL213
 7942 03ad 90000000 		.4byte	.LVL214
 7943 03b1 0400     		.2byte	0x4
 7944 03b3 F3       		.byte	0xf3
 7945 03b4 01       		.uleb128 0x1
 7946 03b5 51       		.byte	0x51
 7947 03b6 9F       		.byte	0x9f
 7948 03b7 90000000 		.4byte	.LVL214
 7949 03bb 94000000 		.4byte	.LVL216
 7950 03bf 0100     		.2byte	0x1
 7951 03c1 51       		.byte	0x51
 7952 03c2 94000000 		.4byte	.LVL216
ARM GAS  C:\Users\EBANO_~1\AppData\Local\Temp\ccyPWgHX.s 			page 181


 7953 03c6 A6000000 		.4byte	.LVL217
 7954 03ca 0100     		.2byte	0x1
 7955 03cc 59       		.byte	0x59
 7956 03cd A6000000 		.4byte	.LVL217
 7957 03d1 AB000000 		.4byte	.LVL218-1
 7958 03d5 0100     		.2byte	0x1
 7959 03d7 51       		.byte	0x51
 7960 03d8 AB000000 		.4byte	.LVL218-1
 7961 03dc C6000000 		.4byte	.LFE65
 7962 03e0 0100     		.2byte	0x1
 7963 03e2 59       		.byte	0x59
 7964 03e3 00000000 		.4byte	0
 7965 03e7 00000000 		.4byte	0
 7966              	.LLST83:
 7967 03eb 00000000 		.4byte	.LVL204
 7968 03ef 0E000000 		.4byte	.LVL205
 7969 03f3 0100     		.2byte	0x1
 7970 03f5 52       		.byte	0x52
 7971 03f6 0E000000 		.4byte	.LVL205
 7972 03fa 88000000 		.4byte	.LVL212
 7973 03fe 0100     		.2byte	0x1
 7974 0400 58       		.byte	0x58
 7975 0401 88000000 		.4byte	.LVL212
 7976 0405 90000000 		.4byte	.LVL214
 7977 0409 0400     		.2byte	0x4
 7978 040b F3       		.byte	0xf3
 7979 040c 01       		.uleb128 0x1
 7980 040d 52       		.byte	0x52
 7981 040e 9F       		.byte	0x9f
 7982 040f 90000000 		.4byte	.LVL214
 7983 0413 C6000000 		.4byte	.LFE65
 7984 0417 0100     		.2byte	0x1
 7985 0419 58       		.byte	0x58
 7986 041a 00000000 		.4byte	0
 7987 041e 00000000 		.4byte	0
 7988              	.LLST84:
 7989 0422 00000000 		.4byte	.LVL204
 7990 0426 32000000 		.4byte	.LVL207
 7991 042a 0200     		.2byte	0x2
 7992 042c 30       		.byte	0x30
 7993 042d 9F       		.byte	0x9f
 7994 042e 32000000 		.4byte	.LVL207
 7995 0432 38000000 		.4byte	.LVL208
 7996 0436 0100     		.2byte	0x1
 7997 0438 50       		.byte	0x50
 7998 0439 38000000 		.4byte	.LVL208
 7999 043d 88000000 		.4byte	.LVL210
 8000 0441 0100     		.2byte	0x1
 8001 0443 57       		.byte	0x57
 8002 0444 90000000 		.4byte	.LVL214
 8003 0448 94000000 		.4byte	.LVL216
 8004 044c 0200     		.2byte	0x2
 8005 044e 30       		.byte	0x30
 8006 044f 9F       		.byte	0x9f
 8007 0450 94000000 		.4byte	.LVL216
 8008 0454 C6000000 		.4byte	.LFE65
 8009 0458 0100     		.2byte	0x1
ARM GAS  C:\Users\EBANO_~1\AppData\Local\Temp\ccyPWgHX.s 			page 182


 8010 045a 57       		.byte	0x57
 8011 045b 00000000 		.4byte	0
 8012 045f 00000000 		.4byte	0
 8013              	.LLST74:
 8014 0463 00000000 		.4byte	.LFB64
 8015 0467 02000000 		.4byte	.LCFI24
 8016 046b 0200     		.2byte	0x2
 8017 046d 7D       		.byte	0x7d
 8018 046e 00       		.sleb128 0
 8019 046f 02000000 		.4byte	.LCFI24
 8020 0473 0E000000 		.4byte	.LCFI25
 8021 0477 0200     		.2byte	0x2
 8022 0479 7D       		.byte	0x7d
 8023 047a 14       		.sleb128 20
 8024 047b 0E000000 		.4byte	.LCFI25
 8025 047f 96000000 		.4byte	.LFE64
 8026 0483 0200     		.2byte	0x2
 8027 0485 7D       		.byte	0x7d
 8028 0486 20       		.sleb128 32
 8029 0487 00000000 		.4byte	0
 8030 048b 00000000 		.4byte	0
 8031              	.LLST75:
 8032 048f 00000000 		.4byte	.LVL186
 8033 0493 28000000 		.4byte	.LVL189
 8034 0497 0100     		.2byte	0x1
 8035 0499 50       		.byte	0x50
 8036 049a 28000000 		.4byte	.LVL189
 8037 049e 54000000 		.4byte	.LVL192
 8038 04a2 0100     		.2byte	0x1
 8039 04a4 54       		.byte	0x54
 8040 04a5 54000000 		.4byte	.LVL192
 8041 04a9 5E000000 		.4byte	.LVL195
 8042 04ad 0400     		.2byte	0x4
 8043 04af F3       		.byte	0xf3
 8044 04b0 01       		.uleb128 0x1
 8045 04b1 50       		.byte	0x50
 8046 04b2 9F       		.byte	0x9f
 8047 04b3 5E000000 		.4byte	.LVL195
 8048 04b7 92000000 		.4byte	.LVL202
 8049 04bb 0100     		.2byte	0x1
 8050 04bd 54       		.byte	0x54
 8051 04be 92000000 		.4byte	.LVL202
 8052 04c2 94000000 		.4byte	.LVL203
 8053 04c6 0100     		.2byte	0x1
 8054 04c8 50       		.byte	0x50
 8055 04c9 94000000 		.4byte	.LVL203
 8056 04cd 96000000 		.4byte	.LFE64
 8057 04d1 0100     		.2byte	0x1
 8058 04d3 54       		.byte	0x54
 8059 04d4 00000000 		.4byte	0
 8060 04d8 00000000 		.4byte	0
 8061              	.LLST76:
 8062 04dc 00000000 		.4byte	.LVL186
 8063 04e0 38000000 		.4byte	.LVL190
 8064 04e4 0100     		.2byte	0x1
 8065 04e6 51       		.byte	0x51
 8066 04e7 38000000 		.4byte	.LVL190
ARM GAS  C:\Users\EBANO_~1\AppData\Local\Temp\ccyPWgHX.s 			page 183


 8067 04eb 54000000 		.4byte	.LVL193
 8068 04ef 0100     		.2byte	0x1
 8069 04f1 59       		.byte	0x59
 8070 04f2 54000000 		.4byte	.LVL193
 8071 04f6 5E000000 		.4byte	.LVL195
 8072 04fa 0400     		.2byte	0x4
 8073 04fc F3       		.byte	0xf3
 8074 04fd 01       		.uleb128 0x1
 8075 04fe 51       		.byte	0x51
 8076 04ff 9F       		.byte	0x9f
 8077 0500 5E000000 		.4byte	.LVL195
 8078 0504 61000000 		.4byte	.LVL196-1
 8079 0508 0100     		.2byte	0x1
 8080 050a 51       		.byte	0x51
 8081 050b 61000000 		.4byte	.LVL196-1
 8082 050f 92000000 		.4byte	.LVL202
 8083 0513 0100     		.2byte	0x1
 8084 0515 59       		.byte	0x59
 8085 0516 92000000 		.4byte	.LVL202
 8086 051a 96000000 		.4byte	.LFE64
 8087 051e 0100     		.2byte	0x1
 8088 0520 51       		.byte	0x51
 8089 0521 00000000 		.4byte	0
 8090 0525 00000000 		.4byte	0
 8091              	.LLST77:
 8092 0529 00000000 		.4byte	.LVL186
 8093 052d 12000000 		.4byte	.LVL188
 8094 0531 0100     		.2byte	0x1
 8095 0533 52       		.byte	0x52
 8096 0534 12000000 		.4byte	.LVL188
 8097 0538 3C000000 		.4byte	.LVL191
 8098 053c 0100     		.2byte	0x1
 8099 053e 55       		.byte	0x55
 8100 053f 3C000000 		.4byte	.LVL191
 8101 0543 5E000000 		.4byte	.LVL195
 8102 0547 0400     		.2byte	0x4
 8103 0549 F3       		.byte	0xf3
 8104 054a 01       		.uleb128 0x1
 8105 054b 52       		.byte	0x52
 8106 054c 9F       		.byte	0x9f
 8107 054d 5E000000 		.4byte	.LVL195
 8108 0551 96000000 		.4byte	.LFE64
 8109 0555 0100     		.2byte	0x1
 8110 0557 55       		.byte	0x55
 8111 0558 00000000 		.4byte	0
 8112 055c 00000000 		.4byte	0
 8113              	.LLST78:
 8114 0560 00000000 		.4byte	.LVL186
 8115 0564 0C000000 		.4byte	.LVL187
 8116 0568 0100     		.2byte	0x1
 8117 056a 53       		.byte	0x53
 8118 056b 0C000000 		.4byte	.LVL187
 8119 056f 54000000 		.4byte	.LVL194
 8120 0573 0100     		.2byte	0x1
 8121 0575 5A       		.byte	0x5a
 8122 0576 54000000 		.4byte	.LVL194
 8123 057a 5E000000 		.4byte	.LVL195
ARM GAS  C:\Users\EBANO_~1\AppData\Local\Temp\ccyPWgHX.s 			page 184


 8124 057e 0400     		.2byte	0x4
 8125 0580 F3       		.byte	0xf3
 8126 0581 01       		.uleb128 0x1
 8127 0582 53       		.byte	0x53
 8128 0583 9F       		.byte	0x9f
 8129 0584 5E000000 		.4byte	.LVL195
 8130 0588 96000000 		.4byte	.LFE64
 8131 058c 0100     		.2byte	0x1
 8132 058e 5A       		.byte	0x5a
 8133 058f 00000000 		.4byte	0
 8134 0593 00000000 		.4byte	0
 8135              	.LLST79:
 8136 0597 00000000 		.4byte	.LVL186
 8137 059b 38000000 		.4byte	.LVL190
 8138 059f 0200     		.2byte	0x2
 8139 05a1 30       		.byte	0x30
 8140 05a2 9F       		.byte	0x9f
 8141 05a3 5E000000 		.4byte	.LVL195
 8142 05a7 66000000 		.4byte	.LVL197
 8143 05ab 0200     		.2byte	0x2
 8144 05ad 30       		.byte	0x30
 8145 05ae 9F       		.byte	0x9f
 8146 05af 66000000 		.4byte	.LVL197
 8147 05b3 68000000 		.4byte	.LVL198
 8148 05b7 0100     		.2byte	0x1
 8149 05b9 50       		.byte	0x50
 8150 05ba 68000000 		.4byte	.LVL198
 8151 05be 7C000000 		.4byte	.LVL200
 8152 05c2 0100     		.2byte	0x1
 8153 05c4 58       		.byte	0x58
 8154 05c5 7C000000 		.4byte	.LVL200
 8155 05c9 80000000 		.4byte	.LVL201
 8156 05cd 0100     		.2byte	0x1
 8157 05cf 53       		.byte	0x53
 8158 05d0 80000000 		.4byte	.LVL201
 8159 05d4 92000000 		.4byte	.LVL202
 8160 05d8 0100     		.2byte	0x1
 8161 05da 58       		.byte	0x58
 8162 05db 92000000 		.4byte	.LVL202
 8163 05df 96000000 		.4byte	.LFE64
 8164 05e3 0200     		.2byte	0x2
 8165 05e5 30       		.byte	0x30
 8166 05e6 9F       		.byte	0x9f
 8167 05e7 00000000 		.4byte	0
 8168 05eb 00000000 		.4byte	0
 8169              	.LLST71:
 8170 05ef 00000000 		.4byte	.LVL182
 8171 05f3 0A000000 		.4byte	.LVL185
 8172 05f7 0100     		.2byte	0x1
 8173 05f9 50       		.byte	0x50
 8174 05fa 0A000000 		.4byte	.LVL185
 8175 05fe 0C000000 		.4byte	.LFE63
 8176 0602 0400     		.2byte	0x4
 8177 0604 F3       		.byte	0xf3
 8178 0605 01       		.uleb128 0x1
 8179 0606 50       		.byte	0x50
 8180 0607 9F       		.byte	0x9f
ARM GAS  C:\Users\EBANO_~1\AppData\Local\Temp\ccyPWgHX.s 			page 185


 8181 0608 00000000 		.4byte	0
 8182 060c 00000000 		.4byte	0
 8183              	.LLST72:
 8184 0610 00000000 		.4byte	.LVL182
 8185 0614 04000000 		.4byte	.LVL183
 8186 0618 0100     		.2byte	0x1
 8187 061a 51       		.byte	0x51
 8188 061b 04000000 		.4byte	.LVL183
 8189 061f 0C000000 		.4byte	.LFE63
 8190 0623 0400     		.2byte	0x4
 8191 0625 F3       		.byte	0xf3
 8192 0626 01       		.uleb128 0x1
 8193 0627 51       		.byte	0x51
 8194 0628 9F       		.byte	0x9f
 8195 0629 00000000 		.4byte	0
 8196 062d 00000000 		.4byte	0
 8197              	.LLST73:
 8198 0631 00000000 		.4byte	.LVL182
 8199 0635 06000000 		.4byte	.LVL184
 8200 0639 0200     		.2byte	0x2
 8201 063b 30       		.byte	0x30
 8202 063c 9F       		.byte	0x9f
 8203 063d 00000000 		.4byte	0
 8204 0641 00000000 		.4byte	0
 8205              	.LLST69:
 8206 0645 00000000 		.4byte	.LVL179
 8207 0649 04000000 		.4byte	.LVL180
 8208 064d 0100     		.2byte	0x1
 8209 064f 51       		.byte	0x51
 8210 0650 04000000 		.4byte	.LVL180
 8211 0654 0C000000 		.4byte	.LFE62
 8212 0658 0400     		.2byte	0x4
 8213 065a F3       		.byte	0xf3
 8214 065b 01       		.uleb128 0x1
 8215 065c 51       		.byte	0x51
 8216 065d 9F       		.byte	0x9f
 8217 065e 00000000 		.4byte	0
 8218 0662 00000000 		.4byte	0
 8219              	.LLST70:
 8220 0666 00000000 		.4byte	.LVL179
 8221 066a 06000000 		.4byte	.LVL181
 8222 066e 0200     		.2byte	0x2
 8223 0670 30       		.byte	0x30
 8224 0671 9F       		.byte	0x9f
 8225 0672 00000000 		.4byte	0
 8226 0676 00000000 		.4byte	0
 8227              	.LLST65:
 8228 067a 00000000 		.4byte	.LFB61
 8229 067e 02000000 		.4byte	.LCFI23
 8230 0682 0200     		.2byte	0x2
 8231 0684 7D       		.byte	0x7d
 8232 0685 00       		.sleb128 0
 8233 0686 02000000 		.4byte	.LCFI23
 8234 068a 58000000 		.4byte	.LFE61
 8235 068e 0200     		.2byte	0x2
 8236 0690 7D       		.byte	0x7d
 8237 0691 18       		.sleb128 24
ARM GAS  C:\Users\EBANO_~1\AppData\Local\Temp\ccyPWgHX.s 			page 186


 8238 0692 00000000 		.4byte	0
 8239 0696 00000000 		.4byte	0
 8240              	.LLST66:
 8241 069a 00000000 		.4byte	.LVL170
 8242 069e 09000000 		.4byte	.LVL171-1
 8243 06a2 0100     		.2byte	0x1
 8244 06a4 50       		.byte	0x50
 8245 06a5 09000000 		.4byte	.LVL171-1
 8246 06a9 34000000 		.4byte	.LVL175
 8247 06ad 0100     		.2byte	0x1
 8248 06af 55       		.byte	0x55
 8249 06b0 34000000 		.4byte	.LVL175
 8250 06b4 36000000 		.4byte	.LVL177
 8251 06b8 0400     		.2byte	0x4
 8252 06ba F3       		.byte	0xf3
 8253 06bb 01       		.uleb128 0x1
 8254 06bc 50       		.byte	0x50
 8255 06bd 9F       		.byte	0x9f
 8256 06be 36000000 		.4byte	.LVL177
 8257 06c2 58000000 		.4byte	.LFE61
 8258 06c6 0100     		.2byte	0x1
 8259 06c8 55       		.byte	0x55
 8260 06c9 00000000 		.4byte	0
 8261 06cd 00000000 		.4byte	0
 8262              	.LLST67:
 8263 06d1 00000000 		.4byte	.LVL170
 8264 06d5 09000000 		.4byte	.LVL171-1
 8265 06d9 0100     		.2byte	0x1
 8266 06db 51       		.byte	0x51
 8267 06dc 09000000 		.4byte	.LVL171-1
 8268 06e0 34000000 		.4byte	.LVL174
 8269 06e4 0100     		.2byte	0x1
 8270 06e6 54       		.byte	0x54
 8271 06e7 34000000 		.4byte	.LVL174
 8272 06eb 36000000 		.4byte	.LVL177
 8273 06ef 0400     		.2byte	0x4
 8274 06f1 F3       		.byte	0xf3
 8275 06f2 01       		.uleb128 0x1
 8276 06f3 51       		.byte	0x51
 8277 06f4 9F       		.byte	0x9f
 8278 06f5 36000000 		.4byte	.LVL177
 8279 06f9 58000000 		.4byte	.LFE61
 8280 06fd 0100     		.2byte	0x1
 8281 06ff 54       		.byte	0x54
 8282 0700 00000000 		.4byte	0
 8283 0704 00000000 		.4byte	0
 8284              	.LLST68:
 8285 0708 0E000000 		.4byte	.LVL172
 8286 070c 10000000 		.4byte	.LVL173
 8287 0710 0100     		.2byte	0x1
 8288 0712 50       		.byte	0x50
 8289 0713 10000000 		.4byte	.LVL173
 8290 0717 34000000 		.4byte	.LVL176
 8291 071b 0100     		.2byte	0x1
 8292 071d 57       		.byte	0x57
 8293 071e 36000000 		.4byte	.LVL177
 8294 0722 58000000 		.4byte	.LFE61
ARM GAS  C:\Users\EBANO_~1\AppData\Local\Temp\ccyPWgHX.s 			page 187


 8295 0726 0100     		.2byte	0x1
 8296 0728 57       		.byte	0x57
 8297 0729 00000000 		.4byte	0
 8298 072d 00000000 		.4byte	0
 8299              	.LLST63:
 8300 0731 00000000 		.4byte	.LFB59
 8301 0735 04000000 		.4byte	.LCFI22
 8302 0739 0200     		.2byte	0x2
 8303 073b 7D       		.byte	0x7d
 8304 073c 00       		.sleb128 0
 8305 073d 04000000 		.4byte	.LCFI22
 8306 0741 38000000 		.4byte	.LFE59
 8307 0745 0200     		.2byte	0x2
 8308 0747 7D       		.byte	0x7d
 8309 0748 08       		.sleb128 8
 8310 0749 00000000 		.4byte	0
 8311 074d 00000000 		.4byte	0
 8312              	.LLST64:
 8313 0751 00000000 		.4byte	.LVL167
 8314 0755 0F000000 		.4byte	.LVL168-1
 8315 0759 0100     		.2byte	0x1
 8316 075b 50       		.byte	0x50
 8317 075c 0F000000 		.4byte	.LVL168-1
 8318 0760 2C000000 		.4byte	.LVL169
 8319 0764 0100     		.2byte	0x1
 8320 0766 54       		.byte	0x54
 8321 0767 2C000000 		.4byte	.LVL169
 8322 076b 38000000 		.4byte	.LFE59
 8323 076f 0400     		.2byte	0x4
 8324 0771 F3       		.byte	0xf3
 8325 0772 01       		.uleb128 0x1
 8326 0773 50       		.byte	0x50
 8327 0774 9F       		.byte	0x9f
 8328 0775 00000000 		.4byte	0
 8329 0779 00000000 		.4byte	0
 8330              	.LLST62:
 8331 077d 00000000 		.4byte	.LVL165
 8332 0781 04000000 		.4byte	.LVL166
 8333 0785 0100     		.2byte	0x1
 8334 0787 50       		.byte	0x50
 8335 0788 04000000 		.4byte	.LVL166
 8336 078c 0A000000 		.4byte	.LFE58
 8337 0790 0400     		.2byte	0x4
 8338 0792 F3       		.byte	0xf3
 8339 0793 01       		.uleb128 0x1
 8340 0794 50       		.byte	0x50
 8341 0795 9F       		.byte	0x9f
 8342 0796 00000000 		.4byte	0
 8343 079a 00000000 		.4byte	0
 8344              	.LLST59:
 8345 079e 00000000 		.4byte	.LFB57
 8346 07a2 02000000 		.4byte	.LCFI20
 8347 07a6 0200     		.2byte	0x2
 8348 07a8 7D       		.byte	0x7d
 8349 07a9 00       		.sleb128 0
 8350 07aa 02000000 		.4byte	.LCFI20
 8351 07ae 08000000 		.4byte	.LCFI21
ARM GAS  C:\Users\EBANO_~1\AppData\Local\Temp\ccyPWgHX.s 			page 188


 8352 07b2 0200     		.2byte	0x2
 8353 07b4 7D       		.byte	0x7d
 8354 07b5 14       		.sleb128 20
 8355 07b6 08000000 		.4byte	.LCFI21
 8356 07ba 90000000 		.4byte	.LFE57
 8357 07be 0200     		.2byte	0x2
 8358 07c0 7D       		.byte	0x7d
 8359 07c1 18       		.sleb128 24
 8360 07c2 00000000 		.4byte	0
 8361 07c6 00000000 		.4byte	0
 8362              	.LLST60:
 8363 07ca 00000000 		.4byte	.LVL154
 8364 07ce 3B000000 		.4byte	.LVL155-1
 8365 07d2 0100     		.2byte	0x1
 8366 07d4 50       		.byte	0x50
 8367 07d5 3B000000 		.4byte	.LVL155-1
 8368 07d9 68000000 		.4byte	.LVL160
 8369 07dd 0100     		.2byte	0x1
 8370 07df 55       		.byte	0x55
 8371 07e0 68000000 		.4byte	.LVL160
 8372 07e4 6E000000 		.4byte	.LVL161
 8373 07e8 0400     		.2byte	0x4
 8374 07ea F3       		.byte	0xf3
 8375 07eb 01       		.uleb128 0x1
 8376 07ec 50       		.byte	0x50
 8377 07ed 9F       		.byte	0x9f
 8378 07ee 6E000000 		.4byte	.LVL161
 8379 07f2 82000000 		.4byte	.LVL163
 8380 07f6 0100     		.2byte	0x1
 8381 07f8 55       		.byte	0x55
 8382 07f9 82000000 		.4byte	.LVL163
 8383 07fd 84000000 		.4byte	.LVL164
 8384 0801 0100     		.2byte	0x1
 8385 0803 50       		.byte	0x50
 8386 0804 84000000 		.4byte	.LVL164
 8387 0808 90000000 		.4byte	.LFE57
 8388 080c 0100     		.2byte	0x1
 8389 080e 55       		.byte	0x55
 8390 080f 00000000 		.4byte	0
 8391 0813 00000000 		.4byte	0
 8392              	.LLST61:
 8393 0817 00000000 		.4byte	.LVL154
 8394 081b 40000000 		.4byte	.LVL156
 8395 081f 0200     		.2byte	0x2
 8396 0821 30       		.byte	0x30
 8397 0822 9F       		.byte	0x9f
 8398 0823 40000000 		.4byte	.LVL156
 8399 0827 42000000 		.4byte	.LVL157
 8400 082b 0100     		.2byte	0x1
 8401 082d 50       		.byte	0x50
 8402 082e 42000000 		.4byte	.LVL157
 8403 0832 68000000 		.4byte	.LVL159
 8404 0836 0100     		.2byte	0x1
 8405 0838 58       		.byte	0x58
 8406 0839 6E000000 		.4byte	.LVL161
 8407 083d 72000000 		.4byte	.LVL162
 8408 0841 0100     		.2byte	0x1
ARM GAS  C:\Users\EBANO_~1\AppData\Local\Temp\ccyPWgHX.s 			page 189


 8409 0843 53       		.byte	0x53
 8410 0844 72000000 		.4byte	.LVL162
 8411 0848 82000000 		.4byte	.LVL163
 8412 084c 0100     		.2byte	0x1
 8413 084e 58       		.byte	0x58
 8414 084f 82000000 		.4byte	.LVL163
 8415 0853 90000000 		.4byte	.LFE57
 8416 0857 0200     		.2byte	0x2
 8417 0859 30       		.byte	0x30
 8418 085a 9F       		.byte	0x9f
 8419 085b 00000000 		.4byte	0
 8420 085f 00000000 		.4byte	0
 8421              	.LLST54:
 8422 0863 00000000 		.4byte	.LFB56
 8423 0867 02000000 		.4byte	.LCFI18
 8424 086b 0200     		.2byte	0x2
 8425 086d 7D       		.byte	0x7d
 8426 086e 00       		.sleb128 0
 8427 086f 02000000 		.4byte	.LCFI18
 8428 0873 0C000000 		.4byte	.LCFI19
 8429 0877 0200     		.2byte	0x2
 8430 0879 7D       		.byte	0x7d
 8431 087a 14       		.sleb128 20
 8432 087b 0C000000 		.4byte	.LCFI19
 8433 087f 1C010000 		.4byte	.LFE56
 8434 0883 0200     		.2byte	0x2
 8435 0885 7D       		.byte	0x7d
 8436 0886 20       		.sleb128 32
 8437 0887 00000000 		.4byte	0
 8438 088b 00000000 		.4byte	0
 8439              	.LLST55:
 8440 088f 00000000 		.4byte	.LVL134
 8441 0893 37000000 		.4byte	.LVL136-1
 8442 0897 0100     		.2byte	0x1
 8443 0899 50       		.byte	0x50
 8444 089a 37000000 		.4byte	.LVL136-1
 8445 089e D6000000 		.4byte	.LVL146
 8446 08a2 0100     		.2byte	0x1
 8447 08a4 55       		.byte	0x55
 8448 08a5 D6000000 		.4byte	.LVL146
 8449 08a9 E0000000 		.4byte	.LVL149
 8450 08ad 0400     		.2byte	0x4
 8451 08af F3       		.byte	0xf3
 8452 08b0 01       		.uleb128 0x1
 8453 08b1 50       		.byte	0x50
 8454 08b2 9F       		.byte	0x9f
 8455 08b3 E0000000 		.4byte	.LVL149
 8456 08b7 0A010000 		.4byte	.LVL152
 8457 08bb 0100     		.2byte	0x1
 8458 08bd 55       		.byte	0x55
 8459 08be 0A010000 		.4byte	.LVL152
 8460 08c2 0C010000 		.4byte	.LVL153
 8461 08c6 0100     		.2byte	0x1
 8462 08c8 50       		.byte	0x50
 8463 08c9 0C010000 		.4byte	.LVL153
 8464 08cd 1C010000 		.4byte	.LFE56
 8465 08d1 0100     		.2byte	0x1
ARM GAS  C:\Users\EBANO_~1\AppData\Local\Temp\ccyPWgHX.s 			page 190


 8466 08d3 55       		.byte	0x55
 8467 08d4 00000000 		.4byte	0
 8468 08d8 00000000 		.4byte	0
 8469              	.LLST56:
 8470 08dc 00000000 		.4byte	.LVL134
 8471 08e0 37000000 		.4byte	.LVL136-1
 8472 08e4 0100     		.2byte	0x1
 8473 08e6 51       		.byte	0x51
 8474 08e7 37000000 		.4byte	.LVL136-1
 8475 08eb D6000000 		.4byte	.LVL148
 8476 08ef 0100     		.2byte	0x1
 8477 08f1 5A       		.byte	0x5a
 8478 08f2 D6000000 		.4byte	.LVL148
 8479 08f6 E0000000 		.4byte	.LVL149
 8480 08fa 0400     		.2byte	0x4
 8481 08fc F3       		.byte	0xf3
 8482 08fd 01       		.uleb128 0x1
 8483 08fe 51       		.byte	0x51
 8484 08ff 9F       		.byte	0x9f
 8485 0900 E0000000 		.4byte	.LVL149
 8486 0904 0A010000 		.4byte	.LVL152
 8487 0908 0100     		.2byte	0x1
 8488 090a 5A       		.byte	0x5a
 8489 090b 0A010000 		.4byte	.LVL152
 8490 090f 1C010000 		.4byte	.LFE56
 8491 0913 0100     		.2byte	0x1
 8492 0915 51       		.byte	0x51
 8493 0916 00000000 		.4byte	0
 8494 091a 00000000 		.4byte	0
 8495              	.LLST57:
 8496 091e 00000000 		.4byte	.LVL134
 8497 0922 10000000 		.4byte	.LVL135
 8498 0926 0100     		.2byte	0x1
 8499 0928 52       		.byte	0x52
 8500 0929 10000000 		.4byte	.LVL135
 8501 092d D6000000 		.4byte	.LVL147
 8502 0931 0100     		.2byte	0x1
 8503 0933 59       		.byte	0x59
 8504 0934 D6000000 		.4byte	.LVL147
 8505 0938 E0000000 		.4byte	.LVL149
 8506 093c 0400     		.2byte	0x4
 8507 093e F3       		.byte	0xf3
 8508 093f 01       		.uleb128 0x1
 8509 0940 52       		.byte	0x52
 8510 0941 9F       		.byte	0x9f
 8511 0942 E0000000 		.4byte	.LVL149
 8512 0946 1C010000 		.4byte	.LFE56
 8513 094a 0100     		.2byte	0x1
 8514 094c 59       		.byte	0x59
 8515 094d 00000000 		.4byte	0
 8516 0951 00000000 		.4byte	0
 8517              	.LLST58:
 8518 0955 00000000 		.4byte	.LVL134
 8519 0959 3C000000 		.4byte	.LVL137
 8520 095d 0200     		.2byte	0x2
 8521 095f 30       		.byte	0x30
 8522 0960 9F       		.byte	0x9f
ARM GAS  C:\Users\EBANO_~1\AppData\Local\Temp\ccyPWgHX.s 			page 191


 8523 0961 3C000000 		.4byte	.LVL137
 8524 0965 42000000 		.4byte	.LVL138
 8525 0969 0100     		.2byte	0x1
 8526 096b 50       		.byte	0x50
 8527 096c 42000000 		.4byte	.LVL138
 8528 0970 54000000 		.4byte	.LVL140
 8529 0974 0100     		.2byte	0x1
 8530 0976 57       		.byte	0x57
 8531 0977 74000000 		.4byte	.LVL142
 8532 097b 76000000 		.4byte	.LVL143
 8533 097f 0100     		.2byte	0x1
 8534 0981 50       		.byte	0x50
 8535 0982 76000000 		.4byte	.LVL143
 8536 0986 D6000000 		.4byte	.LVL145
 8537 098a 0100     		.2byte	0x1
 8538 098c 58       		.byte	0x58
 8539 098d E0000000 		.4byte	.LVL149
 8540 0991 E4000000 		.4byte	.LVL150
 8541 0995 0100     		.2byte	0x1
 8542 0997 53       		.byte	0x53
 8543 0998 E4000000 		.4byte	.LVL150
 8544 099c F4000000 		.4byte	.LVL151
 8545 09a0 0100     		.2byte	0x1
 8546 09a2 58       		.byte	0x58
 8547 09a3 F4000000 		.4byte	.LVL151
 8548 09a7 0A010000 		.4byte	.LVL152
 8549 09ab 0100     		.2byte	0x1
 8550 09ad 57       		.byte	0x57
 8551 09ae 0A010000 		.4byte	.LVL152
 8552 09b2 1C010000 		.4byte	.LFE56
 8553 09b6 0200     		.2byte	0x2
 8554 09b8 30       		.byte	0x30
 8555 09b9 9F       		.byte	0x9f
 8556 09ba 00000000 		.4byte	0
 8557 09be 00000000 		.4byte	0
 8558              	.LLST49:
 8559 09c2 00000000 		.4byte	.LFB55
 8560 09c6 02000000 		.4byte	.LCFI16
 8561 09ca 0200     		.2byte	0x2
 8562 09cc 7D       		.byte	0x7d
 8563 09cd 00       		.sleb128 0
 8564 09ce 02000000 		.4byte	.LCFI16
 8565 09d2 0C000000 		.4byte	.LCFI17
 8566 09d6 0200     		.2byte	0x2
 8567 09d8 7D       		.byte	0x7d
 8568 09d9 14       		.sleb128 20
 8569 09da 0C000000 		.4byte	.LCFI17
 8570 09de E8000000 		.4byte	.LFE55
 8571 09e2 0200     		.2byte	0x2
 8572 09e4 7D       		.byte	0x7d
 8573 09e5 20       		.sleb128 32
 8574 09e6 00000000 		.4byte	0
 8575 09ea 00000000 		.4byte	0
 8576              	.LLST50:
 8577 09ee 00000000 		.4byte	.LVL114
 8578 09f2 35000000 		.4byte	.LVL116-1
 8579 09f6 0100     		.2byte	0x1
ARM GAS  C:\Users\EBANO_~1\AppData\Local\Temp\ccyPWgHX.s 			page 192


 8580 09f8 50       		.byte	0x50
 8581 09f9 35000000 		.4byte	.LVL116-1
 8582 09fd AC000000 		.4byte	.LVL126
 8583 0a01 0100     		.2byte	0x1
 8584 0a03 55       		.byte	0x55
 8585 0a04 AC000000 		.4byte	.LVL126
 8586 0a08 B6000000 		.4byte	.LVL129
 8587 0a0c 0400     		.2byte	0x4
 8588 0a0e F3       		.byte	0xf3
 8589 0a0f 01       		.uleb128 0x1
 8590 0a10 50       		.byte	0x50
 8591 0a11 9F       		.byte	0x9f
 8592 0a12 B6000000 		.4byte	.LVL129
 8593 0a16 E0000000 		.4byte	.LVL132
 8594 0a1a 0100     		.2byte	0x1
 8595 0a1c 55       		.byte	0x55
 8596 0a1d E0000000 		.4byte	.LVL132
 8597 0a21 E2000000 		.4byte	.LVL133
 8598 0a25 0100     		.2byte	0x1
 8599 0a27 50       		.byte	0x50
 8600 0a28 E2000000 		.4byte	.LVL133
 8601 0a2c E8000000 		.4byte	.LFE55
 8602 0a30 0100     		.2byte	0x1
 8603 0a32 55       		.byte	0x55
 8604 0a33 00000000 		.4byte	0
 8605 0a37 00000000 		.4byte	0
 8606              	.LLST51:
 8607 0a3b 00000000 		.4byte	.LVL114
 8608 0a3f 35000000 		.4byte	.LVL116-1
 8609 0a43 0100     		.2byte	0x1
 8610 0a45 51       		.byte	0x51
 8611 0a46 35000000 		.4byte	.LVL116-1
 8612 0a4a AC000000 		.4byte	.LVL127
 8613 0a4e 0100     		.2byte	0x1
 8614 0a50 59       		.byte	0x59
 8615 0a51 AC000000 		.4byte	.LVL127
 8616 0a55 B6000000 		.4byte	.LVL129
 8617 0a59 0400     		.2byte	0x4
 8618 0a5b F3       		.byte	0xf3
 8619 0a5c 01       		.uleb128 0x1
 8620 0a5d 51       		.byte	0x51
 8621 0a5e 9F       		.byte	0x9f
 8622 0a5f B6000000 		.4byte	.LVL129
 8623 0a63 E0000000 		.4byte	.LVL132
 8624 0a67 0100     		.2byte	0x1
 8625 0a69 59       		.byte	0x59
 8626 0a6a E0000000 		.4byte	.LVL132
 8627 0a6e E8000000 		.4byte	.LFE55
 8628 0a72 0100     		.2byte	0x1
 8629 0a74 51       		.byte	0x51
 8630 0a75 00000000 		.4byte	0
 8631 0a79 00000000 		.4byte	0
 8632              	.LLST52:
 8633 0a7d 00000000 		.4byte	.LVL114
 8634 0a81 10000000 		.4byte	.LVL115
 8635 0a85 0100     		.2byte	0x1
 8636 0a87 52       		.byte	0x52
ARM GAS  C:\Users\EBANO_~1\AppData\Local\Temp\ccyPWgHX.s 			page 193


 8637 0a88 10000000 		.4byte	.LVL115
 8638 0a8c AC000000 		.4byte	.LVL128
 8639 0a90 0100     		.2byte	0x1
 8640 0a92 5A       		.byte	0x5a
 8641 0a93 AC000000 		.4byte	.LVL128
 8642 0a97 B6000000 		.4byte	.LVL129
 8643 0a9b 0400     		.2byte	0x4
 8644 0a9d F3       		.byte	0xf3
 8645 0a9e 01       		.uleb128 0x1
 8646 0a9f 52       		.byte	0x52
 8647 0aa0 9F       		.byte	0x9f
 8648 0aa1 B6000000 		.4byte	.LVL129
 8649 0aa5 E8000000 		.4byte	.LFE55
 8650 0aa9 0100     		.2byte	0x1
 8651 0aab 5A       		.byte	0x5a
 8652 0aac 00000000 		.4byte	0
 8653 0ab0 00000000 		.4byte	0
 8654              	.LLST53:
 8655 0ab4 00000000 		.4byte	.LVL114
 8656 0ab8 3A000000 		.4byte	.LVL117
 8657 0abc 0200     		.2byte	0x2
 8658 0abe 30       		.byte	0x30
 8659 0abf 9F       		.byte	0x9f
 8660 0ac0 3A000000 		.4byte	.LVL117
 8661 0ac4 40000000 		.4byte	.LVL118
 8662 0ac8 0100     		.2byte	0x1
 8663 0aca 50       		.byte	0x50
 8664 0acb 40000000 		.4byte	.LVL118
 8665 0acf 52000000 		.4byte	.LVL120
 8666 0ad3 0100     		.2byte	0x1
 8667 0ad5 57       		.byte	0x57
 8668 0ad6 64000000 		.4byte	.LVL122
 8669 0ada 68000000 		.4byte	.LVL123
 8670 0ade 0100     		.2byte	0x1
 8671 0ae0 50       		.byte	0x50
 8672 0ae1 68000000 		.4byte	.LVL123
 8673 0ae5 AC000000 		.4byte	.LVL125
 8674 0ae9 0100     		.2byte	0x1
 8675 0aeb 58       		.byte	0x58
 8676 0aec B6000000 		.4byte	.LVL129
 8677 0af0 BA000000 		.4byte	.LVL130
 8678 0af4 0100     		.2byte	0x1
 8679 0af6 53       		.byte	0x53
 8680 0af7 BA000000 		.4byte	.LVL130
 8681 0afb CA000000 		.4byte	.LVL131
 8682 0aff 0100     		.2byte	0x1
 8683 0b01 58       		.byte	0x58
 8684 0b02 CA000000 		.4byte	.LVL131
 8685 0b06 E0000000 		.4byte	.LVL132
 8686 0b0a 0100     		.2byte	0x1
 8687 0b0c 57       		.byte	0x57
 8688 0b0d E0000000 		.4byte	.LVL132
 8689 0b11 E8000000 		.4byte	.LFE55
 8690 0b15 0200     		.2byte	0x2
 8691 0b17 30       		.byte	0x30
 8692 0b18 9F       		.byte	0x9f
 8693 0b19 00000000 		.4byte	0
ARM GAS  C:\Users\EBANO_~1\AppData\Local\Temp\ccyPWgHX.s 			page 194


 8694 0b1d 00000000 		.4byte	0
 8695              	.LLST45:
 8696 0b21 00000000 		.4byte	.LFB54
 8697 0b25 02000000 		.4byte	.LCFI15
 8698 0b29 0200     		.2byte	0x2
 8699 0b2b 7D       		.byte	0x7d
 8700 0b2c 00       		.sleb128 0
 8701 0b2d 02000000 		.4byte	.LCFI15
 8702 0b31 58000000 		.4byte	.LFE54
 8703 0b35 0200     		.2byte	0x2
 8704 0b37 7D       		.byte	0x7d
 8705 0b38 18       		.sleb128 24
 8706 0b39 00000000 		.4byte	0
 8707 0b3d 00000000 		.4byte	0
 8708              	.LLST46:
 8709 0b41 00000000 		.4byte	.LVL105
 8710 0b45 09000000 		.4byte	.LVL106-1
 8711 0b49 0100     		.2byte	0x1
 8712 0b4b 50       		.byte	0x50
 8713 0b4c 09000000 		.4byte	.LVL106-1
 8714 0b50 34000000 		.4byte	.LVL110
 8715 0b54 0100     		.2byte	0x1
 8716 0b56 55       		.byte	0x55
 8717 0b57 34000000 		.4byte	.LVL110
 8718 0b5b 36000000 		.4byte	.LVL112
 8719 0b5f 0400     		.2byte	0x4
 8720 0b61 F3       		.byte	0xf3
 8721 0b62 01       		.uleb128 0x1
 8722 0b63 50       		.byte	0x50
 8723 0b64 9F       		.byte	0x9f
 8724 0b65 36000000 		.4byte	.LVL112
 8725 0b69 58000000 		.4byte	.LFE54
 8726 0b6d 0100     		.2byte	0x1
 8727 0b6f 55       		.byte	0x55
 8728 0b70 00000000 		.4byte	0
 8729 0b74 00000000 		.4byte	0
 8730              	.LLST47:
 8731 0b78 00000000 		.4byte	.LVL105
 8732 0b7c 09000000 		.4byte	.LVL106-1
 8733 0b80 0100     		.2byte	0x1
 8734 0b82 51       		.byte	0x51
 8735 0b83 09000000 		.4byte	.LVL106-1
 8736 0b87 34000000 		.4byte	.LVL109
 8737 0b8b 0100     		.2byte	0x1
 8738 0b8d 54       		.byte	0x54
 8739 0b8e 34000000 		.4byte	.LVL109
 8740 0b92 36000000 		.4byte	.LVL112
 8741 0b96 0400     		.2byte	0x4
 8742 0b98 F3       		.byte	0xf3
 8743 0b99 01       		.uleb128 0x1
 8744 0b9a 51       		.byte	0x51
 8745 0b9b 9F       		.byte	0x9f
 8746 0b9c 36000000 		.4byte	.LVL112
 8747 0ba0 58000000 		.4byte	.LFE54
 8748 0ba4 0100     		.2byte	0x1
 8749 0ba6 54       		.byte	0x54
 8750 0ba7 00000000 		.4byte	0
ARM GAS  C:\Users\EBANO_~1\AppData\Local\Temp\ccyPWgHX.s 			page 195


 8751 0bab 00000000 		.4byte	0
 8752              	.LLST48:
 8753 0baf 0E000000 		.4byte	.LVL107
 8754 0bb3 10000000 		.4byte	.LVL108
 8755 0bb7 0100     		.2byte	0x1
 8756 0bb9 50       		.byte	0x50
 8757 0bba 10000000 		.4byte	.LVL108
 8758 0bbe 34000000 		.4byte	.LVL111
 8759 0bc2 0100     		.2byte	0x1
 8760 0bc4 57       		.byte	0x57
 8761 0bc5 36000000 		.4byte	.LVL112
 8762 0bc9 58000000 		.4byte	.LFE54
 8763 0bcd 0100     		.2byte	0x1
 8764 0bcf 57       		.byte	0x57
 8765 0bd0 00000000 		.4byte	0
 8766 0bd4 00000000 		.4byte	0
 8767              	.LLST41:
 8768 0bd8 00000000 		.4byte	.LFB53
 8769 0bdc 02000000 		.4byte	.LCFI14
 8770 0be0 0200     		.2byte	0x2
 8771 0be2 7D       		.byte	0x7d
 8772 0be3 00       		.sleb128 0
 8773 0be4 02000000 		.4byte	.LCFI14
 8774 0be8 58000000 		.4byte	.LFE53
 8775 0bec 0200     		.2byte	0x2
 8776 0bee 7D       		.byte	0x7d
 8777 0bef 18       		.sleb128 24
 8778 0bf0 00000000 		.4byte	0
 8779 0bf4 00000000 		.4byte	0
 8780              	.LLST42:
 8781 0bf8 00000000 		.4byte	.LVL96
 8782 0bfc 09000000 		.4byte	.LVL97-1
 8783 0c00 0100     		.2byte	0x1
 8784 0c02 50       		.byte	0x50
 8785 0c03 09000000 		.4byte	.LVL97-1
 8786 0c07 34000000 		.4byte	.LVL101
 8787 0c0b 0100     		.2byte	0x1
 8788 0c0d 55       		.byte	0x55
 8789 0c0e 34000000 		.4byte	.LVL101
 8790 0c12 36000000 		.4byte	.LVL103
 8791 0c16 0400     		.2byte	0x4
 8792 0c18 F3       		.byte	0xf3
 8793 0c19 01       		.uleb128 0x1
 8794 0c1a 50       		.byte	0x50
 8795 0c1b 9F       		.byte	0x9f
 8796 0c1c 36000000 		.4byte	.LVL103
 8797 0c20 58000000 		.4byte	.LFE53
 8798 0c24 0100     		.2byte	0x1
 8799 0c26 55       		.byte	0x55
 8800 0c27 00000000 		.4byte	0
 8801 0c2b 00000000 		.4byte	0
 8802              	.LLST43:
 8803 0c2f 00000000 		.4byte	.LVL96
 8804 0c33 09000000 		.4byte	.LVL97-1
 8805 0c37 0100     		.2byte	0x1
 8806 0c39 51       		.byte	0x51
 8807 0c3a 09000000 		.4byte	.LVL97-1
ARM GAS  C:\Users\EBANO_~1\AppData\Local\Temp\ccyPWgHX.s 			page 196


 8808 0c3e 34000000 		.4byte	.LVL100
 8809 0c42 0100     		.2byte	0x1
 8810 0c44 54       		.byte	0x54
 8811 0c45 34000000 		.4byte	.LVL100
 8812 0c49 36000000 		.4byte	.LVL103
 8813 0c4d 0400     		.2byte	0x4
 8814 0c4f F3       		.byte	0xf3
 8815 0c50 01       		.uleb128 0x1
 8816 0c51 51       		.byte	0x51
 8817 0c52 9F       		.byte	0x9f
 8818 0c53 36000000 		.4byte	.LVL103
 8819 0c57 58000000 		.4byte	.LFE53
 8820 0c5b 0100     		.2byte	0x1
 8821 0c5d 54       		.byte	0x54
 8822 0c5e 00000000 		.4byte	0
 8823 0c62 00000000 		.4byte	0
 8824              	.LLST44:
 8825 0c66 0E000000 		.4byte	.LVL98
 8826 0c6a 10000000 		.4byte	.LVL99
 8827 0c6e 0100     		.2byte	0x1
 8828 0c70 50       		.byte	0x50
 8829 0c71 10000000 		.4byte	.LVL99
 8830 0c75 34000000 		.4byte	.LVL102
 8831 0c79 0100     		.2byte	0x1
 8832 0c7b 57       		.byte	0x57
 8833 0c7c 36000000 		.4byte	.LVL103
 8834 0c80 58000000 		.4byte	.LFE53
 8835 0c84 0100     		.2byte	0x1
 8836 0c86 57       		.byte	0x57
 8837 0c87 00000000 		.4byte	0
 8838 0c8b 00000000 		.4byte	0
 8839              	.LLST37:
 8840 0c8f 00000000 		.4byte	.LFB52
 8841 0c93 02000000 		.4byte	.LCFI13
 8842 0c97 0200     		.2byte	0x2
 8843 0c99 7D       		.byte	0x7d
 8844 0c9a 00       		.sleb128 0
 8845 0c9b 02000000 		.4byte	.LCFI13
 8846 0c9f 58000000 		.4byte	.LFE52
 8847 0ca3 0200     		.2byte	0x2
 8848 0ca5 7D       		.byte	0x7d
 8849 0ca6 18       		.sleb128 24
 8850 0ca7 00000000 		.4byte	0
 8851 0cab 00000000 		.4byte	0
 8852              	.LLST38:
 8853 0caf 00000000 		.4byte	.LVL87
 8854 0cb3 09000000 		.4byte	.LVL88-1
 8855 0cb7 0100     		.2byte	0x1
 8856 0cb9 50       		.byte	0x50
 8857 0cba 09000000 		.4byte	.LVL88-1
 8858 0cbe 34000000 		.4byte	.LVL92
 8859 0cc2 0100     		.2byte	0x1
 8860 0cc4 55       		.byte	0x55
 8861 0cc5 34000000 		.4byte	.LVL92
 8862 0cc9 36000000 		.4byte	.LVL94
 8863 0ccd 0400     		.2byte	0x4
 8864 0ccf F3       		.byte	0xf3
ARM GAS  C:\Users\EBANO_~1\AppData\Local\Temp\ccyPWgHX.s 			page 197


 8865 0cd0 01       		.uleb128 0x1
 8866 0cd1 50       		.byte	0x50
 8867 0cd2 9F       		.byte	0x9f
 8868 0cd3 36000000 		.4byte	.LVL94
 8869 0cd7 58000000 		.4byte	.LFE52
 8870 0cdb 0100     		.2byte	0x1
 8871 0cdd 55       		.byte	0x55
 8872 0cde 00000000 		.4byte	0
 8873 0ce2 00000000 		.4byte	0
 8874              	.LLST39:
 8875 0ce6 00000000 		.4byte	.LVL87
 8876 0cea 09000000 		.4byte	.LVL88-1
 8877 0cee 0100     		.2byte	0x1
 8878 0cf0 51       		.byte	0x51
 8879 0cf1 09000000 		.4byte	.LVL88-1
 8880 0cf5 34000000 		.4byte	.LVL91
 8881 0cf9 0100     		.2byte	0x1
 8882 0cfb 54       		.byte	0x54
 8883 0cfc 34000000 		.4byte	.LVL91
 8884 0d00 36000000 		.4byte	.LVL94
 8885 0d04 0400     		.2byte	0x4
 8886 0d06 F3       		.byte	0xf3
 8887 0d07 01       		.uleb128 0x1
 8888 0d08 51       		.byte	0x51
 8889 0d09 9F       		.byte	0x9f
 8890 0d0a 36000000 		.4byte	.LVL94
 8891 0d0e 58000000 		.4byte	.LFE52
 8892 0d12 0100     		.2byte	0x1
 8893 0d14 54       		.byte	0x54
 8894 0d15 00000000 		.4byte	0
 8895 0d19 00000000 		.4byte	0
 8896              	.LLST40:
 8897 0d1d 0E000000 		.4byte	.LVL89
 8898 0d21 10000000 		.4byte	.LVL90
 8899 0d25 0100     		.2byte	0x1
 8900 0d27 50       		.byte	0x50
 8901 0d28 10000000 		.4byte	.LVL90
 8902 0d2c 34000000 		.4byte	.LVL93
 8903 0d30 0100     		.2byte	0x1
 8904 0d32 57       		.byte	0x57
 8905 0d33 36000000 		.4byte	.LVL94
 8906 0d37 58000000 		.4byte	.LFE52
 8907 0d3b 0100     		.2byte	0x1
 8908 0d3d 57       		.byte	0x57
 8909 0d3e 00000000 		.4byte	0
 8910 0d42 00000000 		.4byte	0
 8911              	.LLST33:
 8912 0d46 00000000 		.4byte	.LFB51
 8913 0d4a 02000000 		.4byte	.LCFI11
 8914 0d4e 0200     		.2byte	0x2
 8915 0d50 7D       		.byte	0x7d
 8916 0d51 00       		.sleb128 0
 8917 0d52 02000000 		.4byte	.LCFI11
 8918 0d56 06000000 		.4byte	.LCFI12
 8919 0d5a 0200     		.2byte	0x2
 8920 0d5c 7D       		.byte	0x7d
 8921 0d5d 14       		.sleb128 20
ARM GAS  C:\Users\EBANO_~1\AppData\Local\Temp\ccyPWgHX.s 			page 198


 8922 0d5e 06000000 		.4byte	.LCFI12
 8923 0d62 84000000 		.4byte	.LFE51
 8924 0d66 0200     		.2byte	0x2
 8925 0d68 7D       		.byte	0x7d
 8926 0d69 18       		.sleb128 24
 8927 0d6a 00000000 		.4byte	0
 8928 0d6e 00000000 		.4byte	0
 8929              	.LLST34:
 8930 0d72 00000000 		.4byte	.LVL78
 8931 0d76 0D000000 		.4byte	.LVL79-1
 8932 0d7a 0100     		.2byte	0x1
 8933 0d7c 50       		.byte	0x50
 8934 0d7d 0D000000 		.4byte	.LVL79-1
 8935 0d81 3C000000 		.4byte	.LVL82
 8936 0d85 0100     		.2byte	0x1
 8937 0d87 54       		.byte	0x54
 8938 0d88 3C000000 		.4byte	.LVL82
 8939 0d8c 42000000 		.4byte	.LVL85
 8940 0d90 0400     		.2byte	0x4
 8941 0d92 F3       		.byte	0xf3
 8942 0d93 01       		.uleb128 0x1
 8943 0d94 50       		.byte	0x50
 8944 0d95 9F       		.byte	0x9f
 8945 0d96 42000000 		.4byte	.LVL85
 8946 0d9a 84000000 		.4byte	.LFE51
 8947 0d9e 0100     		.2byte	0x1
 8948 0da0 54       		.byte	0x54
 8949 0da1 00000000 		.4byte	0
 8950 0da5 00000000 		.4byte	0
 8951              	.LLST35:
 8952 0da9 00000000 		.4byte	.LVL78
 8953 0dad 0D000000 		.4byte	.LVL79-1
 8954 0db1 0100     		.2byte	0x1
 8955 0db3 51       		.byte	0x51
 8956 0db4 0D000000 		.4byte	.LVL79-1
 8957 0db8 3C000000 		.4byte	.LVL83
 8958 0dbc 0100     		.2byte	0x1
 8959 0dbe 55       		.byte	0x55
 8960 0dbf 3C000000 		.4byte	.LVL83
 8961 0dc3 42000000 		.4byte	.LVL85
 8962 0dc7 0400     		.2byte	0x4
 8963 0dc9 F3       		.byte	0xf3
 8964 0dca 01       		.uleb128 0x1
 8965 0dcb 51       		.byte	0x51
 8966 0dcc 9F       		.byte	0x9f
 8967 0dcd 42000000 		.4byte	.LVL85
 8968 0dd1 84000000 		.4byte	.LFE51
 8969 0dd5 0100     		.2byte	0x1
 8970 0dd7 55       		.byte	0x55
 8971 0dd8 00000000 		.4byte	0
 8972 0ddc 00000000 		.4byte	0
 8973              	.LLST36:
 8974 0de0 14000000 		.4byte	.LVL80
 8975 0de4 18000000 		.4byte	.LVL81
 8976 0de8 0100     		.2byte	0x1
 8977 0dea 50       		.byte	0x50
 8978 0deb 18000000 		.4byte	.LVL81
ARM GAS  C:\Users\EBANO_~1\AppData\Local\Temp\ccyPWgHX.s 			page 199


 8979 0def 3C000000 		.4byte	.LVL84
 8980 0df3 0100     		.2byte	0x1
 8981 0df5 58       		.byte	0x58
 8982 0df6 42000000 		.4byte	.LVL85
 8983 0dfa 84000000 		.4byte	.LFE51
 8984 0dfe 0100     		.2byte	0x1
 8985 0e00 58       		.byte	0x58
 8986 0e01 00000000 		.4byte	0
 8987 0e05 00000000 		.4byte	0
 8988              	.LLST31:
 8989 0e09 00000000 		.4byte	.LFB46
 8990 0e0d 04000000 		.4byte	.LCFI10
 8991 0e11 0200     		.2byte	0x2
 8992 0e13 7D       		.byte	0x7d
 8993 0e14 00       		.sleb128 0
 8994 0e15 04000000 		.4byte	.LCFI10
 8995 0e19 C4000000 		.4byte	.LFE46
 8996 0e1d 0200     		.2byte	0x2
 8997 0e1f 7D       		.byte	0x7d
 8998 0e20 08       		.sleb128 8
 8999 0e21 00000000 		.4byte	0
 9000 0e25 00000000 		.4byte	0
 9001              	.LLST32:
 9002 0e29 00000000 		.4byte	.LVL69
 9003 0e2d 12000000 		.4byte	.LVL70
 9004 0e31 0100     		.2byte	0x1
 9005 0e33 50       		.byte	0x50
 9006 0e34 12000000 		.4byte	.LVL70
 9007 0e38 4A000000 		.4byte	.LVL71
 9008 0e3c 0100     		.2byte	0x1
 9009 0e3e 54       		.byte	0x54
 9010 0e3f 4A000000 		.4byte	.LVL71
 9011 0e43 4C000000 		.4byte	.LVL72
 9012 0e47 0400     		.2byte	0x4
 9013 0e49 F3       		.byte	0xf3
 9014 0e4a 01       		.uleb128 0x1
 9015 0e4b 50       		.byte	0x50
 9016 0e4c 9F       		.byte	0x9f
 9017 0e4d 4C000000 		.4byte	.LVL72
 9018 0e51 62000000 		.4byte	.LVL74
 9019 0e55 0100     		.2byte	0x1
 9020 0e57 54       		.byte	0x54
 9021 0e58 62000000 		.4byte	.LVL74
 9022 0e5c 65000000 		.4byte	.LVL75-1
 9023 0e60 0100     		.2byte	0x1
 9024 0e62 50       		.byte	0x50
 9025 0e63 65000000 		.4byte	.LVL75-1
 9026 0e67 C4000000 		.4byte	.LFE46
 9027 0e6b 0100     		.2byte	0x1
 9028 0e6d 54       		.byte	0x54
 9029 0e6e 00000000 		.4byte	0
 9030 0e72 00000000 		.4byte	0
 9031              	.LLST28:
 9032 0e76 00000000 		.4byte	.LFB45
 9033 0e7a 04000000 		.4byte	.LCFI9
 9034 0e7e 0200     		.2byte	0x2
 9035 0e80 7D       		.byte	0x7d
ARM GAS  C:\Users\EBANO_~1\AppData\Local\Temp\ccyPWgHX.s 			page 200


 9036 0e81 00       		.sleb128 0
 9037 0e82 04000000 		.4byte	.LCFI9
 9038 0e86 64000000 		.4byte	.LFE45
 9039 0e8a 0200     		.2byte	0x2
 9040 0e8c 7D       		.byte	0x7d
 9041 0e8d 08       		.sleb128 8
 9042 0e8e 00000000 		.4byte	0
 9043 0e92 00000000 		.4byte	0
 9044              	.LLST29:
 9045 0e96 00000000 		.4byte	.LVL61
 9046 0e9a 46000000 		.4byte	.LVL63
 9047 0e9e 0100     		.2byte	0x1
 9048 0ea0 50       		.byte	0x50
 9049 0ea1 46000000 		.4byte	.LVL63
 9050 0ea5 48000000 		.4byte	.LVL64
 9051 0ea9 0400     		.2byte	0x4
 9052 0eab F3       		.byte	0xf3
 9053 0eac 01       		.uleb128 0x1
 9054 0ead 50       		.byte	0x50
 9055 0eae 9F       		.byte	0x9f
 9056 0eaf 48000000 		.4byte	.LVL64
 9057 0eb3 54000000 		.4byte	.LVL67
 9058 0eb7 0100     		.2byte	0x1
 9059 0eb9 50       		.byte	0x50
 9060 0eba 54000000 		.4byte	.LVL67
 9061 0ebe 64000000 		.4byte	.LFE45
 9062 0ec2 0400     		.2byte	0x4
 9063 0ec4 F3       		.byte	0xf3
 9064 0ec5 01       		.uleb128 0x1
 9065 0ec6 50       		.byte	0x50
 9066 0ec7 9F       		.byte	0x9f
 9067 0ec8 00000000 		.4byte	0
 9068 0ecc 00000000 		.4byte	0
 9069              	.LLST30:
 9070 0ed0 00000000 		.4byte	.LVL61
 9071 0ed4 38000000 		.4byte	.LVL62
 9072 0ed8 0100     		.2byte	0x1
 9073 0eda 51       		.byte	0x51
 9074 0edb 38000000 		.4byte	.LVL62
 9075 0edf 48000000 		.4byte	.LVL64
 9076 0ee3 0400     		.2byte	0x4
 9077 0ee5 F3       		.byte	0xf3
 9078 0ee6 01       		.uleb128 0x1
 9079 0ee7 51       		.byte	0x51
 9080 0ee8 9F       		.byte	0x9f
 9081 0ee9 48000000 		.4byte	.LVL64
 9082 0eed 4C000000 		.4byte	.LVL65
 9083 0ef1 0100     		.2byte	0x1
 9084 0ef3 51       		.byte	0x51
 9085 0ef4 4C000000 		.4byte	.LVL65
 9086 0ef8 52000000 		.4byte	.LVL66
 9087 0efc 0400     		.2byte	0x4
 9088 0efe F3       		.byte	0xf3
 9089 0eff 01       		.uleb128 0x1
 9090 0f00 51       		.byte	0x51
 9091 0f01 9F       		.byte	0x9f
 9092 0f02 52000000 		.4byte	.LVL66
ARM GAS  C:\Users\EBANO_~1\AppData\Local\Temp\ccyPWgHX.s 			page 201


 9093 0f06 64000000 		.4byte	.LFE45
 9094 0f0a 0100     		.2byte	0x1
 9095 0f0c 51       		.byte	0x51
 9096 0f0d 00000000 		.4byte	0
 9097 0f11 00000000 		.4byte	0
 9098              	.LLST24:
 9099 0f15 00000000 		.4byte	.LFB44
 9100 0f19 02000000 		.4byte	.LCFI7
 9101 0f1d 0200     		.2byte	0x2
 9102 0f1f 7D       		.byte	0x7d
 9103 0f20 00       		.sleb128 0
 9104 0f21 02000000 		.4byte	.LCFI7
 9105 0f25 0A000000 		.4byte	.LCFI8
 9106 0f29 0200     		.2byte	0x2
 9107 0f2b 7D       		.byte	0x7d
 9108 0f2c 14       		.sleb128 20
 9109 0f2d 0A000000 		.4byte	.LCFI8
 9110 0f31 00010000 		.4byte	.LFE44
 9111 0f35 0200     		.2byte	0x2
 9112 0f37 7D       		.byte	0x7d
 9113 0f38 1C       		.sleb128 28
 9114 0f39 00000000 		.4byte	0
 9115 0f3d 00000000 		.4byte	0
 9116              	.LLST25:
 9117 0f41 00000000 		.4byte	.LVL51
 9118 0f45 D4000000 		.4byte	.LVL58
 9119 0f49 0100     		.2byte	0x1
 9120 0f4b 50       		.byte	0x50
 9121 0f4c D4000000 		.4byte	.LVL58
 9122 0f50 DC000000 		.4byte	.LVL59
 9123 0f54 0400     		.2byte	0x4
 9124 0f56 F3       		.byte	0xf3
 9125 0f57 01       		.uleb128 0x1
 9126 0f58 50       		.byte	0x50
 9127 0f59 9F       		.byte	0x9f
 9128 0f5a DC000000 		.4byte	.LVL59
 9129 0f5e F6000000 		.4byte	.LVL60
 9130 0f62 0100     		.2byte	0x1
 9131 0f64 50       		.byte	0x50
 9132 0f65 F6000000 		.4byte	.LVL60
 9133 0f69 00010000 		.4byte	.LFE44
 9134 0f6d 0400     		.2byte	0x4
 9135 0f6f F3       		.byte	0xf3
 9136 0f70 01       		.uleb128 0x1
 9137 0f71 50       		.byte	0x50
 9138 0f72 9F       		.byte	0x9f
 9139 0f73 00000000 		.4byte	0
 9140 0f77 00000000 		.4byte	0
 9141              	.LLST26:
 9142 0f7b 00000000 		.4byte	.LVL51
 9143 0f7f 90000000 		.4byte	.LVL52
 9144 0f83 0100     		.2byte	0x1
 9145 0f85 51       		.byte	0x51
 9146 0f86 90000000 		.4byte	.LVL52
 9147 0f8a DC000000 		.4byte	.LVL59
 9148 0f8e 0400     		.2byte	0x4
 9149 0f90 F3       		.byte	0xf3
ARM GAS  C:\Users\EBANO_~1\AppData\Local\Temp\ccyPWgHX.s 			page 202


 9150 0f91 01       		.uleb128 0x1
 9151 0f92 51       		.byte	0x51
 9152 0f93 9F       		.byte	0x9f
 9153 0f94 DC000000 		.4byte	.LVL59
 9154 0f98 00010000 		.4byte	.LFE44
 9155 0f9c 0100     		.2byte	0x1
 9156 0f9e 51       		.byte	0x51
 9157 0f9f 00000000 		.4byte	0
 9158 0fa3 00000000 		.4byte	0
 9159              	.LLST27:
 9160 0fa7 00000000 		.4byte	.LVL51
 9161 0fab 94000000 		.4byte	.LVL53
 9162 0faf 0200     		.2byte	0x2
 9163 0fb1 30       		.byte	0x30
 9164 0fb2 9F       		.byte	0x9f
 9165 0fb3 94000000 		.4byte	.LVL53
 9166 0fb7 96000000 		.4byte	.LVL54
 9167 0fbb 2E00     		.2byte	0x2e
 9168 0fbd F3       		.byte	0xf3
 9169 0fbe 01       		.uleb128 0x1
 9170 0fbf 51       		.byte	0x51
 9171 0fc0 23       		.byte	0x23
 9172 0fc1 04       		.uleb128 0x4
 9173 0fc2 06       		.byte	0x6
 9174 0fc3 72       		.byte	0x72
 9175 0fc4 00       		.sleb128 0
 9176 0fc5 21       		.byte	0x21
 9177 0fc6 76       		.byte	0x76
 9178 0fc7 00       		.sleb128 0
 9179 0fc8 21       		.byte	0x21
 9180 0fc9 75       		.byte	0x75
 9181 0fca 00       		.sleb128 0
 9182 0fcb 21       		.byte	0x21
 9183 0fcc 74       		.byte	0x74
 9184 0fcd 00       		.sleb128 0
 9185 0fce 21       		.byte	0x21
 9186 0fcf F3       		.byte	0xf3
 9187 0fd0 01       		.uleb128 0x1
 9188 0fd1 51       		.byte	0x51
 9189 0fd2 23       		.byte	0x23
 9190 0fd3 14       		.uleb128 0x14
 9191 0fd4 06       		.byte	0x6
 9192 0fd5 21       		.byte	0x21
 9193 0fd6 F3       		.byte	0xf3
 9194 0fd7 01       		.uleb128 0x1
 9195 0fd8 51       		.byte	0x51
 9196 0fd9 23       		.byte	0x23
 9197 0fda 18       		.uleb128 0x18
 9198 0fdb 06       		.byte	0x6
 9199 0fdc 21       		.byte	0x21
 9200 0fdd F3       		.byte	0xf3
 9201 0fde 01       		.uleb128 0x1
 9202 0fdf 51       		.byte	0x51
 9203 0fe0 23       		.byte	0x23
 9204 0fe1 1C       		.uleb128 0x1c
 9205 0fe2 06       		.byte	0x6
 9206 0fe3 21       		.byte	0x21
ARM GAS  C:\Users\EBANO_~1\AppData\Local\Temp\ccyPWgHX.s 			page 203


 9207 0fe4 77       		.byte	0x77
 9208 0fe5 00       		.sleb128 0
 9209 0fe6 21       		.byte	0x21
 9210 0fe7 71       		.byte	0x71
 9211 0fe8 00       		.sleb128 0
 9212 0fe9 21       		.byte	0x21
 9213 0fea 9F       		.byte	0x9f
 9214 0feb 96000000 		.4byte	.LVL54
 9215 0fef 98000000 		.4byte	.LVL55
 9216 0ff3 3200     		.2byte	0x32
 9217 0ff5 F3       		.byte	0xf3
 9218 0ff6 01       		.uleb128 0x1
 9219 0ff7 51       		.byte	0x51
 9220 0ff8 23       		.byte	0x23
 9221 0ff9 04       		.uleb128 0x4
 9222 0ffa 06       		.byte	0x6
 9223 0ffb 72       		.byte	0x72
 9224 0ffc 00       		.sleb128 0
 9225 0ffd 21       		.byte	0x21
 9226 0ffe 76       		.byte	0x76
 9227 0fff 00       		.sleb128 0
 9228 1000 21       		.byte	0x21
 9229 1001 75       		.byte	0x75
 9230 1002 00       		.sleb128 0
 9231 1003 21       		.byte	0x21
 9232 1004 74       		.byte	0x74
 9233 1005 00       		.sleb128 0
 9234 1006 21       		.byte	0x21
 9235 1007 F3       		.byte	0xf3
 9236 1008 01       		.uleb128 0x1
 9237 1009 51       		.byte	0x51
 9238 100a 23       		.byte	0x23
 9239 100b 14       		.uleb128 0x14
 9240 100c 06       		.byte	0x6
 9241 100d 21       		.byte	0x21
 9242 100e F3       		.byte	0xf3
 9243 100f 01       		.uleb128 0x1
 9244 1010 51       		.byte	0x51
 9245 1011 23       		.byte	0x23
 9246 1012 18       		.uleb128 0x18
 9247 1013 06       		.byte	0x6
 9248 1014 21       		.byte	0x21
 9249 1015 F3       		.byte	0xf3
 9250 1016 01       		.uleb128 0x1
 9251 1017 51       		.byte	0x51
 9252 1018 23       		.byte	0x23
 9253 1019 1C       		.uleb128 0x1c
 9254 101a 06       		.byte	0x6
 9255 101b 21       		.byte	0x21
 9256 101c 77       		.byte	0x77
 9257 101d 00       		.sleb128 0
 9258 101e 21       		.byte	0x21
 9259 101f F3       		.byte	0xf3
 9260 1020 01       		.uleb128 0x1
 9261 1021 51       		.byte	0x51
 9262 1022 23       		.byte	0x23
 9263 1023 24       		.uleb128 0x24
ARM GAS  C:\Users\EBANO_~1\AppData\Local\Temp\ccyPWgHX.s 			page 204


 9264 1024 06       		.byte	0x6
 9265 1025 21       		.byte	0x21
 9266 1026 9F       		.byte	0x9f
 9267 1027 98000000 		.4byte	.LVL55
 9268 102b 9E000000 		.4byte	.LVL56
 9269 102f 3600     		.2byte	0x36
 9270 1031 F3       		.byte	0xf3
 9271 1032 01       		.uleb128 0x1
 9272 1033 51       		.byte	0x51
 9273 1034 23       		.byte	0x23
 9274 1035 04       		.uleb128 0x4
 9275 1036 06       		.byte	0x6
 9276 1037 72       		.byte	0x72
 9277 1038 00       		.sleb128 0
 9278 1039 21       		.byte	0x21
 9279 103a 76       		.byte	0x76
 9280 103b 00       		.sleb128 0
 9281 103c 21       		.byte	0x21
 9282 103d 75       		.byte	0x75
 9283 103e 00       		.sleb128 0
 9284 103f 21       		.byte	0x21
 9285 1040 74       		.byte	0x74
 9286 1041 00       		.sleb128 0
 9287 1042 21       		.byte	0x21
 9288 1043 F3       		.byte	0xf3
 9289 1044 01       		.uleb128 0x1
 9290 1045 51       		.byte	0x51
 9291 1046 23       		.byte	0x23
 9292 1047 14       		.uleb128 0x14
 9293 1048 06       		.byte	0x6
 9294 1049 21       		.byte	0x21
 9295 104a F3       		.byte	0xf3
 9296 104b 01       		.uleb128 0x1
 9297 104c 51       		.byte	0x51
 9298 104d 23       		.byte	0x23
 9299 104e 18       		.uleb128 0x18
 9300 104f 06       		.byte	0x6
 9301 1050 21       		.byte	0x21
 9302 1051 F3       		.byte	0xf3
 9303 1052 01       		.uleb128 0x1
 9304 1053 51       		.byte	0x51
 9305 1054 23       		.byte	0x23
 9306 1055 1C       		.uleb128 0x1c
 9307 1056 06       		.byte	0x6
 9308 1057 21       		.byte	0x21
 9309 1058 F3       		.byte	0xf3
 9310 1059 01       		.uleb128 0x1
 9311 105a 51       		.byte	0x51
 9312 105b 23       		.byte	0x23
 9313 105c 20       		.uleb128 0x20
 9314 105d 06       		.byte	0x6
 9315 105e 21       		.byte	0x21
 9316 105f F3       		.byte	0xf3
 9317 1060 01       		.uleb128 0x1
 9318 1061 51       		.byte	0x51
 9319 1062 23       		.byte	0x23
 9320 1063 24       		.uleb128 0x24
ARM GAS  C:\Users\EBANO_~1\AppData\Local\Temp\ccyPWgHX.s 			page 205


 9321 1064 06       		.byte	0x6
 9322 1065 21       		.byte	0x21
 9323 1066 9F       		.byte	0x9f
 9324 1067 9E000000 		.4byte	.LVL56
 9325 106b C0000000 		.4byte	.LVL57
 9326 106f 3800     		.2byte	0x38
 9327 1071 F3       		.byte	0xf3
 9328 1072 01       		.uleb128 0x1
 9329 1073 51       		.byte	0x51
 9330 1074 23       		.byte	0x23
 9331 1075 04       		.uleb128 0x4
 9332 1076 06       		.byte	0x6
 9333 1077 F3       		.byte	0xf3
 9334 1078 01       		.uleb128 0x1
 9335 1079 51       		.byte	0x51
 9336 107a 06       		.byte	0x6
 9337 107b 21       		.byte	0x21
 9338 107c 76       		.byte	0x76
 9339 107d 00       		.sleb128 0
 9340 107e 21       		.byte	0x21
 9341 107f 75       		.byte	0x75
 9342 1080 00       		.sleb128 0
 9343 1081 21       		.byte	0x21
 9344 1082 74       		.byte	0x74
 9345 1083 00       		.sleb128 0
 9346 1084 21       		.byte	0x21
 9347 1085 F3       		.byte	0xf3
 9348 1086 01       		.uleb128 0x1
 9349 1087 51       		.byte	0x51
 9350 1088 23       		.byte	0x23
 9351 1089 14       		.uleb128 0x14
 9352 108a 06       		.byte	0x6
 9353 108b 21       		.byte	0x21
 9354 108c F3       		.byte	0xf3
 9355 108d 01       		.uleb128 0x1
 9356 108e 51       		.byte	0x51
 9357 108f 23       		.byte	0x23
 9358 1090 18       		.uleb128 0x18
 9359 1091 06       		.byte	0x6
 9360 1092 21       		.byte	0x21
 9361 1093 F3       		.byte	0xf3
 9362 1094 01       		.uleb128 0x1
 9363 1095 51       		.byte	0x51
 9364 1096 23       		.byte	0x23
 9365 1097 1C       		.uleb128 0x1c
 9366 1098 06       		.byte	0x6
 9367 1099 21       		.byte	0x21
 9368 109a F3       		.byte	0xf3
 9369 109b 01       		.uleb128 0x1
 9370 109c 51       		.byte	0x51
 9371 109d 23       		.byte	0x23
 9372 109e 20       		.uleb128 0x20
 9373 109f 06       		.byte	0x6
 9374 10a0 21       		.byte	0x21
 9375 10a1 F3       		.byte	0xf3
 9376 10a2 01       		.uleb128 0x1
 9377 10a3 51       		.byte	0x51
ARM GAS  C:\Users\EBANO_~1\AppData\Local\Temp\ccyPWgHX.s 			page 206


 9378 10a4 23       		.byte	0x23
 9379 10a5 24       		.uleb128 0x24
 9380 10a6 06       		.byte	0x6
 9381 10a7 21       		.byte	0x21
 9382 10a8 9F       		.byte	0x9f
 9383 10a9 DC000000 		.4byte	.LVL59
 9384 10ad 00010000 		.4byte	.LFE44
 9385 10b1 0200     		.2byte	0x2
 9386 10b3 30       		.byte	0x30
 9387 10b4 9F       		.byte	0x9f
 9388 10b5 00000000 		.4byte	0
 9389 10b9 00000000 		.4byte	0
 9390              	.LLST20:
 9391 10bd 00000000 		.4byte	.LFB43
 9392 10c1 02000000 		.4byte	.LCFI5
 9393 10c5 0200     		.2byte	0x2
 9394 10c7 7D       		.byte	0x7d
 9395 10c8 00       		.sleb128 0
 9396 10c9 02000000 		.4byte	.LCFI5
 9397 10cd 08000000 		.4byte	.LCFI6
 9398 10d1 0200     		.2byte	0x2
 9399 10d3 7D       		.byte	0x7d
 9400 10d4 14       		.sleb128 20
 9401 10d5 08000000 		.4byte	.LCFI6
 9402 10d9 E0000000 		.4byte	.LFE43
 9403 10dd 0200     		.2byte	0x2
 9404 10df 7D       		.byte	0x7d
 9405 10e0 18       		.sleb128 24
 9406 10e1 00000000 		.4byte	0
 9407 10e5 00000000 		.4byte	0
 9408              	.LLST21:
 9409 10e9 00000000 		.4byte	.LVL44
 9410 10ed BA000000 		.4byte	.LVL48
 9411 10f1 0100     		.2byte	0x1
 9412 10f3 50       		.byte	0x50
 9413 10f4 BA000000 		.4byte	.LVL48
 9414 10f8 C0000000 		.4byte	.LVL49
 9415 10fc 0400     		.2byte	0x4
 9416 10fe F3       		.byte	0xf3
 9417 10ff 01       		.uleb128 0x1
 9418 1100 50       		.byte	0x50
 9419 1101 9F       		.byte	0x9f
 9420 1102 C0000000 		.4byte	.LVL49
 9421 1106 DA000000 		.4byte	.LVL50
 9422 110a 0100     		.2byte	0x1
 9423 110c 50       		.byte	0x50
 9424 110d DA000000 		.4byte	.LVL50
 9425 1111 E0000000 		.4byte	.LFE43
 9426 1115 0400     		.2byte	0x4
 9427 1117 F3       		.byte	0xf3
 9428 1118 01       		.uleb128 0x1
 9429 1119 50       		.byte	0x50
 9430 111a 9F       		.byte	0x9f
 9431 111b 00000000 		.4byte	0
 9432 111f 00000000 		.4byte	0
 9433              	.LLST22:
 9434 1123 00000000 		.4byte	.LVL44
ARM GAS  C:\Users\EBANO_~1\AppData\Local\Temp\ccyPWgHX.s 			page 207


 9435 1127 8C000000 		.4byte	.LVL45
 9436 112b 0100     		.2byte	0x1
 9437 112d 51       		.byte	0x51
 9438 112e 8C000000 		.4byte	.LVL45
 9439 1132 C0000000 		.4byte	.LVL49
 9440 1136 0400     		.2byte	0x4
 9441 1138 F3       		.byte	0xf3
 9442 1139 01       		.uleb128 0x1
 9443 113a 51       		.byte	0x51
 9444 113b 9F       		.byte	0x9f
 9445 113c C0000000 		.4byte	.LVL49
 9446 1140 E0000000 		.4byte	.LFE43
 9447 1144 0100     		.2byte	0x1
 9448 1146 51       		.byte	0x51
 9449 1147 00000000 		.4byte	0
 9450 114b 00000000 		.4byte	0
 9451              	.LLST23:
 9452 114f 00000000 		.4byte	.LVL44
 9453 1153 8E000000 		.4byte	.LVL46
 9454 1157 0200     		.2byte	0x2
 9455 1159 30       		.byte	0x30
 9456 115a 9F       		.byte	0x9f
 9457 115b 8E000000 		.4byte	.LVL46
 9458 115f 96000000 		.4byte	.LVL47
 9459 1163 2F00     		.2byte	0x2f
 9460 1165 74       		.byte	0x74
 9461 1166 00       		.sleb128 0
 9462 1167 77       		.byte	0x77
 9463 1168 00       		.sleb128 0
 9464 1169 21       		.byte	0x21
 9465 116a 76       		.byte	0x76
 9466 116b 00       		.sleb128 0
 9467 116c 21       		.byte	0x21
 9468 116d 75       		.byte	0x75
 9469 116e 00       		.sleb128 0
 9470 116f 21       		.byte	0x21
 9471 1170 F3       		.byte	0xf3
 9472 1171 01       		.uleb128 0x1
 9473 1172 51       		.byte	0x51
 9474 1173 23       		.byte	0x23
 9475 1174 14       		.uleb128 0x14
 9476 1175 06       		.byte	0x6
 9477 1176 21       		.byte	0x21
 9478 1177 F3       		.byte	0xf3
 9479 1178 01       		.uleb128 0x1
 9480 1179 51       		.byte	0x51
 9481 117a 23       		.byte	0x23
 9482 117b 18       		.uleb128 0x18
 9483 117c 06       		.byte	0x6
 9484 117d 21       		.byte	0x21
 9485 117e F3       		.byte	0xf3
 9486 117f 01       		.uleb128 0x1
 9487 1180 51       		.byte	0x51
 9488 1181 23       		.byte	0x23
 9489 1182 1C       		.uleb128 0x1c
 9490 1183 06       		.byte	0x6
 9491 1184 21       		.byte	0x21
ARM GAS  C:\Users\EBANO_~1\AppData\Local\Temp\ccyPWgHX.s 			page 208


 9492 1185 F3       		.byte	0xf3
 9493 1186 01       		.uleb128 0x1
 9494 1187 51       		.byte	0x51
 9495 1188 23       		.byte	0x23
 9496 1189 20       		.uleb128 0x20
 9497 118a 06       		.byte	0x6
 9498 118b 21       		.byte	0x21
 9499 118c F3       		.byte	0xf3
 9500 118d 01       		.uleb128 0x1
 9501 118e 51       		.byte	0x51
 9502 118f 23       		.byte	0x23
 9503 1190 24       		.uleb128 0x24
 9504 1191 06       		.byte	0x6
 9505 1192 21       		.byte	0x21
 9506 1193 9F       		.byte	0x9f
 9507 1194 96000000 		.4byte	.LVL47
 9508 1198 BA000000 		.4byte	.LVL48
 9509 119c 3100     		.2byte	0x31
 9510 119e F3       		.byte	0xf3
 9511 119f 01       		.uleb128 0x1
 9512 11a0 51       		.byte	0x51
 9513 11a1 06       		.byte	0x6
 9514 11a2 77       		.byte	0x77
 9515 11a3 00       		.sleb128 0
 9516 11a4 21       		.byte	0x21
 9517 11a5 76       		.byte	0x76
 9518 11a6 00       		.sleb128 0
 9519 11a7 21       		.byte	0x21
 9520 11a8 75       		.byte	0x75
 9521 11a9 00       		.sleb128 0
 9522 11aa 21       		.byte	0x21
 9523 11ab F3       		.byte	0xf3
 9524 11ac 01       		.uleb128 0x1
 9525 11ad 51       		.byte	0x51
 9526 11ae 23       		.byte	0x23
 9527 11af 14       		.uleb128 0x14
 9528 11b0 06       		.byte	0x6
 9529 11b1 21       		.byte	0x21
 9530 11b2 F3       		.byte	0xf3
 9531 11b3 01       		.uleb128 0x1
 9532 11b4 51       		.byte	0x51
 9533 11b5 23       		.byte	0x23
 9534 11b6 18       		.uleb128 0x18
 9535 11b7 06       		.byte	0x6
 9536 11b8 21       		.byte	0x21
 9537 11b9 F3       		.byte	0xf3
 9538 11ba 01       		.uleb128 0x1
 9539 11bb 51       		.byte	0x51
 9540 11bc 23       		.byte	0x23
 9541 11bd 1C       		.uleb128 0x1c
 9542 11be 06       		.byte	0x6
 9543 11bf 21       		.byte	0x21
 9544 11c0 F3       		.byte	0xf3
 9545 11c1 01       		.uleb128 0x1
 9546 11c2 51       		.byte	0x51
 9547 11c3 23       		.byte	0x23
 9548 11c4 20       		.uleb128 0x20
ARM GAS  C:\Users\EBANO_~1\AppData\Local\Temp\ccyPWgHX.s 			page 209


 9549 11c5 06       		.byte	0x6
 9550 11c6 21       		.byte	0x21
 9551 11c7 F3       		.byte	0xf3
 9552 11c8 01       		.uleb128 0x1
 9553 11c9 51       		.byte	0x51
 9554 11ca 23       		.byte	0x23
 9555 11cb 24       		.uleb128 0x24
 9556 11cc 06       		.byte	0x6
 9557 11cd 21       		.byte	0x21
 9558 11ce 9F       		.byte	0x9f
 9559 11cf C0000000 		.4byte	.LVL49
 9560 11d3 E0000000 		.4byte	.LFE43
 9561 11d7 0200     		.2byte	0x2
 9562 11d9 30       		.byte	0x30
 9563 11da 9F       		.byte	0x9f
 9564 11db 00000000 		.4byte	0
 9565 11df 00000000 		.4byte	0
 9566              	.LLST13:
 9567 11e3 00000000 		.4byte	.LFB42
 9568 11e7 02000000 		.4byte	.LCFI3
 9569 11eb 0200     		.2byte	0x2
 9570 11ed 7D       		.byte	0x7d
 9571 11ee 00       		.sleb128 0
 9572 11ef 02000000 		.4byte	.LCFI3
 9573 11f3 12000000 		.4byte	.LCFI4
 9574 11f7 0200     		.2byte	0x2
 9575 11f9 7D       		.byte	0x7d
 9576 11fa 18       		.sleb128 24
 9577 11fb 12000000 		.4byte	.LCFI4
 9578 11ff A8000000 		.4byte	.LFE42
 9579 1203 0200     		.2byte	0x2
 9580 1205 7D       		.byte	0x7d
 9581 1206 20       		.sleb128 32
 9582 1207 00000000 		.4byte	0
 9583 120b 00000000 		.4byte	0
 9584              	.LLST14:
 9585 120f 00000000 		.4byte	.LVL25
 9586 1213 1A000000 		.4byte	.LVL29
 9587 1217 0100     		.2byte	0x1
 9588 1219 50       		.byte	0x50
 9589 121a 1A000000 		.4byte	.LVL29
 9590 121e 92000000 		.4byte	.LVL42
 9591 1222 0100     		.2byte	0x1
 9592 1224 57       		.byte	0x57
 9593 1225 92000000 		.4byte	.LVL42
 9594 1229 A8000000 		.4byte	.LFE42
 9595 122d 0400     		.2byte	0x4
 9596 122f F3       		.byte	0xf3
 9597 1230 01       		.uleb128 0x1
 9598 1231 50       		.byte	0x50
 9599 1232 9F       		.byte	0x9f
 9600 1233 00000000 		.4byte	0
 9601 1237 00000000 		.4byte	0
 9602              	.LLST15:
 9603 123b 00000000 		.4byte	.LVL25
 9604 123f 0A000000 		.4byte	.LVL26
 9605 1243 0100     		.2byte	0x1
ARM GAS  C:\Users\EBANO_~1\AppData\Local\Temp\ccyPWgHX.s 			page 210


 9606 1245 51       		.byte	0x51
 9607 1246 0A000000 		.4byte	.LVL26
 9608 124a 92000000 		.4byte	.LVL40
 9609 124e 0100     		.2byte	0x1
 9610 1250 54       		.byte	0x54
 9611 1251 92000000 		.4byte	.LVL40
 9612 1255 A8000000 		.4byte	.LFE42
 9613 1259 0400     		.2byte	0x4
 9614 125b F3       		.byte	0xf3
 9615 125c 01       		.uleb128 0x1
 9616 125d 51       		.byte	0x51
 9617 125e 9F       		.byte	0x9f
 9618 125f 00000000 		.4byte	0
 9619 1263 00000000 		.4byte	0
 9620              	.LLST16:
 9621 1267 00000000 		.4byte	.LVL25
 9622 126b 10000000 		.4byte	.LVL27
 9623 126f 0100     		.2byte	0x1
 9624 1271 52       		.byte	0x52
 9625 1272 10000000 		.4byte	.LVL27
 9626 1276 92000000 		.4byte	.LVL41
 9627 127a 0100     		.2byte	0x1
 9628 127c 55       		.byte	0x55
 9629 127d 92000000 		.4byte	.LVL41
 9630 1281 A8000000 		.4byte	.LFE42
 9631 1285 0400     		.2byte	0x4
 9632 1287 F3       		.byte	0xf3
 9633 1288 01       		.uleb128 0x1
 9634 1289 52       		.byte	0x52
 9635 128a 9F       		.byte	0x9f
 9636 128b 00000000 		.4byte	0
 9637 128f 00000000 		.4byte	0
 9638              	.LLST17:
 9639 1293 00000000 		.4byte	.LVL25
 9640 1297 26000000 		.4byte	.LVL31
 9641 129b 0100     		.2byte	0x1
 9642 129d 53       		.byte	0x53
 9643 129e 26000000 		.4byte	.LVL31
 9644 12a2 92000000 		.4byte	.LVL43
 9645 12a6 0100     		.2byte	0x1
 9646 12a8 59       		.byte	0x59
 9647 12a9 92000000 		.4byte	.LVL43
 9648 12ad A8000000 		.4byte	.LFE42
 9649 12b1 0400     		.2byte	0x4
 9650 12b3 F3       		.byte	0xf3
 9651 12b4 01       		.uleb128 0x1
 9652 12b5 53       		.byte	0x53
 9653 12b6 9F       		.byte	0x9f
 9654 12b7 00000000 		.4byte	0
 9655 12bb 00000000 		.4byte	0
 9656              	.LLST18:
 9657 12bf 00000000 		.4byte	.LVL25
 9658 12c3 14000000 		.4byte	.LVL28
 9659 12c7 0200     		.2byte	0x2
 9660 12c9 30       		.byte	0x30
 9661 12ca 9F       		.byte	0x9f
 9662 12cb 14000000 		.4byte	.LVL28
ARM GAS  C:\Users\EBANO_~1\AppData\Local\Temp\ccyPWgHX.s 			page 211


 9663 12cf 32000000 		.4byte	.LVL32
 9664 12d3 0100     		.2byte	0x1
 9665 12d5 56       		.byte	0x56
 9666 12d6 00000000 		.4byte	0
 9667 12da 00000000 		.4byte	0
 9668              	.LLST19:
 9669 12de 00000000 		.4byte	.LVL25
 9670 12e2 1E000000 		.4byte	.LVL30
 9671 12e6 0200     		.2byte	0x2
 9672 12e8 30       		.byte	0x30
 9673 12e9 9F       		.byte	0x9f
 9674 12ea 1E000000 		.4byte	.LVL30
 9675 12ee 48000000 		.4byte	.LVL33
 9676 12f2 0100     		.2byte	0x1
 9677 12f4 52       		.byte	0x52
 9678 12f5 00000000 		.4byte	0
 9679 12f9 00000000 		.4byte	0
 9680              	.LLST10:
 9681 12fd 00000000 		.4byte	.LFB41
 9682 1301 04000000 		.4byte	.LCFI2
 9683 1305 0200     		.2byte	0x2
 9684 1307 7D       		.byte	0x7d
 9685 1308 00       		.sleb128 0
 9686 1309 04000000 		.4byte	.LCFI2
 9687 130d 48000000 		.4byte	.LFE41
 9688 1311 0200     		.2byte	0x2
 9689 1313 7D       		.byte	0x7d
 9690 1314 0C       		.sleb128 12
 9691 1315 00000000 		.4byte	0
 9692 1319 00000000 		.4byte	0
 9693              	.LLST11:
 9694 131d 00000000 		.4byte	.LVL18
 9695 1321 38000000 		.4byte	.LVL22
 9696 1325 0100     		.2byte	0x1
 9697 1327 50       		.byte	0x50
 9698 1328 38000000 		.4byte	.LVL22
 9699 132c 3A000000 		.4byte	.LVL23
 9700 1330 0400     		.2byte	0x4
 9701 1332 F3       		.byte	0xf3
 9702 1333 01       		.uleb128 0x1
 9703 1334 50       		.byte	0x50
 9704 1335 9F       		.byte	0x9f
 9705 1336 3A000000 		.4byte	.LVL23
 9706 133a 3C000000 		.4byte	.LVL24
 9707 133e 0100     		.2byte	0x1
 9708 1340 50       		.byte	0x50
 9709 1341 3C000000 		.4byte	.LVL24
 9710 1345 48000000 		.4byte	.LFE41
 9711 1349 0400     		.2byte	0x4
 9712 134b F3       		.byte	0xf3
 9713 134c 01       		.uleb128 0x1
 9714 134d 50       		.byte	0x50
 9715 134e 9F       		.byte	0x9f
 9716 134f 00000000 		.4byte	0
 9717 1353 00000000 		.4byte	0
 9718              	.LLST12:
 9719 1357 00000000 		.4byte	.LVL18
ARM GAS  C:\Users\EBANO_~1\AppData\Local\Temp\ccyPWgHX.s 			page 212


 9720 135b 28000000 		.4byte	.LVL19
 9721 135f 0200     		.2byte	0x2
 9722 1361 30       		.byte	0x30
 9723 1362 9F       		.byte	0x9f
 9724 1363 28000000 		.4byte	.LVL19
 9725 1367 2C000000 		.4byte	.LVL20
 9726 136b 0100     		.2byte	0x1
 9727 136d 52       		.byte	0x52
 9728 136e 2C000000 		.4byte	.LVL20
 9729 1372 2E000000 		.4byte	.LVL21
 9730 1376 0200     		.2byte	0x2
 9731 1378 73       		.byte	0x73
 9732 1379 08       		.sleb128 8
 9733 137a 3A000000 		.4byte	.LVL23
 9734 137e 48000000 		.4byte	.LFE41
 9735 1382 0200     		.2byte	0x2
 9736 1384 30       		.byte	0x30
 9737 1385 9F       		.byte	0x9f
 9738 1386 00000000 		.4byte	0
 9739 138a 00000000 		.4byte	0
 9740              	.LLST5:
 9741 138e 00000000 		.4byte	.LFB40
 9742 1392 02000000 		.4byte	.LCFI1
 9743 1396 0200     		.2byte	0x2
 9744 1398 7D       		.byte	0x7d
 9745 1399 00       		.sleb128 0
 9746 139a 02000000 		.4byte	.LCFI1
 9747 139e 68000000 		.4byte	.LFE40
 9748 13a2 0200     		.2byte	0x2
 9749 13a4 7D       		.byte	0x7d
 9750 13a5 10       		.sleb128 16
 9751 13a6 00000000 		.4byte	0
 9752 13aa 00000000 		.4byte	0
 9753              	.LLST6:
 9754 13ae 00000000 		.4byte	.LVL9
 9755 13b2 58000000 		.4byte	.LVL15
 9756 13b6 0100     		.2byte	0x1
 9757 13b8 50       		.byte	0x50
 9758 13b9 58000000 		.4byte	.LVL15
 9759 13bd 5A000000 		.4byte	.LVL16
 9760 13c1 0400     		.2byte	0x4
 9761 13c3 F3       		.byte	0xf3
 9762 13c4 01       		.uleb128 0x1
 9763 13c5 50       		.byte	0x50
 9764 13c6 9F       		.byte	0x9f
 9765 13c7 5A000000 		.4byte	.LVL16
 9766 13cb 5C000000 		.4byte	.LVL17
 9767 13cf 0100     		.2byte	0x1
 9768 13d1 50       		.byte	0x50
 9769 13d2 5C000000 		.4byte	.LVL17
 9770 13d6 68000000 		.4byte	.LFE40
 9771 13da 0400     		.2byte	0x4
 9772 13dc F3       		.byte	0xf3
 9773 13dd 01       		.uleb128 0x1
 9774 13de 50       		.byte	0x50
 9775 13df 9F       		.byte	0x9f
 9776 13e0 00000000 		.4byte	0
ARM GAS  C:\Users\EBANO_~1\AppData\Local\Temp\ccyPWgHX.s 			page 213


 9777 13e4 00000000 		.4byte	0
 9778              	.LLST7:
 9779 13e8 00000000 		.4byte	.LVL9
 9780 13ec 1A000000 		.4byte	.LVL12
 9781 13f0 0100     		.2byte	0x1
 9782 13f2 51       		.byte	0x51
 9783 13f3 1A000000 		.4byte	.LVL12
 9784 13f7 5A000000 		.4byte	.LVL16
 9785 13fb 0400     		.2byte	0x4
 9786 13fd F3       		.byte	0xf3
 9787 13fe 01       		.uleb128 0x1
 9788 13ff 51       		.byte	0x51
 9789 1400 9F       		.byte	0x9f
 9790 1401 5A000000 		.4byte	.LVL16
 9791 1405 68000000 		.4byte	.LFE40
 9792 1409 0100     		.2byte	0x1
 9793 140b 51       		.byte	0x51
 9794 140c 00000000 		.4byte	0
 9795 1410 00000000 		.4byte	0
 9796              	.LLST8:
 9797 1414 00000000 		.4byte	.LVL9
 9798 1418 16000000 		.4byte	.LVL10
 9799 141c 0100     		.2byte	0x1
 9800 141e 52       		.byte	0x52
 9801 141f 16000000 		.4byte	.LVL10
 9802 1423 5A000000 		.4byte	.LVL16
 9803 1427 0400     		.2byte	0x4
 9804 1429 F3       		.byte	0xf3
 9805 142a 01       		.uleb128 0x1
 9806 142b 52       		.byte	0x52
 9807 142c 9F       		.byte	0x9f
 9808 142d 5A000000 		.4byte	.LVL16
 9809 1431 68000000 		.4byte	.LFE40
 9810 1435 0100     		.2byte	0x1
 9811 1437 52       		.byte	0x52
 9812 1438 00000000 		.4byte	0
 9813 143c 00000000 		.4byte	0
 9814              	.LLST9:
 9815 1440 00000000 		.4byte	.LVL9
 9816 1444 18000000 		.4byte	.LVL11
 9817 1448 0200     		.2byte	0x2
 9818 144a 30       		.byte	0x30
 9819 144b 9F       		.byte	0x9f
 9820 144c 18000000 		.4byte	.LVL11
 9821 1450 1A000000 		.4byte	.LVL12
 9822 1454 0100     		.2byte	0x1
 9823 1456 52       		.byte	0x52
 9824 1457 1A000000 		.4byte	.LVL12
 9825 145b 28000000 		.4byte	.LVL13
 9826 145f 0100     		.2byte	0x1
 9827 1461 51       		.byte	0x51
 9828 1462 28000000 		.4byte	.LVL13
 9829 1466 2E000000 		.4byte	.LVL14
 9830 146a 0200     		.2byte	0x2
 9831 146c 73       		.byte	0x73
 9832 146d 08       		.sleb128 8
 9833 146e 5A000000 		.4byte	.LVL16
ARM GAS  C:\Users\EBANO_~1\AppData\Local\Temp\ccyPWgHX.s 			page 214


 9834 1472 68000000 		.4byte	.LFE40
 9835 1476 0200     		.2byte	0x2
 9836 1478 30       		.byte	0x30
 9837 1479 9F       		.byte	0x9f
 9838 147a 00000000 		.4byte	0
 9839 147e 00000000 		.4byte	0
 9840              	.LLST0:
 9841 1482 00000000 		.4byte	.LFB39
 9842 1486 02000000 		.4byte	.LCFI0
 9843 148a 0200     		.2byte	0x2
 9844 148c 7D       		.byte	0x7d
 9845 148d 00       		.sleb128 0
 9846 148e 02000000 		.4byte	.LCFI0
 9847 1492 48000000 		.4byte	.LFE39
 9848 1496 0200     		.2byte	0x2
 9849 1498 7D       		.byte	0x7d
 9850 1499 10       		.sleb128 16
 9851 149a 00000000 		.4byte	0
 9852 149e 00000000 		.4byte	0
 9853              	.LLST1:
 9854 14a2 00000000 		.4byte	.LVL0
 9855 14a6 3C000000 		.4byte	.LVL6
 9856 14aa 0100     		.2byte	0x1
 9857 14ac 50       		.byte	0x50
 9858 14ad 3C000000 		.4byte	.LVL6
 9859 14b1 3E000000 		.4byte	.LVL7
 9860 14b5 0400     		.2byte	0x4
 9861 14b7 F3       		.byte	0xf3
 9862 14b8 01       		.uleb128 0x1
 9863 14b9 50       		.byte	0x50
 9864 14ba 9F       		.byte	0x9f
 9865 14bb 3E000000 		.4byte	.LVL7
 9866 14bf 40000000 		.4byte	.LVL8
 9867 14c3 0100     		.2byte	0x1
 9868 14c5 50       		.byte	0x50
 9869 14c6 40000000 		.4byte	.LVL8
 9870 14ca 48000000 		.4byte	.LFE39
 9871 14ce 0400     		.2byte	0x4
 9872 14d0 F3       		.byte	0xf3
 9873 14d1 01       		.uleb128 0x1
 9874 14d2 50       		.byte	0x50
 9875 14d3 9F       		.byte	0x9f
 9876 14d4 00000000 		.4byte	0
 9877 14d8 00000000 		.4byte	0
 9878              	.LLST2:
 9879 14dc 00000000 		.4byte	.LVL0
 9880 14e0 1A000000 		.4byte	.LVL3
 9881 14e4 0100     		.2byte	0x1
 9882 14e6 51       		.byte	0x51
 9883 14e7 1A000000 		.4byte	.LVL3
 9884 14eb 3E000000 		.4byte	.LVL7
 9885 14ef 0400     		.2byte	0x4
 9886 14f1 F3       		.byte	0xf3
 9887 14f2 01       		.uleb128 0x1
 9888 14f3 51       		.byte	0x51
 9889 14f4 9F       		.byte	0x9f
 9890 14f5 3E000000 		.4byte	.LVL7
ARM GAS  C:\Users\EBANO_~1\AppData\Local\Temp\ccyPWgHX.s 			page 215


 9891 14f9 48000000 		.4byte	.LFE39
 9892 14fd 0100     		.2byte	0x1
 9893 14ff 51       		.byte	0x51
 9894 1500 00000000 		.4byte	0
 9895 1504 00000000 		.4byte	0
 9896              	.LLST3:
 9897 1508 00000000 		.4byte	.LVL0
 9898 150c 16000000 		.4byte	.LVL1
 9899 1510 0100     		.2byte	0x1
 9900 1512 52       		.byte	0x52
 9901 1513 16000000 		.4byte	.LVL1
 9902 1517 3E000000 		.4byte	.LVL7
 9903 151b 0400     		.2byte	0x4
 9904 151d F3       		.byte	0xf3
 9905 151e 01       		.uleb128 0x1
 9906 151f 52       		.byte	0x52
 9907 1520 9F       		.byte	0x9f
 9908 1521 3E000000 		.4byte	.LVL7
 9909 1525 48000000 		.4byte	.LFE39
 9910 1529 0100     		.2byte	0x1
 9911 152b 52       		.byte	0x52
 9912 152c 00000000 		.4byte	0
 9913 1530 00000000 		.4byte	0
 9914              	.LLST4:
 9915 1534 00000000 		.4byte	.LVL0
 9916 1538 18000000 		.4byte	.LVL2
 9917 153c 0200     		.2byte	0x2
 9918 153e 30       		.byte	0x30
 9919 153f 9F       		.byte	0x9f
 9920 1540 18000000 		.4byte	.LVL2
 9921 1544 1A000000 		.4byte	.LVL3
 9922 1548 0100     		.2byte	0x1
 9923 154a 52       		.byte	0x52
 9924 154b 1A000000 		.4byte	.LVL3
 9925 154f 28000000 		.4byte	.LVL4
 9926 1553 0100     		.2byte	0x1
 9927 1555 51       		.byte	0x51
 9928 1556 28000000 		.4byte	.LVL4
 9929 155a 2E000000 		.4byte	.LVL5
 9930 155e 0200     		.2byte	0x2
 9931 1560 73       		.byte	0x73
 9932 1561 08       		.sleb128 8
 9933 1562 3E000000 		.4byte	.LVL7
 9934 1566 48000000 		.4byte	.LFE39
 9935 156a 0200     		.2byte	0x2
 9936 156c 30       		.byte	0x30
 9937 156d 9F       		.byte	0x9f
 9938 156e 00000000 		.4byte	0
 9939 1572 00000000 		.4byte	0
 9940              		.section	.debug_aranges,"",%progbits
 9941 0000 04010000 		.4byte	0x104
 9942 0004 0200     		.2byte	0x2
 9943 0006 00000000 		.4byte	.Ldebug_info0
 9944 000a 04       		.byte	0x4
 9945 000b 00       		.byte	0
 9946 000c 0000     		.2byte	0
 9947 000e 0000     		.2byte	0
ARM GAS  C:\Users\EBANO_~1\AppData\Local\Temp\ccyPWgHX.s 			page 216


 9948 0010 00000000 		.4byte	.LFB39
 9949 0014 48000000 		.4byte	.LFE39-.LFB39
 9950 0018 00000000 		.4byte	.LFB40
 9951 001c 68000000 		.4byte	.LFE40-.LFB40
 9952 0020 00000000 		.4byte	.LFB41
 9953 0024 48000000 		.4byte	.LFE41-.LFB41
 9954 0028 00000000 		.4byte	.LFB42
 9955 002c A8000000 		.4byte	.LFE42-.LFB42
 9956 0030 00000000 		.4byte	.LFB43
 9957 0034 E0000000 		.4byte	.LFE43-.LFB43
 9958 0038 00000000 		.4byte	.LFB44
 9959 003c 00010000 		.4byte	.LFE44-.LFB44
 9960 0040 00000000 		.4byte	.LFB45
 9961 0044 64000000 		.4byte	.LFE45-.LFB45
 9962 0048 00000000 		.4byte	.LFB48
 9963 004c 02000000 		.4byte	.LFE48-.LFB48
 9964 0050 00000000 		.4byte	.LFB46
 9965 0054 C4000000 		.4byte	.LFE46-.LFB46
 9966 0058 00000000 		.4byte	.LFB51
 9967 005c 84000000 		.4byte	.LFE51-.LFB51
 9968 0060 00000000 		.4byte	.LFB52
 9969 0064 58000000 		.4byte	.LFE52-.LFB52
 9970 0068 00000000 		.4byte	.LFB53
 9971 006c 58000000 		.4byte	.LFE53-.LFB53
 9972 0070 00000000 		.4byte	.LFB54
 9973 0074 58000000 		.4byte	.LFE54-.LFB54
 9974 0078 00000000 		.4byte	.LFB55
 9975 007c E8000000 		.4byte	.LFE55-.LFB55
 9976 0080 00000000 		.4byte	.LFB56
 9977 0084 1C010000 		.4byte	.LFE56-.LFB56
 9978 0088 00000000 		.4byte	.LFB57
 9979 008c 90000000 		.4byte	.LFE57-.LFB57
 9980 0090 00000000 		.4byte	.LFB58
 9981 0094 0A000000 		.4byte	.LFE58-.LFB58
 9982 0098 00000000 		.4byte	.LFB59
 9983 009c 38000000 		.4byte	.LFE59-.LFB59
 9984 00a0 00000000 		.4byte	.LFB61
 9985 00a4 58000000 		.4byte	.LFE61-.LFB61
 9986 00a8 00000000 		.4byte	.LFB62
 9987 00ac 0C000000 		.4byte	.LFE62-.LFB62
 9988 00b0 00000000 		.4byte	.LFB63
 9989 00b4 0C000000 		.4byte	.LFE63-.LFB63
 9990 00b8 00000000 		.4byte	.LFB64
 9991 00bc 96000000 		.4byte	.LFE64-.LFB64
 9992 00c0 00000000 		.4byte	.LFB65
 9993 00c4 C6000000 		.4byte	.LFE65-.LFB65
 9994 00c8 00000000 		.4byte	.LFB66
 9995 00cc 4C000000 		.4byte	.LFE66-.LFB66
 9996 00d0 00000000 		.4byte	.LFB67
 9997 00d4 3C000000 		.4byte	.LFE67-.LFB67
 9998 00d8 00000000 		.4byte	.LFB68
 9999 00dc 58000000 		.4byte	.LFE68-.LFB68
 10000 00e0 00000000 		.4byte	.LFB69
 10001 00e4 58000000 		.4byte	.LFE69-.LFB69
 10002 00e8 00000000 		.4byte	.LFB70
 10003 00ec 34000000 		.4byte	.LFE70-.LFB70
 10004 00f0 00000000 		.4byte	.LFB71
ARM GAS  C:\Users\EBANO_~1\AppData\Local\Temp\ccyPWgHX.s 			page 217


 10005 00f4 36000000 		.4byte	.LFE71-.LFB71
 10006 00f8 00000000 		.4byte	.LFB73
 10007 00fc 58000000 		.4byte	.LFE73-.LFB73
 10008 0100 00000000 		.4byte	0
 10009 0104 00000000 		.4byte	0
 10010              		.section	.debug_ranges,"",%progbits
 10011              	.Ldebug_ranges0:
 10012 0000 00000000 		.4byte	.LFB39
 10013 0004 48000000 		.4byte	.LFE39
 10014 0008 00000000 		.4byte	.LFB40
 10015 000c 68000000 		.4byte	.LFE40
 10016 0010 00000000 		.4byte	.LFB41
 10017 0014 48000000 		.4byte	.LFE41
 10018 0018 00000000 		.4byte	.LFB42
 10019 001c A8000000 		.4byte	.LFE42
 10020 0020 00000000 		.4byte	.LFB43
 10021 0024 E0000000 		.4byte	.LFE43
 10022 0028 00000000 		.4byte	.LFB44
 10023 002c 00010000 		.4byte	.LFE44
 10024 0030 00000000 		.4byte	.LFB45
 10025 0034 64000000 		.4byte	.LFE45
 10026 0038 00000000 		.4byte	.LFB48
 10027 003c 02000000 		.4byte	.LFE48
 10028 0040 00000000 		.4byte	.LFB46
 10029 0044 C4000000 		.4byte	.LFE46
 10030 0048 00000000 		.4byte	.LFB51
 10031 004c 84000000 		.4byte	.LFE51
 10032 0050 00000000 		.4byte	.LFB52
 10033 0054 58000000 		.4byte	.LFE52
 10034 0058 00000000 		.4byte	.LFB53
 10035 005c 58000000 		.4byte	.LFE53
 10036 0060 00000000 		.4byte	.LFB54
 10037 0064 58000000 		.4byte	.LFE54
 10038 0068 00000000 		.4byte	.LFB55
 10039 006c E8000000 		.4byte	.LFE55
 10040 0070 00000000 		.4byte	.LFB56
 10041 0074 1C010000 		.4byte	.LFE56
 10042 0078 00000000 		.4byte	.LFB57
 10043 007c 90000000 		.4byte	.LFE57
 10044 0080 00000000 		.4byte	.LFB58
 10045 0084 0A000000 		.4byte	.LFE58
 10046 0088 00000000 		.4byte	.LFB59
 10047 008c 38000000 		.4byte	.LFE59
 10048 0090 00000000 		.4byte	.LFB61
 10049 0094 58000000 		.4byte	.LFE61
 10050 0098 00000000 		.4byte	.LFB62
 10051 009c 0C000000 		.4byte	.LFE62
 10052 00a0 00000000 		.4byte	.LFB63
 10053 00a4 0C000000 		.4byte	.LFE63
 10054 00a8 00000000 		.4byte	.LFB64
 10055 00ac 96000000 		.4byte	.LFE64
 10056 00b0 00000000 		.4byte	.LFB65
 10057 00b4 C6000000 		.4byte	.LFE65
 10058 00b8 00000000 		.4byte	.LFB66
 10059 00bc 4C000000 		.4byte	.LFE66
 10060 00c0 00000000 		.4byte	.LFB67
 10061 00c4 3C000000 		.4byte	.LFE67
ARM GAS  C:\Users\EBANO_~1\AppData\Local\Temp\ccyPWgHX.s 			page 218


 10062 00c8 00000000 		.4byte	.LFB68
 10063 00cc 58000000 		.4byte	.LFE68
 10064 00d0 00000000 		.4byte	.LFB69
 10065 00d4 58000000 		.4byte	.LFE69
 10066 00d8 00000000 		.4byte	.LFB70
 10067 00dc 34000000 		.4byte	.LFE70
 10068 00e0 00000000 		.4byte	.LFB71
 10069 00e4 36000000 		.4byte	.LFE71
 10070 00e8 00000000 		.4byte	.LFB73
 10071 00ec 58000000 		.4byte	.LFE73
 10072 00f0 00000000 		.4byte	0
 10073 00f4 00000000 		.4byte	0
 10074              		.section	.debug_line,"",%progbits
 10075              	.Ldebug_line0:
 10076 0000 FC0A0000 		.section	.debug_str,"MS",%progbits,1
 10076      0200C702 
 10076      00000201 
 10076      FB0E0D00 
 10076      01010101 
 10077              	.LASF150:
 10078 0000 5F5F6C6F 		.ascii	"__locale_t\000"
 10078      63616C65 
 10078      5F7400
 10079              	.LASF27:
 10080 000b 54535452 		.ascii	"TSTR\000"
 10080      00
 10081              	.LASF49:
 10082 0010 5F5F7661 		.ascii	"__value\000"
 10082      6C756500 
 10083              	.LASF117:
 10084 0018 5F5F7366 		.ascii	"__sf\000"
 10084      00
 10085              	.LASF157:
 10086 001d 48414C5F 		.ascii	"HAL_StatusTypeDef\000"
 10086      53746174 
 10086      75735479 
 10086      70654465 
 10086      6600
 10087              	.LASF84:
 10088 002f 5F726561 		.ascii	"_read\000"
 10088      6400
 10089              	.LASF36:
 10090 0035 424B5032 		.ascii	"BKP2R\000"
 10090      5200
 10091              	.LASF85:
 10092 003b 5F777269 		.ascii	"_write\000"
 10092      746500
 10093              	.LASF209:
 10094 0042 48414C5F 		.ascii	"HAL_RTCEx_EnableBypassShadow\000"
 10094      52544345 
 10094      785F456E 
 10094      61626C65 
 10094      42797061 
 10095              	.LASF129:
 10096 005f 5F617363 		.ascii	"_asctime_buf\000"
 10096      74696D65 
 10096      5F627566 
ARM GAS  C:\Users\EBANO_~1\AppData\Local\Temp\ccyPWgHX.s 			page 219


 10096      00
 10097              	.LASF111:
 10098 006c 5F637674 		.ascii	"_cvtlen\000"
 10098      6C656E00 
 10099              	.LASF163:
 10100 0074 48414C5F 		.ascii	"HAL_RTC_STATE_BUSY\000"
 10100      5254435F 
 10100      53544154 
 10100      455F4255 
 10100      535900
 10101              	.LASF148:
 10102 0087 5F756E75 		.ascii	"_unused\000"
 10102      73656400 
 10103              	.LASF58:
 10104 008f 5F5F746D 		.ascii	"__tm\000"
 10104      00
 10105              	.LASF144:
 10106 0094 5F776373 		.ascii	"_wcsrtombs_state\000"
 10106      72746F6D 
 10106      62735F73 
 10106      74617465 
 10106      00
 10107              	.LASF89:
 10108 00a5 5F6E6275 		.ascii	"_nbuf\000"
 10108      6600
 10109              	.LASF59:
 10110 00ab 5F5F746D 		.ascii	"__tm_sec\000"
 10110      5F736563 
 10110      00
 10111              	.LASF137:
 10112 00b4 5F6C3634 		.ascii	"_l64a_buf\000"
 10112      615F6275 
 10112      6600
 10113              	.LASF37:
 10114 00be 424B5033 		.ascii	"BKP3R\000"
 10114      5200
 10115              	.LASF93:
 10116 00c4 5F6C6F63 		.ascii	"_lock\000"
 10116      6B00
 10117              	.LASF216:
 10118 00ca 53686966 		.ascii	"ShiftAdd1S\000"
 10118      74416464 
 10118      315300
 10119              	.LASF125:
 10120 00d5 5F6D756C 		.ascii	"_mult\000"
 10120      7400
 10121              	.LASF258:
 10122 00db 54696D65 		.ascii	"TimeStampEdge\000"
 10122      5374616D 
 10122      70456467 
 10122      6500
 10123              	.LASF38:
 10124 00e9 424B5034 		.ascii	"BKP4R\000"
 10124      5200
 10125              	.LASF161:
 10126 00ef 48414C5F 		.ascii	"HAL_RTC_STATE_RESET\000"
 10126      5254435F 
ARM GAS  C:\Users\EBANO_~1\AppData\Local\Temp\ccyPWgHX.s 			page 220


 10126      53544154 
 10126      455F5245 
 10126      53455400 
 10127              	.LASF18:
 10128 0103 46545352 		.ascii	"FTSR\000"
 10128      00
 10129              	.LASF221:
 10130 0108 536D6F6F 		.ascii	"SmoothCalibPlusPulses\000"
 10130      74684361 
 10130      6C696250 
 10130      6C757350 
 10130      756C7365 
 10131              	.LASF178:
 10132 011e 54696D65 		.ascii	"TimeFormat\000"
 10132      466F726D 
 10132      617400
 10133              	.LASF46:
 10134 0129 5F5F7763 		.ascii	"__wch\000"
 10134      6800
 10135              	.LASF191:
 10136 012f 4C6F636B 		.ascii	"Lock\000"
 10136      00
 10137              	.LASF5:
 10138 0134 5F5F7569 		.ascii	"__uint8_t\000"
 10138      6E74385F 
 10138      7400
 10139              	.LASF81:
 10140 013e 5F66696C 		.ascii	"_file\000"
 10140      6500
 10141              	.LASF68:
 10142 0144 5F6F6E5F 		.ascii	"_on_exit_args\000"
 10142      65786974 
 10142      5F617267 
 10142      7300
 10143              	.LASF182:
 10144 0152 53746F72 		.ascii	"StoreOperation\000"
 10144      654F7065 
 10144      72617469 
 10144      6F6E00
 10145              	.LASF239:
 10146 0161 48414C5F 		.ascii	"HAL_RTCEx_PollForTamper1Event\000"
 10146      52544345 
 10146      785F506F 
 10146      6C6C466F 
 10146      7254616D 
 10147              	.LASF140:
 10148 017f 5F6D6272 		.ascii	"_mbrlen_state\000"
 10148      6C656E5F 
 10148      73746174 
 10148      6500
 10149              	.LASF4:
 10150 018d 6C6F6E67 		.ascii	"long int\000"
 10150      20696E74 
 10150      00
 10151              	.LASF151:
 10152 0196 5F696D70 		.ascii	"_impure_ptr\000"
 10152      7572655F 
ARM GAS  C:\Users\EBANO_~1\AppData\Local\Temp\ccyPWgHX.s 			page 221


 10152      70747200 
 10153              	.LASF108:
 10154 01a2 5F726573 		.ascii	"_result_k\000"
 10154      756C745F 
 10154      6B00
 10155              	.LASF78:
 10156 01ac 5F73697A 		.ascii	"_size\000"
 10156      6500
 10157              	.LASF130:
 10158 01b2 5F6C6F63 		.ascii	"_localtime_buf\000"
 10158      616C7469 
 10158      6D655F62 
 10158      756600
 10159              	.LASF217:
 10160 01c1 53686966 		.ascii	"ShiftSubFS\000"
 10160      74537562 
 10160      465300
 10161              	.LASF17:
 10162 01cc 52545352 		.ascii	"RTSR\000"
 10162      00
 10163              	.LASF20:
 10164 01d1 45585449 		.ascii	"EXTI_TypeDef\000"
 10164      5F547970 
 10164      65446566 
 10164      00
 10165              	.LASF219:
 10166 01de 48414C5F 		.ascii	"HAL_RTCEx_SetSmoothCalib\000"
 10166      52544345 
 10166      785F5365 
 10166      74536D6F 
 10166      6F746843 
 10167              	.LASF63:
 10168 01f7 5F5F746D 		.ascii	"__tm_mon\000"
 10168      5F6D6F6E 
 10168      00
 10169              	.LASF160:
 10170 0200 48414C5F 		.ascii	"HAL_LockTypeDef\000"
 10170      4C6F636B 
 10170      54797065 
 10170      44656600 
 10171              	.LASF256:
 10172 0210 48414C5F 		.ascii	"HAL_RTCEx_DeactivateTimeStamp\000"
 10172      52544345 
 10172      785F4465 
 10172      61637469 
 10172      76617465 
 10173              	.LASF201:
 10174 022e 50726563 		.ascii	"PrechargeDuration\000"
 10174      68617267 
 10174      65447572 
 10174      6174696F 
 10174      6E00
 10175              	.LASF226:
 10176 0240 48414C5F 		.ascii	"HAL_RTCEx_PollForWakeUpTimerEvent\000"
 10176      52544345 
 10176      785F506F 
 10176      6C6C466F 
ARM GAS  C:\Users\EBANO_~1\AppData\Local\Temp\ccyPWgHX.s 			page 222


 10176      7257616B 
 10177              	.LASF127:
 10178 0262 5F756E75 		.ascii	"_unused_rand\000"
 10178      7365645F 
 10178      72616E64 
 10178      00
 10179              	.LASF0:
 10180 026f 7369676E 		.ascii	"signed char\000"
 10180      65642063 
 10180      68617200 
 10181              	.LASF11:
 10182 027b 75696E74 		.ascii	"uint8_t\000"
 10182      385F7400 
 10183              	.LASF268:
 10184 0283 48414C5F 		.ascii	"HAL_RTCEx_Tamper1EventCallback\000"
 10184      52544345 
 10184      785F5461 
 10184      6D706572 
 10184      31457665 
 10185              	.LASF153:
 10186 02a2 48414C5F 		.ascii	"HAL_OK\000"
 10186      4F4B00
 10187              	.LASF223:
 10188 02a9 48414C5F 		.ascii	"HAL_RTCEx_BKUPRead\000"
 10188      52544345 
 10188      785F424B 
 10188      55505265 
 10188      616400
 10189              	.LASF1:
 10190 02bc 756E7369 		.ascii	"unsigned char\000"
 10190      676E6564 
 10190      20636861 
 10190      7200
 10191              	.LASF231:
 10192 02ca 48414C5F 		.ascii	"HAL_RTCEx_GetWakeUpTimer\000"
 10192      52544345 
 10192      785F4765 
 10192      7457616B 
 10192      65557054 
 10193              	.LASF260:
 10194 02e3 48414C5F 		.ascii	"HAL_RTCEx_SetTimeStamp\000"
 10194      52544345 
 10194      785F5365 
 10194      7454696D 
 10194      65537461 
 10195              	.LASF103:
 10196 02fa 5F756E73 		.ascii	"_unspecified_locale_info\000"
 10196      70656369 
 10196      66696564 
 10196      5F6C6F63 
 10196      616C655F 
 10197              	.LASF96:
 10198 0313 5F726565 		.ascii	"_reent\000"
 10198      6E7400
 10199              	.LASF152:
 10200 031a 5F676C6F 		.ascii	"_global_impure_ptr\000"
 10200      62616C5F 
ARM GAS  C:\Users\EBANO_~1\AppData\Local\Temp\ccyPWgHX.s 			page 223


 10200      696D7075 
 10200      72655F70 
 10200      747200
 10201              	.LASF206:
 10202 032d 54696D65 		.ascii	"Timeout\000"
 10202      6F757400 
 10203              	.LASF244:
 10204 0335 48414C5F 		.ascii	"HAL_RTCEx_TamperTimeStampIRQHandler\000"
 10204      52544345 
 10204      785F5461 
 10204      6D706572 
 10204      54696D65 
 10205              	.LASF264:
 10206 0359 5254435F 		.ascii	"RTC_Bcd2ToByte\000"
 10206      42636432 
 10206      546F4279 
 10206      746500
 10207              	.LASF259:
 10208 0368 5254435F 		.ascii	"RTC_TimeStampPin\000"
 10208      54696D65 
 10208      5374616D 
 10208      7050696E 
 10208      00
 10209              	.LASF118:
 10210 0379 63686172 		.ascii	"char\000"
 10210      00
 10211              	.LASF75:
 10212 037e 5F666E73 		.ascii	"_fns\000"
 10212      00
 10213              	.LASF87:
 10214 0383 5F636C6F 		.ascii	"_close\000"
 10214      736500
 10215              	.LASF169:
 10216 038a 53796E63 		.ascii	"SynchPrediv\000"
 10216      68507265 
 10216      64697600 
 10217              	.LASF267:
 10218 0396 443A5C67 		.ascii	"D:\\git_pessoal\\keil_gcc\\STM32CubeExpansion_LRWAN"
 10218      69745F70 
 10218      6573736F 
 10218      616C5C6B 
 10218      65696C5F 
 10219 03c6 5F56312E 		.ascii	"_V1.2.1\\Projects\\B-L072Z-LRWAN1\\Applications\\Lo"
 10219      322E315C 
 10219      50726F6A 
 10219      65637473 
 10219      5C422D4C 
 10220 03f5 52615C45 		.ascii	"Ra\\End_Node\\MDK-ARM\000"
 10220      6E645F4E 
 10220      6F64655C 
 10220      4D444B2D 
 10220      41524D00 
 10221              	.LASF98:
 10222 0409 5F737464 		.ascii	"_stdin\000"
 10222      696E00
 10223              	.LASF208:
 10224 0410 48414C5F 		.ascii	"HAL_RTCEx_DisableBypassShadow\000"
ARM GAS  C:\Users\EBANO_~1\AppData\Local\Temp\ccyPWgHX.s 			page 224


 10224      52544345 
 10224      785F4469 
 10224      7361626C 
 10224      65427970 
 10225              	.LASF21:
 10226 042e 50524552 		.ascii	"PRER\000"
 10226      00
 10227              	.LASF197:
 10228 0433 4E6F4572 		.ascii	"NoErase\000"
 10228      61736500 
 10229              	.LASF196:
 10230 043b 54726967 		.ascii	"Trigger\000"
 10230      67657200 
 10231              	.LASF177:
 10232 0443 5365636F 		.ascii	"Seconds\000"
 10232      6E647300 
 10233              	.LASF174:
 10234 044b 5254435F 		.ascii	"RTC_InitTypeDef\000"
 10234      496E6974 
 10234      54797065 
 10234      44656600 
 10235              	.LASF167:
 10236 045b 486F7572 		.ascii	"HourFormat\000"
 10236      466F726D 
 10236      617400
 10237              	.LASF261:
 10238 0466 48414C5F 		.ascii	"HAL_GetTick\000"
 10238      47657454 
 10238      69636B00 
 10239              	.LASF214:
 10240 0472 43616C69 		.ascii	"CalibOutput\000"
 10240      624F7574 
 10240      70757400 
 10241              	.LASF176:
 10242 047e 4D696E75 		.ascii	"Minutes\000"
 10242      74657300 
 10243              	.LASF23:
 10244 0486 52455345 		.ascii	"RESERVED\000"
 10244      52564544 
 10244      00
 10245              	.LASF83:
 10246 048f 5F636F6F 		.ascii	"_cookie\000"
 10246      6B696500 
 10247              	.LASF56:
 10248 0497 5F776473 		.ascii	"_wds\000"
 10248      00
 10249              	.LASF168:
 10250 049c 4173796E 		.ascii	"AsynchPrediv\000"
 10250      63685072 
 10250      65646976 
 10250      00
 10251              	.LASF149:
 10252 04a9 5F5F6C6F 		.ascii	"__lock\000"
 10252      636B00
 10253              	.LASF179:
 10254 04b0 53756253 		.ascii	"SubSeconds\000"
 10254      65636F6E 
ARM GAS  C:\Users\EBANO_~1\AppData\Local\Temp\ccyPWgHX.s 			page 225


 10254      647300
 10255              	.LASF115:
 10256 04bb 5F736967 		.ascii	"_sig_func\000"
 10256      5F66756E 
 10256      6300
 10257              	.LASF237:
 10258 04c5 48414C5F 		.ascii	"HAL_RTCEx_PollForTamper3Event\000"
 10258      52544345 
 10258      785F506F 
 10258      6C6C466F 
 10258      7254616D 
 10259              	.LASF222:
 10260 04e3 536D6F6F 		.ascii	"SmoothCalibMinusPulsesValue\000"
 10260      74684361 
 10260      6C69624D 
 10260      696E7573 
 10260      50756C73 
 10261              	.LASF91:
 10262 04ff 5F6F6666 		.ascii	"_offset\000"
 10262      73657400 
 10263              	.LASF16:
 10264 0507 504C4C4D 		.ascii	"PLLMulTable\000"
 10264      756C5461 
 10264      626C6500 
 10265              	.LASF112:
 10266 0513 5F637674 		.ascii	"_cvtbuf\000"
 10266      62756600 
 10267              	.LASF240:
 10268 051b 48414C5F 		.ascii	"HAL_RTCEx_PollForTimeStampEvent\000"
 10268      52544345 
 10268      785F506F 
 10268      6C6C466F 
 10268      7254696D 
 10269              	.LASF189:
 10270 053b 496E7374 		.ascii	"Instance\000"
 10270      616E6365 
 10270      00
 10271              	.LASF109:
 10272 0544 5F703573 		.ascii	"_p5s\000"
 10272      00
 10273              	.LASF7:
 10274 0549 6C6F6E67 		.ascii	"long unsigned int\000"
 10274      20756E73 
 10274      69676E65 
 10274      6420696E 
 10274      7400
 10275              	.LASF39:
 10276 055b 5254435F 		.ascii	"RTC_TypeDef\000"
 10276      54797065 
 10276      44656600 
 10277              	.LASF79:
 10278 0567 5F5F7346 		.ascii	"__sFILE\000"
 10278      494C4500 
 10279              	.LASF105:
 10280 056f 5F5F7364 		.ascii	"__sdidinit\000"
 10280      6964696E 
 10280      697400
ARM GAS  C:\Users\EBANO_~1\AppData\Local\Temp\ccyPWgHX.s 			page 226


 10281              	.LASF95:
 10282 057a 5F666C61 		.ascii	"_flags2\000"
 10282      67733200 
 10283              	.LASF205:
 10284 0582 68727463 		.ascii	"hrtc\000"
 10284      00
 10285              	.LASF13:
 10286 0587 53797374 		.ascii	"SystemCoreClock\000"
 10286      656D436F 
 10286      7265436C 
 10286      6F636B00 
 10287              	.LASF180:
 10288 0597 5365636F 		.ascii	"SecondFraction\000"
 10288      6E644672 
 10288      61637469 
 10288      6F6E00
 10289              	.LASF233:
 10290 05a6 48414C5F 		.ascii	"HAL_RTCEx_SetWakeUpTimer_IT\000"
 10290      52544345 
 10290      785F5365 
 10290      7457616B 
 10290      65557054 
 10291              	.LASF97:
 10292 05c2 5F657272 		.ascii	"_errno\000"
 10292      6E6F00
 10293              	.LASF251:
 10294 05c9 7354696D 		.ascii	"sTimeStamp\000"
 10294      65537461 
 10294      6D7000
 10295              	.LASF162:
 10296 05d4 48414C5F 		.ascii	"HAL_RTC_STATE_READY\000"
 10296      5254435F 
 10296      53544154 
 10296      455F5245 
 10296      41445900 
 10297              	.LASF138:
 10298 05e8 5F736967 		.ascii	"_signal_buf\000"
 10298      6E616C5F 
 10298      62756600 
 10299              	.LASF57:
 10300 05f4 5F426967 		.ascii	"_Bigint\000"
 10300      696E7400 
 10301              	.LASF210:
 10302 05fc 48414C5F 		.ascii	"HAL_RTCEx_DeactivateRefClock\000"
 10302      52544345 
 10302      785F4465 
 10302      61637469 
 10302      76617465 
 10303              	.LASF245:
 10304 0619 48414C5F 		.ascii	"HAL_RTCEx_DeactivateTamper\000"
 10304      52544345 
 10304      785F4465 
 10304      61637469 
 10304      76617465 
 10305              	.LASF54:
 10306 0634 5F6D6178 		.ascii	"_maxwds\000"
 10306      77647300 
ARM GAS  C:\Users\EBANO_~1\AppData\Local\Temp\ccyPWgHX.s 			page 227


 10307              	.LASF106:
 10308 063c 5F5F636C 		.ascii	"__cleanup\000"
 10308      65616E75 
 10308      7000
 10309              	.LASF114:
 10310 0646 5F617465 		.ascii	"_atexit0\000"
 10310      78697430 
 10310      00
 10311              	.LASF253:
 10312 064f 466F726D 		.ascii	"Format\000"
 10312      617400
 10313              	.LASF28:
 10314 0656 54534452 		.ascii	"TSDR\000"
 10314      00
 10315              	.LASF33:
 10316 065b 414C524D 		.ascii	"ALRMBSSR\000"
 10316      42535352 
 10316      00
 10317              	.LASF246:
 10318 0664 48414C5F 		.ascii	"HAL_RTCEx_SetTamper_IT\000"
 10318      52544345 
 10318      785F5365 
 10318      7454616D 
 10318      7065725F 
 10319              	.LASF6:
 10320 067b 5F5F7569 		.ascii	"__uint32_t\000"
 10320      6E743332 
 10320      5F7400
 10321              	.LASF102:
 10322 0686 5F656D65 		.ascii	"_emergency\000"
 10322      7267656E 
 10322      637900
 10323              	.LASF24:
 10324 0691 414C524D 		.ascii	"ALRMAR\000"
 10324      415200
 10325              	.LASF8:
 10326 0698 6C6F6E67 		.ascii	"long long int\000"
 10326      206C6F6E 
 10326      6720696E 
 10326      7400
 10327              	.LASF166:
 10328 06a6 48414C5F 		.ascii	"HAL_RTCStateTypeDef\000"
 10328      52544353 
 10328      74617465 
 10328      54797065 
 10328      44656600 
 10329              	.LASF255:
 10330 06ba 746D7064 		.ascii	"tmpdate\000"
 10330      61746500 
 10331              	.LASF207:
 10332 06c2 48414C5F 		.ascii	"HAL_RTCEx_PollForAlarmBEvent\000"
 10332      52544345 
 10332      785F506F 
 10332      6C6C466F 
 10332      72416C61 
 10333              	.LASF121:
 10334 06df 5F6E696F 		.ascii	"_niobs\000"
ARM GAS  C:\Users\EBANO_~1\AppData\Local\Temp\ccyPWgHX.s 			page 228


 10334      627300
 10335              	.LASF116:
 10336 06e6 5F5F7367 		.ascii	"__sglue\000"
 10336      6C756500 
 10337              	.LASF227:
 10338 06ee 48414C5F 		.ascii	"HAL_RTCEx_AlarmBEventCallback\000"
 10338      52544345 
 10338      785F416C 
 10338      61726D42 
 10338      4576656E 
 10339              	.LASF147:
 10340 070c 5F6E6D61 		.ascii	"_nmalloc\000"
 10340      6C6C6F63 
 10340      00
 10341              	.LASF131:
 10342 0715 5F67616D 		.ascii	"_gamma_signgam\000"
 10342      6D615F73 
 10342      69676E67 
 10342      616D00
 10343              	.LASF212:
 10344 0724 48414C5F 		.ascii	"HAL_RTCEx_DeactivateCalibrationOutPut\000"
 10344      52544345 
 10344      785F4465 
 10344      61637469 
 10344      76617465 
 10345              	.LASF236:
 10346 074a 48414C5F 		.ascii	"HAL_RTCEx_SetWakeUpTimer\000"
 10346      52544345 
 10346      785F5365 
 10346      7457616B 
 10346      65557054 
 10347              	.LASF25:
 10348 0763 414C524D 		.ascii	"ALRMBR\000"
 10348      425200
 10349              	.LASF110:
 10350 076a 5F667265 		.ascii	"_freelist\000"
 10350      656C6973 
 10350      7400
 10351              	.LASF122:
 10352 0774 5F696F62 		.ascii	"_iobs\000"
 10352      7300
 10353              	.LASF120:
 10354 077a 5F676C75 		.ascii	"_glue\000"
 10354      6500
 10355              	.LASF30:
 10356 0780 43414C52 		.ascii	"CALR\000"
 10356      00
 10357              	.LASF55:
 10358 0785 5F736967 		.ascii	"_sign\000"
 10358      6E00
 10359              	.LASF164:
 10360 078b 48414C5F 		.ascii	"HAL_RTC_STATE_TIMEOUT\000"
 10360      5254435F 
 10360      53544154 
 10360      455F5449 
 10360      4D454F55 
 10361              	.LASF10:
ARM GAS  C:\Users\EBANO_~1\AppData\Local\Temp\ccyPWgHX.s 			page 229


 10362 07a1 756E7369 		.ascii	"unsigned int\000"
 10362      676E6564 
 10362      20696E74 
 10362      00
 10363              	.LASF171:
 10364 07ae 4F757450 		.ascii	"OutPutRemap\000"
 10364      75745265 
 10364      6D617000 
 10365              	.LASF183:
 10366 07ba 5254435F 		.ascii	"RTC_TimeTypeDef\000"
 10366      54696D65 
 10366      54797065 
 10366      44656600 
 10367              	.LASF145:
 10368 07ca 5F685F65 		.ascii	"_h_errno\000"
 10368      72726E6F 
 10368      00
 10369              	.LASF213:
 10370 07d3 48414C5F 		.ascii	"HAL_RTCEx_SetCalibrationOutPut\000"
 10370      52544345 
 10370      785F5365 
 10370      7443616C 
 10370      69627261 
 10371              	.LASF143:
 10372 07f2 5F776372 		.ascii	"_wcrtomb_state\000"
 10372      746F6D62 
 10372      5F737461 
 10372      746500
 10373              	.LASF62:
 10374 0801 5F5F746D 		.ascii	"__tm_mday\000"
 10374      5F6D6461 
 10374      7900
 10375              	.LASF113:
 10376 080b 5F6E6577 		.ascii	"_new\000"
 10376      00
 10377              	.LASF204:
 10378 0810 5254435F 		.ascii	"RTC_TamperTypeDef\000"
 10378      54616D70 
 10378      65725479 
 10378      70654465 
 10378      6600
 10379              	.LASF88:
 10380 0822 5F756275 		.ascii	"_ubuf\000"
 10380      6600
 10381              	.LASF100:
 10382 0828 5F737464 		.ascii	"_stderr\000"
 10382      65727200 
 10383              	.LASF263:
 10384 0830 48414C5F 		.ascii	"HAL_RTC_WaitForSynchro\000"
 10384      5254435F 
 10384      57616974 
 10384      466F7253 
 10384      796E6368 
 10385              	.LASF136:
 10386 0847 5F776374 		.ascii	"_wctomb_state\000"
 10386      6F6D625F 
 10386      73746174 
ARM GAS  C:\Users\EBANO_~1\AppData\Local\Temp\ccyPWgHX.s 			page 230


 10386      6500
 10387              	.LASF94:
 10388 0855 5F6D6273 		.ascii	"_mbstate\000"
 10388      74617465 
 10388      00
 10389              	.LASF132:
 10390 085e 5F72616E 		.ascii	"_rand_next\000"
 10390      645F6E65 
 10390      787400
 10391              	.LASF80:
 10392 0869 5F666C61 		.ascii	"_flags\000"
 10392      677300
 10393              	.LASF257:
 10394 0870 48414C5F 		.ascii	"HAL_RTCEx_SetTimeStamp_IT\000"
 10394      52544345 
 10394      785F5365 
 10394      7454696D 
 10394      65537461 
 10395              	.LASF190:
 10396 088a 496E6974 		.ascii	"Init\000"
 10396      00
 10397              	.LASF73:
 10398 088f 5F617465 		.ascii	"_atexit\000"
 10398      78697400 
 10399              	.LASF184:
 10400 0897 5765656B 		.ascii	"WeekDay\000"
 10400      44617900 
 10401              	.LASF187:
 10402 089f 59656172 		.ascii	"Year\000"
 10402      00
 10403              	.LASF235:
 10404 08a4 57616B65 		.ascii	"WakeUpClock\000"
 10404      5570436C 
 10404      6F636B00 
 10405              	.LASF48:
 10406 08b0 5F5F636F 		.ascii	"__count\000"
 10406      756E7400 
 10407              	.LASF155:
 10408 08b8 48414C5F 		.ascii	"HAL_BUSY\000"
 10408      42555359 
 10408      00
 10409              	.LASF252:
 10410 08c1 7354696D 		.ascii	"sTimeStampDate\000"
 10410      65537461 
 10410      6D704461 
 10410      746500
 10411              	.LASF200:
 10412 08d0 53616D70 		.ascii	"SamplingFrequency\000"
 10412      6C696E67 
 10412      46726571 
 10412      75656E63 
 10412      7900
 10413              	.LASF65:
 10414 08e2 5F5F746D 		.ascii	"__tm_wday\000"
 10414      5F776461 
 10414      7900
 10415              	.LASF198:
ARM GAS  C:\Users\EBANO_~1\AppData\Local\Temp\ccyPWgHX.s 			page 231


 10416 08ec 4D61736B 		.ascii	"MaskFlag\000"
 10416      466C6167 
 10416      00
 10417              	.LASF211:
 10418 08f5 48414C5F 		.ascii	"HAL_RTCEx_SetRefClock\000"
 10418      52544345 
 10418      785F5365 
 10418      74526566 
 10418      436C6F63 
 10419              	.LASF41:
 10420 090b 6C6F6E67 		.ascii	"long double\000"
 10420      20646F75 
 10420      626C6500 
 10421              	.LASF230:
 10422 0917 48414C5F 		.ascii	"HAL_RTCEx_WakeUpTimerIRQHandler\000"
 10422      52544345 
 10422      785F5761 
 10422      6B655570 
 10422      54696D65 
 10423              	.LASF66:
 10424 0937 5F5F746D 		.ascii	"__tm_yday\000"
 10424      5F796461 
 10424      7900
 10425              	.LASF124:
 10426 0941 5F736565 		.ascii	"_seed\000"
 10426      6400
 10427              	.LASF86:
 10428 0947 5F736565 		.ascii	"_seek\000"
 10428      6B00
 10429              	.LASF234:
 10430 094d 57616B65 		.ascii	"WakeUpCounter\000"
 10430      5570436F 
 10430      756E7465 
 10430      7200
 10431              	.LASF44:
 10432 095b 5F66706F 		.ascii	"_fpos_t\000"
 10432      735F7400 
 10433              	.LASF19:
 10434 0963 53574945 		.ascii	"SWIER\000"
 10434      5200
 10435              	.LASF47:
 10436 0969 5F5F7763 		.ascii	"__wchb\000"
 10436      686200
 10437              	.LASF14:
 10438 0970 41484250 		.ascii	"AHBPrescTable\000"
 10438      72657363 
 10438      5461626C 
 10438      6500
 10439              	.LASF135:
 10440 097e 5F6D6274 		.ascii	"_mbtowc_state\000"
 10440      6F77635F 
 10440      73746174 
 10440      6500
 10441              	.LASF9:
 10442 098c 6C6F6E67 		.ascii	"long long unsigned int\000"
 10442      206C6F6E 
 10442      6720756E 
ARM GAS  C:\Users\EBANO_~1\AppData\Local\Temp\ccyPWgHX.s 			page 232


 10442      7369676E 
 10442      65642069 
 10443              	.LASF262:
 10444 09a3 5254435F 		.ascii	"RTC_EnterInitMode\000"
 10444      456E7465 
 10444      72496E69 
 10444      744D6F64 
 10444      6500
 10445              	.LASF229:
 10446 09b5 48414C5F 		.ascii	"HAL_RTCEx_BKUPWrite\000"
 10446      52544345 
 10446      785F424B 
 10446      55505772 
 10446      69746500 
 10447              	.LASF193:
 10448 09c9 5254435F 		.ascii	"RTC_HandleTypeDef\000"
 10448      48616E64 
 10448      6C655479 
 10448      70654465 
 10448      6600
 10449              	.LASF250:
 10450 09db 48414C5F 		.ascii	"HAL_RTCEx_GetTimeStamp\000"
 10450      52544345 
 10450      785F4765 
 10450      7454696D 
 10450      65537461 
 10451              	.LASF70:
 10452 09f2 5F64736F 		.ascii	"_dso_handle\000"
 10452      5F68616E 
 10452      646C6500 
 10453              	.LASF123:
 10454 09fe 5F72616E 		.ascii	"_rand48\000"
 10454      64343800 
 10455              	.LASF154:
 10456 0a06 48414C5F 		.ascii	"HAL_ERROR\000"
 10456      4552524F 
 10456      5200
 10457              	.LASF99:
 10458 0a10 5F737464 		.ascii	"_stdout\000"
 10458      6F757400 
 10459              	.LASF192:
 10460 0a18 53746174 		.ascii	"State\000"
 10460      6500
 10461              	.LASF158:
 10462 0a1e 48414C5F 		.ascii	"HAL_UNLOCKED\000"
 10462      554E4C4F 
 10462      434B4544 
 10462      00
 10463              	.LASF90:
 10464 0a2b 5F626C6B 		.ascii	"_blksize\000"
 10464      73697A65 
 10464      00
 10465              	.LASF165:
 10466 0a34 48414C5F 		.ascii	"HAL_RTC_STATE_ERROR\000"
 10466      5254435F 
 10466      53544154 
 10466      455F4552 
ARM GAS  C:\Users\EBANO_~1\AppData\Local\Temp\ccyPWgHX.s 			page 233


 10466      524F5200 
 10467              	.LASF172:
 10468 0a48 4F757450 		.ascii	"OutPutPolarity\000"
 10468      7574506F 
 10468      6C617269 
 10468      747900
 10469              	.LASF77:
 10470 0a57 5F626173 		.ascii	"_base\000"
 10470      6500
 10471              	.LASF128:
 10472 0a5d 5F737472 		.ascii	"_strtok_last\000"
 10472      746F6B5F 
 10472      6C617374 
 10472      00
 10473              	.LASF141:
 10474 0a6a 5F6D6272 		.ascii	"_mbrtowc_state\000"
 10474      746F7763 
 10474      5F737461 
 10474      746500
 10475              	.LASF185:
 10476 0a79 4D6F6E74 		.ascii	"Month\000"
 10476      6800
 10477              	.LASF51:
 10478 0a7f 5F666C6F 		.ascii	"_flock_t\000"
 10478      636B5F74 
 10478      00
 10479              	.LASF119:
 10480 0a88 5F5F4649 		.ascii	"__FILE\000"
 10480      4C4500
 10481              	.LASF40:
 10482 0a8f 52455345 		.ascii	"RESET\000"
 10482      5400
 10483              	.LASF241:
 10484 0a95 48414C5F 		.ascii	"HAL_RTCEx_Tamper3EventCallback\000"
 10484      52544345 
 10484      785F5461 
 10484      6D706572 
 10484      33457665 
 10485              	.LASF50:
 10486 0ab4 5F6D6273 		.ascii	"_mbstate_t\000"
 10486      74617465 
 10486      5F7400
 10487              	.LASF133:
 10488 0abf 5F723438 		.ascii	"_r48\000"
 10488      00
 10489              	.LASF202:
 10490 0ac4 54616D70 		.ascii	"TamperPullUp\000"
 10490      65725075 
 10490      6C6C5570 
 10490      00
 10491              	.LASF45:
 10492 0ad1 77696E74 		.ascii	"wint_t\000"
 10492      5F7400
 10493              	.LASF238:
 10494 0ad8 48414C5F 		.ascii	"HAL_RTCEx_PollForTamper2Event\000"
 10494      52544345 
 10494      785F506F 
ARM GAS  C:\Users\EBANO_~1\AppData\Local\Temp\ccyPWgHX.s 			page 234


 10494      6C6C466F 
 10494      7254616D 
 10495              	.LASF53:
 10496 0af6 5F6E6578 		.ascii	"_next\000"
 10496      7400
 10497              	.LASF248:
 10498 0afc 746D7072 		.ascii	"tmpreg\000"
 10498      656700
 10499              	.LASF92:
 10500 0b03 5F646174 		.ascii	"_data\000"
 10500      6100
 10501              	.LASF194:
 10502 0b09 54616D70 		.ascii	"Tamper\000"
 10502      657200
 10503              	.LASF232:
 10504 0b10 48414C5F 		.ascii	"HAL_RTCEx_DeactivateWakeUpTimer\000"
 10504      52544345 
 10504      785F4465 
 10504      61637469 
 10504      76617465 
 10505              	.LASF243:
 10506 0b30 48414C5F 		.ascii	"HAL_RTCEx_TimeStampEventCallback\000"
 10506      52544345 
 10506      785F5469 
 10506      6D655374 
 10506      616D7045 
 10507              	.LASF181:
 10508 0b51 4461794C 		.ascii	"DayLightSaving\000"
 10508      69676874 
 10508      53617669 
 10508      6E6700
 10509              	.LASF249:
 10510 0b60 48414C5F 		.ascii	"HAL_RTCEx_SetTamper\000"
 10510      52544345 
 10510      785F5365 
 10510      7454616D 
 10510      70657200 
 10511              	.LASF203:
 10512 0b74 54696D65 		.ascii	"TimeStampOnTamperDetection\000"
 10512      5374616D 
 10512      704F6E54 
 10512      616D7065 
 10512      72446574 
 10513              	.LASF26:
 10514 0b8f 53484946 		.ascii	"SHIFTR\000"
 10514      545200
 10515              	.LASF15:
 10516 0b96 41504250 		.ascii	"APBPrescTable\000"
 10516      72657363 
 10516      5461626C 
 10516      6500
 10517              	.LASF228:
 10518 0ba4 48414C5F 		.ascii	"HAL_RTCEx_WakeUpTimerEventCallback\000"
 10518      52544345 
 10518      785F5761 
 10518      6B655570 
 10518      54696D65 
ARM GAS  C:\Users\EBANO_~1\AppData\Local\Temp\ccyPWgHX.s 			page 235


 10519              	.LASF225:
 10520 0bc7 44617461 		.ascii	"Data\000"
 10520      00
 10521              	.LASF134:
 10522 0bcc 5F6D626C 		.ascii	"_mblen_state\000"
 10522      656E5F73 
 10522      74617465 
 10522      00
 10523              	.LASF186:
 10524 0bd9 44617465 		.ascii	"Date\000"
 10524      00
 10525              	.LASF2:
 10526 0bde 73686F72 		.ascii	"short int\000"
 10526      7420696E 
 10526      7400
 10527              	.LASF266:
 10528 0be8 2E2E2F2E 		.ascii	"../../../../../../Drivers/STM32L0xx_HAL_Driver/Src/"
 10528      2E2F2E2E 
 10528      2F2E2E2F 
 10528      2E2E2F2E 
 10528      2E2F4472 
 10529 0c1b 73746D33 		.ascii	"stm32l0xx_hal_rtc_ex.c\000"
 10529      326C3078 
 10529      785F6861 
 10529      6C5F7274 
 10529      635F6578 
 10530              	.LASF265:
 10531 0c32 474E5520 		.ascii	"GNU C11 7.3.1 20180622 (release) [ARM/embedded-7-br"
 10531      43313120 
 10531      372E332E 
 10531      31203230 
 10531      31383036 
 10532 0c65 616E6368 		.ascii	"anch revision 261907] -mcpu=cortex-m0plus -mthumb -"
 10532      20726576 
 10532      6973696F 
 10532      6E203236 
 10532      31393037 
 10533 0c98 6D666C6F 		.ascii	"mfloat-abi=soft -gdwarf-2 -O3 -ffunction-sections\000"
 10533      61742D61 
 10533      62693D73 
 10533      6F667420 
 10533      2D676477 
 10534              	.LASF195:
 10535 0cca 496E7465 		.ascii	"Interrupt\000"
 10535      72727570 
 10535      7400
 10536              	.LASF71:
 10537 0cd4 5F666E74 		.ascii	"_fntypes\000"
 10537      79706573 
 10537      00
 10538              	.LASF64:
 10539 0cdd 5F5F746D 		.ascii	"__tm_year\000"
 10539      5F796561 
 10539      7200
 10540              	.LASF173:
 10541 0ce7 4F757450 		.ascii	"OutPutType\000"
 10541      75745479 
ARM GAS  C:\Users\EBANO_~1\AppData\Local\Temp\ccyPWgHX.s 			page 236


 10541      706500
 10542              	.LASF224:
 10543 0cf2 4261636B 		.ascii	"BackupRegister\000"
 10543      75705265 
 10543      67697374 
 10543      657200
 10544              	.LASF175:
 10545 0d01 486F7572 		.ascii	"Hours\000"
 10545      7300
 10546              	.LASF82:
 10547 0d07 5F6C6266 		.ascii	"_lbfsize\000"
 10547      73697A65 
 10547      00
 10548              	.LASF101:
 10549 0d10 5F696E63 		.ascii	"_inc\000"
 10549      00
 10550              	.LASF74:
 10551 0d15 5F696E64 		.ascii	"_ind\000"
 10551      00
 10552              	.LASF247:
 10553 0d1a 7354616D 		.ascii	"sTamper\000"
 10553      70657200 
 10554              	.LASF76:
 10555 0d22 5F5F7362 		.ascii	"__sbuf\000"
 10555      756600
 10556              	.LASF72:
 10557 0d29 5F69735F 		.ascii	"_is_cxa\000"
 10557      63786100 
 10558              	.LASF42:
 10559 0d31 5F4C4F43 		.ascii	"_LOCK_T\000"
 10559      4B5F5400 
 10560              	.LASF170:
 10561 0d39 4F757450 		.ascii	"OutPut\000"
 10561      757400
 10562              	.LASF146:
 10563 0d40 5F6E6578 		.ascii	"_nextf\000"
 10563      746600
 10564              	.LASF104:
 10565 0d47 5F6C6F63 		.ascii	"_locale\000"
 10565      616C6500 
 10566              	.LASF52:
 10567 0d4f 5F5F554C 		.ascii	"__ULong\000"
 10567      6F6E6700 
 10568              	.LASF218:
 10569 0d57 7469636B 		.ascii	"tickstart\000"
 10569      73746172 
 10569      7400
 10570              	.LASF12:
 10571 0d61 75696E74 		.ascii	"uint32_t\000"
 10571      33325F74 
 10571      00
 10572              	.LASF107:
 10573 0d6a 5F726573 		.ascii	"_result\000"
 10573      756C7400 
 10574              	.LASF199:
 10575 0d72 46696C74 		.ascii	"Filter\000"
 10575      657200
ARM GAS  C:\Users\EBANO_~1\AppData\Local\Temp\ccyPWgHX.s 			page 237


 10576              	.LASF43:
 10577 0d79 5F6F6666 		.ascii	"_off_t\000"
 10577      5F7400
 10578              	.LASF159:
 10579 0d80 48414C5F 		.ascii	"HAL_LOCKED\000"
 10579      4C4F434B 
 10579      454400
 10580              	.LASF126:
 10581 0d8b 5F616464 		.ascii	"_add\000"
 10581      00
 10582              	.LASF156:
 10583 0d90 48414C5F 		.ascii	"HAL_TIMEOUT\000"
 10583      54494D45 
 10583      4F555400 
 10584              	.LASF3:
 10585 0d9c 73686F72 		.ascii	"short unsigned int\000"
 10585      7420756E 
 10585      7369676E 
 10585      65642069 
 10585      6E7400
 10586              	.LASF61:
 10587 0daf 5F5F746D 		.ascii	"__tm_hour\000"
 10587      5F686F75 
 10587      7200
 10588              	.LASF22:
 10589 0db9 57555452 		.ascii	"WUTR\000"
 10589      00
 10590              	.LASF142:
 10591 0dbe 5F6D6273 		.ascii	"_mbsrtowcs_state\000"
 10591      72746F77 
 10591      63735F73 
 10591      74617465 
 10591      00
 10592              	.LASF220:
 10593 0dcf 536D6F6F 		.ascii	"SmoothCalibPeriod\000"
 10593      74684361 
 10593      6C696250 
 10593      6572696F 
 10593      6400
 10594              	.LASF254:
 10595 0de1 746D7074 		.ascii	"tmptime\000"
 10595      696D6500 
 10596              	.LASF215:
 10597 0de9 48414C5F 		.ascii	"HAL_RTCEx_SetSynchroShift\000"
 10597      52544345 
 10597      785F5365 
 10597      7453796E 
 10597      6368726F 
 10598              	.LASF34:
 10599 0e03 424B5030 		.ascii	"BKP0R\000"
 10599      5200
 10600              	.LASF69:
 10601 0e09 5F666E61 		.ascii	"_fnargs\000"
 10601      72677300 
 10602              	.LASF29:
 10603 0e11 54535353 		.ascii	"TSSSR\000"
 10603      5200
ARM GAS  C:\Users\EBANO_~1\AppData\Local\Temp\ccyPWgHX.s 			page 238


 10604              	.LASF67:
 10605 0e17 5F5F746D 		.ascii	"__tm_isdst\000"
 10605      5F697364 
 10605      737400
 10606              	.LASF242:
 10607 0e22 48414C5F 		.ascii	"HAL_RTCEx_Tamper2EventCallback\000"
 10607      52544345 
 10607      785F5461 
 10607      6D706572 
 10607      32457665 
 10608              	.LASF60:
 10609 0e41 5F5F746D 		.ascii	"__tm_min\000"
 10609      5F6D696E 
 10609      00
 10610              	.LASF32:
 10611 0e4a 414C524D 		.ascii	"ALRMASSR\000"
 10611      41535352 
 10611      00
 10612              	.LASF31:
 10613 0e53 54414D50 		.ascii	"TAMPCR\000"
 10613      435200
 10614              	.LASF139:
 10615 0e5a 5F676574 		.ascii	"_getdate_err\000"
 10615      64617465 
 10615      5F657272 
 10615      00
 10616              	.LASF188:
 10617 0e67 5254435F 		.ascii	"RTC_DateTypeDef\000"
 10617      44617465 
 10617      54797065 
 10617      44656600 
 10618              	.LASF35:
 10619 0e77 424B5031 		.ascii	"BKP1R\000"
 10619      5200
 10620              		.ident	"GCC: (GNU Tools for Arm Embedded Processors 7-2018-q2-update) 7.3.1 20180622 (release) [AR
ARM GAS  C:\Users\EBANO_~1\AppData\Local\Temp\ccyPWgHX.s 			page 239


DEFINED SYMBOLS
                            *ABS*:00000000 stm32l0xx_hal_rtc_ex.c
C:\Users\EBANO_~1\AppData\Local\Temp\ccyPWgHX.s:16     .text.HAL_RTCEx_SetTimeStamp:00000000 $t
C:\Users\EBANO_~1\AppData\Local\Temp\ccyPWgHX.s:24     .text.HAL_RTCEx_SetTimeStamp:00000000 HAL_RTCEx_SetTimeStamp
C:\Users\EBANO_~1\AppData\Local\Temp\ccyPWgHX.s:99     .text.HAL_RTCEx_SetTimeStamp:00000044 $d
C:\Users\EBANO_~1\AppData\Local\Temp\ccyPWgHX.s:104    .text.HAL_RTCEx_SetTimeStamp_IT:00000000 $t
C:\Users\EBANO_~1\AppData\Local\Temp\ccyPWgHX.s:112    .text.HAL_RTCEx_SetTimeStamp_IT:00000000 HAL_RTCEx_SetTimeStamp_IT
C:\Users\EBANO_~1\AppData\Local\Temp\ccyPWgHX.s:205    .text.HAL_RTCEx_SetTimeStamp_IT:00000060 $d
C:\Users\EBANO_~1\AppData\Local\Temp\ccyPWgHX.s:211    .text.HAL_RTCEx_DeactivateTimeStamp:00000000 $t
C:\Users\EBANO_~1\AppData\Local\Temp\ccyPWgHX.s:219    .text.HAL_RTCEx_DeactivateTimeStamp:00000000 HAL_RTCEx_DeactivateTimeStamp
C:\Users\EBANO_~1\AppData\Local\Temp\ccyPWgHX.s:292    .text.HAL_RTCEx_DeactivateTimeStamp:00000040 $d
C:\Users\EBANO_~1\AppData\Local\Temp\ccyPWgHX.s:298    .text.HAL_RTCEx_GetTimeStamp:00000000 $t
C:\Users\EBANO_~1\AppData\Local\Temp\ccyPWgHX.s:306    .text.HAL_RTCEx_GetTimeStamp:00000000 HAL_RTCEx_GetTimeStamp
C:\Users\EBANO_~1\AppData\Local\Temp\ccyPWgHX.s:459    .text.HAL_RTCEx_GetTimeStamp:0000009c $d
C:\Users\EBANO_~1\AppData\Local\Temp\ccyPWgHX.s:466    .text.HAL_RTCEx_SetTamper:00000000 $t
C:\Users\EBANO_~1\AppData\Local\Temp\ccyPWgHX.s:474    .text.HAL_RTCEx_SetTamper:00000000 HAL_RTCEx_SetTamper
C:\Users\EBANO_~1\AppData\Local\Temp\ccyPWgHX.s:655    .text.HAL_RTCEx_SetTamper:000000dc $d
C:\Users\EBANO_~1\AppData\Local\Temp\ccyPWgHX.s:660    .text.HAL_RTCEx_SetTamper_IT:00000000 $t
C:\Users\EBANO_~1\AppData\Local\Temp\ccyPWgHX.s:668    .text.HAL_RTCEx_SetTamper_IT:00000000 HAL_RTCEx_SetTamper_IT
C:\Users\EBANO_~1\AppData\Local\Temp\ccyPWgHX.s:872    .text.HAL_RTCEx_SetTamper_IT:000000f8 $d
C:\Users\EBANO_~1\AppData\Local\Temp\ccyPWgHX.s:878    .text.HAL_RTCEx_DeactivateTamper:00000000 $t
C:\Users\EBANO_~1\AppData\Local\Temp\ccyPWgHX.s:886    .text.HAL_RTCEx_DeactivateTamper:00000000 HAL_RTCEx_DeactivateTamper
C:\Users\EBANO_~1\AppData\Local\Temp\ccyPWgHX.s:975    .text.HAL_RTCEx_DeactivateTamper:00000058 $d
C:\Users\EBANO_~1\AppData\Local\Temp\ccyPWgHX.s:982    .text.HAL_RTCEx_TimeStampEventCallback:00000000 $t
C:\Users\EBANO_~1\AppData\Local\Temp\ccyPWgHX.s:990    .text.HAL_RTCEx_TimeStampEventCallback:00000000 HAL_RTCEx_TimeStampEventCallback
C:\Users\EBANO_~1\AppData\Local\Temp\ccyPWgHX.s:1002   .text.HAL_RTCEx_Tamper1EventCallback:00000000 $t
C:\Users\EBANO_~1\AppData\Local\Temp\ccyPWgHX.s:1010   .text.HAL_RTCEx_Tamper1EventCallback:00000000 HAL_RTCEx_Tamper1EventCallback
C:\Users\EBANO_~1\AppData\Local\Temp\ccyPWgHX.s:1025   .text.HAL_RTCEx_Tamper2EventCallback:00000000 $t
C:\Users\EBANO_~1\AppData\Local\Temp\ccyPWgHX.s:1033   .text.HAL_RTCEx_Tamper2EventCallback:00000000 HAL_RTCEx_Tamper2EventCallback
C:\Users\EBANO_~1\AppData\Local\Temp\ccyPWgHX.s:1045   .text.HAL_RTCEx_Tamper3EventCallback:00000000 $t
C:\Users\EBANO_~1\AppData\Local\Temp\ccyPWgHX.s:1053   .text.HAL_RTCEx_Tamper3EventCallback:00000000 HAL_RTCEx_Tamper3EventCallback
C:\Users\EBANO_~1\AppData\Local\Temp\ccyPWgHX.s:1065   .text.HAL_RTCEx_TamperTimeStampIRQHandler:00000000 $t
C:\Users\EBANO_~1\AppData\Local\Temp\ccyPWgHX.s:1073   .text.HAL_RTCEx_TamperTimeStampIRQHandler:00000000 HAL_RTCEx_TamperTimeStampIRQHandler
C:\Users\EBANO_~1\AppData\Local\Temp\ccyPWgHX.s:1206   .text.HAL_RTCEx_TamperTimeStampIRQHandler:000000a4 $d
C:\Users\EBANO_~1\AppData\Local\Temp\ccyPWgHX.s:1218   .text.HAL_RTCEx_PollForTimeStampEvent:00000000 $t
C:\Users\EBANO_~1\AppData\Local\Temp\ccyPWgHX.s:1226   .text.HAL_RTCEx_PollForTimeStampEvent:00000000 HAL_RTCEx_PollForTimeStampEvent
C:\Users\EBANO_~1\AppData\Local\Temp\ccyPWgHX.s:1353   .text.HAL_RTCEx_PollForTimeStampEvent:00000080 $d
C:\Users\EBANO_~1\AppData\Local\Temp\ccyPWgHX.s:1358   .text.HAL_RTCEx_PollForTamper1Event:00000000 $t
C:\Users\EBANO_~1\AppData\Local\Temp\ccyPWgHX.s:1366   .text.HAL_RTCEx_PollForTamper1Event:00000000 HAL_RTCEx_PollForTamper1Event
C:\Users\EBANO_~1\AppData\Local\Temp\ccyPWgHX.s:1456   .text.HAL_RTCEx_PollForTamper1Event:00000054 $d
C:\Users\EBANO_~1\AppData\Local\Temp\ccyPWgHX.s:1461   .text.HAL_RTCEx_PollForTamper2Event:00000000 $t
C:\Users\EBANO_~1\AppData\Local\Temp\ccyPWgHX.s:1469   .text.HAL_RTCEx_PollForTamper2Event:00000000 HAL_RTCEx_PollForTamper2Event
C:\Users\EBANO_~1\AppData\Local\Temp\ccyPWgHX.s:1559   .text.HAL_RTCEx_PollForTamper2Event:00000054 $d
C:\Users\EBANO_~1\AppData\Local\Temp\ccyPWgHX.s:1564   .text.HAL_RTCEx_PollForTamper3Event:00000000 $t
C:\Users\EBANO_~1\AppData\Local\Temp\ccyPWgHX.s:1572   .text.HAL_RTCEx_PollForTamper3Event:00000000 HAL_RTCEx_PollForTamper3Event
C:\Users\EBANO_~1\AppData\Local\Temp\ccyPWgHX.s:1662   .text.HAL_RTCEx_PollForTamper3Event:00000054 $d
C:\Users\EBANO_~1\AppData\Local\Temp\ccyPWgHX.s:1667   .text.HAL_RTCEx_SetWakeUpTimer:00000000 $t
C:\Users\EBANO_~1\AppData\Local\Temp\ccyPWgHX.s:1675   .text.HAL_RTCEx_SetWakeUpTimer:00000000 HAL_RTCEx_SetWakeUpTimer
C:\Users\EBANO_~1\AppData\Local\Temp\ccyPWgHX.s:1889   .text.HAL_RTCEx_SetWakeUpTimer:000000e4 $d
C:\Users\EBANO_~1\AppData\Local\Temp\ccyPWgHX.s:1894   .text.HAL_RTCEx_SetWakeUpTimer_IT:00000000 $t
C:\Users\EBANO_~1\AppData\Local\Temp\ccyPWgHX.s:1902   .text.HAL_RTCEx_SetWakeUpTimer_IT:00000000 HAL_RTCEx_SetWakeUpTimer_IT
C:\Users\EBANO_~1\AppData\Local\Temp\ccyPWgHX.s:2147   .text.HAL_RTCEx_SetWakeUpTimer_IT:00000110 $d
C:\Users\EBANO_~1\AppData\Local\Temp\ccyPWgHX.s:2154   .text.HAL_RTCEx_DeactivateWakeUpTimer:00000000 $t
C:\Users\EBANO_~1\AppData\Local\Temp\ccyPWgHX.s:2162   .text.HAL_RTCEx_DeactivateWakeUpTimer:00000000 HAL_RTCEx_DeactivateWakeUpTimer
C:\Users\EBANO_~1\AppData\Local\Temp\ccyPWgHX.s:2296   .text.HAL_RTCEx_DeactivateWakeUpTimer:00000088 $d
C:\Users\EBANO_~1\AppData\Local\Temp\ccyPWgHX.s:2302   .text.HAL_RTCEx_GetWakeUpTimer:00000000 $t
C:\Users\EBANO_~1\AppData\Local\Temp\ccyPWgHX.s:2310   .text.HAL_RTCEx_GetWakeUpTimer:00000000 HAL_RTCEx_GetWakeUpTimer
ARM GAS  C:\Users\EBANO_~1\AppData\Local\Temp\ccyPWgHX.s 			page 240


C:\Users\EBANO_~1\AppData\Local\Temp\ccyPWgHX.s:2333   .text.HAL_RTCEx_WakeUpTimerEventCallback:00000000 $t
C:\Users\EBANO_~1\AppData\Local\Temp\ccyPWgHX.s:2341   .text.HAL_RTCEx_WakeUpTimerEventCallback:00000000 HAL_RTCEx_WakeUpTimerEventCallback
C:\Users\EBANO_~1\AppData\Local\Temp\ccyPWgHX.s:2353   .text.HAL_RTCEx_WakeUpTimerIRQHandler:00000000 $t
C:\Users\EBANO_~1\AppData\Local\Temp\ccyPWgHX.s:2361   .text.HAL_RTCEx_WakeUpTimerIRQHandler:00000000 HAL_RTCEx_WakeUpTimerIRQHandler
C:\Users\EBANO_~1\AppData\Local\Temp\ccyPWgHX.s:2413   .text.HAL_RTCEx_WakeUpTimerIRQHandler:00000030 $d
C:\Users\EBANO_~1\AppData\Local\Temp\ccyPWgHX.s:2419   .text.HAL_RTCEx_PollForWakeUpTimerEvent:00000000 $t
C:\Users\EBANO_~1\AppData\Local\Temp\ccyPWgHX.s:2427   .text.HAL_RTCEx_PollForWakeUpTimerEvent:00000000 HAL_RTCEx_PollForWakeUpTimerEvent
C:\Users\EBANO_~1\AppData\Local\Temp\ccyPWgHX.s:2517   .text.HAL_RTCEx_PollForWakeUpTimerEvent:00000054 $d
C:\Users\EBANO_~1\AppData\Local\Temp\ccyPWgHX.s:2522   .text.HAL_RTCEx_BKUPWrite:00000000 $t
C:\Users\EBANO_~1\AppData\Local\Temp\ccyPWgHX.s:2530   .text.HAL_RTCEx_BKUPWrite:00000000 HAL_RTCEx_BKUPWrite
C:\Users\EBANO_~1\AppData\Local\Temp\ccyPWgHX.s:2557   .text.HAL_RTCEx_BKUPRead:00000000 $t
C:\Users\EBANO_~1\AppData\Local\Temp\ccyPWgHX.s:2565   .text.HAL_RTCEx_BKUPRead:00000000 HAL_RTCEx_BKUPRead
C:\Users\EBANO_~1\AppData\Local\Temp\ccyPWgHX.s:2593   .text.HAL_RTCEx_SetSmoothCalib:00000000 $t
C:\Users\EBANO_~1\AppData\Local\Temp\ccyPWgHX.s:2601   .text.HAL_RTCEx_SetSmoothCalib:00000000 HAL_RTCEx_SetSmoothCalib
C:\Users\EBANO_~1\AppData\Local\Temp\ccyPWgHX.s:2755   .text.HAL_RTCEx_SetSynchroShift:00000000 $t
C:\Users\EBANO_~1\AppData\Local\Temp\ccyPWgHX.s:2763   .text.HAL_RTCEx_SetSynchroShift:00000000 HAL_RTCEx_SetSynchroShift
C:\Users\EBANO_~1\AppData\Local\Temp\ccyPWgHX.s:2950   .text.HAL_RTCEx_SetCalibrationOutPut:00000000 $t
C:\Users\EBANO_~1\AppData\Local\Temp\ccyPWgHX.s:2958   .text.HAL_RTCEx_SetCalibrationOutPut:00000000 HAL_RTCEx_SetCalibrationOutPut
C:\Users\EBANO_~1\AppData\Local\Temp\ccyPWgHX.s:3034   .text.HAL_RTCEx_SetCalibrationOutPut:00000048 $d
C:\Users\EBANO_~1\AppData\Local\Temp\ccyPWgHX.s:3039   .text.HAL_RTCEx_DeactivateCalibrationOutPut:00000000 $t
C:\Users\EBANO_~1\AppData\Local\Temp\ccyPWgHX.s:3047   .text.HAL_RTCEx_DeactivateCalibrationOutPut:00000000 HAL_RTCEx_DeactivateCalibrationOutPut
C:\Users\EBANO_~1\AppData\Local\Temp\ccyPWgHX.s:3111   .text.HAL_RTCEx_DeactivateCalibrationOutPut:00000038 $d
C:\Users\EBANO_~1\AppData\Local\Temp\ccyPWgHX.s:3116   .text.HAL_RTCEx_SetRefClock:00000000 $t
C:\Users\EBANO_~1\AppData\Local\Temp\ccyPWgHX.s:3124   .text.HAL_RTCEx_SetRefClock:00000000 HAL_RTCEx_SetRefClock
C:\Users\EBANO_~1\AppData\Local\Temp\ccyPWgHX.s:3221   .text.HAL_RTCEx_DeactivateRefClock:00000000 $t
C:\Users\EBANO_~1\AppData\Local\Temp\ccyPWgHX.s:3229   .text.HAL_RTCEx_DeactivateRefClock:00000000 HAL_RTCEx_DeactivateRefClock
C:\Users\EBANO_~1\AppData\Local\Temp\ccyPWgHX.s:3326   .text.HAL_RTCEx_EnableBypassShadow:00000000 $t
C:\Users\EBANO_~1\AppData\Local\Temp\ccyPWgHX.s:3334   .text.HAL_RTCEx_EnableBypassShadow:00000000 HAL_RTCEx_EnableBypassShadow
C:\Users\EBANO_~1\AppData\Local\Temp\ccyPWgHX.s:3395   .text.HAL_RTCEx_DisableBypassShadow:00000000 $t
C:\Users\EBANO_~1\AppData\Local\Temp\ccyPWgHX.s:3403   .text.HAL_RTCEx_DisableBypassShadow:00000000 HAL_RTCEx_DisableBypassShadow
C:\Users\EBANO_~1\AppData\Local\Temp\ccyPWgHX.s:3466   .text.HAL_RTCEx_AlarmBEventCallback:00000000 $t
C:\Users\EBANO_~1\AppData\Local\Temp\ccyPWgHX.s:3474   .text.HAL_RTCEx_AlarmBEventCallback:00000000 HAL_RTCEx_AlarmBEventCallback
C:\Users\EBANO_~1\AppData\Local\Temp\ccyPWgHX.s:3486   .text.HAL_RTCEx_PollForAlarmBEvent:00000000 $t
C:\Users\EBANO_~1\AppData\Local\Temp\ccyPWgHX.s:3494   .text.HAL_RTCEx_PollForAlarmBEvent:00000000 HAL_RTCEx_PollForAlarmBEvent
C:\Users\EBANO_~1\AppData\Local\Temp\ccyPWgHX.s:3585   .text.HAL_RTCEx_PollForAlarmBEvent:00000054 $d

UNDEFINED SYMBOLS
RTC_Bcd2ToByte
HAL_GetTick
HAL_RTC_WaitForSynchro
RTC_EnterInitMode
