ARM GAS  C:\Users\EBANO_~1\AppData\Local\Temp\cc4h82Al.s 			page 1


   1              		.cpu cortex-m0plus
   2              		.eabi_attribute 20, 1
   3              		.eabi_attribute 21, 1
   4              		.eabi_attribute 23, 3
   5              		.eabi_attribute 24, 1
   6              		.eabi_attribute 25, 1
   7              		.eabi_attribute 26, 1
   8              		.eabi_attribute 30, 2
   9              		.eabi_attribute 34, 0
  10              		.eabi_attribute 18, 4
  11              		.file	"stm32l0xx_hal_dma.c"
  12              		.text
  13              	.Ltext0:
  14              		.cfi_sections	.debug_frame
  15              		.section	.text.HAL_DMA_Init,"ax",%progbits
  16              		.align	1
  17              		.p2align 2,,3
  18              		.global	HAL_DMA_Init
  19              		.syntax unified
  20              		.code	16
  21              		.thumb_func
  22              		.fpu softvfp
  23              		.type	HAL_DMA_Init, %function
  24              	HAL_DMA_Init:
  25              	.LFB39:
  26              		.file 1 "../../../../../../Drivers/STM32L0xx_HAL_Driver/Src/stm32l0xx_hal_dma.c"
   1:../../../../../../Drivers/STM32L0xx_HAL_Driver/Src/stm32l0xx_hal_dma.c **** /**
   2:../../../../../../Drivers/STM32L0xx_HAL_Driver/Src/stm32l0xx_hal_dma.c ****   ******************************************************************************
   3:../../../../../../Drivers/STM32L0xx_HAL_Driver/Src/stm32l0xx_hal_dma.c ****   * @file    stm32l0xx_hal_dma.c
   4:../../../../../../Drivers/STM32L0xx_HAL_Driver/Src/stm32l0xx_hal_dma.c ****   * @author  MCD Application Team
   5:../../../../../../Drivers/STM32L0xx_HAL_Driver/Src/stm32l0xx_hal_dma.c ****   * @brief   DMA HAL module driver.
   6:../../../../../../Drivers/STM32L0xx_HAL_Driver/Src/stm32l0xx_hal_dma.c ****   *    
   7:../../../../../../Drivers/STM32L0xx_HAL_Driver/Src/stm32l0xx_hal_dma.c ****   *         This file provides firmware functions to manage the following 
   8:../../../../../../Drivers/STM32L0xx_HAL_Driver/Src/stm32l0xx_hal_dma.c ****   *         functionalities of the Direct Memory Access (DMA) peripheral:
   9:../../../../../../Drivers/STM32L0xx_HAL_Driver/Src/stm32l0xx_hal_dma.c ****   *           + Initialization/de-initialization functions
  10:../../../../../../Drivers/STM32L0xx_HAL_Driver/Src/stm32l0xx_hal_dma.c ****   *           + I/O operation functions
  11:../../../../../../Drivers/STM32L0xx_HAL_Driver/Src/stm32l0xx_hal_dma.c ****   *           + Peripheral State functions
  12:../../../../../../Drivers/STM32L0xx_HAL_Driver/Src/stm32l0xx_hal_dma.c ****   *  
  13:../../../../../../Drivers/STM32L0xx_HAL_Driver/Src/stm32l0xx_hal_dma.c ****   *           
  14:../../../../../../Drivers/STM32L0xx_HAL_Driver/Src/stm32l0xx_hal_dma.c ****   @verbatim     
  15:../../../../../../Drivers/STM32L0xx_HAL_Driver/Src/stm32l0xx_hal_dma.c ****   ==============================================================================      
  16:../../../../../../Drivers/STM32L0xx_HAL_Driver/Src/stm32l0xx_hal_dma.c ****                         ##### How to use this driver #####
  17:../../../../../../Drivers/STM32L0xx_HAL_Driver/Src/stm32l0xx_hal_dma.c ****   ============================================================================== 
  18:../../../../../../Drivers/STM32L0xx_HAL_Driver/Src/stm32l0xx_hal_dma.c ****   [..]
  19:../../../../../../Drivers/STM32L0xx_HAL_Driver/Src/stm32l0xx_hal_dma.c ****    (#) Enable and configure the peripheral to be connected to the DMA Channel
  20:../../../../../../Drivers/STM32L0xx_HAL_Driver/Src/stm32l0xx_hal_dma.c ****        (except for internal SRAM / FLASH memories: no initialization is 
  21:../../../../../../Drivers/STM32L0xx_HAL_Driver/Src/stm32l0xx_hal_dma.c ****        necessary). 
  22:../../../../../../Drivers/STM32L0xx_HAL_Driver/Src/stm32l0xx_hal_dma.c ****           
  23:../../../../../../Drivers/STM32L0xx_HAL_Driver/Src/stm32l0xx_hal_dma.c ****    (#) For a given Channel, program the required configuration through the following parameters:   
  24:../../../../../../Drivers/STM32L0xx_HAL_Driver/Src/stm32l0xx_hal_dma.c ****        Channel request, Transfer Direction, Source and Destination data formats, 
  25:../../../../../../Drivers/STM32L0xx_HAL_Driver/Src/stm32l0xx_hal_dma.c ****        Circular, Normal or peripheral flow control mode, Channel Priority level, 
  26:../../../../../../Drivers/STM32L0xx_HAL_Driver/Src/stm32l0xx_hal_dma.c ****        Source and Destination Increment mode using HAL_DMA_Init() function.
  27:../../../../../../Drivers/STM32L0xx_HAL_Driver/Src/stm32l0xx_hal_dma.c ****    
  28:../../../../../../Drivers/STM32L0xx_HAL_Driver/Src/stm32l0xx_hal_dma.c ****      *** Polling mode IO operation ***
  29:../../../../../../Drivers/STM32L0xx_HAL_Driver/Src/stm32l0xx_hal_dma.c ****      =================================   
  30:../../../../../../Drivers/STM32L0xx_HAL_Driver/Src/stm32l0xx_hal_dma.c ****     [..] 
  31:../../../../../../Drivers/STM32L0xx_HAL_Driver/Src/stm32l0xx_hal_dma.c ****           (+) Use HAL_DMA_Start() to start DMA transfer after the configuration of Source 
ARM GAS  C:\Users\EBANO_~1\AppData\Local\Temp\cc4h82Al.s 			page 2


  32:../../../../../../Drivers/STM32L0xx_HAL_Driver/Src/stm32l0xx_hal_dma.c ****               address and destination address and the Length of data to be transferred
  33:../../../../../../Drivers/STM32L0xx_HAL_Driver/Src/stm32l0xx_hal_dma.c ****           (+) Use HAL_DMA_PollForTransfer() to poll for the end of current transfer, in this  
  34:../../../../../../Drivers/STM32L0xx_HAL_Driver/Src/stm32l0xx_hal_dma.c ****               case a fixed Timeout can be configured by User depending from his application.
  35:../../../../../../Drivers/STM32L0xx_HAL_Driver/Src/stm32l0xx_hal_dma.c ****                
  36:../../../../../../Drivers/STM32L0xx_HAL_Driver/Src/stm32l0xx_hal_dma.c ****      *** Interrupt mode IO operation ***    
  37:../../../../../../Drivers/STM32L0xx_HAL_Driver/Src/stm32l0xx_hal_dma.c ****      =================================== 
  38:../../../../../../Drivers/STM32L0xx_HAL_Driver/Src/stm32l0xx_hal_dma.c ****     [..]     
  39:../../../../../../Drivers/STM32L0xx_HAL_Driver/Src/stm32l0xx_hal_dma.c ****           (+) Configure the DMA interrupt priority using HAL_NVIC_SetPriority()
  40:../../../../../../Drivers/STM32L0xx_HAL_Driver/Src/stm32l0xx_hal_dma.c ****           (+) Enable the DMA IRQ handler using HAL_NVIC_EnableIRQ() 
  41:../../../../../../Drivers/STM32L0xx_HAL_Driver/Src/stm32l0xx_hal_dma.c ****           (+) Use HAL_DMA_Start_IT() to start DMA transfer after the configuration of  
  42:../../../../../../Drivers/STM32L0xx_HAL_Driver/Src/stm32l0xx_hal_dma.c ****               Source address and destination address and the Length of data to be transferred. In t
  43:../../../../../../Drivers/STM32L0xx_HAL_Driver/Src/stm32l0xx_hal_dma.c ****               case the DMA interrupt is configured 
  44:../../../../../../Drivers/STM32L0xx_HAL_Driver/Src/stm32l0xx_hal_dma.c ****           (+) Use HAL_DMA_IRQHandler() called under DMA_IRQHandler() Interrupt subroutine
  45:../../../../../../Drivers/STM32L0xx_HAL_Driver/Src/stm32l0xx_hal_dma.c ****           (+) At the end of data transfer HAL_DMA_IRQHandler() function is executed and user can 
  46:../../../../../../Drivers/STM32L0xx_HAL_Driver/Src/stm32l0xx_hal_dma.c ****               add his own function by customization of function pointer XferCpltCallback and 
  47:../../../../../../Drivers/STM32L0xx_HAL_Driver/Src/stm32l0xx_hal_dma.c ****               XferErrorCallback (i.e a member of DMA handle structure). 
  48:../../../../../../Drivers/STM32L0xx_HAL_Driver/Src/stm32l0xx_hal_dma.c ****                 
  49:../../../../../../Drivers/STM32L0xx_HAL_Driver/Src/stm32l0xx_hal_dma.c ****    (#) Use HAL_DMA_GetState() function to return the DMA state and HAL_DMA_GetError() in case of er
  50:../../../../../../Drivers/STM32L0xx_HAL_Driver/Src/stm32l0xx_hal_dma.c ****        detection.
  51:../../../../../../Drivers/STM32L0xx_HAL_Driver/Src/stm32l0xx_hal_dma.c ****          
  52:../../../../../../Drivers/STM32L0xx_HAL_Driver/Src/stm32l0xx_hal_dma.c ****    (#) Use HAL_DMA_Abort() function to abort the current transfer              
  53:../../../../../../Drivers/STM32L0xx_HAL_Driver/Src/stm32l0xx_hal_dma.c ****                    
  54:../../../../../../Drivers/STM32L0xx_HAL_Driver/Src/stm32l0xx_hal_dma.c ****    -@-   In Memory-to-Memory transfer mode, Circular mode is not allowed.          
  55:../../../../../../Drivers/STM32L0xx_HAL_Driver/Src/stm32l0xx_hal_dma.c ****   
  56:../../../../../../Drivers/STM32L0xx_HAL_Driver/Src/stm32l0xx_hal_dma.c ****   @endverbatim
  57:../../../../../../Drivers/STM32L0xx_HAL_Driver/Src/stm32l0xx_hal_dma.c ****   ******************************************************************************
  58:../../../../../../Drivers/STM32L0xx_HAL_Driver/Src/stm32l0xx_hal_dma.c ****   * @attention
  59:../../../../../../Drivers/STM32L0xx_HAL_Driver/Src/stm32l0xx_hal_dma.c ****   *
  60:../../../../../../Drivers/STM32L0xx_HAL_Driver/Src/stm32l0xx_hal_dma.c ****   * <h2><center>&copy; COPYRIGHT(c) 2016 STMicroelectronics</center></h2>
  61:../../../../../../Drivers/STM32L0xx_HAL_Driver/Src/stm32l0xx_hal_dma.c ****   *
  62:../../../../../../Drivers/STM32L0xx_HAL_Driver/Src/stm32l0xx_hal_dma.c ****   * Redistribution and use in source and binary forms, with or without modification,
  63:../../../../../../Drivers/STM32L0xx_HAL_Driver/Src/stm32l0xx_hal_dma.c ****   * are permitted provided that the following conditions are met:
  64:../../../../../../Drivers/STM32L0xx_HAL_Driver/Src/stm32l0xx_hal_dma.c ****   *   1. Redistributions of source code must retain the above copyright notice,
  65:../../../../../../Drivers/STM32L0xx_HAL_Driver/Src/stm32l0xx_hal_dma.c ****   *      this list of conditions and the following disclaimer.
  66:../../../../../../Drivers/STM32L0xx_HAL_Driver/Src/stm32l0xx_hal_dma.c ****   *   2. Redistributions in binary form must reproduce the above copyright notice,
  67:../../../../../../Drivers/STM32L0xx_HAL_Driver/Src/stm32l0xx_hal_dma.c ****   *      this list of conditions and the following disclaimer in the documentation
  68:../../../../../../Drivers/STM32L0xx_HAL_Driver/Src/stm32l0xx_hal_dma.c ****   *      and/or other materials provided with the distribution.
  69:../../../../../../Drivers/STM32L0xx_HAL_Driver/Src/stm32l0xx_hal_dma.c ****   *   3. Neither the name of STMicroelectronics nor the names of its contributors
  70:../../../../../../Drivers/STM32L0xx_HAL_Driver/Src/stm32l0xx_hal_dma.c ****   *      may be used to endorse or promote products derived from this software
  71:../../../../../../Drivers/STM32L0xx_HAL_Driver/Src/stm32l0xx_hal_dma.c ****   *      without specific prior written permission.
  72:../../../../../../Drivers/STM32L0xx_HAL_Driver/Src/stm32l0xx_hal_dma.c ****   *
  73:../../../../../../Drivers/STM32L0xx_HAL_Driver/Src/stm32l0xx_hal_dma.c ****   * THIS SOFTWARE IS PROVIDED BY THE COPYRIGHT HOLDERS AND CONTRIBUTORS "AS IS"
  74:../../../../../../Drivers/STM32L0xx_HAL_Driver/Src/stm32l0xx_hal_dma.c ****   * AND ANY EXPRESS OR IMPLIED WARRANTIES, INCLUDING, BUT NOT LIMITED TO, THE
  75:../../../../../../Drivers/STM32L0xx_HAL_Driver/Src/stm32l0xx_hal_dma.c ****   * IMPLIED WARRANTIES OF MERCHANTABILITY AND FITNESS FOR A PARTICULAR PURPOSE ARE
  76:../../../../../../Drivers/STM32L0xx_HAL_Driver/Src/stm32l0xx_hal_dma.c ****   * DISCLAIMED. IN NO EVENT SHALL THE COPYRIGHT HOLDER OR CONTRIBUTORS BE LIABLE
  77:../../../../../../Drivers/STM32L0xx_HAL_Driver/Src/stm32l0xx_hal_dma.c ****   * FOR ANY DIRECT, INDIRECT, INCIDENTAL, SPECIAL, EXEMPLARY, OR CONSEQUENTIAL
  78:../../../../../../Drivers/STM32L0xx_HAL_Driver/Src/stm32l0xx_hal_dma.c ****   * DAMAGES (INCLUDING, BUT NOT LIMITED TO, PROCUREMENT OF SUBSTITUTE GOODS OR
  79:../../../../../../Drivers/STM32L0xx_HAL_Driver/Src/stm32l0xx_hal_dma.c ****   * SERVICES; LOSS OF USE, DATA, OR PROFITS; OR BUSINESS INTERRUPTION) HOWEVER
  80:../../../../../../Drivers/STM32L0xx_HAL_Driver/Src/stm32l0xx_hal_dma.c ****   * CAUSED AND ON ANY THEORY OF LIABILITY, WHETHER IN CONTRACT, STRICT LIABILITY,
  81:../../../../../../Drivers/STM32L0xx_HAL_Driver/Src/stm32l0xx_hal_dma.c ****   * OR TORT (INCLUDING NEGLIGENCE OR OTHERWISE) ARISING IN ANY WAY OUT OF THE USE
  82:../../../../../../Drivers/STM32L0xx_HAL_Driver/Src/stm32l0xx_hal_dma.c ****   * OF THIS SOFTWARE, EVEN IF ADVISED OF THE POSSIBILITY OF SUCH DAMAGE.
  83:../../../../../../Drivers/STM32L0xx_HAL_Driver/Src/stm32l0xx_hal_dma.c ****   *
  84:../../../../../../Drivers/STM32L0xx_HAL_Driver/Src/stm32l0xx_hal_dma.c ****   ******************************************************************************
  85:../../../../../../Drivers/STM32L0xx_HAL_Driver/Src/stm32l0xx_hal_dma.c ****   */ 
  86:../../../../../../Drivers/STM32L0xx_HAL_Driver/Src/stm32l0xx_hal_dma.c **** 
  87:../../../../../../Drivers/STM32L0xx_HAL_Driver/Src/stm32l0xx_hal_dma.c **** /* Includes ------------------------------------------------------------------*/
  88:../../../../../../Drivers/STM32L0xx_HAL_Driver/Src/stm32l0xx_hal_dma.c **** #include "stm32l0xx_hal.h"
ARM GAS  C:\Users\EBANO_~1\AppData\Local\Temp\cc4h82Al.s 			page 3


  89:../../../../../../Drivers/STM32L0xx_HAL_Driver/Src/stm32l0xx_hal_dma.c **** 
  90:../../../../../../Drivers/STM32L0xx_HAL_Driver/Src/stm32l0xx_hal_dma.c **** /** @addtogroup STM32L0xx_HAL_Driver
  91:../../../../../../Drivers/STM32L0xx_HAL_Driver/Src/stm32l0xx_hal_dma.c ****   * @{
  92:../../../../../../Drivers/STM32L0xx_HAL_Driver/Src/stm32l0xx_hal_dma.c ****   */
  93:../../../../../../Drivers/STM32L0xx_HAL_Driver/Src/stm32l0xx_hal_dma.c **** #ifdef HAL_DMA_MODULE_ENABLED
  94:../../../../../../Drivers/STM32L0xx_HAL_Driver/Src/stm32l0xx_hal_dma.c **** 
  95:../../../../../../Drivers/STM32L0xx_HAL_Driver/Src/stm32l0xx_hal_dma.c **** /** @addtogroup DMA DMA
  96:../../../../../../Drivers/STM32L0xx_HAL_Driver/Src/stm32l0xx_hal_dma.c ****   * @brief DMA HAL module driver
  97:../../../../../../Drivers/STM32L0xx_HAL_Driver/Src/stm32l0xx_hal_dma.c ****   * @{
  98:../../../../../../Drivers/STM32L0xx_HAL_Driver/Src/stm32l0xx_hal_dma.c ****   */
  99:../../../../../../Drivers/STM32L0xx_HAL_Driver/Src/stm32l0xx_hal_dma.c **** 
 100:../../../../../../Drivers/STM32L0xx_HAL_Driver/Src/stm32l0xx_hal_dma.c **** /* Private typedef -----------------------------------------------------------*/  
 101:../../../../../../Drivers/STM32L0xx_HAL_Driver/Src/stm32l0xx_hal_dma.c **** /** @addtogroup DMA_Private
 102:../../../../../../Drivers/STM32L0xx_HAL_Driver/Src/stm32l0xx_hal_dma.c ****   *
 103:../../../../../../Drivers/STM32L0xx_HAL_Driver/Src/stm32l0xx_hal_dma.c ****   * @{
 104:../../../../../../Drivers/STM32L0xx_HAL_Driver/Src/stm32l0xx_hal_dma.c ****   */
 105:../../../../../../Drivers/STM32L0xx_HAL_Driver/Src/stm32l0xx_hal_dma.c **** #define HAL_TIMEOUT_DMA_ABORT    ((uint32_t)1000U)  /* 1s  */
 106:../../../../../../Drivers/STM32L0xx_HAL_Driver/Src/stm32l0xx_hal_dma.c **** 
 107:../../../../../../Drivers/STM32L0xx_HAL_Driver/Src/stm32l0xx_hal_dma.c **** 
 108:../../../../../../Drivers/STM32L0xx_HAL_Driver/Src/stm32l0xx_hal_dma.c **** static void DMA_SetConfig(DMA_HandleTypeDef *hdma, uint32_t SrcAddress, uint32_t DstAddress, uint32
 109:../../../../../../Drivers/STM32L0xx_HAL_Driver/Src/stm32l0xx_hal_dma.c **** /**
 110:../../../../../../Drivers/STM32L0xx_HAL_Driver/Src/stm32l0xx_hal_dma.c ****   * @}
 111:../../../../../../Drivers/STM32L0xx_HAL_Driver/Src/stm32l0xx_hal_dma.c ****   */
 112:../../../../../../Drivers/STM32L0xx_HAL_Driver/Src/stm32l0xx_hal_dma.c **** 
 113:../../../../../../Drivers/STM32L0xx_HAL_Driver/Src/stm32l0xx_hal_dma.c **** /** @addtogroup DMA_Exported_Functions DMA Exported Functions
 114:../../../../../../Drivers/STM32L0xx_HAL_Driver/Src/stm32l0xx_hal_dma.c ****   * @{
 115:../../../../../../Drivers/STM32L0xx_HAL_Driver/Src/stm32l0xx_hal_dma.c ****   */
 116:../../../../../../Drivers/STM32L0xx_HAL_Driver/Src/stm32l0xx_hal_dma.c **** 
 117:../../../../../../Drivers/STM32L0xx_HAL_Driver/Src/stm32l0xx_hal_dma.c **** /** @addtogroup DMA_Exported_Functions_Group1 
 118:../../../../../../Drivers/STM32L0xx_HAL_Driver/Src/stm32l0xx_hal_dma.c ****  *  @brief   Initialization/de-initialization functions 
 119:../../../../../../Drivers/STM32L0xx_HAL_Driver/Src/stm32l0xx_hal_dma.c ****  *
 120:../../../../../../Drivers/STM32L0xx_HAL_Driver/Src/stm32l0xx_hal_dma.c **** @verbatim   
 121:../../../../../../Drivers/STM32L0xx_HAL_Driver/Src/stm32l0xx_hal_dma.c ****  ===============================================================================
 122:../../../../../../Drivers/STM32L0xx_HAL_Driver/Src/stm32l0xx_hal_dma.c ****              ##### Initialization and de-initialization functions  #####
 123:../../../../../../Drivers/STM32L0xx_HAL_Driver/Src/stm32l0xx_hal_dma.c ****  ===============================================================================  
 124:../../../../../../Drivers/STM32L0xx_HAL_Driver/Src/stm32l0xx_hal_dma.c ****     [..]  This section provides functions allowing to:
 125:../../../../../../Drivers/STM32L0xx_HAL_Driver/Src/stm32l0xx_hal_dma.c ****       (+) Initialize and configure the DMA
 126:../../../../../../Drivers/STM32L0xx_HAL_Driver/Src/stm32l0xx_hal_dma.c ****       (+) De-Initialize the DMA 
 127:../../../../../../Drivers/STM32L0xx_HAL_Driver/Src/stm32l0xx_hal_dma.c **** 
 128:../../../../../../Drivers/STM32L0xx_HAL_Driver/Src/stm32l0xx_hal_dma.c **** @endverbatim
 129:../../../../../../Drivers/STM32L0xx_HAL_Driver/Src/stm32l0xx_hal_dma.c ****   * @{
 130:../../../../../../Drivers/STM32L0xx_HAL_Driver/Src/stm32l0xx_hal_dma.c ****   */
 131:../../../../../../Drivers/STM32L0xx_HAL_Driver/Src/stm32l0xx_hal_dma.c ****   
 132:../../../../../../Drivers/STM32L0xx_HAL_Driver/Src/stm32l0xx_hal_dma.c **** /**
 133:../../../../../../Drivers/STM32L0xx_HAL_Driver/Src/stm32l0xx_hal_dma.c ****   * @brief  Initializes the DMA according to the specified
 134:../../../../../../Drivers/STM32L0xx_HAL_Driver/Src/stm32l0xx_hal_dma.c ****   *         parameters in the DMA_InitTypeDef and create the associated handle.
 135:../../../../../../Drivers/STM32L0xx_HAL_Driver/Src/stm32l0xx_hal_dma.c ****   * @param  hdma Pointer to a DMA_HandleTypeDef structure that contains
 136:../../../../../../Drivers/STM32L0xx_HAL_Driver/Src/stm32l0xx_hal_dma.c ****   *               the configuration information for the specified DMA Channel.  
 137:../../../../../../Drivers/STM32L0xx_HAL_Driver/Src/stm32l0xx_hal_dma.c ****   * @retval HAL status
 138:../../../../../../Drivers/STM32L0xx_HAL_Driver/Src/stm32l0xx_hal_dma.c ****   */
 139:../../../../../../Drivers/STM32L0xx_HAL_Driver/Src/stm32l0xx_hal_dma.c **** HAL_StatusTypeDef HAL_DMA_Init(DMA_HandleTypeDef *hdma)
 140:../../../../../../Drivers/STM32L0xx_HAL_Driver/Src/stm32l0xx_hal_dma.c **** { 
  27              		.loc 1 140 0
  28              		.cfi_startproc
  29              		@ args = 0, pretend = 0, frame = 0
  30              		@ frame_needed = 0, uses_anonymous_args = 0
  31              	.LVL0:
ARM GAS  C:\Users\EBANO_~1\AppData\Local\Temp\cc4h82Al.s 			page 4


  32 0000 10B5     		push	{r4, lr}
  33              	.LCFI0:
  34              		.cfi_def_cfa_offset 8
  35              		.cfi_offset 4, -8
  36              		.cfi_offset 14, -4
 141:../../../../../../Drivers/STM32L0xx_HAL_Driver/Src/stm32l0xx_hal_dma.c ****   uint32_t tmp = 0U;
 142:../../../../../../Drivers/STM32L0xx_HAL_Driver/Src/stm32l0xx_hal_dma.c ****   
 143:../../../../../../Drivers/STM32L0xx_HAL_Driver/Src/stm32l0xx_hal_dma.c ****   /* Check the DMA peripheral state */
 144:../../../../../../Drivers/STM32L0xx_HAL_Driver/Src/stm32l0xx_hal_dma.c ****   if(hdma == NULL)
  37              		.loc 1 144 0
  38 0002 0028     		cmp	r0, #0
  39 0004 3DD0     		beq	.L11
 145:../../../../../../Drivers/STM32L0xx_HAL_Driver/Src/stm32l0xx_hal_dma.c ****   {
 146:../../../../../../Drivers/STM32L0xx_HAL_Driver/Src/stm32l0xx_hal_dma.c ****     return HAL_ERROR;
 147:../../../../../../Drivers/STM32L0xx_HAL_Driver/Src/stm32l0xx_hal_dma.c ****   }
 148:../../../../../../Drivers/STM32L0xx_HAL_Driver/Src/stm32l0xx_hal_dma.c **** 
 149:../../../../../../Drivers/STM32L0xx_HAL_Driver/Src/stm32l0xx_hal_dma.c ****   /* Check the parameters */
 150:../../../../../../Drivers/STM32L0xx_HAL_Driver/Src/stm32l0xx_hal_dma.c ****   assert_param(IS_DMA_ALL_INSTANCE(hdma->Instance));
 151:../../../../../../Drivers/STM32L0xx_HAL_Driver/Src/stm32l0xx_hal_dma.c ****   assert_param(IS_DMA_ALL_REQUEST(hdma->Init.Request));
 152:../../../../../../Drivers/STM32L0xx_HAL_Driver/Src/stm32l0xx_hal_dma.c ****   assert_param(IS_DMA_DIRECTION(hdma->Init.Direction));
 153:../../../../../../Drivers/STM32L0xx_HAL_Driver/Src/stm32l0xx_hal_dma.c ****   assert_param(IS_DMA_PERIPHERAL_INC_STATE(hdma->Init.PeriphInc));
 154:../../../../../../Drivers/STM32L0xx_HAL_Driver/Src/stm32l0xx_hal_dma.c ****   assert_param(IS_DMA_MEMORY_INC_STATE(hdma->Init.MemInc));
 155:../../../../../../Drivers/STM32L0xx_HAL_Driver/Src/stm32l0xx_hal_dma.c ****   assert_param(IS_DMA_PERIPHERAL_DATA_SIZE(hdma->Init.PeriphDataAlignment));
 156:../../../../../../Drivers/STM32L0xx_HAL_Driver/Src/stm32l0xx_hal_dma.c ****   assert_param(IS_DMA_MEMORY_DATA_SIZE(hdma->Init.MemDataAlignment));
 157:../../../../../../Drivers/STM32L0xx_HAL_Driver/Src/stm32l0xx_hal_dma.c ****   assert_param(IS_DMA_MODE(hdma->Init.Mode));
 158:../../../../../../Drivers/STM32L0xx_HAL_Driver/Src/stm32l0xx_hal_dma.c ****   assert_param(IS_DMA_PRIORITY(hdma->Init.Priority));
 159:../../../../../../Drivers/STM32L0xx_HAL_Driver/Src/stm32l0xx_hal_dma.c ****   
 160:../../../../../../Drivers/STM32L0xx_HAL_Driver/Src/stm32l0xx_hal_dma.c ****   if(hdma->State == HAL_DMA_STATE_RESET)
  40              		.loc 1 160 0
  41 0006 2523     		movs	r3, #37
  42 0008 C35C     		ldrb	r3, [r0, r3]
  43 000a DBB2     		uxtb	r3, r3
  44 000c 002B     		cmp	r3, #0
  45 000e 35D0     		beq	.L13
  46              	.L3:
 161:../../../../../../Drivers/STM32L0xx_HAL_Driver/Src/stm32l0xx_hal_dma.c ****   {
 162:../../../../../../Drivers/STM32L0xx_HAL_Driver/Src/stm32l0xx_hal_dma.c ****     /* Allocate lock resource and initialize it */
 163:../../../../../../Drivers/STM32L0xx_HAL_Driver/Src/stm32l0xx_hal_dma.c ****     hdma->Lock = HAL_UNLOCKED;
 164:../../../../../../Drivers/STM32L0xx_HAL_Driver/Src/stm32l0xx_hal_dma.c ****   }
 165:../../../../../../Drivers/STM32L0xx_HAL_Driver/Src/stm32l0xx_hal_dma.c **** 
 166:../../../../../../Drivers/STM32L0xx_HAL_Driver/Src/stm32l0xx_hal_dma.c ****   /* Change DMA peripheral state */
 167:../../../../../../Drivers/STM32L0xx_HAL_Driver/Src/stm32l0xx_hal_dma.c ****   hdma->State = HAL_DMA_STATE_BUSY;
  47              		.loc 1 167 0
  48 0010 2523     		movs	r3, #37
  49 0012 0222     		movs	r2, #2
  50 0014 C254     		strb	r2, [r0, r3]
 168:../../../../../../Drivers/STM32L0xx_HAL_Driver/Src/stm32l0xx_hal_dma.c **** 
 169:../../../../../../Drivers/STM32L0xx_HAL_Driver/Src/stm32l0xx_hal_dma.c ****   /* Get the CR register value */
 170:../../../../../../Drivers/STM32L0xx_HAL_Driver/Src/stm32l0xx_hal_dma.c ****   tmp = hdma->Instance->CCR;
  51              		.loc 1 170 0
  52 0016 0268     		ldr	r2, [r0]
 171:../../../../../../Drivers/STM32L0xx_HAL_Driver/Src/stm32l0xx_hal_dma.c ****   
 172:../../../../../../Drivers/STM32L0xx_HAL_Driver/Src/stm32l0xx_hal_dma.c ****   /* Clear PL, MSIZE, PSIZE, MINC, PINC, CIRC, DIR bits */
 173:../../../../../../Drivers/STM32L0xx_HAL_Driver/Src/stm32l0xx_hal_dma.c ****   tmp &= ((uint32_t)~(DMA_CCR_PL    | DMA_CCR_MSIZE  | DMA_CCR_PSIZE  | \
  53              		.loc 1 173 0
  54 0018 3D49     		ldr	r1, .L20
 170:../../../../../../Drivers/STM32L0xx_HAL_Driver/Src/stm32l0xx_hal_dma.c ****   
ARM GAS  C:\Users\EBANO_~1\AppData\Local\Temp\cc4h82Al.s 			page 5


  55              		.loc 1 170 0
  56 001a 1368     		ldr	r3, [r2]
  57              	.LVL1:
 174:../../../../../../Drivers/STM32L0xx_HAL_Driver/Src/stm32l0xx_hal_dma.c ****                       DMA_CCR_MINC  | DMA_CCR_PINC   | DMA_CCR_CIRC   | \
 175:../../../../../../Drivers/STM32L0xx_HAL_Driver/Src/stm32l0xx_hal_dma.c ****                       DMA_CCR_DIR));
 176:../../../../../../Drivers/STM32L0xx_HAL_Driver/Src/stm32l0xx_hal_dma.c ****   
 177:../../../../../../Drivers/STM32L0xx_HAL_Driver/Src/stm32l0xx_hal_dma.c ****   /* Prepare the DMA Channel configuration */
 178:../../../../../../Drivers/STM32L0xx_HAL_Driver/Src/stm32l0xx_hal_dma.c ****   tmp |=  hdma->Init.Direction        |
  58              		.loc 1 178 0
  59 001c C468     		ldr	r4, [r0, #12]
 173:../../../../../../Drivers/STM32L0xx_HAL_Driver/Src/stm32l0xx_hal_dma.c ****                       DMA_CCR_MINC  | DMA_CCR_PINC   | DMA_CCR_CIRC   | \
  60              		.loc 1 173 0
  61 001e 1940     		ands	r1, r3
  62              	.LVL2:
  63              		.loc 1 178 0
  64 0020 8368     		ldr	r3, [r0, #8]
  65 0022 2343     		orrs	r3, r4
 179:../../../../../../Drivers/STM32L0xx_HAL_Driver/Src/stm32l0xx_hal_dma.c ****           hdma->Init.PeriphInc           | hdma->Init.MemInc           |
  66              		.loc 1 179 0
  67 0024 0469     		ldr	r4, [r0, #16]
  68 0026 2343     		orrs	r3, r4
  69 0028 4469     		ldr	r4, [r0, #20]
  70 002a 2343     		orrs	r3, r4
 180:../../../../../../Drivers/STM32L0xx_HAL_Driver/Src/stm32l0xx_hal_dma.c ****           hdma->Init.PeriphDataAlignment | hdma->Init.MemDataAlignment |
  71              		.loc 1 180 0
  72 002c 8469     		ldr	r4, [r0, #24]
  73 002e 2343     		orrs	r3, r4
  74 0030 C469     		ldr	r4, [r0, #28]
  75 0032 2343     		orrs	r3, r4
 181:../../../../../../Drivers/STM32L0xx_HAL_Driver/Src/stm32l0xx_hal_dma.c ****           hdma->Init.Mode                | hdma->Init.Priority;
  76              		.loc 1 181 0
  77 0034 046A     		ldr	r4, [r0, #32]
  78 0036 2343     		orrs	r3, r4
 178:../../../../../../Drivers/STM32L0xx_HAL_Driver/Src/stm32l0xx_hal_dma.c ****           hdma->Init.PeriphInc           | hdma->Init.MemInc           |
  79              		.loc 1 178 0
  80 0038 0B43     		orrs	r3, r1
  81              	.LVL3:
 182:../../../../../../Drivers/STM32L0xx_HAL_Driver/Src/stm32l0xx_hal_dma.c **** 
 183:../../../../../../Drivers/STM32L0xx_HAL_Driver/Src/stm32l0xx_hal_dma.c ****   /* Write to DMA Channel CR register */
 184:../../../../../../Drivers/STM32L0xx_HAL_Driver/Src/stm32l0xx_hal_dma.c ****   hdma->Instance->CCR = tmp;  
  82              		.loc 1 184 0
  83 003a 1360     		str	r3, [r2]
 185:../../../../../../Drivers/STM32L0xx_HAL_Driver/Src/stm32l0xx_hal_dma.c ****   
 186:../../../../../../Drivers/STM32L0xx_HAL_Driver/Src/stm32l0xx_hal_dma.c ****   /* Write to DMA channel selection register */
 187:../../../../../../Drivers/STM32L0xx_HAL_Driver/Src/stm32l0xx_hal_dma.c ****   if (hdma->Instance == DMA1_Channel1)
  84              		.loc 1 187 0
  85 003c 354B     		ldr	r3, .L20+4
  86              	.LVL4:
  87 003e 9A42     		cmp	r2, r3
  88 0040 21D0     		beq	.L14
 188:../../../../../../Drivers/STM32L0xx_HAL_Driver/Src/stm32l0xx_hal_dma.c ****   {
 189:../../../../../../Drivers/STM32L0xx_HAL_Driver/Src/stm32l0xx_hal_dma.c ****     /*Reset request selection for DMA1 Channel1*/
 190:../../../../../../Drivers/STM32L0xx_HAL_Driver/Src/stm32l0xx_hal_dma.c ****     DMA1_CSELR->CSELR &= ~DMA_CSELR_C1S;
 191:../../../../../../Drivers/STM32L0xx_HAL_Driver/Src/stm32l0xx_hal_dma.c ****     
 192:../../../../../../Drivers/STM32L0xx_HAL_Driver/Src/stm32l0xx_hal_dma.c ****     /* Configure request selection for DMA1 Channel1 */
 193:../../../../../../Drivers/STM32L0xx_HAL_Driver/Src/stm32l0xx_hal_dma.c ****     DMA1_CSELR->CSELR |= hdma->Init.Request;
 194:../../../../../../Drivers/STM32L0xx_HAL_Driver/Src/stm32l0xx_hal_dma.c ****   }
ARM GAS  C:\Users\EBANO_~1\AppData\Local\Temp\cc4h82Al.s 			page 6


 195:../../../../../../Drivers/STM32L0xx_HAL_Driver/Src/stm32l0xx_hal_dma.c ****   else if (hdma->Instance == DMA1_Channel2)
  89              		.loc 1 195 0
  90 0042 354B     		ldr	r3, .L20+8
  91 0044 9A42     		cmp	r2, r3
  92 0046 2CD0     		beq	.L15
 196:../../../../../../Drivers/STM32L0xx_HAL_Driver/Src/stm32l0xx_hal_dma.c ****   {
 197:../../../../../../Drivers/STM32L0xx_HAL_Driver/Src/stm32l0xx_hal_dma.c ****     /*Reset request selection for DMA1 Channel2*/
 198:../../../../../../Drivers/STM32L0xx_HAL_Driver/Src/stm32l0xx_hal_dma.c ****     DMA1_CSELR->CSELR &= ~DMA_CSELR_C2S;
 199:../../../../../../Drivers/STM32L0xx_HAL_Driver/Src/stm32l0xx_hal_dma.c ****     
 200:../../../../../../Drivers/STM32L0xx_HAL_Driver/Src/stm32l0xx_hal_dma.c ****     /* Configure request selection for DMA1 Channel2 */
 201:../../../../../../Drivers/STM32L0xx_HAL_Driver/Src/stm32l0xx_hal_dma.c ****     DMA1_CSELR->CSELR |= (uint32_t)(hdma->Init.Request << 4U);
 202:../../../../../../Drivers/STM32L0xx_HAL_Driver/Src/stm32l0xx_hal_dma.c ****   }
 203:../../../../../../Drivers/STM32L0xx_HAL_Driver/Src/stm32l0xx_hal_dma.c ****   else if (hdma->Instance == DMA1_Channel3)
  93              		.loc 1 203 0
  94 0048 344B     		ldr	r3, .L20+12
  95 004a 9A42     		cmp	r2, r3
  96 004c 3FD0     		beq	.L16
 204:../../../../../../Drivers/STM32L0xx_HAL_Driver/Src/stm32l0xx_hal_dma.c ****   {
 205:../../../../../../Drivers/STM32L0xx_HAL_Driver/Src/stm32l0xx_hal_dma.c ****     /*Reset request selection for DMA1 Channel3*/
 206:../../../../../../Drivers/STM32L0xx_HAL_Driver/Src/stm32l0xx_hal_dma.c ****     DMA1_CSELR->CSELR &= ~DMA_CSELR_C3S;
 207:../../../../../../Drivers/STM32L0xx_HAL_Driver/Src/stm32l0xx_hal_dma.c ****     
 208:../../../../../../Drivers/STM32L0xx_HAL_Driver/Src/stm32l0xx_hal_dma.c ****     /* Configure request selection for DMA1 Channel3 */
 209:../../../../../../Drivers/STM32L0xx_HAL_Driver/Src/stm32l0xx_hal_dma.c ****     DMA1_CSELR->CSELR |= (uint32_t) (hdma->Init.Request << 8U);
 210:../../../../../../Drivers/STM32L0xx_HAL_Driver/Src/stm32l0xx_hal_dma.c ****   }
 211:../../../../../../Drivers/STM32L0xx_HAL_Driver/Src/stm32l0xx_hal_dma.c ****   else if (hdma->Instance == DMA1_Channel4)
  97              		.loc 1 211 0
  98 004e 344B     		ldr	r3, .L20+16
  99 0050 9A42     		cmp	r2, r3
 100 0052 31D0     		beq	.L17
 212:../../../../../../Drivers/STM32L0xx_HAL_Driver/Src/stm32l0xx_hal_dma.c ****   {
 213:../../../../../../Drivers/STM32L0xx_HAL_Driver/Src/stm32l0xx_hal_dma.c ****     /*Reset request selection for DMA1 Channel4*/
 214:../../../../../../Drivers/STM32L0xx_HAL_Driver/Src/stm32l0xx_hal_dma.c ****     DMA1_CSELR->CSELR &= ~DMA_CSELR_C4S;
 215:../../../../../../Drivers/STM32L0xx_HAL_Driver/Src/stm32l0xx_hal_dma.c ****     
 216:../../../../../../Drivers/STM32L0xx_HAL_Driver/Src/stm32l0xx_hal_dma.c ****     /* Configure request selection for DMA1 Channel4 */
 217:../../../../../../Drivers/STM32L0xx_HAL_Driver/Src/stm32l0xx_hal_dma.c ****     DMA1_CSELR->CSELR |= (uint32_t) (hdma->Init.Request << 12U);
 218:../../../../../../Drivers/STM32L0xx_HAL_Driver/Src/stm32l0xx_hal_dma.c ****   }
 219:../../../../../../Drivers/STM32L0xx_HAL_Driver/Src/stm32l0xx_hal_dma.c ****   else if (hdma->Instance == DMA1_Channel5)
 101              		.loc 1 219 0
 102 0054 334B     		ldr	r3, .L20+20
 103 0056 9A42     		cmp	r2, r3
 104 0058 44D0     		beq	.L18
 220:../../../../../../Drivers/STM32L0xx_HAL_Driver/Src/stm32l0xx_hal_dma.c ****   {
 221:../../../../../../Drivers/STM32L0xx_HAL_Driver/Src/stm32l0xx_hal_dma.c ****     /*Reset request selection for DMA1 Channel5*/
 222:../../../../../../Drivers/STM32L0xx_HAL_Driver/Src/stm32l0xx_hal_dma.c ****     DMA1_CSELR->CSELR &= ~DMA_CSELR_C5S;
 223:../../../../../../Drivers/STM32L0xx_HAL_Driver/Src/stm32l0xx_hal_dma.c ****     
 224:../../../../../../Drivers/STM32L0xx_HAL_Driver/Src/stm32l0xx_hal_dma.c ****     /* Configure request selection for DMA1 Channel5 */
 225:../../../../../../Drivers/STM32L0xx_HAL_Driver/Src/stm32l0xx_hal_dma.c ****     DMA1_CSELR->CSELR |= (uint32_t) (hdma->Init.Request << 16U);
 226:../../../../../../Drivers/STM32L0xx_HAL_Driver/Src/stm32l0xx_hal_dma.c ****   }
 227:../../../../../../Drivers/STM32L0xx_HAL_Driver/Src/stm32l0xx_hal_dma.c **** #if !defined (STM32L010x4) && !defined (STM32L011xx) && !defined (STM32L021xx)
 228:../../../../../../Drivers/STM32L0xx_HAL_Driver/Src/stm32l0xx_hal_dma.c ****   else if (hdma->Instance == DMA1_Channel6)
 105              		.loc 1 228 0
 106 005a 334B     		ldr	r3, .L20+24
 107 005c 9A42     		cmp	r2, r3
 108 005e 4CD0     		beq	.L19
 229:../../../../../../Drivers/STM32L0xx_HAL_Driver/Src/stm32l0xx_hal_dma.c ****   {
 230:../../../../../../Drivers/STM32L0xx_HAL_Driver/Src/stm32l0xx_hal_dma.c ****     /*Reset request selection for DMA1 Channel6*/
 231:../../../../../../Drivers/STM32L0xx_HAL_Driver/Src/stm32l0xx_hal_dma.c ****     DMA1_CSELR->CSELR &= ~DMA_CSELR_C6S;
ARM GAS  C:\Users\EBANO_~1\AppData\Local\Temp\cc4h82Al.s 			page 7


 232:../../../../../../Drivers/STM32L0xx_HAL_Driver/Src/stm32l0xx_hal_dma.c ****     
 233:../../../../../../Drivers/STM32L0xx_HAL_Driver/Src/stm32l0xx_hal_dma.c ****     /* Configure request selection for DMA1 Channel6 */
 234:../../../../../../Drivers/STM32L0xx_HAL_Driver/Src/stm32l0xx_hal_dma.c ****     DMA1_CSELR->CSELR |= (uint32_t) (hdma->Init.Request << 20U);
 235:../../../../../../Drivers/STM32L0xx_HAL_Driver/Src/stm32l0xx_hal_dma.c ****   }
 236:../../../../../../Drivers/STM32L0xx_HAL_Driver/Src/stm32l0xx_hal_dma.c ****   else if (hdma->Instance == DMA1_Channel7)
 109              		.loc 1 236 0
 110 0060 324B     		ldr	r3, .L20+28
 111 0062 9A42     		cmp	r2, r3
 112 0064 18D1     		bne	.L5
 237:../../../../../../Drivers/STM32L0xx_HAL_Driver/Src/stm32l0xx_hal_dma.c ****   {
 238:../../../../../../Drivers/STM32L0xx_HAL_Driver/Src/stm32l0xx_hal_dma.c ****     /*Reset request selection for DMA1 Channel7*/
 239:../../../../../../Drivers/STM32L0xx_HAL_Driver/Src/stm32l0xx_hal_dma.c ****     DMA1_CSELR->CSELR &= ~DMA_CSELR_C7S;
 113              		.loc 1 239 0
 114 0066 324A     		ldr	r2, .L20+32
 115              	.LVL5:
 116 0068 3249     		ldr	r1, .L20+36
 117 006a 1368     		ldr	r3, [r2]
 118 006c 0B40     		ands	r3, r1
 119 006e 1360     		str	r3, [r2]
 120              	.LVL6:
 240:../../../../../../Drivers/STM32L0xx_HAL_Driver/Src/stm32l0xx_hal_dma.c ****     
 241:../../../../../../Drivers/STM32L0xx_HAL_Driver/Src/stm32l0xx_hal_dma.c ****     /* Configure request selection for DMA1 Channel7 */
 242:../../../../../../Drivers/STM32L0xx_HAL_Driver/Src/stm32l0xx_hal_dma.c ****     DMA1_CSELR->CSELR |= (uint32_t) (hdma->Init.Request << 24U);
 121              		.loc 1 242 0
 122 0070 4368     		ldr	r3, [r0, #4]
 123 0072 1168     		ldr	r1, [r2]
 124 0074 1B06     		lsls	r3, r3, #24
 125 0076 0B43     		orrs	r3, r1
 126 0078 1360     		str	r3, [r2]
 127 007a 0DE0     		b	.L5
 128              	.LVL7:
 129              	.L13:
 163:../../../../../../Drivers/STM32L0xx_HAL_Driver/Src/stm32l0xx_hal_dma.c ****   }
 130              		.loc 1 163 0
 131 007c 2422     		movs	r2, #36
 132 007e 8354     		strb	r3, [r0, r2]
 133 0080 C6E7     		b	.L3
 134              	.L11:
 146:../../../../../../Drivers/STM32L0xx_HAL_Driver/Src/stm32l0xx_hal_dma.c ****   }
 135              		.loc 1 146 0
 136 0082 0120     		movs	r0, #1
 137              	.LVL8:
 138              	.L2:
 243:../../../../../../Drivers/STM32L0xx_HAL_Driver/Src/stm32l0xx_hal_dma.c ****   }
 244:../../../../../../Drivers/STM32L0xx_HAL_Driver/Src/stm32l0xx_hal_dma.c **** #endif   
 245:../../../../../../Drivers/STM32L0xx_HAL_Driver/Src/stm32l0xx_hal_dma.c ****   /* Initialize the DMA state*/
 246:../../../../../../Drivers/STM32L0xx_HAL_Driver/Src/stm32l0xx_hal_dma.c ****   hdma->State  = HAL_DMA_STATE_READY;
 247:../../../../../../Drivers/STM32L0xx_HAL_Driver/Src/stm32l0xx_hal_dma.c ****   
 248:../../../../../../Drivers/STM32L0xx_HAL_Driver/Src/stm32l0xx_hal_dma.c ****   return HAL_OK;
 249:../../../../../../Drivers/STM32L0xx_HAL_Driver/Src/stm32l0xx_hal_dma.c **** }  
 139              		.loc 1 249 0
 140              		@ sp needed
 141 0084 10BD     		pop	{r4, pc}
 142              	.LVL9:
 143              	.L14:
 190:../../../../../../Drivers/STM32L0xx_HAL_Driver/Src/stm32l0xx_hal_dma.c ****     
 144              		.loc 1 190 0
ARM GAS  C:\Users\EBANO_~1\AppData\Local\Temp\cc4h82Al.s 			page 8


 145 0086 0F21     		movs	r1, #15
 146 0088 294B     		ldr	r3, .L20+32
 147 008a 1A68     		ldr	r2, [r3]
 148              	.LVL10:
 149 008c 8A43     		bics	r2, r1
 150 008e 1A60     		str	r2, [r3]
 151              	.LVL11:
 193:../../../../../../Drivers/STM32L0xx_HAL_Driver/Src/stm32l0xx_hal_dma.c ****   }
 152              		.loc 1 193 0
 153 0090 1A68     		ldr	r2, [r3]
 154 0092 4168     		ldr	r1, [r0, #4]
 155 0094 0A43     		orrs	r2, r1
 156 0096 1A60     		str	r2, [r3]
 157              	.L5:
 246:../../../../../../Drivers/STM32L0xx_HAL_Driver/Src/stm32l0xx_hal_dma.c ****   
 158              		.loc 1 246 0
 159 0098 2523     		movs	r3, #37
 160 009a 0122     		movs	r2, #1
 161 009c C254     		strb	r2, [r0, r3]
 248:../../../../../../Drivers/STM32L0xx_HAL_Driver/Src/stm32l0xx_hal_dma.c **** }  
 162              		.loc 1 248 0
 163 009e 0020     		movs	r0, #0
 164              	.LVL12:
 165 00a0 F0E7     		b	.L2
 166              	.LVL13:
 167              	.L15:
 198:../../../../../../Drivers/STM32L0xx_HAL_Driver/Src/stm32l0xx_hal_dma.c ****     
 168              		.loc 1 198 0
 169 00a2 F021     		movs	r1, #240
 170 00a4 224A     		ldr	r2, .L20+32
 171              	.LVL14:
 172 00a6 1368     		ldr	r3, [r2]
 173 00a8 8B43     		bics	r3, r1
 174 00aa 1360     		str	r3, [r2]
 175              	.LVL15:
 201:../../../../../../Drivers/STM32L0xx_HAL_Driver/Src/stm32l0xx_hal_dma.c ****   }
 176              		.loc 1 201 0
 177 00ac 4368     		ldr	r3, [r0, #4]
 178 00ae 1168     		ldr	r1, [r2]
 179 00b0 1B01     		lsls	r3, r3, #4
 180 00b2 0B43     		orrs	r3, r1
 181 00b4 1360     		str	r3, [r2]
 182 00b6 EFE7     		b	.L5
 183              	.LVL16:
 184              	.L17:
 214:../../../../../../Drivers/STM32L0xx_HAL_Driver/Src/stm32l0xx_hal_dma.c ****     
 185              		.loc 1 214 0
 186 00b8 1D4A     		ldr	r2, .L20+32
 187              	.LVL17:
 188 00ba 1F49     		ldr	r1, .L20+40
 189 00bc 1368     		ldr	r3, [r2]
 190 00be 0B40     		ands	r3, r1
 191 00c0 1360     		str	r3, [r2]
 192              	.LVL18:
 217:../../../../../../Drivers/STM32L0xx_HAL_Driver/Src/stm32l0xx_hal_dma.c ****   }
 193              		.loc 1 217 0
 194 00c2 4368     		ldr	r3, [r0, #4]
ARM GAS  C:\Users\EBANO_~1\AppData\Local\Temp\cc4h82Al.s 			page 9


 195 00c4 1168     		ldr	r1, [r2]
 196 00c6 1B03     		lsls	r3, r3, #12
 197 00c8 0B43     		orrs	r3, r1
 198 00ca 1360     		str	r3, [r2]
 199 00cc E4E7     		b	.L5
 200              	.LVL19:
 201              	.L16:
 206:../../../../../../Drivers/STM32L0xx_HAL_Driver/Src/stm32l0xx_hal_dma.c ****     
 202              		.loc 1 206 0
 203 00ce 184A     		ldr	r2, .L20+32
 204              	.LVL20:
 205 00d0 1A49     		ldr	r1, .L20+44
 206 00d2 1368     		ldr	r3, [r2]
 207 00d4 0B40     		ands	r3, r1
 208 00d6 1360     		str	r3, [r2]
 209              	.LVL21:
 209:../../../../../../Drivers/STM32L0xx_HAL_Driver/Src/stm32l0xx_hal_dma.c ****   }
 210              		.loc 1 209 0
 211 00d8 4368     		ldr	r3, [r0, #4]
 212 00da 1168     		ldr	r1, [r2]
 213 00dc 1B02     		lsls	r3, r3, #8
 214 00de 0B43     		orrs	r3, r1
 215 00e0 1360     		str	r3, [r2]
 216 00e2 D9E7     		b	.L5
 217              	.LVL22:
 218              	.L18:
 222:../../../../../../Drivers/STM32L0xx_HAL_Driver/Src/stm32l0xx_hal_dma.c ****     
 219              		.loc 1 222 0
 220 00e4 124A     		ldr	r2, .L20+32
 221              	.LVL23:
 222 00e6 1649     		ldr	r1, .L20+48
 223 00e8 1368     		ldr	r3, [r2]
 224 00ea 0B40     		ands	r3, r1
 225 00ec 1360     		str	r3, [r2]
 226              	.LVL24:
 225:../../../../../../Drivers/STM32L0xx_HAL_Driver/Src/stm32l0xx_hal_dma.c ****   }
 227              		.loc 1 225 0
 228 00ee 4368     		ldr	r3, [r0, #4]
 229 00f0 1168     		ldr	r1, [r2]
 230 00f2 1B04     		lsls	r3, r3, #16
 231 00f4 0B43     		orrs	r3, r1
 232 00f6 1360     		str	r3, [r2]
 233 00f8 CEE7     		b	.L5
 234              	.LVL25:
 235              	.L19:
 231:../../../../../../Drivers/STM32L0xx_HAL_Driver/Src/stm32l0xx_hal_dma.c ****     
 236              		.loc 1 231 0
 237 00fa 0D4A     		ldr	r2, .L20+32
 238              	.LVL26:
 239 00fc 1149     		ldr	r1, .L20+52
 240 00fe 1368     		ldr	r3, [r2]
 241 0100 0B40     		ands	r3, r1
 242 0102 1360     		str	r3, [r2]
 243              	.LVL27:
 234:../../../../../../Drivers/STM32L0xx_HAL_Driver/Src/stm32l0xx_hal_dma.c ****   }
 244              		.loc 1 234 0
 245 0104 4368     		ldr	r3, [r0, #4]
ARM GAS  C:\Users\EBANO_~1\AppData\Local\Temp\cc4h82Al.s 			page 10


 246 0106 1168     		ldr	r1, [r2]
 247 0108 1B05     		lsls	r3, r3, #20
 248 010a 0B43     		orrs	r3, r1
 249 010c 1360     		str	r3, [r2]
 250 010e C3E7     		b	.L5
 251              	.L21:
 252              		.align	2
 253              	.L20:
 254 0110 0FC0FFFF 		.word	-16369
 255 0114 08000240 		.word	1073872904
 256 0118 1C000240 		.word	1073872924
 257 011c 30000240 		.word	1073872944
 258 0120 44000240 		.word	1073872964
 259 0124 58000240 		.word	1073872984
 260 0128 6C000240 		.word	1073873004
 261 012c 80000240 		.word	1073873024
 262 0130 A8000240 		.word	1073873064
 263 0134 FFFFFFF0 		.word	-251658241
 264 0138 FF0FFFFF 		.word	-61441
 265 013c FFF0FFFF 		.word	-3841
 266 0140 FFFFF0FF 		.word	-983041
 267 0144 FFFF0FFF 		.word	-15728641
 268              		.cfi_endproc
 269              	.LFE39:
 270              		.size	HAL_DMA_Init, .-HAL_DMA_Init
 271              		.section	.text.HAL_DMA_DeInit,"ax",%progbits
 272              		.align	1
 273              		.p2align 2,,3
 274              		.global	HAL_DMA_DeInit
 275              		.syntax unified
 276              		.code	16
 277              		.thumb_func
 278              		.fpu softvfp
 279              		.type	HAL_DMA_DeInit, %function
 280              	HAL_DMA_DeInit:
 281              	.LFB40:
 250:../../../../../../Drivers/STM32L0xx_HAL_Driver/Src/stm32l0xx_hal_dma.c ****   
 251:../../../../../../Drivers/STM32L0xx_HAL_Driver/Src/stm32l0xx_hal_dma.c **** /**
 252:../../../../../../Drivers/STM32L0xx_HAL_Driver/Src/stm32l0xx_hal_dma.c ****   * @brief  DeInitializes the DMA peripheral 
 253:../../../../../../Drivers/STM32L0xx_HAL_Driver/Src/stm32l0xx_hal_dma.c ****   * @param  hdma pointer to a DMA_HandleTypeDef structure that contains
 254:../../../../../../Drivers/STM32L0xx_HAL_Driver/Src/stm32l0xx_hal_dma.c ****   *               the configuration information for the specified DMA Channel.  
 255:../../../../../../Drivers/STM32L0xx_HAL_Driver/Src/stm32l0xx_hal_dma.c ****   * @retval HAL status
 256:../../../../../../Drivers/STM32L0xx_HAL_Driver/Src/stm32l0xx_hal_dma.c ****   */
 257:../../../../../../Drivers/STM32L0xx_HAL_Driver/Src/stm32l0xx_hal_dma.c **** HAL_StatusTypeDef HAL_DMA_DeInit(DMA_HandleTypeDef *hdma)
 258:../../../../../../Drivers/STM32L0xx_HAL_Driver/Src/stm32l0xx_hal_dma.c **** {
 282              		.loc 1 258 0
 283              		.cfi_startproc
 284              		@ args = 0, pretend = 0, frame = 0
 285              		@ frame_needed = 0, uses_anonymous_args = 0
 286              		@ link register save eliminated.
 287              	.LVL28:
 259:../../../../../../Drivers/STM32L0xx_HAL_Driver/Src/stm32l0xx_hal_dma.c ****   /* Check the DMA peripheral state */
 260:../../../../../../Drivers/STM32L0xx_HAL_Driver/Src/stm32l0xx_hal_dma.c ****   if(hdma == NULL)
 288              		.loc 1 260 0
 289 0000 0028     		cmp	r0, #0
 290 0002 36D0     		beq	.L34
 261:../../../../../../Drivers/STM32L0xx_HAL_Driver/Src/stm32l0xx_hal_dma.c ****   {
ARM GAS  C:\Users\EBANO_~1\AppData\Local\Temp\cc4h82Al.s 			page 11


 262:../../../../../../Drivers/STM32L0xx_HAL_Driver/Src/stm32l0xx_hal_dma.c ****     return HAL_ERROR;
 263:../../../../../../Drivers/STM32L0xx_HAL_Driver/Src/stm32l0xx_hal_dma.c ****   }
 264:../../../../../../Drivers/STM32L0xx_HAL_Driver/Src/stm32l0xx_hal_dma.c ****   
 265:../../../../../../Drivers/STM32L0xx_HAL_Driver/Src/stm32l0xx_hal_dma.c ****   /* Check the DMA peripheral state */
 266:../../../../../../Drivers/STM32L0xx_HAL_Driver/Src/stm32l0xx_hal_dma.c ****   if(hdma->State == HAL_DMA_STATE_BUSY)
 291              		.loc 1 266 0
 292 0004 2523     		movs	r3, #37
 293 0006 C35C     		ldrb	r3, [r0, r3]
 294 0008 022B     		cmp	r3, #2
 295 000a 32D0     		beq	.L34
 267:../../../../../../Drivers/STM32L0xx_HAL_Driver/Src/stm32l0xx_hal_dma.c ****   {
 268:../../../../../../Drivers/STM32L0xx_HAL_Driver/Src/stm32l0xx_hal_dma.c ****     return HAL_ERROR;
 269:../../../../../../Drivers/STM32L0xx_HAL_Driver/Src/stm32l0xx_hal_dma.c ****   }
 270:../../../../../../Drivers/STM32L0xx_HAL_Driver/Src/stm32l0xx_hal_dma.c **** 
 271:../../../../../../Drivers/STM32L0xx_HAL_Driver/Src/stm32l0xx_hal_dma.c ****   /* Disable the selected DMA Channelx */
 272:../../../../../../Drivers/STM32L0xx_HAL_Driver/Src/stm32l0xx_hal_dma.c ****   __HAL_DMA_DISABLE(hdma);
 296              		.loc 1 272 0
 297 000c 0121     		movs	r1, #1
 298 000e 0368     		ldr	r3, [r0]
 299 0010 1A68     		ldr	r2, [r3]
 300 0012 8A43     		bics	r2, r1
 301 0014 1A60     		str	r2, [r3]
 273:../../../../../../Drivers/STM32L0xx_HAL_Driver/Src/stm32l0xx_hal_dma.c ****   
 274:../../../../../../Drivers/STM32L0xx_HAL_Driver/Src/stm32l0xx_hal_dma.c ****   /* Reset DMA Channel control register */
 275:../../../../../../Drivers/STM32L0xx_HAL_Driver/Src/stm32l0xx_hal_dma.c ****   hdma->Instance->CCR  = 0U;
 302              		.loc 1 275 0
 303 0016 0022     		movs	r2, #0
 304 0018 1A60     		str	r2, [r3]
 276:../../../../../../Drivers/STM32L0xx_HAL_Driver/Src/stm32l0xx_hal_dma.c ****   
 277:../../../../../../Drivers/STM32L0xx_HAL_Driver/Src/stm32l0xx_hal_dma.c ****   /* Reset DMA Channel Number of Data to Transfer register */
 278:../../../../../../Drivers/STM32L0xx_HAL_Driver/Src/stm32l0xx_hal_dma.c ****   hdma->Instance->CNDTR = 0U;
 305              		.loc 1 278 0
 306 001a 5A60     		str	r2, [r3, #4]
 279:../../../../../../Drivers/STM32L0xx_HAL_Driver/Src/stm32l0xx_hal_dma.c ****   
 280:../../../../../../Drivers/STM32L0xx_HAL_Driver/Src/stm32l0xx_hal_dma.c ****   /* Reset DMA Channel peripheral address register */
 281:../../../../../../Drivers/STM32L0xx_HAL_Driver/Src/stm32l0xx_hal_dma.c ****   hdma->Instance->CPAR  = 0U;
 307              		.loc 1 281 0
 308 001c 9A60     		str	r2, [r3, #8]
 282:../../../../../../Drivers/STM32L0xx_HAL_Driver/Src/stm32l0xx_hal_dma.c ****   
 283:../../../../../../Drivers/STM32L0xx_HAL_Driver/Src/stm32l0xx_hal_dma.c ****   /* Reset DMA Channel memory address register */
 284:../../../../../../Drivers/STM32L0xx_HAL_Driver/Src/stm32l0xx_hal_dma.c ****   hdma->Instance->CMAR = 0U;
 309              		.loc 1 284 0
 310 001e DA60     		str	r2, [r3, #12]
 285:../../../../../../Drivers/STM32L0xx_HAL_Driver/Src/stm32l0xx_hal_dma.c **** 
 286:../../../../../../Drivers/STM32L0xx_HAL_Driver/Src/stm32l0xx_hal_dma.c ****   /* Clear all flags */
 287:../../../../../../Drivers/STM32L0xx_HAL_Driver/Src/stm32l0xx_hal_dma.c ****   __HAL_DMA_CLEAR_FLAG(hdma, __HAL_DMA_GET_GI_FLAG_INDEX(hdma));
 311              		.loc 1 287 0
 312 0020 4C4A     		ldr	r2, .L38
 313 0022 9342     		cmp	r3, r2
 314 0024 27D0     		beq	.L24
 315              		.loc 1 287 0 is_stmt 0 discriminator 1
 316 0026 4C4A     		ldr	r2, .L38+4
 317 0028 9342     		cmp	r3, r2
 318 002a 4BD0     		beq	.L25
 319              		.loc 1 287 0 discriminator 3
 320 002c 4B4A     		ldr	r2, .L38+8
 321 002e 9342     		cmp	r3, r2
ARM GAS  C:\Users\EBANO_~1\AppData\Local\Temp\cc4h82Al.s 			page 12


 322 0030 36D0     		beq	.L26
 323              		.loc 1 287 0 discriminator 5
 324 0032 4B4A     		ldr	r2, .L38+12
 325 0034 9342     		cmp	r3, r2
 326 0036 54D0     		beq	.L27
 327              		.loc 1 287 0 discriminator 7
 328 0038 4A4A     		ldr	r2, .L38+16
 329 003a 9342     		cmp	r3, r2
 330 003c 64D0     		beq	.L28
 331              		.loc 1 287 0 discriminator 9
 332 003e 4A4A     		ldr	r2, .L38+20
 333 0040 9342     		cmp	r3, r2
 334 0042 00D1     		bne	.LCB292
 335 0044 73E0     		b	.L37	@long jump
 336              	.LCB292:
 337              		.loc 1 287 0
 338 0046 8021     		movs	r1, #128
 339 0048 484A     		ldr	r2, .L38+24
 340 004a 4904     		lsls	r1, r1, #17
 341 004c 5160     		str	r1, [r2, #4]
 288:../../../../../../Drivers/STM32L0xx_HAL_Driver/Src/stm32l0xx_hal_dma.c ****   __HAL_DMA_CLEAR_FLAG(hdma, __HAL_DMA_GET_TC_FLAG_INDEX(hdma));
 342              		.loc 1 288 0 is_stmt 1
 343 004e 8021     		movs	r1, #128
 344 0050 8904     		lsls	r1, r1, #18
 345 0052 5160     		str	r1, [r2, #4]
 289:../../../../../../Drivers/STM32L0xx_HAL_Driver/Src/stm32l0xx_hal_dma.c ****   __HAL_DMA_CLEAR_FLAG(hdma, __HAL_DMA_GET_TE_FLAG_INDEX(hdma));
 346              		.loc 1 289 0
 347 0054 8021     		movs	r1, #128
 348 0056 0905     		lsls	r1, r1, #20
 349 0058 5160     		str	r1, [r2, #4]
 290:../../../../../../Drivers/STM32L0xx_HAL_Driver/Src/stm32l0xx_hal_dma.c ****   __HAL_DMA_CLEAR_FLAG(hdma, __HAL_DMA_GET_HT_FLAG_INDEX(hdma));
 350              		.loc 1 290 0
 351 005a 8021     		movs	r1, #128
 352 005c C904     		lsls	r1, r1, #19
 353 005e 5160     		str	r1, [r2, #4]
 291:../../../../../../Drivers/STM32L0xx_HAL_Driver/Src/stm32l0xx_hal_dma.c ****   
 292:../../../../../../Drivers/STM32L0xx_HAL_Driver/Src/stm32l0xx_hal_dma.c ****   /* Reset DMA channel selection register */
 293:../../../../../../Drivers/STM32L0xx_HAL_Driver/Src/stm32l0xx_hal_dma.c ****   if (hdma->Instance == DMA1_Channel1)
 294:../../../../../../Drivers/STM32L0xx_HAL_Driver/Src/stm32l0xx_hal_dma.c ****   {
 295:../../../../../../Drivers/STM32L0xx_HAL_Driver/Src/stm32l0xx_hal_dma.c ****     /*Reset DMA request*/
 296:../../../../../../Drivers/STM32L0xx_HAL_Driver/Src/stm32l0xx_hal_dma.c ****     DMA1_CSELR->CSELR &= ~DMA_CSELR_C1S;
 297:../../../../../../Drivers/STM32L0xx_HAL_Driver/Src/stm32l0xx_hal_dma.c ****   }
 298:../../../../../../Drivers/STM32L0xx_HAL_Driver/Src/stm32l0xx_hal_dma.c ****   else if (hdma->Instance == DMA1_Channel2)
 299:../../../../../../Drivers/STM32L0xx_HAL_Driver/Src/stm32l0xx_hal_dma.c ****   {
 300:../../../../../../Drivers/STM32L0xx_HAL_Driver/Src/stm32l0xx_hal_dma.c ****     /*Reset DMA request*/
 301:../../../../../../Drivers/STM32L0xx_HAL_Driver/Src/stm32l0xx_hal_dma.c ****     DMA1_CSELR->CSELR &= ~DMA_CSELR_C2S;
 302:../../../../../../Drivers/STM32L0xx_HAL_Driver/Src/stm32l0xx_hal_dma.c ****   }
 303:../../../../../../Drivers/STM32L0xx_HAL_Driver/Src/stm32l0xx_hal_dma.c ****   else if (hdma->Instance == DMA1_Channel3)
 304:../../../../../../Drivers/STM32L0xx_HAL_Driver/Src/stm32l0xx_hal_dma.c ****   {
 305:../../../../../../Drivers/STM32L0xx_HAL_Driver/Src/stm32l0xx_hal_dma.c ****     /*Reset DMA request*/
 306:../../../../../../Drivers/STM32L0xx_HAL_Driver/Src/stm32l0xx_hal_dma.c ****     DMA1_CSELR->CSELR &= ~DMA_CSELR_C3S;
 307:../../../../../../Drivers/STM32L0xx_HAL_Driver/Src/stm32l0xx_hal_dma.c ****   }
 308:../../../../../../Drivers/STM32L0xx_HAL_Driver/Src/stm32l0xx_hal_dma.c ****   else if (hdma->Instance == DMA1_Channel4)
 309:../../../../../../Drivers/STM32L0xx_HAL_Driver/Src/stm32l0xx_hal_dma.c ****   {
 310:../../../../../../Drivers/STM32L0xx_HAL_Driver/Src/stm32l0xx_hal_dma.c ****     /*Reset DMA request*/
 311:../../../../../../Drivers/STM32L0xx_HAL_Driver/Src/stm32l0xx_hal_dma.c ****     DMA1_CSELR->CSELR &= ~DMA_CSELR_C4S;
 312:../../../../../../Drivers/STM32L0xx_HAL_Driver/Src/stm32l0xx_hal_dma.c ****   }
ARM GAS  C:\Users\EBANO_~1\AppData\Local\Temp\cc4h82Al.s 			page 13


 313:../../../../../../Drivers/STM32L0xx_HAL_Driver/Src/stm32l0xx_hal_dma.c ****   else if (hdma->Instance == DMA1_Channel5)
 314:../../../../../../Drivers/STM32L0xx_HAL_Driver/Src/stm32l0xx_hal_dma.c ****   {
 315:../../../../../../Drivers/STM32L0xx_HAL_Driver/Src/stm32l0xx_hal_dma.c ****     /*Reset DMA request*/
 316:../../../../../../Drivers/STM32L0xx_HAL_Driver/Src/stm32l0xx_hal_dma.c ****     DMA1_CSELR->CSELR &= ~DMA_CSELR_C5S;
 317:../../../../../../Drivers/STM32L0xx_HAL_Driver/Src/stm32l0xx_hal_dma.c ****   }
 318:../../../../../../Drivers/STM32L0xx_HAL_Driver/Src/stm32l0xx_hal_dma.c **** #if !defined (STM32L010x4) && !defined (STM32L011xx) && !defined (STM32L021xx)
 319:../../../../../../Drivers/STM32L0xx_HAL_Driver/Src/stm32l0xx_hal_dma.c ****   else if (hdma->Instance == DMA1_Channel6)
 320:../../../../../../Drivers/STM32L0xx_HAL_Driver/Src/stm32l0xx_hal_dma.c ****   {
 321:../../../../../../Drivers/STM32L0xx_HAL_Driver/Src/stm32l0xx_hal_dma.c ****     /*Reset DMA request*/
 322:../../../../../../Drivers/STM32L0xx_HAL_Driver/Src/stm32l0xx_hal_dma.c ****     DMA1_CSELR->CSELR &= ~DMA_CSELR_C6S;
 323:../../../../../../Drivers/STM32L0xx_HAL_Driver/Src/stm32l0xx_hal_dma.c ****   }
 324:../../../../../../Drivers/STM32L0xx_HAL_Driver/Src/stm32l0xx_hal_dma.c ****   else if (hdma->Instance == DMA1_Channel7)
 354              		.loc 1 324 0
 355 0060 434A     		ldr	r2, .L38+28
 356 0062 9342     		cmp	r3, r2
 357 0064 14D1     		bne	.L31
 325:../../../../../../Drivers/STM32L0xx_HAL_Driver/Src/stm32l0xx_hal_dma.c ****   {
 326:../../../../../../Drivers/STM32L0xx_HAL_Driver/Src/stm32l0xx_hal_dma.c ****     /*Reset DMA request*/
 327:../../../../../../Drivers/STM32L0xx_HAL_Driver/Src/stm32l0xx_hal_dma.c ****     DMA1_CSELR->CSELR &= ~DMA_CSELR_C7S;
 358              		.loc 1 327 0
 359 0066 434A     		ldr	r2, .L38+32
 360 0068 4349     		ldr	r1, .L38+36
 361 006a 1368     		ldr	r3, [r2]
 362 006c 0B40     		ands	r3, r1
 363 006e 1360     		str	r3, [r2]
 364 0070 0EE0     		b	.L31
 365              	.L34:
 262:../../../../../../Drivers/STM32L0xx_HAL_Driver/Src/stm32l0xx_hal_dma.c ****   }
 366              		.loc 1 262 0
 367 0072 0120     		movs	r0, #1
 368              	.LVL29:
 369              	.L36:
 328:../../../../../../Drivers/STM32L0xx_HAL_Driver/Src/stm32l0xx_hal_dma.c ****   }
 329:../../../../../../Drivers/STM32L0xx_HAL_Driver/Src/stm32l0xx_hal_dma.c **** #endif  
 330:../../../../../../Drivers/STM32L0xx_HAL_Driver/Src/stm32l0xx_hal_dma.c ****   /* Initialise the error code */
 331:../../../../../../Drivers/STM32L0xx_HAL_Driver/Src/stm32l0xx_hal_dma.c ****   hdma->ErrorCode = HAL_DMA_ERROR_NONE;
 332:../../../../../../Drivers/STM32L0xx_HAL_Driver/Src/stm32l0xx_hal_dma.c **** 
 333:../../../../../../Drivers/STM32L0xx_HAL_Driver/Src/stm32l0xx_hal_dma.c ****   /* Initialize the DMA state */
 334:../../../../../../Drivers/STM32L0xx_HAL_Driver/Src/stm32l0xx_hal_dma.c ****   hdma->State = HAL_DMA_STATE_RESET;
 335:../../../../../../Drivers/STM32L0xx_HAL_Driver/Src/stm32l0xx_hal_dma.c ****   
 336:../../../../../../Drivers/STM32L0xx_HAL_Driver/Src/stm32l0xx_hal_dma.c ****   /* Release Lock */
 337:../../../../../../Drivers/STM32L0xx_HAL_Driver/Src/stm32l0xx_hal_dma.c ****   __HAL_UNLOCK(hdma);
 338:../../../../../../Drivers/STM32L0xx_HAL_Driver/Src/stm32l0xx_hal_dma.c **** 
 339:../../../../../../Drivers/STM32L0xx_HAL_Driver/Src/stm32l0xx_hal_dma.c ****   return HAL_OK;
 340:../../../../../../Drivers/STM32L0xx_HAL_Driver/Src/stm32l0xx_hal_dma.c **** }
 370              		.loc 1 340 0
 371              		@ sp needed
 372 0074 7047     		bx	lr
 373              	.LVL30:
 374              	.L24:
 288:../../../../../../Drivers/STM32L0xx_HAL_Driver/Src/stm32l0xx_hal_dma.c ****   __HAL_DMA_CLEAR_FLAG(hdma, __HAL_DMA_GET_TE_FLAG_INDEX(hdma));
 375              		.loc 1 288 0
 376 0076 0222     		movs	r2, #2
 287:../../../../../../Drivers/STM32L0xx_HAL_Driver/Src/stm32l0xx_hal_dma.c ****   __HAL_DMA_CLEAR_FLAG(hdma, __HAL_DMA_GET_TC_FLAG_INDEX(hdma));
 377              		.loc 1 287 0
 378 0078 3C4B     		ldr	r3, .L38+24
 379 007a 5960     		str	r1, [r3, #4]
ARM GAS  C:\Users\EBANO_~1\AppData\Local\Temp\cc4h82Al.s 			page 14


 296:../../../../../../Drivers/STM32L0xx_HAL_Driver/Src/stm32l0xx_hal_dma.c ****   }
 380              		.loc 1 296 0
 381 007c 0F21     		movs	r1, #15
 288:../../../../../../Drivers/STM32L0xx_HAL_Driver/Src/stm32l0xx_hal_dma.c ****   __HAL_DMA_CLEAR_FLAG(hdma, __HAL_DMA_GET_TE_FLAG_INDEX(hdma));
 382              		.loc 1 288 0
 383 007e 5A60     		str	r2, [r3, #4]
 289:../../../../../../Drivers/STM32L0xx_HAL_Driver/Src/stm32l0xx_hal_dma.c ****   __HAL_DMA_CLEAR_FLAG(hdma, __HAL_DMA_GET_HT_FLAG_INDEX(hdma));
 384              		.loc 1 289 0
 385 0080 0632     		adds	r2, r2, #6
 386 0082 5A60     		str	r2, [r3, #4]
 290:../../../../../../Drivers/STM32L0xx_HAL_Driver/Src/stm32l0xx_hal_dma.c ****   
 387              		.loc 1 290 0
 388 0084 043A     		subs	r2, r2, #4
 389 0086 5A60     		str	r2, [r3, #4]
 296:../../../../../../Drivers/STM32L0xx_HAL_Driver/Src/stm32l0xx_hal_dma.c ****   }
 390              		.loc 1 296 0
 391 0088 3A4A     		ldr	r2, .L38+32
 392 008a 1368     		ldr	r3, [r2]
 393 008c 8B43     		bics	r3, r1
 394 008e 1360     		str	r3, [r2]
 395              	.L31:
 331:../../../../../../Drivers/STM32L0xx_HAL_Driver/Src/stm32l0xx_hal_dma.c **** 
 396              		.loc 1 331 0
 397 0090 0023     		movs	r3, #0
 334:../../../../../../Drivers/STM32L0xx_HAL_Driver/Src/stm32l0xx_hal_dma.c ****   
 398              		.loc 1 334 0
 399 0092 2522     		movs	r2, #37
 331:../../../../../../Drivers/STM32L0xx_HAL_Driver/Src/stm32l0xx_hal_dma.c **** 
 400              		.loc 1 331 0
 401 0094 C363     		str	r3, [r0, #60]
 334:../../../../../../Drivers/STM32L0xx_HAL_Driver/Src/stm32l0xx_hal_dma.c ****   
 402              		.loc 1 334 0
 403 0096 8354     		strb	r3, [r0, r2]
 337:../../../../../../Drivers/STM32L0xx_HAL_Driver/Src/stm32l0xx_hal_dma.c **** 
 404              		.loc 1 337 0
 405 0098 013A     		subs	r2, r2, #1
 406 009a 8354     		strb	r3, [r0, r2]
 339:../../../../../../Drivers/STM32L0xx_HAL_Driver/Src/stm32l0xx_hal_dma.c **** }
 407              		.loc 1 339 0
 408 009c 0020     		movs	r0, #0
 409              	.LVL31:
 410 009e E9E7     		b	.L36
 411              	.LVL32:
 412              	.L26:
 287:../../../../../../Drivers/STM32L0xx_HAL_Driver/Src/stm32l0xx_hal_dma.c ****   __HAL_DMA_CLEAR_FLAG(hdma, __HAL_DMA_GET_TC_FLAG_INDEX(hdma));
 413              		.loc 1 287 0
 414 00a0 8022     		movs	r2, #128
 415 00a2 324B     		ldr	r3, .L38+24
 416 00a4 5200     		lsls	r2, r2, #1
 417 00a6 5A60     		str	r2, [r3, #4]
 288:../../../../../../Drivers/STM32L0xx_HAL_Driver/Src/stm32l0xx_hal_dma.c ****   __HAL_DMA_CLEAR_FLAG(hdma, __HAL_DMA_GET_TE_FLAG_INDEX(hdma));
 418              		.loc 1 288 0
 419 00a8 9218     		adds	r2, r2, r2
 420 00aa 5A60     		str	r2, [r3, #4]
 289:../../../../../../Drivers/STM32L0xx_HAL_Driver/Src/stm32l0xx_hal_dma.c ****   __HAL_DMA_CLEAR_FLAG(hdma, __HAL_DMA_GET_HT_FLAG_INDEX(hdma));
 421              		.loc 1 289 0
 422 00ac 8022     		movs	r2, #128
ARM GAS  C:\Users\EBANO_~1\AppData\Local\Temp\cc4h82Al.s 			page 15


 423 00ae 1201     		lsls	r2, r2, #4
 424 00b0 5A60     		str	r2, [r3, #4]
 290:../../../../../../Drivers/STM32L0xx_HAL_Driver/Src/stm32l0xx_hal_dma.c ****   
 425              		.loc 1 290 0
 426 00b2 8022     		movs	r2, #128
 427 00b4 D200     		lsls	r2, r2, #3
 428 00b6 5A60     		str	r2, [r3, #4]
 306:../../../../../../Drivers/STM32L0xx_HAL_Driver/Src/stm32l0xx_hal_dma.c ****   }
 429              		.loc 1 306 0
 430 00b8 2E4A     		ldr	r2, .L38+32
 431 00ba 3049     		ldr	r1, .L38+40
 432 00bc 1368     		ldr	r3, [r2]
 433 00be 0B40     		ands	r3, r1
 434 00c0 1360     		str	r3, [r2]
 435 00c2 E5E7     		b	.L31
 436              	.L25:
 287:../../../../../../Drivers/STM32L0xx_HAL_Driver/Src/stm32l0xx_hal_dma.c ****   __HAL_DMA_CLEAR_FLAG(hdma, __HAL_DMA_GET_TC_FLAG_INDEX(hdma));
 437              		.loc 1 287 0
 438 00c4 1022     		movs	r2, #16
 301:../../../../../../Drivers/STM32L0xx_HAL_Driver/Src/stm32l0xx_hal_dma.c ****   }
 439              		.loc 1 301 0
 440 00c6 F021     		movs	r1, #240
 287:../../../../../../Drivers/STM32L0xx_HAL_Driver/Src/stm32l0xx_hal_dma.c ****   __HAL_DMA_CLEAR_FLAG(hdma, __HAL_DMA_GET_TC_FLAG_INDEX(hdma));
 441              		.loc 1 287 0
 442 00c8 284B     		ldr	r3, .L38+24
 443 00ca 5A60     		str	r2, [r3, #4]
 288:../../../../../../Drivers/STM32L0xx_HAL_Driver/Src/stm32l0xx_hal_dma.c ****   __HAL_DMA_CLEAR_FLAG(hdma, __HAL_DMA_GET_TE_FLAG_INDEX(hdma));
 444              		.loc 1 288 0
 445 00cc 1032     		adds	r2, r2, #16
 446 00ce 5A60     		str	r2, [r3, #4]
 289:../../../../../../Drivers/STM32L0xx_HAL_Driver/Src/stm32l0xx_hal_dma.c ****   __HAL_DMA_CLEAR_FLAG(hdma, __HAL_DMA_GET_HT_FLAG_INDEX(hdma));
 447              		.loc 1 289 0
 448 00d0 6032     		adds	r2, r2, #96
 449 00d2 5A60     		str	r2, [r3, #4]
 290:../../../../../../Drivers/STM32L0xx_HAL_Driver/Src/stm32l0xx_hal_dma.c ****   
 450              		.loc 1 290 0
 451 00d4 403A     		subs	r2, r2, #64
 452 00d6 5A60     		str	r2, [r3, #4]
 301:../../../../../../Drivers/STM32L0xx_HAL_Driver/Src/stm32l0xx_hal_dma.c ****   }
 453              		.loc 1 301 0
 454 00d8 264A     		ldr	r2, .L38+32
 455 00da 1368     		ldr	r3, [r2]
 456 00dc 8B43     		bics	r3, r1
 457 00de 1360     		str	r3, [r2]
 458 00e0 D6E7     		b	.L31
 459              	.L27:
 287:../../../../../../Drivers/STM32L0xx_HAL_Driver/Src/stm32l0xx_hal_dma.c ****   __HAL_DMA_CLEAR_FLAG(hdma, __HAL_DMA_GET_TC_FLAG_INDEX(hdma));
 460              		.loc 1 287 0
 461 00e2 8022     		movs	r2, #128
 462 00e4 214B     		ldr	r3, .L38+24
 463 00e6 5201     		lsls	r2, r2, #5
 464 00e8 5A60     		str	r2, [r3, #4]
 288:../../../../../../Drivers/STM32L0xx_HAL_Driver/Src/stm32l0xx_hal_dma.c ****   __HAL_DMA_CLEAR_FLAG(hdma, __HAL_DMA_GET_TE_FLAG_INDEX(hdma));
 465              		.loc 1 288 0
 466 00ea 8022     		movs	r2, #128
 467 00ec 9201     		lsls	r2, r2, #6
 468 00ee 5A60     		str	r2, [r3, #4]
ARM GAS  C:\Users\EBANO_~1\AppData\Local\Temp\cc4h82Al.s 			page 16


 289:../../../../../../Drivers/STM32L0xx_HAL_Driver/Src/stm32l0xx_hal_dma.c ****   __HAL_DMA_CLEAR_FLAG(hdma, __HAL_DMA_GET_HT_FLAG_INDEX(hdma));
 469              		.loc 1 289 0
 470 00f0 8022     		movs	r2, #128
 471 00f2 1202     		lsls	r2, r2, #8
 472 00f4 5A60     		str	r2, [r3, #4]
 290:../../../../../../Drivers/STM32L0xx_HAL_Driver/Src/stm32l0xx_hal_dma.c ****   
 473              		.loc 1 290 0
 474 00f6 8022     		movs	r2, #128
 475 00f8 D201     		lsls	r2, r2, #7
 476 00fa 5A60     		str	r2, [r3, #4]
 311:../../../../../../Drivers/STM32L0xx_HAL_Driver/Src/stm32l0xx_hal_dma.c ****   }
 477              		.loc 1 311 0
 478 00fc 1D4A     		ldr	r2, .L38+32
 479 00fe 2049     		ldr	r1, .L38+44
 480 0100 1368     		ldr	r3, [r2]
 481 0102 0B40     		ands	r3, r1
 482 0104 1360     		str	r3, [r2]
 483 0106 C3E7     		b	.L31
 484              	.L28:
 287:../../../../../../Drivers/STM32L0xx_HAL_Driver/Src/stm32l0xx_hal_dma.c ****   __HAL_DMA_CLEAR_FLAG(hdma, __HAL_DMA_GET_TC_FLAG_INDEX(hdma));
 485              		.loc 1 287 0
 486 0108 8022     		movs	r2, #128
 487 010a 184B     		ldr	r3, .L38+24
 488 010c 5202     		lsls	r2, r2, #9
 489 010e 5A60     		str	r2, [r3, #4]
 288:../../../../../../Drivers/STM32L0xx_HAL_Driver/Src/stm32l0xx_hal_dma.c ****   __HAL_DMA_CLEAR_FLAG(hdma, __HAL_DMA_GET_TE_FLAG_INDEX(hdma));
 490              		.loc 1 288 0
 491 0110 8022     		movs	r2, #128
 492 0112 9202     		lsls	r2, r2, #10
 493 0114 5A60     		str	r2, [r3, #4]
 289:../../../../../../Drivers/STM32L0xx_HAL_Driver/Src/stm32l0xx_hal_dma.c ****   __HAL_DMA_CLEAR_FLAG(hdma, __HAL_DMA_GET_HT_FLAG_INDEX(hdma));
 494              		.loc 1 289 0
 495 0116 8022     		movs	r2, #128
 496 0118 1203     		lsls	r2, r2, #12
 497 011a 5A60     		str	r2, [r3, #4]
 290:../../../../../../Drivers/STM32L0xx_HAL_Driver/Src/stm32l0xx_hal_dma.c ****   
 498              		.loc 1 290 0
 499 011c 8022     		movs	r2, #128
 500 011e D202     		lsls	r2, r2, #11
 501 0120 5A60     		str	r2, [r3, #4]
 316:../../../../../../Drivers/STM32L0xx_HAL_Driver/Src/stm32l0xx_hal_dma.c ****   }
 502              		.loc 1 316 0
 503 0122 144A     		ldr	r2, .L38+32
 504 0124 1749     		ldr	r1, .L38+48
 505 0126 1368     		ldr	r3, [r2]
 506 0128 0B40     		ands	r3, r1
 507 012a 1360     		str	r3, [r2]
 508 012c B0E7     		b	.L31
 509              	.L37:
 287:../../../../../../Drivers/STM32L0xx_HAL_Driver/Src/stm32l0xx_hal_dma.c ****   __HAL_DMA_CLEAR_FLAG(hdma, __HAL_DMA_GET_TC_FLAG_INDEX(hdma));
 510              		.loc 1 287 0
 511 012e 8022     		movs	r2, #128
 512 0130 0E4B     		ldr	r3, .L38+24
 513 0132 5203     		lsls	r2, r2, #13
 514 0134 5A60     		str	r2, [r3, #4]
 288:../../../../../../Drivers/STM32L0xx_HAL_Driver/Src/stm32l0xx_hal_dma.c ****   __HAL_DMA_CLEAR_FLAG(hdma, __HAL_DMA_GET_TE_FLAG_INDEX(hdma));
 515              		.loc 1 288 0
ARM GAS  C:\Users\EBANO_~1\AppData\Local\Temp\cc4h82Al.s 			page 17


 516 0136 8022     		movs	r2, #128
 517 0138 9203     		lsls	r2, r2, #14
 518 013a 5A60     		str	r2, [r3, #4]
 289:../../../../../../Drivers/STM32L0xx_HAL_Driver/Src/stm32l0xx_hal_dma.c ****   __HAL_DMA_CLEAR_FLAG(hdma, __HAL_DMA_GET_HT_FLAG_INDEX(hdma));
 519              		.loc 1 289 0
 520 013c 8022     		movs	r2, #128
 521 013e 1204     		lsls	r2, r2, #16
 522 0140 5A60     		str	r2, [r3, #4]
 290:../../../../../../Drivers/STM32L0xx_HAL_Driver/Src/stm32l0xx_hal_dma.c ****   
 523              		.loc 1 290 0
 524 0142 8022     		movs	r2, #128
 525 0144 D203     		lsls	r2, r2, #15
 526 0146 5A60     		str	r2, [r3, #4]
 322:../../../../../../Drivers/STM32L0xx_HAL_Driver/Src/stm32l0xx_hal_dma.c ****   }
 527              		.loc 1 322 0
 528 0148 0A4A     		ldr	r2, .L38+32
 529 014a 0F49     		ldr	r1, .L38+52
 530 014c 1368     		ldr	r3, [r2]
 531 014e 0B40     		ands	r3, r1
 532 0150 1360     		str	r3, [r2]
 533 0152 9DE7     		b	.L31
 534              	.L39:
 535              		.align	2
 536              	.L38:
 537 0154 08000240 		.word	1073872904
 538 0158 1C000240 		.word	1073872924
 539 015c 30000240 		.word	1073872944
 540 0160 44000240 		.word	1073872964
 541 0164 58000240 		.word	1073872984
 542 0168 6C000240 		.word	1073873004
 543 016c 00000240 		.word	1073872896
 544 0170 80000240 		.word	1073873024
 545 0174 A8000240 		.word	1073873064
 546 0178 FFFFFFF0 		.word	-251658241
 547 017c FFF0FFFF 		.word	-3841
 548 0180 FF0FFFFF 		.word	-61441
 549 0184 FFFFF0FF 		.word	-983041
 550 0188 FFFF0FFF 		.word	-15728641
 551              		.cfi_endproc
 552              	.LFE40:
 553              		.size	HAL_DMA_DeInit, .-HAL_DMA_DeInit
 554              		.section	.text.HAL_DMA_Start,"ax",%progbits
 555              		.align	1
 556              		.p2align 2,,3
 557              		.global	HAL_DMA_Start
 558              		.syntax unified
 559              		.code	16
 560              		.thumb_func
 561              		.fpu softvfp
 562              		.type	HAL_DMA_Start, %function
 563              	HAL_DMA_Start:
 564              	.LFB41:
 341:../../../../../../Drivers/STM32L0xx_HAL_Driver/Src/stm32l0xx_hal_dma.c **** 
 342:../../../../../../Drivers/STM32L0xx_HAL_Driver/Src/stm32l0xx_hal_dma.c **** /**
 343:../../../../../../Drivers/STM32L0xx_HAL_Driver/Src/stm32l0xx_hal_dma.c ****   * @}
 344:../../../../../../Drivers/STM32L0xx_HAL_Driver/Src/stm32l0xx_hal_dma.c ****   */
 345:../../../../../../Drivers/STM32L0xx_HAL_Driver/Src/stm32l0xx_hal_dma.c **** 
ARM GAS  C:\Users\EBANO_~1\AppData\Local\Temp\cc4h82Al.s 			page 18


 346:../../../../../../Drivers/STM32L0xx_HAL_Driver/Src/stm32l0xx_hal_dma.c **** /** @addtogroup DMA_Exported_Functions_Group2  
 347:../../../../../../Drivers/STM32L0xx_HAL_Driver/Src/stm32l0xx_hal_dma.c ****  *  @brief   I/O operation functions  
 348:../../../../../../Drivers/STM32L0xx_HAL_Driver/Src/stm32l0xx_hal_dma.c ****  *
 349:../../../../../../Drivers/STM32L0xx_HAL_Driver/Src/stm32l0xx_hal_dma.c **** @verbatim   
 350:../../../../../../Drivers/STM32L0xx_HAL_Driver/Src/stm32l0xx_hal_dma.c ****  ===============================================================================
 351:../../../../../../Drivers/STM32L0xx_HAL_Driver/Src/stm32l0xx_hal_dma.c ****                       #####  IO operation functions  #####
 352:../../../../../../Drivers/STM32L0xx_HAL_Driver/Src/stm32l0xx_hal_dma.c ****  ===============================================================================  
 353:../../../../../../Drivers/STM32L0xx_HAL_Driver/Src/stm32l0xx_hal_dma.c ****     [..]  This section provides functions allowing to:
 354:../../../../../../Drivers/STM32L0xx_HAL_Driver/Src/stm32l0xx_hal_dma.c ****       (+) Configure the source, destination address and data length and Start DMA transfer
 355:../../../../../../Drivers/STM32L0xx_HAL_Driver/Src/stm32l0xx_hal_dma.c ****       (+) Configure the source, destination address and data length and 
 356:../../../../../../Drivers/STM32L0xx_HAL_Driver/Src/stm32l0xx_hal_dma.c ****           Start DMA transfer with interrupt
 357:../../../../../../Drivers/STM32L0xx_HAL_Driver/Src/stm32l0xx_hal_dma.c ****       (+) Abort DMA transfer
 358:../../../../../../Drivers/STM32L0xx_HAL_Driver/Src/stm32l0xx_hal_dma.c ****       (+) Poll for transfer complete
 359:../../../../../../Drivers/STM32L0xx_HAL_Driver/Src/stm32l0xx_hal_dma.c ****       (+) Handle DMA interrupt request  
 360:../../../../../../Drivers/STM32L0xx_HAL_Driver/Src/stm32l0xx_hal_dma.c **** 
 361:../../../../../../Drivers/STM32L0xx_HAL_Driver/Src/stm32l0xx_hal_dma.c **** @endverbatim
 362:../../../../../../Drivers/STM32L0xx_HAL_Driver/Src/stm32l0xx_hal_dma.c ****   * @{
 363:../../../../../../Drivers/STM32L0xx_HAL_Driver/Src/stm32l0xx_hal_dma.c ****   */
 364:../../../../../../Drivers/STM32L0xx_HAL_Driver/Src/stm32l0xx_hal_dma.c **** 
 365:../../../../../../Drivers/STM32L0xx_HAL_Driver/Src/stm32l0xx_hal_dma.c **** /**
 366:../../../../../../Drivers/STM32L0xx_HAL_Driver/Src/stm32l0xx_hal_dma.c ****   * @brief  Starts the DMA Transfer.
 367:../../../../../../Drivers/STM32L0xx_HAL_Driver/Src/stm32l0xx_hal_dma.c ****   * @param  hdma       pointer to a DMA_HandleTypeDef structure that contains
 368:../../../../../../Drivers/STM32L0xx_HAL_Driver/Src/stm32l0xx_hal_dma.c ****   *                     the configuration information for the specified DMA Channel.  
 369:../../../../../../Drivers/STM32L0xx_HAL_Driver/Src/stm32l0xx_hal_dma.c ****   * @param  SrcAddress The source memory Buffer address
 370:../../../../../../Drivers/STM32L0xx_HAL_Driver/Src/stm32l0xx_hal_dma.c ****   * @param  DstAddress The destination memory Buffer address
 371:../../../../../../Drivers/STM32L0xx_HAL_Driver/Src/stm32l0xx_hal_dma.c ****   * @param  DataLength The length of data to be transferred from source to destination
 372:../../../../../../Drivers/STM32L0xx_HAL_Driver/Src/stm32l0xx_hal_dma.c ****   * @retval HAL status
 373:../../../../../../Drivers/STM32L0xx_HAL_Driver/Src/stm32l0xx_hal_dma.c ****   */
 374:../../../../../../Drivers/STM32L0xx_HAL_Driver/Src/stm32l0xx_hal_dma.c **** HAL_StatusTypeDef HAL_DMA_Start(DMA_HandleTypeDef *hdma, uint32_t SrcAddress, uint32_t DstAddress, 
 375:../../../../../../Drivers/STM32L0xx_HAL_Driver/Src/stm32l0xx_hal_dma.c **** { 
 565              		.loc 1 375 0
 566              		.cfi_startproc
 567              		@ args = 0, pretend = 0, frame = 0
 568              		@ frame_needed = 0, uses_anonymous_args = 0
 569              	.LVL33:
 570 0000 70B5     		push	{r4, r5, r6, lr}
 571              	.LCFI1:
 572              		.cfi_def_cfa_offset 16
 573              		.cfi_offset 4, -16
 574              		.cfi_offset 5, -12
 575              		.cfi_offset 6, -8
 576              		.cfi_offset 14, -4
 376:../../../../../../Drivers/STM32L0xx_HAL_Driver/Src/stm32l0xx_hal_dma.c ****   /* Process locked */
 377:../../../../../../Drivers/STM32L0xx_HAL_Driver/Src/stm32l0xx_hal_dma.c ****   __HAL_LOCK(hdma);  
 577              		.loc 1 377 0
 578 0002 2424     		movs	r4, #36
 579 0004 055D     		ldrb	r5, [r0, r4]
 580 0006 012D     		cmp	r5, #1
 581 0008 17D0     		beq	.L44
 582              		.loc 1 377 0 is_stmt 0 discriminator 2
 583 000a 0126     		movs	r6, #1
 378:../../../../../../Drivers/STM32L0xx_HAL_Driver/Src/stm32l0xx_hal_dma.c **** 
 379:../../../../../../Drivers/STM32L0xx_HAL_Driver/Src/stm32l0xx_hal_dma.c ****   /* Change DMA peripheral state */  
 380:../../../../../../Drivers/STM32L0xx_HAL_Driver/Src/stm32l0xx_hal_dma.c ****   hdma->State = HAL_DMA_STATE_BUSY;  
 584              		.loc 1 380 0 is_stmt 1 discriminator 2
 585 000c 0225     		movs	r5, #2
 377:../../../../../../Drivers/STM32L0xx_HAL_Driver/Src/stm32l0xx_hal_dma.c **** 
ARM GAS  C:\Users\EBANO_~1\AppData\Local\Temp\cc4h82Al.s 			page 19


 586              		.loc 1 377 0 discriminator 2
 587 000e 0655     		strb	r6, [r0, r4]
 588              		.loc 1 380 0 discriminator 2
 589 0010 0134     		adds	r4, r4, #1
 590 0012 0555     		strb	r5, [r0, r4]
 381:../../../../../../Drivers/STM32L0xx_HAL_Driver/Src/stm32l0xx_hal_dma.c **** 
 382:../../../../../../Drivers/STM32L0xx_HAL_Driver/Src/stm32l0xx_hal_dma.c ****    /* Check the parameters */
 383:../../../../../../Drivers/STM32L0xx_HAL_Driver/Src/stm32l0xx_hal_dma.c ****   assert_param(IS_DMA_BUFFER_SIZE(DataLength));
 384:../../../../../../Drivers/STM32L0xx_HAL_Driver/Src/stm32l0xx_hal_dma.c ****   
 385:../../../../../../Drivers/STM32L0xx_HAL_Driver/Src/stm32l0xx_hal_dma.c ****   /* Disable the peripheral */
 386:../../../../../../Drivers/STM32L0xx_HAL_Driver/Src/stm32l0xx_hal_dma.c ****   __HAL_DMA_DISABLE(hdma);  
 591              		.loc 1 386 0 discriminator 2
 592 0014 0468     		ldr	r4, [r0]
 593 0016 2568     		ldr	r5, [r4]
 594 0018 B543     		bics	r5, r6
 595 001a 2560     		str	r5, [r4]
 596              	.LVL34:
 597              	.LBB6:
 598              	.LBB7:
 387:../../../../../../Drivers/STM32L0xx_HAL_Driver/Src/stm32l0xx_hal_dma.c ****   
 388:../../../../../../Drivers/STM32L0xx_HAL_Driver/Src/stm32l0xx_hal_dma.c ****   /* Configure the source, destination address and the data length */
 389:../../../../../../Drivers/STM32L0xx_HAL_Driver/Src/stm32l0xx_hal_dma.c ****   DMA_SetConfig(hdma, SrcAddress, DstAddress, DataLength);
 390:../../../../../../Drivers/STM32L0xx_HAL_Driver/Src/stm32l0xx_hal_dma.c **** 
 391:../../../../../../Drivers/STM32L0xx_HAL_Driver/Src/stm32l0xx_hal_dma.c ****   /* Enable the Peripheral */
 392:../../../../../../Drivers/STM32L0xx_HAL_Driver/Src/stm32l0xx_hal_dma.c ****   __HAL_DMA_ENABLE(hdma);  
 393:../../../../../../Drivers/STM32L0xx_HAL_Driver/Src/stm32l0xx_hal_dma.c **** 
 394:../../../../../../Drivers/STM32L0xx_HAL_Driver/Src/stm32l0xx_hal_dma.c ****   return HAL_OK; 
 395:../../../../../../Drivers/STM32L0xx_HAL_Driver/Src/stm32l0xx_hal_dma.c **** } 
 396:../../../../../../Drivers/STM32L0xx_HAL_Driver/Src/stm32l0xx_hal_dma.c **** 
 397:../../../../../../Drivers/STM32L0xx_HAL_Driver/Src/stm32l0xx_hal_dma.c **** /**
 398:../../../../../../Drivers/STM32L0xx_HAL_Driver/Src/stm32l0xx_hal_dma.c ****   * @brief  Start the DMA Transfer with interrupt enabled.
 399:../../../../../../Drivers/STM32L0xx_HAL_Driver/Src/stm32l0xx_hal_dma.c ****   * @param  hdma       pointer to a DMA_HandleTypeDef structure that contains
 400:../../../../../../Drivers/STM32L0xx_HAL_Driver/Src/stm32l0xx_hal_dma.c ****   *                     the configuration information for the specified DMA Channel.  
 401:../../../../../../Drivers/STM32L0xx_HAL_Driver/Src/stm32l0xx_hal_dma.c ****   * @param  SrcAddress The source memory Buffer address
 402:../../../../../../Drivers/STM32L0xx_HAL_Driver/Src/stm32l0xx_hal_dma.c ****   * @param  DstAddress The destination memory Buffer address
 403:../../../../../../Drivers/STM32L0xx_HAL_Driver/Src/stm32l0xx_hal_dma.c ****   * @param  DataLength The length of data to be transferred from source to destination
 404:../../../../../../Drivers/STM32L0xx_HAL_Driver/Src/stm32l0xx_hal_dma.c ****   * @retval HAL status
 405:../../../../../../Drivers/STM32L0xx_HAL_Driver/Src/stm32l0xx_hal_dma.c ****   */
 406:../../../../../../Drivers/STM32L0xx_HAL_Driver/Src/stm32l0xx_hal_dma.c **** HAL_StatusTypeDef HAL_DMA_Start_IT(DMA_HandleTypeDef *hdma, uint32_t SrcAddress, uint32_t DstAddres
 407:../../../../../../Drivers/STM32L0xx_HAL_Driver/Src/stm32l0xx_hal_dma.c **** {
 408:../../../../../../Drivers/STM32L0xx_HAL_Driver/Src/stm32l0xx_hal_dma.c ****   /* Process locked */
 409:../../../../../../Drivers/STM32L0xx_HAL_Driver/Src/stm32l0xx_hal_dma.c ****   __HAL_LOCK(hdma);
 410:../../../../../../Drivers/STM32L0xx_HAL_Driver/Src/stm32l0xx_hal_dma.c **** 
 411:../../../../../../Drivers/STM32L0xx_HAL_Driver/Src/stm32l0xx_hal_dma.c ****   /* Change DMA peripheral state */  
 412:../../../../../../Drivers/STM32L0xx_HAL_Driver/Src/stm32l0xx_hal_dma.c ****   hdma->State = HAL_DMA_STATE_BUSY;  
 413:../../../../../../Drivers/STM32L0xx_HAL_Driver/Src/stm32l0xx_hal_dma.c **** 
 414:../../../../../../Drivers/STM32L0xx_HAL_Driver/Src/stm32l0xx_hal_dma.c ****    /* Check the parameters */
 415:../../../../../../Drivers/STM32L0xx_HAL_Driver/Src/stm32l0xx_hal_dma.c ****   assert_param(IS_DMA_BUFFER_SIZE(DataLength));
 416:../../../../../../Drivers/STM32L0xx_HAL_Driver/Src/stm32l0xx_hal_dma.c ****   
 417:../../../../../../Drivers/STM32L0xx_HAL_Driver/Src/stm32l0xx_hal_dma.c ****   /* Disable the peripheral */
 418:../../../../../../Drivers/STM32L0xx_HAL_Driver/Src/stm32l0xx_hal_dma.c ****   __HAL_DMA_DISABLE(hdma);
 419:../../../../../../Drivers/STM32L0xx_HAL_Driver/Src/stm32l0xx_hal_dma.c ****   
 420:../../../../../../Drivers/STM32L0xx_HAL_Driver/Src/stm32l0xx_hal_dma.c ****   /* Configure the source, destination address and the data length */  
 421:../../../../../../Drivers/STM32L0xx_HAL_Driver/Src/stm32l0xx_hal_dma.c ****   DMA_SetConfig(hdma, SrcAddress, DstAddress, DataLength);
 422:../../../../../../Drivers/STM32L0xx_HAL_Driver/Src/stm32l0xx_hal_dma.c ****   
 423:../../../../../../Drivers/STM32L0xx_HAL_Driver/Src/stm32l0xx_hal_dma.c ****   /* Enable the transfer complete interrupt */
 424:../../../../../../Drivers/STM32L0xx_HAL_Driver/Src/stm32l0xx_hal_dma.c ****   __HAL_DMA_ENABLE_IT(hdma, DMA_IT_TC);
ARM GAS  C:\Users\EBANO_~1\AppData\Local\Temp\cc4h82Al.s 			page 20


 425:../../../../../../Drivers/STM32L0xx_HAL_Driver/Src/stm32l0xx_hal_dma.c **** 
 426:../../../../../../Drivers/STM32L0xx_HAL_Driver/Src/stm32l0xx_hal_dma.c ****   /* Enable the Half transfer complete interrupt */
 427:../../../../../../Drivers/STM32L0xx_HAL_Driver/Src/stm32l0xx_hal_dma.c ****   __HAL_DMA_ENABLE_IT(hdma, DMA_IT_HT);  
 428:../../../../../../Drivers/STM32L0xx_HAL_Driver/Src/stm32l0xx_hal_dma.c **** 
 429:../../../../../../Drivers/STM32L0xx_HAL_Driver/Src/stm32l0xx_hal_dma.c ****   /* Enable the transfer Error interrupt */
 430:../../../../../../Drivers/STM32L0xx_HAL_Driver/Src/stm32l0xx_hal_dma.c ****   __HAL_DMA_ENABLE_IT(hdma, DMA_IT_TE);
 431:../../../../../../Drivers/STM32L0xx_HAL_Driver/Src/stm32l0xx_hal_dma.c ****   
 432:../../../../../../Drivers/STM32L0xx_HAL_Driver/Src/stm32l0xx_hal_dma.c ****    /* Enable the Peripheral */
 433:../../../../../../Drivers/STM32L0xx_HAL_Driver/Src/stm32l0xx_hal_dma.c ****   __HAL_DMA_ENABLE(hdma);   
 434:../../../../../../Drivers/STM32L0xx_HAL_Driver/Src/stm32l0xx_hal_dma.c ****   
 435:../../../../../../Drivers/STM32L0xx_HAL_Driver/Src/stm32l0xx_hal_dma.c ****   return HAL_OK;    
 436:../../../../../../Drivers/STM32L0xx_HAL_Driver/Src/stm32l0xx_hal_dma.c **** } 
 437:../../../../../../Drivers/STM32L0xx_HAL_Driver/Src/stm32l0xx_hal_dma.c **** 
 438:../../../../../../Drivers/STM32L0xx_HAL_Driver/Src/stm32l0xx_hal_dma.c **** /**
 439:../../../../../../Drivers/STM32L0xx_HAL_Driver/Src/stm32l0xx_hal_dma.c ****   * @brief  Aborts the DMA Transfer.
 440:../../../../../../Drivers/STM32L0xx_HAL_Driver/Src/stm32l0xx_hal_dma.c ****   * @param  hdma   pointer to a DMA_HandleTypeDef structure that contains
 441:../../../../../../Drivers/STM32L0xx_HAL_Driver/Src/stm32l0xx_hal_dma.c ****   *                 the configuration information for the specified DMA Channel.
 442:../../../../../../Drivers/STM32L0xx_HAL_Driver/Src/stm32l0xx_hal_dma.c ****   * @retval HAL status
 443:../../../../../../Drivers/STM32L0xx_HAL_Driver/Src/stm32l0xx_hal_dma.c ****   */
 444:../../../../../../Drivers/STM32L0xx_HAL_Driver/Src/stm32l0xx_hal_dma.c **** HAL_StatusTypeDef HAL_DMA_Abort(DMA_HandleTypeDef *hdma)
 445:../../../../../../Drivers/STM32L0xx_HAL_Driver/Src/stm32l0xx_hal_dma.c **** {
 446:../../../../../../Drivers/STM32L0xx_HAL_Driver/Src/stm32l0xx_hal_dma.c ****   uint32_t tickstart = 0U;
 447:../../../../../../Drivers/STM32L0xx_HAL_Driver/Src/stm32l0xx_hal_dma.c ****   
 448:../../../../../../Drivers/STM32L0xx_HAL_Driver/Src/stm32l0xx_hal_dma.c ****   /* Disable the channel */
 449:../../../../../../Drivers/STM32L0xx_HAL_Driver/Src/stm32l0xx_hal_dma.c ****   __HAL_DMA_DISABLE(hdma);
 450:../../../../../../Drivers/STM32L0xx_HAL_Driver/Src/stm32l0xx_hal_dma.c ****   
 451:../../../../../../Drivers/STM32L0xx_HAL_Driver/Src/stm32l0xx_hal_dma.c ****   /* Get timeout */
 452:../../../../../../Drivers/STM32L0xx_HAL_Driver/Src/stm32l0xx_hal_dma.c ****   tickstart = HAL_GetTick();
 453:../../../../../../Drivers/STM32L0xx_HAL_Driver/Src/stm32l0xx_hal_dma.c ****   
 454:../../../../../../Drivers/STM32L0xx_HAL_Driver/Src/stm32l0xx_hal_dma.c ****   /* Check if the DMA Channel is effectively disabled */
 455:../../../../../../Drivers/STM32L0xx_HAL_Driver/Src/stm32l0xx_hal_dma.c ****   while((hdma->Instance->CCR & DMA_CCR_EN) != 0U) 
 456:../../../../../../Drivers/STM32L0xx_HAL_Driver/Src/stm32l0xx_hal_dma.c ****   {
 457:../../../../../../Drivers/STM32L0xx_HAL_Driver/Src/stm32l0xx_hal_dma.c ****     /* Check for the Timeout */
 458:../../../../../../Drivers/STM32L0xx_HAL_Driver/Src/stm32l0xx_hal_dma.c ****     if( (HAL_GetTick()  - tickstart ) > HAL_TIMEOUT_DMA_ABORT)
 459:../../../../../../Drivers/STM32L0xx_HAL_Driver/Src/stm32l0xx_hal_dma.c ****     {
 460:../../../../../../Drivers/STM32L0xx_HAL_Driver/Src/stm32l0xx_hal_dma.c ****       /* Update error code */
 461:../../../../../../Drivers/STM32L0xx_HAL_Driver/Src/stm32l0xx_hal_dma.c ****       hdma->ErrorCode |= HAL_DMA_ERROR_TIMEOUT;
 462:../../../../../../Drivers/STM32L0xx_HAL_Driver/Src/stm32l0xx_hal_dma.c ****       
 463:../../../../../../Drivers/STM32L0xx_HAL_Driver/Src/stm32l0xx_hal_dma.c ****       /* Process Unlocked */
 464:../../../../../../Drivers/STM32L0xx_HAL_Driver/Src/stm32l0xx_hal_dma.c ****       __HAL_UNLOCK(hdma);
 465:../../../../../../Drivers/STM32L0xx_HAL_Driver/Src/stm32l0xx_hal_dma.c ****       
 466:../../../../../../Drivers/STM32L0xx_HAL_Driver/Src/stm32l0xx_hal_dma.c ****       /* Change the DMA state */
 467:../../../../../../Drivers/STM32L0xx_HAL_Driver/Src/stm32l0xx_hal_dma.c ****       hdma->State = HAL_DMA_STATE_TIMEOUT;
 468:../../../../../../Drivers/STM32L0xx_HAL_Driver/Src/stm32l0xx_hal_dma.c ****       
 469:../../../../../../Drivers/STM32L0xx_HAL_Driver/Src/stm32l0xx_hal_dma.c ****       return HAL_TIMEOUT;
 470:../../../../../../Drivers/STM32L0xx_HAL_Driver/Src/stm32l0xx_hal_dma.c ****     }
 471:../../../../../../Drivers/STM32L0xx_HAL_Driver/Src/stm32l0xx_hal_dma.c ****   }
 472:../../../../../../Drivers/STM32L0xx_HAL_Driver/Src/stm32l0xx_hal_dma.c ****   /* Process Unlocked */
 473:../../../../../../Drivers/STM32L0xx_HAL_Driver/Src/stm32l0xx_hal_dma.c ****   __HAL_UNLOCK(hdma);
 474:../../../../../../Drivers/STM32L0xx_HAL_Driver/Src/stm32l0xx_hal_dma.c ****   
 475:../../../../../../Drivers/STM32L0xx_HAL_Driver/Src/stm32l0xx_hal_dma.c ****   /* Change the DMA state*/
 476:../../../../../../Drivers/STM32L0xx_HAL_Driver/Src/stm32l0xx_hal_dma.c ****   hdma->State = HAL_DMA_STATE_READY; 
 477:../../../../../../Drivers/STM32L0xx_HAL_Driver/Src/stm32l0xx_hal_dma.c ****   
 478:../../../../../../Drivers/STM32L0xx_HAL_Driver/Src/stm32l0xx_hal_dma.c ****   return HAL_OK; 
 479:../../../../../../Drivers/STM32L0xx_HAL_Driver/Src/stm32l0xx_hal_dma.c **** }
 480:../../../../../../Drivers/STM32L0xx_HAL_Driver/Src/stm32l0xx_hal_dma.c **** 
 481:../../../../../../Drivers/STM32L0xx_HAL_Driver/Src/stm32l0xx_hal_dma.c **** /**
ARM GAS  C:\Users\EBANO_~1\AppData\Local\Temp\cc4h82Al.s 			page 21


 482:../../../../../../Drivers/STM32L0xx_HAL_Driver/Src/stm32l0xx_hal_dma.c ****   * @brief  Aborts the DMA Transfer in Interrupt mode.
 483:../../../../../../Drivers/STM32L0xx_HAL_Driver/Src/stm32l0xx_hal_dma.c ****   * @param  hdma   pointer to a DMA_HandleTypeDef structure that contains
 484:../../../../../../Drivers/STM32L0xx_HAL_Driver/Src/stm32l0xx_hal_dma.c ****   *                 the configuration information for the specified DMA Stream.
 485:../../../../../../Drivers/STM32L0xx_HAL_Driver/Src/stm32l0xx_hal_dma.c ****   * @retval HAL status
 486:../../../../../../Drivers/STM32L0xx_HAL_Driver/Src/stm32l0xx_hal_dma.c ****   */
 487:../../../../../../Drivers/STM32L0xx_HAL_Driver/Src/stm32l0xx_hal_dma.c **** HAL_StatusTypeDef HAL_DMA_Abort_IT(DMA_HandleTypeDef *hdma)
 488:../../../../../../Drivers/STM32L0xx_HAL_Driver/Src/stm32l0xx_hal_dma.c **** {  
 489:../../../../../../Drivers/STM32L0xx_HAL_Driver/Src/stm32l0xx_hal_dma.c ****   HAL_StatusTypeDef status = HAL_OK;
 490:../../../../../../Drivers/STM32L0xx_HAL_Driver/Src/stm32l0xx_hal_dma.c ****   
 491:../../../../../../Drivers/STM32L0xx_HAL_Driver/Src/stm32l0xx_hal_dma.c ****   if(HAL_DMA_STATE_BUSY != hdma->State)
 492:../../../../../../Drivers/STM32L0xx_HAL_Driver/Src/stm32l0xx_hal_dma.c ****   {
 493:../../../../../../Drivers/STM32L0xx_HAL_Driver/Src/stm32l0xx_hal_dma.c ****     /* no transfer ongoing */
 494:../../../../../../Drivers/STM32L0xx_HAL_Driver/Src/stm32l0xx_hal_dma.c ****     hdma->ErrorCode = HAL_DMA_ERROR_NO_XFER;
 495:../../../../../../Drivers/STM32L0xx_HAL_Driver/Src/stm32l0xx_hal_dma.c ****         
 496:../../../../../../Drivers/STM32L0xx_HAL_Driver/Src/stm32l0xx_hal_dma.c ****     status = HAL_ERROR;
 497:../../../../../../Drivers/STM32L0xx_HAL_Driver/Src/stm32l0xx_hal_dma.c ****   }
 498:../../../../../../Drivers/STM32L0xx_HAL_Driver/Src/stm32l0xx_hal_dma.c ****   else
 499:../../../../../../Drivers/STM32L0xx_HAL_Driver/Src/stm32l0xx_hal_dma.c ****   { 
 500:../../../../../../Drivers/STM32L0xx_HAL_Driver/Src/stm32l0xx_hal_dma.c ****     /* Disable DMA IT */
 501:../../../../../../Drivers/STM32L0xx_HAL_Driver/Src/stm32l0xx_hal_dma.c ****     __HAL_DMA_DISABLE_IT(hdma, (DMA_IT_TC | DMA_IT_HT | DMA_IT_TE));
 502:../../../../../../Drivers/STM32L0xx_HAL_Driver/Src/stm32l0xx_hal_dma.c ****     
 503:../../../../../../Drivers/STM32L0xx_HAL_Driver/Src/stm32l0xx_hal_dma.c ****     /* Disable the channel */
 504:../../../../../../Drivers/STM32L0xx_HAL_Driver/Src/stm32l0xx_hal_dma.c ****     __HAL_DMA_DISABLE(hdma);
 505:../../../../../../Drivers/STM32L0xx_HAL_Driver/Src/stm32l0xx_hal_dma.c ****     
 506:../../../../../../Drivers/STM32L0xx_HAL_Driver/Src/stm32l0xx_hal_dma.c ****     /* Clear all flags */
 507:../../../../../../Drivers/STM32L0xx_HAL_Driver/Src/stm32l0xx_hal_dma.c ****     __HAL_DMA_CLEAR_FLAG(hdma, __HAL_DMA_GET_GI_FLAG_INDEX(hdma));
 508:../../../../../../Drivers/STM32L0xx_HAL_Driver/Src/stm32l0xx_hal_dma.c ****     
 509:../../../../../../Drivers/STM32L0xx_HAL_Driver/Src/stm32l0xx_hal_dma.c ****     /* Change the DMA state */
 510:../../../../../../Drivers/STM32L0xx_HAL_Driver/Src/stm32l0xx_hal_dma.c ****     hdma->State = HAL_DMA_STATE_READY;
 511:../../../../../../Drivers/STM32L0xx_HAL_Driver/Src/stm32l0xx_hal_dma.c ****     
 512:../../../../../../Drivers/STM32L0xx_HAL_Driver/Src/stm32l0xx_hal_dma.c ****     /* Process Unlocked */
 513:../../../../../../Drivers/STM32L0xx_HAL_Driver/Src/stm32l0xx_hal_dma.c ****     __HAL_UNLOCK(hdma);
 514:../../../../../../Drivers/STM32L0xx_HAL_Driver/Src/stm32l0xx_hal_dma.c ****     
 515:../../../../../../Drivers/STM32L0xx_HAL_Driver/Src/stm32l0xx_hal_dma.c ****     /* Call User Abort callback */ 
 516:../../../../../../Drivers/STM32L0xx_HAL_Driver/Src/stm32l0xx_hal_dma.c ****     if(hdma->XferAbortCallback != NULL)
 517:../../../../../../Drivers/STM32L0xx_HAL_Driver/Src/stm32l0xx_hal_dma.c ****     {
 518:../../../../../../Drivers/STM32L0xx_HAL_Driver/Src/stm32l0xx_hal_dma.c ****       hdma->XferAbortCallback(hdma);
 519:../../../../../../Drivers/STM32L0xx_HAL_Driver/Src/stm32l0xx_hal_dma.c ****     } 
 520:../../../../../../Drivers/STM32L0xx_HAL_Driver/Src/stm32l0xx_hal_dma.c ****   }
 521:../../../../../../Drivers/STM32L0xx_HAL_Driver/Src/stm32l0xx_hal_dma.c ****   return status;
 522:../../../../../../Drivers/STM32L0xx_HAL_Driver/Src/stm32l0xx_hal_dma.c **** }
 523:../../../../../../Drivers/STM32L0xx_HAL_Driver/Src/stm32l0xx_hal_dma.c **** 
 524:../../../../../../Drivers/STM32L0xx_HAL_Driver/Src/stm32l0xx_hal_dma.c **** /**
 525:../../../../../../Drivers/STM32L0xx_HAL_Driver/Src/stm32l0xx_hal_dma.c ****   * @brief  Polling for transfer complete.
 526:../../../../../../Drivers/STM32L0xx_HAL_Driver/Src/stm32l0xx_hal_dma.c ****   * @param  hdma    pointer to a DMA_HandleTypeDef structure that contains
 527:../../../../../../Drivers/STM32L0xx_HAL_Driver/Src/stm32l0xx_hal_dma.c ****   *                  the configuration information for the specified DMA Channel.
 528:../../../../../../Drivers/STM32L0xx_HAL_Driver/Src/stm32l0xx_hal_dma.c ****   * @param  CompleteLevel Specifies the DMA level complete.  
 529:../../../../../../Drivers/STM32L0xx_HAL_Driver/Src/stm32l0xx_hal_dma.c ****   * @param  Timeout       Timeout duration.
 530:../../../../../../Drivers/STM32L0xx_HAL_Driver/Src/stm32l0xx_hal_dma.c ****   * @retval HAL status
 531:../../../../../../Drivers/STM32L0xx_HAL_Driver/Src/stm32l0xx_hal_dma.c ****   */
 532:../../../../../../Drivers/STM32L0xx_HAL_Driver/Src/stm32l0xx_hal_dma.c **** HAL_StatusTypeDef HAL_DMA_PollForTransfer(DMA_HandleTypeDef *hdma, uint32_t CompleteLevel, uint32_t
 533:../../../../../../Drivers/STM32L0xx_HAL_Driver/Src/stm32l0xx_hal_dma.c **** {
 534:../../../../../../Drivers/STM32L0xx_HAL_Driver/Src/stm32l0xx_hal_dma.c ****   uint32_t temp;
 535:../../../../../../Drivers/STM32L0xx_HAL_Driver/Src/stm32l0xx_hal_dma.c ****   uint32_t tickstart = 0U;
 536:../../../../../../Drivers/STM32L0xx_HAL_Driver/Src/stm32l0xx_hal_dma.c ****   
 537:../../../../../../Drivers/STM32L0xx_HAL_Driver/Src/stm32l0xx_hal_dma.c ****   /* Get the level transfer complete flag */
 538:../../../../../../Drivers/STM32L0xx_HAL_Driver/Src/stm32l0xx_hal_dma.c ****   if(CompleteLevel == HAL_DMA_FULL_TRANSFER)
ARM GAS  C:\Users\EBANO_~1\AppData\Local\Temp\cc4h82Al.s 			page 22


 539:../../../../../../Drivers/STM32L0xx_HAL_Driver/Src/stm32l0xx_hal_dma.c ****   {
 540:../../../../../../Drivers/STM32L0xx_HAL_Driver/Src/stm32l0xx_hal_dma.c ****     /* Transfer Complete flag */
 541:../../../../../../Drivers/STM32L0xx_HAL_Driver/Src/stm32l0xx_hal_dma.c ****     temp = __HAL_DMA_GET_TC_FLAG_INDEX(hdma);
 542:../../../../../../Drivers/STM32L0xx_HAL_Driver/Src/stm32l0xx_hal_dma.c ****   }
 543:../../../../../../Drivers/STM32L0xx_HAL_Driver/Src/stm32l0xx_hal_dma.c ****   else
 544:../../../../../../Drivers/STM32L0xx_HAL_Driver/Src/stm32l0xx_hal_dma.c ****   {
 545:../../../../../../Drivers/STM32L0xx_HAL_Driver/Src/stm32l0xx_hal_dma.c ****     /* Half Transfer Complete flag */
 546:../../../../../../Drivers/STM32L0xx_HAL_Driver/Src/stm32l0xx_hal_dma.c ****     temp = __HAL_DMA_GET_HT_FLAG_INDEX(hdma);
 547:../../../../../../Drivers/STM32L0xx_HAL_Driver/Src/stm32l0xx_hal_dma.c ****   }
 548:../../../../../../Drivers/STM32L0xx_HAL_Driver/Src/stm32l0xx_hal_dma.c **** 
 549:../../../../../../Drivers/STM32L0xx_HAL_Driver/Src/stm32l0xx_hal_dma.c ****   /* Get timeout */
 550:../../../../../../Drivers/STM32L0xx_HAL_Driver/Src/stm32l0xx_hal_dma.c ****   tickstart = HAL_GetTick();
 551:../../../../../../Drivers/STM32L0xx_HAL_Driver/Src/stm32l0xx_hal_dma.c **** 
 552:../../../../../../Drivers/STM32L0xx_HAL_Driver/Src/stm32l0xx_hal_dma.c ****   while(__HAL_DMA_GET_FLAG(hdma, temp) == RESET)
 553:../../../../../../Drivers/STM32L0xx_HAL_Driver/Src/stm32l0xx_hal_dma.c ****   {
 554:../../../../../../Drivers/STM32L0xx_HAL_Driver/Src/stm32l0xx_hal_dma.c ****     if((__HAL_DMA_GET_FLAG(hdma, __HAL_DMA_GET_TE_FLAG_INDEX(hdma)) != RESET))
 555:../../../../../../Drivers/STM32L0xx_HAL_Driver/Src/stm32l0xx_hal_dma.c ****     {      
 556:../../../../../../Drivers/STM32L0xx_HAL_Driver/Src/stm32l0xx_hal_dma.c ****       /* Clear the transfer error flags */
 557:../../../../../../Drivers/STM32L0xx_HAL_Driver/Src/stm32l0xx_hal_dma.c ****       __HAL_DMA_CLEAR_FLAG(hdma, __HAL_DMA_GET_TE_FLAG_INDEX(hdma));
 558:../../../../../../Drivers/STM32L0xx_HAL_Driver/Src/stm32l0xx_hal_dma.c ****       
 559:../../../../../../Drivers/STM32L0xx_HAL_Driver/Src/stm32l0xx_hal_dma.c ****       /* Update error code */
 560:../../../../../../Drivers/STM32L0xx_HAL_Driver/Src/stm32l0xx_hal_dma.c ****       SET_BIT(hdma->ErrorCode, HAL_DMA_ERROR_TE);
 561:../../../../../../Drivers/STM32L0xx_HAL_Driver/Src/stm32l0xx_hal_dma.c ****       
 562:../../../../../../Drivers/STM32L0xx_HAL_Driver/Src/stm32l0xx_hal_dma.c ****       /* Change the DMA state */
 563:../../../../../../Drivers/STM32L0xx_HAL_Driver/Src/stm32l0xx_hal_dma.c ****       hdma->State= HAL_DMA_STATE_ERROR;       
 564:../../../../../../Drivers/STM32L0xx_HAL_Driver/Src/stm32l0xx_hal_dma.c ****       
 565:../../../../../../Drivers/STM32L0xx_HAL_Driver/Src/stm32l0xx_hal_dma.c ****       /* Process Unlocked */
 566:../../../../../../Drivers/STM32L0xx_HAL_Driver/Src/stm32l0xx_hal_dma.c ****       __HAL_UNLOCK(hdma);
 567:../../../../../../Drivers/STM32L0xx_HAL_Driver/Src/stm32l0xx_hal_dma.c ****       
 568:../../../../../../Drivers/STM32L0xx_HAL_Driver/Src/stm32l0xx_hal_dma.c ****       return HAL_ERROR;      
 569:../../../../../../Drivers/STM32L0xx_HAL_Driver/Src/stm32l0xx_hal_dma.c ****     }      
 570:../../../../../../Drivers/STM32L0xx_HAL_Driver/Src/stm32l0xx_hal_dma.c ****     /* Check for the Timeout */
 571:../../../../../../Drivers/STM32L0xx_HAL_Driver/Src/stm32l0xx_hal_dma.c ****     if(Timeout != HAL_MAX_DELAY)
 572:../../../../../../Drivers/STM32L0xx_HAL_Driver/Src/stm32l0xx_hal_dma.c ****     {
 573:../../../../../../Drivers/STM32L0xx_HAL_Driver/Src/stm32l0xx_hal_dma.c ****       if((Timeout == 0U)||((HAL_GetTick() - tickstart ) > Timeout))
 574:../../../../../../Drivers/STM32L0xx_HAL_Driver/Src/stm32l0xx_hal_dma.c ****       {
 575:../../../../../../Drivers/STM32L0xx_HAL_Driver/Src/stm32l0xx_hal_dma.c ****         /* Update error code */
 576:../../../../../../Drivers/STM32L0xx_HAL_Driver/Src/stm32l0xx_hal_dma.c ****         SET_BIT(hdma->ErrorCode, HAL_DMA_ERROR_TIMEOUT);
 577:../../../../../../Drivers/STM32L0xx_HAL_Driver/Src/stm32l0xx_hal_dma.c ****         
 578:../../../../../../Drivers/STM32L0xx_HAL_Driver/Src/stm32l0xx_hal_dma.c ****         /* Change the DMA state */
 579:../../../../../../Drivers/STM32L0xx_HAL_Driver/Src/stm32l0xx_hal_dma.c ****         hdma->State= HAL_DMA_STATE_TIMEOUT;
 580:../../../../../../Drivers/STM32L0xx_HAL_Driver/Src/stm32l0xx_hal_dma.c ****         
 581:../../../../../../Drivers/STM32L0xx_HAL_Driver/Src/stm32l0xx_hal_dma.c ****         /* Process Unlocked */
 582:../../../../../../Drivers/STM32L0xx_HAL_Driver/Src/stm32l0xx_hal_dma.c ****         __HAL_UNLOCK(hdma);
 583:../../../../../../Drivers/STM32L0xx_HAL_Driver/Src/stm32l0xx_hal_dma.c ****       
 584:../../../../../../Drivers/STM32L0xx_HAL_Driver/Src/stm32l0xx_hal_dma.c ****         return HAL_TIMEOUT;
 585:../../../../../../Drivers/STM32L0xx_HAL_Driver/Src/stm32l0xx_hal_dma.c ****       }
 586:../../../../../../Drivers/STM32L0xx_HAL_Driver/Src/stm32l0xx_hal_dma.c ****     }
 587:../../../../../../Drivers/STM32L0xx_HAL_Driver/Src/stm32l0xx_hal_dma.c ****   }
 588:../../../../../../Drivers/STM32L0xx_HAL_Driver/Src/stm32l0xx_hal_dma.c **** 
 589:../../../../../../Drivers/STM32L0xx_HAL_Driver/Src/stm32l0xx_hal_dma.c ****   if(CompleteLevel == HAL_DMA_FULL_TRANSFER)
 590:../../../../../../Drivers/STM32L0xx_HAL_Driver/Src/stm32l0xx_hal_dma.c ****   {
 591:../../../../../../Drivers/STM32L0xx_HAL_Driver/Src/stm32l0xx_hal_dma.c ****     /* Clear the transfer complete flag */
 592:../../../../../../Drivers/STM32L0xx_HAL_Driver/Src/stm32l0xx_hal_dma.c ****     __HAL_DMA_CLEAR_FLAG(hdma, __HAL_DMA_GET_TC_FLAG_INDEX(hdma));
 593:../../../../../../Drivers/STM32L0xx_HAL_Driver/Src/stm32l0xx_hal_dma.c **** 
 594:../../../../../../Drivers/STM32L0xx_HAL_Driver/Src/stm32l0xx_hal_dma.c ****     /* The selected Channelx EN bit is cleared (DMA is disabled and 
 595:../../../../../../Drivers/STM32L0xx_HAL_Driver/Src/stm32l0xx_hal_dma.c ****     all transfers are complete) */
ARM GAS  C:\Users\EBANO_~1\AppData\Local\Temp\cc4h82Al.s 			page 23


 596:../../../../../../Drivers/STM32L0xx_HAL_Driver/Src/stm32l0xx_hal_dma.c ****     hdma->State = HAL_DMA_STATE_READY;
 597:../../../../../../Drivers/STM32L0xx_HAL_Driver/Src/stm32l0xx_hal_dma.c **** 
 598:../../../../../../Drivers/STM32L0xx_HAL_Driver/Src/stm32l0xx_hal_dma.c ****     /* Process unlocked */
 599:../../../../../../Drivers/STM32L0xx_HAL_Driver/Src/stm32l0xx_hal_dma.c ****     __HAL_UNLOCK(hdma);  
 600:../../../../../../Drivers/STM32L0xx_HAL_Driver/Src/stm32l0xx_hal_dma.c ****   }
 601:../../../../../../Drivers/STM32L0xx_HAL_Driver/Src/stm32l0xx_hal_dma.c ****   else
 602:../../../../../../Drivers/STM32L0xx_HAL_Driver/Src/stm32l0xx_hal_dma.c ****   { 
 603:../../../../../../Drivers/STM32L0xx_HAL_Driver/Src/stm32l0xx_hal_dma.c ****     /* Clear the half transfer complete flag */
 604:../../../../../../Drivers/STM32L0xx_HAL_Driver/Src/stm32l0xx_hal_dma.c ****     __HAL_DMA_CLEAR_FLAG(hdma, __HAL_DMA_GET_HT_FLAG_INDEX(hdma));
 605:../../../../../../Drivers/STM32L0xx_HAL_Driver/Src/stm32l0xx_hal_dma.c **** 
 606:../../../../../../Drivers/STM32L0xx_HAL_Driver/Src/stm32l0xx_hal_dma.c ****     /* The selected Channelx EN bit is cleared (DMA is disabled and 
 607:../../../../../../Drivers/STM32L0xx_HAL_Driver/Src/stm32l0xx_hal_dma.c ****     all transfers are complete) */
 608:../../../../../../Drivers/STM32L0xx_HAL_Driver/Src/stm32l0xx_hal_dma.c ****     hdma->State = HAL_DMA_STATE_READY_HALF;
 609:../../../../../../Drivers/STM32L0xx_HAL_Driver/Src/stm32l0xx_hal_dma.c ****     
 610:../../../../../../Drivers/STM32L0xx_HAL_Driver/Src/stm32l0xx_hal_dma.c ****     /* Process unlocked */
 611:../../../../../../Drivers/STM32L0xx_HAL_Driver/Src/stm32l0xx_hal_dma.c ****     __HAL_UNLOCK(hdma); 
 612:../../../../../../Drivers/STM32L0xx_HAL_Driver/Src/stm32l0xx_hal_dma.c ****   }
 613:../../../../../../Drivers/STM32L0xx_HAL_Driver/Src/stm32l0xx_hal_dma.c ****   
 614:../../../../../../Drivers/STM32L0xx_HAL_Driver/Src/stm32l0xx_hal_dma.c ****   return HAL_OK;
 615:../../../../../../Drivers/STM32L0xx_HAL_Driver/Src/stm32l0xx_hal_dma.c **** }
 616:../../../../../../Drivers/STM32L0xx_HAL_Driver/Src/stm32l0xx_hal_dma.c **** /**
 617:../../../../../../Drivers/STM32L0xx_HAL_Driver/Src/stm32l0xx_hal_dma.c ****   * @brief  Handles DMA interrupt request.
 618:../../../../../../Drivers/STM32L0xx_HAL_Driver/Src/stm32l0xx_hal_dma.c ****   * @param  hdma pointer to a DMA_HandleTypeDef structure that contains
 619:../../../../../../Drivers/STM32L0xx_HAL_Driver/Src/stm32l0xx_hal_dma.c ****   *               the configuration information for the specified DMA Channel.  
 620:../../../../../../Drivers/STM32L0xx_HAL_Driver/Src/stm32l0xx_hal_dma.c ****   * @retval None
 621:../../../../../../Drivers/STM32L0xx_HAL_Driver/Src/stm32l0xx_hal_dma.c ****   */
 622:../../../../../../Drivers/STM32L0xx_HAL_Driver/Src/stm32l0xx_hal_dma.c **** void HAL_DMA_IRQHandler(DMA_HandleTypeDef *hdma)
 623:../../../../../../Drivers/STM32L0xx_HAL_Driver/Src/stm32l0xx_hal_dma.c **** {        
 624:../../../../../../Drivers/STM32L0xx_HAL_Driver/Src/stm32l0xx_hal_dma.c ****   /* Transfer Error Interrupt management ***************************************/
 625:../../../../../../Drivers/STM32L0xx_HAL_Driver/Src/stm32l0xx_hal_dma.c ****   if(__HAL_DMA_GET_FLAG(hdma, __HAL_DMA_GET_TE_FLAG_INDEX(hdma)) != RESET)
 626:../../../../../../Drivers/STM32L0xx_HAL_Driver/Src/stm32l0xx_hal_dma.c ****   {
 627:../../../../../../Drivers/STM32L0xx_HAL_Driver/Src/stm32l0xx_hal_dma.c ****     if(__HAL_DMA_GET_IT_SOURCE(hdma, DMA_IT_TE) != RESET)
 628:../../../../../../Drivers/STM32L0xx_HAL_Driver/Src/stm32l0xx_hal_dma.c ****     {
 629:../../../../../../Drivers/STM32L0xx_HAL_Driver/Src/stm32l0xx_hal_dma.c ****       /* Disable the transfer error interrupt */
 630:../../../../../../Drivers/STM32L0xx_HAL_Driver/Src/stm32l0xx_hal_dma.c ****       __HAL_DMA_DISABLE_IT(hdma, DMA_IT_TE);
 631:../../../../../../Drivers/STM32L0xx_HAL_Driver/Src/stm32l0xx_hal_dma.c ****     
 632:../../../../../../Drivers/STM32L0xx_HAL_Driver/Src/stm32l0xx_hal_dma.c ****       /* Clear the transfer error flag */
 633:../../../../../../Drivers/STM32L0xx_HAL_Driver/Src/stm32l0xx_hal_dma.c ****       __HAL_DMA_CLEAR_FLAG(hdma, __HAL_DMA_GET_TE_FLAG_INDEX(hdma));
 634:../../../../../../Drivers/STM32L0xx_HAL_Driver/Src/stm32l0xx_hal_dma.c ****     
 635:../../../../../../Drivers/STM32L0xx_HAL_Driver/Src/stm32l0xx_hal_dma.c ****       /* Update error code */
 636:../../../../../../Drivers/STM32L0xx_HAL_Driver/Src/stm32l0xx_hal_dma.c ****       hdma->ErrorCode |= HAL_DMA_ERROR_TE;
 637:../../../../../../Drivers/STM32L0xx_HAL_Driver/Src/stm32l0xx_hal_dma.c **** 
 638:../../../../../../Drivers/STM32L0xx_HAL_Driver/Src/stm32l0xx_hal_dma.c ****       /* Change the DMA state */
 639:../../../../../../Drivers/STM32L0xx_HAL_Driver/Src/stm32l0xx_hal_dma.c ****       hdma->State = HAL_DMA_STATE_ERROR;    
 640:../../../../../../Drivers/STM32L0xx_HAL_Driver/Src/stm32l0xx_hal_dma.c ****     
 641:../../../../../../Drivers/STM32L0xx_HAL_Driver/Src/stm32l0xx_hal_dma.c ****       /* Process Unlocked */
 642:../../../../../../Drivers/STM32L0xx_HAL_Driver/Src/stm32l0xx_hal_dma.c ****       __HAL_UNLOCK(hdma); 
 643:../../../../../../Drivers/STM32L0xx_HAL_Driver/Src/stm32l0xx_hal_dma.c ****     
 644:../../../../../../Drivers/STM32L0xx_HAL_Driver/Src/stm32l0xx_hal_dma.c ****       if (hdma->XferErrorCallback != NULL)
 645:../../../../../../Drivers/STM32L0xx_HAL_Driver/Src/stm32l0xx_hal_dma.c ****       {
 646:../../../../../../Drivers/STM32L0xx_HAL_Driver/Src/stm32l0xx_hal_dma.c ****         /* Transfer error callback */
 647:../../../../../../Drivers/STM32L0xx_HAL_Driver/Src/stm32l0xx_hal_dma.c ****         hdma->XferErrorCallback(hdma);
 648:../../../../../../Drivers/STM32L0xx_HAL_Driver/Src/stm32l0xx_hal_dma.c ****       }
 649:../../../../../../Drivers/STM32L0xx_HAL_Driver/Src/stm32l0xx_hal_dma.c ****     }
 650:../../../../../../Drivers/STM32L0xx_HAL_Driver/Src/stm32l0xx_hal_dma.c ****   }
 651:../../../../../../Drivers/STM32L0xx_HAL_Driver/Src/stm32l0xx_hal_dma.c **** 
 652:../../../../../../Drivers/STM32L0xx_HAL_Driver/Src/stm32l0xx_hal_dma.c ****   /* Half Transfer Complete Interrupt management ******************************/
ARM GAS  C:\Users\EBANO_~1\AppData\Local\Temp\cc4h82Al.s 			page 24


 653:../../../../../../Drivers/STM32L0xx_HAL_Driver/Src/stm32l0xx_hal_dma.c ****   if(__HAL_DMA_GET_FLAG(hdma, __HAL_DMA_GET_HT_FLAG_INDEX(hdma)) != RESET)
 654:../../../../../../Drivers/STM32L0xx_HAL_Driver/Src/stm32l0xx_hal_dma.c ****   {
 655:../../../../../../Drivers/STM32L0xx_HAL_Driver/Src/stm32l0xx_hal_dma.c ****     if(__HAL_DMA_GET_IT_SOURCE(hdma, DMA_IT_HT) != RESET)
 656:../../../../../../Drivers/STM32L0xx_HAL_Driver/Src/stm32l0xx_hal_dma.c ****     { 
 657:../../../../../../Drivers/STM32L0xx_HAL_Driver/Src/stm32l0xx_hal_dma.c ****       /* Disable the half transfer interrupt if the DMA mode is not CIRCULAR */
 658:../../../../../../Drivers/STM32L0xx_HAL_Driver/Src/stm32l0xx_hal_dma.c ****       if((hdma->Instance->CCR & DMA_CCR_CIRC) == 0U)
 659:../../../../../../Drivers/STM32L0xx_HAL_Driver/Src/stm32l0xx_hal_dma.c ****       {
 660:../../../../../../Drivers/STM32L0xx_HAL_Driver/Src/stm32l0xx_hal_dma.c ****         /* Disable the half transfer interrupt */
 661:../../../../../../Drivers/STM32L0xx_HAL_Driver/Src/stm32l0xx_hal_dma.c ****         __HAL_DMA_DISABLE_IT(hdma, DMA_IT_HT);
 662:../../../../../../Drivers/STM32L0xx_HAL_Driver/Src/stm32l0xx_hal_dma.c ****       }
 663:../../../../../../Drivers/STM32L0xx_HAL_Driver/Src/stm32l0xx_hal_dma.c ****       /* Clear the half transfer complete flag */
 664:../../../../../../Drivers/STM32L0xx_HAL_Driver/Src/stm32l0xx_hal_dma.c ****       __HAL_DMA_CLEAR_FLAG(hdma, __HAL_DMA_GET_HT_FLAG_INDEX(hdma));
 665:../../../../../../Drivers/STM32L0xx_HAL_Driver/Src/stm32l0xx_hal_dma.c **** 
 666:../../../../../../Drivers/STM32L0xx_HAL_Driver/Src/stm32l0xx_hal_dma.c ****       /* Change DMA peripheral state */
 667:../../../../../../Drivers/STM32L0xx_HAL_Driver/Src/stm32l0xx_hal_dma.c ****       hdma->State = HAL_DMA_STATE_READY_HALF;
 668:../../../../../../Drivers/STM32L0xx_HAL_Driver/Src/stm32l0xx_hal_dma.c **** 
 669:../../../../../../Drivers/STM32L0xx_HAL_Driver/Src/stm32l0xx_hal_dma.c ****       if(hdma->XferHalfCpltCallback != NULL)
 670:../../../../../../Drivers/STM32L0xx_HAL_Driver/Src/stm32l0xx_hal_dma.c ****       {
 671:../../../../../../Drivers/STM32L0xx_HAL_Driver/Src/stm32l0xx_hal_dma.c ****         /* Half transfer callback */
 672:../../../../../../Drivers/STM32L0xx_HAL_Driver/Src/stm32l0xx_hal_dma.c ****         hdma->XferHalfCpltCallback(hdma);
 673:../../../../../../Drivers/STM32L0xx_HAL_Driver/Src/stm32l0xx_hal_dma.c ****       }
 674:../../../../../../Drivers/STM32L0xx_HAL_Driver/Src/stm32l0xx_hal_dma.c ****     }
 675:../../../../../../Drivers/STM32L0xx_HAL_Driver/Src/stm32l0xx_hal_dma.c ****   }
 676:../../../../../../Drivers/STM32L0xx_HAL_Driver/Src/stm32l0xx_hal_dma.c ****   
 677:../../../../../../Drivers/STM32L0xx_HAL_Driver/Src/stm32l0xx_hal_dma.c ****   /* Transfer Complete Interrupt management ***********************************/
 678:../../../../../../Drivers/STM32L0xx_HAL_Driver/Src/stm32l0xx_hal_dma.c ****   if(__HAL_DMA_GET_FLAG(hdma, __HAL_DMA_GET_TC_FLAG_INDEX(hdma)) != RESET)
 679:../../../../../../Drivers/STM32L0xx_HAL_Driver/Src/stm32l0xx_hal_dma.c ****   {
 680:../../../../../../Drivers/STM32L0xx_HAL_Driver/Src/stm32l0xx_hal_dma.c ****     if(__HAL_DMA_GET_IT_SOURCE(hdma, DMA_IT_TC) != RESET)
 681:../../../../../../Drivers/STM32L0xx_HAL_Driver/Src/stm32l0xx_hal_dma.c ****     {
 682:../../../../../../Drivers/STM32L0xx_HAL_Driver/Src/stm32l0xx_hal_dma.c ****       if((hdma->Instance->CCR & DMA_CCR_CIRC) == 0U)
 683:../../../../../../Drivers/STM32L0xx_HAL_Driver/Src/stm32l0xx_hal_dma.c ****       {
 684:../../../../../../Drivers/STM32L0xx_HAL_Driver/Src/stm32l0xx_hal_dma.c ****         /* Disable the transfer complete interrupt */
 685:../../../../../../Drivers/STM32L0xx_HAL_Driver/Src/stm32l0xx_hal_dma.c ****         __HAL_DMA_DISABLE_IT(hdma, DMA_IT_TC);
 686:../../../../../../Drivers/STM32L0xx_HAL_Driver/Src/stm32l0xx_hal_dma.c ****       }
 687:../../../../../../Drivers/STM32L0xx_HAL_Driver/Src/stm32l0xx_hal_dma.c ****       /* Clear the transfer complete flag */
 688:../../../../../../Drivers/STM32L0xx_HAL_Driver/Src/stm32l0xx_hal_dma.c ****       __HAL_DMA_CLEAR_FLAG(hdma, __HAL_DMA_GET_TC_FLAG_INDEX(hdma));
 689:../../../../../../Drivers/STM32L0xx_HAL_Driver/Src/stm32l0xx_hal_dma.c ****     
 690:../../../../../../Drivers/STM32L0xx_HAL_Driver/Src/stm32l0xx_hal_dma.c ****       /* Update error code */
 691:../../../../../../Drivers/STM32L0xx_HAL_Driver/Src/stm32l0xx_hal_dma.c ****       hdma->ErrorCode |= HAL_DMA_ERROR_NONE;
 692:../../../../../../Drivers/STM32L0xx_HAL_Driver/Src/stm32l0xx_hal_dma.c **** 
 693:../../../../../../Drivers/STM32L0xx_HAL_Driver/Src/stm32l0xx_hal_dma.c ****       /* Change the DMA state */
 694:../../../../../../Drivers/STM32L0xx_HAL_Driver/Src/stm32l0xx_hal_dma.c ****       hdma->State = HAL_DMA_STATE_READY;    
 695:../../../../../../Drivers/STM32L0xx_HAL_Driver/Src/stm32l0xx_hal_dma.c ****     
 696:../../../../../../Drivers/STM32L0xx_HAL_Driver/Src/stm32l0xx_hal_dma.c ****       /* Process Unlocked */
 697:../../../../../../Drivers/STM32L0xx_HAL_Driver/Src/stm32l0xx_hal_dma.c ****       __HAL_UNLOCK(hdma);
 698:../../../../../../Drivers/STM32L0xx_HAL_Driver/Src/stm32l0xx_hal_dma.c ****     
 699:../../../../../../Drivers/STM32L0xx_HAL_Driver/Src/stm32l0xx_hal_dma.c ****       if(hdma->XferCpltCallback != NULL)
 700:../../../../../../Drivers/STM32L0xx_HAL_Driver/Src/stm32l0xx_hal_dma.c ****       {       
 701:../../../../../../Drivers/STM32L0xx_HAL_Driver/Src/stm32l0xx_hal_dma.c ****         /* Transfer complete callback */
 702:../../../../../../Drivers/STM32L0xx_HAL_Driver/Src/stm32l0xx_hal_dma.c ****         hdma->XferCpltCallback(hdma);
 703:../../../../../../Drivers/STM32L0xx_HAL_Driver/Src/stm32l0xx_hal_dma.c ****       }
 704:../../../../../../Drivers/STM32L0xx_HAL_Driver/Src/stm32l0xx_hal_dma.c ****     }
 705:../../../../../../Drivers/STM32L0xx_HAL_Driver/Src/stm32l0xx_hal_dma.c ****   }
 706:../../../../../../Drivers/STM32L0xx_HAL_Driver/Src/stm32l0xx_hal_dma.c **** }  
 707:../../../../../../Drivers/STM32L0xx_HAL_Driver/Src/stm32l0xx_hal_dma.c **** 
 708:../../../../../../Drivers/STM32L0xx_HAL_Driver/Src/stm32l0xx_hal_dma.c **** /**
 709:../../../../../../Drivers/STM32L0xx_HAL_Driver/Src/stm32l0xx_hal_dma.c ****   * @}
ARM GAS  C:\Users\EBANO_~1\AppData\Local\Temp\cc4h82Al.s 			page 25


 710:../../../../../../Drivers/STM32L0xx_HAL_Driver/Src/stm32l0xx_hal_dma.c ****   */
 711:../../../../../../Drivers/STM32L0xx_HAL_Driver/Src/stm32l0xx_hal_dma.c **** 
 712:../../../../../../Drivers/STM32L0xx_HAL_Driver/Src/stm32l0xx_hal_dma.c **** /** @addtogroup DMA_Exported_Functions_Group3 
 713:../../../../../../Drivers/STM32L0xx_HAL_Driver/Src/stm32l0xx_hal_dma.c ****  *  @brief    Peripheral State functions 
 714:../../../../../../Drivers/STM32L0xx_HAL_Driver/Src/stm32l0xx_hal_dma.c ****  *
 715:../../../../../../Drivers/STM32L0xx_HAL_Driver/Src/stm32l0xx_hal_dma.c **** @verbatim   
 716:../../../../../../Drivers/STM32L0xx_HAL_Driver/Src/stm32l0xx_hal_dma.c ****  ===============================================================================
 717:../../../../../../Drivers/STM32L0xx_HAL_Driver/Src/stm32l0xx_hal_dma.c ****                         ##### Peripheral State functions #####
 718:../../../../../../Drivers/STM32L0xx_HAL_Driver/Src/stm32l0xx_hal_dma.c ****  ===============================================================================  
 719:../../../../../../Drivers/STM32L0xx_HAL_Driver/Src/stm32l0xx_hal_dma.c ****     [..]
 720:../../../../../../Drivers/STM32L0xx_HAL_Driver/Src/stm32l0xx_hal_dma.c ****     This subsection provides functions allowing to
 721:../../../../../../Drivers/STM32L0xx_HAL_Driver/Src/stm32l0xx_hal_dma.c ****       (+) Check the DMA state
 722:../../../../../../Drivers/STM32L0xx_HAL_Driver/Src/stm32l0xx_hal_dma.c ****       (+) Get error code
 723:../../../../../../Drivers/STM32L0xx_HAL_Driver/Src/stm32l0xx_hal_dma.c **** 
 724:../../../../../../Drivers/STM32L0xx_HAL_Driver/Src/stm32l0xx_hal_dma.c **** @endverbatim
 725:../../../../../../Drivers/STM32L0xx_HAL_Driver/Src/stm32l0xx_hal_dma.c ****   * @{
 726:../../../../../../Drivers/STM32L0xx_HAL_Driver/Src/stm32l0xx_hal_dma.c ****   */  
 727:../../../../../../Drivers/STM32L0xx_HAL_Driver/Src/stm32l0xx_hal_dma.c **** 
 728:../../../../../../Drivers/STM32L0xx_HAL_Driver/Src/stm32l0xx_hal_dma.c **** /**
 729:../../../../../../Drivers/STM32L0xx_HAL_Driver/Src/stm32l0xx_hal_dma.c ****   * @brief  Returns the DMA state.
 730:../../../../../../Drivers/STM32L0xx_HAL_Driver/Src/stm32l0xx_hal_dma.c ****   * @param  hdma pointer to a DMA_HandleTypeDef structure that contains
 731:../../../../../../Drivers/STM32L0xx_HAL_Driver/Src/stm32l0xx_hal_dma.c ****   *               the configuration information for the specified DMA Channel.  
 732:../../../../../../Drivers/STM32L0xx_HAL_Driver/Src/stm32l0xx_hal_dma.c ****   * @retval HAL state
 733:../../../../../../Drivers/STM32L0xx_HAL_Driver/Src/stm32l0xx_hal_dma.c ****   */
 734:../../../../../../Drivers/STM32L0xx_HAL_Driver/Src/stm32l0xx_hal_dma.c **** HAL_DMA_StateTypeDef HAL_DMA_GetState(DMA_HandleTypeDef *hdma)
 735:../../../../../../Drivers/STM32L0xx_HAL_Driver/Src/stm32l0xx_hal_dma.c **** {
 736:../../../../../../Drivers/STM32L0xx_HAL_Driver/Src/stm32l0xx_hal_dma.c ****   return hdma->State;
 737:../../../../../../Drivers/STM32L0xx_HAL_Driver/Src/stm32l0xx_hal_dma.c **** }
 738:../../../../../../Drivers/STM32L0xx_HAL_Driver/Src/stm32l0xx_hal_dma.c **** 
 739:../../../../../../Drivers/STM32L0xx_HAL_Driver/Src/stm32l0xx_hal_dma.c **** /**
 740:../../../../../../Drivers/STM32L0xx_HAL_Driver/Src/stm32l0xx_hal_dma.c ****   * @brief  Return the DMA error code
 741:../../../../../../Drivers/STM32L0xx_HAL_Driver/Src/stm32l0xx_hal_dma.c ****   * @param  hdma  pointer to a DMA_HandleTypeDef structure that contains
 742:../../../../../../Drivers/STM32L0xx_HAL_Driver/Src/stm32l0xx_hal_dma.c ****   *              the configuration information for the specified DMA Channel.
 743:../../../../../../Drivers/STM32L0xx_HAL_Driver/Src/stm32l0xx_hal_dma.c ****   * @retval DMA Error Code
 744:../../../../../../Drivers/STM32L0xx_HAL_Driver/Src/stm32l0xx_hal_dma.c ****   */
 745:../../../../../../Drivers/STM32L0xx_HAL_Driver/Src/stm32l0xx_hal_dma.c **** uint32_t HAL_DMA_GetError(DMA_HandleTypeDef *hdma)
 746:../../../../../../Drivers/STM32L0xx_HAL_Driver/Src/stm32l0xx_hal_dma.c **** {
 747:../../../../../../Drivers/STM32L0xx_HAL_Driver/Src/stm32l0xx_hal_dma.c ****   return hdma->ErrorCode;
 748:../../../../../../Drivers/STM32L0xx_HAL_Driver/Src/stm32l0xx_hal_dma.c **** }
 749:../../../../../../Drivers/STM32L0xx_HAL_Driver/Src/stm32l0xx_hal_dma.c **** 
 750:../../../../../../Drivers/STM32L0xx_HAL_Driver/Src/stm32l0xx_hal_dma.c **** /**
 751:../../../../../../Drivers/STM32L0xx_HAL_Driver/Src/stm32l0xx_hal_dma.c ****   * @}
 752:../../../../../../Drivers/STM32L0xx_HAL_Driver/Src/stm32l0xx_hal_dma.c ****   */
 753:../../../../../../Drivers/STM32L0xx_HAL_Driver/Src/stm32l0xx_hal_dma.c **** 
 754:../../../../../../Drivers/STM32L0xx_HAL_Driver/Src/stm32l0xx_hal_dma.c **** /**
 755:../../../../../../Drivers/STM32L0xx_HAL_Driver/Src/stm32l0xx_hal_dma.c ****   * @}
 756:../../../../../../Drivers/STM32L0xx_HAL_Driver/Src/stm32l0xx_hal_dma.c ****   */
 757:../../../../../../Drivers/STM32L0xx_HAL_Driver/Src/stm32l0xx_hal_dma.c **** /* Private macro -------------------------------------------------------------*/
 758:../../../../../../Drivers/STM32L0xx_HAL_Driver/Src/stm32l0xx_hal_dma.c **** /* Private variables ---------------------------------------------------------*/
 759:../../../../../../Drivers/STM32L0xx_HAL_Driver/Src/stm32l0xx_hal_dma.c **** 
 760:../../../../../../Drivers/STM32L0xx_HAL_Driver/Src/stm32l0xx_hal_dma.c **** 
 761:../../../../../../Drivers/STM32L0xx_HAL_Driver/Src/stm32l0xx_hal_dma.c **** /* Private function prototypes -----------------------------------------------*/  
 762:../../../../../../Drivers/STM32L0xx_HAL_Driver/Src/stm32l0xx_hal_dma.c **** /** @addtogroup DMA_Private
 763:../../../../../../Drivers/STM32L0xx_HAL_Driver/Src/stm32l0xx_hal_dma.c ****   * @{
 764:../../../../../../Drivers/STM32L0xx_HAL_Driver/Src/stm32l0xx_hal_dma.c ****   */
 765:../../../../../../Drivers/STM32L0xx_HAL_Driver/Src/stm32l0xx_hal_dma.c ****   
 766:../../../../../../Drivers/STM32L0xx_HAL_Driver/Src/stm32l0xx_hal_dma.c ****   /*
ARM GAS  C:\Users\EBANO_~1\AppData\Local\Temp\cc4h82Al.s 			page 26


 767:../../../../../../Drivers/STM32L0xx_HAL_Driver/Src/stm32l0xx_hal_dma.c ****   * @brief  Sets the DMA Transfer parameter.
 768:../../../../../../Drivers/STM32L0xx_HAL_Driver/Src/stm32l0xx_hal_dma.c ****   * @param  hdma       pointer to a DMA_HandleTypeDef structure that contains
 769:../../../../../../Drivers/STM32L0xx_HAL_Driver/Src/stm32l0xx_hal_dma.c ****   *                     the configuration information for the specified DMA Channel.  
 770:../../../../../../Drivers/STM32L0xx_HAL_Driver/Src/stm32l0xx_hal_dma.c ****   * @param  SrcAddress The source memory Buffer address
 771:../../../../../../Drivers/STM32L0xx_HAL_Driver/Src/stm32l0xx_hal_dma.c ****   * @param  DstAddress The destination memory Buffer address
 772:../../../../../../Drivers/STM32L0xx_HAL_Driver/Src/stm32l0xx_hal_dma.c ****   * @param  DataLength The length of data to be transferred from source to destination
 773:../../../../../../Drivers/STM32L0xx_HAL_Driver/Src/stm32l0xx_hal_dma.c ****   * @retval HAL status
 774:../../../../../../Drivers/STM32L0xx_HAL_Driver/Src/stm32l0xx_hal_dma.c ****   */
 775:../../../../../../Drivers/STM32L0xx_HAL_Driver/Src/stm32l0xx_hal_dma.c **** static void DMA_SetConfig(DMA_HandleTypeDef *hdma, uint32_t SrcAddress, uint32_t DstAddress, uint32
 776:../../../../../../Drivers/STM32L0xx_HAL_Driver/Src/stm32l0xx_hal_dma.c **** {  
 777:../../../../../../Drivers/STM32L0xx_HAL_Driver/Src/stm32l0xx_hal_dma.c ****   /* Configure DMA Channel data length */
 778:../../../../../../Drivers/STM32L0xx_HAL_Driver/Src/stm32l0xx_hal_dma.c ****   hdma->Instance->CNDTR = DataLength;
 599              		.loc 1 778 0 discriminator 2
 600 001c 6360     		str	r3, [r4, #4]
 779:../../../../../../Drivers/STM32L0xx_HAL_Driver/Src/stm32l0xx_hal_dma.c ****   
 780:../../../../../../Drivers/STM32L0xx_HAL_Driver/Src/stm32l0xx_hal_dma.c ****   /* Peripheral to Memory */
 781:../../../../../../Drivers/STM32L0xx_HAL_Driver/Src/stm32l0xx_hal_dma.c ****   if((hdma->Init.Direction) == DMA_MEMORY_TO_PERIPH)
 601              		.loc 1 781 0 discriminator 2
 602 001e 8368     		ldr	r3, [r0, #8]
 603              	.LVL35:
 604 0020 102B     		cmp	r3, #16
 605 0022 07D0     		beq	.L45
 782:../../../../../../Drivers/STM32L0xx_HAL_Driver/Src/stm32l0xx_hal_dma.c ****   {   
 783:../../../../../../Drivers/STM32L0xx_HAL_Driver/Src/stm32l0xx_hal_dma.c ****     /* Configure DMA Channel destination address */
 784:../../../../../../Drivers/STM32L0xx_HAL_Driver/Src/stm32l0xx_hal_dma.c ****     hdma->Instance->CPAR = DstAddress;
 785:../../../../../../Drivers/STM32L0xx_HAL_Driver/Src/stm32l0xx_hal_dma.c ****     
 786:../../../../../../Drivers/STM32L0xx_HAL_Driver/Src/stm32l0xx_hal_dma.c ****     /* Configure DMA Channel source address */
 787:../../../../../../Drivers/STM32L0xx_HAL_Driver/Src/stm32l0xx_hal_dma.c ****     hdma->Instance->CMAR = SrcAddress;
 788:../../../../../../Drivers/STM32L0xx_HAL_Driver/Src/stm32l0xx_hal_dma.c ****   }
 789:../../../../../../Drivers/STM32L0xx_HAL_Driver/Src/stm32l0xx_hal_dma.c ****   /* Memory to Peripheral */
 790:../../../../../../Drivers/STM32L0xx_HAL_Driver/Src/stm32l0xx_hal_dma.c ****   else
 791:../../../../../../Drivers/STM32L0xx_HAL_Driver/Src/stm32l0xx_hal_dma.c ****   {
 792:../../../../../../Drivers/STM32L0xx_HAL_Driver/Src/stm32l0xx_hal_dma.c ****     /* Configure DMA Channel source address */
 793:../../../../../../Drivers/STM32L0xx_HAL_Driver/Src/stm32l0xx_hal_dma.c ****     hdma->Instance->CPAR = SrcAddress;
 606              		.loc 1 793 0
 607 0024 A160     		str	r1, [r4, #8]
 608              	.LVL36:
 794:../../../../../../Drivers/STM32L0xx_HAL_Driver/Src/stm32l0xx_hal_dma.c ****     
 795:../../../../../../Drivers/STM32L0xx_HAL_Driver/Src/stm32l0xx_hal_dma.c ****     /* Configure DMA Channel destination address */
 796:../../../../../../Drivers/STM32L0xx_HAL_Driver/Src/stm32l0xx_hal_dma.c ****     hdma->Instance->CMAR = DstAddress;
 609              		.loc 1 796 0
 610 0026 E260     		str	r2, [r4, #12]
 611              	.L43:
 612              	.LVL37:
 613              	.LBE7:
 614              	.LBE6:
 392:../../../../../../Drivers/STM32L0xx_HAL_Driver/Src/stm32l0xx_hal_dma.c **** 
 615              		.loc 1 392 0 discriminator 2
 616 0028 0122     		movs	r2, #1
 617              	.LVL38:
 394:../../../../../../Drivers/STM32L0xx_HAL_Driver/Src/stm32l0xx_hal_dma.c **** } 
 618              		.loc 1 394 0 discriminator 2
 619 002a 0020     		movs	r0, #0
 620              	.LVL39:
 392:../../../../../../Drivers/STM32L0xx_HAL_Driver/Src/stm32l0xx_hal_dma.c **** 
 621              		.loc 1 392 0 discriminator 2
 622 002c 2368     		ldr	r3, [r4]
ARM GAS  C:\Users\EBANO_~1\AppData\Local\Temp\cc4h82Al.s 			page 27


 623 002e 1343     		orrs	r3, r2
 624 0030 2360     		str	r3, [r4]
 625              	.L41:
 395:../../../../../../Drivers/STM32L0xx_HAL_Driver/Src/stm32l0xx_hal_dma.c **** 
 626              		.loc 1 395 0
 627              		@ sp needed
 628 0032 70BD     		pop	{r4, r5, r6, pc}
 629              	.LVL40:
 630              	.L45:
 631              	.LBB9:
 632              	.LBB8:
 784:../../../../../../Drivers/STM32L0xx_HAL_Driver/Src/stm32l0xx_hal_dma.c ****     
 633              		.loc 1 784 0
 634 0034 A260     		str	r2, [r4, #8]
 635              	.LVL41:
 787:../../../../../../Drivers/STM32L0xx_HAL_Driver/Src/stm32l0xx_hal_dma.c ****   }
 636              		.loc 1 787 0
 637 0036 E160     		str	r1, [r4, #12]
 638 0038 F6E7     		b	.L43
 639              	.LVL42:
 640              	.L44:
 641              	.LBE8:
 642              	.LBE9:
 377:../../../../../../Drivers/STM32L0xx_HAL_Driver/Src/stm32l0xx_hal_dma.c **** 
 643              		.loc 1 377 0
 644 003a 0220     		movs	r0, #2
 645              	.LVL43:
 646 003c F9E7     		b	.L41
 647              		.cfi_endproc
 648              	.LFE41:
 649              		.size	HAL_DMA_Start, .-HAL_DMA_Start
 650 003e C046     		.section	.text.HAL_DMA_Start_IT,"ax",%progbits
 651              		.align	1
 652              		.p2align 2,,3
 653              		.global	HAL_DMA_Start_IT
 654              		.syntax unified
 655              		.code	16
 656              		.thumb_func
 657              		.fpu softvfp
 658              		.type	HAL_DMA_Start_IT, %function
 659              	HAL_DMA_Start_IT:
 660              	.LFB42:
 407:../../../../../../Drivers/STM32L0xx_HAL_Driver/Src/stm32l0xx_hal_dma.c ****   /* Process locked */
 661              		.loc 1 407 0
 662              		.cfi_startproc
 663              		@ args = 0, pretend = 0, frame = 0
 664              		@ frame_needed = 0, uses_anonymous_args = 0
 665              	.LVL44:
 666 0000 70B5     		push	{r4, r5, r6, lr}
 667              	.LCFI2:
 668              		.cfi_def_cfa_offset 16
 669              		.cfi_offset 4, -16
 670              		.cfi_offset 5, -12
 671              		.cfi_offset 6, -8
 672              		.cfi_offset 14, -4
 409:../../../../../../Drivers/STM32L0xx_HAL_Driver/Src/stm32l0xx_hal_dma.c **** 
 673              		.loc 1 409 0
ARM GAS  C:\Users\EBANO_~1\AppData\Local\Temp\cc4h82Al.s 			page 28


 674 0002 2424     		movs	r4, #36
 675 0004 055D     		ldrb	r5, [r0, r4]
 676 0006 012D     		cmp	r5, #1
 677 0008 23D0     		beq	.L50
 409:../../../../../../Drivers/STM32L0xx_HAL_Driver/Src/stm32l0xx_hal_dma.c **** 
 678              		.loc 1 409 0 is_stmt 0 discriminator 2
 679 000a 0126     		movs	r6, #1
 412:../../../../../../Drivers/STM32L0xx_HAL_Driver/Src/stm32l0xx_hal_dma.c **** 
 680              		.loc 1 412 0 is_stmt 1 discriminator 2
 681 000c 0225     		movs	r5, #2
 409:../../../../../../Drivers/STM32L0xx_HAL_Driver/Src/stm32l0xx_hal_dma.c **** 
 682              		.loc 1 409 0 discriminator 2
 683 000e 0655     		strb	r6, [r0, r4]
 412:../../../../../../Drivers/STM32L0xx_HAL_Driver/Src/stm32l0xx_hal_dma.c **** 
 684              		.loc 1 412 0 discriminator 2
 685 0010 0134     		adds	r4, r4, #1
 686 0012 0555     		strb	r5, [r0, r4]
 418:../../../../../../Drivers/STM32L0xx_HAL_Driver/Src/stm32l0xx_hal_dma.c ****   
 687              		.loc 1 418 0 discriminator 2
 688 0014 0468     		ldr	r4, [r0]
 689 0016 2568     		ldr	r5, [r4]
 690 0018 B543     		bics	r5, r6
 691 001a 2560     		str	r5, [r4]
 692              	.LVL45:
 693              	.LBB10:
 694              	.LBB11:
 778:../../../../../../Drivers/STM32L0xx_HAL_Driver/Src/stm32l0xx_hal_dma.c ****   
 695              		.loc 1 778 0 discriminator 2
 696 001c 6360     		str	r3, [r4, #4]
 781:../../../../../../Drivers/STM32L0xx_HAL_Driver/Src/stm32l0xx_hal_dma.c ****   {   
 697              		.loc 1 781 0 discriminator 2
 698 001e 8368     		ldr	r3, [r0, #8]
 699              	.LVL46:
 700 0020 102B     		cmp	r3, #16
 701 0022 13D0     		beq	.L51
 793:../../../../../../Drivers/STM32L0xx_HAL_Driver/Src/stm32l0xx_hal_dma.c ****     
 702              		.loc 1 793 0
 703 0024 A160     		str	r1, [r4, #8]
 704              	.LVL47:
 705              		.loc 1 796 0
 706 0026 E260     		str	r2, [r4, #12]
 707              	.L49:
 708              	.LVL48:
 709              	.LBE11:
 710              	.LBE10:
 424:../../../../../../Drivers/STM32L0xx_HAL_Driver/Src/stm32l0xx_hal_dma.c **** 
 711              		.loc 1 424 0 discriminator 2
 712 0028 0222     		movs	r2, #2
 713              	.LVL49:
 435:../../../../../../Drivers/STM32L0xx_HAL_Driver/Src/stm32l0xx_hal_dma.c **** } 
 714              		.loc 1 435 0 discriminator 2
 715 002a 0020     		movs	r0, #0
 716              	.LVL50:
 424:../../../../../../Drivers/STM32L0xx_HAL_Driver/Src/stm32l0xx_hal_dma.c **** 
 717              		.loc 1 424 0 discriminator 2
 718 002c 2368     		ldr	r3, [r4]
 719 002e 1343     		orrs	r3, r2
ARM GAS  C:\Users\EBANO_~1\AppData\Local\Temp\cc4h82Al.s 			page 29


 720 0030 2360     		str	r3, [r4]
 427:../../../../../../Drivers/STM32L0xx_HAL_Driver/Src/stm32l0xx_hal_dma.c **** 
 721              		.loc 1 427 0 discriminator 2
 722 0032 2368     		ldr	r3, [r4]
 723 0034 0232     		adds	r2, r2, #2
 724 0036 1343     		orrs	r3, r2
 725 0038 2360     		str	r3, [r4]
 430:../../../../../../Drivers/STM32L0xx_HAL_Driver/Src/stm32l0xx_hal_dma.c ****   
 726              		.loc 1 430 0 discriminator 2
 727 003a 2368     		ldr	r3, [r4]
 728 003c 0432     		adds	r2, r2, #4
 729 003e 1343     		orrs	r3, r2
 730 0040 2360     		str	r3, [r4]
 433:../../../../../../Drivers/STM32L0xx_HAL_Driver/Src/stm32l0xx_hal_dma.c ****   
 731              		.loc 1 433 0 discriminator 2
 732 0042 2368     		ldr	r3, [r4]
 733 0044 073A     		subs	r2, r2, #7
 734 0046 1343     		orrs	r3, r2
 735 0048 2360     		str	r3, [r4]
 736              	.L47:
 436:../../../../../../Drivers/STM32L0xx_HAL_Driver/Src/stm32l0xx_hal_dma.c **** 
 737              		.loc 1 436 0
 738              		@ sp needed
 739 004a 70BD     		pop	{r4, r5, r6, pc}
 740              	.LVL51:
 741              	.L51:
 742              	.LBB13:
 743              	.LBB12:
 784:../../../../../../Drivers/STM32L0xx_HAL_Driver/Src/stm32l0xx_hal_dma.c ****     
 744              		.loc 1 784 0
 745 004c A260     		str	r2, [r4, #8]
 746              	.LVL52:
 787:../../../../../../Drivers/STM32L0xx_HAL_Driver/Src/stm32l0xx_hal_dma.c ****   }
 747              		.loc 1 787 0
 748 004e E160     		str	r1, [r4, #12]
 749 0050 EAE7     		b	.L49
 750              	.LVL53:
 751              	.L50:
 752              	.LBE12:
 753              	.LBE13:
 409:../../../../../../Drivers/STM32L0xx_HAL_Driver/Src/stm32l0xx_hal_dma.c **** 
 754              		.loc 1 409 0
 755 0052 0220     		movs	r0, #2
 756              	.LVL54:
 757 0054 F9E7     		b	.L47
 758              		.cfi_endproc
 759              	.LFE42:
 760              		.size	HAL_DMA_Start_IT, .-HAL_DMA_Start_IT
 761 0056 C046     		.section	.text.HAL_DMA_Abort,"ax",%progbits
 762              		.align	1
 763              		.p2align 2,,3
 764              		.global	HAL_DMA_Abort
 765              		.syntax unified
 766              		.code	16
 767              		.thumb_func
 768              		.fpu softvfp
 769              		.type	HAL_DMA_Abort, %function
ARM GAS  C:\Users\EBANO_~1\AppData\Local\Temp\cc4h82Al.s 			page 30


 770              	HAL_DMA_Abort:
 771              	.LFB43:
 445:../../../../../../Drivers/STM32L0xx_HAL_Driver/Src/stm32l0xx_hal_dma.c ****   uint32_t tickstart = 0U;
 772              		.loc 1 445 0
 773              		.cfi_startproc
 774              		@ args = 0, pretend = 0, frame = 0
 775              		@ frame_needed = 0, uses_anonymous_args = 0
 776              	.LVL55:
 449:../../../../../../Drivers/STM32L0xx_HAL_Driver/Src/stm32l0xx_hal_dma.c ****   
 777              		.loc 1 449 0
 778 0000 0121     		movs	r1, #1
 779 0002 0268     		ldr	r2, [r0]
 445:../../../../../../Drivers/STM32L0xx_HAL_Driver/Src/stm32l0xx_hal_dma.c ****   uint32_t tickstart = 0U;
 780              		.loc 1 445 0
 781 0004 F8B5     		push	{r3, r4, r5, r6, r7, lr}
 782              	.LCFI3:
 783              		.cfi_def_cfa_offset 24
 784              		.cfi_offset 3, -24
 785              		.cfi_offset 4, -20
 786              		.cfi_offset 5, -16
 787              		.cfi_offset 6, -12
 788              		.cfi_offset 7, -8
 789              		.cfi_offset 14, -4
 449:../../../../../../Drivers/STM32L0xx_HAL_Driver/Src/stm32l0xx_hal_dma.c ****   
 790              		.loc 1 449 0
 791 0006 1368     		ldr	r3, [r2]
 445:../../../../../../Drivers/STM32L0xx_HAL_Driver/Src/stm32l0xx_hal_dma.c ****   uint32_t tickstart = 0U;
 792              		.loc 1 445 0
 793 0008 0400     		movs	r4, r0
 449:../../../../../../Drivers/STM32L0xx_HAL_Driver/Src/stm32l0xx_hal_dma.c ****   
 794              		.loc 1 449 0
 795 000a 8B43     		bics	r3, r1
 796 000c 1360     		str	r3, [r2]
 452:../../../../../../Drivers/STM32L0xx_HAL_Driver/Src/stm32l0xx_hal_dma.c ****   
 797              		.loc 1 452 0
 798 000e FFF7FEFF 		bl	HAL_GetTick
 799              	.LVL56:
 458:../../../../../../Drivers/STM32L0xx_HAL_Driver/Src/stm32l0xx_hal_dma.c ****     {
 800              		.loc 1 458 0
 801 0012 FA26     		movs	r6, #250
 452:../../../../../../Drivers/STM32L0xx_HAL_Driver/Src/stm32l0xx_hal_dma.c ****   
 802              		.loc 1 452 0
 803 0014 0700     		movs	r7, r0
 804              	.LVL57:
 455:../../../../../../Drivers/STM32L0xx_HAL_Driver/Src/stm32l0xx_hal_dma.c ****   {
 805              		.loc 1 455 0
 806 0016 0125     		movs	r5, #1
 458:../../../../../../Drivers/STM32L0xx_HAL_Driver/Src/stm32l0xx_hal_dma.c ****     {
 807              		.loc 1 458 0
 808 0018 B600     		lsls	r6, r6, #2
 455:../../../../../../Drivers/STM32L0xx_HAL_Driver/Src/stm32l0xx_hal_dma.c ****   {
 809              		.loc 1 455 0
 810 001a 04E0     		b	.L53
 811              	.LVL58:
 812              	.L55:
 458:../../../../../../Drivers/STM32L0xx_HAL_Driver/Src/stm32l0xx_hal_dma.c ****     {
 813              		.loc 1 458 0
ARM GAS  C:\Users\EBANO_~1\AppData\Local\Temp\cc4h82Al.s 			page 31


 814 001c FFF7FEFF 		bl	HAL_GetTick
 815              	.LVL59:
 816 0020 C01B     		subs	r0, r0, r7
 817 0022 B042     		cmp	r0, r6
 818 0024 09D8     		bhi	.L57
 819              	.L53:
 455:../../../../../../Drivers/STM32L0xx_HAL_Driver/Src/stm32l0xx_hal_dma.c ****   {
 820              		.loc 1 455 0
 821 0026 2368     		ldr	r3, [r4]
 822 0028 1B68     		ldr	r3, [r3]
 823 002a 2B40     		ands	r3, r5
 824 002c F6D1     		bne	.L55
 473:../../../../../../Drivers/STM32L0xx_HAL_Driver/Src/stm32l0xx_hal_dma.c ****   
 825              		.loc 1 473 0
 826 002e 2422     		movs	r2, #36
 478:../../../../../../Drivers/STM32L0xx_HAL_Driver/Src/stm32l0xx_hal_dma.c **** }
 827              		.loc 1 478 0
 828 0030 0020     		movs	r0, #0
 473:../../../../../../Drivers/STM32L0xx_HAL_Driver/Src/stm32l0xx_hal_dma.c ****   
 829              		.loc 1 473 0
 830 0032 A354     		strb	r3, [r4, r2]
 476:../../../../../../Drivers/STM32L0xx_HAL_Driver/Src/stm32l0xx_hal_dma.c ****   
 831              		.loc 1 476 0
 832 0034 2533     		adds	r3, r3, #37
 833 0036 E554     		strb	r5, [r4, r3]
 834              	.L54:
 479:../../../../../../Drivers/STM32L0xx_HAL_Driver/Src/stm32l0xx_hal_dma.c **** 
 835              		.loc 1 479 0
 836              		@ sp needed
 837              	.LVL60:
 838              	.LVL61:
 839 0038 F8BD     		pop	{r3, r4, r5, r6, r7, pc}
 840              	.LVL62:
 841              	.L57:
 461:../../../../../../Drivers/STM32L0xx_HAL_Driver/Src/stm32l0xx_hal_dma.c ****       
 842              		.loc 1 461 0
 843 003a 2022     		movs	r2, #32
 844 003c E36B     		ldr	r3, [r4, #60]
 469:../../../../../../Drivers/STM32L0xx_HAL_Driver/Src/stm32l0xx_hal_dma.c ****     }
 845              		.loc 1 469 0
 846 003e 0320     		movs	r0, #3
 461:../../../../../../Drivers/STM32L0xx_HAL_Driver/Src/stm32l0xx_hal_dma.c ****       
 847              		.loc 1 461 0
 848 0040 1343     		orrs	r3, r2
 849 0042 E363     		str	r3, [r4, #60]
 464:../../../../../../Drivers/STM32L0xx_HAL_Driver/Src/stm32l0xx_hal_dma.c ****       
 850              		.loc 1 464 0
 851 0044 0022     		movs	r2, #0
 852 0046 2423     		movs	r3, #36
 853 0048 E254     		strb	r2, [r4, r3]
 467:../../../../../../Drivers/STM32L0xx_HAL_Driver/Src/stm32l0xx_hal_dma.c ****       
 854              		.loc 1 467 0
 855 004a 0133     		adds	r3, r3, #1
 856 004c 0332     		adds	r2, r2, #3
 857 004e E254     		strb	r2, [r4, r3]
 469:../../../../../../Drivers/STM32L0xx_HAL_Driver/Src/stm32l0xx_hal_dma.c ****     }
 858              		.loc 1 469 0
ARM GAS  C:\Users\EBANO_~1\AppData\Local\Temp\cc4h82Al.s 			page 32


 859 0050 F2E7     		b	.L54
 860              		.cfi_endproc
 861              	.LFE43:
 862              		.size	HAL_DMA_Abort, .-HAL_DMA_Abort
 863 0052 C046     		.section	.text.HAL_DMA_Abort_IT,"ax",%progbits
 864              		.align	1
 865              		.p2align 2,,3
 866              		.global	HAL_DMA_Abort_IT
 867              		.syntax unified
 868              		.code	16
 869              		.thumb_func
 870              		.fpu softvfp
 871              		.type	HAL_DMA_Abort_IT, %function
 872              	HAL_DMA_Abort_IT:
 873              	.LFB44:
 488:../../../../../../Drivers/STM32L0xx_HAL_Driver/Src/stm32l0xx_hal_dma.c ****   HAL_StatusTypeDef status = HAL_OK;
 874              		.loc 1 488 0
 875              		.cfi_startproc
 876              		@ args = 0, pretend = 0, frame = 0
 877              		@ frame_needed = 0, uses_anonymous_args = 0
 878              	.LVL63:
 491:../../../../../../Drivers/STM32L0xx_HAL_Driver/Src/stm32l0xx_hal_dma.c ****   {
 879              		.loc 1 491 0
 880 0000 2523     		movs	r3, #37
 488:../../../../../../Drivers/STM32L0xx_HAL_Driver/Src/stm32l0xx_hal_dma.c ****   HAL_StatusTypeDef status = HAL_OK;
 881              		.loc 1 488 0
 882 0002 10B5     		push	{r4, lr}
 883              	.LCFI4:
 884              		.cfi_def_cfa_offset 8
 885              		.cfi_offset 4, -8
 886              		.cfi_offset 14, -4
 491:../../../../../../Drivers/STM32L0xx_HAL_Driver/Src/stm32l0xx_hal_dma.c ****   {
 887              		.loc 1 491 0
 888 0004 C35C     		ldrb	r3, [r0, r3]
 889 0006 022B     		cmp	r3, #2
 890 0008 03D0     		beq	.L59
 494:../../../../../../Drivers/STM32L0xx_HAL_Driver/Src/stm32l0xx_hal_dma.c ****         
 891              		.loc 1 494 0
 892 000a 0423     		movs	r3, #4
 893 000c C363     		str	r3, [r0, #60]
 894              	.LVL64:
 496:../../../../../../Drivers/STM32L0xx_HAL_Driver/Src/stm32l0xx_hal_dma.c ****   }
 895              		.loc 1 496 0
 896 000e 0120     		movs	r0, #1
 897              	.LVL65:
 898              	.L60:
 522:../../../../../../Drivers/STM32L0xx_HAL_Driver/Src/stm32l0xx_hal_dma.c **** 
 899              		.loc 1 522 0
 900              		@ sp needed
 901 0010 10BD     		pop	{r4, pc}
 902              	.LVL66:
 903              	.L59:
 501:../../../../../../Drivers/STM32L0xx_HAL_Driver/Src/stm32l0xx_hal_dma.c ****     
 904              		.loc 1 501 0
 905 0012 0E21     		movs	r1, #14
 906 0014 0368     		ldr	r3, [r0]
 907 0016 1A68     		ldr	r2, [r3]
ARM GAS  C:\Users\EBANO_~1\AppData\Local\Temp\cc4h82Al.s 			page 33


 908 0018 8A43     		bics	r2, r1
 909 001a 1A60     		str	r2, [r3]
 504:../../../../../../Drivers/STM32L0xx_HAL_Driver/Src/stm32l0xx_hal_dma.c ****     
 910              		.loc 1 504 0
 911 001c 1A68     		ldr	r2, [r3]
 912 001e 0D39     		subs	r1, r1, #13
 913 0020 8A43     		bics	r2, r1
 914 0022 1A60     		str	r2, [r3]
 507:../../../../../../Drivers/STM32L0xx_HAL_Driver/Src/stm32l0xx_hal_dma.c ****     
 915              		.loc 1 507 0
 916 0024 1B4A     		ldr	r2, .L69
 917 0026 9342     		cmp	r3, r2
 918 0028 27D0     		beq	.L62
 507:../../../../../../Drivers/STM32L0xx_HAL_Driver/Src/stm32l0xx_hal_dma.c ****     
 919              		.loc 1 507 0 is_stmt 0 discriminator 1
 920 002a 1B4A     		ldr	r2, .L69+4
 921 002c 9342     		cmp	r3, r2
 922 002e 22D0     		beq	.L63
 507:../../../../../../Drivers/STM32L0xx_HAL_Driver/Src/stm32l0xx_hal_dma.c ****     
 923              		.loc 1 507 0 discriminator 3
 924 0030 1A4A     		ldr	r2, .L69+8
 925 0032 9342     		cmp	r3, r2
 926 0034 23D0     		beq	.L64
 507:../../../../../../Drivers/STM32L0xx_HAL_Driver/Src/stm32l0xx_hal_dma.c ****     
 927              		.loc 1 507 0 discriminator 5
 928 0036 1A4A     		ldr	r2, .L69+12
 929 0038 9342     		cmp	r3, r2
 930 003a 23D0     		beq	.L65
 507:../../../../../../Drivers/STM32L0xx_HAL_Driver/Src/stm32l0xx_hal_dma.c ****     
 931              		.loc 1 507 0 discriminator 7
 932 003c 194A     		ldr	r2, .L69+16
 933 003e 9342     		cmp	r3, r2
 934 0040 23D0     		beq	.L66
 507:../../../../../../Drivers/STM32L0xx_HAL_Driver/Src/stm32l0xx_hal_dma.c ****     
 935              		.loc 1 507 0 discriminator 9
 936 0042 194A     		ldr	r2, .L69+20
 937 0044 9446     		mov	ip, r2
 938 0046 6344     		add	r3, r3, ip
 939 0048 5A42     		rsbs	r2, r3, #0
 940 004a 5341     		adcs	r3, r3, r2
 941 004c 174A     		ldr	r2, .L69+24
 942 004e 5B42     		rsbs	r3, r3, #0
 943 0050 1340     		ands	r3, r2
 944 0052 8022     		movs	r2, #128
 945 0054 5204     		lsls	r2, r2, #17
 946 0056 9446     		mov	ip, r2
 947 0058 6344     		add	r3, r3, ip
 948              	.L61:
 507:../../../../../../Drivers/STM32L0xx_HAL_Driver/Src/stm32l0xx_hal_dma.c ****     
 949              		.loc 1 507 0 discriminator 24
 950 005a 154A     		ldr	r2, .L69+28
 951 005c 5360     		str	r3, [r2, #4]
 510:../../../../../../Drivers/STM32L0xx_HAL_Driver/Src/stm32l0xx_hal_dma.c ****     
 952              		.loc 1 510 0 is_stmt 1 discriminator 24
 953 005e 2523     		movs	r3, #37
 954 0060 0122     		movs	r2, #1
 955 0062 C254     		strb	r2, [r0, r3]
ARM GAS  C:\Users\EBANO_~1\AppData\Local\Temp\cc4h82Al.s 			page 34


 513:../../../../../../Drivers/STM32L0xx_HAL_Driver/Src/stm32l0xx_hal_dma.c ****     
 956              		.loc 1 513 0 discriminator 24
 957 0064 0022     		movs	r2, #0
 958 0066 013B     		subs	r3, r3, #1
 959 0068 C254     		strb	r2, [r0, r3]
 516:../../../../../../Drivers/STM32L0xx_HAL_Driver/Src/stm32l0xx_hal_dma.c ****     {
 960              		.loc 1 516 0 discriminator 24
 961 006a 836B     		ldr	r3, [r0, #56]
 962 006c 002B     		cmp	r3, #0
 963 006e 0FD0     		beq	.L68
 518:../../../../../../Drivers/STM32L0xx_HAL_Driver/Src/stm32l0xx_hal_dma.c ****     } 
 964              		.loc 1 518 0
 965 0070 9847     		blx	r3
 966              	.LVL67:
 489:../../../../../../Drivers/STM32L0xx_HAL_Driver/Src/stm32l0xx_hal_dma.c ****   
 967              		.loc 1 489 0
 968 0072 0020     		movs	r0, #0
 969 0074 CCE7     		b	.L60
 970              	.LVL68:
 971              	.L63:
 507:../../../../../../Drivers/STM32L0xx_HAL_Driver/Src/stm32l0xx_hal_dma.c ****     
 972              		.loc 1 507 0
 973 0076 1023     		movs	r3, #16
 974 0078 EFE7     		b	.L61
 975              	.L62:
 976 007a 0123     		movs	r3, #1
 977 007c EDE7     		b	.L61
 978              	.L64:
 979 007e 8023     		movs	r3, #128
 980 0080 5B00     		lsls	r3, r3, #1
 981 0082 EAE7     		b	.L61
 982              	.L65:
 983 0084 8023     		movs	r3, #128
 984 0086 5B01     		lsls	r3, r3, #5
 985 0088 E7E7     		b	.L61
 986              	.L66:
 987 008a 8023     		movs	r3, #128
 988 008c 5B02     		lsls	r3, r3, #9
 989 008e E4E7     		b	.L61
 990              	.L68:
 489:../../../../../../Drivers/STM32L0xx_HAL_Driver/Src/stm32l0xx_hal_dma.c ****   
 991              		.loc 1 489 0
 992 0090 0020     		movs	r0, #0
 993              	.LVL69:
 994 0092 BDE7     		b	.L60
 995              	.L70:
 996              		.align	2
 997              	.L69:
 998 0094 08000240 		.word	1073872904
 999 0098 1C000240 		.word	1073872924
 1000 009c 30000240 		.word	1073872944
 1001 00a0 44000240 		.word	1073872964
 1002 00a4 58000240 		.word	1073872984
 1003 00a8 94FFFDBF 		.word	-1073873004
 1004 00ac 000010FF 		.word	-15728640
 1005 00b0 00000240 		.word	1073872896
 1006              		.cfi_endproc
ARM GAS  C:\Users\EBANO_~1\AppData\Local\Temp\cc4h82Al.s 			page 35


 1007              	.LFE44:
 1008              		.size	HAL_DMA_Abort_IT, .-HAL_DMA_Abort_IT
 1009              		.section	.text.HAL_DMA_PollForTransfer,"ax",%progbits
 1010              		.align	1
 1011              		.p2align 2,,3
 1012              		.global	HAL_DMA_PollForTransfer
 1013              		.syntax unified
 1014              		.code	16
 1015              		.thumb_func
 1016              		.fpu softvfp
 1017              		.type	HAL_DMA_PollForTransfer, %function
 1018              	HAL_DMA_PollForTransfer:
 1019              	.LFB45:
 533:../../../../../../Drivers/STM32L0xx_HAL_Driver/Src/stm32l0xx_hal_dma.c ****   uint32_t temp;
 1020              		.loc 1 533 0
 1021              		.cfi_startproc
 1022              		@ args = 0, pretend = 0, frame = 8
 1023              		@ frame_needed = 0, uses_anonymous_args = 0
 1024              	.LVL70:
 1025 0000 F0B5     		push	{r4, r5, r6, r7, lr}
 1026              	.LCFI5:
 1027              		.cfi_def_cfa_offset 20
 1028              		.cfi_offset 4, -20
 1029              		.cfi_offset 5, -16
 1030              		.cfi_offset 6, -12
 1031              		.cfi_offset 7, -8
 1032              		.cfi_offset 14, -4
 1033 0002 4E46     		mov	r6, r9
 1034 0004 4546     		mov	r5, r8
 1035 0006 DE46     		mov	lr, fp
 1036 0008 5746     		mov	r7, r10
 1037 000a E0B5     		push	{r5, r6, r7, lr}
 1038              	.LCFI6:
 1039              		.cfi_def_cfa_offset 36
 1040              		.cfi_offset 8, -36
 1041              		.cfi_offset 9, -32
 1042              		.cfi_offset 10, -28
 1043              		.cfi_offset 11, -24
 1044 000c 83B0     		sub	sp, sp, #12
 1045              	.LCFI7:
 1046              		.cfi_def_cfa_offset 48
 533:../../../../../../Drivers/STM32L0xx_HAL_Driver/Src/stm32l0xx_hal_dma.c ****   uint32_t temp;
 1047              		.loc 1 533 0
 1048 000e 0500     		movs	r5, r0
 1049 0010 0191     		str	r1, [sp, #4]
 1050 0012 1600     		movs	r6, r2
 1051 0014 0368     		ldr	r3, [r0]
 538:../../../../../../Drivers/STM32L0xx_HAL_Driver/Src/stm32l0xx_hal_dma.c ****   {
 1052              		.loc 1 538 0
 1053 0016 0029     		cmp	r1, #0
 1054 0018 00D0     		beq	.LCB961
 1055 001a 70E0     		b	.L72	@long jump
 1056              	.LCB961:
 541:../../../../../../Drivers/STM32L0xx_HAL_Driver/Src/stm32l0xx_hal_dma.c ****   }
 1057              		.loc 1 541 0
 1058 001c C24A     		ldr	r2, .L173
 1059              	.LVL71:
ARM GAS  C:\Users\EBANO_~1\AppData\Local\Temp\cc4h82Al.s 			page 36


 1060 001e 9342     		cmp	r3, r2
 1061 0020 00D1     		bne	.LCB965
 1062 0022 8EE0     		b	.L107	@long jump
 1063              	.LCB965:
 541:../../../../../../Drivers/STM32L0xx_HAL_Driver/Src/stm32l0xx_hal_dma.c ****   }
 1064              		.loc 1 541 0 is_stmt 0 discriminator 1
 1065 0024 C14A     		ldr	r2, .L173+4
 1066 0026 9342     		cmp	r3, r2
 1067 0028 00D1     		bne	.LCB968
 1068 002a 1BE1     		b	.L108	@long jump
 1069              	.LCB968:
 541:../../../../../../Drivers/STM32L0xx_HAL_Driver/Src/stm32l0xx_hal_dma.c ****   }
 1070              		.loc 1 541 0 discriminator 3
 1071 002c C04A     		ldr	r2, .L173+8
 1072 002e 9342     		cmp	r3, r2
 1073 0030 00D1     		bne	.LCB971
 1074 0032 88E0     		b	.L109	@long jump
 1075              	.LCB971:
 541:../../../../../../Drivers/STM32L0xx_HAL_Driver/Src/stm32l0xx_hal_dma.c ****   }
 1076              		.loc 1 541 0 discriminator 5
 1077 0034 BF4A     		ldr	r2, .L173+12
 1078 0036 9342     		cmp	r3, r2
 1079 0038 00D1     		bne	.LCB974
 1080 003a 6EE1     		b	.L110	@long jump
 1081              	.LCB974:
 541:../../../../../../Drivers/STM32L0xx_HAL_Driver/Src/stm32l0xx_hal_dma.c ****   }
 1082              		.loc 1 541 0 discriminator 7
 1083 003c BE4A     		ldr	r2, .L173+16
 1084 003e 9342     		cmp	r3, r2
 1085 0040 00D1     		bne	.LCB977
 1086 0042 A1E1     		b	.L111	@long jump
 1087              	.LCB977:
 541:../../../../../../Drivers/STM32L0xx_HAL_Driver/Src/stm32l0xx_hal_dma.c ****   }
 1088              		.loc 1 541 0 discriminator 9
 1089 0044 BD4A     		ldr	r2, .L173+20
 1090 0046 9446     		mov	ip, r2
 1091 0048 6344     		add	r3, r3, ip
 1092 004a 5C1E     		subs	r4, r3, #1
 1093 004c A341     		sbcs	r3, r3, r4
 1094 004e 5C42     		rsbs	r4, r3, #0
 1095 0050 F023     		movs	r3, #240
 1096 0052 5B04     		lsls	r3, r3, #17
 1097 0054 1C40     		ands	r4, r3
 1098 0056 8023     		movs	r3, #128
 1099 0058 9B03     		lsls	r3, r3, #14
 1100 005a 9C46     		mov	ip, r3
 1101 005c 6444     		add	r4, r4, ip
 1102              	.L73:
 1103              	.LVL72:
 550:../../../../../../Drivers/STM32L0xx_HAL_Driver/Src/stm32l0xx_hal_dma.c **** 
 1104              		.loc 1 550 0 is_stmt 1
 1105 005e FFF7FEFF 		bl	HAL_GetTick
 1106              	.LVL73:
 1107 0062 B74B     		ldr	r3, .L173+24
 1108 0064 8146     		mov	r9, r0
 1109              	.LVL74:
 1110 0066 9B46     		mov	fp, r3
ARM GAS  C:\Users\EBANO_~1\AppData\Local\Temp\cc4h82Al.s 			page 37


 552:../../../../../../Drivers/STM32L0xx_HAL_Driver/Src/stm32l0xx_hal_dma.c ****   {
 1111              		.loc 1 552 0
 1112 0068 B64B     		ldr	r3, .L173+28
 1113 006a 9846     		mov	r8, r3
 554:../../../../../../Drivers/STM32L0xx_HAL_Driver/Src/stm32l0xx_hal_dma.c ****     {      
 1114              		.loc 1 554 0
 1115 006c 8023     		movs	r3, #128
 1116 006e 1B04     		lsls	r3, r3, #16
 1117 0070 9A46     		mov	r10, r3
 1118              	.LVL75:
 1119              	.L74:
 1120 0072 2B68     		ldr	r3, [r5]
 1121 0074 721C     		adds	r2, r6, #1
 1122 0076 00D0     		beq	.LCB1011
 1123 0078 F8E0     		b	.L79	@long jump
 1124              	.LCB1011:
 1125 007a B14A     		ldr	r2, .L173+24
 1126 007c 9342     		cmp	r3, r2
 1127 007e 68D0     		beq	.L162
 1128 0080 A94A     		ldr	r2, .L173
 1129 0082 9342     		cmp	r3, r2
 1130 0084 00D1     		bne	.LCB1017
 1131 0086 A3E0     		b	.L163	@long jump
 1132              	.LCB1017:
 1133 0088 A84A     		ldr	r2, .L173+4
 1134 008a 9342     		cmp	r3, r2
 1135 008c 00D1     		bne	.LCB1020
 1136 008e B2E0     		b	.L160	@long jump
 1137              	.LCB1020:
 1138 0090 A84A     		ldr	r2, .L173+12
 552:../../../../../../Drivers/STM32L0xx_HAL_Driver/Src/stm32l0xx_hal_dma.c ****   {
 1139              		.loc 1 552 0
 1140 0092 AC49     		ldr	r1, .L173+28
 554:../../../../../../Drivers/STM32L0xx_HAL_Driver/Src/stm32l0xx_hal_dma.c ****     {      
 1141              		.loc 1 554 0
 1142 0094 9046     		mov	r8, r2
 1143 0096 AC4A     		ldr	r2, .L173+32
 1144 0098 A54E     		ldr	r6, .L173+8
 1145              	.LVL76:
 1146 009a 9A18     		adds	r2, r3, r2
 1147 009c 5042     		rsbs	r0, r2, #0
 1148 009e 4241     		adcs	r2, r2, r0
 1149 00a0 5242     		rsbs	r2, r2, #0
 1150 00a2 9446     		mov	ip, r2
 1151 00a4 A94A     		ldr	r2, .L173+36
 1152 00a6 9146     		mov	r9, r2
 1153              	.LVL77:
 1154 00a8 0BE0     		b	.L85
 1155              	.L164:
 1156 00aa 4345     		cmp	r3, r8
 1157 00ac 00D1     		bne	.LCB1039
 1158 00ae 8CE0     		b	.L122	@long jump
 1159              	.LCB1039:
 1160 00b0 4F46     		mov	r7, r9
 1161 00b2 6246     		mov	r2, ip
 1162 00b4 3A40     		ands	r2, r7
 1163 00b6 8027     		movs	r7, #128
ARM GAS  C:\Users\EBANO_~1\AppData\Local\Temp\cc4h82Al.s 			page 38


 1164 00b8 3F05     		lsls	r7, r7, #20
 1165 00ba BA46     		mov	r10, r7
 1166 00bc 5244     		add	r2, r2, r10
 1167              	.L89:
 1168 00be 0242     		tst	r2, r0
 1169 00c0 09D1     		bne	.L83
 1170              	.L85:
 552:../../../../../../Drivers/STM32L0xx_HAL_Driver/Src/stm32l0xx_hal_dma.c ****   {
 1171              		.loc 1 552 0
 1172 00c2 0A68     		ldr	r2, [r1]
 1173 00c4 2242     		tst	r2, r4
 1174 00c6 62D1     		bne	.L88
 554:../../../../../../Drivers/STM32L0xx_HAL_Driver/Src/stm32l0xx_hal_dma.c ****     {      
 1175              		.loc 1 554 0
 1176 00c8 0868     		ldr	r0, [r1]
 1177 00ca B342     		cmp	r3, r6
 1178 00cc EDD1     		bne	.L164
 1179 00ce 8022     		movs	r2, #128
 1180 00d0 1201     		lsls	r2, r2, #4
 1181 00d2 0242     		tst	r2, r0
 1182 00d4 F5D0     		beq	.L85
 1183              	.L83:
 557:../../../../../../Drivers/STM32L0xx_HAL_Driver/Src/stm32l0xx_hal_dma.c ****       
 1184              		.loc 1 557 0
 1185 00d6 9B4B     		ldr	r3, .L173+28
 568:../../../../../../Drivers/STM32L0xx_HAL_Driver/Src/stm32l0xx_hal_dma.c ****     }      
 1186              		.loc 1 568 0
 1187 00d8 0120     		movs	r0, #1
 557:../../../../../../Drivers/STM32L0xx_HAL_Driver/Src/stm32l0xx_hal_dma.c ****       
 1188              		.loc 1 557 0
 1189 00da 5A60     		str	r2, [r3, #4]
 560:../../../../../../Drivers/STM32L0xx_HAL_Driver/Src/stm32l0xx_hal_dma.c ****       
 1190              		.loc 1 560 0
 1191 00dc 0122     		movs	r2, #1
 1192 00de EB6B     		ldr	r3, [r5, #60]
 1193 00e0 1343     		orrs	r3, r2
 1194 00e2 EB63     		str	r3, [r5, #60]
 563:../../../../../../Drivers/STM32L0xx_HAL_Driver/Src/stm32l0xx_hal_dma.c ****       
 1195              		.loc 1 563 0
 1196 00e4 2523     		movs	r3, #37
 1197 00e6 0332     		adds	r2, r2, #3
 1198 00e8 EA54     		strb	r2, [r5, r3]
 566:../../../../../../Drivers/STM32L0xx_HAL_Driver/Src/stm32l0xx_hal_dma.c ****       
 1199              		.loc 1 566 0
 1200 00ea 0022     		movs	r2, #0
 1201 00ec 013B     		subs	r3, r3, #1
 1202 00ee EA54     		strb	r2, [r5, r3]
 1203              	.L158:
 615:../../../../../../Drivers/STM32L0xx_HAL_Driver/Src/stm32l0xx_hal_dma.c **** /**
 1204              		.loc 1 615 0
 1205 00f0 03B0     		add	sp, sp, #12
 1206              		@ sp needed
 1207              	.LVL78:
 1208              	.LVL79:
 1209 00f2 3CBC     		pop	{r2, r3, r4, r5}
 1210 00f4 9046     		mov	r8, r2
 1211 00f6 9946     		mov	r9, r3
ARM GAS  C:\Users\EBANO_~1\AppData\Local\Temp\cc4h82Al.s 			page 39


 1212 00f8 A246     		mov	r10, r4
 1213 00fa AB46     		mov	fp, r5
 1214 00fc F0BD     		pop	{r4, r5, r6, r7, pc}
 1215              	.LVL80:
 1216              	.L72:
 546:../../../../../../Drivers/STM32L0xx_HAL_Driver/Src/stm32l0xx_hal_dma.c ****   }
 1217              		.loc 1 546 0
 1218 00fe 8A4A     		ldr	r2, .L173
 1219              	.LVL81:
 1220 0100 9342     		cmp	r3, r2
 1221 0102 1CD0     		beq	.L113
 546:../../../../../../Drivers/STM32L0xx_HAL_Driver/Src/stm32l0xx_hal_dma.c ****   }
 1222              		.loc 1 546 0 is_stmt 0 discriminator 1
 1223 0104 894A     		ldr	r2, .L173+4
 1224 0106 9342     		cmp	r3, r2
 1225 0108 00D1     		bne	.LCB1111
 1226 010a A9E0     		b	.L114	@long jump
 1227              	.LCB1111:
 546:../../../../../../Drivers/STM32L0xx_HAL_Driver/Src/stm32l0xx_hal_dma.c ****   }
 1228              		.loc 1 546 0 discriminator 3
 1229 010c 884A     		ldr	r2, .L173+8
 1230 010e 9342     		cmp	r3, r2
 1231 0110 1CD0     		beq	.L115
 546:../../../../../../Drivers/STM32L0xx_HAL_Driver/Src/stm32l0xx_hal_dma.c ****   }
 1232              		.loc 1 546 0 discriminator 5
 1233 0112 884A     		ldr	r2, .L173+12
 1234 0114 9342     		cmp	r3, r2
 1235 0116 00D1     		bne	.LCB1117
 1236 0118 FCE0     		b	.L116	@long jump
 1237              	.LCB1117:
 546:../../../../../../Drivers/STM32L0xx_HAL_Driver/Src/stm32l0xx_hal_dma.c ****   }
 1238              		.loc 1 546 0 discriminator 7
 1239 011a 874A     		ldr	r2, .L173+16
 1240 011c 9342     		cmp	r3, r2
 1241 011e 00D1     		bne	.LCB1120
 1242 0120 2FE1     		b	.L117	@long jump
 1243              	.LCB1120:
 546:../../../../../../Drivers/STM32L0xx_HAL_Driver/Src/stm32l0xx_hal_dma.c ****   }
 1244              		.loc 1 546 0 discriminator 9
 1245 0122 864A     		ldr	r2, .L173+20
 1246 0124 9446     		mov	ip, r2
 1247 0126 6344     		add	r3, r3, ip
 1248 0128 5C1E     		subs	r4, r3, #1
 1249 012a A341     		sbcs	r3, r3, r4
 1250 012c 5C42     		rsbs	r4, r3, #0
 1251 012e F023     		movs	r3, #240
 1252 0130 9B04     		lsls	r3, r3, #18
 1253 0132 1C40     		ands	r4, r3
 1254 0134 8023     		movs	r3, #128
 1255 0136 DB03     		lsls	r3, r3, #15
 1256 0138 9C46     		mov	ip, r3
 1257 013a 6444     		add	r4, r4, ip
 1258 013c 8FE7     		b	.L73
 1259              	.L113:
 546:../../../../../../Drivers/STM32L0xx_HAL_Driver/Src/stm32l0xx_hal_dma.c ****   }
 1260              		.loc 1 546 0
 1261 013e 0424     		movs	r4, #4
ARM GAS  C:\Users\EBANO_~1\AppData\Local\Temp\cc4h82Al.s 			page 40


 1262 0140 8DE7     		b	.L73
 1263              	.L107:
 541:../../../../../../Drivers/STM32L0xx_HAL_Driver/Src/stm32l0xx_hal_dma.c ****   }
 1264              		.loc 1 541 0 is_stmt 1
 1265 0142 0224     		movs	r4, #2
 1266 0144 8BE7     		b	.L73
 1267              	.L109:
 1268 0146 8024     		movs	r4, #128
 1269 0148 A400     		lsls	r4, r4, #2
 1270 014a 88E7     		b	.L73
 1271              	.L115:
 546:../../../../../../Drivers/STM32L0xx_HAL_Driver/Src/stm32l0xx_hal_dma.c ****   }
 1272              		.loc 1 546 0
 1273 014c 8024     		movs	r4, #128
 1274 014e E400     		lsls	r4, r4, #3
 1275 0150 85E7     		b	.L73
 1276              	.LVL82:
 1277              	.L162:
 554:../../../../../../Drivers/STM32L0xx_HAL_Driver/Src/stm32l0xx_hal_dma.c ****     {      
 1278              		.loc 1 554 0
 1279 0152 8021     		movs	r1, #128
 552:../../../../../../Drivers/STM32L0xx_HAL_Driver/Src/stm32l0xx_hal_dma.c ****   {
 1280              		.loc 1 552 0
 1281 0154 7B4B     		ldr	r3, .L173+28
 554:../../../../../../Drivers/STM32L0xx_HAL_Driver/Src/stm32l0xx_hal_dma.c ****     {      
 1282              		.loc 1 554 0
 1283 0156 0904     		lsls	r1, r1, #16
 1284 0158 03E0     		b	.L80
 1285              	.L165:
 1286 015a 1A68     		ldr	r2, [r3]
 1287 015c 0A42     		tst	r2, r1
 1288 015e 00D0     		beq	.LCB1173
 1289 0160 D3E0     		b	.L124	@long jump
 1290              	.LCB1173:
 1291              	.L80:
 552:../../../../../../Drivers/STM32L0xx_HAL_Driver/Src/stm32l0xx_hal_dma.c ****   {
 1292              		.loc 1 552 0
 1293 0162 1A68     		ldr	r2, [r3]
 1294 0164 1442     		tst	r4, r2
 1295 0166 F8D0     		beq	.L165
 1296              	.L90:
 589:../../../../../../Drivers/STM32L0xx_HAL_Driver/Src/stm32l0xx_hal_dma.c ****   {
 1297              		.loc 1 589 0
 1298 0168 019B     		ldr	r3, [sp, #4]
 1299 016a 002B     		cmp	r3, #0
 1300 016c 00D1     		bne	.LCB1182
 1301 016e 21E1     		b	.L143	@long jump
 1302              	.LCB1182:
 1303 0170 734B     		ldr	r3, .L173+24
 1304              	.L106:
 604:../../../../../../Drivers/STM32L0xx_HAL_Driver/Src/stm32l0xx_hal_dma.c **** 
 1305              		.loc 1 604 0 discriminator 1
 1306 0172 6E49     		ldr	r1, .L173+4
 1307 0174 4022     		movs	r2, #64
 1308 0176 8B42     		cmp	r3, r1
 1309 0178 0CD1     		bne	.L104
 1310              	.LVL83:
ARM GAS  C:\Users\EBANO_~1\AppData\Local\Temp\cc4h82Al.s 			page 41


 1311              	.L101:
 604:../../../../../../Drivers/STM32L0xx_HAL_Driver/Src/stm32l0xx_hal_dma.c **** 
 1312              		.loc 1 604 0 is_stmt 0 discriminator 24
 1313 017a 724B     		ldr	r3, .L173+28
 1314 017c 5A60     		str	r2, [r3, #4]
 608:../../../../../../Drivers/STM32L0xx_HAL_Driver/Src/stm32l0xx_hal_dma.c ****     
 1315              		.loc 1 608 0 is_stmt 1 discriminator 24
 1316 017e 2523     		movs	r3, #37
 1317 0180 0522     		movs	r2, #5
 1318              	.L161:
 1319 0182 EA54     		strb	r2, [r5, r3]
 611:../../../../../../Drivers/STM32L0xx_HAL_Driver/Src/stm32l0xx_hal_dma.c ****   }
 1320              		.loc 1 611 0 discriminator 24
 1321 0184 0022     		movs	r2, #0
 1322 0186 013B     		subs	r3, r3, #1
 1323 0188 EA54     		strb	r2, [r5, r3]
 614:../../../../../../Drivers/STM32L0xx_HAL_Driver/Src/stm32l0xx_hal_dma.c **** }
 1324              		.loc 1 614 0 discriminator 24
 1325 018a 0020     		movs	r0, #0
 1326 018c B0E7     		b	.L158
 1327              	.L88:
 589:../../../../../../Drivers/STM32L0xx_HAL_Driver/Src/stm32l0xx_hal_dma.c ****   {
 1328              		.loc 1 589 0
 1329 018e 019A     		ldr	r2, [sp, #4]
 1330 0190 002A     		cmp	r2, #0
 1331 0192 47D0     		beq	.L105
 1332              	.L104:
 604:../../../../../../Drivers/STM32L0xx_HAL_Driver/Src/stm32l0xx_hal_dma.c **** 
 1333              		.loc 1 604 0 discriminator 3
 1334 0194 664A     		ldr	r2, .L173+8
 1335 0196 9342     		cmp	r3, r2
 1336 0198 00D1     		bne	.LCB1215
 1337 019a EFE0     		b	.L138	@long jump
 1338              	.LCB1215:
 604:../../../../../../Drivers/STM32L0xx_HAL_Driver/Src/stm32l0xx_hal_dma.c **** 
 1339              		.loc 1 604 0 is_stmt 0 discriminator 5
 1340 019c 654A     		ldr	r2, .L173+12
 1341 019e 9342     		cmp	r3, r2
 1342 01a0 00D1     		bne	.LCB1218
 1343 01a2 04E1     		b	.L139	@long jump
 1344              	.LCB1218:
 604:../../../../../../Drivers/STM32L0xx_HAL_Driver/Src/stm32l0xx_hal_dma.c **** 
 1345              		.loc 1 604 0 discriminator 7
 1346 01a4 644A     		ldr	r2, .L173+16
 1347 01a6 9342     		cmp	r3, r2
 1348 01a8 00D1     		bne	.LCB1221
 1349 01aa D5E0     		b	.L140	@long jump
 1350              	.LCB1221:
 604:../../../../../../Drivers/STM32L0xx_HAL_Driver/Src/stm32l0xx_hal_dma.c **** 
 1351              		.loc 1 604 0 discriminator 9
 1352 01ac 634A     		ldr	r2, .L173+20
 1353 01ae 9446     		mov	ip, r2
 1354 01b0 6344     		add	r3, r3, ip
 1355 01b2 1A00     		movs	r2, r3
 1356 01b4 531E     		subs	r3, r2, #1
 1357 01b6 9A41     		sbcs	r2, r2, r3
 1358 01b8 F023     		movs	r3, #240
ARM GAS  C:\Users\EBANO_~1\AppData\Local\Temp\cc4h82Al.s 			page 42


 1359 01ba 5242     		rsbs	r2, r2, #0
 1360 01bc 9B04     		lsls	r3, r3, #18
 1361 01be 1A40     		ands	r2, r3
 1362 01c0 8023     		movs	r3, #128
 1363 01c2 DB03     		lsls	r3, r3, #15
 1364 01c4 9C46     		mov	ip, r3
 1365 01c6 6244     		add	r2, r2, ip
 1366 01c8 D7E7     		b	.L101
 1367              	.L122:
 554:../../../../../../Drivers/STM32L0xx_HAL_Driver/Src/stm32l0xx_hal_dma.c ****     {      
 1368              		.loc 1 554 0 is_stmt 1
 1369 01ca 8022     		movs	r2, #128
 1370 01cc 1202     		lsls	r2, r2, #8
 1371 01ce 76E7     		b	.L89
 1372              	.LVL84:
 1373              	.L163:
 552:../../../../../../Drivers/STM32L0xx_HAL_Driver/Src/stm32l0xx_hal_dma.c ****   {
 1374              		.loc 1 552 0
 1375 01d0 5C4B     		ldr	r3, .L173+28
 554:../../../../../../Drivers/STM32L0xx_HAL_Driver/Src/stm32l0xx_hal_dma.c ****     {      
 1376              		.loc 1 554 0
 1377 01d2 0821     		movs	r1, #8
 1378 01d4 02E0     		b	.L84
 1379              	.L167:
 1380 01d6 1A68     		ldr	r2, [r3]
 1381 01d8 1142     		tst	r1, r2
 1382 01da 45D1     		bne	.L166
 1383              	.L84:
 552:../../../../../../Drivers/STM32L0xx_HAL_Driver/Src/stm32l0xx_hal_dma.c ****   {
 1384              		.loc 1 552 0
 1385 01dc 1A68     		ldr	r2, [r3]
 1386 01de 2242     		tst	r2, r4
 1387 01e0 F9D0     		beq	.L167
 589:../../../../../../Drivers/STM32L0xx_HAL_Driver/Src/stm32l0xx_hal_dma.c ****   {
 1388              		.loc 1 589 0
 1389 01e2 019B     		ldr	r3, [sp, #4]
 592:../../../../../../Drivers/STM32L0xx_HAL_Driver/Src/stm32l0xx_hal_dma.c **** 
 1390              		.loc 1 592 0
 1391 01e4 0222     		movs	r2, #2
 589:../../../../../../Drivers/STM32L0xx_HAL_Driver/Src/stm32l0xx_hal_dma.c ****   {
 1392              		.loc 1 589 0
 1393 01e6 002B     		cmp	r3, #0
 1394 01e8 00D0     		beq	.LCB1265
 1395 01ea C5E0     		b	.L168	@long jump
 1396              	.LCB1265:
 1397              	.LVL85:
 1398              	.L100:
 592:../../../../../../Drivers/STM32L0xx_HAL_Driver/Src/stm32l0xx_hal_dma.c **** 
 1399              		.loc 1 592 0 discriminator 24
 1400 01ec 554B     		ldr	r3, .L173+28
 1401 01ee 5A60     		str	r2, [r3, #4]
 596:../../../../../../Drivers/STM32L0xx_HAL_Driver/Src/stm32l0xx_hal_dma.c **** 
 1402              		.loc 1 596 0 discriminator 24
 1403 01f0 2523     		movs	r3, #37
 1404 01f2 0122     		movs	r2, #1
 1405 01f4 C5E7     		b	.L161
 1406              	.LVL86:
ARM GAS  C:\Users\EBANO_~1\AppData\Local\Temp\cc4h82Al.s 			page 43


 1407              	.L160:
 552:../../../../../../Drivers/STM32L0xx_HAL_Driver/Src/stm32l0xx_hal_dma.c ****   {
 1408              		.loc 1 552 0
 1409 01f6 534A     		ldr	r2, .L173+28
 554:../../../../../../Drivers/STM32L0xx_HAL_Driver/Src/stm32l0xx_hal_dma.c ****     {      
 1410              		.loc 1 554 0
 1411 01f8 8020     		movs	r0, #128
 1412 01fa 03E0     		b	.L87
 1413              	.L170:
 1414 01fc 1168     		ldr	r1, [r2]
 1415 01fe 0842     		tst	r0, r1
 1416 0200 00D0     		beq	.LCB1288
 1417 0202 85E0     		b	.L169	@long jump
 1418              	.LCB1288:
 1419              	.L87:
 552:../../../../../../Drivers/STM32L0xx_HAL_Driver/Src/stm32l0xx_hal_dma.c ****   {
 1420              		.loc 1 552 0
 1421 0204 1168     		ldr	r1, [r2]
 1422 0206 2142     		tst	r1, r4
 1423 0208 F8D0     		beq	.L170
 589:../../../../../../Drivers/STM32L0xx_HAL_Driver/Src/stm32l0xx_hal_dma.c ****   {
 1424              		.loc 1 589 0
 1425 020a 019A     		ldr	r2, [sp, #4]
 1426 020c 002A     		cmp	r2, #0
 1427 020e 09D0     		beq	.L105
 604:../../../../../../Drivers/STM32L0xx_HAL_Driver/Src/stm32l0xx_hal_dma.c **** 
 1428              		.loc 1 604 0
 1429 0210 4022     		movs	r2, #64
 1430 0212 B2E7     		b	.L101
 1431              	.L96:
 589:../../../../../../Drivers/STM32L0xx_HAL_Driver/Src/stm32l0xx_hal_dma.c ****   {
 1432              		.loc 1 589 0
 1433 0214 019A     		ldr	r2, [sp, #4]
 592:../../../../../../Drivers/STM32L0xx_HAL_Driver/Src/stm32l0xx_hal_dma.c **** 
 1434              		.loc 1 592 0
 1435 0216 4449     		ldr	r1, .L173
 589:../../../../../../Drivers/STM32L0xx_HAL_Driver/Src/stm32l0xx_hal_dma.c ****   {
 1436              		.loc 1 589 0
 1437 0218 002A     		cmp	r2, #0
 1438 021a 00D0     		beq	.LCB1305
 1439 021c CDE0     		b	.L99	@long jump
 1440              	.LCB1305:
 592:../../../../../../Drivers/STM32L0xx_HAL_Driver/Src/stm32l0xx_hal_dma.c **** 
 1441              		.loc 1 592 0
 1442 021e 0232     		adds	r2, r2, #2
 1443 0220 8B42     		cmp	r3, r1
 1444 0222 E3D0     		beq	.L100
 1445              	.LVL87:
 1446              	.L105:
 592:../../../../../../Drivers/STM32L0xx_HAL_Driver/Src/stm32l0xx_hal_dma.c **** 
 1447              		.loc 1 592 0 is_stmt 0 discriminator 1
 1448 0224 4149     		ldr	r1, .L173+4
 1449 0226 2022     		movs	r2, #32
 1450 0228 8B42     		cmp	r3, r1
 1451 022a DFD0     		beq	.L100
 592:../../../../../../Drivers/STM32L0xx_HAL_Driver/Src/stm32l0xx_hal_dma.c **** 
 1452              		.loc 1 592 0 discriminator 3
ARM GAS  C:\Users\EBANO_~1\AppData\Local\Temp\cc4h82Al.s 			page 44


 1453 022c 404A     		ldr	r2, .L173+8
 1454 022e 9342     		cmp	r3, r2
 1455 0230 76D0     		beq	.L132
 592:../../../../../../Drivers/STM32L0xx_HAL_Driver/Src/stm32l0xx_hal_dma.c **** 
 1456              		.loc 1 592 0 discriminator 5
 1457 0232 404A     		ldr	r2, .L173+12
 1458 0234 9342     		cmp	r3, r2
 1459 0236 00D1     		bne	.LCB1321
 1460 0238 B6E0     		b	.L142	@long jump
 1461              	.LCB1321:
 592:../../../../../../Drivers/STM32L0xx_HAL_Driver/Src/stm32l0xx_hal_dma.c **** 
 1462              		.loc 1 592 0 discriminator 7
 1463 023a 3F4A     		ldr	r2, .L173+16
 1464 023c 9342     		cmp	r3, r2
 1465 023e 00D1     		bne	.LCB1324
 1466 0240 A9E0     		b	.L145	@long jump
 1467              	.LCB1324:
 592:../../../../../../Drivers/STM32L0xx_HAL_Driver/Src/stm32l0xx_hal_dma.c **** 
 1468              		.loc 1 592 0 discriminator 9
 1469 0242 3E4A     		ldr	r2, .L173+20
 1470 0244 9446     		mov	ip, r2
 1471 0246 6344     		add	r3, r3, ip
 1472 0248 1A00     		movs	r2, r3
 1473 024a 531E     		subs	r3, r2, #1
 1474 024c 9A41     		sbcs	r2, r2, r3
 1475 024e F023     		movs	r3, #240
 1476 0250 5242     		rsbs	r2, r2, #0
 1477 0252 5B04     		lsls	r3, r3, #17
 1478 0254 1A40     		ands	r2, r3
 1479 0256 8023     		movs	r3, #128
 1480 0258 9B03     		lsls	r3, r3, #14
 1481 025a 9C46     		mov	ip, r3
 1482 025c 6244     		add	r2, r2, ip
 1483 025e C5E7     		b	.L100
 1484              	.LVL88:
 1485              	.L114:
 546:../../../../../../Drivers/STM32L0xx_HAL_Driver/Src/stm32l0xx_hal_dma.c ****   }
 1486              		.loc 1 546 0 is_stmt 1
 1487 0260 4024     		movs	r4, #64
 1488 0262 FCE6     		b	.L73
 1489              	.L108:
 541:../../../../../../Drivers/STM32L0xx_HAL_Driver/Src/stm32l0xx_hal_dma.c ****   }
 1490              		.loc 1 541 0
 1491 0264 2024     		movs	r4, #32
 1492 0266 FAE6     		b	.L73
 1493              	.LVL89:
 1494              	.L166:
 554:../../../../../../Drivers/STM32L0xx_HAL_Driver/Src/stm32l0xx_hal_dma.c ****     {      
 1495              		.loc 1 554 0
 1496 0268 0822     		movs	r2, #8
 1497 026a 34E7     		b	.L83
 1498              	.L79:
 1499 026c 5B45     		cmp	r3, fp
 1500 026e 42D0     		beq	.L91
 1501 0270 314A     		ldr	r2, .L173+16
 1502 0272 9342     		cmp	r3, r2
 1503 0274 1FD0     		beq	.L171
ARM GAS  C:\Users\EBANO_~1\AppData\Local\Temp\cc4h82Al.s 			page 45


 1504 0276 2F4A     		ldr	r2, .L173+12
 1505 0278 9342     		cmp	r3, r2
 1506 027a 70D0     		beq	.L172
 552:../../../../../../Drivers/STM32L0xx_HAL_Driver/Src/stm32l0xx_hal_dma.c ****   {
 1507              		.loc 1 552 0
 1508 027c 4246     		mov	r2, r8
 1509 027e 1268     		ldr	r2, [r2]
 1510 0280 2242     		tst	r2, r4
 1511 0282 C7D1     		bne	.L96
 554:../../../../../../Drivers/STM32L0xx_HAL_Driver/Src/stm32l0xx_hal_dma.c ****     {      
 1512              		.loc 1 554 0
 1513 0284 4246     		mov	r2, r8
 1514 0286 1168     		ldr	r1, [r2]
 1515 0288 274A     		ldr	r2, .L173
 1516 028a 9342     		cmp	r3, r2
 1517 028c 72D0     		beq	.L127
 1518 028e 274A     		ldr	r2, .L173+4
 1519 0290 9342     		cmp	r3, r2
 1520 0292 00D1     		bne	.LCB1386
 1521 0294 82E0     		b	.L128	@long jump
 1522              	.LCB1386:
 1523 0296 2E4A     		ldr	r2, .L173+40
 1524 0298 9446     		mov	ip, r2
 1525 029a 6344     		add	r3, r3, ip
 1526 029c 1A00     		movs	r2, r3
 1527 029e 531E     		subs	r3, r2, #1
 1528 02a0 9A41     		sbcs	r2, r2, r3
 1529 02a2 2C4B     		ldr	r3, .L173+44
 1530 02a4 5242     		rsbs	r2, r2, #0
 1531 02a6 1A40     		ands	r2, r3
 1532 02a8 8023     		movs	r3, #128
 1533 02aa 1B01     		lsls	r3, r3, #4
 1534 02ac 9C46     		mov	ip, r3
 1535 02ae 6244     		add	r2, r2, ip
 1536              	.L97:
 1537 02b0 1142     		tst	r1, r2
 1538 02b2 0BD0     		beq	.L75
 1539 02b4 0FE7     		b	.L83
 1540              	.L171:
 552:../../../../../../Drivers/STM32L0xx_HAL_Driver/Src/stm32l0xx_hal_dma.c ****   {
 1541              		.loc 1 552 0
 1542 02b6 4246     		mov	r2, r8
 1543 02b8 1268     		ldr	r2, [r2]
 1544 02ba 2242     		tst	r2, r4
 1545 02bc 67D1     		bne	.L93
 554:../../../../../../Drivers/STM32L0xx_HAL_Driver/Src/stm32l0xx_hal_dma.c ****     {      
 1546              		.loc 1 554 0
 1547 02be 4346     		mov	r3, r8
 1548 02c0 8022     		movs	r2, #128
 1549 02c2 1B68     		ldr	r3, [r3]
 1550 02c4 1203     		lsls	r2, r2, #12
 1551 02c6 1342     		tst	r3, r2
 1552 02c8 00D0     		beq	.LCB1419
 1553 02ca 04E7     		b	.L83	@long jump
 1554              	.LCB1419:
 1555              	.L75:
 573:../../../../../../Drivers/STM32L0xx_HAL_Driver/Src/stm32l0xx_hal_dma.c ****       {
ARM GAS  C:\Users\EBANO_~1\AppData\Local\Temp\cc4h82Al.s 			page 46


 1556              		.loc 1 573 0
 1557 02cc 002E     		cmp	r6, #0
 1558 02ce 06D0     		beq	.L78
 573:../../../../../../Drivers/STM32L0xx_HAL_Driver/Src/stm32l0xx_hal_dma.c ****       {
 1559              		.loc 1 573 0 is_stmt 0 discriminator 1
 1560 02d0 FFF7FEFF 		bl	HAL_GetTick
 1561              	.LVL90:
 1562 02d4 4B46     		mov	r3, r9
 1563 02d6 C01A     		subs	r0, r0, r3
 1564 02d8 B042     		cmp	r0, r6
 1565 02da 00D8     		bhi	.LCB1428
 1566 02dc C9E6     		b	.L74	@long jump
 1567              	.LCB1428:
 1568              	.L78:
 576:../../../../../../Drivers/STM32L0xx_HAL_Driver/Src/stm32l0xx_hal_dma.c ****         
 1569              		.loc 1 576 0 is_stmt 1
 1570 02de 2022     		movs	r2, #32
 1571 02e0 EB6B     		ldr	r3, [r5, #60]
 584:../../../../../../Drivers/STM32L0xx_HAL_Driver/Src/stm32l0xx_hal_dma.c ****       }
 1572              		.loc 1 584 0
 1573 02e2 0320     		movs	r0, #3
 576:../../../../../../Drivers/STM32L0xx_HAL_Driver/Src/stm32l0xx_hal_dma.c ****         
 1574              		.loc 1 576 0
 1575 02e4 1343     		orrs	r3, r2
 1576 02e6 EB63     		str	r3, [r5, #60]
 579:../../../../../../Drivers/STM32L0xx_HAL_Driver/Src/stm32l0xx_hal_dma.c ****         
 1577              		.loc 1 579 0
 1578 02e8 2523     		movs	r3, #37
 1579 02ea 1D3A     		subs	r2, r2, #29
 1580 02ec EA54     		strb	r2, [r5, r3]
 582:../../../../../../Drivers/STM32L0xx_HAL_Driver/Src/stm32l0xx_hal_dma.c ****       
 1581              		.loc 1 582 0
 1582 02ee 0022     		movs	r2, #0
 1583 02f0 013B     		subs	r3, r3, #1
 1584 02f2 EA54     		strb	r2, [r5, r3]
 584:../../../../../../Drivers/STM32L0xx_HAL_Driver/Src/stm32l0xx_hal_dma.c ****       }
 1585              		.loc 1 584 0
 1586 02f4 FCE6     		b	.L158
 1587              	.L91:
 552:../../../../../../Drivers/STM32L0xx_HAL_Driver/Src/stm32l0xx_hal_dma.c ****   {
 1588              		.loc 1 552 0
 1589 02f6 4346     		mov	r3, r8
 1590 02f8 1B68     		ldr	r3, [r3]
 1591 02fa 1C42     		tst	r4, r3
 1592 02fc 00D0     		beq	.LCB1451
 1593 02fe 33E7     		b	.L90	@long jump
 1594              	.LCB1451:
 554:../../../../../../Drivers/STM32L0xx_HAL_Driver/Src/stm32l0xx_hal_dma.c ****     {      
 1595              		.loc 1 554 0
 1596 0300 4346     		mov	r3, r8
 1597 0302 5246     		mov	r2, r10
 1598 0304 1B68     		ldr	r3, [r3]
 1599 0306 1342     		tst	r3, r2
 1600 0308 E0D0     		beq	.L75
 1601              	.L124:
 1602 030a 8022     		movs	r2, #128
 1603 030c 1204     		lsls	r2, r2, #16
ARM GAS  C:\Users\EBANO_~1\AppData\Local\Temp\cc4h82Al.s 			page 47


 1604 030e E2E6     		b	.L83
 1605              	.L169:
 1606 0310 8022     		movs	r2, #128
 1607 0312 E0E6     		b	.L83
 1608              	.LVL91:
 1609              	.L116:
 546:../../../../../../Drivers/STM32L0xx_HAL_Driver/Src/stm32l0xx_hal_dma.c ****   }
 1610              		.loc 1 546 0
 1611 0314 8024     		movs	r4, #128
 1612 0316 E401     		lsls	r4, r4, #7
 1613 0318 A1E6     		b	.L73
 1614              	.L110:
 541:../../../../../../Drivers/STM32L0xx_HAL_Driver/Src/stm32l0xx_hal_dma.c ****   }
 1615              		.loc 1 541 0
 1616 031a 8024     		movs	r4, #128
 1617 031c A401     		lsls	r4, r4, #6
 1618 031e 9EE6     		b	.L73
 1619              	.LVL92:
 1620              	.L132:
 592:../../../../../../Drivers/STM32L0xx_HAL_Driver/Src/stm32l0xx_hal_dma.c **** 
 1621              		.loc 1 592 0
 1622 0320 8022     		movs	r2, #128
 1623 0322 9200     		lsls	r2, r2, #2
 1624 0324 62E7     		b	.L100
 1625              	.L174:
 1626 0326 C046     		.align	2
 1627              	.L173:
 1628 0328 08000240 		.word	1073872904
 1629 032c 1C000240 		.word	1073872924
 1630 0330 30000240 		.word	1073872944
 1631 0334 44000240 		.word	1073872964
 1632 0338 58000240 		.word	1073872984
 1633 033c 94FFFDBF 		.word	-1073873004
 1634 0340 6C000240 		.word	1073873004
 1635 0344 00000240 		.word	1073872896
 1636 0348 A8FFFDBF 		.word	-1073872984
 1637 034c 000008F8 		.word	-133693440
 1638 0350 D0FFFDBF 		.word	-1073872944
 1639 0354 00F8FF07 		.word	134215680
 1640              	.L140:
 604:../../../../../../Drivers/STM32L0xx_HAL_Driver/Src/stm32l0xx_hal_dma.c **** 
 1641              		.loc 1 604 0
 1642 0358 8022     		movs	r2, #128
 1643 035a D202     		lsls	r2, r2, #11
 1644 035c 0DE7     		b	.L101
 1645              	.LVL93:
 1646              	.L172:
 552:../../../../../../Drivers/STM32L0xx_HAL_Driver/Src/stm32l0xx_hal_dma.c ****   {
 1647              		.loc 1 552 0
 1648 035e 4246     		mov	r2, r8
 1649 0360 1268     		ldr	r2, [r2]
 1650 0362 2242     		tst	r2, r4
 1651 0364 1CD1     		bne	.L95
 554:../../../../../../Drivers/STM32L0xx_HAL_Driver/Src/stm32l0xx_hal_dma.c ****     {      
 1652              		.loc 1 554 0
 1653 0366 4346     		mov	r3, r8
 1654 0368 8022     		movs	r2, #128
ARM GAS  C:\Users\EBANO_~1\AppData\Local\Temp\cc4h82Al.s 			page 48


 1655 036a 1B68     		ldr	r3, [r3]
 1656 036c 1202     		lsls	r2, r2, #8
 1657 036e 1342     		tst	r3, r2
 1658 0370 ACD0     		beq	.L75
 1659 0372 B0E6     		b	.L83
 1660              	.L127:
 1661 0374 0822     		movs	r2, #8
 1662 0376 9BE7     		b	.L97
 1663              	.L168:
 604:../../../../../../Drivers/STM32L0xx_HAL_Driver/Src/stm32l0xx_hal_dma.c **** 
 1664              		.loc 1 604 0
 1665 0378 0232     		adds	r2, r2, #2
 1666 037a FEE6     		b	.L101
 1667              	.LVL94:
 1668              	.L138:
 1669 037c 8022     		movs	r2, #128
 1670 037e D200     		lsls	r2, r2, #3
 1671 0380 FBE6     		b	.L101
 1672              	.LVL95:
 1673              	.L117:
 546:../../../../../../Drivers/STM32L0xx_HAL_Driver/Src/stm32l0xx_hal_dma.c ****   }
 1674              		.loc 1 546 0
 1675 0382 8024     		movs	r4, #128
 1676 0384 E402     		lsls	r4, r4, #11
 1677 0386 6AE6     		b	.L73
 1678              	.L111:
 541:../../../../../../Drivers/STM32L0xx_HAL_Driver/Src/stm32l0xx_hal_dma.c ****   }
 1679              		.loc 1 541 0
 1680 0388 8024     		movs	r4, #128
 1681 038a A402     		lsls	r4, r4, #10
 1682 038c 67E6     		b	.L73
 1683              	.LVL96:
 1684              	.L93:
 589:../../../../../../Drivers/STM32L0xx_HAL_Driver/Src/stm32l0xx_hal_dma.c ****   {
 1685              		.loc 1 589 0
 1686 038e 019A     		ldr	r2, [sp, #4]
 1687 0390 002A     		cmp	r2, #0
 1688 0392 00D0     		beq	.LCB1579
 1689 0394 EDE6     		b	.L106	@long jump
 1690              	.LCB1579:
 1691              	.LVL97:
 1692              	.L145:
 592:../../../../../../Drivers/STM32L0xx_HAL_Driver/Src/stm32l0xx_hal_dma.c **** 
 1693              		.loc 1 592 0
 1694 0396 8022     		movs	r2, #128
 1695 0398 9202     		lsls	r2, r2, #10
 1696 039a 27E7     		b	.L100
 1697              	.LVL98:
 1698              	.L128:
 554:../../../../../../Drivers/STM32L0xx_HAL_Driver/Src/stm32l0xx_hal_dma.c ****     {      
 1699              		.loc 1 554 0
 1700 039c 8022     		movs	r2, #128
 1701 039e 87E7     		b	.L97
 1702              	.L95:
 589:../../../../../../Drivers/STM32L0xx_HAL_Driver/Src/stm32l0xx_hal_dma.c ****   {
 1703              		.loc 1 589 0
 1704 03a0 019A     		ldr	r2, [sp, #4]
ARM GAS  C:\Users\EBANO_~1\AppData\Local\Temp\cc4h82Al.s 			page 49


 1705 03a2 002A     		cmp	r2, #0
 1706 03a4 00D0     		beq	.LCB1598
 1707 03a6 E4E6     		b	.L106	@long jump
 1708              	.LCB1598:
 1709              	.LVL99:
 1710              	.L142:
 592:../../../../../../Drivers/STM32L0xx_HAL_Driver/Src/stm32l0xx_hal_dma.c **** 
 1711              		.loc 1 592 0
 1712 03a8 8022     		movs	r2, #128
 1713 03aa 9201     		lsls	r2, r2, #6
 1714 03ac 1EE7     		b	.L100
 1715              	.L139:
 604:../../../../../../Drivers/STM32L0xx_HAL_Driver/Src/stm32l0xx_hal_dma.c **** 
 1716              		.loc 1 604 0
 1717 03ae 8022     		movs	r2, #128
 1718 03b0 D201     		lsls	r2, r2, #7
 1719 03b2 E2E6     		b	.L101
 1720              	.LVL100:
 1721              	.L143:
 592:../../../../../../Drivers/STM32L0xx_HAL_Driver/Src/stm32l0xx_hal_dma.c **** 
 1722              		.loc 1 592 0
 1723 03b4 8022     		movs	r2, #128
 1724 03b6 9203     		lsls	r2, r2, #14
 1725 03b8 18E7     		b	.L100
 1726              	.L99:
 604:../../../../../../Drivers/STM32L0xx_HAL_Driver/Src/stm32l0xx_hal_dma.c **** 
 1727              		.loc 1 604 0
 1728 03ba 0422     		movs	r2, #4
 1729 03bc 8B42     		cmp	r3, r1
 1730 03be 00D1     		bne	.LCB1624
 1731 03c0 DBE6     		b	.L101	@long jump
 1732              	.LCB1624:
 1733 03c2 D6E6     		b	.L106
 1734              		.cfi_endproc
 1735              	.LFE45:
 1736              		.size	HAL_DMA_PollForTransfer, .-HAL_DMA_PollForTransfer
 1737              		.section	.text.HAL_DMA_IRQHandler,"ax",%progbits
 1738              		.align	1
 1739              		.p2align 2,,3
 1740              		.global	HAL_DMA_IRQHandler
 1741              		.syntax unified
 1742              		.code	16
 1743              		.thumb_func
 1744              		.fpu softvfp
 1745              		.type	HAL_DMA_IRQHandler, %function
 1746              	HAL_DMA_IRQHandler:
 1747              	.LFB46:
 623:../../../../../../Drivers/STM32L0xx_HAL_Driver/Src/stm32l0xx_hal_dma.c ****   /* Transfer Error Interrupt management ***************************************/
 1748              		.loc 1 623 0
 1749              		.cfi_startproc
 1750              		@ args = 0, pretend = 0, frame = 0
 1751              		@ frame_needed = 0, uses_anonymous_args = 0
 1752              	.LVL101:
 1753 0000 10B5     		push	{r4, lr}
 1754              	.LCFI8:
 1755              		.cfi_def_cfa_offset 8
 1756              		.cfi_offset 4, -8
ARM GAS  C:\Users\EBANO_~1\AppData\Local\Temp\cc4h82Al.s 			page 50


 1757              		.cfi_offset 14, -4
 623:../../../../../../Drivers/STM32L0xx_HAL_Driver/Src/stm32l0xx_hal_dma.c ****   /* Transfer Error Interrupt management ***************************************/
 1758              		.loc 1 623 0
 1759 0002 0400     		movs	r4, r0
 625:../../../../../../Drivers/STM32L0xx_HAL_Driver/Src/stm32l0xx_hal_dma.c ****   {
 1760              		.loc 1 625 0
 1761 0004 9C4A     		ldr	r2, .L300
 1762 0006 2368     		ldr	r3, [r4]
 1763 0008 9C49     		ldr	r1, .L300+4
 1764 000a 1068     		ldr	r0, [r2]
 1765              	.LVL102:
 1766 000c 8B42     		cmp	r3, r1
 1767 000e 4FD0     		beq	.L176
 625:../../../../../../Drivers/STM32L0xx_HAL_Driver/Src/stm32l0xx_hal_dma.c ****   {
 1768              		.loc 1 625 0 is_stmt 0 discriminator 1
 1769 0010 9B49     		ldr	r1, .L300+8
 1770 0012 8B42     		cmp	r3, r1
 1771 0014 15D0     		beq	.L177
 625:../../../../../../Drivers/STM32L0xx_HAL_Driver/Src/stm32l0xx_hal_dma.c ****   {
 1772              		.loc 1 625 0 discriminator 3
 1773 0016 9B49     		ldr	r1, .L300+12
 1774 0018 8B42     		cmp	r3, r1
 1775 001a 00D1     		bne	.LCB1651
 1776 001c CFE0     		b	.L178	@long jump
 1777              	.LCB1651:
 625:../../../../../../Drivers/STM32L0xx_HAL_Driver/Src/stm32l0xx_hal_dma.c ****   {
 1778              		.loc 1 625 0 discriminator 5
 1779 001e 9A49     		ldr	r1, .L300+16
 1780 0020 8B42     		cmp	r3, r1
 1781 0022 00D1     		bne	.LCB1654
 1782 0024 D2E0     		b	.L179	@long jump
 1783              	.LCB1654:
 625:../../../../../../Drivers/STM32L0xx_HAL_Driver/Src/stm32l0xx_hal_dma.c ****   {
 1784              		.loc 1 625 0 discriminator 7
 1785 0026 9949     		ldr	r1, .L300+20
 1786 0028 8B42     		cmp	r3, r1
 1787 002a 00D1     		bne	.LCB1657
 1788 002c B7E0     		b	.L180	@long jump
 1789              	.LCB1657:
 625:../../../../../../Drivers/STM32L0xx_HAL_Driver/Src/stm32l0xx_hal_dma.c ****   {
 1790              		.loc 1 625 0 discriminator 9
 1791 002e 9849     		ldr	r1, .L300+24
 1792 0030 8B42     		cmp	r3, r1
 1793 0032 00D1     		bne	.LCB1660
 1794 0034 DAE0     		b	.L288	@long jump
 1795              	.LCB1660:
 625:../../../../../../Drivers/STM32L0xx_HAL_Driver/Src/stm32l0xx_hal_dma.c ****   {
 1796              		.loc 1 625 0
 1797 0036 8021     		movs	r1, #128
 1798 0038 0905     		lsls	r1, r1, #20
 1799 003a 0842     		tst	r0, r1
 1800 003c 04D1     		bne	.L212
 653:../../../../../../Drivers/STM32L0xx_HAL_Driver/Src/stm32l0xx_hal_dma.c ****   {
 1801              		.loc 1 653 0 is_stmt 1
 1802 003e 1268     		ldr	r2, [r2]
 1803 0040 9CE0     		b	.L190
 1804              	.L177:
ARM GAS  C:\Users\EBANO_~1\AppData\Local\Temp\cc4h82Al.s 			page 51


 625:../../../../../../Drivers/STM32L0xx_HAL_Driver/Src/stm32l0xx_hal_dma.c ****   {
 1805              		.loc 1 625 0
 1806 0042 8021     		movs	r1, #128
 1807 0044 0006     		lsls	r0, r0, #24
 1808 0046 58D5     		bpl	.L289
 1809              	.L212:
 627:../../../../../../Drivers/STM32L0xx_HAL_Driver/Src/stm32l0xx_hal_dma.c ****     {
 1810              		.loc 1 627 0
 1811 0048 0822     		movs	r2, #8
 1812 004a 1868     		ldr	r0, [r3]
 1813 004c 0242     		tst	r2, r0
 1814 004e 14D0     		beq	.L183
 630:../../../../../../Drivers/STM32L0xx_HAL_Driver/Src/stm32l0xx_hal_dma.c ****     
 1815              		.loc 1 630 0
 1816 0050 1868     		ldr	r0, [r3]
 1817 0052 9043     		bics	r0, r2
 633:../../../../../../Drivers/STM32L0xx_HAL_Driver/Src/stm32l0xx_hal_dma.c ****     
 1818              		.loc 1 633 0
 1819 0054 884A     		ldr	r2, .L300
 630:../../../../../../Drivers/STM32L0xx_HAL_Driver/Src/stm32l0xx_hal_dma.c ****     
 1820              		.loc 1 630 0
 1821 0056 1860     		str	r0, [r3]
 633:../../../../../../Drivers/STM32L0xx_HAL_Driver/Src/stm32l0xx_hal_dma.c ****     
 1822              		.loc 1 633 0
 1823 0058 5160     		str	r1, [r2, #4]
 636:../../../../../../Drivers/STM32L0xx_HAL_Driver/Src/stm32l0xx_hal_dma.c **** 
 1824              		.loc 1 636 0
 1825 005a 0121     		movs	r1, #1
 1826 005c E26B     		ldr	r2, [r4, #60]
 1827 005e 0A43     		orrs	r2, r1
 1828 0060 E263     		str	r2, [r4, #60]
 639:../../../../../../Drivers/STM32L0xx_HAL_Driver/Src/stm32l0xx_hal_dma.c ****     
 1829              		.loc 1 639 0
 1830 0062 2522     		movs	r2, #37
 1831 0064 0331     		adds	r1, r1, #3
 1832 0066 A154     		strb	r1, [r4, r2]
 642:../../../../../../Drivers/STM32L0xx_HAL_Driver/Src/stm32l0xx_hal_dma.c ****     
 1833              		.loc 1 642 0
 1834 0068 0021     		movs	r1, #0
 1835 006a 013A     		subs	r2, r2, #1
 1836 006c A154     		strb	r1, [r4, r2]
 644:../../../../../../Drivers/STM32L0xx_HAL_Driver/Src/stm32l0xx_hal_dma.c ****       {
 1837              		.loc 1 644 0
 1838 006e 626B     		ldr	r2, [r4, #52]
 1839 0070 002A     		cmp	r2, #0
 1840 0072 02D0     		beq	.L183
 647:../../../../../../Drivers/STM32L0xx_HAL_Driver/Src/stm32l0xx_hal_dma.c ****       }
 1841              		.loc 1 647 0
 1842 0074 2000     		movs	r0, r4
 1843 0076 9047     		blx	r2
 1844              	.LVL103:
 1845 0078 2368     		ldr	r3, [r4]
 1846              	.L183:
 653:../../../../../../Drivers/STM32L0xx_HAL_Driver/Src/stm32l0xx_hal_dma.c ****   {
 1847              		.loc 1 653 0
 1848 007a 7F4A     		ldr	r2, .L300
 1849 007c 7F49     		ldr	r1, .L300+4
ARM GAS  C:\Users\EBANO_~1\AppData\Local\Temp\cc4h82Al.s 			page 52


 1850 007e 1268     		ldr	r2, [r2]
 1851 0080 8B42     		cmp	r3, r1
 1852 0082 19D0     		beq	.L184
 653:../../../../../../Drivers/STM32L0xx_HAL_Driver/Src/stm32l0xx_hal_dma.c ****   {
 1853              		.loc 1 653 0 is_stmt 0 discriminator 1
 1854 0084 7E49     		ldr	r1, .L300+8
 1855 0086 8B42     		cmp	r3, r1
 1856 0088 38D0     		beq	.L185
 653:../../../../../../Drivers/STM32L0xx_HAL_Driver/Src/stm32l0xx_hal_dma.c ****   {
 1857              		.loc 1 653 0 discriminator 3
 1858 008a 7E49     		ldr	r1, .L300+12
 1859 008c 8B42     		cmp	r3, r1
 1860 008e 00D0     		beq	.LCB1717
 1861 0090 6BE0     		b	.L290	@long jump
 1862              	.LCB1717:
 1863              	.L186:
 653:../../../../../../Drivers/STM32L0xx_HAL_Driver/Src/stm32l0xx_hal_dma.c ****   {
 1864              		.loc 1 653 0
 1865 0092 8021     		movs	r1, #128
 1866 0094 C900     		lsls	r1, r1, #3
 1867 0096 0A42     		tst	r2, r1
 1868 0098 00D1     		bne	.LCB1723
 1869 009a C5E0     		b	.L291	@long jump
 1870              	.LCB1723:
 655:../../../../../../Drivers/STM32L0xx_HAL_Driver/Src/stm32l0xx_hal_dma.c ****     { 
 1871              		.loc 1 655 0 is_stmt 1
 1872 009c 794B     		ldr	r3, .L300+12
 1873 009e 1A68     		ldr	r2, [r3]
 1874 00a0 5207     		lsls	r2, r2, #29
 1875 00a2 00D5     		bpl	.LCB1729
 1876 00a4 B5E0     		b	.L247	@long jump
 1877              	.LCB1729:
 678:../../../../../../Drivers/STM32L0xx_HAL_Driver/Src/stm32l0xx_hal_dma.c ****   {
 1878              		.loc 1 678 0
 1879 00a6 744A     		ldr	r2, .L300
 1880 00a8 1168     		ldr	r1, [r2]
 1881 00aa 8022     		movs	r2, #128
 1882 00ac 9200     		lsls	r2, r2, #2
 1883 00ae 0BE0     		b	.L193
 1884              	.L176:
 625:../../../../../../Drivers/STM32L0xx_HAL_Driver/Src/stm32l0xx_hal_dma.c ****   {
 1885              		.loc 1 625 0
 1886 00b0 0107     		lsls	r1, r0, #28
 1887 00b2 00D5     		bpl	.LCB1741
 1888 00b4 C1E0     		b	.L292	@long jump
 1889              	.LCB1741:
 653:../../../../../../Drivers/STM32L0xx_HAL_Driver/Src/stm32l0xx_hal_dma.c ****   {
 1890              		.loc 1 653 0
 1891 00b6 1268     		ldr	r2, [r2]
 1892              	.L184:
 1893 00b8 0421     		movs	r1, #4
 1894 00ba 1142     		tst	r1, r2
 1895 00bc 00D0     		beq	.LCB1748
 1896 00be BEE0     		b	.L293	@long jump
 1897              	.LCB1748:
 678:../../../../../../Drivers/STM32L0xx_HAL_Driver/Src/stm32l0xx_hal_dma.c ****   {
 1898              		.loc 1 678 0
ARM GAS  C:\Users\EBANO_~1\AppData\Local\Temp\cc4h82Al.s 			page 53


 1899 00c0 0222     		movs	r2, #2
 1900 00c2 6D4B     		ldr	r3, .L300
 1901 00c4 1968     		ldr	r1, [r3]
 1902 00c6 6D4B     		ldr	r3, .L300+4
 1903              	.L193:
 678:../../../../../../Drivers/STM32L0xx_HAL_Driver/Src/stm32l0xx_hal_dma.c ****   {
 1904              		.loc 1 678 0 is_stmt 0 discriminator 24
 1905 00c8 1142     		tst	r1, r2
 1906 00ca 15D0     		beq	.L175
 680:../../../../../../Drivers/STM32L0xx_HAL_Driver/Src/stm32l0xx_hal_dma.c ****     {
 1907              		.loc 1 680 0 is_stmt 1
 1908 00cc 0221     		movs	r1, #2
 1909 00ce 1868     		ldr	r0, [r3]
 1910 00d0 0142     		tst	r1, r0
 1911 00d2 11D0     		beq	.L175
 682:../../../../../../Drivers/STM32L0xx_HAL_Driver/Src/stm32l0xx_hal_dma.c ****       {
 1912              		.loc 1 682 0
 1913 00d4 1868     		ldr	r0, [r3]
 1914 00d6 8006     		lsls	r0, r0, #26
 1915 00d8 43D5     		bpl	.L294
 1916              	.L197:
 688:../../../../../../Drivers/STM32L0xx_HAL_Driver/Src/stm32l0xx_hal_dma.c ****     
 1917              		.loc 1 688 0
 1918 00da 674B     		ldr	r3, .L300
 1919 00dc 5A60     		str	r2, [r3, #4]
 691:../../../../../../Drivers/STM32L0xx_HAL_Driver/Src/stm32l0xx_hal_dma.c **** 
 1920              		.loc 1 691 0
 1921 00de E36B     		ldr	r3, [r4, #60]
 694:../../../../../../Drivers/STM32L0xx_HAL_Driver/Src/stm32l0xx_hal_dma.c ****     
 1922              		.loc 1 694 0
 1923 00e0 0122     		movs	r2, #1
 691:../../../../../../Drivers/STM32L0xx_HAL_Driver/Src/stm32l0xx_hal_dma.c **** 
 1924              		.loc 1 691 0
 1925 00e2 E363     		str	r3, [r4, #60]
 694:../../../../../../Drivers/STM32L0xx_HAL_Driver/Src/stm32l0xx_hal_dma.c ****     
 1926              		.loc 1 694 0
 1927 00e4 2523     		movs	r3, #37
 1928 00e6 E254     		strb	r2, [r4, r3]
 697:../../../../../../Drivers/STM32L0xx_HAL_Driver/Src/stm32l0xx_hal_dma.c ****     
 1929              		.loc 1 697 0
 1930 00e8 0022     		movs	r2, #0
 1931 00ea 013B     		subs	r3, r3, #1
 1932 00ec E254     		strb	r2, [r4, r3]
 699:../../../../../../Drivers/STM32L0xx_HAL_Driver/Src/stm32l0xx_hal_dma.c ****       {       
 1933              		.loc 1 699 0
 1934 00ee E36A     		ldr	r3, [r4, #44]
 1935 00f0 002B     		cmp	r3, #0
 1936 00f2 01D0     		beq	.L175
 702:../../../../../../Drivers/STM32L0xx_HAL_Driver/Src/stm32l0xx_hal_dma.c ****       }
 1937              		.loc 1 702 0
 1938 00f4 2000     		movs	r0, r4
 1939 00f6 9847     		blx	r3
 1940              	.LVL104:
 1941              	.L175:
 706:../../../../../../Drivers/STM32L0xx_HAL_Driver/Src/stm32l0xx_hal_dma.c **** 
 1942              		.loc 1 706 0
 1943              		@ sp needed
ARM GAS  C:\Users\EBANO_~1\AppData\Local\Temp\cc4h82Al.s 			page 54


 1944              	.LVL105:
 1945 00f8 10BD     		pop	{r4, pc}
 1946              	.LVL106:
 1947              	.L289:
 653:../../../../../../Drivers/STM32L0xx_HAL_Driver/Src/stm32l0xx_hal_dma.c ****   {
 1948              		.loc 1 653 0
 1949 00fa 1268     		ldr	r2, [r2]
 1950              	.L185:
 1951 00fc 5306     		lsls	r3, r2, #25
 1952 00fe 00D4     		bmi	.LCB1803
 1953 0100 A7E0     		b	.L269	@long jump
 1954              	.LCB1803:
 655:../../../../../../Drivers/STM32L0xx_HAL_Driver/Src/stm32l0xx_hal_dma.c ****     { 
 1955              		.loc 1 655 0
 1956 0102 5F48     		ldr	r0, .L300+8
 653:../../../../../../Drivers/STM32L0xx_HAL_Driver/Src/stm32l0xx_hal_dma.c ****   {
 1957              		.loc 1 653 0
 1958 0104 4022     		movs	r2, #64
 655:../../../../../../Drivers/STM32L0xx_HAL_Driver/Src/stm32l0xx_hal_dma.c ****     { 
 1959              		.loc 1 655 0
 1960 0106 0168     		ldr	r1, [r0]
 1961 0108 0300     		movs	r3, r0
 1962 010a 4907     		lsls	r1, r1, #29
 1963 010c 00D4     		bmi	.LCB1811
 1964 010e A0E0     		b	.L269	@long jump
 1965              	.LCB1811:
 1966              	.L220:
 658:../../../../../../Drivers/STM32L0xx_HAL_Driver/Src/stm32l0xx_hal_dma.c ****       {
 1967              		.loc 1 658 0
 1968 0110 1968     		ldr	r1, [r3]
 1969 0112 8906     		lsls	r1, r1, #26
 1970 0114 3ED5     		bpl	.L295
 1971              	.L191:
 664:../../../../../../Drivers/STM32L0xx_HAL_Driver/Src/stm32l0xx_hal_dma.c **** 
 1972              		.loc 1 664 0
 1973 0116 5849     		ldr	r1, .L300
 1974 0118 4A60     		str	r2, [r1, #4]
 667:../../../../../../Drivers/STM32L0xx_HAL_Driver/Src/stm32l0xx_hal_dma.c **** 
 1975              		.loc 1 667 0
 1976 011a 2522     		movs	r2, #37
 1977 011c 0521     		movs	r1, #5
 1978 011e A154     		strb	r1, [r4, r2]
 669:../../../../../../Drivers/STM32L0xx_HAL_Driver/Src/stm32l0xx_hal_dma.c ****       {
 1979              		.loc 1 669 0
 1980 0120 226B     		ldr	r2, [r4, #48]
 1981 0122 002A     		cmp	r2, #0
 1982 0124 02D0     		beq	.L192
 672:../../../../../../Drivers/STM32L0xx_HAL_Driver/Src/stm32l0xx_hal_dma.c ****       }
 1983              		.loc 1 672 0
 1984 0126 2000     		movs	r0, r4
 1985 0128 9047     		blx	r2
 1986              	.LVL107:
 1987 012a 2368     		ldr	r3, [r4]
 1988              	.L192:
 678:../../../../../../Drivers/STM32L0xx_HAL_Driver/Src/stm32l0xx_hal_dma.c ****   {
 1989              		.loc 1 678 0
 1990 012c 524A     		ldr	r2, .L300
ARM GAS  C:\Users\EBANO_~1\AppData\Local\Temp\cc4h82Al.s 			page 55


 1991 012e 5348     		ldr	r0, .L300+4
 1992 0130 1168     		ldr	r1, [r2]
 1993 0132 0222     		movs	r2, #2
 1994 0134 8342     		cmp	r3, r0
 1995 0136 C7D0     		beq	.L193
 678:../../../../../../Drivers/STM32L0xx_HAL_Driver/Src/stm32l0xx_hal_dma.c ****   {
 1996              		.loc 1 678 0 is_stmt 0 discriminator 1
 1997 0138 5148     		ldr	r0, .L300+8
 1998 013a 1E32     		adds	r2, r2, #30
 1999 013c 8342     		cmp	r3, r0
 2000 013e C3D0     		beq	.L193
 678:../../../../../../Drivers/STM32L0xx_HAL_Driver/Src/stm32l0xx_hal_dma.c ****   {
 2001              		.loc 1 678 0 discriminator 3
 2002 0140 5048     		ldr	r0, .L300+12
 2003 0142 E132     		adds	r2, r2, #225
 2004 0144 FF32     		adds	r2, r2, #255
 2005 0146 8342     		cmp	r3, r0
 2006 0148 BED0     		beq	.L193
 678:../../../../../../Drivers/STM32L0xx_HAL_Driver/Src/stm32l0xx_hal_dma.c ****   {
 2007              		.loc 1 678 0 discriminator 5
 2008 014a 4F4A     		ldr	r2, .L300+16
 2009 014c 9342     		cmp	r3, r2
 2010 014e 4AD0     		beq	.L285
 678:../../../../../../Drivers/STM32L0xx_HAL_Driver/Src/stm32l0xx_hal_dma.c ****   {
 2011              		.loc 1 678 0 discriminator 7
 2012 0150 4E4A     		ldr	r2, .L300+20
 2013 0152 9342     		cmp	r3, r2
 2014 0154 30D0     		beq	.L287
 678:../../../../../../Drivers/STM32L0xx_HAL_Driver/Src/stm32l0xx_hal_dma.c ****   {
 2015              		.loc 1 678 0 discriminator 9
 2016 0156 4E4A     		ldr	r2, .L300+24
 2017 0158 9342     		cmp	r3, r2
 2018 015a 6BD1     		bne	.L233
 2019              	.L286:
 678:../../../../../../Drivers/STM32L0xx_HAL_Driver/Src/stm32l0xx_hal_dma.c ****   {
 2020              		.loc 1 678 0
 2021 015c 8022     		movs	r2, #128
 2022 015e 9203     		lsls	r2, r2, #14
 2023 0160 B2E7     		b	.L193
 2024              	.L294:
 685:../../../../../../Drivers/STM32L0xx_HAL_Driver/Src/stm32l0xx_hal_dma.c ****       }
 2025              		.loc 1 685 0 is_stmt 1
 2026 0162 1868     		ldr	r0, [r3]
 2027 0164 8843     		bics	r0, r1
 2028 0166 1860     		str	r0, [r3]
 2029 0168 B7E7     		b	.L197
 2030              	.L290:
 653:../../../../../../Drivers/STM32L0xx_HAL_Driver/Src/stm32l0xx_hal_dma.c ****   {
 2031              		.loc 1 653 0 discriminator 5
 2032 016a 4749     		ldr	r1, .L300+16
 2033 016c 8B42     		cmp	r3, r1
 2034 016e 33D0     		beq	.L187
 653:../../../../../../Drivers/STM32L0xx_HAL_Driver/Src/stm32l0xx_hal_dma.c ****   {
 2035              		.loc 1 653 0 is_stmt 0 discriminator 7
 2036 0170 4649     		ldr	r1, .L300+20
 2037 0172 8B42     		cmp	r3, r1
 2038 0174 19D0     		beq	.L188
ARM GAS  C:\Users\EBANO_~1\AppData\Local\Temp\cc4h82Al.s 			page 56


 653:../../../../../../Drivers/STM32L0xx_HAL_Driver/Src/stm32l0xx_hal_dma.c ****   {
 2039              		.loc 1 653 0 discriminator 9
 2040 0176 4649     		ldr	r1, .L300+24
 2041 0178 8B42     		cmp	r3, r1
 2042 017a 3DD0     		beq	.L189
 2043              	.L190:
 653:../../../../../../Drivers/STM32L0xx_HAL_Driver/Src/stm32l0xx_hal_dma.c ****   {
 2044              		.loc 1 653 0
 2045 017c 8021     		movs	r1, #128
 2046 017e C904     		lsls	r1, r1, #19
 2047 0180 0A42     		tst	r2, r1
 2048 0182 02D0     		beq	.L280
 655:../../../../../../Drivers/STM32L0xx_HAL_Driver/Src/stm32l0xx_hal_dma.c ****     { 
 2049              		.loc 1 655 0 is_stmt 1
 2050 0184 1A68     		ldr	r2, [r3]
 2051 0186 5207     		lsls	r2, r2, #29
 2052 0188 43D4     		bmi	.L247
 2053              	.L280:
 678:../../../../../../Drivers/STM32L0xx_HAL_Driver/Src/stm32l0xx_hal_dma.c ****   {
 2054              		.loc 1 678 0
 2055 018a 3B4A     		ldr	r2, .L300
 2056 018c 1168     		ldr	r1, [r2]
 2057 018e 8022     		movs	r2, #128
 2058 0190 9204     		lsls	r2, r2, #18
 2059 0192 99E7     		b	.L193
 2060              	.L295:
 661:../../../../../../Drivers/STM32L0xx_HAL_Driver/Src/stm32l0xx_hal_dma.c ****       }
 2061              		.loc 1 661 0
 2062 0194 0420     		movs	r0, #4
 2063 0196 1968     		ldr	r1, [r3]
 2064 0198 8143     		bics	r1, r0
 2065 019a 1960     		str	r1, [r3]
 2066 019c BBE7     		b	.L191
 2067              	.L180:
 625:../../../../../../Drivers/STM32L0xx_HAL_Driver/Src/stm32l0xx_hal_dma.c ****   {
 2068              		.loc 1 625 0
 2069 019e 8021     		movs	r1, #128
 2070 01a0 0903     		lsls	r1, r1, #12
 2071 01a2 0842     		tst	r0, r1
 2072 01a4 00D0     		beq	.LCB1913
 2073 01a6 4FE7     		b	.L212	@long jump
 2074              	.LCB1913:
 653:../../../../../../Drivers/STM32L0xx_HAL_Driver/Src/stm32l0xx_hal_dma.c ****   {
 2075              		.loc 1 653 0
 2076 01a8 1268     		ldr	r2, [r2]
 2077              	.L188:
 2078 01aa 8021     		movs	r1, #128
 2079 01ac C902     		lsls	r1, r1, #11
 2080 01ae 0A42     		tst	r2, r1
 2081 01b0 31D1     		bne	.L296
 678:../../../../../../Drivers/STM32L0xx_HAL_Driver/Src/stm32l0xx_hal_dma.c ****   {
 2082              		.loc 1 678 0
 2083 01b2 314B     		ldr	r3, .L300
 2084 01b4 1968     		ldr	r1, [r3]
 2085 01b6 354B     		ldr	r3, .L300+20
 2086              	.L287:
 2087 01b8 8022     		movs	r2, #128
ARM GAS  C:\Users\EBANO_~1\AppData\Local\Temp\cc4h82Al.s 			page 57


 2088 01ba 9202     		lsls	r2, r2, #10
 2089 01bc 84E7     		b	.L193
 2090              	.L178:
 625:../../../../../../Drivers/STM32L0xx_HAL_Driver/Src/stm32l0xx_hal_dma.c ****   {
 2091              		.loc 1 625 0
 2092 01be 8021     		movs	r1, #128
 2093 01c0 0901     		lsls	r1, r1, #4
 2094 01c2 0842     		tst	r0, r1
 2095 01c4 00D0     		beq	.LCB1937
 2096 01c6 3FE7     		b	.L212	@long jump
 2097              	.LCB1937:
 653:../../../../../../Drivers/STM32L0xx_HAL_Driver/Src/stm32l0xx_hal_dma.c ****   {
 2098              		.loc 1 653 0
 2099 01c8 1268     		ldr	r2, [r2]
 2100 01ca 62E7     		b	.L186
 2101              	.L179:
 625:../../../../../../Drivers/STM32L0xx_HAL_Driver/Src/stm32l0xx_hal_dma.c ****   {
 2102              		.loc 1 625 0
 2103 01cc 8021     		movs	r1, #128
 2104 01ce 0902     		lsls	r1, r1, #8
 2105 01d0 0842     		tst	r0, r1
 2106 01d2 00D0     		beq	.LCB1947
 2107 01d4 38E7     		b	.L212	@long jump
 2108              	.LCB1947:
 653:../../../../../../Drivers/STM32L0xx_HAL_Driver/Src/stm32l0xx_hal_dma.c ****   {
 2109              		.loc 1 653 0
 2110 01d6 1268     		ldr	r2, [r2]
 2111              	.L187:
 2112 01d8 8021     		movs	r1, #128
 2113 01da C901     		lsls	r1, r1, #7
 2114 01dc 0A42     		tst	r2, r1
 2115 01de 41D1     		bne	.L297
 678:../../../../../../Drivers/STM32L0xx_HAL_Driver/Src/stm32l0xx_hal_dma.c ****   {
 2116              		.loc 1 678 0
 2117 01e0 254B     		ldr	r3, .L300
 2118 01e2 1968     		ldr	r1, [r3]
 2119 01e4 284B     		ldr	r3, .L300+16
 2120              	.L285:
 2121 01e6 8022     		movs	r2, #128
 2122 01e8 9201     		lsls	r2, r2, #6
 2123 01ea 6DE7     		b	.L193
 2124              	.L288:
 625:../../../../../../Drivers/STM32L0xx_HAL_Driver/Src/stm32l0xx_hal_dma.c ****   {
 2125              		.loc 1 625 0
 2126 01ec 8021     		movs	r1, #128
 2127 01ee 0904     		lsls	r1, r1, #16
 2128 01f0 0842     		tst	r0, r1
 2129 01f2 00D0     		beq	.LCB1971
 2130 01f4 28E7     		b	.L212	@long jump
 2131              	.LCB1971:
 653:../../../../../../Drivers/STM32L0xx_HAL_Driver/Src/stm32l0xx_hal_dma.c ****   {
 2132              		.loc 1 653 0
 2133 01f6 1268     		ldr	r2, [r2]
 2134              	.L189:
 2135 01f8 8021     		movs	r1, #128
 2136 01fa C903     		lsls	r1, r1, #15
 2137 01fc 0A42     		tst	r2, r1
ARM GAS  C:\Users\EBANO_~1\AppData\Local\Temp\cc4h82Al.s 			page 58


 2138 01fe 2DD0     		beq	.L298
 655:../../../../../../Drivers/STM32L0xx_HAL_Driver/Src/stm32l0xx_hal_dma.c ****     { 
 2139              		.loc 1 655 0
 2140 0200 234B     		ldr	r3, .L300+24
 2141 0202 1A68     		ldr	r2, [r3]
 2142 0204 5207     		lsls	r2, r2, #29
 2143 0206 04D4     		bmi	.L247
 678:../../../../../../Drivers/STM32L0xx_HAL_Driver/Src/stm32l0xx_hal_dma.c ****   {
 2144              		.loc 1 678 0
 2145 0208 1B4A     		ldr	r2, .L300
 2146 020a 1168     		ldr	r1, [r2]
 2147 020c 8022     		movs	r2, #128
 2148 020e 9203     		lsls	r2, r2, #14
 2149 0210 5AE7     		b	.L193
 2150              	.L247:
 653:../../../../../../Drivers/STM32L0xx_HAL_Driver/Src/stm32l0xx_hal_dma.c ****   {
 2151              		.loc 1 653 0
 2152 0212 0A00     		movs	r2, r1
 2153 0214 7CE7     		b	.L220
 2154              	.L296:
 655:../../../../../../Drivers/STM32L0xx_HAL_Driver/Src/stm32l0xx_hal_dma.c ****     { 
 2155              		.loc 1 655 0
 2156 0216 1D4B     		ldr	r3, .L300+20
 2157 0218 1A68     		ldr	r2, [r3]
 2158 021a 5207     		lsls	r2, r2, #29
 2159 021c F9D4     		bmi	.L247
 678:../../../../../../Drivers/STM32L0xx_HAL_Driver/Src/stm32l0xx_hal_dma.c ****   {
 2160              		.loc 1 678 0
 2161 021e 164A     		ldr	r2, .L300
 2162 0220 1168     		ldr	r1, [r2]
 2163 0222 8022     		movs	r2, #128
 2164 0224 9202     		lsls	r2, r2, #10
 2165 0226 4FE7     		b	.L193
 2166              	.L291:
 2167 0228 8022     		movs	r2, #128
 2168 022a 134B     		ldr	r3, .L300
 2169 022c 9200     		lsls	r2, r2, #2
 2170 022e 1968     		ldr	r1, [r3]
 2171 0230 144B     		ldr	r3, .L300+12
 2172 0232 49E7     		b	.L193
 2173              	.L233:
 2174 0234 8022     		movs	r2, #128
 2175 0236 9204     		lsls	r2, r2, #18
 2176 0238 46E7     		b	.L193
 2177              	.L292:
 625:../../../../../../Drivers/STM32L0xx_HAL_Driver/Src/stm32l0xx_hal_dma.c ****   {
 2178              		.loc 1 625 0
 2179 023a 0821     		movs	r1, #8
 2180 023c 04E7     		b	.L212
 2181              	.L293:
 655:../../../../../../Drivers/STM32L0xx_HAL_Driver/Src/stm32l0xx_hal_dma.c ****     { 
 2182              		.loc 1 655 0
 2183 023e 0F4B     		ldr	r3, .L300+4
 2184 0240 1A68     		ldr	r2, [r3]
 2185 0242 0A42     		tst	r2, r1
 2186 0244 01D0     		beq	.L299
 653:../../../../../../Drivers/STM32L0xx_HAL_Driver/Src/stm32l0xx_hal_dma.c ****   {
ARM GAS  C:\Users\EBANO_~1\AppData\Local\Temp\cc4h82Al.s 			page 59


 2187              		.loc 1 653 0
 2188 0246 0422     		movs	r2, #4
 2189 0248 62E7     		b	.L220
 2190              	.L299:
 678:../../../../../../Drivers/STM32L0xx_HAL_Driver/Src/stm32l0xx_hal_dma.c ****   {
 2191              		.loc 1 678 0
 2192 024a 0B4A     		ldr	r2, .L300
 2193 024c 1168     		ldr	r1, [r2]
 2194 024e 0222     		movs	r2, #2
 2195 0250 3AE7     		b	.L193
 2196              	.L269:
 2197 0252 094B     		ldr	r3, .L300
 2198 0254 2022     		movs	r2, #32
 2199 0256 1968     		ldr	r1, [r3]
 2200 0258 094B     		ldr	r3, .L300+8
 2201 025a 35E7     		b	.L193
 2202              	.L298:
 2203 025c 064B     		ldr	r3, .L300
 2204 025e 1968     		ldr	r1, [r3]
 2205 0260 0B4B     		ldr	r3, .L300+24
 2206 0262 7BE7     		b	.L286
 2207              	.L297:
 655:../../../../../../Drivers/STM32L0xx_HAL_Driver/Src/stm32l0xx_hal_dma.c ****     { 
 2208              		.loc 1 655 0
 2209 0264 084B     		ldr	r3, .L300+16
 2210 0266 1A68     		ldr	r2, [r3]
 2211 0268 5207     		lsls	r2, r2, #29
 2212 026a D2D4     		bmi	.L247
 678:../../../../../../Drivers/STM32L0xx_HAL_Driver/Src/stm32l0xx_hal_dma.c ****   {
 2213              		.loc 1 678 0
 2214 026c 024A     		ldr	r2, .L300
 2215 026e 1168     		ldr	r1, [r2]
 2216 0270 8022     		movs	r2, #128
 2217 0272 9201     		lsls	r2, r2, #6
 2218 0274 28E7     		b	.L193
 2219              	.L301:
 2220 0276 C046     		.align	2
 2221              	.L300:
 2222 0278 00000240 		.word	1073872896
 2223 027c 08000240 		.word	1073872904
 2224 0280 1C000240 		.word	1073872924
 2225 0284 30000240 		.word	1073872944
 2226 0288 44000240 		.word	1073872964
 2227 028c 58000240 		.word	1073872984
 2228 0290 6C000240 		.word	1073873004
 2229              		.cfi_endproc
 2230              	.LFE46:
 2231              		.size	HAL_DMA_IRQHandler, .-HAL_DMA_IRQHandler
 2232              		.section	.text.HAL_DMA_GetState,"ax",%progbits
 2233              		.align	1
 2234              		.p2align 2,,3
 2235              		.global	HAL_DMA_GetState
 2236              		.syntax unified
 2237              		.code	16
 2238              		.thumb_func
 2239              		.fpu softvfp
 2240              		.type	HAL_DMA_GetState, %function
ARM GAS  C:\Users\EBANO_~1\AppData\Local\Temp\cc4h82Al.s 			page 60


 2241              	HAL_DMA_GetState:
 2242              	.LFB47:
 735:../../../../../../Drivers/STM32L0xx_HAL_Driver/Src/stm32l0xx_hal_dma.c ****   return hdma->State;
 2243              		.loc 1 735 0
 2244              		.cfi_startproc
 2245              		@ args = 0, pretend = 0, frame = 0
 2246              		@ frame_needed = 0, uses_anonymous_args = 0
 2247              		@ link register save eliminated.
 2248              	.LVL108:
 736:../../../../../../Drivers/STM32L0xx_HAL_Driver/Src/stm32l0xx_hal_dma.c **** }
 2249              		.loc 1 736 0
 2250 0000 2523     		movs	r3, #37
 2251 0002 C05C     		ldrb	r0, [r0, r3]
 2252              	.LVL109:
 737:../../../../../../Drivers/STM32L0xx_HAL_Driver/Src/stm32l0xx_hal_dma.c **** 
 2253              		.loc 1 737 0
 2254              		@ sp needed
 736:../../../../../../Drivers/STM32L0xx_HAL_Driver/Src/stm32l0xx_hal_dma.c **** }
 2255              		.loc 1 736 0
 2256 0004 C0B2     		uxtb	r0, r0
 737:../../../../../../Drivers/STM32L0xx_HAL_Driver/Src/stm32l0xx_hal_dma.c **** 
 2257              		.loc 1 737 0
 2258 0006 7047     		bx	lr
 2259              		.cfi_endproc
 2260              	.LFE47:
 2261              		.size	HAL_DMA_GetState, .-HAL_DMA_GetState
 2262              		.section	.text.HAL_DMA_GetError,"ax",%progbits
 2263              		.align	1
 2264              		.p2align 2,,3
 2265              		.global	HAL_DMA_GetError
 2266              		.syntax unified
 2267              		.code	16
 2268              		.thumb_func
 2269              		.fpu softvfp
 2270              		.type	HAL_DMA_GetError, %function
 2271              	HAL_DMA_GetError:
 2272              	.LFB48:
 746:../../../../../../Drivers/STM32L0xx_HAL_Driver/Src/stm32l0xx_hal_dma.c ****   return hdma->ErrorCode;
 2273              		.loc 1 746 0
 2274              		.cfi_startproc
 2275              		@ args = 0, pretend = 0, frame = 0
 2276              		@ frame_needed = 0, uses_anonymous_args = 0
 2277              		@ link register save eliminated.
 2278              	.LVL110:
 747:../../../../../../Drivers/STM32L0xx_HAL_Driver/Src/stm32l0xx_hal_dma.c **** }
 2279              		.loc 1 747 0
 2280 0000 C06B     		ldr	r0, [r0, #60]
 2281              	.LVL111:
 748:../../../../../../Drivers/STM32L0xx_HAL_Driver/Src/stm32l0xx_hal_dma.c **** 
 2282              		.loc 1 748 0
 2283              		@ sp needed
 2284 0002 7047     		bx	lr
 2285              		.cfi_endproc
 2286              	.LFE48:
 2287              		.size	HAL_DMA_GetError, .-HAL_DMA_GetError
 2288              		.text
 2289              	.Letext0:
ARM GAS  C:\Users\EBANO_~1\AppData\Local\Temp\cc4h82Al.s 			page 61


 2290              		.file 2 "c:\\program files (x86)\\gnu tools arm embedded\\7 2018-q2-update\\arm-none-eabi\\include
 2291              		.file 3 "c:\\program files (x86)\\gnu tools arm embedded\\7 2018-q2-update\\arm-none-eabi\\include
 2292              		.file 4 "../../../../../../Drivers/CMSIS/Device/ST/STM32L0xx/Include/system_stm32l0xx.h"
 2293              		.file 5 "../../../../../../Drivers/CMSIS/Device/ST/STM32L0xx/Include/stm32l072xx.h"
 2294              		.file 6 "c:\\program files (x86)\\gnu tools arm embedded\\7 2018-q2-update\\arm-none-eabi\\include
 2295              		.file 7 "c:\\program files (x86)\\gnu tools arm embedded\\7 2018-q2-update\\arm-none-eabi\\include
 2296              		.file 8 "c:\\program files (x86)\\gnu tools arm embedded\\7 2018-q2-update\\lib\\gcc\\arm-none-eab
 2297              		.file 9 "c:\\program files (x86)\\gnu tools arm embedded\\7 2018-q2-update\\arm-none-eabi\\include
 2298              		.file 10 "../../../../../../Drivers/CMSIS/Device/ST/STM32L0xx/Include/stm32l0xx.h"
 2299              		.file 11 "../../../../../../Drivers/STM32L0xx_HAL_Driver/Inc/stm32l0xx_hal_def.h"
 2300              		.file 12 "../../../../../../Drivers/STM32L0xx_HAL_Driver/Inc/stm32l0xx_hal_dma.h"
 2301              		.file 13 "../../../../../../Drivers/STM32L0xx_HAL_Driver/Inc/stm32l0xx_hal.h"