ARM GAS  C:\Users\EBANO_~1\AppData\Local\Temp\cc5uxYcV.s 			page 1


   1              		.cpu cortex-m0plus
   2              		.eabi_attribute 20, 1
   3              		.eabi_attribute 21, 1
   4              		.eabi_attribute 23, 3
   5              		.eabi_attribute 24, 1
   6              		.eabi_attribute 25, 1
   7              		.eabi_attribute 26, 1
   8              		.eabi_attribute 30, 2
   9              		.eabi_attribute 34, 0
  10              		.eabi_attribute 18, 4
  11              		.file	"stm32l0xx_hal.c"
  12              		.text
  13              	.Ltext0:
  14              		.cfi_sections	.debug_frame
  15              		.section	.text.HAL_MspInit,"ax",%progbits
  16              		.align	1
  17              		.p2align 2,,3
  18              		.weak	HAL_MspInit
  19              		.syntax unified
  20              		.code	16
  21              		.thumb_func
  22              		.fpu softvfp
  23              		.type	HAL_MspInit, %function
  24              	HAL_MspInit:
  25              	.LFB41:
  26              		.file 1 "../../../../../../Drivers/STM32L0xx_HAL_Driver/Src/stm32l0xx_hal.c"
   1:../../../../../../Drivers/STM32L0xx_HAL_Driver/Src/stm32l0xx_hal.c **** /**
   2:../../../../../../Drivers/STM32L0xx_HAL_Driver/Src/stm32l0xx_hal.c ****   ******************************************************************************
   3:../../../../../../Drivers/STM32L0xx_HAL_Driver/Src/stm32l0xx_hal.c ****   * @file    stm32l0xx_hal.c
   4:../../../../../../Drivers/STM32L0xx_HAL_Driver/Src/stm32l0xx_hal.c ****   * @author  MCD Application Team
   5:../../../../../../Drivers/STM32L0xx_HAL_Driver/Src/stm32l0xx_hal.c ****   * @brief   HAL module driver.
   6:../../../../../../Drivers/STM32L0xx_HAL_Driver/Src/stm32l0xx_hal.c ****   *          This is the common part of the HAL initialization
   7:../../../../../../Drivers/STM32L0xx_HAL_Driver/Src/stm32l0xx_hal.c ****   *
   8:../../../../../../Drivers/STM32L0xx_HAL_Driver/Src/stm32l0xx_hal.c ****   @verbatim
   9:../../../../../../Drivers/STM32L0xx_HAL_Driver/Src/stm32l0xx_hal.c ****   ==============================================================================
  10:../../../../../../Drivers/STM32L0xx_HAL_Driver/Src/stm32l0xx_hal.c ****                      ##### How to use this driver #####
  11:../../../../../../Drivers/STM32L0xx_HAL_Driver/Src/stm32l0xx_hal.c ****   ==============================================================================
  12:../../../../../../Drivers/STM32L0xx_HAL_Driver/Src/stm32l0xx_hal.c ****     [..]
  13:../../../../../../Drivers/STM32L0xx_HAL_Driver/Src/stm32l0xx_hal.c ****     The common HAL driver contains a set of generic and common APIs that can be
  14:../../../../../../Drivers/STM32L0xx_HAL_Driver/Src/stm32l0xx_hal.c ****     used by the PPP peripheral drivers and the user to start using the HAL. 
  15:../../../../../../Drivers/STM32L0xx_HAL_Driver/Src/stm32l0xx_hal.c ****     [..]
  16:../../../../../../Drivers/STM32L0xx_HAL_Driver/Src/stm32l0xx_hal.c ****     The HAL contains two APIs categories: 
  17:../../../../../../Drivers/STM32L0xx_HAL_Driver/Src/stm32l0xx_hal.c ****          (+) Common HAL APIs
  18:../../../../../../Drivers/STM32L0xx_HAL_Driver/Src/stm32l0xx_hal.c ****          (+) Services HAL APIs
  19:../../../../../../Drivers/STM32L0xx_HAL_Driver/Src/stm32l0xx_hal.c **** 
  20:../../../../../../Drivers/STM32L0xx_HAL_Driver/Src/stm32l0xx_hal.c ****   @endverbatim
  21:../../../../../../Drivers/STM32L0xx_HAL_Driver/Src/stm32l0xx_hal.c ****   ******************************************************************************
  22:../../../../../../Drivers/STM32L0xx_HAL_Driver/Src/stm32l0xx_hal.c ****   * @attention
  23:../../../../../../Drivers/STM32L0xx_HAL_Driver/Src/stm32l0xx_hal.c ****   *
  24:../../../../../../Drivers/STM32L0xx_HAL_Driver/Src/stm32l0xx_hal.c ****   * <h2><center>&copy; COPYRIGHT(c) 2016 STMicroelectronics</center></h2>
  25:../../../../../../Drivers/STM32L0xx_HAL_Driver/Src/stm32l0xx_hal.c ****   *
  26:../../../../../../Drivers/STM32L0xx_HAL_Driver/Src/stm32l0xx_hal.c ****   * Redistribution and use in source and binary forms, with or without modification,
  27:../../../../../../Drivers/STM32L0xx_HAL_Driver/Src/stm32l0xx_hal.c ****   * are permitted provided that the following conditions are met:
  28:../../../../../../Drivers/STM32L0xx_HAL_Driver/Src/stm32l0xx_hal.c ****   *   1. Redistributions of source code must retain the above copyright notice,
  29:../../../../../../Drivers/STM32L0xx_HAL_Driver/Src/stm32l0xx_hal.c ****   *      this list of conditions and the following disclaimer.
  30:../../../../../../Drivers/STM32L0xx_HAL_Driver/Src/stm32l0xx_hal.c ****   *   2. Redistributions in binary form must reproduce the above copyright notice,
  31:../../../../../../Drivers/STM32L0xx_HAL_Driver/Src/stm32l0xx_hal.c ****   *      this list of conditions and the following disclaimer in the documentation
ARM GAS  C:\Users\EBANO_~1\AppData\Local\Temp\cc5uxYcV.s 			page 2


  32:../../../../../../Drivers/STM32L0xx_HAL_Driver/Src/stm32l0xx_hal.c ****   *      and/or other materials provided with the distribution.
  33:../../../../../../Drivers/STM32L0xx_HAL_Driver/Src/stm32l0xx_hal.c ****   *   3. Neither the name of STMicroelectronics nor the names of its contributors
  34:../../../../../../Drivers/STM32L0xx_HAL_Driver/Src/stm32l0xx_hal.c ****   *      may be used to endorse or promote products derived from this software
  35:../../../../../../Drivers/STM32L0xx_HAL_Driver/Src/stm32l0xx_hal.c ****   *      without specific prior written permission.
  36:../../../../../../Drivers/STM32L0xx_HAL_Driver/Src/stm32l0xx_hal.c ****   *
  37:../../../../../../Drivers/STM32L0xx_HAL_Driver/Src/stm32l0xx_hal.c ****   * THIS SOFTWARE IS PROVIDED BY THE COPYRIGHT HOLDERS AND CONTRIBUTORS "AS IS"
  38:../../../../../../Drivers/STM32L0xx_HAL_Driver/Src/stm32l0xx_hal.c ****   * AND ANY EXPRESS OR IMPLIED WARRANTIES, INCLUDING, BUT NOT LIMITED TO, THE
  39:../../../../../../Drivers/STM32L0xx_HAL_Driver/Src/stm32l0xx_hal.c ****   * IMPLIED WARRANTIES OF MERCHANTABILITY AND FITNESS FOR A PARTICULAR PURPOSE ARE
  40:../../../../../../Drivers/STM32L0xx_HAL_Driver/Src/stm32l0xx_hal.c ****   * DISCLAIMED. IN NO EVENT SHALL THE COPYRIGHT HOLDER OR CONTRIBUTORS BE LIABLE
  41:../../../../../../Drivers/STM32L0xx_HAL_Driver/Src/stm32l0xx_hal.c ****   * FOR ANY DIRECT, INDIRECT, INCIDENTAL, SPECIAL, EXEMPLARY, OR CONSEQUENTIAL
  42:../../../../../../Drivers/STM32L0xx_HAL_Driver/Src/stm32l0xx_hal.c ****   * DAMAGES (INCLUDING, BUT NOT LIMITED TO, PROCUREMENT OF SUBSTITUTE GOODS OR
  43:../../../../../../Drivers/STM32L0xx_HAL_Driver/Src/stm32l0xx_hal.c ****   * SERVICES; LOSS OF USE, DATA, OR PROFITS; OR BUSINESS INTERRUPTION) HOWEVER
  44:../../../../../../Drivers/STM32L0xx_HAL_Driver/Src/stm32l0xx_hal.c ****   * CAUSED AND ON ANY THEORY OF LIABILITY, WHETHER IN CONTRACT, STRICT LIABILITY,
  45:../../../../../../Drivers/STM32L0xx_HAL_Driver/Src/stm32l0xx_hal.c ****   * OR TORT (INCLUDING NEGLIGENCE OR OTHERWISE) ARISING IN ANY WAY OUT OF THE USE
  46:../../../../../../Drivers/STM32L0xx_HAL_Driver/Src/stm32l0xx_hal.c ****   * OF THIS SOFTWARE, EVEN IF ADVISED OF THE POSSIBILITY OF SUCH DAMAGE.
  47:../../../../../../Drivers/STM32L0xx_HAL_Driver/Src/stm32l0xx_hal.c ****   *
  48:../../../../../../Drivers/STM32L0xx_HAL_Driver/Src/stm32l0xx_hal.c ****   ******************************************************************************
  49:../../../../../../Drivers/STM32L0xx_HAL_Driver/Src/stm32l0xx_hal.c ****   */
  50:../../../../../../Drivers/STM32L0xx_HAL_Driver/Src/stm32l0xx_hal.c **** 
  51:../../../../../../Drivers/STM32L0xx_HAL_Driver/Src/stm32l0xx_hal.c **** /* Includes ------------------------------------------------------------------*/
  52:../../../../../../Drivers/STM32L0xx_HAL_Driver/Src/stm32l0xx_hal.c **** #include "stm32l0xx_hal.h"
  53:../../../../../../Drivers/STM32L0xx_HAL_Driver/Src/stm32l0xx_hal.c **** 
  54:../../../../../../Drivers/STM32L0xx_HAL_Driver/Src/stm32l0xx_hal.c **** /** @addtogroup STM32L0xx_HAL_Driver
  55:../../../../../../Drivers/STM32L0xx_HAL_Driver/Src/stm32l0xx_hal.c ****   * @{
  56:../../../../../../Drivers/STM32L0xx_HAL_Driver/Src/stm32l0xx_hal.c ****   */
  57:../../../../../../Drivers/STM32L0xx_HAL_Driver/Src/stm32l0xx_hal.c **** 
  58:../../../../../../Drivers/STM32L0xx_HAL_Driver/Src/stm32l0xx_hal.c **** #ifdef HAL_MODULE_ENABLED
  59:../../../../../../Drivers/STM32L0xx_HAL_Driver/Src/stm32l0xx_hal.c **** 
  60:../../../../../../Drivers/STM32L0xx_HAL_Driver/Src/stm32l0xx_hal.c **** /** @addtogroup HAL 
  61:../../../../../../Drivers/STM32L0xx_HAL_Driver/Src/stm32l0xx_hal.c ****   * @brief HAL module driver.
  62:../../../../../../Drivers/STM32L0xx_HAL_Driver/Src/stm32l0xx_hal.c ****   * @{
  63:../../../../../../Drivers/STM32L0xx_HAL_Driver/Src/stm32l0xx_hal.c ****   */
  64:../../../../../../Drivers/STM32L0xx_HAL_Driver/Src/stm32l0xx_hal.c **** 
  65:../../../../../../Drivers/STM32L0xx_HAL_Driver/Src/stm32l0xx_hal.c **** /** @addtogroup HAL_Exported_Constants
  66:../../../../../../Drivers/STM32L0xx_HAL_Driver/Src/stm32l0xx_hal.c ****   * @{
  67:../../../../../../Drivers/STM32L0xx_HAL_Driver/Src/stm32l0xx_hal.c ****   */
  68:../../../../../../Drivers/STM32L0xx_HAL_Driver/Src/stm32l0xx_hal.c **** 
  69:../../../../../../Drivers/STM32L0xx_HAL_Driver/Src/stm32l0xx_hal.c **** 
  70:../../../../../../Drivers/STM32L0xx_HAL_Driver/Src/stm32l0xx_hal.c **** /** @defgroup SysTick System Tick
  71:../../../../../../Drivers/STM32L0xx_HAL_Driver/Src/stm32l0xx_hal.c ****   * @{
  72:../../../../../../Drivers/STM32L0xx_HAL_Driver/Src/stm32l0xx_hal.c ****   */
  73:../../../../../../Drivers/STM32L0xx_HAL_Driver/Src/stm32l0xx_hal.c **** /**
  74:../../../../../../Drivers/STM32L0xx_HAL_Driver/Src/stm32l0xx_hal.c ****  * @brief uwTick_variable uwTick variable
  75:../../../../../../Drivers/STM32L0xx_HAL_Driver/Src/stm32l0xx_hal.c ****  */
  76:../../../../../../Drivers/STM32L0xx_HAL_Driver/Src/stm32l0xx_hal.c **** __IO uint32_t uwTick;
  77:../../../../../../Drivers/STM32L0xx_HAL_Driver/Src/stm32l0xx_hal.c **** 
  78:../../../../../../Drivers/STM32L0xx_HAL_Driver/Src/stm32l0xx_hal.c **** /**
  79:../../../../../../Drivers/STM32L0xx_HAL_Driver/Src/stm32l0xx_hal.c ****   * @}
  80:../../../../../../Drivers/STM32L0xx_HAL_Driver/Src/stm32l0xx_hal.c ****   */
  81:../../../../../../Drivers/STM32L0xx_HAL_Driver/Src/stm32l0xx_hal.c **** 
  82:../../../../../../Drivers/STM32L0xx_HAL_Driver/Src/stm32l0xx_hal.c **** /** @defgroup HAL_Version HAL Version
  83:../../../../../../Drivers/STM32L0xx_HAL_Driver/Src/stm32l0xx_hal.c ****   * @{
  84:../../../../../../Drivers/STM32L0xx_HAL_Driver/Src/stm32l0xx_hal.c ****   */
  85:../../../../../../Drivers/STM32L0xx_HAL_Driver/Src/stm32l0xx_hal.c **** 
  86:../../../../../../Drivers/STM32L0xx_HAL_Driver/Src/stm32l0xx_hal.c **** /**
  87:../../../../../../Drivers/STM32L0xx_HAL_Driver/Src/stm32l0xx_hal.c ****  * @brief STM32L0xx HAL Driver version number
  88:../../../../../../Drivers/STM32L0xx_HAL_Driver/Src/stm32l0xx_hal.c ****  */
ARM GAS  C:\Users\EBANO_~1\AppData\Local\Temp\cc5uxYcV.s 			page 3


  89:../../../../../../Drivers/STM32L0xx_HAL_Driver/Src/stm32l0xx_hal.c **** #define __STM32L0xx_HAL_VERSION_MAIN   (0x01U) /*!< [31:24] main version */
  90:../../../../../../Drivers/STM32L0xx_HAL_Driver/Src/stm32l0xx_hal.c **** #define __STM32L0xx_HAL_VERSION_SUB1   (0x09U) /*!< [23:16] sub1 version */
  91:../../../../../../Drivers/STM32L0xx_HAL_Driver/Src/stm32l0xx_hal.c **** #define __STM32L0xx_HAL_VERSION_SUB2   (0x00U) /*!< [15:8]  sub2 version */
  92:../../../../../../Drivers/STM32L0xx_HAL_Driver/Src/stm32l0xx_hal.c **** #define __STM32L0xx_HAL_VERSION_RC     (0x00U) /*!< [7:0]  release candidate */
  93:../../../../../../Drivers/STM32L0xx_HAL_Driver/Src/stm32l0xx_hal.c **** #define __STM32L0xx_HAL_VERSION         ((__STM32L0xx_HAL_VERSION_MAIN << 24U)\
  94:../../../../../../Drivers/STM32L0xx_HAL_Driver/Src/stm32l0xx_hal.c ****                                         |(__STM32L0xx_HAL_VERSION_SUB1 << 16U)\
  95:../../../../../../Drivers/STM32L0xx_HAL_Driver/Src/stm32l0xx_hal.c ****                                         |(__STM32L0xx_HAL_VERSION_SUB2 << 8U )\
  96:../../../../../../Drivers/STM32L0xx_HAL_Driver/Src/stm32l0xx_hal.c ****                                         |(__STM32L0xx_HAL_VERSION_RC))
  97:../../../../../../Drivers/STM32L0xx_HAL_Driver/Src/stm32l0xx_hal.c **** 
  98:../../../../../../Drivers/STM32L0xx_HAL_Driver/Src/stm32l0xx_hal.c **** #define IDCODE_DEVID_MASK    ((uint32_t)0x00000FFFU)
  99:../../../../../../Drivers/STM32L0xx_HAL_Driver/Src/stm32l0xx_hal.c **** 
 100:../../../../../../Drivers/STM32L0xx_HAL_Driver/Src/stm32l0xx_hal.c **** /**
 101:../../../../../../Drivers/STM32L0xx_HAL_Driver/Src/stm32l0xx_hal.c ****   * @}
 102:../../../../../../Drivers/STM32L0xx_HAL_Driver/Src/stm32l0xx_hal.c ****   */ 
 103:../../../../../../Drivers/STM32L0xx_HAL_Driver/Src/stm32l0xx_hal.c ****   
 104:../../../../../../Drivers/STM32L0xx_HAL_Driver/Src/stm32l0xx_hal.c **** /**
 105:../../../../../../Drivers/STM32L0xx_HAL_Driver/Src/stm32l0xx_hal.c ****   * @}
 106:../../../../../../Drivers/STM32L0xx_HAL_Driver/Src/stm32l0xx_hal.c ****   */
 107:../../../../../../Drivers/STM32L0xx_HAL_Driver/Src/stm32l0xx_hal.c **** /** @defgroup HAL_Private HAL Private
 108:../../../../../../Drivers/STM32L0xx_HAL_Driver/Src/stm32l0xx_hal.c ****   * @{
 109:../../../../../../Drivers/STM32L0xx_HAL_Driver/Src/stm32l0xx_hal.c ****   */ 
 110:../../../../../../Drivers/STM32L0xx_HAL_Driver/Src/stm32l0xx_hal.c **** 
 111:../../../../../../Drivers/STM32L0xx_HAL_Driver/Src/stm32l0xx_hal.c **** 
 112:../../../../../../Drivers/STM32L0xx_HAL_Driver/Src/stm32l0xx_hal.c **** /**
 113:../../../../../../Drivers/STM32L0xx_HAL_Driver/Src/stm32l0xx_hal.c ****   * @}
 114:../../../../../../Drivers/STM32L0xx_HAL_Driver/Src/stm32l0xx_hal.c ****   */ 
 115:../../../../../../Drivers/STM32L0xx_HAL_Driver/Src/stm32l0xx_hal.c **** 
 116:../../../../../../Drivers/STM32L0xx_HAL_Driver/Src/stm32l0xx_hal.c **** /** @addtogroup HAL_Exported_Functions HAL Exported Functions
 117:../../../../../../Drivers/STM32L0xx_HAL_Driver/Src/stm32l0xx_hal.c ****   * @{
 118:../../../../../../Drivers/STM32L0xx_HAL_Driver/Src/stm32l0xx_hal.c ****   */
 119:../../../../../../Drivers/STM32L0xx_HAL_Driver/Src/stm32l0xx_hal.c **** 
 120:../../../../../../Drivers/STM32L0xx_HAL_Driver/Src/stm32l0xx_hal.c **** /** @addtogroup HAL_Exported_Functions_Group1
 121:../../../../../../Drivers/STM32L0xx_HAL_Driver/Src/stm32l0xx_hal.c ****  *  @brief    Initialization and de-initialization functions
 122:../../../../../../Drivers/STM32L0xx_HAL_Driver/Src/stm32l0xx_hal.c ****  *
 123:../../../../../../Drivers/STM32L0xx_HAL_Driver/Src/stm32l0xx_hal.c **** @verbatim
 124:../../../../../../Drivers/STM32L0xx_HAL_Driver/Src/stm32l0xx_hal.c ****  ===============================================================================
 125:../../../../../../Drivers/STM32L0xx_HAL_Driver/Src/stm32l0xx_hal.c ****               ##### Initialization and de-initialization functions #####
 126:../../../../../../Drivers/STM32L0xx_HAL_Driver/Src/stm32l0xx_hal.c ****  ===============================================================================
 127:../../../../../../Drivers/STM32L0xx_HAL_Driver/Src/stm32l0xx_hal.c ****    [..]  This section provides functions allowing to:
 128:../../../../../../Drivers/STM32L0xx_HAL_Driver/Src/stm32l0xx_hal.c ****       (+) Initializes the Flash interface, the NVIC allocation and initial clock 
 129:../../../../../../Drivers/STM32L0xx_HAL_Driver/Src/stm32l0xx_hal.c ****           configuration. It initializes the source of time base also when timeout 
 130:../../../../../../Drivers/STM32L0xx_HAL_Driver/Src/stm32l0xx_hal.c ****           is needed and the backup domain when enabled.
 131:../../../../../../Drivers/STM32L0xx_HAL_Driver/Src/stm32l0xx_hal.c ****       (+) de-Initializes common part of the HAL.
 132:../../../../../../Drivers/STM32L0xx_HAL_Driver/Src/stm32l0xx_hal.c ****       (+) Configure The time base source to have 1ms time base with a dedicated 
 133:../../../../../../Drivers/STM32L0xx_HAL_Driver/Src/stm32l0xx_hal.c ****           Tick interrupt priority. 
 134:../../../../../../Drivers/STM32L0xx_HAL_Driver/Src/stm32l0xx_hal.c ****         (++) Systick timer is used by default as source of time base, but user 
 135:../../../../../../Drivers/STM32L0xx_HAL_Driver/Src/stm32l0xx_hal.c ****              can eventually implement his proper time base source (a general purpose 
 136:../../../../../../Drivers/STM32L0xx_HAL_Driver/Src/stm32l0xx_hal.c ****              timer for example or other time source), keeping in mind that Time base 
 137:../../../../../../Drivers/STM32L0xx_HAL_Driver/Src/stm32l0xx_hal.c ****              duration should be kept 1ms since PPP_TIMEOUT_VALUEs are defined and 
 138:../../../../../../Drivers/STM32L0xx_HAL_Driver/Src/stm32l0xx_hal.c ****              handled in milliseconds basis.
 139:../../../../../../Drivers/STM32L0xx_HAL_Driver/Src/stm32l0xx_hal.c ****         (++) Time base configuration function (HAL_InitTick ()) is called automatically 
 140:../../../../../../Drivers/STM32L0xx_HAL_Driver/Src/stm32l0xx_hal.c ****              at the beginning of the program after reset by HAL_Init() or at any time 
 141:../../../../../../Drivers/STM32L0xx_HAL_Driver/Src/stm32l0xx_hal.c ****              when clock is configured, by HAL_RCC_ClockConfig(). 
 142:../../../../../../Drivers/STM32L0xx_HAL_Driver/Src/stm32l0xx_hal.c ****         (++) Source of time base is configured  to generate interrupts at regular 
 143:../../../../../../Drivers/STM32L0xx_HAL_Driver/Src/stm32l0xx_hal.c ****              time intervals. Care must be taken if HAL_Delay() is called from a 
 144:../../../../../../Drivers/STM32L0xx_HAL_Driver/Src/stm32l0xx_hal.c ****              peripheral ISR process, the Tick interrupt line must have higher priority 
 145:../../../../../../Drivers/STM32L0xx_HAL_Driver/Src/stm32l0xx_hal.c ****             (numerically lower) than the peripheral interrupt. Otherwise the caller 
ARM GAS  C:\Users\EBANO_~1\AppData\Local\Temp\cc5uxYcV.s 			page 4


 146:../../../../../../Drivers/STM32L0xx_HAL_Driver/Src/stm32l0xx_hal.c ****             ISR process will be blocked. 
 147:../../../../../../Drivers/STM32L0xx_HAL_Driver/Src/stm32l0xx_hal.c ****        (++) functions affecting time base configurations are declared as __weak  
 148:../../../../../../Drivers/STM32L0xx_HAL_Driver/Src/stm32l0xx_hal.c ****              to make  override possible  in case of other  implementations in user file.
 149:../../../../../../Drivers/STM32L0xx_HAL_Driver/Src/stm32l0xx_hal.c ****  
 150:../../../../../../Drivers/STM32L0xx_HAL_Driver/Src/stm32l0xx_hal.c **** @endverbatim
 151:../../../../../../Drivers/STM32L0xx_HAL_Driver/Src/stm32l0xx_hal.c ****   * @{
 152:../../../../../../Drivers/STM32L0xx_HAL_Driver/Src/stm32l0xx_hal.c ****   */
 153:../../../../../../Drivers/STM32L0xx_HAL_Driver/Src/stm32l0xx_hal.c **** 
 154:../../../../../../Drivers/STM32L0xx_HAL_Driver/Src/stm32l0xx_hal.c **** /**
 155:../../../../../../Drivers/STM32L0xx_HAL_Driver/Src/stm32l0xx_hal.c ****   * @brief This function configures the Flash prefetch, Flash preread and Buffer cache,
 156:../../../../../../Drivers/STM32L0xx_HAL_Driver/Src/stm32l0xx_hal.c ****   *        Configures time base source, NVIC and Low level hardware
 157:../../../../../../Drivers/STM32L0xx_HAL_Driver/Src/stm32l0xx_hal.c ****   * @note This function is called at the beginning of program after reset and before 
 158:../../../../../../Drivers/STM32L0xx_HAL_Driver/Src/stm32l0xx_hal.c ****   *       the clock configuration
 159:../../../../../../Drivers/STM32L0xx_HAL_Driver/Src/stm32l0xx_hal.c ****   * @note The time base configuration is based on MSI clock when exiting from Reset.
 160:../../../../../../Drivers/STM32L0xx_HAL_Driver/Src/stm32l0xx_hal.c ****   *       Once done, time base tick start incrementing.
 161:../../../../../../Drivers/STM32L0xx_HAL_Driver/Src/stm32l0xx_hal.c ****   *        In the default implementation,Systick is used as source of time base.
 162:../../../../../../Drivers/STM32L0xx_HAL_Driver/Src/stm32l0xx_hal.c ****   *        the tick variable is incremented each 1ms in its ISR.
 163:../../../../../../Drivers/STM32L0xx_HAL_Driver/Src/stm32l0xx_hal.c ****   * @retval HAL status
 164:../../../../../../Drivers/STM32L0xx_HAL_Driver/Src/stm32l0xx_hal.c ****   */
 165:../../../../../../Drivers/STM32L0xx_HAL_Driver/Src/stm32l0xx_hal.c **** HAL_StatusTypeDef HAL_Init(void)
 166:../../../../../../Drivers/STM32L0xx_HAL_Driver/Src/stm32l0xx_hal.c **** {
 167:../../../../../../Drivers/STM32L0xx_HAL_Driver/Src/stm32l0xx_hal.c ****   /* Configure Buffer cache, Flash prefetch,  Flash preread */ 
 168:../../../../../../Drivers/STM32L0xx_HAL_Driver/Src/stm32l0xx_hal.c **** #if (BUFFER_CACHE_DISABLE != 0)
 169:../../../../../../Drivers/STM32L0xx_HAL_Driver/Src/stm32l0xx_hal.c ****   __HAL_FLASH_BUFFER_CACHE_DISABLE();
 170:../../../../../../Drivers/STM32L0xx_HAL_Driver/Src/stm32l0xx_hal.c **** #endif /* BUFFER_CACHE_DISABLE */
 171:../../../../../../Drivers/STM32L0xx_HAL_Driver/Src/stm32l0xx_hal.c **** 
 172:../../../../../../Drivers/STM32L0xx_HAL_Driver/Src/stm32l0xx_hal.c **** #if (PREREAD_ENABLE != 0)
 173:../../../../../../Drivers/STM32L0xx_HAL_Driver/Src/stm32l0xx_hal.c ****   __HAL_FLASH_PREREAD_BUFFER_ENABLE();
 174:../../../../../../Drivers/STM32L0xx_HAL_Driver/Src/stm32l0xx_hal.c **** #endif /* PREREAD_ENABLE */
 175:../../../../../../Drivers/STM32L0xx_HAL_Driver/Src/stm32l0xx_hal.c **** 
 176:../../../../../../Drivers/STM32L0xx_HAL_Driver/Src/stm32l0xx_hal.c **** #if (PREFETCH_ENABLE != 0)
 177:../../../../../../Drivers/STM32L0xx_HAL_Driver/Src/stm32l0xx_hal.c ****   __HAL_FLASH_PREFETCH_BUFFER_ENABLE();
 178:../../../../../../Drivers/STM32L0xx_HAL_Driver/Src/stm32l0xx_hal.c **** #endif /* PREFETCH_ENABLE */
 179:../../../../../../Drivers/STM32L0xx_HAL_Driver/Src/stm32l0xx_hal.c **** 
 180:../../../../../../Drivers/STM32L0xx_HAL_Driver/Src/stm32l0xx_hal.c ****   /* Use systick as time base source and configure 1ms tick (default clock after Reset is MSI) */
 181:../../../../../../Drivers/STM32L0xx_HAL_Driver/Src/stm32l0xx_hal.c **** 
 182:../../../../../../Drivers/STM32L0xx_HAL_Driver/Src/stm32l0xx_hal.c ****   HAL_InitTick(TICK_INT_PRIORITY);
 183:../../../../../../Drivers/STM32L0xx_HAL_Driver/Src/stm32l0xx_hal.c **** 
 184:../../../../../../Drivers/STM32L0xx_HAL_Driver/Src/stm32l0xx_hal.c ****   /* Init the low level hardware */
 185:../../../../../../Drivers/STM32L0xx_HAL_Driver/Src/stm32l0xx_hal.c ****   HAL_MspInit();
 186:../../../../../../Drivers/STM32L0xx_HAL_Driver/Src/stm32l0xx_hal.c **** 
 187:../../../../../../Drivers/STM32L0xx_HAL_Driver/Src/stm32l0xx_hal.c ****   /* Return function status */
 188:../../../../../../Drivers/STM32L0xx_HAL_Driver/Src/stm32l0xx_hal.c ****   return HAL_OK;
 189:../../../../../../Drivers/STM32L0xx_HAL_Driver/Src/stm32l0xx_hal.c **** }
 190:../../../../../../Drivers/STM32L0xx_HAL_Driver/Src/stm32l0xx_hal.c **** 
 191:../../../../../../Drivers/STM32L0xx_HAL_Driver/Src/stm32l0xx_hal.c **** /**
 192:../../../../../../Drivers/STM32L0xx_HAL_Driver/Src/stm32l0xx_hal.c ****   * @brief This function de-Initializes common part of the HAL and stops the source
 193:../../../../../../Drivers/STM32L0xx_HAL_Driver/Src/stm32l0xx_hal.c ****   *        of time base.
 194:../../../../../../Drivers/STM32L0xx_HAL_Driver/Src/stm32l0xx_hal.c ****   * @note This function is optional.
 195:../../../../../../Drivers/STM32L0xx_HAL_Driver/Src/stm32l0xx_hal.c ****   * @retval HAL status
 196:../../../../../../Drivers/STM32L0xx_HAL_Driver/Src/stm32l0xx_hal.c ****   */
 197:../../../../../../Drivers/STM32L0xx_HAL_Driver/Src/stm32l0xx_hal.c **** HAL_StatusTypeDef HAL_DeInit(void)
 198:../../../../../../Drivers/STM32L0xx_HAL_Driver/Src/stm32l0xx_hal.c **** {
 199:../../../../../../Drivers/STM32L0xx_HAL_Driver/Src/stm32l0xx_hal.c ****   /* Reset of all peripherals */
 200:../../../../../../Drivers/STM32L0xx_HAL_Driver/Src/stm32l0xx_hal.c ****   __HAL_RCC_APB1_FORCE_RESET();
 201:../../../../../../Drivers/STM32L0xx_HAL_Driver/Src/stm32l0xx_hal.c ****   __HAL_RCC_APB1_RELEASE_RESET();
 202:../../../../../../Drivers/STM32L0xx_HAL_Driver/Src/stm32l0xx_hal.c **** 
ARM GAS  C:\Users\EBANO_~1\AppData\Local\Temp\cc5uxYcV.s 			page 5


 203:../../../../../../Drivers/STM32L0xx_HAL_Driver/Src/stm32l0xx_hal.c ****   __HAL_RCC_APB2_FORCE_RESET();
 204:../../../../../../Drivers/STM32L0xx_HAL_Driver/Src/stm32l0xx_hal.c ****   __HAL_RCC_APB2_RELEASE_RESET();
 205:../../../../../../Drivers/STM32L0xx_HAL_Driver/Src/stm32l0xx_hal.c **** 
 206:../../../../../../Drivers/STM32L0xx_HAL_Driver/Src/stm32l0xx_hal.c ****   __HAL_RCC_AHB_FORCE_RESET();
 207:../../../../../../Drivers/STM32L0xx_HAL_Driver/Src/stm32l0xx_hal.c ****   __HAL_RCC_AHB_RELEASE_RESET();
 208:../../../../../../Drivers/STM32L0xx_HAL_Driver/Src/stm32l0xx_hal.c **** 
 209:../../../../../../Drivers/STM32L0xx_HAL_Driver/Src/stm32l0xx_hal.c ****   __HAL_RCC_IOP_FORCE_RESET();
 210:../../../../../../Drivers/STM32L0xx_HAL_Driver/Src/stm32l0xx_hal.c ****   __HAL_RCC_IOP_RELEASE_RESET();
 211:../../../../../../Drivers/STM32L0xx_HAL_Driver/Src/stm32l0xx_hal.c **** 
 212:../../../../../../Drivers/STM32L0xx_HAL_Driver/Src/stm32l0xx_hal.c ****   /* De-Init the low level hardware */
 213:../../../../../../Drivers/STM32L0xx_HAL_Driver/Src/stm32l0xx_hal.c ****   HAL_MspDeInit();
 214:../../../../../../Drivers/STM32L0xx_HAL_Driver/Src/stm32l0xx_hal.c ****     
 215:../../../../../../Drivers/STM32L0xx_HAL_Driver/Src/stm32l0xx_hal.c ****   /* Return function status */
 216:../../../../../../Drivers/STM32L0xx_HAL_Driver/Src/stm32l0xx_hal.c ****   return HAL_OK;
 217:../../../../../../Drivers/STM32L0xx_HAL_Driver/Src/stm32l0xx_hal.c **** }
 218:../../../../../../Drivers/STM32L0xx_HAL_Driver/Src/stm32l0xx_hal.c **** 
 219:../../../../../../Drivers/STM32L0xx_HAL_Driver/Src/stm32l0xx_hal.c **** /**
 220:../../../../../../Drivers/STM32L0xx_HAL_Driver/Src/stm32l0xx_hal.c ****   * @brief  Initializes the MSP.
 221:../../../../../../Drivers/STM32L0xx_HAL_Driver/Src/stm32l0xx_hal.c ****   * @retval None
 222:../../../../../../Drivers/STM32L0xx_HAL_Driver/Src/stm32l0xx_hal.c ****   */
 223:../../../../../../Drivers/STM32L0xx_HAL_Driver/Src/stm32l0xx_hal.c **** __weak void HAL_MspInit(void)
 224:../../../../../../Drivers/STM32L0xx_HAL_Driver/Src/stm32l0xx_hal.c **** {
  27              		.loc 1 224 0
  28              		.cfi_startproc
  29              		@ args = 0, pretend = 0, frame = 0
  30              		@ frame_needed = 0, uses_anonymous_args = 0
  31              		@ link register save eliminated.
 225:../../../../../../Drivers/STM32L0xx_HAL_Driver/Src/stm32l0xx_hal.c ****   /* NOTE : This function Should not be modified, when the callback is needed,
 226:../../../../../../Drivers/STM32L0xx_HAL_Driver/Src/stm32l0xx_hal.c ****             the HAL_MspInit could be implemented in the user file
 227:../../../../../../Drivers/STM32L0xx_HAL_Driver/Src/stm32l0xx_hal.c ****    */
 228:../../../../../../Drivers/STM32L0xx_HAL_Driver/Src/stm32l0xx_hal.c **** }
  32              		.loc 1 228 0
  33              		@ sp needed
  34 0000 7047     		bx	lr
  35              		.cfi_endproc
  36              	.LFE41:
  37              		.size	HAL_MspInit, .-HAL_MspInit
  38 0002 C046     		.section	.text.HAL_MspDeInit,"ax",%progbits
  39              		.align	1
  40              		.p2align 2,,3
  41              		.weak	HAL_MspDeInit
  42              		.syntax unified
  43              		.code	16
  44              		.thumb_func
  45              		.fpu softvfp
  46              		.type	HAL_MspDeInit, %function
  47              	HAL_MspDeInit:
  48              	.LFB65:
  49              		.cfi_startproc
  50              		@ args = 0, pretend = 0, frame = 0
  51              		@ frame_needed = 0, uses_anonymous_args = 0
  52              		@ link register save eliminated.
  53              		@ sp needed
  54 0000 7047     		bx	lr
  55              		.cfi_endproc
  56              	.LFE65:
  57              		.size	HAL_MspDeInit, .-HAL_MspDeInit
ARM GAS  C:\Users\EBANO_~1\AppData\Local\Temp\cc5uxYcV.s 			page 6


  58 0002 C046     		.section	.text.HAL_DeInit,"ax",%progbits
  59              		.align	1
  60              		.p2align 2,,3
  61              		.global	HAL_DeInit
  62              		.syntax unified
  63              		.code	16
  64              		.thumb_func
  65              		.fpu softvfp
  66              		.type	HAL_DeInit, %function
  67              	HAL_DeInit:
  68              	.LFB40:
 198:../../../../../../Drivers/STM32L0xx_HAL_Driver/Src/stm32l0xx_hal.c ****   /* Reset of all peripherals */
  69              		.loc 1 198 0
  70              		.cfi_startproc
  71              		@ args = 0, pretend = 0, frame = 0
  72              		@ frame_needed = 0, uses_anonymous_args = 0
 200:../../../../../../Drivers/STM32L0xx_HAL_Driver/Src/stm32l0xx_hal.c ****   __HAL_RCC_APB1_RELEASE_RESET();
  73              		.loc 1 200 0
  74 0000 0121     		movs	r1, #1
 201:../../../../../../Drivers/STM32L0xx_HAL_Driver/Src/stm32l0xx_hal.c **** 
  75              		.loc 1 201 0
  76 0002 0022     		movs	r2, #0
 198:../../../../../../Drivers/STM32L0xx_HAL_Driver/Src/stm32l0xx_hal.c ****   /* Reset of all peripherals */
  77              		.loc 1 198 0
  78 0004 10B5     		push	{r4, lr}
  79              	.LCFI0:
  80              		.cfi_def_cfa_offset 8
  81              		.cfi_offset 4, -8
  82              		.cfi_offset 14, -4
 200:../../../../../../Drivers/STM32L0xx_HAL_Driver/Src/stm32l0xx_hal.c ****   __HAL_RCC_APB1_RELEASE_RESET();
  83              		.loc 1 200 0
  84 0006 074B     		ldr	r3, .L5
  85 0008 4942     		rsbs	r1, r1, #0
  86 000a 9962     		str	r1, [r3, #40]
 201:../../../../../../Drivers/STM32L0xx_HAL_Driver/Src/stm32l0xx_hal.c **** 
  87              		.loc 1 201 0
  88 000c 9A62     		str	r2, [r3, #40]
 203:../../../../../../Drivers/STM32L0xx_HAL_Driver/Src/stm32l0xx_hal.c ****   __HAL_RCC_APB2_RELEASE_RESET();
  89              		.loc 1 203 0
  90 000e 5962     		str	r1, [r3, #36]
 204:../../../../../../Drivers/STM32L0xx_HAL_Driver/Src/stm32l0xx_hal.c **** 
  91              		.loc 1 204 0
  92 0010 5A62     		str	r2, [r3, #36]
 206:../../../../../../Drivers/STM32L0xx_HAL_Driver/Src/stm32l0xx_hal.c ****   __HAL_RCC_AHB_RELEASE_RESET();
  93              		.loc 1 206 0
  94 0012 1962     		str	r1, [r3, #32]
 207:../../../../../../Drivers/STM32L0xx_HAL_Driver/Src/stm32l0xx_hal.c **** 
  95              		.loc 1 207 0
  96 0014 1A62     		str	r2, [r3, #32]
 209:../../../../../../Drivers/STM32L0xx_HAL_Driver/Src/stm32l0xx_hal.c ****   __HAL_RCC_IOP_RELEASE_RESET();
  97              		.loc 1 209 0
  98 0016 D961     		str	r1, [r3, #28]
 210:../../../../../../Drivers/STM32L0xx_HAL_Driver/Src/stm32l0xx_hal.c **** 
  99              		.loc 1 210 0
 100 0018 DA61     		str	r2, [r3, #28]
 213:../../../../../../Drivers/STM32L0xx_HAL_Driver/Src/stm32l0xx_hal.c ****     
 101              		.loc 1 213 0
ARM GAS  C:\Users\EBANO_~1\AppData\Local\Temp\cc5uxYcV.s 			page 7


 102 001a FFF7FEFF 		bl	HAL_MspDeInit
 103              	.LVL0:
 217:../../../../../../Drivers/STM32L0xx_HAL_Driver/Src/stm32l0xx_hal.c **** 
 104              		.loc 1 217 0
 105              		@ sp needed
 106 001e 0020     		movs	r0, #0
 107 0020 10BD     		pop	{r4, pc}
 108              	.L6:
 109 0022 C046     		.align	2
 110              	.L5:
 111 0024 00100240 		.word	1073876992
 112              		.cfi_endproc
 113              	.LFE40:
 114              		.size	HAL_DeInit, .-HAL_DeInit
 115              		.global	__aeabi_uidiv
 116              		.section	.text.HAL_InitTick,"ax",%progbits
 117              		.align	1
 118              		.p2align 2,,3
 119              		.weak	HAL_InitTick
 120              		.syntax unified
 121              		.code	16
 122              		.thumb_func
 123              		.fpu softvfp
 124              		.type	HAL_InitTick, %function
 125              	HAL_InitTick:
 126              	.LFB43:
 229:../../../../../../Drivers/STM32L0xx_HAL_Driver/Src/stm32l0xx_hal.c **** 
 230:../../../../../../Drivers/STM32L0xx_HAL_Driver/Src/stm32l0xx_hal.c **** /**
 231:../../../../../../Drivers/STM32L0xx_HAL_Driver/Src/stm32l0xx_hal.c ****   * @brief  DeInitializes the MSP.
 232:../../../../../../Drivers/STM32L0xx_HAL_Driver/Src/stm32l0xx_hal.c ****   * @retval None
 233:../../../../../../Drivers/STM32L0xx_HAL_Driver/Src/stm32l0xx_hal.c ****   */
 234:../../../../../../Drivers/STM32L0xx_HAL_Driver/Src/stm32l0xx_hal.c **** __weak void HAL_MspDeInit(void)
 235:../../../../../../Drivers/STM32L0xx_HAL_Driver/Src/stm32l0xx_hal.c **** {
 236:../../../../../../Drivers/STM32L0xx_HAL_Driver/Src/stm32l0xx_hal.c ****   /* NOTE : This function Should not be modified, when the callback is needed,
 237:../../../../../../Drivers/STM32L0xx_HAL_Driver/Src/stm32l0xx_hal.c ****             the HAL_MspDeInit could be implemented in the user file
 238:../../../../../../Drivers/STM32L0xx_HAL_Driver/Src/stm32l0xx_hal.c ****    */
 239:../../../../../../Drivers/STM32L0xx_HAL_Driver/Src/stm32l0xx_hal.c **** }
 240:../../../../../../Drivers/STM32L0xx_HAL_Driver/Src/stm32l0xx_hal.c **** 
 241:../../../../../../Drivers/STM32L0xx_HAL_Driver/Src/stm32l0xx_hal.c **** 
 242:../../../../../../Drivers/STM32L0xx_HAL_Driver/Src/stm32l0xx_hal.c **** /**
 243:../../../../../../Drivers/STM32L0xx_HAL_Driver/Src/stm32l0xx_hal.c ****   * @brief This function configures the source of the time base. 
 244:../../../../../../Drivers/STM32L0xx_HAL_Driver/Src/stm32l0xx_hal.c ****   *        The time source is configured  to have 1ms time base with a dedicated 
 245:../../../../../../Drivers/STM32L0xx_HAL_Driver/Src/stm32l0xx_hal.c ****   *        Tick interrupt priority.
 246:../../../../../../Drivers/STM32L0xx_HAL_Driver/Src/stm32l0xx_hal.c ****   * @note This function is called  automatically at the beginning of program after
 247:../../../../../../Drivers/STM32L0xx_HAL_Driver/Src/stm32l0xx_hal.c ****   *       reset by HAL_Init() or at any time when clock is reconfigured  by HAL_RCC_ClockConfig(). 
 248:../../../../../../Drivers/STM32L0xx_HAL_Driver/Src/stm32l0xx_hal.c ****   * @note In the default implementation, SysTick timer is the source of time base. 
 249:../../../../../../Drivers/STM32L0xx_HAL_Driver/Src/stm32l0xx_hal.c ****   *       It is used to generate interrupts at regular time intervals. 
 250:../../../../../../Drivers/STM32L0xx_HAL_Driver/Src/stm32l0xx_hal.c ****   *       Care must be taken if HAL_Delay() is called from a peripheral ISR process, 
 251:../../../../../../Drivers/STM32L0xx_HAL_Driver/Src/stm32l0xx_hal.c ****   *       The the SysTick interrupt must have higher priority (numerically lower) 
 252:../../../../../../Drivers/STM32L0xx_HAL_Driver/Src/stm32l0xx_hal.c ****   *       than the peripheral interrupt. Otherwise the caller ISR process will be blocked.
 253:../../../../../../Drivers/STM32L0xx_HAL_Driver/Src/stm32l0xx_hal.c ****   *       The function is declared as __Weak  to be overwritten  in case of other
 254:../../../../../../Drivers/STM32L0xx_HAL_Driver/Src/stm32l0xx_hal.c ****   *       implementation  in user file.
 255:../../../../../../Drivers/STM32L0xx_HAL_Driver/Src/stm32l0xx_hal.c ****   * @param TickPriority: Tick interrupt priority.
 256:../../../../../../Drivers/STM32L0xx_HAL_Driver/Src/stm32l0xx_hal.c ****   * @retval HAL status
 257:../../../../../../Drivers/STM32L0xx_HAL_Driver/Src/stm32l0xx_hal.c ****   */
 258:../../../../../../Drivers/STM32L0xx_HAL_Driver/Src/stm32l0xx_hal.c **** __weak HAL_StatusTypeDef HAL_InitTick(uint32_t TickPriority)
 259:../../../../../../Drivers/STM32L0xx_HAL_Driver/Src/stm32l0xx_hal.c **** {
ARM GAS  C:\Users\EBANO_~1\AppData\Local\Temp\cc5uxYcV.s 			page 8


 127              		.loc 1 259 0
 128              		.cfi_startproc
 129              		@ args = 0, pretend = 0, frame = 0
 130              		@ frame_needed = 0, uses_anonymous_args = 0
 131              	.LVL1:
 260:../../../../../../Drivers/STM32L0xx_HAL_Driver/Src/stm32l0xx_hal.c ****   /*Configure the SysTick to have interrupt in 1ms time basis*/
 261:../../../../../../Drivers/STM32L0xx_HAL_Driver/Src/stm32l0xx_hal.c ****   HAL_SYSTICK_Config(SystemCoreClock/1000U);
 132              		.loc 1 261 0
 133 0000 FA21     		movs	r1, #250
 134 0002 084B     		ldr	r3, .L8
 259:../../../../../../Drivers/STM32L0xx_HAL_Driver/Src/stm32l0xx_hal.c ****   /*Configure the SysTick to have interrupt in 1ms time basis*/
 135              		.loc 1 259 0
 136 0004 10B5     		push	{r4, lr}
 137              	.LCFI1:
 138              		.cfi_def_cfa_offset 8
 139              		.cfi_offset 4, -8
 140              		.cfi_offset 14, -4
 141              		.loc 1 261 0
 142 0006 8900     		lsls	r1, r1, #2
 259:../../../../../../Drivers/STM32L0xx_HAL_Driver/Src/stm32l0xx_hal.c ****   /*Configure the SysTick to have interrupt in 1ms time basis*/
 143              		.loc 1 259 0
 144 0008 0400     		movs	r4, r0
 145              		.loc 1 261 0
 146 000a 1868     		ldr	r0, [r3]
 147              	.LVL2:
 148 000c FFF7FEFF 		bl	__aeabi_uidiv
 149              	.LVL3:
 150 0010 FFF7FEFF 		bl	HAL_SYSTICK_Config
 151              	.LVL4:
 262:../../../../../../Drivers/STM32L0xx_HAL_Driver/Src/stm32l0xx_hal.c **** 
 263:../../../../../../Drivers/STM32L0xx_HAL_Driver/Src/stm32l0xx_hal.c ****   /*Configure the SysTick IRQ priority */
 264:../../../../../../Drivers/STM32L0xx_HAL_Driver/Src/stm32l0xx_hal.c ****   HAL_NVIC_SetPriority(SysTick_IRQn, TickPriority ,0U);
 152              		.loc 1 264 0
 153 0014 0120     		movs	r0, #1
 154 0016 0022     		movs	r2, #0
 155 0018 2100     		movs	r1, r4
 156 001a 4042     		rsbs	r0, r0, #0
 157 001c FFF7FEFF 		bl	HAL_NVIC_SetPriority
 158              	.LVL5:
 265:../../../../../../Drivers/STM32L0xx_HAL_Driver/Src/stm32l0xx_hal.c **** 
 266:../../../../../../Drivers/STM32L0xx_HAL_Driver/Src/stm32l0xx_hal.c ****    /* Return function status */
 267:../../../../../../Drivers/STM32L0xx_HAL_Driver/Src/stm32l0xx_hal.c ****   return HAL_OK;
 268:../../../../../../Drivers/STM32L0xx_HAL_Driver/Src/stm32l0xx_hal.c **** }
 159              		.loc 1 268 0
 160              		@ sp needed
 161 0020 0020     		movs	r0, #0
 162              	.LVL6:
 163 0022 10BD     		pop	{r4, pc}
 164              	.L9:
 165              		.align	2
 166              	.L8:
 167 0024 00000000 		.word	SystemCoreClock
 168              		.cfi_endproc
 169              	.LFE43:
 170              		.size	HAL_InitTick, .-HAL_InitTick
 171              		.section	.text.HAL_Init,"ax",%progbits
 172              		.align	1
ARM GAS  C:\Users\EBANO_~1\AppData\Local\Temp\cc5uxYcV.s 			page 9


 173              		.p2align 2,,3
 174              		.global	HAL_Init
 175              		.syntax unified
 176              		.code	16
 177              		.thumb_func
 178              		.fpu softvfp
 179              		.type	HAL_Init, %function
 180              	HAL_Init:
 181              	.LFB39:
 166:../../../../../../Drivers/STM32L0xx_HAL_Driver/Src/stm32l0xx_hal.c ****   /* Configure Buffer cache, Flash prefetch,  Flash preread */ 
 182              		.loc 1 166 0
 183              		.cfi_startproc
 184              		@ args = 0, pretend = 0, frame = 0
 185              		@ frame_needed = 0, uses_anonymous_args = 0
 177:../../../../../../Drivers/STM32L0xx_HAL_Driver/Src/stm32l0xx_hal.c **** #endif /* PREFETCH_ENABLE */
 186              		.loc 1 177 0
 187 0000 0221     		movs	r1, #2
 188 0002 064A     		ldr	r2, .L11
 166:../../../../../../Drivers/STM32L0xx_HAL_Driver/Src/stm32l0xx_hal.c ****   /* Configure Buffer cache, Flash prefetch,  Flash preread */ 
 189              		.loc 1 166 0
 190 0004 10B5     		push	{r4, lr}
 191              	.LCFI2:
 192              		.cfi_def_cfa_offset 8
 193              		.cfi_offset 4, -8
 194              		.cfi_offset 14, -4
 177:../../../../../../Drivers/STM32L0xx_HAL_Driver/Src/stm32l0xx_hal.c **** #endif /* PREFETCH_ENABLE */
 195              		.loc 1 177 0
 196 0006 1368     		ldr	r3, [r2]
 182:../../../../../../Drivers/STM32L0xx_HAL_Driver/Src/stm32l0xx_hal.c **** 
 197              		.loc 1 182 0
 198 0008 0320     		movs	r0, #3
 177:../../../../../../Drivers/STM32L0xx_HAL_Driver/Src/stm32l0xx_hal.c **** #endif /* PREFETCH_ENABLE */
 199              		.loc 1 177 0
 200 000a 0B43     		orrs	r3, r1
 201 000c 1360     		str	r3, [r2]
 182:../../../../../../Drivers/STM32L0xx_HAL_Driver/Src/stm32l0xx_hal.c **** 
 202              		.loc 1 182 0
 203 000e FFF7FEFF 		bl	HAL_InitTick
 204              	.LVL7:
 189:../../../../../../Drivers/STM32L0xx_HAL_Driver/Src/stm32l0xx_hal.c **** 
 205              		.loc 1 189 0
 206              		@ sp needed
 185:../../../../../../Drivers/STM32L0xx_HAL_Driver/Src/stm32l0xx_hal.c **** 
 207              		.loc 1 185 0
 208 0012 FFF7FEFF 		bl	HAL_MspInit
 209              	.LVL8:
 189:../../../../../../Drivers/STM32L0xx_HAL_Driver/Src/stm32l0xx_hal.c **** 
 210              		.loc 1 189 0
 211 0016 0020     		movs	r0, #0
 212 0018 10BD     		pop	{r4, pc}
 213              	.L12:
 214 001a C046     		.align	2
 215              	.L11:
 216 001c 00200240 		.word	1073881088
 217              		.cfi_endproc
 218              	.LFE39:
 219              		.size	HAL_Init, .-HAL_Init
ARM GAS  C:\Users\EBANO_~1\AppData\Local\Temp\cc5uxYcV.s 			page 10


 220              		.section	.text.HAL_IncTick,"ax",%progbits
 221              		.align	1
 222              		.p2align 2,,3
 223              		.weak	HAL_IncTick
 224              		.syntax unified
 225              		.code	16
 226              		.thumb_func
 227              		.fpu softvfp
 228              		.type	HAL_IncTick, %function
 229              	HAL_IncTick:
 230              	.LFB44:
 269:../../../../../../Drivers/STM32L0xx_HAL_Driver/Src/stm32l0xx_hal.c **** 
 270:../../../../../../Drivers/STM32L0xx_HAL_Driver/Src/stm32l0xx_hal.c **** /**
 271:../../../../../../Drivers/STM32L0xx_HAL_Driver/Src/stm32l0xx_hal.c ****   * @}
 272:../../../../../../Drivers/STM32L0xx_HAL_Driver/Src/stm32l0xx_hal.c ****   */
 273:../../../../../../Drivers/STM32L0xx_HAL_Driver/Src/stm32l0xx_hal.c **** 
 274:../../../../../../Drivers/STM32L0xx_HAL_Driver/Src/stm32l0xx_hal.c **** /** @addtogroup HAL_Exported_Functions_Group2 
 275:../../../../../../Drivers/STM32L0xx_HAL_Driver/Src/stm32l0xx_hal.c ****  *  @brief    Peripheral Control functions
 276:../../../../../../Drivers/STM32L0xx_HAL_Driver/Src/stm32l0xx_hal.c ****  *
 277:../../../../../../Drivers/STM32L0xx_HAL_Driver/Src/stm32l0xx_hal.c **** @verbatim
 278:../../../../../../Drivers/STM32L0xx_HAL_Driver/Src/stm32l0xx_hal.c ****  ===============================================================================
 279:../../../../../../Drivers/STM32L0xx_HAL_Driver/Src/stm32l0xx_hal.c ****                       ##### HAL Control functions #####
 280:../../../../../../Drivers/STM32L0xx_HAL_Driver/Src/stm32l0xx_hal.c ****  ===============================================================================
 281:../../../../../../Drivers/STM32L0xx_HAL_Driver/Src/stm32l0xx_hal.c ****     [..]  This section provides functions allowing to:
 282:../../../../../../Drivers/STM32L0xx_HAL_Driver/Src/stm32l0xx_hal.c ****       (+) Provide a tick value in millisecond
 283:../../../../../../Drivers/STM32L0xx_HAL_Driver/Src/stm32l0xx_hal.c ****       (+) Provide a blocking delay in millisecond
 284:../../../../../../Drivers/STM32L0xx_HAL_Driver/Src/stm32l0xx_hal.c ****       (+) Suspend the time base source interrupt
 285:../../../../../../Drivers/STM32L0xx_HAL_Driver/Src/stm32l0xx_hal.c ****       (+) Resume the time base source interrupt
 286:../../../../../../Drivers/STM32L0xx_HAL_Driver/Src/stm32l0xx_hal.c ****       (+) Get the HAL API driver version
 287:../../../../../../Drivers/STM32L0xx_HAL_Driver/Src/stm32l0xx_hal.c ****       (+) Get the device identifier
 288:../../../../../../Drivers/STM32L0xx_HAL_Driver/Src/stm32l0xx_hal.c ****       (+) Get the device revision identifier
 289:../../../../../../Drivers/STM32L0xx_HAL_Driver/Src/stm32l0xx_hal.c ****       (+) Configure low power mode behavior when the MCU is in Debug mode
 290:../../../../../../Drivers/STM32L0xx_HAL_Driver/Src/stm32l0xx_hal.c ****       (+) Manage the VEREFINT feature (activation, lock, output selection)
 291:../../../../../../Drivers/STM32L0xx_HAL_Driver/Src/stm32l0xx_hal.c ****       
 292:../../../../../../Drivers/STM32L0xx_HAL_Driver/Src/stm32l0xx_hal.c **** @endverbatim
 293:../../../../../../Drivers/STM32L0xx_HAL_Driver/Src/stm32l0xx_hal.c ****   * @{
 294:../../../../../../Drivers/STM32L0xx_HAL_Driver/Src/stm32l0xx_hal.c ****   */
 295:../../../../../../Drivers/STM32L0xx_HAL_Driver/Src/stm32l0xx_hal.c **** 
 296:../../../../../../Drivers/STM32L0xx_HAL_Driver/Src/stm32l0xx_hal.c **** /**
 297:../../../../../../Drivers/STM32L0xx_HAL_Driver/Src/stm32l0xx_hal.c ****   * @brief This function is called to increment  a global variable "uwTick"
 298:../../../../../../Drivers/STM32L0xx_HAL_Driver/Src/stm32l0xx_hal.c ****   *        used as application time base.
 299:../../../../../../Drivers/STM32L0xx_HAL_Driver/Src/stm32l0xx_hal.c ****   * @note In the default implementation, this variable is incremented each 1ms
 300:../../../../../../Drivers/STM32L0xx_HAL_Driver/Src/stm32l0xx_hal.c ****   *       in Systick ISR.
 301:../../../../../../Drivers/STM32L0xx_HAL_Driver/Src/stm32l0xx_hal.c ****  * @note This function is declared as __weak to be overwritten in case of other 
 302:../../../../../../Drivers/STM32L0xx_HAL_Driver/Src/stm32l0xx_hal.c ****   *      implementations in user file.
 303:../../../../../../Drivers/STM32L0xx_HAL_Driver/Src/stm32l0xx_hal.c ****   * @retval None
 304:../../../../../../Drivers/STM32L0xx_HAL_Driver/Src/stm32l0xx_hal.c ****   */
 305:../../../../../../Drivers/STM32L0xx_HAL_Driver/Src/stm32l0xx_hal.c **** __weak void HAL_IncTick(void)
 306:../../../../../../Drivers/STM32L0xx_HAL_Driver/Src/stm32l0xx_hal.c **** {
 231              		.loc 1 306 0
 232              		.cfi_startproc
 233              		@ args = 0, pretend = 0, frame = 0
 234              		@ frame_needed = 0, uses_anonymous_args = 0
 235              		@ link register save eliminated.
 307:../../../../../../Drivers/STM32L0xx_HAL_Driver/Src/stm32l0xx_hal.c ****   uwTick++;
 236              		.loc 1 307 0
 237 0000 024A     		ldr	r2, .L14
ARM GAS  C:\Users\EBANO_~1\AppData\Local\Temp\cc5uxYcV.s 			page 11


 308:../../../../../../Drivers/STM32L0xx_HAL_Driver/Src/stm32l0xx_hal.c **** }
 238              		.loc 1 308 0
 239              		@ sp needed
 307:../../../../../../Drivers/STM32L0xx_HAL_Driver/Src/stm32l0xx_hal.c ****   uwTick++;
 240              		.loc 1 307 0
 241 0002 1368     		ldr	r3, [r2]
 242 0004 0133     		adds	r3, r3, #1
 243 0006 1360     		str	r3, [r2]
 244              		.loc 1 308 0
 245 0008 7047     		bx	lr
 246              	.L15:
 247 000a C046     		.align	2
 248              	.L14:
 249 000c 00000000 		.word	uwTick
 250              		.cfi_endproc
 251              	.LFE44:
 252              		.size	HAL_IncTick, .-HAL_IncTick
 253              		.section	.text.HAL_GetTick,"ax",%progbits
 254              		.align	1
 255              		.p2align 2,,3
 256              		.weak	HAL_GetTick
 257              		.syntax unified
 258              		.code	16
 259              		.thumb_func
 260              		.fpu softvfp
 261              		.type	HAL_GetTick, %function
 262              	HAL_GetTick:
 263              	.LFB45:
 309:../../../../../../Drivers/STM32L0xx_HAL_Driver/Src/stm32l0xx_hal.c **** 
 310:../../../../../../Drivers/STM32L0xx_HAL_Driver/Src/stm32l0xx_hal.c **** /**
 311:../../../../../../Drivers/STM32L0xx_HAL_Driver/Src/stm32l0xx_hal.c ****   * @brief Provides a tick value in millisecond.
 312:../../../../../../Drivers/STM32L0xx_HAL_Driver/Src/stm32l0xx_hal.c ****   * @note This function is declared as __weak to be overwritten in case of other 
 313:../../../../../../Drivers/STM32L0xx_HAL_Driver/Src/stm32l0xx_hal.c ****   *       implementations in user file.
 314:../../../../../../Drivers/STM32L0xx_HAL_Driver/Src/stm32l0xx_hal.c ****   * @retval tick value
 315:../../../../../../Drivers/STM32L0xx_HAL_Driver/Src/stm32l0xx_hal.c ****   */
 316:../../../../../../Drivers/STM32L0xx_HAL_Driver/Src/stm32l0xx_hal.c **** __weak uint32_t HAL_GetTick(void)
 317:../../../../../../Drivers/STM32L0xx_HAL_Driver/Src/stm32l0xx_hal.c **** {
 264              		.loc 1 317 0
 265              		.cfi_startproc
 266              		@ args = 0, pretend = 0, frame = 0
 267              		@ frame_needed = 0, uses_anonymous_args = 0
 268              		@ link register save eliminated.
 318:../../../../../../Drivers/STM32L0xx_HAL_Driver/Src/stm32l0xx_hal.c ****   return uwTick;
 269              		.loc 1 318 0
 270 0000 014B     		ldr	r3, .L17
 319:../../../../../../Drivers/STM32L0xx_HAL_Driver/Src/stm32l0xx_hal.c **** }
 271              		.loc 1 319 0
 272              		@ sp needed
 318:../../../../../../Drivers/STM32L0xx_HAL_Driver/Src/stm32l0xx_hal.c ****   return uwTick;
 273              		.loc 1 318 0
 274 0002 1868     		ldr	r0, [r3]
 275              		.loc 1 319 0
 276 0004 7047     		bx	lr
 277              	.L18:
 278 0006 C046     		.align	2
 279              	.L17:
 280 0008 00000000 		.word	uwTick
ARM GAS  C:\Users\EBANO_~1\AppData\Local\Temp\cc5uxYcV.s 			page 12


 281              		.cfi_endproc
 282              	.LFE45:
 283              		.size	HAL_GetTick, .-HAL_GetTick
 284              		.section	.text.HAL_Delay,"ax",%progbits
 285              		.align	1
 286              		.p2align 2,,3
 287              		.weak	HAL_Delay
 288              		.syntax unified
 289              		.code	16
 290              		.thumb_func
 291              		.fpu softvfp
 292              		.type	HAL_Delay, %function
 293              	HAL_Delay:
 294              	.LFB46:
 320:../../../../../../Drivers/STM32L0xx_HAL_Driver/Src/stm32l0xx_hal.c **** 
 321:../../../../../../Drivers/STM32L0xx_HAL_Driver/Src/stm32l0xx_hal.c **** /**
 322:../../../../../../Drivers/STM32L0xx_HAL_Driver/Src/stm32l0xx_hal.c ****   * @brief This function provides accurate delay (in ms) based on a variable incremented.
 323:../../../../../../Drivers/STM32L0xx_HAL_Driver/Src/stm32l0xx_hal.c ****   * @note In the default implementation , SysTick timer is the source of time base.
 324:../../../../../../Drivers/STM32L0xx_HAL_Driver/Src/stm32l0xx_hal.c ****   *       It is used to generate interrupts at regular time intervals where uwTick
 325:../../../../../../Drivers/STM32L0xx_HAL_Driver/Src/stm32l0xx_hal.c ****   *       is incremented.
 326:../../../../../../Drivers/STM32L0xx_HAL_Driver/Src/stm32l0xx_hal.c ****   * @note ThiS function is declared as __weak to be overwritten in case of other
 327:../../../../../../Drivers/STM32L0xx_HAL_Driver/Src/stm32l0xx_hal.c ****   *       implementations in user file.
 328:../../../../../../Drivers/STM32L0xx_HAL_Driver/Src/stm32l0xx_hal.c ****   * @param Delay: specifies the delay time length, in milliseconds.
 329:../../../../../../Drivers/STM32L0xx_HAL_Driver/Src/stm32l0xx_hal.c ****   * @retval None
 330:../../../../../../Drivers/STM32L0xx_HAL_Driver/Src/stm32l0xx_hal.c ****   */
 331:../../../../../../Drivers/STM32L0xx_HAL_Driver/Src/stm32l0xx_hal.c **** __weak void HAL_Delay(__IO uint32_t Delay)
 332:../../../../../../Drivers/STM32L0xx_HAL_Driver/Src/stm32l0xx_hal.c **** {
 295              		.loc 1 332 0
 296              		.cfi_startproc
 297              		@ args = 0, pretend = 0, frame = 8
 298              		@ frame_needed = 0, uses_anonymous_args = 0
 299              	.LVL9:
 300 0000 10B5     		push	{r4, lr}
 301              	.LCFI3:
 302              		.cfi_def_cfa_offset 8
 303              		.cfi_offset 4, -8
 304              		.cfi_offset 14, -4
 305 0002 82B0     		sub	sp, sp, #8
 306              	.LCFI4:
 307              		.cfi_def_cfa_offset 16
 308              		.loc 1 332 0
 309 0004 0190     		str	r0, [sp, #4]
 333:../../../../../../Drivers/STM32L0xx_HAL_Driver/Src/stm32l0xx_hal.c ****   uint32_t tickstart = 0U;
 334:../../../../../../Drivers/STM32L0xx_HAL_Driver/Src/stm32l0xx_hal.c ****   tickstart = HAL_GetTick();
 310              		.loc 1 334 0
 311 0006 FFF7FEFF 		bl	HAL_GetTick
 312              	.LVL10:
 313 000a 0400     		movs	r4, r0
 314              	.LVL11:
 315              	.L20:
 335:../../../../../../Drivers/STM32L0xx_HAL_Driver/Src/stm32l0xx_hal.c ****   while((HAL_GetTick() - tickstart) < Delay)
 316              		.loc 1 335 0 discriminator 1
 317 000c FFF7FEFF 		bl	HAL_GetTick
 318              	.LVL12:
 319 0010 019B     		ldr	r3, [sp, #4]
 320 0012 001B     		subs	r0, r0, r4
 321 0014 9842     		cmp	r0, r3
ARM GAS  C:\Users\EBANO_~1\AppData\Local\Temp\cc5uxYcV.s 			page 13


 322 0016 F9D3     		bcc	.L20
 336:../../../../../../Drivers/STM32L0xx_HAL_Driver/Src/stm32l0xx_hal.c ****   {
 337:../../../../../../Drivers/STM32L0xx_HAL_Driver/Src/stm32l0xx_hal.c ****   }
 338:../../../../../../Drivers/STM32L0xx_HAL_Driver/Src/stm32l0xx_hal.c **** }
 323              		.loc 1 338 0
 324 0018 02B0     		add	sp, sp, #8
 325              		@ sp needed
 326              	.LVL13:
 327 001a 10BD     		pop	{r4, pc}
 328              		.cfi_endproc
 329              	.LFE46:
 330              		.size	HAL_Delay, .-HAL_Delay
 331              		.section	.text.HAL_SuspendTick,"ax",%progbits
 332              		.align	1
 333              		.p2align 2,,3
 334              		.weak	HAL_SuspendTick
 335              		.syntax unified
 336              		.code	16
 337              		.thumb_func
 338              		.fpu softvfp
 339              		.type	HAL_SuspendTick, %function
 340              	HAL_SuspendTick:
 341              	.LFB47:
 339:../../../../../../Drivers/STM32L0xx_HAL_Driver/Src/stm32l0xx_hal.c **** 
 340:../../../../../../Drivers/STM32L0xx_HAL_Driver/Src/stm32l0xx_hal.c **** /**
 341:../../../../../../Drivers/STM32L0xx_HAL_Driver/Src/stm32l0xx_hal.c ****   * @brief Suspends the Tick increment.
 342:../../../../../../Drivers/STM32L0xx_HAL_Driver/Src/stm32l0xx_hal.c ****   * @note In the default implementation , SysTick timer is the source of time base. It is
 343:../../../../../../Drivers/STM32L0xx_HAL_Driver/Src/stm32l0xx_hal.c ****   *       used to generate interrupts at regular time intervals. Once HAL_SuspendTick()
 344:../../../../../../Drivers/STM32L0xx_HAL_Driver/Src/stm32l0xx_hal.c ****   *       is called, the the SysTick interrupt will be disabled and so Tick increment 
 345:../../../../../../Drivers/STM32L0xx_HAL_Driver/Src/stm32l0xx_hal.c ****   *       is suspended.
 346:../../../../../../Drivers/STM32L0xx_HAL_Driver/Src/stm32l0xx_hal.c ****   * @note This function is declared as __weak to be overwritten in case of other
 347:../../../../../../Drivers/STM32L0xx_HAL_Driver/Src/stm32l0xx_hal.c ****   *       implementations in user file.
 348:../../../../../../Drivers/STM32L0xx_HAL_Driver/Src/stm32l0xx_hal.c ****   * @retval None
 349:../../../../../../Drivers/STM32L0xx_HAL_Driver/Src/stm32l0xx_hal.c ****   */
 350:../../../../../../Drivers/STM32L0xx_HAL_Driver/Src/stm32l0xx_hal.c **** __weak void HAL_SuspendTick(void)
 351:../../../../../../Drivers/STM32L0xx_HAL_Driver/Src/stm32l0xx_hal.c **** {
 342              		.loc 1 351 0
 343              		.cfi_startproc
 344              		@ args = 0, pretend = 0, frame = 0
 345              		@ frame_needed = 0, uses_anonymous_args = 0
 346              		@ link register save eliminated.
 352:../../../../../../Drivers/STM32L0xx_HAL_Driver/Src/stm32l0xx_hal.c ****   /* Disable SysTick Interrupt */
 353:../../../../../../Drivers/STM32L0xx_HAL_Driver/Src/stm32l0xx_hal.c ****   SysTick->CTRL &= ~SysTick_CTRL_TICKINT_Msk;
 347              		.loc 1 353 0
 348 0000 0221     		movs	r1, #2
 349 0002 024A     		ldr	r2, .L23
 354:../../../../../../Drivers/STM32L0xx_HAL_Driver/Src/stm32l0xx_hal.c **** }
 350              		.loc 1 354 0
 351              		@ sp needed
 353:../../../../../../Drivers/STM32L0xx_HAL_Driver/Src/stm32l0xx_hal.c **** }
 352              		.loc 1 353 0
 353 0004 1368     		ldr	r3, [r2]
 354 0006 8B43     		bics	r3, r1
 355 0008 1360     		str	r3, [r2]
 356              		.loc 1 354 0
 357 000a 7047     		bx	lr
 358              	.L24:
ARM GAS  C:\Users\EBANO_~1\AppData\Local\Temp\cc5uxYcV.s 			page 14


 359              		.align	2
 360              	.L23:
 361 000c 10E000E0 		.word	-536813552
 362              		.cfi_endproc
 363              	.LFE47:
 364              		.size	HAL_SuspendTick, .-HAL_SuspendTick
 365              		.section	.text.HAL_ResumeTick,"ax",%progbits
 366              		.align	1
 367              		.p2align 2,,3
 368              		.weak	HAL_ResumeTick
 369              		.syntax unified
 370              		.code	16
 371              		.thumb_func
 372              		.fpu softvfp
 373              		.type	HAL_ResumeTick, %function
 374              	HAL_ResumeTick:
 375              	.LFB48:
 355:../../../../../../Drivers/STM32L0xx_HAL_Driver/Src/stm32l0xx_hal.c **** 
 356:../../../../../../Drivers/STM32L0xx_HAL_Driver/Src/stm32l0xx_hal.c **** /**
 357:../../../../../../Drivers/STM32L0xx_HAL_Driver/Src/stm32l0xx_hal.c ****   * @brief Resumes the Tick increment.
 358:../../../../../../Drivers/STM32L0xx_HAL_Driver/Src/stm32l0xx_hal.c ****   * @note In the default implementation , SysTick timer is the source of time base. It is
 359:../../../../../../Drivers/STM32L0xx_HAL_Driver/Src/stm32l0xx_hal.c ****   *       used to generate interrupts at regular time intervals. Once HAL_ResumeTick()
 360:../../../../../../Drivers/STM32L0xx_HAL_Driver/Src/stm32l0xx_hal.c ****   *       is called, the the SysTick interrupt will be enabled and so Tick increment 
 361:../../../../../../Drivers/STM32L0xx_HAL_Driver/Src/stm32l0xx_hal.c ****   *       is resumed.
 362:../../../../../../Drivers/STM32L0xx_HAL_Driver/Src/stm32l0xx_hal.c ****   * @note This function is declared as __weak to be overwritten in case of other
 363:../../../../../../Drivers/STM32L0xx_HAL_Driver/Src/stm32l0xx_hal.c ****   *       implementations in user file.
 364:../../../../../../Drivers/STM32L0xx_HAL_Driver/Src/stm32l0xx_hal.c ****   * @retval None
 365:../../../../../../Drivers/STM32L0xx_HAL_Driver/Src/stm32l0xx_hal.c ****   */
 366:../../../../../../Drivers/STM32L0xx_HAL_Driver/Src/stm32l0xx_hal.c **** __weak void HAL_ResumeTick(void)
 367:../../../../../../Drivers/STM32L0xx_HAL_Driver/Src/stm32l0xx_hal.c **** {
 376              		.loc 1 367 0
 377              		.cfi_startproc
 378              		@ args = 0, pretend = 0, frame = 0
 379              		@ frame_needed = 0, uses_anonymous_args = 0
 380              		@ link register save eliminated.
 368:../../../../../../Drivers/STM32L0xx_HAL_Driver/Src/stm32l0xx_hal.c ****   /* Enable SysTick Interrupt */
 369:../../../../../../Drivers/STM32L0xx_HAL_Driver/Src/stm32l0xx_hal.c ****   SysTick->CTRL  |= SysTick_CTRL_TICKINT_Msk;
 381              		.loc 1 369 0
 382 0000 0221     		movs	r1, #2
 383 0002 024A     		ldr	r2, .L26
 370:../../../../../../Drivers/STM32L0xx_HAL_Driver/Src/stm32l0xx_hal.c **** }
 384              		.loc 1 370 0
 385              		@ sp needed
 369:../../../../../../Drivers/STM32L0xx_HAL_Driver/Src/stm32l0xx_hal.c **** }
 386              		.loc 1 369 0
 387 0004 1368     		ldr	r3, [r2]
 388 0006 0B43     		orrs	r3, r1
 389 0008 1360     		str	r3, [r2]
 390              		.loc 1 370 0
 391 000a 7047     		bx	lr
 392              	.L27:
 393              		.align	2
 394              	.L26:
 395 000c 10E000E0 		.word	-536813552
 396              		.cfi_endproc
 397              	.LFE48:
 398              		.size	HAL_ResumeTick, .-HAL_ResumeTick
ARM GAS  C:\Users\EBANO_~1\AppData\Local\Temp\cc5uxYcV.s 			page 15


 399              		.section	.text.HAL_GetHalVersion,"ax",%progbits
 400              		.align	1
 401              		.p2align 2,,3
 402              		.global	HAL_GetHalVersion
 403              		.syntax unified
 404              		.code	16
 405              		.thumb_func
 406              		.fpu softvfp
 407              		.type	HAL_GetHalVersion, %function
 408              	HAL_GetHalVersion:
 409              	.LFB49:
 371:../../../../../../Drivers/STM32L0xx_HAL_Driver/Src/stm32l0xx_hal.c **** 
 372:../../../../../../Drivers/STM32L0xx_HAL_Driver/Src/stm32l0xx_hal.c **** /**
 373:../../../../../../Drivers/STM32L0xx_HAL_Driver/Src/stm32l0xx_hal.c ****   * @brief Returns the HAL revision
 374:../../../../../../Drivers/STM32L0xx_HAL_Driver/Src/stm32l0xx_hal.c ****   * @retval version: 0xXYZR (8bits for each decimal, R for RC)
 375:../../../../../../Drivers/STM32L0xx_HAL_Driver/Src/stm32l0xx_hal.c ****   */
 376:../../../../../../Drivers/STM32L0xx_HAL_Driver/Src/stm32l0xx_hal.c **** uint32_t HAL_GetHalVersion(void)
 377:../../../../../../Drivers/STM32L0xx_HAL_Driver/Src/stm32l0xx_hal.c **** {
 410              		.loc 1 377 0
 411              		.cfi_startproc
 412              		@ args = 0, pretend = 0, frame = 0
 413              		@ frame_needed = 0, uses_anonymous_args = 0
 414              		@ link register save eliminated.
 378:../../../../../../Drivers/STM32L0xx_HAL_Driver/Src/stm32l0xx_hal.c ****   return __STM32L0xx_HAL_VERSION;
 379:../../../../../../Drivers/STM32L0xx_HAL_Driver/Src/stm32l0xx_hal.c **** }
 415              		.loc 1 379 0
 416 0000 0048     		ldr	r0, .L29
 417              		@ sp needed
 418 0002 7047     		bx	lr
 419              	.L30:
 420              		.align	2
 421              	.L29:
 422 0004 00000901 		.word	17367040
 423              		.cfi_endproc
 424              	.LFE49:
 425              		.size	HAL_GetHalVersion, .-HAL_GetHalVersion
 426              		.section	.text.HAL_GetREVID,"ax",%progbits
 427              		.align	1
 428              		.p2align 2,,3
 429              		.global	HAL_GetREVID
 430              		.syntax unified
 431              		.code	16
 432              		.thumb_func
 433              		.fpu softvfp
 434              		.type	HAL_GetREVID, %function
 435              	HAL_GetREVID:
 436              	.LFB50:
 380:../../../../../../Drivers/STM32L0xx_HAL_Driver/Src/stm32l0xx_hal.c **** 
 381:../../../../../../Drivers/STM32L0xx_HAL_Driver/Src/stm32l0xx_hal.c **** /**
 382:../../../../../../Drivers/STM32L0xx_HAL_Driver/Src/stm32l0xx_hal.c ****   * @brief Returns the device revision identifier.
 383:../../../../../../Drivers/STM32L0xx_HAL_Driver/Src/stm32l0xx_hal.c ****   * @retval Device revision identifier
 384:../../../../../../Drivers/STM32L0xx_HAL_Driver/Src/stm32l0xx_hal.c ****   */
 385:../../../../../../Drivers/STM32L0xx_HAL_Driver/Src/stm32l0xx_hal.c **** uint32_t HAL_GetREVID(void)
 386:../../../../../../Drivers/STM32L0xx_HAL_Driver/Src/stm32l0xx_hal.c **** {
 437              		.loc 1 386 0
 438              		.cfi_startproc
 439              		@ args = 0, pretend = 0, frame = 0
ARM GAS  C:\Users\EBANO_~1\AppData\Local\Temp\cc5uxYcV.s 			page 16


 440              		@ frame_needed = 0, uses_anonymous_args = 0
 441              		@ link register save eliminated.
 387:../../../../../../Drivers/STM32L0xx_HAL_Driver/Src/stm32l0xx_hal.c ****   return((DBGMCU->IDCODE) >> 16U);
 442              		.loc 1 387 0
 443 0000 014B     		ldr	r3, .L32
 388:../../../../../../Drivers/STM32L0xx_HAL_Driver/Src/stm32l0xx_hal.c **** }
 444              		.loc 1 388 0
 445              		@ sp needed
 387:../../../../../../Drivers/STM32L0xx_HAL_Driver/Src/stm32l0xx_hal.c ****   return((DBGMCU->IDCODE) >> 16U);
 446              		.loc 1 387 0
 447 0002 1868     		ldr	r0, [r3]
 448 0004 000C     		lsrs	r0, r0, #16
 449              		.loc 1 388 0
 450 0006 7047     		bx	lr
 451              	.L33:
 452              		.align	2
 453              	.L32:
 454 0008 00580140 		.word	1073829888
 455              		.cfi_endproc
 456              	.LFE50:
 457              		.size	HAL_GetREVID, .-HAL_GetREVID
 458              		.section	.text.HAL_GetDEVID,"ax",%progbits
 459              		.align	1
 460              		.p2align 2,,3
 461              		.global	HAL_GetDEVID
 462              		.syntax unified
 463              		.code	16
 464              		.thumb_func
 465              		.fpu softvfp
 466              		.type	HAL_GetDEVID, %function
 467              	HAL_GetDEVID:
 468              	.LFB51:
 389:../../../../../../Drivers/STM32L0xx_HAL_Driver/Src/stm32l0xx_hal.c **** 
 390:../../../../../../Drivers/STM32L0xx_HAL_Driver/Src/stm32l0xx_hal.c **** /**
 391:../../../../../../Drivers/STM32L0xx_HAL_Driver/Src/stm32l0xx_hal.c ****   * @brief  Returns the device identifier.
 392:../../../../../../Drivers/STM32L0xx_HAL_Driver/Src/stm32l0xx_hal.c ****   * @retval Device identifier
 393:../../../../../../Drivers/STM32L0xx_HAL_Driver/Src/stm32l0xx_hal.c ****   */
 394:../../../../../../Drivers/STM32L0xx_HAL_Driver/Src/stm32l0xx_hal.c **** uint32_t HAL_GetDEVID(void)
 395:../../../../../../Drivers/STM32L0xx_HAL_Driver/Src/stm32l0xx_hal.c **** {
 469              		.loc 1 395 0
 470              		.cfi_startproc
 471              		@ args = 0, pretend = 0, frame = 0
 472              		@ frame_needed = 0, uses_anonymous_args = 0
 473              		@ link register save eliminated.
 396:../../../../../../Drivers/STM32L0xx_HAL_Driver/Src/stm32l0xx_hal.c ****    return((DBGMCU->IDCODE) & IDCODE_DEVID_MASK);
 474              		.loc 1 396 0
 475 0000 024B     		ldr	r3, .L35
 397:../../../../../../Drivers/STM32L0xx_HAL_Driver/Src/stm32l0xx_hal.c **** }
 476              		.loc 1 397 0
 477              		@ sp needed
 396:../../../../../../Drivers/STM32L0xx_HAL_Driver/Src/stm32l0xx_hal.c ****    return((DBGMCU->IDCODE) & IDCODE_DEVID_MASK);
 478              		.loc 1 396 0
 479 0002 1868     		ldr	r0, [r3]
 480 0004 0005     		lsls	r0, r0, #20
 481 0006 000D     		lsrs	r0, r0, #20
 482              		.loc 1 397 0
 483 0008 7047     		bx	lr
ARM GAS  C:\Users\EBANO_~1\AppData\Local\Temp\cc5uxYcV.s 			page 17


 484              	.L36:
 485 000a C046     		.align	2
 486              	.L35:
 487 000c 00580140 		.word	1073829888
 488              		.cfi_endproc
 489              	.LFE51:
 490              		.size	HAL_GetDEVID, .-HAL_GetDEVID
 491              		.section	.text.HAL_DBGMCU_EnableDBGSleepMode,"ax",%progbits
 492              		.align	1
 493              		.p2align 2,,3
 494              		.global	HAL_DBGMCU_EnableDBGSleepMode
 495              		.syntax unified
 496              		.code	16
 497              		.thumb_func
 498              		.fpu softvfp
 499              		.type	HAL_DBGMCU_EnableDBGSleepMode, %function
 500              	HAL_DBGMCU_EnableDBGSleepMode:
 501              	.LFB52:
 398:../../../../../../Drivers/STM32L0xx_HAL_Driver/Src/stm32l0xx_hal.c **** 
 399:../../../../../../Drivers/STM32L0xx_HAL_Driver/Src/stm32l0xx_hal.c **** /**
 400:../../../../../../Drivers/STM32L0xx_HAL_Driver/Src/stm32l0xx_hal.c ****   * @brief  Enables the Debug Module during SLEEP mode
 401:../../../../../../Drivers/STM32L0xx_HAL_Driver/Src/stm32l0xx_hal.c ****   * @retval None
 402:../../../../../../Drivers/STM32L0xx_HAL_Driver/Src/stm32l0xx_hal.c ****   */
 403:../../../../../../Drivers/STM32L0xx_HAL_Driver/Src/stm32l0xx_hal.c **** void HAL_DBGMCU_EnableDBGSleepMode(void)
 404:../../../../../../Drivers/STM32L0xx_HAL_Driver/Src/stm32l0xx_hal.c **** {
 502              		.loc 1 404 0
 503              		.cfi_startproc
 504              		@ args = 0, pretend = 0, frame = 0
 505              		@ frame_needed = 0, uses_anonymous_args = 0
 506              		@ link register save eliminated.
 405:../../../../../../Drivers/STM32L0xx_HAL_Driver/Src/stm32l0xx_hal.c ****   SET_BIT(DBGMCU->CR, DBGMCU_CR_DBG_SLEEP);
 507              		.loc 1 405 0
 508 0000 0121     		movs	r1, #1
 509 0002 024A     		ldr	r2, .L38
 406:../../../../../../Drivers/STM32L0xx_HAL_Driver/Src/stm32l0xx_hal.c **** }
 510              		.loc 1 406 0
 511              		@ sp needed
 405:../../../../../../Drivers/STM32L0xx_HAL_Driver/Src/stm32l0xx_hal.c ****   SET_BIT(DBGMCU->CR, DBGMCU_CR_DBG_SLEEP);
 512              		.loc 1 405 0
 513 0004 5368     		ldr	r3, [r2, #4]
 514 0006 0B43     		orrs	r3, r1
 515 0008 5360     		str	r3, [r2, #4]
 516              		.loc 1 406 0
 517 000a 7047     		bx	lr
 518              	.L39:
 519              		.align	2
 520              	.L38:
 521 000c 00580140 		.word	1073829888
 522              		.cfi_endproc
 523              	.LFE52:
 524              		.size	HAL_DBGMCU_EnableDBGSleepMode, .-HAL_DBGMCU_EnableDBGSleepMode
 525              		.section	.text.HAL_DBGMCU_DisableDBGSleepMode,"ax",%progbits
 526              		.align	1
 527              		.p2align 2,,3
 528              		.global	HAL_DBGMCU_DisableDBGSleepMode
 529              		.syntax unified
 530              		.code	16
ARM GAS  C:\Users\EBANO_~1\AppData\Local\Temp\cc5uxYcV.s 			page 18


 531              		.thumb_func
 532              		.fpu softvfp
 533              		.type	HAL_DBGMCU_DisableDBGSleepMode, %function
 534              	HAL_DBGMCU_DisableDBGSleepMode:
 535              	.LFB53:
 407:../../../../../../Drivers/STM32L0xx_HAL_Driver/Src/stm32l0xx_hal.c **** 
 408:../../../../../../Drivers/STM32L0xx_HAL_Driver/Src/stm32l0xx_hal.c **** /**
 409:../../../../../../Drivers/STM32L0xx_HAL_Driver/Src/stm32l0xx_hal.c ****   * @brief  Disables the Debug Module during SLEEP mode
 410:../../../../../../Drivers/STM32L0xx_HAL_Driver/Src/stm32l0xx_hal.c ****   * @retval None
 411:../../../../../../Drivers/STM32L0xx_HAL_Driver/Src/stm32l0xx_hal.c ****   */
 412:../../../../../../Drivers/STM32L0xx_HAL_Driver/Src/stm32l0xx_hal.c **** void HAL_DBGMCU_DisableDBGSleepMode(void)
 413:../../../../../../Drivers/STM32L0xx_HAL_Driver/Src/stm32l0xx_hal.c **** {
 536              		.loc 1 413 0
 537              		.cfi_startproc
 538              		@ args = 0, pretend = 0, frame = 0
 539              		@ frame_needed = 0, uses_anonymous_args = 0
 540              		@ link register save eliminated.
 414:../../../../../../Drivers/STM32L0xx_HAL_Driver/Src/stm32l0xx_hal.c ****   CLEAR_BIT(DBGMCU->CR, DBGMCU_CR_DBG_SLEEP);
 541              		.loc 1 414 0
 542 0000 0121     		movs	r1, #1
 543 0002 024A     		ldr	r2, .L41
 415:../../../../../../Drivers/STM32L0xx_HAL_Driver/Src/stm32l0xx_hal.c **** }
 544              		.loc 1 415 0
 545              		@ sp needed
 414:../../../../../../Drivers/STM32L0xx_HAL_Driver/Src/stm32l0xx_hal.c ****   CLEAR_BIT(DBGMCU->CR, DBGMCU_CR_DBG_SLEEP);
 546              		.loc 1 414 0
 547 0004 5368     		ldr	r3, [r2, #4]
 548 0006 8B43     		bics	r3, r1
 549 0008 5360     		str	r3, [r2, #4]
 550              		.loc 1 415 0
 551 000a 7047     		bx	lr
 552              	.L42:
 553              		.align	2
 554              	.L41:
 555 000c 00580140 		.word	1073829888
 556              		.cfi_endproc
 557              	.LFE53:
 558              		.size	HAL_DBGMCU_DisableDBGSleepMode, .-HAL_DBGMCU_DisableDBGSleepMode
 559              		.section	.text.HAL_DBGMCU_EnableDBGStopMode,"ax",%progbits
 560              		.align	1
 561              		.p2align 2,,3
 562              		.global	HAL_DBGMCU_EnableDBGStopMode
 563              		.syntax unified
 564              		.code	16
 565              		.thumb_func
 566              		.fpu softvfp
 567              		.type	HAL_DBGMCU_EnableDBGStopMode, %function
 568              	HAL_DBGMCU_EnableDBGStopMode:
 569              	.LFB54:
 416:../../../../../../Drivers/STM32L0xx_HAL_Driver/Src/stm32l0xx_hal.c **** 
 417:../../../../../../Drivers/STM32L0xx_HAL_Driver/Src/stm32l0xx_hal.c **** /**
 418:../../../../../../Drivers/STM32L0xx_HAL_Driver/Src/stm32l0xx_hal.c ****   * @brief  Enables the Debug Module during STOP mode
 419:../../../../../../Drivers/STM32L0xx_HAL_Driver/Src/stm32l0xx_hal.c ****   * @retval None
 420:../../../../../../Drivers/STM32L0xx_HAL_Driver/Src/stm32l0xx_hal.c ****   */
 421:../../../../../../Drivers/STM32L0xx_HAL_Driver/Src/stm32l0xx_hal.c **** void HAL_DBGMCU_EnableDBGStopMode(void)
 422:../../../../../../Drivers/STM32L0xx_HAL_Driver/Src/stm32l0xx_hal.c **** {
 570              		.loc 1 422 0
ARM GAS  C:\Users\EBANO_~1\AppData\Local\Temp\cc5uxYcV.s 			page 19


 571              		.cfi_startproc
 572              		@ args = 0, pretend = 0, frame = 0
 573              		@ frame_needed = 0, uses_anonymous_args = 0
 574              		@ link register save eliminated.
 423:../../../../../../Drivers/STM32L0xx_HAL_Driver/Src/stm32l0xx_hal.c ****   SET_BIT(DBGMCU->CR, DBGMCU_CR_DBG_STOP);
 575              		.loc 1 423 0
 576 0000 0221     		movs	r1, #2
 577 0002 024A     		ldr	r2, .L44
 424:../../../../../../Drivers/STM32L0xx_HAL_Driver/Src/stm32l0xx_hal.c **** }
 578              		.loc 1 424 0
 579              		@ sp needed
 423:../../../../../../Drivers/STM32L0xx_HAL_Driver/Src/stm32l0xx_hal.c ****   SET_BIT(DBGMCU->CR, DBGMCU_CR_DBG_STOP);
 580              		.loc 1 423 0
 581 0004 5368     		ldr	r3, [r2, #4]
 582 0006 0B43     		orrs	r3, r1
 583 0008 5360     		str	r3, [r2, #4]
 584              		.loc 1 424 0
 585 000a 7047     		bx	lr
 586              	.L45:
 587              		.align	2
 588              	.L44:
 589 000c 00580140 		.word	1073829888
 590              		.cfi_endproc
 591              	.LFE54:
 592              		.size	HAL_DBGMCU_EnableDBGStopMode, .-HAL_DBGMCU_EnableDBGStopMode
 593              		.section	.text.HAL_DBGMCU_DisableDBGStopMode,"ax",%progbits
 594              		.align	1
 595              		.p2align 2,,3
 596              		.global	HAL_DBGMCU_DisableDBGStopMode
 597              		.syntax unified
 598              		.code	16
 599              		.thumb_func
 600              		.fpu softvfp
 601              		.type	HAL_DBGMCU_DisableDBGStopMode, %function
 602              	HAL_DBGMCU_DisableDBGStopMode:
 603              	.LFB55:
 425:../../../../../../Drivers/STM32L0xx_HAL_Driver/Src/stm32l0xx_hal.c **** 
 426:../../../../../../Drivers/STM32L0xx_HAL_Driver/Src/stm32l0xx_hal.c **** /**
 427:../../../../../../Drivers/STM32L0xx_HAL_Driver/Src/stm32l0xx_hal.c ****   * @brief  Disables the Debug Module during STOP mode
 428:../../../../../../Drivers/STM32L0xx_HAL_Driver/Src/stm32l0xx_hal.c ****   * @retval None
 429:../../../../../../Drivers/STM32L0xx_HAL_Driver/Src/stm32l0xx_hal.c ****   */
 430:../../../../../../Drivers/STM32L0xx_HAL_Driver/Src/stm32l0xx_hal.c **** void HAL_DBGMCU_DisableDBGStopMode(void)
 431:../../../../../../Drivers/STM32L0xx_HAL_Driver/Src/stm32l0xx_hal.c **** {
 604              		.loc 1 431 0
 605              		.cfi_startproc
 606              		@ args = 0, pretend = 0, frame = 0
 607              		@ frame_needed = 0, uses_anonymous_args = 0
 608              		@ link register save eliminated.
 432:../../../../../../Drivers/STM32L0xx_HAL_Driver/Src/stm32l0xx_hal.c ****   CLEAR_BIT(DBGMCU->CR, DBGMCU_CR_DBG_STOP);
 609              		.loc 1 432 0
 610 0000 0221     		movs	r1, #2
 611 0002 024A     		ldr	r2, .L47
 433:../../../../../../Drivers/STM32L0xx_HAL_Driver/Src/stm32l0xx_hal.c **** }
 612              		.loc 1 433 0
 613              		@ sp needed
 432:../../../../../../Drivers/STM32L0xx_HAL_Driver/Src/stm32l0xx_hal.c ****   CLEAR_BIT(DBGMCU->CR, DBGMCU_CR_DBG_STOP);
 614              		.loc 1 432 0
ARM GAS  C:\Users\EBANO_~1\AppData\Local\Temp\cc5uxYcV.s 			page 20


 615 0004 5368     		ldr	r3, [r2, #4]
 616 0006 8B43     		bics	r3, r1
 617 0008 5360     		str	r3, [r2, #4]
 618              		.loc 1 433 0
 619 000a 7047     		bx	lr
 620              	.L48:
 621              		.align	2
 622              	.L47:
 623 000c 00580140 		.word	1073829888
 624              		.cfi_endproc
 625              	.LFE55:
 626              		.size	HAL_DBGMCU_DisableDBGStopMode, .-HAL_DBGMCU_DisableDBGStopMode
 627              		.section	.text.HAL_DBGMCU_EnableDBGStandbyMode,"ax",%progbits
 628              		.align	1
 629              		.p2align 2,,3
 630              		.global	HAL_DBGMCU_EnableDBGStandbyMode
 631              		.syntax unified
 632              		.code	16
 633              		.thumb_func
 634              		.fpu softvfp
 635              		.type	HAL_DBGMCU_EnableDBGStandbyMode, %function
 636              	HAL_DBGMCU_EnableDBGStandbyMode:
 637              	.LFB56:
 434:../../../../../../Drivers/STM32L0xx_HAL_Driver/Src/stm32l0xx_hal.c **** 
 435:../../../../../../Drivers/STM32L0xx_HAL_Driver/Src/stm32l0xx_hal.c **** /**
 436:../../../../../../Drivers/STM32L0xx_HAL_Driver/Src/stm32l0xx_hal.c ****   * @brief  Enables the Debug Module during STANDBY mode
 437:../../../../../../Drivers/STM32L0xx_HAL_Driver/Src/stm32l0xx_hal.c ****   * @retval None
 438:../../../../../../Drivers/STM32L0xx_HAL_Driver/Src/stm32l0xx_hal.c ****   */
 439:../../../../../../Drivers/STM32L0xx_HAL_Driver/Src/stm32l0xx_hal.c **** void HAL_DBGMCU_EnableDBGStandbyMode(void)
 440:../../../../../../Drivers/STM32L0xx_HAL_Driver/Src/stm32l0xx_hal.c **** {
 638              		.loc 1 440 0
 639              		.cfi_startproc
 640              		@ args = 0, pretend = 0, frame = 0
 641              		@ frame_needed = 0, uses_anonymous_args = 0
 642              		@ link register save eliminated.
 441:../../../../../../Drivers/STM32L0xx_HAL_Driver/Src/stm32l0xx_hal.c ****   SET_BIT(DBGMCU->CR, DBGMCU_CR_DBG_STANDBY);
 643              		.loc 1 441 0
 644 0000 0421     		movs	r1, #4
 645 0002 024A     		ldr	r2, .L50
 442:../../../../../../Drivers/STM32L0xx_HAL_Driver/Src/stm32l0xx_hal.c **** }
 646              		.loc 1 442 0
 647              		@ sp needed
 441:../../../../../../Drivers/STM32L0xx_HAL_Driver/Src/stm32l0xx_hal.c ****   SET_BIT(DBGMCU->CR, DBGMCU_CR_DBG_STANDBY);
 648              		.loc 1 441 0
 649 0004 5368     		ldr	r3, [r2, #4]
 650 0006 0B43     		orrs	r3, r1
 651 0008 5360     		str	r3, [r2, #4]
 652              		.loc 1 442 0
 653 000a 7047     		bx	lr
 654              	.L51:
 655              		.align	2
 656              	.L50:
 657 000c 00580140 		.word	1073829888
 658              		.cfi_endproc
 659              	.LFE56:
 660              		.size	HAL_DBGMCU_EnableDBGStandbyMode, .-HAL_DBGMCU_EnableDBGStandbyMode
 661              		.section	.text.HAL_DBGMCU_DisableDBGStandbyMode,"ax",%progbits
ARM GAS  C:\Users\EBANO_~1\AppData\Local\Temp\cc5uxYcV.s 			page 21


 662              		.align	1
 663              		.p2align 2,,3
 664              		.global	HAL_DBGMCU_DisableDBGStandbyMode
 665              		.syntax unified
 666              		.code	16
 667              		.thumb_func
 668              		.fpu softvfp
 669              		.type	HAL_DBGMCU_DisableDBGStandbyMode, %function
 670              	HAL_DBGMCU_DisableDBGStandbyMode:
 671              	.LFB57:
 443:../../../../../../Drivers/STM32L0xx_HAL_Driver/Src/stm32l0xx_hal.c **** 
 444:../../../../../../Drivers/STM32L0xx_HAL_Driver/Src/stm32l0xx_hal.c **** /**
 445:../../../../../../Drivers/STM32L0xx_HAL_Driver/Src/stm32l0xx_hal.c ****   * @brief  Disables the Debug Module during STANDBY mode
 446:../../../../../../Drivers/STM32L0xx_HAL_Driver/Src/stm32l0xx_hal.c ****   * @retval None
 447:../../../../../../Drivers/STM32L0xx_HAL_Driver/Src/stm32l0xx_hal.c ****   */
 448:../../../../../../Drivers/STM32L0xx_HAL_Driver/Src/stm32l0xx_hal.c **** void HAL_DBGMCU_DisableDBGStandbyMode(void)
 449:../../../../../../Drivers/STM32L0xx_HAL_Driver/Src/stm32l0xx_hal.c **** {
 672              		.loc 1 449 0
 673              		.cfi_startproc
 674              		@ args = 0, pretend = 0, frame = 0
 675              		@ frame_needed = 0, uses_anonymous_args = 0
 676              		@ link register save eliminated.
 450:../../../../../../Drivers/STM32L0xx_HAL_Driver/Src/stm32l0xx_hal.c ****   CLEAR_BIT(DBGMCU->CR, DBGMCU_CR_DBG_STANDBY);
 677              		.loc 1 450 0
 678 0000 0421     		movs	r1, #4
 679 0002 024A     		ldr	r2, .L53
 451:../../../../../../Drivers/STM32L0xx_HAL_Driver/Src/stm32l0xx_hal.c **** }
 680              		.loc 1 451 0
 681              		@ sp needed
 450:../../../../../../Drivers/STM32L0xx_HAL_Driver/Src/stm32l0xx_hal.c ****   CLEAR_BIT(DBGMCU->CR, DBGMCU_CR_DBG_STANDBY);
 682              		.loc 1 450 0
 683 0004 5368     		ldr	r3, [r2, #4]
 684 0006 8B43     		bics	r3, r1
 685 0008 5360     		str	r3, [r2, #4]
 686              		.loc 1 451 0
 687 000a 7047     		bx	lr
 688              	.L54:
 689              		.align	2
 690              	.L53:
 691 000c 00580140 		.word	1073829888
 692              		.cfi_endproc
 693              	.LFE57:
 694              		.size	HAL_DBGMCU_DisableDBGStandbyMode, .-HAL_DBGMCU_DisableDBGStandbyMode
 695              		.section	.text.HAL_DBGMCU_DBG_EnableLowPowerConfig,"ax",%progbits
 696              		.align	1
 697              		.p2align 2,,3
 698              		.global	HAL_DBGMCU_DBG_EnableLowPowerConfig
 699              		.syntax unified
 700              		.code	16
 701              		.thumb_func
 702              		.fpu softvfp
 703              		.type	HAL_DBGMCU_DBG_EnableLowPowerConfig, %function
 704              	HAL_DBGMCU_DBG_EnableLowPowerConfig:
 705              	.LFB58:
 452:../../../../../../Drivers/STM32L0xx_HAL_Driver/Src/stm32l0xx_hal.c **** 
 453:../../../../../../Drivers/STM32L0xx_HAL_Driver/Src/stm32l0xx_hal.c **** /**
 454:../../../../../../Drivers/STM32L0xx_HAL_Driver/Src/stm32l0xx_hal.c ****   * @brief  Enable low power mode behavior when the MCU is in Debug mode.
ARM GAS  C:\Users\EBANO_~1\AppData\Local\Temp\cc5uxYcV.s 			page 22


 455:../../../../../../Drivers/STM32L0xx_HAL_Driver/Src/stm32l0xx_hal.c ****   * @param Periph: specifies the low power mode.
 456:../../../../../../Drivers/STM32L0xx_HAL_Driver/Src/stm32l0xx_hal.c ****   *   This parameter can be any combination of the following values:
 457:../../../../../../Drivers/STM32L0xx_HAL_Driver/Src/stm32l0xx_hal.c ****   *     @arg DBGMCU_SLEEP: Keep debugger connection during SLEEP mode
 458:../../../../../../Drivers/STM32L0xx_HAL_Driver/Src/stm32l0xx_hal.c ****   *     @arg DBGMCU_STOP: Keep debugger connection during STOP mode
 459:../../../../../../Drivers/STM32L0xx_HAL_Driver/Src/stm32l0xx_hal.c ****   *     @arg DBGMCU_STANDBY: Keep debugger connection during STANDBY mode
 460:../../../../../../Drivers/STM32L0xx_HAL_Driver/Src/stm32l0xx_hal.c ****   * @retval None
 461:../../../../../../Drivers/STM32L0xx_HAL_Driver/Src/stm32l0xx_hal.c ****   */
 462:../../../../../../Drivers/STM32L0xx_HAL_Driver/Src/stm32l0xx_hal.c **** void HAL_DBGMCU_DBG_EnableLowPowerConfig(uint32_t Periph)
 463:../../../../../../Drivers/STM32L0xx_HAL_Driver/Src/stm32l0xx_hal.c **** {
 706              		.loc 1 463 0
 707              		.cfi_startproc
 708              		@ args = 0, pretend = 0, frame = 0
 709              		@ frame_needed = 0, uses_anonymous_args = 0
 710              		@ link register save eliminated.
 711              	.LVL14:
 464:../../../../../../Drivers/STM32L0xx_HAL_Driver/Src/stm32l0xx_hal.c ****   /* Check the parameters */
 465:../../../../../../Drivers/STM32L0xx_HAL_Driver/Src/stm32l0xx_hal.c ****   assert_param(IS_DBGMCU_PERIPH(Periph));
 466:../../../../../../Drivers/STM32L0xx_HAL_Driver/Src/stm32l0xx_hal.c ****   
 467:../../../../../../Drivers/STM32L0xx_HAL_Driver/Src/stm32l0xx_hal.c ****   DBGMCU->CR |= Periph;
 712              		.loc 1 467 0
 713 0000 024A     		ldr	r2, .L56
 468:../../../../../../Drivers/STM32L0xx_HAL_Driver/Src/stm32l0xx_hal.c **** 
 469:../../../../../../Drivers/STM32L0xx_HAL_Driver/Src/stm32l0xx_hal.c **** }
 714              		.loc 1 469 0
 715              		@ sp needed
 467:../../../../../../Drivers/STM32L0xx_HAL_Driver/Src/stm32l0xx_hal.c **** 
 716              		.loc 1 467 0
 717 0002 5368     		ldr	r3, [r2, #4]
 718 0004 1843     		orrs	r0, r3
 719              	.LVL15:
 720 0006 5060     		str	r0, [r2, #4]
 721              		.loc 1 469 0
 722 0008 7047     		bx	lr
 723              	.L57:
 724 000a C046     		.align	2
 725              	.L56:
 726 000c 00580140 		.word	1073829888
 727              		.cfi_endproc
 728              	.LFE58:
 729              		.size	HAL_DBGMCU_DBG_EnableLowPowerConfig, .-HAL_DBGMCU_DBG_EnableLowPowerConfig
 730              		.section	.text.HAL_DBGMCU_DBG_DisableLowPowerConfig,"ax",%progbits
 731              		.align	1
 732              		.p2align 2,,3
 733              		.global	HAL_DBGMCU_DBG_DisableLowPowerConfig
 734              		.syntax unified
 735              		.code	16
 736              		.thumb_func
 737              		.fpu softvfp
 738              		.type	HAL_DBGMCU_DBG_DisableLowPowerConfig, %function
 739              	HAL_DBGMCU_DBG_DisableLowPowerConfig:
 740              	.LFB59:
 470:../../../../../../Drivers/STM32L0xx_HAL_Driver/Src/stm32l0xx_hal.c **** /**
 471:../../../../../../Drivers/STM32L0xx_HAL_Driver/Src/stm32l0xx_hal.c ****   * @brief  Disable low power mode behavior when the MCU is in Debug mode.
 472:../../../../../../Drivers/STM32L0xx_HAL_Driver/Src/stm32l0xx_hal.c ****   * @param Periph: specifies the low power mode.
 473:../../../../../../Drivers/STM32L0xx_HAL_Driver/Src/stm32l0xx_hal.c ****   *   This parameter can be any combination of the following values:
 474:../../../../../../Drivers/STM32L0xx_HAL_Driver/Src/stm32l0xx_hal.c ****   *     @arg DBGMCU_SLEEP: Keep debugger connection during SLEEP mode
 475:../../../../../../Drivers/STM32L0xx_HAL_Driver/Src/stm32l0xx_hal.c ****   *     @arg DBGMCU_STOP: Keep debugger connection during STOP mode
ARM GAS  C:\Users\EBANO_~1\AppData\Local\Temp\cc5uxYcV.s 			page 23


 476:../../../../../../Drivers/STM32L0xx_HAL_Driver/Src/stm32l0xx_hal.c ****   *     @arg DBGMCU_STANDBY: Keep debugger connection during STANDBY mode
 477:../../../../../../Drivers/STM32L0xx_HAL_Driver/Src/stm32l0xx_hal.c ****   * @retval None
 478:../../../../../../Drivers/STM32L0xx_HAL_Driver/Src/stm32l0xx_hal.c ****   */
 479:../../../../../../Drivers/STM32L0xx_HAL_Driver/Src/stm32l0xx_hal.c **** void HAL_DBGMCU_DBG_DisableLowPowerConfig(uint32_t Periph)
 480:../../../../../../Drivers/STM32L0xx_HAL_Driver/Src/stm32l0xx_hal.c **** {
 741              		.loc 1 480 0
 742              		.cfi_startproc
 743              		@ args = 0, pretend = 0, frame = 0
 744              		@ frame_needed = 0, uses_anonymous_args = 0
 745              		@ link register save eliminated.
 746              	.LVL16:
 481:../../../../../../Drivers/STM32L0xx_HAL_Driver/Src/stm32l0xx_hal.c ****   /* Check the parameters */
 482:../../../../../../Drivers/STM32L0xx_HAL_Driver/Src/stm32l0xx_hal.c ****   assert_param(IS_DBGMCU_PERIPH(Periph));
 483:../../../../../../Drivers/STM32L0xx_HAL_Driver/Src/stm32l0xx_hal.c ****   {
 484:../../../../../../Drivers/STM32L0xx_HAL_Driver/Src/stm32l0xx_hal.c ****     DBGMCU->CR &= ~Periph;
 747              		.loc 1 484 0
 748 0000 024A     		ldr	r2, .L59
 485:../../../../../../Drivers/STM32L0xx_HAL_Driver/Src/stm32l0xx_hal.c ****   }
 486:../../../../../../Drivers/STM32L0xx_HAL_Driver/Src/stm32l0xx_hal.c **** }
 749              		.loc 1 486 0
 750              		@ sp needed
 484:../../../../../../Drivers/STM32L0xx_HAL_Driver/Src/stm32l0xx_hal.c ****   }
 751              		.loc 1 484 0
 752 0002 5368     		ldr	r3, [r2, #4]
 753 0004 8343     		bics	r3, r0
 754 0006 5360     		str	r3, [r2, #4]
 755              		.loc 1 486 0
 756 0008 7047     		bx	lr
 757              	.L60:
 758 000a C046     		.align	2
 759              	.L59:
 760 000c 00580140 		.word	1073829888
 761              		.cfi_endproc
 762              	.LFE59:
 763              		.size	HAL_DBGMCU_DBG_DisableLowPowerConfig, .-HAL_DBGMCU_DBG_DisableLowPowerConfig
 764              		.section	.text.HAL_SYSCFG_GetBootMode,"ax",%progbits
 765              		.align	1
 766              		.p2align 2,,3
 767              		.global	HAL_SYSCFG_GetBootMode
 768              		.syntax unified
 769              		.code	16
 770              		.thumb_func
 771              		.fpu softvfp
 772              		.type	HAL_SYSCFG_GetBootMode, %function
 773              	HAL_SYSCFG_GetBootMode:
 774              	.LFB60:
 487:../../../../../../Drivers/STM32L0xx_HAL_Driver/Src/stm32l0xx_hal.c **** 
 488:../../../../../../Drivers/STM32L0xx_HAL_Driver/Src/stm32l0xx_hal.c **** /**
 489:../../../../../../Drivers/STM32L0xx_HAL_Driver/Src/stm32l0xx_hal.c ****   * @brief  Returns the boot mode as configured by user.
 490:../../../../../../Drivers/STM32L0xx_HAL_Driver/Src/stm32l0xx_hal.c ****   * @retval The boot mode as configured by user. The returned value can be one 
 491:../../../../../../Drivers/STM32L0xx_HAL_Driver/Src/stm32l0xx_hal.c ****   *         of the following values:
 492:../../../../../../Drivers/STM32L0xx_HAL_Driver/Src/stm32l0xx_hal.c ****   *              - 0x00000000 : Boot is configured in Main Flash memory 
 493:../../../../../../Drivers/STM32L0xx_HAL_Driver/Src/stm32l0xx_hal.c ****   *              - 0x00000100 : Boot is configured in System Flash memory 
 494:../../../../../../Drivers/STM32L0xx_HAL_Driver/Src/stm32l0xx_hal.c ****   *              - 0x00000300 : Boot is configured in Embedded SRAM memory 
 495:../../../../../../Drivers/STM32L0xx_HAL_Driver/Src/stm32l0xx_hal.c ****   */
 496:../../../../../../Drivers/STM32L0xx_HAL_Driver/Src/stm32l0xx_hal.c **** uint32_t  HAL_SYSCFG_GetBootMode(void)
 497:../../../../../../Drivers/STM32L0xx_HAL_Driver/Src/stm32l0xx_hal.c **** {
ARM GAS  C:\Users\EBANO_~1\AppData\Local\Temp\cc5uxYcV.s 			page 24


 775              		.loc 1 497 0
 776              		.cfi_startproc
 777              		@ args = 0, pretend = 0, frame = 0
 778              		@ frame_needed = 0, uses_anonymous_args = 0
 779              		@ link register save eliminated.
 498:../../../../../../Drivers/STM32L0xx_HAL_Driver/Src/stm32l0xx_hal.c ****   return (SYSCFG->CFGR1 & SYSCFG_CFGR1_BOOT_MODE);
 780              		.loc 1 498 0
 781 0000 024B     		ldr	r3, .L62
 499:../../../../../../Drivers/STM32L0xx_HAL_Driver/Src/stm32l0xx_hal.c **** }
 782              		.loc 1 499 0
 783              		@ sp needed
 498:../../../../../../Drivers/STM32L0xx_HAL_Driver/Src/stm32l0xx_hal.c ****   return (SYSCFG->CFGR1 & SYSCFG_CFGR1_BOOT_MODE);
 784              		.loc 1 498 0
 785 0002 1868     		ldr	r0, [r3]
 786 0004 C023     		movs	r3, #192
 787 0006 9B00     		lsls	r3, r3, #2
 788 0008 1840     		ands	r0, r3
 789              		.loc 1 499 0
 790 000a 7047     		bx	lr
 791              	.L63:
 792              		.align	2
 793              	.L62:
 794 000c 00000140 		.word	1073807360
 795              		.cfi_endproc
 796              	.LFE60:
 797              		.size	HAL_SYSCFG_GetBootMode, .-HAL_SYSCFG_GetBootMode
 798              		.section	.text.HAL_SYSCFG_VREFINT_OutputSelect,"ax",%progbits
 799              		.align	1
 800              		.p2align 2,,3
 801              		.global	HAL_SYSCFG_VREFINT_OutputSelect
 802              		.syntax unified
 803              		.code	16
 804              		.thumb_func
 805              		.fpu softvfp
 806              		.type	HAL_SYSCFG_VREFINT_OutputSelect, %function
 807              	HAL_SYSCFG_VREFINT_OutputSelect:
 808              	.LFB61:
 500:../../../../../../Drivers/STM32L0xx_HAL_Driver/Src/stm32l0xx_hal.c **** 
 501:../../../../../../Drivers/STM32L0xx_HAL_Driver/Src/stm32l0xx_hal.c **** /**
 502:../../../../../../Drivers/STM32L0xx_HAL_Driver/Src/stm32l0xx_hal.c ****   * @brief Selects the output of internal reference voltage (VREFINT).
 503:../../../../../../Drivers/STM32L0xx_HAL_Driver/Src/stm32l0xx_hal.c ****   *        The VREFINT output can be routed to(PB0) or
 504:../../../../../../Drivers/STM32L0xx_HAL_Driver/Src/stm32l0xx_hal.c ****   *        (PB1) or both.
 505:../../../../../../Drivers/STM32L0xx_HAL_Driver/Src/stm32l0xx_hal.c ****   * @param SYSCFG_Vrefint_OUTPUT: new state of the Vrefint output.
 506:../../../../../../Drivers/STM32L0xx_HAL_Driver/Src/stm32l0xx_hal.c ****   *        This parameter can be one of the following values:
 507:../../../../../../Drivers/STM32L0xx_HAL_Driver/Src/stm32l0xx_hal.c ****   *     @arg SYSCFG_VREFINT_OUT_NONE
 508:../../../../../../Drivers/STM32L0xx_HAL_Driver/Src/stm32l0xx_hal.c ****   *     @arg SYSCFG_VREFINT_OUT_PB0
 509:../../../../../../Drivers/STM32L0xx_HAL_Driver/Src/stm32l0xx_hal.c ****   *     @arg SYSCFG_VREFINT_OUT_PB1
 510:../../../../../../Drivers/STM32L0xx_HAL_Driver/Src/stm32l0xx_hal.c ****   *     @arg SYSCFG_VREFINT_OUT_PB0_PB1
 511:../../../../../../Drivers/STM32L0xx_HAL_Driver/Src/stm32l0xx_hal.c ****   * @retval None
 512:../../../../../../Drivers/STM32L0xx_HAL_Driver/Src/stm32l0xx_hal.c ****   */
 513:../../../../../../Drivers/STM32L0xx_HAL_Driver/Src/stm32l0xx_hal.c **** void HAL_SYSCFG_VREFINT_OutputSelect(uint32_t SYSCFG_Vrefint_OUTPUT)
 514:../../../../../../Drivers/STM32L0xx_HAL_Driver/Src/stm32l0xx_hal.c **** {
 809              		.loc 1 514 0
 810              		.cfi_startproc
 811              		@ args = 0, pretend = 0, frame = 0
 812              		@ frame_needed = 0, uses_anonymous_args = 0
 813              		@ link register save eliminated.
ARM GAS  C:\Users\EBANO_~1\AppData\Local\Temp\cc5uxYcV.s 			page 25


 814              	.LVL17:
 515:../../../../../../Drivers/STM32L0xx_HAL_Driver/Src/stm32l0xx_hal.c ****   /* Check the parameters */
 516:../../../../../../Drivers/STM32L0xx_HAL_Driver/Src/stm32l0xx_hal.c ****   assert_param(IS_SYSCFG_VREFINT_OUT_SELECT(SYSCFG_Vrefint_OUTPUT));
 517:../../../../../../Drivers/STM32L0xx_HAL_Driver/Src/stm32l0xx_hal.c **** 
 518:../../../../../../Drivers/STM32L0xx_HAL_Driver/Src/stm32l0xx_hal.c ****   /* Set the output Vrefint pin */
 519:../../../../../../Drivers/STM32L0xx_HAL_Driver/Src/stm32l0xx_hal.c ****   SYSCFG->CFGR3 &= ~(SYSCFG_CFGR3_VREF_OUT);
 815              		.loc 1 519 0
 816 0000 3021     		movs	r1, #48
 817 0002 044B     		ldr	r3, .L65
 520:../../../../../../Drivers/STM32L0xx_HAL_Driver/Src/stm32l0xx_hal.c ****   SYSCFG->CFGR3 |= (uint32_t)(SYSCFG_Vrefint_OUTPUT);
 521:../../../../../../Drivers/STM32L0xx_HAL_Driver/Src/stm32l0xx_hal.c **** }
 818              		.loc 1 521 0
 819              		@ sp needed
 519:../../../../../../Drivers/STM32L0xx_HAL_Driver/Src/stm32l0xx_hal.c ****   SYSCFG->CFGR3 |= (uint32_t)(SYSCFG_Vrefint_OUTPUT);
 820              		.loc 1 519 0
 821 0004 1A6A     		ldr	r2, [r3, #32]
 822 0006 8A43     		bics	r2, r1
 823 0008 1A62     		str	r2, [r3, #32]
 520:../../../../../../Drivers/STM32L0xx_HAL_Driver/Src/stm32l0xx_hal.c ****   SYSCFG->CFGR3 |= (uint32_t)(SYSCFG_Vrefint_OUTPUT);
 824              		.loc 1 520 0
 825 000a 1A6A     		ldr	r2, [r3, #32]
 826 000c 1043     		orrs	r0, r2
 827              	.LVL18:
 828 000e 1862     		str	r0, [r3, #32]
 829              		.loc 1 521 0
 830 0010 7047     		bx	lr
 831              	.L66:
 832 0012 C046     		.align	2
 833              	.L65:
 834 0014 00000140 		.word	1073807360
 835              		.cfi_endproc
 836              	.LFE61:
 837              		.size	HAL_SYSCFG_VREFINT_OutputSelect, .-HAL_SYSCFG_VREFINT_OutputSelect
 838              		.section	.text.HAL_SYSCFG_Enable_Lock_VREFINT,"ax",%progbits
 839              		.align	1
 840              		.p2align 2,,3
 841              		.global	HAL_SYSCFG_Enable_Lock_VREFINT
 842              		.syntax unified
 843              		.code	16
 844              		.thumb_func
 845              		.fpu softvfp
 846              		.type	HAL_SYSCFG_Enable_Lock_VREFINT, %function
 847              	HAL_SYSCFG_Enable_Lock_VREFINT:
 848              	.LFB62:
 522:../../../../../../Drivers/STM32L0xx_HAL_Driver/Src/stm32l0xx_hal.c **** 
 523:../../../../../../Drivers/STM32L0xx_HAL_Driver/Src/stm32l0xx_hal.c **** /**
 524:../../../../../../Drivers/STM32L0xx_HAL_Driver/Src/stm32l0xx_hal.c ****   * @brief  Lock the SYSCFG VREF register values
 525:../../../../../../Drivers/STM32L0xx_HAL_Driver/Src/stm32l0xx_hal.c ****   * @retval None
 526:../../../../../../Drivers/STM32L0xx_HAL_Driver/Src/stm32l0xx_hal.c ****   */
 527:../../../../../../Drivers/STM32L0xx_HAL_Driver/Src/stm32l0xx_hal.c **** void HAL_SYSCFG_Enable_Lock_VREFINT(void)
 528:../../../../../../Drivers/STM32L0xx_HAL_Driver/Src/stm32l0xx_hal.c **** {
 849              		.loc 1 528 0
 850              		.cfi_startproc
 851              		@ args = 0, pretend = 0, frame = 0
 852              		@ frame_needed = 0, uses_anonymous_args = 0
 853              		@ link register save eliminated.
 529:../../../../../../Drivers/STM32L0xx_HAL_Driver/Src/stm32l0xx_hal.c ****     /* Enable the LOCK by setting REF_LOCK bit in the CFGR3 register */
ARM GAS  C:\Users\EBANO_~1\AppData\Local\Temp\cc5uxYcV.s 			page 26


 530:../../../../../../Drivers/STM32L0xx_HAL_Driver/Src/stm32l0xx_hal.c ****     SET_BIT(SYSCFG->CFGR3, SYSCFG_CFGR3_REF_LOCK);
 854              		.loc 1 530 0
 855 0000 8023     		movs	r3, #128
 856 0002 034A     		ldr	r2, .L68
 857 0004 1B06     		lsls	r3, r3, #24
 858 0006 116A     		ldr	r1, [r2, #32]
 531:../../../../../../Drivers/STM32L0xx_HAL_Driver/Src/stm32l0xx_hal.c **** }
 859              		.loc 1 531 0
 860              		@ sp needed
 530:../../../../../../Drivers/STM32L0xx_HAL_Driver/Src/stm32l0xx_hal.c **** }
 861              		.loc 1 530 0
 862 0008 0B43     		orrs	r3, r1
 863 000a 1362     		str	r3, [r2, #32]
 864              		.loc 1 531 0
 865 000c 7047     		bx	lr
 866              	.L69:
 867 000e C046     		.align	2
 868              	.L68:
 869 0010 00000140 		.word	1073807360
 870              		.cfi_endproc
 871              	.LFE62:
 872              		.size	HAL_SYSCFG_Enable_Lock_VREFINT, .-HAL_SYSCFG_Enable_Lock_VREFINT
 873              		.section	.text.HAL_SYSCFG_Disable_Lock_VREFINT,"ax",%progbits
 874              		.align	1
 875              		.p2align 2,,3
 876              		.global	HAL_SYSCFG_Disable_Lock_VREFINT
 877              		.syntax unified
 878              		.code	16
 879              		.thumb_func
 880              		.fpu softvfp
 881              		.type	HAL_SYSCFG_Disable_Lock_VREFINT, %function
 882              	HAL_SYSCFG_Disable_Lock_VREFINT:
 883              	.LFB63:
 532:../../../../../../Drivers/STM32L0xx_HAL_Driver/Src/stm32l0xx_hal.c **** 
 533:../../../../../../Drivers/STM32L0xx_HAL_Driver/Src/stm32l0xx_hal.c **** /**
 534:../../../../../../Drivers/STM32L0xx_HAL_Driver/Src/stm32l0xx_hal.c ****   * @brief  Unlock the overall SYSCFG VREF register values
 535:../../../../../../Drivers/STM32L0xx_HAL_Driver/Src/stm32l0xx_hal.c ****   * @retval None
 536:../../../../../../Drivers/STM32L0xx_HAL_Driver/Src/stm32l0xx_hal.c ****   */
 537:../../../../../../Drivers/STM32L0xx_HAL_Driver/Src/stm32l0xx_hal.c **** void HAL_SYSCFG_Disable_Lock_VREFINT(void)
 538:../../../../../../Drivers/STM32L0xx_HAL_Driver/Src/stm32l0xx_hal.c **** {
 884              		.loc 1 538 0
 885              		.cfi_startproc
 886              		@ args = 0, pretend = 0, frame = 0
 887              		@ frame_needed = 0, uses_anonymous_args = 0
 888              		@ link register save eliminated.
 539:../../../../../../Drivers/STM32L0xx_HAL_Driver/Src/stm32l0xx_hal.c ****     /* Disable the LOCK by setting REF_LOCK bit in the CFGR3 register */
 540:../../../../../../Drivers/STM32L0xx_HAL_Driver/Src/stm32l0xx_hal.c ****     CLEAR_BIT(SYSCFG->CFGR3, SYSCFG_CFGR3_REF_LOCK);
 889              		.loc 1 540 0
 890 0000 024A     		ldr	r2, .L71
 541:../../../../../../Drivers/STM32L0xx_HAL_Driver/Src/stm32l0xx_hal.c **** }
 891              		.loc 1 541 0
 892              		@ sp needed
 540:../../../../../../Drivers/STM32L0xx_HAL_Driver/Src/stm32l0xx_hal.c **** }
 893              		.loc 1 540 0
 894 0002 136A     		ldr	r3, [r2, #32]
 895 0004 5B00     		lsls	r3, r3, #1
 896 0006 5B08     		lsrs	r3, r3, #1
ARM GAS  C:\Users\EBANO_~1\AppData\Local\Temp\cc5uxYcV.s 			page 27


 897 0008 1362     		str	r3, [r2, #32]
 898              		.loc 1 541 0
 899 000a 7047     		bx	lr
 900              	.L72:
 901              		.align	2
 902              	.L71:
 903 000c 00000140 		.word	1073807360
 904              		.cfi_endproc
 905              	.LFE63:
 906              		.size	HAL_SYSCFG_Disable_Lock_VREFINT, .-HAL_SYSCFG_Disable_Lock_VREFINT
 907              		.comm	uwTick,4,4
 908              		.text
 909              	.Letext0:
 910              		.file 2 "c:\\program files (x86)\\gnu tools arm embedded\\7 2018-q2-update\\arm-none-eabi\\include
 911              		.file 3 "c:\\program files (x86)\\gnu tools arm embedded\\7 2018-q2-update\\arm-none-eabi\\include
 912              		.file 4 "../../../../../../Drivers/CMSIS/Include/core_cm0plus.h"
 913              		.file 5 "../../../../../../Drivers/CMSIS/Device/ST/STM32L0xx/Include/system_stm32l0xx.h"
 914              		.file 6 "../../../../../../Drivers/CMSIS/Device/ST/STM32L0xx/Include/stm32l072xx.h"
 915              		.file 7 "c:\\program files (x86)\\gnu tools arm embedded\\7 2018-q2-update\\arm-none-eabi\\include
 916              		.file 8 "c:\\program files (x86)\\gnu tools arm embedded\\7 2018-q2-update\\arm-none-eabi\\include
 917              		.file 9 "c:\\program files (x86)\\gnu tools arm embedded\\7 2018-q2-update\\lib\\gcc\\arm-none-eab
 918              		.file 10 "c:\\program files (x86)\\gnu tools arm embedded\\7 2018-q2-update\\arm-none-eabi\\includ
 919              		.file 11 "../../../../../../Drivers/STM32L0xx_HAL_Driver/Inc/stm32l0xx_hal_def.h"
 920              		.file 12 "../../../../../../Drivers/STM32L0xx_HAL_Driver/Inc/stm32l0xx_hal_cortex.h"