ARM GAS  C:\Users\EBANO_~1\AppData\Local\Temp\ccyPWgHX.s 			page 1


   1              		.cpu cortex-m0plus
   2              		.eabi_attribute 20, 1
   3              		.eabi_attribute 21, 1
   4              		.eabi_attribute 23, 3
   5              		.eabi_attribute 24, 1
   6              		.eabi_attribute 25, 1
   7              		.eabi_attribute 26, 1
   8              		.eabi_attribute 30, 2
   9              		.eabi_attribute 34, 0
  10              		.eabi_attribute 18, 4
  11              		.file	"stm32l0xx_hal_rtc_ex.c"
  12              		.text
  13              	.Ltext0:
  14              		.cfi_sections	.debug_frame
  15              		.section	.text.HAL_RTCEx_SetTimeStamp,"ax",%progbits
  16              		.align	1
  17              		.p2align 2,,3
  18              		.global	HAL_RTCEx_SetTimeStamp
  19              		.syntax unified
  20              		.code	16
  21              		.thumb_func
  22              		.fpu softvfp
  23              		.type	HAL_RTCEx_SetTimeStamp, %function
  24              	HAL_RTCEx_SetTimeStamp:
  25              	.LFB39:
  26              		.file 1 "../../../../../../Drivers/STM32L0xx_HAL_Driver/Src/stm32l0xx_hal_rtc_ex.c"
   1:../../../../../../Drivers/STM32L0xx_HAL_Driver/Src/stm32l0xx_hal_rtc_ex.c **** /**
   2:../../../../../../Drivers/STM32L0xx_HAL_Driver/Src/stm32l0xx_hal_rtc_ex.c ****   ******************************************************************************
   3:../../../../../../Drivers/STM32L0xx_HAL_Driver/Src/stm32l0xx_hal_rtc_ex.c ****   * @file    stm32l0xx_hal_rtc_ex.c
   4:../../../../../../Drivers/STM32L0xx_HAL_Driver/Src/stm32l0xx_hal_rtc_ex.c ****   * @author  MCD Application Team
   5:../../../../../../Drivers/STM32L0xx_HAL_Driver/Src/stm32l0xx_hal_rtc_ex.c ****   * @brief   Extended RTC HAL module driver.
   6:../../../../../../Drivers/STM32L0xx_HAL_Driver/Src/stm32l0xx_hal_rtc_ex.c ****   *
   7:../../../../../../Drivers/STM32L0xx_HAL_Driver/Src/stm32l0xx_hal_rtc_ex.c ****   *          This file provides firmware functions to manage the following 
   8:../../../../../../Drivers/STM32L0xx_HAL_Driver/Src/stm32l0xx_hal_rtc_ex.c ****   *          functionalities of the Real Time Clock (RTC) Extended peripheral:
   9:../../../../../../Drivers/STM32L0xx_HAL_Driver/Src/stm32l0xx_hal_rtc_ex.c ****   *           + RTC Time Stamp functions
  10:../../../../../../Drivers/STM32L0xx_HAL_Driver/Src/stm32l0xx_hal_rtc_ex.c ****   *           + RTC Tamper functions 
  11:../../../../../../Drivers/STM32L0xx_HAL_Driver/Src/stm32l0xx_hal_rtc_ex.c ****   *           + RTC Wake-up functions
  12:../../../../../../Drivers/STM32L0xx_HAL_Driver/Src/stm32l0xx_hal_rtc_ex.c ****   *           + Extended Control functions
  13:../../../../../../Drivers/STM32L0xx_HAL_Driver/Src/stm32l0xx_hal_rtc_ex.c ****   *           + Extended RTC features functions    
  14:../../../../../../Drivers/STM32L0xx_HAL_Driver/Src/stm32l0xx_hal_rtc_ex.c ****   *
  15:../../../../../../Drivers/STM32L0xx_HAL_Driver/Src/stm32l0xx_hal_rtc_ex.c ****   @verbatim
  16:../../../../../../Drivers/STM32L0xx_HAL_Driver/Src/stm32l0xx_hal_rtc_ex.c ****   ==============================================================================
  17:../../../../../../Drivers/STM32L0xx_HAL_Driver/Src/stm32l0xx_hal_rtc_ex.c ****                   ##### How to use this driver #####
  18:../../../../../../Drivers/STM32L0xx_HAL_Driver/Src/stm32l0xx_hal_rtc_ex.c ****   ==============================================================================
  19:../../../../../../Drivers/STM32L0xx_HAL_Driver/Src/stm32l0xx_hal_rtc_ex.c ****   [..]
  20:../../../../../../Drivers/STM32L0xx_HAL_Driver/Src/stm32l0xx_hal_rtc_ex.c ****     (+) Enable the RTC domain access.
  21:../../../../../../Drivers/STM32L0xx_HAL_Driver/Src/stm32l0xx_hal_rtc_ex.c ****     (+) Configure the RTC Prescaler (Asynchronous and Synchronous) and RTC hour
  22:../../../../../../Drivers/STM32L0xx_HAL_Driver/Src/stm32l0xx_hal_rtc_ex.c ****         format using the HAL_RTC_Init() function.
  23:../../../../../../Drivers/STM32L0xx_HAL_Driver/Src/stm32l0xx_hal_rtc_ex.c **** 
  24:../../../../../../Drivers/STM32L0xx_HAL_Driver/Src/stm32l0xx_hal_rtc_ex.c ****   *** RTC Wakeup configuration ***
  25:../../../../../../Drivers/STM32L0xx_HAL_Driver/Src/stm32l0xx_hal_rtc_ex.c ****   ================================
  26:../../../../../../Drivers/STM32L0xx_HAL_Driver/Src/stm32l0xx_hal_rtc_ex.c ****   [..] 
  27:../../../../../../Drivers/STM32L0xx_HAL_Driver/Src/stm32l0xx_hal_rtc_ex.c ****     (+) To configure the RTC Wakeup Clock source and Counter use the HAL_RTCEx_SetWakeUpTimer()
  28:../../../../../../Drivers/STM32L0xx_HAL_Driver/Src/stm32l0xx_hal_rtc_ex.c ****         function. You can also configure the RTC Wakeup timer with interrupt mode 
  29:../../../../../../Drivers/STM32L0xx_HAL_Driver/Src/stm32l0xx_hal_rtc_ex.c ****         using the HAL_RTCEx_SetWakeUpTimer_IT() function.
  30:../../../../../../Drivers/STM32L0xx_HAL_Driver/Src/stm32l0xx_hal_rtc_ex.c ****     (+) To read the RTC WakeUp Counter register, use the HAL_RTCEx_GetWakeUpTimer()
  31:../../../../../../Drivers/STM32L0xx_HAL_Driver/Src/stm32l0xx_hal_rtc_ex.c ****         function.
ARM GAS  C:\Users\EBANO_~1\AppData\Local\Temp\ccyPWgHX.s 			page 2


  32:../../../../../../Drivers/STM32L0xx_HAL_Driver/Src/stm32l0xx_hal_rtc_ex.c ****         
  33:../../../../../../Drivers/STM32L0xx_HAL_Driver/Src/stm32l0xx_hal_rtc_ex.c ****   *** Outputs configuration ***
  34:../../../../../../Drivers/STM32L0xx_HAL_Driver/Src/stm32l0xx_hal_rtc_ex.c ****   =============================
  35:../../../../../../Drivers/STM32L0xx_HAL_Driver/Src/stm32l0xx_hal_rtc_ex.c ****   [..] The RTC has 2 different outputs:
  36:../../../../../../Drivers/STM32L0xx_HAL_Driver/Src/stm32l0xx_hal_rtc_ex.c ****     (+) RTC_ALARM: this output is used to manage the RTC Alarm A, Alarm B
  37:../../../../../../Drivers/STM32L0xx_HAL_Driver/Src/stm32l0xx_hal_rtc_ex.c ****         and WaKeUp signals.
  38:../../../../../../Drivers/STM32L0xx_HAL_Driver/Src/stm32l0xx_hal_rtc_ex.c ****         To output the selected RTC signal, use the HAL_RTC_Init() function.             
  39:../../../../../../Drivers/STM32L0xx_HAL_Driver/Src/stm32l0xx_hal_rtc_ex.c ****     (+) RTC_CALIB: this output is 512Hz signal or 1Hz.
  40:../../../../../../Drivers/STM32L0xx_HAL_Driver/Src/stm32l0xx_hal_rtc_ex.c ****         To enable the RTC_CALIB, use the HAL_RTCEx_SetCalibrationOutPut() function.
  41:../../../../../../Drivers/STM32L0xx_HAL_Driver/Src/stm32l0xx_hal_rtc_ex.c ****     (+) Two pins can be used as RTC_ALARM or RTC_CALIB (PC13, PB14) for STM32L05x/6x/7x/8x 
  42:../../../../../../Drivers/STM32L0xx_HAL_Driver/Src/stm32l0xx_hal_rtc_ex.c **** 	    and (PA2, PB14) for STM32L03x/4x managed on the RTC_OR register.
  43:../../../../../../Drivers/STM32L0xx_HAL_Driver/Src/stm32l0xx_hal_rtc_ex.c ****     (+) When the RTC_CALIB or RTC_ALARM output is selected, the RTC_OUT pin is
  44:../../../../../../Drivers/STM32L0xx_HAL_Driver/Src/stm32l0xx_hal_rtc_ex.c ****         automatically configured in output alternate function. 
  45:../../../../../../Drivers/STM32L0xx_HAL_Driver/Src/stm32l0xx_hal_rtc_ex.c ****         
  46:../../../../../../Drivers/STM32L0xx_HAL_Driver/Src/stm32l0xx_hal_rtc_ex.c ****   *** Smooth digital Calibration configuration ***
  47:../../../../../../Drivers/STM32L0xx_HAL_Driver/Src/stm32l0xx_hal_rtc_ex.c ****   ================================================
  48:../../../../../../Drivers/STM32L0xx_HAL_Driver/Src/stm32l0xx_hal_rtc_ex.c ****   [..]
  49:../../../../../../Drivers/STM32L0xx_HAL_Driver/Src/stm32l0xx_hal_rtc_ex.c ****     (+) Configure the RTC Original Digital Calibration Value and the corresponding
  50:../../../../../../Drivers/STM32L0xx_HAL_Driver/Src/stm32l0xx_hal_rtc_ex.c ****         calibration cycle period (32s,16s and 8s) using the HAL_RTCEx_SetSmoothCalib() 
  51:../../../../../../Drivers/STM32L0xx_HAL_Driver/Src/stm32l0xx_hal_rtc_ex.c ****         function.
  52:../../../../../../Drivers/STM32L0xx_HAL_Driver/Src/stm32l0xx_hal_rtc_ex.c **** 
  53:../../../../../../Drivers/STM32L0xx_HAL_Driver/Src/stm32l0xx_hal_rtc_ex.c ****   *** TimeStamp configuration ***
  54:../../../../../../Drivers/STM32L0xx_HAL_Driver/Src/stm32l0xx_hal_rtc_ex.c ****   ===============================
  55:../../../../../../Drivers/STM32L0xx_HAL_Driver/Src/stm32l0xx_hal_rtc_ex.c ****   [..]
  56:../../../../../../Drivers/STM32L0xx_HAL_Driver/Src/stm32l0xx_hal_rtc_ex.c ****         (+) Configure the RTC_AF trigger and enable the RTC TimeStamp using the 
  57:../../../../../../Drivers/STM32L0xx_HAL_Driver/Src/stm32l0xx_hal_rtc_ex.c ****             HAL_RTCEx_SetTimeStamp() function. You can also configure the RTC TimeStamp with 
  58:../../../../../../Drivers/STM32L0xx_HAL_Driver/Src/stm32l0xx_hal_rtc_ex.c ****             interrupt mode using the HAL_RTCEx_SetTimeStamp_IT() function.
  59:../../../../../../Drivers/STM32L0xx_HAL_Driver/Src/stm32l0xx_hal_rtc_ex.c ****         (+) To read the RTC TimeStamp Time and Date register, use the HAL_RTCEx_GetTimeStamp()
  60:../../../../../../Drivers/STM32L0xx_HAL_Driver/Src/stm32l0xx_hal_rtc_ex.c ****             function.
  61:../../../../../../Drivers/STM32L0xx_HAL_Driver/Src/stm32l0xx_hal_rtc_ex.c **** 
  62:../../../../../../Drivers/STM32L0xx_HAL_Driver/Src/stm32l0xx_hal_rtc_ex.c ****   *** Tamper configuration ***
  63:../../../../../../Drivers/STM32L0xx_HAL_Driver/Src/stm32l0xx_hal_rtc_ex.c ****   ============================
  64:../../../../../../Drivers/STM32L0xx_HAL_Driver/Src/stm32l0xx_hal_rtc_ex.c ****   [..]
  65:../../../../../../Drivers/STM32L0xx_HAL_Driver/Src/stm32l0xx_hal_rtc_ex.c ****         (+) Enable the RTC Tamper and configure the Tamper filter count, trigger Edge 
  66:../../../../../../Drivers/STM32L0xx_HAL_Driver/Src/stm32l0xx_hal_rtc_ex.c ****         or Level according to the Tamper filter (if equal to 0 Edge else Level) 
  67:../../../../../../Drivers/STM32L0xx_HAL_Driver/Src/stm32l0xx_hal_rtc_ex.c ****         value, sampling frequency, NoErase, MaskFlag,  precharge or discharge and
  68:../../../../../../Drivers/STM32L0xx_HAL_Driver/Src/stm32l0xx_hal_rtc_ex.c ****         Pull-UP using the HAL_RTCEx_SetTamper() function. You can configure RTC Tamper
  69:../../../../../../Drivers/STM32L0xx_HAL_Driver/Src/stm32l0xx_hal_rtc_ex.c ****         with interrupt mode using HAL_RTCEx_SetTamper_IT() function.
  70:../../../../../../Drivers/STM32L0xx_HAL_Driver/Src/stm32l0xx_hal_rtc_ex.c ****     (+) The default configuration of the Tamper erases the backup registers. To avoid
  71:../../../../../../Drivers/STM32L0xx_HAL_Driver/Src/stm32l0xx_hal_rtc_ex.c ****         erase, enable the NoErase field on the RTC_TAMPCR register.
  72:../../../../../../Drivers/STM32L0xx_HAL_Driver/Src/stm32l0xx_hal_rtc_ex.c **** 
  73:../../../../../../Drivers/STM32L0xx_HAL_Driver/Src/stm32l0xx_hal_rtc_ex.c ****   *** Backup Data Registers configuration ***
  74:../../../../../../Drivers/STM32L0xx_HAL_Driver/Src/stm32l0xx_hal_rtc_ex.c ****   ===========================================
  75:../../../../../../Drivers/STM32L0xx_HAL_Driver/Src/stm32l0xx_hal_rtc_ex.c ****   [..]
  76:../../../../../../Drivers/STM32L0xx_HAL_Driver/Src/stm32l0xx_hal_rtc_ex.c ****     (+) To write to the RTC Backup Data registers, use the HAL_RTCEx_BKUPWrite()
  77:../../../../../../Drivers/STM32L0xx_HAL_Driver/Src/stm32l0xx_hal_rtc_ex.c ****         function.
  78:../../../../../../Drivers/STM32L0xx_HAL_Driver/Src/stm32l0xx_hal_rtc_ex.c ****     (+) To read the RTC Backup Data registers, use the HAL_RTCEx_BKUPRead()
  79:../../../../../../Drivers/STM32L0xx_HAL_Driver/Src/stm32l0xx_hal_rtc_ex.c ****         function.
  80:../../../../../../Drivers/STM32L0xx_HAL_Driver/Src/stm32l0xx_hal_rtc_ex.c **** 
  81:../../../../../../Drivers/STM32L0xx_HAL_Driver/Src/stm32l0xx_hal_rtc_ex.c ****    @endverbatim
  82:../../../../../../Drivers/STM32L0xx_HAL_Driver/Src/stm32l0xx_hal_rtc_ex.c ****   ******************************************************************************
  83:../../../../../../Drivers/STM32L0xx_HAL_Driver/Src/stm32l0xx_hal_rtc_ex.c ****   * @attention
  84:../../../../../../Drivers/STM32L0xx_HAL_Driver/Src/stm32l0xx_hal_rtc_ex.c ****   *
  85:../../../../../../Drivers/STM32L0xx_HAL_Driver/Src/stm32l0xx_hal_rtc_ex.c ****   * <h2><center>&copy; COPYRIGHT(c) 2016 STMicroelectronics</center></h2>
  86:../../../../../../Drivers/STM32L0xx_HAL_Driver/Src/stm32l0xx_hal_rtc_ex.c ****   *
  87:../../../../../../Drivers/STM32L0xx_HAL_Driver/Src/stm32l0xx_hal_rtc_ex.c ****   * Redistribution and use in source and binary forms, with or without modification,
  88:../../../../../../Drivers/STM32L0xx_HAL_Driver/Src/stm32l0xx_hal_rtc_ex.c ****   * are permitted provided that the following conditions are met:
ARM GAS  C:\Users\EBANO_~1\AppData\Local\Temp\ccyPWgHX.s 			page 3


  89:../../../../../../Drivers/STM32L0xx_HAL_Driver/Src/stm32l0xx_hal_rtc_ex.c ****   *   1. Redistributions of source code must retain the above copyright notice,
  90:../../../../../../Drivers/STM32L0xx_HAL_Driver/Src/stm32l0xx_hal_rtc_ex.c ****   *      this list of conditions and the following disclaimer.
  91:../../../../../../Drivers/STM32L0xx_HAL_Driver/Src/stm32l0xx_hal_rtc_ex.c ****   *   2. Redistributions in binary form must reproduce the above copyright notice,
  92:../../../../../../Drivers/STM32L0xx_HAL_Driver/Src/stm32l0xx_hal_rtc_ex.c ****   *      this list of conditions and the following disclaimer in the documentation
  93:../../../../../../Drivers/STM32L0xx_HAL_Driver/Src/stm32l0xx_hal_rtc_ex.c ****   *      and/or other materials provided with the distribution.
  94:../../../../../../Drivers/STM32L0xx_HAL_Driver/Src/stm32l0xx_hal_rtc_ex.c ****   *   3. Neither the name of STMicroelectronics nor the names of its contributors
  95:../../../../../../Drivers/STM32L0xx_HAL_Driver/Src/stm32l0xx_hal_rtc_ex.c ****   *      may be used to endorse or promote products derived from this software
  96:../../../../../../Drivers/STM32L0xx_HAL_Driver/Src/stm32l0xx_hal_rtc_ex.c ****   *      without specific prior written permission.
  97:../../../../../../Drivers/STM32L0xx_HAL_Driver/Src/stm32l0xx_hal_rtc_ex.c ****   *
  98:../../../../../../Drivers/STM32L0xx_HAL_Driver/Src/stm32l0xx_hal_rtc_ex.c ****   * THIS SOFTWARE IS PROVIDED BY THE COPYRIGHT HOLDERS AND CONTRIBUTORS "AS IS"
  99:../../../../../../Drivers/STM32L0xx_HAL_Driver/Src/stm32l0xx_hal_rtc_ex.c ****   * AND ANY EXPRESS OR IMPLIED WARRANTIES, INCLUDING, BUT NOT LIMITED TO, THE
 100:../../../../../../Drivers/STM32L0xx_HAL_Driver/Src/stm32l0xx_hal_rtc_ex.c ****   * IMPLIED WARRANTIES OF MERCHANTABILITY AND FITNESS FOR A PARTICULAR PURPOSE ARE
 101:../../../../../../Drivers/STM32L0xx_HAL_Driver/Src/stm32l0xx_hal_rtc_ex.c ****   * DISCLAIMED. IN NO EVENT SHALL THE COPYRIGHT HOLDER OR CONTRIBUTORS BE LIABLE
 102:../../../../../../Drivers/STM32L0xx_HAL_Driver/Src/stm32l0xx_hal_rtc_ex.c ****   * FOR ANY DIRECT, INDIRECT, INCIDENTAL, SPECIAL, EXEMPLARY, OR CONSEQUENTIAL
 103:../../../../../../Drivers/STM32L0xx_HAL_Driver/Src/stm32l0xx_hal_rtc_ex.c ****   * DAMAGES (INCLUDING, BUT NOT LIMITED TO, PROCUREMENT OF SUBSTITUTE GOODS OR
 104:../../../../../../Drivers/STM32L0xx_HAL_Driver/Src/stm32l0xx_hal_rtc_ex.c ****   * SERVICES; LOSS OF USE, DATA, OR PROFITS; OR BUSINESS INTERRUPTION) HOWEVER
 105:../../../../../../Drivers/STM32L0xx_HAL_Driver/Src/stm32l0xx_hal_rtc_ex.c ****   * CAUSED AND ON ANY THEORY OF LIABILITY, WHETHER IN CONTRACT, STRICT LIABILITY,
 106:../../../../../../Drivers/STM32L0xx_HAL_Driver/Src/stm32l0xx_hal_rtc_ex.c ****   * OR TORT (INCLUDING NEGLIGENCE OR OTHERWISE) ARISING IN ANY WAY OUT OF THE USE
 107:../../../../../../Drivers/STM32L0xx_HAL_Driver/Src/stm32l0xx_hal_rtc_ex.c ****   * OF THIS SOFTWARE, EVEN IF ADVISED OF THE POSSIBILITY OF SUCH DAMAGE.
 108:../../../../../../Drivers/STM32L0xx_HAL_Driver/Src/stm32l0xx_hal_rtc_ex.c ****   *
 109:../../../../../../Drivers/STM32L0xx_HAL_Driver/Src/stm32l0xx_hal_rtc_ex.c ****   ******************************************************************************  
 110:../../../../../../Drivers/STM32L0xx_HAL_Driver/Src/stm32l0xx_hal_rtc_ex.c ****   */
 111:../../../../../../Drivers/STM32L0xx_HAL_Driver/Src/stm32l0xx_hal_rtc_ex.c **** 
 112:../../../../../../Drivers/STM32L0xx_HAL_Driver/Src/stm32l0xx_hal_rtc_ex.c **** /* Includes ------------------------------------------------------------------*/
 113:../../../../../../Drivers/STM32L0xx_HAL_Driver/Src/stm32l0xx_hal_rtc_ex.c **** #include "stm32l0xx_hal.h"
 114:../../../../../../Drivers/STM32L0xx_HAL_Driver/Src/stm32l0xx_hal_rtc_ex.c **** 
 115:../../../../../../Drivers/STM32L0xx_HAL_Driver/Src/stm32l0xx_hal_rtc_ex.c **** /** @addtogroup STM32L0xx_HAL_Driver
 116:../../../../../../Drivers/STM32L0xx_HAL_Driver/Src/stm32l0xx_hal_rtc_ex.c ****   * @{
 117:../../../../../../Drivers/STM32L0xx_HAL_Driver/Src/stm32l0xx_hal_rtc_ex.c ****   */
 118:../../../../../../Drivers/STM32L0xx_HAL_Driver/Src/stm32l0xx_hal_rtc_ex.c **** 
 119:../../../../../../Drivers/STM32L0xx_HAL_Driver/Src/stm32l0xx_hal_rtc_ex.c **** /** @addtogroup RTCEx
 120:../../../../../../Drivers/STM32L0xx_HAL_Driver/Src/stm32l0xx_hal_rtc_ex.c ****   * @brief RTC Extended HAL module driver
 121:../../../../../../Drivers/STM32L0xx_HAL_Driver/Src/stm32l0xx_hal_rtc_ex.c ****   * @{
 122:../../../../../../Drivers/STM32L0xx_HAL_Driver/Src/stm32l0xx_hal_rtc_ex.c ****   */
 123:../../../../../../Drivers/STM32L0xx_HAL_Driver/Src/stm32l0xx_hal_rtc_ex.c **** 
 124:../../../../../../Drivers/STM32L0xx_HAL_Driver/Src/stm32l0xx_hal_rtc_ex.c **** #ifdef HAL_RTC_MODULE_ENABLED
 125:../../../../../../Drivers/STM32L0xx_HAL_Driver/Src/stm32l0xx_hal_rtc_ex.c **** 
 126:../../../../../../Drivers/STM32L0xx_HAL_Driver/Src/stm32l0xx_hal_rtc_ex.c **** /* Private typedef -----------------------------------------------------------*/
 127:../../../../../../Drivers/STM32L0xx_HAL_Driver/Src/stm32l0xx_hal_rtc_ex.c **** /* Private define ------------------------------------------------------------*/
 128:../../../../../../Drivers/STM32L0xx_HAL_Driver/Src/stm32l0xx_hal_rtc_ex.c **** /* Private macro -------------------------------------------------------------*/
 129:../../../../../../Drivers/STM32L0xx_HAL_Driver/Src/stm32l0xx_hal_rtc_ex.c **** /* Private variables ---------------------------------------------------------*/
 130:../../../../../../Drivers/STM32L0xx_HAL_Driver/Src/stm32l0xx_hal_rtc_ex.c **** /* Private function prototypes -----------------------------------------------*/
 131:../../../../../../Drivers/STM32L0xx_HAL_Driver/Src/stm32l0xx_hal_rtc_ex.c **** /* Exported functions --------------------------------------------------------*/
 132:../../../../../../Drivers/STM32L0xx_HAL_Driver/Src/stm32l0xx_hal_rtc_ex.c **** 
 133:../../../../../../Drivers/STM32L0xx_HAL_Driver/Src/stm32l0xx_hal_rtc_ex.c **** /** @addtogroup RTCEx_Exported_Functions
 134:../../../../../../Drivers/STM32L0xx_HAL_Driver/Src/stm32l0xx_hal_rtc_ex.c ****   * @{
 135:../../../../../../Drivers/STM32L0xx_HAL_Driver/Src/stm32l0xx_hal_rtc_ex.c ****   */
 136:../../../../../../Drivers/STM32L0xx_HAL_Driver/Src/stm32l0xx_hal_rtc_ex.c **** 
 137:../../../../../../Drivers/STM32L0xx_HAL_Driver/Src/stm32l0xx_hal_rtc_ex.c **** 
 138:../../../../../../Drivers/STM32L0xx_HAL_Driver/Src/stm32l0xx_hal_rtc_ex.c **** /** @addtogroup RTCEx_Exported_Functions_Group1
 139:../../../../../../Drivers/STM32L0xx_HAL_Driver/Src/stm32l0xx_hal_rtc_ex.c ****  *  @brief   RTC TimeStamp and Tamper functions
 140:../../../../../../Drivers/STM32L0xx_HAL_Driver/Src/stm32l0xx_hal_rtc_ex.c ****   *
 141:../../../../../../Drivers/STM32L0xx_HAL_Driver/Src/stm32l0xx_hal_rtc_ex.c **** @verbatim
 142:../../../../../../Drivers/STM32L0xx_HAL_Driver/Src/stm32l0xx_hal_rtc_ex.c ****  ===============================================================================
 143:../../../../../../Drivers/STM32L0xx_HAL_Driver/Src/stm32l0xx_hal_rtc_ex.c ****                  ##### RTC TimeStamp and Tamper functions #####
 144:../../../../../../Drivers/STM32L0xx_HAL_Driver/Src/stm32l0xx_hal_rtc_ex.c ****  ===============================================================================
 145:../../../../../../Drivers/STM32L0xx_HAL_Driver/Src/stm32l0xx_hal_rtc_ex.c ****  
ARM GAS  C:\Users\EBANO_~1\AppData\Local\Temp\ccyPWgHX.s 			page 4


 146:../../../../../../Drivers/STM32L0xx_HAL_Driver/Src/stm32l0xx_hal_rtc_ex.c ****  [..] This section provides functions allowing to configure TimeStamp feature
 147:../../../../../../Drivers/STM32L0xx_HAL_Driver/Src/stm32l0xx_hal_rtc_ex.c **** 
 148:../../../../../../Drivers/STM32L0xx_HAL_Driver/Src/stm32l0xx_hal_rtc_ex.c **** @endverbatim
 149:../../../../../../Drivers/STM32L0xx_HAL_Driver/Src/stm32l0xx_hal_rtc_ex.c ****   * @{
 150:../../../../../../Drivers/STM32L0xx_HAL_Driver/Src/stm32l0xx_hal_rtc_ex.c ****   */
 151:../../../../../../Drivers/STM32L0xx_HAL_Driver/Src/stm32l0xx_hal_rtc_ex.c **** 
 152:../../../../../../Drivers/STM32L0xx_HAL_Driver/Src/stm32l0xx_hal_rtc_ex.c **** /**
 153:../../../../../../Drivers/STM32L0xx_HAL_Driver/Src/stm32l0xx_hal_rtc_ex.c ****   * @brief  Set TimeStamp.
 154:../../../../../../Drivers/STM32L0xx_HAL_Driver/Src/stm32l0xx_hal_rtc_ex.c ****   * @note   This API must be called before enabling the TimeStamp feature.
 155:../../../../../../Drivers/STM32L0xx_HAL_Driver/Src/stm32l0xx_hal_rtc_ex.c ****   * @param  hrtc RTC handle
 156:../../../../../../Drivers/STM32L0xx_HAL_Driver/Src/stm32l0xx_hal_rtc_ex.c ****   * @param  TimeStampEdge Specifies the pin edge on which the TimeStamp is
 157:../../../../../../Drivers/STM32L0xx_HAL_Driver/Src/stm32l0xx_hal_rtc_ex.c ****   *         activated.
 158:../../../../../../Drivers/STM32L0xx_HAL_Driver/Src/stm32l0xx_hal_rtc_ex.c ****   *          This parameter can be one of the following values:
 159:../../../../../../Drivers/STM32L0xx_HAL_Driver/Src/stm32l0xx_hal_rtc_ex.c ****   *             @arg RTC_TIMESTAMPEDGE_RISING: the Time stamp event occurs on the  
 160:../../../../../../Drivers/STM32L0xx_HAL_Driver/Src/stm32l0xx_hal_rtc_ex.c ****   *                                        rising edge of the related pin.
 161:../../../../../../Drivers/STM32L0xx_HAL_Driver/Src/stm32l0xx_hal_rtc_ex.c ****   *             @arg RTC_TIMESTAMPEDGE_FALLING: the Time stamp event occurs on the 
 162:../../../../../../Drivers/STM32L0xx_HAL_Driver/Src/stm32l0xx_hal_rtc_ex.c ****   *                                         falling edge of the related pin.
 163:../../../../../../Drivers/STM32L0xx_HAL_Driver/Src/stm32l0xx_hal_rtc_ex.c ****   * @param  RTC_TimeStampPin specifies the RTC TimeStamp Pin.
 164:../../../../../../Drivers/STM32L0xx_HAL_Driver/Src/stm32l0xx_hal_rtc_ex.c ****   *          This parameter can be one of the following values:
 165:../../../../../../Drivers/STM32L0xx_HAL_Driver/Src/stm32l0xx_hal_rtc_ex.c ****   *             @arg RTC_TIMESTAMPPIN_DEFAULT: PC13 is selected as RTC TimeStamp Pin on STM32L05x/6
 166:../../../../../../Drivers/STM32L0xx_HAL_Driver/Src/stm32l0xx_hal_rtc_ex.c ****   *                                            and PA2 on STM32L03x/4x/2x/1x.
 167:../../../../../../Drivers/STM32L0xx_HAL_Driver/Src/stm32l0xx_hal_rtc_ex.c ****   * @retval HAL status
 168:../../../../../../Drivers/STM32L0xx_HAL_Driver/Src/stm32l0xx_hal_rtc_ex.c ****   */
 169:../../../../../../Drivers/STM32L0xx_HAL_Driver/Src/stm32l0xx_hal_rtc_ex.c **** HAL_StatusTypeDef HAL_RTCEx_SetTimeStamp(RTC_HandleTypeDef *hrtc, uint32_t TimeStampEdge, uint32_t 
 170:../../../../../../Drivers/STM32L0xx_HAL_Driver/Src/stm32l0xx_hal_rtc_ex.c **** {
  27              		.loc 1 170 0
  28              		.cfi_startproc
  29              		@ args = 0, pretend = 0, frame = 0
  30              		@ frame_needed = 0, uses_anonymous_args = 0
  31              	.LVL0:
  32 0000 70B5     		push	{r4, r5, r6, lr}
  33              	.LCFI0:
  34              		.cfi_def_cfa_offset 16
  35              		.cfi_offset 4, -16
  36              		.cfi_offset 5, -12
  37              		.cfi_offset 6, -8
  38              		.cfi_offset 14, -4
 171:../../../../../../Drivers/STM32L0xx_HAL_Driver/Src/stm32l0xx_hal_rtc_ex.c ****   uint32_t tmpreg = 0U;
 172:../../../../../../Drivers/STM32L0xx_HAL_Driver/Src/stm32l0xx_hal_rtc_ex.c **** 
 173:../../../../../../Drivers/STM32L0xx_HAL_Driver/Src/stm32l0xx_hal_rtc_ex.c ****   /* Check the parameters */
 174:../../../../../../Drivers/STM32L0xx_HAL_Driver/Src/stm32l0xx_hal_rtc_ex.c ****   assert_param(IS_TIMESTAMP_EDGE(TimeStampEdge));
 175:../../../../../../Drivers/STM32L0xx_HAL_Driver/Src/stm32l0xx_hal_rtc_ex.c ****   assert_param(IS_RTC_TIMESTAMP_PIN(RTC_TimeStampPin));
 176:../../../../../../Drivers/STM32L0xx_HAL_Driver/Src/stm32l0xx_hal_rtc_ex.c **** 
 177:../../../../../../Drivers/STM32L0xx_HAL_Driver/Src/stm32l0xx_hal_rtc_ex.c ****   /* Process Locked */
 178:../../../../../../Drivers/STM32L0xx_HAL_Driver/Src/stm32l0xx_hal_rtc_ex.c ****   __HAL_LOCK(hrtc);
  39              		.loc 1 178 0
  40 0002 2024     		movs	r4, #32
  41 0004 035D     		ldrb	r3, [r0, r4]
  42 0006 012B     		cmp	r3, #1
  43 0008 19D0     		beq	.L3
 179:../../../../../../Drivers/STM32L0xx_HAL_Driver/Src/stm32l0xx_hal_rtc_ex.c **** 
 180:../../../../../../Drivers/STM32L0xx_HAL_Driver/Src/stm32l0xx_hal_rtc_ex.c ****   hrtc->State = HAL_RTC_STATE_BUSY;
  44              		.loc 1 180 0 discriminator 2
  45 000a 2125     		movs	r5, #33
  46 000c 0223     		movs	r3, #2
  47 000e 4355     		strb	r3, [r0, r5]
 181:../../../../../../Drivers/STM32L0xx_HAL_Driver/Src/stm32l0xx_hal_rtc_ex.c **** 
ARM GAS  C:\Users\EBANO_~1\AppData\Local\Temp\ccyPWgHX.s 			page 5


 182:../../../../../../Drivers/STM32L0xx_HAL_Driver/Src/stm32l0xx_hal_rtc_ex.c ****   /* Get the RTC_CR register and clear the bits to be configured */
 183:../../../../../../Drivers/STM32L0xx_HAL_Driver/Src/stm32l0xx_hal_rtc_ex.c ****   tmpreg = (uint32_t)(hrtc->Instance->CR & (uint32_t)~(RTC_CR_TSEDGE | RTC_CR_TSE));
  48              		.loc 1 183 0 discriminator 2
  49 0010 0368     		ldr	r3, [r0]
  50 0012 0C4E     		ldr	r6, .L5
  51 0014 9A68     		ldr	r2, [r3, #8]
  52              	.LVL1:
  53 0016 3240     		ands	r2, r6
  54              	.LVL2:
 184:../../../../../../Drivers/STM32L0xx_HAL_Driver/Src/stm32l0xx_hal_rtc_ex.c **** 
 185:../../../../../../Drivers/STM32L0xx_HAL_Driver/Src/stm32l0xx_hal_rtc_ex.c ****   tmpreg|= TimeStampEdge;
  55              		.loc 1 185 0 discriminator 2
  56 0018 1143     		orrs	r1, r2
  57              	.LVL3:
 186:../../../../../../Drivers/STM32L0xx_HAL_Driver/Src/stm32l0xx_hal_rtc_ex.c **** 
 187:../../../../../../Drivers/STM32L0xx_HAL_Driver/Src/stm32l0xx_hal_rtc_ex.c ****   /* Disable the write protection for RTC registers */
 188:../../../../../../Drivers/STM32L0xx_HAL_Driver/Src/stm32l0xx_hal_rtc_ex.c ****   __HAL_RTC_WRITEPROTECTION_DISABLE(hrtc);
  58              		.loc 1 188 0 discriminator 2
  59 001a CA22     		movs	r2, #202
  60 001c 5A62     		str	r2, [r3, #36]
  61 001e 773A     		subs	r2, r2, #119
  62 0020 5A62     		str	r2, [r3, #36]
 189:../../../../../../Drivers/STM32L0xx_HAL_Driver/Src/stm32l0xx_hal_rtc_ex.c **** 
 190:../../../../../../Drivers/STM32L0xx_HAL_Driver/Src/stm32l0xx_hal_rtc_ex.c ****   /* Configure the Time Stamp TSEDGE and Enable bits */
 191:../../../../../../Drivers/STM32L0xx_HAL_Driver/Src/stm32l0xx_hal_rtc_ex.c ****   hrtc->Instance->CR = (uint32_t)tmpreg;
 192:../../../../../../Drivers/STM32L0xx_HAL_Driver/Src/stm32l0xx_hal_rtc_ex.c **** 
 193:../../../../../../Drivers/STM32L0xx_HAL_Driver/Src/stm32l0xx_hal_rtc_ex.c ****   __HAL_RTC_TIMESTAMP_ENABLE(hrtc);
  63              		.loc 1 193 0 discriminator 2
  64 0022 8022     		movs	r2, #128
 191:../../../../../../Drivers/STM32L0xx_HAL_Driver/Src/stm32l0xx_hal_rtc_ex.c **** 
  65              		.loc 1 191 0 discriminator 2
  66 0024 9960     		str	r1, [r3, #8]
  67              		.loc 1 193 0 discriminator 2
  68 0026 9968     		ldr	r1, [r3, #8]
  69              	.LVL4:
  70 0028 1201     		lsls	r2, r2, #4
  71 002a 0A43     		orrs	r2, r1
  72 002c 9A60     		str	r2, [r3, #8]
  73              	.LVL5:
 194:../../../../../../Drivers/STM32L0xx_HAL_Driver/Src/stm32l0xx_hal_rtc_ex.c **** 
 195:../../../../../../Drivers/STM32L0xx_HAL_Driver/Src/stm32l0xx_hal_rtc_ex.c ****   /* Enable the write protection for RTC registers */
 196:../../../../../../Drivers/STM32L0xx_HAL_Driver/Src/stm32l0xx_hal_rtc_ex.c ****   __HAL_RTC_WRITEPROTECTION_ENABLE(hrtc);
  74              		.loc 1 196 0 discriminator 2
  75 002e FF22     		movs	r2, #255
  76 0030 5A62     		str	r2, [r3, #36]
 197:../../../../../../Drivers/STM32L0xx_HAL_Driver/Src/stm32l0xx_hal_rtc_ex.c **** 
 198:../../../../../../Drivers/STM32L0xx_HAL_Driver/Src/stm32l0xx_hal_rtc_ex.c ****   /* Change RTC state */
 199:../../../../../../Drivers/STM32L0xx_HAL_Driver/Src/stm32l0xx_hal_rtc_ex.c ****   hrtc->State = HAL_RTC_STATE_READY; 
  77              		.loc 1 199 0 discriminator 2
  78 0032 0123     		movs	r3, #1
  79 0034 4355     		strb	r3, [r0, r5]
 200:../../../../../../Drivers/STM32L0xx_HAL_Driver/Src/stm32l0xx_hal_rtc_ex.c **** 
 201:../../../../../../Drivers/STM32L0xx_HAL_Driver/Src/stm32l0xx_hal_rtc_ex.c ****   /* Process Unlocked */ 
 202:../../../../../../Drivers/STM32L0xx_HAL_Driver/Src/stm32l0xx_hal_rtc_ex.c ****   __HAL_UNLOCK(hrtc);
  80              		.loc 1 202 0 discriminator 2
  81 0036 0023     		movs	r3, #0
  82 0038 0355     		strb	r3, [r0, r4]
ARM GAS  C:\Users\EBANO_~1\AppData\Local\Temp\ccyPWgHX.s 			page 6


 203:../../../../../../Drivers/STM32L0xx_HAL_Driver/Src/stm32l0xx_hal_rtc_ex.c **** 
 204:../../../../../../Drivers/STM32L0xx_HAL_Driver/Src/stm32l0xx_hal_rtc_ex.c ****   return HAL_OK;
  83              		.loc 1 204 0 discriminator 2
  84 003a 0020     		movs	r0, #0
  85              	.LVL6:
  86              	.L2:
 205:../../../../../../Drivers/STM32L0xx_HAL_Driver/Src/stm32l0xx_hal_rtc_ex.c **** }
  87              		.loc 1 205 0
  88              		@ sp needed
  89 003c 70BD     		pop	{r4, r5, r6, pc}
  90              	.LVL7:
  91              	.L3:
 178:../../../../../../Drivers/STM32L0xx_HAL_Driver/Src/stm32l0xx_hal_rtc_ex.c **** 
  92              		.loc 1 178 0
  93 003e 0220     		movs	r0, #2
  94              	.LVL8:
  95 0040 FCE7     		b	.L2
  96              	.L6:
  97 0042 C046     		.align	2
  98              	.L5:
  99 0044 F7F7FFFF 		.word	-2057
 100              		.cfi_endproc
 101              	.LFE39:
 102              		.size	HAL_RTCEx_SetTimeStamp, .-HAL_RTCEx_SetTimeStamp
 103              		.section	.text.HAL_RTCEx_SetTimeStamp_IT,"ax",%progbits
 104              		.align	1
 105              		.p2align 2,,3
 106              		.global	HAL_RTCEx_SetTimeStamp_IT
 107              		.syntax unified
 108              		.code	16
 109              		.thumb_func
 110              		.fpu softvfp
 111              		.type	HAL_RTCEx_SetTimeStamp_IT, %function
 112              	HAL_RTCEx_SetTimeStamp_IT:
 113              	.LFB40:
 206:../../../../../../Drivers/STM32L0xx_HAL_Driver/Src/stm32l0xx_hal_rtc_ex.c **** 
 207:../../../../../../Drivers/STM32L0xx_HAL_Driver/Src/stm32l0xx_hal_rtc_ex.c **** /**
 208:../../../../../../Drivers/STM32L0xx_HAL_Driver/Src/stm32l0xx_hal_rtc_ex.c ****   * @brief  Set TimeStamp with Interrupt.
 209:../../../../../../Drivers/STM32L0xx_HAL_Driver/Src/stm32l0xx_hal_rtc_ex.c ****   * @param  hrtc RTC handle
 210:../../../../../../Drivers/STM32L0xx_HAL_Driver/Src/stm32l0xx_hal_rtc_ex.c ****   * @note   This API must be called before enabling the TimeStamp feature.
 211:../../../../../../Drivers/STM32L0xx_HAL_Driver/Src/stm32l0xx_hal_rtc_ex.c ****   * @param  TimeStampEdge Specifies the pin edge on which the TimeStamp is
 212:../../../../../../Drivers/STM32L0xx_HAL_Driver/Src/stm32l0xx_hal_rtc_ex.c ****   *         activated.
 213:../../../../../../Drivers/STM32L0xx_HAL_Driver/Src/stm32l0xx_hal_rtc_ex.c ****   *          This parameter can be one of the following values:
 214:../../../../../../Drivers/STM32L0xx_HAL_Driver/Src/stm32l0xx_hal_rtc_ex.c ****   *             @arg RTC_TIMESTAMPEDGE_RISING: the Time stamp event occurs on the  
 215:../../../../../../Drivers/STM32L0xx_HAL_Driver/Src/stm32l0xx_hal_rtc_ex.c ****   *                                        rising edge of the related pin.
 216:../../../../../../Drivers/STM32L0xx_HAL_Driver/Src/stm32l0xx_hal_rtc_ex.c ****   *             @arg RTC_TIMESTAMPEDGE_FALLING: the Time stamp event occurs on the 
 217:../../../../../../Drivers/STM32L0xx_HAL_Driver/Src/stm32l0xx_hal_rtc_ex.c ****   *                                         falling edge of the related pin.
 218:../../../../../../Drivers/STM32L0xx_HAL_Driver/Src/stm32l0xx_hal_rtc_ex.c ****   * @param  RTC_TimeStampPin Specifies the RTC TimeStamp Pin.
 219:../../../../../../Drivers/STM32L0xx_HAL_Driver/Src/stm32l0xx_hal_rtc_ex.c ****   *          This parameter can be one of the following values:
 220:../../../../../../Drivers/STM32L0xx_HAL_Driver/Src/stm32l0xx_hal_rtc_ex.c ****   *             @arg RTC_TIMESTAMPPIN_DEFAULT: PC13 is selected as RTC TimeStamp Pin on STM32L05x/6
 221:../../../../../../Drivers/STM32L0xx_HAL_Driver/Src/stm32l0xx_hal_rtc_ex.c ****   *                                            and PA2 on STM32L03x/4x/2x/1x.
 222:../../../../../../Drivers/STM32L0xx_HAL_Driver/Src/stm32l0xx_hal_rtc_ex.c ****   * @retval HAL status
 223:../../../../../../Drivers/STM32L0xx_HAL_Driver/Src/stm32l0xx_hal_rtc_ex.c ****   */
 224:../../../../../../Drivers/STM32L0xx_HAL_Driver/Src/stm32l0xx_hal_rtc_ex.c **** HAL_StatusTypeDef HAL_RTCEx_SetTimeStamp_IT(RTC_HandleTypeDef *hrtc, uint32_t TimeStampEdge, uint32
 225:../../../../../../Drivers/STM32L0xx_HAL_Driver/Src/stm32l0xx_hal_rtc_ex.c **** {
 114              		.loc 1 225 0
 115              		.cfi_startproc
ARM GAS  C:\Users\EBANO_~1\AppData\Local\Temp\ccyPWgHX.s 			page 7


 116              		@ args = 0, pretend = 0, frame = 0
 117              		@ frame_needed = 0, uses_anonymous_args = 0
 118              	.LVL9:
 119 0000 70B5     		push	{r4, r5, r6, lr}
 120              	.LCFI1:
 121              		.cfi_def_cfa_offset 16
 122              		.cfi_offset 4, -16
 123              		.cfi_offset 5, -12
 124              		.cfi_offset 6, -8
 125              		.cfi_offset 14, -4
 226:../../../../../../Drivers/STM32L0xx_HAL_Driver/Src/stm32l0xx_hal_rtc_ex.c ****   uint32_t tmpreg = 0U;
 227:../../../../../../Drivers/STM32L0xx_HAL_Driver/Src/stm32l0xx_hal_rtc_ex.c **** 
 228:../../../../../../Drivers/STM32L0xx_HAL_Driver/Src/stm32l0xx_hal_rtc_ex.c ****   /* Check the parameters */
 229:../../../../../../Drivers/STM32L0xx_HAL_Driver/Src/stm32l0xx_hal_rtc_ex.c ****   assert_param(IS_TIMESTAMP_EDGE(TimeStampEdge));
 230:../../../../../../Drivers/STM32L0xx_HAL_Driver/Src/stm32l0xx_hal_rtc_ex.c ****   assert_param(IS_RTC_TIMESTAMP_PIN(RTC_TimeStampPin));
 231:../../../../../../Drivers/STM32L0xx_HAL_Driver/Src/stm32l0xx_hal_rtc_ex.c **** 
 232:../../../../../../Drivers/STM32L0xx_HAL_Driver/Src/stm32l0xx_hal_rtc_ex.c ****   /* Process Locked */ 
 233:../../../../../../Drivers/STM32L0xx_HAL_Driver/Src/stm32l0xx_hal_rtc_ex.c ****   __HAL_LOCK(hrtc);
 126              		.loc 1 233 0
 127 0002 2025     		movs	r5, #32
 128 0004 435D     		ldrb	r3, [r0, r5]
 129 0006 012B     		cmp	r3, #1
 130 0008 27D0     		beq	.L9
 234:../../../../../../Drivers/STM32L0xx_HAL_Driver/Src/stm32l0xx_hal_rtc_ex.c **** 
 235:../../../../../../Drivers/STM32L0xx_HAL_Driver/Src/stm32l0xx_hal_rtc_ex.c ****   hrtc->State = HAL_RTC_STATE_BUSY;
 131              		.loc 1 235 0 discriminator 2
 132 000a 2126     		movs	r6, #33
 133 000c 0223     		movs	r3, #2
 134 000e 8355     		strb	r3, [r0, r6]
 236:../../../../../../Drivers/STM32L0xx_HAL_Driver/Src/stm32l0xx_hal_rtc_ex.c **** 
 237:../../../../../../Drivers/STM32L0xx_HAL_Driver/Src/stm32l0xx_hal_rtc_ex.c ****   /* Get the RTC_CR register and clear the bits to be configured */
 238:../../../../../../Drivers/STM32L0xx_HAL_Driver/Src/stm32l0xx_hal_rtc_ex.c ****   tmpreg = (uint32_t)(hrtc->Instance->CR & (uint32_t)~(RTC_CR_TSEDGE | RTC_CR_TSE));
 135              		.loc 1 238 0 discriminator 2
 136 0010 0368     		ldr	r3, [r0]
 137 0012 134C     		ldr	r4, .L10
 138 0014 9A68     		ldr	r2, [r3, #8]
 139              	.LVL10:
 140 0016 2240     		ands	r2, r4
 141              	.LVL11:
 239:../../../../../../Drivers/STM32L0xx_HAL_Driver/Src/stm32l0xx_hal_rtc_ex.c **** 
 240:../../../../../../Drivers/STM32L0xx_HAL_Driver/Src/stm32l0xx_hal_rtc_ex.c ****   tmpreg |= TimeStampEdge;
 142              		.loc 1 240 0 discriminator 2
 143 0018 1143     		orrs	r1, r2
 144              	.LVL12:
 241:../../../../../../Drivers/STM32L0xx_HAL_Driver/Src/stm32l0xx_hal_rtc_ex.c **** 
 242:../../../../../../Drivers/STM32L0xx_HAL_Driver/Src/stm32l0xx_hal_rtc_ex.c ****   /* Disable the write protection for RTC registers */
 243:../../../../../../Drivers/STM32L0xx_HAL_Driver/Src/stm32l0xx_hal_rtc_ex.c ****   __HAL_RTC_WRITEPROTECTION_DISABLE(hrtc);
 145              		.loc 1 243 0 discriminator 2
 146 001a CA22     		movs	r2, #202
 147 001c 5A62     		str	r2, [r3, #36]
 148 001e 773A     		subs	r2, r2, #119
 149 0020 5A62     		str	r2, [r3, #36]
 244:../../../../../../Drivers/STM32L0xx_HAL_Driver/Src/stm32l0xx_hal_rtc_ex.c **** 
 245:../../../../../../Drivers/STM32L0xx_HAL_Driver/Src/stm32l0xx_hal_rtc_ex.c ****   /* Configure the Time Stamp TSEDGE and Enable bits */
 246:../../../../../../Drivers/STM32L0xx_HAL_Driver/Src/stm32l0xx_hal_rtc_ex.c ****   hrtc->Instance->CR = (uint32_t)tmpreg;
 247:../../../../../../Drivers/STM32L0xx_HAL_Driver/Src/stm32l0xx_hal_rtc_ex.c **** 
 248:../../../../../../Drivers/STM32L0xx_HAL_Driver/Src/stm32l0xx_hal_rtc_ex.c ****   __HAL_RTC_TIMESTAMP_ENABLE(hrtc);
ARM GAS  C:\Users\EBANO_~1\AppData\Local\Temp\ccyPWgHX.s 			page 8


 150              		.loc 1 248 0 discriminator 2
 151 0022 8022     		movs	r2, #128
 246:../../../../../../Drivers/STM32L0xx_HAL_Driver/Src/stm32l0xx_hal_rtc_ex.c **** 
 152              		.loc 1 246 0 discriminator 2
 153 0024 9960     		str	r1, [r3, #8]
 154              		.loc 1 248 0 discriminator 2
 155 0026 9968     		ldr	r1, [r3, #8]
 156              	.LVL13:
 157 0028 1201     		lsls	r2, r2, #4
 158 002a 0A43     		orrs	r2, r1
 159 002c 9A60     		str	r2, [r3, #8]
 160              	.LVL14:
 249:../../../../../../Drivers/STM32L0xx_HAL_Driver/Src/stm32l0xx_hal_rtc_ex.c **** 
 250:../../../../../../Drivers/STM32L0xx_HAL_Driver/Src/stm32l0xx_hal_rtc_ex.c ****   /* Enable IT timestamp */
 251:../../../../../../Drivers/STM32L0xx_HAL_Driver/Src/stm32l0xx_hal_rtc_ex.c ****   __HAL_RTC_TIMESTAMP_ENABLE_IT(hrtc,RTC_IT_TS);
 161              		.loc 1 251 0 discriminator 2
 162 002e 8022     		movs	r2, #128
 163 0030 9968     		ldr	r1, [r3, #8]
 164 0032 1202     		lsls	r2, r2, #8
 165 0034 0A43     		orrs	r2, r1
 252:../../../../../../Drivers/STM32L0xx_HAL_Driver/Src/stm32l0xx_hal_rtc_ex.c **** 
 253:../../../../../../Drivers/STM32L0xx_HAL_Driver/Src/stm32l0xx_hal_rtc_ex.c ****   /* RTC timestamp Interrupt Configuration: EXTI configuration */
 254:../../../../../../Drivers/STM32L0xx_HAL_Driver/Src/stm32l0xx_hal_rtc_ex.c ****   __HAL_RTC_TAMPER_TIMESTAMP_EXTI_ENABLE_IT();
 166              		.loc 1 254 0 discriminator 2
 167 0036 8021     		movs	r1, #128
 251:../../../../../../Drivers/STM32L0xx_HAL_Driver/Src/stm32l0xx_hal_rtc_ex.c **** 
 168              		.loc 1 251 0 discriminator 2
 169 0038 9A60     		str	r2, [r3, #8]
 170              		.loc 1 254 0 discriminator 2
 171 003a 0A4A     		ldr	r2, .L10+4
 172 003c 0903     		lsls	r1, r1, #12
 173 003e 1468     		ldr	r4, [r2]
 174 0040 0C43     		orrs	r4, r1
 175 0042 1460     		str	r4, [r2]
 255:../../../../../../Drivers/STM32L0xx_HAL_Driver/Src/stm32l0xx_hal_rtc_ex.c **** 
 256:../../../../../../Drivers/STM32L0xx_HAL_Driver/Src/stm32l0xx_hal_rtc_ex.c ****   __HAL_RTC_TAMPER_TIMESTAMP_EXTI_ENABLE_RISING_EDGE();
 176              		.loc 1 256 0 discriminator 2
 177 0044 9468     		ldr	r4, [r2, #8]
 178 0046 2143     		orrs	r1, r4
 179 0048 9160     		str	r1, [r2, #8]
 257:../../../../../../Drivers/STM32L0xx_HAL_Driver/Src/stm32l0xx_hal_rtc_ex.c **** 
 258:../../../../../../Drivers/STM32L0xx_HAL_Driver/Src/stm32l0xx_hal_rtc_ex.c ****   /* Enable the write protection for RTC registers */
 259:../../../../../../Drivers/STM32L0xx_HAL_Driver/Src/stm32l0xx_hal_rtc_ex.c ****   __HAL_RTC_WRITEPROTECTION_ENABLE(hrtc);
 180              		.loc 1 259 0 discriminator 2
 181 004a FF22     		movs	r2, #255
 182 004c 5A62     		str	r2, [r3, #36]
 260:../../../../../../Drivers/STM32L0xx_HAL_Driver/Src/stm32l0xx_hal_rtc_ex.c **** 
 261:../../../../../../Drivers/STM32L0xx_HAL_Driver/Src/stm32l0xx_hal_rtc_ex.c ****   hrtc->State = HAL_RTC_STATE_READY;
 183              		.loc 1 261 0 discriminator 2
 184 004e 0123     		movs	r3, #1
 185 0050 8355     		strb	r3, [r0, r6]
 262:../../../../../../Drivers/STM32L0xx_HAL_Driver/Src/stm32l0xx_hal_rtc_ex.c **** 
 263:../../../../../../Drivers/STM32L0xx_HAL_Driver/Src/stm32l0xx_hal_rtc_ex.c ****   /* Process Unlocked */
 264:../../../../../../Drivers/STM32L0xx_HAL_Driver/Src/stm32l0xx_hal_rtc_ex.c ****   __HAL_UNLOCK(hrtc);
 186              		.loc 1 264 0 discriminator 2
 187 0052 0023     		movs	r3, #0
 188 0054 4355     		strb	r3, [r0, r5]
ARM GAS  C:\Users\EBANO_~1\AppData\Local\Temp\ccyPWgHX.s 			page 9


 265:../../../../../../Drivers/STM32L0xx_HAL_Driver/Src/stm32l0xx_hal_rtc_ex.c **** 
 266:../../../../../../Drivers/STM32L0xx_HAL_Driver/Src/stm32l0xx_hal_rtc_ex.c ****   return HAL_OK;
 189              		.loc 1 266 0 discriminator 2
 190 0056 0020     		movs	r0, #0
 191              	.LVL15:
 192              	.L8:
 267:../../../../../../Drivers/STM32L0xx_HAL_Driver/Src/stm32l0xx_hal_rtc_ex.c **** }
 193              		.loc 1 267 0
 194              		@ sp needed
 195 0058 70BD     		pop	{r4, r5, r6, pc}
 196              	.LVL16:
 197              	.L9:
 233:../../../../../../Drivers/STM32L0xx_HAL_Driver/Src/stm32l0xx_hal_rtc_ex.c **** 
 198              		.loc 1 233 0
 199 005a 0220     		movs	r0, #2
 200              	.LVL17:
 201 005c FCE7     		b	.L8
 202              	.L11:
 203 005e C046     		.align	2
 204              	.L10:
 205 0060 F7F7FFFF 		.word	-2057
 206 0064 00040140 		.word	1073808384
 207              		.cfi_endproc
 208              	.LFE40:
 209              		.size	HAL_RTCEx_SetTimeStamp_IT, .-HAL_RTCEx_SetTimeStamp_IT
 210              		.section	.text.HAL_RTCEx_DeactivateTimeStamp,"ax",%progbits
 211              		.align	1
 212              		.p2align 2,,3
 213              		.global	HAL_RTCEx_DeactivateTimeStamp
 214              		.syntax unified
 215              		.code	16
 216              		.thumb_func
 217              		.fpu softvfp
 218              		.type	HAL_RTCEx_DeactivateTimeStamp, %function
 219              	HAL_RTCEx_DeactivateTimeStamp:
 220              	.LFB41:
 268:../../../../../../Drivers/STM32L0xx_HAL_Driver/Src/stm32l0xx_hal_rtc_ex.c **** 
 269:../../../../../../Drivers/STM32L0xx_HAL_Driver/Src/stm32l0xx_hal_rtc_ex.c **** /**
 270:../../../../../../Drivers/STM32L0xx_HAL_Driver/Src/stm32l0xx_hal_rtc_ex.c ****   * @brief  Deactivate TimeStamp.
 271:../../../../../../Drivers/STM32L0xx_HAL_Driver/Src/stm32l0xx_hal_rtc_ex.c ****   * @param  hrtc RTC handle
 272:../../../../../../Drivers/STM32L0xx_HAL_Driver/Src/stm32l0xx_hal_rtc_ex.c ****   * @retval HAL status
 273:../../../../../../Drivers/STM32L0xx_HAL_Driver/Src/stm32l0xx_hal_rtc_ex.c ****   */
 274:../../../../../../Drivers/STM32L0xx_HAL_Driver/Src/stm32l0xx_hal_rtc_ex.c **** HAL_StatusTypeDef HAL_RTCEx_DeactivateTimeStamp(RTC_HandleTypeDef *hrtc)
 275:../../../../../../Drivers/STM32L0xx_HAL_Driver/Src/stm32l0xx_hal_rtc_ex.c **** {
 221              		.loc 1 275 0
 222              		.cfi_startproc
 223              		@ args = 0, pretend = 0, frame = 0
 224              		@ frame_needed = 0, uses_anonymous_args = 0
 225              	.LVL18:
 276:../../../../../../Drivers/STM32L0xx_HAL_Driver/Src/stm32l0xx_hal_rtc_ex.c ****   uint32_t tmpreg = 0U;
 277:../../../../../../Drivers/STM32L0xx_HAL_Driver/Src/stm32l0xx_hal_rtc_ex.c **** 
 278:../../../../../../Drivers/STM32L0xx_HAL_Driver/Src/stm32l0xx_hal_rtc_ex.c ****   /* Process Locked */
 279:../../../../../../Drivers/STM32L0xx_HAL_Driver/Src/stm32l0xx_hal_rtc_ex.c ****   __HAL_LOCK(hrtc);
 226              		.loc 1 279 0
 227 0000 2021     		movs	r1, #32
 275:../../../../../../Drivers/STM32L0xx_HAL_Driver/Src/stm32l0xx_hal_rtc_ex.c ****   uint32_t tmpreg = 0U;
 228              		.loc 1 275 0
ARM GAS  C:\Users\EBANO_~1\AppData\Local\Temp\ccyPWgHX.s 			page 10


 229 0002 30B5     		push	{r4, r5, lr}
 230              	.LCFI2:
 231              		.cfi_def_cfa_offset 12
 232              		.cfi_offset 4, -12
 233              		.cfi_offset 5, -8
 234              		.cfi_offset 14, -4
 235              		.loc 1 279 0
 236 0004 435C     		ldrb	r3, [r0, r1]
 237 0006 012B     		cmp	r3, #1
 238 0008 17D0     		beq	.L14
 280:../../../../../../Drivers/STM32L0xx_HAL_Driver/Src/stm32l0xx_hal_rtc_ex.c **** 
 281:../../../../../../Drivers/STM32L0xx_HAL_Driver/Src/stm32l0xx_hal_rtc_ex.c ****   hrtc->State = HAL_RTC_STATE_BUSY;
 239              		.loc 1 281 0 discriminator 2
 240 000a 2124     		movs	r4, #33
 241 000c 0223     		movs	r3, #2
 282:../../../../../../Drivers/STM32L0xx_HAL_Driver/Src/stm32l0xx_hal_rtc_ex.c **** 
 283:../../../../../../Drivers/STM32L0xx_HAL_Driver/Src/stm32l0xx_hal_rtc_ex.c ****   /* Disable the write protection for RTC registers */
 284:../../../../../../Drivers/STM32L0xx_HAL_Driver/Src/stm32l0xx_hal_rtc_ex.c ****   __HAL_RTC_WRITEPROTECTION_DISABLE(hrtc);
 242              		.loc 1 284 0 discriminator 2
 243 000e CA22     		movs	r2, #202
 281:../../../../../../Drivers/STM32L0xx_HAL_Driver/Src/stm32l0xx_hal_rtc_ex.c **** 
 244              		.loc 1 281 0 discriminator 2
 245 0010 0355     		strb	r3, [r0, r4]
 246              		.loc 1 284 0 discriminator 2
 247 0012 0368     		ldr	r3, [r0]
 285:../../../../../../Drivers/STM32L0xx_HAL_Driver/Src/stm32l0xx_hal_rtc_ex.c **** 
 286:../../../../../../Drivers/STM32L0xx_HAL_Driver/Src/stm32l0xx_hal_rtc_ex.c ****   /* In case of interrupt mode is used, the interrupt source must disabled */
 287:../../../../../../Drivers/STM32L0xx_HAL_Driver/Src/stm32l0xx_hal_rtc_ex.c ****   __HAL_RTC_TIMESTAMP_DISABLE_IT(hrtc, RTC_IT_TS);
 248              		.loc 1 287 0 discriminator 2
 249 0014 0A4D     		ldr	r5, .L15
 284:../../../../../../Drivers/STM32L0xx_HAL_Driver/Src/stm32l0xx_hal_rtc_ex.c **** 
 250              		.loc 1 284 0 discriminator 2
 251 0016 5A62     		str	r2, [r3, #36]
 252 0018 773A     		subs	r2, r2, #119
 253 001a 5A62     		str	r2, [r3, #36]
 254              		.loc 1 287 0 discriminator 2
 255 001c 9A68     		ldr	r2, [r3, #8]
 256 001e 2A40     		ands	r2, r5
 257 0020 9A60     		str	r2, [r3, #8]
 288:../../../../../../Drivers/STM32L0xx_HAL_Driver/Src/stm32l0xx_hal_rtc_ex.c **** 
 289:../../../../../../Drivers/STM32L0xx_HAL_Driver/Src/stm32l0xx_hal_rtc_ex.c ****   /* Get the RTC_CR register and clear the bits to be configured */
 290:../../../../../../Drivers/STM32L0xx_HAL_Driver/Src/stm32l0xx_hal_rtc_ex.c ****   tmpreg = (uint32_t)(hrtc->Instance->CR & (uint32_t)~(RTC_CR_TSEDGE | RTC_CR_TSE));
 258              		.loc 1 290 0 discriminator 2
 259 0022 9A68     		ldr	r2, [r3, #8]
 260 0024 074D     		ldr	r5, .L15+4
 261 0026 2A40     		ands	r2, r5
 262              	.LVL19:
 291:../../../../../../Drivers/STM32L0xx_HAL_Driver/Src/stm32l0xx_hal_rtc_ex.c **** 
 292:../../../../../../Drivers/STM32L0xx_HAL_Driver/Src/stm32l0xx_hal_rtc_ex.c ****   /* Configure the Time Stamp TSEDGE and Enable bits */
 293:../../../../../../Drivers/STM32L0xx_HAL_Driver/Src/stm32l0xx_hal_rtc_ex.c ****   hrtc->Instance->CR = (uint32_t)tmpreg;
 263              		.loc 1 293 0 discriminator 2
 264 0028 9A60     		str	r2, [r3, #8]
 294:../../../../../../Drivers/STM32L0xx_HAL_Driver/Src/stm32l0xx_hal_rtc_ex.c **** 
 295:../../../../../../Drivers/STM32L0xx_HAL_Driver/Src/stm32l0xx_hal_rtc_ex.c ****   /* Enable the write protection for RTC registers */
 296:../../../../../../Drivers/STM32L0xx_HAL_Driver/Src/stm32l0xx_hal_rtc_ex.c ****   __HAL_RTC_WRITEPROTECTION_ENABLE(hrtc);
 265              		.loc 1 296 0 discriminator 2
 266 002a FF22     		movs	r2, #255
ARM GAS  C:\Users\EBANO_~1\AppData\Local\Temp\ccyPWgHX.s 			page 11


 267              	.LVL20:
 268 002c 5A62     		str	r2, [r3, #36]
 269              	.LVL21:
 297:../../../../../../Drivers/STM32L0xx_HAL_Driver/Src/stm32l0xx_hal_rtc_ex.c **** 
 298:../../../../../../Drivers/STM32L0xx_HAL_Driver/Src/stm32l0xx_hal_rtc_ex.c ****   hrtc->State = HAL_RTC_STATE_READY;
 270              		.loc 1 298 0 discriminator 2
 271 002e 0123     		movs	r3, #1
 272 0030 0355     		strb	r3, [r0, r4]
 299:../../../../../../Drivers/STM32L0xx_HAL_Driver/Src/stm32l0xx_hal_rtc_ex.c **** 
 300:../../../../../../Drivers/STM32L0xx_HAL_Driver/Src/stm32l0xx_hal_rtc_ex.c ****   /* Process Unlocked */
 301:../../../../../../Drivers/STM32L0xx_HAL_Driver/Src/stm32l0xx_hal_rtc_ex.c ****   __HAL_UNLOCK(hrtc);
 273              		.loc 1 301 0 discriminator 2
 274 0032 0023     		movs	r3, #0
 275 0034 4354     		strb	r3, [r0, r1]
 302:../../../../../../Drivers/STM32L0xx_HAL_Driver/Src/stm32l0xx_hal_rtc_ex.c **** 
 303:../../../../../../Drivers/STM32L0xx_HAL_Driver/Src/stm32l0xx_hal_rtc_ex.c ****   return HAL_OK;
 276              		.loc 1 303 0 discriminator 2
 277 0036 0020     		movs	r0, #0
 278              	.LVL22:
 279              	.L13:
 304:../../../../../../Drivers/STM32L0xx_HAL_Driver/Src/stm32l0xx_hal_rtc_ex.c **** }
 280              		.loc 1 304 0
 281              		@ sp needed
 282 0038 30BD     		pop	{r4, r5, pc}
 283              	.LVL23:
 284              	.L14:
 279:../../../../../../Drivers/STM32L0xx_HAL_Driver/Src/stm32l0xx_hal_rtc_ex.c **** 
 285              		.loc 1 279 0
 286 003a 0220     		movs	r0, #2
 287              	.LVL24:
 288 003c FCE7     		b	.L13
 289              	.L16:
 290 003e C046     		.align	2
 291              	.L15:
 292 0040 FF7FFFFF 		.word	-32769
 293 0044 F7F7FFFF 		.word	-2057
 294              		.cfi_endproc
 295              	.LFE41:
 296              		.size	HAL_RTCEx_DeactivateTimeStamp, .-HAL_RTCEx_DeactivateTimeStamp
 297              		.section	.text.HAL_RTCEx_GetTimeStamp,"ax",%progbits
 298              		.align	1
 299              		.p2align 2,,3
 300              		.global	HAL_RTCEx_GetTimeStamp
 301              		.syntax unified
 302              		.code	16
 303              		.thumb_func
 304              		.fpu softvfp
 305              		.type	HAL_RTCEx_GetTimeStamp, %function
 306              	HAL_RTCEx_GetTimeStamp:
 307              	.LFB42:
 305:../../../../../../Drivers/STM32L0xx_HAL_Driver/Src/stm32l0xx_hal_rtc_ex.c **** 
 306:../../../../../../Drivers/STM32L0xx_HAL_Driver/Src/stm32l0xx_hal_rtc_ex.c **** /**
 307:../../../../../../Drivers/STM32L0xx_HAL_Driver/Src/stm32l0xx_hal_rtc_ex.c ****   * @brief  Get the RTC TimeStamp value.
 308:../../../../../../Drivers/STM32L0xx_HAL_Driver/Src/stm32l0xx_hal_rtc_ex.c ****   * @param  hrtc RTC handle
 309:../../../../../../Drivers/STM32L0xx_HAL_Driver/Src/stm32l0xx_hal_rtc_ex.c **** 
 310:../../../../../../Drivers/STM32L0xx_HAL_Driver/Src/stm32l0xx_hal_rtc_ex.c ****   * @param  sTimeStamp Pointer to Time structure
 311:../../../../../../Drivers/STM32L0xx_HAL_Driver/Src/stm32l0xx_hal_rtc_ex.c ****   * @param  sTimeStampDate Pointer to Date structure  
ARM GAS  C:\Users\EBANO_~1\AppData\Local\Temp\ccyPWgHX.s 			page 12


 312:../../../../../../Drivers/STM32L0xx_HAL_Driver/Src/stm32l0xx_hal_rtc_ex.c ****   * @param  Format specifies the format of the entered parameters.
 313:../../../../../../Drivers/STM32L0xx_HAL_Driver/Src/stm32l0xx_hal_rtc_ex.c ****   *          This parameter can be one of the following values:
 314:../../../../../../Drivers/STM32L0xx_HAL_Driver/Src/stm32l0xx_hal_rtc_ex.c ****   *             @arg RTC_FORMAT_BIN: Binary data format 
 315:../../../../../../Drivers/STM32L0xx_HAL_Driver/Src/stm32l0xx_hal_rtc_ex.c ****   *             @arg RTC_FORMAT_BCD: BCD data format
 316:../../../../../../Drivers/STM32L0xx_HAL_Driver/Src/stm32l0xx_hal_rtc_ex.c ****   * @retval HAL status
 317:../../../../../../Drivers/STM32L0xx_HAL_Driver/Src/stm32l0xx_hal_rtc_ex.c ****   */
 318:../../../../../../Drivers/STM32L0xx_HAL_Driver/Src/stm32l0xx_hal_rtc_ex.c **** HAL_StatusTypeDef HAL_RTCEx_GetTimeStamp(RTC_HandleTypeDef *hrtc, RTC_TimeTypeDef* sTimeStamp, RTC_
 319:../../../../../../Drivers/STM32L0xx_HAL_Driver/Src/stm32l0xx_hal_rtc_ex.c **** {
 308              		.loc 1 319 0
 309              		.cfi_startproc
 310              		@ args = 0, pretend = 0, frame = 0
 311              		@ frame_needed = 0, uses_anonymous_args = 0
 312              	.LVL25:
 313 0000 F8B5     		push	{r3, r4, r5, r6, r7, lr}
 314              	.LCFI3:
 315              		.cfi_def_cfa_offset 24
 316              		.cfi_offset 3, -24
 317              		.cfi_offset 4, -20
 318              		.cfi_offset 5, -16
 319              		.cfi_offset 6, -12
 320              		.cfi_offset 7, -8
 321              		.cfi_offset 14, -4
 322 0002 CE46     		mov	lr, r9
 323 0004 4746     		mov	r7, r8
 324 0006 0C00     		movs	r4, r1
 320:../../../../../../Drivers/STM32L0xx_HAL_Driver/Src/stm32l0xx_hal_rtc_ex.c ****   uint32_t tmptime = 0U, tmpdate = 0U;
 321:../../../../../../Drivers/STM32L0xx_HAL_Driver/Src/stm32l0xx_hal_rtc_ex.c **** 
 322:../../../../../../Drivers/STM32L0xx_HAL_Driver/Src/stm32l0xx_hal_rtc_ex.c ****   /* Check the parameters */
 323:../../../../../../Drivers/STM32L0xx_HAL_Driver/Src/stm32l0xx_hal_rtc_ex.c ****   assert_param(IS_RTC_FORMAT(Format));
 324:../../../../../../Drivers/STM32L0xx_HAL_Driver/Src/stm32l0xx_hal_rtc_ex.c **** 
 325:../../../../../../Drivers/STM32L0xx_HAL_Driver/Src/stm32l0xx_hal_rtc_ex.c ****   /* Get the TimeStamp time and date registers values */
 326:../../../../../../Drivers/STM32L0xx_HAL_Driver/Src/stm32l0xx_hal_rtc_ex.c ****   tmptime = (uint32_t)(hrtc->Instance->TSTR & RTC_TR_RESERVED_MASK);
 325              		.loc 1 326 0
 326 0008 0168     		ldr	r1, [r0]
 327              	.LVL26:
 319:../../../../../../Drivers/STM32L0xx_HAL_Driver/Src/stm32l0xx_hal_rtc_ex.c ****   uint32_t tmptime = 0U, tmpdate = 0U;
 328              		.loc 1 319 0
 329 000a 1500     		movs	r5, r2
 330              		.loc 1 326 0
 331 000c 0E6B     		ldr	r6, [r1, #48]
 332 000e 234A     		ldr	r2, .L19
 333              	.LVL27:
 319:../../../../../../Drivers/STM32L0xx_HAL_Driver/Src/stm32l0xx_hal_rtc_ex.c ****   uint32_t tmptime = 0U, tmpdate = 0U;
 334              		.loc 1 319 0
 335 0010 80B5     		push	{r7, lr}
 336              	.LCFI4:
 337              		.cfi_def_cfa_offset 32
 338              		.cfi_offset 8, -32
 339              		.cfi_offset 9, -28
 340              		.loc 1 326 0
 341 0012 1640     		ands	r6, r2
 342              	.LVL28:
 319:../../../../../../Drivers/STM32L0xx_HAL_Driver/Src/stm32l0xx_hal_rtc_ex.c ****   uint32_t tmptime = 0U, tmpdate = 0U;
 343              		.loc 1 319 0
 344 0014 0700     		movs	r7, r0
 327:../../../../../../Drivers/STM32L0xx_HAL_Driver/Src/stm32l0xx_hal_rtc_ex.c ****   tmpdate = (uint32_t)(hrtc->Instance->TSDR & RTC_DR_RESERVED_MASK);
 345              		.loc 1 327 0
ARM GAS  C:\Users\EBANO_~1\AppData\Local\Temp\ccyPWgHX.s 			page 13


 346 0016 224A     		ldr	r2, .L19+4
 347 0018 486B     		ldr	r0, [r1, #52]
 348              	.LVL29:
 319:../../../../../../Drivers/STM32L0xx_HAL_Driver/Src/stm32l0xx_hal_rtc_ex.c ****   uint32_t tmptime = 0U, tmpdate = 0U;
 349              		.loc 1 319 0
 350 001a 9946     		mov	r9, r3
 351              		.loc 1 327 0
 352 001c 0240     		ands	r2, r0
 353              	.LVL30:
 328:../../../../../../Drivers/STM32L0xx_HAL_Driver/Src/stm32l0xx_hal_rtc_ex.c **** 
 329:../../../../../../Drivers/STM32L0xx_HAL_Driver/Src/stm32l0xx_hal_rtc_ex.c ****   /* Fill the Time structure fields with the read parameters */
 330:../../../../../../Drivers/STM32L0xx_HAL_Driver/Src/stm32l0xx_hal_rtc_ex.c ****   sTimeStamp->Hours = (uint8_t)((tmptime & (RTC_TR_HT | RTC_TR_HU)) >> 16U);
 354              		.loc 1 330 0
 355 001e 300C     		lsrs	r0, r6, #16
 356 0020 8446     		mov	ip, r0
 357 0022 3F20     		movs	r0, #63
 358 0024 6346     		mov	r3, ip
 359              	.LVL31:
 360 0026 1840     		ands	r0, r3
 331:../../../../../../Drivers/STM32L0xx_HAL_Driver/Src/stm32l0xx_hal_rtc_ex.c ****   sTimeStamp->Minutes = (uint8_t)((tmptime & (RTC_TR_MNT | RTC_TR_MNU)) >> 8U);
 361              		.loc 1 331 0
 362 0028 330A     		lsrs	r3, r6, #8
 363 002a 6370     		strb	r3, [r4, #1]
 332:../../../../../../Drivers/STM32L0xx_HAL_Driver/Src/stm32l0xx_hal_rtc_ex.c ****   sTimeStamp->Seconds = (uint8_t)(tmptime & (RTC_TR_ST | RTC_TR_SU));
 364              		.loc 1 332 0
 365 002c A670     		strb	r6, [r4, #2]
 333:../../../../../../Drivers/STM32L0xx_HAL_Driver/Src/stm32l0xx_hal_rtc_ex.c ****   sTimeStamp->TimeFormat = (uint8_t)((tmptime & (RTC_TR_PM)) >> 16U);
 366              		.loc 1 333 0
 367 002e 6346     		mov	r3, ip
 368 0030 4026     		movs	r6, #64
 369              	.LVL32:
 370 0032 1E40     		ands	r6, r3
 330:../../../../../../Drivers/STM32L0xx_HAL_Driver/Src/stm32l0xx_hal_rtc_ex.c ****   sTimeStamp->Minutes = (uint8_t)((tmptime & (RTC_TR_MNT | RTC_TR_MNU)) >> 8U);
 371              		.loc 1 330 0
 372 0034 2070     		strb	r0, [r4]
 373              		.loc 1 333 0
 374 0036 E670     		strb	r6, [r4, #3]
 334:../../../../../../Drivers/STM32L0xx_HAL_Driver/Src/stm32l0xx_hal_rtc_ex.c ****   sTimeStamp->SubSeconds = (uint32_t) hrtc->Instance->TSSSR;
 375              		.loc 1 334 0
 376 0038 8E6B     		ldr	r6, [r1, #56]
 335:../../../../../../Drivers/STM32L0xx_HAL_Driver/Src/stm32l0xx_hal_rtc_ex.c **** 
 336:../../../../../../Drivers/STM32L0xx_HAL_Driver/Src/stm32l0xx_hal_rtc_ex.c ****   /* Fill the Date structure fields with the read parameters */
 337:../../../../../../Drivers/STM32L0xx_HAL_Driver/Src/stm32l0xx_hal_rtc_ex.c ****   sTimeStampDate->Year = 0U;
 338:../../../../../../Drivers/STM32L0xx_HAL_Driver/Src/stm32l0xx_hal_rtc_ex.c ****   sTimeStampDate->Month = (uint8_t)((tmpdate & (RTC_DR_MT | RTC_DR_MU)) >> 8U);
 339:../../../../../../Drivers/STM32L0xx_HAL_Driver/Src/stm32l0xx_hal_rtc_ex.c ****   sTimeStampDate->Date = (uint8_t)(tmpdate & (RTC_DR_DT | RTC_DR_DU));
 340:../../../../../../Drivers/STM32L0xx_HAL_Driver/Src/stm32l0xx_hal_rtc_ex.c ****   sTimeStampDate->WeekDay = (uint8_t)((tmpdate & (RTC_DR_WDU)) >> 13U);
 341:../../../../../../Drivers/STM32L0xx_HAL_Driver/Src/stm32l0xx_hal_rtc_ex.c **** 
 342:../../../../../../Drivers/STM32L0xx_HAL_Driver/Src/stm32l0xx_hal_rtc_ex.c ****   /* Check the input parameters format */
 343:../../../../../../Drivers/STM32L0xx_HAL_Driver/Src/stm32l0xx_hal_rtc_ex.c ****   if(Format == RTC_FORMAT_BIN)
 377              		.loc 1 343 0
 378 003a 4B46     		mov	r3, r9
 334:../../../../../../Drivers/STM32L0xx_HAL_Driver/Src/stm32l0xx_hal_rtc_ex.c ****   sTimeStamp->SubSeconds = (uint32_t) hrtc->Instance->TSSSR;
 379              		.loc 1 334 0
 380 003c 6660     		str	r6, [r4, #4]
 337:../../../../../../Drivers/STM32L0xx_HAL_Driver/Src/stm32l0xx_hal_rtc_ex.c ****   sTimeStampDate->Month = (uint8_t)((tmpdate & (RTC_DR_MT | RTC_DR_MU)) >> 8U);
 381              		.loc 1 337 0
 382 003e 0026     		movs	r6, #0
ARM GAS  C:\Users\EBANO_~1\AppData\Local\Temp\ccyPWgHX.s 			page 14


 339:../../../../../../Drivers/STM32L0xx_HAL_Driver/Src/stm32l0xx_hal_rtc_ex.c ****   sTimeStampDate->WeekDay = (uint8_t)((tmpdate & (RTC_DR_WDU)) >> 13U);
 383              		.loc 1 339 0
 384 0040 AA70     		strb	r2, [r5, #2]
 337:../../../../../../Drivers/STM32L0xx_HAL_Driver/Src/stm32l0xx_hal_rtc_ex.c ****   sTimeStampDate->Month = (uint8_t)((tmpdate & (RTC_DR_MT | RTC_DR_MU)) >> 8U);
 385              		.loc 1 337 0
 386 0042 EE70     		strb	r6, [r5, #3]
 338:../../../../../../Drivers/STM32L0xx_HAL_Driver/Src/stm32l0xx_hal_rtc_ex.c ****   sTimeStampDate->Date = (uint8_t)(tmpdate & (RTC_DR_DT | RTC_DR_DU));
 387              		.loc 1 338 0
 388 0044 D604     		lsls	r6, r2, #19
 340:../../../../../../Drivers/STM32L0xx_HAL_Driver/Src/stm32l0xx_hal_rtc_ex.c **** 
 389              		.loc 1 340 0
 390 0046 1204     		lsls	r2, r2, #16
 391              	.LVL33:
 338:../../../../../../Drivers/STM32L0xx_HAL_Driver/Src/stm32l0xx_hal_rtc_ex.c ****   sTimeStampDate->Date = (uint8_t)(tmpdate & (RTC_DR_DT | RTC_DR_DU));
 392              		.loc 1 338 0
 393 0048 F60E     		lsrs	r6, r6, #27
 340:../../../../../../Drivers/STM32L0xx_HAL_Driver/Src/stm32l0xx_hal_rtc_ex.c **** 
 394              		.loc 1 340 0
 395 004a 520F     		lsrs	r2, r2, #29
 338:../../../../../../Drivers/STM32L0xx_HAL_Driver/Src/stm32l0xx_hal_rtc_ex.c ****   sTimeStampDate->Date = (uint8_t)(tmpdate & (RTC_DR_DT | RTC_DR_DU));
 396              		.loc 1 338 0
 397 004c 6E70     		strb	r6, [r5, #1]
 340:../../../../../../Drivers/STM32L0xx_HAL_Driver/Src/stm32l0xx_hal_rtc_ex.c **** 
 398              		.loc 1 340 0
 399 004e 2A70     		strb	r2, [r5]
 400              		.loc 1 343 0
 401 0050 002B     		cmp	r3, #0
 402 0052 17D1     		bne	.L18
 344:../../../../../../Drivers/STM32L0xx_HAL_Driver/Src/stm32l0xx_hal_rtc_ex.c ****   {
 345:../../../../../../Drivers/STM32L0xx_HAL_Driver/Src/stm32l0xx_hal_rtc_ex.c ****     /* Convert the TimeStamp structure parameters to Binary format */
 346:../../../../../../Drivers/STM32L0xx_HAL_Driver/Src/stm32l0xx_hal_rtc_ex.c ****     sTimeStamp->Hours = (uint8_t)RTC_Bcd2ToByte(sTimeStamp->Hours);
 403              		.loc 1 346 0
 404 0054 FFF7FEFF 		bl	RTC_Bcd2ToByte
 405              	.LVL34:
 406 0058 2070     		strb	r0, [r4]
 347:../../../../../../Drivers/STM32L0xx_HAL_Driver/Src/stm32l0xx_hal_rtc_ex.c ****     sTimeStamp->Minutes = (uint8_t)RTC_Bcd2ToByte(sTimeStamp->Minutes);
 407              		.loc 1 347 0
 408 005a 6078     		ldrb	r0, [r4, #1]
 409 005c FFF7FEFF 		bl	RTC_Bcd2ToByte
 410              	.LVL35:
 411 0060 6070     		strb	r0, [r4, #1]
 348:../../../../../../Drivers/STM32L0xx_HAL_Driver/Src/stm32l0xx_hal_rtc_ex.c ****     sTimeStamp->Seconds = (uint8_t)RTC_Bcd2ToByte(sTimeStamp->Seconds);
 412              		.loc 1 348 0
 413 0062 A078     		ldrb	r0, [r4, #2]
 414 0064 FFF7FEFF 		bl	RTC_Bcd2ToByte
 415              	.LVL36:
 416 0068 A070     		strb	r0, [r4, #2]
 349:../../../../../../Drivers/STM32L0xx_HAL_Driver/Src/stm32l0xx_hal_rtc_ex.c **** 
 350:../../../../../../Drivers/STM32L0xx_HAL_Driver/Src/stm32l0xx_hal_rtc_ex.c ****     /* Convert the DateTimeStamp structure parameters to Binary format */
 351:../../../../../../Drivers/STM32L0xx_HAL_Driver/Src/stm32l0xx_hal_rtc_ex.c ****     sTimeStampDate->Month = (uint8_t)RTC_Bcd2ToByte(sTimeStampDate->Month);
 417              		.loc 1 351 0
 418 006a 6878     		ldrb	r0, [r5, #1]
 419 006c FFF7FEFF 		bl	RTC_Bcd2ToByte
 420              	.LVL37:
 421 0070 6870     		strb	r0, [r5, #1]
 352:../../../../../../Drivers/STM32L0xx_HAL_Driver/Src/stm32l0xx_hal_rtc_ex.c ****     sTimeStampDate->Date = (uint8_t)RTC_Bcd2ToByte(sTimeStampDate->Date);
 422              		.loc 1 352 0
ARM GAS  C:\Users\EBANO_~1\AppData\Local\Temp\ccyPWgHX.s 			page 15


 423 0072 A878     		ldrb	r0, [r5, #2]
 424 0074 FFF7FEFF 		bl	RTC_Bcd2ToByte
 425              	.LVL38:
 426 0078 A870     		strb	r0, [r5, #2]
 353:../../../../../../Drivers/STM32L0xx_HAL_Driver/Src/stm32l0xx_hal_rtc_ex.c ****     sTimeStampDate->WeekDay = (uint8_t)RTC_Bcd2ToByte(sTimeStampDate->WeekDay);
 427              		.loc 1 353 0
 428 007a 2878     		ldrb	r0, [r5]
 429 007c FFF7FEFF 		bl	RTC_Bcd2ToByte
 430              	.LVL39:
 431 0080 2870     		strb	r0, [r5]
 432 0082 3968     		ldr	r1, [r7]
 433              	.L18:
 354:../../../../../../Drivers/STM32L0xx_HAL_Driver/Src/stm32l0xx_hal_rtc_ex.c ****   }
 355:../../../../../../Drivers/STM32L0xx_HAL_Driver/Src/stm32l0xx_hal_rtc_ex.c **** 
 356:../../../../../../Drivers/STM32L0xx_HAL_Driver/Src/stm32l0xx_hal_rtc_ex.c ****   /* Clear the TIMESTAMP Flag */
 357:../../../../../../Drivers/STM32L0xx_HAL_Driver/Src/stm32l0xx_hal_rtc_ex.c ****   __HAL_RTC_TIMESTAMP_CLEAR_FLAG(hrtc, RTC_FLAG_TSF);
 434              		.loc 1 357 0
 435 0084 FF23     		movs	r3, #255
 436 0086 CA68     		ldr	r2, [r1, #12]
 358:../../../../../../Drivers/STM32L0xx_HAL_Driver/Src/stm32l0xx_hal_rtc_ex.c **** 
 359:../../../../../../Drivers/STM32L0xx_HAL_Driver/Src/stm32l0xx_hal_rtc_ex.c ****   return HAL_OK;
 360:../../../../../../Drivers/STM32L0xx_HAL_Driver/Src/stm32l0xx_hal_rtc_ex.c **** }
 437              		.loc 1 360 0
 438 0088 0020     		movs	r0, #0
 357:../../../../../../Drivers/STM32L0xx_HAL_Driver/Src/stm32l0xx_hal_rtc_ex.c **** 
 439              		.loc 1 357 0
 440 008a 1A40     		ands	r2, r3
 441 008c 054B     		ldr	r3, .L19+8
 442              		.loc 1 360 0
 443              		@ sp needed
 357:../../../../../../Drivers/STM32L0xx_HAL_Driver/Src/stm32l0xx_hal_rtc_ex.c **** 
 444              		.loc 1 357 0
 445 008e 1343     		orrs	r3, r2
 446 0090 CB60     		str	r3, [r1, #12]
 447              	.LVL40:
 448              	.LVL41:
 449              	.LVL42:
 450              	.LVL43:
 451              		.loc 1 360 0
 452 0092 0CBC     		pop	{r2, r3}
 453 0094 9046     		mov	r8, r2
 454 0096 9946     		mov	r9, r3
 455 0098 F8BD     		pop	{r3, r4, r5, r6, r7, pc}
 456              	.L20:
 457 009a C046     		.align	2
 458              	.L19:
 459 009c 7F7F7F00 		.word	8355711
 460 00a0 3FFFFF00 		.word	16777023
 461 00a4 7FF7FFFF 		.word	-2177
 462              		.cfi_endproc
 463              	.LFE42:
 464              		.size	HAL_RTCEx_GetTimeStamp, .-HAL_RTCEx_GetTimeStamp
 465              		.section	.text.HAL_RTCEx_SetTamper,"ax",%progbits
 466              		.align	1
 467              		.p2align 2,,3
 468              		.global	HAL_RTCEx_SetTamper
 469              		.syntax unified
ARM GAS  C:\Users\EBANO_~1\AppData\Local\Temp\ccyPWgHX.s 			page 16


 470              		.code	16
 471              		.thumb_func
 472              		.fpu softvfp
 473              		.type	HAL_RTCEx_SetTamper, %function
 474              	HAL_RTCEx_SetTamper:
 475              	.LFB43:
 361:../../../../../../Drivers/STM32L0xx_HAL_Driver/Src/stm32l0xx_hal_rtc_ex.c **** 
 362:../../../../../../Drivers/STM32L0xx_HAL_Driver/Src/stm32l0xx_hal_rtc_ex.c **** /**
 363:../../../../../../Drivers/STM32L0xx_HAL_Driver/Src/stm32l0xx_hal_rtc_ex.c ****   * @brief  Set Tamper
 364:../../../../../../Drivers/STM32L0xx_HAL_Driver/Src/stm32l0xx_hal_rtc_ex.c ****   * @note   By calling this API we disable the tamper interrupt for all tampers.
 365:../../../../../../Drivers/STM32L0xx_HAL_Driver/Src/stm32l0xx_hal_rtc_ex.c ****   * @param  hrtc RTC handle
 366:../../../../../../Drivers/STM32L0xx_HAL_Driver/Src/stm32l0xx_hal_rtc_ex.c ****   * @param  sTamper Pointer to Tamper Structure.
 367:../../../../../../Drivers/STM32L0xx_HAL_Driver/Src/stm32l0xx_hal_rtc_ex.c ****   * @retval HAL status
 368:../../../../../../Drivers/STM32L0xx_HAL_Driver/Src/stm32l0xx_hal_rtc_ex.c ****   */
 369:../../../../../../Drivers/STM32L0xx_HAL_Driver/Src/stm32l0xx_hal_rtc_ex.c **** HAL_StatusTypeDef HAL_RTCEx_SetTamper(RTC_HandleTypeDef *hrtc, RTC_TamperTypeDef* sTamper)
 370:../../../../../../Drivers/STM32L0xx_HAL_Driver/Src/stm32l0xx_hal_rtc_ex.c **** {
 476              		.loc 1 370 0
 477              		.cfi_startproc
 478              		@ args = 0, pretend = 0, frame = 0
 479              		@ frame_needed = 0, uses_anonymous_args = 0
 480              	.LVL44:
 481 0000 F0B5     		push	{r4, r5, r6, r7, lr}
 482              	.LCFI5:
 483              		.cfi_def_cfa_offset 20
 484              		.cfi_offset 4, -20
 485              		.cfi_offset 5, -16
 486              		.cfi_offset 6, -12
 487              		.cfi_offset 7, -8
 488              		.cfi_offset 14, -4
 489 0002 C646     		mov	lr, r8
 371:../../../../../../Drivers/STM32L0xx_HAL_Driver/Src/stm32l0xx_hal_rtc_ex.c ****   uint32_t tmpreg = 0U;
 372:../../../../../../Drivers/STM32L0xx_HAL_Driver/Src/stm32l0xx_hal_rtc_ex.c **** 
 373:../../../../../../Drivers/STM32L0xx_HAL_Driver/Src/stm32l0xx_hal_rtc_ex.c ****   /* Check the parameters */
 374:../../../../../../Drivers/STM32L0xx_HAL_Driver/Src/stm32l0xx_hal_rtc_ex.c ****   assert_param( IS_RTC_TAMPER(sTamper->Tamper));
 375:../../../../../../Drivers/STM32L0xx_HAL_Driver/Src/stm32l0xx_hal_rtc_ex.c ****   assert_param( IS_RTC_TAMPER_TRIGGER(sTamper->Trigger));
 376:../../../../../../Drivers/STM32L0xx_HAL_Driver/Src/stm32l0xx_hal_rtc_ex.c ****   assert_param(IS_RTC_TAMPER_ERASE_MODE(sTamper->NoErase));
 377:../../../../../../Drivers/STM32L0xx_HAL_Driver/Src/stm32l0xx_hal_rtc_ex.c ****   assert_param(IS_RTC_TAMPER_MASKFLAG_STATE(sTamper->MaskFlag));
 378:../../../../../../Drivers/STM32L0xx_HAL_Driver/Src/stm32l0xx_hal_rtc_ex.c ****   assert_param(IS_RTC_TAMPER_FILTER(sTamper->Filter));
 379:../../../../../../Drivers/STM32L0xx_HAL_Driver/Src/stm32l0xx_hal_rtc_ex.c ****   assert_param(IS_RTC_TAMPER_SAMPLING_FREQ(sTamper->SamplingFrequency));
 380:../../../../../../Drivers/STM32L0xx_HAL_Driver/Src/stm32l0xx_hal_rtc_ex.c ****   assert_param(IS_RTC_TAMPER_PRECHARGE_DURATION(sTamper->PrechargeDuration));
 381:../../../../../../Drivers/STM32L0xx_HAL_Driver/Src/stm32l0xx_hal_rtc_ex.c ****   assert_param(IS_RTC_TAMPER_PULLUP_STATE(sTamper->TamperPullUp));
 382:../../../../../../Drivers/STM32L0xx_HAL_Driver/Src/stm32l0xx_hal_rtc_ex.c ****   assert_param(IS_RTC_TAMPER_TIMESTAMPONTAMPER_DETECTION(sTamper->TimeStampOnTamperDetection));
 383:../../../../../../Drivers/STM32L0xx_HAL_Driver/Src/stm32l0xx_hal_rtc_ex.c **** 
 384:../../../../../../Drivers/STM32L0xx_HAL_Driver/Src/stm32l0xx_hal_rtc_ex.c ****   /* Process Locked */
 385:../../../../../../Drivers/STM32L0xx_HAL_Driver/Src/stm32l0xx_hal_rtc_ex.c ****   __HAL_LOCK(hrtc);
 490              		.loc 1 385 0
 491 0004 2023     		movs	r3, #32
 370:../../../../../../Drivers/STM32L0xx_HAL_Driver/Src/stm32l0xx_hal_rtc_ex.c ****   uint32_t tmpreg = 0U;
 492              		.loc 1 370 0
 493 0006 00B5     		push	{lr}
 494              	.LCFI6:
 495              		.cfi_def_cfa_offset 24
 496              		.cfi_offset 8, -24
 497              		.loc 1 385 0
 498 0008 C25C     		ldrb	r2, [r0, r3]
 499 000a 012A     		cmp	r2, #1
 500 000c 64D0     		beq	.L32
ARM GAS  C:\Users\EBANO_~1\AppData\Local\Temp\ccyPWgHX.s 			page 17


 501              		.loc 1 385 0 is_stmt 0 discriminator 2
 502 000e 0122     		movs	r2, #1
 503 0010 0C68     		ldr	r4, [r1]
 504 0012 C254     		strb	r2, [r0, r3]
 386:../../../../../../Drivers/STM32L0xx_HAL_Driver/Src/stm32l0xx_hal_rtc_ex.c **** 
 387:../../../../../../Drivers/STM32L0xx_HAL_Driver/Src/stm32l0xx_hal_rtc_ex.c ****   hrtc->State = HAL_RTC_STATE_BUSY;
 388:../../../../../../Drivers/STM32L0xx_HAL_Driver/Src/stm32l0xx_hal_rtc_ex.c **** 
 389:../../../../../../Drivers/STM32L0xx_HAL_Driver/Src/stm32l0xx_hal_rtc_ex.c ****   /* Configure the tamper trigger */
 390:../../../../../../Drivers/STM32L0xx_HAL_Driver/Src/stm32l0xx_hal_rtc_ex.c ****   if(sTamper->Trigger != RTC_TAMPERTRIGGER_RISINGEDGE)
 505              		.loc 1 390 0 is_stmt 1 discriminator 2
 506 0014 8F68     		ldr	r7, [r1, #8]
 387:../../../../../../Drivers/STM32L0xx_HAL_Driver/Src/stm32l0xx_hal_rtc_ex.c **** 
 507              		.loc 1 387 0 discriminator 2
 508 0016 0133     		adds	r3, r3, #1
 509 0018 0132     		adds	r2, r2, #1
 510 001a C254     		strb	r2, [r0, r3]
 511 001c 6300     		lsls	r3, r4, #1
 512 001e 9C46     		mov	ip, r3
 513              		.loc 1 390 0 discriminator 2
 514 0020 002F     		cmp	r7, #0
 515 0022 01D0     		beq	.L23
 391:../../../../../../Drivers/STM32L0xx_HAL_Driver/Src/stm32l0xx_hal_rtc_ex.c ****   { 
 392:../../../../../../Drivers/STM32L0xx_HAL_Driver/Src/stm32l0xx_hal_rtc_ex.c ****     sTamper->Trigger = (uint32_t)(sTamper->Tamper << 1U); 
 516              		.loc 1 392 0
 517 0024 1F00     		movs	r7, r3
 518 0026 8B60     		str	r3, [r1, #8]
 519              	.L23:
 393:../../../../../../Drivers/STM32L0xx_HAL_Driver/Src/stm32l0xx_hal_rtc_ex.c ****   }
 394:../../../../../../Drivers/STM32L0xx_HAL_Driver/Src/stm32l0xx_hal_rtc_ex.c **** 
 395:../../../../../../Drivers/STM32L0xx_HAL_Driver/Src/stm32l0xx_hal_rtc_ex.c ****   if(sTamper->NoErase != RTC_TAMPER_ERASE_BACKUP_ENABLE)
 520              		.loc 1 395 0
 521 0028 CE68     		ldr	r6, [r1, #12]
 522 002a 002E     		cmp	r6, #0
 523 002c 10D0     		beq	.L24
 396:../../../../../../Drivers/STM32L0xx_HAL_Driver/Src/stm32l0xx_hal_rtc_ex.c ****   { 
 397:../../../../../../Drivers/STM32L0xx_HAL_Driver/Src/stm32l0xx_hal_rtc_ex.c ****     sTamper->NoErase = 0U;
 398:../../../../../../Drivers/STM32L0xx_HAL_Driver/Src/stm32l0xx_hal_rtc_ex.c **** #if defined (STM32L063xx) || defined (STM32L062xx) || defined (STM32L061xx) || \
 399:../../../../../../Drivers/STM32L0xx_HAL_Driver/Src/stm32l0xx_hal_rtc_ex.c ****     defined (STM32L053xx) || defined (STM32L052xx) || defined (STM32L051xx) ||\
 400:../../../../../../Drivers/STM32L0xx_HAL_Driver/Src/stm32l0xx_hal_rtc_ex.c ****     defined (STM32L083xx) || defined (STM32L082xx) || defined (STM32L081xx) || \
 401:../../../../../../Drivers/STM32L0xx_HAL_Driver/Src/stm32l0xx_hal_rtc_ex.c ****     defined (STM32L073xx) || defined (STM32L072xx) || defined (STM32L071xx) || \
 402:../../../../../../Drivers/STM32L0xx_HAL_Driver/Src/stm32l0xx_hal_rtc_ex.c ****     defined (STM32L031xx) || defined (STM32L041xx) || defined (STM32L010xB) || \
 403:../../../../../../Drivers/STM32L0xx_HAL_Driver/Src/stm32l0xx_hal_rtc_ex.c ****     defined (STM32L010x8) || defined (STM32L010x6)
 404:../../../../../../Drivers/STM32L0xx_HAL_Driver/Src/stm32l0xx_hal_rtc_ex.c **** 
 405:../../../../../../Drivers/STM32L0xx_HAL_Driver/Src/stm32l0xx_hal_rtc_ex.c ****     if((sTamper->Tamper & RTC_TAMPER_1) != 0U)
 524              		.loc 1 405 0
 525 002e 0123     		movs	r3, #1
 526 0030 2340     		ands	r3, r4
 527 0032 45D1     		bne	.L25
 397:../../../../../../Drivers/STM32L0xx_HAL_Driver/Src/stm32l0xx_hal_rtc_ex.c **** #if defined (STM32L063xx) || defined (STM32L062xx) || defined (STM32L061xx) || \
 528              		.loc 1 397 0
 529 0034 8022     		movs	r2, #128
 530 0036 0026     		movs	r6, #0
 531 0038 CB60     		str	r3, [r1, #12]
 532 003a 5203     		lsls	r2, r2, #13
 533              	.L26:
 406:../../../../../../Drivers/STM32L0xx_HAL_Driver/Src/stm32l0xx_hal_rtc_ex.c ****     {
 407:../../../../../../Drivers/STM32L0xx_HAL_Driver/Src/stm32l0xx_hal_rtc_ex.c ****       sTamper->NoErase |= RTC_TAMPCR_TAMP1NOERASE;
ARM GAS  C:\Users\EBANO_~1\AppData\Local\Temp\ccyPWgHX.s 			page 18


 408:../../../../../../Drivers/STM32L0xx_HAL_Driver/Src/stm32l0xx_hal_rtc_ex.c ****     }
 409:../../../../../../Drivers/STM32L0xx_HAL_Driver/Src/stm32l0xx_hal_rtc_ex.c **** #endif /* (STM32L063xx) || (STM32L062xx) || (STM32L061xx) ||
 410:../../../../../../Drivers/STM32L0xx_HAL_Driver/Src/stm32l0xx_hal_rtc_ex.c ****         * (STM32L053xx) || (STM32L052xx) || (STM32L051xx) ||
 411:../../../../../../Drivers/STM32L0xx_HAL_Driver/Src/stm32l0xx_hal_rtc_ex.c ****         * (STM32L083xx) || (STM32L082xx) || (STM32L081xx) ||
 412:../../../../../../Drivers/STM32L0xx_HAL_Driver/Src/stm32l0xx_hal_rtc_ex.c ****         * (STM32L073xx) || (STM32L072xx) || (STM32L071xx) || 
 413:../../../../../../Drivers/STM32L0xx_HAL_Driver/Src/stm32l0xx_hal_rtc_ex.c ****         * (STM32L031xx) || (STM32L041xx) || (STM32L010xB) ||
 414:../../../../../../Drivers/STM32L0xx_HAL_Driver/Src/stm32l0xx_hal_rtc_ex.c ****         * (STM32L010x8) || (STM32L010x6)
 415:../../../../../../Drivers/STM32L0xx_HAL_Driver/Src/stm32l0xx_hal_rtc_ex.c ****         */
 416:../../../../../../Drivers/STM32L0xx_HAL_Driver/Src/stm32l0xx_hal_rtc_ex.c **** 
 417:../../../../../../Drivers/STM32L0xx_HAL_Driver/Src/stm32l0xx_hal_rtc_ex.c ****     if((sTamper->Tamper & RTC_TAMPER_2) != 0U)
 534              		.loc 1 417 0
 535 003c 2307     		lsls	r3, r4, #28
 536 003e 01D5     		bpl	.L27
 418:../../../../../../Drivers/STM32L0xx_HAL_Driver/Src/stm32l0xx_hal_rtc_ex.c ****     {
 419:../../../../../../Drivers/STM32L0xx_HAL_Driver/Src/stm32l0xx_hal_rtc_ex.c ****       sTamper->NoErase |= RTC_TAMPCR_TAMP2NOERASE;
 537              		.loc 1 419 0
 538 0040 1600     		movs	r6, r2
 539 0042 CA60     		str	r2, [r1, #12]
 540              	.L27:
 420:../../../../../../Drivers/STM32L0xx_HAL_Driver/Src/stm32l0xx_hal_rtc_ex.c ****     }
 421:../../../../../../Drivers/STM32L0xx_HAL_Driver/Src/stm32l0xx_hal_rtc_ex.c **** #if defined (STM32L083xx) || defined (STM32L082xx) || defined (STM32L081xx) || \
 422:../../../../../../Drivers/STM32L0xx_HAL_Driver/Src/stm32l0xx_hal_rtc_ex.c ****     defined (STM32L073xx) || defined (STM32L072xx) || defined (STM32L071xx) || \
 423:../../../../../../Drivers/STM32L0xx_HAL_Driver/Src/stm32l0xx_hal_rtc_ex.c ****     defined (STM32L031xx) || defined (STM32L041xx) || defined (STM32L011xx) || \
 424:../../../../../../Drivers/STM32L0xx_HAL_Driver/Src/stm32l0xx_hal_rtc_ex.c ****     defined (STM32L021xx) || defined (STM32L010x4) || defined (STM32L010x6) || \
 425:../../../../../../Drivers/STM32L0xx_HAL_Driver/Src/stm32l0xx_hal_rtc_ex.c ****     defined (STM32L010xB)
 426:../../../../../../Drivers/STM32L0xx_HAL_Driver/Src/stm32l0xx_hal_rtc_ex.c **** 
 427:../../../../../../Drivers/STM32L0xx_HAL_Driver/Src/stm32l0xx_hal_rtc_ex.c ****     if((sTamper->Tamper & RTC_TAMPER_3) != 0U)
 541              		.loc 1 427 0
 542 0044 A306     		lsls	r3, r4, #26
 543 0046 03D5     		bpl	.L24
 428:../../../../../../Drivers/STM32L0xx_HAL_Driver/Src/stm32l0xx_hal_rtc_ex.c ****     {
 429:../../../../../../Drivers/STM32L0xx_HAL_Driver/Src/stm32l0xx_hal_rtc_ex.c ****       sTamper->NoErase |= RTC_TAMPCR_TAMP3NOERASE;
 544              		.loc 1 429 0
 545 0048 8023     		movs	r3, #128
 546 004a 1B04     		lsls	r3, r3, #16
 547 004c 1E43     		orrs	r6, r3
 548 004e CE60     		str	r6, [r1, #12]
 549              	.L24:
 430:../../../../../../Drivers/STM32L0xx_HAL_Driver/Src/stm32l0xx_hal_rtc_ex.c ****     }
 431:../../../../../../Drivers/STM32L0xx_HAL_Driver/Src/stm32l0xx_hal_rtc_ex.c **** 
 432:../../../../../../Drivers/STM32L0xx_HAL_Driver/Src/stm32l0xx_hal_rtc_ex.c **** #endif /* (STM32L083xx) || (STM32L082xx) || (STM32L081xx) ||
 433:../../../../../../Drivers/STM32L0xx_HAL_Driver/Src/stm32l0xx_hal_rtc_ex.c ****         * (STM32L073xx) || (STM32L072xx) || (STM32L071xx) ||
 434:../../../../../../Drivers/STM32L0xx_HAL_Driver/Src/stm32l0xx_hal_rtc_ex.c ****         * (STM32L031xx) || (STM32L041xx) || (STM32L011xx) ||
 435:../../../../../../Drivers/STM32L0xx_HAL_Driver/Src/stm32l0xx_hal_rtc_ex.c ****         * (STM32L021xx) || (STM32L010x4) || (STM32L010x6) ||
 436:../../../../../../Drivers/STM32L0xx_HAL_Driver/Src/stm32l0xx_hal_rtc_ex.c ****         * (STM32L010xB)
 437:../../../../../../Drivers/STM32L0xx_HAL_Driver/Src/stm32l0xx_hal_rtc_ex.c ****         */
 438:../../../../../../Drivers/STM32L0xx_HAL_Driver/Src/stm32l0xx_hal_rtc_ex.c ****   }
 439:../../../../../../Drivers/STM32L0xx_HAL_Driver/Src/stm32l0xx_hal_rtc_ex.c **** 
 440:../../../../../../Drivers/STM32L0xx_HAL_Driver/Src/stm32l0xx_hal_rtc_ex.c ****   if(sTamper->MaskFlag != RTC_TAMPERMASK_FLAG_DISABLE)
 550              		.loc 1 440 0
 551 0050 0D69     		ldr	r5, [r1, #16]
 552 0052 002D     		cmp	r5, #0
 553 0054 10D0     		beq	.L28
 441:../../../../../../Drivers/STM32L0xx_HAL_Driver/Src/stm32l0xx_hal_rtc_ex.c ****   {
 442:../../../../../../Drivers/STM32L0xx_HAL_Driver/Src/stm32l0xx_hal_rtc_ex.c ****     sTamper->MaskFlag = 0U;
 443:../../../../../../Drivers/STM32L0xx_HAL_Driver/Src/stm32l0xx_hal_rtc_ex.c ****     
 444:../../../../../../Drivers/STM32L0xx_HAL_Driver/Src/stm32l0xx_hal_rtc_ex.c **** #if defined (STM32L063xx) || defined (STM32L062xx) || defined (STM32L061xx) || \
ARM GAS  C:\Users\EBANO_~1\AppData\Local\Temp\ccyPWgHX.s 			page 19


 445:../../../../../../Drivers/STM32L0xx_HAL_Driver/Src/stm32l0xx_hal_rtc_ex.c ****     defined (STM32L053xx) || defined (STM32L052xx) || defined (STM32L051xx) ||\
 446:../../../../../../Drivers/STM32L0xx_HAL_Driver/Src/stm32l0xx_hal_rtc_ex.c ****     defined (STM32L083xx) || defined (STM32L082xx) || defined (STM32L081xx) || \
 447:../../../../../../Drivers/STM32L0xx_HAL_Driver/Src/stm32l0xx_hal_rtc_ex.c ****     defined (STM32L073xx) || defined (STM32L072xx) || defined (STM32L071xx) || \
 448:../../../../../../Drivers/STM32L0xx_HAL_Driver/Src/stm32l0xx_hal_rtc_ex.c ****     defined (STM32L031xx) || defined (STM32L041xx) || defined (STM32L010xB) || \
 449:../../../../../../Drivers/STM32L0xx_HAL_Driver/Src/stm32l0xx_hal_rtc_ex.c ****     defined (STM32L010x8) || defined (STM32L010x6)
 450:../../../../../../Drivers/STM32L0xx_HAL_Driver/Src/stm32l0xx_hal_rtc_ex.c **** 
 451:../../../../../../Drivers/STM32L0xx_HAL_Driver/Src/stm32l0xx_hal_rtc_ex.c ****     if((sTamper->Tamper & RTC_TAMPER_1) != 0U)
 554              		.loc 1 451 0
 555 0056 0123     		movs	r3, #1
 556 0058 2340     		ands	r3, r4
 557 005a 37D1     		bne	.L29
 442:../../../../../../Drivers/STM32L0xx_HAL_Driver/Src/stm32l0xx_hal_rtc_ex.c ****     
 558              		.loc 1 442 0
 559 005c 8022     		movs	r2, #128
 560 005e 0025     		movs	r5, #0
 561 0060 0B61     		str	r3, [r1, #16]
 562 0062 9203     		lsls	r2, r2, #14
 563              	.L30:
 452:../../../../../../Drivers/STM32L0xx_HAL_Driver/Src/stm32l0xx_hal_rtc_ex.c ****     {
 453:../../../../../../Drivers/STM32L0xx_HAL_Driver/Src/stm32l0xx_hal_rtc_ex.c ****       sTamper->MaskFlag |= RTC_TAMPCR_TAMP1MF;
 454:../../../../../../Drivers/STM32L0xx_HAL_Driver/Src/stm32l0xx_hal_rtc_ex.c ****     }
 455:../../../../../../Drivers/STM32L0xx_HAL_Driver/Src/stm32l0xx_hal_rtc_ex.c **** #endif /* (STM32L063xx) || (STM32L062xx) || (STM32L061xx) ||
 456:../../../../../../Drivers/STM32L0xx_HAL_Driver/Src/stm32l0xx_hal_rtc_ex.c ****         * (STM32L053xx) || (STM32L052xx) || (STM32L051xx) ||
 457:../../../../../../Drivers/STM32L0xx_HAL_Driver/Src/stm32l0xx_hal_rtc_ex.c ****         * (STM32L083xx) || (STM32L082xx) || (STM32L081xx) ||
 458:../../../../../../Drivers/STM32L0xx_HAL_Driver/Src/stm32l0xx_hal_rtc_ex.c ****         * (STM32L073xx) || (STM32L072xx) || (STM32L071xx) || 
 459:../../../../../../Drivers/STM32L0xx_HAL_Driver/Src/stm32l0xx_hal_rtc_ex.c ****         * (STM32L031xx) || (STM32L041xx) || (STM32L010xB) ||
 460:../../../../../../Drivers/STM32L0xx_HAL_Driver/Src/stm32l0xx_hal_rtc_ex.c ****         * (STM32L010x8) || (STM32L010x6)
 461:../../../../../../Drivers/STM32L0xx_HAL_Driver/Src/stm32l0xx_hal_rtc_ex.c ****         */
 462:../../../../../../Drivers/STM32L0xx_HAL_Driver/Src/stm32l0xx_hal_rtc_ex.c ****   
 463:../../../../../../Drivers/STM32L0xx_HAL_Driver/Src/stm32l0xx_hal_rtc_ex.c ****     if((sTamper->Tamper & RTC_TAMPER_2) != 0U)
 564              		.loc 1 463 0
 565 0064 2307     		lsls	r3, r4, #28
 566 0066 01D5     		bpl	.L31
 464:../../../../../../Drivers/STM32L0xx_HAL_Driver/Src/stm32l0xx_hal_rtc_ex.c ****     {
 465:../../../../../../Drivers/STM32L0xx_HAL_Driver/Src/stm32l0xx_hal_rtc_ex.c ****       sTamper->MaskFlag |= RTC_TAMPCR_TAMP2MF;
 567              		.loc 1 465 0
 568 0068 1500     		movs	r5, r2
 569 006a 0A61     		str	r2, [r1, #16]
 570              	.L31:
 466:../../../../../../Drivers/STM32L0xx_HAL_Driver/Src/stm32l0xx_hal_rtc_ex.c ****     }
 467:../../../../../../Drivers/STM32L0xx_HAL_Driver/Src/stm32l0xx_hal_rtc_ex.c **** #if defined (STM32L083xx) || defined (STM32L082xx) || defined (STM32L081xx) || \
 468:../../../../../../Drivers/STM32L0xx_HAL_Driver/Src/stm32l0xx_hal_rtc_ex.c ****     defined (STM32L073xx) || defined (STM32L072xx) || defined (STM32L071xx) || \
 469:../../../../../../Drivers/STM32L0xx_HAL_Driver/Src/stm32l0xx_hal_rtc_ex.c ****     defined (STM32L031xx) || defined (STM32L041xx) || defined (STM32L011xx) || \
 470:../../../../../../Drivers/STM32L0xx_HAL_Driver/Src/stm32l0xx_hal_rtc_ex.c ****     defined (STM32L021xx) || defined (STM32L010x4) || defined (STM32L010x6) || \
 471:../../../../../../Drivers/STM32L0xx_HAL_Driver/Src/stm32l0xx_hal_rtc_ex.c ****     defined (STM32L010xB)
 472:../../../../../../Drivers/STM32L0xx_HAL_Driver/Src/stm32l0xx_hal_rtc_ex.c **** 
 473:../../../../../../Drivers/STM32L0xx_HAL_Driver/Src/stm32l0xx_hal_rtc_ex.c ****     if((sTamper->Tamper & RTC_TAMPER_3) != 0U)
 571              		.loc 1 473 0
 572 006c A306     		lsls	r3, r4, #26
 573 006e 03D5     		bpl	.L28
 474:../../../../../../Drivers/STM32L0xx_HAL_Driver/Src/stm32l0xx_hal_rtc_ex.c ****     {
 475:../../../../../../Drivers/STM32L0xx_HAL_Driver/Src/stm32l0xx_hal_rtc_ex.c ****       sTamper->MaskFlag |= RTC_TAMPCR_TAMP3MF;
 574              		.loc 1 475 0
 575 0070 8023     		movs	r3, #128
 576 0072 5B04     		lsls	r3, r3, #17
 577 0074 1D43     		orrs	r5, r3
 578 0076 0D61     		str	r5, [r1, #16]
ARM GAS  C:\Users\EBANO_~1\AppData\Local\Temp\ccyPWgHX.s 			page 20


 579              	.L28:
 580 0078 4A69     		ldr	r2, [r1, #20]
 581 007a 8B69     		ldr	r3, [r1, #24]
 582 007c 2243     		orrs	r2, r4
 583 007e 1A43     		orrs	r2, r3
 584 0080 CB69     		ldr	r3, [r1, #28]
 585 0082 1A43     		orrs	r2, r3
 586 0084 0B6A     		ldr	r3, [r1, #32]
 587 0086 1A43     		orrs	r2, r3
 588 0088 4B6A     		ldr	r3, [r1, #36]
 476:../../../../../../Drivers/STM32L0xx_HAL_Driver/Src/stm32l0xx_hal_rtc_ex.c ****     }
 477:../../../../../../Drivers/STM32L0xx_HAL_Driver/Src/stm32l0xx_hal_rtc_ex.c **** #endif /* (STM32L083xx) || (STM32L082xx) || (STM32L081xx) ||
 478:../../../../../../Drivers/STM32L0xx_HAL_Driver/Src/stm32l0xx_hal_rtc_ex.c ****         * (STM32L073xx) || (STM32L072xx) || (STM32L071xx) ||
 479:../../../../../../Drivers/STM32L0xx_HAL_Driver/Src/stm32l0xx_hal_rtc_ex.c ****         * (STM32L031xx) || (STM32L041xx) || (STM32L011xx) ||
 480:../../../../../../Drivers/STM32L0xx_HAL_Driver/Src/stm32l0xx_hal_rtc_ex.c ****         * (STM32L021xx) || (STM32L010x4) || (STM32L010x6) ||
 481:../../../../../../Drivers/STM32L0xx_HAL_Driver/Src/stm32l0xx_hal_rtc_ex.c ****         * (STM32L010xB)
 482:../../../../../../Drivers/STM32L0xx_HAL_Driver/Src/stm32l0xx_hal_rtc_ex.c ****         */
 483:../../../../../../Drivers/STM32L0xx_HAL_Driver/Src/stm32l0xx_hal_rtc_ex.c ****   }
 484:../../../../../../Drivers/STM32L0xx_HAL_Driver/Src/stm32l0xx_hal_rtc_ex.c **** 
 485:../../../../../../Drivers/STM32L0xx_HAL_Driver/Src/stm32l0xx_hal_rtc_ex.c ****   /* Configure the RTC_TAMPCR register */
 486:../../../../../../Drivers/STM32L0xx_HAL_Driver/Src/stm32l0xx_hal_rtc_ex.c ****   tmpreg = (uint32_t)((uint32_t)sTamper->Tamper | (uint32_t)sTamper->Trigger  | (uint32_t)sTamper->
 487:../../../../../../Drivers/STM32L0xx_HAL_Driver/Src/stm32l0xx_hal_rtc_ex.c ****             (uint32_t)sTamper->MaskFlag | (uint32_t)sTamper->Filter | (uint32_t)sTamper->SamplingFr
 488:../../../../../../Drivers/STM32L0xx_HAL_Driver/Src/stm32l0xx_hal_rtc_ex.c ****             (uint32_t)sTamper->PrechargeDuration | (uint32_t)sTamper->TamperPullUp | (uint32_t)sTam
 489:../../../../../../Drivers/STM32L0xx_HAL_Driver/Src/stm32l0xx_hal_rtc_ex.c **** 
 490:../../../../../../Drivers/STM32L0xx_HAL_Driver/Src/stm32l0xx_hal_rtc_ex.c **** #if defined (STM32L063xx) || defined (STM32L062xx) || defined (STM32L061xx) || \
 491:../../../../../../Drivers/STM32L0xx_HAL_Driver/Src/stm32l0xx_hal_rtc_ex.c ****     defined (STM32L053xx) || defined (STM32L052xx) || defined (STM32L051xx) || \
 492:../../../../../../Drivers/STM32L0xx_HAL_Driver/Src/stm32l0xx_hal_rtc_ex.c ****     defined (STM32L010x8)
 493:../../../../../../Drivers/STM32L0xx_HAL_Driver/Src/stm32l0xx_hal_rtc_ex.c ****   hrtc->Instance->TAMPCR &= ((uint32_t)~((uint32_t)sTamper->Tamper | (uint32_t)(sTamper->Tamper << 
 494:../../../../../../Drivers/STM32L0xx_HAL_Driver/Src/stm32l0xx_hal_rtc_ex.c ****                                          RTC_TAMPCR_TAMPFREQ | RTC_TAMPCR_TAMPFLT | RTC_TAMPCR_TAMP
 495:../../../../../../Drivers/STM32L0xx_HAL_Driver/Src/stm32l0xx_hal_rtc_ex.c ****                                          RTC_TAMPCR_TAMPPUDIS | RTC_TAMPCR_TAMPIE | RTC_TAMPCR_TAMP
 496:../../../../../../Drivers/STM32L0xx_HAL_Driver/Src/stm32l0xx_hal_rtc_ex.c ****                                          RTC_TAMPCR_TAMP2IE | RTC_TAMPCR_TAMP1NOERASE | RTC_TAMPCR_
 497:../../../../../../Drivers/STM32L0xx_HAL_Driver/Src/stm32l0xx_hal_rtc_ex.c ****                                          RTC_TAMPCR_TAMP1MF | RTC_TAMPCR_TAMP2MF));
 498:../../../../../../Drivers/STM32L0xx_HAL_Driver/Src/stm32l0xx_hal_rtc_ex.c **** 
 499:../../../../../../Drivers/STM32L0xx_HAL_Driver/Src/stm32l0xx_hal_rtc_ex.c **** #elif defined (STM32L083xx) || defined (STM32L082xx) || defined (STM32L081xx) || \
 500:../../../../../../Drivers/STM32L0xx_HAL_Driver/Src/stm32l0xx_hal_rtc_ex.c ****       defined (STM32L073xx) || defined (STM32L072xx) || defined (STM32L071xx) || \
 501:../../../../../../Drivers/STM32L0xx_HAL_Driver/Src/stm32l0xx_hal_rtc_ex.c ****       defined (STM32L031xx) || defined (STM32L041xx) || defined (STM32L010x6) || \
 502:../../../../../../Drivers/STM32L0xx_HAL_Driver/Src/stm32l0xx_hal_rtc_ex.c ****       defined (STM32L010xB)
 503:../../../../../../Drivers/STM32L0xx_HAL_Driver/Src/stm32l0xx_hal_rtc_ex.c ****   hrtc->Instance->TAMPCR &= ((uint32_t)~((uint32_t)sTamper->Tamper | (uint32_t)(sTamper->Tamper << 
 589              		.loc 1 503 0
 590 008a 0168     		ldr	r1, [r0]
 591              	.LVL45:
 592 008c 1343     		orrs	r3, r2
 593              	.LVL46:
 594 008e 0A6C     		ldr	r2, [r1, #64]
 595 0090 9046     		mov	r8, r2
 504:../../../../../../Drivers/STM32L0xx_HAL_Driver/Src/stm32l0xx_hal_rtc_ex.c ****                                         RTC_TAMPCR_TAMPFREQ | RTC_TAMPCR_TAMPFLT | RTC_TAMPCR_TAMPP
 505:../../../../../../Drivers/STM32L0xx_HAL_Driver/Src/stm32l0xx_hal_rtc_ex.c ****                                         RTC_TAMPCR_TAMPPUDIS | RTC_TAMPCR_TAMPIE | RTC_TAMPCR_TAMP1
 506:../../../../../../Drivers/STM32L0xx_HAL_Driver/Src/stm32l0xx_hal_rtc_ex.c ****                                         RTC_TAMPCR_TAMP2IE | RTC_TAMPCR_TAMP3IE | RTC_TAMPCR_TAMP1N
 507:../../../../../../Drivers/STM32L0xx_HAL_Driver/Src/stm32l0xx_hal_rtc_ex.c ****                                         RTC_TAMPCR_TAMP2NOERASE | RTC_TAMPCR_TAMP3NOERASE | RTC_TAM
 508:../../../../../../Drivers/STM32L0xx_HAL_Driver/Src/stm32l0xx_hal_rtc_ex.c ****                                         RTC_TAMPCR_TAMP2MF | RTC_TAMPCR_TAMP3MF));
 596              		.loc 1 508 0
 597 0092 124A     		ldr	r2, .L54
 598 0094 1443     		orrs	r4, r2
 599              	.LVL47:
 600 0096 6246     		mov	r2, ip
 601 0098 1443     		orrs	r4, r2
 503:../../../../../../Drivers/STM32L0xx_HAL_Driver/Src/stm32l0xx_hal_rtc_ex.c ****                                         RTC_TAMPCR_TAMPFREQ | RTC_TAMPCR_TAMPFLT | RTC_TAMPCR_TAMPP
ARM GAS  C:\Users\EBANO_~1\AppData\Local\Temp\ccyPWgHX.s 			page 21


 602              		.loc 1 503 0
 603 009a 4246     		mov	r2, r8
 604 009c A243     		bics	r2, r4
 605 009e 0A64     		str	r2, [r1, #64]
 509:../../../../../../Drivers/STM32L0xx_HAL_Driver/Src/stm32l0xx_hal_rtc_ex.c ****                                         
 510:../../../../../../Drivers/STM32L0xx_HAL_Driver/Src/stm32l0xx_hal_rtc_ex.c **** #elif defined (STM32L011xx) || defined (STM32L021xx) || defined (STM32L010x4)
 511:../../../../../../Drivers/STM32L0xx_HAL_Driver/Src/stm32l0xx_hal_rtc_ex.c ****   hrtc->Instance->TAMPCR &= ((uint32_t)~((uint32_t)sTamper->Tamper | (uint32_t)(sTamper->Tamper << 
 512:../../../../../../Drivers/STM32L0xx_HAL_Driver/Src/stm32l0xx_hal_rtc_ex.c ****                                         RTC_TAMPCR_TAMPFREQ | RTC_TAMPCR_TAMPFLT | RTC_TAMPCR_TAMPP
 513:../../../../../../Drivers/STM32L0xx_HAL_Driver/Src/stm32l0xx_hal_rtc_ex.c ****                                         RTC_TAMPCR_TAMPPUDIS | RTC_TAMPCR_TAMPIE                   
 514:../../../../../../Drivers/STM32L0xx_HAL_Driver/Src/stm32l0xx_hal_rtc_ex.c ****                                         RTC_TAMPCR_TAMP2IE | RTC_TAMPCR_TAMP3IE                    
 515:../../../../../../Drivers/STM32L0xx_HAL_Driver/Src/stm32l0xx_hal_rtc_ex.c ****                                         RTC_TAMPCR_TAMP2NOERASE | RTC_TAMPCR_TAMP3NOERASE          
 516:../../../../../../Drivers/STM32L0xx_HAL_Driver/Src/stm32l0xx_hal_rtc_ex.c ****                                         RTC_TAMPCR_TAMP2MF | RTC_TAMPCR_TAMP3MF));
 517:../../../../../../Drivers/STM32L0xx_HAL_Driver/Src/stm32l0xx_hal_rtc_ex.c ****                                         
 518:../../../../../../Drivers/STM32L0xx_HAL_Driver/Src/stm32l0xx_hal_rtc_ex.c **** #endif /* (STM32L011xx) || (STM32L021xx) || (STM32L010x4) */
 519:../../../../../../Drivers/STM32L0xx_HAL_Driver/Src/stm32l0xx_hal_rtc_ex.c ****  
 520:../../../../../../Drivers/STM32L0xx_HAL_Driver/Src/stm32l0xx_hal_rtc_ex.c ****   hrtc->Instance->TAMPCR |= tmpreg;
 606              		.loc 1 520 0
 607 00a0 0A6C     		ldr	r2, [r1, #64]
 608 00a2 1343     		orrs	r3, r2
 609 00a4 3B43     		orrs	r3, r7
 610 00a6 3343     		orrs	r3, r6
 611 00a8 2B43     		orrs	r3, r5
 612 00aa 0B64     		str	r3, [r1, #64]
 521:../../../../../../Drivers/STM32L0xx_HAL_Driver/Src/stm32l0xx_hal_rtc_ex.c **** 
 522:../../../../../../Drivers/STM32L0xx_HAL_Driver/Src/stm32l0xx_hal_rtc_ex.c ****   hrtc->State = HAL_RTC_STATE_READY;
 613              		.loc 1 522 0
 614 00ac 0122     		movs	r2, #1
 615 00ae 2123     		movs	r3, #33
 616 00b0 C254     		strb	r2, [r0, r3]
 523:../../../../../../Drivers/STM32L0xx_HAL_Driver/Src/stm32l0xx_hal_rtc_ex.c **** 
 524:../../../../../../Drivers/STM32L0xx_HAL_Driver/Src/stm32l0xx_hal_rtc_ex.c ****   /* Process Unlocked */
 525:../../../../../../Drivers/STM32L0xx_HAL_Driver/Src/stm32l0xx_hal_rtc_ex.c ****   __HAL_UNLOCK(hrtc);
 617              		.loc 1 525 0
 618 00b2 0022     		movs	r2, #0
 619 00b4 013B     		subs	r3, r3, #1
 620 00b6 C254     		strb	r2, [r0, r3]
 526:../../../../../../Drivers/STM32L0xx_HAL_Driver/Src/stm32l0xx_hal_rtc_ex.c **** 
 527:../../../../../../Drivers/STM32L0xx_HAL_Driver/Src/stm32l0xx_hal_rtc_ex.c ****   return HAL_OK;
 621              		.loc 1 527 0
 622 00b8 0020     		movs	r0, #0
 623              	.LVL48:
 624              	.L22:
 528:../../../../../../Drivers/STM32L0xx_HAL_Driver/Src/stm32l0xx_hal_rtc_ex.c **** }
 625              		.loc 1 528 0
 626              		@ sp needed
 627 00ba 04BC     		pop	{r2}
 628 00bc 9046     		mov	r8, r2
 629 00be F0BD     		pop	{r4, r5, r6, r7, pc}
 630              	.LVL49:
 631              	.L25:
 407:../../../../../../Drivers/STM32L0xx_HAL_Driver/Src/stm32l0xx_hal_rtc_ex.c ****     }
 632              		.loc 1 407 0
 633 00c0 8026     		movs	r6, #128
 634 00c2 9022     		movs	r2, #144
 635 00c4 B602     		lsls	r6, r6, #10
 636 00c6 CE60     		str	r6, [r1, #12]
 637 00c8 5203     		lsls	r2, r2, #13
ARM GAS  C:\Users\EBANO_~1\AppData\Local\Temp\ccyPWgHX.s 			page 22


 638 00ca B7E7     		b	.L26
 639              	.L29:
 453:../../../../../../Drivers/STM32L0xx_HAL_Driver/Src/stm32l0xx_hal_rtc_ex.c ****     }
 640              		.loc 1 453 0
 641 00cc 8025     		movs	r5, #128
 642 00ce 9022     		movs	r2, #144
 643 00d0 ED02     		lsls	r5, r5, #11
 644 00d2 0D61     		str	r5, [r1, #16]
 645 00d4 9203     		lsls	r2, r2, #14
 646 00d6 C5E7     		b	.L30
 647              	.L32:
 385:../../../../../../Drivers/STM32L0xx_HAL_Driver/Src/stm32l0xx_hal_rtc_ex.c **** 
 648              		.loc 1 385 0
 649 00d8 0220     		movs	r0, #2
 650              	.LVL50:
 651 00da EEE7     		b	.L22
 652              	.L55:
 653              		.align	2
 654              	.L54:
 655 00dc 84FFFF01 		.word	33554308
 656              		.cfi_endproc
 657              	.LFE43:
 658              		.size	HAL_RTCEx_SetTamper, .-HAL_RTCEx_SetTamper
 659              		.section	.text.HAL_RTCEx_SetTamper_IT,"ax",%progbits
 660              		.align	1
 661              		.p2align 2,,3
 662              		.global	HAL_RTCEx_SetTamper_IT
 663              		.syntax unified
 664              		.code	16
 665              		.thumb_func
 666              		.fpu softvfp
 667              		.type	HAL_RTCEx_SetTamper_IT, %function
 668              	HAL_RTCEx_SetTamper_IT:
 669              	.LFB44:
 529:../../../../../../Drivers/STM32L0xx_HAL_Driver/Src/stm32l0xx_hal_rtc_ex.c **** 
 530:../../../../../../Drivers/STM32L0xx_HAL_Driver/Src/stm32l0xx_hal_rtc_ex.c **** /**
 531:../../../../../../Drivers/STM32L0xx_HAL_Driver/Src/stm32l0xx_hal_rtc_ex.c ****   * @brief  Set Tamper with interrupt.
 532:../../../../../../Drivers/STM32L0xx_HAL_Driver/Src/stm32l0xx_hal_rtc_ex.c ****   * @note   By calling this API we force the tamper interrupt for all tampers.
 533:../../../../../../Drivers/STM32L0xx_HAL_Driver/Src/stm32l0xx_hal_rtc_ex.c ****   * @param  hrtc RTC handle
 534:../../../../../../Drivers/STM32L0xx_HAL_Driver/Src/stm32l0xx_hal_rtc_ex.c ****   * @param  sTamper Pointer to RTC Tamper.
 535:../../../../../../Drivers/STM32L0xx_HAL_Driver/Src/stm32l0xx_hal_rtc_ex.c ****   * @retval HAL status
 536:../../../../../../Drivers/STM32L0xx_HAL_Driver/Src/stm32l0xx_hal_rtc_ex.c ****   */
 537:../../../../../../Drivers/STM32L0xx_HAL_Driver/Src/stm32l0xx_hal_rtc_ex.c **** HAL_StatusTypeDef HAL_RTCEx_SetTamper_IT(RTC_HandleTypeDef *hrtc, RTC_TamperTypeDef* sTamper)
 538:../../../../../../Drivers/STM32L0xx_HAL_Driver/Src/stm32l0xx_hal_rtc_ex.c **** {
 670              		.loc 1 538 0
 671              		.cfi_startproc
 672              		@ args = 0, pretend = 0, frame = 0
 673              		@ frame_needed = 0, uses_anonymous_args = 0
 674              	.LVL51:
 675 0000 F0B5     		push	{r4, r5, r6, r7, lr}
 676              	.LCFI7:
 677              		.cfi_def_cfa_offset 20
 678              		.cfi_offset 4, -20
 679              		.cfi_offset 5, -16
 680              		.cfi_offset 6, -12
 681              		.cfi_offset 7, -8
 682              		.cfi_offset 14, -4
ARM GAS  C:\Users\EBANO_~1\AppData\Local\Temp\ccyPWgHX.s 			page 23


 683 0002 CE46     		mov	lr, r9
 684 0004 4746     		mov	r7, r8
 539:../../../../../../Drivers/STM32L0xx_HAL_Driver/Src/stm32l0xx_hal_rtc_ex.c ****   uint32_t tmpreg = 0U;
 540:../../../../../../Drivers/STM32L0xx_HAL_Driver/Src/stm32l0xx_hal_rtc_ex.c **** 
 541:../../../../../../Drivers/STM32L0xx_HAL_Driver/Src/stm32l0xx_hal_rtc_ex.c ****   /* Check the parameters */
 542:../../../../../../Drivers/STM32L0xx_HAL_Driver/Src/stm32l0xx_hal_rtc_ex.c ****   assert_param( IS_RTC_TAMPER(sTamper->Tamper));
 543:../../../../../../Drivers/STM32L0xx_HAL_Driver/Src/stm32l0xx_hal_rtc_ex.c ****   assert_param(IS_RTC_TAMPER_INTERRUPT(sTamper->Interrupt));
 544:../../../../../../Drivers/STM32L0xx_HAL_Driver/Src/stm32l0xx_hal_rtc_ex.c ****   assert_param( IS_RTC_TAMPER_TRIGGER(sTamper->Trigger));
 545:../../../../../../Drivers/STM32L0xx_HAL_Driver/Src/stm32l0xx_hal_rtc_ex.c ****   assert_param(IS_RTC_TAMPER_ERASE_MODE(sTamper->NoErase));
 546:../../../../../../Drivers/STM32L0xx_HAL_Driver/Src/stm32l0xx_hal_rtc_ex.c ****   assert_param(IS_RTC_TAMPER_MASKFLAG_STATE(sTamper->MaskFlag));
 547:../../../../../../Drivers/STM32L0xx_HAL_Driver/Src/stm32l0xx_hal_rtc_ex.c ****   assert_param(IS_RTC_TAMPER_FILTER(sTamper->Filter));
 548:../../../../../../Drivers/STM32L0xx_HAL_Driver/Src/stm32l0xx_hal_rtc_ex.c ****   assert_param(IS_RTC_TAMPER_SAMPLING_FREQ(sTamper->SamplingFrequency));
 549:../../../../../../Drivers/STM32L0xx_HAL_Driver/Src/stm32l0xx_hal_rtc_ex.c ****   assert_param(IS_RTC_TAMPER_PRECHARGE_DURATION(sTamper->PrechargeDuration));
 550:../../../../../../Drivers/STM32L0xx_HAL_Driver/Src/stm32l0xx_hal_rtc_ex.c ****   assert_param(IS_RTC_TAMPER_PULLUP_STATE(sTamper->TamperPullUp));
 551:../../../../../../Drivers/STM32L0xx_HAL_Driver/Src/stm32l0xx_hal_rtc_ex.c ****   assert_param(IS_RTC_TAMPER_TIMESTAMPONTAMPER_DETECTION(sTamper->TimeStampOnTamperDetection));
 552:../../../../../../Drivers/STM32L0xx_HAL_Driver/Src/stm32l0xx_hal_rtc_ex.c **** 
 553:../../../../../../Drivers/STM32L0xx_HAL_Driver/Src/stm32l0xx_hal_rtc_ex.c ****   /* Process Locked */
 554:../../../../../../Drivers/STM32L0xx_HAL_Driver/Src/stm32l0xx_hal_rtc_ex.c ****   __HAL_LOCK(hrtc);
 685              		.loc 1 554 0
 686 0006 2023     		movs	r3, #32
 538:../../../../../../Drivers/STM32L0xx_HAL_Driver/Src/stm32l0xx_hal_rtc_ex.c ****   uint32_t tmpreg = 0U;
 687              		.loc 1 538 0
 688 0008 80B5     		push	{r7, lr}
 689              	.LCFI8:
 690              		.cfi_def_cfa_offset 28
 691              		.cfi_offset 8, -28
 692              		.cfi_offset 9, -24
 693              		.loc 1 554 0
 694 000a C25C     		ldrb	r2, [r0, r3]
 695 000c 012A     		cmp	r2, #1
 696 000e 00D1     		bne	.LCB602
 697 0010 70E0     		b	.L67	@long jump
 698              	.LCB602:
 699              		.loc 1 554 0 is_stmt 0 discriminator 2
 700 0012 0122     		movs	r2, #1
 701 0014 C254     		strb	r2, [r0, r3]
 555:../../../../../../Drivers/STM32L0xx_HAL_Driver/Src/stm32l0xx_hal_rtc_ex.c **** 
 556:../../../../../../Drivers/STM32L0xx_HAL_Driver/Src/stm32l0xx_hal_rtc_ex.c ****   hrtc->State = HAL_RTC_STATE_BUSY;
 702              		.loc 1 556 0 is_stmt 1 discriminator 2
 703 0016 0133     		adds	r3, r3, #1
 704 0018 0132     		adds	r2, r2, #1
 705 001a C254     		strb	r2, [r0, r3]
 706 001c 0A68     		ldr	r2, [r1]
 557:../../../../../../Drivers/STM32L0xx_HAL_Driver/Src/stm32l0xx_hal_rtc_ex.c **** 
 558:../../../../../../Drivers/STM32L0xx_HAL_Driver/Src/stm32l0xx_hal_rtc_ex.c ****   /* Configure the tamper trigger */
 559:../../../../../../Drivers/STM32L0xx_HAL_Driver/Src/stm32l0xx_hal_rtc_ex.c ****   if(sTamper->Trigger != RTC_TAMPERTRIGGER_RISINGEDGE)
 707              		.loc 1 559 0 discriminator 2
 708 001e 8E68     		ldr	r6, [r1, #8]
 709 0020 5300     		lsls	r3, r2, #1
 710 0022 9946     		mov	r9, r3
 711 0024 002E     		cmp	r6, #0
 712 0026 01D0     		beq	.L58
 560:../../../../../../Drivers/STM32L0xx_HAL_Driver/Src/stm32l0xx_hal_rtc_ex.c ****   {
 561:../../../../../../Drivers/STM32L0xx_HAL_Driver/Src/stm32l0xx_hal_rtc_ex.c ****     sTamper->Trigger = (uint32_t)(sTamper->Tamper << 1U);
 713              		.loc 1 561 0
 714 0028 1E00     		movs	r6, r3
 715 002a 8B60     		str	r3, [r1, #8]
ARM GAS  C:\Users\EBANO_~1\AppData\Local\Temp\ccyPWgHX.s 			page 24


 716              	.L58:
 562:../../../../../../Drivers/STM32L0xx_HAL_Driver/Src/stm32l0xx_hal_rtc_ex.c ****   }
 563:../../../../../../Drivers/STM32L0xx_HAL_Driver/Src/stm32l0xx_hal_rtc_ex.c **** 
 564:../../../../../../Drivers/STM32L0xx_HAL_Driver/Src/stm32l0xx_hal_rtc_ex.c ****   if(sTamper->NoErase != RTC_TAMPER_ERASE_BACKUP_ENABLE)
 717              		.loc 1 564 0
 718 002c CD68     		ldr	r5, [r1, #12]
 719 002e 002D     		cmp	r5, #0
 720 0030 10D0     		beq	.L59
 565:../../../../../../Drivers/STM32L0xx_HAL_Driver/Src/stm32l0xx_hal_rtc_ex.c ****   { 
 566:../../../../../../Drivers/STM32L0xx_HAL_Driver/Src/stm32l0xx_hal_rtc_ex.c ****     sTamper->NoErase = 0U;
 567:../../../../../../Drivers/STM32L0xx_HAL_Driver/Src/stm32l0xx_hal_rtc_ex.c ****     
 568:../../../../../../Drivers/STM32L0xx_HAL_Driver/Src/stm32l0xx_hal_rtc_ex.c **** #if defined (STM32L063xx) || defined (STM32L062xx) || defined (STM32L061xx) || \
 569:../../../../../../Drivers/STM32L0xx_HAL_Driver/Src/stm32l0xx_hal_rtc_ex.c ****     defined (STM32L053xx) || defined (STM32L052xx) || defined (STM32L051xx) || \
 570:../../../../../../Drivers/STM32L0xx_HAL_Driver/Src/stm32l0xx_hal_rtc_ex.c ****     defined (STM32L083xx) || defined (STM32L082xx) || defined (STM32L081xx) || \
 571:../../../../../../Drivers/STM32L0xx_HAL_Driver/Src/stm32l0xx_hal_rtc_ex.c ****     defined (STM32L073xx) || defined (STM32L072xx) || defined (STM32L071xx) || \
 572:../../../../../../Drivers/STM32L0xx_HAL_Driver/Src/stm32l0xx_hal_rtc_ex.c ****     defined (STM32L031xx) || defined (STM32L041xx) || defined (STM32L010xB) || \
 573:../../../../../../Drivers/STM32L0xx_HAL_Driver/Src/stm32l0xx_hal_rtc_ex.c ****     defined (STM32L010x8) || defined (STM32L010x6)
 574:../../../../../../Drivers/STM32L0xx_HAL_Driver/Src/stm32l0xx_hal_rtc_ex.c **** 
 575:../../../../../../Drivers/STM32L0xx_HAL_Driver/Src/stm32l0xx_hal_rtc_ex.c ****     if((sTamper->Tamper & RTC_TAMPER_1) != 0U)
 721              		.loc 1 575 0
 722 0032 0123     		movs	r3, #1
 723 0034 1340     		ands	r3, r2
 724 0036 51D1     		bne	.L60
 566:../../../../../../Drivers/STM32L0xx_HAL_Driver/Src/stm32l0xx_hal_rtc_ex.c ****     
 725              		.loc 1 566 0
 726 0038 8024     		movs	r4, #128
 727 003a 0025     		movs	r5, #0
 728 003c CB60     		str	r3, [r1, #12]
 729 003e 6403     		lsls	r4, r4, #13
 730              	.L61:
 576:../../../../../../Drivers/STM32L0xx_HAL_Driver/Src/stm32l0xx_hal_rtc_ex.c ****     {
 577:../../../../../../Drivers/STM32L0xx_HAL_Driver/Src/stm32l0xx_hal_rtc_ex.c ****       sTamper->NoErase |= RTC_TAMPCR_TAMP1NOERASE;
 578:../../../../../../Drivers/STM32L0xx_HAL_Driver/Src/stm32l0xx_hal_rtc_ex.c ****     }
 579:../../../../../../Drivers/STM32L0xx_HAL_Driver/Src/stm32l0xx_hal_rtc_ex.c **** #endif /* (STM32L063xx) || (STM32L062xx) || (STM32L061xx) ||
 580:../../../../../../Drivers/STM32L0xx_HAL_Driver/Src/stm32l0xx_hal_rtc_ex.c ****         * (STM32L053xx) || (STM32L052xx) || (STM32L051xx) ||
 581:../../../../../../Drivers/STM32L0xx_HAL_Driver/Src/stm32l0xx_hal_rtc_ex.c ****         * (STM32L083xx) || (STM32L082xx) || (STM32L081xx) ||
 582:../../../../../../Drivers/STM32L0xx_HAL_Driver/Src/stm32l0xx_hal_rtc_ex.c ****         * (STM32L073xx) || (STM32L072xx) || (STM32L071xx) || 
 583:../../../../../../Drivers/STM32L0xx_HAL_Driver/Src/stm32l0xx_hal_rtc_ex.c ****         * (STM32L031xx) || (STM32L041xx) || (STM32L010xB) ||
 584:../../../../../../Drivers/STM32L0xx_HAL_Driver/Src/stm32l0xx_hal_rtc_ex.c ****         * (STM32L010x8) || (STM32L010x6)
 585:../../../../../../Drivers/STM32L0xx_HAL_Driver/Src/stm32l0xx_hal_rtc_ex.c ****         */
 586:../../../../../../Drivers/STM32L0xx_HAL_Driver/Src/stm32l0xx_hal_rtc_ex.c **** 
 587:../../../../../../Drivers/STM32L0xx_HAL_Driver/Src/stm32l0xx_hal_rtc_ex.c **** 
 588:../../../../../../Drivers/STM32L0xx_HAL_Driver/Src/stm32l0xx_hal_rtc_ex.c ****     if((sTamper->Tamper & RTC_TAMPER_2) != 0U)
 731              		.loc 1 588 0
 732 0040 1307     		lsls	r3, r2, #28
 733 0042 01D5     		bpl	.L62
 589:../../../../../../Drivers/STM32L0xx_HAL_Driver/Src/stm32l0xx_hal_rtc_ex.c ****     {
 590:../../../../../../Drivers/STM32L0xx_HAL_Driver/Src/stm32l0xx_hal_rtc_ex.c ****       sTamper->NoErase |= RTC_TAMPCR_TAMP2NOERASE;
 734              		.loc 1 590 0
 735 0044 2500     		movs	r5, r4
 736 0046 CC60     		str	r4, [r1, #12]
 737              	.L62:
 591:../../../../../../Drivers/STM32L0xx_HAL_Driver/Src/stm32l0xx_hal_rtc_ex.c ****     }
 592:../../../../../../Drivers/STM32L0xx_HAL_Driver/Src/stm32l0xx_hal_rtc_ex.c **** #if defined (STM32L083xx) || defined (STM32L082xx) || defined (STM32L081xx) || \
 593:../../../../../../Drivers/STM32L0xx_HAL_Driver/Src/stm32l0xx_hal_rtc_ex.c ****     defined (STM32L073xx) || defined (STM32L072xx) || defined (STM32L071xx) || \
 594:../../../../../../Drivers/STM32L0xx_HAL_Driver/Src/stm32l0xx_hal_rtc_ex.c ****     defined (STM32L031xx) || defined (STM32L041xx) || defined (STM32L011xx) || \
 595:../../../../../../Drivers/STM32L0xx_HAL_Driver/Src/stm32l0xx_hal_rtc_ex.c ****     defined (STM32L021xx) || defined (STM32L010x4) || defined (STM32L010x6) || \
ARM GAS  C:\Users\EBANO_~1\AppData\Local\Temp\ccyPWgHX.s 			page 25


 596:../../../../../../Drivers/STM32L0xx_HAL_Driver/Src/stm32l0xx_hal_rtc_ex.c ****     defined (STM32L010xB)
 597:../../../../../../Drivers/STM32L0xx_HAL_Driver/Src/stm32l0xx_hal_rtc_ex.c **** 
 598:../../../../../../Drivers/STM32L0xx_HAL_Driver/Src/stm32l0xx_hal_rtc_ex.c ****     if((sTamper->Tamper & RTC_TAMPER_3) != 0U)
 738              		.loc 1 598 0
 739 0048 9306     		lsls	r3, r2, #26
 740 004a 03D5     		bpl	.L59
 599:../../../../../../Drivers/STM32L0xx_HAL_Driver/Src/stm32l0xx_hal_rtc_ex.c ****     {
 600:../../../../../../Drivers/STM32L0xx_HAL_Driver/Src/stm32l0xx_hal_rtc_ex.c ****       sTamper->NoErase |= RTC_TAMPCR_TAMP3NOERASE;
 741              		.loc 1 600 0
 742 004c 8023     		movs	r3, #128
 743 004e 1B04     		lsls	r3, r3, #16
 744 0050 1D43     		orrs	r5, r3
 745 0052 CD60     		str	r5, [r1, #12]
 746              	.L59:
 601:../../../../../../Drivers/STM32L0xx_HAL_Driver/Src/stm32l0xx_hal_rtc_ex.c ****     }
 602:../../../../../../Drivers/STM32L0xx_HAL_Driver/Src/stm32l0xx_hal_rtc_ex.c **** #endif /* (STM32L083xx) || (STM32L082xx) || (STM32L081xx) ||
 603:../../../../../../Drivers/STM32L0xx_HAL_Driver/Src/stm32l0xx_hal_rtc_ex.c ****         * (STM32L073xx) || (STM32L072xx) || (STM32L071xx) ||
 604:../../../../../../Drivers/STM32L0xx_HAL_Driver/Src/stm32l0xx_hal_rtc_ex.c ****         * (STM32L031xx) || (STM32L041xx) || (STM32L011xx) ||
 605:../../../../../../Drivers/STM32L0xx_HAL_Driver/Src/stm32l0xx_hal_rtc_ex.c ****         * (STM32L021xx) || (STM32L010x4) || (STM32L010x6) ||
 606:../../../../../../Drivers/STM32L0xx_HAL_Driver/Src/stm32l0xx_hal_rtc_ex.c ****         * (STM32L010xB)
 607:../../../../../../Drivers/STM32L0xx_HAL_Driver/Src/stm32l0xx_hal_rtc_ex.c ****         */
 608:../../../../../../Drivers/STM32L0xx_HAL_Driver/Src/stm32l0xx_hal_rtc_ex.c ****   }
 609:../../../../../../Drivers/STM32L0xx_HAL_Driver/Src/stm32l0xx_hal_rtc_ex.c **** 
 610:../../../../../../Drivers/STM32L0xx_HAL_Driver/Src/stm32l0xx_hal_rtc_ex.c ****   if(sTamper->MaskFlag != RTC_TAMPERMASK_FLAG_DISABLE)
 747              		.loc 1 610 0
 748 0054 0C69     		ldr	r4, [r1, #16]
 749 0056 002C     		cmp	r4, #0
 750 0058 10D0     		beq	.L63
 611:../../../../../../Drivers/STM32L0xx_HAL_Driver/Src/stm32l0xx_hal_rtc_ex.c ****   {
 612:../../../../../../Drivers/STM32L0xx_HAL_Driver/Src/stm32l0xx_hal_rtc_ex.c ****     sTamper->MaskFlag = 0U;
 613:../../../../../../Drivers/STM32L0xx_HAL_Driver/Src/stm32l0xx_hal_rtc_ex.c ****     
 614:../../../../../../Drivers/STM32L0xx_HAL_Driver/Src/stm32l0xx_hal_rtc_ex.c **** #if defined (STM32L063xx) || defined (STM32L062xx) || defined (STM32L061xx) || \
 615:../../../../../../Drivers/STM32L0xx_HAL_Driver/Src/stm32l0xx_hal_rtc_ex.c ****     defined (STM32L053xx) || defined (STM32L052xx) || defined (STM32L051xx) ||\
 616:../../../../../../Drivers/STM32L0xx_HAL_Driver/Src/stm32l0xx_hal_rtc_ex.c ****     defined (STM32L083xx) || defined (STM32L082xx) || defined (STM32L081xx) || \
 617:../../../../../../Drivers/STM32L0xx_HAL_Driver/Src/stm32l0xx_hal_rtc_ex.c ****     defined (STM32L073xx) || defined (STM32L072xx) || defined (STM32L071xx) || \
 618:../../../../../../Drivers/STM32L0xx_HAL_Driver/Src/stm32l0xx_hal_rtc_ex.c ****     defined (STM32L031xx) || defined (STM32L041xx) || defined (STM32L010xB) || \
 619:../../../../../../Drivers/STM32L0xx_HAL_Driver/Src/stm32l0xx_hal_rtc_ex.c ****     defined (STM32L010x8) || defined (STM32L010x6)
 620:../../../../../../Drivers/STM32L0xx_HAL_Driver/Src/stm32l0xx_hal_rtc_ex.c ****     if((sTamper->Tamper & RTC_TAMPER_1) != 0U)
 751              		.loc 1 620 0
 752 005a 0123     		movs	r3, #1
 753 005c 1340     		ands	r3, r2
 754 005e 43D1     		bne	.L64
 612:../../../../../../Drivers/STM32L0xx_HAL_Driver/Src/stm32l0xx_hal_rtc_ex.c ****     
 755              		.loc 1 612 0
 756 0060 0B61     		str	r3, [r1, #16]
 757 0062 8023     		movs	r3, #128
 758 0064 0024     		movs	r4, #0
 759 0066 9B03     		lsls	r3, r3, #14
 760              	.L65:
 621:../../../../../../Drivers/STM32L0xx_HAL_Driver/Src/stm32l0xx_hal_rtc_ex.c ****     {
 622:../../../../../../Drivers/STM32L0xx_HAL_Driver/Src/stm32l0xx_hal_rtc_ex.c ****       sTamper->MaskFlag |= RTC_TAMPCR_TAMP1MF;
 623:../../../../../../Drivers/STM32L0xx_HAL_Driver/Src/stm32l0xx_hal_rtc_ex.c ****     }
 624:../../../../../../Drivers/STM32L0xx_HAL_Driver/Src/stm32l0xx_hal_rtc_ex.c **** #endif /* (STM32L063xx) || (STM32L062xx) || (STM32L061xx) ||
 625:../../../../../../Drivers/STM32L0xx_HAL_Driver/Src/stm32l0xx_hal_rtc_ex.c ****         * (STM32L053xx) || (STM32L052xx) || (STM32L051xx) ||
 626:../../../../../../Drivers/STM32L0xx_HAL_Driver/Src/stm32l0xx_hal_rtc_ex.c ****         * (STM32L083xx) || (STM32L082xx) || (STM32L081xx) ||
 627:../../../../../../Drivers/STM32L0xx_HAL_Driver/Src/stm32l0xx_hal_rtc_ex.c ****         * (STM32L073xx) || (STM32L072xx) || (STM32L071xx) || 
 628:../../../../../../Drivers/STM32L0xx_HAL_Driver/Src/stm32l0xx_hal_rtc_ex.c ****         * (STM32L031xx) || (STM32L041xx) || (STM32L010xB) ||
ARM GAS  C:\Users\EBANO_~1\AppData\Local\Temp\ccyPWgHX.s 			page 26


 629:../../../../../../Drivers/STM32L0xx_HAL_Driver/Src/stm32l0xx_hal_rtc_ex.c ****         * (STM32L010x8) || (STM32L010x6)
 630:../../../../../../Drivers/STM32L0xx_HAL_Driver/Src/stm32l0xx_hal_rtc_ex.c ****         */
 631:../../../../../../Drivers/STM32L0xx_HAL_Driver/Src/stm32l0xx_hal_rtc_ex.c **** 
 632:../../../../../../Drivers/STM32L0xx_HAL_Driver/Src/stm32l0xx_hal_rtc_ex.c ****     if((sTamper->Tamper & RTC_TAMPER_2) != 0U)
 761              		.loc 1 632 0
 762 0068 1707     		lsls	r7, r2, #28
 763 006a 01D5     		bpl	.L66
 633:../../../../../../Drivers/STM32L0xx_HAL_Driver/Src/stm32l0xx_hal_rtc_ex.c ****     {
 634:../../../../../../Drivers/STM32L0xx_HAL_Driver/Src/stm32l0xx_hal_rtc_ex.c ****       sTamper->MaskFlag |= RTC_TAMPCR_TAMP2MF;
 764              		.loc 1 634 0
 765 006c 1C00     		movs	r4, r3
 766 006e 0B61     		str	r3, [r1, #16]
 767              	.L66:
 635:../../../../../../Drivers/STM32L0xx_HAL_Driver/Src/stm32l0xx_hal_rtc_ex.c ****     }
 636:../../../../../../Drivers/STM32L0xx_HAL_Driver/Src/stm32l0xx_hal_rtc_ex.c **** #if defined (STM32L083xx) || defined (STM32L082xx) || defined (STM32L081xx) || \
 637:../../../../../../Drivers/STM32L0xx_HAL_Driver/Src/stm32l0xx_hal_rtc_ex.c ****     defined (STM32L073xx) || defined (STM32L072xx) || defined (STM32L071xx) || \
 638:../../../../../../Drivers/STM32L0xx_HAL_Driver/Src/stm32l0xx_hal_rtc_ex.c ****     defined (STM32L031xx) || defined (STM32L041xx) || defined (STM32L011xx) || \
 639:../../../../../../Drivers/STM32L0xx_HAL_Driver/Src/stm32l0xx_hal_rtc_ex.c ****     defined (STM32L021xx) || defined (STM32L010x4) || defined (STM32L010x6) || \
 640:../../../../../../Drivers/STM32L0xx_HAL_Driver/Src/stm32l0xx_hal_rtc_ex.c ****     defined (STM32L010xB)
 641:../../../../../../Drivers/STM32L0xx_HAL_Driver/Src/stm32l0xx_hal_rtc_ex.c **** 
 642:../../../../../../Drivers/STM32L0xx_HAL_Driver/Src/stm32l0xx_hal_rtc_ex.c ****     if((sTamper->Tamper & RTC_TAMPER_3) != 0U)
 768              		.loc 1 642 0
 769 0070 9306     		lsls	r3, r2, #26
 770 0072 03D5     		bpl	.L63
 643:../../../../../../Drivers/STM32L0xx_HAL_Driver/Src/stm32l0xx_hal_rtc_ex.c ****     {
 644:../../../../../../Drivers/STM32L0xx_HAL_Driver/Src/stm32l0xx_hal_rtc_ex.c ****       sTamper->MaskFlag |= RTC_TAMPCR_TAMP3MF;
 771              		.loc 1 644 0
 772 0074 8023     		movs	r3, #128
 773 0076 5B04     		lsls	r3, r3, #17
 774 0078 1C43     		orrs	r4, r3
 775 007a 0C61     		str	r4, [r1, #16]
 776              	.L63:
 645:../../../../../../Drivers/STM32L0xx_HAL_Driver/Src/stm32l0xx_hal_rtc_ex.c ****     }
 646:../../../../../../Drivers/STM32L0xx_HAL_Driver/Src/stm32l0xx_hal_rtc_ex.c **** #endif /* (STM32L083xx) || (STM32L082xx) || (STM32L081xx) ||
 647:../../../../../../Drivers/STM32L0xx_HAL_Driver/Src/stm32l0xx_hal_rtc_ex.c ****         * (STM32L073xx) || (STM32L072xx) || (STM32L071xx) ||
 648:../../../../../../Drivers/STM32L0xx_HAL_Driver/Src/stm32l0xx_hal_rtc_ex.c ****         * (STM32L031xx) || (STM32L041xx) || (STM32L011xx) ||
 649:../../../../../../Drivers/STM32L0xx_HAL_Driver/Src/stm32l0xx_hal_rtc_ex.c ****         * (STM32L021xx) || (STM32L010x4) || (STM32L010x6) ||
 650:../../../../../../Drivers/STM32L0xx_HAL_Driver/Src/stm32l0xx_hal_rtc_ex.c ****         * (STM32L010xB)
 651:../../../../../../Drivers/STM32L0xx_HAL_Driver/Src/stm32l0xx_hal_rtc_ex.c ****         */
 652:../../../../../../Drivers/STM32L0xx_HAL_Driver/Src/stm32l0xx_hal_rtc_ex.c ****   }
 653:../../../../../../Drivers/STM32L0xx_HAL_Driver/Src/stm32l0xx_hal_rtc_ex.c **** 
 654:../../../../../../Drivers/STM32L0xx_HAL_Driver/Src/stm32l0xx_hal_rtc_ex.c ****   /* Configure the RTC_TAMPCR register */    
 655:../../../../../../Drivers/STM32L0xx_HAL_Driver/Src/stm32l0xx_hal_rtc_ex.c ****   tmpreg = (uint32_t)((uint32_t)sTamper->Tamper | (uint32_t)sTamper->Interrupt | (uint32_t)sTamper-
 777              		.loc 1 655 0
 778 007c 4B68     		ldr	r3, [r1, #4]
 779 007e 4F69     		ldr	r7, [r1, #20]
 780 0080 1343     		orrs	r3, r2
 781 0082 3B43     		orrs	r3, r7
 782 0084 8F69     		ldr	r7, [r1, #24]
 783 0086 3B43     		orrs	r3, r7
 784 0088 CF69     		ldr	r7, [r1, #28]
 785 008a 3B43     		orrs	r3, r7
 786 008c 0F6A     		ldr	r7, [r1, #32]
 787 008e 496A     		ldr	r1, [r1, #36]
 788              	.LVL52:
 789 0090 3B43     		orrs	r3, r7
 790 0092 0B43     		orrs	r3, r1
ARM GAS  C:\Users\EBANO_~1\AppData\Local\Temp\ccyPWgHX.s 			page 27


 791              	.LVL53:
 656:../../../../../../Drivers/STM32L0xx_HAL_Driver/Src/stm32l0xx_hal_rtc_ex.c ****             (uint32_t)sTamper->MaskFlag | (uint32_t)sTamper->Filter | (uint32_t)sTamper->SamplingFr
 657:../../../../../../Drivers/STM32L0xx_HAL_Driver/Src/stm32l0xx_hal_rtc_ex.c ****             (uint32_t)sTamper->PrechargeDuration | (uint32_t)sTamper->TamperPullUp | (uint32_t)sTam
 658:../../../../../../Drivers/STM32L0xx_HAL_Driver/Src/stm32l0xx_hal_rtc_ex.c ****   
 659:../../../../../../Drivers/STM32L0xx_HAL_Driver/Src/stm32l0xx_hal_rtc_ex.c **** #if defined (STM32L063xx) || defined (STM32L062xx) || defined (STM32L061xx) || \
 660:../../../../../../Drivers/STM32L0xx_HAL_Driver/Src/stm32l0xx_hal_rtc_ex.c ****     defined (STM32L053xx) || defined (STM32L052xx) || defined (STM32L051xx) || \
 661:../../../../../../Drivers/STM32L0xx_HAL_Driver/Src/stm32l0xx_hal_rtc_ex.c ****     defined (STM32L010x8)
 662:../../../../../../Drivers/STM32L0xx_HAL_Driver/Src/stm32l0xx_hal_rtc_ex.c ****   hrtc->Instance->TAMPCR &= (uint32_t)~((uint32_t)sTamper->Tamper | (uint32_t)(sTamper->Tamper << 1
 663:../../../../../../Drivers/STM32L0xx_HAL_Driver/Src/stm32l0xx_hal_rtc_ex.c ****                                        RTC_TAMPCR_TAMPFREQ | RTC_TAMPCR_TAMPFLT | RTC_TAMPCR_TAMPPR
 664:../../../../../../Drivers/STM32L0xx_HAL_Driver/Src/stm32l0xx_hal_rtc_ex.c ****                                        RTC_TAMPCR_TAMPPUDIS | RTC_TAMPCR_TAMPIE | RTC_TAMPCR_TAMP1I
 665:../../../../../../Drivers/STM32L0xx_HAL_Driver/Src/stm32l0xx_hal_rtc_ex.c ****                                        RTC_TAMPCR_TAMP2IE | RTC_TAMPCR_TAMP1NOERASE | RTC_TAMPCR_TA
 666:../../../../../../Drivers/STM32L0xx_HAL_Driver/Src/stm32l0xx_hal_rtc_ex.c ****                                        RTC_TAMPCR_TAMP1MF | RTC_TAMPCR_TAMP2MF);
 667:../../../../../../Drivers/STM32L0xx_HAL_Driver/Src/stm32l0xx_hal_rtc_ex.c **** 
 668:../../../../../../Drivers/STM32L0xx_HAL_Driver/Src/stm32l0xx_hal_rtc_ex.c **** #elif defined (STM32L083xx) || defined (STM32L082xx) || defined (STM32L081xx) || \
 669:../../../../../../Drivers/STM32L0xx_HAL_Driver/Src/stm32l0xx_hal_rtc_ex.c ****       defined (STM32L073xx) || defined (STM32L072xx) || defined (STM32L071xx) || \
 670:../../../../../../Drivers/STM32L0xx_HAL_Driver/Src/stm32l0xx_hal_rtc_ex.c ****       defined (STM32L031xx) || defined (STM32L041xx) || defined (STM32L010x6) || \
 671:../../../../../../Drivers/STM32L0xx_HAL_Driver/Src/stm32l0xx_hal_rtc_ex.c ****       defined (STM32L010xB)
 672:../../../../../../Drivers/STM32L0xx_HAL_Driver/Src/stm32l0xx_hal_rtc_ex.c ****   hrtc->Instance->TAMPCR &= (uint32_t)~((uint32_t)sTamper->Tamper | (uint32_t)(sTamper->Tamper << 1
 792              		.loc 1 672 0
 793 0094 0168     		ldr	r1, [r0]
 794              	.LVL54:
 795 0096 0F6C     		ldr	r7, [r1, #64]
 796              	.LVL55:
 797 0098 B846     		mov	r8, r7
 673:../../../../../../Drivers/STM32L0xx_HAL_Driver/Src/stm32l0xx_hal_rtc_ex.c ****                                        RTC_TAMPCR_TAMPFREQ | RTC_TAMPCR_TAMPFLT | RTC_TAMPCR_TAMPPR
 674:../../../../../../Drivers/STM32L0xx_HAL_Driver/Src/stm32l0xx_hal_rtc_ex.c ****                                        RTC_TAMPCR_TAMPPUDIS | RTC_TAMPCR_TAMPIE | RTC_TAMPCR_TAMP1I
 675:../../../../../../Drivers/STM32L0xx_HAL_Driver/Src/stm32l0xx_hal_rtc_ex.c ****                                        RTC_TAMPCR_TAMP2IE | RTC_TAMPCR_TAMP3IE | RTC_TAMPCR_TAMP1NO
 676:../../../../../../Drivers/STM32L0xx_HAL_Driver/Src/stm32l0xx_hal_rtc_ex.c ****                                        RTC_TAMPCR_TAMP2NOERASE | RTC_TAMPCR_TAMP3NOERASE | RTC_TAMP
 677:../../../../../../Drivers/STM32L0xx_HAL_Driver/Src/stm32l0xx_hal_rtc_ex.c ****                                        RTC_TAMPCR_TAMP2MF | RTC_TAMPCR_TAMP3MF);
 798              		.loc 1 677 0
 799 009a 174F     		ldr	r7, .L89
 800 009c 3A43     		orrs	r2, r7
 801              	.LVL56:
 802 009e 4F46     		mov	r7, r9
 803 00a0 1743     		orrs	r7, r2
 672:../../../../../../Drivers/STM32L0xx_HAL_Driver/Src/stm32l0xx_hal_rtc_ex.c ****                                        RTC_TAMPCR_TAMPFREQ | RTC_TAMPCR_TAMPFLT | RTC_TAMPCR_TAMPPR
 804              		.loc 1 672 0
 805 00a2 4246     		mov	r2, r8
 806 00a4 BA43     		bics	r2, r7
 807 00a6 0A64     		str	r2, [r1, #64]
 678:../../../../../../Drivers/STM32L0xx_HAL_Driver/Src/stm32l0xx_hal_rtc_ex.c **** 
 679:../../../../../../Drivers/STM32L0xx_HAL_Driver/Src/stm32l0xx_hal_rtc_ex.c **** #elif defined (STM32L011xx) || defined (STM32L021xx) || defined (STM32L010x4)
 680:../../../../../../Drivers/STM32L0xx_HAL_Driver/Src/stm32l0xx_hal_rtc_ex.c ****   hrtc->Instance->TAMPCR &= (uint32_t)~((uint32_t)sTamper->Tamper | (uint32_t)(sTamper->Tamper << 1
 681:../../../../../../Drivers/STM32L0xx_HAL_Driver/Src/stm32l0xx_hal_rtc_ex.c ****                                        RTC_TAMPCR_TAMPFREQ | RTC_TAMPCR_TAMPFLT | RTC_TAMPCR_TAMPPR
 682:../../../../../../Drivers/STM32L0xx_HAL_Driver/Src/stm32l0xx_hal_rtc_ex.c ****                                        RTC_TAMPCR_TAMPPUDIS | RTC_TAMPCR_TAMPIE                    
 683:../../../../../../Drivers/STM32L0xx_HAL_Driver/Src/stm32l0xx_hal_rtc_ex.c ****                                        RTC_TAMPCR_TAMP2IE | RTC_TAMPCR_TAMP3IE                     
 684:../../../../../../Drivers/STM32L0xx_HAL_Driver/Src/stm32l0xx_hal_rtc_ex.c ****                                        RTC_TAMPCR_TAMP2NOERASE | RTC_TAMPCR_TAMP3NOERASE           
 685:../../../../../../Drivers/STM32L0xx_HAL_Driver/Src/stm32l0xx_hal_rtc_ex.c ****                                        RTC_TAMPCR_TAMP2MF | RTC_TAMPCR_TAMP3MF);
 686:../../../../../../Drivers/STM32L0xx_HAL_Driver/Src/stm32l0xx_hal_rtc_ex.c **** 
 687:../../../../../../Drivers/STM32L0xx_HAL_Driver/Src/stm32l0xx_hal_rtc_ex.c **** #endif /* (STM32L011xx) || (STM32L021xx) || (STM32L010x4) */
 688:../../../../../../Drivers/STM32L0xx_HAL_Driver/Src/stm32l0xx_hal_rtc_ex.c **** 
 689:../../../../../../Drivers/STM32L0xx_HAL_Driver/Src/stm32l0xx_hal_rtc_ex.c ****   hrtc->Instance->TAMPCR |= tmpreg;
 808              		.loc 1 689 0
 809 00a8 0A6C     		ldr	r2, [r1, #64]
 810 00aa 1343     		orrs	r3, r2
 690:../../../../../../Drivers/STM32L0xx_HAL_Driver/Src/stm32l0xx_hal_rtc_ex.c **** 
 691:../../../../../../Drivers/STM32L0xx_HAL_Driver/Src/stm32l0xx_hal_rtc_ex.c ****   /* RTC Tamper Interrupt Configuration: EXTI configuration */
ARM GAS  C:\Users\EBANO_~1\AppData\Local\Temp\ccyPWgHX.s 			page 28


 692:../../../../../../Drivers/STM32L0xx_HAL_Driver/Src/stm32l0xx_hal_rtc_ex.c ****   __HAL_RTC_TAMPER_TIMESTAMP_EXTI_ENABLE_IT();
 811              		.loc 1 692 0
 812 00ac 8022     		movs	r2, #128
 689:../../../../../../Drivers/STM32L0xx_HAL_Driver/Src/stm32l0xx_hal_rtc_ex.c **** 
 813              		.loc 1 689 0
 814 00ae 3343     		orrs	r3, r6
 815 00b0 2B43     		orrs	r3, r5
 816 00b2 2343     		orrs	r3, r4
 817 00b4 0B64     		str	r3, [r1, #64]
 818              		.loc 1 692 0
 819 00b6 114B     		ldr	r3, .L89+4
 820 00b8 1203     		lsls	r2, r2, #12
 821 00ba 1968     		ldr	r1, [r3]
 822 00bc 1143     		orrs	r1, r2
 823 00be 1960     		str	r1, [r3]
 824              	.LVL57:
 693:../../../../../../Drivers/STM32L0xx_HAL_Driver/Src/stm32l0xx_hal_rtc_ex.c **** 
 694:../../../../../../Drivers/STM32L0xx_HAL_Driver/Src/stm32l0xx_hal_rtc_ex.c ****   __HAL_RTC_TAMPER_TIMESTAMP_EXTI_ENABLE_RISING_EDGE();
 825              		.loc 1 694 0
 826 00c0 9968     		ldr	r1, [r3, #8]
 827 00c2 0A43     		orrs	r2, r1
 828 00c4 9A60     		str	r2, [r3, #8]
 695:../../../../../../Drivers/STM32L0xx_HAL_Driver/Src/stm32l0xx_hal_rtc_ex.c **** 
 696:../../../../../../Drivers/STM32L0xx_HAL_Driver/Src/stm32l0xx_hal_rtc_ex.c ****   hrtc->State = HAL_RTC_STATE_READY;
 829              		.loc 1 696 0
 830 00c6 2123     		movs	r3, #33
 831 00c8 0122     		movs	r2, #1
 832 00ca C254     		strb	r2, [r0, r3]
 697:../../../../../../Drivers/STM32L0xx_HAL_Driver/Src/stm32l0xx_hal_rtc_ex.c **** 
 698:../../../../../../Drivers/STM32L0xx_HAL_Driver/Src/stm32l0xx_hal_rtc_ex.c ****   /* Process Unlocked */
 699:../../../../../../Drivers/STM32L0xx_HAL_Driver/Src/stm32l0xx_hal_rtc_ex.c ****   __HAL_UNLOCK(hrtc);
 833              		.loc 1 699 0
 834 00cc 0022     		movs	r2, #0
 835 00ce 013B     		subs	r3, r3, #1
 836 00d0 C254     		strb	r2, [r0, r3]
 700:../../../../../../Drivers/STM32L0xx_HAL_Driver/Src/stm32l0xx_hal_rtc_ex.c **** 
 701:../../../../../../Drivers/STM32L0xx_HAL_Driver/Src/stm32l0xx_hal_rtc_ex.c ****   return HAL_OK;
 837              		.loc 1 701 0
 838 00d2 0020     		movs	r0, #0
 839              	.LVL58:
 840              	.L57:
 702:../../../../../../Drivers/STM32L0xx_HAL_Driver/Src/stm32l0xx_hal_rtc_ex.c **** }
 841              		.loc 1 702 0
 842              		@ sp needed
 843 00d4 0CBC     		pop	{r2, r3}
 844 00d6 9046     		mov	r8, r2
 845 00d8 9946     		mov	r9, r3
 846 00da F0BD     		pop	{r4, r5, r6, r7, pc}
 847              	.LVL59:
 848              	.L60:
 577:../../../../../../Drivers/STM32L0xx_HAL_Driver/Src/stm32l0xx_hal_rtc_ex.c ****     }
 849              		.loc 1 577 0
 850 00dc 8025     		movs	r5, #128
 851 00de 9024     		movs	r4, #144
 852 00e0 AD02     		lsls	r5, r5, #10
 853 00e2 CD60     		str	r5, [r1, #12]
 854 00e4 6403     		lsls	r4, r4, #13
ARM GAS  C:\Users\EBANO_~1\AppData\Local\Temp\ccyPWgHX.s 			page 29


 855 00e6 ABE7     		b	.L61
 856              	.L64:
 622:../../../../../../Drivers/STM32L0xx_HAL_Driver/Src/stm32l0xx_hal_rtc_ex.c ****     }
 857              		.loc 1 622 0
 858 00e8 8024     		movs	r4, #128
 859 00ea 9023     		movs	r3, #144
 860 00ec E402     		lsls	r4, r4, #11
 861 00ee 0C61     		str	r4, [r1, #16]
 862 00f0 9B03     		lsls	r3, r3, #14
 863 00f2 B9E7     		b	.L65
 864              	.L67:
 554:../../../../../../Drivers/STM32L0xx_HAL_Driver/Src/stm32l0xx_hal_rtc_ex.c **** 
 865              		.loc 1 554 0
 866 00f4 0220     		movs	r0, #2
 867              	.LVL60:
 868 00f6 EDE7     		b	.L57
 869              	.L90:
 870              		.align	2
 871              	.L89:
 872 00f8 84FFFF01 		.word	33554308
 873 00fc 00040140 		.word	1073808384
 874              		.cfi_endproc
 875              	.LFE44:
 876              		.size	HAL_RTCEx_SetTamper_IT, .-HAL_RTCEx_SetTamper_IT
 877              		.section	.text.HAL_RTCEx_DeactivateTamper,"ax",%progbits
 878              		.align	1
 879              		.p2align 2,,3
 880              		.global	HAL_RTCEx_DeactivateTamper
 881              		.syntax unified
 882              		.code	16
 883              		.thumb_func
 884              		.fpu softvfp
 885              		.type	HAL_RTCEx_DeactivateTamper, %function
 886              	HAL_RTCEx_DeactivateTamper:
 887              	.LFB45:
 703:../../../../../../Drivers/STM32L0xx_HAL_Driver/Src/stm32l0xx_hal_rtc_ex.c **** 
 704:../../../../../../Drivers/STM32L0xx_HAL_Driver/Src/stm32l0xx_hal_rtc_ex.c **** /**
 705:../../../../../../Drivers/STM32L0xx_HAL_Driver/Src/stm32l0xx_hal_rtc_ex.c ****   * @brief  Deactivate Tamper.
 706:../../../../../../Drivers/STM32L0xx_HAL_Driver/Src/stm32l0xx_hal_rtc_ex.c ****   * @param  hrtc RTC handle
 707:../../../../../../Drivers/STM32L0xx_HAL_Driver/Src/stm32l0xx_hal_rtc_ex.c ****   * @param  Tamper Selected tamper pin.
 708:../../../../../../Drivers/STM32L0xx_HAL_Driver/Src/stm32l0xx_hal_rtc_ex.c ****   *          This parameter can be RTC_Tamper_1 and/or RTC_TAMPER_2 for STM32L05x/6x.
 709:../../../../../../Drivers/STM32L0xx_HAL_Driver/Src/stm32l0xx_hal_rtc_ex.c ****   *          This parameter can be any combination of RTC_TAMPER_1, RTC_TAMPER_2 and RTC_TAMPER_3 f
 710:../../../../../../Drivers/STM32L0xx_HAL_Driver/Src/stm32l0xx_hal_rtc_ex.c ****   * @retval HAL status
 711:../../../../../../Drivers/STM32L0xx_HAL_Driver/Src/stm32l0xx_hal_rtc_ex.c ****   */
 712:../../../../../../Drivers/STM32L0xx_HAL_Driver/Src/stm32l0xx_hal_rtc_ex.c **** HAL_StatusTypeDef HAL_RTCEx_DeactivateTamper(RTC_HandleTypeDef *hrtc, uint32_t Tamper)
 713:../../../../../../Drivers/STM32L0xx_HAL_Driver/Src/stm32l0xx_hal_rtc_ex.c **** {
 888              		.loc 1 713 0
 889              		.cfi_startproc
 890              		@ args = 0, pretend = 0, frame = 0
 891              		@ frame_needed = 0, uses_anonymous_args = 0
 892              	.LVL61:
 714:../../../../../../Drivers/STM32L0xx_HAL_Driver/Src/stm32l0xx_hal_rtc_ex.c ****   assert_param( IS_RTC_TAMPER(Tamper));
 715:../../../../../../Drivers/STM32L0xx_HAL_Driver/Src/stm32l0xx_hal_rtc_ex.c **** 
 716:../../../../../../Drivers/STM32L0xx_HAL_Driver/Src/stm32l0xx_hal_rtc_ex.c ****   /* Process Locked */
 717:../../../../../../Drivers/STM32L0xx_HAL_Driver/Src/stm32l0xx_hal_rtc_ex.c ****   __HAL_LOCK(hrtc);
 893              		.loc 1 717 0
 894 0000 2023     		movs	r3, #32
ARM GAS  C:\Users\EBANO_~1\AppData\Local\Temp\ccyPWgHX.s 			page 30


 713:../../../../../../Drivers/STM32L0xx_HAL_Driver/Src/stm32l0xx_hal_rtc_ex.c ****   assert_param( IS_RTC_TAMPER(Tamper));
 895              		.loc 1 713 0
 896 0002 10B5     		push	{r4, lr}
 897              	.LCFI9:
 898              		.cfi_def_cfa_offset 8
 899              		.cfi_offset 4, -8
 900              		.cfi_offset 14, -4
 901              		.loc 1 717 0
 902 0004 C25C     		ldrb	r2, [r0, r3]
 903 0006 012A     		cmp	r2, #1
 904 0008 23D0     		beq	.L96
 905              		.loc 1 717 0 is_stmt 0 discriminator 2
 906 000a 0124     		movs	r4, #1
 718:../../../../../../Drivers/STM32L0xx_HAL_Driver/Src/stm32l0xx_hal_rtc_ex.c **** 
 719:../../../../../../Drivers/STM32L0xx_HAL_Driver/Src/stm32l0xx_hal_rtc_ex.c ****   hrtc->State = HAL_RTC_STATE_BUSY;
 907              		.loc 1 719 0 is_stmt 1 discriminator 2
 908 000c 0222     		movs	r2, #2
 717:../../../../../../Drivers/STM32L0xx_HAL_Driver/Src/stm32l0xx_hal_rtc_ex.c **** 
 909              		.loc 1 717 0 discriminator 2
 910 000e C454     		strb	r4, [r0, r3]
 911              		.loc 1 719 0 discriminator 2
 912 0010 0133     		adds	r3, r3, #1
 913 0012 C254     		strb	r2, [r0, r3]
 720:../../../../../../Drivers/STM32L0xx_HAL_Driver/Src/stm32l0xx_hal_rtc_ex.c **** 
 721:../../../../../../Drivers/STM32L0xx_HAL_Driver/Src/stm32l0xx_hal_rtc_ex.c ****   /* Disable the selected Tamper pin */
 722:../../../../../../Drivers/STM32L0xx_HAL_Driver/Src/stm32l0xx_hal_rtc_ex.c ****   hrtc->Instance->TAMPCR &= ((uint32_t)~Tamper);
 914              		.loc 1 722 0 discriminator 2
 915 0014 0368     		ldr	r3, [r0]
 916 0016 1A6C     		ldr	r2, [r3, #64]
 917 0018 8A43     		bics	r2, r1
 918 001a 1A64     		str	r2, [r3, #64]
 723:../../../../../../Drivers/STM32L0xx_HAL_Driver/Src/stm32l0xx_hal_rtc_ex.c ****   
 724:../../../../../../Drivers/STM32L0xx_HAL_Driver/Src/stm32l0xx_hal_rtc_ex.c **** #if defined (STM32L063xx) || defined (STM32L062xx) || defined (STM32L061xx) || \
 725:../../../../../../Drivers/STM32L0xx_HAL_Driver/Src/stm32l0xx_hal_rtc_ex.c ****     defined (STM32L053xx) || defined (STM32L052xx) || defined (STM32L051xx) ||\
 726:../../../../../../Drivers/STM32L0xx_HAL_Driver/Src/stm32l0xx_hal_rtc_ex.c ****     defined (STM32L083xx) || defined (STM32L082xx) || defined (STM32L081xx) || \
 727:../../../../../../Drivers/STM32L0xx_HAL_Driver/Src/stm32l0xx_hal_rtc_ex.c ****     defined (STM32L073xx) || defined (STM32L072xx) || defined (STM32L071xx) || \
 728:../../../../../../Drivers/STM32L0xx_HAL_Driver/Src/stm32l0xx_hal_rtc_ex.c ****     defined (STM32L031xx) || defined (STM32L041xx) || defined (STM32L010xB) || \
 729:../../../../../../Drivers/STM32L0xx_HAL_Driver/Src/stm32l0xx_hal_rtc_ex.c ****     defined (STM32L010x8) || defined (STM32L010x6)
 730:../../../../../../Drivers/STM32L0xx_HAL_Driver/Src/stm32l0xx_hal_rtc_ex.c ****   if ((Tamper & RTC_TAMPER_1) != 0U)
 919              		.loc 1 730 0 discriminator 2
 920 001c 0C42     		tst	r4, r1
 921 001e 03D0     		beq	.L93
 731:../../../../../../Drivers/STM32L0xx_HAL_Driver/Src/stm32l0xx_hal_rtc_ex.c ****   {
 732:../../../../../../Drivers/STM32L0xx_HAL_Driver/Src/stm32l0xx_hal_rtc_ex.c ****     /* Disable the Tamper1 interrupt */
 733:../../../../../../Drivers/STM32L0xx_HAL_Driver/Src/stm32l0xx_hal_rtc_ex.c ****     hrtc->Instance->TAMPCR &= ((uint32_t)~(RTC_IT_TAMP | RTC_IT_TAMP1));
 922              		.loc 1 733 0
 923 0020 1A6C     		ldr	r2, [r3, #64]
 924 0022 0D4C     		ldr	r4, .L107
 925 0024 2240     		ands	r2, r4
 926 0026 1A64     		str	r2, [r3, #64]
 927              	.L93:
 734:../../../../../../Drivers/STM32L0xx_HAL_Driver/Src/stm32l0xx_hal_rtc_ex.c ****   }
 735:../../../../../../Drivers/STM32L0xx_HAL_Driver/Src/stm32l0xx_hal_rtc_ex.c ****   
 736:../../../../../../Drivers/STM32L0xx_HAL_Driver/Src/stm32l0xx_hal_rtc_ex.c **** #endif /* (STM32L063xx) || (STM32L062xx) || (STM32L061xx) ||
 737:../../../../../../Drivers/STM32L0xx_HAL_Driver/Src/stm32l0xx_hal_rtc_ex.c ****         * (STM32L053xx) || (STM32L052xx) || (STM32L051xx) ||
 738:../../../../../../Drivers/STM32L0xx_HAL_Driver/Src/stm32l0xx_hal_rtc_ex.c ****         * (STM32L083xx) || (STM32L082xx) || (STM32L081xx) ||
 739:../../../../../../Drivers/STM32L0xx_HAL_Driver/Src/stm32l0xx_hal_rtc_ex.c ****         * (STM32L073xx) || (STM32L072xx) || (STM32L071xx) || 
ARM GAS  C:\Users\EBANO_~1\AppData\Local\Temp\ccyPWgHX.s 			page 31


 740:../../../../../../Drivers/STM32L0xx_HAL_Driver/Src/stm32l0xx_hal_rtc_ex.c ****         * (STM32L031xx) || (STM32L041xx) || (STM32L010xB) ||
 741:../../../../../../Drivers/STM32L0xx_HAL_Driver/Src/stm32l0xx_hal_rtc_ex.c ****         * (STM32L010x8) || (STM32L010x6)
 742:../../../../../../Drivers/STM32L0xx_HAL_Driver/Src/stm32l0xx_hal_rtc_ex.c ****         */
 743:../../../../../../Drivers/STM32L0xx_HAL_Driver/Src/stm32l0xx_hal_rtc_ex.c ****   
 744:../../../../../../Drivers/STM32L0xx_HAL_Driver/Src/stm32l0xx_hal_rtc_ex.c ****   if ((Tamper & RTC_TAMPER_2) != 0U)
 928              		.loc 1 744 0
 929 0028 0A07     		lsls	r2, r1, #28
 930 002a 03D5     		bpl	.L94
 745:../../../../../../Drivers/STM32L0xx_HAL_Driver/Src/stm32l0xx_hal_rtc_ex.c ****   {
 746:../../../../../../Drivers/STM32L0xx_HAL_Driver/Src/stm32l0xx_hal_rtc_ex.c ****     /* Disable the Tamper2 interrupt */
 747:../../../../../../Drivers/STM32L0xx_HAL_Driver/Src/stm32l0xx_hal_rtc_ex.c ****     hrtc->Instance->TAMPCR &= ((uint32_t)~(RTC_IT_TAMP | RTC_IT_TAMP2));
 931              		.loc 1 747 0
 932 002c 1A6C     		ldr	r2, [r3, #64]
 933 002e 0B4C     		ldr	r4, .L107+4
 934 0030 2240     		ands	r2, r4
 935 0032 1A64     		str	r2, [r3, #64]
 936              	.L94:
 748:../../../../../../Drivers/STM32L0xx_HAL_Driver/Src/stm32l0xx_hal_rtc_ex.c ****   }
 749:../../../../../../Drivers/STM32L0xx_HAL_Driver/Src/stm32l0xx_hal_rtc_ex.c **** 
 750:../../../../../../Drivers/STM32L0xx_HAL_Driver/Src/stm32l0xx_hal_rtc_ex.c **** #if defined (STM32L083xx) || defined (STM32L082xx) || defined (STM32L081xx) || \
 751:../../../../../../Drivers/STM32L0xx_HAL_Driver/Src/stm32l0xx_hal_rtc_ex.c ****     defined (STM32L073xx) || defined (STM32L072xx) || defined (STM32L071xx) || \
 752:../../../../../../Drivers/STM32L0xx_HAL_Driver/Src/stm32l0xx_hal_rtc_ex.c ****     defined (STM32L031xx) || defined (STM32L041xx) || defined (STM32L011xx) || \
 753:../../../../../../Drivers/STM32L0xx_HAL_Driver/Src/stm32l0xx_hal_rtc_ex.c ****     defined (STM32L021xx) || defined (STM32L010x4) || defined (STM32L010x6) || \
 754:../../../../../../Drivers/STM32L0xx_HAL_Driver/Src/stm32l0xx_hal_rtc_ex.c ****     defined (STM32L010xB)
 755:../../../../../../Drivers/STM32L0xx_HAL_Driver/Src/stm32l0xx_hal_rtc_ex.c ****     if ((Tamper & RTC_TAMPER_3) != 0U)
 937              		.loc 1 755 0
 938 0034 8A06     		lsls	r2, r1, #26
 939 0036 07D4     		bmi	.L106
 940              	.LVL62:
 941              	.L95:
 756:../../../../../../Drivers/STM32L0xx_HAL_Driver/Src/stm32l0xx_hal_rtc_ex.c ****   {
 757:../../../../../../Drivers/STM32L0xx_HAL_Driver/Src/stm32l0xx_hal_rtc_ex.c ****     /* Disable the Tamper3 interrupt */
 758:../../../../../../Drivers/STM32L0xx_HAL_Driver/Src/stm32l0xx_hal_rtc_ex.c ****     hrtc->Instance->TAMPCR &= ((uint32_t)~(RTC_IT_TAMP | RTC_IT_TAMP3));
 759:../../../../../../Drivers/STM32L0xx_HAL_Driver/Src/stm32l0xx_hal_rtc_ex.c ****   }
 760:../../../../../../Drivers/STM32L0xx_HAL_Driver/Src/stm32l0xx_hal_rtc_ex.c ****   
 761:../../../../../../Drivers/STM32L0xx_HAL_Driver/Src/stm32l0xx_hal_rtc_ex.c **** #endif /* (STM32L083xx) || (STM32L082xx) || (STM32L081xx) ||
 762:../../../../../../Drivers/STM32L0xx_HAL_Driver/Src/stm32l0xx_hal_rtc_ex.c ****         * (STM32L073xx) || (STM32L072xx) || (STM32L071xx) ||
 763:../../../../../../Drivers/STM32L0xx_HAL_Driver/Src/stm32l0xx_hal_rtc_ex.c ****         * (STM32L031xx) || (STM32L041xx) || (STM32L011xx) ||
 764:../../../../../../Drivers/STM32L0xx_HAL_Driver/Src/stm32l0xx_hal_rtc_ex.c ****         * (STM32L021xx) || (STM32L010x4) || (STM32L010x6) ||
 765:../../../../../../Drivers/STM32L0xx_HAL_Driver/Src/stm32l0xx_hal_rtc_ex.c ****         * (STM32L010xB)
 766:../../../../../../Drivers/STM32L0xx_HAL_Driver/Src/stm32l0xx_hal_rtc_ex.c ****         */
 767:../../../../../../Drivers/STM32L0xx_HAL_Driver/Src/stm32l0xx_hal_rtc_ex.c **** 
 768:../../../../../../Drivers/STM32L0xx_HAL_Driver/Src/stm32l0xx_hal_rtc_ex.c ****   hrtc->State = HAL_RTC_STATE_READY;
 942              		.loc 1 768 0
 943 0038 2123     		movs	r3, #33
 944 003a 0122     		movs	r2, #1
 945 003c C254     		strb	r2, [r0, r3]
 769:../../../../../../Drivers/STM32L0xx_HAL_Driver/Src/stm32l0xx_hal_rtc_ex.c **** 
 770:../../../../../../Drivers/STM32L0xx_HAL_Driver/Src/stm32l0xx_hal_rtc_ex.c ****   /* Process Unlocked */
 771:../../../../../../Drivers/STM32L0xx_HAL_Driver/Src/stm32l0xx_hal_rtc_ex.c ****   __HAL_UNLOCK(hrtc);
 946              		.loc 1 771 0
 947 003e 0022     		movs	r2, #0
 948 0040 013B     		subs	r3, r3, #1
 949 0042 C254     		strb	r2, [r0, r3]
 772:../../../../../../Drivers/STM32L0xx_HAL_Driver/Src/stm32l0xx_hal_rtc_ex.c **** 
 773:../../../../../../Drivers/STM32L0xx_HAL_Driver/Src/stm32l0xx_hal_rtc_ex.c ****   return HAL_OK;
 950              		.loc 1 773 0
ARM GAS  C:\Users\EBANO_~1\AppData\Local\Temp\ccyPWgHX.s 			page 32


 951 0044 0020     		movs	r0, #0
 952              	.LVL63:
 953              	.L92:
 774:../../../../../../Drivers/STM32L0xx_HAL_Driver/Src/stm32l0xx_hal_rtc_ex.c **** }
 954              		.loc 1 774 0
 955              		@ sp needed
 956 0046 10BD     		pop	{r4, pc}
 957              	.LVL64:
 958              	.L106:
 758:../../../../../../Drivers/STM32L0xx_HAL_Driver/Src/stm32l0xx_hal_rtc_ex.c ****   }
 959              		.loc 1 758 0
 960 0048 1A6C     		ldr	r2, [r3, #64]
 961 004a 0549     		ldr	r1, .L107+8
 962              	.LVL65:
 963 004c 0A40     		ands	r2, r1
 964 004e 1A64     		str	r2, [r3, #64]
 965 0050 F2E7     		b	.L95
 966              	.LVL66:
 967              	.L96:
 717:../../../../../../Drivers/STM32L0xx_HAL_Driver/Src/stm32l0xx_hal_rtc_ex.c **** 
 968              		.loc 1 717 0
 969 0052 0220     		movs	r0, #2
 970              	.LVL67:
 971 0054 F7E7     		b	.L92
 972              	.L108:
 973 0056 C046     		.align	2
 974              	.L107:
 975 0058 FBFFFEFF 		.word	-65541
 976 005c FBFFF7FF 		.word	-524293
 977 0060 FBFFBFFF 		.word	-4194309
 978              		.cfi_endproc
 979              	.LFE45:
 980              		.size	HAL_RTCEx_DeactivateTamper, .-HAL_RTCEx_DeactivateTamper
 981              		.section	.text.HAL_RTCEx_TimeStampEventCallback,"ax",%progbits
 982              		.align	1
 983              		.p2align 2,,3
 984              		.weak	HAL_RTCEx_TimeStampEventCallback
 985              		.syntax unified
 986              		.code	16
 987              		.thumb_func
 988              		.fpu softvfp
 989              		.type	HAL_RTCEx_TimeStampEventCallback, %function
 990              	HAL_RTCEx_TimeStampEventCallback:
 991              	.LFB79:
 992              		.cfi_startproc
 993              		@ args = 0, pretend = 0, frame = 0
 994              		@ frame_needed = 0, uses_anonymous_args = 0
 995              		@ link register save eliminated.
 996              		@ sp needed
 997 0000 7047     		bx	lr
 998              		.cfi_endproc
 999              	.LFE79:
 1000              		.size	HAL_RTCEx_TimeStampEventCallback, .-HAL_RTCEx_TimeStampEventCallback
 1001 0002 C046     		.section	.text.HAL_RTCEx_Tamper1EventCallback,"ax",%progbits
 1002              		.align	1
 1003              		.p2align 2,,3
 1004              		.weak	HAL_RTCEx_Tamper1EventCallback
ARM GAS  C:\Users\EBANO_~1\AppData\Local\Temp\ccyPWgHX.s 			page 33


 1005              		.syntax unified
 1006              		.code	16
 1007              		.thumb_func
 1008              		.fpu softvfp
 1009              		.type	HAL_RTCEx_Tamper1EventCallback, %function
 1010              	HAL_RTCEx_Tamper1EventCallback:
 1011              	.LFB48:
 775:../../../../../../Drivers/STM32L0xx_HAL_Driver/Src/stm32l0xx_hal_rtc_ex.c **** 
 776:../../../../../../Drivers/STM32L0xx_HAL_Driver/Src/stm32l0xx_hal_rtc_ex.c **** /**
 777:../../../../../../Drivers/STM32L0xx_HAL_Driver/Src/stm32l0xx_hal_rtc_ex.c ****   * @brief  Handle TimeStamp interrupt request.
 778:../../../../../../Drivers/STM32L0xx_HAL_Driver/Src/stm32l0xx_hal_rtc_ex.c ****   * @param  hrtc RTC handle
 779:../../../../../../Drivers/STM32L0xx_HAL_Driver/Src/stm32l0xx_hal_rtc_ex.c ****   * @retval None
 780:../../../../../../Drivers/STM32L0xx_HAL_Driver/Src/stm32l0xx_hal_rtc_ex.c ****   */
 781:../../../../../../Drivers/STM32L0xx_HAL_Driver/Src/stm32l0xx_hal_rtc_ex.c **** void HAL_RTCEx_TamperTimeStampIRQHandler(RTC_HandleTypeDef *hrtc)
 782:../../../../../../Drivers/STM32L0xx_HAL_Driver/Src/stm32l0xx_hal_rtc_ex.c **** { 
 783:../../../../../../Drivers/STM32L0xx_HAL_Driver/Src/stm32l0xx_hal_rtc_ex.c ****   /* Get the TimeStamp interrupt source enable status */
 784:../../../../../../Drivers/STM32L0xx_HAL_Driver/Src/stm32l0xx_hal_rtc_ex.c ****   if(__HAL_RTC_TIMESTAMP_GET_IT_SOURCE(hrtc, RTC_IT_TS) != RESET)
 785:../../../../../../Drivers/STM32L0xx_HAL_Driver/Src/stm32l0xx_hal_rtc_ex.c ****   {
 786:../../../../../../Drivers/STM32L0xx_HAL_Driver/Src/stm32l0xx_hal_rtc_ex.c ****     /* Get the pending status of the TIMESTAMP Interrupt */
 787:../../../../../../Drivers/STM32L0xx_HAL_Driver/Src/stm32l0xx_hal_rtc_ex.c ****     if(__HAL_RTC_TIMESTAMP_GET_FLAG(hrtc, RTC_FLAG_TSF) != RESET)
 788:../../../../../../Drivers/STM32L0xx_HAL_Driver/Src/stm32l0xx_hal_rtc_ex.c ****     {
 789:../../../../../../Drivers/STM32L0xx_HAL_Driver/Src/stm32l0xx_hal_rtc_ex.c ****       /* TIMESTAMP callback */ 
 790:../../../../../../Drivers/STM32L0xx_HAL_Driver/Src/stm32l0xx_hal_rtc_ex.c ****       HAL_RTCEx_TimeStampEventCallback(hrtc);
 791:../../../../../../Drivers/STM32L0xx_HAL_Driver/Src/stm32l0xx_hal_rtc_ex.c ****       
 792:../../../../../../Drivers/STM32L0xx_HAL_Driver/Src/stm32l0xx_hal_rtc_ex.c ****       /* Clear the TIMESTAMP interrupt pending bit */
 793:../../../../../../Drivers/STM32L0xx_HAL_Driver/Src/stm32l0xx_hal_rtc_ex.c ****       __HAL_RTC_TIMESTAMP_CLEAR_FLAG(hrtc, RTC_FLAG_TSF);
 794:../../../../../../Drivers/STM32L0xx_HAL_Driver/Src/stm32l0xx_hal_rtc_ex.c ****     }
 795:../../../../../../Drivers/STM32L0xx_HAL_Driver/Src/stm32l0xx_hal_rtc_ex.c ****   }
 796:../../../../../../Drivers/STM32L0xx_HAL_Driver/Src/stm32l0xx_hal_rtc_ex.c **** 
 797:../../../../../../Drivers/STM32L0xx_HAL_Driver/Src/stm32l0xx_hal_rtc_ex.c **** #if defined (STM32L063xx) || defined (STM32L062xx) || defined (STM32L061xx) || \
 798:../../../../../../Drivers/STM32L0xx_HAL_Driver/Src/stm32l0xx_hal_rtc_ex.c ****     defined (STM32L053xx) || defined (STM32L052xx) || defined (STM32L051xx) ||\
 799:../../../../../../Drivers/STM32L0xx_HAL_Driver/Src/stm32l0xx_hal_rtc_ex.c ****     defined (STM32L083xx) || defined (STM32L082xx) || defined (STM32L081xx) || \
 800:../../../../../../Drivers/STM32L0xx_HAL_Driver/Src/stm32l0xx_hal_rtc_ex.c ****     defined (STM32L073xx) || defined (STM32L072xx) || defined (STM32L071xx) || \
 801:../../../../../../Drivers/STM32L0xx_HAL_Driver/Src/stm32l0xx_hal_rtc_ex.c ****     defined (STM32L031xx) || defined (STM32L041xx) || defined (STM32L010xB) || \
 802:../../../../../../Drivers/STM32L0xx_HAL_Driver/Src/stm32l0xx_hal_rtc_ex.c ****     defined (STM32L010x8) || defined (STM32L010x6)
 803:../../../../../../Drivers/STM32L0xx_HAL_Driver/Src/stm32l0xx_hal_rtc_ex.c **** 
 804:../../../../../../Drivers/STM32L0xx_HAL_Driver/Src/stm32l0xx_hal_rtc_ex.c ****   /* Get the Tamper1 interrupts source enable status */
 805:../../../../../../Drivers/STM32L0xx_HAL_Driver/Src/stm32l0xx_hal_rtc_ex.c ****   if(__HAL_RTC_TAMPER_GET_IT_SOURCE(hrtc, RTC_IT_TAMP | RTC_IT_TAMP1) != RESET)
 806:../../../../../../Drivers/STM32L0xx_HAL_Driver/Src/stm32l0xx_hal_rtc_ex.c ****   {
 807:../../../../../../Drivers/STM32L0xx_HAL_Driver/Src/stm32l0xx_hal_rtc_ex.c ****     /* Get the pending status of the Tamper1 Interrupt */
 808:../../../../../../Drivers/STM32L0xx_HAL_Driver/Src/stm32l0xx_hal_rtc_ex.c ****     if(__HAL_RTC_TAMPER_GET_FLAG(hrtc, RTC_FLAG_TAMP1F) != RESET)
 809:../../../../../../Drivers/STM32L0xx_HAL_Driver/Src/stm32l0xx_hal_rtc_ex.c ****     {
 810:../../../../../../Drivers/STM32L0xx_HAL_Driver/Src/stm32l0xx_hal_rtc_ex.c ****       /* Tamper1 callback */
 811:../../../../../../Drivers/STM32L0xx_HAL_Driver/Src/stm32l0xx_hal_rtc_ex.c ****       HAL_RTCEx_Tamper1EventCallback(hrtc);
 812:../../../../../../Drivers/STM32L0xx_HAL_Driver/Src/stm32l0xx_hal_rtc_ex.c **** 
 813:../../../../../../Drivers/STM32L0xx_HAL_Driver/Src/stm32l0xx_hal_rtc_ex.c ****       /* Clear the Tamper1 interrupt pending bit */
 814:../../../../../../Drivers/STM32L0xx_HAL_Driver/Src/stm32l0xx_hal_rtc_ex.c ****       __HAL_RTC_TAMPER_CLEAR_FLAG(hrtc, RTC_FLAG_TAMP1F);
 815:../../../../../../Drivers/STM32L0xx_HAL_Driver/Src/stm32l0xx_hal_rtc_ex.c ****     }
 816:../../../../../../Drivers/STM32L0xx_HAL_Driver/Src/stm32l0xx_hal_rtc_ex.c ****   }
 817:../../../../../../Drivers/STM32L0xx_HAL_Driver/Src/stm32l0xx_hal_rtc_ex.c **** #endif /* (STM32L063xx) || (STM32L062xx) || (STM32L061xx) ||
 818:../../../../../../Drivers/STM32L0xx_HAL_Driver/Src/stm32l0xx_hal_rtc_ex.c ****         * (STM32L053xx) || (STM32L052xx) || (STM32L051xx) ||
 819:../../../../../../Drivers/STM32L0xx_HAL_Driver/Src/stm32l0xx_hal_rtc_ex.c ****         * (STM32L083xx) || (STM32L082xx) || (STM32L081xx) ||
 820:../../../../../../Drivers/STM32L0xx_HAL_Driver/Src/stm32l0xx_hal_rtc_ex.c ****         * (STM32L073xx) || (STM32L072xx) || (STM32L071xx) || 
 821:../../../../../../Drivers/STM32L0xx_HAL_Driver/Src/stm32l0xx_hal_rtc_ex.c ****         * (STM32L031xx) || (STM32L041xx) || (STM32L010xB) ||
 822:../../../../../../Drivers/STM32L0xx_HAL_Driver/Src/stm32l0xx_hal_rtc_ex.c ****         * (STM32L010x8) || (STM32L010x6)
 823:../../../../../../Drivers/STM32L0xx_HAL_Driver/Src/stm32l0xx_hal_rtc_ex.c ****         */
 824:../../../../../../Drivers/STM32L0xx_HAL_Driver/Src/stm32l0xx_hal_rtc_ex.c **** 
ARM GAS  C:\Users\EBANO_~1\AppData\Local\Temp\ccyPWgHX.s 			page 34


 825:../../../../../../Drivers/STM32L0xx_HAL_Driver/Src/stm32l0xx_hal_rtc_ex.c ****   /* Get the Tamper2 interrupts source enable status */
 826:../../../../../../Drivers/STM32L0xx_HAL_Driver/Src/stm32l0xx_hal_rtc_ex.c ****   if(__HAL_RTC_TAMPER_GET_IT_SOURCE(hrtc, RTC_IT_TAMP | RTC_IT_TAMP2) != RESET)
 827:../../../../../../Drivers/STM32L0xx_HAL_Driver/Src/stm32l0xx_hal_rtc_ex.c ****   {
 828:../../../../../../Drivers/STM32L0xx_HAL_Driver/Src/stm32l0xx_hal_rtc_ex.c ****     /* Get the pending status of the Tamper2 Interrupt */
 829:../../../../../../Drivers/STM32L0xx_HAL_Driver/Src/stm32l0xx_hal_rtc_ex.c ****     if(__HAL_RTC_TAMPER_GET_FLAG(hrtc, RTC_FLAG_TAMP2F) != RESET)
 830:../../../../../../Drivers/STM32L0xx_HAL_Driver/Src/stm32l0xx_hal_rtc_ex.c ****     {
 831:../../../../../../Drivers/STM32L0xx_HAL_Driver/Src/stm32l0xx_hal_rtc_ex.c ****       /* Tamper2 callback */
 832:../../../../../../Drivers/STM32L0xx_HAL_Driver/Src/stm32l0xx_hal_rtc_ex.c ****       HAL_RTCEx_Tamper2EventCallback(hrtc);
 833:../../../../../../Drivers/STM32L0xx_HAL_Driver/Src/stm32l0xx_hal_rtc_ex.c **** 
 834:../../../../../../Drivers/STM32L0xx_HAL_Driver/Src/stm32l0xx_hal_rtc_ex.c ****       /* Clear the Tamper2 interrupt pending bit */
 835:../../../../../../Drivers/STM32L0xx_HAL_Driver/Src/stm32l0xx_hal_rtc_ex.c ****       __HAL_RTC_TAMPER_CLEAR_FLAG(hrtc, RTC_FLAG_TAMP2F);
 836:../../../../../../Drivers/STM32L0xx_HAL_Driver/Src/stm32l0xx_hal_rtc_ex.c ****     }
 837:../../../../../../Drivers/STM32L0xx_HAL_Driver/Src/stm32l0xx_hal_rtc_ex.c ****   }
 838:../../../../../../Drivers/STM32L0xx_HAL_Driver/Src/stm32l0xx_hal_rtc_ex.c **** 
 839:../../../../../../Drivers/STM32L0xx_HAL_Driver/Src/stm32l0xx_hal_rtc_ex.c **** #if defined (STM32L083xx) || defined (STM32L082xx) || defined (STM32L081xx) || \
 840:../../../../../../Drivers/STM32L0xx_HAL_Driver/Src/stm32l0xx_hal_rtc_ex.c ****     defined (STM32L073xx) || defined (STM32L072xx) || defined (STM32L071xx) || \
 841:../../../../../../Drivers/STM32L0xx_HAL_Driver/Src/stm32l0xx_hal_rtc_ex.c ****     defined (STM32L031xx) || defined (STM32L041xx) || defined (STM32L011xx) || \
 842:../../../../../../Drivers/STM32L0xx_HAL_Driver/Src/stm32l0xx_hal_rtc_ex.c ****     defined (STM32L021xx) || defined (STM32L010x4) || defined (STM32L010x6) || \
 843:../../../../../../Drivers/STM32L0xx_HAL_Driver/Src/stm32l0xx_hal_rtc_ex.c ****     defined (STM32L010xB)
 844:../../../../../../Drivers/STM32L0xx_HAL_Driver/Src/stm32l0xx_hal_rtc_ex.c ****   /* Get the Tamper3 interrupts source enable status */
 845:../../../../../../Drivers/STM32L0xx_HAL_Driver/Src/stm32l0xx_hal_rtc_ex.c ****   if(__HAL_RTC_TAMPER_GET_IT_SOURCE(hrtc, RTC_IT_TAMP | RTC_IT_TAMP3) != RESET)
 846:../../../../../../Drivers/STM32L0xx_HAL_Driver/Src/stm32l0xx_hal_rtc_ex.c ****   {
 847:../../../../../../Drivers/STM32L0xx_HAL_Driver/Src/stm32l0xx_hal_rtc_ex.c ****     /* Get the pending status of the Tamper3 Interrupt */
 848:../../../../../../Drivers/STM32L0xx_HAL_Driver/Src/stm32l0xx_hal_rtc_ex.c ****     if(__HAL_RTC_TAMPER_GET_FLAG(hrtc, RTC_FLAG_TAMP3F) != RESET)
 849:../../../../../../Drivers/STM32L0xx_HAL_Driver/Src/stm32l0xx_hal_rtc_ex.c ****     {
 850:../../../../../../Drivers/STM32L0xx_HAL_Driver/Src/stm32l0xx_hal_rtc_ex.c ****       /* Tamper3 callback */
 851:../../../../../../Drivers/STM32L0xx_HAL_Driver/Src/stm32l0xx_hal_rtc_ex.c ****       HAL_RTCEx_Tamper3EventCallback(hrtc);
 852:../../../../../../Drivers/STM32L0xx_HAL_Driver/Src/stm32l0xx_hal_rtc_ex.c **** 
 853:../../../../../../Drivers/STM32L0xx_HAL_Driver/Src/stm32l0xx_hal_rtc_ex.c ****       /* Clear the Tamper3 interrupt pending bit */
 854:../../../../../../Drivers/STM32L0xx_HAL_Driver/Src/stm32l0xx_hal_rtc_ex.c ****       __HAL_RTC_TAMPER_CLEAR_FLAG(hrtc, RTC_FLAG_TAMP3F);
 855:../../../../../../Drivers/STM32L0xx_HAL_Driver/Src/stm32l0xx_hal_rtc_ex.c ****     }
 856:../../../../../../Drivers/STM32L0xx_HAL_Driver/Src/stm32l0xx_hal_rtc_ex.c ****   }
 857:../../../../../../Drivers/STM32L0xx_HAL_Driver/Src/stm32l0xx_hal_rtc_ex.c **** 
 858:../../../../../../Drivers/STM32L0xx_HAL_Driver/Src/stm32l0xx_hal_rtc_ex.c **** #endif /* (STM32L083xx) || (STM32L082xx) || (STM32L081xx) ||
 859:../../../../../../Drivers/STM32L0xx_HAL_Driver/Src/stm32l0xx_hal_rtc_ex.c ****         * (STM32L073xx) || (STM32L072xx) || (STM32L071xx) ||
 860:../../../../../../Drivers/STM32L0xx_HAL_Driver/Src/stm32l0xx_hal_rtc_ex.c ****         * (STM32L031xx) || (STM32L041xx) || (STM32L011xx) ||
 861:../../../../../../Drivers/STM32L0xx_HAL_Driver/Src/stm32l0xx_hal_rtc_ex.c ****         * (STM32L021xx) || (STM32L010x4) || (STM32L010x6) ||
 862:../../../../../../Drivers/STM32L0xx_HAL_Driver/Src/stm32l0xx_hal_rtc_ex.c ****         * (STM32L010xB)
 863:../../../../../../Drivers/STM32L0xx_HAL_Driver/Src/stm32l0xx_hal_rtc_ex.c ****         */
 864:../../../../../../Drivers/STM32L0xx_HAL_Driver/Src/stm32l0xx_hal_rtc_ex.c **** 
 865:../../../../../../Drivers/STM32L0xx_HAL_Driver/Src/stm32l0xx_hal_rtc_ex.c ****   /* Clear the EXTI's Flag for RTC TimeStamp and Tamper */
 866:../../../../../../Drivers/STM32L0xx_HAL_Driver/Src/stm32l0xx_hal_rtc_ex.c ****   __HAL_RTC_TAMPER_TIMESTAMP_EXTI_CLEAR_FLAG();
 867:../../../../../../Drivers/STM32L0xx_HAL_Driver/Src/stm32l0xx_hal_rtc_ex.c **** 
 868:../../../../../../Drivers/STM32L0xx_HAL_Driver/Src/stm32l0xx_hal_rtc_ex.c ****   /* Change RTC state */
 869:../../../../../../Drivers/STM32L0xx_HAL_Driver/Src/stm32l0xx_hal_rtc_ex.c ****   hrtc->State = HAL_RTC_STATE_READY;
 870:../../../../../../Drivers/STM32L0xx_HAL_Driver/Src/stm32l0xx_hal_rtc_ex.c **** }
 871:../../../../../../Drivers/STM32L0xx_HAL_Driver/Src/stm32l0xx_hal_rtc_ex.c **** 
 872:../../../../../../Drivers/STM32L0xx_HAL_Driver/Src/stm32l0xx_hal_rtc_ex.c **** /**
 873:../../../../../../Drivers/STM32L0xx_HAL_Driver/Src/stm32l0xx_hal_rtc_ex.c ****   * @brief  TimeStamp callback. 
 874:../../../../../../Drivers/STM32L0xx_HAL_Driver/Src/stm32l0xx_hal_rtc_ex.c ****   * @param  hrtc RTC handle
 875:../../../../../../Drivers/STM32L0xx_HAL_Driver/Src/stm32l0xx_hal_rtc_ex.c ****   * @retval None
 876:../../../../../../Drivers/STM32L0xx_HAL_Driver/Src/stm32l0xx_hal_rtc_ex.c ****   */
 877:../../../../../../Drivers/STM32L0xx_HAL_Driver/Src/stm32l0xx_hal_rtc_ex.c **** __weak void HAL_RTCEx_TimeStampEventCallback(RTC_HandleTypeDef *hrtc)
 878:../../../../../../Drivers/STM32L0xx_HAL_Driver/Src/stm32l0xx_hal_rtc_ex.c **** {
 879:../../../../../../Drivers/STM32L0xx_HAL_Driver/Src/stm32l0xx_hal_rtc_ex.c ****   /* Prevent unused argument(s) compilation warning */
 880:../../../../../../Drivers/STM32L0xx_HAL_Driver/Src/stm32l0xx_hal_rtc_ex.c ****   UNUSED(hrtc);
 881:../../../../../../Drivers/STM32L0xx_HAL_Driver/Src/stm32l0xx_hal_rtc_ex.c **** 
ARM GAS  C:\Users\EBANO_~1\AppData\Local\Temp\ccyPWgHX.s 			page 35


 882:../../../../../../Drivers/STM32L0xx_HAL_Driver/Src/stm32l0xx_hal_rtc_ex.c ****   /* NOTE : This function should not be modified, when the callback is needed,
 883:../../../../../../Drivers/STM32L0xx_HAL_Driver/Src/stm32l0xx_hal_rtc_ex.c ****             the HAL_RTCEx_TimeStampEventCallback could be implemented in the user file
 884:../../../../../../Drivers/STM32L0xx_HAL_Driver/Src/stm32l0xx_hal_rtc_ex.c ****   */
 885:../../../../../../Drivers/STM32L0xx_HAL_Driver/Src/stm32l0xx_hal_rtc_ex.c **** }
 886:../../../../../../Drivers/STM32L0xx_HAL_Driver/Src/stm32l0xx_hal_rtc_ex.c **** 
 887:../../../../../../Drivers/STM32L0xx_HAL_Driver/Src/stm32l0xx_hal_rtc_ex.c **** /**
 888:../../../../../../Drivers/STM32L0xx_HAL_Driver/Src/stm32l0xx_hal_rtc_ex.c ****   * @brief  Tamper 1 callback.
 889:../../../../../../Drivers/STM32L0xx_HAL_Driver/Src/stm32l0xx_hal_rtc_ex.c ****   * @param  hrtc RTC handle
 890:../../../../../../Drivers/STM32L0xx_HAL_Driver/Src/stm32l0xx_hal_rtc_ex.c ****   * @retval None
 891:../../../../../../Drivers/STM32L0xx_HAL_Driver/Src/stm32l0xx_hal_rtc_ex.c ****   */
 892:../../../../../../Drivers/STM32L0xx_HAL_Driver/Src/stm32l0xx_hal_rtc_ex.c **** __weak void HAL_RTCEx_Tamper1EventCallback(RTC_HandleTypeDef *hrtc)
 893:../../../../../../Drivers/STM32L0xx_HAL_Driver/Src/stm32l0xx_hal_rtc_ex.c **** {
 1012              		.loc 1 893 0
 1013              		.cfi_startproc
 1014              		@ args = 0, pretend = 0, frame = 0
 1015              		@ frame_needed = 0, uses_anonymous_args = 0
 1016              		@ link register save eliminated.
 1017              	.LVL68:
 894:../../../../../../Drivers/STM32L0xx_HAL_Driver/Src/stm32l0xx_hal_rtc_ex.c ****   /* Prevent unused argument(s) compilation warning */
 895:../../../../../../Drivers/STM32L0xx_HAL_Driver/Src/stm32l0xx_hal_rtc_ex.c ****   UNUSED(hrtc);
 896:../../../../../../Drivers/STM32L0xx_HAL_Driver/Src/stm32l0xx_hal_rtc_ex.c **** 
 897:../../../../../../Drivers/STM32L0xx_HAL_Driver/Src/stm32l0xx_hal_rtc_ex.c ****   /* NOTE : This function should not be modified, when the callback is needed,
 898:../../../../../../Drivers/STM32L0xx_HAL_Driver/Src/stm32l0xx_hal_rtc_ex.c ****             the HAL_RTCEx_Tamper1EventCallback could be implemented in the user file
 899:../../../../../../Drivers/STM32L0xx_HAL_Driver/Src/stm32l0xx_hal_rtc_ex.c ****    */
 900:../../../../../../Drivers/STM32L0xx_HAL_Driver/Src/stm32l0xx_hal_rtc_ex.c **** }
 1018              		.loc 1 900 0
 1019              		@ sp needed
 1020 0000 7047     		bx	lr
 1021              		.cfi_endproc
 1022              	.LFE48:
 1023              		.size	HAL_RTCEx_Tamper1EventCallback, .-HAL_RTCEx_Tamper1EventCallback
 1024 0002 C046     		.section	.text.HAL_RTCEx_Tamper2EventCallback,"ax",%progbits
 1025              		.align	1
 1026              		.p2align 2,,3
 1027              		.weak	HAL_RTCEx_Tamper2EventCallback
 1028              		.syntax unified
 1029              		.code	16
 1030              		.thumb_func
 1031              		.fpu softvfp
 1032              		.type	HAL_RTCEx_Tamper2EventCallback, %function
 1033              	HAL_RTCEx_Tamper2EventCallback:
 1034              	.LFB75:
 1035              		.cfi_startproc
 1036              		@ args = 0, pretend = 0, frame = 0
 1037              		@ frame_needed = 0, uses_anonymous_args = 0
 1038              		@ link register save eliminated.
 1039              		@ sp needed
 1040 0000 7047     		bx	lr
 1041              		.cfi_endproc
 1042              	.LFE75:
 1043              		.size	HAL_RTCEx_Tamper2EventCallback, .-HAL_RTCEx_Tamper2EventCallback
 1044 0002 C046     		.section	.text.HAL_RTCEx_Tamper3EventCallback,"ax",%progbits
 1045              		.align	1
 1046              		.p2align 2,,3
 1047              		.weak	HAL_RTCEx_Tamper3EventCallback
 1048              		.syntax unified
 1049              		.code	16
ARM GAS  C:\Users\EBANO_~1\AppData\Local\Temp\ccyPWgHX.s 			page 36


 1050              		.thumb_func
 1051              		.fpu softvfp
 1052              		.type	HAL_RTCEx_Tamper3EventCallback, %function
 1053              	HAL_RTCEx_Tamper3EventCallback:
 1054              	.LFB77:
 1055              		.cfi_startproc
 1056              		@ args = 0, pretend = 0, frame = 0
 1057              		@ frame_needed = 0, uses_anonymous_args = 0
 1058              		@ link register save eliminated.
 1059              		@ sp needed
 1060 0000 7047     		bx	lr
 1061              		.cfi_endproc
 1062              	.LFE77:
 1063              		.size	HAL_RTCEx_Tamper3EventCallback, .-HAL_RTCEx_Tamper3EventCallback
 1064 0002 C046     		.section	.text.HAL_RTCEx_TamperTimeStampIRQHandler,"ax",%progbits
 1065              		.align	1
 1066              		.p2align 2,,3
 1067              		.global	HAL_RTCEx_TamperTimeStampIRQHandler
 1068              		.syntax unified
 1069              		.code	16
 1070              		.thumb_func
 1071              		.fpu softvfp
 1072              		.type	HAL_RTCEx_TamperTimeStampIRQHandler, %function
 1073              	HAL_RTCEx_TamperTimeStampIRQHandler:
 1074              	.LFB46:
 782:../../../../../../Drivers/STM32L0xx_HAL_Driver/Src/stm32l0xx_hal_rtc_ex.c ****   /* Get the TimeStamp interrupt source enable status */
 1075              		.loc 1 782 0
 1076              		.cfi_startproc
 1077              		@ args = 0, pretend = 0, frame = 0
 1078              		@ frame_needed = 0, uses_anonymous_args = 0
 1079              	.LVL69:
 784:../../../../../../Drivers/STM32L0xx_HAL_Driver/Src/stm32l0xx_hal_rtc_ex.c ****   {
 1080              		.loc 1 784 0
 1081 0000 0368     		ldr	r3, [r0]
 782:../../../../../../Drivers/STM32L0xx_HAL_Driver/Src/stm32l0xx_hal_rtc_ex.c ****   /* Get the TimeStamp interrupt source enable status */
 1082              		.loc 1 782 0
 1083 0002 10B5     		push	{r4, lr}
 1084              	.LCFI10:
 1085              		.cfi_def_cfa_offset 8
 1086              		.cfi_offset 4, -8
 1087              		.cfi_offset 14, -4
 784:../../../../../../Drivers/STM32L0xx_HAL_Driver/Src/stm32l0xx_hal_rtc_ex.c ****   {
 1088              		.loc 1 784 0
 1089 0004 9A68     		ldr	r2, [r3, #8]
 782:../../../../../../Drivers/STM32L0xx_HAL_Driver/Src/stm32l0xx_hal_rtc_ex.c ****   /* Get the TimeStamp interrupt source enable status */
 1090              		.loc 1 782 0
 1091 0006 0400     		movs	r4, r0
 784:../../../../../../Drivers/STM32L0xx_HAL_Driver/Src/stm32l0xx_hal_rtc_ex.c ****   {
 1092              		.loc 1 784 0
 1093 0008 1204     		lsls	r2, r2, #16
 1094 000a 02D5     		bpl	.L114
 787:../../../../../../Drivers/STM32L0xx_HAL_Driver/Src/stm32l0xx_hal_rtc_ex.c ****     {
 1095              		.loc 1 787 0
 1096 000c DA68     		ldr	r2, [r3, #12]
 1097 000e 1205     		lsls	r2, r2, #20
 1098 0010 27D4     		bmi	.L142
 1099              	.LVL70:
ARM GAS  C:\Users\EBANO_~1\AppData\Local\Temp\ccyPWgHX.s 			page 37


 1100              	.L114:
 805:../../../../../../Drivers/STM32L0xx_HAL_Driver/Src/stm32l0xx_hal_rtc_ex.c ****   {
 1101              		.loc 1 805 0
 1102 0012 196C     		ldr	r1, [r3, #64]
 1103 0014 234A     		ldr	r2, .L146
 1104 0016 1142     		tst	r1, r2
 1105 0018 02D0     		beq	.L115
 808:../../../../../../Drivers/STM32L0xx_HAL_Driver/Src/stm32l0xx_hal_rtc_ex.c ****     {
 1106              		.loc 1 808 0
 1107 001a DA68     		ldr	r2, [r3, #12]
 1108 001c 9204     		lsls	r2, r2, #18
 1109 001e 2AD4     		bmi	.L143
 1110              	.L115:
 826:../../../../../../Drivers/STM32L0xx_HAL_Driver/Src/stm32l0xx_hal_rtc_ex.c ****   {
 1111              		.loc 1 826 0
 1112 0020 196C     		ldr	r1, [r3, #64]
 1113 0022 214A     		ldr	r2, .L146+4
 1114 0024 1142     		tst	r1, r2
 1115 0026 02D0     		beq	.L116
 829:../../../../../../Drivers/STM32L0xx_HAL_Driver/Src/stm32l0xx_hal_rtc_ex.c ****     {
 1116              		.loc 1 829 0
 1117 0028 DA68     		ldr	r2, [r3, #12]
 1118 002a 5204     		lsls	r2, r2, #17
 1119 002c 2ED4     		bmi	.L144
 1120              	.L116:
 845:../../../../../../Drivers/STM32L0xx_HAL_Driver/Src/stm32l0xx_hal_rtc_ex.c ****   {
 1121              		.loc 1 845 0
 1122 002e 196C     		ldr	r1, [r3, #64]
 1123 0030 1E4A     		ldr	r2, .L146+8
 1124 0032 1142     		tst	r1, r2
 1125 0034 02D0     		beq	.L117
 848:../../../../../../Drivers/STM32L0xx_HAL_Driver/Src/stm32l0xx_hal_rtc_ex.c ****     {
 1126              		.loc 1 848 0
 1127 0036 DB68     		ldr	r3, [r3, #12]
 1128 0038 1B04     		lsls	r3, r3, #16
 1129 003a 07D4     		bmi	.L145
 1130              	.L117:
 866:../../../../../../Drivers/STM32L0xx_HAL_Driver/Src/stm32l0xx_hal_rtc_ex.c **** 
 1131              		.loc 1 866 0
 1132 003c 8022     		movs	r2, #128
 1133 003e 1C4B     		ldr	r3, .L146+12
 1134 0040 1203     		lsls	r2, r2, #12
 1135 0042 5A61     		str	r2, [r3, #20]
 869:../../../../../../Drivers/STM32L0xx_HAL_Driver/Src/stm32l0xx_hal_rtc_ex.c **** }
 1136              		.loc 1 869 0
 1137 0044 2123     		movs	r3, #33
 1138 0046 0122     		movs	r2, #1
 870:../../../../../../Drivers/STM32L0xx_HAL_Driver/Src/stm32l0xx_hal_rtc_ex.c **** 
 1139              		.loc 1 870 0
 1140              		@ sp needed
 869:../../../../../../Drivers/STM32L0xx_HAL_Driver/Src/stm32l0xx_hal_rtc_ex.c **** }
 1141              		.loc 1 869 0
 1142 0048 E254     		strb	r2, [r4, r3]
 1143              	.LVL71:
 870:../../../../../../Drivers/STM32L0xx_HAL_Driver/Src/stm32l0xx_hal_rtc_ex.c **** 
 1144              		.loc 1 870 0
 1145 004a 10BD     		pop	{r4, pc}
ARM GAS  C:\Users\EBANO_~1\AppData\Local\Temp\ccyPWgHX.s 			page 38


 1146              	.LVL72:
 1147              	.L145:
 851:../../../../../../Drivers/STM32L0xx_HAL_Driver/Src/stm32l0xx_hal_rtc_ex.c **** 
 1148              		.loc 1 851 0
 1149 004c 2000     		movs	r0, r4
 1150 004e FFF7FEFF 		bl	HAL_RTCEx_Tamper3EventCallback
 1151              	.LVL73:
 854:../../../../../../Drivers/STM32L0xx_HAL_Driver/Src/stm32l0xx_hal_rtc_ex.c ****     }
 1152              		.loc 1 854 0
 1153 0052 FF23     		movs	r3, #255
 1154 0054 2168     		ldr	r1, [r4]
 1155 0056 CA68     		ldr	r2, [r1, #12]
 1156 0058 1A40     		ands	r2, r3
 1157 005a 164B     		ldr	r3, .L146+16
 1158 005c 1343     		orrs	r3, r2
 1159 005e CB60     		str	r3, [r1, #12]
 1160 0060 ECE7     		b	.L117
 1161              	.LVL74:
 1162              	.L142:
 790:../../../../../../Drivers/STM32L0xx_HAL_Driver/Src/stm32l0xx_hal_rtc_ex.c ****       
 1163              		.loc 1 790 0
 1164 0062 FFF7FEFF 		bl	HAL_RTCEx_TimeStampEventCallback
 1165              	.LVL75:
 793:../../../../../../Drivers/STM32L0xx_HAL_Driver/Src/stm32l0xx_hal_rtc_ex.c ****     }
 1166              		.loc 1 793 0
 1167 0066 FF22     		movs	r2, #255
 1168 0068 2368     		ldr	r3, [r4]
 1169 006a D968     		ldr	r1, [r3, #12]
 1170 006c 1140     		ands	r1, r2
 1171 006e 124A     		ldr	r2, .L146+20
 1172 0070 0A43     		orrs	r2, r1
 1173 0072 DA60     		str	r2, [r3, #12]
 1174 0074 CDE7     		b	.L114
 1175              	.L143:
 811:../../../../../../Drivers/STM32L0xx_HAL_Driver/Src/stm32l0xx_hal_rtc_ex.c **** 
 1176              		.loc 1 811 0
 1177 0076 2000     		movs	r0, r4
 1178 0078 FFF7FEFF 		bl	HAL_RTCEx_Tamper1EventCallback
 1179              	.LVL76:
 814:../../../../../../Drivers/STM32L0xx_HAL_Driver/Src/stm32l0xx_hal_rtc_ex.c ****     }
 1180              		.loc 1 814 0
 1181 007c FF22     		movs	r2, #255
 1182 007e 2368     		ldr	r3, [r4]
 1183 0080 D968     		ldr	r1, [r3, #12]
 1184 0082 1140     		ands	r1, r2
 1185 0084 0D4A     		ldr	r2, .L146+24
 1186 0086 0A43     		orrs	r2, r1
 1187 0088 DA60     		str	r2, [r3, #12]
 1188 008a C9E7     		b	.L115
 1189              	.L144:
 832:../../../../../../Drivers/STM32L0xx_HAL_Driver/Src/stm32l0xx_hal_rtc_ex.c **** 
 1190              		.loc 1 832 0
 1191 008c 2000     		movs	r0, r4
 1192 008e FFF7FEFF 		bl	HAL_RTCEx_Tamper2EventCallback
 1193              	.LVL77:
 835:../../../../../../Drivers/STM32L0xx_HAL_Driver/Src/stm32l0xx_hal_rtc_ex.c ****     }
 1194              		.loc 1 835 0
ARM GAS  C:\Users\EBANO_~1\AppData\Local\Temp\ccyPWgHX.s 			page 39


 1195 0092 FF22     		movs	r2, #255
 1196 0094 2368     		ldr	r3, [r4]
 1197 0096 D968     		ldr	r1, [r3, #12]
 1198 0098 1140     		ands	r1, r2
 1199 009a 094A     		ldr	r2, .L146+28
 1200 009c 0A43     		orrs	r2, r1
 1201 009e DA60     		str	r2, [r3, #12]
 1202 00a0 C5E7     		b	.L116
 1203              	.L147:
 1204 00a2 C046     		.align	2
 1205              	.L146:
 1206 00a4 04000100 		.word	65540
 1207 00a8 04000800 		.word	524292
 1208 00ac 04004000 		.word	4194308
 1209 00b0 00040140 		.word	1073808384
 1210 00b4 7F7FFFFF 		.word	-32897
 1211 00b8 7FF7FFFF 		.word	-2177
 1212 00bc 7FDFFFFF 		.word	-8321
 1213 00c0 7FBFFFFF 		.word	-16513
 1214              		.cfi_endproc
 1215              	.LFE46:
 1216              		.size	HAL_RTCEx_TamperTimeStampIRQHandler, .-HAL_RTCEx_TamperTimeStampIRQHandler
 1217              		.section	.text.HAL_RTCEx_PollForTimeStampEvent,"ax",%progbits
 1218              		.align	1
 1219              		.p2align 2,,3
 1220              		.global	HAL_RTCEx_PollForTimeStampEvent
 1221              		.syntax unified
 1222              		.code	16
 1223              		.thumb_func
 1224              		.fpu softvfp
 1225              		.type	HAL_RTCEx_PollForTimeStampEvent, %function
 1226              	HAL_RTCEx_PollForTimeStampEvent:
 1227              	.LFB51:
 901:../../../../../../Drivers/STM32L0xx_HAL_Driver/Src/stm32l0xx_hal_rtc_ex.c **** 
 902:../../../../../../Drivers/STM32L0xx_HAL_Driver/Src/stm32l0xx_hal_rtc_ex.c **** /**
 903:../../../../../../Drivers/STM32L0xx_HAL_Driver/Src/stm32l0xx_hal_rtc_ex.c ****   * @brief  Tamper 2 callback. 
 904:../../../../../../Drivers/STM32L0xx_HAL_Driver/Src/stm32l0xx_hal_rtc_ex.c ****   * @param  hrtc RTC handle
 905:../../../../../../Drivers/STM32L0xx_HAL_Driver/Src/stm32l0xx_hal_rtc_ex.c ****   * @retval None
 906:../../../../../../Drivers/STM32L0xx_HAL_Driver/Src/stm32l0xx_hal_rtc_ex.c ****   */
 907:../../../../../../Drivers/STM32L0xx_HAL_Driver/Src/stm32l0xx_hal_rtc_ex.c **** __weak void HAL_RTCEx_Tamper2EventCallback(RTC_HandleTypeDef *hrtc)
 908:../../../../../../Drivers/STM32L0xx_HAL_Driver/Src/stm32l0xx_hal_rtc_ex.c **** {
 909:../../../../../../Drivers/STM32L0xx_HAL_Driver/Src/stm32l0xx_hal_rtc_ex.c ****   /* Prevent unused argument(s) compilation warning */
 910:../../../../../../Drivers/STM32L0xx_HAL_Driver/Src/stm32l0xx_hal_rtc_ex.c ****   UNUSED(hrtc);
 911:../../../../../../Drivers/STM32L0xx_HAL_Driver/Src/stm32l0xx_hal_rtc_ex.c **** 
 912:../../../../../../Drivers/STM32L0xx_HAL_Driver/Src/stm32l0xx_hal_rtc_ex.c ****   /* NOTE : This function should not be modified, when the callback is needed,
 913:../../../../../../Drivers/STM32L0xx_HAL_Driver/Src/stm32l0xx_hal_rtc_ex.c ****             the HAL_RTCEx_Tamper2EventCallback could be implemented in the user file
 914:../../../../../../Drivers/STM32L0xx_HAL_Driver/Src/stm32l0xx_hal_rtc_ex.c ****    */
 915:../../../../../../Drivers/STM32L0xx_HAL_Driver/Src/stm32l0xx_hal_rtc_ex.c **** }
 916:../../../../../../Drivers/STM32L0xx_HAL_Driver/Src/stm32l0xx_hal_rtc_ex.c **** 
 917:../../../../../../Drivers/STM32L0xx_HAL_Driver/Src/stm32l0xx_hal_rtc_ex.c **** 
 918:../../../../../../Drivers/STM32L0xx_HAL_Driver/Src/stm32l0xx_hal_rtc_ex.c **** #if defined (STM32L083xx) || defined (STM32L082xx) || defined (STM32L081xx) || \
 919:../../../../../../Drivers/STM32L0xx_HAL_Driver/Src/stm32l0xx_hal_rtc_ex.c ****     defined (STM32L073xx) || defined (STM32L072xx) || defined (STM32L071xx) || \
 920:../../../../../../Drivers/STM32L0xx_HAL_Driver/Src/stm32l0xx_hal_rtc_ex.c ****     defined (STM32L031xx) || defined (STM32L041xx) || defined (STM32L011xx) || \
 921:../../../../../../Drivers/STM32L0xx_HAL_Driver/Src/stm32l0xx_hal_rtc_ex.c ****     defined (STM32L021xx) || defined (STM32L010x4) || defined (STM32L010x6) || \
 922:../../../../../../Drivers/STM32L0xx_HAL_Driver/Src/stm32l0xx_hal_rtc_ex.c ****     defined (STM32L010xB)
 923:../../../../../../Drivers/STM32L0xx_HAL_Driver/Src/stm32l0xx_hal_rtc_ex.c **** /**
 924:../../../../../../Drivers/STM32L0xx_HAL_Driver/Src/stm32l0xx_hal_rtc_ex.c ****   * @brief  Tamper 3 callback. 
ARM GAS  C:\Users\EBANO_~1\AppData\Local\Temp\ccyPWgHX.s 			page 40


 925:../../../../../../Drivers/STM32L0xx_HAL_Driver/Src/stm32l0xx_hal_rtc_ex.c ****   * @param  hrtc RTC handle
 926:../../../../../../Drivers/STM32L0xx_HAL_Driver/Src/stm32l0xx_hal_rtc_ex.c ****   * @retval None
 927:../../../../../../Drivers/STM32L0xx_HAL_Driver/Src/stm32l0xx_hal_rtc_ex.c ****   */
 928:../../../../../../Drivers/STM32L0xx_HAL_Driver/Src/stm32l0xx_hal_rtc_ex.c **** __weak void HAL_RTCEx_Tamper3EventCallback(RTC_HandleTypeDef *hrtc)
 929:../../../../../../Drivers/STM32L0xx_HAL_Driver/Src/stm32l0xx_hal_rtc_ex.c **** {
 930:../../../../../../Drivers/STM32L0xx_HAL_Driver/Src/stm32l0xx_hal_rtc_ex.c ****   /* Prevent unused argument(s) compilation warning */
 931:../../../../../../Drivers/STM32L0xx_HAL_Driver/Src/stm32l0xx_hal_rtc_ex.c ****   UNUSED(hrtc);
 932:../../../../../../Drivers/STM32L0xx_HAL_Driver/Src/stm32l0xx_hal_rtc_ex.c **** 
 933:../../../../../../Drivers/STM32L0xx_HAL_Driver/Src/stm32l0xx_hal_rtc_ex.c ****   /* NOTE : This function should not be modified, when the callback is needed,
 934:../../../../../../Drivers/STM32L0xx_HAL_Driver/Src/stm32l0xx_hal_rtc_ex.c ****             the HAL_RTCEx_Tamper3EventCallback could be implemented in the user file
 935:../../../../../../Drivers/STM32L0xx_HAL_Driver/Src/stm32l0xx_hal_rtc_ex.c ****    */
 936:../../../../../../Drivers/STM32L0xx_HAL_Driver/Src/stm32l0xx_hal_rtc_ex.c **** }
 937:../../../../../../Drivers/STM32L0xx_HAL_Driver/Src/stm32l0xx_hal_rtc_ex.c **** 
 938:../../../../../../Drivers/STM32L0xx_HAL_Driver/Src/stm32l0xx_hal_rtc_ex.c **** #endif /* (STM32L083xx) || (STM32L082xx) || (STM32L081xx) ||
 939:../../../../../../Drivers/STM32L0xx_HAL_Driver/Src/stm32l0xx_hal_rtc_ex.c ****         * (STM32L073xx) || (STM32L072xx) || (STM32L071xx) ||
 940:../../../../../../Drivers/STM32L0xx_HAL_Driver/Src/stm32l0xx_hal_rtc_ex.c ****         * (STM32L031xx) || (STM32L041xx) || (STM32L011xx) ||
 941:../../../../../../Drivers/STM32L0xx_HAL_Driver/Src/stm32l0xx_hal_rtc_ex.c ****         * (STM32L021xx) || (STM32L010x4) || (STM32L010x6) ||
 942:../../../../../../Drivers/STM32L0xx_HAL_Driver/Src/stm32l0xx_hal_rtc_ex.c ****         * (STM32L010xB)
 943:../../../../../../Drivers/STM32L0xx_HAL_Driver/Src/stm32l0xx_hal_rtc_ex.c ****         */
 944:../../../../../../Drivers/STM32L0xx_HAL_Driver/Src/stm32l0xx_hal_rtc_ex.c **** 
 945:../../../../../../Drivers/STM32L0xx_HAL_Driver/Src/stm32l0xx_hal_rtc_ex.c **** /**
 946:../../../../../../Drivers/STM32L0xx_HAL_Driver/Src/stm32l0xx_hal_rtc_ex.c ****   * @brief  Handle TimeStamp polling request.
 947:../../../../../../Drivers/STM32L0xx_HAL_Driver/Src/stm32l0xx_hal_rtc_ex.c ****   * @param  hrtc RTC handle
 948:../../../../../../Drivers/STM32L0xx_HAL_Driver/Src/stm32l0xx_hal_rtc_ex.c ****   * @param  Timeout Timeout duration
 949:../../../../../../Drivers/STM32L0xx_HAL_Driver/Src/stm32l0xx_hal_rtc_ex.c ****   * @retval HAL status
 950:../../../../../../Drivers/STM32L0xx_HAL_Driver/Src/stm32l0xx_hal_rtc_ex.c ****   */
 951:../../../../../../Drivers/STM32L0xx_HAL_Driver/Src/stm32l0xx_hal_rtc_ex.c **** HAL_StatusTypeDef HAL_RTCEx_PollForTimeStampEvent(RTC_HandleTypeDef *hrtc, uint32_t Timeout)
 952:../../../../../../Drivers/STM32L0xx_HAL_Driver/Src/stm32l0xx_hal_rtc_ex.c **** { 
 1228              		.loc 1 952 0
 1229              		.cfi_startproc
 1230              		@ args = 0, pretend = 0, frame = 0
 1231              		@ frame_needed = 0, uses_anonymous_args = 0
 1232              	.LVL78:
 1233 0000 F0B5     		push	{r4, r5, r6, r7, lr}
 1234              	.LCFI11:
 1235              		.cfi_def_cfa_offset 20
 1236              		.cfi_offset 4, -20
 1237              		.cfi_offset 5, -16
 1238              		.cfi_offset 6, -12
 1239              		.cfi_offset 7, -8
 1240              		.cfi_offset 14, -4
 1241 0002 C646     		mov	lr, r8
 1242 0004 00B5     		push	{lr}
 1243              	.LCFI12:
 1244              		.cfi_def_cfa_offset 24
 1245              		.cfi_offset 8, -24
 1246              		.loc 1 952 0
 1247 0006 0400     		movs	r4, r0
 1248 0008 0D00     		movs	r5, r1
 953:../../../../../../Drivers/STM32L0xx_HAL_Driver/Src/stm32l0xx_hal_rtc_ex.c ****   uint32_t tickstart = HAL_GetTick();
 1249              		.loc 1 953 0
 1250 000a FFF7FEFF 		bl	HAL_GetTick
 1251              	.LVL79:
 954:../../../../../../Drivers/STM32L0xx_HAL_Driver/Src/stm32l0xx_hal_rtc_ex.c **** 
 955:../../../../../../Drivers/STM32L0xx_HAL_Driver/Src/stm32l0xx_hal_rtc_ex.c ****   while(__HAL_RTC_TIMESTAMP_GET_FLAG(hrtc, RTC_FLAG_TSF) == RESET)
 1252              		.loc 1 955 0
 1253 000e 8026     		movs	r6, #128
ARM GAS  C:\Users\EBANO_~1\AppData\Local\Temp\ccyPWgHX.s 			page 41


 956:../../../../../../Drivers/STM32L0xx_HAL_Driver/Src/stm32l0xx_hal_rtc_ex.c ****   {
 957:../../../../../../Drivers/STM32L0xx_HAL_Driver/Src/stm32l0xx_hal_rtc_ex.c ****     if(__HAL_RTC_TIMESTAMP_GET_FLAG(hrtc, RTC_FLAG_TSOVF) != RESET)
 1254              		.loc 1 957 0
 1255 0010 8027     		movs	r7, #128
 953:../../../../../../Drivers/STM32L0xx_HAL_Driver/Src/stm32l0xx_hal_rtc_ex.c **** 
 1256              		.loc 1 953 0
 1257 0012 8046     		mov	r8, r0
 1258              	.LVL80:
 955:../../../../../../Drivers/STM32L0xx_HAL_Driver/Src/stm32l0xx_hal_rtc_ex.c ****   {
 1259              		.loc 1 955 0
 1260 0014 3601     		lsls	r6, r6, #4
 1261              		.loc 1 957 0
 1262 0016 7F01     		lsls	r7, r7, #5
 1263              	.LVL81:
 1264              	.L149:
 955:../../../../../../Drivers/STM32L0xx_HAL_Driver/Src/stm32l0xx_hal_rtc_ex.c ****   {
 1265              		.loc 1 955 0
 1266 0018 2368     		ldr	r3, [r4]
 1267 001a 6A1C     		adds	r2, r5, #1
 1268 001c 11D1     		bne	.L154
 1269 001e 8021     		movs	r1, #128
 1270              		.loc 1 957 0
 1271 0020 8020     		movs	r0, #128
 955:../../../../../../Drivers/STM32L0xx_HAL_Driver/Src/stm32l0xx_hal_rtc_ex.c ****   {
 1272              		.loc 1 955 0
 1273 0022 0901     		lsls	r1, r1, #4
 1274              		.loc 1 957 0
 1275 0024 4001     		lsls	r0, r0, #5
 1276 0026 02E0     		b	.L157
 1277              	.L159:
 1278 0028 DA68     		ldr	r2, [r3, #12]
 1279 002a 0242     		tst	r2, r0
 1280 002c 1CD1     		bne	.L156
 1281              	.L157:
 955:../../../../../../Drivers/STM32L0xx_HAL_Driver/Src/stm32l0xx_hal_rtc_ex.c ****   {
 1282              		.loc 1 955 0
 1283 002e DA68     		ldr	r2, [r3, #12]
 1284 0030 0A42     		tst	r2, r1
 1285 0032 F9D0     		beq	.L159
 1286              	.L155:
 958:../../../../../../Drivers/STM32L0xx_HAL_Driver/Src/stm32l0xx_hal_rtc_ex.c ****     {
 959:../../../../../../Drivers/STM32L0xx_HAL_Driver/Src/stm32l0xx_hal_rtc_ex.c ****       /* Clear the TIMESTAMP OverRun Flag */
 960:../../../../../../Drivers/STM32L0xx_HAL_Driver/Src/stm32l0xx_hal_rtc_ex.c ****       __HAL_RTC_TIMESTAMP_CLEAR_FLAG(hrtc, RTC_FLAG_TSOVF);
 961:../../../../../../Drivers/STM32L0xx_HAL_Driver/Src/stm32l0xx_hal_rtc_ex.c **** 
 962:../../../../../../Drivers/STM32L0xx_HAL_Driver/Src/stm32l0xx_hal_rtc_ex.c ****       /* Change TIMESTAMP state */
 963:../../../../../../Drivers/STM32L0xx_HAL_Driver/Src/stm32l0xx_hal_rtc_ex.c ****       hrtc->State = HAL_RTC_STATE_ERROR; 
 964:../../../../../../Drivers/STM32L0xx_HAL_Driver/Src/stm32l0xx_hal_rtc_ex.c **** 
 965:../../../../../../Drivers/STM32L0xx_HAL_Driver/Src/stm32l0xx_hal_rtc_ex.c ****       return HAL_ERROR; 
 966:../../../../../../Drivers/STM32L0xx_HAL_Driver/Src/stm32l0xx_hal_rtc_ex.c ****     }
 967:../../../../../../Drivers/STM32L0xx_HAL_Driver/Src/stm32l0xx_hal_rtc_ex.c **** 
 968:../../../../../../Drivers/STM32L0xx_HAL_Driver/Src/stm32l0xx_hal_rtc_ex.c ****     if(Timeout != HAL_MAX_DELAY)
 969:../../../../../../Drivers/STM32L0xx_HAL_Driver/Src/stm32l0xx_hal_rtc_ex.c ****     {
 970:../../../../../../Drivers/STM32L0xx_HAL_Driver/Src/stm32l0xx_hal_rtc_ex.c ****       if((Timeout == 0U)||((HAL_GetTick() - tickstart ) > Timeout))
 971:../../../../../../Drivers/STM32L0xx_HAL_Driver/Src/stm32l0xx_hal_rtc_ex.c ****       {
 972:../../../../../../Drivers/STM32L0xx_HAL_Driver/Src/stm32l0xx_hal_rtc_ex.c ****         hrtc->State = HAL_RTC_STATE_TIMEOUT;
 973:../../../../../../Drivers/STM32L0xx_HAL_Driver/Src/stm32l0xx_hal_rtc_ex.c ****         return HAL_TIMEOUT;
 974:../../../../../../Drivers/STM32L0xx_HAL_Driver/Src/stm32l0xx_hal_rtc_ex.c ****       }
ARM GAS  C:\Users\EBANO_~1\AppData\Local\Temp\ccyPWgHX.s 			page 42


 975:../../../../../../Drivers/STM32L0xx_HAL_Driver/Src/stm32l0xx_hal_rtc_ex.c ****     }
 976:../../../../../../Drivers/STM32L0xx_HAL_Driver/Src/stm32l0xx_hal_rtc_ex.c ****   }
 977:../../../../../../Drivers/STM32L0xx_HAL_Driver/Src/stm32l0xx_hal_rtc_ex.c **** 
 978:../../../../../../Drivers/STM32L0xx_HAL_Driver/Src/stm32l0xx_hal_rtc_ex.c ****   /* Change RTC state */
 979:../../../../../../Drivers/STM32L0xx_HAL_Driver/Src/stm32l0xx_hal_rtc_ex.c ****   hrtc->State = HAL_RTC_STATE_READY;
 1287              		.loc 1 979 0
 1288 0034 2123     		movs	r3, #33
 1289 0036 0122     		movs	r2, #1
 980:../../../../../../Drivers/STM32L0xx_HAL_Driver/Src/stm32l0xx_hal_rtc_ex.c ****   
 981:../../../../../../Drivers/STM32L0xx_HAL_Driver/Src/stm32l0xx_hal_rtc_ex.c ****   return HAL_OK;
 1290              		.loc 1 981 0
 1291 0038 0020     		movs	r0, #0
 979:../../../../../../Drivers/STM32L0xx_HAL_Driver/Src/stm32l0xx_hal_rtc_ex.c ****   
 1292              		.loc 1 979 0
 1293 003a E254     		strb	r2, [r4, r3]
 1294              	.L151:
 982:../../../../../../Drivers/STM32L0xx_HAL_Driver/Src/stm32l0xx_hal_rtc_ex.c **** }
 1295              		.loc 1 982 0
 1296              		@ sp needed
 1297              	.LVL82:
 1298              	.LVL83:
 1299              	.LVL84:
 1300 003c 04BC     		pop	{r2}
 1301 003e 9046     		mov	r8, r2
 1302 0040 F0BD     		pop	{r4, r5, r6, r7, pc}
 1303              	.LVL85:
 1304              	.L154:
 955:../../../../../../Drivers/STM32L0xx_HAL_Driver/Src/stm32l0xx_hal_rtc_ex.c ****   {
 1305              		.loc 1 955 0
 1306 0042 DA68     		ldr	r2, [r3, #12]
 1307 0044 3242     		tst	r2, r6
 1308 0046 F5D1     		bne	.L155
 957:../../../../../../Drivers/STM32L0xx_HAL_Driver/Src/stm32l0xx_hal_rtc_ex.c ****     {
 1309              		.loc 1 957 0
 1310 0048 DA68     		ldr	r2, [r3, #12]
 1311 004a 3A42     		tst	r2, r7
 1312 004c 0CD1     		bne	.L156
 970:../../../../../../Drivers/STM32L0xx_HAL_Driver/Src/stm32l0xx_hal_rtc_ex.c ****       {
 1313              		.loc 1 970 0
 1314 004e 002D     		cmp	r5, #0
 1315 0050 05D0     		beq	.L153
 970:../../../../../../Drivers/STM32L0xx_HAL_Driver/Src/stm32l0xx_hal_rtc_ex.c ****       {
 1316              		.loc 1 970 0 is_stmt 0 discriminator 1
 1317 0052 FFF7FEFF 		bl	HAL_GetTick
 1318              	.LVL86:
 1319 0056 4346     		mov	r3, r8
 1320 0058 C01A     		subs	r0, r0, r3
 1321 005a A842     		cmp	r0, r5
 1322 005c DCD9     		bls	.L149
 1323              	.L153:
 972:../../../../../../Drivers/STM32L0xx_HAL_Driver/Src/stm32l0xx_hal_rtc_ex.c ****         return HAL_TIMEOUT;
 1324              		.loc 1 972 0 is_stmt 1
 1325 005e 2123     		movs	r3, #33
 1326 0060 0322     		movs	r2, #3
 973:../../../../../../Drivers/STM32L0xx_HAL_Driver/Src/stm32l0xx_hal_rtc_ex.c ****       }
 1327              		.loc 1 973 0
 1328 0062 0320     		movs	r0, #3
ARM GAS  C:\Users\EBANO_~1\AppData\Local\Temp\ccyPWgHX.s 			page 43


 972:../../../../../../Drivers/STM32L0xx_HAL_Driver/Src/stm32l0xx_hal_rtc_ex.c ****         return HAL_TIMEOUT;
 1329              		.loc 1 972 0
 1330 0064 E254     		strb	r2, [r4, r3]
 973:../../../../../../Drivers/STM32L0xx_HAL_Driver/Src/stm32l0xx_hal_rtc_ex.c ****       }
 1331              		.loc 1 973 0
 1332 0066 E9E7     		b	.L151
 1333              	.L156:
 960:../../../../../../Drivers/STM32L0xx_HAL_Driver/Src/stm32l0xx_hal_rtc_ex.c **** 
 1334              		.loc 1 960 0
 1335 0068 FF22     		movs	r2, #255
 1336 006a D968     		ldr	r1, [r3, #12]
 965:../../../../../../Drivers/STM32L0xx_HAL_Driver/Src/stm32l0xx_hal_rtc_ex.c ****     }
 1337              		.loc 1 965 0
 1338 006c 0120     		movs	r0, #1
 960:../../../../../../Drivers/STM32L0xx_HAL_Driver/Src/stm32l0xx_hal_rtc_ex.c **** 
 1339              		.loc 1 960 0
 1340 006e 1140     		ands	r1, r2
 1341 0070 034A     		ldr	r2, .L160
 1342 0072 0A43     		orrs	r2, r1
 1343 0074 DA60     		str	r2, [r3, #12]
 963:../../../../../../Drivers/STM32L0xx_HAL_Driver/Src/stm32l0xx_hal_rtc_ex.c **** 
 1344              		.loc 1 963 0
 1345 0076 2123     		movs	r3, #33
 1346 0078 0422     		movs	r2, #4
 1347 007a E254     		strb	r2, [r4, r3]
 965:../../../../../../Drivers/STM32L0xx_HAL_Driver/Src/stm32l0xx_hal_rtc_ex.c ****     }
 1348              		.loc 1 965 0
 1349 007c DEE7     		b	.L151
 1350              	.L161:
 1351 007e C046     		.align	2
 1352              	.L160:
 1353 0080 7FEFFFFF 		.word	-4225
 1354              		.cfi_endproc
 1355              	.LFE51:
 1356              		.size	HAL_RTCEx_PollForTimeStampEvent, .-HAL_RTCEx_PollForTimeStampEvent
 1357              		.section	.text.HAL_RTCEx_PollForTamper1Event,"ax",%progbits
 1358              		.align	1
 1359              		.p2align 2,,3
 1360              		.global	HAL_RTCEx_PollForTamper1Event
 1361              		.syntax unified
 1362              		.code	16
 1363              		.thumb_func
 1364              		.fpu softvfp
 1365              		.type	HAL_RTCEx_PollForTamper1Event, %function
 1366              	HAL_RTCEx_PollForTamper1Event:
 1367              	.LFB52:
 983:../../../../../../Drivers/STM32L0xx_HAL_Driver/Src/stm32l0xx_hal_rtc_ex.c **** 
 984:../../../../../../Drivers/STM32L0xx_HAL_Driver/Src/stm32l0xx_hal_rtc_ex.c **** #if defined (STM32L063xx) || defined (STM32L062xx) || defined (STM32L061xx) || \
 985:../../../../../../Drivers/STM32L0xx_HAL_Driver/Src/stm32l0xx_hal_rtc_ex.c ****     defined (STM32L053xx) || defined (STM32L052xx) || defined (STM32L051xx) ||\
 986:../../../../../../Drivers/STM32L0xx_HAL_Driver/Src/stm32l0xx_hal_rtc_ex.c ****     defined (STM32L083xx) || defined (STM32L082xx) || defined (STM32L081xx) || \
 987:../../../../../../Drivers/STM32L0xx_HAL_Driver/Src/stm32l0xx_hal_rtc_ex.c ****     defined (STM32L073xx) || defined (STM32L072xx) || defined (STM32L071xx) || \
 988:../../../../../../Drivers/STM32L0xx_HAL_Driver/Src/stm32l0xx_hal_rtc_ex.c ****     defined (STM32L031xx) || defined (STM32L041xx) || defined (STM32L010xB) || \
 989:../../../../../../Drivers/STM32L0xx_HAL_Driver/Src/stm32l0xx_hal_rtc_ex.c ****     defined (STM32L010x8) || defined (STM32L010x6)
 990:../../../../../../Drivers/STM32L0xx_HAL_Driver/Src/stm32l0xx_hal_rtc_ex.c **** /**
 991:../../../../../../Drivers/STM32L0xx_HAL_Driver/Src/stm32l0xx_hal_rtc_ex.c ****   * @brief  Handle Tamper 1 Polling.
 992:../../../../../../Drivers/STM32L0xx_HAL_Driver/Src/stm32l0xx_hal_rtc_ex.c ****   * @param  hrtc RTC handle
 993:../../../../../../Drivers/STM32L0xx_HAL_Driver/Src/stm32l0xx_hal_rtc_ex.c ****   * @param  Timeout Timeout duration
ARM GAS  C:\Users\EBANO_~1\AppData\Local\Temp\ccyPWgHX.s 			page 44


 994:../../../../../../Drivers/STM32L0xx_HAL_Driver/Src/stm32l0xx_hal_rtc_ex.c ****   * @retval HAL status
 995:../../../../../../Drivers/STM32L0xx_HAL_Driver/Src/stm32l0xx_hal_rtc_ex.c ****   */
 996:../../../../../../Drivers/STM32L0xx_HAL_Driver/Src/stm32l0xx_hal_rtc_ex.c **** HAL_StatusTypeDef HAL_RTCEx_PollForTamper1Event(RTC_HandleTypeDef *hrtc, uint32_t Timeout)
 997:../../../../../../Drivers/STM32L0xx_HAL_Driver/Src/stm32l0xx_hal_rtc_ex.c **** {
 1368              		.loc 1 997 0
 1369              		.cfi_startproc
 1370              		@ args = 0, pretend = 0, frame = 0
 1371              		@ frame_needed = 0, uses_anonymous_args = 0
 1372              	.LVL87:
 1373 0000 F8B5     		push	{r3, r4, r5, r6, r7, lr}
 1374              	.LCFI13:
 1375              		.cfi_def_cfa_offset 24
 1376              		.cfi_offset 3, -24
 1377              		.cfi_offset 4, -20
 1378              		.cfi_offset 5, -16
 1379              		.cfi_offset 6, -12
 1380              		.cfi_offset 7, -8
 1381              		.cfi_offset 14, -4
 1382              		.loc 1 997 0
 1383 0002 0500     		movs	r5, r0
 1384 0004 0C00     		movs	r4, r1
 998:../../../../../../Drivers/STM32L0xx_HAL_Driver/Src/stm32l0xx_hal_rtc_ex.c ****   uint32_t tickstart = HAL_GetTick();
 1385              		.loc 1 998 0
 1386 0006 FFF7FEFF 		bl	HAL_GetTick
 1387              	.LVL88:
 999:../../../../../../Drivers/STM32L0xx_HAL_Driver/Src/stm32l0xx_hal_rtc_ex.c **** 
1000:../../../../../../Drivers/STM32L0xx_HAL_Driver/Src/stm32l0xx_hal_rtc_ex.c ****   /* Get the status of the Interrupt */
1001:../../../../../../Drivers/STM32L0xx_HAL_Driver/Src/stm32l0xx_hal_rtc_ex.c ****   while(__HAL_RTC_TAMPER_GET_FLAG(hrtc, RTC_FLAG_TAMP1F)== RESET)
 1388              		.loc 1 1001 0
 1389 000a 8026     		movs	r6, #128
 998:../../../../../../Drivers/STM32L0xx_HAL_Driver/Src/stm32l0xx_hal_rtc_ex.c ****   uint32_t tickstart = HAL_GetTick();
 1390              		.loc 1 998 0
 1391 000c 0700     		movs	r7, r0
 1392              	.LVL89:
 1393              		.loc 1 1001 0
 1394 000e B601     		lsls	r6, r6, #6
 1395              	.LVL90:
 1396              	.L163:
 1397 0010 2A68     		ldr	r2, [r5]
 1398 0012 631C     		adds	r3, r4, #1
 1399 0014 0FD1     		bne	.L167
 1400 0016 8021     		movs	r1, #128
 1401 0018 8901     		lsls	r1, r1, #6
 1402              	.L168:
 1403 001a D368     		ldr	r3, [r2, #12]
 1404 001c 0B42     		tst	r3, r1
 1405 001e FCD0     		beq	.L168
 1406              	.L169:
1002:../../../../../../Drivers/STM32L0xx_HAL_Driver/Src/stm32l0xx_hal_rtc_ex.c ****   {
1003:../../../../../../Drivers/STM32L0xx_HAL_Driver/Src/stm32l0xx_hal_rtc_ex.c ****     if(Timeout != HAL_MAX_DELAY)
1004:../../../../../../Drivers/STM32L0xx_HAL_Driver/Src/stm32l0xx_hal_rtc_ex.c ****     {
1005:../../../../../../Drivers/STM32L0xx_HAL_Driver/Src/stm32l0xx_hal_rtc_ex.c ****       if((Timeout == 0U)||((HAL_GetTick() - tickstart ) > Timeout))
1006:../../../../../../Drivers/STM32L0xx_HAL_Driver/Src/stm32l0xx_hal_rtc_ex.c ****       {
1007:../../../../../../Drivers/STM32L0xx_HAL_Driver/Src/stm32l0xx_hal_rtc_ex.c ****         hrtc->State = HAL_RTC_STATE_TIMEOUT;
1008:../../../../../../Drivers/STM32L0xx_HAL_Driver/Src/stm32l0xx_hal_rtc_ex.c ****         return HAL_TIMEOUT;
1009:../../../../../../Drivers/STM32L0xx_HAL_Driver/Src/stm32l0xx_hal_rtc_ex.c ****       }
1010:../../../../../../Drivers/STM32L0xx_HAL_Driver/Src/stm32l0xx_hal_rtc_ex.c ****     }
ARM GAS  C:\Users\EBANO_~1\AppData\Local\Temp\ccyPWgHX.s 			page 45


1011:../../../../../../Drivers/STM32L0xx_HAL_Driver/Src/stm32l0xx_hal_rtc_ex.c ****   }
1012:../../../../../../Drivers/STM32L0xx_HAL_Driver/Src/stm32l0xx_hal_rtc_ex.c **** 
1013:../../../../../../Drivers/STM32L0xx_HAL_Driver/Src/stm32l0xx_hal_rtc_ex.c ****   /* Clear the Tamper Flag */
1014:../../../../../../Drivers/STM32L0xx_HAL_Driver/Src/stm32l0xx_hal_rtc_ex.c ****   __HAL_RTC_TAMPER_CLEAR_FLAG(hrtc,RTC_FLAG_TAMP1F);
 1407              		.loc 1 1014 0
 1408 0020 FF23     		movs	r3, #255
 1409 0022 D168     		ldr	r1, [r2, #12]
1015:../../../../../../Drivers/STM32L0xx_HAL_Driver/Src/stm32l0xx_hal_rtc_ex.c ****   
1016:../../../../../../Drivers/STM32L0xx_HAL_Driver/Src/stm32l0xx_hal_rtc_ex.c ****   /* Change RTC state */
1017:../../../../../../Drivers/STM32L0xx_HAL_Driver/Src/stm32l0xx_hal_rtc_ex.c ****   hrtc->State = HAL_RTC_STATE_READY;
1018:../../../../../../Drivers/STM32L0xx_HAL_Driver/Src/stm32l0xx_hal_rtc_ex.c ****   
1019:../../../../../../Drivers/STM32L0xx_HAL_Driver/Src/stm32l0xx_hal_rtc_ex.c ****   return HAL_OK; 
 1410              		.loc 1 1019 0
 1411 0024 0020     		movs	r0, #0
1014:../../../../../../Drivers/STM32L0xx_HAL_Driver/Src/stm32l0xx_hal_rtc_ex.c ****   
 1412              		.loc 1 1014 0
 1413 0026 1940     		ands	r1, r3
 1414 0028 0A4B     		ldr	r3, .L173
 1415 002a 0B43     		orrs	r3, r1
 1416 002c D360     		str	r3, [r2, #12]
1017:../../../../../../Drivers/STM32L0xx_HAL_Driver/Src/stm32l0xx_hal_rtc_ex.c ****   
 1417              		.loc 1 1017 0
 1418 002e 2123     		movs	r3, #33
 1419 0030 0122     		movs	r2, #1
 1420 0032 EA54     		strb	r2, [r5, r3]
 1421              	.L165:
1020:../../../../../../Drivers/STM32L0xx_HAL_Driver/Src/stm32l0xx_hal_rtc_ex.c **** }
 1422              		.loc 1 1020 0
 1423              		@ sp needed
 1424              	.LVL91:
 1425              	.LVL92:
 1426              	.LVL93:
 1427 0034 F8BD     		pop	{r3, r4, r5, r6, r7, pc}
 1428              	.LVL94:
 1429              	.L167:
1001:../../../../../../Drivers/STM32L0xx_HAL_Driver/Src/stm32l0xx_hal_rtc_ex.c ****   {
 1430              		.loc 1 1001 0
 1431 0036 D368     		ldr	r3, [r2, #12]
 1432 0038 3342     		tst	r3, r6
 1433 003a F1D1     		bne	.L169
1005:../../../../../../Drivers/STM32L0xx_HAL_Driver/Src/stm32l0xx_hal_rtc_ex.c ****       {
 1434              		.loc 1 1005 0
 1435 003c 002C     		cmp	r4, #0
 1436 003e 04D0     		beq	.L166
1005:../../../../../../Drivers/STM32L0xx_HAL_Driver/Src/stm32l0xx_hal_rtc_ex.c ****       {
 1437              		.loc 1 1005 0 is_stmt 0 discriminator 1
 1438 0040 FFF7FEFF 		bl	HAL_GetTick
 1439              	.LVL95:
 1440 0044 C01B     		subs	r0, r0, r7
 1441 0046 A042     		cmp	r0, r4
 1442 0048 E2D9     		bls	.L163
 1443              	.L166:
1007:../../../../../../Drivers/STM32L0xx_HAL_Driver/Src/stm32l0xx_hal_rtc_ex.c ****         return HAL_TIMEOUT;
 1444              		.loc 1 1007 0 is_stmt 1
 1445 004a 2123     		movs	r3, #33
 1446 004c 0322     		movs	r2, #3
1008:../../../../../../Drivers/STM32L0xx_HAL_Driver/Src/stm32l0xx_hal_rtc_ex.c ****       }
ARM GAS  C:\Users\EBANO_~1\AppData\Local\Temp\ccyPWgHX.s 			page 46


 1447              		.loc 1 1008 0
 1448 004e 0320     		movs	r0, #3
1007:../../../../../../Drivers/STM32L0xx_HAL_Driver/Src/stm32l0xx_hal_rtc_ex.c ****         return HAL_TIMEOUT;
 1449              		.loc 1 1007 0
 1450 0050 EA54     		strb	r2, [r5, r3]
1008:../../../../../../Drivers/STM32L0xx_HAL_Driver/Src/stm32l0xx_hal_rtc_ex.c ****       }
 1451              		.loc 1 1008 0
 1452 0052 EFE7     		b	.L165
 1453              	.L174:
 1454              		.align	2
 1455              	.L173:
 1456 0054 7FDFFFFF 		.word	-8321
 1457              		.cfi_endproc
 1458              	.LFE52:
 1459              		.size	HAL_RTCEx_PollForTamper1Event, .-HAL_RTCEx_PollForTamper1Event
 1460              		.section	.text.HAL_RTCEx_PollForTamper2Event,"ax",%progbits
 1461              		.align	1
 1462              		.p2align 2,,3
 1463              		.global	HAL_RTCEx_PollForTamper2Event
 1464              		.syntax unified
 1465              		.code	16
 1466              		.thumb_func
 1467              		.fpu softvfp
 1468              		.type	HAL_RTCEx_PollForTamper2Event, %function
 1469              	HAL_RTCEx_PollForTamper2Event:
 1470              	.LFB53:
1021:../../../../../../Drivers/STM32L0xx_HAL_Driver/Src/stm32l0xx_hal_rtc_ex.c **** #endif /* (STM32L063xx) || (STM32L062xx) || (STM32L061xx) ||
1022:../../../../../../Drivers/STM32L0xx_HAL_Driver/Src/stm32l0xx_hal_rtc_ex.c ****         * (STM32L053xx) || (STM32L052xx) || (STM32L051xx) ||
1023:../../../../../../Drivers/STM32L0xx_HAL_Driver/Src/stm32l0xx_hal_rtc_ex.c ****         * (STM32L083xx) || (STM32L082xx) || (STM32L081xx) ||
1024:../../../../../../Drivers/STM32L0xx_HAL_Driver/Src/stm32l0xx_hal_rtc_ex.c ****         * (STM32L073xx) || (STM32L072xx) || (STM32L071xx) || 
1025:../../../../../../Drivers/STM32L0xx_HAL_Driver/Src/stm32l0xx_hal_rtc_ex.c ****         * (STM32L031xx) || (STM32L041xx) || (STM32L010xB) ||
1026:../../../../../../Drivers/STM32L0xx_HAL_Driver/Src/stm32l0xx_hal_rtc_ex.c ****         * (STM32L010x8) || (STM32L010x6)
1027:../../../../../../Drivers/STM32L0xx_HAL_Driver/Src/stm32l0xx_hal_rtc_ex.c ****         */
1028:../../../../../../Drivers/STM32L0xx_HAL_Driver/Src/stm32l0xx_hal_rtc_ex.c **** 
1029:../../../../../../Drivers/STM32L0xx_HAL_Driver/Src/stm32l0xx_hal_rtc_ex.c **** /**
1030:../../../../../../Drivers/STM32L0xx_HAL_Driver/Src/stm32l0xx_hal_rtc_ex.c ****   * @brief  Handle Tamper 2 Polling.
1031:../../../../../../Drivers/STM32L0xx_HAL_Driver/Src/stm32l0xx_hal_rtc_ex.c ****   * @param  hrtc RTC handle
1032:../../../../../../Drivers/STM32L0xx_HAL_Driver/Src/stm32l0xx_hal_rtc_ex.c ****   * @param  Timeout Timeout duration
1033:../../../../../../Drivers/STM32L0xx_HAL_Driver/Src/stm32l0xx_hal_rtc_ex.c ****   * @retval HAL status
1034:../../../../../../Drivers/STM32L0xx_HAL_Driver/Src/stm32l0xx_hal_rtc_ex.c ****   */
1035:../../../../../../Drivers/STM32L0xx_HAL_Driver/Src/stm32l0xx_hal_rtc_ex.c **** HAL_StatusTypeDef HAL_RTCEx_PollForTamper2Event(RTC_HandleTypeDef *hrtc, uint32_t Timeout)
1036:../../../../../../Drivers/STM32L0xx_HAL_Driver/Src/stm32l0xx_hal_rtc_ex.c **** {
 1471              		.loc 1 1036 0
 1472              		.cfi_startproc
 1473              		@ args = 0, pretend = 0, frame = 0
 1474              		@ frame_needed = 0, uses_anonymous_args = 0
 1475              	.LVL96:
 1476 0000 F8B5     		push	{r3, r4, r5, r6, r7, lr}
 1477              	.LCFI14:
 1478              		.cfi_def_cfa_offset 24
 1479              		.cfi_offset 3, -24
 1480              		.cfi_offset 4, -20
 1481              		.cfi_offset 5, -16
 1482              		.cfi_offset 6, -12
 1483              		.cfi_offset 7, -8
 1484              		.cfi_offset 14, -4
 1485              		.loc 1 1036 0
ARM GAS  C:\Users\EBANO_~1\AppData\Local\Temp\ccyPWgHX.s 			page 47


 1486 0002 0500     		movs	r5, r0
 1487 0004 0C00     		movs	r4, r1
1037:../../../../../../Drivers/STM32L0xx_HAL_Driver/Src/stm32l0xx_hal_rtc_ex.c ****   uint32_t tickstart = HAL_GetTick();
 1488              		.loc 1 1037 0
 1489 0006 FFF7FEFF 		bl	HAL_GetTick
 1490              	.LVL97:
1038:../../../../../../Drivers/STM32L0xx_HAL_Driver/Src/stm32l0xx_hal_rtc_ex.c **** 
1039:../../../../../../Drivers/STM32L0xx_HAL_Driver/Src/stm32l0xx_hal_rtc_ex.c ****   /* Get the status of the Interrupt */
1040:../../../../../../Drivers/STM32L0xx_HAL_Driver/Src/stm32l0xx_hal_rtc_ex.c ****   while(__HAL_RTC_TAMPER_GET_FLAG(hrtc, RTC_FLAG_TAMP2F) == RESET)
 1491              		.loc 1 1040 0
 1492 000a 8026     		movs	r6, #128
1037:../../../../../../Drivers/STM32L0xx_HAL_Driver/Src/stm32l0xx_hal_rtc_ex.c ****   uint32_t tickstart = HAL_GetTick();
 1493              		.loc 1 1037 0
 1494 000c 0700     		movs	r7, r0
 1495              	.LVL98:
 1496              		.loc 1 1040 0
 1497 000e F601     		lsls	r6, r6, #7
 1498              	.LVL99:
 1499              	.L176:
 1500 0010 2A68     		ldr	r2, [r5]
 1501 0012 631C     		adds	r3, r4, #1
 1502 0014 0FD1     		bne	.L180
 1503 0016 8021     		movs	r1, #128
 1504 0018 C901     		lsls	r1, r1, #7
 1505              	.L181:
 1506 001a D368     		ldr	r3, [r2, #12]
 1507 001c 0B42     		tst	r3, r1
 1508 001e FCD0     		beq	.L181
 1509              	.L182:
1041:../../../../../../Drivers/STM32L0xx_HAL_Driver/Src/stm32l0xx_hal_rtc_ex.c ****   {
1042:../../../../../../Drivers/STM32L0xx_HAL_Driver/Src/stm32l0xx_hal_rtc_ex.c ****     if(Timeout != HAL_MAX_DELAY)
1043:../../../../../../Drivers/STM32L0xx_HAL_Driver/Src/stm32l0xx_hal_rtc_ex.c ****     {
1044:../../../../../../Drivers/STM32L0xx_HAL_Driver/Src/stm32l0xx_hal_rtc_ex.c ****       if((Timeout == 0U)||((HAL_GetTick() - tickstart ) > Timeout))
1045:../../../../../../Drivers/STM32L0xx_HAL_Driver/Src/stm32l0xx_hal_rtc_ex.c ****       {
1046:../../../../../../Drivers/STM32L0xx_HAL_Driver/Src/stm32l0xx_hal_rtc_ex.c ****         hrtc->State = HAL_RTC_STATE_TIMEOUT;
1047:../../../../../../Drivers/STM32L0xx_HAL_Driver/Src/stm32l0xx_hal_rtc_ex.c ****         return HAL_TIMEOUT;
1048:../../../../../../Drivers/STM32L0xx_HAL_Driver/Src/stm32l0xx_hal_rtc_ex.c ****       }
1049:../../../../../../Drivers/STM32L0xx_HAL_Driver/Src/stm32l0xx_hal_rtc_ex.c ****     }
1050:../../../../../../Drivers/STM32L0xx_HAL_Driver/Src/stm32l0xx_hal_rtc_ex.c ****   }
1051:../../../../../../Drivers/STM32L0xx_HAL_Driver/Src/stm32l0xx_hal_rtc_ex.c **** 
1052:../../../../../../Drivers/STM32L0xx_HAL_Driver/Src/stm32l0xx_hal_rtc_ex.c ****   /* Clear the Tamper Flag */
1053:../../../../../../Drivers/STM32L0xx_HAL_Driver/Src/stm32l0xx_hal_rtc_ex.c ****   __HAL_RTC_TAMPER_CLEAR_FLAG(hrtc,RTC_FLAG_TAMP2F);
 1510              		.loc 1 1053 0
 1511 0020 FF23     		movs	r3, #255
 1512 0022 D168     		ldr	r1, [r2, #12]
1054:../../../../../../Drivers/STM32L0xx_HAL_Driver/Src/stm32l0xx_hal_rtc_ex.c **** 
1055:../../../../../../Drivers/STM32L0xx_HAL_Driver/Src/stm32l0xx_hal_rtc_ex.c ****   /* Change RTC state */
1056:../../../../../../Drivers/STM32L0xx_HAL_Driver/Src/stm32l0xx_hal_rtc_ex.c ****   hrtc->State = HAL_RTC_STATE_READY;
1057:../../../../../../Drivers/STM32L0xx_HAL_Driver/Src/stm32l0xx_hal_rtc_ex.c **** 
1058:../../../../../../Drivers/STM32L0xx_HAL_Driver/Src/stm32l0xx_hal_rtc_ex.c ****   return HAL_OK;
 1513              		.loc 1 1058 0
 1514 0024 0020     		movs	r0, #0
1053:../../../../../../Drivers/STM32L0xx_HAL_Driver/Src/stm32l0xx_hal_rtc_ex.c **** 
 1515              		.loc 1 1053 0
 1516 0026 1940     		ands	r1, r3
 1517 0028 0A4B     		ldr	r3, .L186
 1518 002a 0B43     		orrs	r3, r1
ARM GAS  C:\Users\EBANO_~1\AppData\Local\Temp\ccyPWgHX.s 			page 48


 1519 002c D360     		str	r3, [r2, #12]
1056:../../../../../../Drivers/STM32L0xx_HAL_Driver/Src/stm32l0xx_hal_rtc_ex.c **** 
 1520              		.loc 1 1056 0
 1521 002e 2123     		movs	r3, #33
 1522 0030 0122     		movs	r2, #1
 1523 0032 EA54     		strb	r2, [r5, r3]
 1524              	.L178:
1059:../../../../../../Drivers/STM32L0xx_HAL_Driver/Src/stm32l0xx_hal_rtc_ex.c **** }
 1525              		.loc 1 1059 0
 1526              		@ sp needed
 1527              	.LVL100:
 1528              	.LVL101:
 1529              	.LVL102:
 1530 0034 F8BD     		pop	{r3, r4, r5, r6, r7, pc}
 1531              	.LVL103:
 1532              	.L180:
1040:../../../../../../Drivers/STM32L0xx_HAL_Driver/Src/stm32l0xx_hal_rtc_ex.c ****   {
 1533              		.loc 1 1040 0
 1534 0036 D368     		ldr	r3, [r2, #12]
 1535 0038 3342     		tst	r3, r6
 1536 003a F1D1     		bne	.L182
1044:../../../../../../Drivers/STM32L0xx_HAL_Driver/Src/stm32l0xx_hal_rtc_ex.c ****       {
 1537              		.loc 1 1044 0
 1538 003c 002C     		cmp	r4, #0
 1539 003e 04D0     		beq	.L179
1044:../../../../../../Drivers/STM32L0xx_HAL_Driver/Src/stm32l0xx_hal_rtc_ex.c ****       {
 1540              		.loc 1 1044 0 is_stmt 0 discriminator 1
 1541 0040 FFF7FEFF 		bl	HAL_GetTick
 1542              	.LVL104:
 1543 0044 C01B     		subs	r0, r0, r7
 1544 0046 A042     		cmp	r0, r4
 1545 0048 E2D9     		bls	.L176
 1546              	.L179:
1046:../../../../../../Drivers/STM32L0xx_HAL_Driver/Src/stm32l0xx_hal_rtc_ex.c ****         return HAL_TIMEOUT;
 1547              		.loc 1 1046 0 is_stmt 1
 1548 004a 2123     		movs	r3, #33
 1549 004c 0322     		movs	r2, #3
1047:../../../../../../Drivers/STM32L0xx_HAL_Driver/Src/stm32l0xx_hal_rtc_ex.c ****       }
 1550              		.loc 1 1047 0
 1551 004e 0320     		movs	r0, #3
1046:../../../../../../Drivers/STM32L0xx_HAL_Driver/Src/stm32l0xx_hal_rtc_ex.c ****         return HAL_TIMEOUT;
 1552              		.loc 1 1046 0
 1553 0050 EA54     		strb	r2, [r5, r3]
1047:../../../../../../Drivers/STM32L0xx_HAL_Driver/Src/stm32l0xx_hal_rtc_ex.c ****       }
 1554              		.loc 1 1047 0
 1555 0052 EFE7     		b	.L178
 1556              	.L187:
 1557              		.align	2
 1558              	.L186:
 1559 0054 7FBFFFFF 		.word	-16513
 1560              		.cfi_endproc
 1561              	.LFE53:
 1562              		.size	HAL_RTCEx_PollForTamper2Event, .-HAL_RTCEx_PollForTamper2Event
 1563              		.section	.text.HAL_RTCEx_PollForTamper3Event,"ax",%progbits
 1564              		.align	1
 1565              		.p2align 2,,3
 1566              		.global	HAL_RTCEx_PollForTamper3Event
ARM GAS  C:\Users\EBANO_~1\AppData\Local\Temp\ccyPWgHX.s 			page 49


 1567              		.syntax unified
 1568              		.code	16
 1569              		.thumb_func
 1570              		.fpu softvfp
 1571              		.type	HAL_RTCEx_PollForTamper3Event, %function
 1572              	HAL_RTCEx_PollForTamper3Event:
 1573              	.LFB54:
1060:../../../../../../Drivers/STM32L0xx_HAL_Driver/Src/stm32l0xx_hal_rtc_ex.c **** 
1061:../../../../../../Drivers/STM32L0xx_HAL_Driver/Src/stm32l0xx_hal_rtc_ex.c **** 
1062:../../../../../../Drivers/STM32L0xx_HAL_Driver/Src/stm32l0xx_hal_rtc_ex.c **** #if defined (STM32L083xx) || defined (STM32L082xx) || defined (STM32L081xx) || \
1063:../../../../../../Drivers/STM32L0xx_HAL_Driver/Src/stm32l0xx_hal_rtc_ex.c ****     defined (STM32L073xx) || defined (STM32L072xx) || defined (STM32L071xx) || \
1064:../../../../../../Drivers/STM32L0xx_HAL_Driver/Src/stm32l0xx_hal_rtc_ex.c ****     defined (STM32L031xx) || defined (STM32L041xx) || defined (STM32L011xx) || \
1065:../../../../../../Drivers/STM32L0xx_HAL_Driver/Src/stm32l0xx_hal_rtc_ex.c ****     defined (STM32L021xx) || defined (STM32L010x4) || defined (STM32L010x6) || \
1066:../../../../../../Drivers/STM32L0xx_HAL_Driver/Src/stm32l0xx_hal_rtc_ex.c ****     defined (STM32L010xB)
1067:../../../../../../Drivers/STM32L0xx_HAL_Driver/Src/stm32l0xx_hal_rtc_ex.c **** /**
1068:../../../../../../Drivers/STM32L0xx_HAL_Driver/Src/stm32l0xx_hal_rtc_ex.c ****   * @brief  Handle Tamper 3 Polling.
1069:../../../../../../Drivers/STM32L0xx_HAL_Driver/Src/stm32l0xx_hal_rtc_ex.c ****   * @param  hrtc RTC handle
1070:../../../../../../Drivers/STM32L0xx_HAL_Driver/Src/stm32l0xx_hal_rtc_ex.c ****   * @param  Timeout Timeout duration
1071:../../../../../../Drivers/STM32L0xx_HAL_Driver/Src/stm32l0xx_hal_rtc_ex.c ****   * @retval HAL status
1072:../../../../../../Drivers/STM32L0xx_HAL_Driver/Src/stm32l0xx_hal_rtc_ex.c ****   */
1073:../../../../../../Drivers/STM32L0xx_HAL_Driver/Src/stm32l0xx_hal_rtc_ex.c **** HAL_StatusTypeDef HAL_RTCEx_PollForTamper3Event(RTC_HandleTypeDef *hrtc, uint32_t Timeout)
1074:../../../../../../Drivers/STM32L0xx_HAL_Driver/Src/stm32l0xx_hal_rtc_ex.c **** {  
 1574              		.loc 1 1074 0
 1575              		.cfi_startproc
 1576              		@ args = 0, pretend = 0, frame = 0
 1577              		@ frame_needed = 0, uses_anonymous_args = 0
 1578              	.LVL105:
 1579 0000 F8B5     		push	{r3, r4, r5, r6, r7, lr}
 1580              	.LCFI15:
 1581              		.cfi_def_cfa_offset 24
 1582              		.cfi_offset 3, -24
 1583              		.cfi_offset 4, -20
 1584              		.cfi_offset 5, -16
 1585              		.cfi_offset 6, -12
 1586              		.cfi_offset 7, -8
 1587              		.cfi_offset 14, -4
 1588              		.loc 1 1074 0
 1589 0002 0500     		movs	r5, r0
 1590 0004 0C00     		movs	r4, r1
1075:../../../../../../Drivers/STM32L0xx_HAL_Driver/Src/stm32l0xx_hal_rtc_ex.c ****   uint32_t tickstart = HAL_GetTick();
 1591              		.loc 1 1075 0
 1592 0006 FFF7FEFF 		bl	HAL_GetTick
 1593              	.LVL106:
1076:../../../../../../Drivers/STM32L0xx_HAL_Driver/Src/stm32l0xx_hal_rtc_ex.c **** 
1077:../../../../../../Drivers/STM32L0xx_HAL_Driver/Src/stm32l0xx_hal_rtc_ex.c ****   /* Get the status of the Interrupt */
1078:../../../../../../Drivers/STM32L0xx_HAL_Driver/Src/stm32l0xx_hal_rtc_ex.c ****   while(__HAL_RTC_TAMPER_GET_FLAG(hrtc,RTC_FLAG_TAMP3F) == RESET)
 1594              		.loc 1 1078 0
 1595 000a 8026     		movs	r6, #128
1075:../../../../../../Drivers/STM32L0xx_HAL_Driver/Src/stm32l0xx_hal_rtc_ex.c ****   uint32_t tickstart = HAL_GetTick();
 1596              		.loc 1 1075 0
 1597 000c 0700     		movs	r7, r0
 1598              	.LVL107:
 1599              		.loc 1 1078 0
 1600 000e 3602     		lsls	r6, r6, #8
 1601              	.LVL108:
 1602              	.L189:
 1603 0010 2A68     		ldr	r2, [r5]
ARM GAS  C:\Users\EBANO_~1\AppData\Local\Temp\ccyPWgHX.s 			page 50


 1604 0012 631C     		adds	r3, r4, #1
 1605 0014 0FD1     		bne	.L193
 1606 0016 8021     		movs	r1, #128
 1607 0018 0902     		lsls	r1, r1, #8
 1608              	.L194:
 1609 001a D368     		ldr	r3, [r2, #12]
 1610 001c 0B42     		tst	r3, r1
 1611 001e FCD0     		beq	.L194
 1612              	.L195:
1079:../../../../../../Drivers/STM32L0xx_HAL_Driver/Src/stm32l0xx_hal_rtc_ex.c ****   {
1080:../../../../../../Drivers/STM32L0xx_HAL_Driver/Src/stm32l0xx_hal_rtc_ex.c ****     if(Timeout != HAL_MAX_DELAY)
1081:../../../../../../Drivers/STM32L0xx_HAL_Driver/Src/stm32l0xx_hal_rtc_ex.c ****     {
1082:../../../../../../Drivers/STM32L0xx_HAL_Driver/Src/stm32l0xx_hal_rtc_ex.c ****       if((Timeout == 0U) || ((HAL_GetTick()-tickstart) > Timeout))
1083:../../../../../../Drivers/STM32L0xx_HAL_Driver/Src/stm32l0xx_hal_rtc_ex.c ****       {
1084:../../../../../../Drivers/STM32L0xx_HAL_Driver/Src/stm32l0xx_hal_rtc_ex.c ****         hrtc->State = HAL_RTC_STATE_TIMEOUT;
1085:../../../../../../Drivers/STM32L0xx_HAL_Driver/Src/stm32l0xx_hal_rtc_ex.c ****         return HAL_TIMEOUT;
1086:../../../../../../Drivers/STM32L0xx_HAL_Driver/Src/stm32l0xx_hal_rtc_ex.c ****       }
1087:../../../../../../Drivers/STM32L0xx_HAL_Driver/Src/stm32l0xx_hal_rtc_ex.c ****     }
1088:../../../../../../Drivers/STM32L0xx_HAL_Driver/Src/stm32l0xx_hal_rtc_ex.c ****   }
1089:../../../../../../Drivers/STM32L0xx_HAL_Driver/Src/stm32l0xx_hal_rtc_ex.c **** 
1090:../../../../../../Drivers/STM32L0xx_HAL_Driver/Src/stm32l0xx_hal_rtc_ex.c ****   /* Clear the Tamper Flag */
1091:../../../../../../Drivers/STM32L0xx_HAL_Driver/Src/stm32l0xx_hal_rtc_ex.c ****   __HAL_RTC_TAMPER_CLEAR_FLAG(hrtc,RTC_FLAG_TAMP3F);
 1613              		.loc 1 1091 0
 1614 0020 FF23     		movs	r3, #255
 1615 0022 D168     		ldr	r1, [r2, #12]
1092:../../../../../../Drivers/STM32L0xx_HAL_Driver/Src/stm32l0xx_hal_rtc_ex.c **** 
1093:../../../../../../Drivers/STM32L0xx_HAL_Driver/Src/stm32l0xx_hal_rtc_ex.c ****   /* Change RTC state */
1094:../../../../../../Drivers/STM32L0xx_HAL_Driver/Src/stm32l0xx_hal_rtc_ex.c ****   hrtc->State = HAL_RTC_STATE_READY;
1095:../../../../../../Drivers/STM32L0xx_HAL_Driver/Src/stm32l0xx_hal_rtc_ex.c **** 
1096:../../../../../../Drivers/STM32L0xx_HAL_Driver/Src/stm32l0xx_hal_rtc_ex.c ****   return HAL_OK;
 1616              		.loc 1 1096 0
 1617 0024 0020     		movs	r0, #0
1091:../../../../../../Drivers/STM32L0xx_HAL_Driver/Src/stm32l0xx_hal_rtc_ex.c **** 
 1618              		.loc 1 1091 0
 1619 0026 1940     		ands	r1, r3
 1620 0028 0A4B     		ldr	r3, .L199
 1621 002a 0B43     		orrs	r3, r1
 1622 002c D360     		str	r3, [r2, #12]
1094:../../../../../../Drivers/STM32L0xx_HAL_Driver/Src/stm32l0xx_hal_rtc_ex.c **** 
 1623              		.loc 1 1094 0
 1624 002e 2123     		movs	r3, #33
 1625 0030 0122     		movs	r2, #1
 1626 0032 EA54     		strb	r2, [r5, r3]
 1627              	.L191:
1097:../../../../../../Drivers/STM32L0xx_HAL_Driver/Src/stm32l0xx_hal_rtc_ex.c **** }
 1628              		.loc 1 1097 0
 1629              		@ sp needed
 1630              	.LVL109:
 1631              	.LVL110:
 1632              	.LVL111:
 1633 0034 F8BD     		pop	{r3, r4, r5, r6, r7, pc}
 1634              	.LVL112:
 1635              	.L193:
1078:../../../../../../Drivers/STM32L0xx_HAL_Driver/Src/stm32l0xx_hal_rtc_ex.c ****   {
 1636              		.loc 1 1078 0
 1637 0036 D368     		ldr	r3, [r2, #12]
 1638 0038 3342     		tst	r3, r6
ARM GAS  C:\Users\EBANO_~1\AppData\Local\Temp\ccyPWgHX.s 			page 51


 1639 003a F1D1     		bne	.L195
1082:../../../../../../Drivers/STM32L0xx_HAL_Driver/Src/stm32l0xx_hal_rtc_ex.c ****       {
 1640              		.loc 1 1082 0
 1641 003c 002C     		cmp	r4, #0
 1642 003e 04D0     		beq	.L192
1082:../../../../../../Drivers/STM32L0xx_HAL_Driver/Src/stm32l0xx_hal_rtc_ex.c ****       {
 1643              		.loc 1 1082 0 is_stmt 0 discriminator 1
 1644 0040 FFF7FEFF 		bl	HAL_GetTick
 1645              	.LVL113:
 1646 0044 C01B     		subs	r0, r0, r7
 1647 0046 A042     		cmp	r0, r4
 1648 0048 E2D9     		bls	.L189
 1649              	.L192:
1084:../../../../../../Drivers/STM32L0xx_HAL_Driver/Src/stm32l0xx_hal_rtc_ex.c ****         return HAL_TIMEOUT;
 1650              		.loc 1 1084 0 is_stmt 1
 1651 004a 2123     		movs	r3, #33
 1652 004c 0322     		movs	r2, #3
1085:../../../../../../Drivers/STM32L0xx_HAL_Driver/Src/stm32l0xx_hal_rtc_ex.c ****       }
 1653              		.loc 1 1085 0
 1654 004e 0320     		movs	r0, #3
1084:../../../../../../Drivers/STM32L0xx_HAL_Driver/Src/stm32l0xx_hal_rtc_ex.c ****         return HAL_TIMEOUT;
 1655              		.loc 1 1084 0
 1656 0050 EA54     		strb	r2, [r5, r3]
1085:../../../../../../Drivers/STM32L0xx_HAL_Driver/Src/stm32l0xx_hal_rtc_ex.c ****       }
 1657              		.loc 1 1085 0
 1658 0052 EFE7     		b	.L191
 1659              	.L200:
 1660              		.align	2
 1661              	.L199:
 1662 0054 7F7FFFFF 		.word	-32897
 1663              		.cfi_endproc
 1664              	.LFE54:
 1665              		.size	HAL_RTCEx_PollForTamper3Event, .-HAL_RTCEx_PollForTamper3Event
 1666              		.section	.text.HAL_RTCEx_SetWakeUpTimer,"ax",%progbits
 1667              		.align	1
 1668              		.p2align 2,,3
 1669              		.global	HAL_RTCEx_SetWakeUpTimer
 1670              		.syntax unified
 1671              		.code	16
 1672              		.thumb_func
 1673              		.fpu softvfp
 1674              		.type	HAL_RTCEx_SetWakeUpTimer, %function
 1675              	HAL_RTCEx_SetWakeUpTimer:
 1676              	.LFB55:
1098:../../../../../../Drivers/STM32L0xx_HAL_Driver/Src/stm32l0xx_hal_rtc_ex.c **** #endif /* (STM32L083xx) || (STM32L082xx) || (STM32L081xx) ||
1099:../../../../../../Drivers/STM32L0xx_HAL_Driver/Src/stm32l0xx_hal_rtc_ex.c ****         * (STM32L073xx) || (STM32L072xx) || (STM32L071xx) ||
1100:../../../../../../Drivers/STM32L0xx_HAL_Driver/Src/stm32l0xx_hal_rtc_ex.c ****         * (STM32L031xx) || (STM32L041xx) || (STM32L011xx) ||
1101:../../../../../../Drivers/STM32L0xx_HAL_Driver/Src/stm32l0xx_hal_rtc_ex.c ****         * (STM32L021xx) || (STM32L010x4) || (STM32L010x6) ||
1102:../../../../../../Drivers/STM32L0xx_HAL_Driver/Src/stm32l0xx_hal_rtc_ex.c ****         * (STM32L010xB)
1103:../../../../../../Drivers/STM32L0xx_HAL_Driver/Src/stm32l0xx_hal_rtc_ex.c ****         */
1104:../../../../../../Drivers/STM32L0xx_HAL_Driver/Src/stm32l0xx_hal_rtc_ex.c **** 
1105:../../../../../../Drivers/STM32L0xx_HAL_Driver/Src/stm32l0xx_hal_rtc_ex.c **** /**
1106:../../../../../../Drivers/STM32L0xx_HAL_Driver/Src/stm32l0xx_hal_rtc_ex.c ****   * @}
1107:../../../../../../Drivers/STM32L0xx_HAL_Driver/Src/stm32l0xx_hal_rtc_ex.c ****   */
1108:../../../../../../Drivers/STM32L0xx_HAL_Driver/Src/stm32l0xx_hal_rtc_ex.c ****   
1109:../../../../../../Drivers/STM32L0xx_HAL_Driver/Src/stm32l0xx_hal_rtc_ex.c **** /** @addtogroup RTCEx_Exported_Functions_Group2
1110:../../../../../../Drivers/STM32L0xx_HAL_Driver/Src/stm32l0xx_hal_rtc_ex.c ****   * @brief    RTC Wake-up functions
ARM GAS  C:\Users\EBANO_~1\AppData\Local\Temp\ccyPWgHX.s 			page 52


1111:../../../../../../Drivers/STM32L0xx_HAL_Driver/Src/stm32l0xx_hal_rtc_ex.c ****   *
1112:../../../../../../Drivers/STM32L0xx_HAL_Driver/Src/stm32l0xx_hal_rtc_ex.c **** @verbatim   
1113:../../../../../../Drivers/STM32L0xx_HAL_Driver/Src/stm32l0xx_hal_rtc_ex.c ****  ===============================================================================
1114:../../../../../../Drivers/STM32L0xx_HAL_Driver/Src/stm32l0xx_hal_rtc_ex.c ****                         ##### RTC Wake-up functions #####
1115:../../../../../../Drivers/STM32L0xx_HAL_Driver/Src/stm32l0xx_hal_rtc_ex.c ****  ===============================================================================  
1116:../../../../../../Drivers/STM32L0xx_HAL_Driver/Src/stm32l0xx_hal_rtc_ex.c ****  
1117:../../../../../../Drivers/STM32L0xx_HAL_Driver/Src/stm32l0xx_hal_rtc_ex.c ****  [..] This section provides functions allowing to configure Wake-up feature
1118:../../../../../../Drivers/STM32L0xx_HAL_Driver/Src/stm32l0xx_hal_rtc_ex.c **** 
1119:../../../../../../Drivers/STM32L0xx_HAL_Driver/Src/stm32l0xx_hal_rtc_ex.c **** @endverbatim
1120:../../../../../../Drivers/STM32L0xx_HAL_Driver/Src/stm32l0xx_hal_rtc_ex.c ****   * @{
1121:../../../../../../Drivers/STM32L0xx_HAL_Driver/Src/stm32l0xx_hal_rtc_ex.c ****   */
1122:../../../../../../Drivers/STM32L0xx_HAL_Driver/Src/stm32l0xx_hal_rtc_ex.c **** 
1123:../../../../../../Drivers/STM32L0xx_HAL_Driver/Src/stm32l0xx_hal_rtc_ex.c **** /**
1124:../../../../../../Drivers/STM32L0xx_HAL_Driver/Src/stm32l0xx_hal_rtc_ex.c ****   * @brief  Set wake up timer.
1125:../../../../../../Drivers/STM32L0xx_HAL_Driver/Src/stm32l0xx_hal_rtc_ex.c ****   * @param  hrtc RTC handle
1126:../../../../../../Drivers/STM32L0xx_HAL_Driver/Src/stm32l0xx_hal_rtc_ex.c ****   * @param  WakeUpCounter Wake up counter
1127:../../../../../../Drivers/STM32L0xx_HAL_Driver/Src/stm32l0xx_hal_rtc_ex.c ****   * @param  WakeUpClock Wake up clock
1128:../../../../../../Drivers/STM32L0xx_HAL_Driver/Src/stm32l0xx_hal_rtc_ex.c ****   * @retval HAL status
1129:../../../../../../Drivers/STM32L0xx_HAL_Driver/Src/stm32l0xx_hal_rtc_ex.c ****   */
1130:../../../../../../Drivers/STM32L0xx_HAL_Driver/Src/stm32l0xx_hal_rtc_ex.c **** HAL_StatusTypeDef HAL_RTCEx_SetWakeUpTimer(RTC_HandleTypeDef *hrtc, uint32_t WakeUpCounter, uint32_
1131:../../../../../../Drivers/STM32L0xx_HAL_Driver/Src/stm32l0xx_hal_rtc_ex.c **** {
 1677              		.loc 1 1131 0
 1678              		.cfi_startproc
 1679              		@ args = 0, pretend = 0, frame = 0
 1680              		@ frame_needed = 0, uses_anonymous_args = 0
 1681              	.LVL114:
 1682 0000 F0B5     		push	{r4, r5, r6, r7, lr}
 1683              	.LCFI16:
 1684              		.cfi_def_cfa_offset 20
 1685              		.cfi_offset 4, -20
 1686              		.cfi_offset 5, -16
 1687              		.cfi_offset 6, -12
 1688              		.cfi_offset 7, -8
 1689              		.cfi_offset 14, -4
 1690 0002 D646     		mov	lr, r10
 1691 0004 4F46     		mov	r7, r9
 1692 0006 4646     		mov	r6, r8
1132:../../../../../../Drivers/STM32L0xx_HAL_Driver/Src/stm32l0xx_hal_rtc_ex.c ****   uint32_t tickstart = 0U;
1133:../../../../../../Drivers/STM32L0xx_HAL_Driver/Src/stm32l0xx_hal_rtc_ex.c **** 
1134:../../../../../../Drivers/STM32L0xx_HAL_Driver/Src/stm32l0xx_hal_rtc_ex.c ****   /* Check the parameters */
1135:../../../../../../Drivers/STM32L0xx_HAL_Driver/Src/stm32l0xx_hal_rtc_ex.c ****   assert_param(IS_RTC_WAKEUP_CLOCK(WakeUpClock));
1136:../../../../../../Drivers/STM32L0xx_HAL_Driver/Src/stm32l0xx_hal_rtc_ex.c ****   assert_param(IS_RTC_WAKEUP_COUNTER(WakeUpCounter));
1137:../../../../../../Drivers/STM32L0xx_HAL_Driver/Src/stm32l0xx_hal_rtc_ex.c **** 
1138:../../../../../../Drivers/STM32L0xx_HAL_Driver/Src/stm32l0xx_hal_rtc_ex.c ****   /* Process Locked */ 
1139:../../../../../../Drivers/STM32L0xx_HAL_Driver/Src/stm32l0xx_hal_rtc_ex.c ****   __HAL_LOCK(hrtc);
 1693              		.loc 1 1139 0
 1694 0008 2023     		movs	r3, #32
1131:../../../../../../Drivers/STM32L0xx_HAL_Driver/Src/stm32l0xx_hal_rtc_ex.c ****   uint32_t tickstart = 0U;
 1695              		.loc 1 1131 0
 1696 000a C0B5     		push	{r6, r7, lr}
 1697              	.LCFI17:
 1698              		.cfi_def_cfa_offset 32
 1699              		.cfi_offset 8, -32
 1700              		.cfi_offset 9, -28
 1701              		.cfi_offset 10, -24
1131:../../../../../../Drivers/STM32L0xx_HAL_Driver/Src/stm32l0xx_hal_rtc_ex.c ****   uint32_t tickstart = 0U;
 1702              		.loc 1 1131 0
ARM GAS  C:\Users\EBANO_~1\AppData\Local\Temp\ccyPWgHX.s 			page 53


 1703 000c 9246     		mov	r10, r2
 1704              		.loc 1 1139 0
 1705 000e C25C     		ldrb	r2, [r0, r3]
 1706              	.LVL115:
1131:../../../../../../Drivers/STM32L0xx_HAL_Driver/Src/stm32l0xx_hal_rtc_ex.c ****   uint32_t tickstart = 0U;
 1707              		.loc 1 1131 0
 1708 0010 0500     		movs	r5, r0
 1709 0012 8946     		mov	r9, r1
 1710              		.loc 1 1139 0
 1711 0014 012A     		cmp	r2, #1
 1712 0016 63D0     		beq	.L208
 1713              		.loc 1 1139 0 is_stmt 0 discriminator 2
 1714 0018 0122     		movs	r2, #1
 1715 001a C254     		strb	r2, [r0, r3]
1140:../../../../../../Drivers/STM32L0xx_HAL_Driver/Src/stm32l0xx_hal_rtc_ex.c **** 
1141:../../../../../../Drivers/STM32L0xx_HAL_Driver/Src/stm32l0xx_hal_rtc_ex.c ****   hrtc->State = HAL_RTC_STATE_BUSY;
 1716              		.loc 1 1141 0 is_stmt 1 discriminator 2
 1717 001c 0133     		adds	r3, r3, #1
 1718 001e 0132     		adds	r2, r2, #1
 1719 0020 C254     		strb	r2, [r0, r3]
1142:../../../../../../Drivers/STM32L0xx_HAL_Driver/Src/stm32l0xx_hal_rtc_ex.c **** 
1143:../../../../../../Drivers/STM32L0xx_HAL_Driver/Src/stm32l0xx_hal_rtc_ex.c ****   /* Disable the write protection for RTC registers */
1144:../../../../../../Drivers/STM32L0xx_HAL_Driver/Src/stm32l0xx_hal_rtc_ex.c ****   __HAL_RTC_WRITEPROTECTION_DISABLE(hrtc);
 1720              		.loc 1 1144 0 discriminator 2
 1721 0022 0368     		ldr	r3, [r0]
 1722 0024 C832     		adds	r2, r2, #200
 1723 0026 5A62     		str	r2, [r3, #36]
 1724 0028 773A     		subs	r2, r2, #119
 1725 002a 5A62     		str	r2, [r3, #36]
1145:../../../../../../Drivers/STM32L0xx_HAL_Driver/Src/stm32l0xx_hal_rtc_ex.c ****  
1146:../../../../../../Drivers/STM32L0xx_HAL_Driver/Src/stm32l0xx_hal_rtc_ex.c ****   /*Check RTC WUTWF flag is reset only when wake up timer enabled*/
1147:../../../../../../Drivers/STM32L0xx_HAL_Driver/Src/stm32l0xx_hal_rtc_ex.c ****   if((hrtc->Instance->CR & RTC_CR_WUTE) != RESET){
 1726              		.loc 1 1147 0 discriminator 2
 1727 002c 9A68     		ldr	r2, [r3, #8]
 1728 002e 5205     		lsls	r2, r2, #21
 1729 0030 0FD5     		bpl	.L203
1148:../../../../../../Drivers/STM32L0xx_HAL_Driver/Src/stm32l0xx_hal_rtc_ex.c ****     tickstart = HAL_GetTick();
 1730              		.loc 1 1148 0
 1731 0032 FFF7FEFF 		bl	HAL_GetTick
 1732              	.LVL116:
1149:../../../../../../Drivers/STM32L0xx_HAL_Driver/Src/stm32l0xx_hal_rtc_ex.c **** 
1150:../../../../../../Drivers/STM32L0xx_HAL_Driver/Src/stm32l0xx_hal_rtc_ex.c ****    /* Wait till RTC WUTWF flag is reset and if Time out is reached exit */
1151:../../../../../../Drivers/STM32L0xx_HAL_Driver/Src/stm32l0xx_hal_rtc_ex.c ****    while(__HAL_RTC_WAKEUPTIMER_GET_FLAG(hrtc, RTC_FLAG_WUTWF) == SET)
1152:../../../../../../Drivers/STM32L0xx_HAL_Driver/Src/stm32l0xx_hal_rtc_ex.c ****    {
1153:../../../../../../Drivers/STM32L0xx_HAL_Driver/Src/stm32l0xx_hal_rtc_ex.c ****     if((HAL_GetTick() - tickstart ) > RTC_TIMEOUT_VALUE)
 1733              		.loc 1 1153 0
 1734 0036 FA26     		movs	r6, #250
1148:../../../../../../Drivers/STM32L0xx_HAL_Driver/Src/stm32l0xx_hal_rtc_ex.c ****     tickstart = HAL_GetTick();
 1735              		.loc 1 1148 0
 1736 0038 0700     		movs	r7, r0
 1737              	.LVL117:
1151:../../../../../../Drivers/STM32L0xx_HAL_Driver/Src/stm32l0xx_hal_rtc_ex.c ****    {
 1738              		.loc 1 1151 0
 1739 003a 0424     		movs	r4, #4
 1740              		.loc 1 1153 0
 1741 003c B600     		lsls	r6, r6, #2
1151:../../../../../../Drivers/STM32L0xx_HAL_Driver/Src/stm32l0xx_hal_rtc_ex.c ****    {
ARM GAS  C:\Users\EBANO_~1\AppData\Local\Temp\ccyPWgHX.s 			page 54


 1742              		.loc 1 1151 0
 1743 003e 04E0     		b	.L204
 1744              	.LVL118:
 1745              	.L205:
 1746              		.loc 1 1153 0
 1747 0040 FFF7FEFF 		bl	HAL_GetTick
 1748              	.LVL119:
 1749 0044 C01B     		subs	r0, r0, r7
 1750 0046 B042     		cmp	r0, r6
 1751 0048 3FD8     		bhi	.L214
 1752              	.L204:
1151:../../../../../../Drivers/STM32L0xx_HAL_Driver/Src/stm32l0xx_hal_rtc_ex.c ****    {
 1753              		.loc 1 1151 0
 1754 004a 2B68     		ldr	r3, [r5]
 1755 004c DA68     		ldr	r2, [r3, #12]
 1756 004e 1442     		tst	r4, r2
 1757 0050 F6D1     		bne	.L205
 1758              	.LVL120:
 1759              	.L203:
1154:../../../../../../Drivers/STM32L0xx_HAL_Driver/Src/stm32l0xx_hal_rtc_ex.c ****       {
1155:../../../../../../Drivers/STM32L0xx_HAL_Driver/Src/stm32l0xx_hal_rtc_ex.c ****        /* Enable the write protection for RTC registers */
1156:../../../../../../Drivers/STM32L0xx_HAL_Driver/Src/stm32l0xx_hal_rtc_ex.c ****        __HAL_RTC_WRITEPROTECTION_ENABLE(hrtc);
1157:../../../../../../Drivers/STM32L0xx_HAL_Driver/Src/stm32l0xx_hal_rtc_ex.c **** 
1158:../../../../../../Drivers/STM32L0xx_HAL_Driver/Src/stm32l0xx_hal_rtc_ex.c ****        hrtc->State = HAL_RTC_STATE_TIMEOUT;
1159:../../../../../../Drivers/STM32L0xx_HAL_Driver/Src/stm32l0xx_hal_rtc_ex.c **** 
1160:../../../../../../Drivers/STM32L0xx_HAL_Driver/Src/stm32l0xx_hal_rtc_ex.c ****        /* Process Unlocked */ 
1161:../../../../../../Drivers/STM32L0xx_HAL_Driver/Src/stm32l0xx_hal_rtc_ex.c ****        __HAL_UNLOCK(hrtc);
1162:../../../../../../Drivers/STM32L0xx_HAL_Driver/Src/stm32l0xx_hal_rtc_ex.c **** 
1163:../../../../../../Drivers/STM32L0xx_HAL_Driver/Src/stm32l0xx_hal_rtc_ex.c ****        return HAL_TIMEOUT;
1164:../../../../../../Drivers/STM32L0xx_HAL_Driver/Src/stm32l0xx_hal_rtc_ex.c ****       }
1165:../../../../../../Drivers/STM32L0xx_HAL_Driver/Src/stm32l0xx_hal_rtc_ex.c ****     }
1166:../../../../../../Drivers/STM32L0xx_HAL_Driver/Src/stm32l0xx_hal_rtc_ex.c ****   }
1167:../../../../../../Drivers/STM32L0xx_HAL_Driver/Src/stm32l0xx_hal_rtc_ex.c **** 
1168:../../../../../../Drivers/STM32L0xx_HAL_Driver/Src/stm32l0xx_hal_rtc_ex.c ****   __HAL_RTC_WAKEUPTIMER_DISABLE(hrtc);
 1760              		.loc 1 1168 0
 1761 0052 9A68     		ldr	r2, [r3, #8]
 1762 0054 2349     		ldr	r1, .L216
1169:../../../../../../Drivers/STM32L0xx_HAL_Driver/Src/stm32l0xx_hal_rtc_ex.c **** 
1170:../../../../../../Drivers/STM32L0xx_HAL_Driver/Src/stm32l0xx_hal_rtc_ex.c ****   tickstart = HAL_GetTick();
1171:../../../../../../Drivers/STM32L0xx_HAL_Driver/Src/stm32l0xx_hal_rtc_ex.c **** 
1172:../../../../../../Drivers/STM32L0xx_HAL_Driver/Src/stm32l0xx_hal_rtc_ex.c ****   /* Wait till RTC WUTWF flag is set and if Time out is reached exit */
1173:../../../../../../Drivers/STM32L0xx_HAL_Driver/Src/stm32l0xx_hal_rtc_ex.c ****   while(__HAL_RTC_WAKEUPTIMER_GET_FLAG(hrtc, RTC_FLAG_WUTWF) == RESET)
1174:../../../../../../Drivers/STM32L0xx_HAL_Driver/Src/stm32l0xx_hal_rtc_ex.c ****   {
1175:../../../../../../Drivers/STM32L0xx_HAL_Driver/Src/stm32l0xx_hal_rtc_ex.c ****     if((HAL_GetTick() - tickstart ) > RTC_TIMEOUT_VALUE)
 1763              		.loc 1 1175 0
 1764 0056 FA27     		movs	r7, #250
1168:../../../../../../Drivers/STM32L0xx_HAL_Driver/Src/stm32l0xx_hal_rtc_ex.c **** 
 1765              		.loc 1 1168 0
 1766 0058 0A40     		ands	r2, r1
 1767 005a 9A60     		str	r2, [r3, #8]
1170:../../../../../../Drivers/STM32L0xx_HAL_Driver/Src/stm32l0xx_hal_rtc_ex.c **** 
 1768              		.loc 1 1170 0
 1769 005c FFF7FEFF 		bl	HAL_GetTick
 1770              	.LVL121:
1173:../../../../../../Drivers/STM32L0xx_HAL_Driver/Src/stm32l0xx_hal_rtc_ex.c ****   {
 1771              		.loc 1 1173 0
 1772 0060 0426     		movs	r6, #4
ARM GAS  C:\Users\EBANO_~1\AppData\Local\Temp\ccyPWgHX.s 			page 55


1170:../../../../../../Drivers/STM32L0xx_HAL_Driver/Src/stm32l0xx_hal_rtc_ex.c **** 
 1773              		.loc 1 1170 0
 1774 0062 8046     		mov	r8, r0
 1775              	.LVL122:
 1776              		.loc 1 1175 0
 1777 0064 BF00     		lsls	r7, r7, #2
1173:../../../../../../Drivers/STM32L0xx_HAL_Driver/Src/stm32l0xx_hal_rtc_ex.c ****   {
 1778              		.loc 1 1173 0
 1779 0066 05E0     		b	.L206
 1780              	.LVL123:
 1781              	.L207:
 1782              		.loc 1 1175 0
 1783 0068 FFF7FEFF 		bl	HAL_GetTick
 1784              	.LVL124:
 1785 006c 4346     		mov	r3, r8
 1786 006e C01A     		subs	r0, r0, r3
 1787 0070 B842     		cmp	r0, r7
 1788 0072 20D8     		bhi	.L215
 1789              	.L206:
1173:../../../../../../Drivers/STM32L0xx_HAL_Driver/Src/stm32l0xx_hal_rtc_ex.c ****   {
 1790              		.loc 1 1173 0
 1791 0074 2B68     		ldr	r3, [r5]
 1792 0076 DC68     		ldr	r4, [r3, #12]
 1793 0078 3440     		ands	r4, r6
 1794 007a F5D0     		beq	.L207
1176:../../../../../../Drivers/STM32L0xx_HAL_Driver/Src/stm32l0xx_hal_rtc_ex.c ****     {
1177:../../../../../../Drivers/STM32L0xx_HAL_Driver/Src/stm32l0xx_hal_rtc_ex.c ****       /* Enable the write protection for RTC registers */
1178:../../../../../../Drivers/STM32L0xx_HAL_Driver/Src/stm32l0xx_hal_rtc_ex.c ****       __HAL_RTC_WRITEPROTECTION_ENABLE(hrtc);
1179:../../../../../../Drivers/STM32L0xx_HAL_Driver/Src/stm32l0xx_hal_rtc_ex.c **** 
1180:../../../../../../Drivers/STM32L0xx_HAL_Driver/Src/stm32l0xx_hal_rtc_ex.c ****       hrtc->State = HAL_RTC_STATE_TIMEOUT;
1181:../../../../../../Drivers/STM32L0xx_HAL_Driver/Src/stm32l0xx_hal_rtc_ex.c **** 
1182:../../../../../../Drivers/STM32L0xx_HAL_Driver/Src/stm32l0xx_hal_rtc_ex.c ****       /* Process Unlocked */ 
1183:../../../../../../Drivers/STM32L0xx_HAL_Driver/Src/stm32l0xx_hal_rtc_ex.c ****       __HAL_UNLOCK(hrtc);
1184:../../../../../../Drivers/STM32L0xx_HAL_Driver/Src/stm32l0xx_hal_rtc_ex.c **** 
1185:../../../../../../Drivers/STM32L0xx_HAL_Driver/Src/stm32l0xx_hal_rtc_ex.c ****       return HAL_TIMEOUT;
1186:../../../../../../Drivers/STM32L0xx_HAL_Driver/Src/stm32l0xx_hal_rtc_ex.c ****     }
1187:../../../../../../Drivers/STM32L0xx_HAL_Driver/Src/stm32l0xx_hal_rtc_ex.c ****   }
1188:../../../../../../Drivers/STM32L0xx_HAL_Driver/Src/stm32l0xx_hal_rtc_ex.c **** 
1189:../../../../../../Drivers/STM32L0xx_HAL_Driver/Src/stm32l0xx_hal_rtc_ex.c ****   /* Clear the Wakeup Timer clock source bits in CR register */
1190:../../../../../../Drivers/STM32L0xx_HAL_Driver/Src/stm32l0xx_hal_rtc_ex.c ****   hrtc->Instance->CR &= (uint32_t)~RTC_CR_WUCKSEL;
 1795              		.loc 1 1190 0
 1796 007c 0721     		movs	r1, #7
 1797 007e 9A68     		ldr	r2, [r3, #8]
1191:../../../../../../Drivers/STM32L0xx_HAL_Driver/Src/stm32l0xx_hal_rtc_ex.c **** 
1192:../../../../../../Drivers/STM32L0xx_HAL_Driver/Src/stm32l0xx_hal_rtc_ex.c ****   /* Configure the clock source */
1193:../../../../../../Drivers/STM32L0xx_HAL_Driver/Src/stm32l0xx_hal_rtc_ex.c ****   hrtc->Instance->CR |= (uint32_t)WakeUpClock;
1194:../../../../../../Drivers/STM32L0xx_HAL_Driver/Src/stm32l0xx_hal_rtc_ex.c **** 
1195:../../../../../../Drivers/STM32L0xx_HAL_Driver/Src/stm32l0xx_hal_rtc_ex.c ****   /* Configure the Wakeup Timer counter */
1196:../../../../../../Drivers/STM32L0xx_HAL_Driver/Src/stm32l0xx_hal_rtc_ex.c ****   hrtc->Instance->WUTR = (uint32_t)WakeUpCounter;
1197:../../../../../../Drivers/STM32L0xx_HAL_Driver/Src/stm32l0xx_hal_rtc_ex.c **** 
1198:../../../../../../Drivers/STM32L0xx_HAL_Driver/Src/stm32l0xx_hal_rtc_ex.c ****    /* Enable the Wakeup Timer */
1199:../../../../../../Drivers/STM32L0xx_HAL_Driver/Src/stm32l0xx_hal_rtc_ex.c ****   __HAL_RTC_WAKEUPTIMER_ENABLE(hrtc);
1200:../../../../../../Drivers/STM32L0xx_HAL_Driver/Src/stm32l0xx_hal_rtc_ex.c **** 
1201:../../../../../../Drivers/STM32L0xx_HAL_Driver/Src/stm32l0xx_hal_rtc_ex.c ****   /* Enable the write protection for RTC registers */
1202:../../../../../../Drivers/STM32L0xx_HAL_Driver/Src/stm32l0xx_hal_rtc_ex.c ****   __HAL_RTC_WRITEPROTECTION_ENABLE(hrtc);
1203:../../../../../../Drivers/STM32L0xx_HAL_Driver/Src/stm32l0xx_hal_rtc_ex.c **** 
1204:../../../../../../Drivers/STM32L0xx_HAL_Driver/Src/stm32l0xx_hal_rtc_ex.c ****   hrtc->State = HAL_RTC_STATE_READY;
ARM GAS  C:\Users\EBANO_~1\AppData\Local\Temp\ccyPWgHX.s 			page 56


1205:../../../../../../Drivers/STM32L0xx_HAL_Driver/Src/stm32l0xx_hal_rtc_ex.c **** 
1206:../../../../../../Drivers/STM32L0xx_HAL_Driver/Src/stm32l0xx_hal_rtc_ex.c ****   /* Process Unlocked */
1207:../../../../../../Drivers/STM32L0xx_HAL_Driver/Src/stm32l0xx_hal_rtc_ex.c ****   __HAL_UNLOCK(hrtc);
1208:../../../../../../Drivers/STM32L0xx_HAL_Driver/Src/stm32l0xx_hal_rtc_ex.c **** 
1209:../../../../../../Drivers/STM32L0xx_HAL_Driver/Src/stm32l0xx_hal_rtc_ex.c ****   return HAL_OK;
 1798              		.loc 1 1209 0
 1799 0080 0020     		movs	r0, #0
1190:../../../../../../Drivers/STM32L0xx_HAL_Driver/Src/stm32l0xx_hal_rtc_ex.c **** 
 1800              		.loc 1 1190 0
 1801 0082 8A43     		bics	r2, r1
1193:../../../../../../Drivers/STM32L0xx_HAL_Driver/Src/stm32l0xx_hal_rtc_ex.c **** 
 1802              		.loc 1 1193 0
 1803 0084 5146     		mov	r1, r10
1190:../../../../../../Drivers/STM32L0xx_HAL_Driver/Src/stm32l0xx_hal_rtc_ex.c **** 
 1804              		.loc 1 1190 0
 1805 0086 9A60     		str	r2, [r3, #8]
1193:../../../../../../Drivers/STM32L0xx_HAL_Driver/Src/stm32l0xx_hal_rtc_ex.c **** 
 1806              		.loc 1 1193 0
 1807 0088 9A68     		ldr	r2, [r3, #8]
 1808 008a 0A43     		orrs	r2, r1
 1809 008c 9A60     		str	r2, [r3, #8]
1196:../../../../../../Drivers/STM32L0xx_HAL_Driver/Src/stm32l0xx_hal_rtc_ex.c **** 
 1810              		.loc 1 1196 0
 1811 008e 4A46     		mov	r2, r9
 1812 0090 5A61     		str	r2, [r3, #20]
1199:../../../../../../Drivers/STM32L0xx_HAL_Driver/Src/stm32l0xx_hal_rtc_ex.c **** 
 1813              		.loc 1 1199 0
 1814 0092 8022     		movs	r2, #128
 1815 0094 9968     		ldr	r1, [r3, #8]
 1816 0096 D200     		lsls	r2, r2, #3
 1817 0098 0A43     		orrs	r2, r1
 1818 009a 9A60     		str	r2, [r3, #8]
1202:../../../../../../Drivers/STM32L0xx_HAL_Driver/Src/stm32l0xx_hal_rtc_ex.c **** 
 1819              		.loc 1 1202 0
 1820 009c FF22     		movs	r2, #255
 1821 009e 5A62     		str	r2, [r3, #36]
1204:../../../../../../Drivers/STM32L0xx_HAL_Driver/Src/stm32l0xx_hal_rtc_ex.c **** 
 1822              		.loc 1 1204 0
 1823 00a0 2123     		movs	r3, #33
 1824 00a2 FE3A     		subs	r2, r2, #254
 1825 00a4 EA54     		strb	r2, [r5, r3]
1207:../../../../../../Drivers/STM32L0xx_HAL_Driver/Src/stm32l0xx_hal_rtc_ex.c **** 
 1826              		.loc 1 1207 0
 1827 00a6 0022     		movs	r2, #0
 1828 00a8 013B     		subs	r3, r3, #1
 1829 00aa EA54     		strb	r2, [r5, r3]
 1830              	.LVL125:
 1831              	.L202:
1210:../../../../../../Drivers/STM32L0xx_HAL_Driver/Src/stm32l0xx_hal_rtc_ex.c **** }
 1832              		.loc 1 1210 0
 1833              		@ sp needed
 1834              	.LVL126:
 1835              	.LVL127:
 1836              	.LVL128:
 1837 00ac 1CBC     		pop	{r2, r3, r4}
 1838 00ae 9046     		mov	r8, r2
 1839 00b0 9946     		mov	r9, r3
ARM GAS  C:\Users\EBANO_~1\AppData\Local\Temp\ccyPWgHX.s 			page 57


 1840 00b2 A246     		mov	r10, r4
 1841 00b4 F0BD     		pop	{r4, r5, r6, r7, pc}
 1842              	.LVL129:
 1843              	.L215:
1178:../../../../../../Drivers/STM32L0xx_HAL_Driver/Src/stm32l0xx_hal_rtc_ex.c **** 
 1844              		.loc 1 1178 0
 1845 00b6 FF22     		movs	r2, #255
 1846 00b8 2B68     		ldr	r3, [r5]
 1847              	.LVL130:
1185:../../../../../../Drivers/STM32L0xx_HAL_Driver/Src/stm32l0xx_hal_rtc_ex.c ****     }
 1848              		.loc 1 1185 0
 1849 00ba 0320     		movs	r0, #3
1178:../../../../../../Drivers/STM32L0xx_HAL_Driver/Src/stm32l0xx_hal_rtc_ex.c **** 
 1850              		.loc 1 1178 0
 1851 00bc 5A62     		str	r2, [r3, #36]
1180:../../../../../../Drivers/STM32L0xx_HAL_Driver/Src/stm32l0xx_hal_rtc_ex.c **** 
 1852              		.loc 1 1180 0
 1853 00be 2123     		movs	r3, #33
 1854 00c0 FC3A     		subs	r2, r2, #252
 1855 00c2 EA54     		strb	r2, [r5, r3]
1183:../../../../../../Drivers/STM32L0xx_HAL_Driver/Src/stm32l0xx_hal_rtc_ex.c **** 
 1856              		.loc 1 1183 0
 1857 00c4 013B     		subs	r3, r3, #1
 1858 00c6 EC54     		strb	r4, [r5, r3]
1185:../../../../../../Drivers/STM32L0xx_HAL_Driver/Src/stm32l0xx_hal_rtc_ex.c ****     }
 1859              		.loc 1 1185 0
 1860 00c8 F0E7     		b	.L202
 1861              	.LVL131:
 1862              	.L214:
1156:../../../../../../Drivers/STM32L0xx_HAL_Driver/Src/stm32l0xx_hal_rtc_ex.c **** 
 1863              		.loc 1 1156 0
 1864 00ca FF22     		movs	r2, #255
 1865 00cc 2B68     		ldr	r3, [r5]
1163:../../../../../../Drivers/STM32L0xx_HAL_Driver/Src/stm32l0xx_hal_rtc_ex.c ****       }
 1866              		.loc 1 1163 0
 1867 00ce 0320     		movs	r0, #3
1156:../../../../../../Drivers/STM32L0xx_HAL_Driver/Src/stm32l0xx_hal_rtc_ex.c **** 
 1868              		.loc 1 1156 0
 1869 00d0 5A62     		str	r2, [r3, #36]
1158:../../../../../../Drivers/STM32L0xx_HAL_Driver/Src/stm32l0xx_hal_rtc_ex.c **** 
 1870              		.loc 1 1158 0
 1871 00d2 2123     		movs	r3, #33
 1872 00d4 FC3A     		subs	r2, r2, #252
 1873 00d6 EA54     		strb	r2, [r5, r3]
1161:../../../../../../Drivers/STM32L0xx_HAL_Driver/Src/stm32l0xx_hal_rtc_ex.c **** 
 1874              		.loc 1 1161 0
 1875 00d8 0022     		movs	r2, #0
 1876 00da 013B     		subs	r3, r3, #1
 1877 00dc EA54     		strb	r2, [r5, r3]
1163:../../../../../../Drivers/STM32L0xx_HAL_Driver/Src/stm32l0xx_hal_rtc_ex.c ****       }
 1878              		.loc 1 1163 0
 1879 00de E5E7     		b	.L202
 1880              	.LVL132:
 1881              	.L208:
1139:../../../../../../Drivers/STM32L0xx_HAL_Driver/Src/stm32l0xx_hal_rtc_ex.c **** 
 1882              		.loc 1 1139 0
 1883 00e0 0220     		movs	r0, #2
ARM GAS  C:\Users\EBANO_~1\AppData\Local\Temp\ccyPWgHX.s 			page 58


 1884              	.LVL133:
 1885 00e2 E3E7     		b	.L202
 1886              	.L217:
 1887              		.align	2
 1888              	.L216:
 1889 00e4 FFFBFFFF 		.word	-1025
 1890              		.cfi_endproc
 1891              	.LFE55:
 1892              		.size	HAL_RTCEx_SetWakeUpTimer, .-HAL_RTCEx_SetWakeUpTimer
 1893              		.section	.text.HAL_RTCEx_SetWakeUpTimer_IT,"ax",%progbits
 1894              		.align	1
 1895              		.p2align 2,,3
 1896              		.global	HAL_RTCEx_SetWakeUpTimer_IT
 1897              		.syntax unified
 1898              		.code	16
 1899              		.thumb_func
 1900              		.fpu softvfp
 1901              		.type	HAL_RTCEx_SetWakeUpTimer_IT, %function
 1902              	HAL_RTCEx_SetWakeUpTimer_IT:
 1903              	.LFB56:
1211:../../../../../../Drivers/STM32L0xx_HAL_Driver/Src/stm32l0xx_hal_rtc_ex.c **** 
1212:../../../../../../Drivers/STM32L0xx_HAL_Driver/Src/stm32l0xx_hal_rtc_ex.c **** /**
1213:../../../../../../Drivers/STM32L0xx_HAL_Driver/Src/stm32l0xx_hal_rtc_ex.c ****   * @brief  Set wake up timer with interrupt.
1214:../../../../../../Drivers/STM32L0xx_HAL_Driver/Src/stm32l0xx_hal_rtc_ex.c ****   * @param  hrtc RTC handle
1215:../../../../../../Drivers/STM32L0xx_HAL_Driver/Src/stm32l0xx_hal_rtc_ex.c ****   * @param  WakeUpCounter Wake up counter
1216:../../../../../../Drivers/STM32L0xx_HAL_Driver/Src/stm32l0xx_hal_rtc_ex.c ****   * @param  WakeUpClock Wake up clock  
1217:../../../../../../Drivers/STM32L0xx_HAL_Driver/Src/stm32l0xx_hal_rtc_ex.c ****   * @retval HAL status
1218:../../../../../../Drivers/STM32L0xx_HAL_Driver/Src/stm32l0xx_hal_rtc_ex.c ****   */
1219:../../../../../../Drivers/STM32L0xx_HAL_Driver/Src/stm32l0xx_hal_rtc_ex.c **** HAL_StatusTypeDef HAL_RTCEx_SetWakeUpTimer_IT(RTC_HandleTypeDef *hrtc, uint32_t WakeUpCounter, uint
1220:../../../../../../Drivers/STM32L0xx_HAL_Driver/Src/stm32l0xx_hal_rtc_ex.c **** {
 1904              		.loc 1 1220 0
 1905              		.cfi_startproc
 1906              		@ args = 0, pretend = 0, frame = 0
 1907              		@ frame_needed = 0, uses_anonymous_args = 0
 1908              	.LVL134:
 1909 0000 F0B5     		push	{r4, r5, r6, r7, lr}
 1910              	.LCFI18:
 1911              		.cfi_def_cfa_offset 20
 1912              		.cfi_offset 4, -20
 1913              		.cfi_offset 5, -16
 1914              		.cfi_offset 6, -12
 1915              		.cfi_offset 7, -8
 1916              		.cfi_offset 14, -4
 1917 0002 D646     		mov	lr, r10
 1918 0004 4F46     		mov	r7, r9
 1919 0006 4646     		mov	r6, r8
1221:../../../../../../Drivers/STM32L0xx_HAL_Driver/Src/stm32l0xx_hal_rtc_ex.c ****   uint32_t tickstart = 0U;
1222:../../../../../../Drivers/STM32L0xx_HAL_Driver/Src/stm32l0xx_hal_rtc_ex.c **** 
1223:../../../../../../Drivers/STM32L0xx_HAL_Driver/Src/stm32l0xx_hal_rtc_ex.c ****   /* Check the parameters */
1224:../../../../../../Drivers/STM32L0xx_HAL_Driver/Src/stm32l0xx_hal_rtc_ex.c ****   assert_param(IS_RTC_WAKEUP_CLOCK(WakeUpClock));
1225:../../../../../../Drivers/STM32L0xx_HAL_Driver/Src/stm32l0xx_hal_rtc_ex.c ****   assert_param(IS_RTC_WAKEUP_COUNTER(WakeUpCounter));
1226:../../../../../../Drivers/STM32L0xx_HAL_Driver/Src/stm32l0xx_hal_rtc_ex.c **** 
1227:../../../../../../Drivers/STM32L0xx_HAL_Driver/Src/stm32l0xx_hal_rtc_ex.c ****   /* Process Locked */ 
1228:../../../../../../Drivers/STM32L0xx_HAL_Driver/Src/stm32l0xx_hal_rtc_ex.c ****   __HAL_LOCK(hrtc);
 1920              		.loc 1 1228 0
 1921 0008 2023     		movs	r3, #32
1220:../../../../../../Drivers/STM32L0xx_HAL_Driver/Src/stm32l0xx_hal_rtc_ex.c ****   uint32_t tickstart = 0U;
ARM GAS  C:\Users\EBANO_~1\AppData\Local\Temp\ccyPWgHX.s 			page 59


 1922              		.loc 1 1220 0
 1923 000a C0B5     		push	{r6, r7, lr}
 1924              	.LCFI19:
 1925              		.cfi_def_cfa_offset 32
 1926              		.cfi_offset 8, -32
 1927              		.cfi_offset 9, -28
 1928              		.cfi_offset 10, -24
1220:../../../../../../Drivers/STM32L0xx_HAL_Driver/Src/stm32l0xx_hal_rtc_ex.c ****   uint32_t tickstart = 0U;
 1929              		.loc 1 1220 0
 1930 000c 9146     		mov	r9, r2
 1931              		.loc 1 1228 0
 1932 000e C25C     		ldrb	r2, [r0, r3]
 1933              	.LVL135:
1220:../../../../../../Drivers/STM32L0xx_HAL_Driver/Src/stm32l0xx_hal_rtc_ex.c ****   uint32_t tickstart = 0U;
 1934              		.loc 1 1220 0
 1935 0010 0500     		movs	r5, r0
 1936 0012 8A46     		mov	r10, r1
 1937              		.loc 1 1228 0
 1938 0014 012A     		cmp	r2, #1
 1939 0016 00D1     		bne	.LCB1729
 1940 0018 77E0     		b	.L225	@long jump
 1941              	.LCB1729:
 1942              		.loc 1 1228 0 is_stmt 0 discriminator 2
 1943 001a 0122     		movs	r2, #1
 1944 001c C254     		strb	r2, [r0, r3]
1229:../../../../../../Drivers/STM32L0xx_HAL_Driver/Src/stm32l0xx_hal_rtc_ex.c **** 
1230:../../../../../../Drivers/STM32L0xx_HAL_Driver/Src/stm32l0xx_hal_rtc_ex.c ****   hrtc->State = HAL_RTC_STATE_BUSY;
 1945              		.loc 1 1230 0 is_stmt 1 discriminator 2
 1946 001e 0133     		adds	r3, r3, #1
 1947 0020 0132     		adds	r2, r2, #1
 1948 0022 C254     		strb	r2, [r0, r3]
1231:../../../../../../Drivers/STM32L0xx_HAL_Driver/Src/stm32l0xx_hal_rtc_ex.c **** 
1232:../../../../../../Drivers/STM32L0xx_HAL_Driver/Src/stm32l0xx_hal_rtc_ex.c ****   /* Disable the write protection for RTC registers */
1233:../../../../../../Drivers/STM32L0xx_HAL_Driver/Src/stm32l0xx_hal_rtc_ex.c ****   __HAL_RTC_WRITEPROTECTION_DISABLE(hrtc);
 1949              		.loc 1 1233 0 discriminator 2
 1950 0024 0368     		ldr	r3, [r0]
 1951 0026 C832     		adds	r2, r2, #200
 1952 0028 5A62     		str	r2, [r3, #36]
 1953 002a 773A     		subs	r2, r2, #119
 1954 002c 5A62     		str	r2, [r3, #36]
1234:../../../../../../Drivers/STM32L0xx_HAL_Driver/Src/stm32l0xx_hal_rtc_ex.c **** 
1235:../../../../../../Drivers/STM32L0xx_HAL_Driver/Src/stm32l0xx_hal_rtc_ex.c ****   /*Check RTC WUTWF flag is reset only when wake up timer enabled*/
1236:../../../../../../Drivers/STM32L0xx_HAL_Driver/Src/stm32l0xx_hal_rtc_ex.c ****   if((hrtc->Instance->CR & RTC_CR_WUTE) != RESET){
 1955              		.loc 1 1236 0 discriminator 2
 1956 002e 9A68     		ldr	r2, [r3, #8]
 1957 0030 5205     		lsls	r2, r2, #21
 1958 0032 0FD5     		bpl	.L220
1237:../../../../../../Drivers/STM32L0xx_HAL_Driver/Src/stm32l0xx_hal_rtc_ex.c ****     tickstart = HAL_GetTick();
 1959              		.loc 1 1237 0
 1960 0034 FFF7FEFF 		bl	HAL_GetTick
 1961              	.LVL136:
1238:../../../../../../Drivers/STM32L0xx_HAL_Driver/Src/stm32l0xx_hal_rtc_ex.c ****  
1239:../../../../../../Drivers/STM32L0xx_HAL_Driver/Src/stm32l0xx_hal_rtc_ex.c ****    /* Wait till RTC WUTWF flag is reset and if Time out is reached exit */
1240:../../../../../../Drivers/STM32L0xx_HAL_Driver/Src/stm32l0xx_hal_rtc_ex.c ****    while(__HAL_RTC_WAKEUPTIMER_GET_FLAG(hrtc, RTC_FLAG_WUTWF) == SET)
1241:../../../../../../Drivers/STM32L0xx_HAL_Driver/Src/stm32l0xx_hal_rtc_ex.c ****    {
1242:../../../../../../Drivers/STM32L0xx_HAL_Driver/Src/stm32l0xx_hal_rtc_ex.c ****     if((HAL_GetTick() - tickstart ) > RTC_TIMEOUT_VALUE)
 1962              		.loc 1 1242 0
ARM GAS  C:\Users\EBANO_~1\AppData\Local\Temp\ccyPWgHX.s 			page 60


 1963 0038 FA26     		movs	r6, #250
1237:../../../../../../Drivers/STM32L0xx_HAL_Driver/Src/stm32l0xx_hal_rtc_ex.c ****     tickstart = HAL_GetTick();
 1964              		.loc 1 1237 0
 1965 003a 0700     		movs	r7, r0
 1966              	.LVL137:
1240:../../../../../../Drivers/STM32L0xx_HAL_Driver/Src/stm32l0xx_hal_rtc_ex.c ****    {
 1967              		.loc 1 1240 0
 1968 003c 0424     		movs	r4, #4
 1969              		.loc 1 1242 0
 1970 003e B600     		lsls	r6, r6, #2
1240:../../../../../../Drivers/STM32L0xx_HAL_Driver/Src/stm32l0xx_hal_rtc_ex.c ****    {
 1971              		.loc 1 1240 0
 1972 0040 04E0     		b	.L221
 1973              	.LVL138:
 1974              	.L222:
 1975              		.loc 1 1242 0
 1976 0042 FFF7FEFF 		bl	HAL_GetTick
 1977              	.LVL139:
 1978 0046 C01B     		subs	r0, r0, r7
 1979 0048 B042     		cmp	r0, r6
 1980 004a 53D8     		bhi	.L231
 1981              	.L221:
1240:../../../../../../Drivers/STM32L0xx_HAL_Driver/Src/stm32l0xx_hal_rtc_ex.c ****    {
 1982              		.loc 1 1240 0
 1983 004c 2B68     		ldr	r3, [r5]
 1984 004e DA68     		ldr	r2, [r3, #12]
 1985 0050 1442     		tst	r4, r2
 1986 0052 F6D1     		bne	.L222
 1987              	.LVL140:
 1988              	.L220:
1243:../../../../../../Drivers/STM32L0xx_HAL_Driver/Src/stm32l0xx_hal_rtc_ex.c ****       {
1244:../../../../../../Drivers/STM32L0xx_HAL_Driver/Src/stm32l0xx_hal_rtc_ex.c ****        /* Enable the write protection for RTC registers */
1245:../../../../../../Drivers/STM32L0xx_HAL_Driver/Src/stm32l0xx_hal_rtc_ex.c ****        __HAL_RTC_WRITEPROTECTION_ENABLE(hrtc);
1246:../../../../../../Drivers/STM32L0xx_HAL_Driver/Src/stm32l0xx_hal_rtc_ex.c **** 
1247:../../../../../../Drivers/STM32L0xx_HAL_Driver/Src/stm32l0xx_hal_rtc_ex.c ****        hrtc->State = HAL_RTC_STATE_TIMEOUT;
1248:../../../../../../Drivers/STM32L0xx_HAL_Driver/Src/stm32l0xx_hal_rtc_ex.c **** 
1249:../../../../../../Drivers/STM32L0xx_HAL_Driver/Src/stm32l0xx_hal_rtc_ex.c ****        /* Process Unlocked */ 
1250:../../../../../../Drivers/STM32L0xx_HAL_Driver/Src/stm32l0xx_hal_rtc_ex.c ****        __HAL_UNLOCK(hrtc);
1251:../../../../../../Drivers/STM32L0xx_HAL_Driver/Src/stm32l0xx_hal_rtc_ex.c **** 
1252:../../../../../../Drivers/STM32L0xx_HAL_Driver/Src/stm32l0xx_hal_rtc_ex.c ****        return HAL_TIMEOUT;
1253:../../../../../../Drivers/STM32L0xx_HAL_Driver/Src/stm32l0xx_hal_rtc_ex.c ****       }
1254:../../../../../../Drivers/STM32L0xx_HAL_Driver/Src/stm32l0xx_hal_rtc_ex.c ****     }
1255:../../../../../../Drivers/STM32L0xx_HAL_Driver/Src/stm32l0xx_hal_rtc_ex.c ****   }
1256:../../../../../../Drivers/STM32L0xx_HAL_Driver/Src/stm32l0xx_hal_rtc_ex.c ****   /* Disable the Wake-Up timer */
1257:../../../../../../Drivers/STM32L0xx_HAL_Driver/Src/stm32l0xx_hal_rtc_ex.c ****   __HAL_RTC_WAKEUPTIMER_DISABLE(hrtc);
 1989              		.loc 1 1257 0
 1990 0054 9A68     		ldr	r2, [r3, #8]
 1991 0056 2E49     		ldr	r1, .L233
1258:../../../../../../Drivers/STM32L0xx_HAL_Driver/Src/stm32l0xx_hal_rtc_ex.c **** 
1259:../../../../../../Drivers/STM32L0xx_HAL_Driver/Src/stm32l0xx_hal_rtc_ex.c ****   /* Clear flag Wake-Up */
1260:../../../../../../Drivers/STM32L0xx_HAL_Driver/Src/stm32l0xx_hal_rtc_ex.c ****   __HAL_RTC_WAKEUPTIMER_CLEAR_FLAG(hrtc, RTC_FLAG_WUTF);
1261:../../../../../../Drivers/STM32L0xx_HAL_Driver/Src/stm32l0xx_hal_rtc_ex.c **** 
1262:../../../../../../Drivers/STM32L0xx_HAL_Driver/Src/stm32l0xx_hal_rtc_ex.c ****   tickstart = HAL_GetTick();
1263:../../../../../../Drivers/STM32L0xx_HAL_Driver/Src/stm32l0xx_hal_rtc_ex.c **** 
1264:../../../../../../Drivers/STM32L0xx_HAL_Driver/Src/stm32l0xx_hal_rtc_ex.c ****   /* Wait till RTC WUTWF flag is set and if Time out is reached exit */
1265:../../../../../../Drivers/STM32L0xx_HAL_Driver/Src/stm32l0xx_hal_rtc_ex.c ****   while(__HAL_RTC_WAKEUPTIMER_GET_FLAG(hrtc, RTC_FLAG_WUTWF) == RESET)
1266:../../../../../../Drivers/STM32L0xx_HAL_Driver/Src/stm32l0xx_hal_rtc_ex.c ****   {
ARM GAS  C:\Users\EBANO_~1\AppData\Local\Temp\ccyPWgHX.s 			page 61


1267:../../../../../../Drivers/STM32L0xx_HAL_Driver/Src/stm32l0xx_hal_rtc_ex.c ****     if((HAL_GetTick() - tickstart ) > RTC_TIMEOUT_VALUE)
 1992              		.loc 1 1267 0
 1993 0058 FA27     		movs	r7, #250
1257:../../../../../../Drivers/STM32L0xx_HAL_Driver/Src/stm32l0xx_hal_rtc_ex.c **** 
 1994              		.loc 1 1257 0
 1995 005a 0A40     		ands	r2, r1
 1996 005c 9A60     		str	r2, [r3, #8]
1260:../../../../../../Drivers/STM32L0xx_HAL_Driver/Src/stm32l0xx_hal_rtc_ex.c **** 
 1997              		.loc 1 1260 0
 1998 005e FF22     		movs	r2, #255
 1999 0060 D968     		ldr	r1, [r3, #12]
1265:../../../../../../Drivers/STM32L0xx_HAL_Driver/Src/stm32l0xx_hal_rtc_ex.c ****   {
 2000              		.loc 1 1265 0
 2001 0062 0426     		movs	r6, #4
1260:../../../../../../Drivers/STM32L0xx_HAL_Driver/Src/stm32l0xx_hal_rtc_ex.c **** 
 2002              		.loc 1 1260 0
 2003 0064 1140     		ands	r1, r2
 2004 0066 2B4A     		ldr	r2, .L233+4
 2005              		.loc 1 1267 0
 2006 0068 BF00     		lsls	r7, r7, #2
1260:../../../../../../Drivers/STM32L0xx_HAL_Driver/Src/stm32l0xx_hal_rtc_ex.c **** 
 2007              		.loc 1 1260 0
 2008 006a 0A43     		orrs	r2, r1
 2009 006c DA60     		str	r2, [r3, #12]
1262:../../../../../../Drivers/STM32L0xx_HAL_Driver/Src/stm32l0xx_hal_rtc_ex.c **** 
 2010              		.loc 1 1262 0
 2011 006e FFF7FEFF 		bl	HAL_GetTick
 2012              	.LVL141:
 2013 0072 8046     		mov	r8, r0
 2014              	.LVL142:
1265:../../../../../../Drivers/STM32L0xx_HAL_Driver/Src/stm32l0xx_hal_rtc_ex.c ****   {
 2015              		.loc 1 1265 0
 2016 0074 05E0     		b	.L223
 2017              	.LVL143:
 2018              	.L224:
 2019              		.loc 1 1267 0
 2020 0076 FFF7FEFF 		bl	HAL_GetTick
 2021              	.LVL144:
 2022 007a 4346     		mov	r3, r8
 2023 007c C01A     		subs	r0, r0, r3
 2024 007e B842     		cmp	r0, r7
 2025 0080 2ED8     		bhi	.L232
 2026              	.L223:
1265:../../../../../../Drivers/STM32L0xx_HAL_Driver/Src/stm32l0xx_hal_rtc_ex.c ****   {
 2027              		.loc 1 1265 0
 2028 0082 2B68     		ldr	r3, [r5]
 2029 0084 DC68     		ldr	r4, [r3, #12]
 2030 0086 3440     		ands	r4, r6
 2031 0088 F5D0     		beq	.L224
1268:../../../../../../Drivers/STM32L0xx_HAL_Driver/Src/stm32l0xx_hal_rtc_ex.c ****     {
1269:../../../../../../Drivers/STM32L0xx_HAL_Driver/Src/stm32l0xx_hal_rtc_ex.c ****       /* Enable the write protection for RTC registers */
1270:../../../../../../Drivers/STM32L0xx_HAL_Driver/Src/stm32l0xx_hal_rtc_ex.c ****       __HAL_RTC_WRITEPROTECTION_ENABLE(hrtc);
1271:../../../../../../Drivers/STM32L0xx_HAL_Driver/Src/stm32l0xx_hal_rtc_ex.c **** 
1272:../../../../../../Drivers/STM32L0xx_HAL_Driver/Src/stm32l0xx_hal_rtc_ex.c ****       hrtc->State = HAL_RTC_STATE_TIMEOUT; 
1273:../../../../../../Drivers/STM32L0xx_HAL_Driver/Src/stm32l0xx_hal_rtc_ex.c **** 
