ARM GAS  C:\Users\EBANO_~1\AppData\Local\Temp\cc8t01eQ.s 			page 1


   1              		.cpu cortex-m0plus
   2              		.eabi_attribute 20, 1
   3              		.eabi_attribute 21, 1
   4              		.eabi_attribute 23, 3
   5              		.eabi_attribute 24, 1
   6              		.eabi_attribute 25, 1
   7              		.eabi_attribute 26, 1
   8              		.eabi_attribute 30, 2
   9              		.eabi_attribute 34, 0
  10              		.eabi_attribute 18, 4
  11              		.file	"stm32l0xx_hal_rtc.c"
  12              		.text
  13              	.Ltext0:
  14              		.cfi_sections	.debug_frame
  15              		.section	.text.HAL_RTC_MspInit,"ax",%progbits
  16              		.align	1
  17              		.p2align 2,,3
  18              		.weak	HAL_RTC_MspInit
  19              		.syntax unified
  20              		.code	16
  21              		.thumb_func
  22              		.fpu softvfp
  23              		.type	HAL_RTC_MspInit, %function
  24              	HAL_RTC_MspInit:
  25              	.LFB41:
  26              		.file 1 "../../../../../../Drivers/STM32L0xx_HAL_Driver/Src/stm32l0xx_hal_rtc.c"
   1:../../../../../../Drivers/STM32L0xx_HAL_Driver/Src/stm32l0xx_hal_rtc.c **** /**
   2:../../../../../../Drivers/STM32L0xx_HAL_Driver/Src/stm32l0xx_hal_rtc.c ****   ******************************************************************************
   3:../../../../../../Drivers/STM32L0xx_HAL_Driver/Src/stm32l0xx_hal_rtc.c ****   * @file    stm32l0xx_hal_rtc.c
   4:../../../../../../Drivers/STM32L0xx_HAL_Driver/Src/stm32l0xx_hal_rtc.c ****   * @author  MCD Application Team
   5:../../../../../../Drivers/STM32L0xx_HAL_Driver/Src/stm32l0xx_hal_rtc.c ****   * @brief   RTC HAL module driver.
   6:../../../../../../Drivers/STM32L0xx_HAL_Driver/Src/stm32l0xx_hal_rtc.c ****   *          This file provides firmware functions to manage the following
   7:../../../../../../Drivers/STM32L0xx_HAL_Driver/Src/stm32l0xx_hal_rtc.c ****   *          functionalities of the Real Time Clock (RTC) peripheral:
   8:../../../../../../Drivers/STM32L0xx_HAL_Driver/Src/stm32l0xx_hal_rtc.c ****   *           + Initialization/de-initialization functions
   9:../../../../../../Drivers/STM32L0xx_HAL_Driver/Src/stm32l0xx_hal_rtc.c ****   *           + I/O operation functions
  10:../../../../../../Drivers/STM32L0xx_HAL_Driver/Src/stm32l0xx_hal_rtc.c ****   *           + Peripheral Control functions
  11:../../../../../../Drivers/STM32L0xx_HAL_Driver/Src/stm32l0xx_hal_rtc.c ****   *           + Peripheral State functions
  12:../../../../../../Drivers/STM32L0xx_HAL_Driver/Src/stm32l0xx_hal_rtc.c ****   *         
  13:../../../../../../Drivers/STM32L0xx_HAL_Driver/Src/stm32l0xx_hal_rtc.c ****   @verbatim
  14:../../../../../../Drivers/STM32L0xx_HAL_Driver/Src/stm32l0xx_hal_rtc.c ****   ==============================================================================
  15:../../../../../../Drivers/STM32L0xx_HAL_Driver/Src/stm32l0xx_hal_rtc.c ****               ##### Backup Domain Operating Condition #####
  16:../../../../../../Drivers/STM32L0xx_HAL_Driver/Src/stm32l0xx_hal_rtc.c ****   ==============================================================================
  17:../../../../../../Drivers/STM32L0xx_HAL_Driver/Src/stm32l0xx_hal_rtc.c ****   [..] As long as the supply voltage remains in the operating range, 
  18:../../../../../../Drivers/STM32L0xx_HAL_Driver/Src/stm32l0xx_hal_rtc.c ****        the RTC never stops, regardless of the device status (Run mode, 
  19:../../../../../../Drivers/STM32L0xx_HAL_Driver/Src/stm32l0xx_hal_rtc.c ****        low power modes or under reset).
  20:../../../../../../Drivers/STM32L0xx_HAL_Driver/Src/stm32l0xx_hal_rtc.c **** 
  21:../../../../../../Drivers/STM32L0xx_HAL_Driver/Src/stm32l0xx_hal_rtc.c ****                    ##### Backup Domain Reset #####
  22:../../../../../../Drivers/STM32L0xx_HAL_Driver/Src/stm32l0xx_hal_rtc.c ****   ==================================================================
  23:../../../../../../Drivers/STM32L0xx_HAL_Driver/Src/stm32l0xx_hal_rtc.c ****   [..] The backup domain reset sets all RTC registers and the RCC_CSR register 
  24:../../../../../../Drivers/STM32L0xx_HAL_Driver/Src/stm32l0xx_hal_rtc.c ****        to their reset values.
  25:../../../../../../Drivers/STM32L0xx_HAL_Driver/Src/stm32l0xx_hal_rtc.c ****   [..] A backup domain reset is generated when one of the following events occurs:
  26:../../../../../../Drivers/STM32L0xx_HAL_Driver/Src/stm32l0xx_hal_rtc.c ****     (+) Software reset, triggered by setting the RTCRST bit in the 
  27:../../../../../../Drivers/STM32L0xx_HAL_Driver/Src/stm32l0xx_hal_rtc.c ****         RCC Control Status register (RCC_CSR).
  28:../../../../../../Drivers/STM32L0xx_HAL_Driver/Src/stm32l0xx_hal_rtc.c ****     (+) Power reset (BOR/POR/PDR).
  29:../../../../../../Drivers/STM32L0xx_HAL_Driver/Src/stm32l0xx_hal_rtc.c **** 
  30:../../../../../../Drivers/STM32L0xx_HAL_Driver/Src/stm32l0xx_hal_rtc.c ****                    ##### Backup Domain Access #####
  31:../../../../../../Drivers/STM32L0xx_HAL_Driver/Src/stm32l0xx_hal_rtc.c ****   ==================================================================
ARM GAS  C:\Users\EBANO_~1\AppData\Local\Temp\cc8t01eQ.s 			page 2


  32:../../../../../../Drivers/STM32L0xx_HAL_Driver/Src/stm32l0xx_hal_rtc.c ****   [..] After reset, the backup domain (RTC registers and RTC backup data registers) 
  33:../../../../../../Drivers/STM32L0xx_HAL_Driver/Src/stm32l0xx_hal_rtc.c ****        is protected against possible unwanted write accesses. 
  34:../../../../../../Drivers/STM32L0xx_HAL_Driver/Src/stm32l0xx_hal_rtc.c ****   [..] To enable access to the RTC Domain and RTC registers, proceed as follows:
  35:../../../../../../Drivers/STM32L0xx_HAL_Driver/Src/stm32l0xx_hal_rtc.c ****     (+) Enable the Power Controller (PWR) APB1 interface clock using the
  36:../../../../../../Drivers/STM32L0xx_HAL_Driver/Src/stm32l0xx_hal_rtc.c ****         __HAL_RCC_PWR_CLK_ENABLE() function.
  37:../../../../../../Drivers/STM32L0xx_HAL_Driver/Src/stm32l0xx_hal_rtc.c ****     (+) Enable access to RTC domain using the HAL_PWR_EnableBkUpAccess() function.
  38:../../../../../../Drivers/STM32L0xx_HAL_Driver/Src/stm32l0xx_hal_rtc.c ****     (+) Select the RTC clock source using the __HAL_RCC_RTC_CONFIG() function.
  39:../../../../../../Drivers/STM32L0xx_HAL_Driver/Src/stm32l0xx_hal_rtc.c ****     (+) Enable RTC Clock using the __HAL_RCC_RTC_ENABLE() function.
  40:../../../../../../Drivers/STM32L0xx_HAL_Driver/Src/stm32l0xx_hal_rtc.c **** 
  41:../../../../../../Drivers/STM32L0xx_HAL_Driver/Src/stm32l0xx_hal_rtc.c **** 
  42:../../../../../../Drivers/STM32L0xx_HAL_Driver/Src/stm32l0xx_hal_rtc.c ****                   ##### How to use RTC Driver #####
  43:../../../../../../Drivers/STM32L0xx_HAL_Driver/Src/stm32l0xx_hal_rtc.c ****  ===================================================================
  44:../../../../../../Drivers/STM32L0xx_HAL_Driver/Src/stm32l0xx_hal_rtc.c ****   [..]
  45:../../../../../../Drivers/STM32L0xx_HAL_Driver/Src/stm32l0xx_hal_rtc.c ****     (+) Enable the RTC domain access (see description in the section above).
  46:../../../../../../Drivers/STM32L0xx_HAL_Driver/Src/stm32l0xx_hal_rtc.c ****     (+) Configure the RTC Prescaler (Asynchronous and Synchronous) and RTC hour
  47:../../../../../../Drivers/STM32L0xx_HAL_Driver/Src/stm32l0xx_hal_rtc.c ****         format using the HAL_RTC_Init() function.
  48:../../../../../../Drivers/STM32L0xx_HAL_Driver/Src/stm32l0xx_hal_rtc.c **** 
  49:../../../../../../Drivers/STM32L0xx_HAL_Driver/Src/stm32l0xx_hal_rtc.c ****   *** Time and Date configuration ***
  50:../../../../../../Drivers/STM32L0xx_HAL_Driver/Src/stm32l0xx_hal_rtc.c ****   ===================================
  51:../../../../../../Drivers/STM32L0xx_HAL_Driver/Src/stm32l0xx_hal_rtc.c ****   [..] 
  52:../../../../../../Drivers/STM32L0xx_HAL_Driver/Src/stm32l0xx_hal_rtc.c ****     (+) To configure the RTC Calendar (Time and Date) use the HAL_RTC_SetTime()
  53:../../../../../../Drivers/STM32L0xx_HAL_Driver/Src/stm32l0xx_hal_rtc.c ****         and HAL_RTC_SetDate() functions.
  54:../../../../../../Drivers/STM32L0xx_HAL_Driver/Src/stm32l0xx_hal_rtc.c ****     (+) To read the RTC Calendar, use the HAL_RTC_GetTime() and HAL_RTC_GetDate() functions.
  55:../../../../../../Drivers/STM32L0xx_HAL_Driver/Src/stm32l0xx_hal_rtc.c **** 
  56:../../../../../../Drivers/STM32L0xx_HAL_Driver/Src/stm32l0xx_hal_rtc.c ****   *** Alarm configuration ***
  57:../../../../../../Drivers/STM32L0xx_HAL_Driver/Src/stm32l0xx_hal_rtc.c ****   ===========================
  58:../../../../../../Drivers/STM32L0xx_HAL_Driver/Src/stm32l0xx_hal_rtc.c ****   [..]
  59:../../../../../../Drivers/STM32L0xx_HAL_Driver/Src/stm32l0xx_hal_rtc.c ****     (+) To configure the RTC Alarm use the HAL_RTC_SetAlarm() function.
  60:../../../../../../Drivers/STM32L0xx_HAL_Driver/Src/stm32l0xx_hal_rtc.c ****             You can also configure the RTC Alarm with interrupt mode using the 
  61:../../../../../../Drivers/STM32L0xx_HAL_Driver/Src/stm32l0xx_hal_rtc.c ****             HAL_RTC_SetAlarm_IT() function.
  62:../../../../../../Drivers/STM32L0xx_HAL_Driver/Src/stm32l0xx_hal_rtc.c ****     (+) To read the RTC Alarm, use the HAL_RTC_GetAlarm() function.
  63:../../../../../../Drivers/STM32L0xx_HAL_Driver/Src/stm32l0xx_hal_rtc.c **** 
  64:../../../../../../Drivers/STM32L0xx_HAL_Driver/Src/stm32l0xx_hal_rtc.c ****                   ##### RTC and low power modes #####
  65:../../../../../../Drivers/STM32L0xx_HAL_Driver/Src/stm32l0xx_hal_rtc.c ****   ==================================================================
  66:../../../../../../Drivers/STM32L0xx_HAL_Driver/Src/stm32l0xx_hal_rtc.c ****   [..] The MCU can be woken up from a low power mode by an RTC alternate
  67:../../../../../../Drivers/STM32L0xx_HAL_Driver/Src/stm32l0xx_hal_rtc.c ****        function.
  68:../../../../../../Drivers/STM32L0xx_HAL_Driver/Src/stm32l0xx_hal_rtc.c ****   [..] The RTC alternate functions are the RTC alarms (Alarm A and Alarm B),
  69:../../../../../../Drivers/STM32L0xx_HAL_Driver/Src/stm32l0xx_hal_rtc.c ****        RTC wakeup, RTC tamper event detection and RTC time stamp event detection.
  70:../../../../../../Drivers/STM32L0xx_HAL_Driver/Src/stm32l0xx_hal_rtc.c ****        These RTC alternate functions can wake up the system from the Stop and 
  71:../../../../../../Drivers/STM32L0xx_HAL_Driver/Src/stm32l0xx_hal_rtc.c ****        Standby low power modes.
  72:../../../../../../Drivers/STM32L0xx_HAL_Driver/Src/stm32l0xx_hal_rtc.c ****   [..] The system can also wake up from low power modes without depending
  73:../../../../../../Drivers/STM32L0xx_HAL_Driver/Src/stm32l0xx_hal_rtc.c ****        on an external interrupt (Auto-wakeup mode), by using the RTC alarm
  74:../../../../../../Drivers/STM32L0xx_HAL_Driver/Src/stm32l0xx_hal_rtc.c ****        or the RTC wakeup events.
  75:../../../../../../Drivers/STM32L0xx_HAL_Driver/Src/stm32l0xx_hal_rtc.c ****   [..] The RTC provides a programmable time base for waking up from the
  76:../../../../../../Drivers/STM32L0xx_HAL_Driver/Src/stm32l0xx_hal_rtc.c ****        Stop or Standby mode at regular intervals.
  77:../../../../../../Drivers/STM32L0xx_HAL_Driver/Src/stm32l0xx_hal_rtc.c ****        Wakeup from STOP and STANDBY modes is possible only when the RTC clock source
  78:../../../../../../Drivers/STM32L0xx_HAL_Driver/Src/stm32l0xx_hal_rtc.c ****        is LSE or LSI.
  79:../../../../../../Drivers/STM32L0xx_HAL_Driver/Src/stm32l0xx_hal_rtc.c **** 
  80:../../../../../../Drivers/STM32L0xx_HAL_Driver/Src/stm32l0xx_hal_rtc.c ****    @endverbatim
  81:../../../../../../Drivers/STM32L0xx_HAL_Driver/Src/stm32l0xx_hal_rtc.c ****   ******************************************************************************
  82:../../../../../../Drivers/STM32L0xx_HAL_Driver/Src/stm32l0xx_hal_rtc.c ****   * @attention
  83:../../../../../../Drivers/STM32L0xx_HAL_Driver/Src/stm32l0xx_hal_rtc.c ****   *
  84:../../../../../../Drivers/STM32L0xx_HAL_Driver/Src/stm32l0xx_hal_rtc.c ****   * <h2><center>&copy; COPYRIGHT(c) 2016 STMicroelectronics</center></h2>
  85:../../../../../../Drivers/STM32L0xx_HAL_Driver/Src/stm32l0xx_hal_rtc.c ****   *
  86:../../../../../../Drivers/STM32L0xx_HAL_Driver/Src/stm32l0xx_hal_rtc.c ****   * Redistribution and use in source and binary forms, with or without modification,
  87:../../../../../../Drivers/STM32L0xx_HAL_Driver/Src/stm32l0xx_hal_rtc.c ****   * are permitted provided that the following conditions are met:
  88:../../../../../../Drivers/STM32L0xx_HAL_Driver/Src/stm32l0xx_hal_rtc.c ****   *   1. Redistributions of source code must retain the above copyright notice,
ARM GAS  C:\Users\EBANO_~1\AppData\Local\Temp\cc8t01eQ.s 			page 3


  89:../../../../../../Drivers/STM32L0xx_HAL_Driver/Src/stm32l0xx_hal_rtc.c ****   *      this list of conditions and the following disclaimer.
  90:../../../../../../Drivers/STM32L0xx_HAL_Driver/Src/stm32l0xx_hal_rtc.c ****   *   2. Redistributions in binary form must reproduce the above copyright notice,
  91:../../../../../../Drivers/STM32L0xx_HAL_Driver/Src/stm32l0xx_hal_rtc.c ****   *      this list of conditions and the following disclaimer in the documentation
  92:../../../../../../Drivers/STM32L0xx_HAL_Driver/Src/stm32l0xx_hal_rtc.c ****   *      and/or other materials provided with the distribution.
  93:../../../../../../Drivers/STM32L0xx_HAL_Driver/Src/stm32l0xx_hal_rtc.c ****   *   3. Neither the name of STMicroelectronics nor the names of its contributors
  94:../../../../../../Drivers/STM32L0xx_HAL_Driver/Src/stm32l0xx_hal_rtc.c ****   *      may be used to endorse or promote products derived from this software
  95:../../../../../../Drivers/STM32L0xx_HAL_Driver/Src/stm32l0xx_hal_rtc.c ****   *      without specific prior written permission.
  96:../../../../../../Drivers/STM32L0xx_HAL_Driver/Src/stm32l0xx_hal_rtc.c ****   *
  97:../../../../../../Drivers/STM32L0xx_HAL_Driver/Src/stm32l0xx_hal_rtc.c ****   * THIS SOFTWARE IS PROVIDED BY THE COPYRIGHT HOLDERS AND CONTRIBUTORS "AS IS"
  98:../../../../../../Drivers/STM32L0xx_HAL_Driver/Src/stm32l0xx_hal_rtc.c ****   * AND ANY EXPRESS OR IMPLIED WARRANTIES, INCLUDING, BUT NOT LIMITED TO, THE
  99:../../../../../../Drivers/STM32L0xx_HAL_Driver/Src/stm32l0xx_hal_rtc.c ****   * IMPLIED WARRANTIES OF MERCHANTABILITY AND FITNESS FOR A PARTICULAR PURPOSE ARE
 100:../../../../../../Drivers/STM32L0xx_HAL_Driver/Src/stm32l0xx_hal_rtc.c ****   * DISCLAIMED. IN NO EVENT SHALL THE COPYRIGHT HOLDER OR CONTRIBUTORS BE LIABLE
 101:../../../../../../Drivers/STM32L0xx_HAL_Driver/Src/stm32l0xx_hal_rtc.c ****   * FOR ANY DIRECT, INDIRECT, INCIDENTAL, SPECIAL, EXEMPLARY, OR CONSEQUENTIAL
 102:../../../../../../Drivers/STM32L0xx_HAL_Driver/Src/stm32l0xx_hal_rtc.c ****   * DAMAGES (INCLUDING, BUT NOT LIMITED TO, PROCUREMENT OF SUBSTITUTE GOODS OR
 103:../../../../../../Drivers/STM32L0xx_HAL_Driver/Src/stm32l0xx_hal_rtc.c ****   * SERVICES; LOSS OF USE, DATA, OR PROFITS; OR BUSINESS INTERRUPTION) HOWEVER
 104:../../../../../../Drivers/STM32L0xx_HAL_Driver/Src/stm32l0xx_hal_rtc.c ****   * CAUSED AND ON ANY THEORY OF LIABILITY, WHETHER IN CONTRACT, STRICT LIABILITY,
 105:../../../../../../Drivers/STM32L0xx_HAL_Driver/Src/stm32l0xx_hal_rtc.c ****   * OR TORT (INCLUDING NEGLIGENCE OR OTHERWISE) ARISING IN ANY WAY OUT OF THE USE
 106:../../../../../../Drivers/STM32L0xx_HAL_Driver/Src/stm32l0xx_hal_rtc.c ****   * OF THIS SOFTWARE, EVEN IF ADVISED OF THE POSSIBILITY OF SUCH DAMAGE.
 107:../../../../../../Drivers/STM32L0xx_HAL_Driver/Src/stm32l0xx_hal_rtc.c ****   *
 108:../../../../../../Drivers/STM32L0xx_HAL_Driver/Src/stm32l0xx_hal_rtc.c ****   ******************************************************************************  
 109:../../../../../../Drivers/STM32L0xx_HAL_Driver/Src/stm32l0xx_hal_rtc.c ****   */
 110:../../../../../../Drivers/STM32L0xx_HAL_Driver/Src/stm32l0xx_hal_rtc.c **** 
 111:../../../../../../Drivers/STM32L0xx_HAL_Driver/Src/stm32l0xx_hal_rtc.c **** /* Includes ------------------------------------------------------------------*/
 112:../../../../../../Drivers/STM32L0xx_HAL_Driver/Src/stm32l0xx_hal_rtc.c **** #include "stm32l0xx_hal.h"
 113:../../../../../../Drivers/STM32L0xx_HAL_Driver/Src/stm32l0xx_hal_rtc.c **** 
 114:../../../../../../Drivers/STM32L0xx_HAL_Driver/Src/stm32l0xx_hal_rtc.c **** /** @addtogroup STM32L0xx_HAL_Driver
 115:../../../../../../Drivers/STM32L0xx_HAL_Driver/Src/stm32l0xx_hal_rtc.c ****   * @{
 116:../../../../../../Drivers/STM32L0xx_HAL_Driver/Src/stm32l0xx_hal_rtc.c ****   */
 117:../../../../../../Drivers/STM32L0xx_HAL_Driver/Src/stm32l0xx_hal_rtc.c **** 
 118:../../../../../../Drivers/STM32L0xx_HAL_Driver/Src/stm32l0xx_hal_rtc.c **** 
 119:../../../../../../Drivers/STM32L0xx_HAL_Driver/Src/stm32l0xx_hal_rtc.c **** /** @addtogroup RTC
 120:../../../../../../Drivers/STM32L0xx_HAL_Driver/Src/stm32l0xx_hal_rtc.c ****   * @brief RTC HAL module driver
 121:../../../../../../Drivers/STM32L0xx_HAL_Driver/Src/stm32l0xx_hal_rtc.c ****   * @{
 122:../../../../../../Drivers/STM32L0xx_HAL_Driver/Src/stm32l0xx_hal_rtc.c ****   */
 123:../../../../../../Drivers/STM32L0xx_HAL_Driver/Src/stm32l0xx_hal_rtc.c **** 
 124:../../../../../../Drivers/STM32L0xx_HAL_Driver/Src/stm32l0xx_hal_rtc.c **** #ifdef HAL_RTC_MODULE_ENABLED
 125:../../../../../../Drivers/STM32L0xx_HAL_Driver/Src/stm32l0xx_hal_rtc.c **** 
 126:../../../../../../Drivers/STM32L0xx_HAL_Driver/Src/stm32l0xx_hal_rtc.c **** /* Private typedef -----------------------------------------------------------*/
 127:../../../../../../Drivers/STM32L0xx_HAL_Driver/Src/stm32l0xx_hal_rtc.c **** /* Private define ------------------------------------------------------------*/
 128:../../../../../../Drivers/STM32L0xx_HAL_Driver/Src/stm32l0xx_hal_rtc.c **** /* Private macro -------------------------------------------------------------*/
 129:../../../../../../Drivers/STM32L0xx_HAL_Driver/Src/stm32l0xx_hal_rtc.c **** /* Private variables ---------------------------------------------------------*/
 130:../../../../../../Drivers/STM32L0xx_HAL_Driver/Src/stm32l0xx_hal_rtc.c **** /* Private function prototypes -----------------------------------------------*/
 131:../../../../../../Drivers/STM32L0xx_HAL_Driver/Src/stm32l0xx_hal_rtc.c **** /* Exported functions --------------------------------------------------------*/
 132:../../../../../../Drivers/STM32L0xx_HAL_Driver/Src/stm32l0xx_hal_rtc.c **** 
 133:../../../../../../Drivers/STM32L0xx_HAL_Driver/Src/stm32l0xx_hal_rtc.c **** /** @addtogroup RTC_Exported_Functions
 134:../../../../../../Drivers/STM32L0xx_HAL_Driver/Src/stm32l0xx_hal_rtc.c ****   * @{
 135:../../../../../../Drivers/STM32L0xx_HAL_Driver/Src/stm32l0xx_hal_rtc.c ****   */
 136:../../../../../../Drivers/STM32L0xx_HAL_Driver/Src/stm32l0xx_hal_rtc.c **** 
 137:../../../../../../Drivers/STM32L0xx_HAL_Driver/Src/stm32l0xx_hal_rtc.c **** /** @addtogroup RTC_Exported_Functions_Group1
 138:../../../../../../Drivers/STM32L0xx_HAL_Driver/Src/stm32l0xx_hal_rtc.c ****  *  @brief    Initialization and Configuration functions 
 139:../../../../../../Drivers/STM32L0xx_HAL_Driver/Src/stm32l0xx_hal_rtc.c ****  *
 140:../../../../../../Drivers/STM32L0xx_HAL_Driver/Src/stm32l0xx_hal_rtc.c **** @verbatim
 141:../../../../../../Drivers/STM32L0xx_HAL_Driver/Src/stm32l0xx_hal_rtc.c ****  ===============================================================================
 142:../../../../../../Drivers/STM32L0xx_HAL_Driver/Src/stm32l0xx_hal_rtc.c ****               ##### Initialization and de-initialization functions #####
 143:../../../../../../Drivers/STM32L0xx_HAL_Driver/Src/stm32l0xx_hal_rtc.c ****  ===============================================================================
 144:../../../../../../Drivers/STM32L0xx_HAL_Driver/Src/stm32l0xx_hal_rtc.c ****    [..] This section provides functions allowing to initialize and configure the 
 145:../../../../../../Drivers/STM32L0xx_HAL_Driver/Src/stm32l0xx_hal_rtc.c ****          RTC Prescaler (Synchronous and Asynchronous), RTC Hour format, disable 
ARM GAS  C:\Users\EBANO_~1\AppData\Local\Temp\cc8t01eQ.s 			page 4


 146:../../../../../../Drivers/STM32L0xx_HAL_Driver/Src/stm32l0xx_hal_rtc.c ****          RTC registers Write protection, enter and exit the RTC initialization mode,
 147:../../../../../../Drivers/STM32L0xx_HAL_Driver/Src/stm32l0xx_hal_rtc.c ****          RTC registers synchronization check and reference clock detection enable.
 148:../../../../../../Drivers/STM32L0xx_HAL_Driver/Src/stm32l0xx_hal_rtc.c ****          (#) The RTC Prescaler is programmed to generate the RTC 1Hz time base.
 149:../../../../../../Drivers/STM32L0xx_HAL_Driver/Src/stm32l0xx_hal_rtc.c ****              It is split into 2 programmable prescalers to minimize power consumption.
 150:../../../../../../Drivers/STM32L0xx_HAL_Driver/Src/stm32l0xx_hal_rtc.c ****              (++) A 7-bit asynchronous prescaler and a 15-bit synchronous prescaler.
 151:../../../../../../Drivers/STM32L0xx_HAL_Driver/Src/stm32l0xx_hal_rtc.c ****              (++) When both prescalers are used, it is recommended to configure the 
 152:../../../../../../Drivers/STM32L0xx_HAL_Driver/Src/stm32l0xx_hal_rtc.c ****                  asynchronous prescaler to a high value to minimize power consumption.
 153:../../../../../../Drivers/STM32L0xx_HAL_Driver/Src/stm32l0xx_hal_rtc.c ****          (#) All RTC registers are Write protected. Writing to the RTC registers
 154:../../../../../../Drivers/STM32L0xx_HAL_Driver/Src/stm32l0xx_hal_rtc.c ****              is enabled by writing a key into the Write Protection register, RTC_WPR.
 155:../../../../../../Drivers/STM32L0xx_HAL_Driver/Src/stm32l0xx_hal_rtc.c ****          (#) To configure the RTC Calendar, user application should enter 
 156:../../../../../../Drivers/STM32L0xx_HAL_Driver/Src/stm32l0xx_hal_rtc.c ****              initialization mode. In this mode, the calendar counter is stopped
 157:../../../../../../Drivers/STM32L0xx_HAL_Driver/Src/stm32l0xx_hal_rtc.c ****              and its value can be updated. When the initialization sequence is 
 158:../../../../../../Drivers/STM32L0xx_HAL_Driver/Src/stm32l0xx_hal_rtc.c ****              complete, the calendar restarts counting after 4 RTCCLK cycles.
 159:../../../../../../Drivers/STM32L0xx_HAL_Driver/Src/stm32l0xx_hal_rtc.c ****          (#) To read the calendar through the shadow registers after Calendar 
 160:../../../../../../Drivers/STM32L0xx_HAL_Driver/Src/stm32l0xx_hal_rtc.c ****              initialization, calendar update or after wakeup from low power modes
 161:../../../../../../Drivers/STM32L0xx_HAL_Driver/Src/stm32l0xx_hal_rtc.c ****              the software must first clear the RSF flag. The software must then
 162:../../../../../../Drivers/STM32L0xx_HAL_Driver/Src/stm32l0xx_hal_rtc.c ****              wait until it is set again before reading the calendar, which means
 163:../../../../../../Drivers/STM32L0xx_HAL_Driver/Src/stm32l0xx_hal_rtc.c ****              that the calendar registers have been correctly copied into the
 164:../../../../../../Drivers/STM32L0xx_HAL_Driver/Src/stm32l0xx_hal_rtc.c ****              RTC_TR and RTC_DR shadow registers.The HAL_RTC_WaitForSynchro() function 
 165:../../../../../../Drivers/STM32L0xx_HAL_Driver/Src/stm32l0xx_hal_rtc.c ****              implements the above software sequence (RSF clear and RSF check).
 166:../../../../../../Drivers/STM32L0xx_HAL_Driver/Src/stm32l0xx_hal_rtc.c **** 
 167:../../../../../../Drivers/STM32L0xx_HAL_Driver/Src/stm32l0xx_hal_rtc.c **** @endverbatim
 168:../../../../../../Drivers/STM32L0xx_HAL_Driver/Src/stm32l0xx_hal_rtc.c ****   * @{
 169:../../../../../../Drivers/STM32L0xx_HAL_Driver/Src/stm32l0xx_hal_rtc.c ****   */
 170:../../../../../../Drivers/STM32L0xx_HAL_Driver/Src/stm32l0xx_hal_rtc.c **** 
 171:../../../../../../Drivers/STM32L0xx_HAL_Driver/Src/stm32l0xx_hal_rtc.c **** /**
 172:../../../../../../Drivers/STM32L0xx_HAL_Driver/Src/stm32l0xx_hal_rtc.c ****   * @brief  Initialize the RTC peripheral
 173:../../../../../../Drivers/STM32L0xx_HAL_Driver/Src/stm32l0xx_hal_rtc.c ****   * @param  hrtc RTC handle
 174:../../../../../../Drivers/STM32L0xx_HAL_Driver/Src/stm32l0xx_hal_rtc.c ****   * @retval HAL status
 175:../../../../../../Drivers/STM32L0xx_HAL_Driver/Src/stm32l0xx_hal_rtc.c ****   */
 176:../../../../../../Drivers/STM32L0xx_HAL_Driver/Src/stm32l0xx_hal_rtc.c **** HAL_StatusTypeDef HAL_RTC_Init(RTC_HandleTypeDef *hrtc)
 177:../../../../../../Drivers/STM32L0xx_HAL_Driver/Src/stm32l0xx_hal_rtc.c **** {
 178:../../../../../../Drivers/STM32L0xx_HAL_Driver/Src/stm32l0xx_hal_rtc.c ****   /* Check the RTC peripheral state */
 179:../../../../../../Drivers/STM32L0xx_HAL_Driver/Src/stm32l0xx_hal_rtc.c ****   if(hrtc == NULL)
 180:../../../../../../Drivers/STM32L0xx_HAL_Driver/Src/stm32l0xx_hal_rtc.c ****   {
 181:../../../../../../Drivers/STM32L0xx_HAL_Driver/Src/stm32l0xx_hal_rtc.c ****      return HAL_ERROR;
 182:../../../../../../Drivers/STM32L0xx_HAL_Driver/Src/stm32l0xx_hal_rtc.c ****   }
 183:../../../../../../Drivers/STM32L0xx_HAL_Driver/Src/stm32l0xx_hal_rtc.c **** 
 184:../../../../../../Drivers/STM32L0xx_HAL_Driver/Src/stm32l0xx_hal_rtc.c ****   /* Check the parameters */
 185:../../../../../../Drivers/STM32L0xx_HAL_Driver/Src/stm32l0xx_hal_rtc.c ****   assert_param(IS_RTC_ALL_INSTANCE(hrtc->Instance));
 186:../../../../../../Drivers/STM32L0xx_HAL_Driver/Src/stm32l0xx_hal_rtc.c ****   assert_param(IS_RTC_HOUR_FORMAT(hrtc->Init.HourFormat));
 187:../../../../../../Drivers/STM32L0xx_HAL_Driver/Src/stm32l0xx_hal_rtc.c ****   assert_param(IS_RTC_ASYNCH_PREDIV(hrtc->Init.AsynchPrediv));
 188:../../../../../../Drivers/STM32L0xx_HAL_Driver/Src/stm32l0xx_hal_rtc.c ****   assert_param(IS_RTC_SYNCH_PREDIV(hrtc->Init.SynchPrediv));
 189:../../../../../../Drivers/STM32L0xx_HAL_Driver/Src/stm32l0xx_hal_rtc.c ****   assert_param(IS_RTC_OUTPUT(hrtc->Init.OutPut));
 190:../../../../../../Drivers/STM32L0xx_HAL_Driver/Src/stm32l0xx_hal_rtc.c ****   assert_param(IS_RTC_OUTPUT_REMAP(hrtc->Init.OutPutRemap));
 191:../../../../../../Drivers/STM32L0xx_HAL_Driver/Src/stm32l0xx_hal_rtc.c ****   assert_param(IS_RTC_OUTPUT_POL(hrtc->Init.OutPutPolarity));
 192:../../../../../../Drivers/STM32L0xx_HAL_Driver/Src/stm32l0xx_hal_rtc.c ****   assert_param(IS_RTC_OUTPUT_TYPE(hrtc->Init.OutPutType));
 193:../../../../../../Drivers/STM32L0xx_HAL_Driver/Src/stm32l0xx_hal_rtc.c ****   
 194:../../../../../../Drivers/STM32L0xx_HAL_Driver/Src/stm32l0xx_hal_rtc.c ****   if(hrtc->State == HAL_RTC_STATE_RESET)
 195:../../../../../../Drivers/STM32L0xx_HAL_Driver/Src/stm32l0xx_hal_rtc.c ****   {
 196:../../../../../../Drivers/STM32L0xx_HAL_Driver/Src/stm32l0xx_hal_rtc.c ****     /* Allocate lock resource and initialize it */
 197:../../../../../../Drivers/STM32L0xx_HAL_Driver/Src/stm32l0xx_hal_rtc.c ****     hrtc->Lock = HAL_UNLOCKED;
 198:../../../../../../Drivers/STM32L0xx_HAL_Driver/Src/stm32l0xx_hal_rtc.c **** 
 199:../../../../../../Drivers/STM32L0xx_HAL_Driver/Src/stm32l0xx_hal_rtc.c ****     /* Initialize RTC MSP */
 200:../../../../../../Drivers/STM32L0xx_HAL_Driver/Src/stm32l0xx_hal_rtc.c ****     HAL_RTC_MspInit(hrtc);
 201:../../../../../../Drivers/STM32L0xx_HAL_Driver/Src/stm32l0xx_hal_rtc.c ****   }
 202:../../../../../../Drivers/STM32L0xx_HAL_Driver/Src/stm32l0xx_hal_rtc.c **** 
ARM GAS  C:\Users\EBANO_~1\AppData\Local\Temp\cc8t01eQ.s 			page 5


 203:../../../../../../Drivers/STM32L0xx_HAL_Driver/Src/stm32l0xx_hal_rtc.c ****   /* Set RTC state */
 204:../../../../../../Drivers/STM32L0xx_HAL_Driver/Src/stm32l0xx_hal_rtc.c ****   hrtc->State = HAL_RTC_STATE_BUSY;
 205:../../../../../../Drivers/STM32L0xx_HAL_Driver/Src/stm32l0xx_hal_rtc.c **** 
 206:../../../../../../Drivers/STM32L0xx_HAL_Driver/Src/stm32l0xx_hal_rtc.c ****   /* Disable the write protection for RTC registers */
 207:../../../../../../Drivers/STM32L0xx_HAL_Driver/Src/stm32l0xx_hal_rtc.c ****   __HAL_RTC_WRITEPROTECTION_DISABLE(hrtc);
 208:../../../../../../Drivers/STM32L0xx_HAL_Driver/Src/stm32l0xx_hal_rtc.c **** 
 209:../../../../../../Drivers/STM32L0xx_HAL_Driver/Src/stm32l0xx_hal_rtc.c ****   /* Set Initialization mode */
 210:../../../../../../Drivers/STM32L0xx_HAL_Driver/Src/stm32l0xx_hal_rtc.c ****   if(RTC_EnterInitMode(hrtc) != HAL_OK)
 211:../../../../../../Drivers/STM32L0xx_HAL_Driver/Src/stm32l0xx_hal_rtc.c ****   {
 212:../../../../../../Drivers/STM32L0xx_HAL_Driver/Src/stm32l0xx_hal_rtc.c ****     /* Enable the write protection for RTC registers */
 213:../../../../../../Drivers/STM32L0xx_HAL_Driver/Src/stm32l0xx_hal_rtc.c ****     __HAL_RTC_WRITEPROTECTION_ENABLE(hrtc);
 214:../../../../../../Drivers/STM32L0xx_HAL_Driver/Src/stm32l0xx_hal_rtc.c **** 
 215:../../../../../../Drivers/STM32L0xx_HAL_Driver/Src/stm32l0xx_hal_rtc.c ****     /* Set RTC state */
 216:../../../../../../Drivers/STM32L0xx_HAL_Driver/Src/stm32l0xx_hal_rtc.c ****     hrtc->State = HAL_RTC_STATE_ERROR;
 217:../../../../../../Drivers/STM32L0xx_HAL_Driver/Src/stm32l0xx_hal_rtc.c **** 
 218:../../../../../../Drivers/STM32L0xx_HAL_Driver/Src/stm32l0xx_hal_rtc.c ****     return HAL_ERROR;
 219:../../../../../../Drivers/STM32L0xx_HAL_Driver/Src/stm32l0xx_hal_rtc.c ****   }
 220:../../../../../../Drivers/STM32L0xx_HAL_Driver/Src/stm32l0xx_hal_rtc.c ****   else
 221:../../../../../../Drivers/STM32L0xx_HAL_Driver/Src/stm32l0xx_hal_rtc.c ****   {
 222:../../../../../../Drivers/STM32L0xx_HAL_Driver/Src/stm32l0xx_hal_rtc.c ****     /* Clear RTC_CR FMT, OSEL and POL Bits */
 223:../../../../../../Drivers/STM32L0xx_HAL_Driver/Src/stm32l0xx_hal_rtc.c ****     hrtc->Instance->CR &= ((uint32_t)~(RTC_CR_FMT | RTC_CR_OSEL | RTC_CR_POL));
 224:../../../../../../Drivers/STM32L0xx_HAL_Driver/Src/stm32l0xx_hal_rtc.c ****     /* Set RTC_CR register */
 225:../../../../../../Drivers/STM32L0xx_HAL_Driver/Src/stm32l0xx_hal_rtc.c ****     hrtc->Instance->CR |= (uint32_t)(hrtc->Init.HourFormat | hrtc->Init.OutPut | hrtc->Init.OutPutP
 226:../../../../../../Drivers/STM32L0xx_HAL_Driver/Src/stm32l0xx_hal_rtc.c **** 
 227:../../../../../../Drivers/STM32L0xx_HAL_Driver/Src/stm32l0xx_hal_rtc.c ****     /* Configure the RTC PRER */
 228:../../../../../../Drivers/STM32L0xx_HAL_Driver/Src/stm32l0xx_hal_rtc.c ****     hrtc->Instance->PRER = (uint32_t)(hrtc->Init.SynchPrediv);
 229:../../../../../../Drivers/STM32L0xx_HAL_Driver/Src/stm32l0xx_hal_rtc.c ****     hrtc->Instance->PRER |= (uint32_t)(hrtc->Init.AsynchPrediv << 16U);
 230:../../../../../../Drivers/STM32L0xx_HAL_Driver/Src/stm32l0xx_hal_rtc.c **** 
 231:../../../../../../Drivers/STM32L0xx_HAL_Driver/Src/stm32l0xx_hal_rtc.c ****     /* Exit Initialization mode */
 232:../../../../../../Drivers/STM32L0xx_HAL_Driver/Src/stm32l0xx_hal_rtc.c ****     hrtc->Instance->ISR &= ((uint32_t)~RTC_ISR_INIT);
 233:../../../../../../Drivers/STM32L0xx_HAL_Driver/Src/stm32l0xx_hal_rtc.c **** 
 234:../../../../../../Drivers/STM32L0xx_HAL_Driver/Src/stm32l0xx_hal_rtc.c ****     hrtc->Instance->OR &= (uint32_t)~(RTC_OR_ALARMOUTTYPE | RTC_OR_OUT_RMP);
 235:../../../../../../Drivers/STM32L0xx_HAL_Driver/Src/stm32l0xx_hal_rtc.c ****     hrtc->Instance->OR |= (uint32_t)(hrtc->Init.OutPutType | hrtc->Init.OutPutRemap);
 236:../../../../../../Drivers/STM32L0xx_HAL_Driver/Src/stm32l0xx_hal_rtc.c **** 
 237:../../../../../../Drivers/STM32L0xx_HAL_Driver/Src/stm32l0xx_hal_rtc.c ****     /* Enable the write protection for RTC registers */
 238:../../../../../../Drivers/STM32L0xx_HAL_Driver/Src/stm32l0xx_hal_rtc.c ****     __HAL_RTC_WRITEPROTECTION_ENABLE(hrtc);
 239:../../../../../../Drivers/STM32L0xx_HAL_Driver/Src/stm32l0xx_hal_rtc.c **** 
 240:../../../../../../Drivers/STM32L0xx_HAL_Driver/Src/stm32l0xx_hal_rtc.c ****     /* Set RTC state */
 241:../../../../../../Drivers/STM32L0xx_HAL_Driver/Src/stm32l0xx_hal_rtc.c ****     hrtc->State = HAL_RTC_STATE_READY;
 242:../../../../../../Drivers/STM32L0xx_HAL_Driver/Src/stm32l0xx_hal_rtc.c **** 
 243:../../../../../../Drivers/STM32L0xx_HAL_Driver/Src/stm32l0xx_hal_rtc.c ****     return HAL_OK;
 244:../../../../../../Drivers/STM32L0xx_HAL_Driver/Src/stm32l0xx_hal_rtc.c ****   }
 245:../../../../../../Drivers/STM32L0xx_HAL_Driver/Src/stm32l0xx_hal_rtc.c **** }
 246:../../../../../../Drivers/STM32L0xx_HAL_Driver/Src/stm32l0xx_hal_rtc.c **** 
 247:../../../../../../Drivers/STM32L0xx_HAL_Driver/Src/stm32l0xx_hal_rtc.c **** /**
 248:../../../../../../Drivers/STM32L0xx_HAL_Driver/Src/stm32l0xx_hal_rtc.c ****   * @brief  DeInitialize the RTC peripheral.
 249:../../../../../../Drivers/STM32L0xx_HAL_Driver/Src/stm32l0xx_hal_rtc.c ****   * @param  hrtc RTC handle
 250:../../../../../../Drivers/STM32L0xx_HAL_Driver/Src/stm32l0xx_hal_rtc.c ****   * @note   This function doesn't reset the RTC Backup Data registers.
 251:../../../../../../Drivers/STM32L0xx_HAL_Driver/Src/stm32l0xx_hal_rtc.c ****   * @retval HAL status
 252:../../../../../../Drivers/STM32L0xx_HAL_Driver/Src/stm32l0xx_hal_rtc.c ****   */
 253:../../../../../../Drivers/STM32L0xx_HAL_Driver/Src/stm32l0xx_hal_rtc.c **** HAL_StatusTypeDef HAL_RTC_DeInit(RTC_HandleTypeDef *hrtc)
 254:../../../../../../Drivers/STM32L0xx_HAL_Driver/Src/stm32l0xx_hal_rtc.c **** {
 255:../../../../../../Drivers/STM32L0xx_HAL_Driver/Src/stm32l0xx_hal_rtc.c ****   uint32_t tickstart = 0U;
 256:../../../../../../Drivers/STM32L0xx_HAL_Driver/Src/stm32l0xx_hal_rtc.c **** 
 257:../../../../../../Drivers/STM32L0xx_HAL_Driver/Src/stm32l0xx_hal_rtc.c ****   /* Check the parameters */
 258:../../../../../../Drivers/STM32L0xx_HAL_Driver/Src/stm32l0xx_hal_rtc.c ****   assert_param(IS_RTC_ALL_INSTANCE(hrtc->Instance));
 259:../../../../../../Drivers/STM32L0xx_HAL_Driver/Src/stm32l0xx_hal_rtc.c **** 
ARM GAS  C:\Users\EBANO_~1\AppData\Local\Temp\cc8t01eQ.s 			page 6


 260:../../../../../../Drivers/STM32L0xx_HAL_Driver/Src/stm32l0xx_hal_rtc.c ****   /* Set RTC state */
 261:../../../../../../Drivers/STM32L0xx_HAL_Driver/Src/stm32l0xx_hal_rtc.c ****   hrtc->State = HAL_RTC_STATE_BUSY;
 262:../../../../../../Drivers/STM32L0xx_HAL_Driver/Src/stm32l0xx_hal_rtc.c **** 
 263:../../../../../../Drivers/STM32L0xx_HAL_Driver/Src/stm32l0xx_hal_rtc.c ****   /* Disable the write protection for RTC registers */
 264:../../../../../../Drivers/STM32L0xx_HAL_Driver/Src/stm32l0xx_hal_rtc.c ****   __HAL_RTC_WRITEPROTECTION_DISABLE(hrtc);
 265:../../../../../../Drivers/STM32L0xx_HAL_Driver/Src/stm32l0xx_hal_rtc.c **** 
 266:../../../../../../Drivers/STM32L0xx_HAL_Driver/Src/stm32l0xx_hal_rtc.c ****   /* Set Initialization mode */
 267:../../../../../../Drivers/STM32L0xx_HAL_Driver/Src/stm32l0xx_hal_rtc.c ****   if(RTC_EnterInitMode(hrtc) != HAL_OK)
 268:../../../../../../Drivers/STM32L0xx_HAL_Driver/Src/stm32l0xx_hal_rtc.c ****   {
 269:../../../../../../Drivers/STM32L0xx_HAL_Driver/Src/stm32l0xx_hal_rtc.c ****     /* Enable the write protection for RTC registers */
 270:../../../../../../Drivers/STM32L0xx_HAL_Driver/Src/stm32l0xx_hal_rtc.c ****     __HAL_RTC_WRITEPROTECTION_ENABLE(hrtc);
 271:../../../../../../Drivers/STM32L0xx_HAL_Driver/Src/stm32l0xx_hal_rtc.c **** 
 272:../../../../../../Drivers/STM32L0xx_HAL_Driver/Src/stm32l0xx_hal_rtc.c ****     /* Set RTC state */
 273:../../../../../../Drivers/STM32L0xx_HAL_Driver/Src/stm32l0xx_hal_rtc.c ****     hrtc->State = HAL_RTC_STATE_ERROR;
 274:../../../../../../Drivers/STM32L0xx_HAL_Driver/Src/stm32l0xx_hal_rtc.c **** 
 275:../../../../../../Drivers/STM32L0xx_HAL_Driver/Src/stm32l0xx_hal_rtc.c ****     return HAL_ERROR;
 276:../../../../../../Drivers/STM32L0xx_HAL_Driver/Src/stm32l0xx_hal_rtc.c ****   }
 277:../../../../../../Drivers/STM32L0xx_HAL_Driver/Src/stm32l0xx_hal_rtc.c ****   else
 278:../../../../../../Drivers/STM32L0xx_HAL_Driver/Src/stm32l0xx_hal_rtc.c ****   {
 279:../../../../../../Drivers/STM32L0xx_HAL_Driver/Src/stm32l0xx_hal_rtc.c ****     /* Reset TR, DR and CR registers */
 280:../../../../../../Drivers/STM32L0xx_HAL_Driver/Src/stm32l0xx_hal_rtc.c ****     hrtc->Instance->TR = (uint32_t)0x00000000U;
 281:../../../../../../Drivers/STM32L0xx_HAL_Driver/Src/stm32l0xx_hal_rtc.c ****     hrtc->Instance->DR = ((uint32_t)(RTC_DR_WDU_0 | RTC_DR_MU_0 | RTC_DR_DU_0));
 282:../../../../../../Drivers/STM32L0xx_HAL_Driver/Src/stm32l0xx_hal_rtc.c ****     /* Reset All CR bits except CR[2:0] */
 283:../../../../../../Drivers/STM32L0xx_HAL_Driver/Src/stm32l0xx_hal_rtc.c ****     hrtc->Instance->CR &= RTC_CR_WUCKSEL;
 284:../../../../../../Drivers/STM32L0xx_HAL_Driver/Src/stm32l0xx_hal_rtc.c **** 
 285:../../../../../../Drivers/STM32L0xx_HAL_Driver/Src/stm32l0xx_hal_rtc.c ****     tickstart = HAL_GetTick();
 286:../../../../../../Drivers/STM32L0xx_HAL_Driver/Src/stm32l0xx_hal_rtc.c **** 
 287:../../../../../../Drivers/STM32L0xx_HAL_Driver/Src/stm32l0xx_hal_rtc.c ****     /* Wait till WUTWF flag is set and if Time out is reached exit */
 288:../../../../../../Drivers/STM32L0xx_HAL_Driver/Src/stm32l0xx_hal_rtc.c ****     while(((hrtc->Instance->ISR) & RTC_ISR_WUTWF) == (uint32_t)RESET)
 289:../../../../../../Drivers/STM32L0xx_HAL_Driver/Src/stm32l0xx_hal_rtc.c ****     {
 290:../../../../../../Drivers/STM32L0xx_HAL_Driver/Src/stm32l0xx_hal_rtc.c ****       if((HAL_GetTick() - tickstart ) > RTC_TIMEOUT_VALUE)
 291:../../../../../../Drivers/STM32L0xx_HAL_Driver/Src/stm32l0xx_hal_rtc.c ****       {
 292:../../../../../../Drivers/STM32L0xx_HAL_Driver/Src/stm32l0xx_hal_rtc.c ****         /* Enable the write protection for RTC registers */
 293:../../../../../../Drivers/STM32L0xx_HAL_Driver/Src/stm32l0xx_hal_rtc.c ****         __HAL_RTC_WRITEPROTECTION_ENABLE(hrtc);
 294:../../../../../../Drivers/STM32L0xx_HAL_Driver/Src/stm32l0xx_hal_rtc.c **** 
 295:../../../../../../Drivers/STM32L0xx_HAL_Driver/Src/stm32l0xx_hal_rtc.c ****         /* Set RTC state */
 296:../../../../../../Drivers/STM32L0xx_HAL_Driver/Src/stm32l0xx_hal_rtc.c ****         hrtc->State = HAL_RTC_STATE_TIMEOUT;
 297:../../../../../../Drivers/STM32L0xx_HAL_Driver/Src/stm32l0xx_hal_rtc.c **** 
 298:../../../../../../Drivers/STM32L0xx_HAL_Driver/Src/stm32l0xx_hal_rtc.c ****         return HAL_TIMEOUT;
 299:../../../../../../Drivers/STM32L0xx_HAL_Driver/Src/stm32l0xx_hal_rtc.c ****       }
 300:../../../../../../Drivers/STM32L0xx_HAL_Driver/Src/stm32l0xx_hal_rtc.c ****     }
 301:../../../../../../Drivers/STM32L0xx_HAL_Driver/Src/stm32l0xx_hal_rtc.c **** 
 302:../../../../../../Drivers/STM32L0xx_HAL_Driver/Src/stm32l0xx_hal_rtc.c ****     /* Reset all RTC CR register bits */
 303:../../../../../../Drivers/STM32L0xx_HAL_Driver/Src/stm32l0xx_hal_rtc.c ****     hrtc->Instance->CR &= (uint32_t)0x00000000U;
 304:../../../../../../Drivers/STM32L0xx_HAL_Driver/Src/stm32l0xx_hal_rtc.c ****     hrtc->Instance->WUTR = RTC_WUTR_WUT;
 305:../../../../../../Drivers/STM32L0xx_HAL_Driver/Src/stm32l0xx_hal_rtc.c ****     hrtc->Instance->PRER = ((uint32_t)(RTC_PRER_PREDIV_A | 0x000000FFU));
 306:../../../../../../Drivers/STM32L0xx_HAL_Driver/Src/stm32l0xx_hal_rtc.c ****     hrtc->Instance->ALRMAR = (uint32_t)0x00000000U;
 307:../../../../../../Drivers/STM32L0xx_HAL_Driver/Src/stm32l0xx_hal_rtc.c ****     hrtc->Instance->ALRMBR = (uint32_t)0x00000000U;
 308:../../../../../../Drivers/STM32L0xx_HAL_Driver/Src/stm32l0xx_hal_rtc.c ****     hrtc->Instance->SHIFTR = (uint32_t)0x00000000U;
 309:../../../../../../Drivers/STM32L0xx_HAL_Driver/Src/stm32l0xx_hal_rtc.c ****     hrtc->Instance->CALR = (uint32_t)0x00000000U;
 310:../../../../../../Drivers/STM32L0xx_HAL_Driver/Src/stm32l0xx_hal_rtc.c ****     hrtc->Instance->ALRMASSR = (uint32_t)0x00000000U;
 311:../../../../../../Drivers/STM32L0xx_HAL_Driver/Src/stm32l0xx_hal_rtc.c ****     hrtc->Instance->ALRMBSSR = (uint32_t)0x00000000U;
 312:../../../../../../Drivers/STM32L0xx_HAL_Driver/Src/stm32l0xx_hal_rtc.c **** 
 313:../../../../../../Drivers/STM32L0xx_HAL_Driver/Src/stm32l0xx_hal_rtc.c ****     /* Reset ISR register and exit initialization mode */
 314:../../../../../../Drivers/STM32L0xx_HAL_Driver/Src/stm32l0xx_hal_rtc.c ****     hrtc->Instance->ISR = (uint32_t)0x00000000U;
 315:../../../../../../Drivers/STM32L0xx_HAL_Driver/Src/stm32l0xx_hal_rtc.c **** 
 316:../../../../../../Drivers/STM32L0xx_HAL_Driver/Src/stm32l0xx_hal_rtc.c ****     /* Reset Tamper configuration register */
ARM GAS  C:\Users\EBANO_~1\AppData\Local\Temp\cc8t01eQ.s 			page 7


 317:../../../../../../Drivers/STM32L0xx_HAL_Driver/Src/stm32l0xx_hal_rtc.c ****     hrtc->Instance->TAMPCR = 0x00000000U;
 318:../../../../../../Drivers/STM32L0xx_HAL_Driver/Src/stm32l0xx_hal_rtc.c **** 
 319:../../../../../../Drivers/STM32L0xx_HAL_Driver/Src/stm32l0xx_hal_rtc.c ****     /* Reset Option register */
 320:../../../../../../Drivers/STM32L0xx_HAL_Driver/Src/stm32l0xx_hal_rtc.c ****     hrtc->Instance->OR = 0x00000000U;
 321:../../../../../../Drivers/STM32L0xx_HAL_Driver/Src/stm32l0xx_hal_rtc.c **** 
 322:../../../../../../Drivers/STM32L0xx_HAL_Driver/Src/stm32l0xx_hal_rtc.c ****     /* If  RTC_CR_BYPSHAD bit = 0, wait for synchro else this check is not needed */
 323:../../../../../../Drivers/STM32L0xx_HAL_Driver/Src/stm32l0xx_hal_rtc.c ****     if((hrtc->Instance->CR & RTC_CR_BYPSHAD) == RESET)
 324:../../../../../../Drivers/STM32L0xx_HAL_Driver/Src/stm32l0xx_hal_rtc.c ****     {
 325:../../../../../../Drivers/STM32L0xx_HAL_Driver/Src/stm32l0xx_hal_rtc.c ****       if(HAL_RTC_WaitForSynchro(hrtc) != HAL_OK)
 326:../../../../../../Drivers/STM32L0xx_HAL_Driver/Src/stm32l0xx_hal_rtc.c ****       {
 327:../../../../../../Drivers/STM32L0xx_HAL_Driver/Src/stm32l0xx_hal_rtc.c ****         /* Enable the write protection for RTC registers */
 328:../../../../../../Drivers/STM32L0xx_HAL_Driver/Src/stm32l0xx_hal_rtc.c ****         __HAL_RTC_WRITEPROTECTION_ENABLE(hrtc);  
 329:../../../../../../Drivers/STM32L0xx_HAL_Driver/Src/stm32l0xx_hal_rtc.c **** 
 330:../../../../../../Drivers/STM32L0xx_HAL_Driver/Src/stm32l0xx_hal_rtc.c ****         hrtc->State = HAL_RTC_STATE_ERROR;
 331:../../../../../../Drivers/STM32L0xx_HAL_Driver/Src/stm32l0xx_hal_rtc.c **** 
 332:../../../../../../Drivers/STM32L0xx_HAL_Driver/Src/stm32l0xx_hal_rtc.c ****         return HAL_ERROR;
 333:../../../../../../Drivers/STM32L0xx_HAL_Driver/Src/stm32l0xx_hal_rtc.c ****       }
 334:../../../../../../Drivers/STM32L0xx_HAL_Driver/Src/stm32l0xx_hal_rtc.c ****     }
 335:../../../../../../Drivers/STM32L0xx_HAL_Driver/Src/stm32l0xx_hal_rtc.c ****   }
 336:../../../../../../Drivers/STM32L0xx_HAL_Driver/Src/stm32l0xx_hal_rtc.c **** 
 337:../../../../../../Drivers/STM32L0xx_HAL_Driver/Src/stm32l0xx_hal_rtc.c ****   /* Enable the write protection for RTC registers */
 338:../../../../../../Drivers/STM32L0xx_HAL_Driver/Src/stm32l0xx_hal_rtc.c ****   __HAL_RTC_WRITEPROTECTION_ENABLE(hrtc);
 339:../../../../../../Drivers/STM32L0xx_HAL_Driver/Src/stm32l0xx_hal_rtc.c **** 
 340:../../../../../../Drivers/STM32L0xx_HAL_Driver/Src/stm32l0xx_hal_rtc.c ****   /* De-Initialize RTC MSP */
 341:../../../../../../Drivers/STM32L0xx_HAL_Driver/Src/stm32l0xx_hal_rtc.c ****   HAL_RTC_MspDeInit(hrtc);
 342:../../../../../../Drivers/STM32L0xx_HAL_Driver/Src/stm32l0xx_hal_rtc.c **** 
 343:../../../../../../Drivers/STM32L0xx_HAL_Driver/Src/stm32l0xx_hal_rtc.c ****   hrtc->State = HAL_RTC_STATE_RESET;
 344:../../../../../../Drivers/STM32L0xx_HAL_Driver/Src/stm32l0xx_hal_rtc.c ****   
 345:../../../../../../Drivers/STM32L0xx_HAL_Driver/Src/stm32l0xx_hal_rtc.c ****   /* Release Lock */
 346:../../../../../../Drivers/STM32L0xx_HAL_Driver/Src/stm32l0xx_hal_rtc.c ****   __HAL_UNLOCK(hrtc);
 347:../../../../../../Drivers/STM32L0xx_HAL_Driver/Src/stm32l0xx_hal_rtc.c **** 
 348:../../../../../../Drivers/STM32L0xx_HAL_Driver/Src/stm32l0xx_hal_rtc.c ****   return HAL_OK;
 349:../../../../../../Drivers/STM32L0xx_HAL_Driver/Src/stm32l0xx_hal_rtc.c **** }
 350:../../../../../../Drivers/STM32L0xx_HAL_Driver/Src/stm32l0xx_hal_rtc.c **** 
 351:../../../../../../Drivers/STM32L0xx_HAL_Driver/Src/stm32l0xx_hal_rtc.c **** /**
 352:../../../../../../Drivers/STM32L0xx_HAL_Driver/Src/stm32l0xx_hal_rtc.c ****   * @brief  Initialize the RTC MSP.
 353:../../../../../../Drivers/STM32L0xx_HAL_Driver/Src/stm32l0xx_hal_rtc.c ****   * @param  hrtc RTC handle  
 354:../../../../../../Drivers/STM32L0xx_HAL_Driver/Src/stm32l0xx_hal_rtc.c ****   * @retval None
 355:../../../../../../Drivers/STM32L0xx_HAL_Driver/Src/stm32l0xx_hal_rtc.c ****   */
 356:../../../../../../Drivers/STM32L0xx_HAL_Driver/Src/stm32l0xx_hal_rtc.c **** __weak void HAL_RTC_MspInit(RTC_HandleTypeDef* hrtc)
 357:../../../../../../Drivers/STM32L0xx_HAL_Driver/Src/stm32l0xx_hal_rtc.c **** {
  27              		.loc 1 357 0
  28              		.cfi_startproc
  29              		@ args = 0, pretend = 0, frame = 0
  30              		@ frame_needed = 0, uses_anonymous_args = 0
  31              		@ link register save eliminated.
  32              	.LVL0:
 358:../../../../../../Drivers/STM32L0xx_HAL_Driver/Src/stm32l0xx_hal_rtc.c ****   /* Prevent unused argument(s) compilation warning */
 359:../../../../../../Drivers/STM32L0xx_HAL_Driver/Src/stm32l0xx_hal_rtc.c ****   UNUSED(hrtc);
 360:../../../../../../Drivers/STM32L0xx_HAL_Driver/Src/stm32l0xx_hal_rtc.c **** 
 361:../../../../../../Drivers/STM32L0xx_HAL_Driver/Src/stm32l0xx_hal_rtc.c ****   /* NOTE : This function should not be modified, when the callback is needed,
 362:../../../../../../Drivers/STM32L0xx_HAL_Driver/Src/stm32l0xx_hal_rtc.c ****             the HAL_RTC_MspInit could be implemented in the user file
 363:../../../../../../Drivers/STM32L0xx_HAL_Driver/Src/stm32l0xx_hal_rtc.c ****    */ 
 364:../../../../../../Drivers/STM32L0xx_HAL_Driver/Src/stm32l0xx_hal_rtc.c **** }
  33              		.loc 1 364 0
  34              		@ sp needed
  35 0000 7047     		bx	lr
ARM GAS  C:\Users\EBANO_~1\AppData\Local\Temp\cc8t01eQ.s 			page 8


  36              		.cfi_endproc
  37              	.LFE41:
  38              		.size	HAL_RTC_MspInit, .-HAL_RTC_MspInit
  39 0002 C046     		.section	.text.HAL_RTC_Init,"ax",%progbits
  40              		.align	1
  41              		.p2align 2,,3
  42              		.global	HAL_RTC_Init
  43              		.syntax unified
  44              		.code	16
  45              		.thumb_func
  46              		.fpu softvfp
  47              		.type	HAL_RTC_Init, %function
  48              	HAL_RTC_Init:
  49              	.LFB39:
 177:../../../../../../Drivers/STM32L0xx_HAL_Driver/Src/stm32l0xx_hal_rtc.c ****   /* Check the RTC peripheral state */
  50              		.loc 1 177 0
  51              		.cfi_startproc
  52              		@ args = 0, pretend = 0, frame = 0
  53              		@ frame_needed = 0, uses_anonymous_args = 0
  54              	.LVL1:
  55 0000 F8B5     		push	{r3, r4, r5, r6, r7, lr}
  56              	.LCFI0:
  57              		.cfi_def_cfa_offset 24
  58              		.cfi_offset 3, -24
  59              		.cfi_offset 4, -20
  60              		.cfi_offset 5, -16
  61              		.cfi_offset 6, -12
  62              		.cfi_offset 7, -8
  63              		.cfi_offset 14, -4
 177:../../../../../../Drivers/STM32L0xx_HAL_Driver/Src/stm32l0xx_hal_rtc.c ****   /* Check the RTC peripheral state */
  64              		.loc 1 177 0
  65 0002 041E     		subs	r4, r0, #0
 179:../../../../../../Drivers/STM32L0xx_HAL_Driver/Src/stm32l0xx_hal_rtc.c ****   {
  66              		.loc 1 179 0
  67 0004 3DD0     		beq	.L12
 194:../../../../../../Drivers/STM32L0xx_HAL_Driver/Src/stm32l0xx_hal_rtc.c ****   {
  68              		.loc 1 194 0
  69 0006 2123     		movs	r3, #33
  70 0008 C35C     		ldrb	r3, [r0, r3]
  71 000a DBB2     		uxtb	r3, r3
  72 000c 002B     		cmp	r3, #0
  73 000e 4ED0     		beq	.L13
  74              	.LVL2:
  75              	.L5:
 204:../../../../../../Drivers/STM32L0xx_HAL_Driver/Src/stm32l0xx_hal_rtc.c **** 
  76              		.loc 1 204 0
  77 0010 2123     		movs	r3, #33
  78 0012 0222     		movs	r2, #2
  79 0014 E254     		strb	r2, [r4, r3]
 207:../../../../../../Drivers/STM32L0xx_HAL_Driver/Src/stm32l0xx_hal_rtc.c **** 
  80              		.loc 1 207 0
  81 0016 2368     		ldr	r3, [r4]
  82 0018 C832     		adds	r2, r2, #200
  83 001a 5A62     		str	r2, [r3, #36]
  84 001c 773A     		subs	r2, r2, #119
  85 001e 5A62     		str	r2, [r3, #36]
  86              	.LVL3:
ARM GAS  C:\Users\EBANO_~1\AppData\Local\Temp\cc8t01eQ.s 			page 9


  87              	.LBB70:
  88              	.LBB71:
 365:../../../../../../Drivers/STM32L0xx_HAL_Driver/Src/stm32l0xx_hal_rtc.c **** 
 366:../../../../../../Drivers/STM32L0xx_HAL_Driver/Src/stm32l0xx_hal_rtc.c **** /**
 367:../../../../../../Drivers/STM32L0xx_HAL_Driver/Src/stm32l0xx_hal_rtc.c ****   * @brief  DeInitialize the RTC MSP.
 368:../../../../../../Drivers/STM32L0xx_HAL_Driver/Src/stm32l0xx_hal_rtc.c ****   * @param  hrtc RTC handle 
 369:../../../../../../Drivers/STM32L0xx_HAL_Driver/Src/stm32l0xx_hal_rtc.c ****   * @retval None
 370:../../../../../../Drivers/STM32L0xx_HAL_Driver/Src/stm32l0xx_hal_rtc.c ****   */
 371:../../../../../../Drivers/STM32L0xx_HAL_Driver/Src/stm32l0xx_hal_rtc.c **** __weak void HAL_RTC_MspDeInit(RTC_HandleTypeDef* hrtc)
 372:../../../../../../Drivers/STM32L0xx_HAL_Driver/Src/stm32l0xx_hal_rtc.c **** {
 373:../../../../../../Drivers/STM32L0xx_HAL_Driver/Src/stm32l0xx_hal_rtc.c ****   /* Prevent unused argument(s) compilation warning */
 374:../../../../../../Drivers/STM32L0xx_HAL_Driver/Src/stm32l0xx_hal_rtc.c ****   UNUSED(hrtc);
 375:../../../../../../Drivers/STM32L0xx_HAL_Driver/Src/stm32l0xx_hal_rtc.c **** 
 376:../../../../../../Drivers/STM32L0xx_HAL_Driver/Src/stm32l0xx_hal_rtc.c ****   /* NOTE : This function should not be modified, when the callback is needed,
 377:../../../../../../Drivers/STM32L0xx_HAL_Driver/Src/stm32l0xx_hal_rtc.c ****             the HAL_RTC_MspDeInit could be implemented in the user file
 378:../../../../../../Drivers/STM32L0xx_HAL_Driver/Src/stm32l0xx_hal_rtc.c ****    */ 
 379:../../../../../../Drivers/STM32L0xx_HAL_Driver/Src/stm32l0xx_hal_rtc.c **** }
 380:../../../../../../Drivers/STM32L0xx_HAL_Driver/Src/stm32l0xx_hal_rtc.c **** 
 381:../../../../../../Drivers/STM32L0xx_HAL_Driver/Src/stm32l0xx_hal_rtc.c **** /**
 382:../../../../../../Drivers/STM32L0xx_HAL_Driver/Src/stm32l0xx_hal_rtc.c ****   * @}
 383:../../../../../../Drivers/STM32L0xx_HAL_Driver/Src/stm32l0xx_hal_rtc.c ****   */
 384:../../../../../../Drivers/STM32L0xx_HAL_Driver/Src/stm32l0xx_hal_rtc.c **** 
 385:../../../../../../Drivers/STM32L0xx_HAL_Driver/Src/stm32l0xx_hal_rtc.c **** /** @addtogroup RTC_Exported_Functions_Group2
 386:../../../../../../Drivers/STM32L0xx_HAL_Driver/Src/stm32l0xx_hal_rtc.c ****  *  @brief   RTC Time and Date functions
 387:../../../../../../Drivers/STM32L0xx_HAL_Driver/Src/stm32l0xx_hal_rtc.c ****  *
 388:../../../../../../Drivers/STM32L0xx_HAL_Driver/Src/stm32l0xx_hal_rtc.c **** @verbatim
 389:../../../../../../Drivers/STM32L0xx_HAL_Driver/Src/stm32l0xx_hal_rtc.c ****  ===============================================================================
 390:../../../../../../Drivers/STM32L0xx_HAL_Driver/Src/stm32l0xx_hal_rtc.c ****                  ##### RTC Time and Date functions #####
 391:../../../../../../Drivers/STM32L0xx_HAL_Driver/Src/stm32l0xx_hal_rtc.c ****  ===============================================================================
 392:../../../../../../Drivers/STM32L0xx_HAL_Driver/Src/stm32l0xx_hal_rtc.c ****  
 393:../../../../../../Drivers/STM32L0xx_HAL_Driver/Src/stm32l0xx_hal_rtc.c ****  [..] This section provides functions allowing to configure Time and Date features
 394:../../../../../../Drivers/STM32L0xx_HAL_Driver/Src/stm32l0xx_hal_rtc.c **** 
 395:../../../../../../Drivers/STM32L0xx_HAL_Driver/Src/stm32l0xx_hal_rtc.c **** @endverbatim
 396:../../../../../../Drivers/STM32L0xx_HAL_Driver/Src/stm32l0xx_hal_rtc.c ****   * @{
 397:../../../../../../Drivers/STM32L0xx_HAL_Driver/Src/stm32l0xx_hal_rtc.c ****   */
 398:../../../../../../Drivers/STM32L0xx_HAL_Driver/Src/stm32l0xx_hal_rtc.c **** 
 399:../../../../../../Drivers/STM32L0xx_HAL_Driver/Src/stm32l0xx_hal_rtc.c **** /**
 400:../../../../../../Drivers/STM32L0xx_HAL_Driver/Src/stm32l0xx_hal_rtc.c ****   * @brief  Set RTC current time.
 401:../../../../../../Drivers/STM32L0xx_HAL_Driver/Src/stm32l0xx_hal_rtc.c ****   * @param  hrtc RTC handle
 402:../../../../../../Drivers/STM32L0xx_HAL_Driver/Src/stm32l0xx_hal_rtc.c ****   * @param  sTime Pointer to Time structure
 403:../../../../../../Drivers/STM32L0xx_HAL_Driver/Src/stm32l0xx_hal_rtc.c ****   * @param  Format Specifies the format of the entered parameters.
 404:../../../../../../Drivers/STM32L0xx_HAL_Driver/Src/stm32l0xx_hal_rtc.c ****   *          This parameter can be one of the following values:
 405:../../../../../../Drivers/STM32L0xx_HAL_Driver/Src/stm32l0xx_hal_rtc.c ****   *            @arg RTC_FORMAT_BIN: Binary data format 
 406:../../../../../../Drivers/STM32L0xx_HAL_Driver/Src/stm32l0xx_hal_rtc.c ****   *            @arg RTC_FORMAT_BCD: BCD data format
 407:../../../../../../Drivers/STM32L0xx_HAL_Driver/Src/stm32l0xx_hal_rtc.c ****   * @retval HAL status
 408:../../../../../../Drivers/STM32L0xx_HAL_Driver/Src/stm32l0xx_hal_rtc.c ****   */
 409:../../../../../../Drivers/STM32L0xx_HAL_Driver/Src/stm32l0xx_hal_rtc.c **** HAL_StatusTypeDef HAL_RTC_SetTime(RTC_HandleTypeDef *hrtc, RTC_TimeTypeDef *sTime, uint32_t Format)
 410:../../../../../../Drivers/STM32L0xx_HAL_Driver/Src/stm32l0xx_hal_rtc.c **** {
 411:../../../../../../Drivers/STM32L0xx_HAL_Driver/Src/stm32l0xx_hal_rtc.c ****   uint32_t tmpreg = 0U;
 412:../../../../../../Drivers/STM32L0xx_HAL_Driver/Src/stm32l0xx_hal_rtc.c **** 
 413:../../../../../../Drivers/STM32L0xx_HAL_Driver/Src/stm32l0xx_hal_rtc.c ****  /* Check the parameters */
 414:../../../../../../Drivers/STM32L0xx_HAL_Driver/Src/stm32l0xx_hal_rtc.c ****   assert_param(IS_RTC_FORMAT(Format));
 415:../../../../../../Drivers/STM32L0xx_HAL_Driver/Src/stm32l0xx_hal_rtc.c ****   assert_param(IS_RTC_DAYLIGHT_SAVING(sTime->DayLightSaving));
 416:../../../../../../Drivers/STM32L0xx_HAL_Driver/Src/stm32l0xx_hal_rtc.c ****   assert_param(IS_RTC_STORE_OPERATION(sTime->StoreOperation));
 417:../../../../../../Drivers/STM32L0xx_HAL_Driver/Src/stm32l0xx_hal_rtc.c **** 
 418:../../../../../../Drivers/STM32L0xx_HAL_Driver/Src/stm32l0xx_hal_rtc.c ****   /* Process Locked */ 
 419:../../../../../../Drivers/STM32L0xx_HAL_Driver/Src/stm32l0xx_hal_rtc.c ****   __HAL_LOCK(hrtc);
ARM GAS  C:\Users\EBANO_~1\AppData\Local\Temp\cc8t01eQ.s 			page 10


 420:../../../../../../Drivers/STM32L0xx_HAL_Driver/Src/stm32l0xx_hal_rtc.c **** 
 421:../../../../../../Drivers/STM32L0xx_HAL_Driver/Src/stm32l0xx_hal_rtc.c ****   hrtc->State = HAL_RTC_STATE_BUSY;
 422:../../../../../../Drivers/STM32L0xx_HAL_Driver/Src/stm32l0xx_hal_rtc.c **** 
 423:../../../../../../Drivers/STM32L0xx_HAL_Driver/Src/stm32l0xx_hal_rtc.c ****   if(Format == RTC_FORMAT_BIN)
 424:../../../../../../Drivers/STM32L0xx_HAL_Driver/Src/stm32l0xx_hal_rtc.c ****   {
 425:../../../../../../Drivers/STM32L0xx_HAL_Driver/Src/stm32l0xx_hal_rtc.c ****     if((hrtc->Instance->CR & RTC_CR_FMT) != (uint32_t)RESET)
 426:../../../../../../Drivers/STM32L0xx_HAL_Driver/Src/stm32l0xx_hal_rtc.c ****     {
 427:../../../../../../Drivers/STM32L0xx_HAL_Driver/Src/stm32l0xx_hal_rtc.c ****       assert_param(IS_RTC_HOUR12(sTime->Hours));
 428:../../../../../../Drivers/STM32L0xx_HAL_Driver/Src/stm32l0xx_hal_rtc.c ****       assert_param(IS_RTC_HOURFORMAT12(sTime->TimeFormat));
 429:../../../../../../Drivers/STM32L0xx_HAL_Driver/Src/stm32l0xx_hal_rtc.c ****     }
 430:../../../../../../Drivers/STM32L0xx_HAL_Driver/Src/stm32l0xx_hal_rtc.c ****     else
 431:../../../../../../Drivers/STM32L0xx_HAL_Driver/Src/stm32l0xx_hal_rtc.c ****     {
 432:../../../../../../Drivers/STM32L0xx_HAL_Driver/Src/stm32l0xx_hal_rtc.c ****       sTime->TimeFormat = 0x00U;
 433:../../../../../../Drivers/STM32L0xx_HAL_Driver/Src/stm32l0xx_hal_rtc.c ****       assert_param(IS_RTC_HOUR24(sTime->Hours));
 434:../../../../../../Drivers/STM32L0xx_HAL_Driver/Src/stm32l0xx_hal_rtc.c ****     }
 435:../../../../../../Drivers/STM32L0xx_HAL_Driver/Src/stm32l0xx_hal_rtc.c ****     assert_param(IS_RTC_MINUTES(sTime->Minutes));
 436:../../../../../../Drivers/STM32L0xx_HAL_Driver/Src/stm32l0xx_hal_rtc.c ****     assert_param(IS_RTC_SECONDS(sTime->Seconds));
 437:../../../../../../Drivers/STM32L0xx_HAL_Driver/Src/stm32l0xx_hal_rtc.c **** 
 438:../../../../../../Drivers/STM32L0xx_HAL_Driver/Src/stm32l0xx_hal_rtc.c ****     tmpreg = (uint32_t)(((uint32_t)RTC_ByteToBcd2(sTime->Hours) << 16U) | \
 439:../../../../../../Drivers/STM32L0xx_HAL_Driver/Src/stm32l0xx_hal_rtc.c ****                         ((uint32_t)RTC_ByteToBcd2(sTime->Minutes) << 8U) | \
 440:../../../../../../Drivers/STM32L0xx_HAL_Driver/Src/stm32l0xx_hal_rtc.c ****                         ((uint32_t)RTC_ByteToBcd2(sTime->Seconds)) | \
 441:../../../../../../Drivers/STM32L0xx_HAL_Driver/Src/stm32l0xx_hal_rtc.c ****                         (((uint32_t)sTime->TimeFormat) << 16U));
 442:../../../../../../Drivers/STM32L0xx_HAL_Driver/Src/stm32l0xx_hal_rtc.c ****   }
 443:../../../../../../Drivers/STM32L0xx_HAL_Driver/Src/stm32l0xx_hal_rtc.c ****   else
 444:../../../../../../Drivers/STM32L0xx_HAL_Driver/Src/stm32l0xx_hal_rtc.c ****   {
 445:../../../../../../Drivers/STM32L0xx_HAL_Driver/Src/stm32l0xx_hal_rtc.c ****     if((hrtc->Instance->CR & RTC_CR_FMT) != (uint32_t)RESET)
 446:../../../../../../Drivers/STM32L0xx_HAL_Driver/Src/stm32l0xx_hal_rtc.c ****     {
 447:../../../../../../Drivers/STM32L0xx_HAL_Driver/Src/stm32l0xx_hal_rtc.c ****       tmpreg = RTC_Bcd2ToByte(sTime->Hours);
 448:../../../../../../Drivers/STM32L0xx_HAL_Driver/Src/stm32l0xx_hal_rtc.c ****       assert_param(IS_RTC_HOUR12(tmpreg));
 449:../../../../../../Drivers/STM32L0xx_HAL_Driver/Src/stm32l0xx_hal_rtc.c ****       assert_param(IS_RTC_HOURFORMAT12(sTime->TimeFormat));
 450:../../../../../../Drivers/STM32L0xx_HAL_Driver/Src/stm32l0xx_hal_rtc.c ****     }
 451:../../../../../../Drivers/STM32L0xx_HAL_Driver/Src/stm32l0xx_hal_rtc.c ****     else
 452:../../../../../../Drivers/STM32L0xx_HAL_Driver/Src/stm32l0xx_hal_rtc.c ****     {
 453:../../../../../../Drivers/STM32L0xx_HAL_Driver/Src/stm32l0xx_hal_rtc.c ****       sTime->TimeFormat = 0x00U;
 454:../../../../../../Drivers/STM32L0xx_HAL_Driver/Src/stm32l0xx_hal_rtc.c ****       assert_param(IS_RTC_HOUR24(RTC_Bcd2ToByte(sTime->Hours)));
 455:../../../../../../Drivers/STM32L0xx_HAL_Driver/Src/stm32l0xx_hal_rtc.c ****     }
 456:../../../../../../Drivers/STM32L0xx_HAL_Driver/Src/stm32l0xx_hal_rtc.c ****     assert_param(IS_RTC_MINUTES(RTC_Bcd2ToByte(sTime->Minutes)));
 457:../../../../../../Drivers/STM32L0xx_HAL_Driver/Src/stm32l0xx_hal_rtc.c ****     assert_param(IS_RTC_SECONDS(RTC_Bcd2ToByte(sTime->Seconds)));
 458:../../../../../../Drivers/STM32L0xx_HAL_Driver/Src/stm32l0xx_hal_rtc.c ****     tmpreg = (((uint32_t)(sTime->Hours) << 16U) | \
 459:../../../../../../Drivers/STM32L0xx_HAL_Driver/Src/stm32l0xx_hal_rtc.c ****               ((uint32_t)(sTime->Minutes) << 8U) | \
 460:../../../../../../Drivers/STM32L0xx_HAL_Driver/Src/stm32l0xx_hal_rtc.c ****               ((uint32_t)sTime->Seconds) | \
 461:../../../../../../Drivers/STM32L0xx_HAL_Driver/Src/stm32l0xx_hal_rtc.c ****               ((uint32_t)(sTime->TimeFormat) << 16U));
 462:../../../../../../Drivers/STM32L0xx_HAL_Driver/Src/stm32l0xx_hal_rtc.c ****   }
 463:../../../../../../Drivers/STM32L0xx_HAL_Driver/Src/stm32l0xx_hal_rtc.c ****   UNUSED(tmpreg);
 464:../../../../../../Drivers/STM32L0xx_HAL_Driver/Src/stm32l0xx_hal_rtc.c ****   /* Disable the write protection for RTC registers */
 465:../../../../../../Drivers/STM32L0xx_HAL_Driver/Src/stm32l0xx_hal_rtc.c ****   __HAL_RTC_WRITEPROTECTION_DISABLE(hrtc);
 466:../../../../../../Drivers/STM32L0xx_HAL_Driver/Src/stm32l0xx_hal_rtc.c **** 
 467:../../../../../../Drivers/STM32L0xx_HAL_Driver/Src/stm32l0xx_hal_rtc.c ****   /* Set Initialization mode */
 468:../../../../../../Drivers/STM32L0xx_HAL_Driver/Src/stm32l0xx_hal_rtc.c ****   if(RTC_EnterInitMode(hrtc) != HAL_OK)
 469:../../../../../../Drivers/STM32L0xx_HAL_Driver/Src/stm32l0xx_hal_rtc.c ****   {
 470:../../../../../../Drivers/STM32L0xx_HAL_Driver/Src/stm32l0xx_hal_rtc.c ****     /* Enable the write protection for RTC registers */
 471:../../../../../../Drivers/STM32L0xx_HAL_Driver/Src/stm32l0xx_hal_rtc.c ****     __HAL_RTC_WRITEPROTECTION_ENABLE(hrtc);
 472:../../../../../../Drivers/STM32L0xx_HAL_Driver/Src/stm32l0xx_hal_rtc.c **** 
 473:../../../../../../Drivers/STM32L0xx_HAL_Driver/Src/stm32l0xx_hal_rtc.c ****     /* Set RTC state */
 474:../../../../../../Drivers/STM32L0xx_HAL_Driver/Src/stm32l0xx_hal_rtc.c ****     hrtc->State = HAL_RTC_STATE_ERROR;
 475:../../../../../../Drivers/STM32L0xx_HAL_Driver/Src/stm32l0xx_hal_rtc.c **** 
 476:../../../../../../Drivers/STM32L0xx_HAL_Driver/Src/stm32l0xx_hal_rtc.c ****     /* Process Unlocked */ 
ARM GAS  C:\Users\EBANO_~1\AppData\Local\Temp\cc8t01eQ.s 			page 11


 477:../../../../../../Drivers/STM32L0xx_HAL_Driver/Src/stm32l0xx_hal_rtc.c ****     __HAL_UNLOCK(hrtc);
 478:../../../../../../Drivers/STM32L0xx_HAL_Driver/Src/stm32l0xx_hal_rtc.c **** 
 479:../../../../../../Drivers/STM32L0xx_HAL_Driver/Src/stm32l0xx_hal_rtc.c ****     return HAL_ERROR;
 480:../../../../../../Drivers/STM32L0xx_HAL_Driver/Src/stm32l0xx_hal_rtc.c ****   }
 481:../../../../../../Drivers/STM32L0xx_HAL_Driver/Src/stm32l0xx_hal_rtc.c ****   else
 482:../../../../../../Drivers/STM32L0xx_HAL_Driver/Src/stm32l0xx_hal_rtc.c ****   {
 483:../../../../../../Drivers/STM32L0xx_HAL_Driver/Src/stm32l0xx_hal_rtc.c ****     /* Set the RTC_TR register */
 484:../../../../../../Drivers/STM32L0xx_HAL_Driver/Src/stm32l0xx_hal_rtc.c ****     hrtc->Instance->TR = (uint32_t)(tmpreg & RTC_TR_RESERVED_MASK);
 485:../../../../../../Drivers/STM32L0xx_HAL_Driver/Src/stm32l0xx_hal_rtc.c **** 
 486:../../../../../../Drivers/STM32L0xx_HAL_Driver/Src/stm32l0xx_hal_rtc.c ****     /* Clear the bits to be configured */
 487:../../../../../../Drivers/STM32L0xx_HAL_Driver/Src/stm32l0xx_hal_rtc.c ****     hrtc->Instance->CR &= ((uint32_t)~RTC_CR_BKP);
 488:../../../../../../Drivers/STM32L0xx_HAL_Driver/Src/stm32l0xx_hal_rtc.c **** 
 489:../../../../../../Drivers/STM32L0xx_HAL_Driver/Src/stm32l0xx_hal_rtc.c ****     /* Configure the RTC_CR register */
 490:../../../../../../Drivers/STM32L0xx_HAL_Driver/Src/stm32l0xx_hal_rtc.c ****     hrtc->Instance->CR |= (uint32_t)(sTime->DayLightSaving | sTime->StoreOperation);
 491:../../../../../../Drivers/STM32L0xx_HAL_Driver/Src/stm32l0xx_hal_rtc.c **** 
 492:../../../../../../Drivers/STM32L0xx_HAL_Driver/Src/stm32l0xx_hal_rtc.c ****     /* Exit Initialization mode */
 493:../../../../../../Drivers/STM32L0xx_HAL_Driver/Src/stm32l0xx_hal_rtc.c ****     hrtc->Instance->ISR &= ((uint32_t)~RTC_ISR_INIT);
 494:../../../../../../Drivers/STM32L0xx_HAL_Driver/Src/stm32l0xx_hal_rtc.c **** 
 495:../../../../../../Drivers/STM32L0xx_HAL_Driver/Src/stm32l0xx_hal_rtc.c ****     /* If  CR_BYPSHAD bit = 0, wait for synchro else this check is not needed */
 496:../../../../../../Drivers/STM32L0xx_HAL_Driver/Src/stm32l0xx_hal_rtc.c ****     if((hrtc->Instance->CR & RTC_CR_BYPSHAD) == RESET)
 497:../../../../../../Drivers/STM32L0xx_HAL_Driver/Src/stm32l0xx_hal_rtc.c ****     {
 498:../../../../../../Drivers/STM32L0xx_HAL_Driver/Src/stm32l0xx_hal_rtc.c ****       if(HAL_RTC_WaitForSynchro(hrtc) != HAL_OK)
 499:../../../../../../Drivers/STM32L0xx_HAL_Driver/Src/stm32l0xx_hal_rtc.c ****       {
 500:../../../../../../Drivers/STM32L0xx_HAL_Driver/Src/stm32l0xx_hal_rtc.c ****         /* Enable the write protection for RTC registers */
 501:../../../../../../Drivers/STM32L0xx_HAL_Driver/Src/stm32l0xx_hal_rtc.c ****         __HAL_RTC_WRITEPROTECTION_ENABLE(hrtc);
 502:../../../../../../Drivers/STM32L0xx_HAL_Driver/Src/stm32l0xx_hal_rtc.c **** 
 503:../../../../../../Drivers/STM32L0xx_HAL_Driver/Src/stm32l0xx_hal_rtc.c ****         hrtc->State = HAL_RTC_STATE_ERROR;
 504:../../../../../../Drivers/STM32L0xx_HAL_Driver/Src/stm32l0xx_hal_rtc.c **** 
 505:../../../../../../Drivers/STM32L0xx_HAL_Driver/Src/stm32l0xx_hal_rtc.c ****         /* Process Unlocked */ 
 506:../../../../../../Drivers/STM32L0xx_HAL_Driver/Src/stm32l0xx_hal_rtc.c ****         __HAL_UNLOCK(hrtc);
 507:../../../../../../Drivers/STM32L0xx_HAL_Driver/Src/stm32l0xx_hal_rtc.c **** 
 508:../../../../../../Drivers/STM32L0xx_HAL_Driver/Src/stm32l0xx_hal_rtc.c ****         return HAL_ERROR;
 509:../../../../../../Drivers/STM32L0xx_HAL_Driver/Src/stm32l0xx_hal_rtc.c ****       }
 510:../../../../../../Drivers/STM32L0xx_HAL_Driver/Src/stm32l0xx_hal_rtc.c ****     }
 511:../../../../../../Drivers/STM32L0xx_HAL_Driver/Src/stm32l0xx_hal_rtc.c **** 
 512:../../../../../../Drivers/STM32L0xx_HAL_Driver/Src/stm32l0xx_hal_rtc.c ****     /* Enable the write protection for RTC registers */
 513:../../../../../../Drivers/STM32L0xx_HAL_Driver/Src/stm32l0xx_hal_rtc.c ****     __HAL_RTC_WRITEPROTECTION_ENABLE(hrtc);
 514:../../../../../../Drivers/STM32L0xx_HAL_Driver/Src/stm32l0xx_hal_rtc.c ****     
 515:../../../../../../Drivers/STM32L0xx_HAL_Driver/Src/stm32l0xx_hal_rtc.c ****    hrtc->State = HAL_RTC_STATE_READY;
 516:../../../../../../Drivers/STM32L0xx_HAL_Driver/Src/stm32l0xx_hal_rtc.c **** 
 517:../../../../../../Drivers/STM32L0xx_HAL_Driver/Src/stm32l0xx_hal_rtc.c ****    __HAL_UNLOCK(hrtc); 
 518:../../../../../../Drivers/STM32L0xx_HAL_Driver/Src/stm32l0xx_hal_rtc.c **** 
 519:../../../../../../Drivers/STM32L0xx_HAL_Driver/Src/stm32l0xx_hal_rtc.c ****    return HAL_OK;
 520:../../../../../../Drivers/STM32L0xx_HAL_Driver/Src/stm32l0xx_hal_rtc.c ****   }
 521:../../../../../../Drivers/STM32L0xx_HAL_Driver/Src/stm32l0xx_hal_rtc.c **** }
 522:../../../../../../Drivers/STM32L0xx_HAL_Driver/Src/stm32l0xx_hal_rtc.c **** 
 523:../../../../../../Drivers/STM32L0xx_HAL_Driver/Src/stm32l0xx_hal_rtc.c **** /**
 524:../../../../../../Drivers/STM32L0xx_HAL_Driver/Src/stm32l0xx_hal_rtc.c ****   * @brief  Get RTC current time.
 525:../../../../../../Drivers/STM32L0xx_HAL_Driver/Src/stm32l0xx_hal_rtc.c ****   * @param  hrtc RTC handle
 526:../../../../../../Drivers/STM32L0xx_HAL_Driver/Src/stm32l0xx_hal_rtc.c ****   * @param  sTime Pointer to Time structure with Hours, Minutes and Seconds fields returned 
 527:../../../../../../Drivers/STM32L0xx_HAL_Driver/Src/stm32l0xx_hal_rtc.c ****   *                with input format (BIN or BCD), also SubSeconds field returning the
 528:../../../../../../Drivers/STM32L0xx_HAL_Driver/Src/stm32l0xx_hal_rtc.c ****   *                RTC_SSR register content and SecondFraction field the Synchronous pre-scaler
 529:../../../../../../Drivers/STM32L0xx_HAL_Driver/Src/stm32l0xx_hal_rtc.c ****   *                factor to be used for second fraction ratio computation.
 530:../../../../../../Drivers/STM32L0xx_HAL_Driver/Src/stm32l0xx_hal_rtc.c ****   * @param  Format Specifies the format of the entered parameters.
 531:../../../../../../Drivers/STM32L0xx_HAL_Driver/Src/stm32l0xx_hal_rtc.c ****   *          This parameter can be one of the following values:
 532:../../../../../../Drivers/STM32L0xx_HAL_Driver/Src/stm32l0xx_hal_rtc.c ****   *            @arg RTC_FORMAT_BIN: Binary data format 
 533:../../../../../../Drivers/STM32L0xx_HAL_Driver/Src/stm32l0xx_hal_rtc.c ****   *            @arg RTC_FORMAT_BCD: BCD data format
ARM GAS  C:\Users\EBANO_~1\AppData\Local\Temp\cc8t01eQ.s 			page 12


 534:../../../../../../Drivers/STM32L0xx_HAL_Driver/Src/stm32l0xx_hal_rtc.c ****   * @note  You can use SubSeconds and SecondFraction (sTime structure fields returned) to convert S
 535:../../../../../../Drivers/STM32L0xx_HAL_Driver/Src/stm32l0xx_hal_rtc.c ****   *        value in second fraction ratio with time unit following generic formula:
 536:../../../../../../Drivers/STM32L0xx_HAL_Driver/Src/stm32l0xx_hal_rtc.c ****   *        Second fraction ratio * time_unit= [(SecondFraction-SubSeconds)/(SecondFraction+1)] * ti
 537:../../../../../../Drivers/STM32L0xx_HAL_Driver/Src/stm32l0xx_hal_rtc.c ****   *        This conversion can be performed only if no shift operation is pending (ie. SHFP=0) when
 538:../../../../../../Drivers/STM32L0xx_HAL_Driver/Src/stm32l0xx_hal_rtc.c ****   * @note  You must call HAL_RTC_GetDate() after HAL_RTC_GetTime() to unlock the values 
 539:../../../../../../Drivers/STM32L0xx_HAL_Driver/Src/stm32l0xx_hal_rtc.c ****   *        in the higher-order calendar shadow registers to ensure consistency between the time and
 540:../../../../../../Drivers/STM32L0xx_HAL_Driver/Src/stm32l0xx_hal_rtc.c ****   *        Reading RTC current time locks the values in calendar shadow registers until Current dat
 541:../../../../../../Drivers/STM32L0xx_HAL_Driver/Src/stm32l0xx_hal_rtc.c ****   *        to ensure consistency between the time and date values.
 542:../../../../../../Drivers/STM32L0xx_HAL_Driver/Src/stm32l0xx_hal_rtc.c ****   * @retval HAL status
 543:../../../../../../Drivers/STM32L0xx_HAL_Driver/Src/stm32l0xx_hal_rtc.c ****   */
 544:../../../../../../Drivers/STM32L0xx_HAL_Driver/Src/stm32l0xx_hal_rtc.c **** HAL_StatusTypeDef HAL_RTC_GetTime(RTC_HandleTypeDef *hrtc, RTC_TimeTypeDef *sTime, uint32_t Format)
 545:../../../../../../Drivers/STM32L0xx_HAL_Driver/Src/stm32l0xx_hal_rtc.c **** {
 546:../../../../../../Drivers/STM32L0xx_HAL_Driver/Src/stm32l0xx_hal_rtc.c ****   uint32_t tmpreg = 0U;
 547:../../../../../../Drivers/STM32L0xx_HAL_Driver/Src/stm32l0xx_hal_rtc.c **** 
 548:../../../../../../Drivers/STM32L0xx_HAL_Driver/Src/stm32l0xx_hal_rtc.c ****   /* Check the parameters */
 549:../../../../../../Drivers/STM32L0xx_HAL_Driver/Src/stm32l0xx_hal_rtc.c ****   assert_param(IS_RTC_FORMAT(Format));
 550:../../../../../../Drivers/STM32L0xx_HAL_Driver/Src/stm32l0xx_hal_rtc.c **** 
 551:../../../../../../Drivers/STM32L0xx_HAL_Driver/Src/stm32l0xx_hal_rtc.c ****   /* Get subseconds structure field from the corresponding register*/
 552:../../../../../../Drivers/STM32L0xx_HAL_Driver/Src/stm32l0xx_hal_rtc.c ****   sTime->SubSeconds = (uint32_t)(hrtc->Instance->SSR);
 553:../../../../../../Drivers/STM32L0xx_HAL_Driver/Src/stm32l0xx_hal_rtc.c **** 
 554:../../../../../../Drivers/STM32L0xx_HAL_Driver/Src/stm32l0xx_hal_rtc.c ****   /* Get SecondFraction structure field from the corresponding register field*/
 555:../../../../../../Drivers/STM32L0xx_HAL_Driver/Src/stm32l0xx_hal_rtc.c ****   sTime->SecondFraction = (uint32_t)(hrtc->Instance->PRER & RTC_PRER_PREDIV_S);
 556:../../../../../../Drivers/STM32L0xx_HAL_Driver/Src/stm32l0xx_hal_rtc.c ****   
 557:../../../../../../Drivers/STM32L0xx_HAL_Driver/Src/stm32l0xx_hal_rtc.c ****   /* Get the TR register */
 558:../../../../../../Drivers/STM32L0xx_HAL_Driver/Src/stm32l0xx_hal_rtc.c ****   tmpreg = (uint32_t)(hrtc->Instance->TR & RTC_TR_RESERVED_MASK);
 559:../../../../../../Drivers/STM32L0xx_HAL_Driver/Src/stm32l0xx_hal_rtc.c **** 
 560:../../../../../../Drivers/STM32L0xx_HAL_Driver/Src/stm32l0xx_hal_rtc.c ****   /* Fill the structure fields with the read parameters */
 561:../../../../../../Drivers/STM32L0xx_HAL_Driver/Src/stm32l0xx_hal_rtc.c ****   sTime->Hours = (uint8_t)((tmpreg & (RTC_TR_HT | RTC_TR_HU)) >> 16U);
 562:../../../../../../Drivers/STM32L0xx_HAL_Driver/Src/stm32l0xx_hal_rtc.c ****   sTime->Minutes = (uint8_t)((tmpreg & (RTC_TR_MNT | RTC_TR_MNU)) >>8U);
 563:../../../../../../Drivers/STM32L0xx_HAL_Driver/Src/stm32l0xx_hal_rtc.c ****   sTime->Seconds = (uint8_t)(tmpreg & (RTC_TR_ST | RTC_TR_SU));
 564:../../../../../../Drivers/STM32L0xx_HAL_Driver/Src/stm32l0xx_hal_rtc.c ****   sTime->TimeFormat = (uint8_t)((tmpreg & (RTC_TR_PM)) >> 16U);
 565:../../../../../../Drivers/STM32L0xx_HAL_Driver/Src/stm32l0xx_hal_rtc.c **** 
 566:../../../../../../Drivers/STM32L0xx_HAL_Driver/Src/stm32l0xx_hal_rtc.c ****   /* Check the input parameters format */
 567:../../../../../../Drivers/STM32L0xx_HAL_Driver/Src/stm32l0xx_hal_rtc.c ****   if(Format == RTC_FORMAT_BIN)
 568:../../../../../../Drivers/STM32L0xx_HAL_Driver/Src/stm32l0xx_hal_rtc.c ****   {
 569:../../../../../../Drivers/STM32L0xx_HAL_Driver/Src/stm32l0xx_hal_rtc.c ****     /* Convert the time structure parameters to Binary format */
 570:../../../../../../Drivers/STM32L0xx_HAL_Driver/Src/stm32l0xx_hal_rtc.c ****     sTime->Hours = (uint8_t)RTC_Bcd2ToByte(sTime->Hours);
 571:../../../../../../Drivers/STM32L0xx_HAL_Driver/Src/stm32l0xx_hal_rtc.c ****     sTime->Minutes = (uint8_t)RTC_Bcd2ToByte(sTime->Minutes);
 572:../../../../../../Drivers/STM32L0xx_HAL_Driver/Src/stm32l0xx_hal_rtc.c ****     sTime->Seconds = (uint8_t)RTC_Bcd2ToByte(sTime->Seconds);
 573:../../../../../../Drivers/STM32L0xx_HAL_Driver/Src/stm32l0xx_hal_rtc.c ****   }
 574:../../../../../../Drivers/STM32L0xx_HAL_Driver/Src/stm32l0xx_hal_rtc.c **** 
 575:../../../../../../Drivers/STM32L0xx_HAL_Driver/Src/stm32l0xx_hal_rtc.c ****   return HAL_OK;
 576:../../../../../../Drivers/STM32L0xx_HAL_Driver/Src/stm32l0xx_hal_rtc.c **** }
 577:../../../../../../Drivers/STM32L0xx_HAL_Driver/Src/stm32l0xx_hal_rtc.c **** 
 578:../../../../../../Drivers/STM32L0xx_HAL_Driver/Src/stm32l0xx_hal_rtc.c **** /**
 579:../../../../../../Drivers/STM32L0xx_HAL_Driver/Src/stm32l0xx_hal_rtc.c ****   * @brief  Set RTC current date.
 580:../../../../../../Drivers/STM32L0xx_HAL_Driver/Src/stm32l0xx_hal_rtc.c ****   * @param  hrtc RTC handle
 581:../../../../../../Drivers/STM32L0xx_HAL_Driver/Src/stm32l0xx_hal_rtc.c ****   * @param  sDate Pointer to date structure
 582:../../../../../../Drivers/STM32L0xx_HAL_Driver/Src/stm32l0xx_hal_rtc.c ****   * @param  Format specifies the format of the entered parameters.
 583:../../../../../../Drivers/STM32L0xx_HAL_Driver/Src/stm32l0xx_hal_rtc.c ****   *          This parameter can be one of the following values:
 584:../../../../../../Drivers/STM32L0xx_HAL_Driver/Src/stm32l0xx_hal_rtc.c ****   *            @arg RTC_FORMAT_BIN: Binary data format 
 585:../../../../../../Drivers/STM32L0xx_HAL_Driver/Src/stm32l0xx_hal_rtc.c ****   *            @arg RTC_FORMAT_BCD: BCD data format
 586:../../../../../../Drivers/STM32L0xx_HAL_Driver/Src/stm32l0xx_hal_rtc.c ****   * @retval HAL status
 587:../../../../../../Drivers/STM32L0xx_HAL_Driver/Src/stm32l0xx_hal_rtc.c ****   */
 588:../../../../../../Drivers/STM32L0xx_HAL_Driver/Src/stm32l0xx_hal_rtc.c **** HAL_StatusTypeDef HAL_RTC_SetDate(RTC_HandleTypeDef *hrtc, RTC_DateTypeDef *sDate, uint32_t Format)
 589:../../../../../../Drivers/STM32L0xx_HAL_Driver/Src/stm32l0xx_hal_rtc.c **** {
 590:../../../../../../Drivers/STM32L0xx_HAL_Driver/Src/stm32l0xx_hal_rtc.c ****   uint32_t datetmpreg = 0U;
ARM GAS  C:\Users\EBANO_~1\AppData\Local\Temp\cc8t01eQ.s 			page 13


 591:../../../../../../Drivers/STM32L0xx_HAL_Driver/Src/stm32l0xx_hal_rtc.c **** 
 592:../../../../../../Drivers/STM32L0xx_HAL_Driver/Src/stm32l0xx_hal_rtc.c ****  /* Check the parameters */
 593:../../../../../../Drivers/STM32L0xx_HAL_Driver/Src/stm32l0xx_hal_rtc.c ****   assert_param(IS_RTC_FORMAT(Format));
 594:../../../../../../Drivers/STM32L0xx_HAL_Driver/Src/stm32l0xx_hal_rtc.c **** 
 595:../../../../../../Drivers/STM32L0xx_HAL_Driver/Src/stm32l0xx_hal_rtc.c ****  /* Process Locked */
 596:../../../../../../Drivers/STM32L0xx_HAL_Driver/Src/stm32l0xx_hal_rtc.c ****  __HAL_LOCK(hrtc);
 597:../../../../../../Drivers/STM32L0xx_HAL_Driver/Src/stm32l0xx_hal_rtc.c **** 
 598:../../../../../../Drivers/STM32L0xx_HAL_Driver/Src/stm32l0xx_hal_rtc.c ****   hrtc->State = HAL_RTC_STATE_BUSY;
 599:../../../../../../Drivers/STM32L0xx_HAL_Driver/Src/stm32l0xx_hal_rtc.c **** 
 600:../../../../../../Drivers/STM32L0xx_HAL_Driver/Src/stm32l0xx_hal_rtc.c ****   if((Format == RTC_FORMAT_BIN) && ((sDate->Month & 0x10U) == 0x10U))
 601:../../../../../../Drivers/STM32L0xx_HAL_Driver/Src/stm32l0xx_hal_rtc.c ****   {
 602:../../../../../../Drivers/STM32L0xx_HAL_Driver/Src/stm32l0xx_hal_rtc.c ****     sDate->Month = (uint8_t)((sDate->Month & (uint8_t)~(0x10U)) + (uint8_t)0x0AU);
 603:../../../../../../Drivers/STM32L0xx_HAL_Driver/Src/stm32l0xx_hal_rtc.c ****   }
 604:../../../../../../Drivers/STM32L0xx_HAL_Driver/Src/stm32l0xx_hal_rtc.c **** 
 605:../../../../../../Drivers/STM32L0xx_HAL_Driver/Src/stm32l0xx_hal_rtc.c ****   assert_param(IS_RTC_WEEKDAY(sDate->WeekDay));
 606:../../../../../../Drivers/STM32L0xx_HAL_Driver/Src/stm32l0xx_hal_rtc.c **** 
 607:../../../../../../Drivers/STM32L0xx_HAL_Driver/Src/stm32l0xx_hal_rtc.c ****   if(Format == RTC_FORMAT_BIN)
 608:../../../../../../Drivers/STM32L0xx_HAL_Driver/Src/stm32l0xx_hal_rtc.c ****   {
 609:../../../../../../Drivers/STM32L0xx_HAL_Driver/Src/stm32l0xx_hal_rtc.c ****     assert_param(IS_RTC_YEAR(sDate->Year));
 610:../../../../../../Drivers/STM32L0xx_HAL_Driver/Src/stm32l0xx_hal_rtc.c ****     assert_param(IS_RTC_MONTH(sDate->Month));
 611:../../../../../../Drivers/STM32L0xx_HAL_Driver/Src/stm32l0xx_hal_rtc.c ****     assert_param(IS_RTC_DATE(sDate->Date));
 612:../../../../../../Drivers/STM32L0xx_HAL_Driver/Src/stm32l0xx_hal_rtc.c **** 
 613:../../../../../../Drivers/STM32L0xx_HAL_Driver/Src/stm32l0xx_hal_rtc.c ****    datetmpreg = (((uint32_t)RTC_ByteToBcd2(sDate->Year) << 16U) | \
 614:../../../../../../Drivers/STM32L0xx_HAL_Driver/Src/stm32l0xx_hal_rtc.c ****                  ((uint32_t)RTC_ByteToBcd2(sDate->Month) << 8U) | \
 615:../../../../../../Drivers/STM32L0xx_HAL_Driver/Src/stm32l0xx_hal_rtc.c ****                  ((uint32_t)RTC_ByteToBcd2(sDate->Date)) | \
 616:../../../../../../Drivers/STM32L0xx_HAL_Driver/Src/stm32l0xx_hal_rtc.c ****                  ((uint32_t)sDate->WeekDay << 13U));
 617:../../../../../../Drivers/STM32L0xx_HAL_Driver/Src/stm32l0xx_hal_rtc.c ****   }
 618:../../../../../../Drivers/STM32L0xx_HAL_Driver/Src/stm32l0xx_hal_rtc.c ****   else
 619:../../../../../../Drivers/STM32L0xx_HAL_Driver/Src/stm32l0xx_hal_rtc.c ****   {
 620:../../../../../../Drivers/STM32L0xx_HAL_Driver/Src/stm32l0xx_hal_rtc.c ****     assert_param(IS_RTC_YEAR(RTC_Bcd2ToByte(sDate->Year)));
 621:../../../../../../Drivers/STM32L0xx_HAL_Driver/Src/stm32l0xx_hal_rtc.c ****     datetmpreg = RTC_Bcd2ToByte(sDate->Month);
 622:../../../../../../Drivers/STM32L0xx_HAL_Driver/Src/stm32l0xx_hal_rtc.c ****     assert_param(IS_RTC_MONTH(datetmpreg));
 623:../../../../../../Drivers/STM32L0xx_HAL_Driver/Src/stm32l0xx_hal_rtc.c ****     datetmpreg = RTC_Bcd2ToByte(sDate->Date);
 624:../../../../../../Drivers/STM32L0xx_HAL_Driver/Src/stm32l0xx_hal_rtc.c ****     assert_param(IS_RTC_DATE(datetmpreg));
 625:../../../../../../Drivers/STM32L0xx_HAL_Driver/Src/stm32l0xx_hal_rtc.c **** 
 626:../../../../../../Drivers/STM32L0xx_HAL_Driver/Src/stm32l0xx_hal_rtc.c ****     datetmpreg = ((((uint32_t)sDate->Year) << 16U) | \
 627:../../../../../../Drivers/STM32L0xx_HAL_Driver/Src/stm32l0xx_hal_rtc.c ****                   (((uint32_t)sDate->Month) << 8U) | \
 628:../../../../../../Drivers/STM32L0xx_HAL_Driver/Src/stm32l0xx_hal_rtc.c ****                   ((uint32_t)sDate->Date) | \
 629:../../../../../../Drivers/STM32L0xx_HAL_Driver/Src/stm32l0xx_hal_rtc.c ****                   (((uint32_t)sDate->WeekDay) << 13U));
 630:../../../../../../Drivers/STM32L0xx_HAL_Driver/Src/stm32l0xx_hal_rtc.c ****   }
 631:../../../../../../Drivers/STM32L0xx_HAL_Driver/Src/stm32l0xx_hal_rtc.c **** 
 632:../../../../../../Drivers/STM32L0xx_HAL_Driver/Src/stm32l0xx_hal_rtc.c ****   /* Disable the write protection for RTC registers */
 633:../../../../../../Drivers/STM32L0xx_HAL_Driver/Src/stm32l0xx_hal_rtc.c ****   __HAL_RTC_WRITEPROTECTION_DISABLE(hrtc);
 634:../../../../../../Drivers/STM32L0xx_HAL_Driver/Src/stm32l0xx_hal_rtc.c **** 
 635:../../../../../../Drivers/STM32L0xx_HAL_Driver/Src/stm32l0xx_hal_rtc.c ****   /* Set Initialization mode */
 636:../../../../../../Drivers/STM32L0xx_HAL_Driver/Src/stm32l0xx_hal_rtc.c ****   if(RTC_EnterInitMode(hrtc) != HAL_OK)
 637:../../../../../../Drivers/STM32L0xx_HAL_Driver/Src/stm32l0xx_hal_rtc.c ****   {
 638:../../../../../../Drivers/STM32L0xx_HAL_Driver/Src/stm32l0xx_hal_rtc.c ****     /* Enable the write protection for RTC registers */
 639:../../../../../../Drivers/STM32L0xx_HAL_Driver/Src/stm32l0xx_hal_rtc.c ****     __HAL_RTC_WRITEPROTECTION_ENABLE(hrtc);
 640:../../../../../../Drivers/STM32L0xx_HAL_Driver/Src/stm32l0xx_hal_rtc.c **** 
 641:../../../../../../Drivers/STM32L0xx_HAL_Driver/Src/stm32l0xx_hal_rtc.c ****     /* Set RTC state*/
 642:../../../../../../Drivers/STM32L0xx_HAL_Driver/Src/stm32l0xx_hal_rtc.c ****     hrtc->State = HAL_RTC_STATE_ERROR;
 643:../../../../../../Drivers/STM32L0xx_HAL_Driver/Src/stm32l0xx_hal_rtc.c **** 
 644:../../../../../../Drivers/STM32L0xx_HAL_Driver/Src/stm32l0xx_hal_rtc.c ****     /* Process Unlocked */ 
 645:../../../../../../Drivers/STM32L0xx_HAL_Driver/Src/stm32l0xx_hal_rtc.c ****     __HAL_UNLOCK(hrtc);
 646:../../../../../../Drivers/STM32L0xx_HAL_Driver/Src/stm32l0xx_hal_rtc.c **** 
 647:../../../../../../Drivers/STM32L0xx_HAL_Driver/Src/stm32l0xx_hal_rtc.c ****     return HAL_ERROR;
ARM GAS  C:\Users\EBANO_~1\AppData\Local\Temp\cc8t01eQ.s 			page 14


 648:../../../../../../Drivers/STM32L0xx_HAL_Driver/Src/stm32l0xx_hal_rtc.c ****   }
 649:../../../../../../Drivers/STM32L0xx_HAL_Driver/Src/stm32l0xx_hal_rtc.c ****   else
 650:../../../../../../Drivers/STM32L0xx_HAL_Driver/Src/stm32l0xx_hal_rtc.c ****   {
 651:../../../../../../Drivers/STM32L0xx_HAL_Driver/Src/stm32l0xx_hal_rtc.c ****     /* Set the RTC_DR register */
 652:../../../../../../Drivers/STM32L0xx_HAL_Driver/Src/stm32l0xx_hal_rtc.c ****     hrtc->Instance->DR = (uint32_t)(datetmpreg & RTC_DR_RESERVED_MASK);
 653:../../../../../../Drivers/STM32L0xx_HAL_Driver/Src/stm32l0xx_hal_rtc.c **** 
 654:../../../../../../Drivers/STM32L0xx_HAL_Driver/Src/stm32l0xx_hal_rtc.c ****     /* Exit Initialization mode */
 655:../../../../../../Drivers/STM32L0xx_HAL_Driver/Src/stm32l0xx_hal_rtc.c ****     hrtc->Instance->ISR &= ((uint32_t)~RTC_ISR_INIT);
 656:../../../../../../Drivers/STM32L0xx_HAL_Driver/Src/stm32l0xx_hal_rtc.c **** 
 657:../../../../../../Drivers/STM32L0xx_HAL_Driver/Src/stm32l0xx_hal_rtc.c ****     /* If  CR_BYPSHAD bit = 0, wait for synchro else this check is not needed */
 658:../../../../../../Drivers/STM32L0xx_HAL_Driver/Src/stm32l0xx_hal_rtc.c ****     if((hrtc->Instance->CR & RTC_CR_BYPSHAD) == RESET)
 659:../../../../../../Drivers/STM32L0xx_HAL_Driver/Src/stm32l0xx_hal_rtc.c ****     {
 660:../../../../../../Drivers/STM32L0xx_HAL_Driver/Src/stm32l0xx_hal_rtc.c ****       if(HAL_RTC_WaitForSynchro(hrtc) != HAL_OK)
 661:../../../../../../Drivers/STM32L0xx_HAL_Driver/Src/stm32l0xx_hal_rtc.c ****       {
 662:../../../../../../Drivers/STM32L0xx_HAL_Driver/Src/stm32l0xx_hal_rtc.c ****         /* Enable the write protection for RTC registers */
 663:../../../../../../Drivers/STM32L0xx_HAL_Driver/Src/stm32l0xx_hal_rtc.c ****         __HAL_RTC_WRITEPROTECTION_ENABLE(hrtc);  
 664:../../../../../../Drivers/STM32L0xx_HAL_Driver/Src/stm32l0xx_hal_rtc.c **** 
 665:../../../../../../Drivers/STM32L0xx_HAL_Driver/Src/stm32l0xx_hal_rtc.c ****         hrtc->State = HAL_RTC_STATE_ERROR;
 666:../../../../../../Drivers/STM32L0xx_HAL_Driver/Src/stm32l0xx_hal_rtc.c **** 
 667:../../../../../../Drivers/STM32L0xx_HAL_Driver/Src/stm32l0xx_hal_rtc.c ****         /* Process Unlocked */ 
 668:../../../../../../Drivers/STM32L0xx_HAL_Driver/Src/stm32l0xx_hal_rtc.c ****         __HAL_UNLOCK(hrtc);
 669:../../../../../../Drivers/STM32L0xx_HAL_Driver/Src/stm32l0xx_hal_rtc.c **** 
 670:../../../../../../Drivers/STM32L0xx_HAL_Driver/Src/stm32l0xx_hal_rtc.c ****         return HAL_ERROR;
 671:../../../../../../Drivers/STM32L0xx_HAL_Driver/Src/stm32l0xx_hal_rtc.c ****       }
 672:../../../../../../Drivers/STM32L0xx_HAL_Driver/Src/stm32l0xx_hal_rtc.c ****     }
 673:../../../../../../Drivers/STM32L0xx_HAL_Driver/Src/stm32l0xx_hal_rtc.c **** 
 674:../../../../../../Drivers/STM32L0xx_HAL_Driver/Src/stm32l0xx_hal_rtc.c ****     /* Enable the write protection for RTC registers */
 675:../../../../../../Drivers/STM32L0xx_HAL_Driver/Src/stm32l0xx_hal_rtc.c ****     __HAL_RTC_WRITEPROTECTION_ENABLE(hrtc);
 676:../../../../../../Drivers/STM32L0xx_HAL_Driver/Src/stm32l0xx_hal_rtc.c **** 
 677:../../../../../../Drivers/STM32L0xx_HAL_Driver/Src/stm32l0xx_hal_rtc.c ****     hrtc->State = HAL_RTC_STATE_READY ;
 678:../../../../../../Drivers/STM32L0xx_HAL_Driver/Src/stm32l0xx_hal_rtc.c **** 
 679:../../../../../../Drivers/STM32L0xx_HAL_Driver/Src/stm32l0xx_hal_rtc.c ****     /* Process Unlocked */ 
 680:../../../../../../Drivers/STM32L0xx_HAL_Driver/Src/stm32l0xx_hal_rtc.c ****     __HAL_UNLOCK(hrtc);
 681:../../../../../../Drivers/STM32L0xx_HAL_Driver/Src/stm32l0xx_hal_rtc.c **** 
 682:../../../../../../Drivers/STM32L0xx_HAL_Driver/Src/stm32l0xx_hal_rtc.c ****     return HAL_OK;
 683:../../../../../../Drivers/STM32L0xx_HAL_Driver/Src/stm32l0xx_hal_rtc.c ****   }
 684:../../../../../../Drivers/STM32L0xx_HAL_Driver/Src/stm32l0xx_hal_rtc.c **** }
 685:../../../../../../Drivers/STM32L0xx_HAL_Driver/Src/stm32l0xx_hal_rtc.c **** 
 686:../../../../../../Drivers/STM32L0xx_HAL_Driver/Src/stm32l0xx_hal_rtc.c **** /**
 687:../../../../../../Drivers/STM32L0xx_HAL_Driver/Src/stm32l0xx_hal_rtc.c ****   * @brief  Get RTC current date.
 688:../../../../../../Drivers/STM32L0xx_HAL_Driver/Src/stm32l0xx_hal_rtc.c ****   * @param  hrtc RTC handle
 689:../../../../../../Drivers/STM32L0xx_HAL_Driver/Src/stm32l0xx_hal_rtc.c ****   * @param  sDate Pointer to Date structure
 690:../../../../../../Drivers/STM32L0xx_HAL_Driver/Src/stm32l0xx_hal_rtc.c ****   * @param  Format Specifies the format of the entered parameters.
 691:../../../../../../Drivers/STM32L0xx_HAL_Driver/Src/stm32l0xx_hal_rtc.c ****   *          This parameter can be one of the following values:
 692:../../../../../../Drivers/STM32L0xx_HAL_Driver/Src/stm32l0xx_hal_rtc.c ****   *            @arg RTC_FORMAT_BIN:  Binary data format 
 693:../../../../../../Drivers/STM32L0xx_HAL_Driver/Src/stm32l0xx_hal_rtc.c ****   *            @arg RTC_FORMAT_BCD:  BCD data format
 694:../../../../../../Drivers/STM32L0xx_HAL_Driver/Src/stm32l0xx_hal_rtc.c ****   * @note  You must call HAL_RTC_GetDate() after HAL_RTC_GetTime() to unlock the values 
 695:../../../../../../Drivers/STM32L0xx_HAL_Driver/Src/stm32l0xx_hal_rtc.c ****   *        in the higher-order calendar shadow registers to ensure consistency between the time and
 696:../../../../../../Drivers/STM32L0xx_HAL_Driver/Src/stm32l0xx_hal_rtc.c ****   *        Reading RTC current time locks the values in calendar shadow registers until Current dat
 697:../../../../../../Drivers/STM32L0xx_HAL_Driver/Src/stm32l0xx_hal_rtc.c ****   * @retval HAL status
 698:../../../../../../Drivers/STM32L0xx_HAL_Driver/Src/stm32l0xx_hal_rtc.c ****   */
 699:../../../../../../Drivers/STM32L0xx_HAL_Driver/Src/stm32l0xx_hal_rtc.c **** HAL_StatusTypeDef HAL_RTC_GetDate(RTC_HandleTypeDef *hrtc, RTC_DateTypeDef *sDate, uint32_t Format)
 700:../../../../../../Drivers/STM32L0xx_HAL_Driver/Src/stm32l0xx_hal_rtc.c **** {
 701:../../../../../../Drivers/STM32L0xx_HAL_Driver/Src/stm32l0xx_hal_rtc.c ****   uint32_t datetmpreg = 0U;
 702:../../../../../../Drivers/STM32L0xx_HAL_Driver/Src/stm32l0xx_hal_rtc.c **** 
 703:../../../../../../Drivers/STM32L0xx_HAL_Driver/Src/stm32l0xx_hal_rtc.c ****   /* Check the parameters */
 704:../../../../../../Drivers/STM32L0xx_HAL_Driver/Src/stm32l0xx_hal_rtc.c ****   assert_param(IS_RTC_FORMAT(Format));
ARM GAS  C:\Users\EBANO_~1\AppData\Local\Temp\cc8t01eQ.s 			page 15


 705:../../../../../../Drivers/STM32L0xx_HAL_Driver/Src/stm32l0xx_hal_rtc.c **** 
 706:../../../../../../Drivers/STM32L0xx_HAL_Driver/Src/stm32l0xx_hal_rtc.c ****   /* Get the DR register */
 707:../../../../../../Drivers/STM32L0xx_HAL_Driver/Src/stm32l0xx_hal_rtc.c ****   datetmpreg = (uint32_t)(hrtc->Instance->DR & RTC_DR_RESERVED_MASK);
 708:../../../../../../Drivers/STM32L0xx_HAL_Driver/Src/stm32l0xx_hal_rtc.c **** 
 709:../../../../../../Drivers/STM32L0xx_HAL_Driver/Src/stm32l0xx_hal_rtc.c ****   /* Fill the structure fields with the read parameters */
 710:../../../../../../Drivers/STM32L0xx_HAL_Driver/Src/stm32l0xx_hal_rtc.c ****   sDate->Year = (uint8_t)((datetmpreg & (RTC_DR_YT | RTC_DR_YU)) >> 16U);
 711:../../../../../../Drivers/STM32L0xx_HAL_Driver/Src/stm32l0xx_hal_rtc.c ****   sDate->Month = (uint8_t)((datetmpreg & (RTC_DR_MT | RTC_DR_MU)) >> 8U);
 712:../../../../../../Drivers/STM32L0xx_HAL_Driver/Src/stm32l0xx_hal_rtc.c ****   sDate->Date = (uint8_t)(datetmpreg & (RTC_DR_DT | RTC_DR_DU));
 713:../../../../../../Drivers/STM32L0xx_HAL_Driver/Src/stm32l0xx_hal_rtc.c ****   sDate->WeekDay = (uint8_t)((datetmpreg & (RTC_DR_WDU)) >> 13U); 
 714:../../../../../../Drivers/STM32L0xx_HAL_Driver/Src/stm32l0xx_hal_rtc.c **** 
 715:../../../../../../Drivers/STM32L0xx_HAL_Driver/Src/stm32l0xx_hal_rtc.c ****   /* Check the input parameters format */
 716:../../../../../../Drivers/STM32L0xx_HAL_Driver/Src/stm32l0xx_hal_rtc.c ****   if(Format == RTC_FORMAT_BIN)
 717:../../../../../../Drivers/STM32L0xx_HAL_Driver/Src/stm32l0xx_hal_rtc.c ****   {
 718:../../../../../../Drivers/STM32L0xx_HAL_Driver/Src/stm32l0xx_hal_rtc.c ****     /* Convert the date structure parameters to Binary format */
 719:../../../../../../Drivers/STM32L0xx_HAL_Driver/Src/stm32l0xx_hal_rtc.c ****     sDate->Year = (uint8_t)RTC_Bcd2ToByte(sDate->Year);
 720:../../../../../../Drivers/STM32L0xx_HAL_Driver/Src/stm32l0xx_hal_rtc.c ****     sDate->Month = (uint8_t)RTC_Bcd2ToByte(sDate->Month);
 721:../../../../../../Drivers/STM32L0xx_HAL_Driver/Src/stm32l0xx_hal_rtc.c ****     sDate->Date = (uint8_t)RTC_Bcd2ToByte(sDate->Date);
 722:../../../../../../Drivers/STM32L0xx_HAL_Driver/Src/stm32l0xx_hal_rtc.c ****   }
 723:../../../../../../Drivers/STM32L0xx_HAL_Driver/Src/stm32l0xx_hal_rtc.c ****   return HAL_OK;
 724:../../../../../../Drivers/STM32L0xx_HAL_Driver/Src/stm32l0xx_hal_rtc.c **** }
 725:../../../../../../Drivers/STM32L0xx_HAL_Driver/Src/stm32l0xx_hal_rtc.c **** 
 726:../../../../../../Drivers/STM32L0xx_HAL_Driver/Src/stm32l0xx_hal_rtc.c **** /**
 727:../../../../../../Drivers/STM32L0xx_HAL_Driver/Src/stm32l0xx_hal_rtc.c ****   * @}
 728:../../../../../../Drivers/STM32L0xx_HAL_Driver/Src/stm32l0xx_hal_rtc.c ****   */
 729:../../../../../../Drivers/STM32L0xx_HAL_Driver/Src/stm32l0xx_hal_rtc.c **** 
 730:../../../../../../Drivers/STM32L0xx_HAL_Driver/Src/stm32l0xx_hal_rtc.c **** /** @addtogroup RTC_Exported_Functions_Group3
 731:../../../../../../Drivers/STM32L0xx_HAL_Driver/Src/stm32l0xx_hal_rtc.c ****  *  @brief   RTC Alarm functions
 732:../../../../../../Drivers/STM32L0xx_HAL_Driver/Src/stm32l0xx_hal_rtc.c ****  *
 733:../../../../../../Drivers/STM32L0xx_HAL_Driver/Src/stm32l0xx_hal_rtc.c **** @verbatim   
 734:../../../../../../Drivers/STM32L0xx_HAL_Driver/Src/stm32l0xx_hal_rtc.c ****  ===============================================================================
 735:../../../../../../Drivers/STM32L0xx_HAL_Driver/Src/stm32l0xx_hal_rtc.c ****                  ##### RTC Alarm functions #####
 736:../../../../../../Drivers/STM32L0xx_HAL_Driver/Src/stm32l0xx_hal_rtc.c ****  ===============================================================================  
 737:../../../../../../Drivers/STM32L0xx_HAL_Driver/Src/stm32l0xx_hal_rtc.c ****  
 738:../../../../../../Drivers/STM32L0xx_HAL_Driver/Src/stm32l0xx_hal_rtc.c ****  [..] This section provides functions allowing to configure Alarm feature
 739:../../../../../../Drivers/STM32L0xx_HAL_Driver/Src/stm32l0xx_hal_rtc.c **** 
 740:../../../../../../Drivers/STM32L0xx_HAL_Driver/Src/stm32l0xx_hal_rtc.c **** @endverbatim
 741:../../../../../../Drivers/STM32L0xx_HAL_Driver/Src/stm32l0xx_hal_rtc.c ****   * @{
 742:../../../../../../Drivers/STM32L0xx_HAL_Driver/Src/stm32l0xx_hal_rtc.c ****   */
 743:../../../../../../Drivers/STM32L0xx_HAL_Driver/Src/stm32l0xx_hal_rtc.c **** /**
 744:../../../../../../Drivers/STM32L0xx_HAL_Driver/Src/stm32l0xx_hal_rtc.c ****   * @brief  Set the specified RTC Alarm.
 745:../../../../../../Drivers/STM32L0xx_HAL_Driver/Src/stm32l0xx_hal_rtc.c ****   * @param  hrtc RTC handle
 746:../../../../../../Drivers/STM32L0xx_HAL_Driver/Src/stm32l0xx_hal_rtc.c ****   * @param  sAlarm Pointer to Alarm structure
 747:../../../../../../Drivers/STM32L0xx_HAL_Driver/Src/stm32l0xx_hal_rtc.c ****   * @param  Format Specifies the format of the entered parameters.
 748:../../../../../../Drivers/STM32L0xx_HAL_Driver/Src/stm32l0xx_hal_rtc.c ****   *          This parameter can be one of the following values:
 749:../../../../../../Drivers/STM32L0xx_HAL_Driver/Src/stm32l0xx_hal_rtc.c ****   *             @arg RTC_FORMAT_BIN: Binary data format 
 750:../../../../../../Drivers/STM32L0xx_HAL_Driver/Src/stm32l0xx_hal_rtc.c ****   *             @arg RTC_FORMAT_BCD: BCD data format
 751:../../../../../../Drivers/STM32L0xx_HAL_Driver/Src/stm32l0xx_hal_rtc.c ****   * @retval HAL status
 752:../../../../../../Drivers/STM32L0xx_HAL_Driver/Src/stm32l0xx_hal_rtc.c ****   */
 753:../../../../../../Drivers/STM32L0xx_HAL_Driver/Src/stm32l0xx_hal_rtc.c **** HAL_StatusTypeDef HAL_RTC_SetAlarm(RTC_HandleTypeDef *hrtc, RTC_AlarmTypeDef *sAlarm, uint32_t Form
 754:../../../../../../Drivers/STM32L0xx_HAL_Driver/Src/stm32l0xx_hal_rtc.c **** {
 755:../../../../../../Drivers/STM32L0xx_HAL_Driver/Src/stm32l0xx_hal_rtc.c ****   uint32_t tickstart = 0U;
 756:../../../../../../Drivers/STM32L0xx_HAL_Driver/Src/stm32l0xx_hal_rtc.c ****   uint32_t tmpreg = 0U, subsecondtmpreg = 0U;
 757:../../../../../../Drivers/STM32L0xx_HAL_Driver/Src/stm32l0xx_hal_rtc.c **** 
 758:../../../../../../Drivers/STM32L0xx_HAL_Driver/Src/stm32l0xx_hal_rtc.c ****   /* Check the parameters */
 759:../../../../../../Drivers/STM32L0xx_HAL_Driver/Src/stm32l0xx_hal_rtc.c ****   assert_param(IS_RTC_FORMAT(Format));
 760:../../../../../../Drivers/STM32L0xx_HAL_Driver/Src/stm32l0xx_hal_rtc.c ****   assert_param(IS_RTC_ALARM(sAlarm->Alarm));
 761:../../../../../../Drivers/STM32L0xx_HAL_Driver/Src/stm32l0xx_hal_rtc.c ****   assert_param(IS_RTC_ALARM_MASK(sAlarm->AlarmMask));
ARM GAS  C:\Users\EBANO_~1\AppData\Local\Temp\cc8t01eQ.s 			page 16


 762:../../../../../../Drivers/STM32L0xx_HAL_Driver/Src/stm32l0xx_hal_rtc.c ****   assert_param(IS_RTC_ALARM_DATE_WEEKDAY_SEL(sAlarm->AlarmDateWeekDaySel));
 763:../../../../../../Drivers/STM32L0xx_HAL_Driver/Src/stm32l0xx_hal_rtc.c ****   assert_param(IS_RTC_ALARM_SUB_SECOND_VALUE(sAlarm->AlarmTime.SubSeconds));
 764:../../../../../../Drivers/STM32L0xx_HAL_Driver/Src/stm32l0xx_hal_rtc.c ****   assert_param(IS_RTC_ALARM_SUB_SECOND_MASK(sAlarm->AlarmSubSecondMask));
 765:../../../../../../Drivers/STM32L0xx_HAL_Driver/Src/stm32l0xx_hal_rtc.c **** 
 766:../../../../../../Drivers/STM32L0xx_HAL_Driver/Src/stm32l0xx_hal_rtc.c ****   /* Process Locked */
 767:../../../../../../Drivers/STM32L0xx_HAL_Driver/Src/stm32l0xx_hal_rtc.c ****   __HAL_LOCK(hrtc);
 768:../../../../../../Drivers/STM32L0xx_HAL_Driver/Src/stm32l0xx_hal_rtc.c **** 
 769:../../../../../../Drivers/STM32L0xx_HAL_Driver/Src/stm32l0xx_hal_rtc.c ****   hrtc->State = HAL_RTC_STATE_BUSY;
 770:../../../../../../Drivers/STM32L0xx_HAL_Driver/Src/stm32l0xx_hal_rtc.c **** 
 771:../../../../../../Drivers/STM32L0xx_HAL_Driver/Src/stm32l0xx_hal_rtc.c ****   if(Format == RTC_FORMAT_BIN)
 772:../../../../../../Drivers/STM32L0xx_HAL_Driver/Src/stm32l0xx_hal_rtc.c ****   {
 773:../../../../../../Drivers/STM32L0xx_HAL_Driver/Src/stm32l0xx_hal_rtc.c ****     if((hrtc->Instance->CR & RTC_CR_FMT) != (uint32_t)RESET)
 774:../../../../../../Drivers/STM32L0xx_HAL_Driver/Src/stm32l0xx_hal_rtc.c ****     {
 775:../../../../../../Drivers/STM32L0xx_HAL_Driver/Src/stm32l0xx_hal_rtc.c ****       assert_param(IS_RTC_HOUR12(sAlarm->AlarmTime.Hours));
 776:../../../../../../Drivers/STM32L0xx_HAL_Driver/Src/stm32l0xx_hal_rtc.c ****       assert_param(IS_RTC_HOURFORMAT12(sAlarm->AlarmTime.TimeFormat));
 777:../../../../../../Drivers/STM32L0xx_HAL_Driver/Src/stm32l0xx_hal_rtc.c ****     }
 778:../../../../../../Drivers/STM32L0xx_HAL_Driver/Src/stm32l0xx_hal_rtc.c ****     else
 779:../../../../../../Drivers/STM32L0xx_HAL_Driver/Src/stm32l0xx_hal_rtc.c ****     {
 780:../../../../../../Drivers/STM32L0xx_HAL_Driver/Src/stm32l0xx_hal_rtc.c ****       sAlarm->AlarmTime.TimeFormat = 0x00U;
 781:../../../../../../Drivers/STM32L0xx_HAL_Driver/Src/stm32l0xx_hal_rtc.c ****       assert_param(IS_RTC_HOUR24(sAlarm->AlarmTime.Hours));
 782:../../../../../../Drivers/STM32L0xx_HAL_Driver/Src/stm32l0xx_hal_rtc.c ****     }
 783:../../../../../../Drivers/STM32L0xx_HAL_Driver/Src/stm32l0xx_hal_rtc.c ****     assert_param(IS_RTC_MINUTES(sAlarm->AlarmTime.Minutes));
 784:../../../../../../Drivers/STM32L0xx_HAL_Driver/Src/stm32l0xx_hal_rtc.c ****     assert_param(IS_RTC_SECONDS(sAlarm->AlarmTime.Seconds));
 785:../../../../../../Drivers/STM32L0xx_HAL_Driver/Src/stm32l0xx_hal_rtc.c **** 
 786:../../../../../../Drivers/STM32L0xx_HAL_Driver/Src/stm32l0xx_hal_rtc.c ****     if(sAlarm->AlarmDateWeekDaySel == RTC_ALARMDATEWEEKDAYSEL_DATE)
 787:../../../../../../Drivers/STM32L0xx_HAL_Driver/Src/stm32l0xx_hal_rtc.c ****     {
 788:../../../../../../Drivers/STM32L0xx_HAL_Driver/Src/stm32l0xx_hal_rtc.c ****       assert_param(IS_RTC_ALARM_DATE_WEEKDAY_DATE(sAlarm->AlarmDateWeekDay));
 789:../../../../../../Drivers/STM32L0xx_HAL_Driver/Src/stm32l0xx_hal_rtc.c ****     }
 790:../../../../../../Drivers/STM32L0xx_HAL_Driver/Src/stm32l0xx_hal_rtc.c ****     else
 791:../../../../../../Drivers/STM32L0xx_HAL_Driver/Src/stm32l0xx_hal_rtc.c ****     {
 792:../../../../../../Drivers/STM32L0xx_HAL_Driver/Src/stm32l0xx_hal_rtc.c ****       assert_param(IS_RTC_ALARM_DATE_WEEKDAY_WEEKDAY(sAlarm->AlarmDateWeekDay));
 793:../../../../../../Drivers/STM32L0xx_HAL_Driver/Src/stm32l0xx_hal_rtc.c ****     }
 794:../../../../../../Drivers/STM32L0xx_HAL_Driver/Src/stm32l0xx_hal_rtc.c **** 
 795:../../../../../../Drivers/STM32L0xx_HAL_Driver/Src/stm32l0xx_hal_rtc.c ****     tmpreg = (((uint32_t)RTC_ByteToBcd2(sAlarm->AlarmTime.Hours) << 16U) | \
 796:../../../../../../Drivers/STM32L0xx_HAL_Driver/Src/stm32l0xx_hal_rtc.c ****               ((uint32_t)RTC_ByteToBcd2(sAlarm->AlarmTime.Minutes) << 8U) | \
 797:../../../../../../Drivers/STM32L0xx_HAL_Driver/Src/stm32l0xx_hal_rtc.c ****               ((uint32_t)RTC_ByteToBcd2(sAlarm->AlarmTime.Seconds)) | \
 798:../../../../../../Drivers/STM32L0xx_HAL_Driver/Src/stm32l0xx_hal_rtc.c ****               ((uint32_t)(sAlarm->AlarmTime.TimeFormat) << 16U) | \
 799:../../../../../../Drivers/STM32L0xx_HAL_Driver/Src/stm32l0xx_hal_rtc.c ****               ((uint32_t)RTC_ByteToBcd2(sAlarm->AlarmDateWeekDay) << 24U) | \
 800:../../../../../../Drivers/STM32L0xx_HAL_Driver/Src/stm32l0xx_hal_rtc.c ****               ((uint32_t)sAlarm->AlarmDateWeekDaySel) | \
 801:../../../../../../Drivers/STM32L0xx_HAL_Driver/Src/stm32l0xx_hal_rtc.c ****               ((uint32_t)sAlarm->AlarmMask));
 802:../../../../../../Drivers/STM32L0xx_HAL_Driver/Src/stm32l0xx_hal_rtc.c ****   }
 803:../../../../../../Drivers/STM32L0xx_HAL_Driver/Src/stm32l0xx_hal_rtc.c ****   else
 804:../../../../../../Drivers/STM32L0xx_HAL_Driver/Src/stm32l0xx_hal_rtc.c ****   {
 805:../../../../../../Drivers/STM32L0xx_HAL_Driver/Src/stm32l0xx_hal_rtc.c ****     if((hrtc->Instance->CR & RTC_CR_FMT) != (uint32_t)RESET)
 806:../../../../../../Drivers/STM32L0xx_HAL_Driver/Src/stm32l0xx_hal_rtc.c ****     {
 807:../../../../../../Drivers/STM32L0xx_HAL_Driver/Src/stm32l0xx_hal_rtc.c ****       tmpreg = RTC_Bcd2ToByte(sAlarm->AlarmTime.Hours);
 808:../../../../../../Drivers/STM32L0xx_HAL_Driver/Src/stm32l0xx_hal_rtc.c ****       assert_param(IS_RTC_HOUR12(tmpreg));
 809:../../../../../../Drivers/STM32L0xx_HAL_Driver/Src/stm32l0xx_hal_rtc.c ****       assert_param(IS_RTC_HOURFORMAT12(sAlarm->AlarmTime.TimeFormat));
 810:../../../../../../Drivers/STM32L0xx_HAL_Driver/Src/stm32l0xx_hal_rtc.c ****     }
 811:../../../../../../Drivers/STM32L0xx_HAL_Driver/Src/stm32l0xx_hal_rtc.c ****     else
 812:../../../../../../Drivers/STM32L0xx_HAL_Driver/Src/stm32l0xx_hal_rtc.c ****     {
 813:../../../../../../Drivers/STM32L0xx_HAL_Driver/Src/stm32l0xx_hal_rtc.c ****       sAlarm->AlarmTime.TimeFormat = 0x00U;
 814:../../../../../../Drivers/STM32L0xx_HAL_Driver/Src/stm32l0xx_hal_rtc.c ****       assert_param(IS_RTC_HOUR24(RTC_Bcd2ToByte(sAlarm->AlarmTime.Hours)));
 815:../../../../../../Drivers/STM32L0xx_HAL_Driver/Src/stm32l0xx_hal_rtc.c ****     }
 816:../../../../../../Drivers/STM32L0xx_HAL_Driver/Src/stm32l0xx_hal_rtc.c **** 
 817:../../../../../../Drivers/STM32L0xx_HAL_Driver/Src/stm32l0xx_hal_rtc.c ****     assert_param(IS_RTC_MINUTES(RTC_Bcd2ToByte(sAlarm->AlarmTime.Minutes)));
 818:../../../../../../Drivers/STM32L0xx_HAL_Driver/Src/stm32l0xx_hal_rtc.c ****     assert_param(IS_RTC_SECONDS(RTC_Bcd2ToByte(sAlarm->AlarmTime.Seconds)));
ARM GAS  C:\Users\EBANO_~1\AppData\Local\Temp\cc8t01eQ.s 			page 17


 819:../../../../../../Drivers/STM32L0xx_HAL_Driver/Src/stm32l0xx_hal_rtc.c **** 
 820:../../../../../../Drivers/STM32L0xx_HAL_Driver/Src/stm32l0xx_hal_rtc.c ****     if(sAlarm->AlarmDateWeekDaySel == RTC_ALARMDATEWEEKDAYSEL_DATE)
 821:../../../../../../Drivers/STM32L0xx_HAL_Driver/Src/stm32l0xx_hal_rtc.c ****     {
 822:../../../../../../Drivers/STM32L0xx_HAL_Driver/Src/stm32l0xx_hal_rtc.c ****       tmpreg = RTC_Bcd2ToByte(sAlarm->AlarmDateWeekDay);
 823:../../../../../../Drivers/STM32L0xx_HAL_Driver/Src/stm32l0xx_hal_rtc.c ****       assert_param(IS_RTC_ALARM_DATE_WEEKDAY_DATE(tmpreg));
 824:../../../../../../Drivers/STM32L0xx_HAL_Driver/Src/stm32l0xx_hal_rtc.c ****     }
 825:../../../../../../Drivers/STM32L0xx_HAL_Driver/Src/stm32l0xx_hal_rtc.c ****     else
 826:../../../../../../Drivers/STM32L0xx_HAL_Driver/Src/stm32l0xx_hal_rtc.c ****     {
 827:../../../../../../Drivers/STM32L0xx_HAL_Driver/Src/stm32l0xx_hal_rtc.c ****       tmpreg = RTC_Bcd2ToByte(sAlarm->AlarmDateWeekDay);
 828:../../../../../../Drivers/STM32L0xx_HAL_Driver/Src/stm32l0xx_hal_rtc.c ****       assert_param(IS_RTC_ALARM_DATE_WEEKDAY_WEEKDAY(tmpreg));
 829:../../../../../../Drivers/STM32L0xx_HAL_Driver/Src/stm32l0xx_hal_rtc.c ****     }
 830:../../../../../../Drivers/STM32L0xx_HAL_Driver/Src/stm32l0xx_hal_rtc.c **** 
 831:../../../../../../Drivers/STM32L0xx_HAL_Driver/Src/stm32l0xx_hal_rtc.c ****     tmpreg = (((uint32_t)(sAlarm->AlarmTime.Hours) << 16U) | \
 832:../../../../../../Drivers/STM32L0xx_HAL_Driver/Src/stm32l0xx_hal_rtc.c ****               ((uint32_t)(sAlarm->AlarmTime.Minutes) << 8U) | \
 833:../../../../../../Drivers/STM32L0xx_HAL_Driver/Src/stm32l0xx_hal_rtc.c ****               ((uint32_t) sAlarm->AlarmTime.Seconds) | \
 834:../../../../../../Drivers/STM32L0xx_HAL_Driver/Src/stm32l0xx_hal_rtc.c ****               ((uint32_t)(sAlarm->AlarmTime.TimeFormat) << 16U) | \
 835:../../../../../../Drivers/STM32L0xx_HAL_Driver/Src/stm32l0xx_hal_rtc.c ****               ((uint32_t)(sAlarm->AlarmDateWeekDay) << 24U) | \
 836:../../../../../../Drivers/STM32L0xx_HAL_Driver/Src/stm32l0xx_hal_rtc.c ****               ((uint32_t)sAlarm->AlarmDateWeekDaySel) | \
 837:../../../../../../Drivers/STM32L0xx_HAL_Driver/Src/stm32l0xx_hal_rtc.c ****               ((uint32_t)sAlarm->AlarmMask));   
 838:../../../../../../Drivers/STM32L0xx_HAL_Driver/Src/stm32l0xx_hal_rtc.c ****   }
 839:../../../../../../Drivers/STM32L0xx_HAL_Driver/Src/stm32l0xx_hal_rtc.c **** 
 840:../../../../../../Drivers/STM32L0xx_HAL_Driver/Src/stm32l0xx_hal_rtc.c ****   /* Configure the Alarm A or Alarm B Sub Second registers */
 841:../../../../../../Drivers/STM32L0xx_HAL_Driver/Src/stm32l0xx_hal_rtc.c ****   subsecondtmpreg = (uint32_t)((uint32_t)(sAlarm->AlarmTime.SubSeconds) | (uint32_t)(sAlarm->AlarmS
 842:../../../../../../Drivers/STM32L0xx_HAL_Driver/Src/stm32l0xx_hal_rtc.c **** 
 843:../../../../../../Drivers/STM32L0xx_HAL_Driver/Src/stm32l0xx_hal_rtc.c ****   /* Disable the write protection for RTC registers */
 844:../../../../../../Drivers/STM32L0xx_HAL_Driver/Src/stm32l0xx_hal_rtc.c ****   __HAL_RTC_WRITEPROTECTION_DISABLE(hrtc);
 845:../../../../../../Drivers/STM32L0xx_HAL_Driver/Src/stm32l0xx_hal_rtc.c **** 
 846:../../../../../../Drivers/STM32L0xx_HAL_Driver/Src/stm32l0xx_hal_rtc.c ****   /* Configure the Alarm register */
 847:../../../../../../Drivers/STM32L0xx_HAL_Driver/Src/stm32l0xx_hal_rtc.c ****   if(sAlarm->Alarm == RTC_ALARM_A)
 848:../../../../../../Drivers/STM32L0xx_HAL_Driver/Src/stm32l0xx_hal_rtc.c ****   {
 849:../../../../../../Drivers/STM32L0xx_HAL_Driver/Src/stm32l0xx_hal_rtc.c ****     /* Disable the Alarm A interrupt */
 850:../../../../../../Drivers/STM32L0xx_HAL_Driver/Src/stm32l0xx_hal_rtc.c ****     __HAL_RTC_ALARMA_DISABLE(hrtc);
 851:../../../../../../Drivers/STM32L0xx_HAL_Driver/Src/stm32l0xx_hal_rtc.c **** 
 852:../../../../../../Drivers/STM32L0xx_HAL_Driver/Src/stm32l0xx_hal_rtc.c ****     /* In case of interrupt mode is used, the interrupt source must disabled */
 853:../../../../../../Drivers/STM32L0xx_HAL_Driver/Src/stm32l0xx_hal_rtc.c ****     __HAL_RTC_ALARM_DISABLE_IT(hrtc, RTC_IT_ALRA);
 854:../../../../../../Drivers/STM32L0xx_HAL_Driver/Src/stm32l0xx_hal_rtc.c **** 
 855:../../../../../../Drivers/STM32L0xx_HAL_Driver/Src/stm32l0xx_hal_rtc.c ****     tickstart = HAL_GetTick();
 856:../../../../../../Drivers/STM32L0xx_HAL_Driver/Src/stm32l0xx_hal_rtc.c ****     /* Wait till RTC ALRAWF flag is set and if Time out is reached exit */
 857:../../../../../../Drivers/STM32L0xx_HAL_Driver/Src/stm32l0xx_hal_rtc.c ****     while(__HAL_RTC_ALARM_GET_FLAG(hrtc, RTC_FLAG_ALRAWF) == RESET)
 858:../../../../../../Drivers/STM32L0xx_HAL_Driver/Src/stm32l0xx_hal_rtc.c ****     {
 859:../../../../../../Drivers/STM32L0xx_HAL_Driver/Src/stm32l0xx_hal_rtc.c ****       if((HAL_GetTick() - tickstart ) > RTC_TIMEOUT_VALUE)
 860:../../../../../../Drivers/STM32L0xx_HAL_Driver/Src/stm32l0xx_hal_rtc.c ****       {
 861:../../../../../../Drivers/STM32L0xx_HAL_Driver/Src/stm32l0xx_hal_rtc.c ****         /* Enable the write protection for RTC registers */
 862:../../../../../../Drivers/STM32L0xx_HAL_Driver/Src/stm32l0xx_hal_rtc.c ****         __HAL_RTC_WRITEPROTECTION_ENABLE(hrtc);
 863:../../../../../../Drivers/STM32L0xx_HAL_Driver/Src/stm32l0xx_hal_rtc.c ****         
 864:../../../../../../Drivers/STM32L0xx_HAL_Driver/Src/stm32l0xx_hal_rtc.c ****         hrtc->State = HAL_RTC_STATE_TIMEOUT;
 865:../../../../../../Drivers/STM32L0xx_HAL_Driver/Src/stm32l0xx_hal_rtc.c **** 
 866:../../../../../../Drivers/STM32L0xx_HAL_Driver/Src/stm32l0xx_hal_rtc.c ****         /* Process Unlocked */ 
 867:../../../../../../Drivers/STM32L0xx_HAL_Driver/Src/stm32l0xx_hal_rtc.c ****         __HAL_UNLOCK(hrtc);
 868:../../../../../../Drivers/STM32L0xx_HAL_Driver/Src/stm32l0xx_hal_rtc.c **** 
 869:../../../../../../Drivers/STM32L0xx_HAL_Driver/Src/stm32l0xx_hal_rtc.c ****         return HAL_TIMEOUT;
 870:../../../../../../Drivers/STM32L0xx_HAL_Driver/Src/stm32l0xx_hal_rtc.c ****       }
 871:../../../../../../Drivers/STM32L0xx_HAL_Driver/Src/stm32l0xx_hal_rtc.c ****     }
 872:../../../../../../Drivers/STM32L0xx_HAL_Driver/Src/stm32l0xx_hal_rtc.c **** 
 873:../../../../../../Drivers/STM32L0xx_HAL_Driver/Src/stm32l0xx_hal_rtc.c ****     hrtc->Instance->ALRMAR = (uint32_t)tmpreg;
 874:../../../../../../Drivers/STM32L0xx_HAL_Driver/Src/stm32l0xx_hal_rtc.c ****     /* Configure the Alarm A Sub Second register */
 875:../../../../../../Drivers/STM32L0xx_HAL_Driver/Src/stm32l0xx_hal_rtc.c ****     hrtc->Instance->ALRMASSR = subsecondtmpreg;
ARM GAS  C:\Users\EBANO_~1\AppData\Local\Temp\cc8t01eQ.s 			page 18


 876:../../../../../../Drivers/STM32L0xx_HAL_Driver/Src/stm32l0xx_hal_rtc.c ****     /* Configure the Alarm state: Enable Alarm */
 877:../../../../../../Drivers/STM32L0xx_HAL_Driver/Src/stm32l0xx_hal_rtc.c ****     __HAL_RTC_ALARMA_ENABLE(hrtc);
 878:../../../../../../Drivers/STM32L0xx_HAL_Driver/Src/stm32l0xx_hal_rtc.c ****   }
 879:../../../../../../Drivers/STM32L0xx_HAL_Driver/Src/stm32l0xx_hal_rtc.c ****   else
 880:../../../../../../Drivers/STM32L0xx_HAL_Driver/Src/stm32l0xx_hal_rtc.c ****   {
 881:../../../../../../Drivers/STM32L0xx_HAL_Driver/Src/stm32l0xx_hal_rtc.c ****     /* Disable the Alarm B interrupt */
 882:../../../../../../Drivers/STM32L0xx_HAL_Driver/Src/stm32l0xx_hal_rtc.c ****     __HAL_RTC_ALARMB_DISABLE(hrtc);
 883:../../../../../../Drivers/STM32L0xx_HAL_Driver/Src/stm32l0xx_hal_rtc.c **** 
 884:../../../../../../Drivers/STM32L0xx_HAL_Driver/Src/stm32l0xx_hal_rtc.c ****     /* In case of interrupt mode is used, the interrupt source must disabled */
 885:../../../../../../Drivers/STM32L0xx_HAL_Driver/Src/stm32l0xx_hal_rtc.c ****     __HAL_RTC_ALARM_DISABLE_IT(hrtc, RTC_IT_ALRB);
 886:../../../../../../Drivers/STM32L0xx_HAL_Driver/Src/stm32l0xx_hal_rtc.c **** 
 887:../../../../../../Drivers/STM32L0xx_HAL_Driver/Src/stm32l0xx_hal_rtc.c ****     tickstart = HAL_GetTick();
 888:../../../../../../Drivers/STM32L0xx_HAL_Driver/Src/stm32l0xx_hal_rtc.c ****     /* Wait till RTC ALRBWF flag is set and if Time out is reached exit */
 889:../../../../../../Drivers/STM32L0xx_HAL_Driver/Src/stm32l0xx_hal_rtc.c ****     while(__HAL_RTC_ALARM_GET_FLAG(hrtc, RTC_FLAG_ALRBWF) == RESET)
 890:../../../../../../Drivers/STM32L0xx_HAL_Driver/Src/stm32l0xx_hal_rtc.c ****     {
 891:../../../../../../Drivers/STM32L0xx_HAL_Driver/Src/stm32l0xx_hal_rtc.c ****       if((HAL_GetTick() - tickstart ) > RTC_TIMEOUT_VALUE)
 892:../../../../../../Drivers/STM32L0xx_HAL_Driver/Src/stm32l0xx_hal_rtc.c ****       {
 893:../../../../../../Drivers/STM32L0xx_HAL_Driver/Src/stm32l0xx_hal_rtc.c ****         /* Enable the write protection for RTC registers */
 894:../../../../../../Drivers/STM32L0xx_HAL_Driver/Src/stm32l0xx_hal_rtc.c ****         __HAL_RTC_WRITEPROTECTION_ENABLE(hrtc);
 895:../../../../../../Drivers/STM32L0xx_HAL_Driver/Src/stm32l0xx_hal_rtc.c **** 
 896:../../../../../../Drivers/STM32L0xx_HAL_Driver/Src/stm32l0xx_hal_rtc.c ****         hrtc->State = HAL_RTC_STATE_TIMEOUT;
 897:../../../../../../Drivers/STM32L0xx_HAL_Driver/Src/stm32l0xx_hal_rtc.c **** 
 898:../../../../../../Drivers/STM32L0xx_HAL_Driver/Src/stm32l0xx_hal_rtc.c ****         /* Process Unlocked */
 899:../../../../../../Drivers/STM32L0xx_HAL_Driver/Src/stm32l0xx_hal_rtc.c ****         __HAL_UNLOCK(hrtc);
 900:../../../../../../Drivers/STM32L0xx_HAL_Driver/Src/stm32l0xx_hal_rtc.c **** 
 901:../../../../../../Drivers/STM32L0xx_HAL_Driver/Src/stm32l0xx_hal_rtc.c ****         return HAL_TIMEOUT;
 902:../../../../../../Drivers/STM32L0xx_HAL_Driver/Src/stm32l0xx_hal_rtc.c ****       }
 903:../../../../../../Drivers/STM32L0xx_HAL_Driver/Src/stm32l0xx_hal_rtc.c ****     }
 904:../../../../../../Drivers/STM32L0xx_HAL_Driver/Src/stm32l0xx_hal_rtc.c **** 
 905:../../../../../../Drivers/STM32L0xx_HAL_Driver/Src/stm32l0xx_hal_rtc.c ****     hrtc->Instance->ALRMBR = (uint32_t)tmpreg;
 906:../../../../../../Drivers/STM32L0xx_HAL_Driver/Src/stm32l0xx_hal_rtc.c ****     /* Configure the Alarm B Sub Second register */
 907:../../../../../../Drivers/STM32L0xx_HAL_Driver/Src/stm32l0xx_hal_rtc.c ****     hrtc->Instance->ALRMBSSR = subsecondtmpreg;
 908:../../../../../../Drivers/STM32L0xx_HAL_Driver/Src/stm32l0xx_hal_rtc.c ****     /* Configure the Alarm state: Enable Alarm */
 909:../../../../../../Drivers/STM32L0xx_HAL_Driver/Src/stm32l0xx_hal_rtc.c ****     __HAL_RTC_ALARMB_ENABLE(hrtc);
 910:../../../../../../Drivers/STM32L0xx_HAL_Driver/Src/stm32l0xx_hal_rtc.c ****   }
 911:../../../../../../Drivers/STM32L0xx_HAL_Driver/Src/stm32l0xx_hal_rtc.c **** 
 912:../../../../../../Drivers/STM32L0xx_HAL_Driver/Src/stm32l0xx_hal_rtc.c ****   /* Enable the write protection for RTC registers */
 913:../../../../../../Drivers/STM32L0xx_HAL_Driver/Src/stm32l0xx_hal_rtc.c ****   __HAL_RTC_WRITEPROTECTION_ENABLE(hrtc);
 914:../../../../../../Drivers/STM32L0xx_HAL_Driver/Src/stm32l0xx_hal_rtc.c **** 
 915:../../../../../../Drivers/STM32L0xx_HAL_Driver/Src/stm32l0xx_hal_rtc.c ****   /* Change RTC state */
 916:../../../../../../Drivers/STM32L0xx_HAL_Driver/Src/stm32l0xx_hal_rtc.c ****   hrtc->State = HAL_RTC_STATE_READY;
 917:../../../../../../Drivers/STM32L0xx_HAL_Driver/Src/stm32l0xx_hal_rtc.c **** 
 918:../../../../../../Drivers/STM32L0xx_HAL_Driver/Src/stm32l0xx_hal_rtc.c ****   /* Process Unlocked */
 919:../../../../../../Drivers/STM32L0xx_HAL_Driver/Src/stm32l0xx_hal_rtc.c ****   __HAL_UNLOCK(hrtc);
 920:../../../../../../Drivers/STM32L0xx_HAL_Driver/Src/stm32l0xx_hal_rtc.c **** 
 921:../../../../../../Drivers/STM32L0xx_HAL_Driver/Src/stm32l0xx_hal_rtc.c ****   return HAL_OK;
 922:../../../../../../Drivers/STM32L0xx_HAL_Driver/Src/stm32l0xx_hal_rtc.c **** }
 923:../../../../../../Drivers/STM32L0xx_HAL_Driver/Src/stm32l0xx_hal_rtc.c **** 
 924:../../../../../../Drivers/STM32L0xx_HAL_Driver/Src/stm32l0xx_hal_rtc.c **** /**
 925:../../../../../../Drivers/STM32L0xx_HAL_Driver/Src/stm32l0xx_hal_rtc.c ****   * @brief  Set the specified RTC Alarm with Interrupt.
 926:../../../../../../Drivers/STM32L0xx_HAL_Driver/Src/stm32l0xx_hal_rtc.c ****   * @param  hrtc RTC handle
 927:../../../../../../Drivers/STM32L0xx_HAL_Driver/Src/stm32l0xx_hal_rtc.c ****   * @param  sAlarm Pointer to Alarm structure
 928:../../../../../../Drivers/STM32L0xx_HAL_Driver/Src/stm32l0xx_hal_rtc.c ****   * @param  Format Specifies the format of the entered parameters.
 929:../../../../../../Drivers/STM32L0xx_HAL_Driver/Src/stm32l0xx_hal_rtc.c ****   *          This parameter can be one of the following values:
 930:../../../../../../Drivers/STM32L0xx_HAL_Driver/Src/stm32l0xx_hal_rtc.c ****   *             @arg RTC_FORMAT_BIN: Binary data format 
 931:../../../../../../Drivers/STM32L0xx_HAL_Driver/Src/stm32l0xx_hal_rtc.c ****   *             @arg RTC_FORMAT_BCD: BCD data format
 932:../../../../../../Drivers/STM32L0xx_HAL_Driver/Src/stm32l0xx_hal_rtc.c ****   * @note   The Alarm register can only be written when the corresponding Alarm
ARM GAS  C:\Users\EBANO_~1\AppData\Local\Temp\cc8t01eQ.s 			page 19


 933:../../../../../../Drivers/STM32L0xx_HAL_Driver/Src/stm32l0xx_hal_rtc.c ****   *         is disabled (Use the HAL_RTC_DeactivateAlarm()).   
 934:../../../../../../Drivers/STM32L0xx_HAL_Driver/Src/stm32l0xx_hal_rtc.c ****   * @note   The HAL_RTC_SetTime() must be called before enabling the Alarm feature.   
 935:../../../../../../Drivers/STM32L0xx_HAL_Driver/Src/stm32l0xx_hal_rtc.c ****   * @retval HAL status
 936:../../../../../../Drivers/STM32L0xx_HAL_Driver/Src/stm32l0xx_hal_rtc.c ****   */
 937:../../../../../../Drivers/STM32L0xx_HAL_Driver/Src/stm32l0xx_hal_rtc.c **** HAL_StatusTypeDef HAL_RTC_SetAlarm_IT(RTC_HandleTypeDef *hrtc, RTC_AlarmTypeDef *sAlarm, uint32_t F
 938:../../../../../../Drivers/STM32L0xx_HAL_Driver/Src/stm32l0xx_hal_rtc.c **** {
 939:../../../../../../Drivers/STM32L0xx_HAL_Driver/Src/stm32l0xx_hal_rtc.c ****   uint32_t tickstart = 0U;
 940:../../../../../../Drivers/STM32L0xx_HAL_Driver/Src/stm32l0xx_hal_rtc.c ****   uint32_t tmpreg = 0U, subsecondtmpreg = 0U;
 941:../../../../../../Drivers/STM32L0xx_HAL_Driver/Src/stm32l0xx_hal_rtc.c **** 
 942:../../../../../../Drivers/STM32L0xx_HAL_Driver/Src/stm32l0xx_hal_rtc.c ****   /* Check the parameters */
 943:../../../../../../Drivers/STM32L0xx_HAL_Driver/Src/stm32l0xx_hal_rtc.c ****   assert_param(IS_RTC_FORMAT(Format));
 944:../../../../../../Drivers/STM32L0xx_HAL_Driver/Src/stm32l0xx_hal_rtc.c ****   assert_param(IS_RTC_ALARM(sAlarm->Alarm));
 945:../../../../../../Drivers/STM32L0xx_HAL_Driver/Src/stm32l0xx_hal_rtc.c ****   assert_param(IS_RTC_ALARM_MASK(sAlarm->AlarmMask));
 946:../../../../../../Drivers/STM32L0xx_HAL_Driver/Src/stm32l0xx_hal_rtc.c ****   assert_param(IS_RTC_ALARM_DATE_WEEKDAY_SEL(sAlarm->AlarmDateWeekDaySel));
 947:../../../../../../Drivers/STM32L0xx_HAL_Driver/Src/stm32l0xx_hal_rtc.c ****   assert_param(IS_RTC_ALARM_SUB_SECOND_VALUE(sAlarm->AlarmTime.SubSeconds));
 948:../../../../../../Drivers/STM32L0xx_HAL_Driver/Src/stm32l0xx_hal_rtc.c ****   assert_param(IS_RTC_ALARM_SUB_SECOND_MASK(sAlarm->AlarmSubSecondMask));
 949:../../../../../../Drivers/STM32L0xx_HAL_Driver/Src/stm32l0xx_hal_rtc.c **** 
 950:../../../../../../Drivers/STM32L0xx_HAL_Driver/Src/stm32l0xx_hal_rtc.c ****   /* Process Locked */ 
 951:../../../../../../Drivers/STM32L0xx_HAL_Driver/Src/stm32l0xx_hal_rtc.c ****   __HAL_LOCK(hrtc);
 952:../../../../../../Drivers/STM32L0xx_HAL_Driver/Src/stm32l0xx_hal_rtc.c **** 
 953:../../../../../../Drivers/STM32L0xx_HAL_Driver/Src/stm32l0xx_hal_rtc.c ****   hrtc->State = HAL_RTC_STATE_BUSY;
 954:../../../../../../Drivers/STM32L0xx_HAL_Driver/Src/stm32l0xx_hal_rtc.c **** 
 955:../../../../../../Drivers/STM32L0xx_HAL_Driver/Src/stm32l0xx_hal_rtc.c ****   if(Format == RTC_FORMAT_BIN)
 956:../../../../../../Drivers/STM32L0xx_HAL_Driver/Src/stm32l0xx_hal_rtc.c ****   {
 957:../../../../../../Drivers/STM32L0xx_HAL_Driver/Src/stm32l0xx_hal_rtc.c ****     if((hrtc->Instance->CR & RTC_CR_FMT) != (uint32_t)RESET)
 958:../../../../../../Drivers/STM32L0xx_HAL_Driver/Src/stm32l0xx_hal_rtc.c ****     {
 959:../../../../../../Drivers/STM32L0xx_HAL_Driver/Src/stm32l0xx_hal_rtc.c ****       assert_param(IS_RTC_HOUR12(sAlarm->AlarmTime.Hours));
 960:../../../../../../Drivers/STM32L0xx_HAL_Driver/Src/stm32l0xx_hal_rtc.c ****       assert_param(IS_RTC_HOURFORMAT12(sAlarm->AlarmTime.TimeFormat));
 961:../../../../../../Drivers/STM32L0xx_HAL_Driver/Src/stm32l0xx_hal_rtc.c ****     }
 962:../../../../../../Drivers/STM32L0xx_HAL_Driver/Src/stm32l0xx_hal_rtc.c ****     else
 963:../../../../../../Drivers/STM32L0xx_HAL_Driver/Src/stm32l0xx_hal_rtc.c ****     {
 964:../../../../../../Drivers/STM32L0xx_HAL_Driver/Src/stm32l0xx_hal_rtc.c ****       sAlarm->AlarmTime.TimeFormat = 0x00U;
 965:../../../../../../Drivers/STM32L0xx_HAL_Driver/Src/stm32l0xx_hal_rtc.c ****       assert_param(IS_RTC_HOUR24(sAlarm->AlarmTime.Hours));
 966:../../../../../../Drivers/STM32L0xx_HAL_Driver/Src/stm32l0xx_hal_rtc.c ****     }
 967:../../../../../../Drivers/STM32L0xx_HAL_Driver/Src/stm32l0xx_hal_rtc.c ****     assert_param(IS_RTC_MINUTES(sAlarm->AlarmTime.Minutes));
 968:../../../../../../Drivers/STM32L0xx_HAL_Driver/Src/stm32l0xx_hal_rtc.c ****     assert_param(IS_RTC_SECONDS(sAlarm->AlarmTime.Seconds));
 969:../../../../../../Drivers/STM32L0xx_HAL_Driver/Src/stm32l0xx_hal_rtc.c **** 
 970:../../../../../../Drivers/STM32L0xx_HAL_Driver/Src/stm32l0xx_hal_rtc.c ****     if(sAlarm->AlarmDateWeekDaySel == RTC_ALARMDATEWEEKDAYSEL_DATE)
 971:../../../../../../Drivers/STM32L0xx_HAL_Driver/Src/stm32l0xx_hal_rtc.c ****     {
 972:../../../../../../Drivers/STM32L0xx_HAL_Driver/Src/stm32l0xx_hal_rtc.c ****       assert_param(IS_RTC_ALARM_DATE_WEEKDAY_DATE(sAlarm->AlarmDateWeekDay));
 973:../../../../../../Drivers/STM32L0xx_HAL_Driver/Src/stm32l0xx_hal_rtc.c ****     }
 974:../../../../../../Drivers/STM32L0xx_HAL_Driver/Src/stm32l0xx_hal_rtc.c ****     else
 975:../../../../../../Drivers/STM32L0xx_HAL_Driver/Src/stm32l0xx_hal_rtc.c ****     {
 976:../../../../../../Drivers/STM32L0xx_HAL_Driver/Src/stm32l0xx_hal_rtc.c ****       assert_param(IS_RTC_ALARM_DATE_WEEKDAY_WEEKDAY(sAlarm->AlarmDateWeekDay));
 977:../../../../../../Drivers/STM32L0xx_HAL_Driver/Src/stm32l0xx_hal_rtc.c ****     }
 978:../../../../../../Drivers/STM32L0xx_HAL_Driver/Src/stm32l0xx_hal_rtc.c ****     tmpreg = (((uint32_t)RTC_ByteToBcd2(sAlarm->AlarmTime.Hours) << 16U) | \
 979:../../../../../../Drivers/STM32L0xx_HAL_Driver/Src/stm32l0xx_hal_rtc.c ****               ((uint32_t)RTC_ByteToBcd2(sAlarm->AlarmTime.Minutes) << 8U) | \
 980:../../../../../../Drivers/STM32L0xx_HAL_Driver/Src/stm32l0xx_hal_rtc.c ****               ((uint32_t)RTC_ByteToBcd2(sAlarm->AlarmTime.Seconds)) | \
 981:../../../../../../Drivers/STM32L0xx_HAL_Driver/Src/stm32l0xx_hal_rtc.c ****               ((uint32_t)(sAlarm->AlarmTime.TimeFormat) << 16U) | \
 982:../../../../../../Drivers/STM32L0xx_HAL_Driver/Src/stm32l0xx_hal_rtc.c ****               ((uint32_t)RTC_ByteToBcd2(sAlarm->AlarmDateWeekDay) << 24U) | \
 983:../../../../../../Drivers/STM32L0xx_HAL_Driver/Src/stm32l0xx_hal_rtc.c ****               ((uint32_t)sAlarm->AlarmDateWeekDaySel) | \
 984:../../../../../../Drivers/STM32L0xx_HAL_Driver/Src/stm32l0xx_hal_rtc.c ****               ((uint32_t)sAlarm->AlarmMask));
 985:../../../../../../Drivers/STM32L0xx_HAL_Driver/Src/stm32l0xx_hal_rtc.c ****   }
 986:../../../../../../Drivers/STM32L0xx_HAL_Driver/Src/stm32l0xx_hal_rtc.c ****   else
 987:../../../../../../Drivers/STM32L0xx_HAL_Driver/Src/stm32l0xx_hal_rtc.c ****   {
 988:../../../../../../Drivers/STM32L0xx_HAL_Driver/Src/stm32l0xx_hal_rtc.c ****     if((hrtc->Instance->CR & RTC_CR_FMT) != (uint32_t)RESET)
 989:../../../../../../Drivers/STM32L0xx_HAL_Driver/Src/stm32l0xx_hal_rtc.c ****     {
ARM GAS  C:\Users\EBANO_~1\AppData\Local\Temp\cc8t01eQ.s 			page 20


 990:../../../../../../Drivers/STM32L0xx_HAL_Driver/Src/stm32l0xx_hal_rtc.c ****       tmpreg = RTC_Bcd2ToByte(sAlarm->AlarmTime.Hours);
 991:../../../../../../Drivers/STM32L0xx_HAL_Driver/Src/stm32l0xx_hal_rtc.c ****       assert_param(IS_RTC_HOUR12(tmpreg));
 992:../../../../../../Drivers/STM32L0xx_HAL_Driver/Src/stm32l0xx_hal_rtc.c ****       assert_param(IS_RTC_HOURFORMAT12(sAlarm->AlarmTime.TimeFormat));
 993:../../../../../../Drivers/STM32L0xx_HAL_Driver/Src/stm32l0xx_hal_rtc.c ****     } 
 994:../../../../../../Drivers/STM32L0xx_HAL_Driver/Src/stm32l0xx_hal_rtc.c ****     else
 995:../../../../../../Drivers/STM32L0xx_HAL_Driver/Src/stm32l0xx_hal_rtc.c ****     {
 996:../../../../../../Drivers/STM32L0xx_HAL_Driver/Src/stm32l0xx_hal_rtc.c ****       sAlarm->AlarmTime.TimeFormat = 0x00U;
 997:../../../../../../Drivers/STM32L0xx_HAL_Driver/Src/stm32l0xx_hal_rtc.c ****       assert_param(IS_RTC_HOUR24(RTC_Bcd2ToByte(sAlarm->AlarmTime.Hours)));
 998:../../../../../../Drivers/STM32L0xx_HAL_Driver/Src/stm32l0xx_hal_rtc.c ****     }
 999:../../../../../../Drivers/STM32L0xx_HAL_Driver/Src/stm32l0xx_hal_rtc.c **** 
1000:../../../../../../Drivers/STM32L0xx_HAL_Driver/Src/stm32l0xx_hal_rtc.c ****     assert_param(IS_RTC_MINUTES(RTC_Bcd2ToByte(sAlarm->AlarmTime.Minutes)));
1001:../../../../../../Drivers/STM32L0xx_HAL_Driver/Src/stm32l0xx_hal_rtc.c ****     assert_param(IS_RTC_SECONDS(RTC_Bcd2ToByte(sAlarm->AlarmTime.Seconds)));
1002:../../../../../../Drivers/STM32L0xx_HAL_Driver/Src/stm32l0xx_hal_rtc.c ****     
1003:../../../../../../Drivers/STM32L0xx_HAL_Driver/Src/stm32l0xx_hal_rtc.c ****     if(sAlarm->AlarmDateWeekDaySel == RTC_ALARMDATEWEEKDAYSEL_DATE)
1004:../../../../../../Drivers/STM32L0xx_HAL_Driver/Src/stm32l0xx_hal_rtc.c ****     {
1005:../../../../../../Drivers/STM32L0xx_HAL_Driver/Src/stm32l0xx_hal_rtc.c ****       tmpreg = RTC_Bcd2ToByte(sAlarm->AlarmDateWeekDay);
1006:../../../../../../Drivers/STM32L0xx_HAL_Driver/Src/stm32l0xx_hal_rtc.c ****       assert_param(IS_RTC_ALARM_DATE_WEEKDAY_DATE(tmpreg));
1007:../../../../../../Drivers/STM32L0xx_HAL_Driver/Src/stm32l0xx_hal_rtc.c ****     }
1008:../../../../../../Drivers/STM32L0xx_HAL_Driver/Src/stm32l0xx_hal_rtc.c ****     else
1009:../../../../../../Drivers/STM32L0xx_HAL_Driver/Src/stm32l0xx_hal_rtc.c ****     {
1010:../../../../../../Drivers/STM32L0xx_HAL_Driver/Src/stm32l0xx_hal_rtc.c ****       tmpreg = RTC_Bcd2ToByte(sAlarm->AlarmDateWeekDay);
1011:../../../../../../Drivers/STM32L0xx_HAL_Driver/Src/stm32l0xx_hal_rtc.c ****       assert_param(IS_RTC_ALARM_DATE_WEEKDAY_WEEKDAY(tmpreg));
1012:../../../../../../Drivers/STM32L0xx_HAL_Driver/Src/stm32l0xx_hal_rtc.c ****     }
1013:../../../../../../Drivers/STM32L0xx_HAL_Driver/Src/stm32l0xx_hal_rtc.c ****     tmpreg = (((uint32_t)(sAlarm->AlarmTime.Hours) << 16U) | \
1014:../../../../../../Drivers/STM32L0xx_HAL_Driver/Src/stm32l0xx_hal_rtc.c ****               ((uint32_t)(sAlarm->AlarmTime.Minutes) << 8U) | \
1015:../../../../../../Drivers/STM32L0xx_HAL_Driver/Src/stm32l0xx_hal_rtc.c ****               ((uint32_t) sAlarm->AlarmTime.Seconds) | \
1016:../../../../../../Drivers/STM32L0xx_HAL_Driver/Src/stm32l0xx_hal_rtc.c ****               ((uint32_t)(sAlarm->AlarmTime.TimeFormat) << 16U) | \
1017:../../../../../../Drivers/STM32L0xx_HAL_Driver/Src/stm32l0xx_hal_rtc.c ****               ((uint32_t)(sAlarm->AlarmDateWeekDay) << 24U) | \
1018:../../../../../../Drivers/STM32L0xx_HAL_Driver/Src/stm32l0xx_hal_rtc.c ****               ((uint32_t)sAlarm->AlarmDateWeekDaySel) | \
1019:../../../../../../Drivers/STM32L0xx_HAL_Driver/Src/stm32l0xx_hal_rtc.c ****               ((uint32_t)sAlarm->AlarmMask));     
1020:../../../../../../Drivers/STM32L0xx_HAL_Driver/Src/stm32l0xx_hal_rtc.c ****   }
1021:../../../../../../Drivers/STM32L0xx_HAL_Driver/Src/stm32l0xx_hal_rtc.c ****   /* Configure the Alarm A or Alarm B Sub Second registers */
1022:../../../../../../Drivers/STM32L0xx_HAL_Driver/Src/stm32l0xx_hal_rtc.c ****   subsecondtmpreg = (uint32_t)((uint32_t)(sAlarm->AlarmTime.SubSeconds) | (uint32_t)(sAlarm->AlarmS
1023:../../../../../../Drivers/STM32L0xx_HAL_Driver/Src/stm32l0xx_hal_rtc.c **** 
1024:../../../../../../Drivers/STM32L0xx_HAL_Driver/Src/stm32l0xx_hal_rtc.c ****   /* Disable the write protection for RTC registers */
1025:../../../../../../Drivers/STM32L0xx_HAL_Driver/Src/stm32l0xx_hal_rtc.c ****   __HAL_RTC_WRITEPROTECTION_DISABLE(hrtc);
1026:../../../../../../Drivers/STM32L0xx_HAL_Driver/Src/stm32l0xx_hal_rtc.c **** 
1027:../../../../../../Drivers/STM32L0xx_HAL_Driver/Src/stm32l0xx_hal_rtc.c ****   /* Configure the Alarm register */
1028:../../../../../../Drivers/STM32L0xx_HAL_Driver/Src/stm32l0xx_hal_rtc.c ****   if(sAlarm->Alarm == RTC_ALARM_A)
1029:../../../../../../Drivers/STM32L0xx_HAL_Driver/Src/stm32l0xx_hal_rtc.c ****   {
1030:../../../../../../Drivers/STM32L0xx_HAL_Driver/Src/stm32l0xx_hal_rtc.c ****     /* Disable the Alarm A interrupt */
1031:../../../../../../Drivers/STM32L0xx_HAL_Driver/Src/stm32l0xx_hal_rtc.c ****     __HAL_RTC_ALARMA_DISABLE(hrtc);
1032:../../../../../../Drivers/STM32L0xx_HAL_Driver/Src/stm32l0xx_hal_rtc.c ****     
1033:../../../../../../Drivers/STM32L0xx_HAL_Driver/Src/stm32l0xx_hal_rtc.c ****     /* Clear flag alarm A */
1034:../../../../../../Drivers/STM32L0xx_HAL_Driver/Src/stm32l0xx_hal_rtc.c ****     __HAL_RTC_ALARM_CLEAR_FLAG(hrtc, RTC_FLAG_ALRAF);
1035:../../../../../../Drivers/STM32L0xx_HAL_Driver/Src/stm32l0xx_hal_rtc.c **** 
1036:../../../../../../Drivers/STM32L0xx_HAL_Driver/Src/stm32l0xx_hal_rtc.c ****     tickstart = HAL_GetTick();
1037:../../../../../../Drivers/STM32L0xx_HAL_Driver/Src/stm32l0xx_hal_rtc.c ****     /* Wait till RTC ALRAWF flag is set and if Time out is reached exit */
1038:../../../../../../Drivers/STM32L0xx_HAL_Driver/Src/stm32l0xx_hal_rtc.c ****     while(__HAL_RTC_ALARM_GET_FLAG(hrtc, RTC_FLAG_ALRAWF) == RESET)
1039:../../../../../../Drivers/STM32L0xx_HAL_Driver/Src/stm32l0xx_hal_rtc.c ****     {
1040:../../../../../../Drivers/STM32L0xx_HAL_Driver/Src/stm32l0xx_hal_rtc.c ****       if((HAL_GetTick() - tickstart ) > RTC_TIMEOUT_VALUE)
1041:../../../../../../Drivers/STM32L0xx_HAL_Driver/Src/stm32l0xx_hal_rtc.c ****       {
1042:../../../../../../Drivers/STM32L0xx_HAL_Driver/Src/stm32l0xx_hal_rtc.c ****         /* Enable the write protection for RTC registers */
1043:../../../../../../Drivers/STM32L0xx_HAL_Driver/Src/stm32l0xx_hal_rtc.c ****         __HAL_RTC_WRITEPROTECTION_ENABLE(hrtc);
1044:../../../../../../Drivers/STM32L0xx_HAL_Driver/Src/stm32l0xx_hal_rtc.c **** 
1045:../../../../../../Drivers/STM32L0xx_HAL_Driver/Src/stm32l0xx_hal_rtc.c ****         hrtc->State = HAL_RTC_STATE_TIMEOUT; 
1046:../../../../../../Drivers/STM32L0xx_HAL_Driver/Src/stm32l0xx_hal_rtc.c **** 
ARM GAS  C:\Users\EBANO_~1\AppData\Local\Temp\cc8t01eQ.s 			page 21


1047:../../../../../../Drivers/STM32L0xx_HAL_Driver/Src/stm32l0xx_hal_rtc.c ****         /* Process Unlocked */
1048:../../../../../../Drivers/STM32L0xx_HAL_Driver/Src/stm32l0xx_hal_rtc.c ****         __HAL_UNLOCK(hrtc);
1049:../../../../../../Drivers/STM32L0xx_HAL_Driver/Src/stm32l0xx_hal_rtc.c **** 
1050:../../../../../../Drivers/STM32L0xx_HAL_Driver/Src/stm32l0xx_hal_rtc.c ****         return HAL_TIMEOUT;
1051:../../../../../../Drivers/STM32L0xx_HAL_Driver/Src/stm32l0xx_hal_rtc.c ****       }
1052:../../../../../../Drivers/STM32L0xx_HAL_Driver/Src/stm32l0xx_hal_rtc.c ****     }
1053:../../../../../../Drivers/STM32L0xx_HAL_Driver/Src/stm32l0xx_hal_rtc.c **** 
1054:../../../../../../Drivers/STM32L0xx_HAL_Driver/Src/stm32l0xx_hal_rtc.c ****     hrtc->Instance->ALRMAR = (uint32_t)tmpreg;
1055:../../../../../../Drivers/STM32L0xx_HAL_Driver/Src/stm32l0xx_hal_rtc.c ****     /* Configure the Alarm A Sub Second register */
1056:../../../../../../Drivers/STM32L0xx_HAL_Driver/Src/stm32l0xx_hal_rtc.c ****     hrtc->Instance->ALRMASSR = subsecondtmpreg;
1057:../../../../../../Drivers/STM32L0xx_HAL_Driver/Src/stm32l0xx_hal_rtc.c ****     /* Configure the Alarm state: Enable Alarm */
1058:../../../../../../Drivers/STM32L0xx_HAL_Driver/Src/stm32l0xx_hal_rtc.c ****     __HAL_RTC_ALARMA_ENABLE(hrtc);
1059:../../../../../../Drivers/STM32L0xx_HAL_Driver/Src/stm32l0xx_hal_rtc.c ****     /* Configure the Alarm interrupt */
1060:../../../../../../Drivers/STM32L0xx_HAL_Driver/Src/stm32l0xx_hal_rtc.c ****     __HAL_RTC_ALARM_ENABLE_IT(hrtc,RTC_IT_ALRA);
1061:../../../../../../Drivers/STM32L0xx_HAL_Driver/Src/stm32l0xx_hal_rtc.c ****   }
1062:../../../../../../Drivers/STM32L0xx_HAL_Driver/Src/stm32l0xx_hal_rtc.c ****   else
1063:../../../../../../Drivers/STM32L0xx_HAL_Driver/Src/stm32l0xx_hal_rtc.c ****   {
1064:../../../../../../Drivers/STM32L0xx_HAL_Driver/Src/stm32l0xx_hal_rtc.c ****     /* Disable the Alarm B interrupt */
1065:../../../../../../Drivers/STM32L0xx_HAL_Driver/Src/stm32l0xx_hal_rtc.c ****     __HAL_RTC_ALARMB_DISABLE(hrtc);
1066:../../../../../../Drivers/STM32L0xx_HAL_Driver/Src/stm32l0xx_hal_rtc.c ****     
1067:../../../../../../Drivers/STM32L0xx_HAL_Driver/Src/stm32l0xx_hal_rtc.c ****     /* Clear flag alarm B */
1068:../../../../../../Drivers/STM32L0xx_HAL_Driver/Src/stm32l0xx_hal_rtc.c ****     __HAL_RTC_ALARM_CLEAR_FLAG(hrtc, RTC_FLAG_ALRBF);
1069:../../../../../../Drivers/STM32L0xx_HAL_Driver/Src/stm32l0xx_hal_rtc.c **** 
1070:../../../../../../Drivers/STM32L0xx_HAL_Driver/Src/stm32l0xx_hal_rtc.c ****     tickstart = HAL_GetTick();
1071:../../../../../../Drivers/STM32L0xx_HAL_Driver/Src/stm32l0xx_hal_rtc.c ****     /* Wait till RTC ALRBWF flag is set and if Time out is reached exit */
1072:../../../../../../Drivers/STM32L0xx_HAL_Driver/Src/stm32l0xx_hal_rtc.c ****     while(__HAL_RTC_ALARM_GET_FLAG(hrtc, RTC_FLAG_ALRBWF) == RESET)
1073:../../../../../../Drivers/STM32L0xx_HAL_Driver/Src/stm32l0xx_hal_rtc.c ****     {
1074:../../../../../../Drivers/STM32L0xx_HAL_Driver/Src/stm32l0xx_hal_rtc.c ****       if((HAL_GetTick() - tickstart ) > RTC_TIMEOUT_VALUE)
1075:../../../../../../Drivers/STM32L0xx_HAL_Driver/Src/stm32l0xx_hal_rtc.c ****       {
1076:../../../../../../Drivers/STM32L0xx_HAL_Driver/Src/stm32l0xx_hal_rtc.c ****         /* Enable the write protection for RTC registers */
1077:../../../../../../Drivers/STM32L0xx_HAL_Driver/Src/stm32l0xx_hal_rtc.c ****         __HAL_RTC_WRITEPROTECTION_ENABLE(hrtc);
1078:../../../../../../Drivers/STM32L0xx_HAL_Driver/Src/stm32l0xx_hal_rtc.c **** 
1079:../../../../../../Drivers/STM32L0xx_HAL_Driver/Src/stm32l0xx_hal_rtc.c ****         hrtc->State = HAL_RTC_STATE_TIMEOUT;
1080:../../../../../../Drivers/STM32L0xx_HAL_Driver/Src/stm32l0xx_hal_rtc.c **** 
1081:../../../../../../Drivers/STM32L0xx_HAL_Driver/Src/stm32l0xx_hal_rtc.c ****         /* Process Unlocked */
1082:../../../../../../Drivers/STM32L0xx_HAL_Driver/Src/stm32l0xx_hal_rtc.c ****         __HAL_UNLOCK(hrtc);
1083:../../../../../../Drivers/STM32L0xx_HAL_Driver/Src/stm32l0xx_hal_rtc.c **** 
1084:../../../../../../Drivers/STM32L0xx_HAL_Driver/Src/stm32l0xx_hal_rtc.c ****         return HAL_TIMEOUT;
1085:../../../../../../Drivers/STM32L0xx_HAL_Driver/Src/stm32l0xx_hal_rtc.c ****       }
1086:../../../../../../Drivers/STM32L0xx_HAL_Driver/Src/stm32l0xx_hal_rtc.c ****     }
1087:../../../../../../Drivers/STM32L0xx_HAL_Driver/Src/stm32l0xx_hal_rtc.c **** 
1088:../../../../../../Drivers/STM32L0xx_HAL_Driver/Src/stm32l0xx_hal_rtc.c ****     hrtc->Instance->ALRMBR = (uint32_t)tmpreg;
1089:../../../../../../Drivers/STM32L0xx_HAL_Driver/Src/stm32l0xx_hal_rtc.c ****     /* Configure the Alarm B Sub Second register */
1090:../../../../../../Drivers/STM32L0xx_HAL_Driver/Src/stm32l0xx_hal_rtc.c ****     hrtc->Instance->ALRMBSSR = subsecondtmpreg;
1091:../../../../../../Drivers/STM32L0xx_HAL_Driver/Src/stm32l0xx_hal_rtc.c ****     /* Configure the Alarm state: Enable Alarm */
1092:../../../../../../Drivers/STM32L0xx_HAL_Driver/Src/stm32l0xx_hal_rtc.c ****     __HAL_RTC_ALARMB_ENABLE(hrtc);
1093:../../../../../../Drivers/STM32L0xx_HAL_Driver/Src/stm32l0xx_hal_rtc.c ****     /* Configure the Alarm interrupt */
1094:../../../../../../Drivers/STM32L0xx_HAL_Driver/Src/stm32l0xx_hal_rtc.c ****     __HAL_RTC_ALARM_ENABLE_IT(hrtc, RTC_IT_ALRB);
1095:../../../../../../Drivers/STM32L0xx_HAL_Driver/Src/stm32l0xx_hal_rtc.c ****   }
1096:../../../../../../Drivers/STM32L0xx_HAL_Driver/Src/stm32l0xx_hal_rtc.c **** 
1097:../../../../../../Drivers/STM32L0xx_HAL_Driver/Src/stm32l0xx_hal_rtc.c ****   /* RTC Alarm Interrupt Configuration: EXTI configuration */
1098:../../../../../../Drivers/STM32L0xx_HAL_Driver/Src/stm32l0xx_hal_rtc.c ****   __HAL_RTC_ALARM_EXTI_ENABLE_IT();
1099:../../../../../../Drivers/STM32L0xx_HAL_Driver/Src/stm32l0xx_hal_rtc.c **** 
1100:../../../../../../Drivers/STM32L0xx_HAL_Driver/Src/stm32l0xx_hal_rtc.c ****   __HAL_RTC_ALARM_EXTI_ENABLE_RISING_EDGE();
1101:../../../../../../Drivers/STM32L0xx_HAL_Driver/Src/stm32l0xx_hal_rtc.c **** 
1102:../../../../../../Drivers/STM32L0xx_HAL_Driver/Src/stm32l0xx_hal_rtc.c ****   /* Enable the write protection for RTC registers */
1103:../../../../../../Drivers/STM32L0xx_HAL_Driver/Src/stm32l0xx_hal_rtc.c ****   __HAL_RTC_WRITEPROTECTION_ENABLE(hrtc);
ARM GAS  C:\Users\EBANO_~1\AppData\Local\Temp\cc8t01eQ.s 			page 22


1104:../../../../../../Drivers/STM32L0xx_HAL_Driver/Src/stm32l0xx_hal_rtc.c **** 
1105:../../../../../../Drivers/STM32L0xx_HAL_Driver/Src/stm32l0xx_hal_rtc.c ****   hrtc->State = HAL_RTC_STATE_READY; 
1106:../../../../../../Drivers/STM32L0xx_HAL_Driver/Src/stm32l0xx_hal_rtc.c **** 
1107:../../../../../../Drivers/STM32L0xx_HAL_Driver/Src/stm32l0xx_hal_rtc.c ****   /* Process Unlocked */
1108:../../../../../../Drivers/STM32L0xx_HAL_Driver/Src/stm32l0xx_hal_rtc.c ****   __HAL_UNLOCK(hrtc);
1109:../../../../../../Drivers/STM32L0xx_HAL_Driver/Src/stm32l0xx_hal_rtc.c **** 
1110:../../../../../../Drivers/STM32L0xx_HAL_Driver/Src/stm32l0xx_hal_rtc.c ****   return HAL_OK;
1111:../../../../../../Drivers/STM32L0xx_HAL_Driver/Src/stm32l0xx_hal_rtc.c **** }
1112:../../../../../../Drivers/STM32L0xx_HAL_Driver/Src/stm32l0xx_hal_rtc.c **** 
1113:../../../../../../Drivers/STM32L0xx_HAL_Driver/Src/stm32l0xx_hal_rtc.c **** /**
1114:../../../../../../Drivers/STM32L0xx_HAL_Driver/Src/stm32l0xx_hal_rtc.c ****   * @brief  Deactivate the specified RTC Alarm.
1115:../../../../../../Drivers/STM32L0xx_HAL_Driver/Src/stm32l0xx_hal_rtc.c ****   * @param  hrtc RTC handle
1116:../../../../../../Drivers/STM32L0xx_HAL_Driver/Src/stm32l0xx_hal_rtc.c ****   * @param  Alarm Specifies the Alarm.
1117:../../../../../../Drivers/STM32L0xx_HAL_Driver/Src/stm32l0xx_hal_rtc.c ****   *          This parameter can be one of the following values:
1118:../../../../../../Drivers/STM32L0xx_HAL_Driver/Src/stm32l0xx_hal_rtc.c ****   *            @arg RTC_ALARM_A:  AlarmA
1119:../../../../../../Drivers/STM32L0xx_HAL_Driver/Src/stm32l0xx_hal_rtc.c ****   *            @arg RTC_ALARM_B:  AlarmB
1120:../../../../../../Drivers/STM32L0xx_HAL_Driver/Src/stm32l0xx_hal_rtc.c ****   * @retval HAL status
1121:../../../../../../Drivers/STM32L0xx_HAL_Driver/Src/stm32l0xx_hal_rtc.c ****   */
1122:../../../../../../Drivers/STM32L0xx_HAL_Driver/Src/stm32l0xx_hal_rtc.c **** HAL_StatusTypeDef HAL_RTC_DeactivateAlarm(RTC_HandleTypeDef *hrtc, uint32_t Alarm)
1123:../../../../../../Drivers/STM32L0xx_HAL_Driver/Src/stm32l0xx_hal_rtc.c **** {
1124:../../../../../../Drivers/STM32L0xx_HAL_Driver/Src/stm32l0xx_hal_rtc.c ****   uint32_t tickstart = 0U;
1125:../../../../../../Drivers/STM32L0xx_HAL_Driver/Src/stm32l0xx_hal_rtc.c **** 
1126:../../../../../../Drivers/STM32L0xx_HAL_Driver/Src/stm32l0xx_hal_rtc.c ****   /* Check the parameters */
1127:../../../../../../Drivers/STM32L0xx_HAL_Driver/Src/stm32l0xx_hal_rtc.c ****   assert_param(IS_RTC_ALARM(Alarm));
1128:../../../../../../Drivers/STM32L0xx_HAL_Driver/Src/stm32l0xx_hal_rtc.c **** 
1129:../../../../../../Drivers/STM32L0xx_HAL_Driver/Src/stm32l0xx_hal_rtc.c ****   /* Process Locked */
1130:../../../../../../Drivers/STM32L0xx_HAL_Driver/Src/stm32l0xx_hal_rtc.c ****   __HAL_LOCK(hrtc);
1131:../../../../../../Drivers/STM32L0xx_HAL_Driver/Src/stm32l0xx_hal_rtc.c **** 
1132:../../../../../../Drivers/STM32L0xx_HAL_Driver/Src/stm32l0xx_hal_rtc.c ****   hrtc->State = HAL_RTC_STATE_BUSY;
1133:../../../../../../Drivers/STM32L0xx_HAL_Driver/Src/stm32l0xx_hal_rtc.c **** 
1134:../../../../../../Drivers/STM32L0xx_HAL_Driver/Src/stm32l0xx_hal_rtc.c ****   /* Disable the write protection for RTC registers */
1135:../../../../../../Drivers/STM32L0xx_HAL_Driver/Src/stm32l0xx_hal_rtc.c ****   __HAL_RTC_WRITEPROTECTION_DISABLE(hrtc);
1136:../../../../../../Drivers/STM32L0xx_HAL_Driver/Src/stm32l0xx_hal_rtc.c **** 
1137:../../../../../../Drivers/STM32L0xx_HAL_Driver/Src/stm32l0xx_hal_rtc.c ****   if(Alarm == RTC_ALARM_A)
1138:../../../../../../Drivers/STM32L0xx_HAL_Driver/Src/stm32l0xx_hal_rtc.c ****   {
1139:../../../../../../Drivers/STM32L0xx_HAL_Driver/Src/stm32l0xx_hal_rtc.c ****     /* AlarmA */
1140:../../../../../../Drivers/STM32L0xx_HAL_Driver/Src/stm32l0xx_hal_rtc.c ****     __HAL_RTC_ALARMA_DISABLE(hrtc);
1141:../../../../../../Drivers/STM32L0xx_HAL_Driver/Src/stm32l0xx_hal_rtc.c **** 
1142:../../../../../../Drivers/STM32L0xx_HAL_Driver/Src/stm32l0xx_hal_rtc.c ****     /* In case of interrupt mode is used, the interrupt source must disabled */
1143:../../../../../../Drivers/STM32L0xx_HAL_Driver/Src/stm32l0xx_hal_rtc.c ****     __HAL_RTC_ALARM_DISABLE_IT(hrtc, RTC_IT_ALRA);
1144:../../../../../../Drivers/STM32L0xx_HAL_Driver/Src/stm32l0xx_hal_rtc.c **** 
1145:../../../../../../Drivers/STM32L0xx_HAL_Driver/Src/stm32l0xx_hal_rtc.c ****     tickstart = HAL_GetTick();
1146:../../../../../../Drivers/STM32L0xx_HAL_Driver/Src/stm32l0xx_hal_rtc.c **** 
1147:../../../../../../Drivers/STM32L0xx_HAL_Driver/Src/stm32l0xx_hal_rtc.c ****     /* Wait till RTC ALRxWF flag is set and if Time out is reached exit */
1148:../../../../../../Drivers/STM32L0xx_HAL_Driver/Src/stm32l0xx_hal_rtc.c ****     while(__HAL_RTC_ALARM_GET_FLAG(hrtc, RTC_FLAG_ALRAWF) == RESET)
1149:../../../../../../Drivers/STM32L0xx_HAL_Driver/Src/stm32l0xx_hal_rtc.c ****     {
1150:../../../../../../Drivers/STM32L0xx_HAL_Driver/Src/stm32l0xx_hal_rtc.c ****       if( (HAL_GetTick()  - tickstart ) > RTC_TIMEOUT_VALUE)
1151:../../../../../../Drivers/STM32L0xx_HAL_Driver/Src/stm32l0xx_hal_rtc.c ****       {
1152:../../../../../../Drivers/STM32L0xx_HAL_Driver/Src/stm32l0xx_hal_rtc.c ****         /* Enable the write protection for RTC registers */
1153:../../../../../../Drivers/STM32L0xx_HAL_Driver/Src/stm32l0xx_hal_rtc.c ****         __HAL_RTC_WRITEPROTECTION_ENABLE(hrtc);
1154:../../../../../../Drivers/STM32L0xx_HAL_Driver/Src/stm32l0xx_hal_rtc.c **** 
1155:../../../../../../Drivers/STM32L0xx_HAL_Driver/Src/stm32l0xx_hal_rtc.c ****         hrtc->State = HAL_RTC_STATE_TIMEOUT;
1156:../../../../../../Drivers/STM32L0xx_HAL_Driver/Src/stm32l0xx_hal_rtc.c **** 
1157:../../../../../../Drivers/STM32L0xx_HAL_Driver/Src/stm32l0xx_hal_rtc.c ****         /* Process Unlocked */
1158:../../../../../../Drivers/STM32L0xx_HAL_Driver/Src/stm32l0xx_hal_rtc.c ****         __HAL_UNLOCK(hrtc);
1159:../../../../../../Drivers/STM32L0xx_HAL_Driver/Src/stm32l0xx_hal_rtc.c **** 
1160:../../../../../../Drivers/STM32L0xx_HAL_Driver/Src/stm32l0xx_hal_rtc.c ****         return HAL_TIMEOUT;
ARM GAS  C:\Users\EBANO_~1\AppData\Local\Temp\cc8t01eQ.s 			page 23


1161:../../../../../../Drivers/STM32L0xx_HAL_Driver/Src/stm32l0xx_hal_rtc.c ****       }
1162:../../../../../../Drivers/STM32L0xx_HAL_Driver/Src/stm32l0xx_hal_rtc.c ****     }
1163:../../../../../../Drivers/STM32L0xx_HAL_Driver/Src/stm32l0xx_hal_rtc.c ****   }
1164:../../../../../../Drivers/STM32L0xx_HAL_Driver/Src/stm32l0xx_hal_rtc.c ****   else
1165:../../../../../../Drivers/STM32L0xx_HAL_Driver/Src/stm32l0xx_hal_rtc.c ****   {
1166:../../../../../../Drivers/STM32L0xx_HAL_Driver/Src/stm32l0xx_hal_rtc.c ****     /* AlarmB */
1167:../../../../../../Drivers/STM32L0xx_HAL_Driver/Src/stm32l0xx_hal_rtc.c ****     __HAL_RTC_ALARMB_DISABLE(hrtc);
1168:../../../../../../Drivers/STM32L0xx_HAL_Driver/Src/stm32l0xx_hal_rtc.c **** 
1169:../../../../../../Drivers/STM32L0xx_HAL_Driver/Src/stm32l0xx_hal_rtc.c ****     /* In case of interrupt mode is used, the interrupt source must disabled */
1170:../../../../../../Drivers/STM32L0xx_HAL_Driver/Src/stm32l0xx_hal_rtc.c ****     __HAL_RTC_ALARM_DISABLE_IT(hrtc,RTC_IT_ALRB);
1171:../../../../../../Drivers/STM32L0xx_HAL_Driver/Src/stm32l0xx_hal_rtc.c **** 
1172:../../../../../../Drivers/STM32L0xx_HAL_Driver/Src/stm32l0xx_hal_rtc.c ****     tickstart = HAL_GetTick();
1173:../../../../../../Drivers/STM32L0xx_HAL_Driver/Src/stm32l0xx_hal_rtc.c **** 
1174:../../../../../../Drivers/STM32L0xx_HAL_Driver/Src/stm32l0xx_hal_rtc.c ****     /* Wait till RTC ALRxWF flag is set and if Time out is reached exit */
1175:../../../../../../Drivers/STM32L0xx_HAL_Driver/Src/stm32l0xx_hal_rtc.c ****     while(__HAL_RTC_ALARM_GET_FLAG(hrtc, RTC_FLAG_ALRBWF) == RESET)
1176:../../../../../../Drivers/STM32L0xx_HAL_Driver/Src/stm32l0xx_hal_rtc.c ****     {
1177:../../../../../../Drivers/STM32L0xx_HAL_Driver/Src/stm32l0xx_hal_rtc.c ****       if((HAL_GetTick() - tickstart ) > RTC_TIMEOUT_VALUE)
1178:../../../../../../Drivers/STM32L0xx_HAL_Driver/Src/stm32l0xx_hal_rtc.c ****       {
1179:../../../../../../Drivers/STM32L0xx_HAL_Driver/Src/stm32l0xx_hal_rtc.c ****         /* Enable the write protection for RTC registers */
1180:../../../../../../Drivers/STM32L0xx_HAL_Driver/Src/stm32l0xx_hal_rtc.c ****         __HAL_RTC_WRITEPROTECTION_ENABLE(hrtc);
1181:../../../../../../Drivers/STM32L0xx_HAL_Driver/Src/stm32l0xx_hal_rtc.c **** 
1182:../../../../../../Drivers/STM32L0xx_HAL_Driver/Src/stm32l0xx_hal_rtc.c ****         hrtc->State = HAL_RTC_STATE_TIMEOUT;
1183:../../../../../../Drivers/STM32L0xx_HAL_Driver/Src/stm32l0xx_hal_rtc.c **** 
1184:../../../../../../Drivers/STM32L0xx_HAL_Driver/Src/stm32l0xx_hal_rtc.c ****         /* Process Unlocked */
1185:../../../../../../Drivers/STM32L0xx_HAL_Driver/Src/stm32l0xx_hal_rtc.c ****         __HAL_UNLOCK(hrtc);
1186:../../../../../../Drivers/STM32L0xx_HAL_Driver/Src/stm32l0xx_hal_rtc.c **** 
1187:../../../../../../Drivers/STM32L0xx_HAL_Driver/Src/stm32l0xx_hal_rtc.c ****         return HAL_TIMEOUT;
1188:../../../../../../Drivers/STM32L0xx_HAL_Driver/Src/stm32l0xx_hal_rtc.c ****       }
1189:../../../../../../Drivers/STM32L0xx_HAL_Driver/Src/stm32l0xx_hal_rtc.c ****     }
1190:../../../../../../Drivers/STM32L0xx_HAL_Driver/Src/stm32l0xx_hal_rtc.c ****   }
1191:../../../../../../Drivers/STM32L0xx_HAL_Driver/Src/stm32l0xx_hal_rtc.c ****   /* Enable the write protection for RTC registers */
1192:../../../../../../Drivers/STM32L0xx_HAL_Driver/Src/stm32l0xx_hal_rtc.c ****   __HAL_RTC_WRITEPROTECTION_ENABLE(hrtc);
1193:../../../../../../Drivers/STM32L0xx_HAL_Driver/Src/stm32l0xx_hal_rtc.c **** 
1194:../../../../../../Drivers/STM32L0xx_HAL_Driver/Src/stm32l0xx_hal_rtc.c ****   hrtc->State = HAL_RTC_STATE_READY;
1195:../../../../../../Drivers/STM32L0xx_HAL_Driver/Src/stm32l0xx_hal_rtc.c **** 
1196:../../../../../../Drivers/STM32L0xx_HAL_Driver/Src/stm32l0xx_hal_rtc.c ****   /* Process Unlocked */
1197:../../../../../../Drivers/STM32L0xx_HAL_Driver/Src/stm32l0xx_hal_rtc.c ****   __HAL_UNLOCK(hrtc);
1198:../../../../../../Drivers/STM32L0xx_HAL_Driver/Src/stm32l0xx_hal_rtc.c **** 
1199:../../../../../../Drivers/STM32L0xx_HAL_Driver/Src/stm32l0xx_hal_rtc.c ****   return HAL_OK; 
1200:../../../../../../Drivers/STM32L0xx_HAL_Driver/Src/stm32l0xx_hal_rtc.c **** }
1201:../../../../../../Drivers/STM32L0xx_HAL_Driver/Src/stm32l0xx_hal_rtc.c **** 
1202:../../../../../../Drivers/STM32L0xx_HAL_Driver/Src/stm32l0xx_hal_rtc.c **** /**
1203:../../../../../../Drivers/STM32L0xx_HAL_Driver/Src/stm32l0xx_hal_rtc.c ****   * @brief  Get the RTC Alarm value and masks.
1204:../../../../../../Drivers/STM32L0xx_HAL_Driver/Src/stm32l0xx_hal_rtc.c ****   * @param  hrtc RTC handle
1205:../../../../../../Drivers/STM32L0xx_HAL_Driver/Src/stm32l0xx_hal_rtc.c ****   * @param  sAlarm Pointer to Date structure
1206:../../../../../../Drivers/STM32L0xx_HAL_Driver/Src/stm32l0xx_hal_rtc.c ****   * @param  Alarm Specifies the Alarm.
1207:../../../../../../Drivers/STM32L0xx_HAL_Driver/Src/stm32l0xx_hal_rtc.c ****   *          This parameter can be one of the following values:
1208:../../../../../../Drivers/STM32L0xx_HAL_Driver/Src/stm32l0xx_hal_rtc.c ****   *             @arg RTC_ALARM_A: AlarmA
1209:../../../../../../Drivers/STM32L0xx_HAL_Driver/Src/stm32l0xx_hal_rtc.c ****   *             @arg RTC_ALARM_B: AlarmB  
1210:../../../../../../Drivers/STM32L0xx_HAL_Driver/Src/stm32l0xx_hal_rtc.c ****   * @param  Format Specifies the format of the entered parameters.
1211:../../../../../../Drivers/STM32L0xx_HAL_Driver/Src/stm32l0xx_hal_rtc.c ****   *          This parameter can be one of the following values:
1212:../../../../../../Drivers/STM32L0xx_HAL_Driver/Src/stm32l0xx_hal_rtc.c ****   *             @arg RTC_FORMAT_BIN: Binary data format 
1213:../../../../../../Drivers/STM32L0xx_HAL_Driver/Src/stm32l0xx_hal_rtc.c ****   *             @arg RTC_FORMAT_BCD: BCD data format
1214:../../../../../../Drivers/STM32L0xx_HAL_Driver/Src/stm32l0xx_hal_rtc.c ****   * @retval HAL status
1215:../../../../../../Drivers/STM32L0xx_HAL_Driver/Src/stm32l0xx_hal_rtc.c ****   */
1216:../../../../../../Drivers/STM32L0xx_HAL_Driver/Src/stm32l0xx_hal_rtc.c **** HAL_StatusTypeDef HAL_RTC_GetAlarm(RTC_HandleTypeDef *hrtc, RTC_AlarmTypeDef *sAlarm, uint32_t Alar
1217:../../../../../../Drivers/STM32L0xx_HAL_Driver/Src/stm32l0xx_hal_rtc.c **** {
ARM GAS  C:\Users\EBANO_~1\AppData\Local\Temp\cc8t01eQ.s 			page 24


1218:../../../../../../Drivers/STM32L0xx_HAL_Driver/Src/stm32l0xx_hal_rtc.c ****   uint32_t tmpreg = 0U, subsecondtmpreg = 0U;
1219:../../../../../../Drivers/STM32L0xx_HAL_Driver/Src/stm32l0xx_hal_rtc.c **** 
1220:../../../../../../Drivers/STM32L0xx_HAL_Driver/Src/stm32l0xx_hal_rtc.c ****   /* Check the parameters */
1221:../../../../../../Drivers/STM32L0xx_HAL_Driver/Src/stm32l0xx_hal_rtc.c ****   assert_param(IS_RTC_FORMAT(Format));
1222:../../../../../../Drivers/STM32L0xx_HAL_Driver/Src/stm32l0xx_hal_rtc.c ****   assert_param(IS_RTC_ALARM(Alarm));
1223:../../../../../../Drivers/STM32L0xx_HAL_Driver/Src/stm32l0xx_hal_rtc.c **** 
1224:../../../../../../Drivers/STM32L0xx_HAL_Driver/Src/stm32l0xx_hal_rtc.c ****   if(Alarm == RTC_ALARM_A)
1225:../../../../../../Drivers/STM32L0xx_HAL_Driver/Src/stm32l0xx_hal_rtc.c ****   {
1226:../../../../../../Drivers/STM32L0xx_HAL_Driver/Src/stm32l0xx_hal_rtc.c ****     /* AlarmA */
1227:../../../../../../Drivers/STM32L0xx_HAL_Driver/Src/stm32l0xx_hal_rtc.c ****     sAlarm->Alarm = RTC_ALARM_A;
1228:../../../../../../Drivers/STM32L0xx_HAL_Driver/Src/stm32l0xx_hal_rtc.c **** 
1229:../../../../../../Drivers/STM32L0xx_HAL_Driver/Src/stm32l0xx_hal_rtc.c ****     tmpreg = (uint32_t)(hrtc->Instance->ALRMAR);
1230:../../../../../../Drivers/STM32L0xx_HAL_Driver/Src/stm32l0xx_hal_rtc.c ****     subsecondtmpreg = (uint32_t)((hrtc->Instance->ALRMASSR ) & RTC_ALRMASSR_SS);
1231:../../../../../../Drivers/STM32L0xx_HAL_Driver/Src/stm32l0xx_hal_rtc.c **** 
1232:../../../../../../Drivers/STM32L0xx_HAL_Driver/Src/stm32l0xx_hal_rtc.c **** /* Fill the structure with the read parameters */
1233:../../../../../../Drivers/STM32L0xx_HAL_Driver/Src/stm32l0xx_hal_rtc.c ****   sAlarm->AlarmTime.Hours = (uint32_t)((tmpreg & (RTC_ALRMAR_HT | RTC_ALRMAR_HU)) >> 16U);
1234:../../../../../../Drivers/STM32L0xx_HAL_Driver/Src/stm32l0xx_hal_rtc.c ****   sAlarm->AlarmTime.Minutes = (uint32_t)((tmpreg & (RTC_ALRMAR_MNT | RTC_ALRMAR_MNU)) >> 8U);
1235:../../../../../../Drivers/STM32L0xx_HAL_Driver/Src/stm32l0xx_hal_rtc.c ****   sAlarm->AlarmTime.Seconds = (uint32_t)(tmpreg & (RTC_ALRMAR_ST | RTC_ALRMAR_SU));
1236:../../../../../../Drivers/STM32L0xx_HAL_Driver/Src/stm32l0xx_hal_rtc.c ****   sAlarm->AlarmTime.TimeFormat = (uint32_t)((tmpreg & RTC_ALRMAR_PM) >> 16U);
1237:../../../../../../Drivers/STM32L0xx_HAL_Driver/Src/stm32l0xx_hal_rtc.c ****   sAlarm->AlarmTime.SubSeconds = (uint32_t) subsecondtmpreg;
1238:../../../../../../Drivers/STM32L0xx_HAL_Driver/Src/stm32l0xx_hal_rtc.c ****   sAlarm->AlarmDateWeekDay = (uint32_t)((tmpreg & (RTC_ALRMAR_DT | RTC_ALRMAR_DU)) >> 24U);
1239:../../../../../../Drivers/STM32L0xx_HAL_Driver/Src/stm32l0xx_hal_rtc.c ****   sAlarm->AlarmDateWeekDaySel = (uint32_t)(tmpreg & RTC_ALRMAR_WDSEL);
1240:../../../../../../Drivers/STM32L0xx_HAL_Driver/Src/stm32l0xx_hal_rtc.c ****   sAlarm->AlarmMask = (uint32_t)(tmpreg & RTC_ALARMMASK_ALL);
1241:../../../../../../Drivers/STM32L0xx_HAL_Driver/Src/stm32l0xx_hal_rtc.c ****   }
1242:../../../../../../Drivers/STM32L0xx_HAL_Driver/Src/stm32l0xx_hal_rtc.c ****   else
1243:../../../../../../Drivers/STM32L0xx_HAL_Driver/Src/stm32l0xx_hal_rtc.c ****   {
1244:../../../../../../Drivers/STM32L0xx_HAL_Driver/Src/stm32l0xx_hal_rtc.c ****     sAlarm->Alarm = RTC_ALARM_B;
1245:../../../../../../Drivers/STM32L0xx_HAL_Driver/Src/stm32l0xx_hal_rtc.c **** 
1246:../../../../../../Drivers/STM32L0xx_HAL_Driver/Src/stm32l0xx_hal_rtc.c ****     tmpreg = (uint32_t)(hrtc->Instance->ALRMBR);
1247:../../../../../../Drivers/STM32L0xx_HAL_Driver/Src/stm32l0xx_hal_rtc.c ****     subsecondtmpreg = (uint32_t)((hrtc->Instance->ALRMBSSR) & RTC_ALRMBSSR_SS);
1248:../../../../../../Drivers/STM32L0xx_HAL_Driver/Src/stm32l0xx_hal_rtc.c ****  
1249:../../../../../../Drivers/STM32L0xx_HAL_Driver/Src/stm32l0xx_hal_rtc.c ****   /* Fill the structure with the read parameters */
1250:../../../../../../Drivers/STM32L0xx_HAL_Driver/Src/stm32l0xx_hal_rtc.c ****   sAlarm->AlarmTime.Hours = (uint32_t)((tmpreg & (RTC_ALRMBR_HT | RTC_ALRMBR_HU)) >> 16U);
1251:../../../../../../Drivers/STM32L0xx_HAL_Driver/Src/stm32l0xx_hal_rtc.c ****   sAlarm->AlarmTime.Minutes = (uint32_t)((tmpreg & (RTC_ALRMBR_MNT | RTC_ALRMBR_MNU)) >> 8U);
1252:../../../../../../Drivers/STM32L0xx_HAL_Driver/Src/stm32l0xx_hal_rtc.c ****   sAlarm->AlarmTime.Seconds = (uint32_t)(tmpreg & (RTC_ALRMBR_ST | RTC_ALRMBR_SU));
1253:../../../../../../Drivers/STM32L0xx_HAL_Driver/Src/stm32l0xx_hal_rtc.c ****   sAlarm->AlarmTime.TimeFormat = (uint32_t)((tmpreg & RTC_ALRMBR_PM) >> 16U);
1254:../../../../../../Drivers/STM32L0xx_HAL_Driver/Src/stm32l0xx_hal_rtc.c ****   sAlarm->AlarmTime.SubSeconds = (uint32_t) subsecondtmpreg;
1255:../../../../../../Drivers/STM32L0xx_HAL_Driver/Src/stm32l0xx_hal_rtc.c ****   sAlarm->AlarmDateWeekDay = (uint32_t)((tmpreg & (RTC_ALRMBR_DT | RTC_ALRMBR_DU)) >> 24U);
1256:../../../../../../Drivers/STM32L0xx_HAL_Driver/Src/stm32l0xx_hal_rtc.c ****   sAlarm->AlarmDateWeekDaySel = (uint32_t)(tmpreg & RTC_ALRMBR_WDSEL);
1257:../../../../../../Drivers/STM32L0xx_HAL_Driver/Src/stm32l0xx_hal_rtc.c ****   sAlarm->AlarmMask = (uint32_t)(tmpreg & RTC_ALARMMASK_ALL);
1258:../../../../../../Drivers/STM32L0xx_HAL_Driver/Src/stm32l0xx_hal_rtc.c ****  }
1259:../../../../../../Drivers/STM32L0xx_HAL_Driver/Src/stm32l0xx_hal_rtc.c ****  
1260:../../../../../../Drivers/STM32L0xx_HAL_Driver/Src/stm32l0xx_hal_rtc.c ****   if(Format == RTC_FORMAT_BIN)
1261:../../../../../../Drivers/STM32L0xx_HAL_Driver/Src/stm32l0xx_hal_rtc.c ****   {
1262:../../../../../../Drivers/STM32L0xx_HAL_Driver/Src/stm32l0xx_hal_rtc.c ****     sAlarm->AlarmTime.Hours = RTC_Bcd2ToByte(sAlarm->AlarmTime.Hours);
1263:../../../../../../Drivers/STM32L0xx_HAL_Driver/Src/stm32l0xx_hal_rtc.c ****     sAlarm->AlarmTime.Minutes = RTC_Bcd2ToByte(sAlarm->AlarmTime.Minutes);
1264:../../../../../../Drivers/STM32L0xx_HAL_Driver/Src/stm32l0xx_hal_rtc.c ****     sAlarm->AlarmTime.Seconds = RTC_Bcd2ToByte(sAlarm->AlarmTime.Seconds);
1265:../../../../../../Drivers/STM32L0xx_HAL_Driver/Src/stm32l0xx_hal_rtc.c ****     sAlarm->AlarmDateWeekDay = RTC_Bcd2ToByte(sAlarm->AlarmDateWeekDay);
1266:../../../../../../Drivers/STM32L0xx_HAL_Driver/Src/stm32l0xx_hal_rtc.c ****   }
1267:../../../../../../Drivers/STM32L0xx_HAL_Driver/Src/stm32l0xx_hal_rtc.c **** 
1268:../../../../../../Drivers/STM32L0xx_HAL_Driver/Src/stm32l0xx_hal_rtc.c ****   return HAL_OK;
1269:../../../../../../Drivers/STM32L0xx_HAL_Driver/Src/stm32l0xx_hal_rtc.c **** }
1270:../../../../../../Drivers/STM32L0xx_HAL_Driver/Src/stm32l0xx_hal_rtc.c **** 
1271:../../../../../../Drivers/STM32L0xx_HAL_Driver/Src/stm32l0xx_hal_rtc.c **** /**
1272:../../../../../../Drivers/STM32L0xx_HAL_Driver/Src/stm32l0xx_hal_rtc.c ****   * @brief  Handle Alarm interrupt request.
1273:../../../../../../Drivers/STM32L0xx_HAL_Driver/Src/stm32l0xx_hal_rtc.c ****   * @param  hrtc RTC handle
1274:../../../../../../Drivers/STM32L0xx_HAL_Driver/Src/stm32l0xx_hal_rtc.c ****   * @retval None
ARM GAS  C:\Users\EBANO_~1\AppData\Local\Temp\cc8t01eQ.s 			page 25


1275:../../../../../../Drivers/STM32L0xx_HAL_Driver/Src/stm32l0xx_hal_rtc.c ****   */
1276:../../../../../../Drivers/STM32L0xx_HAL_Driver/Src/stm32l0xx_hal_rtc.c **** void HAL_RTC_AlarmIRQHandler(RTC_HandleTypeDef* hrtc)
1277:../../../../../../Drivers/STM32L0xx_HAL_Driver/Src/stm32l0xx_hal_rtc.c **** {
1278:../../../../../../Drivers/STM32L0xx_HAL_Driver/Src/stm32l0xx_hal_rtc.c ****   /* Get the AlarmA interrupt source enable status */
1279:../../../../../../Drivers/STM32L0xx_HAL_Driver/Src/stm32l0xx_hal_rtc.c ****   if(__HAL_RTC_ALARM_GET_IT_SOURCE(hrtc, RTC_IT_ALRA) != RESET)
1280:../../../../../../Drivers/STM32L0xx_HAL_Driver/Src/stm32l0xx_hal_rtc.c ****   {
1281:../../../../../../Drivers/STM32L0xx_HAL_Driver/Src/stm32l0xx_hal_rtc.c ****     /* Get the pending status of the AlarmA Interrupt */
1282:../../../../../../Drivers/STM32L0xx_HAL_Driver/Src/stm32l0xx_hal_rtc.c ****     if(__HAL_RTC_ALARM_GET_FLAG(hrtc, RTC_FLAG_ALRAF) != RESET)
1283:../../../../../../Drivers/STM32L0xx_HAL_Driver/Src/stm32l0xx_hal_rtc.c ****     {
1284:../../../../../../Drivers/STM32L0xx_HAL_Driver/Src/stm32l0xx_hal_rtc.c ****       /* AlarmA callback */
1285:../../../../../../Drivers/STM32L0xx_HAL_Driver/Src/stm32l0xx_hal_rtc.c ****       HAL_RTC_AlarmAEventCallback(hrtc);
1286:../../../../../../Drivers/STM32L0xx_HAL_Driver/Src/stm32l0xx_hal_rtc.c **** 
1287:../../../../../../Drivers/STM32L0xx_HAL_Driver/Src/stm32l0xx_hal_rtc.c ****       /* Clear the AlarmA interrupt pending bit */
1288:../../../../../../Drivers/STM32L0xx_HAL_Driver/Src/stm32l0xx_hal_rtc.c ****       __HAL_RTC_ALARM_CLEAR_FLAG(hrtc, RTC_FLAG_ALRAF);
1289:../../../../../../Drivers/STM32L0xx_HAL_Driver/Src/stm32l0xx_hal_rtc.c ****     }
1290:../../../../../../Drivers/STM32L0xx_HAL_Driver/Src/stm32l0xx_hal_rtc.c ****   }
1291:../../../../../../Drivers/STM32L0xx_HAL_Driver/Src/stm32l0xx_hal_rtc.c **** 
1292:../../../../../../Drivers/STM32L0xx_HAL_Driver/Src/stm32l0xx_hal_rtc.c ****   /* Get the AlarmB interrupt source enable status */
1293:../../../../../../Drivers/STM32L0xx_HAL_Driver/Src/stm32l0xx_hal_rtc.c ****   if(__HAL_RTC_ALARM_GET_IT_SOURCE(hrtc, RTC_IT_ALRB) != RESET)
1294:../../../../../../Drivers/STM32L0xx_HAL_Driver/Src/stm32l0xx_hal_rtc.c ****   {
1295:../../../../../../Drivers/STM32L0xx_HAL_Driver/Src/stm32l0xx_hal_rtc.c ****     /* Get the pending status of the AlarmB Interrupt */
1296:../../../../../../Drivers/STM32L0xx_HAL_Driver/Src/stm32l0xx_hal_rtc.c ****     if(__HAL_RTC_ALARM_GET_FLAG(hrtc, RTC_FLAG_ALRBF) != RESET)
1297:../../../../../../Drivers/STM32L0xx_HAL_Driver/Src/stm32l0xx_hal_rtc.c ****     {
1298:../../../../../../Drivers/STM32L0xx_HAL_Driver/Src/stm32l0xx_hal_rtc.c ****       /* AlarmB callback */
1299:../../../../../../Drivers/STM32L0xx_HAL_Driver/Src/stm32l0xx_hal_rtc.c ****       HAL_RTCEx_AlarmBEventCallback(hrtc);
1300:../../../../../../Drivers/STM32L0xx_HAL_Driver/Src/stm32l0xx_hal_rtc.c **** 
1301:../../../../../../Drivers/STM32L0xx_HAL_Driver/Src/stm32l0xx_hal_rtc.c ****       /* Clear the AlarmB interrupt pending bit */
1302:../../../../../../Drivers/STM32L0xx_HAL_Driver/Src/stm32l0xx_hal_rtc.c ****       __HAL_RTC_ALARM_CLEAR_FLAG(hrtc, RTC_FLAG_ALRBF);
1303:../../../../../../Drivers/STM32L0xx_HAL_Driver/Src/stm32l0xx_hal_rtc.c ****     }
1304:../../../../../../Drivers/STM32L0xx_HAL_Driver/Src/stm32l0xx_hal_rtc.c ****   }
1305:../../../../../../Drivers/STM32L0xx_HAL_Driver/Src/stm32l0xx_hal_rtc.c **** 
1306:../../../../../../Drivers/STM32L0xx_HAL_Driver/Src/stm32l0xx_hal_rtc.c ****   /* Clear the EXTI's line Flag for RTC Alarm */
1307:../../../../../../Drivers/STM32L0xx_HAL_Driver/Src/stm32l0xx_hal_rtc.c ****   __HAL_RTC_ALARM_EXTI_CLEAR_FLAG();
1308:../../../../../../Drivers/STM32L0xx_HAL_Driver/Src/stm32l0xx_hal_rtc.c **** 
1309:../../../../../../Drivers/STM32L0xx_HAL_Driver/Src/stm32l0xx_hal_rtc.c ****   /* Change RTC state */
1310:../../../../../../Drivers/STM32L0xx_HAL_Driver/Src/stm32l0xx_hal_rtc.c ****   hrtc->State = HAL_RTC_STATE_READY;
1311:../../../../../../Drivers/STM32L0xx_HAL_Driver/Src/stm32l0xx_hal_rtc.c **** }
1312:../../../../../../Drivers/STM32L0xx_HAL_Driver/Src/stm32l0xx_hal_rtc.c **** 
1313:../../../../../../Drivers/STM32L0xx_HAL_Driver/Src/stm32l0xx_hal_rtc.c **** /**
1314:../../../../../../Drivers/STM32L0xx_HAL_Driver/Src/stm32l0xx_hal_rtc.c ****   * @brief  Alarm A callback.
1315:../../../../../../Drivers/STM32L0xx_HAL_Driver/Src/stm32l0xx_hal_rtc.c ****   * @param  hrtc RTC handle
1316:../../../../../../Drivers/STM32L0xx_HAL_Driver/Src/stm32l0xx_hal_rtc.c ****   * @retval None
1317:../../../../../../Drivers/STM32L0xx_HAL_Driver/Src/stm32l0xx_hal_rtc.c ****   */
1318:../../../../../../Drivers/STM32L0xx_HAL_Driver/Src/stm32l0xx_hal_rtc.c **** __weak void HAL_RTC_AlarmAEventCallback(RTC_HandleTypeDef *hrtc)
1319:../../../../../../Drivers/STM32L0xx_HAL_Driver/Src/stm32l0xx_hal_rtc.c **** {
1320:../../../../../../Drivers/STM32L0xx_HAL_Driver/Src/stm32l0xx_hal_rtc.c ****   /* Prevent unused argument(s) compilation warning */
1321:../../../../../../Drivers/STM32L0xx_HAL_Driver/Src/stm32l0xx_hal_rtc.c ****   UNUSED(hrtc);
1322:../../../../../../Drivers/STM32L0xx_HAL_Driver/Src/stm32l0xx_hal_rtc.c **** 
1323:../../../../../../Drivers/STM32L0xx_HAL_Driver/Src/stm32l0xx_hal_rtc.c ****   /* NOTE : This function should not be modified, when the callback is needed,
1324:../../../../../../Drivers/STM32L0xx_HAL_Driver/Src/stm32l0xx_hal_rtc.c ****             the HAL_RTC_AlarmAEventCallback could be implemented in the user file
1325:../../../../../../Drivers/STM32L0xx_HAL_Driver/Src/stm32l0xx_hal_rtc.c ****    */
1326:../../../../../../Drivers/STM32L0xx_HAL_Driver/Src/stm32l0xx_hal_rtc.c **** }
1327:../../../../../../Drivers/STM32L0xx_HAL_Driver/Src/stm32l0xx_hal_rtc.c **** 
1328:../../../../../../Drivers/STM32L0xx_HAL_Driver/Src/stm32l0xx_hal_rtc.c **** /**
1329:../../../../../../Drivers/STM32L0xx_HAL_Driver/Src/stm32l0xx_hal_rtc.c ****   * @brief  Handle AlarmA Polling request.
1330:../../../../../../Drivers/STM32L0xx_HAL_Driver/Src/stm32l0xx_hal_rtc.c ****   * @param  hrtc RTC handle
1331:../../../../../../Drivers/STM32L0xx_HAL_Driver/Src/stm32l0xx_hal_rtc.c ****   * @param  Timeout Timeout duration
ARM GAS  C:\Users\EBANO_~1\AppData\Local\Temp\cc8t01eQ.s 			page 26


1332:../../../../../../Drivers/STM32L0xx_HAL_Driver/Src/stm32l0xx_hal_rtc.c ****   * @retval HAL status
1333:../../../../../../Drivers/STM32L0xx_HAL_Driver/Src/stm32l0xx_hal_rtc.c ****   */
1334:../../../../../../Drivers/STM32L0xx_HAL_Driver/Src/stm32l0xx_hal_rtc.c **** HAL_StatusTypeDef HAL_RTC_PollForAlarmAEvent(RTC_HandleTypeDef *hrtc, uint32_t Timeout)
1335:../../../../../../Drivers/STM32L0xx_HAL_Driver/Src/stm32l0xx_hal_rtc.c **** {
1336:../../../../../../Drivers/STM32L0xx_HAL_Driver/Src/stm32l0xx_hal_rtc.c **** 
1337:../../../../../../Drivers/STM32L0xx_HAL_Driver/Src/stm32l0xx_hal_rtc.c ****   uint32_t tickstart = HAL_GetTick();   
1338:../../../../../../Drivers/STM32L0xx_HAL_Driver/Src/stm32l0xx_hal_rtc.c ****   
1339:../../../../../../Drivers/STM32L0xx_HAL_Driver/Src/stm32l0xx_hal_rtc.c ****   while(__HAL_RTC_ALARM_GET_FLAG(hrtc, RTC_FLAG_ALRAF) == RESET)
1340:../../../../../../Drivers/STM32L0xx_HAL_Driver/Src/stm32l0xx_hal_rtc.c ****   {
1341:../../../../../../Drivers/STM32L0xx_HAL_Driver/Src/stm32l0xx_hal_rtc.c ****     if(Timeout != HAL_MAX_DELAY)
1342:../../../../../../Drivers/STM32L0xx_HAL_Driver/Src/stm32l0xx_hal_rtc.c ****     {
1343:../../../../../../Drivers/STM32L0xx_HAL_Driver/Src/stm32l0xx_hal_rtc.c ****       if((Timeout == 0U)||((HAL_GetTick() - tickstart ) > Timeout))
1344:../../../../../../Drivers/STM32L0xx_HAL_Driver/Src/stm32l0xx_hal_rtc.c ****       {
1345:../../../../../../Drivers/STM32L0xx_HAL_Driver/Src/stm32l0xx_hal_rtc.c ****         hrtc->State = HAL_RTC_STATE_TIMEOUT;
1346:../../../../../../Drivers/STM32L0xx_HAL_Driver/Src/stm32l0xx_hal_rtc.c ****         return HAL_TIMEOUT;
1347:../../../../../../Drivers/STM32L0xx_HAL_Driver/Src/stm32l0xx_hal_rtc.c ****       }
1348:../../../../../../Drivers/STM32L0xx_HAL_Driver/Src/stm32l0xx_hal_rtc.c ****     }
1349:../../../../../../Drivers/STM32L0xx_HAL_Driver/Src/stm32l0xx_hal_rtc.c ****   }
1350:../../../../../../Drivers/STM32L0xx_HAL_Driver/Src/stm32l0xx_hal_rtc.c **** 
1351:../../../../../../Drivers/STM32L0xx_HAL_Driver/Src/stm32l0xx_hal_rtc.c ****   /* Clear the Alarm interrupt pending bit */
1352:../../../../../../Drivers/STM32L0xx_HAL_Driver/Src/stm32l0xx_hal_rtc.c ****   __HAL_RTC_ALARM_CLEAR_FLAG(hrtc, RTC_FLAG_ALRAF);
1353:../../../../../../Drivers/STM32L0xx_HAL_Driver/Src/stm32l0xx_hal_rtc.c **** 
1354:../../../../../../Drivers/STM32L0xx_HAL_Driver/Src/stm32l0xx_hal_rtc.c ****   /* Change RTC state */
1355:../../../../../../Drivers/STM32L0xx_HAL_Driver/Src/stm32l0xx_hal_rtc.c ****   hrtc->State = HAL_RTC_STATE_READY;
1356:../../../../../../Drivers/STM32L0xx_HAL_Driver/Src/stm32l0xx_hal_rtc.c **** 
1357:../../../../../../Drivers/STM32L0xx_HAL_Driver/Src/stm32l0xx_hal_rtc.c ****   return HAL_OK;
1358:../../../../../../Drivers/STM32L0xx_HAL_Driver/Src/stm32l0xx_hal_rtc.c **** }
1359:../../../../../../Drivers/STM32L0xx_HAL_Driver/Src/stm32l0xx_hal_rtc.c **** 
1360:../../../../../../Drivers/STM32L0xx_HAL_Driver/Src/stm32l0xx_hal_rtc.c **** /**
1361:../../../../../../Drivers/STM32L0xx_HAL_Driver/Src/stm32l0xx_hal_rtc.c ****   * @}
1362:../../../../../../Drivers/STM32L0xx_HAL_Driver/Src/stm32l0xx_hal_rtc.c ****   */
1363:../../../../../../Drivers/STM32L0xx_HAL_Driver/Src/stm32l0xx_hal_rtc.c **** 
1364:../../../../../../Drivers/STM32L0xx_HAL_Driver/Src/stm32l0xx_hal_rtc.c **** /** @addtogroup RTC_Exported_Functions_Group4
1365:../../../../../../Drivers/STM32L0xx_HAL_Driver/Src/stm32l0xx_hal_rtc.c ****  *  @brief   Peripheral Control functions 
1366:../../../../../../Drivers/STM32L0xx_HAL_Driver/Src/stm32l0xx_hal_rtc.c ****  *
1367:../../../../../../Drivers/STM32L0xx_HAL_Driver/Src/stm32l0xx_hal_rtc.c **** @verbatim
1368:../../../../../../Drivers/STM32L0xx_HAL_Driver/Src/stm32l0xx_hal_rtc.c ****  ===============================================================================
1369:../../../../../../Drivers/STM32L0xx_HAL_Driver/Src/stm32l0xx_hal_rtc.c ****                      ##### Peripheral Control functions #####
1370:../../../../../../Drivers/STM32L0xx_HAL_Driver/Src/stm32l0xx_hal_rtc.c ****  ===============================================================================
1371:../../../../../../Drivers/STM32L0xx_HAL_Driver/Src/stm32l0xx_hal_rtc.c ****     [..]
1372:../../../../../../Drivers/STM32L0xx_HAL_Driver/Src/stm32l0xx_hal_rtc.c ****     This subsection provides functions allowing to
1373:../../../../../../Drivers/STM32L0xx_HAL_Driver/Src/stm32l0xx_hal_rtc.c ****       (+) Wait for RTC Time and Date Synchronization
1374:../../../../../../Drivers/STM32L0xx_HAL_Driver/Src/stm32l0xx_hal_rtc.c **** 
1375:../../../../../../Drivers/STM32L0xx_HAL_Driver/Src/stm32l0xx_hal_rtc.c **** @endverbatim
1376:../../../../../../Drivers/STM32L0xx_HAL_Driver/Src/stm32l0xx_hal_rtc.c ****   * @{
1377:../../../../../../Drivers/STM32L0xx_HAL_Driver/Src/stm32l0xx_hal_rtc.c ****   */
1378:../../../../../../Drivers/STM32L0xx_HAL_Driver/Src/stm32l0xx_hal_rtc.c **** 
1379:../../../../../../Drivers/STM32L0xx_HAL_Driver/Src/stm32l0xx_hal_rtc.c **** /**
1380:../../../../../../Drivers/STM32L0xx_HAL_Driver/Src/stm32l0xx_hal_rtc.c ****   * @brief  Wait until the RTC Time and Date registers (RTC_TR and RTC_DR) are
1381:../../../../../../Drivers/STM32L0xx_HAL_Driver/Src/stm32l0xx_hal_rtc.c ****   *         synchronized with RTC APB clock.
1382:../../../../../../Drivers/STM32L0xx_HAL_Driver/Src/stm32l0xx_hal_rtc.c ****   * @note   The RTC Resynchronization mode is write protected, use the 
1383:../../../../../../Drivers/STM32L0xx_HAL_Driver/Src/stm32l0xx_hal_rtc.c ****   *         __HAL_RTC_WRITEPROTECTION_DISABLE() before calling this function.
1384:../../../../../../Drivers/STM32L0xx_HAL_Driver/Src/stm32l0xx_hal_rtc.c ****   * @note   To read the calendar through the shadow registers after Calendar 
1385:../../../../../../Drivers/STM32L0xx_HAL_Driver/Src/stm32l0xx_hal_rtc.c ****   *         initialization, calendar update or after wakeup from low power modes
1386:../../../../../../Drivers/STM32L0xx_HAL_Driver/Src/stm32l0xx_hal_rtc.c ****   *         the software must first clear the RSF flag.
1387:../../../../../../Drivers/STM32L0xx_HAL_Driver/Src/stm32l0xx_hal_rtc.c ****   *         The software must then wait until it is set again before reading
1388:../../../../../../Drivers/STM32L0xx_HAL_Driver/Src/stm32l0xx_hal_rtc.c ****   *         the calendar, which means that the calendar registers have been
ARM GAS  C:\Users\EBANO_~1\AppData\Local\Temp\cc8t01eQ.s 			page 27


1389:../../../../../../Drivers/STM32L0xx_HAL_Driver/Src/stm32l0xx_hal_rtc.c ****   *         correctly copied into the RTC_TR and RTC_DR shadow registers.
1390:../../../../../../Drivers/STM32L0xx_HAL_Driver/Src/stm32l0xx_hal_rtc.c ****   * @param  hrtc RTC handle
1391:../../../../../../Drivers/STM32L0xx_HAL_Driver/Src/stm32l0xx_hal_rtc.c ****   * @retval HAL status
1392:../../../../../../Drivers/STM32L0xx_HAL_Driver/Src/stm32l0xx_hal_rtc.c ****   */
1393:../../../../../../Drivers/STM32L0xx_HAL_Driver/Src/stm32l0xx_hal_rtc.c **** HAL_StatusTypeDef HAL_RTC_WaitForSynchro(RTC_HandleTypeDef* hrtc)
1394:../../../../../../Drivers/STM32L0xx_HAL_Driver/Src/stm32l0xx_hal_rtc.c **** {
1395:../../../../../../Drivers/STM32L0xx_HAL_Driver/Src/stm32l0xx_hal_rtc.c ****   uint32_t tickstart = 0U;
1396:../../../../../../Drivers/STM32L0xx_HAL_Driver/Src/stm32l0xx_hal_rtc.c **** 
1397:../../../../../../Drivers/STM32L0xx_HAL_Driver/Src/stm32l0xx_hal_rtc.c ****   /* Clear RSF flag */
1398:../../../../../../Drivers/STM32L0xx_HAL_Driver/Src/stm32l0xx_hal_rtc.c ****   hrtc->Instance->ISR &= (uint32_t)RTC_RSF_MASK;
1399:../../../../../../Drivers/STM32L0xx_HAL_Driver/Src/stm32l0xx_hal_rtc.c **** 
1400:../../../../../../Drivers/STM32L0xx_HAL_Driver/Src/stm32l0xx_hal_rtc.c ****   tickstart = HAL_GetTick();
1401:../../../../../../Drivers/STM32L0xx_HAL_Driver/Src/stm32l0xx_hal_rtc.c **** 
1402:../../../../../../Drivers/STM32L0xx_HAL_Driver/Src/stm32l0xx_hal_rtc.c ****   /* Wait the registers to be synchronised */
1403:../../../../../../Drivers/STM32L0xx_HAL_Driver/Src/stm32l0xx_hal_rtc.c ****   while((hrtc->Instance->ISR & RTC_ISR_RSF) == (uint32_t)RESET)
1404:../../../../../../Drivers/STM32L0xx_HAL_Driver/Src/stm32l0xx_hal_rtc.c ****   {
1405:../../../../../../Drivers/STM32L0xx_HAL_Driver/Src/stm32l0xx_hal_rtc.c ****     if((HAL_GetTick() - tickstart ) > RTC_TIMEOUT_VALUE)
1406:../../../../../../Drivers/STM32L0xx_HAL_Driver/Src/stm32l0xx_hal_rtc.c ****     {
1407:../../../../../../Drivers/STM32L0xx_HAL_Driver/Src/stm32l0xx_hal_rtc.c ****       return HAL_TIMEOUT;
1408:../../../../../../Drivers/STM32L0xx_HAL_Driver/Src/stm32l0xx_hal_rtc.c ****     }
1409:../../../../../../Drivers/STM32L0xx_HAL_Driver/Src/stm32l0xx_hal_rtc.c ****   }
1410:../../../../../../Drivers/STM32L0xx_HAL_Driver/Src/stm32l0xx_hal_rtc.c **** 
1411:../../../../../../Drivers/STM32L0xx_HAL_Driver/Src/stm32l0xx_hal_rtc.c ****   return HAL_OK;
1412:../../../../../../Drivers/STM32L0xx_HAL_Driver/Src/stm32l0xx_hal_rtc.c **** }
1413:../../../../../../Drivers/STM32L0xx_HAL_Driver/Src/stm32l0xx_hal_rtc.c **** 
1414:../../../../../../Drivers/STM32L0xx_HAL_Driver/Src/stm32l0xx_hal_rtc.c **** /**
1415:../../../../../../Drivers/STM32L0xx_HAL_Driver/Src/stm32l0xx_hal_rtc.c ****   * @}
1416:../../../../../../Drivers/STM32L0xx_HAL_Driver/Src/stm32l0xx_hal_rtc.c ****   */
1417:../../../../../../Drivers/STM32L0xx_HAL_Driver/Src/stm32l0xx_hal_rtc.c **** 
1418:../../../../../../Drivers/STM32L0xx_HAL_Driver/Src/stm32l0xx_hal_rtc.c **** /** @addtogroup RTC_Exported_Functions_Group5
1419:../../../../../../Drivers/STM32L0xx_HAL_Driver/Src/stm32l0xx_hal_rtc.c ****  *  @brief   Peripheral State functions 
1420:../../../../../../Drivers/STM32L0xx_HAL_Driver/Src/stm32l0xx_hal_rtc.c ****  *
1421:../../../../../../Drivers/STM32L0xx_HAL_Driver/Src/stm32l0xx_hal_rtc.c **** @verbatim   
1422:../../../../../../Drivers/STM32L0xx_HAL_Driver/Src/stm32l0xx_hal_rtc.c ****  ===============================================================================
1423:../../../../../../Drivers/STM32L0xx_HAL_Driver/Src/stm32l0xx_hal_rtc.c ****                      ##### Peripheral State functions #####
1424:../../../../../../Drivers/STM32L0xx_HAL_Driver/Src/stm32l0xx_hal_rtc.c ****  ===============================================================================  
1425:../../../../../../Drivers/STM32L0xx_HAL_Driver/Src/stm32l0xx_hal_rtc.c ****     [..]
1426:../../../../../../Drivers/STM32L0xx_HAL_Driver/Src/stm32l0xx_hal_rtc.c ****     This subsection provides functions allowing to
1427:../../../../../../Drivers/STM32L0xx_HAL_Driver/Src/stm32l0xx_hal_rtc.c ****       (+) Get RTC state
1428:../../../../../../Drivers/STM32L0xx_HAL_Driver/Src/stm32l0xx_hal_rtc.c **** 
1429:../../../../../../Drivers/STM32L0xx_HAL_Driver/Src/stm32l0xx_hal_rtc.c **** @endverbatim
1430:../../../../../../Drivers/STM32L0xx_HAL_Driver/Src/stm32l0xx_hal_rtc.c ****   * @{
1431:../../../../../../Drivers/STM32L0xx_HAL_Driver/Src/stm32l0xx_hal_rtc.c ****   */
1432:../../../../../../Drivers/STM32L0xx_HAL_Driver/Src/stm32l0xx_hal_rtc.c **** /**
1433:../../../../../../Drivers/STM32L0xx_HAL_Driver/Src/stm32l0xx_hal_rtc.c ****   * @brief  Return the RTC handle state.
1434:../../../../../../Drivers/STM32L0xx_HAL_Driver/Src/stm32l0xx_hal_rtc.c ****   * @param  hrtc RTC handle
1435:../../../../../../Drivers/STM32L0xx_HAL_Driver/Src/stm32l0xx_hal_rtc.c ****   * @retval HAL state
1436:../../../../../../Drivers/STM32L0xx_HAL_Driver/Src/stm32l0xx_hal_rtc.c ****   */
1437:../../../../../../Drivers/STM32L0xx_HAL_Driver/Src/stm32l0xx_hal_rtc.c **** HAL_RTCStateTypeDef HAL_RTC_GetState(RTC_HandleTypeDef* hrtc)
1438:../../../../../../Drivers/STM32L0xx_HAL_Driver/Src/stm32l0xx_hal_rtc.c **** {
1439:../../../../../../Drivers/STM32L0xx_HAL_Driver/Src/stm32l0xx_hal_rtc.c ****   /* Return RTC handle state */
1440:../../../../../../Drivers/STM32L0xx_HAL_Driver/Src/stm32l0xx_hal_rtc.c ****   return hrtc->State;
1441:../../../../../../Drivers/STM32L0xx_HAL_Driver/Src/stm32l0xx_hal_rtc.c **** }
1442:../../../../../../Drivers/STM32L0xx_HAL_Driver/Src/stm32l0xx_hal_rtc.c **** 
1443:../../../../../../Drivers/STM32L0xx_HAL_Driver/Src/stm32l0xx_hal_rtc.c **** /**
1444:../../../../../../Drivers/STM32L0xx_HAL_Driver/Src/stm32l0xx_hal_rtc.c ****   * @}
1445:../../../../../../Drivers/STM32L0xx_HAL_Driver/Src/stm32l0xx_hal_rtc.c ****   */
ARM GAS  C:\Users\EBANO_~1\AppData\Local\Temp\cc8t01eQ.s 			page 28


1446:../../../../../../Drivers/STM32L0xx_HAL_Driver/Src/stm32l0xx_hal_rtc.c **** /**
1447:../../../../../../Drivers/STM32L0xx_HAL_Driver/Src/stm32l0xx_hal_rtc.c ****   * @}
1448:../../../../../../Drivers/STM32L0xx_HAL_Driver/Src/stm32l0xx_hal_rtc.c ****   */
1449:../../../../../../Drivers/STM32L0xx_HAL_Driver/Src/stm32l0xx_hal_rtc.c **** 
1450:../../../../../../Drivers/STM32L0xx_HAL_Driver/Src/stm32l0xx_hal_rtc.c **** /** @addtogroup RTC_Private_Functions
1451:../../../../../../Drivers/STM32L0xx_HAL_Driver/Src/stm32l0xx_hal_rtc.c ****   * @{
1452:../../../../../../Drivers/STM32L0xx_HAL_Driver/Src/stm32l0xx_hal_rtc.c ****   */
1453:../../../../../../Drivers/STM32L0xx_HAL_Driver/Src/stm32l0xx_hal_rtc.c **** /**
1454:../../../../../../Drivers/STM32L0xx_HAL_Driver/Src/stm32l0xx_hal_rtc.c ****   * @brief  Enter the RTC Initialization mode.
1455:../../../../../../Drivers/STM32L0xx_HAL_Driver/Src/stm32l0xx_hal_rtc.c ****   * @note   The RTC Initialization mode is write protected, use the
1456:../../../../../../Drivers/STM32L0xx_HAL_Driver/Src/stm32l0xx_hal_rtc.c ****   *         __HAL_RTC_WRITEPROTECTION_DISABLE() before calling this function.
1457:../../../../../../Drivers/STM32L0xx_HAL_Driver/Src/stm32l0xx_hal_rtc.c ****   * @param  hrtc RTC handle
1458:../../../../../../Drivers/STM32L0xx_HAL_Driver/Src/stm32l0xx_hal_rtc.c ****   * @retval HAL status
1459:../../../../../../Drivers/STM32L0xx_HAL_Driver/Src/stm32l0xx_hal_rtc.c ****   */
1460:../../../../../../Drivers/STM32L0xx_HAL_Driver/Src/stm32l0xx_hal_rtc.c **** HAL_StatusTypeDef RTC_EnterInitMode(RTC_HandleTypeDef* hrtc)
1461:../../../../../../Drivers/STM32L0xx_HAL_Driver/Src/stm32l0xx_hal_rtc.c **** {
1462:../../../../../../Drivers/STM32L0xx_HAL_Driver/Src/stm32l0xx_hal_rtc.c ****   uint32_t tickstart = 0U;
1463:../../../../../../Drivers/STM32L0xx_HAL_Driver/Src/stm32l0xx_hal_rtc.c **** 
1464:../../../../../../Drivers/STM32L0xx_HAL_Driver/Src/stm32l0xx_hal_rtc.c ****   /* Check if the Initialization mode is set */
1465:../../../../../../Drivers/STM32L0xx_HAL_Driver/Src/stm32l0xx_hal_rtc.c ****   if((hrtc->Instance->ISR & RTC_ISR_INITF) == (uint32_t)RESET)
  89              		.loc 1 1465 0
  90 0020 DA68     		ldr	r2, [r3, #12]
  91 0022 5206     		lsls	r2, r2, #25
  92 0024 2FD5     		bpl	.L14
  93              	.LVL4:
  94              	.L6:
  95              	.LBE71:
  96              	.LBE70:
 223:../../../../../../Drivers/STM32L0xx_HAL_Driver/Src/stm32l0xx_hal_rtc.c ****     /* Set RTC_CR register */
  97              		.loc 1 223 0
  98 0026 9A68     		ldr	r2, [r3, #8]
  99 0028 2349     		ldr	r1, .L15
 225:../../../../../../Drivers/STM32L0xx_HAL_Driver/Src/stm32l0xx_hal_rtc.c **** 
 100              		.loc 1 225 0
 101 002a 2069     		ldr	r0, [r4, #16]
 223:../../../../../../Drivers/STM32L0xx_HAL_Driver/Src/stm32l0xx_hal_rtc.c ****     /* Set RTC_CR register */
 102              		.loc 1 223 0
 103 002c 0A40     		ands	r2, r1
 104 002e 9A60     		str	r2, [r3, #8]
 225:../../../../../../Drivers/STM32L0xx_HAL_Driver/Src/stm32l0xx_hal_rtc.c **** 
 105              		.loc 1 225 0
 106 0030 6268     		ldr	r2, [r4, #4]
 107 0032 9968     		ldr	r1, [r3, #8]
 108 0034 0243     		orrs	r2, r0
 109 0036 A069     		ldr	r0, [r4, #24]
 110 0038 0243     		orrs	r2, r0
 111 003a 0A43     		orrs	r2, r1
 112 003c 9A60     		str	r2, [r3, #8]
 228:../../../../../../Drivers/STM32L0xx_HAL_Driver/Src/stm32l0xx_hal_rtc.c ****     hrtc->Instance->PRER |= (uint32_t)(hrtc->Init.AsynchPrediv << 16U);
 113              		.loc 1 228 0
 114 003e E268     		ldr	r2, [r4, #12]
 235:../../../../../../Drivers/STM32L0xx_HAL_Driver/Src/stm32l0xx_hal_rtc.c **** 
 115              		.loc 1 235 0
 116 0040 6069     		ldr	r0, [r4, #20]
 228:../../../../../../Drivers/STM32L0xx_HAL_Driver/Src/stm32l0xx_hal_rtc.c ****     hrtc->Instance->PRER |= (uint32_t)(hrtc->Init.AsynchPrediv << 16U);
 117              		.loc 1 228 0
 118 0042 1A61     		str	r2, [r3, #16]
ARM GAS  C:\Users\EBANO_~1\AppData\Local\Temp\cc8t01eQ.s 			page 29


 229:../../../../../../Drivers/STM32L0xx_HAL_Driver/Src/stm32l0xx_hal_rtc.c **** 
 119              		.loc 1 229 0
 120 0044 A268     		ldr	r2, [r4, #8]
 121 0046 1969     		ldr	r1, [r3, #16]
 122 0048 1204     		lsls	r2, r2, #16
 123 004a 0A43     		orrs	r2, r1
 232:../../../../../../Drivers/STM32L0xx_HAL_Driver/Src/stm32l0xx_hal_rtc.c **** 
 124              		.loc 1 232 0
 125 004c 8021     		movs	r1, #128
 229:../../../../../../Drivers/STM32L0xx_HAL_Driver/Src/stm32l0xx_hal_rtc.c **** 
 126              		.loc 1 229 0
 127 004e 1A61     		str	r2, [r3, #16]
 232:../../../../../../Drivers/STM32L0xx_HAL_Driver/Src/stm32l0xx_hal_rtc.c **** 
 128              		.loc 1 232 0
 129 0050 DA68     		ldr	r2, [r3, #12]
 130 0052 8A43     		bics	r2, r1
 131 0054 DA60     		str	r2, [r3, #12]
 234:../../../../../../Drivers/STM32L0xx_HAL_Driver/Src/stm32l0xx_hal_rtc.c ****     hrtc->Instance->OR |= (uint32_t)(hrtc->Init.OutPutType | hrtc->Init.OutPutRemap);
 132              		.loc 1 234 0
 133 0056 DA6C     		ldr	r2, [r3, #76]
 134 0058 7D39     		subs	r1, r1, #125
 135 005a 8A43     		bics	r2, r1
 136 005c DA64     		str	r2, [r3, #76]
 235:../../../../../../Drivers/STM32L0xx_HAL_Driver/Src/stm32l0xx_hal_rtc.c **** 
 137              		.loc 1 235 0
 138 005e E269     		ldr	r2, [r4, #28]
 139 0060 D96C     		ldr	r1, [r3, #76]
 140 0062 0243     		orrs	r2, r0
 141 0064 0A43     		orrs	r2, r1
 142 0066 DA64     		str	r2, [r3, #76]
 238:../../../../../../Drivers/STM32L0xx_HAL_Driver/Src/stm32l0xx_hal_rtc.c **** 
 143              		.loc 1 238 0
 144 0068 FF22     		movs	r2, #255
 145 006a 5A62     		str	r2, [r3, #36]
 241:../../../../../../Drivers/STM32L0xx_HAL_Driver/Src/stm32l0xx_hal_rtc.c **** 
 146              		.loc 1 241 0
 147 006c 2123     		movs	r3, #33
 148 006e FE3A     		subs	r2, r2, #254
 149 0070 E254     		strb	r2, [r4, r3]
 243:../../../../../../Drivers/STM32L0xx_HAL_Driver/Src/stm32l0xx_hal_rtc.c ****   }
 150              		.loc 1 243 0
 151 0072 0020     		movs	r0, #0
 152 0074 06E0     		b	.L11
 153              	.LVL5:
 154              	.L8:
 213:../../../../../../Drivers/STM32L0xx_HAL_Driver/Src/stm32l0xx_hal_rtc.c **** 
 155              		.loc 1 213 0
 156 0076 FF22     		movs	r2, #255
 157 0078 2368     		ldr	r3, [r4]
 158 007a 5A62     		str	r2, [r3, #36]
 216:../../../../../../Drivers/STM32L0xx_HAL_Driver/Src/stm32l0xx_hal_rtc.c **** 
 159              		.loc 1 216 0
 160 007c 2123     		movs	r3, #33
 161 007e FB3A     		subs	r2, r2, #251
 162 0080 E254     		strb	r2, [r4, r3]
 163              	.L12:
 218:../../../../../../Drivers/STM32L0xx_HAL_Driver/Src/stm32l0xx_hal_rtc.c ****   }
ARM GAS  C:\Users\EBANO_~1\AppData\Local\Temp\cc8t01eQ.s 			page 30


 164              		.loc 1 218 0
 165 0082 0120     		movs	r0, #1
 166              	.L11:
 245:../../../../../../Drivers/STM32L0xx_HAL_Driver/Src/stm32l0xx_hal_rtc.c **** 
 167              		.loc 1 245 0
 168              		@ sp needed
 169              	.LVL6:
 170 0084 F8BD     		pop	{r3, r4, r5, r6, r7, pc}
 171              	.LVL7:
 172              	.L14:
 173              	.LBB73:
 174              	.LBB72:
1466:../../../../../../Drivers/STM32L0xx_HAL_Driver/Src/stm32l0xx_hal_rtc.c ****   {
1467:../../../../../../Drivers/STM32L0xx_HAL_Driver/Src/stm32l0xx_hal_rtc.c ****     /* Set the Initialization mode */
1468:../../../../../../Drivers/STM32L0xx_HAL_Driver/Src/stm32l0xx_hal_rtc.c ****     hrtc->Instance->ISR = (uint32_t)RTC_INIT_MASK;
 175              		.loc 1 1468 0
 176 0086 0122     		movs	r2, #1
 177 0088 5242     		rsbs	r2, r2, #0
 178 008a DA60     		str	r2, [r3, #12]
1469:../../../../../../Drivers/STM32L0xx_HAL_Driver/Src/stm32l0xx_hal_rtc.c **** 
1470:../../../../../../Drivers/STM32L0xx_HAL_Driver/Src/stm32l0xx_hal_rtc.c ****     tickstart = HAL_GetTick();
 179              		.loc 1 1470 0
 180 008c FFF7FEFF 		bl	HAL_GetTick
 181              	.LVL8:
1471:../../../../../../Drivers/STM32L0xx_HAL_Driver/Src/stm32l0xx_hal_rtc.c ****     /* Wait till RTC is in INIT state and if Time out is reached exit */
1472:../../../../../../Drivers/STM32L0xx_HAL_Driver/Src/stm32l0xx_hal_rtc.c ****     while((hrtc->Instance->ISR & RTC_ISR_INITF) == (uint32_t)RESET)
1473:../../../../../../Drivers/STM32L0xx_HAL_Driver/Src/stm32l0xx_hal_rtc.c ****     {
1474:../../../../../../Drivers/STM32L0xx_HAL_Driver/Src/stm32l0xx_hal_rtc.c ****       if((HAL_GetTick()  - tickstart ) > RTC_TIMEOUT_VALUE)
 182              		.loc 1 1474 0
 183 0090 FA26     		movs	r6, #250
1470:../../../../../../Drivers/STM32L0xx_HAL_Driver/Src/stm32l0xx_hal_rtc.c ****     /* Wait till RTC is in INIT state and if Time out is reached exit */
 184              		.loc 1 1470 0
 185 0092 0700     		movs	r7, r0
 186              	.LVL9:
1472:../../../../../../Drivers/STM32L0xx_HAL_Driver/Src/stm32l0xx_hal_rtc.c ****     {
 187              		.loc 1 1472 0
 188 0094 4025     		movs	r5, #64
 189              		.loc 1 1474 0
 190 0096 B600     		lsls	r6, r6, #2
 191 0098 04E0     		b	.L7
 192              	.LVL10:
 193              	.L9:
 194 009a FFF7FEFF 		bl	HAL_GetTick
 195              	.LVL11:
 196 009e C01B     		subs	r0, r0, r7
 197 00a0 B042     		cmp	r0, r6
 198 00a2 E8D8     		bhi	.L8
 199              	.L7:
1472:../../../../../../Drivers/STM32L0xx_HAL_Driver/Src/stm32l0xx_hal_rtc.c ****     {
 200              		.loc 1 1472 0
 201 00a4 2368     		ldr	r3, [r4]
 202 00a6 DA68     		ldr	r2, [r3, #12]
 203 00a8 1542     		tst	r5, r2
 204 00aa F6D0     		beq	.L9
 205 00ac BBE7     		b	.L6
 206              	.LVL12:
 207              	.L13:
ARM GAS  C:\Users\EBANO_~1\AppData\Local\Temp\cc8t01eQ.s 			page 31


 208              	.LBE72:
 209              	.LBE73:
 197:../../../../../../Drivers/STM32L0xx_HAL_Driver/Src/stm32l0xx_hal_rtc.c **** 
 210              		.loc 1 197 0
 211 00ae 2022     		movs	r2, #32
 212 00b0 8354     		strb	r3, [r0, r2]
 200:../../../../../../Drivers/STM32L0xx_HAL_Driver/Src/stm32l0xx_hal_rtc.c ****   }
 213              		.loc 1 200 0
 214 00b2 FFF7FEFF 		bl	HAL_RTC_MspInit
 215              	.LVL13:
 216 00b6 ABE7     		b	.L5
 217              	.L16:
 218              		.align	2
 219              	.L15:
 220 00b8 BFFF8FFF 		.word	-7340097
 221              		.cfi_endproc
 222              	.LFE39:
 223              		.size	HAL_RTC_Init, .-HAL_RTC_Init
 224              		.section	.text.HAL_RTC_MspDeInit,"ax",%progbits
 225              		.align	1
 226              		.p2align 2,,3
 227              		.weak	HAL_RTC_MspDeInit
 228              		.syntax unified
 229              		.code	16
 230              		.thumb_func
 231              		.fpu softvfp
 232              		.type	HAL_RTC_MspDeInit, %function
 233              	HAL_RTC_MspDeInit:
 234              	.LFB60:
 235              		.cfi_startproc
 236              		@ args = 0, pretend = 0, frame = 0
 237              		@ frame_needed = 0, uses_anonymous_args = 0
 238              		@ link register save eliminated.
 239              		@ sp needed
 240 0000 7047     		bx	lr
 241              		.cfi_endproc
 242              	.LFE60:
 243              		.size	HAL_RTC_MspDeInit, .-HAL_RTC_MspDeInit
 244 0002 C046     		.section	.text.HAL_RTC_DeInit,"ax",%progbits
 245              		.align	1
 246              		.p2align 2,,3
 247              		.global	HAL_RTC_DeInit
 248              		.syntax unified
 249              		.code	16
 250              		.thumb_func
 251              		.fpu softvfp
 252              		.type	HAL_RTC_DeInit, %function
 253              	HAL_RTC_DeInit:
 254              	.LFB40:
 254:../../../../../../Drivers/STM32L0xx_HAL_Driver/Src/stm32l0xx_hal_rtc.c ****   uint32_t tickstart = 0U;
 255              		.loc 1 254 0
 256              		.cfi_startproc
 257              		@ args = 0, pretend = 0, frame = 0
 258              		@ frame_needed = 0, uses_anonymous_args = 0
 259              	.LVL14:
 254:../../../../../../Drivers/STM32L0xx_HAL_Driver/Src/stm32l0xx_hal_rtc.c ****   uint32_t tickstart = 0U;
 260              		.loc 1 254 0
ARM GAS  C:\Users\EBANO_~1\AppData\Local\Temp\cc8t01eQ.s 			page 32


 261 0000 F8B5     		push	{r3, r4, r5, r6, r7, lr}
 262              	.LCFI1:
 263              		.cfi_def_cfa_offset 24
 264              		.cfi_offset 3, -24
 265              		.cfi_offset 4, -20
 266              		.cfi_offset 5, -16
 267              		.cfi_offset 6, -12
 268              		.cfi_offset 7, -8
 269              		.cfi_offset 14, -4
 261:../../../../../../Drivers/STM32L0xx_HAL_Driver/Src/stm32l0xx_hal_rtc.c **** 
 270              		.loc 1 261 0
 271 0002 0222     		movs	r2, #2
 272 0004 2123     		movs	r3, #33
 273 0006 C254     		strb	r2, [r0, r3]
 264:../../../../../../Drivers/STM32L0xx_HAL_Driver/Src/stm32l0xx_hal_rtc.c **** 
 274              		.loc 1 264 0
 275 0008 0368     		ldr	r3, [r0]
 276 000a C832     		adds	r2, r2, #200
 277 000c 5A62     		str	r2, [r3, #36]
 278 000e 773A     		subs	r2, r2, #119
 279 0010 5A62     		str	r2, [r3, #36]
 280              	.LBB78:
 281              	.LBB79:
1465:../../../../../../Drivers/STM32L0xx_HAL_Driver/Src/stm32l0xx_hal_rtc.c ****   {
 282              		.loc 1 1465 0
 283 0012 DA68     		ldr	r2, [r3, #12]
 284              	.LBE79:
 285              	.LBE78:
 254:../../../../../../Drivers/STM32L0xx_HAL_Driver/Src/stm32l0xx_hal_rtc.c ****   uint32_t tickstart = 0U;
 286              		.loc 1 254 0
 287 0014 0400     		movs	r4, r0
 288              	.LVL15:
 289              	.LBB82:
 290              	.LBB80:
1465:../../../../../../Drivers/STM32L0xx_HAL_Driver/Src/stm32l0xx_hal_rtc.c ****   {
 291              		.loc 1 1465 0
 292 0016 5206     		lsls	r2, r2, #25
 293 0018 4DD5     		bpl	.L32
 294              	.LVL16:
 295              	.L19:
 296              	.LBE80:
 297              	.LBE82:
 280:../../../../../../Drivers/STM32L0xx_HAL_Driver/Src/stm32l0xx_hal_rtc.c ****     hrtc->Instance->DR = ((uint32_t)(RTC_DR_WDU_0 | RTC_DR_MU_0 | RTC_DR_DU_0));
 298              		.loc 1 280 0
 299 001a 0022     		movs	r2, #0
 300 001c 1A60     		str	r2, [r3]
 281:../../../../../../Drivers/STM32L0xx_HAL_Driver/Src/stm32l0xx_hal_rtc.c ****     /* Reset All CR bits except CR[2:0] */
 301              		.loc 1 281 0
 302 001e 374A     		ldr	r2, .L35
 290:../../../../../../Drivers/STM32L0xx_HAL_Driver/Src/stm32l0xx_hal_rtc.c ****       {
 303              		.loc 1 290 0
 304 0020 FA26     		movs	r6, #250
 281:../../../../../../Drivers/STM32L0xx_HAL_Driver/Src/stm32l0xx_hal_rtc.c ****     /* Reset All CR bits except CR[2:0] */
 305              		.loc 1 281 0
 306 0022 5A60     		str	r2, [r3, #4]
 283:../../../../../../Drivers/STM32L0xx_HAL_Driver/Src/stm32l0xx_hal_rtc.c **** 
 307              		.loc 1 283 0
ARM GAS  C:\Users\EBANO_~1\AppData\Local\Temp\cc8t01eQ.s 			page 33


 308 0024 0722     		movs	r2, #7
 309 0026 9968     		ldr	r1, [r3, #8]
 288:../../../../../../Drivers/STM32L0xx_HAL_Driver/Src/stm32l0xx_hal_rtc.c ****     {
 310              		.loc 1 288 0
 311 0028 0425     		movs	r5, #4
 283:../../../../../../Drivers/STM32L0xx_HAL_Driver/Src/stm32l0xx_hal_rtc.c **** 
 312              		.loc 1 283 0
 313 002a 0A40     		ands	r2, r1
 314 002c 9A60     		str	r2, [r3, #8]
 285:../../../../../../Drivers/STM32L0xx_HAL_Driver/Src/stm32l0xx_hal_rtc.c **** 
 315              		.loc 1 285 0
 316 002e FFF7FEFF 		bl	HAL_GetTick
 317              	.LVL17:
 288:../../../../../../Drivers/STM32L0xx_HAL_Driver/Src/stm32l0xx_hal_rtc.c ****     {
 318              		.loc 1 288 0
 319 0032 2368     		ldr	r3, [r4]
 285:../../../../../../Drivers/STM32L0xx_HAL_Driver/Src/stm32l0xx_hal_rtc.c **** 
 320              		.loc 1 285 0
 321 0034 0700     		movs	r7, r0
 322              	.LVL18:
 288:../../../../../../Drivers/STM32L0xx_HAL_Driver/Src/stm32l0xx_hal_rtc.c ****     {
 323              		.loc 1 288 0
 324 0036 DA68     		ldr	r2, [r3, #12]
 290:../../../../../../Drivers/STM32L0xx_HAL_Driver/Src/stm32l0xx_hal_rtc.c ****       {
 325              		.loc 1 290 0
 326 0038 B600     		lsls	r6, r6, #2
 288:../../../../../../Drivers/STM32L0xx_HAL_Driver/Src/stm32l0xx_hal_rtc.c ****     {
 327              		.loc 1 288 0
 328 003a 1542     		tst	r5, r2
 329 003c 08D1     		bne	.L33
 330              	.LVL19:
 331              	.L25:
 290:../../../../../../Drivers/STM32L0xx_HAL_Driver/Src/stm32l0xx_hal_rtc.c ****       {
 332              		.loc 1 290 0
 333 003e FFF7FEFF 		bl	HAL_GetTick
 334              	.LVL20:
 335 0042 C01B     		subs	r0, r0, r7
 336 0044 B042     		cmp	r0, r6
 337 0046 50D8     		bhi	.L34
 288:../../../../../../Drivers/STM32L0xx_HAL_Driver/Src/stm32l0xx_hal_rtc.c ****     {
 338              		.loc 1 288 0
 339 0048 2368     		ldr	r3, [r4]
 340 004a DA68     		ldr	r2, [r3, #12]
 341 004c 1542     		tst	r5, r2
 342 004e F6D0     		beq	.L25
 343              	.L33:
 303:../../../../../../Drivers/STM32L0xx_HAL_Driver/Src/stm32l0xx_hal_rtc.c ****     hrtc->Instance->WUTR = RTC_WUTR_WUT;
 344              		.loc 1 303 0
 345 0050 9A68     		ldr	r2, [r3, #8]
 346 0052 0022     		movs	r2, #0
 304:../../../../../../Drivers/STM32L0xx_HAL_Driver/Src/stm32l0xx_hal_rtc.c ****     hrtc->Instance->PRER = ((uint32_t)(RTC_PRER_PREDIV_A | 0x000000FFU));
 347              		.loc 1 304 0
 348 0054 2A49     		ldr	r1, .L35+4
 303:../../../../../../Drivers/STM32L0xx_HAL_Driver/Src/stm32l0xx_hal_rtc.c ****     hrtc->Instance->WUTR = RTC_WUTR_WUT;
 349              		.loc 1 303 0
 350 0056 9A60     		str	r2, [r3, #8]
 304:../../../../../../Drivers/STM32L0xx_HAL_Driver/Src/stm32l0xx_hal_rtc.c ****     hrtc->Instance->PRER = ((uint32_t)(RTC_PRER_PREDIV_A | 0x000000FFU));
ARM GAS  C:\Users\EBANO_~1\AppData\Local\Temp\cc8t01eQ.s 			page 34


 351              		.loc 1 304 0
 352 0058 5961     		str	r1, [r3, #20]
 305:../../../../../../Drivers/STM32L0xx_HAL_Driver/Src/stm32l0xx_hal_rtc.c ****     hrtc->Instance->ALRMAR = (uint32_t)0x00000000U;
 353              		.loc 1 305 0
 354 005a 2A49     		ldr	r1, .L35+8
 355 005c 1961     		str	r1, [r3, #16]
 306:../../../../../../Drivers/STM32L0xx_HAL_Driver/Src/stm32l0xx_hal_rtc.c ****     hrtc->Instance->ALRMBR = (uint32_t)0x00000000U;
 356              		.loc 1 306 0
 357 005e DA61     		str	r2, [r3, #28]
 307:../../../../../../Drivers/STM32L0xx_HAL_Driver/Src/stm32l0xx_hal_rtc.c ****     hrtc->Instance->SHIFTR = (uint32_t)0x00000000U;
 358              		.loc 1 307 0
 359 0060 1A62     		str	r2, [r3, #32]
 308:../../../../../../Drivers/STM32L0xx_HAL_Driver/Src/stm32l0xx_hal_rtc.c ****     hrtc->Instance->CALR = (uint32_t)0x00000000U;
 360              		.loc 1 308 0
 361 0062 DA62     		str	r2, [r3, #44]
 309:../../../../../../Drivers/STM32L0xx_HAL_Driver/Src/stm32l0xx_hal_rtc.c ****     hrtc->Instance->ALRMASSR = (uint32_t)0x00000000U;
 362              		.loc 1 309 0
 363 0064 DA63     		str	r2, [r3, #60]
 310:../../../../../../Drivers/STM32L0xx_HAL_Driver/Src/stm32l0xx_hal_rtc.c ****     hrtc->Instance->ALRMBSSR = (uint32_t)0x00000000U;
 364              		.loc 1 310 0
 365 0066 5A64     		str	r2, [r3, #68]
 311:../../../../../../Drivers/STM32L0xx_HAL_Driver/Src/stm32l0xx_hal_rtc.c **** 
 366              		.loc 1 311 0
 367 0068 9A64     		str	r2, [r3, #72]
 314:../../../../../../Drivers/STM32L0xx_HAL_Driver/Src/stm32l0xx_hal_rtc.c **** 
 368              		.loc 1 314 0
 369 006a DA60     		str	r2, [r3, #12]
 317:../../../../../../Drivers/STM32L0xx_HAL_Driver/Src/stm32l0xx_hal_rtc.c **** 
 370              		.loc 1 317 0
 371 006c 1A64     		str	r2, [r3, #64]
 320:../../../../../../Drivers/STM32L0xx_HAL_Driver/Src/stm32l0xx_hal_rtc.c **** 
 372              		.loc 1 320 0
 373 006e DA64     		str	r2, [r3, #76]
 323:../../../../../../Drivers/STM32L0xx_HAL_Driver/Src/stm32l0xx_hal_rtc.c ****     {
 374              		.loc 1 323 0
 375 0070 9A68     		ldr	r2, [r3, #8]
 376 0072 9206     		lsls	r2, r2, #26
 377 0074 13D4     		bmi	.L26
 378              	.LVL21:
 379              	.LBB83:
 380              	.LBB84:
1398:../../../../../../Drivers/STM32L0xx_HAL_Driver/Src/stm32l0xx_hal_rtc.c **** 
 381              		.loc 1 1398 0
 382 0076 A021     		movs	r1, #160
 383 0078 DA68     		ldr	r2, [r3, #12]
1405:../../../../../../Drivers/STM32L0xx_HAL_Driver/Src/stm32l0xx_hal_rtc.c ****     {
 384              		.loc 1 1405 0
 385 007a FA26     		movs	r6, #250
1398:../../../../../../Drivers/STM32L0xx_HAL_Driver/Src/stm32l0xx_hal_rtc.c **** 
 386              		.loc 1 1398 0
 387 007c 8A43     		bics	r2, r1
 388 007e DA60     		str	r2, [r3, #12]
1400:../../../../../../Drivers/STM32L0xx_HAL_Driver/Src/stm32l0xx_hal_rtc.c **** 
 389              		.loc 1 1400 0
 390 0080 FFF7FEFF 		bl	HAL_GetTick
 391              	.LVL22:
1403:../../../../../../Drivers/STM32L0xx_HAL_Driver/Src/stm32l0xx_hal_rtc.c ****   {
ARM GAS  C:\Users\EBANO_~1\AppData\Local\Temp\cc8t01eQ.s 			page 35


 392              		.loc 1 1403 0
 393 0084 2025     		movs	r5, #32
1400:../../../../../../Drivers/STM32L0xx_HAL_Driver/Src/stm32l0xx_hal_rtc.c **** 
 394              		.loc 1 1400 0
 395 0086 0700     		movs	r7, r0
 396              	.LVL23:
1405:../../../../../../Drivers/STM32L0xx_HAL_Driver/Src/stm32l0xx_hal_rtc.c ****     {
 397              		.loc 1 1405 0
 398 0088 B600     		lsls	r6, r6, #2
 399 008a 04E0     		b	.L27
 400              	.LVL24:
 401              	.L29:
 402 008c FFF7FEFF 		bl	HAL_GetTick
 403              	.LVL25:
 404 0090 C01B     		subs	r0, r0, r7
 405 0092 B042     		cmp	r0, r6
 406 0094 21D8     		bhi	.L28
 407              	.L27:
1403:../../../../../../Drivers/STM32L0xx_HAL_Driver/Src/stm32l0xx_hal_rtc.c ****   {
 408              		.loc 1 1403 0
 409 0096 2368     		ldr	r3, [r4]
 410 0098 DA68     		ldr	r2, [r3, #12]
 411 009a 1542     		tst	r5, r2
 412 009c F6D0     		beq	.L29
 413              	.LVL26:
 414              	.L26:
 415              	.LBE84:
 416              	.LBE83:
 338:../../../../../../Drivers/STM32L0xx_HAL_Driver/Src/stm32l0xx_hal_rtc.c **** 
 417              		.loc 1 338 0
 418 009e FF22     		movs	r2, #255
 341:../../../../../../Drivers/STM32L0xx_HAL_Driver/Src/stm32l0xx_hal_rtc.c **** 
 419              		.loc 1 341 0
 420 00a0 2000     		movs	r0, r4
 338:../../../../../../Drivers/STM32L0xx_HAL_Driver/Src/stm32l0xx_hal_rtc.c **** 
 421              		.loc 1 338 0
 422 00a2 5A62     		str	r2, [r3, #36]
 341:../../../../../../Drivers/STM32L0xx_HAL_Driver/Src/stm32l0xx_hal_rtc.c **** 
 423              		.loc 1 341 0
 424 00a4 FFF7FEFF 		bl	HAL_RTC_MspDeInit
 425              	.LVL27:
 343:../../../../../../Drivers/STM32L0xx_HAL_Driver/Src/stm32l0xx_hal_rtc.c ****   
 426              		.loc 1 343 0
 427 00a8 0023     		movs	r3, #0
 428 00aa 2122     		movs	r2, #33
 429 00ac A354     		strb	r3, [r4, r2]
 346:../../../../../../Drivers/STM32L0xx_HAL_Driver/Src/stm32l0xx_hal_rtc.c **** 
 430              		.loc 1 346 0
 431 00ae 013A     		subs	r2, r2, #1
 432 00b0 A354     		strb	r3, [r4, r2]
 348:../../../../../../Drivers/STM32L0xx_HAL_Driver/Src/stm32l0xx_hal_rtc.c **** }
 433              		.loc 1 348 0
 434 00b2 0020     		movs	r0, #0
 435 00b4 18E0     		b	.L31
 436              	.LVL28:
 437              	.L32:
 438              	.LBB85:
ARM GAS  C:\Users\EBANO_~1\AppData\Local\Temp\cc8t01eQ.s 			page 36


 439              	.LBB81:
1468:../../../../../../Drivers/STM32L0xx_HAL_Driver/Src/stm32l0xx_hal_rtc.c **** 
 440              		.loc 1 1468 0
 441 00b6 0122     		movs	r2, #1
 442 00b8 5242     		rsbs	r2, r2, #0
 443 00ba DA60     		str	r2, [r3, #12]
1470:../../../../../../Drivers/STM32L0xx_HAL_Driver/Src/stm32l0xx_hal_rtc.c ****     /* Wait till RTC is in INIT state and if Time out is reached exit */
 444              		.loc 1 1470 0
 445 00bc FFF7FEFF 		bl	HAL_GetTick
 446              	.LVL29:
 447              		.loc 1 1474 0
 448 00c0 FA26     		movs	r6, #250
1470:../../../../../../Drivers/STM32L0xx_HAL_Driver/Src/stm32l0xx_hal_rtc.c ****     /* Wait till RTC is in INIT state and if Time out is reached exit */
 449              		.loc 1 1470 0
 450 00c2 0700     		movs	r7, r0
 451              	.LVL30:
1472:../../../../../../Drivers/STM32L0xx_HAL_Driver/Src/stm32l0xx_hal_rtc.c ****     {
 452              		.loc 1 1472 0
 453 00c4 4025     		movs	r5, #64
 454              		.loc 1 1474 0
 455 00c6 B600     		lsls	r6, r6, #2
 456              	.LVL31:
 457              	.L20:
1472:../../../../../../Drivers/STM32L0xx_HAL_Driver/Src/stm32l0xx_hal_rtc.c ****     {
 458              		.loc 1 1472 0
 459 00c8 2368     		ldr	r3, [r4]
 460 00ca DA68     		ldr	r2, [r3, #12]
 461 00cc 1542     		tst	r5, r2
 462 00ce A4D1     		bne	.L19
 463              		.loc 1 1474 0
 464 00d0 FFF7FEFF 		bl	HAL_GetTick
 465              	.LVL32:
 466 00d4 C01B     		subs	r0, r0, r7
 467 00d6 B042     		cmp	r0, r6
 468 00d8 F6D9     		bls	.L20
 469              	.LVL33:
 470              	.L28:
 471              	.LBE81:
 472              	.LBE85:
 328:../../../../../../Drivers/STM32L0xx_HAL_Driver/Src/stm32l0xx_hal_rtc.c **** 
 473              		.loc 1 328 0
 474 00da FF22     		movs	r2, #255
 475 00dc 2368     		ldr	r3, [r4]
 332:../../../../../../Drivers/STM32L0xx_HAL_Driver/Src/stm32l0xx_hal_rtc.c ****       }
 476              		.loc 1 332 0
 477 00de 0120     		movs	r0, #1
 328:../../../../../../Drivers/STM32L0xx_HAL_Driver/Src/stm32l0xx_hal_rtc.c **** 
 478              		.loc 1 328 0
 479 00e0 5A62     		str	r2, [r3, #36]
 330:../../../../../../Drivers/STM32L0xx_HAL_Driver/Src/stm32l0xx_hal_rtc.c **** 
 480              		.loc 1 330 0
 481 00e2 2123     		movs	r3, #33
 482 00e4 FB3A     		subs	r2, r2, #251
 483 00e6 E254     		strb	r2, [r4, r3]
 484              	.L31:
 349:../../../../../../Drivers/STM32L0xx_HAL_Driver/Src/stm32l0xx_hal_rtc.c **** 
 485              		.loc 1 349 0
ARM GAS  C:\Users\EBANO_~1\AppData\Local\Temp\cc8t01eQ.s 			page 37


 486              		@ sp needed
 487              	.LVL34:
 488 00e8 F8BD     		pop	{r3, r4, r5, r6, r7, pc}
 489              	.LVL35:
 490              	.L34:
 293:../../../../../../Drivers/STM32L0xx_HAL_Driver/Src/stm32l0xx_hal_rtc.c **** 
 491              		.loc 1 293 0
 492 00ea FF22     		movs	r2, #255
 493 00ec 2368     		ldr	r3, [r4]
 298:../../../../../../Drivers/STM32L0xx_HAL_Driver/Src/stm32l0xx_hal_rtc.c ****       }
 494              		.loc 1 298 0
 495 00ee 0320     		movs	r0, #3
 293:../../../../../../Drivers/STM32L0xx_HAL_Driver/Src/stm32l0xx_hal_rtc.c **** 
 496              		.loc 1 293 0
 497 00f0 5A62     		str	r2, [r3, #36]
 296:../../../../../../Drivers/STM32L0xx_HAL_Driver/Src/stm32l0xx_hal_rtc.c **** 
 498              		.loc 1 296 0
 499 00f2 2123     		movs	r3, #33
 500 00f4 FC3A     		subs	r2, r2, #252
 501 00f6 E254     		strb	r2, [r4, r3]
 298:../../../../../../Drivers/STM32L0xx_HAL_Driver/Src/stm32l0xx_hal_rtc.c ****       }
 502              		.loc 1 298 0
 503 00f8 F6E7     		b	.L31
 504              	.L36:
 505 00fa C046     		.align	2
 506              	.L35:
 507 00fc 01210000 		.word	8449
 508 0100 FFFF0000 		.word	65535
 509 0104 FF007F00 		.word	8323327
 510              		.cfi_endproc
 511              	.LFE40:
 512              		.size	HAL_RTC_DeInit, .-HAL_RTC_DeInit
 513              		.section	.text.HAL_RTC_SetTime,"ax",%progbits
 514              		.align	1
 515              		.p2align 2,,3
 516              		.global	HAL_RTC_SetTime
 517              		.syntax unified
 518              		.code	16
 519              		.thumb_func
 520              		.fpu softvfp
 521              		.type	HAL_RTC_SetTime, %function
 522              	HAL_RTC_SetTime:
 523              	.LFB43:
 410:../../../../../../Drivers/STM32L0xx_HAL_Driver/Src/stm32l0xx_hal_rtc.c ****   uint32_t tmpreg = 0U;
 524              		.loc 1 410 0
 525              		.cfi_startproc
 526              		@ args = 0, pretend = 0, frame = 0
 527              		@ frame_needed = 0, uses_anonymous_args = 0
 528              	.LVL36:
 529 0000 F8B5     		push	{r3, r4, r5, r6, r7, lr}
 530              	.LCFI2:
 531              		.cfi_def_cfa_offset 24
 532              		.cfi_offset 3, -24
 533              		.cfi_offset 4, -20
 534              		.cfi_offset 5, -16
 535              		.cfi_offset 6, -12
 536              		.cfi_offset 7, -8
ARM GAS  C:\Users\EBANO_~1\AppData\Local\Temp\cc8t01eQ.s 			page 38


 537              		.cfi_offset 14, -4
 538 0002 4546     		mov	r5, r8
 539 0004 DE46     		mov	lr, fp
 540 0006 5746     		mov	r7, r10
 541 0008 4E46     		mov	r6, r9
 419:../../../../../../Drivers/STM32L0xx_HAL_Driver/Src/stm32l0xx_hal_rtc.c **** 
 542              		.loc 1 419 0
 543 000a 2023     		movs	r3, #32
 410:../../../../../../Drivers/STM32L0xx_HAL_Driver/Src/stm32l0xx_hal_rtc.c ****   uint32_t tmpreg = 0U;
 544              		.loc 1 410 0
 545 000c E0B5     		push	{r5, r6, r7, lr}
 546              	.LCFI3:
 547              		.cfi_def_cfa_offset 40
 548              		.cfi_offset 8, -40
 549              		.cfi_offset 9, -36
 550              		.cfi_offset 10, -32
 551              		.cfi_offset 11, -28
 410:../../../../../../Drivers/STM32L0xx_HAL_Driver/Src/stm32l0xx_hal_rtc.c ****   uint32_t tmpreg = 0U;
 552              		.loc 1 410 0
 553 000e 0D00     		movs	r5, r1
 419:../../../../../../Drivers/STM32L0xx_HAL_Driver/Src/stm32l0xx_hal_rtc.c **** 
 554              		.loc 1 419 0
 555 0010 C15C     		ldrb	r1, [r0, r3]
 556              	.LVL37:
 410:../../../../../../Drivers/STM32L0xx_HAL_Driver/Src/stm32l0xx_hal_rtc.c ****   uint32_t tmpreg = 0U;
 557              		.loc 1 410 0
 558 0012 0400     		movs	r4, r0
 419:../../../../../../Drivers/STM32L0xx_HAL_Driver/Src/stm32l0xx_hal_rtc.c **** 
 559              		.loc 1 419 0
 560 0014 0129     		cmp	r1, #1
 561 0016 00D1     		bne	.LCB483
 562 0018 9CE0     		b	.L59	@long jump
 563              	.LCB483:
 419:../../../../../../Drivers/STM32L0xx_HAL_Driver/Src/stm32l0xx_hal_rtc.c **** 
 564              		.loc 1 419 0 is_stmt 0 discriminator 2
 565 001a 0121     		movs	r1, #1
 566 001c C154     		strb	r1, [r0, r3]
 421:../../../../../../Drivers/STM32L0xx_HAL_Driver/Src/stm32l0xx_hal_rtc.c **** 
 567              		.loc 1 421 0 is_stmt 1 discriminator 2
 568 001e 0133     		adds	r3, r3, #1
 569 0020 0131     		adds	r1, r1, #1
 570 0022 C154     		strb	r1, [r0, r3]
 571 0024 0668     		ldr	r6, [r0]
 423:../../../../../../Drivers/STM32L0xx_HAL_Driver/Src/stm32l0xx_hal_rtc.c ****   {
 572              		.loc 1 423 0 discriminator 2
 573 0026 002A     		cmp	r2, #0
 574 0028 3AD0     		beq	.L67
 445:../../../../../../Drivers/STM32L0xx_HAL_Driver/Src/stm32l0xx_hal_rtc.c ****     {
 575              		.loc 1 445 0
 576 002a 4023     		movs	r3, #64
 577 002c B168     		ldr	r1, [r6, #8]
 578 002e 0B40     		ands	r3, r1
 579 0030 00D1     		bne	.LCB496
 580 0032 8BE0     		b	.L49	@long jump
 581              	.LCB496:
 582 0034 EB78     		ldrb	r3, [r5, #3]
 583 0036 1B04     		lsls	r3, r3, #16
ARM GAS  C:\Users\EBANO_~1\AppData\Local\Temp\cc8t01eQ.s 			page 39


 584              	.L50:
 458:../../../../../../Drivers/STM32L0xx_HAL_Driver/Src/stm32l0xx_hal_rtc.c ****               ((uint32_t)(sTime->Minutes) << 8U) | \
 585              		.loc 1 458 0
 586 0038 2978     		ldrb	r1, [r5]
 459:../../../../../../Drivers/STM32L0xx_HAL_Driver/Src/stm32l0xx_hal_rtc.c ****               ((uint32_t)sTime->Seconds) | \
 587              		.loc 1 459 0
 588 003a 6878     		ldrb	r0, [r5, #1]
 589              	.LVL38:
 458:../../../../../../Drivers/STM32L0xx_HAL_Driver/Src/stm32l0xx_hal_rtc.c ****               ((uint32_t)(sTime->Minutes) << 8U) | \
 590              		.loc 1 458 0
 591 003c 0904     		lsls	r1, r1, #16
 459:../../../../../../Drivers/STM32L0xx_HAL_Driver/Src/stm32l0xx_hal_rtc.c ****               ((uint32_t)sTime->Seconds) | \
 592              		.loc 1 459 0
 593 003e 0002     		lsls	r0, r0, #8
 458:../../../../../../Drivers/STM32L0xx_HAL_Driver/Src/stm32l0xx_hal_rtc.c ****               ((uint32_t)(sTime->Minutes) << 8U) | \
 594              		.loc 1 458 0
 595 0040 0143     		orrs	r1, r0
 460:../../../../../../Drivers/STM32L0xx_HAL_Driver/Src/stm32l0xx_hal_rtc.c ****               ((uint32_t)(sTime->TimeFormat) << 16U));
 596              		.loc 1 460 0
 597 0042 A878     		ldrb	r0, [r5, #2]
 459:../../../../../../Drivers/STM32L0xx_HAL_Driver/Src/stm32l0xx_hal_rtc.c ****               ((uint32_t)sTime->Seconds) | \
 598              		.loc 1 459 0
 599 0044 0143     		orrs	r1, r0
 458:../../../../../../Drivers/STM32L0xx_HAL_Driver/Src/stm32l0xx_hal_rtc.c ****               ((uint32_t)(sTime->Minutes) << 8U) | \
 600              		.loc 1 458 0
 601 0046 1943     		orrs	r1, r3
 465:../../../../../../Drivers/STM32L0xx_HAL_Driver/Src/stm32l0xx_hal_rtc.c **** 
 602              		.loc 1 465 0
 603 0048 CA23     		movs	r3, #202
 604 004a 7362     		str	r3, [r6, #36]
 605 004c 773B     		subs	r3, r3, #119
 606 004e 7362     		str	r3, [r6, #36]
 607              	.LBB96:
 608              	.LBB97:
1465:../../../../../../Drivers/STM32L0xx_HAL_Driver/Src/stm32l0xx_hal_rtc.c ****   {
 609              		.loc 1 1465 0
 610 0050 F368     		ldr	r3, [r6, #12]
 611              	.LBE97:
 612              	.LBE96:
 458:../../../../../../Drivers/STM32L0xx_HAL_Driver/Src/stm32l0xx_hal_rtc.c ****               ((uint32_t)(sTime->Minutes) << 8U) | \
 613              		.loc 1 458 0
 614 0052 8846     		mov	r8, r1
 615              	.LVL39:
 616              	.LBB100:
 617              	.LBB98:
1465:../../../../../../Drivers/STM32L0xx_HAL_Driver/Src/stm32l0xx_hal_rtc.c ****   {
 618              		.loc 1 1465 0
 619 0054 5B06     		lsls	r3, r3, #25
 620 0056 59D5     		bpl	.L68
 621              	.LVL40:
 622              	.L51:
 623              	.LBE98:
 624              	.LBE100:
 484:../../../../../../Drivers/STM32L0xx_HAL_Driver/Src/stm32l0xx_hal_rtc.c **** 
 625              		.loc 1 484 0
 626 0058 4346     		mov	r3, r8
 627 005a 5049     		ldr	r1, .L70
ARM GAS  C:\Users\EBANO_~1\AppData\Local\Temp\cc8t01eQ.s 			page 40


 487:../../../../../../Drivers/STM32L0xx_HAL_Driver/Src/stm32l0xx_hal_rtc.c **** 
 628              		.loc 1 487 0
 629 005c 504A     		ldr	r2, .L70+4
 484:../../../../../../Drivers/STM32L0xx_HAL_Driver/Src/stm32l0xx_hal_rtc.c **** 
 630              		.loc 1 484 0
 631 005e 0B40     		ands	r3, r1
 632 0060 3360     		str	r3, [r6]
 487:../../../../../../Drivers/STM32L0xx_HAL_Driver/Src/stm32l0xx_hal_rtc.c **** 
 633              		.loc 1 487 0
 634 0062 B368     		ldr	r3, [r6, #8]
 490:../../../../../../Drivers/STM32L0xx_HAL_Driver/Src/stm32l0xx_hal_rtc.c **** 
 635              		.loc 1 490 0
 636 0064 2969     		ldr	r1, [r5, #16]
 487:../../../../../../Drivers/STM32L0xx_HAL_Driver/Src/stm32l0xx_hal_rtc.c **** 
 637              		.loc 1 487 0
 638 0066 1340     		ands	r3, r2
 639 0068 B360     		str	r3, [r6, #8]
 490:../../../../../../Drivers/STM32L0xx_HAL_Driver/Src/stm32l0xx_hal_rtc.c **** 
 640              		.loc 1 490 0
 641 006a EB68     		ldr	r3, [r5, #12]
 642 006c B268     		ldr	r2, [r6, #8]
 643 006e 0B43     		orrs	r3, r1
 644 0070 1343     		orrs	r3, r2
 493:../../../../../../Drivers/STM32L0xx_HAL_Driver/Src/stm32l0xx_hal_rtc.c **** 
 645              		.loc 1 493 0
 646 0072 8022     		movs	r2, #128
 490:../../../../../../Drivers/STM32L0xx_HAL_Driver/Src/stm32l0xx_hal_rtc.c **** 
 647              		.loc 1 490 0
 648 0074 B360     		str	r3, [r6, #8]
 493:../../../../../../Drivers/STM32L0xx_HAL_Driver/Src/stm32l0xx_hal_rtc.c **** 
 649              		.loc 1 493 0
 650 0076 F368     		ldr	r3, [r6, #12]
 651 0078 9343     		bics	r3, r2
 652 007a F360     		str	r3, [r6, #12]
 496:../../../../../../Drivers/STM32L0xx_HAL_Driver/Src/stm32l0xx_hal_rtc.c ****     {
 653              		.loc 1 496 0
 654 007c B368     		ldr	r3, [r6, #8]
 655 007e 9B06     		lsls	r3, r3, #26
 656 0080 6AD5     		bpl	.L69
 657              	.LVL41:
 658              	.L55:
 513:../../../../../../Drivers/STM32L0xx_HAL_Driver/Src/stm32l0xx_hal_rtc.c ****     
 659              		.loc 1 513 0
 660 0082 FF23     		movs	r3, #255
 515:../../../../../../Drivers/STM32L0xx_HAL_Driver/Src/stm32l0xx_hal_rtc.c **** 
 661              		.loc 1 515 0
 662 0084 0122     		movs	r2, #1
 513:../../../../../../Drivers/STM32L0xx_HAL_Driver/Src/stm32l0xx_hal_rtc.c ****     
 663              		.loc 1 513 0
 664 0086 7362     		str	r3, [r6, #36]
 515:../../../../../../Drivers/STM32L0xx_HAL_Driver/Src/stm32l0xx_hal_rtc.c **** 
 665              		.loc 1 515 0
 666 0088 DE3B     		subs	r3, r3, #222
 667 008a E254     		strb	r2, [r4, r3]
 517:../../../../../../Drivers/STM32L0xx_HAL_Driver/Src/stm32l0xx_hal_rtc.c **** 
 668              		.loc 1 517 0
 669 008c 0022     		movs	r2, #0
ARM GAS  C:\Users\EBANO_~1\AppData\Local\Temp\cc8t01eQ.s 			page 41


 519:../../../../../../Drivers/STM32L0xx_HAL_Driver/Src/stm32l0xx_hal_rtc.c ****   }
 670              		.loc 1 519 0
 671 008e 0020     		movs	r0, #0
 517:../../../../../../Drivers/STM32L0xx_HAL_Driver/Src/stm32l0xx_hal_rtc.c **** 
 672              		.loc 1 517 0
 673 0090 013B     		subs	r3, r3, #1
 674 0092 E254     		strb	r2, [r4, r3]
 675              	.LVL42:
 676              	.L66:
 521:../../../../../../Drivers/STM32L0xx_HAL_Driver/Src/stm32l0xx_hal_rtc.c **** 
 677              		.loc 1 521 0
 678              		@ sp needed
 679              	.LVL43:
 680 0094 3CBC     		pop	{r2, r3, r4, r5}
 681 0096 9046     		mov	r8, r2
 682 0098 9946     		mov	r9, r3
 683 009a A246     		mov	r10, r4
 684 009c AB46     		mov	fp, r5
 685 009e F8BD     		pop	{r3, r4, r5, r6, r7, pc}
 686              	.LVL44:
 687              	.L67:
 425:../../../../../../Drivers/STM32L0xx_HAL_Driver/Src/stm32l0xx_hal_rtc.c ****     {
 688              		.loc 1 425 0
 689 00a0 4027     		movs	r7, #64
 690 00a2 B368     		ldr	r3, [r6, #8]
 691 00a4 1F40     		ands	r7, r3
 692 00a6 53D0     		beq	.L40
 693 00a8 EF78     		ldrb	r7, [r5, #3]
 694 00aa 3F04     		lsls	r7, r7, #16
 695              	.L41:
 438:../../../../../../Drivers/STM32L0xx_HAL_Driver/Src/stm32l0xx_hal_rtc.c ****                         ((uint32_t)RTC_ByteToBcd2(sTime->Minutes) << 8U) | \
 696              		.loc 1 438 0
 697 00ac 2878     		ldrb	r0, [r5]
 698              	.LVL45:
 699              	.LBB101:
 700              	.LBB102:
1475:../../../../../../Drivers/STM32L0xx_HAL_Driver/Src/stm32l0xx_hal_rtc.c ****       {
1476:../../../../../../Drivers/STM32L0xx_HAL_Driver/Src/stm32l0xx_hal_rtc.c ****         return HAL_TIMEOUT;
1477:../../../../../../Drivers/STM32L0xx_HAL_Driver/Src/stm32l0xx_hal_rtc.c ****       }
1478:../../../../../../Drivers/STM32L0xx_HAL_Driver/Src/stm32l0xx_hal_rtc.c ****     }
1479:../../../../../../Drivers/STM32L0xx_HAL_Driver/Src/stm32l0xx_hal_rtc.c ****   }
1480:../../../../../../Drivers/STM32L0xx_HAL_Driver/Src/stm32l0xx_hal_rtc.c **** 
1481:../../../../../../Drivers/STM32L0xx_HAL_Driver/Src/stm32l0xx_hal_rtc.c ****   return HAL_OK;
1482:../../../../../../Drivers/STM32L0xx_HAL_Driver/Src/stm32l0xx_hal_rtc.c **** }
1483:../../../../../../Drivers/STM32L0xx_HAL_Driver/Src/stm32l0xx_hal_rtc.c **** 
1484:../../../../../../Drivers/STM32L0xx_HAL_Driver/Src/stm32l0xx_hal_rtc.c **** 
1485:../../../../../../Drivers/STM32L0xx_HAL_Driver/Src/stm32l0xx_hal_rtc.c **** /**
1486:../../../../../../Drivers/STM32L0xx_HAL_Driver/Src/stm32l0xx_hal_rtc.c ****   * @brief  Convert a 2 digit decimal to BCD format.
1487:../../../../../../Drivers/STM32L0xx_HAL_Driver/Src/stm32l0xx_hal_rtc.c ****   * @param  Value Byte to be converted
1488:../../../../../../Drivers/STM32L0xx_HAL_Driver/Src/stm32l0xx_hal_rtc.c ****   * @retval Converted byte
1489:../../../../../../Drivers/STM32L0xx_HAL_Driver/Src/stm32l0xx_hal_rtc.c ****   */
1490:../../../../../../Drivers/STM32L0xx_HAL_Driver/Src/stm32l0xx_hal_rtc.c **** uint8_t RTC_ByteToBcd2(uint8_t Value)
1491:../../../../../../Drivers/STM32L0xx_HAL_Driver/Src/stm32l0xx_hal_rtc.c **** {
1492:../../../../../../Drivers/STM32L0xx_HAL_Driver/Src/stm32l0xx_hal_rtc.c ****   uint32_t bcdhigh = 0U;
 701              		.loc 1 1492 0
 702 00ae 0023     		movs	r3, #0
1493:../../../../../../Drivers/STM32L0xx_HAL_Driver/Src/stm32l0xx_hal_rtc.c **** 
ARM GAS  C:\Users\EBANO_~1\AppData\Local\Temp\cc8t01eQ.s 			page 42


1494:../../../../../../Drivers/STM32L0xx_HAL_Driver/Src/stm32l0xx_hal_rtc.c ****   while(Value >= 10U)
 703              		.loc 1 1494 0
 704 00b0 0928     		cmp	r0, #9
 705 00b2 06D9     		bls	.L42
 706              	.LVL46:
 707              	.L43:
1495:../../../../../../Drivers/STM32L0xx_HAL_Driver/Src/stm32l0xx_hal_rtc.c ****   {
1496:../../../../../../Drivers/STM32L0xx_HAL_Driver/Src/stm32l0xx_hal_rtc.c ****     bcdhigh++;
1497:../../../../../../Drivers/STM32L0xx_HAL_Driver/Src/stm32l0xx_hal_rtc.c ****     Value -= 10U;
 708              		.loc 1 1497 0
 709 00b4 0A38     		subs	r0, r0, #10
 710              	.LVL47:
 711 00b6 C0B2     		uxtb	r0, r0
1496:../../../../../../Drivers/STM32L0xx_HAL_Driver/Src/stm32l0xx_hal_rtc.c ****     Value -= 10U;
 712              		.loc 1 1496 0
 713 00b8 0133     		adds	r3, r3, #1
 714              	.LVL48:
1494:../../../../../../Drivers/STM32L0xx_HAL_Driver/Src/stm32l0xx_hal_rtc.c ****   {
 715              		.loc 1 1494 0
 716 00ba 0928     		cmp	r0, #9
 717 00bc FAD8     		bhi	.L43
 718 00be 1B01     		lsls	r3, r3, #4
 719              	.LVL49:
 720 00c0 DBB2     		uxtb	r3, r3
 721              	.L42:
 722              	.LVL50:
 723              	.LBE102:
 724              	.LBE101:
 438:../../../../../../Drivers/STM32L0xx_HAL_Driver/Src/stm32l0xx_hal_rtc.c ****                         ((uint32_t)RTC_ByteToBcd2(sTime->Minutes) << 8U) | \
 725              		.loc 1 438 0
 726 00c2 1843     		orrs	r0, r3
 439:../../../../../../Drivers/STM32L0xx_HAL_Driver/Src/stm32l0xx_hal_rtc.c ****                         ((uint32_t)RTC_ByteToBcd2(sTime->Seconds)) | \
 727              		.loc 1 439 0
 728 00c4 6B78     		ldrb	r3, [r5, #1]
 729              	.LVL51:
 438:../../../../../../Drivers/STM32L0xx_HAL_Driver/Src/stm32l0xx_hal_rtc.c ****                         ((uint32_t)RTC_ByteToBcd2(sTime->Minutes) << 8U) | \
 730              		.loc 1 438 0
 731 00c6 0004     		lsls	r0, r0, #16
 732              	.LBB103:
 733              	.LBB104:
1492:../../../../../../Drivers/STM32L0xx_HAL_Driver/Src/stm32l0xx_hal_rtc.c **** 
 734              		.loc 1 1492 0
 735 00c8 0021     		movs	r1, #0
1494:../../../../../../Drivers/STM32L0xx_HAL_Driver/Src/stm32l0xx_hal_rtc.c ****   {
 736              		.loc 1 1494 0
 737 00ca 092B     		cmp	r3, #9
 738 00cc 06D9     		bls	.L44
 739              	.LVL52:
 740              	.L45:
 741              		.loc 1 1497 0
 742 00ce 0A3B     		subs	r3, r3, #10
 743              	.LVL53:
 744 00d0 DBB2     		uxtb	r3, r3
1496:../../../../../../Drivers/STM32L0xx_HAL_Driver/Src/stm32l0xx_hal_rtc.c ****     Value -= 10U;
 745              		.loc 1 1496 0
 746 00d2 0131     		adds	r1, r1, #1
 747              	.LVL54:
ARM GAS  C:\Users\EBANO_~1\AppData\Local\Temp\cc8t01eQ.s 			page 43


1494:../../../../../../Drivers/STM32L0xx_HAL_Driver/Src/stm32l0xx_hal_rtc.c ****   {
 748              		.loc 1 1494 0
 749 00d4 092B     		cmp	r3, #9
 750 00d6 FAD8     		bhi	.L45
 751 00d8 0901     		lsls	r1, r1, #4
 752              	.LVL55:
 753 00da C9B2     		uxtb	r1, r1
 754              	.L44:
 755              	.LVL56:
 756              	.LBE104:
 757              	.LBE103:
 439:../../../../../../Drivers/STM32L0xx_HAL_Driver/Src/stm32l0xx_hal_rtc.c ****                         ((uint32_t)RTC_ByteToBcd2(sTime->Seconds)) | \
 758              		.loc 1 439 0
 759 00dc 0B43     		orrs	r3, r1
 440:../../../../../../Drivers/STM32L0xx_HAL_Driver/Src/stm32l0xx_hal_rtc.c ****                         (((uint32_t)sTime->TimeFormat) << 16U));
 760              		.loc 1 440 0
 761 00de A978     		ldrb	r1, [r5, #2]
 762              	.LVL57:
 439:../../../../../../Drivers/STM32L0xx_HAL_Driver/Src/stm32l0xx_hal_rtc.c ****                         ((uint32_t)RTC_ByteToBcd2(sTime->Seconds)) | \
 763              		.loc 1 439 0
 764 00e0 1B02     		lsls	r3, r3, #8
 765              	.LBB105:
 766              	.LBB106:
1494:../../../../../../Drivers/STM32L0xx_HAL_Driver/Src/stm32l0xx_hal_rtc.c ****   {
 767              		.loc 1 1494 0
 768 00e2 0929     		cmp	r1, #9
 769 00e4 57D9     		bls	.L62
 770              	.LVL58:
 771              	.L47:
 772              		.loc 1 1497 0
 773 00e6 0A39     		subs	r1, r1, #10
 774              	.LVL59:
 775 00e8 C9B2     		uxtb	r1, r1
1496:../../../../../../Drivers/STM32L0xx_HAL_Driver/Src/stm32l0xx_hal_rtc.c ****     Value -= 10U;
 776              		.loc 1 1496 0
 777 00ea 0132     		adds	r2, r2, #1
 778              	.LVL60:
1494:../../../../../../Drivers/STM32L0xx_HAL_Driver/Src/stm32l0xx_hal_rtc.c ****   {
 779              		.loc 1 1494 0
 780 00ec 0929     		cmp	r1, #9
 781 00ee FAD8     		bhi	.L47
 782 00f0 1201     		lsls	r2, r2, #4
 783              	.LVL61:
 784 00f2 D2B2     		uxtb	r2, r2
 785              	.L46:
 786              	.LVL62:
 787              	.LBE106:
 788              	.LBE105:
 438:../../../../../../Drivers/STM32L0xx_HAL_Driver/Src/stm32l0xx_hal_rtc.c ****                         ((uint32_t)RTC_ByteToBcd2(sTime->Minutes) << 8U) | \
 789              		.loc 1 438 0
 790 00f4 3843     		orrs	r0, r7
 791 00f6 0343     		orrs	r3, r0
 440:../../../../../../Drivers/STM32L0xx_HAL_Driver/Src/stm32l0xx_hal_rtc.c ****                         (((uint32_t)sTime->TimeFormat) << 16U));
 792              		.loc 1 440 0
 793 00f8 1143     		orrs	r1, r2
 438:../../../../../../Drivers/STM32L0xx_HAL_Driver/Src/stm32l0xx_hal_rtc.c ****                         ((uint32_t)RTC_ByteToBcd2(sTime->Minutes) << 8U) | \
 794              		.loc 1 438 0
ARM GAS  C:\Users\EBANO_~1\AppData\Local\Temp\cc8t01eQ.s 			page 44


 795 00fa 0B43     		orrs	r3, r1
 796 00fc 9846     		mov	r8, r3
 797              	.LVL63:
 465:../../../../../../Drivers/STM32L0xx_HAL_Driver/Src/stm32l0xx_hal_rtc.c **** 
 798              		.loc 1 465 0
 799 00fe CA23     		movs	r3, #202
 800              	.LVL64:
 801 0100 7362     		str	r3, [r6, #36]
 802 0102 773B     		subs	r3, r3, #119
 803 0104 7362     		str	r3, [r6, #36]
 804              	.LVL65:
 805              	.LBB108:
 806              	.LBB99:
1465:../../../../../../Drivers/STM32L0xx_HAL_Driver/Src/stm32l0xx_hal_rtc.c ****   {
 807              		.loc 1 1465 0
 808 0106 F368     		ldr	r3, [r6, #12]
 809 0108 5B06     		lsls	r3, r3, #25
 810 010a A5D4     		bmi	.L51
 811              	.L68:
1468:../../../../../../Drivers/STM32L0xx_HAL_Driver/Src/stm32l0xx_hal_rtc.c **** 
 812              		.loc 1 1468 0
 813 010c 0123     		movs	r3, #1
 814 010e 5B42     		rsbs	r3, r3, #0
 815 0110 F360     		str	r3, [r6, #12]
1470:../../../../../../Drivers/STM32L0xx_HAL_Driver/Src/stm32l0xx_hal_rtc.c ****     /* Wait till RTC is in INIT state and if Time out is reached exit */
 816              		.loc 1 1470 0
 817 0112 FFF7FEFF 		bl	HAL_GetTick
 818              	.LVL66:
1472:../../../../../../Drivers/STM32L0xx_HAL_Driver/Src/stm32l0xx_hal_rtc.c ****     {
 819              		.loc 1 1472 0
 820 0116 4023     		movs	r3, #64
 821 0118 9946     		mov	r9, r3
1474:../../../../../../Drivers/STM32L0xx_HAL_Driver/Src/stm32l0xx_hal_rtc.c ****       {
 822              		.loc 1 1474 0
 823 011a FA23     		movs	r3, #250
 824 011c 9B00     		lsls	r3, r3, #2
1470:../../../../../../Drivers/STM32L0xx_HAL_Driver/Src/stm32l0xx_hal_rtc.c ****     /* Wait till RTC is in INIT state and if Time out is reached exit */
 825              		.loc 1 1470 0
 826 011e 8346     		mov	fp, r0
 827              	.LVL67:
1474:../../../../../../Drivers/STM32L0xx_HAL_Driver/Src/stm32l0xx_hal_rtc.c ****       {
 828              		.loc 1 1474 0
 829 0120 9A46     		mov	r10, r3
 830              	.LVL68:
 831              	.L52:
1472:../../../../../../Drivers/STM32L0xx_HAL_Driver/Src/stm32l0xx_hal_rtc.c ****     {
 832              		.loc 1 1472 0
 833 0122 4B46     		mov	r3, r9
 834 0124 2668     		ldr	r6, [r4]
 835 0126 F768     		ldr	r7, [r6, #12]
 836 0128 1F40     		ands	r7, r3
 837 012a 95D1     		bne	.L51
1474:../../../../../../Drivers/STM32L0xx_HAL_Driver/Src/stm32l0xx_hal_rtc.c ****       {
 838              		.loc 1 1474 0
 839 012c FFF7FEFF 		bl	HAL_GetTick
 840              	.LVL69:
 841 0130 5B46     		mov	r3, fp
ARM GAS  C:\Users\EBANO_~1\AppData\Local\Temp\cc8t01eQ.s 			page 45


 842 0132 C01A     		subs	r0, r0, r3
 843 0134 5045     		cmp	r0, r10
 844 0136 F4D9     		bls	.L52
 845              	.LVL70:
 846              	.LBE99:
 847              	.LBE108:
 471:../../../../../../Drivers/STM32L0xx_HAL_Driver/Src/stm32l0xx_hal_rtc.c **** 
 848              		.loc 1 471 0
 849 0138 FF22     		movs	r2, #255
 850 013a 2368     		ldr	r3, [r4]
 479:../../../../../../Drivers/STM32L0xx_HAL_Driver/Src/stm32l0xx_hal_rtc.c ****   }
 851              		.loc 1 479 0
 852 013c 0120     		movs	r0, #1
 471:../../../../../../Drivers/STM32L0xx_HAL_Driver/Src/stm32l0xx_hal_rtc.c **** 
 853              		.loc 1 471 0
 854 013e 5A62     		str	r2, [r3, #36]
 474:../../../../../../Drivers/STM32L0xx_HAL_Driver/Src/stm32l0xx_hal_rtc.c **** 
 855              		.loc 1 474 0
 856 0140 2123     		movs	r3, #33
 857 0142 FB3A     		subs	r2, r2, #251
 858 0144 E254     		strb	r2, [r4, r3]
 477:../../../../../../Drivers/STM32L0xx_HAL_Driver/Src/stm32l0xx_hal_rtc.c **** 
 859              		.loc 1 477 0
 860 0146 013B     		subs	r3, r3, #1
 861 0148 E754     		strb	r7, [r4, r3]
 479:../../../../../../Drivers/STM32L0xx_HAL_Driver/Src/stm32l0xx_hal_rtc.c ****   }
 862              		.loc 1 479 0
 863 014a A3E7     		b	.L66
 864              	.LVL71:
 865              	.L49:
 453:../../../../../../Drivers/STM32L0xx_HAL_Driver/Src/stm32l0xx_hal_rtc.c ****       assert_param(IS_RTC_HOUR24(RTC_Bcd2ToByte(sTime->Hours)));
 866              		.loc 1 453 0
 867 014c EB70     		strb	r3, [r5, #3]
 868 014e 73E7     		b	.L50
 869              	.L40:
 432:../../../../../../Drivers/STM32L0xx_HAL_Driver/Src/stm32l0xx_hal_rtc.c ****       assert_param(IS_RTC_HOUR24(sTime->Hours));
 870              		.loc 1 432 0
 871 0150 EF70     		strb	r7, [r5, #3]
 872 0152 ABE7     		b	.L41
 873              	.L59:
 419:../../../../../../Drivers/STM32L0xx_HAL_Driver/Src/stm32l0xx_hal_rtc.c **** 
 874              		.loc 1 419 0
 875 0154 0220     		movs	r0, #2
 876              	.LVL72:
 877 0156 9DE7     		b	.L66
 878              	.LVL73:
 879              	.L69:
 880              	.LBB109:
 881              	.LBB110:
1398:../../../../../../Drivers/STM32L0xx_HAL_Driver/Src/stm32l0xx_hal_rtc.c **** 
 882              		.loc 1 1398 0
 883 0158 F368     		ldr	r3, [r6, #12]
 884 015a 2032     		adds	r2, r2, #32
 885 015c 9343     		bics	r3, r2
 886 015e F360     		str	r3, [r6, #12]
1400:../../../../../../Drivers/STM32L0xx_HAL_Driver/Src/stm32l0xx_hal_rtc.c **** 
 887              		.loc 1 1400 0
ARM GAS  C:\Users\EBANO_~1\AppData\Local\Temp\cc8t01eQ.s 			page 46


 888 0160 FFF7FEFF 		bl	HAL_GetTick
 889              	.LVL74:
1405:../../../../../../Drivers/STM32L0xx_HAL_Driver/Src/stm32l0xx_hal_rtc.c ****     {
 890              		.loc 1 1405 0
 891 0164 FA23     		movs	r3, #250
 892 0166 9B00     		lsls	r3, r3, #2
1400:../../../../../../Drivers/STM32L0xx_HAL_Driver/Src/stm32l0xx_hal_rtc.c **** 
 893              		.loc 1 1400 0
 894 0168 8146     		mov	r9, r0
 895              	.LVL75:
1403:../../../../../../Drivers/STM32L0xx_HAL_Driver/Src/stm32l0xx_hal_rtc.c ****   {
 896              		.loc 1 1403 0
 897 016a 2027     		movs	r7, #32
1405:../../../../../../Drivers/STM32L0xx_HAL_Driver/Src/stm32l0xx_hal_rtc.c ****     {
 898              		.loc 1 1405 0
 899 016c 9846     		mov	r8, r3
 900              	.LVL76:
 901              	.L56:
1403:../../../../../../Drivers/STM32L0xx_HAL_Driver/Src/stm32l0xx_hal_rtc.c ****   {
 902              		.loc 1 1403 0
 903 016e 2668     		ldr	r6, [r4]
 904 0170 F568     		ldr	r5, [r6, #12]
 905 0172 3D40     		ands	r5, r7
 906 0174 00D0     		beq	.LCB838
 907 0176 84E7     		b	.L55	@long jump
 908              	.LCB838:
1405:../../../../../../Drivers/STM32L0xx_HAL_Driver/Src/stm32l0xx_hal_rtc.c ****     {
 909              		.loc 1 1405 0
 910 0178 FFF7FEFF 		bl	HAL_GetTick
 911              	.LVL77:
 912 017c 4B46     		mov	r3, r9
 913 017e C01A     		subs	r0, r0, r3
 914 0180 4045     		cmp	r0, r8
 915 0182 F4D9     		bls	.L56
 916              	.LVL78:
 917              	.LBE110:
 918              	.LBE109:
 501:../../../../../../Drivers/STM32L0xx_HAL_Driver/Src/stm32l0xx_hal_rtc.c **** 
 919              		.loc 1 501 0
 920 0184 FF22     		movs	r2, #255
 921 0186 2368     		ldr	r3, [r4]
 508:../../../../../../Drivers/STM32L0xx_HAL_Driver/Src/stm32l0xx_hal_rtc.c ****       }
 922              		.loc 1 508 0
 923 0188 0120     		movs	r0, #1
 501:../../../../../../Drivers/STM32L0xx_HAL_Driver/Src/stm32l0xx_hal_rtc.c **** 
 924              		.loc 1 501 0
 925 018a 5A62     		str	r2, [r3, #36]
 503:../../../../../../Drivers/STM32L0xx_HAL_Driver/Src/stm32l0xx_hal_rtc.c **** 
 926              		.loc 1 503 0
 927 018c 2123     		movs	r3, #33
 928 018e FB3A     		subs	r2, r2, #251
 929 0190 E254     		strb	r2, [r4, r3]
 506:../../../../../../Drivers/STM32L0xx_HAL_Driver/Src/stm32l0xx_hal_rtc.c **** 
 930              		.loc 1 506 0
 931 0192 E555     		strb	r5, [r4, r7]
 508:../../../../../../Drivers/STM32L0xx_HAL_Driver/Src/stm32l0xx_hal_rtc.c ****       }
 932              		.loc 1 508 0
ARM GAS  C:\Users\EBANO_~1\AppData\Local\Temp\cc8t01eQ.s 			page 47


 933 0194 7EE7     		b	.L66
 934              	.LVL79:
 935              	.L62:
 936              	.LBB111:
 937              	.LBB107:
1494:../../../../../../Drivers/STM32L0xx_HAL_Driver/Src/stm32l0xx_hal_rtc.c ****   {
 938              		.loc 1 1494 0
 939 0196 0022     		movs	r2, #0
 940              	.LVL80:
 941 0198 ACE7     		b	.L46
 942              	.L71:
 943 019a C046     		.align	2
 944              	.L70:
 945 019c 7F7F7F00 		.word	8355711
 946 01a0 FFFFFBFF 		.word	-262145
 947              	.LBE107:
 948              	.LBE111:
 949              		.cfi_endproc
 950              	.LFE43:
 951              		.size	HAL_RTC_SetTime, .-HAL_RTC_SetTime
 952              		.section	.text.HAL_RTC_GetTime,"ax",%progbits
 953              		.align	1
 954              		.p2align 2,,3
 955              		.global	HAL_RTC_GetTime
 956              		.syntax unified
 957              		.code	16
 958              		.thumb_func
 959              		.fpu softvfp
 960              		.type	HAL_RTC_GetTime, %function
 961              	HAL_RTC_GetTime:
 962              	.LFB44:
 545:../../../../../../Drivers/STM32L0xx_HAL_Driver/Src/stm32l0xx_hal_rtc.c ****   uint32_t tmpreg = 0U;
 963              		.loc 1 545 0
 964              		.cfi_startproc
 965              		@ args = 0, pretend = 0, frame = 0
 966              		@ frame_needed = 0, uses_anonymous_args = 0
 967              	.LVL81:
 552:../../../../../../Drivers/STM32L0xx_HAL_Driver/Src/stm32l0xx_hal_rtc.c **** 
 968              		.loc 1 552 0
 969 0000 0068     		ldr	r0, [r0]
 970              	.LVL82:
 545:../../../../../../Drivers/STM32L0xx_HAL_Driver/Src/stm32l0xx_hal_rtc.c ****   uint32_t tmpreg = 0U;
 971              		.loc 1 545 0
 972 0002 70B5     		push	{r4, r5, r6, lr}
 973              	.LCFI4:
 974              		.cfi_def_cfa_offset 16
 975              		.cfi_offset 4, -16
 976              		.cfi_offset 5, -12
 977              		.cfi_offset 6, -8
 978              		.cfi_offset 14, -4
 552:../../../../../../Drivers/STM32L0xx_HAL_Driver/Src/stm32l0xx_hal_rtc.c **** 
 979              		.loc 1 552 0
 980 0004 836A     		ldr	r3, [r0, #40]
 564:../../../../../../Drivers/STM32L0xx_HAL_Driver/Src/stm32l0xx_hal_rtc.c **** 
 981              		.loc 1 564 0
 982 0006 4026     		movs	r6, #64
 552:../../../../../../Drivers/STM32L0xx_HAL_Driver/Src/stm32l0xx_hal_rtc.c **** 
ARM GAS  C:\Users\EBANO_~1\AppData\Local\Temp\cc8t01eQ.s 			page 48


 983              		.loc 1 552 0
 984 0008 4B60     		str	r3, [r1, #4]
 555:../../../../../../Drivers/STM32L0xx_HAL_Driver/Src/stm32l0xx_hal_rtc.c ****   
 985              		.loc 1 555 0
 986 000a 0369     		ldr	r3, [r0, #16]
 558:../../../../../../Drivers/STM32L0xx_HAL_Driver/Src/stm32l0xx_hal_rtc.c **** 
 987              		.loc 1 558 0
 988 000c 0468     		ldr	r4, [r0]
 561:../../../../../../Drivers/STM32L0xx_HAL_Driver/Src/stm32l0xx_hal_rtc.c ****   sTime->Minutes = (uint8_t)((tmpreg & (RTC_TR_MNT | RTC_TR_MNU)) >>8U);
 989              		.loc 1 561 0
 990 000e 3F20     		movs	r0, #63
 555:../../../../../../Drivers/STM32L0xx_HAL_Driver/Src/stm32l0xx_hal_rtc.c ****   
 991              		.loc 1 555 0
 992 0010 5B04     		lsls	r3, r3, #17
 993 0012 5B0C     		lsrs	r3, r3, #17
 994 0014 8B60     		str	r3, [r1, #8]
 558:../../../../../../Drivers/STM32L0xx_HAL_Driver/Src/stm32l0xx_hal_rtc.c **** 
 995              		.loc 1 558 0
 996 0016 134B     		ldr	r3, .L74
 997 0018 1C40     		ands	r4, r3
 998              	.LVL83:
 561:../../../../../../Drivers/STM32L0xx_HAL_Driver/Src/stm32l0xx_hal_rtc.c ****   sTime->Minutes = (uint8_t)((tmpreg & (RTC_TR_MNT | RTC_TR_MNU)) >>8U);
 999              		.loc 1 561 0
 1000 001a 250C     		lsrs	r5, r4, #16
 562:../../../../../../Drivers/STM32L0xx_HAL_Driver/Src/stm32l0xx_hal_rtc.c ****   sTime->Seconds = (uint8_t)(tmpreg & (RTC_TR_ST | RTC_TR_SU));
 1001              		.loc 1 562 0
 1002 001c 230A     		lsrs	r3, r4, #8
 561:../../../../../../Drivers/STM32L0xx_HAL_Driver/Src/stm32l0xx_hal_rtc.c ****   sTime->Minutes = (uint8_t)((tmpreg & (RTC_TR_MNT | RTC_TR_MNU)) >>8U);
 1003              		.loc 1 561 0
 1004 001e 2840     		ands	r0, r5
 562:../../../../../../Drivers/STM32L0xx_HAL_Driver/Src/stm32l0xx_hal_rtc.c ****   sTime->Seconds = (uint8_t)(tmpreg & (RTC_TR_ST | RTC_TR_SU));
 1005              		.loc 1 562 0
 1006 0020 DBB2     		uxtb	r3, r3
 563:../../../../../../Drivers/STM32L0xx_HAL_Driver/Src/stm32l0xx_hal_rtc.c ****   sTime->TimeFormat = (uint8_t)((tmpreg & (RTC_TR_PM)) >> 16U);
 1007              		.loc 1 563 0
 1008 0022 E4B2     		uxtb	r4, r4
 1009              	.LVL84:
 564:../../../../../../Drivers/STM32L0xx_HAL_Driver/Src/stm32l0xx_hal_rtc.c **** 
 1010              		.loc 1 564 0
 1011 0024 2E40     		ands	r6, r5
 561:../../../../../../Drivers/STM32L0xx_HAL_Driver/Src/stm32l0xx_hal_rtc.c ****   sTime->Minutes = (uint8_t)((tmpreg & (RTC_TR_MNT | RTC_TR_MNU)) >>8U);
 1012              		.loc 1 561 0
 1013 0026 0870     		strb	r0, [r1]
 562:../../../../../../Drivers/STM32L0xx_HAL_Driver/Src/stm32l0xx_hal_rtc.c ****   sTime->Seconds = (uint8_t)(tmpreg & (RTC_TR_ST | RTC_TR_SU));
 1014              		.loc 1 562 0
 1015 0028 4B70     		strb	r3, [r1, #1]
 563:../../../../../../Drivers/STM32L0xx_HAL_Driver/Src/stm32l0xx_hal_rtc.c ****   sTime->TimeFormat = (uint8_t)((tmpreg & (RTC_TR_PM)) >> 16U);
 1016              		.loc 1 563 0
 1017 002a 8C70     		strb	r4, [r1, #2]
 564:../../../../../../Drivers/STM32L0xx_HAL_Driver/Src/stm32l0xx_hal_rtc.c **** 
 1018              		.loc 1 564 0
 1019 002c CE70     		strb	r6, [r1, #3]
 567:../../../../../../Drivers/STM32L0xx_HAL_Driver/Src/stm32l0xx_hal_rtc.c ****   {
 1020              		.loc 1 567 0
 1021 002e 002A     		cmp	r2, #0
 1022 0030 15D1     		bne	.L73
 1023              	.LBB112:
ARM GAS  C:\Users\EBANO_~1\AppData\Local\Temp\cc8t01eQ.s 			page 49


 1024              	.LBB113:
1498:../../../../../../Drivers/STM32L0xx_HAL_Driver/Src/stm32l0xx_hal_rtc.c ****   }
1499:../../../../../../Drivers/STM32L0xx_HAL_Driver/Src/stm32l0xx_hal_rtc.c **** 
1500:../../../../../../Drivers/STM32L0xx_HAL_Driver/Src/stm32l0xx_hal_rtc.c ****   return  ((uint8_t)(bcdhigh << 4U) | Value);
1501:../../../../../../Drivers/STM32L0xx_HAL_Driver/Src/stm32l0xx_hal_rtc.c **** }
1502:../../../../../../Drivers/STM32L0xx_HAL_Driver/Src/stm32l0xx_hal_rtc.c **** 
1503:../../../../../../Drivers/STM32L0xx_HAL_Driver/Src/stm32l0xx_hal_rtc.c **** /**
1504:../../../../../../Drivers/STM32L0xx_HAL_Driver/Src/stm32l0xx_hal_rtc.c ****   * @brief  Convert from 2 digit BCD to Binary.
1505:../../../../../../Drivers/STM32L0xx_HAL_Driver/Src/stm32l0xx_hal_rtc.c ****   * @param  Value BCD value to be converted
1506:../../../../../../Drivers/STM32L0xx_HAL_Driver/Src/stm32l0xx_hal_rtc.c ****   * @retval Converted word
1507:../../../../../../Drivers/STM32L0xx_HAL_Driver/Src/stm32l0xx_hal_rtc.c ****   */
1508:../../../../../../Drivers/STM32L0xx_HAL_Driver/Src/stm32l0xx_hal_rtc.c **** uint8_t RTC_Bcd2ToByte(uint8_t Value)
1509:../../../../../../Drivers/STM32L0xx_HAL_Driver/Src/stm32l0xx_hal_rtc.c **** {
1510:../../../../../../Drivers/STM32L0xx_HAL_Driver/Src/stm32l0xx_hal_rtc.c ****   uint32_t tmp = 0U;
1511:../../../../../../Drivers/STM32L0xx_HAL_Driver/Src/stm32l0xx_hal_rtc.c ****   tmp = ((uint8_t)(Value & (uint8_t)0xF0U) >> (uint8_t)0x4U) * 10U;
1512:../../../../../../Drivers/STM32L0xx_HAL_Driver/Src/stm32l0xx_hal_rtc.c ****   return (tmp + (Value & (uint8_t)0x0FU));
 1025              		.loc 1 1512 0
 1026 0032 0F26     		movs	r6, #15
1511:../../../../../../Drivers/STM32L0xx_HAL_Driver/Src/stm32l0xx_hal_rtc.c ****   return (tmp + (Value & (uint8_t)0x0FU));
 1027              		.loc 1 1511 0
 1028 0034 0009     		lsrs	r0, r0, #4
 1029 0036 8200     		lsls	r2, r0, #2
 1030              	.LVL85:
 1031 0038 1018     		adds	r0, r2, r0
 1032 003a 4000     		lsls	r0, r0, #1
 1033              		.loc 1 1512 0
 1034 003c 3540     		ands	r5, r6
 1035 003e 4519     		adds	r5, r0, r5
 1036              	.LBE113:
 1037              	.LBE112:
 1038              	.LBB114:
 1039              	.LBB115:
1511:../../../../../../Drivers/STM32L0xx_HAL_Driver/Src/stm32l0xx_hal_rtc.c ****   return (tmp + (Value & (uint8_t)0x0FU));
 1040              		.loc 1 1511 0
 1041 0040 1809     		lsrs	r0, r3, #4
 1042 0042 8200     		lsls	r2, r0, #2
 1043 0044 1218     		adds	r2, r2, r0
 1044 0046 5200     		lsls	r2, r2, #1
 1045              		.loc 1 1512 0
 1046 0048 3340     		ands	r3, r6
 1047 004a D318     		adds	r3, r2, r3
 1048              	.LBE115:
 1049              	.LBE114:
 1050              	.LBB116:
 1051              	.LBB117:
1511:../../../../../../Drivers/STM32L0xx_HAL_Driver/Src/stm32l0xx_hal_rtc.c ****   return (tmp + (Value & (uint8_t)0x0FU));
 1052              		.loc 1 1511 0
 1053 004c 2209     		lsrs	r2, r4, #4
 1054              	.LBE117:
 1055              	.LBE116:
 571:../../../../../../Drivers/STM32L0xx_HAL_Driver/Src/stm32l0xx_hal_rtc.c ****     sTime->Seconds = (uint8_t)RTC_Bcd2ToByte(sTime->Seconds);
 1056              		.loc 1 571 0
 1057 004e 4B70     		strb	r3, [r1, #1]
 1058              	.LBB119:
 1059              	.LBB118:
1511:../../../../../../Drivers/STM32L0xx_HAL_Driver/Src/stm32l0xx_hal_rtc.c ****   return (tmp + (Value & (uint8_t)0x0FU));
 1060              		.loc 1 1511 0
ARM GAS  C:\Users\EBANO_~1\AppData\Local\Temp\cc8t01eQ.s 			page 50


 1061 0050 9300     		lsls	r3, r2, #2
 1062 0052 9B18     		adds	r3, r3, r2
 1063 0054 5B00     		lsls	r3, r3, #1
 1064              		.loc 1 1512 0
 1065 0056 3440     		ands	r4, r6
 1066 0058 1C19     		adds	r4, r3, r4
 1067              	.LBE118:
 1068              	.LBE119:
 570:../../../../../../Drivers/STM32L0xx_HAL_Driver/Src/stm32l0xx_hal_rtc.c ****     sTime->Minutes = (uint8_t)RTC_Bcd2ToByte(sTime->Minutes);
 1069              		.loc 1 570 0
 1070 005a 0D70     		strb	r5, [r1]
 572:../../../../../../Drivers/STM32L0xx_HAL_Driver/Src/stm32l0xx_hal_rtc.c ****   }
 1071              		.loc 1 572 0
 1072 005c 8C70     		strb	r4, [r1, #2]
 1073              	.L73:
 576:../../../../../../Drivers/STM32L0xx_HAL_Driver/Src/stm32l0xx_hal_rtc.c **** 
 1074              		.loc 1 576 0
 1075 005e 0020     		movs	r0, #0
 1076              		@ sp needed
 1077 0060 70BD     		pop	{r4, r5, r6, pc}
 1078              	.L75:
 1079 0062 C046     		.align	2
 1080              	.L74:
 1081 0064 7F7F7F00 		.word	8355711
 1082              		.cfi_endproc
 1083              	.LFE44:
 1084              		.size	HAL_RTC_GetTime, .-HAL_RTC_GetTime
 1085              		.section	.text.HAL_RTC_SetDate,"ax",%progbits
 1086              		.align	1
 1087              		.p2align 2,,3
 1088              		.global	HAL_RTC_SetDate
 1089              		.syntax unified
 1090              		.code	16
 1091              		.thumb_func
 1092              		.fpu softvfp
 1093              		.type	HAL_RTC_SetDate, %function
 1094              	HAL_RTC_SetDate:
 1095              	.LFB45:
 589:../../../../../../Drivers/STM32L0xx_HAL_Driver/Src/stm32l0xx_hal_rtc.c ****   uint32_t datetmpreg = 0U;
 1096              		.loc 1 589 0
 1097              		.cfi_startproc
 1098              		@ args = 0, pretend = 0, frame = 0
 1099              		@ frame_needed = 0, uses_anonymous_args = 0
 1100              	.LVL86:
 1101 0000 F8B5     		push	{r3, r4, r5, r6, r7, lr}
 1102              	.LCFI5:
 1103              		.cfi_def_cfa_offset 24
 1104              		.cfi_offset 3, -24
 1105              		.cfi_offset 4, -20
 1106              		.cfi_offset 5, -16
 1107              		.cfi_offset 6, -12
 1108              		.cfi_offset 7, -8
 1109              		.cfi_offset 14, -4
 1110 0002 CE46     		mov	lr, r9
 1111 0004 4746     		mov	r7, r8
 596:../../../../../../Drivers/STM32L0xx_HAL_Driver/Src/stm32l0xx_hal_rtc.c **** 
 1112              		.loc 1 596 0
ARM GAS  C:\Users\EBANO_~1\AppData\Local\Temp\cc8t01eQ.s 			page 51


 1113 0006 2023     		movs	r3, #32
 589:../../../../../../Drivers/STM32L0xx_HAL_Driver/Src/stm32l0xx_hal_rtc.c ****   uint32_t datetmpreg = 0U;
 1114              		.loc 1 589 0
 1115 0008 80B5     		push	{r7, lr}
 1116              	.LCFI6:
 1117              		.cfi_def_cfa_offset 32
 1118              		.cfi_offset 8, -32
 1119              		.cfi_offset 9, -28
 589:../../../../../../Drivers/STM32L0xx_HAL_Driver/Src/stm32l0xx_hal_rtc.c ****   uint32_t datetmpreg = 0U;
 1120              		.loc 1 589 0
 1121 000a 0500     		movs	r5, r0
 1122              	.LVL87:
 596:../../../../../../Drivers/STM32L0xx_HAL_Driver/Src/stm32l0xx_hal_rtc.c **** 
 1123              		.loc 1 596 0
 1124 000c C05C     		ldrb	r0, [r0, r3]
 1125              	.LVL88:
 1126 000e 0128     		cmp	r0, #1
 1127 0010 00D1     		bne	.LCB1019
 1128 0012 81E0     		b	.L95	@long jump
 1129              	.LCB1019:
 596:../../../../../../Drivers/STM32L0xx_HAL_Driver/Src/stm32l0xx_hal_rtc.c **** 
 1130              		.loc 1 596 0 is_stmt 0 discriminator 2
 1131 0014 0120     		movs	r0, #1
 1132 0016 0F78     		ldrb	r7, [r1]
 1133 0018 E854     		strb	r0, [r5, r3]
 598:../../../../../../Drivers/STM32L0xx_HAL_Driver/Src/stm32l0xx_hal_rtc.c **** 
 1134              		.loc 1 598 0 is_stmt 1 discriminator 2
 1135 001a 0133     		adds	r3, r3, #1
 1136 001c 0130     		adds	r0, r0, #1
 1137 001e E854     		strb	r0, [r5, r3]
 1138 0020 4878     		ldrb	r0, [r1, #1]
 1139 0022 8C78     		ldrb	r4, [r1, #2]
 1140 0024 CB78     		ldrb	r3, [r1, #3]
 1141 0026 7F03     		lsls	r7, r7, #13
 600:../../../../../../Drivers/STM32L0xx_HAL_Driver/Src/stm32l0xx_hal_rtc.c ****   {
 1142              		.loc 1 600 0 discriminator 2
 1143 0028 002A     		cmp	r2, #0
 1144 002a 23D0     		beq	.L107
 1145              	.LVL89:
 626:../../../../../../Drivers/STM32L0xx_HAL_Driver/Src/stm32l0xx_hal_rtc.c ****                   (((uint32_t)sDate->Month) << 8U) | \
 1146              		.loc 1 626 0
 1147 002c 1B04     		lsls	r3, r3, #16
 1148 002e 3B43     		orrs	r3, r7
 1149 0030 1C43     		orrs	r4, r3
 633:../../../../../../Drivers/STM32L0xx_HAL_Driver/Src/stm32l0xx_hal_rtc.c **** 
 1150              		.loc 1 633 0
 1151 0032 CA23     		movs	r3, #202
 1152 0034 2A68     		ldr	r2, [r5]
 1153              	.LVL90:
 627:../../../../../../Drivers/STM32L0xx_HAL_Driver/Src/stm32l0xx_hal_rtc.c ****                   ((uint32_t)sDate->Date) | \
 1154              		.loc 1 627 0
 1155 0036 0002     		lsls	r0, r0, #8
 633:../../../../../../Drivers/STM32L0xx_HAL_Driver/Src/stm32l0xx_hal_rtc.c **** 
 1156              		.loc 1 633 0
 1157 0038 5362     		str	r3, [r2, #36]
 1158              	.LVL91:
 1159 003a 773B     		subs	r3, r3, #119
ARM GAS  C:\Users\EBANO_~1\AppData\Local\Temp\cc8t01eQ.s 			page 52


 1160 003c 5362     		str	r3, [r2, #36]
 1161              	.LBB130:
 1162              	.LBB131:
1465:../../../../../../Drivers/STM32L0xx_HAL_Driver/Src/stm32l0xx_hal_rtc.c ****   {
 1163              		.loc 1 1465 0
 1164 003e D368     		ldr	r3, [r2, #12]
 1165              	.LBE131:
 1166              	.LBE130:
 626:../../../../../../Drivers/STM32L0xx_HAL_Driver/Src/stm32l0xx_hal_rtc.c ****                   (((uint32_t)sDate->Month) << 8U) | \
 1167              		.loc 1 626 0
 1168 0040 0443     		orrs	r4, r0
 1169              	.LVL92:
 1170              	.LBB134:
 1171              	.LBB132:
1465:../../../../../../Drivers/STM32L0xx_HAL_Driver/Src/stm32l0xx_hal_rtc.c ****   {
 1172              		.loc 1 1465 0
 1173 0042 5B06     		lsls	r3, r3, #25
 1174 0044 4AD5     		bpl	.L108
 1175              	.LVL93:
 1176              	.L85:
 1177              	.LBE132:
 1178              	.LBE134:
 655:../../../../../../Drivers/STM32L0xx_HAL_Driver/Src/stm32l0xx_hal_rtc.c **** 
 1179              		.loc 1 655 0
 1180 0046 8021     		movs	r1, #128
 652:../../../../../../Drivers/STM32L0xx_HAL_Driver/Src/stm32l0xx_hal_rtc.c **** 
 1181              		.loc 1 652 0
 1182 0048 4448     		ldr	r0, .L110
 1183 004a 2040     		ands	r0, r4
 1184 004c 5060     		str	r0, [r2, #4]
 655:../../../../../../Drivers/STM32L0xx_HAL_Driver/Src/stm32l0xx_hal_rtc.c **** 
 1185              		.loc 1 655 0
 1186 004e D368     		ldr	r3, [r2, #12]
 1187 0050 8B43     		bics	r3, r1
 1188 0052 D360     		str	r3, [r2, #12]
 658:../../../../../../Drivers/STM32L0xx_HAL_Driver/Src/stm32l0xx_hal_rtc.c ****     {
 1189              		.loc 1 658 0
 1190 0054 9368     		ldr	r3, [r2, #8]
 1191 0056 9B06     		lsls	r3, r3, #26
 1192 0058 60D5     		bpl	.L109
 1193              	.LVL94:
 1194              	.L89:
 675:../../../../../../Drivers/STM32L0xx_HAL_Driver/Src/stm32l0xx_hal_rtc.c **** 
 1195              		.loc 1 675 0
 1196 005a FF23     		movs	r3, #255
 1197 005c 5362     		str	r3, [r2, #36]
 677:../../../../../../Drivers/STM32L0xx_HAL_Driver/Src/stm32l0xx_hal_rtc.c **** 
 1198              		.loc 1 677 0
 1199 005e 0122     		movs	r2, #1
 1200 0060 DE3B     		subs	r3, r3, #222
 1201 0062 EA54     		strb	r2, [r5, r3]
 680:../../../../../../Drivers/STM32L0xx_HAL_Driver/Src/stm32l0xx_hal_rtc.c **** 
 1202              		.loc 1 680 0
 1203 0064 0022     		movs	r2, #0
 682:../../../../../../Drivers/STM32L0xx_HAL_Driver/Src/stm32l0xx_hal_rtc.c ****   }
 1204              		.loc 1 682 0
 1205 0066 0020     		movs	r0, #0
ARM GAS  C:\Users\EBANO_~1\AppData\Local\Temp\cc8t01eQ.s 			page 53


 680:../../../../../../Drivers/STM32L0xx_HAL_Driver/Src/stm32l0xx_hal_rtc.c **** 
 1206              		.loc 1 680 0
 1207 0068 013B     		subs	r3, r3, #1
 1208 006a EA54     		strb	r2, [r5, r3]
 1209              	.LVL95:
 1210              	.L106:
 684:../../../../../../Drivers/STM32L0xx_HAL_Driver/Src/stm32l0xx_hal_rtc.c **** 
 1211              		.loc 1 684 0
 1212              		@ sp needed
 1213              	.LVL96:
 1214 006c 0CBC     		pop	{r2, r3}
 1215 006e 9046     		mov	r8, r2
 1216 0070 9946     		mov	r9, r3
 1217 0072 F8BD     		pop	{r3, r4, r5, r6, r7, pc}
 1218              	.LVL97:
 1219              	.L107:
 600:../../../../../../Drivers/STM32L0xx_HAL_Driver/Src/stm32l0xx_hal_rtc.c ****   {
 1220              		.loc 1 600 0 discriminator 1
 1221 0074 1026     		movs	r6, #16
 1222 0076 0642     		tst	r6, r0
 1223 0078 03D0     		beq	.L79
 602:../../../../../../Drivers/STM32L0xx_HAL_Driver/Src/stm32l0xx_hal_rtc.c ****   }
 1224              		.loc 1 602 0
 1225 007a B043     		bics	r0, r6
 1226 007c 0A30     		adds	r0, r0, #10
 1227 007e C0B2     		uxtb	r0, r0
 1228 0080 4870     		strb	r0, [r1, #1]
 1229              	.L79:
 1230              	.LVL98:
 1231              	.LBB135:
 1232              	.LBB136:
1492:../../../../../../Drivers/STM32L0xx_HAL_Driver/Src/stm32l0xx_hal_rtc.c **** 
 1233              		.loc 1 1492 0
 1234 0082 0026     		movs	r6, #0
1494:../../../../../../Drivers/STM32L0xx_HAL_Driver/Src/stm32l0xx_hal_rtc.c ****   {
 1235              		.loc 1 1494 0
 1236 0084 092B     		cmp	r3, #9
 1237 0086 06D9     		bls	.L93
 1238              	.LVL99:
 1239              	.L80:
1497:../../../../../../Drivers/STM32L0xx_HAL_Driver/Src/stm32l0xx_hal_rtc.c ****   }
 1240              		.loc 1 1497 0
 1241 0088 0A3B     		subs	r3, r3, #10
 1242              	.LVL100:
 1243 008a DBB2     		uxtb	r3, r3
1496:../../../../../../Drivers/STM32L0xx_HAL_Driver/Src/stm32l0xx_hal_rtc.c ****     Value -= 10U;
 1244              		.loc 1 1496 0
 1245 008c 0136     		adds	r6, r6, #1
 1246              	.LVL101:
1494:../../../../../../Drivers/STM32L0xx_HAL_Driver/Src/stm32l0xx_hal_rtc.c ****   {
 1247              		.loc 1 1494 0
 1248 008e 092B     		cmp	r3, #9
 1249 0090 FAD8     		bhi	.L80
 1250 0092 3601     		lsls	r6, r6, #4
 1251              	.LVL102:
 1252 0094 F6B2     		uxtb	r6, r6
 1253              	.LVL103:
ARM GAS  C:\Users\EBANO_~1\AppData\Local\Temp\cc8t01eQ.s 			page 54


 1254              	.L93:
 1255              	.LBE136:
 1256              	.LBE135:
 613:../../../../../../Drivers/STM32L0xx_HAL_Driver/Src/stm32l0xx_hal_rtc.c ****                  ((uint32_t)RTC_ByteToBcd2(sDate->Month) << 8U) | \
 1257              		.loc 1 613 0
 1258 0096 3343     		orrs	r3, r6
 1259 0098 1B04     		lsls	r3, r3, #16
 1260              	.LVL104:
 1261              	.LBB137:
 1262              	.LBB138:
1492:../../../../../../Drivers/STM32L0xx_HAL_Driver/Src/stm32l0xx_hal_rtc.c **** 
 1263              		.loc 1 1492 0
 1264 009a 0021     		movs	r1, #0
 1265              	.LVL105:
1494:../../../../../../Drivers/STM32L0xx_HAL_Driver/Src/stm32l0xx_hal_rtc.c ****   {
 1266              		.loc 1 1494 0
 1267 009c 0928     		cmp	r0, #9
 1268 009e 06D9     		bls	.L81
 1269              	.LVL106:
 1270              	.L82:
1497:../../../../../../Drivers/STM32L0xx_HAL_Driver/Src/stm32l0xx_hal_rtc.c ****   }
 1271              		.loc 1 1497 0
 1272 00a0 0A38     		subs	r0, r0, #10
 1273              	.LVL107:
 1274 00a2 C0B2     		uxtb	r0, r0
1496:../../../../../../Drivers/STM32L0xx_HAL_Driver/Src/stm32l0xx_hal_rtc.c ****     Value -= 10U;
 1275              		.loc 1 1496 0
 1276 00a4 0131     		adds	r1, r1, #1
 1277              	.LVL108:
1494:../../../../../../Drivers/STM32L0xx_HAL_Driver/Src/stm32l0xx_hal_rtc.c ****   {
 1278              		.loc 1 1494 0
 1279 00a6 0928     		cmp	r0, #9
 1280 00a8 FAD8     		bhi	.L82
 1281 00aa 0901     		lsls	r1, r1, #4
 1282              	.LVL109:
 1283 00ac C9B2     		uxtb	r1, r1
 1284              	.LVL110:
 1285              	.L81:
 1286              	.LBE138:
 1287              	.LBE137:
 614:../../../../../../Drivers/STM32L0xx_HAL_Driver/Src/stm32l0xx_hal_rtc.c ****                  ((uint32_t)RTC_ByteToBcd2(sDate->Date)) | \
 1288              		.loc 1 614 0
 1289 00ae 0143     		orrs	r1, r0
 1290 00b0 0902     		lsls	r1, r1, #8
 1291              	.LVL111:
 1292              	.LBB139:
 1293              	.LBB140:
1494:../../../../../../Drivers/STM32L0xx_HAL_Driver/Src/stm32l0xx_hal_rtc.c ****   {
 1294              		.loc 1 1494 0
 1295 00b2 092C     		cmp	r4, #9
 1296 00b4 50D9     		bls	.L97
 1297              	.LVL112:
 1298              	.L84:
1497:../../../../../../Drivers/STM32L0xx_HAL_Driver/Src/stm32l0xx_hal_rtc.c ****   }
 1299              		.loc 1 1497 0
 1300 00b6 0A3C     		subs	r4, r4, #10
 1301              	.LVL113:
ARM GAS  C:\Users\EBANO_~1\AppData\Local\Temp\cc8t01eQ.s 			page 55


 1302 00b8 E4B2     		uxtb	r4, r4
1496:../../../../../../Drivers/STM32L0xx_HAL_Driver/Src/stm32l0xx_hal_rtc.c ****     Value -= 10U;
 1303              		.loc 1 1496 0
 1304 00ba 0132     		adds	r2, r2, #1
 1305              	.LVL114:
1494:../../../../../../Drivers/STM32L0xx_HAL_Driver/Src/stm32l0xx_hal_rtc.c ****   {
 1306              		.loc 1 1494 0
 1307 00bc 092C     		cmp	r4, #9
 1308 00be FAD8     		bhi	.L84
 1309 00c0 1201     		lsls	r2, r2, #4
 1310              	.LVL115:
 1311 00c2 D2B2     		uxtb	r2, r2
 1312              	.LVL116:
 1313              	.L83:
 1314              	.LBE140:
 1315              	.LBE139:
 613:../../../../../../Drivers/STM32L0xx_HAL_Driver/Src/stm32l0xx_hal_rtc.c ****                  ((uint32_t)RTC_ByteToBcd2(sDate->Month) << 8U) | \
 1316              		.loc 1 613 0
 1317 00c4 3B43     		orrs	r3, r7
 1318 00c6 1943     		orrs	r1, r3
 633:../../../../../../Drivers/STM32L0xx_HAL_Driver/Src/stm32l0xx_hal_rtc.c **** 
 1319              		.loc 1 633 0
 1320 00c8 CA23     		movs	r3, #202
 615:../../../../../../Drivers/STM32L0xx_HAL_Driver/Src/stm32l0xx_hal_rtc.c ****                  ((uint32_t)sDate->WeekDay << 13U));
 1321              		.loc 1 615 0
 1322 00ca 1443     		orrs	r4, r2
 633:../../../../../../Drivers/STM32L0xx_HAL_Driver/Src/stm32l0xx_hal_rtc.c **** 
 1323              		.loc 1 633 0
 1324 00cc 2A68     		ldr	r2, [r5]
 613:../../../../../../Drivers/STM32L0xx_HAL_Driver/Src/stm32l0xx_hal_rtc.c ****                  ((uint32_t)RTC_ByteToBcd2(sDate->Month) << 8U) | \
 1325              		.loc 1 613 0
 1326 00ce 0C43     		orrs	r4, r1
 1327              	.LVL117:
 633:../../../../../../Drivers/STM32L0xx_HAL_Driver/Src/stm32l0xx_hal_rtc.c **** 
 1328              		.loc 1 633 0
 1329 00d0 5362     		str	r3, [r2, #36]
 1330 00d2 773B     		subs	r3, r3, #119
 1331 00d4 5362     		str	r3, [r2, #36]
 1332              	.LVL118:
 1333              	.LBB142:
 1334              	.LBB133:
1465:../../../../../../Drivers/STM32L0xx_HAL_Driver/Src/stm32l0xx_hal_rtc.c ****   {
