ARM GAS  C:\Users\EBANO_~1\AppData\Local\Temp\cc7eeVhF.s 			page 1


   1              		.cpu cortex-m0plus
   2              		.eabi_attribute 20, 1
   3              		.eabi_attribute 21, 1
   4              		.eabi_attribute 23, 3
   5              		.eabi_attribute 24, 1
   6              		.eabi_attribute 25, 1
   7              		.eabi_attribute 26, 1
   8              		.eabi_attribute 30, 2
   9              		.eabi_attribute 34, 0
  10              		.eabi_attribute 18, 4
  11              		.file	"stm32l0xx_hal_adc.c"
  12              		.text
  13              	.Ltext0:
  14              		.cfi_sections	.debug_frame
  15              		.section	.text.HAL_ADC_MspInit,"ax",%progbits
  16              		.align	1
  17              		.p2align 2,,3
  18              		.weak	HAL_ADC_MspInit
  19              		.syntax unified
  20              		.code	16
  21              		.thumb_func
  22              		.fpu softvfp
  23              		.type	HAL_ADC_MspInit, %function
  24              	HAL_ADC_MspInit:
  25              	.LFB41:
  26              		.file 1 "../../../../../../Drivers/STM32L0xx_HAL_Driver/Src/stm32l0xx_hal_adc.c"
   1:../../../../../../Drivers/STM32L0xx_HAL_Driver/Src/stm32l0xx_hal_adc.c **** /**
   2:../../../../../../Drivers/STM32L0xx_HAL_Driver/Src/stm32l0xx_hal_adc.c ****   ******************************************************************************
   3:../../../../../../Drivers/STM32L0xx_HAL_Driver/Src/stm32l0xx_hal_adc.c ****   * @file    stm32l0xx_hal_adc.c
   4:../../../../../../Drivers/STM32L0xx_HAL_Driver/Src/stm32l0xx_hal_adc.c ****   * @author  MCD Application Team
   5:../../../../../../Drivers/STM32L0xx_HAL_Driver/Src/stm32l0xx_hal_adc.c ****   * @brief   This file provides firmware functions to manage the following 
   6:../../../../../../Drivers/STM32L0xx_HAL_Driver/Src/stm32l0xx_hal_adc.c ****   *          functionalities of the Analog to Digital Convertor (ADC)
   7:../../../../../../Drivers/STM32L0xx_HAL_Driver/Src/stm32l0xx_hal_adc.c ****   *          peripheral:
   8:../../../../../../Drivers/STM32L0xx_HAL_Driver/Src/stm32l0xx_hal_adc.c ****   *           + Initialization and de-initialization functions
   9:../../../../../../Drivers/STM32L0xx_HAL_Driver/Src/stm32l0xx_hal_adc.c ****   *             ++ Initialization and Configuration of ADC
  10:../../../../../../Drivers/STM32L0xx_HAL_Driver/Src/stm32l0xx_hal_adc.c ****   *           + Operation functions
  11:../../../../../../Drivers/STM32L0xx_HAL_Driver/Src/stm32l0xx_hal_adc.c ****   *             ++ Start, stop, get result of conversions of regular
  12:../../../../../../Drivers/STM32L0xx_HAL_Driver/Src/stm32l0xx_hal_adc.c ****   *                group, using 3 possible modes: polling, interruption or DMA.
  13:../../../../../../Drivers/STM32L0xx_HAL_Driver/Src/stm32l0xx_hal_adc.c ****   *           + Control functions
  14:../../../../../../Drivers/STM32L0xx_HAL_Driver/Src/stm32l0xx_hal_adc.c ****   *             ++ Channels configuration on regular group
  15:../../../../../../Drivers/STM32L0xx_HAL_Driver/Src/stm32l0xx_hal_adc.c ****   *             ++ Analog Watchdog configuration
  16:../../../../../../Drivers/STM32L0xx_HAL_Driver/Src/stm32l0xx_hal_adc.c ****   *           + State functions
  17:../../../../../../Drivers/STM32L0xx_HAL_Driver/Src/stm32l0xx_hal_adc.c ****   *             ++ ADC state machine management
  18:../../../../../../Drivers/STM32L0xx_HAL_Driver/Src/stm32l0xx_hal_adc.c ****   *             ++ Interrupts and flags management
  19:../../../../../../Drivers/STM32L0xx_HAL_Driver/Src/stm32l0xx_hal_adc.c ****   *          Other functions (extended functions) are available in file 
  20:../../../../../../Drivers/STM32L0xx_HAL_Driver/Src/stm32l0xx_hal_adc.c ****   *          "stm32l0xx_hal_adc_ex.c".
  21:../../../../../../Drivers/STM32L0xx_HAL_Driver/Src/stm32l0xx_hal_adc.c ****   *
  22:../../../../../../Drivers/STM32L0xx_HAL_Driver/Src/stm32l0xx_hal_adc.c ****   @verbatim
  23:../../../../../../Drivers/STM32L0xx_HAL_Driver/Src/stm32l0xx_hal_adc.c ****   ==============================================================================
  24:../../../../../../Drivers/STM32L0xx_HAL_Driver/Src/stm32l0xx_hal_adc.c ****                      ##### ADC peripheral features #####
  25:../../../../../../Drivers/STM32L0xx_HAL_Driver/Src/stm32l0xx_hal_adc.c ****   ==============================================================================
  26:../../../../../../Drivers/STM32L0xx_HAL_Driver/Src/stm32l0xx_hal_adc.c ****   [..]
  27:../../../../../../Drivers/STM32L0xx_HAL_Driver/Src/stm32l0xx_hal_adc.c ****   (+) 12-bit, 10-bit, 8-bit or 6-bit configurable resolution.
  28:../../../../../../Drivers/STM32L0xx_HAL_Driver/Src/stm32l0xx_hal_adc.c **** 
  29:../../../../../../Drivers/STM32L0xx_HAL_Driver/Src/stm32l0xx_hal_adc.c ****   (+) Interrupt generation at the end of regular conversion and in case of 
  30:../../../../../../Drivers/STM32L0xx_HAL_Driver/Src/stm32l0xx_hal_adc.c ****       analog watchdog or overrun events.
  31:../../../../../../Drivers/STM32L0xx_HAL_Driver/Src/stm32l0xx_hal_adc.c ****   
ARM GAS  C:\Users\EBANO_~1\AppData\Local\Temp\cc7eeVhF.s 			page 2


  32:../../../../../../Drivers/STM32L0xx_HAL_Driver/Src/stm32l0xx_hal_adc.c ****   (+) Single and continuous conversion modes.
  33:../../../../../../Drivers/STM32L0xx_HAL_Driver/Src/stm32l0xx_hal_adc.c ****   
  34:../../../../../../Drivers/STM32L0xx_HAL_Driver/Src/stm32l0xx_hal_adc.c ****   (+) Scan mode for conversion of several channels sequentially.
  35:../../../../../../Drivers/STM32L0xx_HAL_Driver/Src/stm32l0xx_hal_adc.c ****   
  36:../../../../../../Drivers/STM32L0xx_HAL_Driver/Src/stm32l0xx_hal_adc.c ****   (+) Data alignment with in-built data coherency.
  37:../../../../../../Drivers/STM32L0xx_HAL_Driver/Src/stm32l0xx_hal_adc.c ****   
  38:../../../../../../Drivers/STM32L0xx_HAL_Driver/Src/stm32l0xx_hal_adc.c ****   (+) Programmable sampling time (common for all channels)
  39:../../../../../../Drivers/STM32L0xx_HAL_Driver/Src/stm32l0xx_hal_adc.c ****   
  40:../../../../../../Drivers/STM32L0xx_HAL_Driver/Src/stm32l0xx_hal_adc.c ****   (+) External trigger (timer or EXTI) with configurable polarity
  41:../../../../../../Drivers/STM32L0xx_HAL_Driver/Src/stm32l0xx_hal_adc.c ****   
  42:../../../../../../Drivers/STM32L0xx_HAL_Driver/Src/stm32l0xx_hal_adc.c ****   (+) DMA request generation for transfer of conversions data of regular group.
  43:../../../../../../Drivers/STM32L0xx_HAL_Driver/Src/stm32l0xx_hal_adc.c **** 
  44:../../../../../../Drivers/STM32L0xx_HAL_Driver/Src/stm32l0xx_hal_adc.c ****   (+) ADC calibration
  45:../../../../../../Drivers/STM32L0xx_HAL_Driver/Src/stm32l0xx_hal_adc.c ****   
  46:../../../../../../Drivers/STM32L0xx_HAL_Driver/Src/stm32l0xx_hal_adc.c ****   (+) ADC conversion of regular group.
  47:../../../../../../Drivers/STM32L0xx_HAL_Driver/Src/stm32l0xx_hal_adc.c ****   
  48:../../../../../../Drivers/STM32L0xx_HAL_Driver/Src/stm32l0xx_hal_adc.c ****   (+) ADC supply requirements: 1.62 V to 3.6 V.
  49:../../../../../../Drivers/STM32L0xx_HAL_Driver/Src/stm32l0xx_hal_adc.c ****   
  50:../../../../../../Drivers/STM32L0xx_HAL_Driver/Src/stm32l0xx_hal_adc.c ****   (+) ADC input range: from Vref- (connected to Vssa) to Vref+ (connected to 
  51:../../../../../../Drivers/STM32L0xx_HAL_Driver/Src/stm32l0xx_hal_adc.c ****       Vdda or to an external voltage reference).
  52:../../../../../../Drivers/STM32L0xx_HAL_Driver/Src/stm32l0xx_hal_adc.c **** 
  53:../../../../../../Drivers/STM32L0xx_HAL_Driver/Src/stm32l0xx_hal_adc.c **** 
  54:../../../../../../Drivers/STM32L0xx_HAL_Driver/Src/stm32l0xx_hal_adc.c ****                      ##### How to use this driver #####
  55:../../../../../../Drivers/STM32L0xx_HAL_Driver/Src/stm32l0xx_hal_adc.c ****   ==============================================================================
  56:../../../../../../Drivers/STM32L0xx_HAL_Driver/Src/stm32l0xx_hal_adc.c ****     [..]
  57:../../../../../../Drivers/STM32L0xx_HAL_Driver/Src/stm32l0xx_hal_adc.c **** 
  58:../../../../../../Drivers/STM32L0xx_HAL_Driver/Src/stm32l0xx_hal_adc.c ****      *** Configuration of top level parameters related to ADC ***
  59:../../../../../../Drivers/STM32L0xx_HAL_Driver/Src/stm32l0xx_hal_adc.c ****      ============================================================
  60:../../../../../../Drivers/STM32L0xx_HAL_Driver/Src/stm32l0xx_hal_adc.c ****      [..]
  61:../../../../../../Drivers/STM32L0xx_HAL_Driver/Src/stm32l0xx_hal_adc.c **** 
  62:../../../../../../Drivers/STM32L0xx_HAL_Driver/Src/stm32l0xx_hal_adc.c ****     (#) Enable the ADC interface
  63:../../../../../../Drivers/STM32L0xx_HAL_Driver/Src/stm32l0xx_hal_adc.c ****         (++) As prerequisite, ADC clock must be configured at RCC top level.
  64:../../../../../../Drivers/STM32L0xx_HAL_Driver/Src/stm32l0xx_hal_adc.c ****              Caution: On STM32L0, ADC clock frequency max is 16MHz (refer
  65:../../../../../../Drivers/STM32L0xx_HAL_Driver/Src/stm32l0xx_hal_adc.c ****                       to device datasheet).
  66:../../../../../../Drivers/STM32L0xx_HAL_Driver/Src/stm32l0xx_hal_adc.c ****                       Therefore, ADC clock prescaler must be configured in 
  67:../../../../../../Drivers/STM32L0xx_HAL_Driver/Src/stm32l0xx_hal_adc.c ****                       function of ADC clock source frequency to remain below
  68:../../../../../../Drivers/STM32L0xx_HAL_Driver/Src/stm32l0xx_hal_adc.c ****                       this maximum frequency.
  69:../../../../../../Drivers/STM32L0xx_HAL_Driver/Src/stm32l0xx_hal_adc.c **** 
  70:../../../../../../Drivers/STM32L0xx_HAL_Driver/Src/stm32l0xx_hal_adc.c ****         (++) Two clock settings are mandatory: 
  71:../../../../../../Drivers/STM32L0xx_HAL_Driver/Src/stm32l0xx_hal_adc.c ****              (+++) ADC clock (core clock, also possibly conversion clock).
  72:../../../../../../Drivers/STM32L0xx_HAL_Driver/Src/stm32l0xx_hal_adc.c **** 
  73:../../../../../../Drivers/STM32L0xx_HAL_Driver/Src/stm32l0xx_hal_adc.c ****              (+++) ADC clock (conversions clock).
  74:../../../../../../Drivers/STM32L0xx_HAL_Driver/Src/stm32l0xx_hal_adc.c ****                    Two possible clock sources: synchronous clock derived from APB clock
  75:../../../../../../Drivers/STM32L0xx_HAL_Driver/Src/stm32l0xx_hal_adc.c ****                    or asynchronous clock derived from ADC dedicated HSI RC oscillator
  76:../../../../../../Drivers/STM32L0xx_HAL_Driver/Src/stm32l0xx_hal_adc.c ****                    16MHz.
  77:../../../../../../Drivers/STM32L0xx_HAL_Driver/Src/stm32l0xx_hal_adc.c ****                    If asynchronous clock is selected, parameter "HSIState" must be set either:
  78:../../../../../../Drivers/STM32L0xx_HAL_Driver/Src/stm32l0xx_hal_adc.c ****                    - to "...HSIState = RCC_HSI_ON" to maintain the HSI16 oscillator
  79:../../../../../../Drivers/STM32L0xx_HAL_Driver/Src/stm32l0xx_hal_adc.c ****                      always enabled: can be used to supply the main system clock.
  80:../../../../../../Drivers/STM32L0xx_HAL_Driver/Src/stm32l0xx_hal_adc.c **** 
  81:../../../../../../Drivers/STM32L0xx_HAL_Driver/Src/stm32l0xx_hal_adc.c ****              (+++) Example:
  82:../../../../../../Drivers/STM32L0xx_HAL_Driver/Src/stm32l0xx_hal_adc.c ****                    Into HAL_ADC_MspInit() (recommended code location) or with
  83:../../../../../../Drivers/STM32L0xx_HAL_Driver/Src/stm32l0xx_hal_adc.c ****                    other device clock parameters configuration:
  84:../../../../../../Drivers/STM32L0xx_HAL_Driver/Src/stm32l0xx_hal_adc.c ****                (+++) __HAL_RCC_ADC1_CLK_ENABLE();                 (mandatory)
  85:../../../../../../Drivers/STM32L0xx_HAL_Driver/Src/stm32l0xx_hal_adc.c **** 
  86:../../../../../../Drivers/STM32L0xx_HAL_Driver/Src/stm32l0xx_hal_adc.c ****                HSI enable                                         (optional: if asynchronous clock 
  87:../../../../../../Drivers/STM32L0xx_HAL_Driver/Src/stm32l0xx_hal_adc.c ****                (+++) RCC_OscInitTypeDef   RCC_OscInitStructure;
  88:../../../../../../Drivers/STM32L0xx_HAL_Driver/Src/stm32l0xx_hal_adc.c ****                (+++) RCC_OscInitStructure.OscillatorType = RCC_OSCILLATORTYPE_HSI;
ARM GAS  C:\Users\EBANO_~1\AppData\Local\Temp\cc7eeVhF.s 			page 3


  89:../../../../../../Drivers/STM32L0xx_HAL_Driver/Src/stm32l0xx_hal_adc.c ****                (+++) RCC_OscInitStructure.HSI16CalibrationValue = RCC_HSICALIBRATION_DEFAULT;
  90:../../../../../../Drivers/STM32L0xx_HAL_Driver/Src/stm32l0xx_hal_adc.c ****                (+++) RCC_OscInitStructure.HSIState = RCC_HSI_ON;
  91:../../../../../../Drivers/STM32L0xx_HAL_Driver/Src/stm32l0xx_hal_adc.c ****                (+++) RCC_OscInitStructure.PLL...   (optional if used for system clock)
  92:../../../../../../Drivers/STM32L0xx_HAL_Driver/Src/stm32l0xx_hal_adc.c ****                (+++) HAL_RCC_OscConfig(&RCC_OscInitStructure);
  93:../../../../../../Drivers/STM32L0xx_HAL_Driver/Src/stm32l0xx_hal_adc.c **** 
  94:../../../../../../Drivers/STM32L0xx_HAL_Driver/Src/stm32l0xx_hal_adc.c ****         (++) ADC clock source and clock prescaler are configured at ADC level with
  95:../../../../../../Drivers/STM32L0xx_HAL_Driver/Src/stm32l0xx_hal_adc.c ****              parameter "ClockPrescaler" using function HAL_ADC_Init().
  96:../../../../../../Drivers/STM32L0xx_HAL_Driver/Src/stm32l0xx_hal_adc.c **** 
  97:../../../../../../Drivers/STM32L0xx_HAL_Driver/Src/stm32l0xx_hal_adc.c ****     (#) ADC pins configuration
  98:../../../../../../Drivers/STM32L0xx_HAL_Driver/Src/stm32l0xx_hal_adc.c ****          (++) Enable the clock for the ADC GPIOs
  99:../../../../../../Drivers/STM32L0xx_HAL_Driver/Src/stm32l0xx_hal_adc.c ****               using macro __HAL_RCC_GPIOx_CLK_ENABLE()
 100:../../../../../../Drivers/STM32L0xx_HAL_Driver/Src/stm32l0xx_hal_adc.c ****          (++) Configure these ADC pins in analog mode
 101:../../../../../../Drivers/STM32L0xx_HAL_Driver/Src/stm32l0xx_hal_adc.c ****               using function HAL_GPIO_Init()
 102:../../../../../../Drivers/STM32L0xx_HAL_Driver/Src/stm32l0xx_hal_adc.c **** 
 103:../../../../../../Drivers/STM32L0xx_HAL_Driver/Src/stm32l0xx_hal_adc.c ****     (#) Optionally, in case of usage of ADC with interruptions:
 104:../../../../../../Drivers/STM32L0xx_HAL_Driver/Src/stm32l0xx_hal_adc.c ****          (++) Configure the NVIC for ADC
 105:../../../../../../Drivers/STM32L0xx_HAL_Driver/Src/stm32l0xx_hal_adc.c ****               using function HAL_NVIC_EnableIRQ(ADCx_IRQn)
 106:../../../../../../Drivers/STM32L0xx_HAL_Driver/Src/stm32l0xx_hal_adc.c ****          (++) Insert the ADC interruption handler function HAL_ADC_IRQHandler() 
 107:../../../../../../Drivers/STM32L0xx_HAL_Driver/Src/stm32l0xx_hal_adc.c ****               into the function of corresponding ADC interruption vector 
 108:../../../../../../Drivers/STM32L0xx_HAL_Driver/Src/stm32l0xx_hal_adc.c ****               ADCx_IRQHandler().
 109:../../../../../../Drivers/STM32L0xx_HAL_Driver/Src/stm32l0xx_hal_adc.c **** 
 110:../../../../../../Drivers/STM32L0xx_HAL_Driver/Src/stm32l0xx_hal_adc.c ****     (#) Optionally, in case of usage of DMA:
 111:../../../../../../Drivers/STM32L0xx_HAL_Driver/Src/stm32l0xx_hal_adc.c ****          (++) Configure the DMA (DMA channel, mode normal or circular, ...)
 112:../../../../../../Drivers/STM32L0xx_HAL_Driver/Src/stm32l0xx_hal_adc.c ****               using function HAL_DMA_Init().
 113:../../../../../../Drivers/STM32L0xx_HAL_Driver/Src/stm32l0xx_hal_adc.c ****          (++) Configure the NVIC for DMA
 114:../../../../../../Drivers/STM32L0xx_HAL_Driver/Src/stm32l0xx_hal_adc.c ****               using function HAL_NVIC_EnableIRQ(DMAx_Channelx_IRQn)
 115:../../../../../../Drivers/STM32L0xx_HAL_Driver/Src/stm32l0xx_hal_adc.c ****          (++) Insert the ADC interruption handler function HAL_ADC_IRQHandler() 
 116:../../../../../../Drivers/STM32L0xx_HAL_Driver/Src/stm32l0xx_hal_adc.c ****               into the function of corresponding DMA interruption vector 
 117:../../../../../../Drivers/STM32L0xx_HAL_Driver/Src/stm32l0xx_hal_adc.c ****               DMAx_Channelx_IRQHandler().
 118:../../../../../../Drivers/STM32L0xx_HAL_Driver/Src/stm32l0xx_hal_adc.c **** 
 119:../../../../../../Drivers/STM32L0xx_HAL_Driver/Src/stm32l0xx_hal_adc.c ****      *** Configuration of ADC, group regular, channels parameters ***
 120:../../../../../../Drivers/STM32L0xx_HAL_Driver/Src/stm32l0xx_hal_adc.c ****      ================================================================
 121:../../../../../../Drivers/STM32L0xx_HAL_Driver/Src/stm32l0xx_hal_adc.c ****      [..]
 122:../../../../../../Drivers/STM32L0xx_HAL_Driver/Src/stm32l0xx_hal_adc.c **** 
 123:../../../../../../Drivers/STM32L0xx_HAL_Driver/Src/stm32l0xx_hal_adc.c ****     (#) Configure the ADC parameters (resolution, data alignment, ...)
 124:../../../../../../Drivers/STM32L0xx_HAL_Driver/Src/stm32l0xx_hal_adc.c ****         and regular group parameters (conversion trigger, sequencer, ...)
 125:../../../../../../Drivers/STM32L0xx_HAL_Driver/Src/stm32l0xx_hal_adc.c ****         using function HAL_ADC_Init().
 126:../../../../../../Drivers/STM32L0xx_HAL_Driver/Src/stm32l0xx_hal_adc.c **** 
 127:../../../../../../Drivers/STM32L0xx_HAL_Driver/Src/stm32l0xx_hal_adc.c ****     (#) Configure the channels for regular group parameters (channel number, 
 128:../../../../../../Drivers/STM32L0xx_HAL_Driver/Src/stm32l0xx_hal_adc.c ****         channel rank into sequencer, ..., into regular group)
 129:../../../../../../Drivers/STM32L0xx_HAL_Driver/Src/stm32l0xx_hal_adc.c ****         using function HAL_ADC_ConfigChannel().
 130:../../../../../../Drivers/STM32L0xx_HAL_Driver/Src/stm32l0xx_hal_adc.c **** 
 131:../../../../../../Drivers/STM32L0xx_HAL_Driver/Src/stm32l0xx_hal_adc.c ****     (#) Optionally, configure the analog watchdog parameters (channels
 132:../../../../../../Drivers/STM32L0xx_HAL_Driver/Src/stm32l0xx_hal_adc.c ****         monitored, thresholds, ...)
 133:../../../../../../Drivers/STM32L0xx_HAL_Driver/Src/stm32l0xx_hal_adc.c ****         using function HAL_ADC_AnalogWDGConfig().
 134:../../../../../../Drivers/STM32L0xx_HAL_Driver/Src/stm32l0xx_hal_adc.c **** 
 135:../../../../../../Drivers/STM32L0xx_HAL_Driver/Src/stm32l0xx_hal_adc.c **** 
 136:../../../../../../Drivers/STM32L0xx_HAL_Driver/Src/stm32l0xx_hal_adc.c ****     (#) When device is in mode low-power (low-power run, low-power sleep or stop mode), 
 137:../../../../../../Drivers/STM32L0xx_HAL_Driver/Src/stm32l0xx_hal_adc.c ****         function "HAL_ADCEx_EnableVREFINT()" must be called before function HAL_ADC_Init().
 138:../../../../../../Drivers/STM32L0xx_HAL_Driver/Src/stm32l0xx_hal_adc.c ****         In case of internal temperature sensor to be measured:
 139:../../../../../../Drivers/STM32L0xx_HAL_Driver/Src/stm32l0xx_hal_adc.c ****         function "HAL_ADCEx_EnableVREFINTTempSensor()" must be called similarilly
 140:../../../../../../Drivers/STM32L0xx_HAL_Driver/Src/stm32l0xx_hal_adc.c **** 
 141:../../../../../../Drivers/STM32L0xx_HAL_Driver/Src/stm32l0xx_hal_adc.c ****      *** Execution of ADC conversions ***
 142:../../../../../../Drivers/STM32L0xx_HAL_Driver/Src/stm32l0xx_hal_adc.c ****      ====================================
 143:../../../../../../Drivers/STM32L0xx_HAL_Driver/Src/stm32l0xx_hal_adc.c ****      [..]
 144:../../../../../../Drivers/STM32L0xx_HAL_Driver/Src/stm32l0xx_hal_adc.c **** 
 145:../../../../../../Drivers/STM32L0xx_HAL_Driver/Src/stm32l0xx_hal_adc.c ****     (#) Optionally, perform an automatic ADC calibration to improve the
ARM GAS  C:\Users\EBANO_~1\AppData\Local\Temp\cc7eeVhF.s 			page 4


 146:../../../../../../Drivers/STM32L0xx_HAL_Driver/Src/stm32l0xx_hal_adc.c ****         conversion accuracy
 147:../../../../../../Drivers/STM32L0xx_HAL_Driver/Src/stm32l0xx_hal_adc.c ****         using function HAL_ADCEx_Calibration_Start().
 148:../../../../../../Drivers/STM32L0xx_HAL_Driver/Src/stm32l0xx_hal_adc.c **** 
 149:../../../../../../Drivers/STM32L0xx_HAL_Driver/Src/stm32l0xx_hal_adc.c ****     (#) ADC driver can be used among three modes: polling, interruption,
 150:../../../../../../Drivers/STM32L0xx_HAL_Driver/Src/stm32l0xx_hal_adc.c ****         transfer by DMA.
 151:../../../../../../Drivers/STM32L0xx_HAL_Driver/Src/stm32l0xx_hal_adc.c **** 
 152:../../../../../../Drivers/STM32L0xx_HAL_Driver/Src/stm32l0xx_hal_adc.c ****         (++) ADC conversion by polling:
 153:../../../../../../Drivers/STM32L0xx_HAL_Driver/Src/stm32l0xx_hal_adc.c ****           (+++) Activate the ADC peripheral and start conversions
 154:../../../../../../Drivers/STM32L0xx_HAL_Driver/Src/stm32l0xx_hal_adc.c ****                 using function HAL_ADC_Start()
 155:../../../../../../Drivers/STM32L0xx_HAL_Driver/Src/stm32l0xx_hal_adc.c ****           (+++) Wait for ADC conversion completion 
 156:../../../../../../Drivers/STM32L0xx_HAL_Driver/Src/stm32l0xx_hal_adc.c ****                 using function HAL_ADC_PollForConversion()
 157:../../../../../../Drivers/STM32L0xx_HAL_Driver/Src/stm32l0xx_hal_adc.c ****           (+++) Retrieve conversion results 
 158:../../../../../../Drivers/STM32L0xx_HAL_Driver/Src/stm32l0xx_hal_adc.c ****                 using function HAL_ADC_GetValue()
 159:../../../../../../Drivers/STM32L0xx_HAL_Driver/Src/stm32l0xx_hal_adc.c ****           (+++) Stop conversion and disable the ADC peripheral 
 160:../../../../../../Drivers/STM32L0xx_HAL_Driver/Src/stm32l0xx_hal_adc.c ****                 using function HAL_ADC_Stop()
 161:../../../../../../Drivers/STM32L0xx_HAL_Driver/Src/stm32l0xx_hal_adc.c **** 
 162:../../../../../../Drivers/STM32L0xx_HAL_Driver/Src/stm32l0xx_hal_adc.c ****         (++) ADC conversion by interruption: 
 163:../../../../../../Drivers/STM32L0xx_HAL_Driver/Src/stm32l0xx_hal_adc.c ****           (+++) Activate the ADC peripheral and start conversions
 164:../../../../../../Drivers/STM32L0xx_HAL_Driver/Src/stm32l0xx_hal_adc.c ****                 using function HAL_ADC_Start_IT()
 165:../../../../../../Drivers/STM32L0xx_HAL_Driver/Src/stm32l0xx_hal_adc.c ****           (+++) Wait for ADC conversion completion by call of function
 166:../../../../../../Drivers/STM32L0xx_HAL_Driver/Src/stm32l0xx_hal_adc.c ****                 HAL_ADC_ConvCpltCallback()
 167:../../../../../../Drivers/STM32L0xx_HAL_Driver/Src/stm32l0xx_hal_adc.c ****                 (this function must be implemented in user program)
 168:../../../../../../Drivers/STM32L0xx_HAL_Driver/Src/stm32l0xx_hal_adc.c ****           (+++) Retrieve conversion results 
 169:../../../../../../Drivers/STM32L0xx_HAL_Driver/Src/stm32l0xx_hal_adc.c ****                 using function HAL_ADC_GetValue()
 170:../../../../../../Drivers/STM32L0xx_HAL_Driver/Src/stm32l0xx_hal_adc.c ****           (+++) Stop conversion and disable the ADC peripheral 
 171:../../../../../../Drivers/STM32L0xx_HAL_Driver/Src/stm32l0xx_hal_adc.c ****                 using function HAL_ADC_Stop_IT()
 172:../../../../../../Drivers/STM32L0xx_HAL_Driver/Src/stm32l0xx_hal_adc.c **** 
 173:../../../../../../Drivers/STM32L0xx_HAL_Driver/Src/stm32l0xx_hal_adc.c ****         (++) ADC conversion with transfer by DMA:
 174:../../../../../../Drivers/STM32L0xx_HAL_Driver/Src/stm32l0xx_hal_adc.c ****           (+++) Activate the ADC peripheral and start conversions
 175:../../../../../../Drivers/STM32L0xx_HAL_Driver/Src/stm32l0xx_hal_adc.c ****                 using function HAL_ADC_Start_DMA()
 176:../../../../../../Drivers/STM32L0xx_HAL_Driver/Src/stm32l0xx_hal_adc.c ****           (+++) Wait for ADC conversion completion by call of function
 177:../../../../../../Drivers/STM32L0xx_HAL_Driver/Src/stm32l0xx_hal_adc.c ****                 HAL_ADC_ConvCpltCallback() or HAL_ADC_ConvHalfCpltCallback()
 178:../../../../../../Drivers/STM32L0xx_HAL_Driver/Src/stm32l0xx_hal_adc.c ****                 (these functions must be implemented in user program)
 179:../../../../../../Drivers/STM32L0xx_HAL_Driver/Src/stm32l0xx_hal_adc.c ****           (+++) Conversion results are automatically transferred by DMA into
 180:../../../../../../Drivers/STM32L0xx_HAL_Driver/Src/stm32l0xx_hal_adc.c ****                 destination variable address.
 181:../../../../../../Drivers/STM32L0xx_HAL_Driver/Src/stm32l0xx_hal_adc.c ****           (+++) Stop conversion and disable the ADC peripheral 
 182:../../../../../../Drivers/STM32L0xx_HAL_Driver/Src/stm32l0xx_hal_adc.c ****                 using function HAL_ADC_Stop_DMA()
 183:../../../../../../Drivers/STM32L0xx_HAL_Driver/Src/stm32l0xx_hal_adc.c **** 
 184:../../../../../../Drivers/STM32L0xx_HAL_Driver/Src/stm32l0xx_hal_adc.c ****      [..]
 185:../../../../../../Drivers/STM32L0xx_HAL_Driver/Src/stm32l0xx_hal_adc.c **** 
 186:../../../../../../Drivers/STM32L0xx_HAL_Driver/Src/stm32l0xx_hal_adc.c ****     (@) Callback functions must be implemented in user program:
 187:../../../../../../Drivers/STM32L0xx_HAL_Driver/Src/stm32l0xx_hal_adc.c ****       (+@) HAL_ADC_ErrorCallback()
 188:../../../../../../Drivers/STM32L0xx_HAL_Driver/Src/stm32l0xx_hal_adc.c ****       (+@) HAL_ADC_LevelOutOfWindowCallback() (callback of analog watchdog)
 189:../../../../../../Drivers/STM32L0xx_HAL_Driver/Src/stm32l0xx_hal_adc.c ****       (+@) HAL_ADC_ConvCpltCallback()
 190:../../../../../../Drivers/STM32L0xx_HAL_Driver/Src/stm32l0xx_hal_adc.c ****       (+@) HAL_ADC_ConvHalfCpltCallback
 191:../../../../../../Drivers/STM32L0xx_HAL_Driver/Src/stm32l0xx_hal_adc.c **** 
 192:../../../../../../Drivers/STM32L0xx_HAL_Driver/Src/stm32l0xx_hal_adc.c ****      *** Deinitialization of ADC ***
 193:../../../../../../Drivers/STM32L0xx_HAL_Driver/Src/stm32l0xx_hal_adc.c ****      ============================================================
 194:../../../../../../Drivers/STM32L0xx_HAL_Driver/Src/stm32l0xx_hal_adc.c ****      [..]
 195:../../../../../../Drivers/STM32L0xx_HAL_Driver/Src/stm32l0xx_hal_adc.c **** 
 196:../../../../../../Drivers/STM32L0xx_HAL_Driver/Src/stm32l0xx_hal_adc.c ****     (#) Disable the ADC interface
 197:../../../../../../Drivers/STM32L0xx_HAL_Driver/Src/stm32l0xx_hal_adc.c ****       (++) ADC clock can be hard reset and disabled at RCC top level.
 198:../../../../../../Drivers/STM32L0xx_HAL_Driver/Src/stm32l0xx_hal_adc.c ****         (++) Hard reset of ADC peripherals
 199:../../../../../../Drivers/STM32L0xx_HAL_Driver/Src/stm32l0xx_hal_adc.c ****              using macro __ADCx_FORCE_RESET(), __ADCx_RELEASE_RESET().
 200:../../../../../../Drivers/STM32L0xx_HAL_Driver/Src/stm32l0xx_hal_adc.c ****         (++) ADC clock disable
 201:../../../../../../Drivers/STM32L0xx_HAL_Driver/Src/stm32l0xx_hal_adc.c ****              using the equivalent macro/functions as configuration step.
 202:../../../../../../Drivers/STM32L0xx_HAL_Driver/Src/stm32l0xx_hal_adc.c ****              (+++) Example:
ARM GAS  C:\Users\EBANO_~1\AppData\Local\Temp\cc7eeVhF.s 			page 5


 203:../../../../../../Drivers/STM32L0xx_HAL_Driver/Src/stm32l0xx_hal_adc.c ****                    Into HAL_ADC_MspDeInit() (recommended code location) or with
 204:../../../../../../Drivers/STM32L0xx_HAL_Driver/Src/stm32l0xx_hal_adc.c ****                    other device clock parameters configuration:
 205:../../../../../../Drivers/STM32L0xx_HAL_Driver/Src/stm32l0xx_hal_adc.c ****                (+++) RCC_OscInitStructure.OscillatorType = RCC_OSCILLATORTYPE_HSI;
 206:../../../../../../Drivers/STM32L0xx_HAL_Driver/Src/stm32l0xx_hal_adc.c ****                (+++) RCC_OscInitStructure.HSIState = RCC_HSI_OFF; (if not used for system clock)
 207:../../../../../../Drivers/STM32L0xx_HAL_Driver/Src/stm32l0xx_hal_adc.c ****                (+++) HAL_RCC_OscConfig(&RCC_OscInitStructure);
 208:../../../../../../Drivers/STM32L0xx_HAL_Driver/Src/stm32l0xx_hal_adc.c **** 
 209:../../../../../../Drivers/STM32L0xx_HAL_Driver/Src/stm32l0xx_hal_adc.c ****     (#) ADC pins configuration
 210:../../../../../../Drivers/STM32L0xx_HAL_Driver/Src/stm32l0xx_hal_adc.c ****          (++) Disable the clock for the ADC GPIOs
 211:../../../../../../Drivers/STM32L0xx_HAL_Driver/Src/stm32l0xx_hal_adc.c ****               using macro __HAL_RCC_GPIOx_CLK_DISABLE()
 212:../../../../../../Drivers/STM32L0xx_HAL_Driver/Src/stm32l0xx_hal_adc.c **** 
 213:../../../../../../Drivers/STM32L0xx_HAL_Driver/Src/stm32l0xx_hal_adc.c ****     (#) Optionally, in case of usage of ADC with interruptions:
 214:../../../../../../Drivers/STM32L0xx_HAL_Driver/Src/stm32l0xx_hal_adc.c ****          (++) Disable the NVIC for ADC
 215:../../../../../../Drivers/STM32L0xx_HAL_Driver/Src/stm32l0xx_hal_adc.c ****               using function HAL_NVIC_EnableIRQ(ADCx_IRQn)
 216:../../../../../../Drivers/STM32L0xx_HAL_Driver/Src/stm32l0xx_hal_adc.c **** 
 217:../../../../../../Drivers/STM32L0xx_HAL_Driver/Src/stm32l0xx_hal_adc.c ****     (#) Optionally, in case of usage of DMA:
 218:../../../../../../Drivers/STM32L0xx_HAL_Driver/Src/stm32l0xx_hal_adc.c ****          (++) Deinitialize the DMA
 219:../../../../../../Drivers/STM32L0xx_HAL_Driver/Src/stm32l0xx_hal_adc.c ****               using function HAL_DMA_Init().
 220:../../../../../../Drivers/STM32L0xx_HAL_Driver/Src/stm32l0xx_hal_adc.c ****          (++) Disable the NVIC for DMA
 221:../../../../../../Drivers/STM32L0xx_HAL_Driver/Src/stm32l0xx_hal_adc.c ****               using function HAL_NVIC_EnableIRQ(DMAx_Channelx_IRQn)
 222:../../../../../../Drivers/STM32L0xx_HAL_Driver/Src/stm32l0xx_hal_adc.c **** 
 223:../../../../../../Drivers/STM32L0xx_HAL_Driver/Src/stm32l0xx_hal_adc.c ****     [..]
 224:../../../../../../Drivers/STM32L0xx_HAL_Driver/Src/stm32l0xx_hal_adc.c ****   
 225:../../../../../../Drivers/STM32L0xx_HAL_Driver/Src/stm32l0xx_hal_adc.c ****     @endverbatim
 226:../../../../../../Drivers/STM32L0xx_HAL_Driver/Src/stm32l0xx_hal_adc.c ****   ******************************************************************************
 227:../../../../../../Drivers/STM32L0xx_HAL_Driver/Src/stm32l0xx_hal_adc.c ****   * @attention
 228:../../../../../../Drivers/STM32L0xx_HAL_Driver/Src/stm32l0xx_hal_adc.c ****   *
 229:../../../../../../Drivers/STM32L0xx_HAL_Driver/Src/stm32l0xx_hal_adc.c ****   * <h2><center>&copy; COPYRIGHT(c) 2016 STMicroelectronics</center></h2>
 230:../../../../../../Drivers/STM32L0xx_HAL_Driver/Src/stm32l0xx_hal_adc.c ****   *
 231:../../../../../../Drivers/STM32L0xx_HAL_Driver/Src/stm32l0xx_hal_adc.c ****   * Redistribution and use in source and binary forms, with or without modification,
 232:../../../../../../Drivers/STM32L0xx_HAL_Driver/Src/stm32l0xx_hal_adc.c ****   * are permitted provided that the following conditions are met:
 233:../../../../../../Drivers/STM32L0xx_HAL_Driver/Src/stm32l0xx_hal_adc.c ****   *   1. Redistributions of source code must retain the above copyright notice,
 234:../../../../../../Drivers/STM32L0xx_HAL_Driver/Src/stm32l0xx_hal_adc.c ****   *      this list of conditions and the following disclaimer.
 235:../../../../../../Drivers/STM32L0xx_HAL_Driver/Src/stm32l0xx_hal_adc.c ****   *   2. Redistributions in binary form must reproduce the above copyright notice,
 236:../../../../../../Drivers/STM32L0xx_HAL_Driver/Src/stm32l0xx_hal_adc.c ****   *      this list of conditions and the following disclaimer in the documentation
 237:../../../../../../Drivers/STM32L0xx_HAL_Driver/Src/stm32l0xx_hal_adc.c ****   *      and/or other materials provided with the distribution.
 238:../../../../../../Drivers/STM32L0xx_HAL_Driver/Src/stm32l0xx_hal_adc.c ****   *   3. Neither the name of STMicroelectronics nor the names of its contributors
 239:../../../../../../Drivers/STM32L0xx_HAL_Driver/Src/stm32l0xx_hal_adc.c ****   *      may be used to endorse or promote products derived from this software
 240:../../../../../../Drivers/STM32L0xx_HAL_Driver/Src/stm32l0xx_hal_adc.c ****   *      without specific prior written permission.
 241:../../../../../../Drivers/STM32L0xx_HAL_Driver/Src/stm32l0xx_hal_adc.c ****   *
 242:../../../../../../Drivers/STM32L0xx_HAL_Driver/Src/stm32l0xx_hal_adc.c ****   * THIS SOFTWARE IS PROVIDED BY THE COPYRIGHT HOLDERS AND CONTRIBUTORS "AS IS"
 243:../../../../../../Drivers/STM32L0xx_HAL_Driver/Src/stm32l0xx_hal_adc.c ****   * AND ANY EXPRESS OR IMPLIED WARRANTIES, INCLUDING, BUT NOT LIMITED TO, THE
 244:../../../../../../Drivers/STM32L0xx_HAL_Driver/Src/stm32l0xx_hal_adc.c ****   * IMPLIED WARRANTIES OF MERCHANTABILITY AND FITNESS FOR A PARTICULAR PURPOSE ARE
 245:../../../../../../Drivers/STM32L0xx_HAL_Driver/Src/stm32l0xx_hal_adc.c ****   * DISCLAIMED. IN NO EVENT SHALL THE COPYRIGHT HOLDER OR CONTRIBUTORS BE LIABLE
 246:../../../../../../Drivers/STM32L0xx_HAL_Driver/Src/stm32l0xx_hal_adc.c ****   * FOR ANY DIRECT, INDIRECT, INCIDENTAL, SPECIAL, EXEMPLARY, OR CONSEQUENTIAL
 247:../../../../../../Drivers/STM32L0xx_HAL_Driver/Src/stm32l0xx_hal_adc.c ****   * DAMAGES (INCLUDING, BUT NOT LIMITED TO, PROCUREMENT OF SUBSTITUTE GOODS OR
 248:../../../../../../Drivers/STM32L0xx_HAL_Driver/Src/stm32l0xx_hal_adc.c ****   * SERVICES; LOSS OF USE, DATA, OR PROFITS; OR BUSINESS INTERRUPTION) HOWEVER
 249:../../../../../../Drivers/STM32L0xx_HAL_Driver/Src/stm32l0xx_hal_adc.c ****   * CAUSED AND ON ANY THEORY OF LIABILITY, WHETHER IN CONTRACT, STRICT LIABILITY,
 250:../../../../../../Drivers/STM32L0xx_HAL_Driver/Src/stm32l0xx_hal_adc.c ****   * OR TORT (INCLUDING NEGLIGENCE OR OTHERWISE) ARISING IN ANY WAY OUT OF THE USE
 251:../../../../../../Drivers/STM32L0xx_HAL_Driver/Src/stm32l0xx_hal_adc.c ****   * OF THIS SOFTWARE, EVEN IF ADVISED OF THE POSSIBILITY OF SUCH DAMAGE.
 252:../../../../../../Drivers/STM32L0xx_HAL_Driver/Src/stm32l0xx_hal_adc.c ****   *
 253:../../../../../../Drivers/STM32L0xx_HAL_Driver/Src/stm32l0xx_hal_adc.c ****   ******************************************************************************  
 254:../../../../../../Drivers/STM32L0xx_HAL_Driver/Src/stm32l0xx_hal_adc.c ****   */
 255:../../../../../../Drivers/STM32L0xx_HAL_Driver/Src/stm32l0xx_hal_adc.c **** 
 256:../../../../../../Drivers/STM32L0xx_HAL_Driver/Src/stm32l0xx_hal_adc.c **** /* Includes ------------------------------------------------------------------*/
 257:../../../../../../Drivers/STM32L0xx_HAL_Driver/Src/stm32l0xx_hal_adc.c **** #include "stm32l0xx_hal.h"
 258:../../../../../../Drivers/STM32L0xx_HAL_Driver/Src/stm32l0xx_hal_adc.c **** 
 259:../../../../../../Drivers/STM32L0xx_HAL_Driver/Src/stm32l0xx_hal_adc.c **** /** @addtogroup STM32L0xx_HAL_Driver
ARM GAS  C:\Users\EBANO_~1\AppData\Local\Temp\cc7eeVhF.s 			page 6


 260:../../../../../../Drivers/STM32L0xx_HAL_Driver/Src/stm32l0xx_hal_adc.c ****   * @{
 261:../../../../../../Drivers/STM32L0xx_HAL_Driver/Src/stm32l0xx_hal_adc.c ****   */
 262:../../../../../../Drivers/STM32L0xx_HAL_Driver/Src/stm32l0xx_hal_adc.c **** 
 263:../../../../../../Drivers/STM32L0xx_HAL_Driver/Src/stm32l0xx_hal_adc.c **** /** @defgroup ADC ADC
 264:../../../../../../Drivers/STM32L0xx_HAL_Driver/Src/stm32l0xx_hal_adc.c ****   * @brief ADC HAL module driver
 265:../../../../../../Drivers/STM32L0xx_HAL_Driver/Src/stm32l0xx_hal_adc.c ****   * @{
 266:../../../../../../Drivers/STM32L0xx_HAL_Driver/Src/stm32l0xx_hal_adc.c ****   */
 267:../../../../../../Drivers/STM32L0xx_HAL_Driver/Src/stm32l0xx_hal_adc.c **** 
 268:../../../../../../Drivers/STM32L0xx_HAL_Driver/Src/stm32l0xx_hal_adc.c **** #ifdef HAL_ADC_MODULE_ENABLED
 269:../../../../../../Drivers/STM32L0xx_HAL_Driver/Src/stm32l0xx_hal_adc.c **** 
 270:../../../../../../Drivers/STM32L0xx_HAL_Driver/Src/stm32l0xx_hal_adc.c **** /* Private typedef -----------------------------------------------------------*/
 271:../../../../../../Drivers/STM32L0xx_HAL_Driver/Src/stm32l0xx_hal_adc.c **** /* Private define ------------------------------------------------------------*/
 272:../../../../../../Drivers/STM32L0xx_HAL_Driver/Src/stm32l0xx_hal_adc.c **** 
 273:../../../../../../Drivers/STM32L0xx_HAL_Driver/Src/stm32l0xx_hal_adc.c **** /** @defgroup ADC_Private_Constants ADC Private Constants
 274:../../../../../../Drivers/STM32L0xx_HAL_Driver/Src/stm32l0xx_hal_adc.c ****   * @{
 275:../../../../../../Drivers/STM32L0xx_HAL_Driver/Src/stm32l0xx_hal_adc.c ****   */
 276:../../../../../../Drivers/STM32L0xx_HAL_Driver/Src/stm32l0xx_hal_adc.c **** 
 277:../../../../../../Drivers/STM32L0xx_HAL_Driver/Src/stm32l0xx_hal_adc.c **** /* Delay for ADC stabilization time.                                          */
 278:../../../../../../Drivers/STM32L0xx_HAL_Driver/Src/stm32l0xx_hal_adc.c **** /* Maximum delay is 1us (refer to device datasheet, parameter tSTART). */
 279:../../../../../../Drivers/STM32L0xx_HAL_Driver/Src/stm32l0xx_hal_adc.c **** /* Unit: us */
 280:../../../../../../Drivers/STM32L0xx_HAL_Driver/Src/stm32l0xx_hal_adc.c **** #define ADC_STAB_DELAY_US       ((uint32_t) 1U)
 281:../../../../../../Drivers/STM32L0xx_HAL_Driver/Src/stm32l0xx_hal_adc.c **** 
 282:../../../../../../Drivers/STM32L0xx_HAL_Driver/Src/stm32l0xx_hal_adc.c **** /* Delay for temperature sensor stabilization time. */
 283:../../../../../../Drivers/STM32L0xx_HAL_Driver/Src/stm32l0xx_hal_adc.c **** /* Maximum delay is 10us (refer to device datasheet, parameter tSTART). */
 284:../../../../../../Drivers/STM32L0xx_HAL_Driver/Src/stm32l0xx_hal_adc.c **** /* Unit: us */
 285:../../../../../../Drivers/STM32L0xx_HAL_Driver/Src/stm32l0xx_hal_adc.c **** #define ADC_TEMPSENSOR_DELAY_US ((uint32_t) 10U) 
 286:../../../../../../Drivers/STM32L0xx_HAL_Driver/Src/stm32l0xx_hal_adc.c **** /**
 287:../../../../../../Drivers/STM32L0xx_HAL_Driver/Src/stm32l0xx_hal_adc.c ****   * @}
 288:../../../../../../Drivers/STM32L0xx_HAL_Driver/Src/stm32l0xx_hal_adc.c ****   */
 289:../../../../../../Drivers/STM32L0xx_HAL_Driver/Src/stm32l0xx_hal_adc.c **** 
 290:../../../../../../Drivers/STM32L0xx_HAL_Driver/Src/stm32l0xx_hal_adc.c **** /* Private macro -------------------------------------------------------------*/
 291:../../../../../../Drivers/STM32L0xx_HAL_Driver/Src/stm32l0xx_hal_adc.c **** /* Private variables ---------------------------------------------------------*/
 292:../../../../../../Drivers/STM32L0xx_HAL_Driver/Src/stm32l0xx_hal_adc.c **** /* Private function prototypes -----------------------------------------------*/
 293:../../../../../../Drivers/STM32L0xx_HAL_Driver/Src/stm32l0xx_hal_adc.c **** /** @defgroup ADC_Private_Functions ADC Private Functions
 294:../../../../../../Drivers/STM32L0xx_HAL_Driver/Src/stm32l0xx_hal_adc.c ****   * @{
 295:../../../../../../Drivers/STM32L0xx_HAL_Driver/Src/stm32l0xx_hal_adc.c ****   */
 296:../../../../../../Drivers/STM32L0xx_HAL_Driver/Src/stm32l0xx_hal_adc.c **** static HAL_StatusTypeDef ADC_Enable(ADC_HandleTypeDef* hadc);
 297:../../../../../../Drivers/STM32L0xx_HAL_Driver/Src/stm32l0xx_hal_adc.c **** static HAL_StatusTypeDef ADC_Disable(ADC_HandleTypeDef* hadc);
 298:../../../../../../Drivers/STM32L0xx_HAL_Driver/Src/stm32l0xx_hal_adc.c **** static HAL_StatusTypeDef ADC_ConversionStop(ADC_HandleTypeDef* hadc);
 299:../../../../../../Drivers/STM32L0xx_HAL_Driver/Src/stm32l0xx_hal_adc.c **** static void ADC_DMAConvCplt(DMA_HandleTypeDef *hdma);
 300:../../../../../../Drivers/STM32L0xx_HAL_Driver/Src/stm32l0xx_hal_adc.c **** static void ADC_DMAHalfConvCplt(DMA_HandleTypeDef *hdma);
 301:../../../../../../Drivers/STM32L0xx_HAL_Driver/Src/stm32l0xx_hal_adc.c **** static void ADC_DMAError(DMA_HandleTypeDef *hdma);
 302:../../../../../../Drivers/STM32L0xx_HAL_Driver/Src/stm32l0xx_hal_adc.c **** static void ADC_DelayMicroSecond(uint32_t microSecond);
 303:../../../../../../Drivers/STM32L0xx_HAL_Driver/Src/stm32l0xx_hal_adc.c **** /**
 304:../../../../../../Drivers/STM32L0xx_HAL_Driver/Src/stm32l0xx_hal_adc.c ****   * @}
 305:../../../../../../Drivers/STM32L0xx_HAL_Driver/Src/stm32l0xx_hal_adc.c ****   */
 306:../../../../../../Drivers/STM32L0xx_HAL_Driver/Src/stm32l0xx_hal_adc.c **** 
 307:../../../../../../Drivers/STM32L0xx_HAL_Driver/Src/stm32l0xx_hal_adc.c **** /* Exported functions ---------------------------------------------------------*/
 308:../../../../../../Drivers/STM32L0xx_HAL_Driver/Src/stm32l0xx_hal_adc.c **** 
 309:../../../../../../Drivers/STM32L0xx_HAL_Driver/Src/stm32l0xx_hal_adc.c **** /** @defgroup ADC_Exported_Functions ADC Exported Functions
 310:../../../../../../Drivers/STM32L0xx_HAL_Driver/Src/stm32l0xx_hal_adc.c ****   * @{
 311:../../../../../../Drivers/STM32L0xx_HAL_Driver/Src/stm32l0xx_hal_adc.c ****   */
 312:../../../../../../Drivers/STM32L0xx_HAL_Driver/Src/stm32l0xx_hal_adc.c **** 
 313:../../../../../../Drivers/STM32L0xx_HAL_Driver/Src/stm32l0xx_hal_adc.c **** /** @defgroup ADC_Exported_Functions_Group1 Initialization and de-initialization functions
 314:../../../../../../Drivers/STM32L0xx_HAL_Driver/Src/stm32l0xx_hal_adc.c ****   * @brief    ADC Initialization and Configuration functions
 315:../../../../../../Drivers/STM32L0xx_HAL_Driver/Src/stm32l0xx_hal_adc.c ****   *
 316:../../../../../../Drivers/STM32L0xx_HAL_Driver/Src/stm32l0xx_hal_adc.c **** @verbatim    
ARM GAS  C:\Users\EBANO_~1\AppData\Local\Temp\cc7eeVhF.s 			page 7


 317:../../../../../../Drivers/STM32L0xx_HAL_Driver/Src/stm32l0xx_hal_adc.c ****  ===============================================================================
 318:../../../../../../Drivers/STM32L0xx_HAL_Driver/Src/stm32l0xx_hal_adc.c ****               ##### Initialization and de-initialization functions #####
 319:../../../../../../Drivers/STM32L0xx_HAL_Driver/Src/stm32l0xx_hal_adc.c ****  ===============================================================================
 320:../../../../../../Drivers/STM32L0xx_HAL_Driver/Src/stm32l0xx_hal_adc.c ****     [..]  This section provides functions allowing to:
 321:../../../../../../Drivers/STM32L0xx_HAL_Driver/Src/stm32l0xx_hal_adc.c ****       (+) Initialize and configure the ADC. 
 322:../../../../../../Drivers/STM32L0xx_HAL_Driver/Src/stm32l0xx_hal_adc.c ****       (+) De-initialize the ADC.
 323:../../../../../../Drivers/STM32L0xx_HAL_Driver/Src/stm32l0xx_hal_adc.c **** @endverbatim
 324:../../../../../../Drivers/STM32L0xx_HAL_Driver/Src/stm32l0xx_hal_adc.c ****   * @{
 325:../../../../../../Drivers/STM32L0xx_HAL_Driver/Src/stm32l0xx_hal_adc.c ****   */
 326:../../../../../../Drivers/STM32L0xx_HAL_Driver/Src/stm32l0xx_hal_adc.c **** 
 327:../../../../../../Drivers/STM32L0xx_HAL_Driver/Src/stm32l0xx_hal_adc.c **** /**
 328:../../../../../../Drivers/STM32L0xx_HAL_Driver/Src/stm32l0xx_hal_adc.c ****   * @brief  Initialize the ADC peripheral and regular group according to  
 329:../../../../../../Drivers/STM32L0xx_HAL_Driver/Src/stm32l0xx_hal_adc.c ****   *         parameters specified in structure "ADC_InitTypeDef".
 330:../../../../../../Drivers/STM32L0xx_HAL_Driver/Src/stm32l0xx_hal_adc.c ****   * @note   As prerequisite, ADC clock must be configured at RCC top level
 331:../../../../../../Drivers/STM32L0xx_HAL_Driver/Src/stm32l0xx_hal_adc.c ****   *         depending on possible clock sources: APB clock of HSI clock.
 332:../../../../../../Drivers/STM32L0xx_HAL_Driver/Src/stm32l0xx_hal_adc.c ****   *         See commented example code below that can be copied and uncommented
 333:../../../../../../Drivers/STM32L0xx_HAL_Driver/Src/stm32l0xx_hal_adc.c ****   *         into HAL_ADC_MspInit().
 334:../../../../../../Drivers/STM32L0xx_HAL_Driver/Src/stm32l0xx_hal_adc.c ****   * @note   Possibility to update parameters on the fly:
 335:../../../../../../Drivers/STM32L0xx_HAL_Driver/Src/stm32l0xx_hal_adc.c ****   *         This function initializes the ADC MSP (HAL_ADC_MspInit()) only when
 336:../../../../../../Drivers/STM32L0xx_HAL_Driver/Src/stm32l0xx_hal_adc.c ****   *         coming from ADC state reset. Following calls to this function can
 337:../../../../../../Drivers/STM32L0xx_HAL_Driver/Src/stm32l0xx_hal_adc.c ****   *         be used to reconfigure some parameters of ADC_InitTypeDef  
 338:../../../../../../Drivers/STM32L0xx_HAL_Driver/Src/stm32l0xx_hal_adc.c ****   *         structure on the fly, without modifying MSP configuration. If ADC  
 339:../../../../../../Drivers/STM32L0xx_HAL_Driver/Src/stm32l0xx_hal_adc.c ****   *         MSP has to be modified again, HAL_ADC_DeInit() must be called
 340:../../../../../../Drivers/STM32L0xx_HAL_Driver/Src/stm32l0xx_hal_adc.c ****   *         before HAL_ADC_Init().
 341:../../../../../../Drivers/STM32L0xx_HAL_Driver/Src/stm32l0xx_hal_adc.c ****   *         The setting of these parameters is conditioned to ADC state.
 342:../../../../../../Drivers/STM32L0xx_HAL_Driver/Src/stm32l0xx_hal_adc.c ****   *         For parameters constraints, see comments of structure 
 343:../../../../../../Drivers/STM32L0xx_HAL_Driver/Src/stm32l0xx_hal_adc.c ****   *         "ADC_InitTypeDef".
 344:../../../../../../Drivers/STM32L0xx_HAL_Driver/Src/stm32l0xx_hal_adc.c ****   * @note   This function configures the ADC within 2 scopes: scope of entire 
 345:../../../../../../Drivers/STM32L0xx_HAL_Driver/Src/stm32l0xx_hal_adc.c ****   *         ADC and scope of regular group. For parameters details, see comments 
 346:../../../../../../Drivers/STM32L0xx_HAL_Driver/Src/stm32l0xx_hal_adc.c ****   *         of structure "ADC_InitTypeDef".
 347:../../../../../../Drivers/STM32L0xx_HAL_Driver/Src/stm32l0xx_hal_adc.c ****   * @note   When device is in mode low-power (low-power run, low-power sleep or stop mode), 
 348:../../../../../../Drivers/STM32L0xx_HAL_Driver/Src/stm32l0xx_hal_adc.c ****   *         function "HAL_ADCEx_EnableVREFINT()" must be called before function HAL_ADC_Init() 
 349:../../../../../../Drivers/STM32L0xx_HAL_Driver/Src/stm32l0xx_hal_adc.c ****   *         (in case of previous ADC operations: function HAL_ADC_DeInit() must be called first).
 350:../../../../../../Drivers/STM32L0xx_HAL_Driver/Src/stm32l0xx_hal_adc.c ****   *         In case of internal temperature sensor to be measured:
 351:../../../../../../Drivers/STM32L0xx_HAL_Driver/Src/stm32l0xx_hal_adc.c ****   *         function "HAL_ADCEx_EnableVREFINTTempSensor()" must be called similarilly.  
 352:../../../../../../Drivers/STM32L0xx_HAL_Driver/Src/stm32l0xx_hal_adc.c ****   * @param  hadc ADC handle
 353:../../../../../../Drivers/STM32L0xx_HAL_Driver/Src/stm32l0xx_hal_adc.c ****   * @retval HAL status
 354:../../../../../../Drivers/STM32L0xx_HAL_Driver/Src/stm32l0xx_hal_adc.c ****   */
 355:../../../../../../Drivers/STM32L0xx_HAL_Driver/Src/stm32l0xx_hal_adc.c **** HAL_StatusTypeDef HAL_ADC_Init(ADC_HandleTypeDef* hadc)
 356:../../../../../../Drivers/STM32L0xx_HAL_Driver/Src/stm32l0xx_hal_adc.c **** {
 357:../../../../../../Drivers/STM32L0xx_HAL_Driver/Src/stm32l0xx_hal_adc.c ****  
 358:../../../../../../Drivers/STM32L0xx_HAL_Driver/Src/stm32l0xx_hal_adc.c ****   /* Check ADC handle */
 359:../../../../../../Drivers/STM32L0xx_HAL_Driver/Src/stm32l0xx_hal_adc.c ****   if(hadc == NULL)
 360:../../../../../../Drivers/STM32L0xx_HAL_Driver/Src/stm32l0xx_hal_adc.c ****   {
 361:../../../../../../Drivers/STM32L0xx_HAL_Driver/Src/stm32l0xx_hal_adc.c ****     return HAL_ERROR;
 362:../../../../../../Drivers/STM32L0xx_HAL_Driver/Src/stm32l0xx_hal_adc.c ****   }
 363:../../../../../../Drivers/STM32L0xx_HAL_Driver/Src/stm32l0xx_hal_adc.c ****   
 364:../../../../../../Drivers/STM32L0xx_HAL_Driver/Src/stm32l0xx_hal_adc.c ****   /* Check the parameters */
 365:../../../../../../Drivers/STM32L0xx_HAL_Driver/Src/stm32l0xx_hal_adc.c ****   assert_param(IS_ADC_ALL_INSTANCE(hadc->Instance));
 366:../../../../../../Drivers/STM32L0xx_HAL_Driver/Src/stm32l0xx_hal_adc.c ****   assert_param(IS_ADC_CLOCKPRESCALER(hadc->Init.ClockPrescaler));
 367:../../../../../../Drivers/STM32L0xx_HAL_Driver/Src/stm32l0xx_hal_adc.c ****   assert_param(IS_ADC_RESOLUTION(hadc->Init.Resolution));
 368:../../../../../../Drivers/STM32L0xx_HAL_Driver/Src/stm32l0xx_hal_adc.c ****   assert_param(IS_ADC_DATA_ALIGN(hadc->Init.DataAlign));
 369:../../../../../../Drivers/STM32L0xx_HAL_Driver/Src/stm32l0xx_hal_adc.c ****   assert_param(IS_ADC_SCAN_MODE(hadc->Init.ScanConvMode));
 370:../../../../../../Drivers/STM32L0xx_HAL_Driver/Src/stm32l0xx_hal_adc.c ****   assert_param(IS_FUNCTIONAL_STATE(hadc->Init.ContinuousConvMode));
 371:../../../../../../Drivers/STM32L0xx_HAL_Driver/Src/stm32l0xx_hal_adc.c ****   assert_param(IS_FUNCTIONAL_STATE(hadc->Init.DiscontinuousConvMode));
 372:../../../../../../Drivers/STM32L0xx_HAL_Driver/Src/stm32l0xx_hal_adc.c ****   assert_param(IS_ADC_EXTTRIG_EDGE(hadc->Init.ExternalTrigConvEdge));
 373:../../../../../../Drivers/STM32L0xx_HAL_Driver/Src/stm32l0xx_hal_adc.c ****   assert_param(IS_ADC_EXTTRIG(hadc->Init.ExternalTrigConv));
ARM GAS  C:\Users\EBANO_~1\AppData\Local\Temp\cc7eeVhF.s 			page 8


 374:../../../../../../Drivers/STM32L0xx_HAL_Driver/Src/stm32l0xx_hal_adc.c ****   assert_param(IS_FUNCTIONAL_STATE(hadc->Init.DMAContinuousRequests));
 375:../../../../../../Drivers/STM32L0xx_HAL_Driver/Src/stm32l0xx_hal_adc.c ****   assert_param(IS_ADC_EOC_SELECTION(hadc->Init.EOCSelection));
 376:../../../../../../Drivers/STM32L0xx_HAL_Driver/Src/stm32l0xx_hal_adc.c ****   assert_param(IS_ADC_OVERRUN(hadc->Init.Overrun));
 377:../../../../../../Drivers/STM32L0xx_HAL_Driver/Src/stm32l0xx_hal_adc.c ****   assert_param(IS_FUNCTIONAL_STATE(hadc->Init.LowPowerAutoWait));
 378:../../../../../../Drivers/STM32L0xx_HAL_Driver/Src/stm32l0xx_hal_adc.c ****   assert_param(IS_FUNCTIONAL_STATE(hadc->Init.LowPowerFrequencyMode));
 379:../../../../../../Drivers/STM32L0xx_HAL_Driver/Src/stm32l0xx_hal_adc.c ****   assert_param(IS_FUNCTIONAL_STATE(hadc->Init.LowPowerAutoPowerOff));
 380:../../../../../../Drivers/STM32L0xx_HAL_Driver/Src/stm32l0xx_hal_adc.c ****   assert_param(IS_ADC_SAMPLE_TIME(hadc->Init.SamplingTime));
 381:../../../../../../Drivers/STM32L0xx_HAL_Driver/Src/stm32l0xx_hal_adc.c ****   assert_param(IS_FUNCTIONAL_STATE(hadc->Init.OversamplingMode));
 382:../../../../../../Drivers/STM32L0xx_HAL_Driver/Src/stm32l0xx_hal_adc.c **** 
 383:../../../../../../Drivers/STM32L0xx_HAL_Driver/Src/stm32l0xx_hal_adc.c ****   /* As prerequisite, into HAL_ADC_MspInit(), ADC clock must be configured    */
 384:../../../../../../Drivers/STM32L0xx_HAL_Driver/Src/stm32l0xx_hal_adc.c ****   /* at RCC top level depending on both possible clock sources:               */
 385:../../../../../../Drivers/STM32L0xx_HAL_Driver/Src/stm32l0xx_hal_adc.c ****   /* APB clock or HSI clock.                                                  */
 386:../../../../../../Drivers/STM32L0xx_HAL_Driver/Src/stm32l0xx_hal_adc.c ****   /* Refer to header of this file for more details on clock enabling procedure*/
 387:../../../../../../Drivers/STM32L0xx_HAL_Driver/Src/stm32l0xx_hal_adc.c ****   
 388:../../../../../../Drivers/STM32L0xx_HAL_Driver/Src/stm32l0xx_hal_adc.c ****   /* Actions performed only if ADC is coming from state reset:                */
 389:../../../../../../Drivers/STM32L0xx_HAL_Driver/Src/stm32l0xx_hal_adc.c ****   /* - Initialization of ADC MSP                                              */
 390:../../../../../../Drivers/STM32L0xx_HAL_Driver/Src/stm32l0xx_hal_adc.c ****   /* - ADC voltage regulator enable                                           */
 391:../../../../../../Drivers/STM32L0xx_HAL_Driver/Src/stm32l0xx_hal_adc.c ****   if(hadc->State == HAL_ADC_STATE_RESET)
 392:../../../../../../Drivers/STM32L0xx_HAL_Driver/Src/stm32l0xx_hal_adc.c ****   {
 393:../../../../../../Drivers/STM32L0xx_HAL_Driver/Src/stm32l0xx_hal_adc.c ****     /* Initialize ADC error code */
 394:../../../../../../Drivers/STM32L0xx_HAL_Driver/Src/stm32l0xx_hal_adc.c ****     ADC_CLEAR_ERRORCODE(hadc);
 395:../../../../../../Drivers/STM32L0xx_HAL_Driver/Src/stm32l0xx_hal_adc.c ****     
 396:../../../../../../Drivers/STM32L0xx_HAL_Driver/Src/stm32l0xx_hal_adc.c ****     /* Allocate lock resource and initialize it */
 397:../../../../../../Drivers/STM32L0xx_HAL_Driver/Src/stm32l0xx_hal_adc.c ****     hadc->Lock = HAL_UNLOCKED;
 398:../../../../../../Drivers/STM32L0xx_HAL_Driver/Src/stm32l0xx_hal_adc.c ****     
 399:../../../../../../Drivers/STM32L0xx_HAL_Driver/Src/stm32l0xx_hal_adc.c ****     /* Init the low level hardware */
 400:../../../../../../Drivers/STM32L0xx_HAL_Driver/Src/stm32l0xx_hal_adc.c ****     HAL_ADC_MspInit(hadc);
 401:../../../../../../Drivers/STM32L0xx_HAL_Driver/Src/stm32l0xx_hal_adc.c ****   }
 402:../../../../../../Drivers/STM32L0xx_HAL_Driver/Src/stm32l0xx_hal_adc.c ****   
 403:../../../../../../Drivers/STM32L0xx_HAL_Driver/Src/stm32l0xx_hal_adc.c ****   /* Configuration of ADC parameters if previous preliminary actions are      */ 
 404:../../../../../../Drivers/STM32L0xx_HAL_Driver/Src/stm32l0xx_hal_adc.c ****   /* correctly completed.                                                     */
 405:../../../../../../Drivers/STM32L0xx_HAL_Driver/Src/stm32l0xx_hal_adc.c ****   /* and if there is no conversion on going on regular group (ADC can be      */
 406:../../../../../../Drivers/STM32L0xx_HAL_Driver/Src/stm32l0xx_hal_adc.c ****   /* enabled anyway, in case of call of this function to update a parameter   */
 407:../../../../../../Drivers/STM32L0xx_HAL_Driver/Src/stm32l0xx_hal_adc.c ****   /* on the fly).                                                             */
 408:../../../../../../Drivers/STM32L0xx_HAL_Driver/Src/stm32l0xx_hal_adc.c ****   if (HAL_IS_BIT_SET(hadc->State, HAL_ADC_STATE_ERROR_INTERNAL) ||
 409:../../../../../../Drivers/STM32L0xx_HAL_Driver/Src/stm32l0xx_hal_adc.c ****      (ADC_IS_CONVERSION_ONGOING_REGULAR(hadc) != RESET)  )
 410:../../../../../../Drivers/STM32L0xx_HAL_Driver/Src/stm32l0xx_hal_adc.c ****   {
 411:../../../../../../Drivers/STM32L0xx_HAL_Driver/Src/stm32l0xx_hal_adc.c ****     /* Update ADC state machine to error */
 412:../../../../../../Drivers/STM32L0xx_HAL_Driver/Src/stm32l0xx_hal_adc.c ****     SET_BIT(hadc->State, HAL_ADC_STATE_ERROR_INTERNAL);
 413:../../../../../../Drivers/STM32L0xx_HAL_Driver/Src/stm32l0xx_hal_adc.c ****         
 414:../../../../../../Drivers/STM32L0xx_HAL_Driver/Src/stm32l0xx_hal_adc.c ****     /* Process unlocked */
 415:../../../../../../Drivers/STM32L0xx_HAL_Driver/Src/stm32l0xx_hal_adc.c ****     __HAL_UNLOCK(hadc);
 416:../../../../../../Drivers/STM32L0xx_HAL_Driver/Src/stm32l0xx_hal_adc.c ****     return HAL_ERROR;
 417:../../../../../../Drivers/STM32L0xx_HAL_Driver/Src/stm32l0xx_hal_adc.c ****   }
 418:../../../../../../Drivers/STM32L0xx_HAL_Driver/Src/stm32l0xx_hal_adc.c **** 
 419:../../../../../../Drivers/STM32L0xx_HAL_Driver/Src/stm32l0xx_hal_adc.c ****   /* Set ADC state */
 420:../../../../../../Drivers/STM32L0xx_HAL_Driver/Src/stm32l0xx_hal_adc.c ****   ADC_STATE_CLR_SET(hadc->State,
 421:../../../../../../Drivers/STM32L0xx_HAL_Driver/Src/stm32l0xx_hal_adc.c ****                     HAL_ADC_STATE_REG_BUSY,
 422:../../../../../../Drivers/STM32L0xx_HAL_Driver/Src/stm32l0xx_hal_adc.c ****                     HAL_ADC_STATE_BUSY_INTERNAL);
 423:../../../../../../Drivers/STM32L0xx_HAL_Driver/Src/stm32l0xx_hal_adc.c **** 
 424:../../../../../../Drivers/STM32L0xx_HAL_Driver/Src/stm32l0xx_hal_adc.c ****   /* Parameters update conditioned to ADC state:                            */
 425:../../../../../../Drivers/STM32L0xx_HAL_Driver/Src/stm32l0xx_hal_adc.c ****   /* Parameters that can be updated only when ADC is disabled:              */
 426:../../../../../../Drivers/STM32L0xx_HAL_Driver/Src/stm32l0xx_hal_adc.c ****   /*  - ADC clock mode                                                      */
 427:../../../../../../Drivers/STM32L0xx_HAL_Driver/Src/stm32l0xx_hal_adc.c ****   /*  - ADC clock prescaler                                                 */
 428:../../../../../../Drivers/STM32L0xx_HAL_Driver/Src/stm32l0xx_hal_adc.c ****   /*  - ADC Resolution                                                      */
 429:../../../../../../Drivers/STM32L0xx_HAL_Driver/Src/stm32l0xx_hal_adc.c ****   if (ADC_IS_ENABLE(hadc) == RESET)
 430:../../../../../../Drivers/STM32L0xx_HAL_Driver/Src/stm32l0xx_hal_adc.c ****   {
ARM GAS  C:\Users\EBANO_~1\AppData\Local\Temp\cc7eeVhF.s 			page 9


 431:../../../../../../Drivers/STM32L0xx_HAL_Driver/Src/stm32l0xx_hal_adc.c ****     /* Some parameters of this register are not reset, since they are set   */
 432:../../../../../../Drivers/STM32L0xx_HAL_Driver/Src/stm32l0xx_hal_adc.c ****     /* by other functions and must be kept in case of usage of this         */
 433:../../../../../../Drivers/STM32L0xx_HAL_Driver/Src/stm32l0xx_hal_adc.c ****     /* function on the fly (update of a parameter of ADC_InitTypeDef        */
 434:../../../../../../Drivers/STM32L0xx_HAL_Driver/Src/stm32l0xx_hal_adc.c ****     /* without needing to reconfigure all other ADC groups/channels         */
 435:../../../../../../Drivers/STM32L0xx_HAL_Driver/Src/stm32l0xx_hal_adc.c ****     /* parameters):                                                         */
 436:../../../../../../Drivers/STM32L0xx_HAL_Driver/Src/stm32l0xx_hal_adc.c ****     /*   - internal measurement paths: Vbat, temperature sensor, Vref       */
 437:../../../../../../Drivers/STM32L0xx_HAL_Driver/Src/stm32l0xx_hal_adc.c ****     /*     (set into HAL_ADC_ConfigChannel() )                              */
 438:../../../../../../Drivers/STM32L0xx_HAL_Driver/Src/stm32l0xx_hal_adc.c ****    
 439:../../../../../../Drivers/STM32L0xx_HAL_Driver/Src/stm32l0xx_hal_adc.c ****     /* Configuration of ADC clock: clock source PCLK or asynchronous with 
 440:../../../../../../Drivers/STM32L0xx_HAL_Driver/Src/stm32l0xx_hal_adc.c ****     selectable prescaler */
 441:../../../../../../Drivers/STM32L0xx_HAL_Driver/Src/stm32l0xx_hal_adc.c ****     __HAL_ADC_CLOCK_PRESCALER(hadc);
 442:../../../../../../Drivers/STM32L0xx_HAL_Driver/Src/stm32l0xx_hal_adc.c ****     
 443:../../../../../../Drivers/STM32L0xx_HAL_Driver/Src/stm32l0xx_hal_adc.c ****     /* Configuration of ADC:                                                */
 444:../../../../../../Drivers/STM32L0xx_HAL_Driver/Src/stm32l0xx_hal_adc.c ****     /*  - Resolution                                                        */
 445:../../../../../../Drivers/STM32L0xx_HAL_Driver/Src/stm32l0xx_hal_adc.c ****     hadc->Instance->CFGR1 &= ~( ADC_CFGR1_RES);
 446:../../../../../../Drivers/STM32L0xx_HAL_Driver/Src/stm32l0xx_hal_adc.c ****     hadc->Instance->CFGR1 |= hadc->Init.Resolution;    
 447:../../../../../../Drivers/STM32L0xx_HAL_Driver/Src/stm32l0xx_hal_adc.c ****   }
 448:../../../../../../Drivers/STM32L0xx_HAL_Driver/Src/stm32l0xx_hal_adc.c ****   
 449:../../../../../../Drivers/STM32L0xx_HAL_Driver/Src/stm32l0xx_hal_adc.c ****   /* Set the Low Frequency mode */
 450:../../../../../../Drivers/STM32L0xx_HAL_Driver/Src/stm32l0xx_hal_adc.c ****   ADC->CCR &= (uint32_t)~ADC_CCR_LFMEN;
 451:../../../../../../Drivers/STM32L0xx_HAL_Driver/Src/stm32l0xx_hal_adc.c ****   ADC->CCR |=__HAL_ADC_CCR_LOWFREQUENCY(hadc->Init.LowPowerFrequencyMode);  
 452:../../../../../../Drivers/STM32L0xx_HAL_Driver/Src/stm32l0xx_hal_adc.c ****    
 453:../../../../../../Drivers/STM32L0xx_HAL_Driver/Src/stm32l0xx_hal_adc.c ****   /* Enable voltage regulator (if disabled at this step) */
 454:../../../../../../Drivers/STM32L0xx_HAL_Driver/Src/stm32l0xx_hal_adc.c ****   if (HAL_IS_BIT_CLR(hadc->Instance->CR, ADC_CR_ADVREGEN))
 455:../../../../../../Drivers/STM32L0xx_HAL_Driver/Src/stm32l0xx_hal_adc.c ****   {
 456:../../../../../../Drivers/STM32L0xx_HAL_Driver/Src/stm32l0xx_hal_adc.c ****     /* Set ADVREGEN bit */
 457:../../../../../../Drivers/STM32L0xx_HAL_Driver/Src/stm32l0xx_hal_adc.c ****     hadc->Instance->CR |= ADC_CR_ADVREGEN;
 458:../../../../../../Drivers/STM32L0xx_HAL_Driver/Src/stm32l0xx_hal_adc.c ****   }
 459:../../../../../../Drivers/STM32L0xx_HAL_Driver/Src/stm32l0xx_hal_adc.c ****   
 460:../../../../../../Drivers/STM32L0xx_HAL_Driver/Src/stm32l0xx_hal_adc.c ****   /* Configuration of ADC:                                                    */
 461:../../../../../../Drivers/STM32L0xx_HAL_Driver/Src/stm32l0xx_hal_adc.c ****   /*  - Resolution                                                            */
 462:../../../../../../Drivers/STM32L0xx_HAL_Driver/Src/stm32l0xx_hal_adc.c ****   /*  - Data alignment                                                        */
 463:../../../../../../Drivers/STM32L0xx_HAL_Driver/Src/stm32l0xx_hal_adc.c ****   /*  - Scan direction                                                        */
 464:../../../../../../Drivers/STM32L0xx_HAL_Driver/Src/stm32l0xx_hal_adc.c ****   /*  - External trigger to start conversion                                  */
 465:../../../../../../Drivers/STM32L0xx_HAL_Driver/Src/stm32l0xx_hal_adc.c ****   /*  - External trigger polarity                                             */
 466:../../../../../../Drivers/STM32L0xx_HAL_Driver/Src/stm32l0xx_hal_adc.c ****   /*  - Continuous conversion mode                                            */
 467:../../../../../../Drivers/STM32L0xx_HAL_Driver/Src/stm32l0xx_hal_adc.c ****   /*  - DMA continuous request                                                */
 468:../../../../../../Drivers/STM32L0xx_HAL_Driver/Src/stm32l0xx_hal_adc.c ****   /*  - Overrun                                                               */
 469:../../../../../../Drivers/STM32L0xx_HAL_Driver/Src/stm32l0xx_hal_adc.c ****   /*  - AutoDelay feature                                                     */
 470:../../../../../../Drivers/STM32L0xx_HAL_Driver/Src/stm32l0xx_hal_adc.c ****   /*  - Discontinuous mode                                                    */
 471:../../../../../../Drivers/STM32L0xx_HAL_Driver/Src/stm32l0xx_hal_adc.c ****   hadc->Instance->CFGR1 &= ~(ADC_CFGR1_ALIGN   |
 472:../../../../../../Drivers/STM32L0xx_HAL_Driver/Src/stm32l0xx_hal_adc.c ****                              ADC_CFGR1_SCANDIR |
 473:../../../../../../Drivers/STM32L0xx_HAL_Driver/Src/stm32l0xx_hal_adc.c ****                              ADC_CFGR1_EXTSEL  |
 474:../../../../../../Drivers/STM32L0xx_HAL_Driver/Src/stm32l0xx_hal_adc.c ****                              ADC_CFGR1_EXTEN   |
 475:../../../../../../Drivers/STM32L0xx_HAL_Driver/Src/stm32l0xx_hal_adc.c ****                              ADC_CFGR1_CONT    |
 476:../../../../../../Drivers/STM32L0xx_HAL_Driver/Src/stm32l0xx_hal_adc.c ****                              ADC_CFGR1_DMACFG  |
 477:../../../../../../Drivers/STM32L0xx_HAL_Driver/Src/stm32l0xx_hal_adc.c ****                              ADC_CFGR1_OVRMOD  |
 478:../../../../../../Drivers/STM32L0xx_HAL_Driver/Src/stm32l0xx_hal_adc.c ****                              ADC_CFGR1_AUTDLY  |
 479:../../../../../../Drivers/STM32L0xx_HAL_Driver/Src/stm32l0xx_hal_adc.c ****                              ADC_CFGR1_AUTOFF  |
 480:../../../../../../Drivers/STM32L0xx_HAL_Driver/Src/stm32l0xx_hal_adc.c ****                              ADC_CFGR1_DISCEN   );
 481:../../../../../../Drivers/STM32L0xx_HAL_Driver/Src/stm32l0xx_hal_adc.c ****   
 482:../../../../../../Drivers/STM32L0xx_HAL_Driver/Src/stm32l0xx_hal_adc.c ****   hadc->Instance->CFGR1 |= (hadc->Init.DataAlign                             |
 483:../../../../../../Drivers/STM32L0xx_HAL_Driver/Src/stm32l0xx_hal_adc.c ****                             ADC_SCANDIR(hadc->Init.ScanConvMode)             |
 484:../../../../../../Drivers/STM32L0xx_HAL_Driver/Src/stm32l0xx_hal_adc.c ****                             ADC_CONTINUOUS(hadc->Init.ContinuousConvMode)    |
 485:../../../../../../Drivers/STM32L0xx_HAL_Driver/Src/stm32l0xx_hal_adc.c ****                             ADC_DMACONTREQ(hadc->Init.DMAContinuousRequests) |
 486:../../../../../../Drivers/STM32L0xx_HAL_Driver/Src/stm32l0xx_hal_adc.c ****                             hadc->Init.Overrun                               |
 487:../../../../../../Drivers/STM32L0xx_HAL_Driver/Src/stm32l0xx_hal_adc.c ****                             __HAL_ADC_CFGR1_AutoDelay(hadc->Init.LowPowerAutoWait) |
ARM GAS  C:\Users\EBANO_~1\AppData\Local\Temp\cc7eeVhF.s 			page 10


 488:../../../../../../Drivers/STM32L0xx_HAL_Driver/Src/stm32l0xx_hal_adc.c ****                             __HAL_ADC_CFGR1_AUTOFF(hadc->Init.LowPowerAutoPowerOff));
 489:../../../../../../Drivers/STM32L0xx_HAL_Driver/Src/stm32l0xx_hal_adc.c ****   
 490:../../../../../../Drivers/STM32L0xx_HAL_Driver/Src/stm32l0xx_hal_adc.c ****   /* Enable external trigger if trigger selection is different of software  */
 491:../../../../../../Drivers/STM32L0xx_HAL_Driver/Src/stm32l0xx_hal_adc.c ****   /* start.                                                                 */
 492:../../../../../../Drivers/STM32L0xx_HAL_Driver/Src/stm32l0xx_hal_adc.c ****   /* Note: This configuration keeps the hardware feature of parameter       */
 493:../../../../../../Drivers/STM32L0xx_HAL_Driver/Src/stm32l0xx_hal_adc.c ****   /*       ExternalTrigConvEdge "trigger edge none" equivalent to           */
 494:../../../../../../Drivers/STM32L0xx_HAL_Driver/Src/stm32l0xx_hal_adc.c ****   /*       software start.                                                  */
 495:../../../../../../Drivers/STM32L0xx_HAL_Driver/Src/stm32l0xx_hal_adc.c ****   if (hadc->Init.ExternalTrigConv != ADC_SOFTWARE_START)
 496:../../../../../../Drivers/STM32L0xx_HAL_Driver/Src/stm32l0xx_hal_adc.c ****   {
 497:../../../../../../Drivers/STM32L0xx_HAL_Driver/Src/stm32l0xx_hal_adc.c ****     hadc->Instance->CFGR1 |= hadc->Init.ExternalTrigConv |
 498:../../../../../../Drivers/STM32L0xx_HAL_Driver/Src/stm32l0xx_hal_adc.c ****                              hadc->Init.ExternalTrigConvEdge;
 499:../../../../../../Drivers/STM32L0xx_HAL_Driver/Src/stm32l0xx_hal_adc.c ****   }
 500:../../../../../../Drivers/STM32L0xx_HAL_Driver/Src/stm32l0xx_hal_adc.c ****   
 501:../../../../../../Drivers/STM32L0xx_HAL_Driver/Src/stm32l0xx_hal_adc.c ****   /* Enable discontinuous mode only if continuous mode is disabled */
 502:../../../../../../Drivers/STM32L0xx_HAL_Driver/Src/stm32l0xx_hal_adc.c ****   if (hadc->Init.DiscontinuousConvMode == ENABLE)
 503:../../../../../../Drivers/STM32L0xx_HAL_Driver/Src/stm32l0xx_hal_adc.c ****   {
 504:../../../../../../Drivers/STM32L0xx_HAL_Driver/Src/stm32l0xx_hal_adc.c ****     if (hadc->Init.ContinuousConvMode == DISABLE)
 505:../../../../../../Drivers/STM32L0xx_HAL_Driver/Src/stm32l0xx_hal_adc.c ****     {
 506:../../../../../../Drivers/STM32L0xx_HAL_Driver/Src/stm32l0xx_hal_adc.c ****       /* Enable the selected ADC group regular discontinuous mode */
 507:../../../../../../Drivers/STM32L0xx_HAL_Driver/Src/stm32l0xx_hal_adc.c ****       hadc->Instance->CFGR1 |= (ADC_CFGR1_DISCEN);
 508:../../../../../../Drivers/STM32L0xx_HAL_Driver/Src/stm32l0xx_hal_adc.c ****     }
 509:../../../../../../Drivers/STM32L0xx_HAL_Driver/Src/stm32l0xx_hal_adc.c ****     else
 510:../../../../../../Drivers/STM32L0xx_HAL_Driver/Src/stm32l0xx_hal_adc.c ****     {
 511:../../../../../../Drivers/STM32L0xx_HAL_Driver/Src/stm32l0xx_hal_adc.c ****       /* ADC regular group discontinuous was intended to be enabled,        */
 512:../../../../../../Drivers/STM32L0xx_HAL_Driver/Src/stm32l0xx_hal_adc.c ****       /* but ADC regular group modes continuous and sequencer discontinuous */
 513:../../../../../../Drivers/STM32L0xx_HAL_Driver/Src/stm32l0xx_hal_adc.c ****       /* cannot be enabled simultaneously.                                  */
 514:../../../../../../Drivers/STM32L0xx_HAL_Driver/Src/stm32l0xx_hal_adc.c ****       
 515:../../../../../../Drivers/STM32L0xx_HAL_Driver/Src/stm32l0xx_hal_adc.c ****       /* Update ADC state machine to error */
 516:../../../../../../Drivers/STM32L0xx_HAL_Driver/Src/stm32l0xx_hal_adc.c ****       SET_BIT(hadc->State, HAL_ADC_STATE_ERROR_CONFIG);
 517:../../../../../../Drivers/STM32L0xx_HAL_Driver/Src/stm32l0xx_hal_adc.c ****       
 518:../../../../../../Drivers/STM32L0xx_HAL_Driver/Src/stm32l0xx_hal_adc.c ****       /* Set ADC error code to ADC IP internal error */
 519:../../../../../../Drivers/STM32L0xx_HAL_Driver/Src/stm32l0xx_hal_adc.c ****       SET_BIT(hadc->ErrorCode, HAL_ADC_ERROR_INTERNAL);
 520:../../../../../../Drivers/STM32L0xx_HAL_Driver/Src/stm32l0xx_hal_adc.c ****     }
 521:../../../../../../Drivers/STM32L0xx_HAL_Driver/Src/stm32l0xx_hal_adc.c ****   }
 522:../../../../../../Drivers/STM32L0xx_HAL_Driver/Src/stm32l0xx_hal_adc.c ****   
 523:../../../../../../Drivers/STM32L0xx_HAL_Driver/Src/stm32l0xx_hal_adc.c ****   if (hadc->Init.OversamplingMode == ENABLE)
 524:../../../../../../Drivers/STM32L0xx_HAL_Driver/Src/stm32l0xx_hal_adc.c ****   {
 525:../../../../../../Drivers/STM32L0xx_HAL_Driver/Src/stm32l0xx_hal_adc.c ****     assert_param(IS_ADC_OVERSAMPLING_RATIO(hadc->Init.Oversample.Ratio));
 526:../../../../../../Drivers/STM32L0xx_HAL_Driver/Src/stm32l0xx_hal_adc.c ****     assert_param(IS_ADC_RIGHT_BIT_SHIFT(hadc->Init.Oversample.RightBitShift));
 527:../../../../../../Drivers/STM32L0xx_HAL_Driver/Src/stm32l0xx_hal_adc.c ****     assert_param(IS_ADC_TRIGGERED_OVERSAMPLING_MODE(hadc->Init.Oversample.TriggeredMode));
 528:../../../../../../Drivers/STM32L0xx_HAL_Driver/Src/stm32l0xx_hal_adc.c **** 
 529:../../../../../../Drivers/STM32L0xx_HAL_Driver/Src/stm32l0xx_hal_adc.c ****     /* Configuration of Oversampler:                                          */
 530:../../../../../../Drivers/STM32L0xx_HAL_Driver/Src/stm32l0xx_hal_adc.c ****     /*  - Oversampling Ratio                                                  */
 531:../../../../../../Drivers/STM32L0xx_HAL_Driver/Src/stm32l0xx_hal_adc.c ****     /*  - Right bit shift                                                     */
 532:../../../../../../Drivers/STM32L0xx_HAL_Driver/Src/stm32l0xx_hal_adc.c ****     /*  - Triggered mode                                                      */
 533:../../../../../../Drivers/STM32L0xx_HAL_Driver/Src/stm32l0xx_hal_adc.c ****     
 534:../../../../../../Drivers/STM32L0xx_HAL_Driver/Src/stm32l0xx_hal_adc.c ****     hadc->Instance->CFGR2 &= ~( ADC_CFGR2_OVSR |
 535:../../../../../../Drivers/STM32L0xx_HAL_Driver/Src/stm32l0xx_hal_adc.c ****                                 ADC_CFGR2_OVSS |
 536:../../../../../../Drivers/STM32L0xx_HAL_Driver/Src/stm32l0xx_hal_adc.c ****                                 ADC_CFGR2_TOVS );
 537:../../../../../../Drivers/STM32L0xx_HAL_Driver/Src/stm32l0xx_hal_adc.c ****     
 538:../../../../../../Drivers/STM32L0xx_HAL_Driver/Src/stm32l0xx_hal_adc.c ****     hadc->Instance->CFGR2 |= ( hadc->Init.Oversample.Ratio         |
 539:../../../../../../Drivers/STM32L0xx_HAL_Driver/Src/stm32l0xx_hal_adc.c ****                                hadc->Init.Oversample.RightBitShift             |
 540:../../../../../../Drivers/STM32L0xx_HAL_Driver/Src/stm32l0xx_hal_adc.c ****                                hadc->Init.Oversample.TriggeredMode );
 541:../../../../../../Drivers/STM32L0xx_HAL_Driver/Src/stm32l0xx_hal_adc.c ****     
 542:../../../../../../Drivers/STM32L0xx_HAL_Driver/Src/stm32l0xx_hal_adc.c ****     /* Enable OverSampling mode */
 543:../../../../../../Drivers/STM32L0xx_HAL_Driver/Src/stm32l0xx_hal_adc.c ****      hadc->Instance->CFGR2 |= ADC_CFGR2_OVSE;
 544:../../../../../../Drivers/STM32L0xx_HAL_Driver/Src/stm32l0xx_hal_adc.c ****   }
ARM GAS  C:\Users\EBANO_~1\AppData\Local\Temp\cc7eeVhF.s 			page 11


 545:../../../../../../Drivers/STM32L0xx_HAL_Driver/Src/stm32l0xx_hal_adc.c ****   else
 546:../../../../../../Drivers/STM32L0xx_HAL_Driver/Src/stm32l0xx_hal_adc.c ****   {
 547:../../../../../../Drivers/STM32L0xx_HAL_Driver/Src/stm32l0xx_hal_adc.c ****     if(HAL_IS_BIT_SET(hadc->Instance->CFGR2, ADC_CFGR2_OVSE))
 548:../../../../../../Drivers/STM32L0xx_HAL_Driver/Src/stm32l0xx_hal_adc.c ****     {
 549:../../../../../../Drivers/STM32L0xx_HAL_Driver/Src/stm32l0xx_hal_adc.c ****       /* Disable OverSampling mode if needed */
 550:../../../../../../Drivers/STM32L0xx_HAL_Driver/Src/stm32l0xx_hal_adc.c ****       hadc->Instance->CFGR2 &= ~ADC_CFGR2_OVSE;
 551:../../../../../../Drivers/STM32L0xx_HAL_Driver/Src/stm32l0xx_hal_adc.c ****     }
 552:../../../../../../Drivers/STM32L0xx_HAL_Driver/Src/stm32l0xx_hal_adc.c ****   }    
 553:../../../../../../Drivers/STM32L0xx_HAL_Driver/Src/stm32l0xx_hal_adc.c ****   
 554:../../../../../../Drivers/STM32L0xx_HAL_Driver/Src/stm32l0xx_hal_adc.c ****   /* Clear the old sampling time */
 555:../../../../../../Drivers/STM32L0xx_HAL_Driver/Src/stm32l0xx_hal_adc.c ****   hadc->Instance->SMPR &= (uint32_t)(~ADC_SMPR_SMPR);
 556:../../../../../../Drivers/STM32L0xx_HAL_Driver/Src/stm32l0xx_hal_adc.c ****   
 557:../../../../../../Drivers/STM32L0xx_HAL_Driver/Src/stm32l0xx_hal_adc.c ****   /* Set the new sample time */
 558:../../../../../../Drivers/STM32L0xx_HAL_Driver/Src/stm32l0xx_hal_adc.c ****   hadc->Instance->SMPR |= hadc->Init.SamplingTime;
 559:../../../../../../Drivers/STM32L0xx_HAL_Driver/Src/stm32l0xx_hal_adc.c ****   
 560:../../../../../../Drivers/STM32L0xx_HAL_Driver/Src/stm32l0xx_hal_adc.c ****   /* Clear ADC error code */
 561:../../../../../../Drivers/STM32L0xx_HAL_Driver/Src/stm32l0xx_hal_adc.c ****   ADC_CLEAR_ERRORCODE(hadc);
 562:../../../../../../Drivers/STM32L0xx_HAL_Driver/Src/stm32l0xx_hal_adc.c **** 
 563:../../../../../../Drivers/STM32L0xx_HAL_Driver/Src/stm32l0xx_hal_adc.c ****   /* Set the ADC state */
 564:../../../../../../Drivers/STM32L0xx_HAL_Driver/Src/stm32l0xx_hal_adc.c ****   ADC_STATE_CLR_SET(hadc->State,
 565:../../../../../../Drivers/STM32L0xx_HAL_Driver/Src/stm32l0xx_hal_adc.c ****                     HAL_ADC_STATE_BUSY_INTERNAL,
 566:../../../../../../Drivers/STM32L0xx_HAL_Driver/Src/stm32l0xx_hal_adc.c ****                     HAL_ADC_STATE_READY);
 567:../../../../../../Drivers/STM32L0xx_HAL_Driver/Src/stm32l0xx_hal_adc.c **** 
 568:../../../../../../Drivers/STM32L0xx_HAL_Driver/Src/stm32l0xx_hal_adc.c **** 
 569:../../../../../../Drivers/STM32L0xx_HAL_Driver/Src/stm32l0xx_hal_adc.c ****   /* Return function status */
 570:../../../../../../Drivers/STM32L0xx_HAL_Driver/Src/stm32l0xx_hal_adc.c ****   return HAL_OK;
 571:../../../../../../Drivers/STM32L0xx_HAL_Driver/Src/stm32l0xx_hal_adc.c **** }
 572:../../../../../../Drivers/STM32L0xx_HAL_Driver/Src/stm32l0xx_hal_adc.c **** 
 573:../../../../../../Drivers/STM32L0xx_HAL_Driver/Src/stm32l0xx_hal_adc.c **** /**
 574:../../../../../../Drivers/STM32L0xx_HAL_Driver/Src/stm32l0xx_hal_adc.c ****   * @brief  Deinitialize the ADC peripheral registers to their default reset
 575:../../../../../../Drivers/STM32L0xx_HAL_Driver/Src/stm32l0xx_hal_adc.c ****   *         values, with deinitialization of the ADC MSP.
 576:../../../../../../Drivers/STM32L0xx_HAL_Driver/Src/stm32l0xx_hal_adc.c ****   * @note   For devices with several ADCs: reset of ADC common registers is done 
 577:../../../../../../Drivers/STM32L0xx_HAL_Driver/Src/stm32l0xx_hal_adc.c ****   *         only if all ADCs sharing the same common group are disabled.
 578:../../../../../../Drivers/STM32L0xx_HAL_Driver/Src/stm32l0xx_hal_adc.c ****   *         If this is not the case, reset of these common parameters reset is  
 579:../../../../../../Drivers/STM32L0xx_HAL_Driver/Src/stm32l0xx_hal_adc.c ****   *         bypassed without error reporting: it can be the intended behavior in
 580:../../../../../../Drivers/STM32L0xx_HAL_Driver/Src/stm32l0xx_hal_adc.c ****   *         case of reset of a single ADC while the other ADCs sharing the same 
 581:../../../../../../Drivers/STM32L0xx_HAL_Driver/Src/stm32l0xx_hal_adc.c ****   *         common group is still running.
 582:../../../../../../Drivers/STM32L0xx_HAL_Driver/Src/stm32l0xx_hal_adc.c ****   * @param  hadc ADC handle
 583:../../../../../../Drivers/STM32L0xx_HAL_Driver/Src/stm32l0xx_hal_adc.c ****   * @retval HAL status
 584:../../../../../../Drivers/STM32L0xx_HAL_Driver/Src/stm32l0xx_hal_adc.c ****   */
 585:../../../../../../Drivers/STM32L0xx_HAL_Driver/Src/stm32l0xx_hal_adc.c **** HAL_StatusTypeDef HAL_ADC_DeInit(ADC_HandleTypeDef* hadc)
 586:../../../../../../Drivers/STM32L0xx_HAL_Driver/Src/stm32l0xx_hal_adc.c **** {
 587:../../../../../../Drivers/STM32L0xx_HAL_Driver/Src/stm32l0xx_hal_adc.c ****   HAL_StatusTypeDef tmp_hal_status = HAL_OK;
 588:../../../../../../Drivers/STM32L0xx_HAL_Driver/Src/stm32l0xx_hal_adc.c ****   
 589:../../../../../../Drivers/STM32L0xx_HAL_Driver/Src/stm32l0xx_hal_adc.c ****   /* Check ADC handle */
 590:../../../../../../Drivers/STM32L0xx_HAL_Driver/Src/stm32l0xx_hal_adc.c ****   if(hadc == NULL)
 591:../../../../../../Drivers/STM32L0xx_HAL_Driver/Src/stm32l0xx_hal_adc.c ****   {
 592:../../../../../../Drivers/STM32L0xx_HAL_Driver/Src/stm32l0xx_hal_adc.c ****     return HAL_ERROR;
 593:../../../../../../Drivers/STM32L0xx_HAL_Driver/Src/stm32l0xx_hal_adc.c ****   }
 594:../../../../../../Drivers/STM32L0xx_HAL_Driver/Src/stm32l0xx_hal_adc.c ****   
 595:../../../../../../Drivers/STM32L0xx_HAL_Driver/Src/stm32l0xx_hal_adc.c ****   /* Check the parameters */
 596:../../../../../../Drivers/STM32L0xx_HAL_Driver/Src/stm32l0xx_hal_adc.c ****   assert_param(IS_ADC_ALL_INSTANCE(hadc->Instance));
 597:../../../../../../Drivers/STM32L0xx_HAL_Driver/Src/stm32l0xx_hal_adc.c ****   
 598:../../../../../../Drivers/STM32L0xx_HAL_Driver/Src/stm32l0xx_hal_adc.c ****   /* Set ADC state */
 599:../../../../../../Drivers/STM32L0xx_HAL_Driver/Src/stm32l0xx_hal_adc.c ****   SET_BIT(hadc->State, HAL_ADC_STATE_BUSY_INTERNAL);
 600:../../../../../../Drivers/STM32L0xx_HAL_Driver/Src/stm32l0xx_hal_adc.c ****   
 601:../../../../../../Drivers/STM32L0xx_HAL_Driver/Src/stm32l0xx_hal_adc.c ****   /* Stop potential conversion on going, on regular group */
ARM GAS  C:\Users\EBANO_~1\AppData\Local\Temp\cc7eeVhF.s 			page 12


 602:../../../../../../Drivers/STM32L0xx_HAL_Driver/Src/stm32l0xx_hal_adc.c ****   tmp_hal_status = ADC_ConversionStop(hadc);
 603:../../../../../../Drivers/STM32L0xx_HAL_Driver/Src/stm32l0xx_hal_adc.c ****   
 604:../../../../../../Drivers/STM32L0xx_HAL_Driver/Src/stm32l0xx_hal_adc.c ****   /* Disable ADC peripheral if conversions are effectively stopped */
 605:../../../../../../Drivers/STM32L0xx_HAL_Driver/Src/stm32l0xx_hal_adc.c ****   if (tmp_hal_status == HAL_OK)
 606:../../../../../../Drivers/STM32L0xx_HAL_Driver/Src/stm32l0xx_hal_adc.c ****   {   
 607:../../../../../../Drivers/STM32L0xx_HAL_Driver/Src/stm32l0xx_hal_adc.c ****     /* Disable the ADC peripheral */
 608:../../../../../../Drivers/STM32L0xx_HAL_Driver/Src/stm32l0xx_hal_adc.c ****     tmp_hal_status = ADC_Disable(hadc);
 609:../../../../../../Drivers/STM32L0xx_HAL_Driver/Src/stm32l0xx_hal_adc.c ****     
 610:../../../../../../Drivers/STM32L0xx_HAL_Driver/Src/stm32l0xx_hal_adc.c ****     /* Check if ADC is effectively disabled */
 611:../../../../../../Drivers/STM32L0xx_HAL_Driver/Src/stm32l0xx_hal_adc.c ****     if (tmp_hal_status != HAL_ERROR)
 612:../../../../../../Drivers/STM32L0xx_HAL_Driver/Src/stm32l0xx_hal_adc.c ****     {
 613:../../../../../../Drivers/STM32L0xx_HAL_Driver/Src/stm32l0xx_hal_adc.c ****       /* Change ADC state */
 614:../../../../../../Drivers/STM32L0xx_HAL_Driver/Src/stm32l0xx_hal_adc.c ****       hadc->State = HAL_ADC_STATE_READY;
 615:../../../../../../Drivers/STM32L0xx_HAL_Driver/Src/stm32l0xx_hal_adc.c ****     }
 616:../../../../../../Drivers/STM32L0xx_HAL_Driver/Src/stm32l0xx_hal_adc.c ****   }
 617:../../../../../../Drivers/STM32L0xx_HAL_Driver/Src/stm32l0xx_hal_adc.c ****   
 618:../../../../../../Drivers/STM32L0xx_HAL_Driver/Src/stm32l0xx_hal_adc.c ****   
 619:../../../../../../Drivers/STM32L0xx_HAL_Driver/Src/stm32l0xx_hal_adc.c ****   /* Configuration of ADC parameters if previous preliminary actions are      */ 
 620:../../../../../../Drivers/STM32L0xx_HAL_Driver/Src/stm32l0xx_hal_adc.c ****   /* correctly completed.                                                     */
 621:../../../../../../Drivers/STM32L0xx_HAL_Driver/Src/stm32l0xx_hal_adc.c ****   if (tmp_hal_status != HAL_ERROR)
 622:../../../../../../Drivers/STM32L0xx_HAL_Driver/Src/stm32l0xx_hal_adc.c ****   {
 623:../../../../../../Drivers/STM32L0xx_HAL_Driver/Src/stm32l0xx_hal_adc.c ****     
 624:../../../../../../Drivers/STM32L0xx_HAL_Driver/Src/stm32l0xx_hal_adc.c ****     /* ========== Reset ADC registers ========== */
 625:../../../../../../Drivers/STM32L0xx_HAL_Driver/Src/stm32l0xx_hal_adc.c ****     /* Reset register IER */
 626:../../../../../../Drivers/STM32L0xx_HAL_Driver/Src/stm32l0xx_hal_adc.c ****     __HAL_ADC_DISABLE_IT(hadc, (ADC_IT_AWD | ADC_IT_OVR | ADC_IT_EOCAL | ADC_IT_EOS |  \
 627:../../../../../../Drivers/STM32L0xx_HAL_Driver/Src/stm32l0xx_hal_adc.c ****                                 ADC_IT_EOC | ADC_IT_RDY | ADC_IT_EOSMP ));
 628:../../../../../../Drivers/STM32L0xx_HAL_Driver/Src/stm32l0xx_hal_adc.c ****   
 629:../../../../../../Drivers/STM32L0xx_HAL_Driver/Src/stm32l0xx_hal_adc.c ****         
 630:../../../../../../Drivers/STM32L0xx_HAL_Driver/Src/stm32l0xx_hal_adc.c ****     /* Reset register ISR */
 631:../../../../../../Drivers/STM32L0xx_HAL_Driver/Src/stm32l0xx_hal_adc.c ****     __HAL_ADC_CLEAR_FLAG(hadc, (ADC_FLAG_AWD | ADC_FLAG_EOCAL | ADC_FLAG_OVR | ADC_FLAG_EOS |  \
 632:../../../../../../Drivers/STM32L0xx_HAL_Driver/Src/stm32l0xx_hal_adc.c ****                                 ADC_FLAG_EOC | ADC_FLAG_EOSMP | ADC_FLAG_RDY));
 633:../../../../../../Drivers/STM32L0xx_HAL_Driver/Src/stm32l0xx_hal_adc.c ****   
 634:../../../../../../Drivers/STM32L0xx_HAL_Driver/Src/stm32l0xx_hal_adc.c ****     
 635:../../../../../../Drivers/STM32L0xx_HAL_Driver/Src/stm32l0xx_hal_adc.c ****     /* Reset register CR */
 636:../../../../../../Drivers/STM32L0xx_HAL_Driver/Src/stm32l0xx_hal_adc.c ****     /* Disable voltage regulator */
 637:../../../../../../Drivers/STM32L0xx_HAL_Driver/Src/stm32l0xx_hal_adc.c ****     /* Note: Regulator disable useful for power saving */
 638:../../../../../../Drivers/STM32L0xx_HAL_Driver/Src/stm32l0xx_hal_adc.c ****     /* Reset ADVREGEN bit */
 639:../../../../../../Drivers/STM32L0xx_HAL_Driver/Src/stm32l0xx_hal_adc.c ****     hadc->Instance->CR &= ~ADC_CR_ADVREGEN;
 640:../../../../../../Drivers/STM32L0xx_HAL_Driver/Src/stm32l0xx_hal_adc.c ****     
 641:../../../../../../Drivers/STM32L0xx_HAL_Driver/Src/stm32l0xx_hal_adc.c ****     /* Bits ADC_CR_ADSTP, ADC_CR_ADSTART are in access mode "read-set": no direct reset applicable 
 642:../../../../../../Drivers/STM32L0xx_HAL_Driver/Src/stm32l0xx_hal_adc.c ****     /* No action */
 643:../../../../../../Drivers/STM32L0xx_HAL_Driver/Src/stm32l0xx_hal_adc.c ****     
 644:../../../../../../Drivers/STM32L0xx_HAL_Driver/Src/stm32l0xx_hal_adc.c ****     /* Reset register CFGR1 */
 645:../../../../../../Drivers/STM32L0xx_HAL_Driver/Src/stm32l0xx_hal_adc.c ****     hadc->Instance->CFGR1 &= ~(ADC_CFGR1_AWDCH  | ADC_CFGR1_AWDEN  | ADC_CFGR1_AWDSGL | \
 646:../../../../../../Drivers/STM32L0xx_HAL_Driver/Src/stm32l0xx_hal_adc.c ****                                ADC_CFGR1_DISCEN | ADC_CFGR1_AUTOFF | ADC_CFGR1_AUTDLY | \
 647:../../../../../../Drivers/STM32L0xx_HAL_Driver/Src/stm32l0xx_hal_adc.c ****                                ADC_CFGR1_CONT   | ADC_CFGR1_OVRMOD | ADC_CFGR1_EXTEN  | \
 648:../../../../../../Drivers/STM32L0xx_HAL_Driver/Src/stm32l0xx_hal_adc.c ****                                ADC_CFGR1_EXTSEL | ADC_CFGR1_ALIGN  | ADC_CFGR1_RES    | \
 649:../../../../../../Drivers/STM32L0xx_HAL_Driver/Src/stm32l0xx_hal_adc.c ****                                ADC_CFGR1_SCANDIR| ADC_CFGR1_DMACFG | ADC_CFGR1_DMAEN);
 650:../../../../../../Drivers/STM32L0xx_HAL_Driver/Src/stm32l0xx_hal_adc.c ****   
 651:../../../../../../Drivers/STM32L0xx_HAL_Driver/Src/stm32l0xx_hal_adc.c ****     /* Reset register CFGR2 */
 652:../../../../../../Drivers/STM32L0xx_HAL_Driver/Src/stm32l0xx_hal_adc.c ****     hadc->Instance->CFGR2 &= ~(ADC_CFGR2_TOVS  | ADC_CFGR2_OVSS  | ADC_CFGR2_OVSR | \
 653:../../../../../../Drivers/STM32L0xx_HAL_Driver/Src/stm32l0xx_hal_adc.c ****                                ADC_CFGR2_OVSE  | ADC_CFGR2_CKMODE );
 654:../../../../../../Drivers/STM32L0xx_HAL_Driver/Src/stm32l0xx_hal_adc.c ****   
 655:../../../../../../Drivers/STM32L0xx_HAL_Driver/Src/stm32l0xx_hal_adc.c ****     
 656:../../../../../../Drivers/STM32L0xx_HAL_Driver/Src/stm32l0xx_hal_adc.c ****     /* Reset register SMPR */
 657:../../../../../../Drivers/STM32L0xx_HAL_Driver/Src/stm32l0xx_hal_adc.c ****     hadc->Instance->SMPR &= ~(ADC_SMPR_SMPR);
 658:../../../../../../Drivers/STM32L0xx_HAL_Driver/Src/stm32l0xx_hal_adc.c ****     
ARM GAS  C:\Users\EBANO_~1\AppData\Local\Temp\cc7eeVhF.s 			page 13


 659:../../../../../../Drivers/STM32L0xx_HAL_Driver/Src/stm32l0xx_hal_adc.c ****     /* Reset register TR */
 660:../../../../../../Drivers/STM32L0xx_HAL_Driver/Src/stm32l0xx_hal_adc.c ****     hadc->Instance->TR &= ~(ADC_TR_LT | ADC_TR_HT);
 661:../../../../../../Drivers/STM32L0xx_HAL_Driver/Src/stm32l0xx_hal_adc.c ****     
 662:../../../../../../Drivers/STM32L0xx_HAL_Driver/Src/stm32l0xx_hal_adc.c ****     /* Reset register CALFACT */
 663:../../../../../../Drivers/STM32L0xx_HAL_Driver/Src/stm32l0xx_hal_adc.c ****     hadc->Instance->CALFACT &= ~(ADC_CALFACT_CALFACT);
 664:../../../../../../Drivers/STM32L0xx_HAL_Driver/Src/stm32l0xx_hal_adc.c ****   
 665:../../../../../../Drivers/STM32L0xx_HAL_Driver/Src/stm32l0xx_hal_adc.c ****   
 666:../../../../../../Drivers/STM32L0xx_HAL_Driver/Src/stm32l0xx_hal_adc.c ****   
 667:../../../../../../Drivers/STM32L0xx_HAL_Driver/Src/stm32l0xx_hal_adc.c ****   
 668:../../../../../../Drivers/STM32L0xx_HAL_Driver/Src/stm32l0xx_hal_adc.c ****     
 669:../../../../../../Drivers/STM32L0xx_HAL_Driver/Src/stm32l0xx_hal_adc.c ****     /* Reset register DR */
 670:../../../../../../Drivers/STM32L0xx_HAL_Driver/Src/stm32l0xx_hal_adc.c ****     /* bits in access mode read only, no direct reset applicable*/
 671:../../../../../../Drivers/STM32L0xx_HAL_Driver/Src/stm32l0xx_hal_adc.c ****   
 672:../../../../../../Drivers/STM32L0xx_HAL_Driver/Src/stm32l0xx_hal_adc.c ****     /* Reset register CALFACT */
 673:../../../../../../Drivers/STM32L0xx_HAL_Driver/Src/stm32l0xx_hal_adc.c ****     hadc->Instance->CALFACT &= ~(ADC_CALFACT_CALFACT);
 674:../../../../../../Drivers/STM32L0xx_HAL_Driver/Src/stm32l0xx_hal_adc.c ****   
 675:../../../../../../Drivers/STM32L0xx_HAL_Driver/Src/stm32l0xx_hal_adc.c ****     /* ========== Hard reset ADC peripheral ========== */
 676:../../../../../../Drivers/STM32L0xx_HAL_Driver/Src/stm32l0xx_hal_adc.c ****     /* Performs a global reset of the entire ADC peripheral: ADC state is     */
 677:../../../../../../Drivers/STM32L0xx_HAL_Driver/Src/stm32l0xx_hal_adc.c ****     /* forced to a similar state after device power-on.                       */
 678:../../../../../../Drivers/STM32L0xx_HAL_Driver/Src/stm32l0xx_hal_adc.c ****     /* If needed, copy-paste and uncomment the following reset code into      */
 679:../../../../../../Drivers/STM32L0xx_HAL_Driver/Src/stm32l0xx_hal_adc.c ****     /* function "void HAL_ADC_MspInit(ADC_HandleTypeDef* hadc)":              */
 680:../../../../../../Drivers/STM32L0xx_HAL_Driver/Src/stm32l0xx_hal_adc.c ****     /*                                                                        */
 681:../../../../../../Drivers/STM32L0xx_HAL_Driver/Src/stm32l0xx_hal_adc.c ****     /*  __HAL_RCC_ADC1_FORCE_RESET()                                                  */
 682:../../../../../../Drivers/STM32L0xx_HAL_Driver/Src/stm32l0xx_hal_adc.c ****     /*  __HAL_RCC_ADC1_RELEASE_RESET()                                                */
 683:../../../../../../Drivers/STM32L0xx_HAL_Driver/Src/stm32l0xx_hal_adc.c ****   
 684:../../../../../../Drivers/STM32L0xx_HAL_Driver/Src/stm32l0xx_hal_adc.c ****     /* DeInit the low level hardware */
 685:../../../../../../Drivers/STM32L0xx_HAL_Driver/Src/stm32l0xx_hal_adc.c ****     HAL_ADC_MspDeInit(hadc);
 686:../../../../../../Drivers/STM32L0xx_HAL_Driver/Src/stm32l0xx_hal_adc.c ****     
 687:../../../../../../Drivers/STM32L0xx_HAL_Driver/Src/stm32l0xx_hal_adc.c ****     /* Set ADC error code to none */
 688:../../../../../../Drivers/STM32L0xx_HAL_Driver/Src/stm32l0xx_hal_adc.c ****     ADC_CLEAR_ERRORCODE(hadc);
 689:../../../../../../Drivers/STM32L0xx_HAL_Driver/Src/stm32l0xx_hal_adc.c ****     
 690:../../../../../../Drivers/STM32L0xx_HAL_Driver/Src/stm32l0xx_hal_adc.c ****     /* Set ADC state */
 691:../../../../../../Drivers/STM32L0xx_HAL_Driver/Src/stm32l0xx_hal_adc.c ****     hadc->State = HAL_ADC_STATE_RESET;
 692:../../../../../../Drivers/STM32L0xx_HAL_Driver/Src/stm32l0xx_hal_adc.c ****   }
 693:../../../../../../Drivers/STM32L0xx_HAL_Driver/Src/stm32l0xx_hal_adc.c ****   
 694:../../../../../../Drivers/STM32L0xx_HAL_Driver/Src/stm32l0xx_hal_adc.c ****   /* Process unlocked */
 695:../../../../../../Drivers/STM32L0xx_HAL_Driver/Src/stm32l0xx_hal_adc.c ****   __HAL_UNLOCK(hadc);
 696:../../../../../../Drivers/STM32L0xx_HAL_Driver/Src/stm32l0xx_hal_adc.c ****   
 697:../../../../../../Drivers/STM32L0xx_HAL_Driver/Src/stm32l0xx_hal_adc.c ****   /* Return function status */
 698:../../../../../../Drivers/STM32L0xx_HAL_Driver/Src/stm32l0xx_hal_adc.c ****   return tmp_hal_status;
 699:../../../../../../Drivers/STM32L0xx_HAL_Driver/Src/stm32l0xx_hal_adc.c **** }
 700:../../../../../../Drivers/STM32L0xx_HAL_Driver/Src/stm32l0xx_hal_adc.c **** 
 701:../../../../../../Drivers/STM32L0xx_HAL_Driver/Src/stm32l0xx_hal_adc.c **** /**
 702:../../../../../../Drivers/STM32L0xx_HAL_Driver/Src/stm32l0xx_hal_adc.c ****   * @brief  Initialize the ADC MSP.
 703:../../../../../../Drivers/STM32L0xx_HAL_Driver/Src/stm32l0xx_hal_adc.c ****   * @param  hadc ADC handle
 704:../../../../../../Drivers/STM32L0xx_HAL_Driver/Src/stm32l0xx_hal_adc.c ****   * @retval None
 705:../../../../../../Drivers/STM32L0xx_HAL_Driver/Src/stm32l0xx_hal_adc.c ****   */
 706:../../../../../../Drivers/STM32L0xx_HAL_Driver/Src/stm32l0xx_hal_adc.c **** __weak void HAL_ADC_MspInit(ADC_HandleTypeDef* hadc)
 707:../../../../../../Drivers/STM32L0xx_HAL_Driver/Src/stm32l0xx_hal_adc.c **** {
  27              		.loc 1 707 0
  28              		.cfi_startproc
  29              		@ args = 0, pretend = 0, frame = 0
  30              		@ frame_needed = 0, uses_anonymous_args = 0
  31              		@ link register save eliminated.
  32              	.LVL0:
 708:../../../../../../Drivers/STM32L0xx_HAL_Driver/Src/stm32l0xx_hal_adc.c ****   /* Prevent unused argument(s) compilation warning */
 709:../../../../../../Drivers/STM32L0xx_HAL_Driver/Src/stm32l0xx_hal_adc.c ****   UNUSED(hadc);
ARM GAS  C:\Users\EBANO_~1\AppData\Local\Temp\cc7eeVhF.s 			page 14


 710:../../../../../../Drivers/STM32L0xx_HAL_Driver/Src/stm32l0xx_hal_adc.c **** 
 711:../../../../../../Drivers/STM32L0xx_HAL_Driver/Src/stm32l0xx_hal_adc.c ****   /* NOTE : This function should not be modified. When the callback is needed,
 712:../../../../../../Drivers/STM32L0xx_HAL_Driver/Src/stm32l0xx_hal_adc.c ****             function HAL_ADC_MspInit must be implemented in the user file.
 713:../../../../../../Drivers/STM32L0xx_HAL_Driver/Src/stm32l0xx_hal_adc.c ****    */ 
 714:../../../../../../Drivers/STM32L0xx_HAL_Driver/Src/stm32l0xx_hal_adc.c **** }
  33              		.loc 1 714 0
  34              		@ sp needed
  35 0000 7047     		bx	lr
  36              		.cfi_endproc
  37              	.LFE41:
  38              		.size	HAL_ADC_MspInit, .-HAL_ADC_MspInit
  39 0002 C046     		.section	.text.HAL_ADC_Init,"ax",%progbits
  40              		.align	1
  41              		.p2align 2,,3
  42              		.global	HAL_ADC_Init
  43              		.syntax unified
  44              		.code	16
  45              		.thumb_func
  46              		.fpu softvfp
  47              		.type	HAL_ADC_Init, %function
  48              	HAL_ADC_Init:
  49              	.LFB39:
 356:../../../../../../Drivers/STM32L0xx_HAL_Driver/Src/stm32l0xx_hal_adc.c ****  
  50              		.loc 1 356 0
  51              		.cfi_startproc
  52              		@ args = 0, pretend = 0, frame = 0
  53              		@ frame_needed = 0, uses_anonymous_args = 0
  54              	.LVL1:
  55 0000 70B5     		push	{r4, r5, r6, lr}
  56              	.LCFI0:
  57              		.cfi_def_cfa_offset 16
  58              		.cfi_offset 4, -16
  59              		.cfi_offset 5, -12
  60              		.cfi_offset 6, -8
  61              		.cfi_offset 14, -4
 356:../../../../../../Drivers/STM32L0xx_HAL_Driver/Src/stm32l0xx_hal_adc.c ****  
  62              		.loc 1 356 0
  63 0002 041E     		subs	r4, r0, #0
 359:../../../../../../Drivers/STM32L0xx_HAL_Driver/Src/stm32l0xx_hal_adc.c ****   {
  64              		.loc 1 359 0
  65 0004 00D1     		bne	.LCB25
  66 0006 A4E0     		b	.L20	@long jump
  67              	.LCB25:
 391:../../../../../../Drivers/STM32L0xx_HAL_Driver/Src/stm32l0xx_hal_adc.c ****   {
  68              		.loc 1 391 0
  69 0008 836D     		ldr	r3, [r0, #88]
  70 000a 002B     		cmp	r3, #0
  71 000c 00D1     		bne	.LCB28
  72 000e 96E0     		b	.L24	@long jump
  73              	.LCB28:
 408:../../../../../../Drivers/STM32L0xx_HAL_Driver/Src/stm32l0xx_hal_adc.c ****      (ADC_IS_CONVERSION_ONGOING_REGULAR(hadc) != RESET)  )
  74              		.loc 1 408 0
  75 0010 A36D     		ldr	r3, [r4, #88]
  76 0012 DB06     		lsls	r3, r3, #27
  77 0014 00D5     		bpl	.LCB33
  78 0016 89E0     		b	.L6	@long jump
  79              	.LCB33:
ARM GAS  C:\Users\EBANO_~1\AppData\Local\Temp\cc7eeVhF.s 			page 15


  80              	.LVL2:
  81              	.L28:
 409:../../../../../../Drivers/STM32L0xx_HAL_Driver/Src/stm32l0xx_hal_adc.c ****   {
  82              		.loc 1 409 0 discriminator 1
  83 0018 0421     		movs	r1, #4
  84 001a 2368     		ldr	r3, [r4]
  85 001c 9A68     		ldr	r2, [r3, #8]
  86 001e 1140     		ands	r1, r2
 408:../../../../../../Drivers/STM32L0xx_HAL_Driver/Src/stm32l0xx_hal_adc.c ****      (ADC_IS_CONVERSION_ONGOING_REGULAR(hadc) != RESET)  )
  87              		.loc 1 408 0 discriminator 1
  88 0020 00D0     		beq	.LCB41
  89 0022 83E0     		b	.L6	@long jump
  90              	.LCB41:
 420:../../../../../../Drivers/STM32L0xx_HAL_Driver/Src/stm32l0xx_hal_adc.c ****                     HAL_ADC_STATE_REG_BUSY,
  91              		.loc 1 420 0
  92 0024 A26D     		ldr	r2, [r4, #88]
  93 0026 6248     		ldr	r0, .L29
  94 0028 0240     		ands	r2, r0
  95 002a 0630     		adds	r0, r0, #6
  96 002c FF30     		adds	r0, r0, #255
  97 002e 0243     		orrs	r2, r0
  98 0030 A265     		str	r2, [r4, #88]
 429:../../../../../../Drivers/STM32L0xx_HAL_Driver/Src/stm32l0xx_hal_adc.c ****   {
  99              		.loc 1 429 0
 100 0032 0322     		movs	r2, #3
 101 0034 9868     		ldr	r0, [r3, #8]
 102 0036 0240     		ands	r2, r0
 103 0038 012A     		cmp	r2, #1
 104 003a 00D1     		bne	.LCB53
 105 003c 8BE0     		b	.L25	@long jump
 106              	.LCB53:
 107              	.L8:
 441:../../../../../../Drivers/STM32L0xx_HAL_Driver/Src/stm32l0xx_hal_adc.c ****     
 108              		.loc 1 441 0
 109 003e 8025     		movs	r5, #128
 110 0040 6068     		ldr	r0, [r4, #4]
 111 0042 ED05     		lsls	r5, r5, #23
 112 0044 4200     		lsls	r2, r0, #1
 113 0046 5208     		lsrs	r2, r2, #1
 114 0048 AA42     		cmp	r2, r5
 115 004a 00D1     		bne	.LCB61
 116 004c 88E0     		b	.L10	@long jump
 117              	.LCB61:
 441:../../../../../../Drivers/STM32L0xx_HAL_Driver/Src/stm32l0xx_hal_adc.c ****     
 118              		.loc 1 441 0 is_stmt 0 discriminator 4
 119 004e 8022     		movs	r2, #128
 120 0050 1206     		lsls	r2, r2, #24
 121 0052 9042     		cmp	r0, r2
 122 0054 00D1     		bne	.LCB65
 123 0056 83E0     		b	.L10	@long jump
 124              	.LCB65:
 441:../../../../../../Drivers/STM32L0xx_HAL_Driver/Src/stm32l0xx_hal_adc.c ****     
 125              		.loc 1 441 0 discriminator 6
 126 0058 1A69     		ldr	r2, [r3, #16]
 127 005a 564E     		ldr	r6, .L29+4
 128 005c 9200     		lsls	r2, r2, #2
 129 005e 9208     		lsrs	r2, r2, #2
ARM GAS  C:\Users\EBANO_~1\AppData\Local\Temp\cc7eeVhF.s 			page 16


 130 0060 1A61     		str	r2, [r3, #16]
 131 0062 554A     		ldr	r2, .L29+8
 132 0064 1568     		ldr	r5, [r2]
 133 0066 3540     		ands	r5, r6
 134 0068 1560     		str	r5, [r2]
 135 006a 1568     		ldr	r5, [r2]
 136 006c 2843     		orrs	r0, r5
 137 006e 1060     		str	r0, [r2]
 138              	.L12:
 445:../../../../../../Drivers/STM32L0xx_HAL_Driver/Src/stm32l0xx_hal_adc.c ****     hadc->Instance->CFGR1 |= hadc->Init.Resolution;    
 139              		.loc 1 445 0 is_stmt 1
 140 0070 1820     		movs	r0, #24
 141 0072 DA68     		ldr	r2, [r3, #12]
 142 0074 8243     		bics	r2, r0
 143 0076 DA60     		str	r2, [r3, #12]
 446:../../../../../../Drivers/STM32L0xx_HAL_Driver/Src/stm32l0xx_hal_adc.c ****   }
 144              		.loc 1 446 0
 145 0078 DA68     		ldr	r2, [r3, #12]
 146 007a A068     		ldr	r0, [r4, #8]
 147 007c 0243     		orrs	r2, r0
 148 007e DA60     		str	r2, [r3, #12]
 149              	.L9:
 450:../../../../../../Drivers/STM32L0xx_HAL_Driver/Src/stm32l0xx_hal_adc.c ****   ADC->CCR |=__HAL_ADC_CCR_LOWFREQUENCY(hadc->Init.LowPowerFrequencyMode);  
 150              		.loc 1 450 0
 151 0080 4D48     		ldr	r0, .L29+8
 152 0082 4E4D     		ldr	r5, .L29+12
 153 0084 0268     		ldr	r2, [r0]
 154 0086 2A40     		ands	r2, r5
 155 0088 0260     		str	r2, [r0]
 451:../../../../../../Drivers/STM32L0xx_HAL_Driver/Src/stm32l0xx_hal_adc.c ****    
 156              		.loc 1 451 0
 157 008a A26B     		ldr	r2, [r4, #56]
 158 008c 0568     		ldr	r5, [r0]
 159 008e 5206     		lsls	r2, r2, #25
 160 0090 2A43     		orrs	r2, r5
 161 0092 0260     		str	r2, [r0]
 454:../../../../../../Drivers/STM32L0xx_HAL_Driver/Src/stm32l0xx_hal_adc.c ****   {
 162              		.loc 1 454 0
 163 0094 8022     		movs	r2, #128
 164 0096 9868     		ldr	r0, [r3, #8]
 165 0098 5205     		lsls	r2, r2, #21
 166 009a 1042     		tst	r0, r2
 167 009c 02D1     		bne	.L13
 457:../../../../../../Drivers/STM32L0xx_HAL_Driver/Src/stm32l0xx_hal_adc.c ****   }
 168              		.loc 1 457 0
 169 009e 9868     		ldr	r0, [r3, #8]
 170 00a0 0243     		orrs	r2, r0
 171 00a2 9A60     		str	r2, [r3, #8]
 172              	.L13:
 471:../../../../../../Drivers/STM32L0xx_HAL_Driver/Src/stm32l0xx_hal_adc.c ****                              ADC_CFGR1_SCANDIR |
 173              		.loc 1 471 0
 174 00a4 DA68     		ldr	r2, [r3, #12]
 175 00a6 4648     		ldr	r0, .L29+16
 176 00a8 0240     		ands	r2, r0
 483:../../../../../../Drivers/STM32L0xx_HAL_Driver/Src/stm32l0xx_hal_adc.c ****                             ADC_CONTINUOUS(hadc->Init.ContinuousConvMode)    |
 177              		.loc 1 483 0
 178 00aa 2069     		ldr	r0, [r4, #16]
ARM GAS  C:\Users\EBANO_~1\AppData\Local\Temp\cc7eeVhF.s 			page 17


 471:../../../../../../Drivers/STM32L0xx_HAL_Driver/Src/stm32l0xx_hal_adc.c ****                              ADC_CFGR1_SCANDIR |
 179              		.loc 1 471 0
 180 00ac DA60     		str	r2, [r3, #12]
 482:../../../../../../Drivers/STM32L0xx_HAL_Driver/Src/stm32l0xx_hal_adc.c ****                             ADC_SCANDIR(hadc->Init.ScanConvMode)             |
 181              		.loc 1 482 0
 182 00ae DE68     		ldr	r6, [r3, #12]
 183 00b0 E268     		ldr	r2, [r4, #12]
 483:../../../../../../Drivers/STM32L0xx_HAL_Driver/Src/stm32l0xx_hal_adc.c ****                             ADC_CONTINUOUS(hadc->Init.ContinuousConvMode)    |
 184              		.loc 1 483 0
 185 00b2 0228     		cmp	r0, #2
 186 00b4 00D1     		bne	.L14
 187 00b6 0421     		movs	r1, #4
 188              	.L14:
 482:../../../../../../Drivers/STM32L0xx_HAL_Driver/Src/stm32l0xx_hal_adc.c ****                             ADC_SCANDIR(hadc->Init.ScanConvMode)             |
 189              		.loc 1 482 0
 190 00b8 656B     		ldr	r5, [r4, #52]
 484:../../../../../../Drivers/STM32L0xx_HAL_Driver/Src/stm32l0xx_hal_adc.c ****                             ADC_DMACONTREQ(hadc->Init.DMAContinuousRequests) |
 191              		.loc 1 484 0
 192 00ba 206A     		ldr	r0, [r4, #32]
 482:../../../../../../Drivers/STM32L0xx_HAL_Driver/Src/stm32l0xx_hal_adc.c ****                             ADC_SCANDIR(hadc->Init.ScanConvMode)             |
 193              		.loc 1 482 0
 194 00bc 2A43     		orrs	r2, r5
 484:../../../../../../Drivers/STM32L0xx_HAL_Driver/Src/stm32l0xx_hal_adc.c ****                             ADC_DMACONTREQ(hadc->Init.DMAContinuousRequests) |
 195              		.loc 1 484 0
 196 00be 4503     		lsls	r5, r0, #13
 482:../../../../../../Drivers/STM32L0xx_HAL_Driver/Src/stm32l0xx_hal_adc.c ****                             ADC_SCANDIR(hadc->Init.ScanConvMode)             |
 197              		.loc 1 482 0
 198 00c0 2A43     		orrs	r2, r5
 485:../../../../../../Drivers/STM32L0xx_HAL_Driver/Src/stm32l0xx_hal_adc.c ****                             hadc->Init.Overrun                               |
 199              		.loc 1 485 0
 200 00c2 256B     		ldr	r5, [r4, #48]
 201 00c4 6D00     		lsls	r5, r5, #1
 482:../../../../../../Drivers/STM32L0xx_HAL_Driver/Src/stm32l0xx_hal_adc.c ****                             ADC_SCANDIR(hadc->Init.ScanConvMode)             |
 202              		.loc 1 482 0
 203 00c6 2A43     		orrs	r2, r5
 487:../../../../../../Drivers/STM32L0xx_HAL_Driver/Src/stm32l0xx_hal_adc.c ****                             __HAL_ADC_CFGR1_AUTOFF(hadc->Init.LowPowerAutoPowerOff));
 204              		.loc 1 487 0
 205 00c8 A569     		ldr	r5, [r4, #24]
 206 00ca AD03     		lsls	r5, r5, #14
 482:../../../../../../Drivers/STM32L0xx_HAL_Driver/Src/stm32l0xx_hal_adc.c ****                             ADC_SCANDIR(hadc->Init.ScanConvMode)             |
 207              		.loc 1 482 0
 208 00cc 2A43     		orrs	r2, r5
 488:../../../../../../Drivers/STM32L0xx_HAL_Driver/Src/stm32l0xx_hal_adc.c ****   
 209              		.loc 1 488 0
 210 00ce E569     		ldr	r5, [r4, #28]
 211 00d0 ED03     		lsls	r5, r5, #15
 482:../../../../../../Drivers/STM32L0xx_HAL_Driver/Src/stm32l0xx_hal_adc.c ****                             ADC_SCANDIR(hadc->Init.ScanConvMode)             |
 212              		.loc 1 482 0
 213 00d2 2A43     		orrs	r2, r5
 214 00d4 3243     		orrs	r2, r6
 215 00d6 0A43     		orrs	r2, r1
 495:../../../../../../Drivers/STM32L0xx_HAL_Driver/Src/stm32l0xx_hal_adc.c ****   {
 216              		.loc 1 495 0
 217 00d8 C221     		movs	r1, #194
 482:../../../../../../Drivers/STM32L0xx_HAL_Driver/Src/stm32l0xx_hal_adc.c ****                             ADC_SCANDIR(hadc->Init.ScanConvMode)             |
 218              		.loc 1 482 0
 219 00da DA60     		str	r2, [r3, #12]
ARM GAS  C:\Users\EBANO_~1\AppData\Local\Temp\cc7eeVhF.s 			page 18


 495:../../../../../../Drivers/STM32L0xx_HAL_Driver/Src/stm32l0xx_hal_adc.c ****   {
 220              		.loc 1 495 0
 221 00dc A26A     		ldr	r2, [r4, #40]
 222 00de FF31     		adds	r1, r1, #255
 223 00e0 8A42     		cmp	r2, r1
 224 00e2 04D0     		beq	.L15
 497:../../../../../../Drivers/STM32L0xx_HAL_Driver/Src/stm32l0xx_hal_adc.c ****                              hadc->Init.ExternalTrigConvEdge;
 225              		.loc 1 497 0
 226 00e4 E56A     		ldr	r5, [r4, #44]
 227 00e6 D968     		ldr	r1, [r3, #12]
 228 00e8 2A43     		orrs	r2, r5
 229 00ea 0A43     		orrs	r2, r1
 230 00ec DA60     		str	r2, [r3, #12]
 231              	.L15:
 502:../../../../../../Drivers/STM32L0xx_HAL_Driver/Src/stm32l0xx_hal_adc.c ****   {
 232              		.loc 1 502 0
 233 00ee 626A     		ldr	r2, [r4, #36]
 234 00f0 012A     		cmp	r2, #1
 235 00f2 4DD0     		beq	.L26
 236              	.L16:
 523:../../../../../../Drivers/STM32L0xx_HAL_Driver/Src/stm32l0xx_hal_adc.c ****   {
 237              		.loc 1 523 0
 238 00f4 216C     		ldr	r1, [r4, #64]
 239 00f6 0129     		cmp	r1, #1
 240 00f8 3AD0     		beq	.L27
 547:../../../../../../Drivers/STM32L0xx_HAL_Driver/Src/stm32l0xx_hal_adc.c ****     {
 241              		.loc 1 547 0
 242 00fa 0122     		movs	r2, #1
 243 00fc 1969     		ldr	r1, [r3, #16]
 244 00fe 0A42     		tst	r2, r1
 245 0100 02D0     		beq	.L19
 550:../../../../../../Drivers/STM32L0xx_HAL_Driver/Src/stm32l0xx_hal_adc.c ****     }
 246              		.loc 1 550 0
 247 0102 1969     		ldr	r1, [r3, #16]
 248 0104 9143     		bics	r1, r2
 249 0106 1961     		str	r1, [r3, #16]
 250              	.L19:
 555:../../../../../../Drivers/STM32L0xx_HAL_Driver/Src/stm32l0xx_hal_adc.c ****   
 251              		.loc 1 555 0
 252 0108 0721     		movs	r1, #7
 253 010a 5A69     		ldr	r2, [r3, #20]
 570:../../../../../../Drivers/STM32L0xx_HAL_Driver/Src/stm32l0xx_hal_adc.c **** }
 254              		.loc 1 570 0
 255 010c 0020     		movs	r0, #0
 555:../../../../../../Drivers/STM32L0xx_HAL_Driver/Src/stm32l0xx_hal_adc.c ****   
 256              		.loc 1 555 0
 257 010e 8A43     		bics	r2, r1
 258 0110 5A61     		str	r2, [r3, #20]
 558:../../../../../../Drivers/STM32L0xx_HAL_Driver/Src/stm32l0xx_hal_adc.c ****   
 259              		.loc 1 558 0
 260 0112 5A69     		ldr	r2, [r3, #20]
 261 0114 E16B     		ldr	r1, [r4, #60]
 262 0116 0A43     		orrs	r2, r1
 263 0118 5A61     		str	r2, [r3, #20]
 561:../../../../../../Drivers/STM32L0xx_HAL_Driver/Src/stm32l0xx_hal_adc.c **** 
 264              		.loc 1 561 0
 265 011a 0023     		movs	r3, #0
ARM GAS  C:\Users\EBANO_~1\AppData\Local\Temp\cc7eeVhF.s 			page 19


 564:../../../../../../Drivers/STM32L0xx_HAL_Driver/Src/stm32l0xx_hal_adc.c ****                     HAL_ADC_STATE_BUSY_INTERNAL,
 266              		.loc 1 564 0
 267 011c 0322     		movs	r2, #3
 561:../../../../../../Drivers/STM32L0xx_HAL_Driver/Src/stm32l0xx_hal_adc.c **** 
 268              		.loc 1 561 0
 269 011e E365     		str	r3, [r4, #92]
 564:../../../../../../Drivers/STM32L0xx_HAL_Driver/Src/stm32l0xx_hal_adc.c ****                     HAL_ADC_STATE_BUSY_INTERNAL,
 270              		.loc 1 564 0
 271 0120 A36D     		ldr	r3, [r4, #88]
 272 0122 9343     		bics	r3, r2
 273 0124 023A     		subs	r2, r2, #2
 274 0126 1343     		orrs	r3, r2
 275 0128 A365     		str	r3, [r4, #88]
 570:../../../../../../Drivers/STM32L0xx_HAL_Driver/Src/stm32l0xx_hal_adc.c **** }
 276              		.loc 1 570 0
 277 012a 07E0     		b	.L4
 278              	.L6:
 412:../../../../../../Drivers/STM32L0xx_HAL_Driver/Src/stm32l0xx_hal_adc.c ****         
 279              		.loc 1 412 0
 280 012c 1022     		movs	r2, #16
 281 012e A36D     		ldr	r3, [r4, #88]
 416:../../../../../../Drivers/STM32L0xx_HAL_Driver/Src/stm32l0xx_hal_adc.c ****   }
 282              		.loc 1 416 0
 283 0130 0120     		movs	r0, #1
 412:../../../../../../Drivers/STM32L0xx_HAL_Driver/Src/stm32l0xx_hal_adc.c ****         
 284              		.loc 1 412 0
 285 0132 1343     		orrs	r3, r2
 286 0134 A365     		str	r3, [r4, #88]
 415:../../../../../../Drivers/STM32L0xx_HAL_Driver/Src/stm32l0xx_hal_adc.c ****     return HAL_ERROR;
 287              		.loc 1 415 0
 288 0136 0022     		movs	r2, #0
 289 0138 5423     		movs	r3, #84
 290 013a E254     		strb	r2, [r4, r3]
 291              	.L4:
 571:../../../../../../Drivers/STM32L0xx_HAL_Driver/Src/stm32l0xx_hal_adc.c **** 
 292              		.loc 1 571 0
 293              		@ sp needed
 294              	.LVL3:
 295 013c 70BD     		pop	{r4, r5, r6, pc}
 296              	.LVL4:
 297              	.L24:
 397:../../../../../../Drivers/STM32L0xx_HAL_Driver/Src/stm32l0xx_hal_adc.c ****     
 298              		.loc 1 397 0
 299 013e 5422     		movs	r2, #84
 394:../../../../../../Drivers/STM32L0xx_HAL_Driver/Src/stm32l0xx_hal_adc.c ****     
 300              		.loc 1 394 0
 301 0140 C365     		str	r3, [r0, #92]
 397:../../../../../../Drivers/STM32L0xx_HAL_Driver/Src/stm32l0xx_hal_adc.c ****     
 302              		.loc 1 397 0
 303 0142 8354     		strb	r3, [r0, r2]
 400:../../../../../../Drivers/STM32L0xx_HAL_Driver/Src/stm32l0xx_hal_adc.c ****   }
 304              		.loc 1 400 0
 305 0144 FFF7FEFF 		bl	HAL_ADC_MspInit
 306              	.LVL5:
 408:../../../../../../Drivers/STM32L0xx_HAL_Driver/Src/stm32l0xx_hal_adc.c ****      (ADC_IS_CONVERSION_ONGOING_REGULAR(hadc) != RESET)  )
 307              		.loc 1 408 0
 308 0148 A36D     		ldr	r3, [r4, #88]
ARM GAS  C:\Users\EBANO_~1\AppData\Local\Temp\cc7eeVhF.s 			page 20


 309 014a DB06     		lsls	r3, r3, #27
 310 014c 00D4     		bmi	.LCB232
 311 014e 63E7     		b	.L28	@long jump
 312              	.LCB232:
 313 0150 ECE7     		b	.L6
 314              	.LVL6:
 315              	.L20:
 361:../../../../../../Drivers/STM32L0xx_HAL_Driver/Src/stm32l0xx_hal_adc.c ****   }
 316              		.loc 1 361 0
 317 0152 0120     		movs	r0, #1
 318              	.LVL7:
 319 0154 F2E7     		b	.L4
 320              	.L25:
 429:../../../../../../Drivers/STM32L0xx_HAL_Driver/Src/stm32l0xx_hal_adc.c ****   {
 321              		.loc 1 429 0 discriminator 1
 322 0156 1868     		ldr	r0, [r3]
 323 0158 0242     		tst	r2, r0
 324 015a 00D0     		beq	.LCB248
 325 015c 90E7     		b	.L9	@long jump
 326              	.LCB248:
 327 015e 6EE7     		b	.L8
 328              	.L10:
 441:../../../../../../Drivers/STM32L0xx_HAL_Driver/Src/stm32l0xx_hal_adc.c ****     
 329              		.loc 1 441 0 discriminator 5
 330 0160 1A69     		ldr	r2, [r3, #16]
 331 0162 9200     		lsls	r2, r2, #2
 332 0164 9208     		lsrs	r2, r2, #2
 333 0166 1A61     		str	r2, [r3, #16]
 334 0168 1A69     		ldr	r2, [r3, #16]
 335 016a 1043     		orrs	r0, r2
 336 016c 1861     		str	r0, [r3, #16]
 337 016e 7FE7     		b	.L12
 338              	.L27:
 534:../../../../../../Drivers/STM32L0xx_HAL_Driver/Src/stm32l0xx_hal_adc.c ****                                 ADC_CFGR2_OVSS |
 339              		.loc 1 534 0
 340 0170 1A69     		ldr	r2, [r3, #16]
 341 0172 1448     		ldr	r0, .L29+20
 538:../../../../../../Drivers/STM32L0xx_HAL_Driver/Src/stm32l0xx_hal_adc.c ****                                hadc->Init.Oversample.RightBitShift             |
 342              		.loc 1 538 0
 343 0174 A56C     		ldr	r5, [r4, #72]
 534:../../../../../../Drivers/STM32L0xx_HAL_Driver/Src/stm32l0xx_hal_adc.c ****                                 ADC_CFGR2_OVSS |
 344              		.loc 1 534 0
 345 0176 0240     		ands	r2, r0
 346 0178 1A61     		str	r2, [r3, #16]
 538:../../../../../../Drivers/STM32L0xx_HAL_Driver/Src/stm32l0xx_hal_adc.c ****                                hadc->Init.Oversample.RightBitShift             |
 347              		.loc 1 538 0
 348 017a 626C     		ldr	r2, [r4, #68]
 349 017c 1869     		ldr	r0, [r3, #16]
 350 017e 2A43     		orrs	r2, r5
 539:../../../../../../Drivers/STM32L0xx_HAL_Driver/Src/stm32l0xx_hal_adc.c ****                                hadc->Init.Oversample.TriggeredMode );
 351              		.loc 1 539 0
 352 0180 E56C     		ldr	r5, [r4, #76]
 353 0182 2A43     		orrs	r2, r5
 538:../../../../../../Drivers/STM32L0xx_HAL_Driver/Src/stm32l0xx_hal_adc.c ****                                hadc->Init.Oversample.RightBitShift             |
 354              		.loc 1 538 0
 355 0184 0243     		orrs	r2, r0
 356 0186 1A61     		str	r2, [r3, #16]
ARM GAS  C:\Users\EBANO_~1\AppData\Local\Temp\cc7eeVhF.s 			page 21


 543:../../../../../../Drivers/STM32L0xx_HAL_Driver/Src/stm32l0xx_hal_adc.c ****   }
 357              		.loc 1 543 0
 358 0188 1A69     		ldr	r2, [r3, #16]
 359 018a 1143     		orrs	r1, r2
 360 018c 1961     		str	r1, [r3, #16]
 361 018e BBE7     		b	.L19
 362              	.L26:
 504:../../../../../../Drivers/STM32L0xx_HAL_Driver/Src/stm32l0xx_hal_adc.c ****     {
 363              		.loc 1 504 0
 364 0190 0028     		cmp	r0, #0
 365 0192 05D1     		bne	.L17
 507:../../../../../../Drivers/STM32L0xx_HAL_Driver/Src/stm32l0xx_hal_adc.c ****     }
 366              		.loc 1 507 0
 367 0194 8022     		movs	r2, #128
 368 0196 D968     		ldr	r1, [r3, #12]
 369 0198 5202     		lsls	r2, r2, #9
 370 019a 0A43     		orrs	r2, r1
 371 019c DA60     		str	r2, [r3, #12]
 372 019e A9E7     		b	.L16
 373              	.L17:
 516:../../../../../../Drivers/STM32L0xx_HAL_Driver/Src/stm32l0xx_hal_adc.c ****       
 374              		.loc 1 516 0
 375 01a0 2020     		movs	r0, #32
 376 01a2 A16D     		ldr	r1, [r4, #88]
 377 01a4 0143     		orrs	r1, r0
 378 01a6 A165     		str	r1, [r4, #88]
 519:../../../../../../Drivers/STM32L0xx_HAL_Driver/Src/stm32l0xx_hal_adc.c ****     }
 379              		.loc 1 519 0
 380 01a8 E16D     		ldr	r1, [r4, #92]
 381 01aa 0A43     		orrs	r2, r1
 382 01ac E265     		str	r2, [r4, #92]
 383 01ae A1E7     		b	.L16
 384              	.L30:
 385              		.align	2
 386              	.L29:
 387 01b0 FDFEFFFF 		.word	-259
 388 01b4 FFFFC3FF 		.word	-3932161
 389 01b8 08270140 		.word	1073817352
 390 01bc FFFFFFFD 		.word	-33554433
 391 01c0 1902FEFF 		.word	-130535
 392 01c4 03FCFFFF 		.word	-1021
 393              		.cfi_endproc
 394              	.LFE39:
 395              		.size	HAL_ADC_Init, .-HAL_ADC_Init
 396              		.section	.text.HAL_ADC_MspDeInit,"ax",%progbits
 397              		.align	1
 398              		.p2align 2,,3
 399              		.weak	HAL_ADC_MspDeInit
 400              		.syntax unified
 401              		.code	16
 402              		.thumb_func
 403              		.fpu softvfp
 404              		.type	HAL_ADC_MspDeInit, %function
 405              	HAL_ADC_MspDeInit:
 406              	.LFB72:
 407              		.cfi_startproc
 408              		@ args = 0, pretend = 0, frame = 0
ARM GAS  C:\Users\EBANO_~1\AppData\Local\Temp\cc7eeVhF.s 			page 22


 409              		@ frame_needed = 0, uses_anonymous_args = 0
 410              		@ link register save eliminated.
 411              		@ sp needed
 412 0000 7047     		bx	lr
 413              		.cfi_endproc
 414              	.LFE72:
 415              		.size	HAL_ADC_MspDeInit, .-HAL_ADC_MspDeInit
 416 0002 C046     		.section	.text.HAL_ADC_DeInit,"ax",%progbits
 417              		.align	1
 418              		.p2align 2,,3
 419              		.global	HAL_ADC_DeInit
 420              		.syntax unified
 421              		.code	16
 422              		.thumb_func
 423              		.fpu softvfp
 424              		.type	HAL_ADC_DeInit, %function
 425              	HAL_ADC_DeInit:
 426              	.LFB40:
 586:../../../../../../Drivers/STM32L0xx_HAL_Driver/Src/stm32l0xx_hal_adc.c ****   HAL_StatusTypeDef tmp_hal_status = HAL_OK;
 427              		.loc 1 586 0
 428              		.cfi_startproc
 429              		@ args = 0, pretend = 0, frame = 0
 430              		@ frame_needed = 0, uses_anonymous_args = 0
 431              	.LVL8:
 586:../../../../../../Drivers/STM32L0xx_HAL_Driver/Src/stm32l0xx_hal_adc.c ****   HAL_StatusTypeDef tmp_hal_status = HAL_OK;
 432              		.loc 1 586 0
 433 0000 70B5     		push	{r4, r5, r6, lr}
 434              	.LCFI1:
 435              		.cfi_def_cfa_offset 16
 436              		.cfi_offset 4, -16
 437              		.cfi_offset 5, -12
 438              		.cfi_offset 6, -8
 439              		.cfi_offset 14, -4
 586:../../../../../../Drivers/STM32L0xx_HAL_Driver/Src/stm32l0xx_hal_adc.c ****   HAL_StatusTypeDef tmp_hal_status = HAL_OK;
 440              		.loc 1 586 0
 441 0002 0400     		movs	r4, r0
 592:../../../../../../Drivers/STM32L0xx_HAL_Driver/Src/stm32l0xx_hal_adc.c ****   }
 442              		.loc 1 592 0
 443 0004 0120     		movs	r0, #1
 444              	.LVL9:
 590:../../../../../../Drivers/STM32L0xx_HAL_Driver/Src/stm32l0xx_hal_adc.c ****   {
 445              		.loc 1 590 0
 446 0006 002C     		cmp	r4, #0
 447 0008 70D0     		beq	.L51
 599:../../../../../../Drivers/STM32L0xx_HAL_Driver/Src/stm32l0xx_hal_adc.c ****   
 448              		.loc 1 599 0
 449 000a 0221     		movs	r1, #2
 450              	.LBB16:
 451              	.LBB17:
 715:../../../../../../Drivers/STM32L0xx_HAL_Driver/Src/stm32l0xx_hal_adc.c **** 
 716:../../../../../../Drivers/STM32L0xx_HAL_Driver/Src/stm32l0xx_hal_adc.c **** /**
 717:../../../../../../Drivers/STM32L0xx_HAL_Driver/Src/stm32l0xx_hal_adc.c ****   * @brief  DeInitialize the ADC MSP.
 718:../../../../../../Drivers/STM32L0xx_HAL_Driver/Src/stm32l0xx_hal_adc.c ****   * @param  hadc ADC handle
 719:../../../../../../Drivers/STM32L0xx_HAL_Driver/Src/stm32l0xx_hal_adc.c ****   * @retval None
 720:../../../../../../Drivers/STM32L0xx_HAL_Driver/Src/stm32l0xx_hal_adc.c ****   */
 721:../../../../../../Drivers/STM32L0xx_HAL_Driver/Src/stm32l0xx_hal_adc.c **** __weak void HAL_ADC_MspDeInit(ADC_HandleTypeDef* hadc)
 722:../../../../../../Drivers/STM32L0xx_HAL_Driver/Src/stm32l0xx_hal_adc.c **** {
ARM GAS  C:\Users\EBANO_~1\AppData\Local\Temp\cc7eeVhF.s 			page 23


 723:../../../../../../Drivers/STM32L0xx_HAL_Driver/Src/stm32l0xx_hal_adc.c ****   /* Prevent unused argument(s) compilation warning */
 724:../../../../../../Drivers/STM32L0xx_HAL_Driver/Src/stm32l0xx_hal_adc.c ****   UNUSED(hadc);
 725:../../../../../../Drivers/STM32L0xx_HAL_Driver/Src/stm32l0xx_hal_adc.c **** 
 726:../../../../../../Drivers/STM32L0xx_HAL_Driver/Src/stm32l0xx_hal_adc.c ****   /* NOTE : This function should not be modified. When the callback is needed,
 727:../../../../../../Drivers/STM32L0xx_HAL_Driver/Src/stm32l0xx_hal_adc.c ****             function HAL_ADC_MspDeInit must be implemented in the user file.
 728:../../../../../../Drivers/STM32L0xx_HAL_Driver/Src/stm32l0xx_hal_adc.c ****    */ 
 729:../../../../../../Drivers/STM32L0xx_HAL_Driver/Src/stm32l0xx_hal_adc.c **** }
 730:../../../../../../Drivers/STM32L0xx_HAL_Driver/Src/stm32l0xx_hal_adc.c **** 
 731:../../../../../../Drivers/STM32L0xx_HAL_Driver/Src/stm32l0xx_hal_adc.c **** /**
 732:../../../../../../Drivers/STM32L0xx_HAL_Driver/Src/stm32l0xx_hal_adc.c ****   * @}
 733:../../../../../../Drivers/STM32L0xx_HAL_Driver/Src/stm32l0xx_hal_adc.c ****   */
 734:../../../../../../Drivers/STM32L0xx_HAL_Driver/Src/stm32l0xx_hal_adc.c **** 
 735:../../../../../../Drivers/STM32L0xx_HAL_Driver/Src/stm32l0xx_hal_adc.c **** /** @defgroup ADC_Exported_Functions_Group2 ADC Input and Output operation functions
 736:../../../../../../Drivers/STM32L0xx_HAL_Driver/Src/stm32l0xx_hal_adc.c ****  *  @brief    ADC IO operation functions 
 737:../../../../../../Drivers/STM32L0xx_HAL_Driver/Src/stm32l0xx_hal_adc.c ****  *
 738:../../../../../../Drivers/STM32L0xx_HAL_Driver/Src/stm32l0xx_hal_adc.c **** @verbatim   
 739:../../../../../../Drivers/STM32L0xx_HAL_Driver/Src/stm32l0xx_hal_adc.c ****  ===============================================================================
 740:../../../../../../Drivers/STM32L0xx_HAL_Driver/Src/stm32l0xx_hal_adc.c ****                       ##### IO operation functions #####
 741:../../../../../../Drivers/STM32L0xx_HAL_Driver/Src/stm32l0xx_hal_adc.c ****  ===============================================================================
 742:../../../../../../Drivers/STM32L0xx_HAL_Driver/Src/stm32l0xx_hal_adc.c ****     [..]  This section provides functions allowing to:
 743:../../../../../../Drivers/STM32L0xx_HAL_Driver/Src/stm32l0xx_hal_adc.c ****       (+) Start conversion of regular group.
 744:../../../../../../Drivers/STM32L0xx_HAL_Driver/Src/stm32l0xx_hal_adc.c ****       (+) Stop conversion of regular group.
 745:../../../../../../Drivers/STM32L0xx_HAL_Driver/Src/stm32l0xx_hal_adc.c ****       (+) Poll for conversion complete on regular group.
 746:../../../../../../Drivers/STM32L0xx_HAL_Driver/Src/stm32l0xx_hal_adc.c ****       (+) Poll for conversion event.
 747:../../../../../../Drivers/STM32L0xx_HAL_Driver/Src/stm32l0xx_hal_adc.c ****       (+) Get result of regular channel conversion.
 748:../../../../../../Drivers/STM32L0xx_HAL_Driver/Src/stm32l0xx_hal_adc.c ****       (+) Start conversion of regular group and enable interruptions.
 749:../../../../../../Drivers/STM32L0xx_HAL_Driver/Src/stm32l0xx_hal_adc.c ****       (+) Stop conversion of regular group and disable interruptions.
 750:../../../../../../Drivers/STM32L0xx_HAL_Driver/Src/stm32l0xx_hal_adc.c ****       (+) Handle ADC interrupt request
 751:../../../../../../Drivers/STM32L0xx_HAL_Driver/Src/stm32l0xx_hal_adc.c ****       (+) Start conversion of regular group and enable DMA transfer.
 752:../../../../../../Drivers/STM32L0xx_HAL_Driver/Src/stm32l0xx_hal_adc.c ****       (+) Stop conversion of regular group and disable ADC DMA transfer.
 753:../../../../../../Drivers/STM32L0xx_HAL_Driver/Src/stm32l0xx_hal_adc.c **** @endverbatim
 754:../../../../../../Drivers/STM32L0xx_HAL_Driver/Src/stm32l0xx_hal_adc.c ****   * @{
 755:../../../../../../Drivers/STM32L0xx_HAL_Driver/Src/stm32l0xx_hal_adc.c ****   */
 756:../../../../../../Drivers/STM32L0xx_HAL_Driver/Src/stm32l0xx_hal_adc.c **** 
 757:../../../../../../Drivers/STM32L0xx_HAL_Driver/Src/stm32l0xx_hal_adc.c **** /**
 758:../../../../../../Drivers/STM32L0xx_HAL_Driver/Src/stm32l0xx_hal_adc.c ****   * @brief  Enable ADC, start conversion of regular group.
 759:../../../../../../Drivers/STM32L0xx_HAL_Driver/Src/stm32l0xx_hal_adc.c ****   * @note   Interruptions enabled in this function: None.
 760:../../../../../../Drivers/STM32L0xx_HAL_Driver/Src/stm32l0xx_hal_adc.c ****   * @param  hadc ADC handle
 761:../../../../../../Drivers/STM32L0xx_HAL_Driver/Src/stm32l0xx_hal_adc.c ****   * @retval HAL status
 762:../../../../../../Drivers/STM32L0xx_HAL_Driver/Src/stm32l0xx_hal_adc.c ****   */
 763:../../../../../../Drivers/STM32L0xx_HAL_Driver/Src/stm32l0xx_hal_adc.c **** HAL_StatusTypeDef HAL_ADC_Start(ADC_HandleTypeDef* hadc)
 764:../../../../../../Drivers/STM32L0xx_HAL_Driver/Src/stm32l0xx_hal_adc.c **** {
 765:../../../../../../Drivers/STM32L0xx_HAL_Driver/Src/stm32l0xx_hal_adc.c ****   HAL_StatusTypeDef tmp_hal_status = HAL_OK;
 766:../../../../../../Drivers/STM32L0xx_HAL_Driver/Src/stm32l0xx_hal_adc.c ****   
 767:../../../../../../Drivers/STM32L0xx_HAL_Driver/Src/stm32l0xx_hal_adc.c ****   /* Check the parameters */
 768:../../../../../../Drivers/STM32L0xx_HAL_Driver/Src/stm32l0xx_hal_adc.c ****   assert_param(IS_ADC_ALL_INSTANCE(hadc->Instance));
 769:../../../../../../Drivers/STM32L0xx_HAL_Driver/Src/stm32l0xx_hal_adc.c ****   
 770:../../../../../../Drivers/STM32L0xx_HAL_Driver/Src/stm32l0xx_hal_adc.c ****   /* Perform ADC enable and conversion start if no conversion is on going */
 771:../../../../../../Drivers/STM32L0xx_HAL_Driver/Src/stm32l0xx_hal_adc.c ****   if (ADC_IS_CONVERSION_ONGOING_REGULAR(hadc) == RESET)
 772:../../../../../../Drivers/STM32L0xx_HAL_Driver/Src/stm32l0xx_hal_adc.c ****   {
 773:../../../../../../Drivers/STM32L0xx_HAL_Driver/Src/stm32l0xx_hal_adc.c ****     /* Process locked */
 774:../../../../../../Drivers/STM32L0xx_HAL_Driver/Src/stm32l0xx_hal_adc.c ****     __HAL_LOCK(hadc);
 775:../../../../../../Drivers/STM32L0xx_HAL_Driver/Src/stm32l0xx_hal_adc.c ****     
 776:../../../../../../Drivers/STM32L0xx_HAL_Driver/Src/stm32l0xx_hal_adc.c ****     /* Enable the ADC peripheral */
 777:../../../../../../Drivers/STM32L0xx_HAL_Driver/Src/stm32l0xx_hal_adc.c ****     /* If low power mode AutoPowerOff is enabled, power-on/off phases are     */
 778:../../../../../../Drivers/STM32L0xx_HAL_Driver/Src/stm32l0xx_hal_adc.c ****     /* performed automatically by hardware.                                   */
 779:../../../../../../Drivers/STM32L0xx_HAL_Driver/Src/stm32l0xx_hal_adc.c ****     if (hadc->Init.LowPowerAutoPowerOff != ENABLE)
ARM GAS  C:\Users\EBANO_~1\AppData\Local\Temp\cc7eeVhF.s 			page 24


 780:../../../../../../Drivers/STM32L0xx_HAL_Driver/Src/stm32l0xx_hal_adc.c ****     {
 781:../../../../../../Drivers/STM32L0xx_HAL_Driver/Src/stm32l0xx_hal_adc.c ****       tmp_hal_status = ADC_Enable(hadc);
 782:../../../../../../Drivers/STM32L0xx_HAL_Driver/Src/stm32l0xx_hal_adc.c ****     }
 783:../../../../../../Drivers/STM32L0xx_HAL_Driver/Src/stm32l0xx_hal_adc.c ****     
 784:../../../../../../Drivers/STM32L0xx_HAL_Driver/Src/stm32l0xx_hal_adc.c ****     /* Start conversion if ADC is effectively enabled */
 785:../../../../../../Drivers/STM32L0xx_HAL_Driver/Src/stm32l0xx_hal_adc.c ****     if (tmp_hal_status == HAL_OK)
 786:../../../../../../Drivers/STM32L0xx_HAL_Driver/Src/stm32l0xx_hal_adc.c ****     {
 787:../../../../../../Drivers/STM32L0xx_HAL_Driver/Src/stm32l0xx_hal_adc.c ****       /* Set ADC state                                                        */
 788:../../../../../../Drivers/STM32L0xx_HAL_Driver/Src/stm32l0xx_hal_adc.c ****       /* - Clear state bitfield related to regular group conversion results   */
 789:../../../../../../Drivers/STM32L0xx_HAL_Driver/Src/stm32l0xx_hal_adc.c ****       /* - Set state bitfield related to regular operation                    */
 790:../../../../../../Drivers/STM32L0xx_HAL_Driver/Src/stm32l0xx_hal_adc.c ****       ADC_STATE_CLR_SET(hadc->State,
 791:../../../../../../Drivers/STM32L0xx_HAL_Driver/Src/stm32l0xx_hal_adc.c ****                         HAL_ADC_STATE_READY | HAL_ADC_STATE_REG_EOC | HAL_ADC_STATE_REG_OVR | HAL_A
 792:../../../../../../Drivers/STM32L0xx_HAL_Driver/Src/stm32l0xx_hal_adc.c ****                         HAL_ADC_STATE_REG_BUSY);
 793:../../../../../../Drivers/STM32L0xx_HAL_Driver/Src/stm32l0xx_hal_adc.c ****       
 794:../../../../../../Drivers/STM32L0xx_HAL_Driver/Src/stm32l0xx_hal_adc.c ****       /* Reset ADC all error code fields */
 795:../../../../../../Drivers/STM32L0xx_HAL_Driver/Src/stm32l0xx_hal_adc.c ****       ADC_CLEAR_ERRORCODE(hadc);
 796:../../../../../../Drivers/STM32L0xx_HAL_Driver/Src/stm32l0xx_hal_adc.c ****       
 797:../../../../../../Drivers/STM32L0xx_HAL_Driver/Src/stm32l0xx_hal_adc.c ****       /* Process unlocked */
 798:../../../../../../Drivers/STM32L0xx_HAL_Driver/Src/stm32l0xx_hal_adc.c ****       /* Unlock before starting ADC conversions: in case of potential         */
 799:../../../../../../Drivers/STM32L0xx_HAL_Driver/Src/stm32l0xx_hal_adc.c ****       /* interruption, to let the process to ADC IRQ Handler.                 */
 800:../../../../../../Drivers/STM32L0xx_HAL_Driver/Src/stm32l0xx_hal_adc.c ****       __HAL_UNLOCK(hadc);
 801:../../../../../../Drivers/STM32L0xx_HAL_Driver/Src/stm32l0xx_hal_adc.c ****       
 802:../../../../../../Drivers/STM32L0xx_HAL_Driver/Src/stm32l0xx_hal_adc.c ****       /* Clear regular group conversion flag and overrun flag */
 803:../../../../../../Drivers/STM32L0xx_HAL_Driver/Src/stm32l0xx_hal_adc.c ****       /* (To ensure of no unknown state from potential previous ADC           */
 804:../../../../../../Drivers/STM32L0xx_HAL_Driver/Src/stm32l0xx_hal_adc.c ****       /* operations)                                                          */
 805:../../../../../../Drivers/STM32L0xx_HAL_Driver/Src/stm32l0xx_hal_adc.c ****       __HAL_ADC_CLEAR_FLAG(hadc, (ADC_FLAG_EOC | ADC_FLAG_EOS | ADC_FLAG_OVR));
 806:../../../../../../Drivers/STM32L0xx_HAL_Driver/Src/stm32l0xx_hal_adc.c ****       
 807:../../../../../../Drivers/STM32L0xx_HAL_Driver/Src/stm32l0xx_hal_adc.c ****       /* Enable conversion of regular group.                                  */
 808:../../../../../../Drivers/STM32L0xx_HAL_Driver/Src/stm32l0xx_hal_adc.c ****       /* If software start has been selected, conversion starts immediately.  */
 809:../../../../../../Drivers/STM32L0xx_HAL_Driver/Src/stm32l0xx_hal_adc.c ****       /* If external trigger has been selected, conversion will start at next */
 810:../../../../../../Drivers/STM32L0xx_HAL_Driver/Src/stm32l0xx_hal_adc.c ****       /* trigger event.                                                       */
 811:../../../../../../Drivers/STM32L0xx_HAL_Driver/Src/stm32l0xx_hal_adc.c ****       hadc->Instance->CR |= ADC_CR_ADSTART;
 812:../../../../../../Drivers/STM32L0xx_HAL_Driver/Src/stm32l0xx_hal_adc.c ****     }
 813:../../../../../../Drivers/STM32L0xx_HAL_Driver/Src/stm32l0xx_hal_adc.c ****   }
 814:../../../../../../Drivers/STM32L0xx_HAL_Driver/Src/stm32l0xx_hal_adc.c ****   else
 815:../../../../../../Drivers/STM32L0xx_HAL_Driver/Src/stm32l0xx_hal_adc.c ****   {
 816:../../../../../../Drivers/STM32L0xx_HAL_Driver/Src/stm32l0xx_hal_adc.c ****     tmp_hal_status = HAL_BUSY;
 817:../../../../../../Drivers/STM32L0xx_HAL_Driver/Src/stm32l0xx_hal_adc.c ****   }
 818:../../../../../../Drivers/STM32L0xx_HAL_Driver/Src/stm32l0xx_hal_adc.c ****   
 819:../../../../../../Drivers/STM32L0xx_HAL_Driver/Src/stm32l0xx_hal_adc.c ****   /* Return function status */
 820:../../../../../../Drivers/STM32L0xx_HAL_Driver/Src/stm32l0xx_hal_adc.c ****   return tmp_hal_status;
 821:../../../../../../Drivers/STM32L0xx_HAL_Driver/Src/stm32l0xx_hal_adc.c **** }
 822:../../../../../../Drivers/STM32L0xx_HAL_Driver/Src/stm32l0xx_hal_adc.c **** 
 823:../../../../../../Drivers/STM32L0xx_HAL_Driver/Src/stm32l0xx_hal_adc.c **** /**
 824:../../../../../../Drivers/STM32L0xx_HAL_Driver/Src/stm32l0xx_hal_adc.c ****   * @brief  Stop ADC conversion of regular group (and injected channels in 
 825:../../../../../../Drivers/STM32L0xx_HAL_Driver/Src/stm32l0xx_hal_adc.c ****   *         case of auto_injection mode), disable ADC peripheral.
 826:../../../../../../Drivers/STM32L0xx_HAL_Driver/Src/stm32l0xx_hal_adc.c ****   * @param  hadc ADC handle
 827:../../../../../../Drivers/STM32L0xx_HAL_Driver/Src/stm32l0xx_hal_adc.c ****   * @retval HAL status.
 828:../../../../../../Drivers/STM32L0xx_HAL_Driver/Src/stm32l0xx_hal_adc.c ****   */
 829:../../../../../../Drivers/STM32L0xx_HAL_Driver/Src/stm32l0xx_hal_adc.c **** HAL_StatusTypeDef HAL_ADC_Stop(ADC_HandleTypeDef* hadc)
 830:../../../../../../Drivers/STM32L0xx_HAL_Driver/Src/stm32l0xx_hal_adc.c **** {
 831:../../../../../../Drivers/STM32L0xx_HAL_Driver/Src/stm32l0xx_hal_adc.c ****   HAL_StatusTypeDef tmp_hal_status = HAL_OK;
 832:../../../../../../Drivers/STM32L0xx_HAL_Driver/Src/stm32l0xx_hal_adc.c ****   
 833:../../../../../../Drivers/STM32L0xx_HAL_Driver/Src/stm32l0xx_hal_adc.c ****   /* Check the parameters */
 834:../../../../../../Drivers/STM32L0xx_HAL_Driver/Src/stm32l0xx_hal_adc.c ****   assert_param(IS_ADC_ALL_INSTANCE(hadc->Instance));
 835:../../../../../../Drivers/STM32L0xx_HAL_Driver/Src/stm32l0xx_hal_adc.c ****   
 836:../../../../../../Drivers/STM32L0xx_HAL_Driver/Src/stm32l0xx_hal_adc.c ****   /* Process locked */
ARM GAS  C:\Users\EBANO_~1\AppData\Local\Temp\cc7eeVhF.s 			page 25


 837:../../../../../../Drivers/STM32L0xx_HAL_Driver/Src/stm32l0xx_hal_adc.c ****   __HAL_LOCK(hadc);
 838:../../../../../../Drivers/STM32L0xx_HAL_Driver/Src/stm32l0xx_hal_adc.c ****   
 839:../../../../../../Drivers/STM32L0xx_HAL_Driver/Src/stm32l0xx_hal_adc.c ****   /* 1. Stop potential conversion on going, on ADC group regular */
 840:../../../../../../Drivers/STM32L0xx_HAL_Driver/Src/stm32l0xx_hal_adc.c ****   tmp_hal_status = ADC_ConversionStop(hadc);
 841:../../../../../../Drivers/STM32L0xx_HAL_Driver/Src/stm32l0xx_hal_adc.c ****   
 842:../../../../../../Drivers/STM32L0xx_HAL_Driver/Src/stm32l0xx_hal_adc.c ****   /* Disable ADC peripheral if conversions are effectively stopped */
 843:../../../../../../Drivers/STM32L0xx_HAL_Driver/Src/stm32l0xx_hal_adc.c ****   if (tmp_hal_status == HAL_OK)
 844:../../../../../../Drivers/STM32L0xx_HAL_Driver/Src/stm32l0xx_hal_adc.c ****   {
 845:../../../../../../Drivers/STM32L0xx_HAL_Driver/Src/stm32l0xx_hal_adc.c ****     /* 2. Disable the ADC peripheral */
 846:../../../../../../Drivers/STM32L0xx_HAL_Driver/Src/stm32l0xx_hal_adc.c ****     tmp_hal_status = ADC_Disable(hadc);
 847:../../../../../../Drivers/STM32L0xx_HAL_Driver/Src/stm32l0xx_hal_adc.c ****     
 848:../../../../../../Drivers/STM32L0xx_HAL_Driver/Src/stm32l0xx_hal_adc.c ****     /* Check if ADC is effectively disabled */
 849:../../../../../../Drivers/STM32L0xx_HAL_Driver/Src/stm32l0xx_hal_adc.c ****     if (tmp_hal_status == HAL_OK)
 850:../../../../../../Drivers/STM32L0xx_HAL_Driver/Src/stm32l0xx_hal_adc.c ****     {
 851:../../../../../../Drivers/STM32L0xx_HAL_Driver/Src/stm32l0xx_hal_adc.c ****       /* Set ADC state */
 852:../../../../../../Drivers/STM32L0xx_HAL_Driver/Src/stm32l0xx_hal_adc.c ****       ADC_STATE_CLR_SET(hadc->State,
 853:../../../../../../Drivers/STM32L0xx_HAL_Driver/Src/stm32l0xx_hal_adc.c ****                         HAL_ADC_STATE_REG_BUSY,
 854:../../../../../../Drivers/STM32L0xx_HAL_Driver/Src/stm32l0xx_hal_adc.c ****                         HAL_ADC_STATE_READY);
 855:../../../../../../Drivers/STM32L0xx_HAL_Driver/Src/stm32l0xx_hal_adc.c ****     }
 856:../../../../../../Drivers/STM32L0xx_HAL_Driver/Src/stm32l0xx_hal_adc.c ****   }
 857:../../../../../../Drivers/STM32L0xx_HAL_Driver/Src/stm32l0xx_hal_adc.c ****   
 858:../../../../../../Drivers/STM32L0xx_HAL_Driver/Src/stm32l0xx_hal_adc.c ****   /* Process unlocked */
 859:../../../../../../Drivers/STM32L0xx_HAL_Driver/Src/stm32l0xx_hal_adc.c ****   __HAL_UNLOCK(hadc);
 860:../../../../../../Drivers/STM32L0xx_HAL_Driver/Src/stm32l0xx_hal_adc.c ****   
 861:../../../../../../Drivers/STM32L0xx_HAL_Driver/Src/stm32l0xx_hal_adc.c ****   /* Return function status */
 862:../../../../../../Drivers/STM32L0xx_HAL_Driver/Src/stm32l0xx_hal_adc.c ****   return tmp_hal_status;
 863:../../../../../../Drivers/STM32L0xx_HAL_Driver/Src/stm32l0xx_hal_adc.c **** }
 864:../../../../../../Drivers/STM32L0xx_HAL_Driver/Src/stm32l0xx_hal_adc.c **** 
 865:../../../../../../Drivers/STM32L0xx_HAL_Driver/Src/stm32l0xx_hal_adc.c **** /**
 866:../../../../../../Drivers/STM32L0xx_HAL_Driver/Src/stm32l0xx_hal_adc.c ****   * @brief  Wait for regular group conversion to be completed.
 867:../../../../../../Drivers/STM32L0xx_HAL_Driver/Src/stm32l0xx_hal_adc.c ****   * @note   ADC conversion flags EOS (end of sequence) and EOC (end of
 868:../../../../../../Drivers/STM32L0xx_HAL_Driver/Src/stm32l0xx_hal_adc.c ****   *         conversion) are cleared by this function, with an exception:
 869:../../../../../../Drivers/STM32L0xx_HAL_Driver/Src/stm32l0xx_hal_adc.c ****   *         if low power feature "LowPowerAutoWait" is enabled, flags are 
 870:../../../../../../Drivers/STM32L0xx_HAL_Driver/Src/stm32l0xx_hal_adc.c ****   *         not cleared to not interfere with this feature until data register
 871:../../../../../../Drivers/STM32L0xx_HAL_Driver/Src/stm32l0xx_hal_adc.c ****   *         is read using function HAL_ADC_GetValue().
 872:../../../../../../Drivers/STM32L0xx_HAL_Driver/Src/stm32l0xx_hal_adc.c ****   * @note   This function cannot be used in a particular setup: ADC configured 
 873:../../../../../../Drivers/STM32L0xx_HAL_Driver/Src/stm32l0xx_hal_adc.c ****   *         in DMA mode and polling for end of each conversion (ADC init
 874:../../../../../../Drivers/STM32L0xx_HAL_Driver/Src/stm32l0xx_hal_adc.c ****   *         parameter "EOCSelection" set to ADC_EOC_SINGLE_CONV).
 875:../../../../../../Drivers/STM32L0xx_HAL_Driver/Src/stm32l0xx_hal_adc.c ****   *         In this case, DMA resets the flag EOC and polling cannot be
 876:../../../../../../Drivers/STM32L0xx_HAL_Driver/Src/stm32l0xx_hal_adc.c ****   *         performed on each conversion. Nevertheless, polling can still 
 877:../../../../../../Drivers/STM32L0xx_HAL_Driver/Src/stm32l0xx_hal_adc.c ****   *         be performed on the complete sequence (ADC init
 878:../../../../../../Drivers/STM32L0xx_HAL_Driver/Src/stm32l0xx_hal_adc.c ****   *         parameter "EOCSelection" set to ADC_EOC_SEQ_CONV).
 879:../../../../../../Drivers/STM32L0xx_HAL_Driver/Src/stm32l0xx_hal_adc.c ****   * @param  hadc ADC handle
 880:../../../../../../Drivers/STM32L0xx_HAL_Driver/Src/stm32l0xx_hal_adc.c ****   * @param  Timeout Timeout value in millisecond.
 881:../../../../../../Drivers/STM32L0xx_HAL_Driver/Src/stm32l0xx_hal_adc.c ****   * @retval HAL status
 882:../../../../../../Drivers/STM32L0xx_HAL_Driver/Src/stm32l0xx_hal_adc.c ****   */
 883:../../../../../../Drivers/STM32L0xx_HAL_Driver/Src/stm32l0xx_hal_adc.c **** HAL_StatusTypeDef HAL_ADC_PollForConversion(ADC_HandleTypeDef* hadc, uint32_t Timeout)
 884:../../../../../../Drivers/STM32L0xx_HAL_Driver/Src/stm32l0xx_hal_adc.c **** {
 885:../../../../../../Drivers/STM32L0xx_HAL_Driver/Src/stm32l0xx_hal_adc.c ****   uint32_t tickstart = 0;
 886:../../../../../../Drivers/STM32L0xx_HAL_Driver/Src/stm32l0xx_hal_adc.c ****   uint32_t tmp_Flag_EOC   = 0x00;
 887:../../../../../../Drivers/STM32L0xx_HAL_Driver/Src/stm32l0xx_hal_adc.c ****   
 888:../../../../../../Drivers/STM32L0xx_HAL_Driver/Src/stm32l0xx_hal_adc.c ****   /* Check the parameters */
 889:../../../../../../Drivers/STM32L0xx_HAL_Driver/Src/stm32l0xx_hal_adc.c ****   assert_param(IS_ADC_ALL_INSTANCE(hadc->Instance));
 890:../../../../../../Drivers/STM32L0xx_HAL_Driver/Src/stm32l0xx_hal_adc.c ****   
 891:../../../../../../Drivers/STM32L0xx_HAL_Driver/Src/stm32l0xx_hal_adc.c ****   /* If end of conversion selected to end of sequence conversions */
 892:../../../../../../Drivers/STM32L0xx_HAL_Driver/Src/stm32l0xx_hal_adc.c ****   if (hadc->Init.EOCSelection == ADC_EOC_SEQ_CONV)
 893:../../../../../../Drivers/STM32L0xx_HAL_Driver/Src/stm32l0xx_hal_adc.c ****   {
ARM GAS  C:\Users\EBANO_~1\AppData\Local\Temp\cc7eeVhF.s 			page 26


 894:../../../../../../Drivers/STM32L0xx_HAL_Driver/Src/stm32l0xx_hal_adc.c ****     tmp_Flag_EOC = ADC_FLAG_EOS;
 895:../../../../../../Drivers/STM32L0xx_HAL_Driver/Src/stm32l0xx_hal_adc.c ****   }
 896:../../../../../../Drivers/STM32L0xx_HAL_Driver/Src/stm32l0xx_hal_adc.c ****   /* If end of conversion selected to end of unitary conversion */
 897:../../../../../../Drivers/STM32L0xx_HAL_Driver/Src/stm32l0xx_hal_adc.c ****   else /* ADC_EOC_SINGLE_CONV */
 898:../../../../../../Drivers/STM32L0xx_HAL_Driver/Src/stm32l0xx_hal_adc.c ****   {
 899:../../../../../../Drivers/STM32L0xx_HAL_Driver/Src/stm32l0xx_hal_adc.c ****     /* Verification that ADC configuration is compliant with polling for      */
 900:../../../../../../Drivers/STM32L0xx_HAL_Driver/Src/stm32l0xx_hal_adc.c ****     /* each conversion:                                                       */
 901:../../../../../../Drivers/STM32L0xx_HAL_Driver/Src/stm32l0xx_hal_adc.c ****     /* Particular case is ADC configured in DMA mode and ADC sequencer with   */
 902:../../../../../../Drivers/STM32L0xx_HAL_Driver/Src/stm32l0xx_hal_adc.c ****     /* several ranks and polling for end of each conversion.                  */
 903:../../../../../../Drivers/STM32L0xx_HAL_Driver/Src/stm32l0xx_hal_adc.c ****     /* For code simplicity sake, this particular case is generalized to       */
 904:../../../../../../Drivers/STM32L0xx_HAL_Driver/Src/stm32l0xx_hal_adc.c ****     /* ADC configured in DMA mode and and polling for end of each conversion. */
 905:../../../../../../Drivers/STM32L0xx_HAL_Driver/Src/stm32l0xx_hal_adc.c ****     if (HAL_IS_BIT_SET(hadc->Instance->CFGR1, ADC_CFGR1_DMAEN))
 906:../../../../../../Drivers/STM32L0xx_HAL_Driver/Src/stm32l0xx_hal_adc.c ****     {
 907:../../../../../../Drivers/STM32L0xx_HAL_Driver/Src/stm32l0xx_hal_adc.c ****       /* Update ADC state machine to error */
 908:../../../../../../Drivers/STM32L0xx_HAL_Driver/Src/stm32l0xx_hal_adc.c ****       SET_BIT(hadc->State, HAL_ADC_STATE_ERROR_CONFIG);
 909:../../../../../../Drivers/STM32L0xx_HAL_Driver/Src/stm32l0xx_hal_adc.c ****       
 910:../../../../../../Drivers/STM32L0xx_HAL_Driver/Src/stm32l0xx_hal_adc.c ****       /* Process unlocked */
 911:../../../../../../Drivers/STM32L0xx_HAL_Driver/Src/stm32l0xx_hal_adc.c ****       __HAL_UNLOCK(hadc);
 912:../../../../../../Drivers/STM32L0xx_HAL_Driver/Src/stm32l0xx_hal_adc.c ****       
 913:../../../../../../Drivers/STM32L0xx_HAL_Driver/Src/stm32l0xx_hal_adc.c ****       return HAL_ERROR;
 914:../../../../../../Drivers/STM32L0xx_HAL_Driver/Src/stm32l0xx_hal_adc.c ****     }
 915:../../../../../../Drivers/STM32L0xx_HAL_Driver/Src/stm32l0xx_hal_adc.c ****     else
 916:../../../../../../Drivers/STM32L0xx_HAL_Driver/Src/stm32l0xx_hal_adc.c ****     {
 917:../../../../../../Drivers/STM32L0xx_HAL_Driver/Src/stm32l0xx_hal_adc.c ****       tmp_Flag_EOC = (ADC_FLAG_EOC | ADC_FLAG_EOS);
 918:../../../../../../Drivers/STM32L0xx_HAL_Driver/Src/stm32l0xx_hal_adc.c ****     }
 919:../../../../../../Drivers/STM32L0xx_HAL_Driver/Src/stm32l0xx_hal_adc.c ****   }
 920:../../../../../../Drivers/STM32L0xx_HAL_Driver/Src/stm32l0xx_hal_adc.c ****   
 921:../../../../../../Drivers/STM32L0xx_HAL_Driver/Src/stm32l0xx_hal_adc.c ****   /* Get tick count */
 922:../../../../../../Drivers/STM32L0xx_HAL_Driver/Src/stm32l0xx_hal_adc.c ****   tickstart = HAL_GetTick();
 923:../../../../../../Drivers/STM32L0xx_HAL_Driver/Src/stm32l0xx_hal_adc.c ****   
 924:../../../../../../Drivers/STM32L0xx_HAL_Driver/Src/stm32l0xx_hal_adc.c ****   /* Wait until End of unitary conversion or sequence conversions flag is raised */
 925:../../../../../../Drivers/STM32L0xx_HAL_Driver/Src/stm32l0xx_hal_adc.c ****   while(HAL_IS_BIT_CLR(hadc->Instance->ISR, tmp_Flag_EOC))
 926:../../../../../../Drivers/STM32L0xx_HAL_Driver/Src/stm32l0xx_hal_adc.c ****   {
 927:../../../../../../Drivers/STM32L0xx_HAL_Driver/Src/stm32l0xx_hal_adc.c ****     /* Check if timeout is disabled (set to infinite wait) */
 928:../../../../../../Drivers/STM32L0xx_HAL_Driver/Src/stm32l0xx_hal_adc.c ****     if(Timeout != HAL_MAX_DELAY)
 929:../../../../../../Drivers/STM32L0xx_HAL_Driver/Src/stm32l0xx_hal_adc.c ****     {
 930:../../../../../../Drivers/STM32L0xx_HAL_Driver/Src/stm32l0xx_hal_adc.c ****       if((Timeout == 0U) || ((HAL_GetTick()-tickstart) > Timeout))
 931:../../../../../../Drivers/STM32L0xx_HAL_Driver/Src/stm32l0xx_hal_adc.c ****       {
 932:../../../../../../Drivers/STM32L0xx_HAL_Driver/Src/stm32l0xx_hal_adc.c ****         /* Update ADC state machine to timeout */
 933:../../../../../../Drivers/STM32L0xx_HAL_Driver/Src/stm32l0xx_hal_adc.c ****         SET_BIT(hadc->State, HAL_ADC_STATE_TIMEOUT);
 934:../../../../../../Drivers/STM32L0xx_HAL_Driver/Src/stm32l0xx_hal_adc.c ****         
 935:../../../../../../Drivers/STM32L0xx_HAL_Driver/Src/stm32l0xx_hal_adc.c ****         /* Process unlocked */
 936:../../../../../../Drivers/STM32L0xx_HAL_Driver/Src/stm32l0xx_hal_adc.c ****         __HAL_UNLOCK(hadc);
 937:../../../../../../Drivers/STM32L0xx_HAL_Driver/Src/stm32l0xx_hal_adc.c ****         
 938:../../../../../../Drivers/STM32L0xx_HAL_Driver/Src/stm32l0xx_hal_adc.c ****         return HAL_TIMEOUT;
 939:../../../../../../Drivers/STM32L0xx_HAL_Driver/Src/stm32l0xx_hal_adc.c ****       }
 940:../../../../../../Drivers/STM32L0xx_HAL_Driver/Src/stm32l0xx_hal_adc.c ****     }
 941:../../../../../../Drivers/STM32L0xx_HAL_Driver/Src/stm32l0xx_hal_adc.c ****   }
 942:../../../../../../Drivers/STM32L0xx_HAL_Driver/Src/stm32l0xx_hal_adc.c ****   
 943:../../../../../../Drivers/STM32L0xx_HAL_Driver/Src/stm32l0xx_hal_adc.c ****   /* Update ADC state machine */
 944:../../../../../../Drivers/STM32L0xx_HAL_Driver/Src/stm32l0xx_hal_adc.c ****   SET_BIT(hadc->State, HAL_ADC_STATE_REG_EOC);
 945:../../../../../../Drivers/STM32L0xx_HAL_Driver/Src/stm32l0xx_hal_adc.c ****   
 946:../../../../../../Drivers/STM32L0xx_HAL_Driver/Src/stm32l0xx_hal_adc.c ****   /* Determine whether any further conversion upcoming on group regular       */
 947:../../../../../../Drivers/STM32L0xx_HAL_Driver/Src/stm32l0xx_hal_adc.c ****   /* by external trigger, continuous mode or scan sequence on going.          */
 948:../../../../../../Drivers/STM32L0xx_HAL_Driver/Src/stm32l0xx_hal_adc.c ****   if(ADC_IS_SOFTWARE_START_REGULAR(hadc)        && 
 949:../../../../../../Drivers/STM32L0xx_HAL_Driver/Src/stm32l0xx_hal_adc.c ****      (hadc->Init.ContinuousConvMode == DISABLE)   )
 950:../../../../../../Drivers/STM32L0xx_HAL_Driver/Src/stm32l0xx_hal_adc.c ****   {
ARM GAS  C:\Users\EBANO_~1\AppData\Local\Temp\cc7eeVhF.s 			page 27


 951:../../../../../../Drivers/STM32L0xx_HAL_Driver/Src/stm32l0xx_hal_adc.c ****     /* If End of Sequence is reached, disable interrupts */
 952:../../../../../../Drivers/STM32L0xx_HAL_Driver/Src/stm32l0xx_hal_adc.c ****     if( __HAL_ADC_GET_FLAG(hadc, ADC_FLAG_EOS) )
 953:../../../../../../Drivers/STM32L0xx_HAL_Driver/Src/stm32l0xx_hal_adc.c ****     {
 954:../../../../../../Drivers/STM32L0xx_HAL_Driver/Src/stm32l0xx_hal_adc.c ****       /* Allowed to modify bits ADC_IT_EOC/ADC_IT_EOS only if bit             */
 955:../../../../../../Drivers/STM32L0xx_HAL_Driver/Src/stm32l0xx_hal_adc.c ****       /* ADSTART==0 (no conversion on going)                                  */
 956:../../../../../../Drivers/STM32L0xx_HAL_Driver/Src/stm32l0xx_hal_adc.c ****       if (ADC_IS_CONVERSION_ONGOING_REGULAR(hadc) == RESET)
 957:../../../../../../Drivers/STM32L0xx_HAL_Driver/Src/stm32l0xx_hal_adc.c ****       {
 958:../../../../../../Drivers/STM32L0xx_HAL_Driver/Src/stm32l0xx_hal_adc.c ****         /* Disable ADC end of single conversion interrupt on group regular */
 959:../../../../../../Drivers/STM32L0xx_HAL_Driver/Src/stm32l0xx_hal_adc.c ****         /* Note: Overrun interrupt was enabled with EOC interrupt in          */
 960:../../../../../../Drivers/STM32L0xx_HAL_Driver/Src/stm32l0xx_hal_adc.c ****         /* HAL_Start_IT(), but is not disabled here because can be used       */
 961:../../../../../../Drivers/STM32L0xx_HAL_Driver/Src/stm32l0xx_hal_adc.c ****         /* by overrun IRQ process below.                                      */
 962:../../../../../../Drivers/STM32L0xx_HAL_Driver/Src/stm32l0xx_hal_adc.c ****         __HAL_ADC_DISABLE_IT(hadc, ADC_IT_EOC | ADC_IT_EOS);
 963:../../../../../../Drivers/STM32L0xx_HAL_Driver/Src/stm32l0xx_hal_adc.c ****         
 964:../../../../../../Drivers/STM32L0xx_HAL_Driver/Src/stm32l0xx_hal_adc.c ****         /* Set ADC state */
 965:../../../../../../Drivers/STM32L0xx_HAL_Driver/Src/stm32l0xx_hal_adc.c ****         ADC_STATE_CLR_SET(hadc->State,
 966:../../../../../../Drivers/STM32L0xx_HAL_Driver/Src/stm32l0xx_hal_adc.c ****                           HAL_ADC_STATE_REG_BUSY,
 967:../../../../../../Drivers/STM32L0xx_HAL_Driver/Src/stm32l0xx_hal_adc.c ****                           HAL_ADC_STATE_READY);
 968:../../../../../../Drivers/STM32L0xx_HAL_Driver/Src/stm32l0xx_hal_adc.c ****       }
 969:../../../../../../Drivers/STM32L0xx_HAL_Driver/Src/stm32l0xx_hal_adc.c ****       else
 970:../../../../../../Drivers/STM32L0xx_HAL_Driver/Src/stm32l0xx_hal_adc.c ****       {
 971:../../../../../../Drivers/STM32L0xx_HAL_Driver/Src/stm32l0xx_hal_adc.c ****         /* Change ADC state to error state */
 972:../../../../../../Drivers/STM32L0xx_HAL_Driver/Src/stm32l0xx_hal_adc.c ****         SET_BIT(hadc->State, HAL_ADC_STATE_ERROR_CONFIG);
 973:../../../../../../Drivers/STM32L0xx_HAL_Driver/Src/stm32l0xx_hal_adc.c ****         
 974:../../../../../../Drivers/STM32L0xx_HAL_Driver/Src/stm32l0xx_hal_adc.c ****         /* Set ADC error code to ADC IP internal error */
 975:../../../../../../Drivers/STM32L0xx_HAL_Driver/Src/stm32l0xx_hal_adc.c ****         SET_BIT(hadc->ErrorCode, HAL_ADC_ERROR_INTERNAL);
 976:../../../../../../Drivers/STM32L0xx_HAL_Driver/Src/stm32l0xx_hal_adc.c ****       }
 977:../../../../../../Drivers/STM32L0xx_HAL_Driver/Src/stm32l0xx_hal_adc.c ****     }
 978:../../../../../../Drivers/STM32L0xx_HAL_Driver/Src/stm32l0xx_hal_adc.c ****   }
 979:../../../../../../Drivers/STM32L0xx_HAL_Driver/Src/stm32l0xx_hal_adc.c ****   
 980:../../../../../../Drivers/STM32L0xx_HAL_Driver/Src/stm32l0xx_hal_adc.c ****   /* Clear end of conversion flag of regular group if low power feature       */
 981:../../../../../../Drivers/STM32L0xx_HAL_Driver/Src/stm32l0xx_hal_adc.c ****   /* "LowPowerAutoWait " is disabled, to not interfere with this feature      */
 982:../../../../../../Drivers/STM32L0xx_HAL_Driver/Src/stm32l0xx_hal_adc.c ****   /* until data register is read using function HAL_ADC_GetValue().           */
 983:../../../../../../Drivers/STM32L0xx_HAL_Driver/Src/stm32l0xx_hal_adc.c ****   if (hadc->Init.LowPowerAutoWait == DISABLE)
 984:../../../../../../Drivers/STM32L0xx_HAL_Driver/Src/stm32l0xx_hal_adc.c ****   {
 985:../../../../../../Drivers/STM32L0xx_HAL_Driver/Src/stm32l0xx_hal_adc.c ****     /* Clear regular group conversion flag */
 986:../../../../../../Drivers/STM32L0xx_HAL_Driver/Src/stm32l0xx_hal_adc.c ****     __HAL_ADC_CLEAR_FLAG(hadc, (ADC_FLAG_EOC | ADC_FLAG_EOS));
 987:../../../../../../Drivers/STM32L0xx_HAL_Driver/Src/stm32l0xx_hal_adc.c ****   }
 988:../../../../../../Drivers/STM32L0xx_HAL_Driver/Src/stm32l0xx_hal_adc.c ****   
 989:../../../../../../Drivers/STM32L0xx_HAL_Driver/Src/stm32l0xx_hal_adc.c ****   /* Return function status */
 990:../../../../../../Drivers/STM32L0xx_HAL_Driver/Src/stm32l0xx_hal_adc.c ****   return HAL_OK;
 991:../../../../../../Drivers/STM32L0xx_HAL_Driver/Src/stm32l0xx_hal_adc.c **** }
 992:../../../../../../Drivers/STM32L0xx_HAL_Driver/Src/stm32l0xx_hal_adc.c **** 
 993:../../../../../../Drivers/STM32L0xx_HAL_Driver/Src/stm32l0xx_hal_adc.c **** /**
 994:../../../../../../Drivers/STM32L0xx_HAL_Driver/Src/stm32l0xx_hal_adc.c ****   * @brief  Poll for ADC event.
 995:../../../../../../Drivers/STM32L0xx_HAL_Driver/Src/stm32l0xx_hal_adc.c ****   * @param  hadc ADC handle
 996:../../../../../../Drivers/STM32L0xx_HAL_Driver/Src/stm32l0xx_hal_adc.c ****   * @param  EventType the ADC event type.
 997:../../../../../../Drivers/STM32L0xx_HAL_Driver/Src/stm32l0xx_hal_adc.c ****   *          This parameter can be one of the following values:
 998:../../../../../../Drivers/STM32L0xx_HAL_Driver/Src/stm32l0xx_hal_adc.c ****   *            @arg ADC_AWD_EVENT: ADC Analog watchdog event
 999:../../../../../../Drivers/STM32L0xx_HAL_Driver/Src/stm32l0xx_hal_adc.c ****   *            @arg ADC_OVR_EVENT: ADC Overrun event
1000:../../../../../../Drivers/STM32L0xx_HAL_Driver/Src/stm32l0xx_hal_adc.c ****   * @param  Timeout Timeout value in millisecond.
1001:../../../../../../Drivers/STM32L0xx_HAL_Driver/Src/stm32l0xx_hal_adc.c ****   * @note   The relevant flag is cleared if found to be set, except for ADC_FLAG_OVR.
1002:../../../../../../Drivers/STM32L0xx_HAL_Driver/Src/stm32l0xx_hal_adc.c ****   *         Indeed, the latter is reset only if hadc->Init.Overrun field is set  
1003:../../../../../../Drivers/STM32L0xx_HAL_Driver/Src/stm32l0xx_hal_adc.c ****   *         to ADC_OVR_DATA_OVERWRITTEN. Otherwise, data register may be potentially overwritten 
1004:../../../../../../Drivers/STM32L0xx_HAL_Driver/Src/stm32l0xx_hal_adc.c ****   *         by a new converted data as soon as OVR is cleared.
1005:../../../../../../Drivers/STM32L0xx_HAL_Driver/Src/stm32l0xx_hal_adc.c ****   *         To reset OVR flag once the preserved data is retrieved, the user can resort
1006:../../../../../../Drivers/STM32L0xx_HAL_Driver/Src/stm32l0xx_hal_adc.c ****   *         to macro __HAL_ADC_CLEAR_FLAG(hadc, ADC_FLAG_OVR); 
1007:../../../../../../Drivers/STM32L0xx_HAL_Driver/Src/stm32l0xx_hal_adc.c ****   * @retval HAL status
ARM GAS  C:\Users\EBANO_~1\AppData\Local\Temp\cc7eeVhF.s 			page 28


1008:../../../../../../Drivers/STM32L0xx_HAL_Driver/Src/stm32l0xx_hal_adc.c ****   */
1009:../../../../../../Drivers/STM32L0xx_HAL_Driver/Src/stm32l0xx_hal_adc.c **** HAL_StatusTypeDef HAL_ADC_PollForEvent(ADC_HandleTypeDef* hadc, uint32_t EventType, uint32_t Timeou
1010:../../../../../../Drivers/STM32L0xx_HAL_Driver/Src/stm32l0xx_hal_adc.c **** {
1011:../../../../../../Drivers/STM32L0xx_HAL_Driver/Src/stm32l0xx_hal_adc.c ****   uint32_t tickstart = 0U; 
1012:../../../../../../Drivers/STM32L0xx_HAL_Driver/Src/stm32l0xx_hal_adc.c ****   
1013:../../../../../../Drivers/STM32L0xx_HAL_Driver/Src/stm32l0xx_hal_adc.c ****   /* Check the parameters */
1014:../../../../../../Drivers/STM32L0xx_HAL_Driver/Src/stm32l0xx_hal_adc.c ****   assert_param(IS_ADC_ALL_INSTANCE(hadc->Instance));
1015:../../../../../../Drivers/STM32L0xx_HAL_Driver/Src/stm32l0xx_hal_adc.c ****   assert_param(IS_ADC_EVENT_TYPE(EventType));
1016:../../../../../../Drivers/STM32L0xx_HAL_Driver/Src/stm32l0xx_hal_adc.c ****   
1017:../../../../../../Drivers/STM32L0xx_HAL_Driver/Src/stm32l0xx_hal_adc.c ****   /* Get tick count */
1018:../../../../../../Drivers/STM32L0xx_HAL_Driver/Src/stm32l0xx_hal_adc.c ****   tickstart = HAL_GetTick();
1019:../../../../../../Drivers/STM32L0xx_HAL_Driver/Src/stm32l0xx_hal_adc.c ****   
1020:../../../../../../Drivers/STM32L0xx_HAL_Driver/Src/stm32l0xx_hal_adc.c ****   /* Check selected event flag */
1021:../../../../../../Drivers/STM32L0xx_HAL_Driver/Src/stm32l0xx_hal_adc.c ****   while(__HAL_ADC_GET_FLAG(hadc, EventType) == RESET)
1022:../../../../../../Drivers/STM32L0xx_HAL_Driver/Src/stm32l0xx_hal_adc.c ****   {
1023:../../../../../../Drivers/STM32L0xx_HAL_Driver/Src/stm32l0xx_hal_adc.c ****     /* Check if timeout is disabled (set to infinite wait) */
1024:../../../../../../Drivers/STM32L0xx_HAL_Driver/Src/stm32l0xx_hal_adc.c ****     if(Timeout != HAL_MAX_DELAY)
1025:../../../../../../Drivers/STM32L0xx_HAL_Driver/Src/stm32l0xx_hal_adc.c ****     {
1026:../../../../../../Drivers/STM32L0xx_HAL_Driver/Src/stm32l0xx_hal_adc.c ****       if((Timeout == 0U) ||((HAL_GetTick() - tickstart ) > Timeout))
1027:../../../../../../Drivers/STM32L0xx_HAL_Driver/Src/stm32l0xx_hal_adc.c ****       {
1028:../../../../../../Drivers/STM32L0xx_HAL_Driver/Src/stm32l0xx_hal_adc.c ****         /* Update ADC state machine to timeout */
1029:../../../../../../Drivers/STM32L0xx_HAL_Driver/Src/stm32l0xx_hal_adc.c ****         SET_BIT(hadc->State, HAL_ADC_STATE_TIMEOUT);
1030:../../../../../../Drivers/STM32L0xx_HAL_Driver/Src/stm32l0xx_hal_adc.c ****         
1031:../../../../../../Drivers/STM32L0xx_HAL_Driver/Src/stm32l0xx_hal_adc.c ****         /* Process unlocked */
1032:../../../../../../Drivers/STM32L0xx_HAL_Driver/Src/stm32l0xx_hal_adc.c ****         __HAL_UNLOCK(hadc);
1033:../../../../../../Drivers/STM32L0xx_HAL_Driver/Src/stm32l0xx_hal_adc.c ****         
1034:../../../../../../Drivers/STM32L0xx_HAL_Driver/Src/stm32l0xx_hal_adc.c ****         return HAL_TIMEOUT;
1035:../../../../../../Drivers/STM32L0xx_HAL_Driver/Src/stm32l0xx_hal_adc.c ****       }
1036:../../../../../../Drivers/STM32L0xx_HAL_Driver/Src/stm32l0xx_hal_adc.c ****     }
1037:../../../../../../Drivers/STM32L0xx_HAL_Driver/Src/stm32l0xx_hal_adc.c ****   }
1038:../../../../../../Drivers/STM32L0xx_HAL_Driver/Src/stm32l0xx_hal_adc.c ****   
1039:../../../../../../Drivers/STM32L0xx_HAL_Driver/Src/stm32l0xx_hal_adc.c ****   switch(EventType)
1040:../../../../../../Drivers/STM32L0xx_HAL_Driver/Src/stm32l0xx_hal_adc.c ****   {
1041:../../../../../../Drivers/STM32L0xx_HAL_Driver/Src/stm32l0xx_hal_adc.c ****   /* Analog watchdog (level out of window) event */
1042:../../../../../../Drivers/STM32L0xx_HAL_Driver/Src/stm32l0xx_hal_adc.c ****   case ADC_AWD_EVENT:
1043:../../../../../../Drivers/STM32L0xx_HAL_Driver/Src/stm32l0xx_hal_adc.c ****     /* Set ADC state */
1044:../../../../../../Drivers/STM32L0xx_HAL_Driver/Src/stm32l0xx_hal_adc.c ****     SET_BIT(hadc->State, HAL_ADC_STATE_AWD1);
1045:../../../../../../Drivers/STM32L0xx_HAL_Driver/Src/stm32l0xx_hal_adc.c ****     
1046:../../../../../../Drivers/STM32L0xx_HAL_Driver/Src/stm32l0xx_hal_adc.c ****     /* Clear ADC analog watchdog flag */
1047:../../../../../../Drivers/STM32L0xx_HAL_Driver/Src/stm32l0xx_hal_adc.c ****     __HAL_ADC_CLEAR_FLAG(hadc, ADC_FLAG_AWD);
1048:../../../../../../Drivers/STM32L0xx_HAL_Driver/Src/stm32l0xx_hal_adc.c ****     break;
1049:../../../../../../Drivers/STM32L0xx_HAL_Driver/Src/stm32l0xx_hal_adc.c ****     
1050:../../../../../../Drivers/STM32L0xx_HAL_Driver/Src/stm32l0xx_hal_adc.c ****   /* Overrun event */
1051:../../../../../../Drivers/STM32L0xx_HAL_Driver/Src/stm32l0xx_hal_adc.c ****   default: /* Case ADC_OVR_EVENT */
1052:../../../../../../Drivers/STM32L0xx_HAL_Driver/Src/stm32l0xx_hal_adc.c ****     /* If overrun is set to overwrite previous data, overrun event is not     */
1053:../../../../../../Drivers/STM32L0xx_HAL_Driver/Src/stm32l0xx_hal_adc.c ****     /* considered as an error.                                                */
1054:../../../../../../Drivers/STM32L0xx_HAL_Driver/Src/stm32l0xx_hal_adc.c ****     /* (cf ref manual "Managing conversions without using the DMA and without */
1055:../../../../../../Drivers/STM32L0xx_HAL_Driver/Src/stm32l0xx_hal_adc.c ****     /* overrun ")                                                             */
1056:../../../../../../Drivers/STM32L0xx_HAL_Driver/Src/stm32l0xx_hal_adc.c ****     if (hadc->Init.Overrun == ADC_OVR_DATA_PRESERVED)
1057:../../../../../../Drivers/STM32L0xx_HAL_Driver/Src/stm32l0xx_hal_adc.c ****     {
1058:../../../../../../Drivers/STM32L0xx_HAL_Driver/Src/stm32l0xx_hal_adc.c ****       /* Set ADC state */
1059:../../../../../../Drivers/STM32L0xx_HAL_Driver/Src/stm32l0xx_hal_adc.c ****       SET_BIT(hadc->State, HAL_ADC_STATE_REG_OVR);
1060:../../../../../../Drivers/STM32L0xx_HAL_Driver/Src/stm32l0xx_hal_adc.c ****         
1061:../../../../../../Drivers/STM32L0xx_HAL_Driver/Src/stm32l0xx_hal_adc.c ****       /* Set ADC error code to overrun */
1062:../../../../../../Drivers/STM32L0xx_HAL_Driver/Src/stm32l0xx_hal_adc.c ****       SET_BIT(hadc->ErrorCode, HAL_ADC_ERROR_OVR);
1063:../../../../../../Drivers/STM32L0xx_HAL_Driver/Src/stm32l0xx_hal_adc.c ****     }
1064:../../../../../../Drivers/STM32L0xx_HAL_Driver/Src/stm32l0xx_hal_adc.c ****     
ARM GAS  C:\Users\EBANO_~1\AppData\Local\Temp\cc7eeVhF.s 			page 29


1065:../../../../../../Drivers/STM32L0xx_HAL_Driver/Src/stm32l0xx_hal_adc.c ****     /* Clear ADC Overrun flag */
1066:../../../../../../Drivers/STM32L0xx_HAL_Driver/Src/stm32l0xx_hal_adc.c ****     __HAL_ADC_CLEAR_FLAG(hadc, ADC_FLAG_OVR);
1067:../../../../../../Drivers/STM32L0xx_HAL_Driver/Src/stm32l0xx_hal_adc.c ****     break;
1068:../../../../../../Drivers/STM32L0xx_HAL_Driver/Src/stm32l0xx_hal_adc.c ****   }
1069:../../../../../../Drivers/STM32L0xx_HAL_Driver/Src/stm32l0xx_hal_adc.c ****   
1070:../../../../../../Drivers/STM32L0xx_HAL_Driver/Src/stm32l0xx_hal_adc.c ****   /* Return function status */
1071:../../../../../../Drivers/STM32L0xx_HAL_Driver/Src/stm32l0xx_hal_adc.c ****   return HAL_OK;
1072:../../../../../../Drivers/STM32L0xx_HAL_Driver/Src/stm32l0xx_hal_adc.c **** }
1073:../../../../../../Drivers/STM32L0xx_HAL_Driver/Src/stm32l0xx_hal_adc.c **** 
1074:../../../../../../Drivers/STM32L0xx_HAL_Driver/Src/stm32l0xx_hal_adc.c **** /**
1075:../../../../../../Drivers/STM32L0xx_HAL_Driver/Src/stm32l0xx_hal_adc.c ****   * @brief  Enable ADC, start conversion of regular group with interruption.
1076:../../../../../../Drivers/STM32L0xx_HAL_Driver/Src/stm32l0xx_hal_adc.c ****   * @note   Interruptions enabled in this function according to initialization
1077:../../../../../../Drivers/STM32L0xx_HAL_Driver/Src/stm32l0xx_hal_adc.c ****   *         setting : EOC (end of conversion), EOS (end of sequence), 
1078:../../../../../../Drivers/STM32L0xx_HAL_Driver/Src/stm32l0xx_hal_adc.c ****   *         OVR overrun.
1079:../../../../../../Drivers/STM32L0xx_HAL_Driver/Src/stm32l0xx_hal_adc.c ****   *         Each of these interruptions has its dedicated callback function.
1080:../../../../../../Drivers/STM32L0xx_HAL_Driver/Src/stm32l0xx_hal_adc.c ****   * @note   To guarantee a proper reset of all interruptions once all the needed
1081:../../../../../../Drivers/STM32L0xx_HAL_Driver/Src/stm32l0xx_hal_adc.c ****   *         conversions are obtained, HAL_ADC_Stop_IT() must be called to ensure 
1082:../../../../../../Drivers/STM32L0xx_HAL_Driver/Src/stm32l0xx_hal_adc.c ****   *         a correct stop of the IT-based conversions.
1083:../../../../../../Drivers/STM32L0xx_HAL_Driver/Src/stm32l0xx_hal_adc.c ****   * @note   By default, HAL_ADC_Start_IT() doesn't enable the End Of Sampling 
1084:../../../../../../Drivers/STM32L0xx_HAL_Driver/Src/stm32l0xx_hal_adc.c ****   *         interruption. If required (e.g. in case of oversampling with trigger
1085:../../../../../../Drivers/STM32L0xx_HAL_Driver/Src/stm32l0xx_hal_adc.c ****   *         mode), the user must:
1086:../../../../../../Drivers/STM32L0xx_HAL_Driver/Src/stm32l0xx_hal_adc.c ****   *          1. first clear the EOSMP flag if set with macro __HAL_ADC_CLEAR_FLAG(hadc, ADC_FLAG_EO
1087:../../../../../../Drivers/STM32L0xx_HAL_Driver/Src/stm32l0xx_hal_adc.c ****   *          2. then enable the EOSMP interrupt with macro __HAL_ADC_ENABLE_IT(hadc, ADC_IT_EOSMP) 
1088:../../../../../../Drivers/STM32L0xx_HAL_Driver/Src/stm32l0xx_hal_adc.c ****   *          before calling HAL_ADC_Start_IT().
1089:../../../../../../Drivers/STM32L0xx_HAL_Driver/Src/stm32l0xx_hal_adc.c ****   * @param  hadc ADC handle
1090:../../../../../../Drivers/STM32L0xx_HAL_Driver/Src/stm32l0xx_hal_adc.c ****   * @retval HAL status
1091:../../../../../../Drivers/STM32L0xx_HAL_Driver/Src/stm32l0xx_hal_adc.c ****   */
1092:../../../../../../Drivers/STM32L0xx_HAL_Driver/Src/stm32l0xx_hal_adc.c **** HAL_StatusTypeDef HAL_ADC_Start_IT(ADC_HandleTypeDef* hadc)
1093:../../../../../../Drivers/STM32L0xx_HAL_Driver/Src/stm32l0xx_hal_adc.c **** {
1094:../../../../../../Drivers/STM32L0xx_HAL_Driver/Src/stm32l0xx_hal_adc.c ****   HAL_StatusTypeDef tmp_hal_status = HAL_OK;
1095:../../../../../../Drivers/STM32L0xx_HAL_Driver/Src/stm32l0xx_hal_adc.c ****   
1096:../../../../../../Drivers/STM32L0xx_HAL_Driver/Src/stm32l0xx_hal_adc.c ****   /* Check the parameters */
1097:../../../../../../Drivers/STM32L0xx_HAL_Driver/Src/stm32l0xx_hal_adc.c ****   assert_param(IS_ADC_ALL_INSTANCE(hadc->Instance));
1098:../../../../../../Drivers/STM32L0xx_HAL_Driver/Src/stm32l0xx_hal_adc.c ****   
1099:../../../../../../Drivers/STM32L0xx_HAL_Driver/Src/stm32l0xx_hal_adc.c ****   /* Perform ADC enable and conversion start if no conversion is on going */
1100:../../../../../../Drivers/STM32L0xx_HAL_Driver/Src/stm32l0xx_hal_adc.c ****   if (ADC_IS_CONVERSION_ONGOING_REGULAR(hadc) == RESET)
1101:../../../../../../Drivers/STM32L0xx_HAL_Driver/Src/stm32l0xx_hal_adc.c ****   {
1102:../../../../../../Drivers/STM32L0xx_HAL_Driver/Src/stm32l0xx_hal_adc.c ****     /* Process locked */
1103:../../../../../../Drivers/STM32L0xx_HAL_Driver/Src/stm32l0xx_hal_adc.c ****     __HAL_LOCK(hadc);
1104:../../../../../../Drivers/STM32L0xx_HAL_Driver/Src/stm32l0xx_hal_adc.c ****     
1105:../../../../../../Drivers/STM32L0xx_HAL_Driver/Src/stm32l0xx_hal_adc.c ****     /* Enable the ADC peripheral */
1106:../../../../../../Drivers/STM32L0xx_HAL_Driver/Src/stm32l0xx_hal_adc.c ****     /* If low power mode AutoPowerOff is enabled, power-on/off phases are     */
1107:../../../../../../Drivers/STM32L0xx_HAL_Driver/Src/stm32l0xx_hal_adc.c ****     /* performed automatically by hardware.                                   */
1108:../../../../../../Drivers/STM32L0xx_HAL_Driver/Src/stm32l0xx_hal_adc.c ****     if (hadc->Init.LowPowerAutoPowerOff != ENABLE)
1109:../../../../../../Drivers/STM32L0xx_HAL_Driver/Src/stm32l0xx_hal_adc.c ****     {
1110:../../../../../../Drivers/STM32L0xx_HAL_Driver/Src/stm32l0xx_hal_adc.c ****       tmp_hal_status = ADC_Enable(hadc);
1111:../../../../../../Drivers/STM32L0xx_HAL_Driver/Src/stm32l0xx_hal_adc.c ****     }
1112:../../../../../../Drivers/STM32L0xx_HAL_Driver/Src/stm32l0xx_hal_adc.c ****     
1113:../../../../../../Drivers/STM32L0xx_HAL_Driver/Src/stm32l0xx_hal_adc.c ****     /* Start conversion if ADC is effectively enabled */
1114:../../../../../../Drivers/STM32L0xx_HAL_Driver/Src/stm32l0xx_hal_adc.c ****     if (tmp_hal_status == HAL_OK)
1115:../../../../../../Drivers/STM32L0xx_HAL_Driver/Src/stm32l0xx_hal_adc.c ****     {
1116:../../../../../../Drivers/STM32L0xx_HAL_Driver/Src/stm32l0xx_hal_adc.c ****       /* Set ADC state                                                        */
1117:../../../../../../Drivers/STM32L0xx_HAL_Driver/Src/stm32l0xx_hal_adc.c ****       /* - Clear state bitfield related to regular group conversion results   */
1118:../../../../../../Drivers/STM32L0xx_HAL_Driver/Src/stm32l0xx_hal_adc.c ****       /* - Set state bitfield related to regular operation                    */
1119:../../../../../../Drivers/STM32L0xx_HAL_Driver/Src/stm32l0xx_hal_adc.c ****       ADC_STATE_CLR_SET(hadc->State,
1120:../../../../../../Drivers/STM32L0xx_HAL_Driver/Src/stm32l0xx_hal_adc.c ****                         HAL_ADC_STATE_READY | HAL_ADC_STATE_REG_EOC | HAL_ADC_STATE_REG_OVR | HAL_A
1121:../../../../../../Drivers/STM32L0xx_HAL_Driver/Src/stm32l0xx_hal_adc.c ****                         HAL_ADC_STATE_REG_BUSY);
ARM GAS  C:\Users\EBANO_~1\AppData\Local\Temp\cc7eeVhF.s 			page 30


1122:../../../../../../Drivers/STM32L0xx_HAL_Driver/Src/stm32l0xx_hal_adc.c ****       
1123:../../../../../../Drivers/STM32L0xx_HAL_Driver/Src/stm32l0xx_hal_adc.c ****       /* Reset ADC all error code fields */
1124:../../../../../../Drivers/STM32L0xx_HAL_Driver/Src/stm32l0xx_hal_adc.c ****       ADC_CLEAR_ERRORCODE(hadc);
1125:../../../../../../Drivers/STM32L0xx_HAL_Driver/Src/stm32l0xx_hal_adc.c ****       
1126:../../../../../../Drivers/STM32L0xx_HAL_Driver/Src/stm32l0xx_hal_adc.c ****       /* Process unlocked */
1127:../../../../../../Drivers/STM32L0xx_HAL_Driver/Src/stm32l0xx_hal_adc.c ****       /* Unlock before starting ADC conversions: in case of potential         */
1128:../../../../../../Drivers/STM32L0xx_HAL_Driver/Src/stm32l0xx_hal_adc.c ****       /* interruption, to let the process to ADC IRQ Handler.                 */
1129:../../../../../../Drivers/STM32L0xx_HAL_Driver/Src/stm32l0xx_hal_adc.c ****       __HAL_UNLOCK(hadc);
1130:../../../../../../Drivers/STM32L0xx_HAL_Driver/Src/stm32l0xx_hal_adc.c ****       
1131:../../../../../../Drivers/STM32L0xx_HAL_Driver/Src/stm32l0xx_hal_adc.c ****       /* Clear regular group conversion flag and overrun flag */
1132:../../../../../../Drivers/STM32L0xx_HAL_Driver/Src/stm32l0xx_hal_adc.c ****       /* (To ensure of no unknown state from potential previous ADC           */
1133:../../../../../../Drivers/STM32L0xx_HAL_Driver/Src/stm32l0xx_hal_adc.c ****       /* operations)                                                          */
1134:../../../../../../Drivers/STM32L0xx_HAL_Driver/Src/stm32l0xx_hal_adc.c ****       __HAL_ADC_CLEAR_FLAG(hadc, (ADC_FLAG_EOC | ADC_FLAG_EOS | ADC_FLAG_OVR));
1135:../../../../../../Drivers/STM32L0xx_HAL_Driver/Src/stm32l0xx_hal_adc.c ****       
1136:../../../../../../Drivers/STM32L0xx_HAL_Driver/Src/stm32l0xx_hal_adc.c ****       /* Enable ADC end of conversion interrupt */
1137:../../../../../../Drivers/STM32L0xx_HAL_Driver/Src/stm32l0xx_hal_adc.c ****       /* Enable ADC overrun interrupt */  
1138:../../../../../../Drivers/STM32L0xx_HAL_Driver/Src/stm32l0xx_hal_adc.c ****       switch(hadc->Init.EOCSelection)
1139:../../../../../../Drivers/STM32L0xx_HAL_Driver/Src/stm32l0xx_hal_adc.c ****       {
1140:../../../../../../Drivers/STM32L0xx_HAL_Driver/Src/stm32l0xx_hal_adc.c ****         case ADC_EOC_SEQ_CONV: 
1141:../../../../../../Drivers/STM32L0xx_HAL_Driver/Src/stm32l0xx_hal_adc.c ****           __HAL_ADC_DISABLE_IT(hadc, ADC_IT_EOC);
1142:../../../../../../Drivers/STM32L0xx_HAL_Driver/Src/stm32l0xx_hal_adc.c ****           __HAL_ADC_ENABLE_IT(hadc, (ADC_IT_EOS | ADC_IT_OVR));
1143:../../../../../../Drivers/STM32L0xx_HAL_Driver/Src/stm32l0xx_hal_adc.c ****           break;
1144:../../../../../../Drivers/STM32L0xx_HAL_Driver/Src/stm32l0xx_hal_adc.c ****         /* case ADC_EOC_SINGLE_CONV */
1145:../../../../../../Drivers/STM32L0xx_HAL_Driver/Src/stm32l0xx_hal_adc.c ****         default:
1146:../../../../../../Drivers/STM32L0xx_HAL_Driver/Src/stm32l0xx_hal_adc.c ****           __HAL_ADC_ENABLE_IT(hadc, (ADC_IT_EOC | ADC_IT_EOS | ADC_IT_OVR));
1147:../../../../../../Drivers/STM32L0xx_HAL_Driver/Src/stm32l0xx_hal_adc.c ****           break;
1148:../../../../../../Drivers/STM32L0xx_HAL_Driver/Src/stm32l0xx_hal_adc.c ****       }
1149:../../../../../../Drivers/STM32L0xx_HAL_Driver/Src/stm32l0xx_hal_adc.c ****       
1150:../../../../../../Drivers/STM32L0xx_HAL_Driver/Src/stm32l0xx_hal_adc.c ****       /* Enable conversion of regular group.                                  */
1151:../../../../../../Drivers/STM32L0xx_HAL_Driver/Src/stm32l0xx_hal_adc.c ****       /* If software start has been selected, conversion starts immediately.  */
1152:../../../../../../Drivers/STM32L0xx_HAL_Driver/Src/stm32l0xx_hal_adc.c ****       /* If external trigger has been selected, conversion will start at next */
1153:../../../../../../Drivers/STM32L0xx_HAL_Driver/Src/stm32l0xx_hal_adc.c ****       /* trigger event.                                                       */
1154:../../../../../../Drivers/STM32L0xx_HAL_Driver/Src/stm32l0xx_hal_adc.c ****       hadc->Instance->CR |= ADC_CR_ADSTART;
1155:../../../../../../Drivers/STM32L0xx_HAL_Driver/Src/stm32l0xx_hal_adc.c ****     }
1156:../../../../../../Drivers/STM32L0xx_HAL_Driver/Src/stm32l0xx_hal_adc.c ****   }
1157:../../../../../../Drivers/STM32L0xx_HAL_Driver/Src/stm32l0xx_hal_adc.c ****   else
1158:../../../../../../Drivers/STM32L0xx_HAL_Driver/Src/stm32l0xx_hal_adc.c ****   {
1159:../../../../../../Drivers/STM32L0xx_HAL_Driver/Src/stm32l0xx_hal_adc.c ****     tmp_hal_status = HAL_BUSY;
1160:../../../../../../Drivers/STM32L0xx_HAL_Driver/Src/stm32l0xx_hal_adc.c ****   }
1161:../../../../../../Drivers/STM32L0xx_HAL_Driver/Src/stm32l0xx_hal_adc.c ****   
1162:../../../../../../Drivers/STM32L0xx_HAL_Driver/Src/stm32l0xx_hal_adc.c ****   /* Return function status */
1163:../../../../../../Drivers/STM32L0xx_HAL_Driver/Src/stm32l0xx_hal_adc.c ****   return tmp_hal_status;
1164:../../../../../../Drivers/STM32L0xx_HAL_Driver/Src/stm32l0xx_hal_adc.c **** }
1165:../../../../../../Drivers/STM32L0xx_HAL_Driver/Src/stm32l0xx_hal_adc.c **** 
1166:../../../../../../Drivers/STM32L0xx_HAL_Driver/Src/stm32l0xx_hal_adc.c **** /**
1167:../../../../../../Drivers/STM32L0xx_HAL_Driver/Src/stm32l0xx_hal_adc.c ****   * @brief  Stop ADC conversion of regular group (and injected group in 
1168:../../../../../../Drivers/STM32L0xx_HAL_Driver/Src/stm32l0xx_hal_adc.c ****   *         case of auto_injection mode), disable interrution of 
1169:../../../../../../Drivers/STM32L0xx_HAL_Driver/Src/stm32l0xx_hal_adc.c ****   *         end-of-conversion, disable ADC peripheral.
1170:../../../../../../Drivers/STM32L0xx_HAL_Driver/Src/stm32l0xx_hal_adc.c ****   * @param  hadc ADC handle
1171:../../../../../../Drivers/STM32L0xx_HAL_Driver/Src/stm32l0xx_hal_adc.c ****   * @retval HAL status.
1172:../../../../../../Drivers/STM32L0xx_HAL_Driver/Src/stm32l0xx_hal_adc.c ****   */
1173:../../../../../../Drivers/STM32L0xx_HAL_Driver/Src/stm32l0xx_hal_adc.c **** HAL_StatusTypeDef HAL_ADC_Stop_IT(ADC_HandleTypeDef* hadc)
1174:../../../../../../Drivers/STM32L0xx_HAL_Driver/Src/stm32l0xx_hal_adc.c **** {
1175:../../../../../../Drivers/STM32L0xx_HAL_Driver/Src/stm32l0xx_hal_adc.c ****   HAL_StatusTypeDef tmp_hal_status = HAL_OK;
1176:../../../../../../Drivers/STM32L0xx_HAL_Driver/Src/stm32l0xx_hal_adc.c ****   
1177:../../../../../../Drivers/STM32L0xx_HAL_Driver/Src/stm32l0xx_hal_adc.c ****   /* Check the parameters */
1178:../../../../../../Drivers/STM32L0xx_HAL_Driver/Src/stm32l0xx_hal_adc.c ****   assert_param(IS_ADC_ALL_INSTANCE(hadc->Instance));
ARM GAS  C:\Users\EBANO_~1\AppData\Local\Temp\cc7eeVhF.s 			page 31


1179:../../../../../../Drivers/STM32L0xx_HAL_Driver/Src/stm32l0xx_hal_adc.c ****   
1180:../../../../../../Drivers/STM32L0xx_HAL_Driver/Src/stm32l0xx_hal_adc.c ****   /* Process locked */
1181:../../../../../../Drivers/STM32L0xx_HAL_Driver/Src/stm32l0xx_hal_adc.c ****   __HAL_LOCK(hadc);
1182:../../../../../../Drivers/STM32L0xx_HAL_Driver/Src/stm32l0xx_hal_adc.c ****   
1183:../../../../../../Drivers/STM32L0xx_HAL_Driver/Src/stm32l0xx_hal_adc.c ****   /* 1. Stop potential conversion on going, on ADC group regular */
1184:../../../../../../Drivers/STM32L0xx_HAL_Driver/Src/stm32l0xx_hal_adc.c ****   tmp_hal_status = ADC_ConversionStop(hadc);
1185:../../../../../../Drivers/STM32L0xx_HAL_Driver/Src/stm32l0xx_hal_adc.c ****   
1186:../../../../../../Drivers/STM32L0xx_HAL_Driver/Src/stm32l0xx_hal_adc.c ****   /* Disable ADC peripheral if conversions are effectively stopped */
1187:../../../../../../Drivers/STM32L0xx_HAL_Driver/Src/stm32l0xx_hal_adc.c ****   if (tmp_hal_status == HAL_OK)
1188:../../../../../../Drivers/STM32L0xx_HAL_Driver/Src/stm32l0xx_hal_adc.c ****   {
1189:../../../../../../Drivers/STM32L0xx_HAL_Driver/Src/stm32l0xx_hal_adc.c ****     /* Disable ADC end of conversion interrupt for regular group */
1190:../../../../../../Drivers/STM32L0xx_HAL_Driver/Src/stm32l0xx_hal_adc.c ****     /* Disable ADC overrun interrupt */
1191:../../../../../../Drivers/STM32L0xx_HAL_Driver/Src/stm32l0xx_hal_adc.c ****     __HAL_ADC_DISABLE_IT(hadc, (ADC_IT_EOC | ADC_IT_EOS | ADC_IT_OVR));
1192:../../../../../../Drivers/STM32L0xx_HAL_Driver/Src/stm32l0xx_hal_adc.c ****     
1193:../../../../../../Drivers/STM32L0xx_HAL_Driver/Src/stm32l0xx_hal_adc.c ****     /* 2. Disable the ADC peripheral */
1194:../../../../../../Drivers/STM32L0xx_HAL_Driver/Src/stm32l0xx_hal_adc.c ****     tmp_hal_status = ADC_Disable(hadc);
1195:../../../../../../Drivers/STM32L0xx_HAL_Driver/Src/stm32l0xx_hal_adc.c ****     
1196:../../../../../../Drivers/STM32L0xx_HAL_Driver/Src/stm32l0xx_hal_adc.c ****     /* Check if ADC is effectively disabled */
1197:../../../../../../Drivers/STM32L0xx_HAL_Driver/Src/stm32l0xx_hal_adc.c ****     if (tmp_hal_status == HAL_OK)
1198:../../../../../../Drivers/STM32L0xx_HAL_Driver/Src/stm32l0xx_hal_adc.c ****     {
1199:../../../../../../Drivers/STM32L0xx_HAL_Driver/Src/stm32l0xx_hal_adc.c ****       /* Set ADC state */
1200:../../../../../../Drivers/STM32L0xx_HAL_Driver/Src/stm32l0xx_hal_adc.c ****       ADC_STATE_CLR_SET(hadc->State,
1201:../../../../../../Drivers/STM32L0xx_HAL_Driver/Src/stm32l0xx_hal_adc.c ****                         HAL_ADC_STATE_REG_BUSY,
1202:../../../../../../Drivers/STM32L0xx_HAL_Driver/Src/stm32l0xx_hal_adc.c ****                         HAL_ADC_STATE_READY);
1203:../../../../../../Drivers/STM32L0xx_HAL_Driver/Src/stm32l0xx_hal_adc.c ****     }
1204:../../../../../../Drivers/STM32L0xx_HAL_Driver/Src/stm32l0xx_hal_adc.c ****   }
1205:../../../../../../Drivers/STM32L0xx_HAL_Driver/Src/stm32l0xx_hal_adc.c ****   
1206:../../../../../../Drivers/STM32L0xx_HAL_Driver/Src/stm32l0xx_hal_adc.c ****   /* Process unlocked */
1207:../../../../../../Drivers/STM32L0xx_HAL_Driver/Src/stm32l0xx_hal_adc.c ****   __HAL_UNLOCK(hadc);
1208:../../../../../../Drivers/STM32L0xx_HAL_Driver/Src/stm32l0xx_hal_adc.c ****   
1209:../../../../../../Drivers/STM32L0xx_HAL_Driver/Src/stm32l0xx_hal_adc.c ****   /* Return function status */
1210:../../../../../../Drivers/STM32L0xx_HAL_Driver/Src/stm32l0xx_hal_adc.c ****   return tmp_hal_status;
1211:../../../../../../Drivers/STM32L0xx_HAL_Driver/Src/stm32l0xx_hal_adc.c **** }
1212:../../../../../../Drivers/STM32L0xx_HAL_Driver/Src/stm32l0xx_hal_adc.c **** 
1213:../../../../../../Drivers/STM32L0xx_HAL_Driver/Src/stm32l0xx_hal_adc.c **** /**
1214:../../../../../../Drivers/STM32L0xx_HAL_Driver/Src/stm32l0xx_hal_adc.c ****   * @brief  Enable ADC, start conversion of regular group and transfer result through DMA.
1215:../../../../../../Drivers/STM32L0xx_HAL_Driver/Src/stm32l0xx_hal_adc.c ****   * @note   Interruptions enabled in this function:
1216:../../../../../../Drivers/STM32L0xx_HAL_Driver/Src/stm32l0xx_hal_adc.c ****   *         overrun (if applicable), DMA half transfer, DMA transfer complete. 
1217:../../../../../../Drivers/STM32L0xx_HAL_Driver/Src/stm32l0xx_hal_adc.c ****   *         Each of these interruptions has its dedicated callback function.
1218:../../../../../../Drivers/STM32L0xx_HAL_Driver/Src/stm32l0xx_hal_adc.c ****   * @param  hadc ADC handle
1219:../../../../../../Drivers/STM32L0xx_HAL_Driver/Src/stm32l0xx_hal_adc.c ****   * @param  pData Destination Buffer address.
1220:../../../../../../Drivers/STM32L0xx_HAL_Driver/Src/stm32l0xx_hal_adc.c ****   * @param  Length Length of data to be transferred from ADC peripheral to memory (in bytes)
1221:../../../../../../Drivers/STM32L0xx_HAL_Driver/Src/stm32l0xx_hal_adc.c ****   * @retval HAL status.
1222:../../../../../../Drivers/STM32L0xx_HAL_Driver/Src/stm32l0xx_hal_adc.c ****   */
1223:../../../../../../Drivers/STM32L0xx_HAL_Driver/Src/stm32l0xx_hal_adc.c **** HAL_StatusTypeDef HAL_ADC_Start_DMA(ADC_HandleTypeDef* hadc, uint32_t* pData, uint32_t Length)
1224:../../../../../../Drivers/STM32L0xx_HAL_Driver/Src/stm32l0xx_hal_adc.c **** {
1225:../../../../../../Drivers/STM32L0xx_HAL_Driver/Src/stm32l0xx_hal_adc.c ****   HAL_StatusTypeDef tmp_hal_status = HAL_OK;
1226:../../../../../../Drivers/STM32L0xx_HAL_Driver/Src/stm32l0xx_hal_adc.c ****   
1227:../../../../../../Drivers/STM32L0xx_HAL_Driver/Src/stm32l0xx_hal_adc.c ****   /* Check the parameters */
1228:../../../../../../Drivers/STM32L0xx_HAL_Driver/Src/stm32l0xx_hal_adc.c ****   assert_param(IS_ADC_ALL_INSTANCE(hadc->Instance));
1229:../../../../../../Drivers/STM32L0xx_HAL_Driver/Src/stm32l0xx_hal_adc.c ****   
1230:../../../../../../Drivers/STM32L0xx_HAL_Driver/Src/stm32l0xx_hal_adc.c ****   /* Perform ADC enable and conversion start if no conversion is on going */
1231:../../../../../../Drivers/STM32L0xx_HAL_Driver/Src/stm32l0xx_hal_adc.c ****   if (ADC_IS_CONVERSION_ONGOING_REGULAR(hadc) == RESET)
1232:../../../../../../Drivers/STM32L0xx_HAL_Driver/Src/stm32l0xx_hal_adc.c ****   {
1233:../../../../../../Drivers/STM32L0xx_HAL_Driver/Src/stm32l0xx_hal_adc.c ****     /* Process locked */
1234:../../../../../../Drivers/STM32L0xx_HAL_Driver/Src/stm32l0xx_hal_adc.c ****     __HAL_LOCK(hadc);
1235:../../../../../../Drivers/STM32L0xx_HAL_Driver/Src/stm32l0xx_hal_adc.c **** 
ARM GAS  C:\Users\EBANO_~1\AppData\Local\Temp\cc7eeVhF.s 			page 32


1236:../../../../../../Drivers/STM32L0xx_HAL_Driver/Src/stm32l0xx_hal_adc.c ****     /* Enable the ADC peripheral */
1237:../../../../../../Drivers/STM32L0xx_HAL_Driver/Src/stm32l0xx_hal_adc.c ****     /* If low power mode AutoPowerOff is enabled, power-on/off phases are       */
1238:../../../../../../Drivers/STM32L0xx_HAL_Driver/Src/stm32l0xx_hal_adc.c ****     /* performed automatically by hardware.                                     */
1239:../../../../../../Drivers/STM32L0xx_HAL_Driver/Src/stm32l0xx_hal_adc.c ****     if (hadc->Init.LowPowerAutoPowerOff != ENABLE)
1240:../../../../../../Drivers/STM32L0xx_HAL_Driver/Src/stm32l0xx_hal_adc.c ****     {
1241:../../../../../../Drivers/STM32L0xx_HAL_Driver/Src/stm32l0xx_hal_adc.c ****       tmp_hal_status = ADC_Enable(hadc);
1242:../../../../../../Drivers/STM32L0xx_HAL_Driver/Src/stm32l0xx_hal_adc.c ****     }
1243:../../../../../../Drivers/STM32L0xx_HAL_Driver/Src/stm32l0xx_hal_adc.c ****     
1244:../../../../../../Drivers/STM32L0xx_HAL_Driver/Src/stm32l0xx_hal_adc.c ****     /* Start conversion if ADC is effectively enabled */
1245:../../../../../../Drivers/STM32L0xx_HAL_Driver/Src/stm32l0xx_hal_adc.c ****     if (tmp_hal_status == HAL_OK)
1246:../../../../../../Drivers/STM32L0xx_HAL_Driver/Src/stm32l0xx_hal_adc.c ****     {
1247:../../../../../../Drivers/STM32L0xx_HAL_Driver/Src/stm32l0xx_hal_adc.c ****       /* Set ADC state                                                        */
1248:../../../../../../Drivers/STM32L0xx_HAL_Driver/Src/stm32l0xx_hal_adc.c ****       /* - Clear state bitfield related to regular group conversion results   */
1249:../../../../../../Drivers/STM32L0xx_HAL_Driver/Src/stm32l0xx_hal_adc.c ****       /* - Set state bitfield related to regular operation                    */
1250:../../../../../../Drivers/STM32L0xx_HAL_Driver/Src/stm32l0xx_hal_adc.c ****       ADC_STATE_CLR_SET(hadc->State,
1251:../../../../../../Drivers/STM32L0xx_HAL_Driver/Src/stm32l0xx_hal_adc.c ****                         HAL_ADC_STATE_READY | HAL_ADC_STATE_REG_EOC | HAL_ADC_STATE_REG_OVR | HAL_A
1252:../../../../../../Drivers/STM32L0xx_HAL_Driver/Src/stm32l0xx_hal_adc.c ****                         HAL_ADC_STATE_REG_BUSY);
1253:../../../../../../Drivers/STM32L0xx_HAL_Driver/Src/stm32l0xx_hal_adc.c ****       
1254:../../../../../../Drivers/STM32L0xx_HAL_Driver/Src/stm32l0xx_hal_adc.c ****       /* Reset ADC all error code fields */
1255:../../../../../../Drivers/STM32L0xx_HAL_Driver/Src/stm32l0xx_hal_adc.c ****       ADC_CLEAR_ERRORCODE(hadc);
1256:../../../../../../Drivers/STM32L0xx_HAL_Driver/Src/stm32l0xx_hal_adc.c ****       
1257:../../../../../../Drivers/STM32L0xx_HAL_Driver/Src/stm32l0xx_hal_adc.c ****       /* Process unlocked */
1258:../../../../../../Drivers/STM32L0xx_HAL_Driver/Src/stm32l0xx_hal_adc.c ****       /* Unlock before starting ADC conversions: in case of potential         */
1259:../../../../../../Drivers/STM32L0xx_HAL_Driver/Src/stm32l0xx_hal_adc.c ****       /* interruption, to let the process to ADC IRQ Handler.                 */
1260:../../../../../../Drivers/STM32L0xx_HAL_Driver/Src/stm32l0xx_hal_adc.c ****       __HAL_UNLOCK(hadc);
1261:../../../../../../Drivers/STM32L0xx_HAL_Driver/Src/stm32l0xx_hal_adc.c **** 
1262:../../../../../../Drivers/STM32L0xx_HAL_Driver/Src/stm32l0xx_hal_adc.c ****       /* Set the DMA transfer complete callback */
1263:../../../../../../Drivers/STM32L0xx_HAL_Driver/Src/stm32l0xx_hal_adc.c ****       hadc->DMA_Handle->XferCpltCallback = ADC_DMAConvCplt;
1264:../../../../../../Drivers/STM32L0xx_HAL_Driver/Src/stm32l0xx_hal_adc.c ****       
1265:../../../../../../Drivers/STM32L0xx_HAL_Driver/Src/stm32l0xx_hal_adc.c ****       /* Set the DMA half transfer complete callback */
1266:../../../../../../Drivers/STM32L0xx_HAL_Driver/Src/stm32l0xx_hal_adc.c ****       hadc->DMA_Handle->XferHalfCpltCallback = ADC_DMAHalfConvCplt;
1267:../../../../../../Drivers/STM32L0xx_HAL_Driver/Src/stm32l0xx_hal_adc.c ****       
1268:../../../../../../Drivers/STM32L0xx_HAL_Driver/Src/stm32l0xx_hal_adc.c ****       /* Set the DMA error callback */
1269:../../../../../../Drivers/STM32L0xx_HAL_Driver/Src/stm32l0xx_hal_adc.c ****       hadc->DMA_Handle->XferErrorCallback = ADC_DMAError;
1270:../../../../../../Drivers/STM32L0xx_HAL_Driver/Src/stm32l0xx_hal_adc.c ****       
1271:../../../../../../Drivers/STM32L0xx_HAL_Driver/Src/stm32l0xx_hal_adc.c ****       
1272:../../../../../../Drivers/STM32L0xx_HAL_Driver/Src/stm32l0xx_hal_adc.c ****       /* Manage ADC and DMA start: ADC overrun interruption, DMA start, ADC   */
1273:../../../../../../Drivers/STM32L0xx_HAL_Driver/Src/stm32l0xx_hal_adc.c ****       /* start (in case of SW start):                                         */
1274:../../../../../../Drivers/STM32L0xx_HAL_Driver/Src/stm32l0xx_hal_adc.c ****       
1275:../../../../../../Drivers/STM32L0xx_HAL_Driver/Src/stm32l0xx_hal_adc.c ****       /* Clear regular group conversion flag and overrun flag */
1276:../../../../../../Drivers/STM32L0xx_HAL_Driver/Src/stm32l0xx_hal_adc.c ****       /* (To ensure of no unknown state from potential previous ADC           */
1277:../../../../../../Drivers/STM32L0xx_HAL_Driver/Src/stm32l0xx_hal_adc.c ****       /* operations)                                                          */
1278:../../../../../../Drivers/STM32L0xx_HAL_Driver/Src/stm32l0xx_hal_adc.c ****       __HAL_ADC_CLEAR_FLAG(hadc, (ADC_FLAG_EOC | ADC_FLAG_EOS | ADC_FLAG_OVR));
1279:../../../../../../Drivers/STM32L0xx_HAL_Driver/Src/stm32l0xx_hal_adc.c ****       
1280:../../../../../../Drivers/STM32L0xx_HAL_Driver/Src/stm32l0xx_hal_adc.c ****       /* Enable ADC overrun interrupt */
1281:../../../../../../Drivers/STM32L0xx_HAL_Driver/Src/stm32l0xx_hal_adc.c ****       __HAL_ADC_ENABLE_IT(hadc, ADC_IT_OVR);
1282:../../../../../../Drivers/STM32L0xx_HAL_Driver/Src/stm32l0xx_hal_adc.c ****       
1283:../../../../../../Drivers/STM32L0xx_HAL_Driver/Src/stm32l0xx_hal_adc.c ****       /* Enable ADC DMA mode */
1284:../../../../../../Drivers/STM32L0xx_HAL_Driver/Src/stm32l0xx_hal_adc.c ****       hadc->Instance->CFGR1 |= ADC_CFGR1_DMAEN;
1285:../../../../../../Drivers/STM32L0xx_HAL_Driver/Src/stm32l0xx_hal_adc.c ****       
1286:../../../../../../Drivers/STM32L0xx_HAL_Driver/Src/stm32l0xx_hal_adc.c ****       /* Start the DMA channel */
1287:../../../../../../Drivers/STM32L0xx_HAL_Driver/Src/stm32l0xx_hal_adc.c ****       HAL_DMA_Start_IT(hadc->DMA_Handle, (uint32_t)&hadc->Instance->DR, (uint32_t)pData, Length);
1288:../../../../../../Drivers/STM32L0xx_HAL_Driver/Src/stm32l0xx_hal_adc.c ****       
1289:../../../../../../Drivers/STM32L0xx_HAL_Driver/Src/stm32l0xx_hal_adc.c ****       /* Enable conversion of regular group.                                  */
1290:../../../../../../Drivers/STM32L0xx_HAL_Driver/Src/stm32l0xx_hal_adc.c ****       /* If software start has been selected, conversion starts immediately.  */
1291:../../../../../../Drivers/STM32L0xx_HAL_Driver/Src/stm32l0xx_hal_adc.c ****       /* If external trigger has been selected, conversion will start at next */
1292:../../../../../../Drivers/STM32L0xx_HAL_Driver/Src/stm32l0xx_hal_adc.c ****       /* trigger event.                                                       */
ARM GAS  C:\Users\EBANO_~1\AppData\Local\Temp\cc7eeVhF.s 			page 33


1293:../../../../../../Drivers/STM32L0xx_HAL_Driver/Src/stm32l0xx_hal_adc.c ****       hadc->Instance->CR |= ADC_CR_ADSTART;
1294:../../../../../../Drivers/STM32L0xx_HAL_Driver/Src/stm32l0xx_hal_adc.c ****     }
1295:../../../../../../Drivers/STM32L0xx_HAL_Driver/Src/stm32l0xx_hal_adc.c ****   }
1296:../../../../../../Drivers/STM32L0xx_HAL_Driver/Src/stm32l0xx_hal_adc.c ****   else
1297:../../../../../../Drivers/STM32L0xx_HAL_Driver/Src/stm32l0xx_hal_adc.c ****   {
1298:../../../../../../Drivers/STM32L0xx_HAL_Driver/Src/stm32l0xx_hal_adc.c ****     tmp_hal_status = HAL_BUSY;
1299:../../../../../../Drivers/STM32L0xx_HAL_Driver/Src/stm32l0xx_hal_adc.c ****   }
1300:../../../../../../Drivers/STM32L0xx_HAL_Driver/Src/stm32l0xx_hal_adc.c ****   
1301:../../../../../../Drivers/STM32L0xx_HAL_Driver/Src/stm32l0xx_hal_adc.c ****   /* Return function status */
1302:../../../../../../Drivers/STM32L0xx_HAL_Driver/Src/stm32l0xx_hal_adc.c ****   return tmp_hal_status;
1303:../../../../../../Drivers/STM32L0xx_HAL_Driver/Src/stm32l0xx_hal_adc.c **** }
1304:../../../../../../Drivers/STM32L0xx_HAL_Driver/Src/stm32l0xx_hal_adc.c **** 
1305:../../../../../../Drivers/STM32L0xx_HAL_Driver/Src/stm32l0xx_hal_adc.c **** /**
1306:../../../../../../Drivers/STM32L0xx_HAL_Driver/Src/stm32l0xx_hal_adc.c ****   * @brief  Stop ADC conversion of regular group (and injected group in 
1307:../../../../../../Drivers/STM32L0xx_HAL_Driver/Src/stm32l0xx_hal_adc.c ****   *         case of auto_injection mode), disable ADC DMA transfer, disable 
1308:../../../../../../Drivers/STM32L0xx_HAL_Driver/Src/stm32l0xx_hal_adc.c ****   *         ADC peripheral.
1309:../../../../../../Drivers/STM32L0xx_HAL_Driver/Src/stm32l0xx_hal_adc.c ****   *         Each of these interruptions has its dedicated callback function.
1310:../../../../../../Drivers/STM32L0xx_HAL_Driver/Src/stm32l0xx_hal_adc.c ****   * @param  hadc ADC handle
1311:../../../../../../Drivers/STM32L0xx_HAL_Driver/Src/stm32l0xx_hal_adc.c ****   * @retval HAL status.
1312:../../../../../../Drivers/STM32L0xx_HAL_Driver/Src/stm32l0xx_hal_adc.c ****   */
1313:../../../../../../Drivers/STM32L0xx_HAL_Driver/Src/stm32l0xx_hal_adc.c **** HAL_StatusTypeDef HAL_ADC_Stop_DMA(ADC_HandleTypeDef* hadc)
1314:../../../../../../Drivers/STM32L0xx_HAL_Driver/Src/stm32l0xx_hal_adc.c **** {
1315:../../../../../../Drivers/STM32L0xx_HAL_Driver/Src/stm32l0xx_hal_adc.c ****   HAL_StatusTypeDef tmp_hal_status = HAL_OK;
1316:../../../../../../Drivers/STM32L0xx_HAL_Driver/Src/stm32l0xx_hal_adc.c ****   
1317:../../../../../../Drivers/STM32L0xx_HAL_Driver/Src/stm32l0xx_hal_adc.c ****   /* Check the parameters */
1318:../../../../../../Drivers/STM32L0xx_HAL_Driver/Src/stm32l0xx_hal_adc.c ****   assert_param(IS_ADC_ALL_INSTANCE(hadc->Instance));
1319:../../../../../../Drivers/STM32L0xx_HAL_Driver/Src/stm32l0xx_hal_adc.c ****   
1320:../../../../../../Drivers/STM32L0xx_HAL_Driver/Src/stm32l0xx_hal_adc.c ****   /* Process locked */
1321:../../../../../../Drivers/STM32L0xx_HAL_Driver/Src/stm32l0xx_hal_adc.c ****   __HAL_LOCK(hadc);
1322:../../../../../../Drivers/STM32L0xx_HAL_Driver/Src/stm32l0xx_hal_adc.c ****   
1323:../../../../../../Drivers/STM32L0xx_HAL_Driver/Src/stm32l0xx_hal_adc.c ****   /* 1. Stop potential ADC group regular conversion on going */
1324:../../../../../../Drivers/STM32L0xx_HAL_Driver/Src/stm32l0xx_hal_adc.c ****   tmp_hal_status = ADC_ConversionStop(hadc);
1325:../../../../../../Drivers/STM32L0xx_HAL_Driver/Src/stm32l0xx_hal_adc.c ****   
1326:../../../../../../Drivers/STM32L0xx_HAL_Driver/Src/stm32l0xx_hal_adc.c ****   /* Disable ADC peripheral if conversions are effectively stopped */
1327:../../../../../../Drivers/STM32L0xx_HAL_Driver/Src/stm32l0xx_hal_adc.c ****   if (tmp_hal_status == HAL_OK)
1328:../../../../../../Drivers/STM32L0xx_HAL_Driver/Src/stm32l0xx_hal_adc.c ****   {
1329:../../../../../../Drivers/STM32L0xx_HAL_Driver/Src/stm32l0xx_hal_adc.c ****     /* Disable ADC DMA (ADC DMA configuration ADC_CFGR_DMACFG is kept) */
1330:../../../../../../Drivers/STM32L0xx_HAL_Driver/Src/stm32l0xx_hal_adc.c ****     CLEAR_BIT(hadc->Instance->CFGR1, ADC_CFGR1_DMAEN);
1331:../../../../../../Drivers/STM32L0xx_HAL_Driver/Src/stm32l0xx_hal_adc.c ****     
1332:../../../../../../Drivers/STM32L0xx_HAL_Driver/Src/stm32l0xx_hal_adc.c ****     /* Disable the DMA channel (in case of DMA in circular mode or stop       */
1333:../../../../../../Drivers/STM32L0xx_HAL_Driver/Src/stm32l0xx_hal_adc.c ****     /* while DMA transfer is on going)                                        */
1334:../../../../../../Drivers/STM32L0xx_HAL_Driver/Src/stm32l0xx_hal_adc.c ****     tmp_hal_status = HAL_DMA_Abort(hadc->DMA_Handle);
1335:../../../../../../Drivers/STM32L0xx_HAL_Driver/Src/stm32l0xx_hal_adc.c ****     
1336:../../../../../../Drivers/STM32L0xx_HAL_Driver/Src/stm32l0xx_hal_adc.c ****     /* Check if DMA channel effectively disabled */
1337:../../../../../../Drivers/STM32L0xx_HAL_Driver/Src/stm32l0xx_hal_adc.c ****     if (tmp_hal_status != HAL_OK)
1338:../../../../../../Drivers/STM32L0xx_HAL_Driver/Src/stm32l0xx_hal_adc.c ****     {
1339:../../../../../../Drivers/STM32L0xx_HAL_Driver/Src/stm32l0xx_hal_adc.c ****       /* Update ADC state machine to error */
1340:../../../../../../Drivers/STM32L0xx_HAL_Driver/Src/stm32l0xx_hal_adc.c ****       SET_BIT(hadc->State, HAL_ADC_STATE_ERROR_DMA);
1341:../../../../../../Drivers/STM32L0xx_HAL_Driver/Src/stm32l0xx_hal_adc.c ****     }
1342:../../../../../../Drivers/STM32L0xx_HAL_Driver/Src/stm32l0xx_hal_adc.c ****     
1343:../../../../../../Drivers/STM32L0xx_HAL_Driver/Src/stm32l0xx_hal_adc.c ****     /* Disable ADC overrun interrupt */
1344:../../../../../../Drivers/STM32L0xx_HAL_Driver/Src/stm32l0xx_hal_adc.c ****     __HAL_ADC_DISABLE_IT(hadc, ADC_IT_OVR);
1345:../../../../../../Drivers/STM32L0xx_HAL_Driver/Src/stm32l0xx_hal_adc.c ****     
1346:../../../../../../Drivers/STM32L0xx_HAL_Driver/Src/stm32l0xx_hal_adc.c ****     /* 2. Disable the ADC peripheral */
1347:../../../../../../Drivers/STM32L0xx_HAL_Driver/Src/stm32l0xx_hal_adc.c ****     /* Update "tmp_hal_status" only if DMA channel disabling passed, to keep  */
1348:../../../../../../Drivers/STM32L0xx_HAL_Driver/Src/stm32l0xx_hal_adc.c ****     /* in memory a potential failing status.                                  */
1349:../../../../../../Drivers/STM32L0xx_HAL_Driver/Src/stm32l0xx_hal_adc.c ****     if (tmp_hal_status == HAL_OK)
ARM GAS  C:\Users\EBANO_~1\AppData\Local\Temp\cc7eeVhF.s 			page 34


1350:../../../../../../Drivers/STM32L0xx_HAL_Driver/Src/stm32l0xx_hal_adc.c ****     {
1351:../../../../../../Drivers/STM32L0xx_HAL_Driver/Src/stm32l0xx_hal_adc.c ****       tmp_hal_status = ADC_Disable(hadc);
1352:../../../../../../Drivers/STM32L0xx_HAL_Driver/Src/stm32l0xx_hal_adc.c ****     }
1353:../../../../../../Drivers/STM32L0xx_HAL_Driver/Src/stm32l0xx_hal_adc.c ****     else
1354:../../../../../../Drivers/STM32L0xx_HAL_Driver/Src/stm32l0xx_hal_adc.c ****     {
1355:../../../../../../Drivers/STM32L0xx_HAL_Driver/Src/stm32l0xx_hal_adc.c ****       ADC_Disable(hadc);
1356:../../../../../../Drivers/STM32L0xx_HAL_Driver/Src/stm32l0xx_hal_adc.c ****     }
1357:../../../../../../Drivers/STM32L0xx_HAL_Driver/Src/stm32l0xx_hal_adc.c **** 
1358:../../../../../../Drivers/STM32L0xx_HAL_Driver/Src/stm32l0xx_hal_adc.c ****     /* Check if ADC is effectively disabled */
1359:../../../../../../Drivers/STM32L0xx_HAL_Driver/Src/stm32l0xx_hal_adc.c ****     if (tmp_hal_status == HAL_OK)
1360:../../../../../../Drivers/STM32L0xx_HAL_Driver/Src/stm32l0xx_hal_adc.c ****     {
1361:../../../../../../Drivers/STM32L0xx_HAL_Driver/Src/stm32l0xx_hal_adc.c ****       /* Set ADC state */
1362:../../../../../../Drivers/STM32L0xx_HAL_Driver/Src/stm32l0xx_hal_adc.c ****       ADC_STATE_CLR_SET(hadc->State,
1363:../../../../../../Drivers/STM32L0xx_HAL_Driver/Src/stm32l0xx_hal_adc.c ****                         HAL_ADC_STATE_REG_BUSY,
1364:../../../../../../Drivers/STM32L0xx_HAL_Driver/Src/stm32l0xx_hal_adc.c ****                         HAL_ADC_STATE_READY);
1365:../../../../../../Drivers/STM32L0xx_HAL_Driver/Src/stm32l0xx_hal_adc.c ****     }
1366:../../../../../../Drivers/STM32L0xx_HAL_Driver/Src/stm32l0xx_hal_adc.c ****     
1367:../../../../../../Drivers/STM32L0xx_HAL_Driver/Src/stm32l0xx_hal_adc.c ****   }
1368:../../../../../../Drivers/STM32L0xx_HAL_Driver/Src/stm32l0xx_hal_adc.c ****   
1369:../../../../../../Drivers/STM32L0xx_HAL_Driver/Src/stm32l0xx_hal_adc.c ****   /* Process unlocked */
1370:../../../../../../Drivers/STM32L0xx_HAL_Driver/Src/stm32l0xx_hal_adc.c ****   __HAL_UNLOCK(hadc);
1371:../../../../../../Drivers/STM32L0xx_HAL_Driver/Src/stm32l0xx_hal_adc.c ****   
1372:../../../../../../Drivers/STM32L0xx_HAL_Driver/Src/stm32l0xx_hal_adc.c ****   /* Return function status */
1373:../../../../../../Drivers/STM32L0xx_HAL_Driver/Src/stm32l0xx_hal_adc.c ****   return tmp_hal_status;
1374:../../../../../../Drivers/STM32L0xx_HAL_Driver/Src/stm32l0xx_hal_adc.c **** }
1375:../../../../../../Drivers/STM32L0xx_HAL_Driver/Src/stm32l0xx_hal_adc.c **** 
1376:../../../../../../Drivers/STM32L0xx_HAL_Driver/Src/stm32l0xx_hal_adc.c **** /**
1377:../../../../../../Drivers/STM32L0xx_HAL_Driver/Src/stm32l0xx_hal_adc.c ****   * @brief  Get ADC regular group conversion result.
1378:../../../../../../Drivers/STM32L0xx_HAL_Driver/Src/stm32l0xx_hal_adc.c ****   * @note   Reading register DR automatically clears ADC flag EOC
1379:../../../../../../Drivers/STM32L0xx_HAL_Driver/Src/stm32l0xx_hal_adc.c ****   *         (ADC group regular end of unitary conversion).
1380:../../../../../../Drivers/STM32L0xx_HAL_Driver/Src/stm32l0xx_hal_adc.c ****   * @note   This function does not clear ADC flag EOS 
1381:../../../../../../Drivers/STM32L0xx_HAL_Driver/Src/stm32l0xx_hal_adc.c ****   *         (ADC group regular end of sequence conversion).
1382:../../../../../../Drivers/STM32L0xx_HAL_Driver/Src/stm32l0xx_hal_adc.c ****   *         Occurrence of flag EOS rising:
1383:../../../../../../Drivers/STM32L0xx_HAL_Driver/Src/stm32l0xx_hal_adc.c ****   *          - If sequencer is composed of 1 rank, flag EOS is equivalent
1384:../../../../../../Drivers/STM32L0xx_HAL_Driver/Src/stm32l0xx_hal_adc.c ****   *            to flag EOC.
1385:../../../../../../Drivers/STM32L0xx_HAL_Driver/Src/stm32l0xx_hal_adc.c ****   *          - If sequencer is composed of several ranks, during the scan
1386:../../../../../../Drivers/STM32L0xx_HAL_Driver/Src/stm32l0xx_hal_adc.c ****   *            sequence flag EOC only is raised, at the end of the scan sequence
1387:../../../../../../Drivers/STM32L0xx_HAL_Driver/Src/stm32l0xx_hal_adc.c ****   *            both flags EOC and EOS are raised.
1388:../../../../../../Drivers/STM32L0xx_HAL_Driver/Src/stm32l0xx_hal_adc.c ****   *         To clear this flag, either use function:
1389:../../../../../../Drivers/STM32L0xx_HAL_Driver/Src/stm32l0xx_hal_adc.c ****   *         in programming model IT: @ref HAL_ADC_IRQHandler(), in programming
1390:../../../../../../Drivers/STM32L0xx_HAL_Driver/Src/stm32l0xx_hal_adc.c ****   *         model polling: @ref HAL_ADC_PollForConversion()
1391:../../../../../../Drivers/STM32L0xx_HAL_Driver/Src/stm32l0xx_hal_adc.c ****   *         or @ref __HAL_ADC_CLEAR_FLAG(&hadc, ADC_FLAG_EOS).
1392:../../../../../../Drivers/STM32L0xx_HAL_Driver/Src/stm32l0xx_hal_adc.c ****   * @param  hadc ADC handle
1393:../../../../../../Drivers/STM32L0xx_HAL_Driver/Src/stm32l0xx_hal_adc.c ****   * @retval ADC group regular conversion data
1394:../../../../../../Drivers/STM32L0xx_HAL_Driver/Src/stm32l0xx_hal_adc.c ****   */
1395:../../../../../../Drivers/STM32L0xx_HAL_Driver/Src/stm32l0xx_hal_adc.c **** uint32_t HAL_ADC_GetValue(ADC_HandleTypeDef* hadc)
1396:../../../../../../Drivers/STM32L0xx_HAL_Driver/Src/stm32l0xx_hal_adc.c **** {
1397:../../../../../../Drivers/STM32L0xx_HAL_Driver/Src/stm32l0xx_hal_adc.c ****   /* Check the parameters */
1398:../../../../../../Drivers/STM32L0xx_HAL_Driver/Src/stm32l0xx_hal_adc.c ****   assert_param(IS_ADC_ALL_INSTANCE(hadc->Instance));
1399:../../../../../../Drivers/STM32L0xx_HAL_Driver/Src/stm32l0xx_hal_adc.c **** 
1400:../../../../../../Drivers/STM32L0xx_HAL_Driver/Src/stm32l0xx_hal_adc.c ****   /* Note: EOC flag is not cleared here by software because automatically     */
1401:../../../../../../Drivers/STM32L0xx_HAL_Driver/Src/stm32l0xx_hal_adc.c ****   /*       cleared by hardware when reading register DR.                      */
1402:../../../../../../Drivers/STM32L0xx_HAL_Driver/Src/stm32l0xx_hal_adc.c ****   
1403:../../../../../../Drivers/STM32L0xx_HAL_Driver/Src/stm32l0xx_hal_adc.c ****   /* Return ADC converted value */ 
1404:../../../../../../Drivers/STM32L0xx_HAL_Driver/Src/stm32l0xx_hal_adc.c ****   return hadc->Instance->DR;
1405:../../../../../../Drivers/STM32L0xx_HAL_Driver/Src/stm32l0xx_hal_adc.c **** }
1406:../../../../../../Drivers/STM32L0xx_HAL_Driver/Src/stm32l0xx_hal_adc.c **** 
ARM GAS  C:\Users\EBANO_~1\AppData\Local\Temp\cc7eeVhF.s 			page 35


1407:../../../../../../Drivers/STM32L0xx_HAL_Driver/Src/stm32l0xx_hal_adc.c **** /**
1408:../../../../../../Drivers/STM32L0xx_HAL_Driver/Src/stm32l0xx_hal_adc.c ****   * @brief  Handle ADC interrupt request.
1409:../../../../../../Drivers/STM32L0xx_HAL_Driver/Src/stm32l0xx_hal_adc.c ****   * @param  hadc ADC handle
1410:../../../../../../Drivers/STM32L0xx_HAL_Driver/Src/stm32l0xx_hal_adc.c ****   * @retval None
1411:../../../../../../Drivers/STM32L0xx_HAL_Driver/Src/stm32l0xx_hal_adc.c ****   */
1412:../../../../../../Drivers/STM32L0xx_HAL_Driver/Src/stm32l0xx_hal_adc.c **** void HAL_ADC_IRQHandler(ADC_HandleTypeDef* hadc)
1413:../../../../../../Drivers/STM32L0xx_HAL_Driver/Src/stm32l0xx_hal_adc.c **** {
1414:../../../../../../Drivers/STM32L0xx_HAL_Driver/Src/stm32l0xx_hal_adc.c ****   /* Check the parameters */
1415:../../../../../../Drivers/STM32L0xx_HAL_Driver/Src/stm32l0xx_hal_adc.c ****   assert_param(IS_ADC_ALL_INSTANCE(hadc->Instance));
1416:../../../../../../Drivers/STM32L0xx_HAL_Driver/Src/stm32l0xx_hal_adc.c ****   assert_param(IS_FUNCTIONAL_STATE(hadc->Init.ContinuousConvMode));
1417:../../../../../../Drivers/STM32L0xx_HAL_Driver/Src/stm32l0xx_hal_adc.c ****   assert_param(IS_ADC_EOC_SELECTION(hadc->Init.EOCSelection));
1418:../../../../../../Drivers/STM32L0xx_HAL_Driver/Src/stm32l0xx_hal_adc.c ****   
1419:../../../../../../Drivers/STM32L0xx_HAL_Driver/Src/stm32l0xx_hal_adc.c ****   /* ========== Check End of Conversion flag for regular group ========== */
1420:../../../../../../Drivers/STM32L0xx_HAL_Driver/Src/stm32l0xx_hal_adc.c ****   if( (__HAL_ADC_GET_FLAG(hadc, ADC_FLAG_EOC) && __HAL_ADC_GET_IT_SOURCE(hadc, ADC_IT_EOC)) || 
1421:../../../../../../Drivers/STM32L0xx_HAL_Driver/Src/stm32l0xx_hal_adc.c ****       (__HAL_ADC_GET_FLAG(hadc, ADC_FLAG_EOS) && __HAL_ADC_GET_IT_SOURCE(hadc, ADC_IT_EOS))   )
1422:../../../../../../Drivers/STM32L0xx_HAL_Driver/Src/stm32l0xx_hal_adc.c ****   {
1423:../../../../../../Drivers/STM32L0xx_HAL_Driver/Src/stm32l0xx_hal_adc.c ****     /* Update state machine on conversion status if not in error state */
1424:../../../../../../Drivers/STM32L0xx_HAL_Driver/Src/stm32l0xx_hal_adc.c ****     if (HAL_IS_BIT_CLR(hadc->State, HAL_ADC_STATE_ERROR_INTERNAL))
1425:../../../../../../Drivers/STM32L0xx_HAL_Driver/Src/stm32l0xx_hal_adc.c ****     {
1426:../../../../../../Drivers/STM32L0xx_HAL_Driver/Src/stm32l0xx_hal_adc.c ****       /* Set ADC state */
1427:../../../../../../Drivers/STM32L0xx_HAL_Driver/Src/stm32l0xx_hal_adc.c ****       SET_BIT(hadc->State, HAL_ADC_STATE_REG_EOC);
1428:../../../../../../Drivers/STM32L0xx_HAL_Driver/Src/stm32l0xx_hal_adc.c ****     }
1429:../../../../../../Drivers/STM32L0xx_HAL_Driver/Src/stm32l0xx_hal_adc.c ****     
1430:../../../../../../Drivers/STM32L0xx_HAL_Driver/Src/stm32l0xx_hal_adc.c ****     /* Determine whether any further conversion upcoming on group regular     */
1431:../../../../../../Drivers/STM32L0xx_HAL_Driver/Src/stm32l0xx_hal_adc.c ****     /* by external trigger, continuous mode or scan sequence on going.        */
1432:../../../../../../Drivers/STM32L0xx_HAL_Driver/Src/stm32l0xx_hal_adc.c ****     if(ADC_IS_SOFTWARE_START_REGULAR(hadc)        && 
1433:../../../../../../Drivers/STM32L0xx_HAL_Driver/Src/stm32l0xx_hal_adc.c ****        (hadc->Init.ContinuousConvMode == DISABLE)   )
1434:../../../../../../Drivers/STM32L0xx_HAL_Driver/Src/stm32l0xx_hal_adc.c ****     {
1435:../../../../../../Drivers/STM32L0xx_HAL_Driver/Src/stm32l0xx_hal_adc.c ****       /* If End of Sequence is reached, disable interrupts */
1436:../../../../../../Drivers/STM32L0xx_HAL_Driver/Src/stm32l0xx_hal_adc.c ****       if( __HAL_ADC_GET_FLAG(hadc, ADC_FLAG_EOS) )
1437:../../../../../../Drivers/STM32L0xx_HAL_Driver/Src/stm32l0xx_hal_adc.c ****       {
1438:../../../../../../Drivers/STM32L0xx_HAL_Driver/Src/stm32l0xx_hal_adc.c ****         /* Allowed to modify bits ADC_IT_EOC/ADC_IT_EOS only if bit           */
1439:../../../../../../Drivers/STM32L0xx_HAL_Driver/Src/stm32l0xx_hal_adc.c ****         /* ADSTART==0 (no conversion on going)                                */
1440:../../../../../../Drivers/STM32L0xx_HAL_Driver/Src/stm32l0xx_hal_adc.c ****         if (ADC_IS_CONVERSION_ONGOING_REGULAR(hadc) == RESET)
1441:../../../../../../Drivers/STM32L0xx_HAL_Driver/Src/stm32l0xx_hal_adc.c ****         {
1442:../../../../../../Drivers/STM32L0xx_HAL_Driver/Src/stm32l0xx_hal_adc.c ****           /* Disable ADC end of single conversion interrupt on group regular */
1443:../../../../../../Drivers/STM32L0xx_HAL_Driver/Src/stm32l0xx_hal_adc.c ****           /* Note: Overrun interrupt was enabled with EOC interrupt in        */
1444:../../../../../../Drivers/STM32L0xx_HAL_Driver/Src/stm32l0xx_hal_adc.c ****           /* HAL_Start_IT(), but is not disabled here because can be used     */
1445:../../../../../../Drivers/STM32L0xx_HAL_Driver/Src/stm32l0xx_hal_adc.c ****           /* by overrun IRQ process below.                                    */
1446:../../../../../../Drivers/STM32L0xx_HAL_Driver/Src/stm32l0xx_hal_adc.c ****           __HAL_ADC_DISABLE_IT(hadc, ADC_IT_EOC | ADC_IT_EOS);
1447:../../../../../../Drivers/STM32L0xx_HAL_Driver/Src/stm32l0xx_hal_adc.c ****           
1448:../../../../../../Drivers/STM32L0xx_HAL_Driver/Src/stm32l0xx_hal_adc.c ****           /* Set ADC state */
1449:../../../../../../Drivers/STM32L0xx_HAL_Driver/Src/stm32l0xx_hal_adc.c ****           ADC_STATE_CLR_SET(hadc->State,
1450:../../../../../../Drivers/STM32L0xx_HAL_Driver/Src/stm32l0xx_hal_adc.c ****                             HAL_ADC_STATE_REG_BUSY,
1451:../../../../../../Drivers/STM32L0xx_HAL_Driver/Src/stm32l0xx_hal_adc.c ****                             HAL_ADC_STATE_READY);
1452:../../../../../../Drivers/STM32L0xx_HAL_Driver/Src/stm32l0xx_hal_adc.c ****         }
1453:../../../../../../Drivers/STM32L0xx_HAL_Driver/Src/stm32l0xx_hal_adc.c ****         else
1454:../../../../../../Drivers/STM32L0xx_HAL_Driver/Src/stm32l0xx_hal_adc.c ****         {
1455:../../../../../../Drivers/STM32L0xx_HAL_Driver/Src/stm32l0xx_hal_adc.c ****           /* Change ADC state to error state */
1456:../../../../../../Drivers/STM32L0xx_HAL_Driver/Src/stm32l0xx_hal_adc.c ****           SET_BIT(hadc->State, HAL_ADC_STATE_ERROR_CONFIG);
1457:../../../../../../Drivers/STM32L0xx_HAL_Driver/Src/stm32l0xx_hal_adc.c ****           
1458:../../../../../../Drivers/STM32L0xx_HAL_Driver/Src/stm32l0xx_hal_adc.c ****           /* Set ADC error code to ADC IP internal error */
1459:../../../../../../Drivers/STM32L0xx_HAL_Driver/Src/stm32l0xx_hal_adc.c ****           SET_BIT(hadc->ErrorCode, HAL_ADC_ERROR_INTERNAL);
1460:../../../../../../Drivers/STM32L0xx_HAL_Driver/Src/stm32l0xx_hal_adc.c ****         }
1461:../../../../../../Drivers/STM32L0xx_HAL_Driver/Src/stm32l0xx_hal_adc.c ****       }
1462:../../../../../../Drivers/STM32L0xx_HAL_Driver/Src/stm32l0xx_hal_adc.c ****     }
1463:../../../../../../Drivers/STM32L0xx_HAL_Driver/Src/stm32l0xx_hal_adc.c ****     
ARM GAS  C:\Users\EBANO_~1\AppData\Local\Temp\cc7eeVhF.s 			page 36


1464:../../../../../../Drivers/STM32L0xx_HAL_Driver/Src/stm32l0xx_hal_adc.c ****     /* Conversion complete callback */
1465:../../../../../../Drivers/STM32L0xx_HAL_Driver/Src/stm32l0xx_hal_adc.c ****     /* Note: into callback, to determine if conversion has been triggered     */
1466:../../../../../../Drivers/STM32L0xx_HAL_Driver/Src/stm32l0xx_hal_adc.c ****     /*       from EOC or EOS, possibility to use:                             */
1467:../../../../../../Drivers/STM32L0xx_HAL_Driver/Src/stm32l0xx_hal_adc.c ****     /*        " if( __HAL_ADC_GET_FLAG(&hadc, ADC_FLAG_EOS)) "                */
1468:../../../../../../Drivers/STM32L0xx_HAL_Driver/Src/stm32l0xx_hal_adc.c ****     HAL_ADC_ConvCpltCallback(hadc);
1469:../../../../../../Drivers/STM32L0xx_HAL_Driver/Src/stm32l0xx_hal_adc.c ****     
1470:../../../../../../Drivers/STM32L0xx_HAL_Driver/Src/stm32l0xx_hal_adc.c ****     /* Clear regular group conversion flag */
1471:../../../../../../Drivers/STM32L0xx_HAL_Driver/Src/stm32l0xx_hal_adc.c ****     /* Note: in case of overrun set to ADC_OVR_DATA_PRESERVED, end of         */
1472:../../../../../../Drivers/STM32L0xx_HAL_Driver/Src/stm32l0xx_hal_adc.c ****     /*       conversion flags clear induces the release of the preserved data.*/
1473:../../../../../../Drivers/STM32L0xx_HAL_Driver/Src/stm32l0xx_hal_adc.c ****     /*       Therefore, if the preserved data value is needed, it must be     */
1474:../../../../../../Drivers/STM32L0xx_HAL_Driver/Src/stm32l0xx_hal_adc.c ****     /*       read preliminarily into HAL_ADC_ConvCpltCallback().              */
1475:../../../../../../Drivers/STM32L0xx_HAL_Driver/Src/stm32l0xx_hal_adc.c ****     /* Note: Management of low power auto-wait enabled: flags must be cleared */
1476:../../../../../../Drivers/STM32L0xx_HAL_Driver/Src/stm32l0xx_hal_adc.c ****     /*       by user when fetching ADC conversion data.                       */
1477:../../../../../../Drivers/STM32L0xx_HAL_Driver/Src/stm32l0xx_hal_adc.c ****     /*       This case is managed in IRQ handler, but this low-power mode     */
1478:../../../../../../Drivers/STM32L0xx_HAL_Driver/Src/stm32l0xx_hal_adc.c ****     /*       should not be used with programming model IT or DMA.             */
1479:../../../../../../Drivers/STM32L0xx_HAL_Driver/Src/stm32l0xx_hal_adc.c ****     /*       Refer to comment of parameter "LowPowerAutoWait".                */
1480:../../../../../../Drivers/STM32L0xx_HAL_Driver/Src/stm32l0xx_hal_adc.c ****     if (hadc->Init.LowPowerAutoWait != ENABLE)
1481:../../../../../../Drivers/STM32L0xx_HAL_Driver/Src/stm32l0xx_hal_adc.c ****     {
1482:../../../../../../Drivers/STM32L0xx_HAL_Driver/Src/stm32l0xx_hal_adc.c ****       __HAL_ADC_CLEAR_FLAG(hadc, (ADC_FLAG_EOC | ADC_FLAG_EOS));
1483:../../../../../../Drivers/STM32L0xx_HAL_Driver/Src/stm32l0xx_hal_adc.c ****     }
1484:../../../../../../Drivers/STM32L0xx_HAL_Driver/Src/stm32l0xx_hal_adc.c ****   }
1485:../../../../../../Drivers/STM32L0xx_HAL_Driver/Src/stm32l0xx_hal_adc.c ****   
1486:../../../../../../Drivers/STM32L0xx_HAL_Driver/Src/stm32l0xx_hal_adc.c ****   /* ========== Check analog watchdog 1 flag ========== */
1487:../../../../../../Drivers/STM32L0xx_HAL_Driver/Src/stm32l0xx_hal_adc.c ****   if(__HAL_ADC_GET_FLAG(hadc, ADC_FLAG_AWD) && __HAL_ADC_GET_IT_SOURCE(hadc, ADC_IT_AWD))
1488:../../../../../../Drivers/STM32L0xx_HAL_Driver/Src/stm32l0xx_hal_adc.c ****   {
1489:../../../../../../Drivers/STM32L0xx_HAL_Driver/Src/stm32l0xx_hal_adc.c ****     /* Set ADC state */
1490:../../../../../../Drivers/STM32L0xx_HAL_Driver/Src/stm32l0xx_hal_adc.c ****     SET_BIT(hadc->State, HAL_ADC_STATE_AWD1);
1491:../../../../../../Drivers/STM32L0xx_HAL_Driver/Src/stm32l0xx_hal_adc.c ****     
1492:../../../../../../Drivers/STM32L0xx_HAL_Driver/Src/stm32l0xx_hal_adc.c ****     /* Level out of window 1 callback */
1493:../../../../../../Drivers/STM32L0xx_HAL_Driver/Src/stm32l0xx_hal_adc.c ****     HAL_ADC_LevelOutOfWindowCallback(hadc);
1494:../../../../../../Drivers/STM32L0xx_HAL_Driver/Src/stm32l0xx_hal_adc.c ****     
1495:../../../../../../Drivers/STM32L0xx_HAL_Driver/Src/stm32l0xx_hal_adc.c ****     /* Clear ADC Analog watchdog flag */
1496:../../../../../../Drivers/STM32L0xx_HAL_Driver/Src/stm32l0xx_hal_adc.c ****     __HAL_ADC_CLEAR_FLAG(hadc, ADC_FLAG_AWD);
1497:../../../../../../Drivers/STM32L0xx_HAL_Driver/Src/stm32l0xx_hal_adc.c ****    
1498:../../../../../../Drivers/STM32L0xx_HAL_Driver/Src/stm32l0xx_hal_adc.c ****   }
1499:../../../../../../Drivers/STM32L0xx_HAL_Driver/Src/stm32l0xx_hal_adc.c ****   
1500:../../../../../../Drivers/STM32L0xx_HAL_Driver/Src/stm32l0xx_hal_adc.c ****   
1501:../../../../../../Drivers/STM32L0xx_HAL_Driver/Src/stm32l0xx_hal_adc.c ****   /* ========== Check Overrun flag ========== */
1502:../../../../../../Drivers/STM32L0xx_HAL_Driver/Src/stm32l0xx_hal_adc.c ****   if(__HAL_ADC_GET_FLAG(hadc, ADC_FLAG_OVR) && __HAL_ADC_GET_IT_SOURCE(hadc, ADC_IT_OVR))
1503:../../../../../../Drivers/STM32L0xx_HAL_Driver/Src/stm32l0xx_hal_adc.c ****   {
1504:../../../../../../Drivers/STM32L0xx_HAL_Driver/Src/stm32l0xx_hal_adc.c ****     /* If overrun is set to overwrite previous data (default setting),        */
1505:../../../../../../Drivers/STM32L0xx_HAL_Driver/Src/stm32l0xx_hal_adc.c ****     /* overrun event is not considered as an error.                           */
1506:../../../../../../Drivers/STM32L0xx_HAL_Driver/Src/stm32l0xx_hal_adc.c ****     /* (cf ref manual "Managing conversions without using the DMA and without */
1507:../../../../../../Drivers/STM32L0xx_HAL_Driver/Src/stm32l0xx_hal_adc.c ****     /* overrun ")                                                             */
1508:../../../../../../Drivers/STM32L0xx_HAL_Driver/Src/stm32l0xx_hal_adc.c ****     /* Exception for usage with DMA overrun event always considered as an     */
1509:../../../../../../Drivers/STM32L0xx_HAL_Driver/Src/stm32l0xx_hal_adc.c ****     /* error.                                                                 */
1510:../../../../../../Drivers/STM32L0xx_HAL_Driver/Src/stm32l0xx_hal_adc.c ****     if ((hadc->Init.Overrun == ADC_OVR_DATA_PRESERVED)            ||
1511:../../../../../../Drivers/STM32L0xx_HAL_Driver/Src/stm32l0xx_hal_adc.c ****         HAL_IS_BIT_SET(hadc->Instance->CFGR1, ADC_CFGR1_DMAEN)  )
1512:../../../../../../Drivers/STM32L0xx_HAL_Driver/Src/stm32l0xx_hal_adc.c ****     {
1513:../../../../../../Drivers/STM32L0xx_HAL_Driver/Src/stm32l0xx_hal_adc.c ****       /* Set ADC error code to overrun */
1514:../../../../../../Drivers/STM32L0xx_HAL_Driver/Src/stm32l0xx_hal_adc.c ****       SET_BIT(hadc->ErrorCode, HAL_ADC_ERROR_OVR);
1515:../../../../../../Drivers/STM32L0xx_HAL_Driver/Src/stm32l0xx_hal_adc.c ****       
1516:../../../../../../Drivers/STM32L0xx_HAL_Driver/Src/stm32l0xx_hal_adc.c ****       /* Clear ADC overrun flag */
1517:../../../../../../Drivers/STM32L0xx_HAL_Driver/Src/stm32l0xx_hal_adc.c ****       __HAL_ADC_CLEAR_FLAG(hadc, ADC_FLAG_OVR);
1518:../../../../../../Drivers/STM32L0xx_HAL_Driver/Src/stm32l0xx_hal_adc.c ****       
1519:../../../../../../Drivers/STM32L0xx_HAL_Driver/Src/stm32l0xx_hal_adc.c ****       /* Error callback */ 
1520:../../../../../../Drivers/STM32L0xx_HAL_Driver/Src/stm32l0xx_hal_adc.c ****       HAL_ADC_ErrorCallback(hadc);
ARM GAS  C:\Users\EBANO_~1\AppData\Local\Temp\cc7eeVhF.s 			page 37


1521:../../../../../../Drivers/STM32L0xx_HAL_Driver/Src/stm32l0xx_hal_adc.c ****     }
1522:../../../../../../Drivers/STM32L0xx_HAL_Driver/Src/stm32l0xx_hal_adc.c ****     
1523:../../../../../../Drivers/STM32L0xx_HAL_Driver/Src/stm32l0xx_hal_adc.c ****     /* Clear the Overrun flag */
1524:../../../../../../Drivers/STM32L0xx_HAL_Driver/Src/stm32l0xx_hal_adc.c ****     __HAL_ADC_CLEAR_FLAG(hadc, ADC_FLAG_OVR);
1525:../../../../../../Drivers/STM32L0xx_HAL_Driver/Src/stm32l0xx_hal_adc.c ****   }
1526:../../../../../../Drivers/STM32L0xx_HAL_Driver/Src/stm32l0xx_hal_adc.c ****   
1527:../../../../../../Drivers/STM32L0xx_HAL_Driver/Src/stm32l0xx_hal_adc.c **** }
1528:../../../../../../Drivers/STM32L0xx_HAL_Driver/Src/stm32l0xx_hal_adc.c **** 
1529:../../../../../../Drivers/STM32L0xx_HAL_Driver/Src/stm32l0xx_hal_adc.c **** /**
1530:../../../../../../Drivers/STM32L0xx_HAL_Driver/Src/stm32l0xx_hal_adc.c ****   * @brief  Conversion complete callback in non-blocking mode.
1531:../../../../../../Drivers/STM32L0xx_HAL_Driver/Src/stm32l0xx_hal_adc.c ****   * @param  hadc ADC handle
1532:../../../../../../Drivers/STM32L0xx_HAL_Driver/Src/stm32l0xx_hal_adc.c ****   * @retval None
1533:../../../../../../Drivers/STM32L0xx_HAL_Driver/Src/stm32l0xx_hal_adc.c ****   */
1534:../../../../../../Drivers/STM32L0xx_HAL_Driver/Src/stm32l0xx_hal_adc.c **** __weak void HAL_ADC_ConvCpltCallback(ADC_HandleTypeDef* hadc)
1535:../../../../../../Drivers/STM32L0xx_HAL_Driver/Src/stm32l0xx_hal_adc.c **** {
1536:../../../../../../Drivers/STM32L0xx_HAL_Driver/Src/stm32l0xx_hal_adc.c ****   /* Prevent unused argument(s) compilation warning */
1537:../../../../../../Drivers/STM32L0xx_HAL_Driver/Src/stm32l0xx_hal_adc.c ****   UNUSED(hadc);
1538:../../../../../../Drivers/STM32L0xx_HAL_Driver/Src/stm32l0xx_hal_adc.c **** 
1539:../../../../../../Drivers/STM32L0xx_HAL_Driver/Src/stm32l0xx_hal_adc.c ****   /* NOTE : This function should not be modified. When the callback is needed,
1540:../../../../../../Drivers/STM32L0xx_HAL_Driver/Src/stm32l0xx_hal_adc.c ****             function HAL_ADC_ConvCpltCallback must be implemented in the user file.
1541:../../../../../../Drivers/STM32L0xx_HAL_Driver/Src/stm32l0xx_hal_adc.c ****    */
1542:../../../../../../Drivers/STM32L0xx_HAL_Driver/Src/stm32l0xx_hal_adc.c **** }
1543:../../../../../../Drivers/STM32L0xx_HAL_Driver/Src/stm32l0xx_hal_adc.c **** 
1544:../../../../../../Drivers/STM32L0xx_HAL_Driver/Src/stm32l0xx_hal_adc.c **** /**
1545:../../../../../../Drivers/STM32L0xx_HAL_Driver/Src/stm32l0xx_hal_adc.c ****   * @brief  Conversion DMA half-transfer callback in non-blocking mode.
1546:../../../../../../Drivers/STM32L0xx_HAL_Driver/Src/stm32l0xx_hal_adc.c ****   * @param  hadc ADC handle
1547:../../../../../../Drivers/STM32L0xx_HAL_Driver/Src/stm32l0xx_hal_adc.c ****   * @retval None
1548:../../../../../../Drivers/STM32L0xx_HAL_Driver/Src/stm32l0xx_hal_adc.c ****   */
1549:../../../../../../Drivers/STM32L0xx_HAL_Driver/Src/stm32l0xx_hal_adc.c **** __weak void HAL_ADC_ConvHalfCpltCallback(ADC_HandleTypeDef* hadc)
1550:../../../../../../Drivers/STM32L0xx_HAL_Driver/Src/stm32l0xx_hal_adc.c **** {
1551:../../../../../../Drivers/STM32L0xx_HAL_Driver/Src/stm32l0xx_hal_adc.c ****   /* Prevent unused argument(s) compilation warning */
1552:../../../../../../Drivers/STM32L0xx_HAL_Driver/Src/stm32l0xx_hal_adc.c ****   UNUSED(hadc);
1553:../../../../../../Drivers/STM32L0xx_HAL_Driver/Src/stm32l0xx_hal_adc.c **** 
1554:../../../../../../Drivers/STM32L0xx_HAL_Driver/Src/stm32l0xx_hal_adc.c ****   /* NOTE : This function should not be modified. When the callback is needed,
1555:../../../../../../Drivers/STM32L0xx_HAL_Driver/Src/stm32l0xx_hal_adc.c ****             function HAL_ADC_ConvHalfCpltCallback must be implemented in the user file.
1556:../../../../../../Drivers/STM32L0xx_HAL_Driver/Src/stm32l0xx_hal_adc.c ****   */
1557:../../../../../../Drivers/STM32L0xx_HAL_Driver/Src/stm32l0xx_hal_adc.c **** }
1558:../../../../../../Drivers/STM32L0xx_HAL_Driver/Src/stm32l0xx_hal_adc.c **** 
1559:../../../../../../Drivers/STM32L0xx_HAL_Driver/Src/stm32l0xx_hal_adc.c **** /**
1560:../../../../../../Drivers/STM32L0xx_HAL_Driver/Src/stm32l0xx_hal_adc.c ****   * @brief  Analog watchdog 1 callback in non-blocking mode.
1561:../../../../../../Drivers/STM32L0xx_HAL_Driver/Src/stm32l0xx_hal_adc.c ****   * @param  hadc ADC handle
1562:../../../../../../Drivers/STM32L0xx_HAL_Driver/Src/stm32l0xx_hal_adc.c ****   * @retval None
1563:../../../../../../Drivers/STM32L0xx_HAL_Driver/Src/stm32l0xx_hal_adc.c ****   */
1564:../../../../../../Drivers/STM32L0xx_HAL_Driver/Src/stm32l0xx_hal_adc.c **** __weak void HAL_ADC_LevelOutOfWindowCallback(ADC_HandleTypeDef* hadc)
1565:../../../../../../Drivers/STM32L0xx_HAL_Driver/Src/stm32l0xx_hal_adc.c **** {
1566:../../../../../../Drivers/STM32L0xx_HAL_Driver/Src/stm32l0xx_hal_adc.c ****   /* Prevent unused argument(s) compilation warning */
1567:../../../../../../Drivers/STM32L0xx_HAL_Driver/Src/stm32l0xx_hal_adc.c ****   UNUSED(hadc);
1568:../../../../../../Drivers/STM32L0xx_HAL_Driver/Src/stm32l0xx_hal_adc.c **** 
1569:../../../../../../Drivers/STM32L0xx_HAL_Driver/Src/stm32l0xx_hal_adc.c ****   /* NOTE : This function should not be modified. When the callback is needed,
1570:../../../../../../Drivers/STM32L0xx_HAL_Driver/Src/stm32l0xx_hal_adc.c ****             function HAL_ADC_LevelOutOfWindowCallback must be implemented in the user file.
1571:../../../../../../Drivers/STM32L0xx_HAL_Driver/Src/stm32l0xx_hal_adc.c ****   */
1572:../../../../../../Drivers/STM32L0xx_HAL_Driver/Src/stm32l0xx_hal_adc.c **** }
1573:../../../../../../Drivers/STM32L0xx_HAL_Driver/Src/stm32l0xx_hal_adc.c **** 
1574:../../../../../../Drivers/STM32L0xx_HAL_Driver/Src/stm32l0xx_hal_adc.c **** /**
1575:../../../../../../Drivers/STM32L0xx_HAL_Driver/Src/stm32l0xx_hal_adc.c ****   * @brief  ADC error callback in non-blocking mode
1576:../../../../../../Drivers/STM32L0xx_HAL_Driver/Src/stm32l0xx_hal_adc.c ****   *         (ADC conversion with interruption or transfer by DMA).
1577:../../../../../../Drivers/STM32L0xx_HAL_Driver/Src/stm32l0xx_hal_adc.c ****   * @note   In case of error due to overrun when using ADC with DMA transfer 
ARM GAS  C:\Users\EBANO_~1\AppData\Local\Temp\cc7eeVhF.s 			page 38


1578:../../../../../../Drivers/STM32L0xx_HAL_Driver/Src/stm32l0xx_hal_adc.c ****   *         (HAL ADC handle paramater "ErrorCode" to state "HAL_ADC_ERROR_OVR"):
1579:../../../../../../Drivers/STM32L0xx_HAL_Driver/Src/stm32l0xx_hal_adc.c ****   *         - Reinitialize the DMA using function "HAL_ADC_Stop_DMA()".
1580:../../../../../../Drivers/STM32L0xx_HAL_Driver/Src/stm32l0xx_hal_adc.c ****   *         - If needed, restart a new ADC conversion using function
1581:../../../../../../Drivers/STM32L0xx_HAL_Driver/Src/stm32l0xx_hal_adc.c ****   *           "HAL_ADC_Start_DMA()"
1582:../../../../../../Drivers/STM32L0xx_HAL_Driver/Src/stm32l0xx_hal_adc.c ****   *           (this function is also clearing overrun flag)
1583:../../../../../../Drivers/STM32L0xx_HAL_Driver/Src/stm32l0xx_hal_adc.c ****   * @param  hadc ADC handle
1584:../../../../../../Drivers/STM32L0xx_HAL_Driver/Src/stm32l0xx_hal_adc.c ****   * @retval None
1585:../../../../../../Drivers/STM32L0xx_HAL_Driver/Src/stm32l0xx_hal_adc.c ****   */
1586:../../../../../../Drivers/STM32L0xx_HAL_Driver/Src/stm32l0xx_hal_adc.c **** __weak void HAL_ADC_ErrorCallback(ADC_HandleTypeDef *hadc)
1587:../../../../../../Drivers/STM32L0xx_HAL_Driver/Src/stm32l0xx_hal_adc.c **** {
1588:../../../../../../Drivers/STM32L0xx_HAL_Driver/Src/stm32l0xx_hal_adc.c ****   /* Prevent unused argument(s) compilation warning */
1589:../../../../../../Drivers/STM32L0xx_HAL_Driver/Src/stm32l0xx_hal_adc.c ****   UNUSED(hadc);
1590:../../../../../../Drivers/STM32L0xx_HAL_Driver/Src/stm32l0xx_hal_adc.c **** 
1591:../../../../../../Drivers/STM32L0xx_HAL_Driver/Src/stm32l0xx_hal_adc.c ****   /* NOTE : This function should not be modified. When the callback is needed,
1592:../../../../../../Drivers/STM32L0xx_HAL_Driver/Src/stm32l0xx_hal_adc.c ****             function HAL_ADC_ErrorCallback must be implemented in the user file.
1593:../../../../../../Drivers/STM32L0xx_HAL_Driver/Src/stm32l0xx_hal_adc.c ****   */
1594:../../../../../../Drivers/STM32L0xx_HAL_Driver/Src/stm32l0xx_hal_adc.c **** }
1595:../../../../../../Drivers/STM32L0xx_HAL_Driver/Src/stm32l0xx_hal_adc.c **** 
1596:../../../../../../Drivers/STM32L0xx_HAL_Driver/Src/stm32l0xx_hal_adc.c **** /**
1597:../../../../../../Drivers/STM32L0xx_HAL_Driver/Src/stm32l0xx_hal_adc.c ****   * @}
1598:../../../../../../Drivers/STM32L0xx_HAL_Driver/Src/stm32l0xx_hal_adc.c ****   */
1599:../../../../../../Drivers/STM32L0xx_HAL_Driver/Src/stm32l0xx_hal_adc.c **** 
1600:../../../../../../Drivers/STM32L0xx_HAL_Driver/Src/stm32l0xx_hal_adc.c **** /** @defgroup ADC_Exported_Functions_Group3 Peripheral Control functions
1601:../../../../../../Drivers/STM32L0xx_HAL_Driver/Src/stm32l0xx_hal_adc.c ****  *  @brief    Peripheral Control functions 
1602:../../../../../../Drivers/STM32L0xx_HAL_Driver/Src/stm32l0xx_hal_adc.c ****  *
1603:../../../../../../Drivers/STM32L0xx_HAL_Driver/Src/stm32l0xx_hal_adc.c **** @verbatim   
1604:../../../../../../Drivers/STM32L0xx_HAL_Driver/Src/stm32l0xx_hal_adc.c ****  ===============================================================================
1605:../../../../../../Drivers/STM32L0xx_HAL_Driver/Src/stm32l0xx_hal_adc.c ****              ##### Peripheral Control functions #####
1606:../../../../../../Drivers/STM32L0xx_HAL_Driver/Src/stm32l0xx_hal_adc.c ****  ===============================================================================  
1607:../../../../../../Drivers/STM32L0xx_HAL_Driver/Src/stm32l0xx_hal_adc.c ****     [..]  This section provides functions allowing to:
1608:../../../../../../Drivers/STM32L0xx_HAL_Driver/Src/stm32l0xx_hal_adc.c ****       (+) Configure channels on regular group
1609:../../../../../../Drivers/STM32L0xx_HAL_Driver/Src/stm32l0xx_hal_adc.c ****       (+) Configure the analog watchdog
1610:../../../../../../Drivers/STM32L0xx_HAL_Driver/Src/stm32l0xx_hal_adc.c ****       
1611:../../../../../../Drivers/STM32L0xx_HAL_Driver/Src/stm32l0xx_hal_adc.c **** @endverbatim
1612:../../../../../../Drivers/STM32L0xx_HAL_Driver/Src/stm32l0xx_hal_adc.c ****   * @{
1613:../../../../../../Drivers/STM32L0xx_HAL_Driver/Src/stm32l0xx_hal_adc.c ****   */
1614:../../../../../../Drivers/STM32L0xx_HAL_Driver/Src/stm32l0xx_hal_adc.c **** 
1615:../../../../../../Drivers/STM32L0xx_HAL_Driver/Src/stm32l0xx_hal_adc.c **** /**
1616:../../../../../../Drivers/STM32L0xx_HAL_Driver/Src/stm32l0xx_hal_adc.c ****   * @brief  Configure a channel to be assigned to ADC group regular.
1617:../../../../../../Drivers/STM32L0xx_HAL_Driver/Src/stm32l0xx_hal_adc.c ****   * @note   In case of usage of internal measurement channels:
1618:../../../../../../Drivers/STM32L0xx_HAL_Driver/Src/stm32l0xx_hal_adc.c ****   *         VrefInt/Vlcd(STM32L0x3xx only)/TempSensor.
1619:../../../../../../Drivers/STM32L0xx_HAL_Driver/Src/stm32l0xx_hal_adc.c ****   *         Sampling time constraints must be respected (sampling time can be 
1620:../../../../../../Drivers/STM32L0xx_HAL_Driver/Src/stm32l0xx_hal_adc.c ****   *         adjusted in function of ADC clock frequency and sampling time 
1621:../../../../../../Drivers/STM32L0xx_HAL_Driver/Src/stm32l0xx_hal_adc.c ****   *         setting).
1622:../../../../../../Drivers/STM32L0xx_HAL_Driver/Src/stm32l0xx_hal_adc.c ****   *         Refer to device datasheet for timings values, parameters TS_vrefint,
1623:../../../../../../Drivers/STM32L0xx_HAL_Driver/Src/stm32l0xx_hal_adc.c ****   *         TS_vlcd (STM32L0x3xx only), TS_temp (values rough order: 5us to 17us).
1624:../../../../../../Drivers/STM32L0xx_HAL_Driver/Src/stm32l0xx_hal_adc.c ****   *         These internal paths can be be disabled using function 
1625:../../../../../../Drivers/STM32L0xx_HAL_Driver/Src/stm32l0xx_hal_adc.c ****   *         HAL_ADC_DeInit().
1626:../../../../../../Drivers/STM32L0xx_HAL_Driver/Src/stm32l0xx_hal_adc.c ****   * @note   Possibility to update parameters on the fly:
1627:../../../../../../Drivers/STM32L0xx_HAL_Driver/Src/stm32l0xx_hal_adc.c ****   *         This function initializes channel into ADC group regular,
1628:../../../../../../Drivers/STM32L0xx_HAL_Driver/Src/stm32l0xx_hal_adc.c ****   *         following calls to this function can be used to reconfigure
1629:../../../../../../Drivers/STM32L0xx_HAL_Driver/Src/stm32l0xx_hal_adc.c ****   *         some parameters of structure "ADC_ChannelConfTypeDef" on the fly,
1630:../../../../../../Drivers/STM32L0xx_HAL_Driver/Src/stm32l0xx_hal_adc.c ****   *         without resetting the ADC.
1631:../../../../../../Drivers/STM32L0xx_HAL_Driver/Src/stm32l0xx_hal_adc.c ****   *         The setting of these parameters is conditioned to ADC state:
1632:../../../../../../Drivers/STM32L0xx_HAL_Driver/Src/stm32l0xx_hal_adc.c ****   *         Refer to comments of structure "ADC_ChannelConfTypeDef".
1633:../../../../../../Drivers/STM32L0xx_HAL_Driver/Src/stm32l0xx_hal_adc.c ****   * @param  hadc ADC handle
1634:../../../../../../Drivers/STM32L0xx_HAL_Driver/Src/stm32l0xx_hal_adc.c ****   * @param  sConfig Structure of ADC channel assigned to ADC group regular.
ARM GAS  C:\Users\EBANO_~1\AppData\Local\Temp\cc7eeVhF.s 			page 39


1635:../../../../../../Drivers/STM32L0xx_HAL_Driver/Src/stm32l0xx_hal_adc.c ****   * @retval HAL status
1636:../../../../../../Drivers/STM32L0xx_HAL_Driver/Src/stm32l0xx_hal_adc.c ****   */
1637:../../../../../../Drivers/STM32L0xx_HAL_Driver/Src/stm32l0xx_hal_adc.c **** HAL_StatusTypeDef HAL_ADC_ConfigChannel(ADC_HandleTypeDef* hadc, ADC_ChannelConfTypeDef* sConfig)
1638:../../../../../../Drivers/STM32L0xx_HAL_Driver/Src/stm32l0xx_hal_adc.c **** {
1639:../../../../../../Drivers/STM32L0xx_HAL_Driver/Src/stm32l0xx_hal_adc.c ****   /* Check the parameters */
1640:../../../../../../Drivers/STM32L0xx_HAL_Driver/Src/stm32l0xx_hal_adc.c ****   assert_param(IS_ADC_ALL_INSTANCE(hadc->Instance));
1641:../../../../../../Drivers/STM32L0xx_HAL_Driver/Src/stm32l0xx_hal_adc.c ****   assert_param(IS_ADC_CHANNEL(sConfig->Channel));
1642:../../../../../../Drivers/STM32L0xx_HAL_Driver/Src/stm32l0xx_hal_adc.c ****   assert_param(IS_ADC_RANK(sConfig->Rank));
1643:../../../../../../Drivers/STM32L0xx_HAL_Driver/Src/stm32l0xx_hal_adc.c ****   
1644:../../../../../../Drivers/STM32L0xx_HAL_Driver/Src/stm32l0xx_hal_adc.c ****   /* Process locked */
1645:../../../../../../Drivers/STM32L0xx_HAL_Driver/Src/stm32l0xx_hal_adc.c ****   __HAL_LOCK(hadc);
1646:../../../../../../Drivers/STM32L0xx_HAL_Driver/Src/stm32l0xx_hal_adc.c ****   
1647:../../../../../../Drivers/STM32L0xx_HAL_Driver/Src/stm32l0xx_hal_adc.c ****   /* Parameters update conditioned to ADC state:                              */
1648:../../../../../../Drivers/STM32L0xx_HAL_Driver/Src/stm32l0xx_hal_adc.c ****   /* Parameters that can be updated when ADC is disabled or enabled without   */
1649:../../../../../../Drivers/STM32L0xx_HAL_Driver/Src/stm32l0xx_hal_adc.c ****   /* conversion on going on regular group:                                    */
1650:../../../../../../Drivers/STM32L0xx_HAL_Driver/Src/stm32l0xx_hal_adc.c ****   /*  - Channel number                                                        */
1651:../../../../../../Drivers/STM32L0xx_HAL_Driver/Src/stm32l0xx_hal_adc.c ****   /*  - Management of internal measurement channels: Vbat/VrefInt/TempSensor  */
1652:../../../../../../Drivers/STM32L0xx_HAL_Driver/Src/stm32l0xx_hal_adc.c ****   if (ADC_IS_CONVERSION_ONGOING_REGULAR(hadc) != RESET)
1653:../../../../../../Drivers/STM32L0xx_HAL_Driver/Src/stm32l0xx_hal_adc.c ****   {
1654:../../../../../../Drivers/STM32L0xx_HAL_Driver/Src/stm32l0xx_hal_adc.c ****     /* Update ADC state machine to error */
1655:../../../../../../Drivers/STM32L0xx_HAL_Driver/Src/stm32l0xx_hal_adc.c ****     SET_BIT(hadc->State, HAL_ADC_STATE_ERROR_CONFIG);
1656:../../../../../../Drivers/STM32L0xx_HAL_Driver/Src/stm32l0xx_hal_adc.c ****     /* Process unlocked */
1657:../../../../../../Drivers/STM32L0xx_HAL_Driver/Src/stm32l0xx_hal_adc.c ****     __HAL_UNLOCK(hadc);
1658:../../../../../../Drivers/STM32L0xx_HAL_Driver/Src/stm32l0xx_hal_adc.c ****     return HAL_ERROR;
1659:../../../../../../Drivers/STM32L0xx_HAL_Driver/Src/stm32l0xx_hal_adc.c ****   }
1660:../../../../../../Drivers/STM32L0xx_HAL_Driver/Src/stm32l0xx_hal_adc.c ****   
1661:../../../../../../Drivers/STM32L0xx_HAL_Driver/Src/stm32l0xx_hal_adc.c ****   if (sConfig->Rank != ADC_RANK_NONE)
1662:../../../../../../Drivers/STM32L0xx_HAL_Driver/Src/stm32l0xx_hal_adc.c ****   {
1663:../../../../../../Drivers/STM32L0xx_HAL_Driver/Src/stm32l0xx_hal_adc.c ****     /* Enable selected channels */
1664:../../../../../../Drivers/STM32L0xx_HAL_Driver/Src/stm32l0xx_hal_adc.c ****     hadc->Instance->CHSELR |= (uint32_t)(sConfig->Channel & ADC_CHANNEL_MASK);
1665:../../../../../../Drivers/STM32L0xx_HAL_Driver/Src/stm32l0xx_hal_adc.c ****     
1666:../../../../../../Drivers/STM32L0xx_HAL_Driver/Src/stm32l0xx_hal_adc.c ****     /* Management of internal measurement channels: Vlcd (STM32L0x3xx only)/VrefInt/TempSensor */
1667:../../../../../../Drivers/STM32L0xx_HAL_Driver/Src/stm32l0xx_hal_adc.c ****     /* internal measurement paths enable: If internal channel selected, enable  */
1668:../../../../../../Drivers/STM32L0xx_HAL_Driver/Src/stm32l0xx_hal_adc.c ****     /* dedicated internal buffers and path.                                     */
1669:../../../../../../Drivers/STM32L0xx_HAL_Driver/Src/stm32l0xx_hal_adc.c ****     
1670:../../../../../../Drivers/STM32L0xx_HAL_Driver/Src/stm32l0xx_hal_adc.c ****     #if defined(ADC_CCR_TSEN)
1671:../../../../../../Drivers/STM32L0xx_HAL_Driver/Src/stm32l0xx_hal_adc.c ****     /* If Temperature sensor channel is selected, then enable the internal      */
1672:../../../../../../Drivers/STM32L0xx_HAL_Driver/Src/stm32l0xx_hal_adc.c ****     /* buffers and path  */
1673:../../../../../../Drivers/STM32L0xx_HAL_Driver/Src/stm32l0xx_hal_adc.c ****     if (((sConfig->Channel & ADC_CHANNEL_MASK) & ADC_CHANNEL_TEMPSENSOR ) == (ADC_CHANNEL_TEMPSENSO
1674:../../../../../../Drivers/STM32L0xx_HAL_Driver/Src/stm32l0xx_hal_adc.c ****     {
1675:../../../../../../Drivers/STM32L0xx_HAL_Driver/Src/stm32l0xx_hal_adc.c ****       ADC->CCR |= ADC_CCR_TSEN;   
1676:../../../../../../Drivers/STM32L0xx_HAL_Driver/Src/stm32l0xx_hal_adc.c ****       
1677:../../../../../../Drivers/STM32L0xx_HAL_Driver/Src/stm32l0xx_hal_adc.c ****       /* Delay for temperature sensor stabilization time */
1678:../../../../../../Drivers/STM32L0xx_HAL_Driver/Src/stm32l0xx_hal_adc.c ****       ADC_DelayMicroSecond(ADC_TEMPSENSOR_DELAY_US);
1679:../../../../../../Drivers/STM32L0xx_HAL_Driver/Src/stm32l0xx_hal_adc.c ****     }
1680:../../../../../../Drivers/STM32L0xx_HAL_Driver/Src/stm32l0xx_hal_adc.c ****     #endif
1681:../../../../../../Drivers/STM32L0xx_HAL_Driver/Src/stm32l0xx_hal_adc.c ****     
1682:../../../../../../Drivers/STM32L0xx_HAL_Driver/Src/stm32l0xx_hal_adc.c ****     /* If VRefInt channel is selected, then enable the internal buffers and path   */
1683:../../../../../../Drivers/STM32L0xx_HAL_Driver/Src/stm32l0xx_hal_adc.c ****     if (((sConfig->Channel & ADC_CHANNEL_MASK) & ADC_CHANNEL_VREFINT) == (ADC_CHANNEL_VREFINT & ADC
1684:../../../../../../Drivers/STM32L0xx_HAL_Driver/Src/stm32l0xx_hal_adc.c ****     {
1685:../../../../../../Drivers/STM32L0xx_HAL_Driver/Src/stm32l0xx_hal_adc.c ****       ADC->CCR |= ADC_CCR_VREFEN;   
1686:../../../../../../Drivers/STM32L0xx_HAL_Driver/Src/stm32l0xx_hal_adc.c ****     }
1687:../../../../../../Drivers/STM32L0xx_HAL_Driver/Src/stm32l0xx_hal_adc.c ****     
1688:../../../../../../Drivers/STM32L0xx_HAL_Driver/Src/stm32l0xx_hal_adc.c **** #if defined (STM32L053xx) || defined (STM32L063xx) || defined (STM32L073xx) || defined (STM32L083xx
1689:../../../../../../Drivers/STM32L0xx_HAL_Driver/Src/stm32l0xx_hal_adc.c ****     /* If Vlcd channel is selected, then enable the internal buffers and path   */
1690:../../../../../../Drivers/STM32L0xx_HAL_Driver/Src/stm32l0xx_hal_adc.c ****     if (((sConfig->Channel & ADC_CHANNEL_MASK) & ADC_CHANNEL_VLCD) == (ADC_CHANNEL_VLCD & ADC_CHANN
1691:../../../../../../Drivers/STM32L0xx_HAL_Driver/Src/stm32l0xx_hal_adc.c ****     {
ARM GAS  C:\Users\EBANO_~1\AppData\Local\Temp\cc7eeVhF.s 			page 40


1692:../../../../../../Drivers/STM32L0xx_HAL_Driver/Src/stm32l0xx_hal_adc.c ****       ADC->CCR |= ADC_CCR_VLCDEN;   
1693:../../../../../../Drivers/STM32L0xx_HAL_Driver/Src/stm32l0xx_hal_adc.c ****     }
1694:../../../../../../Drivers/STM32L0xx_HAL_Driver/Src/stm32l0xx_hal_adc.c **** #endif
1695:../../../../../../Drivers/STM32L0xx_HAL_Driver/Src/stm32l0xx_hal_adc.c ****   }
1696:../../../../../../Drivers/STM32L0xx_HAL_Driver/Src/stm32l0xx_hal_adc.c ****   else
1697:../../../../../../Drivers/STM32L0xx_HAL_Driver/Src/stm32l0xx_hal_adc.c ****   {
1698:../../../../../../Drivers/STM32L0xx_HAL_Driver/Src/stm32l0xx_hal_adc.c ****     /* Regular sequence configuration */
1699:../../../../../../Drivers/STM32L0xx_HAL_Driver/Src/stm32l0xx_hal_adc.c ****     /* Reset the channel selection register from the selected channel */
1700:../../../../../../Drivers/STM32L0xx_HAL_Driver/Src/stm32l0xx_hal_adc.c ****     hadc->Instance->CHSELR &= ~((uint32_t)(sConfig->Channel & ADC_CHANNEL_MASK));
1701:../../../../../../Drivers/STM32L0xx_HAL_Driver/Src/stm32l0xx_hal_adc.c ****     
1702:../../../../../../Drivers/STM32L0xx_HAL_Driver/Src/stm32l0xx_hal_adc.c ****     /* Management of internal measurement channels: VrefInt/TempSensor/Vbat */
1703:../../../../../../Drivers/STM32L0xx_HAL_Driver/Src/stm32l0xx_hal_adc.c ****     /* internal measurement paths disable: If internal channel selected,    */
1704:../../../../../../Drivers/STM32L0xx_HAL_Driver/Src/stm32l0xx_hal_adc.c ****     /* disable dedicated internal buffers and path.                         */
1705:../../../../../../Drivers/STM32L0xx_HAL_Driver/Src/stm32l0xx_hal_adc.c ****     #if defined(ADC_CCR_TSEN)
1706:../../../../../../Drivers/STM32L0xx_HAL_Driver/Src/stm32l0xx_hal_adc.c ****     if (((sConfig->Channel & ADC_CHANNEL_MASK) & ADC_CHANNEL_TEMPSENSOR ) == (ADC_CHANNEL_TEMPSENSO
1707:../../../../../../Drivers/STM32L0xx_HAL_Driver/Src/stm32l0xx_hal_adc.c ****     {
1708:../../../../../../Drivers/STM32L0xx_HAL_Driver/Src/stm32l0xx_hal_adc.c ****       ADC->CCR &= ~ADC_CCR_TSEN;   
1709:../../../../../../Drivers/STM32L0xx_HAL_Driver/Src/stm32l0xx_hal_adc.c ****     }
1710:../../../../../../Drivers/STM32L0xx_HAL_Driver/Src/stm32l0xx_hal_adc.c ****     #endif
1711:../../../../../../Drivers/STM32L0xx_HAL_Driver/Src/stm32l0xx_hal_adc.c ****     
1712:../../../../../../Drivers/STM32L0xx_HAL_Driver/Src/stm32l0xx_hal_adc.c ****     /* If VRefInt channel is selected, then enable the internal buffers and path   */
1713:../../../../../../Drivers/STM32L0xx_HAL_Driver/Src/stm32l0xx_hal_adc.c ****     if (((sConfig->Channel & ADC_CHANNEL_MASK) & ADC_CHANNEL_VREFINT) == (ADC_CHANNEL_VREFINT & ADC
1714:../../../../../../Drivers/STM32L0xx_HAL_Driver/Src/stm32l0xx_hal_adc.c ****     {
1715:../../../../../../Drivers/STM32L0xx_HAL_Driver/Src/stm32l0xx_hal_adc.c ****       ADC->CCR &= ~ADC_CCR_VREFEN;   
1716:../../../../../../Drivers/STM32L0xx_HAL_Driver/Src/stm32l0xx_hal_adc.c ****     }
1717:../../../../../../Drivers/STM32L0xx_HAL_Driver/Src/stm32l0xx_hal_adc.c ****     
1718:../../../../../../Drivers/STM32L0xx_HAL_Driver/Src/stm32l0xx_hal_adc.c **** #if defined (STM32L053xx) || defined (STM32L063xx) || defined (STM32L073xx) || defined (STM32L083xx
1719:../../../../../../Drivers/STM32L0xx_HAL_Driver/Src/stm32l0xx_hal_adc.c ****     /* If Vlcd channel is selected, then enable the internal buffers and path   */
1720:../../../../../../Drivers/STM32L0xx_HAL_Driver/Src/stm32l0xx_hal_adc.c ****     if (((sConfig->Channel & ADC_CHANNEL_MASK) & ADC_CHANNEL_VLCD) == (ADC_CHANNEL_VLCD & ADC_CHANN
1721:../../../../../../Drivers/STM32L0xx_HAL_Driver/Src/stm32l0xx_hal_adc.c ****     {
1722:../../../../../../Drivers/STM32L0xx_HAL_Driver/Src/stm32l0xx_hal_adc.c ****       ADC->CCR &= ~ADC_CCR_VLCDEN;   
1723:../../../../../../Drivers/STM32L0xx_HAL_Driver/Src/stm32l0xx_hal_adc.c ****     }
1724:../../../../../../Drivers/STM32L0xx_HAL_Driver/Src/stm32l0xx_hal_adc.c **** #endif
1725:../../../../../../Drivers/STM32L0xx_HAL_Driver/Src/stm32l0xx_hal_adc.c ****   }
1726:../../../../../../Drivers/STM32L0xx_HAL_Driver/Src/stm32l0xx_hal_adc.c ****   
1727:../../../../../../Drivers/STM32L0xx_HAL_Driver/Src/stm32l0xx_hal_adc.c ****   /* Process unlocked */
1728:../../../../../../Drivers/STM32L0xx_HAL_Driver/Src/stm32l0xx_hal_adc.c ****   __HAL_UNLOCK(hadc);
1729:../../../../../../Drivers/STM32L0xx_HAL_Driver/Src/stm32l0xx_hal_adc.c ****   
1730:../../../../../../Drivers/STM32L0xx_HAL_Driver/Src/stm32l0xx_hal_adc.c ****   /* Return function status */
1731:../../../../../../Drivers/STM32L0xx_HAL_Driver/Src/stm32l0xx_hal_adc.c ****   return HAL_OK;
1732:../../../../../../Drivers/STM32L0xx_HAL_Driver/Src/stm32l0xx_hal_adc.c **** }
1733:../../../../../../Drivers/STM32L0xx_HAL_Driver/Src/stm32l0xx_hal_adc.c **** 
1734:../../../../../../Drivers/STM32L0xx_HAL_Driver/Src/stm32l0xx_hal_adc.c **** /**
1735:../../../../../../Drivers/STM32L0xx_HAL_Driver/Src/stm32l0xx_hal_adc.c ****   * @brief  Configure the analog watchdog.
1736:../../../../../../Drivers/STM32L0xx_HAL_Driver/Src/stm32l0xx_hal_adc.c ****   * @note   Possibility to update parameters on the fly:
1737:../../../../../../Drivers/STM32L0xx_HAL_Driver/Src/stm32l0xx_hal_adc.c ****   *         This function initializes the selected analog watchdog, successive  
1738:../../../../../../Drivers/STM32L0xx_HAL_Driver/Src/stm32l0xx_hal_adc.c ****   *         calls to this function can be used to reconfigure some parameters 
1739:../../../../../../Drivers/STM32L0xx_HAL_Driver/Src/stm32l0xx_hal_adc.c ****   *         of structure "ADC_AnalogWDGConfTypeDef" on the fly, without resetting 
1740:../../../../../../Drivers/STM32L0xx_HAL_Driver/Src/stm32l0xx_hal_adc.c ****   *         the ADC.
1741:../../../../../../Drivers/STM32L0xx_HAL_Driver/Src/stm32l0xx_hal_adc.c ****   *         The setting of these parameters is conditioned to ADC state.
1742:../../../../../../Drivers/STM32L0xx_HAL_Driver/Src/stm32l0xx_hal_adc.c ****   *         For parameters constraints, see comments of structure 
1743:../../../../../../Drivers/STM32L0xx_HAL_Driver/Src/stm32l0xx_hal_adc.c ****   *         "ADC_AnalogWDGConfTypeDef".
1744:../../../../../../Drivers/STM32L0xx_HAL_Driver/Src/stm32l0xx_hal_adc.c ****   * @note   Analog watchdog thresholds can be modified while ADC conversion
1745:../../../../../../Drivers/STM32L0xx_HAL_Driver/Src/stm32l0xx_hal_adc.c ****   *         is on going.
1746:../../../../../../Drivers/STM32L0xx_HAL_Driver/Src/stm32l0xx_hal_adc.c ****   *         In this case, some constraints must be taken into account:
1747:../../../../../../Drivers/STM32L0xx_HAL_Driver/Src/stm32l0xx_hal_adc.c ****   *         the programmed threshold values are effective from the next
1748:../../../../../../Drivers/STM32L0xx_HAL_Driver/Src/stm32l0xx_hal_adc.c ****   *         ADC EOC (end of unitary conversion).
ARM GAS  C:\Users\EBANO_~1\AppData\Local\Temp\cc7eeVhF.s 			page 41


1749:../../../../../../Drivers/STM32L0xx_HAL_Driver/Src/stm32l0xx_hal_adc.c ****   *         Considering that registers write delay may happen due to
1750:../../../../../../Drivers/STM32L0xx_HAL_Driver/Src/stm32l0xx_hal_adc.c ****   *         bus activity, this might cause an uncertainty on the
1751:../../../../../../Drivers/STM32L0xx_HAL_Driver/Src/stm32l0xx_hal_adc.c ****   *         effective timing of the new programmed threshold values.
1752:../../../../../../Drivers/STM32L0xx_HAL_Driver/Src/stm32l0xx_hal_adc.c ****   * @param  hadc ADC handle
1753:../../../../../../Drivers/STM32L0xx_HAL_Driver/Src/stm32l0xx_hal_adc.c ****   * @param  AnalogWDGConfig Structure of ADC analog watchdog configuration
1754:../../../../../../Drivers/STM32L0xx_HAL_Driver/Src/stm32l0xx_hal_adc.c ****   * @retval HAL status
1755:../../../../../../Drivers/STM32L0xx_HAL_Driver/Src/stm32l0xx_hal_adc.c ****   */
1756:../../../../../../Drivers/STM32L0xx_HAL_Driver/Src/stm32l0xx_hal_adc.c **** HAL_StatusTypeDef HAL_ADC_AnalogWDGConfig(ADC_HandleTypeDef* hadc, ADC_AnalogWDGConfTypeDef* Analog
1757:../../../../../../Drivers/STM32L0xx_HAL_Driver/Src/stm32l0xx_hal_adc.c **** {
1758:../../../../../../Drivers/STM32L0xx_HAL_Driver/Src/stm32l0xx_hal_adc.c ****   HAL_StatusTypeDef tmp_hal_status = HAL_OK;
1759:../../../../../../Drivers/STM32L0xx_HAL_Driver/Src/stm32l0xx_hal_adc.c ****   
1760:../../../../../../Drivers/STM32L0xx_HAL_Driver/Src/stm32l0xx_hal_adc.c ****   uint32_t tmpAWDHighThresholdShifted;
1761:../../../../../../Drivers/STM32L0xx_HAL_Driver/Src/stm32l0xx_hal_adc.c ****   uint32_t tmpAWDLowThresholdShifted;
1762:../../../../../../Drivers/STM32L0xx_HAL_Driver/Src/stm32l0xx_hal_adc.c ****   
1763:../../../../../../Drivers/STM32L0xx_HAL_Driver/Src/stm32l0xx_hal_adc.c ****   /* Check the parameters */
1764:../../../../../../Drivers/STM32L0xx_HAL_Driver/Src/stm32l0xx_hal_adc.c ****   assert_param(IS_ADC_ALL_INSTANCE(hadc->Instance));
1765:../../../../../../Drivers/STM32L0xx_HAL_Driver/Src/stm32l0xx_hal_adc.c ****   assert_param(IS_ADC_ANALOG_WATCHDOG_MODE(AnalogWDGConfig->WatchdogMode));
1766:../../../../../../Drivers/STM32L0xx_HAL_Driver/Src/stm32l0xx_hal_adc.c ****   assert_param(IS_FUNCTIONAL_STATE(AnalogWDGConfig->ITMode));
1767:../../../../../../Drivers/STM32L0xx_HAL_Driver/Src/stm32l0xx_hal_adc.c ****   
1768:../../../../../../Drivers/STM32L0xx_HAL_Driver/Src/stm32l0xx_hal_adc.c ****   if(AnalogWDGConfig->WatchdogMode == ADC_ANALOGWATCHDOG_SINGLE_REG)
1769:../../../../../../Drivers/STM32L0xx_HAL_Driver/Src/stm32l0xx_hal_adc.c ****   {
1770:../../../../../../Drivers/STM32L0xx_HAL_Driver/Src/stm32l0xx_hal_adc.c ****     assert_param(IS_ADC_CHANNEL(AnalogWDGConfig->Channel));
1771:../../../../../../Drivers/STM32L0xx_HAL_Driver/Src/stm32l0xx_hal_adc.c ****   }
1772:../../../../../../Drivers/STM32L0xx_HAL_Driver/Src/stm32l0xx_hal_adc.c **** 
1773:../../../../../../Drivers/STM32L0xx_HAL_Driver/Src/stm32l0xx_hal_adc.c ****   /* Verify if threshold is within the selected ADC resolution */
1774:../../../../../../Drivers/STM32L0xx_HAL_Driver/Src/stm32l0xx_hal_adc.c ****   assert_param(IS_ADC_RANGE(ADC_GET_RESOLUTION(hadc), AnalogWDGConfig->HighThreshold));
1775:../../../../../../Drivers/STM32L0xx_HAL_Driver/Src/stm32l0xx_hal_adc.c ****   assert_param(IS_ADC_RANGE(ADC_GET_RESOLUTION(hadc), AnalogWDGConfig->LowThreshold));
1776:../../../../../../Drivers/STM32L0xx_HAL_Driver/Src/stm32l0xx_hal_adc.c **** 
1777:../../../../../../Drivers/STM32L0xx_HAL_Driver/Src/stm32l0xx_hal_adc.c ****   /* Process locked */
1778:../../../../../../Drivers/STM32L0xx_HAL_Driver/Src/stm32l0xx_hal_adc.c ****   __HAL_LOCK(hadc);
1779:../../../../../../Drivers/STM32L0xx_HAL_Driver/Src/stm32l0xx_hal_adc.c ****   
1780:../../../../../../Drivers/STM32L0xx_HAL_Driver/Src/stm32l0xx_hal_adc.c ****   /* Parameters update conditioned to ADC state:                              */
1781:../../../../../../Drivers/STM32L0xx_HAL_Driver/Src/stm32l0xx_hal_adc.c ****   /* Parameters that can be updated when ADC is disabled or enabled without   */
1782:../../../../../../Drivers/STM32L0xx_HAL_Driver/Src/stm32l0xx_hal_adc.c ****   /* conversion on going on regular group:                                    */
1783:../../../../../../Drivers/STM32L0xx_HAL_Driver/Src/stm32l0xx_hal_adc.c ****   /*  - Analog watchdog channels                                              */
1784:../../../../../../Drivers/STM32L0xx_HAL_Driver/Src/stm32l0xx_hal_adc.c ****   /*  - Analog watchdog thresholds                                            */
1785:../../../../../../Drivers/STM32L0xx_HAL_Driver/Src/stm32l0xx_hal_adc.c ****   if (ADC_IS_CONVERSION_ONGOING_REGULAR(hadc) == RESET)
1786:../../../../../../Drivers/STM32L0xx_HAL_Driver/Src/stm32l0xx_hal_adc.c ****   {
1787:../../../../../../Drivers/STM32L0xx_HAL_Driver/Src/stm32l0xx_hal_adc.c ****     /* Configure ADC Analog watchdog interrupt */
1788:../../../../../../Drivers/STM32L0xx_HAL_Driver/Src/stm32l0xx_hal_adc.c ****     if(AnalogWDGConfig->ITMode == ENABLE)
1789:../../../../../../Drivers/STM32L0xx_HAL_Driver/Src/stm32l0xx_hal_adc.c ****     {
1790:../../../../../../Drivers/STM32L0xx_HAL_Driver/Src/stm32l0xx_hal_adc.c ****       /* Enable the ADC Analog watchdog interrupt */
1791:../../../../../../Drivers/STM32L0xx_HAL_Driver/Src/stm32l0xx_hal_adc.c ****       __HAL_ADC_ENABLE_IT(hadc, ADC_IT_AWD);
1792:../../../../../../Drivers/STM32L0xx_HAL_Driver/Src/stm32l0xx_hal_adc.c ****     }
1793:../../../../../../Drivers/STM32L0xx_HAL_Driver/Src/stm32l0xx_hal_adc.c ****     else
1794:../../../../../../Drivers/STM32L0xx_HAL_Driver/Src/stm32l0xx_hal_adc.c ****     {
1795:../../../../../../Drivers/STM32L0xx_HAL_Driver/Src/stm32l0xx_hal_adc.c ****       /* Disable the ADC Analog watchdog interrupt */
1796:../../../../../../Drivers/STM32L0xx_HAL_Driver/Src/stm32l0xx_hal_adc.c ****       __HAL_ADC_DISABLE_IT(hadc, ADC_IT_AWD);
1797:../../../../../../Drivers/STM32L0xx_HAL_Driver/Src/stm32l0xx_hal_adc.c ****     }
1798:../../../../../../Drivers/STM32L0xx_HAL_Driver/Src/stm32l0xx_hal_adc.c ****     
1799:../../../../../../Drivers/STM32L0xx_HAL_Driver/Src/stm32l0xx_hal_adc.c ****     /* Configuration of analog watchdog:                                        */
1800:../../../../../../Drivers/STM32L0xx_HAL_Driver/Src/stm32l0xx_hal_adc.c ****     /*  - Set the analog watchdog mode                                          */
1801:../../../../../../Drivers/STM32L0xx_HAL_Driver/Src/stm32l0xx_hal_adc.c ****     /*  - Set the Analog watchdog channel (is not used if watchdog              */
1802:../../../../../../Drivers/STM32L0xx_HAL_Driver/Src/stm32l0xx_hal_adc.c ****     /*    mode "all channels": ADC_CFGR1_AWD1SGL=0)                             */
1803:../../../../../../Drivers/STM32L0xx_HAL_Driver/Src/stm32l0xx_hal_adc.c ****     hadc->Instance->CFGR1 &= ~( ADC_CFGR1_AWDSGL |
1804:../../../../../../Drivers/STM32L0xx_HAL_Driver/Src/stm32l0xx_hal_adc.c ****                                ADC_CFGR1_AWDEN  |
1805:../../../../../../Drivers/STM32L0xx_HAL_Driver/Src/stm32l0xx_hal_adc.c ****                                ADC_CFGR1_AWDCH);
ARM GAS  C:\Users\EBANO_~1\AppData\Local\Temp\cc7eeVhF.s 			page 42


1806:../../../../../../Drivers/STM32L0xx_HAL_Driver/Src/stm32l0xx_hal_adc.c ****     
1807:../../../../../../Drivers/STM32L0xx_HAL_Driver/Src/stm32l0xx_hal_adc.c ****     hadc->Instance->CFGR1 |= ( AnalogWDGConfig->WatchdogMode |
1808:../../../../../../Drivers/STM32L0xx_HAL_Driver/Src/stm32l0xx_hal_adc.c ****                               (AnalogWDGConfig->Channel & ADC_CHANNEL_AWD_MASK));
1809:../../../../../../Drivers/STM32L0xx_HAL_Driver/Src/stm32l0xx_hal_adc.c ****     
1810:../../../../../../Drivers/STM32L0xx_HAL_Driver/Src/stm32l0xx_hal_adc.c ****     
1811:../../../../../../Drivers/STM32L0xx_HAL_Driver/Src/stm32l0xx_hal_adc.c ****     /* Shift the offset in function of the selected ADC resolution: Thresholds  */
1812:../../../../../../Drivers/STM32L0xx_HAL_Driver/Src/stm32l0xx_hal_adc.c ****     /* have to be left-aligned on bit 11, the LSB (right bits) are set to 0     */
1813:../../../../../../Drivers/STM32L0xx_HAL_Driver/Src/stm32l0xx_hal_adc.c ****     tmpAWDHighThresholdShifted = ADC_AWD1THRESHOLD_SHIFT_RESOLUTION(hadc, AnalogWDGConfig->HighThre
1814:../../../../../../Drivers/STM32L0xx_HAL_Driver/Src/stm32l0xx_hal_adc.c ****     tmpAWDLowThresholdShifted  = ADC_AWD1THRESHOLD_SHIFT_RESOLUTION(hadc, AnalogWDGConfig->LowThres
1815:../../../../../../Drivers/STM32L0xx_HAL_Driver/Src/stm32l0xx_hal_adc.c ****     
1816:../../../../../../Drivers/STM32L0xx_HAL_Driver/Src/stm32l0xx_hal_adc.c ****     /* Clear High & Low high thresholds */
1817:../../../../../../Drivers/STM32L0xx_HAL_Driver/Src/stm32l0xx_hal_adc.c ****     hadc->Instance->TR &= (uint32_t) ~ (ADC_TR_HT | ADC_TR_LT);
1818:../../../../../../Drivers/STM32L0xx_HAL_Driver/Src/stm32l0xx_hal_adc.c ****     
1819:../../../../../../Drivers/STM32L0xx_HAL_Driver/Src/stm32l0xx_hal_adc.c ****     /* Set the high threshold */
1820:../../../../../../Drivers/STM32L0xx_HAL_Driver/Src/stm32l0xx_hal_adc.c ****     hadc->Instance->TR = ADC_TRX_HIGHTHRESHOLD (tmpAWDHighThresholdShifted);
1821:../../../../../../Drivers/STM32L0xx_HAL_Driver/Src/stm32l0xx_hal_adc.c ****     /* Set the low threshold */
1822:../../../../../../Drivers/STM32L0xx_HAL_Driver/Src/stm32l0xx_hal_adc.c ****     hadc->Instance->TR |= tmpAWDLowThresholdShifted;
1823:../../../../../../Drivers/STM32L0xx_HAL_Driver/Src/stm32l0xx_hal_adc.c ****   }
1824:../../../../../../Drivers/STM32L0xx_HAL_Driver/Src/stm32l0xx_hal_adc.c ****   /* If a conversion is on going on regular group, no update could be done    */
1825:../../../../../../Drivers/STM32L0xx_HAL_Driver/Src/stm32l0xx_hal_adc.c ****   /* on neither of the AWD configuration structure parameters.                */
1826:../../../../../../Drivers/STM32L0xx_HAL_Driver/Src/stm32l0xx_hal_adc.c ****   else
1827:../../../../../../Drivers/STM32L0xx_HAL_Driver/Src/stm32l0xx_hal_adc.c ****   {
1828:../../../../../../Drivers/STM32L0xx_HAL_Driver/Src/stm32l0xx_hal_adc.c ****     /* Update ADC state machine to error */
1829:../../../../../../Drivers/STM32L0xx_HAL_Driver/Src/stm32l0xx_hal_adc.c ****     SET_BIT(hadc->State, HAL_ADC_STATE_ERROR_CONFIG);
1830:../../../../../../Drivers/STM32L0xx_HAL_Driver/Src/stm32l0xx_hal_adc.c ****     
1831:../../../../../../Drivers/STM32L0xx_HAL_Driver/Src/stm32l0xx_hal_adc.c ****     tmp_hal_status = HAL_ERROR;
1832:../../../../../../Drivers/STM32L0xx_HAL_Driver/Src/stm32l0xx_hal_adc.c ****   }
1833:../../../../../../Drivers/STM32L0xx_HAL_Driver/Src/stm32l0xx_hal_adc.c ****   
1834:../../../../../../Drivers/STM32L0xx_HAL_Driver/Src/stm32l0xx_hal_adc.c ****   /* Process unlocked */
1835:../../../../../../Drivers/STM32L0xx_HAL_Driver/Src/stm32l0xx_hal_adc.c ****   __HAL_UNLOCK(hadc);
