ARM GAS  C:\Users\EBANO_~1\AppData\Local\Temp\cc7eeVhF.s 			page 1


   1              		.cpu cortex-m0plus
   2              		.eabi_attribute 20, 1
   3              		.eabi_attribute 21, 1
   4              		.eabi_attribute 23, 3
   5              		.eabi_attribute 24, 1
   6              		.eabi_attribute 25, 1
   7              		.eabi_attribute 26, 1
   8              		.eabi_attribute 30, 2
   9              		.eabi_attribute 34, 0
  10              		.eabi_attribute 18, 4
  11              		.file	"stm32l0xx_hal_adc.c"
  12              		.text
  13              	.Ltext0:
  14              		.cfi_sections	.debug_frame
  15              		.section	.text.HAL_ADC_MspInit,"ax",%progbits
  16              		.align	1
  17              		.p2align 2,,3
  18              		.weak	HAL_ADC_MspInit
  19              		.syntax unified
  20              		.code	16
  21              		.thumb_func
  22              		.fpu softvfp
  23              		.type	HAL_ADC_MspInit, %function
  24              	HAL_ADC_MspInit:
  25              	.LFB41:
  26              		.file 1 "../../../../../../Drivers/STM32L0xx_HAL_Driver/Src/stm32l0xx_hal_adc.c"
   1:../../../../../../Drivers/STM32L0xx_HAL_Driver/Src/stm32l0xx_hal_adc.c **** /**
   2:../../../../../../Drivers/STM32L0xx_HAL_Driver/Src/stm32l0xx_hal_adc.c ****   ******************************************************************************
   3:../../../../../../Drivers/STM32L0xx_HAL_Driver/Src/stm32l0xx_hal_adc.c ****   * @file    stm32l0xx_hal_adc.c
   4:../../../../../../Drivers/STM32L0xx_HAL_Driver/Src/stm32l0xx_hal_adc.c ****   * @author  MCD Application Team
   5:../../../../../../Drivers/STM32L0xx_HAL_Driver/Src/stm32l0xx_hal_adc.c ****   * @brief   This file provides firmware functions to manage the following 
   6:../../../../../../Drivers/STM32L0xx_HAL_Driver/Src/stm32l0xx_hal_adc.c ****   *          functionalities of the Analog to Digital Convertor (ADC)
   7:../../../../../../Drivers/STM32L0xx_HAL_Driver/Src/stm32l0xx_hal_adc.c ****   *          peripheral:
   8:../../../../../../Drivers/STM32L0xx_HAL_Driver/Src/stm32l0xx_hal_adc.c ****   *           + Initialization and de-initialization functions
   9:../../../../../../Drivers/STM32L0xx_HAL_Driver/Src/stm32l0xx_hal_adc.c ****   *             ++ Initialization and Configuration of ADC
  10:../../../../../../Drivers/STM32L0xx_HAL_Driver/Src/stm32l0xx_hal_adc.c ****   *           + Operation functions
  11:../../../../../../Drivers/STM32L0xx_HAL_Driver/Src/stm32l0xx_hal_adc.c ****   *             ++ Start, stop, get result of conversions of regular
  12:../../../../../../Drivers/STM32L0xx_HAL_Driver/Src/stm32l0xx_hal_adc.c ****   *                group, using 3 possible modes: polling, interruption or DMA.
  13:../../../../../../Drivers/STM32L0xx_HAL_Driver/Src/stm32l0xx_hal_adc.c ****   *           + Control functions
  14:../../../../../../Drivers/STM32L0xx_HAL_Driver/Src/stm32l0xx_hal_adc.c ****   *             ++ Channels configuration on regular group
  15:../../../../../../Drivers/STM32L0xx_HAL_Driver/Src/stm32l0xx_hal_adc.c ****   *             ++ Analog Watchdog configuration
  16:../../../../../../Drivers/STM32L0xx_HAL_Driver/Src/stm32l0xx_hal_adc.c ****   *           + State functions
  17:../../../../../../Drivers/STM32L0xx_HAL_Driver/Src/stm32l0xx_hal_adc.c ****   *             ++ ADC state machine management
  18:../../../../../../Drivers/STM32L0xx_HAL_Driver/Src/stm32l0xx_hal_adc.c ****   *             ++ Interrupts and flags management
  19:../../../../../../Drivers/STM32L0xx_HAL_Driver/Src/stm32l0xx_hal_adc.c ****   *          Other functions (extended functions) are available in file 
  20:../../../../../../Drivers/STM32L0xx_HAL_Driver/Src/stm32l0xx_hal_adc.c ****   *          "stm32l0xx_hal_adc_ex.c".
  21:../../../../../../Drivers/STM32L0xx_HAL_Driver/Src/stm32l0xx_hal_adc.c ****   *
  22:../../../../../../Drivers/STM32L0xx_HAL_Driver/Src/stm32l0xx_hal_adc.c ****   @verbatim
  23:../../../../../../Drivers/STM32L0xx_HAL_Driver/Src/stm32l0xx_hal_adc.c ****   ==============================================================================
  24:../../../../../../Drivers/STM32L0xx_HAL_Driver/Src/stm32l0xx_hal_adc.c ****                      ##### ADC peripheral features #####
  25:../../../../../../Drivers/STM32L0xx_HAL_Driver/Src/stm32l0xx_hal_adc.c ****   ==============================================================================
  26:../../../../../../Drivers/STM32L0xx_HAL_Driver/Src/stm32l0xx_hal_adc.c ****   [..]
  27:../../../../../../Drivers/STM32L0xx_HAL_Driver/Src/stm32l0xx_hal_adc.c ****   (+) 12-bit, 10-bit, 8-bit or 6-bit configurable resolution.
  28:../../../../../../Drivers/STM32L0xx_HAL_Driver/Src/stm32l0xx_hal_adc.c **** 
  29:../../../../../../Drivers/STM32L0xx_HAL_Driver/Src/stm32l0xx_hal_adc.c ****   (+) Interrupt generation at the end of regular conversion and in case of 
  30:../../../../../../Drivers/STM32L0xx_HAL_Driver/Src/stm32l0xx_hal_adc.c ****       analog watchdog or overrun events.
  31:../../../../../../Drivers/STM32L0xx_HAL_Driver/Src/stm32l0xx_hal_adc.c ****   
ARM GAS  C:\Users\EBANO_~1\AppData\Local\Temp\cc7eeVhF.s 			page 2


  32:../../../../../../Drivers/STM32L0xx_HAL_Driver/Src/stm32l0xx_hal_adc.c ****   (+) Single and continuous conversion modes.
  33:../../../../../../Drivers/STM32L0xx_HAL_Driver/Src/stm32l0xx_hal_adc.c ****   
  34:../../../../../../Drivers/STM32L0xx_HAL_Driver/Src/stm32l0xx_hal_adc.c ****   (+) Scan mode for conversion of several channels sequentially.
  35:../../../../../../Drivers/STM32L0xx_HAL_Driver/Src/stm32l0xx_hal_adc.c ****   
  36:../../../../../../Drivers/STM32L0xx_HAL_Driver/Src/stm32l0xx_hal_adc.c ****   (+) Data alignment with in-built data coherency.
  37:../../../../../../Drivers/STM32L0xx_HAL_Driver/Src/stm32l0xx_hal_adc.c ****   
  38:../../../../../../Drivers/STM32L0xx_HAL_Driver/Src/stm32l0xx_hal_adc.c ****   (+) Programmable sampling time (common for all channels)
  39:../../../../../../Drivers/STM32L0xx_HAL_Driver/Src/stm32l0xx_hal_adc.c ****   
  40:../../../../../../Drivers/STM32L0xx_HAL_Driver/Src/stm32l0xx_hal_adc.c ****   (+) External trigger (timer or EXTI) with configurable polarity
  41:../../../../../../Drivers/STM32L0xx_HAL_Driver/Src/stm32l0xx_hal_adc.c ****   
  42:../../../../../../Drivers/STM32L0xx_HAL_Driver/Src/stm32l0xx_hal_adc.c ****   (+) DMA request generation for transfer of conversions data of regular group.
  43:../../../../../../Drivers/STM32L0xx_HAL_Driver/Src/stm32l0xx_hal_adc.c **** 
  44:../../../../../../Drivers/STM32L0xx_HAL_Driver/Src/stm32l0xx_hal_adc.c ****   (+) ADC calibration
  45:../../../../../../Drivers/STM32L0xx_HAL_Driver/Src/stm32l0xx_hal_adc.c ****   
  46:../../../../../../Drivers/STM32L0xx_HAL_Driver/Src/stm32l0xx_hal_adc.c ****   (+) ADC conversion of regular group.
  47:../../../../../../Drivers/STM32L0xx_HAL_Driver/Src/stm32l0xx_hal_adc.c ****   
  48:../../../../../../Drivers/STM32L0xx_HAL_Driver/Src/stm32l0xx_hal_adc.c ****   (+) ADC supply requirements: 1.62 V to 3.6 V.
  49:../../../../../../Drivers/STM32L0xx_HAL_Driver/Src/stm32l0xx_hal_adc.c ****   
  50:../../../../../../Drivers/STM32L0xx_HAL_Driver/Src/stm32l0xx_hal_adc.c ****   (+) ADC input range: from Vref- (connected to Vssa) to Vref+ (connected to 
  51:../../../../../../Drivers/STM32L0xx_HAL_Driver/Src/stm32l0xx_hal_adc.c ****       Vdda or to an external voltage reference).
  52:../../../../../../Drivers/STM32L0xx_HAL_Driver/Src/stm32l0xx_hal_adc.c **** 
  53:../../../../../../Drivers/STM32L0xx_HAL_Driver/Src/stm32l0xx_hal_adc.c **** 
  54:../../../../../../Drivers/STM32L0xx_HAL_Driver/Src/stm32l0xx_hal_adc.c ****                      ##### How to use this driver #####
  55:../../../../../../Drivers/STM32L0xx_HAL_Driver/Src/stm32l0xx_hal_adc.c ****   ==============================================================================
  56:../../../../../../Drivers/STM32L0xx_HAL_Driver/Src/stm32l0xx_hal_adc.c ****     [..]
  57:../../../../../../Drivers/STM32L0xx_HAL_Driver/Src/stm32l0xx_hal_adc.c **** 
  58:../../../../../../Drivers/STM32L0xx_HAL_Driver/Src/stm32l0xx_hal_adc.c ****      *** Configuration of top level parameters related to ADC ***
  59:../../../../../../Drivers/STM32L0xx_HAL_Driver/Src/stm32l0xx_hal_adc.c ****      ============================================================
  60:../../../../../../Drivers/STM32L0xx_HAL_Driver/Src/stm32l0xx_hal_adc.c ****      [..]
  61:../../../../../../Drivers/STM32L0xx_HAL_Driver/Src/stm32l0xx_hal_adc.c **** 
  62:../../../../../../Drivers/STM32L0xx_HAL_Driver/Src/stm32l0xx_hal_adc.c ****     (#) Enable the ADC interface
  63:../../../../../../Drivers/STM32L0xx_HAL_Driver/Src/stm32l0xx_hal_adc.c ****         (++) As prerequisite, ADC clock must be configured at RCC top level.
  64:../../../../../../Drivers/STM32L0xx_HAL_Driver/Src/stm32l0xx_hal_adc.c ****              Caution: On STM32L0, ADC clock frequency max is 16MHz (refer
  65:../../../../../../Drivers/STM32L0xx_HAL_Driver/Src/stm32l0xx_hal_adc.c ****                       to device datasheet).
  66:../../../../../../Drivers/STM32L0xx_HAL_Driver/Src/stm32l0xx_hal_adc.c ****                       Therefore, ADC clock prescaler must be configured in 
  67:../../../../../../Drivers/STM32L0xx_HAL_Driver/Src/stm32l0xx_hal_adc.c ****                       function of ADC clock source frequency to remain below
  68:../../../../../../Drivers/STM32L0xx_HAL_Driver/Src/stm32l0xx_hal_adc.c ****                       this maximum frequency.
  69:../../../../../../Drivers/STM32L0xx_HAL_Driver/Src/stm32l0xx_hal_adc.c **** 
  70:../../../../../../Drivers/STM32L0xx_HAL_Driver/Src/stm32l0xx_hal_adc.c ****         (++) Two clock settings are mandatory: 
  71:../../../../../../Drivers/STM32L0xx_HAL_Driver/Src/stm32l0xx_hal_adc.c ****              (+++) ADC clock (core clock, also possibly conversion clock).
  72:../../../../../../Drivers/STM32L0xx_HAL_Driver/Src/stm32l0xx_hal_adc.c **** 
  73:../../../../../../Drivers/STM32L0xx_HAL_Driver/Src/stm32l0xx_hal_adc.c ****              (+++) ADC clock (conversions clock).
  74:../../../../../../Drivers/STM32L0xx_HAL_Driver/Src/stm32l0xx_hal_adc.c ****                    Two possible clock sources: synchronous clock derived from APB clock
  75:../../../../../../Drivers/STM32L0xx_HAL_Driver/Src/stm32l0xx_hal_adc.c ****                    or asynchronous clock derived from ADC dedicated HSI RC oscillator
  76:../../../../../../Drivers/STM32L0xx_HAL_Driver/Src/stm32l0xx_hal_adc.c ****                    16MHz.
  77:../../../../../../Drivers/STM32L0xx_HAL_Driver/Src/stm32l0xx_hal_adc.c ****                    If asynchronous clock is selected, parameter "HSIState" must be set either:
  78:../../../../../../Drivers/STM32L0xx_HAL_Driver/Src/stm32l0xx_hal_adc.c ****                    - to "...HSIState = RCC_HSI_ON" to maintain the HSI16 oscillator
  79:../../../../../../Drivers/STM32L0xx_HAL_Driver/Src/stm32l0xx_hal_adc.c ****                      always enabled: can be used to supply the main system clock.
  80:../../../../../../Drivers/STM32L0xx_HAL_Driver/Src/stm32l0xx_hal_adc.c **** 
  81:../../../../../../Drivers/STM32L0xx_HAL_Driver/Src/stm32l0xx_hal_adc.c ****              (+++) Example:
  82:../../../../../../Drivers/STM32L0xx_HAL_Driver/Src/stm32l0xx_hal_adc.c ****                    Into HAL_ADC_MspInit() (recommended code location) or with
  83:../../../../../../Drivers/STM32L0xx_HAL_Driver/Src/stm32l0xx_hal_adc.c ****                    other device clock parameters configuration:
  84:../../../../../../Drivers/STM32L0xx_HAL_Driver/Src/stm32l0xx_hal_adc.c ****                (+++) __HAL_RCC_ADC1_CLK_ENABLE();                 (mandatory)
  85:../../../../../../Drivers/STM32L0xx_HAL_Driver/Src/stm32l0xx_hal_adc.c **** 
  86:../../../../../../Drivers/STM32L0xx_HAL_Driver/Src/stm32l0xx_hal_adc.c ****                HSI enable                                         (optional: if asynchronous clock 
  87:../../../../../../Drivers/STM32L0xx_HAL_Driver/Src/stm32l0xx_hal_adc.c ****                (+++) RCC_OscInitTypeDef   RCC_OscInitStructure;
  88:../../../../../../Drivers/STM32L0xx_HAL_Driver/Src/stm32l0xx_hal_adc.c ****                (+++) RCC_OscInitStructure.OscillatorType = RCC_OSCILLATORTYPE_HSI;
ARM GAS  C:\Users\EBANO_~1\AppData\Local\Temp\cc7eeVhF.s 			page 3


  89:../../../../../../Drivers/STM32L0xx_HAL_Driver/Src/stm32l0xx_hal_adc.c ****                (+++) RCC_OscInitStructure.HSI16CalibrationValue = RCC_HSICALIBRATION_DEFAULT;
  90:../../../../../../Drivers/STM32L0xx_HAL_Driver/Src/stm32l0xx_hal_adc.c ****                (+++) RCC_OscInitStructure.HSIState = RCC_HSI_ON;
  91:../../../../../../Drivers/STM32L0xx_HAL_Driver/Src/stm32l0xx_hal_adc.c ****                (+++) RCC_OscInitStructure.PLL...   (optional if used for system clock)
  92:../../../../../../Drivers/STM32L0xx_HAL_Driver/Src/stm32l0xx_hal_adc.c ****                (+++) HAL_RCC_OscConfig(&RCC_OscInitStructure);
  93:../../../../../../Drivers/STM32L0xx_HAL_Driver/Src/stm32l0xx_hal_adc.c **** 
  94:../../../../../../Drivers/STM32L0xx_HAL_Driver/Src/stm32l0xx_hal_adc.c ****         (++) ADC clock source and clock prescaler are configured at ADC level with
  95:../../../../../../Drivers/STM32L0xx_HAL_Driver/Src/stm32l0xx_hal_adc.c ****              parameter "ClockPrescaler" using function HAL_ADC_Init().
  96:../../../../../../Drivers/STM32L0xx_HAL_Driver/Src/stm32l0xx_hal_adc.c **** 
  97:../../../../../../Drivers/STM32L0xx_HAL_Driver/Src/stm32l0xx_hal_adc.c ****     (#) ADC pins configuration
  98:../../../../../../Drivers/STM32L0xx_HAL_Driver/Src/stm32l0xx_hal_adc.c ****          (++) Enable the clock for the ADC GPIOs
  99:../../../../../../Drivers/STM32L0xx_HAL_Driver/Src/stm32l0xx_hal_adc.c ****               using macro __HAL_RCC_GPIOx_CLK_ENABLE()
 100:../../../../../../Drivers/STM32L0xx_HAL_Driver/Src/stm32l0xx_hal_adc.c ****          (++) Configure these ADC pins in analog mode
 101:../../../../../../Drivers/STM32L0xx_HAL_Driver/Src/stm32l0xx_hal_adc.c ****               using function HAL_GPIO_Init()
 102:../../../../../../Drivers/STM32L0xx_HAL_Driver/Src/stm32l0xx_hal_adc.c **** 
 103:../../../../../../Drivers/STM32L0xx_HAL_Driver/Src/stm32l0xx_hal_adc.c ****     (#) Optionally, in case of usage of ADC with interruptions:
 104:../../../../../../Drivers/STM32L0xx_HAL_Driver/Src/stm32l0xx_hal_adc.c ****          (++) Configure the NVIC for ADC
 105:../../../../../../Drivers/STM32L0xx_HAL_Driver/Src/stm32l0xx_hal_adc.c ****               using function HAL_NVIC_EnableIRQ(ADCx_IRQn)
 106:../../../../../../Drivers/STM32L0xx_HAL_Driver/Src/stm32l0xx_hal_adc.c ****          (++) Insert the ADC interruption handler function HAL_ADC_IRQHandler() 
 107:../../../../../../Drivers/STM32L0xx_HAL_Driver/Src/stm32l0xx_hal_adc.c ****               into the function of corresponding ADC interruption vector 
 108:../../../../../../Drivers/STM32L0xx_HAL_Driver/Src/stm32l0xx_hal_adc.c ****               ADCx_IRQHandler().
 109:../../../../../../Drivers/STM32L0xx_HAL_Driver/Src/stm32l0xx_hal_adc.c **** 
 110:../../../../../../Drivers/STM32L0xx_HAL_Driver/Src/stm32l0xx_hal_adc.c ****     (#) Optionally, in case of usage of DMA:
 111:../../../../../../Drivers/STM32L0xx_HAL_Driver/Src/stm32l0xx_hal_adc.c ****          (++) Configure the DMA (DMA channel, mode normal or circular, ...)
 112:../../../../../../Drivers/STM32L0xx_HAL_Driver/Src/stm32l0xx_hal_adc.c ****               using function HAL_DMA_Init().
 113:../../../../../../Drivers/STM32L0xx_HAL_Driver/Src/stm32l0xx_hal_adc.c ****          (++) Configure the NVIC for DMA
 114:../../../../../../Drivers/STM32L0xx_HAL_Driver/Src/stm32l0xx_hal_adc.c ****               using function HAL_NVIC_EnableIRQ(DMAx_Channelx_IRQn)
 115:../../../../../../Drivers/STM32L0xx_HAL_Driver/Src/stm32l0xx_hal_adc.c ****          (++) Insert the ADC interruption handler function HAL_ADC_IRQHandler() 
 116:../../../../../../Drivers/STM32L0xx_HAL_Driver/Src/stm32l0xx_hal_adc.c ****               into the function of corresponding DMA interruption vector 
 117:../../../../../../Drivers/STM32L0xx_HAL_Driver/Src/stm32l0xx_hal_adc.c ****               DMAx_Channelx_IRQHandler().
 118:../../../../../../Drivers/STM32L0xx_HAL_Driver/Src/stm32l0xx_hal_adc.c **** 
 119:../../../../../../Drivers/STM32L0xx_HAL_Driver/Src/stm32l0xx_hal_adc.c ****      *** Configuration of ADC, group regular, channels parameters ***
 120:../../../../../../Drivers/STM32L0xx_HAL_Driver/Src/stm32l0xx_hal_adc.c ****      ================================================================
 121:../../../../../../Drivers/STM32L0xx_HAL_Driver/Src/stm32l0xx_hal_adc.c ****      [..]
 122:../../../../../../Drivers/STM32L0xx_HAL_Driver/Src/stm32l0xx_hal_adc.c **** 
 123:../../../../../../Drivers/STM32L0xx_HAL_Driver/Src/stm32l0xx_hal_adc.c ****     (#) Configure the ADC parameters (resolution, data alignment, ...)
 124:../../../../../../Drivers/STM32L0xx_HAL_Driver/Src/stm32l0xx_hal_adc.c ****         and regular group parameters (conversion trigger, sequencer, ...)
 125:../../../../../../Drivers/STM32L0xx_HAL_Driver/Src/stm32l0xx_hal_adc.c ****         using function HAL_ADC_Init().
 126:../../../../../../Drivers/STM32L0xx_HAL_Driver/Src/stm32l0xx_hal_adc.c **** 
 127:../../../../../../Drivers/STM32L0xx_HAL_Driver/Src/stm32l0xx_hal_adc.c ****     (#) Configure the channels for regular group parameters (channel number, 
 128:../../../../../../Drivers/STM32L0xx_HAL_Driver/Src/stm32l0xx_hal_adc.c ****         channel rank into sequencer, ..., into regular group)
 129:../../../../../../Drivers/STM32L0xx_HAL_Driver/Src/stm32l0xx_hal_adc.c ****         using function HAL_ADC_ConfigChannel().
 130:../../../../../../Drivers/STM32L0xx_HAL_Driver/Src/stm32l0xx_hal_adc.c **** 
 131:../../../../../../Drivers/STM32L0xx_HAL_Driver/Src/stm32l0xx_hal_adc.c ****     (#) Optionally, configure the analog watchdog parameters (channels
 132:../../../../../../Drivers/STM32L0xx_HAL_Driver/Src/stm32l0xx_hal_adc.c ****         monitored, thresholds, ...)
 133:../../../../../../Drivers/STM32L0xx_HAL_Driver/Src/stm32l0xx_hal_adc.c ****         using function HAL_ADC_AnalogWDGConfig().
 134:../../../../../../Drivers/STM32L0xx_HAL_Driver/Src/stm32l0xx_hal_adc.c **** 
 135:../../../../../../Drivers/STM32L0xx_HAL_Driver/Src/stm32l0xx_hal_adc.c **** 
 136:../../../../../../Drivers/STM32L0xx_HAL_Driver/Src/stm32l0xx_hal_adc.c ****     (#) When device is in mode low-power (low-power run, low-power sleep or stop mode), 
 137:../../../../../../Drivers/STM32L0xx_HAL_Driver/Src/stm32l0xx_hal_adc.c ****         function "HAL_ADCEx_EnableVREFINT()" must be called before function HAL_ADC_Init().
 138:../../../../../../Drivers/STM32L0xx_HAL_Driver/Src/stm32l0xx_hal_adc.c ****         In case of internal temperature sensor to be measured:
 139:../../../../../../Drivers/STM32L0xx_HAL_Driver/Src/stm32l0xx_hal_adc.c ****         function "HAL_ADCEx_EnableVREFINTTempSensor()" must be called similarilly
 140:../../../../../../Drivers/STM32L0xx_HAL_Driver/Src/stm32l0xx_hal_adc.c **** 
 141:../../../../../../Drivers/STM32L0xx_HAL_Driver/Src/stm32l0xx_hal_adc.c ****      *** Execution of ADC conversions ***
 142:../../../../../../Drivers/STM32L0xx_HAL_Driver/Src/stm32l0xx_hal_adc.c ****      ====================================
 143:../../../../../../Drivers/STM32L0xx_HAL_Driver/Src/stm32l0xx_hal_adc.c ****      [..]
 144:../../../../../../Drivers/STM32L0xx_HAL_Driver/Src/stm32l0xx_hal_adc.c **** 
 145:../../../../../../Drivers/STM32L0xx_HAL_Driver/Src/stm32l0xx_hal_adc.c ****     (#) Optionally, perform an automatic ADC calibration to improve the
ARM GAS  C:\Users\EBANO_~1\AppData\Local\Temp\cc7eeVhF.s 			page 4


 146:../../../../../../Drivers/STM32L0xx_HAL_Driver/Src/stm32l0xx_hal_adc.c ****         conversion accuracy
 147:../../../../../../Drivers/STM32L0xx_HAL_Driver/Src/stm32l0xx_hal_adc.c ****         using function HAL_ADCEx_Calibration_Start().
 148:../../../../../../Drivers/STM32L0xx_HAL_Driver/Src/stm32l0xx_hal_adc.c **** 
 149:../../../../../../Drivers/STM32L0xx_HAL_Driver/Src/stm32l0xx_hal_adc.c ****     (#) ADC driver can be used among three modes: polling, interruption,
 150:../../../../../../Drivers/STM32L0xx_HAL_Driver/Src/stm32l0xx_hal_adc.c ****         transfer by DMA.
 151:../../../../../../Drivers/STM32L0xx_HAL_Driver/Src/stm32l0xx_hal_adc.c **** 
 152:../../../../../../Drivers/STM32L0xx_HAL_Driver/Src/stm32l0xx_hal_adc.c ****         (++) ADC conversion by polling:
 153:../../../../../../Drivers/STM32L0xx_HAL_Driver/Src/stm32l0xx_hal_adc.c ****           (+++) Activate the ADC peripheral and start conversions
 154:../../../../../../Drivers/STM32L0xx_HAL_Driver/Src/stm32l0xx_hal_adc.c ****                 using function HAL_ADC_Start()
 155:../../../../../../Drivers/STM32L0xx_HAL_Driver/Src/stm32l0xx_hal_adc.c ****           (+++) Wait for ADC conversion completion 
 156:../../../../../../Drivers/STM32L0xx_HAL_Driver/Src/stm32l0xx_hal_adc.c ****                 using function HAL_ADC_PollForConversion()
 157:../../../../../../Drivers/STM32L0xx_HAL_Driver/Src/stm32l0xx_hal_adc.c ****           (+++) Retrieve conversion results 
 158:../../../../../../Drivers/STM32L0xx_HAL_Driver/Src/stm32l0xx_hal_adc.c ****                 using function HAL_ADC_GetValue()
 159:../../../../../../Drivers/STM32L0xx_HAL_Driver/Src/stm32l0xx_hal_adc.c ****           (+++) Stop conversion and disable the ADC peripheral 
 160:../../../../../../Drivers/STM32L0xx_HAL_Driver/Src/stm32l0xx_hal_adc.c ****                 using function HAL_ADC_Stop()
 161:../../../../../../Drivers/STM32L0xx_HAL_Driver/Src/stm32l0xx_hal_adc.c **** 
 162:../../../../../../Drivers/STM32L0xx_HAL_Driver/Src/stm32l0xx_hal_adc.c ****         (++) ADC conversion by interruption: 
 163:../../../../../../Drivers/STM32L0xx_HAL_Driver/Src/stm32l0xx_hal_adc.c ****           (+++) Activate the ADC peripheral and start conversions
 164:../../../../../../Drivers/STM32L0xx_HAL_Driver/Src/stm32l0xx_hal_adc.c ****                 using function HAL_ADC_Start_IT()
 165:../../../../../../Drivers/STM32L0xx_HAL_Driver/Src/stm32l0xx_hal_adc.c ****           (+++) Wait for ADC conversion completion by call of function
 166:../../../../../../Drivers/STM32L0xx_HAL_Driver/Src/stm32l0xx_hal_adc.c ****                 HAL_ADC_ConvCpltCallback()
 167:../../../../../../Drivers/STM32L0xx_HAL_Driver/Src/stm32l0xx_hal_adc.c ****                 (this function must be implemented in user program)
 168:../../../../../../Drivers/STM32L0xx_HAL_Driver/Src/stm32l0xx_hal_adc.c ****           (+++) Retrieve conversion results 
 169:../../../../../../Drivers/STM32L0xx_HAL_Driver/Src/stm32l0xx_hal_adc.c ****                 using function HAL_ADC_GetValue()
 170:../../../../../../Drivers/STM32L0xx_HAL_Driver/Src/stm32l0xx_hal_adc.c ****           (+++) Stop conversion and disable the ADC peripheral 
 171:../../../../../../Drivers/STM32L0xx_HAL_Driver/Src/stm32l0xx_hal_adc.c ****                 using function HAL_ADC_Stop_IT()
 172:../../../../../../Drivers/STM32L0xx_HAL_Driver/Src/stm32l0xx_hal_adc.c **** 
 173:../../../../../../Drivers/STM32L0xx_HAL_Driver/Src/stm32l0xx_hal_adc.c ****         (++) ADC conversion with transfer by DMA:
 174:../../../../../../Drivers/STM32L0xx_HAL_Driver/Src/stm32l0xx_hal_adc.c ****           (+++) Activate the ADC peripheral and start conversions
 175:../../../../../../Drivers/STM32L0xx_HAL_Driver/Src/stm32l0xx_hal_adc.c ****                 using function HAL_ADC_Start_DMA()
 176:../../../../../../Drivers/STM32L0xx_HAL_Driver/Src/stm32l0xx_hal_adc.c ****           (+++) Wait for ADC conversion completion by call of function
 177:../../../../../../Drivers/STM32L0xx_HAL_Driver/Src/stm32l0xx_hal_adc.c ****                 HAL_ADC_ConvCpltCallback() or HAL_ADC_ConvHalfCpltCallback()
 178:../../../../../../Drivers/STM32L0xx_HAL_Driver/Src/stm32l0xx_hal_adc.c ****                 (these functions must be implemented in user program)
 179:../../../../../../Drivers/STM32L0xx_HAL_Driver/Src/stm32l0xx_hal_adc.c ****           (+++) Conversion results are automatically transferred by DMA into
 180:../../../../../../Drivers/STM32L0xx_HAL_Driver/Src/stm32l0xx_hal_adc.c ****                 destination variable address.
 181:../../../../../../Drivers/STM32L0xx_HAL_Driver/Src/stm32l0xx_hal_adc.c ****           (+++) Stop conversion and disable the ADC peripheral 
 182:../../../../../../Drivers/STM32L0xx_HAL_Driver/Src/stm32l0xx_hal_adc.c ****                 using function HAL_ADC_Stop_DMA()
 183:../../../../../../Drivers/STM32L0xx_HAL_Driver/Src/stm32l0xx_hal_adc.c **** 
 184:../../../../../../Drivers/STM32L0xx_HAL_Driver/Src/stm32l0xx_hal_adc.c ****      [..]
 185:../../../../../../Drivers/STM32L0xx_HAL_Driver/Src/stm32l0xx_hal_adc.c **** 
 186:../../../../../../Drivers/STM32L0xx_HAL_Driver/Src/stm32l0xx_hal_adc.c ****     (@) Callback functions must be implemented in user program:
 187:../../../../../../Drivers/STM32L0xx_HAL_Driver/Src/stm32l0xx_hal_adc.c ****       (+@) HAL_ADC_ErrorCallback()
 188:../../../../../../Drivers/STM32L0xx_HAL_Driver/Src/stm32l0xx_hal_adc.c ****       (+@) HAL_ADC_LevelOutOfWindowCallback() (callback of analog watchdog)
 189:../../../../../../Drivers/STM32L0xx_HAL_Driver/Src/stm32l0xx_hal_adc.c ****       (+@) HAL_ADC_ConvCpltCallback()
 190:../../../../../../Drivers/STM32L0xx_HAL_Driver/Src/stm32l0xx_hal_adc.c ****       (+@) HAL_ADC_ConvHalfCpltCallback
 191:../../../../../../Drivers/STM32L0xx_HAL_Driver/Src/stm32l0xx_hal_adc.c **** 
 192:../../../../../../Drivers/STM32L0xx_HAL_Driver/Src/stm32l0xx_hal_adc.c ****      *** Deinitialization of ADC ***
 193:../../../../../../Drivers/STM32L0xx_HAL_Driver/Src/stm32l0xx_hal_adc.c ****      ============================================================
 194:../../../../../../Drivers/STM32L0xx_HAL_Driver/Src/stm32l0xx_hal_adc.c ****      [..]
 195:../../../../../../Drivers/STM32L0xx_HAL_Driver/Src/stm32l0xx_hal_adc.c **** 
 196:../../../../../../Drivers/STM32L0xx_HAL_Driver/Src/stm32l0xx_hal_adc.c ****     (#) Disable the ADC interface
 197:../../../../../../Drivers/STM32L0xx_HAL_Driver/Src/stm32l0xx_hal_adc.c ****       (++) ADC clock can be hard reset and disabled at RCC top level.
 198:../../../../../../Drivers/STM32L0xx_HAL_Driver/Src/stm32l0xx_hal_adc.c ****         (++) Hard reset of ADC peripherals
 199:../../../../../../Drivers/STM32L0xx_HAL_Driver/Src/stm32l0xx_hal_adc.c ****              using macro __ADCx_FORCE_RESET(), __ADCx_RELEASE_RESET().
 200:../../../../../../Drivers/STM32L0xx_HAL_Driver/Src/stm32l0xx_hal_adc.c ****         (++) ADC clock disable
 201:../../../../../../Drivers/STM32L0xx_HAL_Driver/Src/stm32l0xx_hal_adc.c ****              using the equivalent macro/functions as configuration step.
 202:../../../../../../Drivers/STM32L0xx_HAL_Driver/Src/stm32l0xx_hal_adc.c ****              (+++) Example:
ARM GAS  C:\Users\EBANO_~1\AppData\Local\Temp\cc7eeVhF.s 			page 5


 203:../../../../../../Drivers/STM32L0xx_HAL_Driver/Src/stm32l0xx_hal_adc.c ****                    Into HAL_ADC_MspDeInit() (recommended code location) or with
 204:../../../../../../Drivers/STM32L0xx_HAL_Driver/Src/stm32l0xx_hal_adc.c ****                    other device clock parameters configuration:
 205:../../../../../../Drivers/STM32L0xx_HAL_Driver/Src/stm32l0xx_hal_adc.c ****                (+++) RCC_OscInitStructure.OscillatorType = RCC_OSCILLATORTYPE_HSI;
 206:../../../../../../Drivers/STM32L0xx_HAL_Driver/Src/stm32l0xx_hal_adc.c ****                (+++) RCC_OscInitStructure.HSIState = RCC_HSI_OFF; (if not used for system clock)
 207:../../../../../../Drivers/STM32L0xx_HAL_Driver/Src/stm32l0xx_hal_adc.c ****                (+++) HAL_RCC_OscConfig(&RCC_OscInitStructure);
 208:../../../../../../Drivers/STM32L0xx_HAL_Driver/Src/stm32l0xx_hal_adc.c **** 
 209:../../../../../../Drivers/STM32L0xx_HAL_Driver/Src/stm32l0xx_hal_adc.c ****     (#) ADC pins configuration
 210:../../../../../../Drivers/STM32L0xx_HAL_Driver/Src/stm32l0xx_hal_adc.c ****          (++) Disable the clock for the ADC GPIOs
 211:../../../../../../Drivers/STM32L0xx_HAL_Driver/Src/stm32l0xx_hal_adc.c ****               using macro __HAL_RCC_GPIOx_CLK_DISABLE()
 212:../../../../../../Drivers/STM32L0xx_HAL_Driver/Src/stm32l0xx_hal_adc.c **** 
 213:../../../../../../Drivers/STM32L0xx_HAL_Driver/Src/stm32l0xx_hal_adc.c ****     (#) Optionally, in case of usage of ADC with interruptions:
 214:../../../../../../Drivers/STM32L0xx_HAL_Driver/Src/stm32l0xx_hal_adc.c ****          (++) Disable the NVIC for ADC
 215:../../../../../../Drivers/STM32L0xx_HAL_Driver/Src/stm32l0xx_hal_adc.c ****               using function HAL_NVIC_EnableIRQ(ADCx_IRQn)
 216:../../../../../../Drivers/STM32L0xx_HAL_Driver/Src/stm32l0xx_hal_adc.c **** 
 217:../../../../../../Drivers/STM32L0xx_HAL_Driver/Src/stm32l0xx_hal_adc.c ****     (#) Optionally, in case of usage of DMA:
 218:../../../../../../Drivers/STM32L0xx_HAL_Driver/Src/stm32l0xx_hal_adc.c ****          (++) Deinitialize the DMA
 219:../../../../../../Drivers/STM32L0xx_HAL_Driver/Src/stm32l0xx_hal_adc.c ****               using function HAL_DMA_Init().
 220:../../../../../../Drivers/STM32L0xx_HAL_Driver/Src/stm32l0xx_hal_adc.c ****          (++) Disable the NVIC for DMA
 221:../../../../../../Drivers/STM32L0xx_HAL_Driver/Src/stm32l0xx_hal_adc.c ****               using function HAL_NVIC_EnableIRQ(DMAx_Channelx_IRQn)
 222:../../../../../../Drivers/STM32L0xx_HAL_Driver/Src/stm32l0xx_hal_adc.c **** 
 223:../../../../../../Drivers/STM32L0xx_HAL_Driver/Src/stm32l0xx_hal_adc.c ****     [..]
 224:../../../../../../Drivers/STM32L0xx_HAL_Driver/Src/stm32l0xx_hal_adc.c ****   
 225:../../../../../../Drivers/STM32L0xx_HAL_Driver/Src/stm32l0xx_hal_adc.c ****     @endverbatim
 226:../../../../../../Drivers/STM32L0xx_HAL_Driver/Src/stm32l0xx_hal_adc.c ****   ******************************************************************************
 227:../../../../../../Drivers/STM32L0xx_HAL_Driver/Src/stm32l0xx_hal_adc.c ****   * @attention
 228:../../../../../../Drivers/STM32L0xx_HAL_Driver/Src/stm32l0xx_hal_adc.c ****   *
 229:../../../../../../Drivers/STM32L0xx_HAL_Driver/Src/stm32l0xx_hal_adc.c ****   * <h2><center>&copy; COPYRIGHT(c) 2016 STMicroelectronics</center></h2>
 230:../../../../../../Drivers/STM32L0xx_HAL_Driver/Src/stm32l0xx_hal_adc.c ****   *
 231:../../../../../../Drivers/STM32L0xx_HAL_Driver/Src/stm32l0xx_hal_adc.c ****   * Redistribution and use in source and binary forms, with or without modification,
 232:../../../../../../Drivers/STM32L0xx_HAL_Driver/Src/stm32l0xx_hal_adc.c ****   * are permitted provided that the following conditions are met:
 233:../../../../../../Drivers/STM32L0xx_HAL_Driver/Src/stm32l0xx_hal_adc.c ****   *   1. Redistributions of source code must retain the above copyright notice,
 234:../../../../../../Drivers/STM32L0xx_HAL_Driver/Src/stm32l0xx_hal_adc.c ****   *      this list of conditions and the following disclaimer.
 235:../../../../../../Drivers/STM32L0xx_HAL_Driver/Src/stm32l0xx_hal_adc.c ****   *   2. Redistributions in binary form must reproduce the above copyright notice,
 236:../../../../../../Drivers/STM32L0xx_HAL_Driver/Src/stm32l0xx_hal_adc.c ****   *      this list of conditions and the following disclaimer in the documentation
 237:../../../../../../Drivers/STM32L0xx_HAL_Driver/Src/stm32l0xx_hal_adc.c ****   *      and/or other materials provided with the distribution.
 238:../../../../../../Drivers/STM32L0xx_HAL_Driver/Src/stm32l0xx_hal_adc.c ****   *   3. Neither the name of STMicroelectronics nor the names of its contributors
 239:../../../../../../Drivers/STM32L0xx_HAL_Driver/Src/stm32l0xx_hal_adc.c ****   *      may be used to endorse or promote products derived from this software
 240:../../../../../../Drivers/STM32L0xx_HAL_Driver/Src/stm32l0xx_hal_adc.c ****   *      without specific prior written permission.
 241:../../../../../../Drivers/STM32L0xx_HAL_Driver/Src/stm32l0xx_hal_adc.c ****   *
 242:../../../../../../Drivers/STM32L0xx_HAL_Driver/Src/stm32l0xx_hal_adc.c ****   * THIS SOFTWARE IS PROVIDED BY THE COPYRIGHT HOLDERS AND CONTRIBUTORS "AS IS"
 243:../../../../../../Drivers/STM32L0xx_HAL_Driver/Src/stm32l0xx_hal_adc.c ****   * AND ANY EXPRESS OR IMPLIED WARRANTIES, INCLUDING, BUT NOT LIMITED TO, THE
 244:../../../../../../Drivers/STM32L0xx_HAL_Driver/Src/stm32l0xx_hal_adc.c ****   * IMPLIED WARRANTIES OF MERCHANTABILITY AND FITNESS FOR A PARTICULAR PURPOSE ARE
 245:../../../../../../Drivers/STM32L0xx_HAL_Driver/Src/stm32l0xx_hal_adc.c ****   * DISCLAIMED. IN NO EVENT SHALL THE COPYRIGHT HOLDER OR CONTRIBUTORS BE LIABLE
 246:../../../../../../Drivers/STM32L0xx_HAL_Driver/Src/stm32l0xx_hal_adc.c ****   * FOR ANY DIRECT, INDIRECT, INCIDENTAL, SPECIAL, EXEMPLARY, OR CONSEQUENTIAL
 247:../../../../../../Drivers/STM32L0xx_HAL_Driver/Src/stm32l0xx_hal_adc.c ****   * DAMAGES (INCLUDING, BUT NOT LIMITED TO, PROCUREMENT OF SUBSTITUTE GOODS OR
 248:../../../../../../Drivers/STM32L0xx_HAL_Driver/Src/stm32l0xx_hal_adc.c ****   * SERVICES; LOSS OF USE, DATA, OR PROFITS; OR BUSINESS INTERRUPTION) HOWEVER
 249:../../../../../../Drivers/STM32L0xx_HAL_Driver/Src/stm32l0xx_hal_adc.c ****   * CAUSED AND ON ANY THEORY OF LIABILITY, WHETHER IN CONTRACT, STRICT LIABILITY,
 250:../../../../../../Drivers/STM32L0xx_HAL_Driver/Src/stm32l0xx_hal_adc.c ****   * OR TORT (INCLUDING NEGLIGENCE OR OTHERWISE) ARISING IN ANY WAY OUT OF THE USE
 251:../../../../../../Drivers/STM32L0xx_HAL_Driver/Src/stm32l0xx_hal_adc.c ****   * OF THIS SOFTWARE, EVEN IF ADVISED OF THE POSSIBILITY OF SUCH DAMAGE.
 252:../../../../../../Drivers/STM32L0xx_HAL_Driver/Src/stm32l0xx_hal_adc.c ****   *
 253:../../../../../../Drivers/STM32L0xx_HAL_Driver/Src/stm32l0xx_hal_adc.c ****   ******************************************************************************  
 254:../../../../../../Drivers/STM32L0xx_HAL_Driver/Src/stm32l0xx_hal_adc.c ****   */
 255:../../../../../../Drivers/STM32L0xx_HAL_Driver/Src/stm32l0xx_hal_adc.c **** 
 256:../../../../../../Drivers/STM32L0xx_HAL_Driver/Src/stm32l0xx_hal_adc.c **** /* Includes ------------------------------------------------------------------*/
 257:../../../../../../Drivers/STM32L0xx_HAL_Driver/Src/stm32l0xx_hal_adc.c **** #include "stm32l0xx_hal.h"
 258:../../../../../../Drivers/STM32L0xx_HAL_Driver/Src/stm32l0xx_hal_adc.c **** 
 259:../../../../../../Drivers/STM32L0xx_HAL_Driver/Src/stm32l0xx_hal_adc.c **** /** @addtogroup STM32L0xx_HAL_Driver
ARM GAS  C:\Users\EBANO_~1\AppData\Local\Temp\cc7eeVhF.s 			page 6


 260:../../../../../../Drivers/STM32L0xx_HAL_Driver/Src/stm32l0xx_hal_adc.c ****   * @{
 261:../../../../../../Drivers/STM32L0xx_HAL_Driver/Src/stm32l0xx_hal_adc.c ****   */
 262:../../../../../../Drivers/STM32L0xx_HAL_Driver/Src/stm32l0xx_hal_adc.c **** 
 263:../../../../../../Drivers/STM32L0xx_HAL_Driver/Src/stm32l0xx_hal_adc.c **** /** @defgroup ADC ADC
 264:../../../../../../Drivers/STM32L0xx_HAL_Driver/Src/stm32l0xx_hal_adc.c ****   * @brief ADC HAL module driver
 265:../../../../../../Drivers/STM32L0xx_HAL_Driver/Src/stm32l0xx_hal_adc.c ****   * @{
 266:../../../../../../Drivers/STM32L0xx_HAL_Driver/Src/stm32l0xx_hal_adc.c ****   */
 267:../../../../../../Drivers/STM32L0xx_HAL_Driver/Src/stm32l0xx_hal_adc.c **** 
 268:../../../../../../Drivers/STM32L0xx_HAL_Driver/Src/stm32l0xx_hal_adc.c **** #ifdef HAL_ADC_MODULE_ENABLED
 269:../../../../../../Drivers/STM32L0xx_HAL_Driver/Src/stm32l0xx_hal_adc.c **** 
 270:../../../../../../Drivers/STM32L0xx_HAL_Driver/Src/stm32l0xx_hal_adc.c **** /* Private typedef -----------------------------------------------------------*/
 271:../../../../../../Drivers/STM32L0xx_HAL_Driver/Src/stm32l0xx_hal_adc.c **** /* Private define ------------------------------------------------------------*/
 272:../../../../../../Drivers/STM32L0xx_HAL_Driver/Src/stm32l0xx_hal_adc.c **** 
 273:../../../../../../Drivers/STM32L0xx_HAL_Driver/Src/stm32l0xx_hal_adc.c **** /** @defgroup ADC_Private_Constants ADC Private Constants
 274:../../../../../../Drivers/STM32L0xx_HAL_Driver/Src/stm32l0xx_hal_adc.c ****   * @{
 275:../../../../../../Drivers/STM32L0xx_HAL_Driver/Src/stm32l0xx_hal_adc.c ****   */
 276:../../../../../../Drivers/STM32L0xx_HAL_Driver/Src/stm32l0xx_hal_adc.c **** 
 277:../../../../../../Drivers/STM32L0xx_HAL_Driver/Src/stm32l0xx_hal_adc.c **** /* Delay for ADC stabilization time.                                          */
 278:../../../../../../Drivers/STM32L0xx_HAL_Driver/Src/stm32l0xx_hal_adc.c **** /* Maximum delay is 1us (refer to device datasheet, parameter tSTART). */
 279:../../../../../../Drivers/STM32L0xx_HAL_Driver/Src/stm32l0xx_hal_adc.c **** /* Unit: us */
 280:../../../../../../Drivers/STM32L0xx_HAL_Driver/Src/stm32l0xx_hal_adc.c **** #define ADC_STAB_DELAY_US       ((uint32_t) 1U)
 281:../../../../../../Drivers/STM32L0xx_HAL_Driver/Src/stm32l0xx_hal_adc.c **** 
 282:../../../../../../Drivers/STM32L0xx_HAL_Driver/Src/stm32l0xx_hal_adc.c **** /* Delay for temperature sensor stabilization time. */
 283:../../../../../../Drivers/STM32L0xx_HAL_Driver/Src/stm32l0xx_hal_adc.c **** /* Maximum delay is 10us (refer to device datasheet, parameter tSTART). */
 284:../../../../../../Drivers/STM32L0xx_HAL_Driver/Src/stm32l0xx_hal_adc.c **** /* Unit: us */
 285:../../../../../../Drivers/STM32L0xx_HAL_Driver/Src/stm32l0xx_hal_adc.c **** #define ADC_TEMPSENSOR_DELAY_US ((uint32_t) 10U) 
 286:../../../../../../Drivers/STM32L0xx_HAL_Driver/Src/stm32l0xx_hal_adc.c **** /**
 287:../../../../../../Drivers/STM32L0xx_HAL_Driver/Src/stm32l0xx_hal_adc.c ****   * @}
 288:../../../../../../Drivers/STM32L0xx_HAL_Driver/Src/stm32l0xx_hal_adc.c ****   */
 289:../../../../../../Drivers/STM32L0xx_HAL_Driver/Src/stm32l0xx_hal_adc.c **** 
 290:../../../../../../Drivers/STM32L0xx_HAL_Driver/Src/stm32l0xx_hal_adc.c **** /* Private macro -------------------------------------------------------------*/
 291:../../../../../../Drivers/STM32L0xx_HAL_Driver/Src/stm32l0xx_hal_adc.c **** /* Private variables ---------------------------------------------------------*/
 292:../../../../../../Drivers/STM32L0xx_HAL_Driver/Src/stm32l0xx_hal_adc.c **** /* Private function prototypes -----------------------------------------------*/
 293:../../../../../../Drivers/STM32L0xx_HAL_Driver/Src/stm32l0xx_hal_adc.c **** /** @defgroup ADC_Private_Functions ADC Private Functions
 294:../../../../../../Drivers/STM32L0xx_HAL_Driver/Src/stm32l0xx_hal_adc.c ****   * @{
 295:../../../../../../Drivers/STM32L0xx_HAL_Driver/Src/stm32l0xx_hal_adc.c ****   */
 296:../../../../../../Drivers/STM32L0xx_HAL_Driver/Src/stm32l0xx_hal_adc.c **** static HAL_StatusTypeDef ADC_Enable(ADC_HandleTypeDef* hadc);
 297:../../../../../../Drivers/STM32L0xx_HAL_Driver/Src/stm32l0xx_hal_adc.c **** static HAL_StatusTypeDef ADC_Disable(ADC_HandleTypeDef* hadc);
 298:../../../../../../Drivers/STM32L0xx_HAL_Driver/Src/stm32l0xx_hal_adc.c **** static HAL_StatusTypeDef ADC_ConversionStop(ADC_HandleTypeDef* hadc);
 299:../../../../../../Drivers/STM32L0xx_HAL_Driver/Src/stm32l0xx_hal_adc.c **** static void ADC_DMAConvCplt(DMA_HandleTypeDef *hdma);
 300:../../../../../../Drivers/STM32L0xx_HAL_Driver/Src/stm32l0xx_hal_adc.c **** static void ADC_DMAHalfConvCplt(DMA_HandleTypeDef *hdma);
 301:../../../../../../Drivers/STM32L0xx_HAL_Driver/Src/stm32l0xx_hal_adc.c **** static void ADC_DMAError(DMA_HandleTypeDef *hdma);
 302:../../../../../../Drivers/STM32L0xx_HAL_Driver/Src/stm32l0xx_hal_adc.c **** static void ADC_DelayMicroSecond(uint32_t microSecond);
 303:../../../../../../Drivers/STM32L0xx_HAL_Driver/Src/stm32l0xx_hal_adc.c **** /**
 304:../../../../../../Drivers/STM32L0xx_HAL_Driver/Src/stm32l0xx_hal_adc.c ****   * @}
 305:../../../../../../Drivers/STM32L0xx_HAL_Driver/Src/stm32l0xx_hal_adc.c ****   */
 306:../../../../../../Drivers/STM32L0xx_HAL_Driver/Src/stm32l0xx_hal_adc.c **** 
 307:../../../../../../Drivers/STM32L0xx_HAL_Driver/Src/stm32l0xx_hal_adc.c **** /* Exported functions ---------------------------------------------------------*/
 308:../../../../../../Drivers/STM32L0xx_HAL_Driver/Src/stm32l0xx_hal_adc.c **** 
 309:../../../../../../Drivers/STM32L0xx_HAL_Driver/Src/stm32l0xx_hal_adc.c **** /** @defgroup ADC_Exported_Functions ADC Exported Functions
 310:../../../../../../Drivers/STM32L0xx_HAL_Driver/Src/stm32l0xx_hal_adc.c ****   * @{
 311:../../../../../../Drivers/STM32L0xx_HAL_Driver/Src/stm32l0xx_hal_adc.c ****   */
 312:../../../../../../Drivers/STM32L0xx_HAL_Driver/Src/stm32l0xx_hal_adc.c **** 
 313:../../../../../../Drivers/STM32L0xx_HAL_Driver/Src/stm32l0xx_hal_adc.c **** /** @defgroup ADC_Exported_Functions_Group1 Initialization and de-initialization functions
 314:../../../../../../Drivers/STM32L0xx_HAL_Driver/Src/stm32l0xx_hal_adc.c ****   * @brief    ADC Initialization and Configuration functions
 315:../../../../../../Drivers/STM32L0xx_HAL_Driver/Src/stm32l0xx_hal_adc.c ****   *
 316:../../../../../../Drivers/STM32L0xx_HAL_Driver/Src/stm32l0xx_hal_adc.c **** @verbatim    
ARM GAS  C:\Users\EBANO_~1\AppData\Local\Temp\cc7eeVhF.s 			page 7


 317:../../../../../../Drivers/STM32L0xx_HAL_Driver/Src/stm32l0xx_hal_adc.c ****  ===============================================================================
 318:../../../../../../Drivers/STM32L0xx_HAL_Driver/Src/stm32l0xx_hal_adc.c ****               ##### Initialization and de-initialization functions #####
 319:../../../../../../Drivers/STM32L0xx_HAL_Driver/Src/stm32l0xx_hal_adc.c ****  ===============================================================================
 320:../../../../../../Drivers/STM32L0xx_HAL_Driver/Src/stm32l0xx_hal_adc.c ****     [..]  This section provides functions allowing to:
 321:../../../../../../Drivers/STM32L0xx_HAL_Driver/Src/stm32l0xx_hal_adc.c ****       (+) Initialize and configure the ADC. 
 322:../../../../../../Drivers/STM32L0xx_HAL_Driver/Src/stm32l0xx_hal_adc.c ****       (+) De-initialize the ADC.
 323:../../../../../../Drivers/STM32L0xx_HAL_Driver/Src/stm32l0xx_hal_adc.c **** @endverbatim
 324:../../../../../../Drivers/STM32L0xx_HAL_Driver/Src/stm32l0xx_hal_adc.c ****   * @{
 325:../../../../../../Drivers/STM32L0xx_HAL_Driver/Src/stm32l0xx_hal_adc.c ****   */
 326:../../../../../../Drivers/STM32L0xx_HAL_Driver/Src/stm32l0xx_hal_adc.c **** 
 327:../../../../../../Drivers/STM32L0xx_HAL_Driver/Src/stm32l0xx_hal_adc.c **** /**
 328:../../../../../../Drivers/STM32L0xx_HAL_Driver/Src/stm32l0xx_hal_adc.c ****   * @brief  Initialize the ADC peripheral and regular group according to  
 329:../../../../../../Drivers/STM32L0xx_HAL_Driver/Src/stm32l0xx_hal_adc.c ****   *         parameters specified in structure "ADC_InitTypeDef".
 330:../../../../../../Drivers/STM32L0xx_HAL_Driver/Src/stm32l0xx_hal_adc.c ****   * @note   As prerequisite, ADC clock must be configured at RCC top level
 331:../../../../../../Drivers/STM32L0xx_HAL_Driver/Src/stm32l0xx_hal_adc.c ****   *         depending on possible clock sources: APB clock of HSI clock.
 332:../../../../../../Drivers/STM32L0xx_HAL_Driver/Src/stm32l0xx_hal_adc.c ****   *         See commented example code below that can be copied and uncommented
 333:../../../../../../Drivers/STM32L0xx_HAL_Driver/Src/stm32l0xx_hal_adc.c ****   *         into HAL_ADC_MspInit().
 334:../../../../../../Drivers/STM32L0xx_HAL_Driver/Src/stm32l0xx_hal_adc.c ****   * @note   Possibility to update parameters on the fly:
 335:../../../../../../Drivers/STM32L0xx_HAL_Driver/Src/stm32l0xx_hal_adc.c ****   *         This function initializes the ADC MSP (HAL_ADC_MspInit()) only when
 336:../../../../../../Drivers/STM32L0xx_HAL_Driver/Src/stm32l0xx_hal_adc.c ****   *         coming from ADC state reset. Following calls to this function can
 337:../../../../../../Drivers/STM32L0xx_HAL_Driver/Src/stm32l0xx_hal_adc.c ****   *         be used to reconfigure some parameters of ADC_InitTypeDef  
 338:../../../../../../Drivers/STM32L0xx_HAL_Driver/Src/stm32l0xx_hal_adc.c ****   *         structure on the fly, without modifying MSP configuration. If ADC  
 339:../../../../../../Drivers/STM32L0xx_HAL_Driver/Src/stm32l0xx_hal_adc.c ****   *         MSP has to be modified again, HAL_ADC_DeInit() must be called
 340:../../../../../../Drivers/STM32L0xx_HAL_Driver/Src/stm32l0xx_hal_adc.c ****   *         before HAL_ADC_Init().
 341:../../../../../../Drivers/STM32L0xx_HAL_Driver/Src/stm32l0xx_hal_adc.c ****   *         The setting of these parameters is conditioned to ADC state.
 342:../../../../../../Drivers/STM32L0xx_HAL_Driver/Src/stm32l0xx_hal_adc.c ****   *         For parameters constraints, see comments of structure 
 343:../../../../../../Drivers/STM32L0xx_HAL_Driver/Src/stm32l0xx_hal_adc.c ****   *         "ADC_InitTypeDef".
 344:../../../../../../Drivers/STM32L0xx_HAL_Driver/Src/stm32l0xx_hal_adc.c ****   * @note   This function configures the ADC within 2 scopes: scope of entire 
 345:../../../../../../Drivers/STM32L0xx_HAL_Driver/Src/stm32l0xx_hal_adc.c ****   *         ADC and scope of regular group. For parameters details, see comments 
 346:../../../../../../Drivers/STM32L0xx_HAL_Driver/Src/stm32l0xx_hal_adc.c ****   *         of structure "ADC_InitTypeDef".
 347:../../../../../../Drivers/STM32L0xx_HAL_Driver/Src/stm32l0xx_hal_adc.c ****   * @note   When device is in mode low-power (low-power run, low-power sleep or stop mode), 
 348:../../../../../../Drivers/STM32L0xx_HAL_Driver/Src/stm32l0xx_hal_adc.c ****   *         function "HAL_ADCEx_EnableVREFINT()" must be called before function HAL_ADC_Init() 
 349:../../../../../../Drivers/STM32L0xx_HAL_Driver/Src/stm32l0xx_hal_adc.c ****   *         (in case of previous ADC operations: function HAL_ADC_DeInit() must be called first).
 350:../../../../../../Drivers/STM32L0xx_HAL_Driver/Src/stm32l0xx_hal_adc.c ****   *         In case of internal temperature sensor to be measured:
 351:../../../../../../Drivers/STM32L0xx_HAL_Driver/Src/stm32l0xx_hal_adc.c ****   *         function "HAL_ADCEx_EnableVREFINTTempSensor()" must be called similarilly.  
 352:../../../../../../Drivers/STM32L0xx_HAL_Driver/Src/stm32l0xx_hal_adc.c ****   * @param  hadc ADC handle
 353:../../../../../../Drivers/STM32L0xx_HAL_Driver/Src/stm32l0xx_hal_adc.c ****   * @retval HAL status
 354:../../../../../../Drivers/STM32L0xx_HAL_Driver/Src/stm32l0xx_hal_adc.c ****   */
 355:../../../../../../Drivers/STM32L0xx_HAL_Driver/Src/stm32l0xx_hal_adc.c **** HAL_StatusTypeDef HAL_ADC_Init(ADC_HandleTypeDef* hadc)
 356:../../../../../../Drivers/STM32L0xx_HAL_Driver/Src/stm32l0xx_hal_adc.c **** {
 357:../../../../../../Drivers/STM32L0xx_HAL_Driver/Src/stm32l0xx_hal_adc.c ****  
 358:../../../../../../Drivers/STM32L0xx_HAL_Driver/Src/stm32l0xx_hal_adc.c ****   /* Check ADC handle */
 359:../../../../../../Drivers/STM32L0xx_HAL_Driver/Src/stm32l0xx_hal_adc.c ****   if(hadc == NULL)
 360:../../../../../../Drivers/STM32L0xx_HAL_Driver/Src/stm32l0xx_hal_adc.c ****   {
 361:../../../../../../Drivers/STM32L0xx_HAL_Driver/Src/stm32l0xx_hal_adc.c ****     return HAL_ERROR;
 362:../../../../../../Drivers/STM32L0xx_HAL_Driver/Src/stm32l0xx_hal_adc.c ****   }
 363:../../../../../../Drivers/STM32L0xx_HAL_Driver/Src/stm32l0xx_hal_adc.c ****   
 364:../../../../../../Drivers/STM32L0xx_HAL_Driver/Src/stm32l0xx_hal_adc.c ****   /* Check the parameters */
 365:../../../../../../Drivers/STM32L0xx_HAL_Driver/Src/stm32l0xx_hal_adc.c ****   assert_param(IS_ADC_ALL_INSTANCE(hadc->Instance));
 366:../../../../../../Drivers/STM32L0xx_HAL_Driver/Src/stm32l0xx_hal_adc.c ****   assert_param(IS_ADC_CLOCKPRESCALER(hadc->Init.ClockPrescaler));
 367:../../../../../../Drivers/STM32L0xx_HAL_Driver/Src/stm32l0xx_hal_adc.c ****   assert_param(IS_ADC_RESOLUTION(hadc->Init.Resolution));
 368:../../../../../../Drivers/STM32L0xx_HAL_Driver/Src/stm32l0xx_hal_adc.c ****   assert_param(IS_ADC_DATA_ALIGN(hadc->Init.DataAlign));
 369:../../../../../../Drivers/STM32L0xx_HAL_Driver/Src/stm32l0xx_hal_adc.c ****   assert_param(IS_ADC_SCAN_MODE(hadc->Init.ScanConvMode));
 370:../../../../../../Drivers/STM32L0xx_HAL_Driver/Src/stm32l0xx_hal_adc.c ****   assert_param(IS_FUNCTIONAL_STATE(hadc->Init.ContinuousConvMode));
 371:../../../../../../Drivers/STM32L0xx_HAL_Driver/Src/stm32l0xx_hal_adc.c ****   assert_param(IS_FUNCTIONAL_STATE(hadc->Init.DiscontinuousConvMode));
 372:../../../../../../Drivers/STM32L0xx_HAL_Driver/Src/stm32l0xx_hal_adc.c ****   assert_param(IS_ADC_EXTTRIG_EDGE(hadc->Init.ExternalTrigConvEdge));
 373:../../../../../../Drivers/STM32L0xx_HAL_Driver/Src/stm32l0xx_hal_adc.c ****   assert_param(IS_ADC_EXTTRIG(hadc->Init.ExternalTrigConv));
ARM GAS  C:\Users\EBANO_~1\AppData\Local\Temp\cc7eeVhF.s 			page 8


 374:../../../../../../Drivers/STM32L0xx_HAL_Driver/Src/stm32l0xx_hal_adc.c ****   assert_param(IS_FUNCTIONAL_STATE(hadc->Init.DMAContinuousRequests));
 375:../../../../../../Drivers/STM32L0xx_HAL_Driver/Src/stm32l0xx_hal_adc.c ****   assert_param(IS_ADC_EOC_SELECTION(hadc->Init.EOCSelection));
 376:../../../../../../Drivers/STM32L0xx_HAL_Driver/Src/stm32l0xx_hal_adc.c ****   assert_param(IS_ADC_OVERRUN(hadc->Init.Overrun));
 377:../../../../../../Drivers/STM32L0xx_HAL_Driver/Src/stm32l0xx_hal_adc.c ****   assert_param(IS_FUNCTIONAL_STATE(hadc->Init.LowPowerAutoWait));
 378:../../../../../../Drivers/STM32L0xx_HAL_Driver/Src/stm32l0xx_hal_adc.c ****   assert_param(IS_FUNCTIONAL_STATE(hadc->Init.LowPowerFrequencyMode));
 379:../../../../../../Drivers/STM32L0xx_HAL_Driver/Src/stm32l0xx_hal_adc.c ****   assert_param(IS_FUNCTIONAL_STATE(hadc->Init.LowPowerAutoPowerOff));
 380:../../../../../../Drivers/STM32L0xx_HAL_Driver/Src/stm32l0xx_hal_adc.c ****   assert_param(IS_ADC_SAMPLE_TIME(hadc->Init.SamplingTime));
 381:../../../../../../Drivers/STM32L0xx_HAL_Driver/Src/stm32l0xx_hal_adc.c ****   assert_param(IS_FUNCTIONAL_STATE(hadc->Init.OversamplingMode));
 382:../../../../../../Drivers/STM32L0xx_HAL_Driver/Src/stm32l0xx_hal_adc.c **** 
 383:../../../../../../Drivers/STM32L0xx_HAL_Driver/Src/stm32l0xx_hal_adc.c ****   /* As prerequisite, into HAL_ADC_MspInit(), ADC clock must be configured    */
 384:../../../../../../Drivers/STM32L0xx_HAL_Driver/Src/stm32l0xx_hal_adc.c ****   /* at RCC top level depending on both possible clock sources:               */
 385:../../../../../../Drivers/STM32L0xx_HAL_Driver/Src/stm32l0xx_hal_adc.c ****   /* APB clock or HSI clock.                                                  */
 386:../../../../../../Drivers/STM32L0xx_HAL_Driver/Src/stm32l0xx_hal_adc.c ****   /* Refer to header of this file for more details on clock enabling procedure*/
 387:../../../../../../Drivers/STM32L0xx_HAL_Driver/Src/stm32l0xx_hal_adc.c ****   
 388:../../../../../../Drivers/STM32L0xx_HAL_Driver/Src/stm32l0xx_hal_adc.c ****   /* Actions performed only if ADC is coming from state reset:                */
 389:../../../../../../Drivers/STM32L0xx_HAL_Driver/Src/stm32l0xx_hal_adc.c ****   /* - Initialization of ADC MSP                                              */
 390:../../../../../../Drivers/STM32L0xx_HAL_Driver/Src/stm32l0xx_hal_adc.c ****   /* - ADC voltage regulator enable                                           */
 391:../../../../../../Drivers/STM32L0xx_HAL_Driver/Src/stm32l0xx_hal_adc.c ****   if(hadc->State == HAL_ADC_STATE_RESET)
 392:../../../../../../Drivers/STM32L0xx_HAL_Driver/Src/stm32l0xx_hal_adc.c ****   {
 393:../../../../../../Drivers/STM32L0xx_HAL_Driver/Src/stm32l0xx_hal_adc.c ****     /* Initialize ADC error code */
 394:../../../../../../Drivers/STM32L0xx_HAL_Driver/Src/stm32l0xx_hal_adc.c ****     ADC_CLEAR_ERRORCODE(hadc);
 395:../../../../../../Drivers/STM32L0xx_HAL_Driver/Src/stm32l0xx_hal_adc.c ****     
 396:../../../../../../Drivers/STM32L0xx_HAL_Driver/Src/stm32l0xx_hal_adc.c ****     /* Allocate lock resource and initialize it */
 397:../../../../../../Drivers/STM32L0xx_HAL_Driver/Src/stm32l0xx_hal_adc.c ****     hadc->Lock = HAL_UNLOCKED;
 398:../../../../../../Drivers/STM32L0xx_HAL_Driver/Src/stm32l0xx_hal_adc.c ****     
 399:../../../../../../Drivers/STM32L0xx_HAL_Driver/Src/stm32l0xx_hal_adc.c ****     /* Init the low level hardware */
 400:../../../../../../Drivers/STM32L0xx_HAL_Driver/Src/stm32l0xx_hal_adc.c ****     HAL_ADC_MspInit(hadc);
 401:../../../../../../Drivers/STM32L0xx_HAL_Driver/Src/stm32l0xx_hal_adc.c ****   }
 402:../../../../../../Drivers/STM32L0xx_HAL_Driver/Src/stm32l0xx_hal_adc.c ****   
 403:../../../../../../Drivers/STM32L0xx_HAL_Driver/Src/stm32l0xx_hal_adc.c ****   /* Configuration of ADC parameters if previous preliminary actions are      */ 
 404:../../../../../../Drivers/STM32L0xx_HAL_Driver/Src/stm32l0xx_hal_adc.c ****   /* correctly completed.                                                     */
 405:../../../../../../Drivers/STM32L0xx_HAL_Driver/Src/stm32l0xx_hal_adc.c ****   /* and if there is no conversion on going on regular group (ADC can be      */
 406:../../../../../../Drivers/STM32L0xx_HAL_Driver/Src/stm32l0xx_hal_adc.c ****   /* enabled anyway, in case of call of this function to update a parameter   */
 407:../../../../../../Drivers/STM32L0xx_HAL_Driver/Src/stm32l0xx_hal_adc.c ****   /* on the fly).                                                             */
 408:../../../../../../Drivers/STM32L0xx_HAL_Driver/Src/stm32l0xx_hal_adc.c ****   if (HAL_IS_BIT_SET(hadc->State, HAL_ADC_STATE_ERROR_INTERNAL) ||
 409:../../../../../../Drivers/STM32L0xx_HAL_Driver/Src/stm32l0xx_hal_adc.c ****      (ADC_IS_CONVERSION_ONGOING_REGULAR(hadc) != RESET)  )
 410:../../../../../../Drivers/STM32L0xx_HAL_Driver/Src/stm32l0xx_hal_adc.c ****   {
 411:../../../../../../Drivers/STM32L0xx_HAL_Driver/Src/stm32l0xx_hal_adc.c ****     /* Update ADC state machine to error */
 412:../../../../../../Drivers/STM32L0xx_HAL_Driver/Src/stm32l0xx_hal_adc.c ****     SET_BIT(hadc->State, HAL_ADC_STATE_ERROR_INTERNAL);
 413:../../../../../../Drivers/STM32L0xx_HAL_Driver/Src/stm32l0xx_hal_adc.c ****         
 414:../../../../../../Drivers/STM32L0xx_HAL_Driver/Src/stm32l0xx_hal_adc.c ****     /* Process unlocked */
 415:../../../../../../Drivers/STM32L0xx_HAL_Driver/Src/stm32l0xx_hal_adc.c ****     __HAL_UNLOCK(hadc);
 416:../../../../../../Drivers/STM32L0xx_HAL_Driver/Src/stm32l0xx_hal_adc.c ****     return HAL_ERROR;
 417:../../../../../../Drivers/STM32L0xx_HAL_Driver/Src/stm32l0xx_hal_adc.c ****   }
 418:../../../../../../Drivers/STM32L0xx_HAL_Driver/Src/stm32l0xx_hal_adc.c **** 
 419:../../../../../../Drivers/STM32L0xx_HAL_Driver/Src/stm32l0xx_hal_adc.c ****   /* Set ADC state */
 420:../../../../../../Drivers/STM32L0xx_HAL_Driver/Src/stm32l0xx_hal_adc.c ****   ADC_STATE_CLR_SET(hadc->State,
 421:../../../../../../Drivers/STM32L0xx_HAL_Driver/Src/stm32l0xx_hal_adc.c ****                     HAL_ADC_STATE_REG_BUSY,
 422:../../../../../../Drivers/STM32L0xx_HAL_Driver/Src/stm32l0xx_hal_adc.c ****                     HAL_ADC_STATE_BUSY_INTERNAL);
 423:../../../../../../Drivers/STM32L0xx_HAL_Driver/Src/stm32l0xx_hal_adc.c **** 
 424:../../../../../../Drivers/STM32L0xx_HAL_Driver/Src/stm32l0xx_hal_adc.c ****   /* Parameters update conditioned to ADC state:                            */
 425:../../../../../../Drivers/STM32L0xx_HAL_Driver/Src/stm32l0xx_hal_adc.c ****   /* Parameters that can be updated only when ADC is disabled:              */
 426:../../../../../../Drivers/STM32L0xx_HAL_Driver/Src/stm32l0xx_hal_adc.c ****   /*  - ADC clock mode                                                      */
 427:../../../../../../Drivers/STM32L0xx_HAL_Driver/Src/stm32l0xx_hal_adc.c ****   /*  - ADC clock prescaler                                                 */
 428:../../../../../../Drivers/STM32L0xx_HAL_Driver/Src/stm32l0xx_hal_adc.c ****   /*  - ADC Resolution                                                      */
 429:../../../../../../Drivers/STM32L0xx_HAL_Driver/Src/stm32l0xx_hal_adc.c ****   if (ADC_IS_ENABLE(hadc) == RESET)
 430:../../../../../../Drivers/STM32L0xx_HAL_Driver/Src/stm32l0xx_hal_adc.c ****   {
ARM GAS  C:\Users\EBANO_~1\AppData\Local\Temp\cc7eeVhF.s 			page 9


 431:../../../../../../Drivers/STM32L0xx_HAL_Driver/Src/stm32l0xx_hal_adc.c ****     /* Some parameters of this register are not reset, since they are set   */
 432:../../../../../../Drivers/STM32L0xx_HAL_Driver/Src/stm32l0xx_hal_adc.c ****     /* by other functions and must be kept in case of usage of this         */
 433:../../../../../../Drivers/STM32L0xx_HAL_Driver/Src/stm32l0xx_hal_adc.c ****     /* function on the fly (update of a parameter of ADC_InitTypeDef        */
 434:../../../../../../Drivers/STM32L0xx_HAL_Driver/Src/stm32l0xx_hal_adc.c ****     /* without needing to reconfigure all other ADC groups/channels         */
 435:../../../../../../Drivers/STM32L0xx_HAL_Driver/Src/stm32l0xx_hal_adc.c ****     /* parameters):                                                         */
 436:../../../../../../Drivers/STM32L0xx_HAL_Driver/Src/stm32l0xx_hal_adc.c ****     /*   - internal measurement paths: Vbat, temperature sensor, Vref       */
 437:../../../../../../Drivers/STM32L0xx_HAL_Driver/Src/stm32l0xx_hal_adc.c ****     /*     (set into HAL_ADC_ConfigChannel() )                              */
 438:../../../../../../Drivers/STM32L0xx_HAL_Driver/Src/stm32l0xx_hal_adc.c ****    
 439:../../../../../../Drivers/STM32L0xx_HAL_Driver/Src/stm32l0xx_hal_adc.c ****     /* Configuration of ADC clock: clock source PCLK or asynchronous with 
 440:../../../../../../Drivers/STM32L0xx_HAL_Driver/Src/stm32l0xx_hal_adc.c ****     selectable prescaler */
 441:../../../../../../Drivers/STM32L0xx_HAL_Driver/Src/stm32l0xx_hal_adc.c ****     __HAL_ADC_CLOCK_PRESCALER(hadc);
 442:../../../../../../Drivers/STM32L0xx_HAL_Driver/Src/stm32l0xx_hal_adc.c ****     
 443:../../../../../../Drivers/STM32L0xx_HAL_Driver/Src/stm32l0xx_hal_adc.c ****     /* Configuration of ADC:                                                */
 444:../../../../../../Drivers/STM32L0xx_HAL_Driver/Src/stm32l0xx_hal_adc.c ****     /*  - Resolution                                                        */
 445:../../../../../../Drivers/STM32L0xx_HAL_Driver/Src/stm32l0xx_hal_adc.c ****     hadc->Instance->CFGR1 &= ~( ADC_CFGR1_RES);
 446:../../../../../../Drivers/STM32L0xx_HAL_Driver/Src/stm32l0xx_hal_adc.c ****     hadc->Instance->CFGR1 |= hadc->Init.Resolution;    
 447:../../../../../../Drivers/STM32L0xx_HAL_Driver/Src/stm32l0xx_hal_adc.c ****   }
 448:../../../../../../Drivers/STM32L0xx_HAL_Driver/Src/stm32l0xx_hal_adc.c ****   
 449:../../../../../../Drivers/STM32L0xx_HAL_Driver/Src/stm32l0xx_hal_adc.c ****   /* Set the Low Frequency mode */
 450:../../../../../../Drivers/STM32L0xx_HAL_Driver/Src/stm32l0xx_hal_adc.c ****   ADC->CCR &= (uint32_t)~ADC_CCR_LFMEN;
 451:../../../../../../Drivers/STM32L0xx_HAL_Driver/Src/stm32l0xx_hal_adc.c ****   ADC->CCR |=__HAL_ADC_CCR_LOWFREQUENCY(hadc->Init.LowPowerFrequencyMode);  
 452:../../../../../../Drivers/STM32L0xx_HAL_Driver/Src/stm32l0xx_hal_adc.c ****    
 453:../../../../../../Drivers/STM32L0xx_HAL_Driver/Src/stm32l0xx_hal_adc.c ****   /* Enable voltage regulator (if disabled at this step) */
 454:../../../../../../Drivers/STM32L0xx_HAL_Driver/Src/stm32l0xx_hal_adc.c ****   if (HAL_IS_BIT_CLR(hadc->Instance->CR, ADC_CR_ADVREGEN))
 455:../../../../../../Drivers/STM32L0xx_HAL_Driver/Src/stm32l0xx_hal_adc.c ****   {
 456:../../../../../../Drivers/STM32L0xx_HAL_Driver/Src/stm32l0xx_hal_adc.c ****     /* Set ADVREGEN bit */
 457:../../../../../../Drivers/STM32L0xx_HAL_Driver/Src/stm32l0xx_hal_adc.c ****     hadc->Instance->CR |= ADC_CR_ADVREGEN;
 458:../../../../../../Drivers/STM32L0xx_HAL_Driver/Src/stm32l0xx_hal_adc.c ****   }
 459:../../../../../../Drivers/STM32L0xx_HAL_Driver/Src/stm32l0xx_hal_adc.c ****   
 460:../../../../../../Drivers/STM32L0xx_HAL_Driver/Src/stm32l0xx_hal_adc.c ****   /* Configuration of ADC:                                                    */
 461:../../../../../../Drivers/STM32L0xx_HAL_Driver/Src/stm32l0xx_hal_adc.c ****   /*  - Resolution                                                            */
 462:../../../../../../Drivers/STM32L0xx_HAL_Driver/Src/stm32l0xx_hal_adc.c ****   /*  - Data alignment                                                        */
 463:../../../../../../Drivers/STM32L0xx_HAL_Driver/Src/stm32l0xx_hal_adc.c ****   /*  - Scan direction                                                        */
 464:../../../../../../Drivers/STM32L0xx_HAL_Driver/Src/stm32l0xx_hal_adc.c ****   /*  - External trigger to start conversion                                  */
 465:../../../../../../Drivers/STM32L0xx_HAL_Driver/Src/stm32l0xx_hal_adc.c ****   /*  - External trigger polarity                                             */
 466:../../../../../../Drivers/STM32L0xx_HAL_Driver/Src/stm32l0xx_hal_adc.c ****   /*  - Continuous conversion mode                                            */
 467:../../../../../../Drivers/STM32L0xx_HAL_Driver/Src/stm32l0xx_hal_adc.c ****   /*  - DMA continuous request                                                */
 468:../../../../../../Drivers/STM32L0xx_HAL_Driver/Src/stm32l0xx_hal_adc.c ****   /*  - Overrun                                                               */
 469:../../../../../../Drivers/STM32L0xx_HAL_Driver/Src/stm32l0xx_hal_adc.c ****   /*  - AutoDelay feature                                                     */
 470:../../../../../../Drivers/STM32L0xx_HAL_Driver/Src/stm32l0xx_hal_adc.c ****   /*  - Discontinuous mode                                                    */
 471:../../../../../../Drivers/STM32L0xx_HAL_Driver/Src/stm32l0xx_hal_adc.c ****   hadc->Instance->CFGR1 &= ~(ADC_CFGR1_ALIGN   |
 472:../../../../../../Drivers/STM32L0xx_HAL_Driver/Src/stm32l0xx_hal_adc.c ****                              ADC_CFGR1_SCANDIR |
 473:../../../../../../Drivers/STM32L0xx_HAL_Driver/Src/stm32l0xx_hal_adc.c ****                              ADC_CFGR1_EXTSEL  |
 474:../../../../../../Drivers/STM32L0xx_HAL_Driver/Src/stm32l0xx_hal_adc.c ****                              ADC_CFGR1_EXTEN   |
 475:../../../../../../Drivers/STM32L0xx_HAL_Driver/Src/stm32l0xx_hal_adc.c ****                              ADC_CFGR1_CONT    |
 476:../../../../../../Drivers/STM32L0xx_HAL_Driver/Src/stm32l0xx_hal_adc.c ****                              ADC_CFGR1_DMACFG  |
 477:../../../../../../Drivers/STM32L0xx_HAL_Driver/Src/stm32l0xx_hal_adc.c ****                              ADC_CFGR1_OVRMOD  |
 478:../../../../../../Drivers/STM32L0xx_HAL_Driver/Src/stm32l0xx_hal_adc.c ****                              ADC_CFGR1_AUTDLY  |
 479:../../../../../../Drivers/STM32L0xx_HAL_Driver/Src/stm32l0xx_hal_adc.c ****                              ADC_CFGR1_AUTOFF  |
 480:../../../../../../Drivers/STM32L0xx_HAL_Driver/Src/stm32l0xx_hal_adc.c ****                              ADC_CFGR1_DISCEN   );
 481:../../../../../../Drivers/STM32L0xx_HAL_Driver/Src/stm32l0xx_hal_adc.c ****   
 482:../../../../../../Drivers/STM32L0xx_HAL_Driver/Src/stm32l0xx_hal_adc.c ****   hadc->Instance->CFGR1 |= (hadc->Init.DataAlign                             |
 483:../../../../../../Drivers/STM32L0xx_HAL_Driver/Src/stm32l0xx_hal_adc.c ****                             ADC_SCANDIR(hadc->Init.ScanConvMode)             |
 484:../../../../../../Drivers/STM32L0xx_HAL_Driver/Src/stm32l0xx_hal_adc.c ****                             ADC_CONTINUOUS(hadc->Init.ContinuousConvMode)    |
 485:../../../../../../Drivers/STM32L0xx_HAL_Driver/Src/stm32l0xx_hal_adc.c ****                             ADC_DMACONTREQ(hadc->Init.DMAContinuousRequests) |
 486:../../../../../../Drivers/STM32L0xx_HAL_Driver/Src/stm32l0xx_hal_adc.c ****                             hadc->Init.Overrun                               |
 487:../../../../../../Drivers/STM32L0xx_HAL_Driver/Src/stm32l0xx_hal_adc.c ****                             __HAL_ADC_CFGR1_AutoDelay(hadc->Init.LowPowerAutoWait) |
ARM GAS  C:\Users\EBANO_~1\AppData\Local\Temp\cc7eeVhF.s 			page 10


 488:../../../../../../Drivers/STM32L0xx_HAL_Driver/Src/stm32l0xx_hal_adc.c ****                             __HAL_ADC_CFGR1_AUTOFF(hadc->Init.LowPowerAutoPowerOff));
 489:../../../../../../Drivers/STM32L0xx_HAL_Driver/Src/stm32l0xx_hal_adc.c ****   
 490:../../../../../../Drivers/STM32L0xx_HAL_Driver/Src/stm32l0xx_hal_adc.c ****   /* Enable external trigger if trigger selection is different of software  */
 491:../../../../../../Drivers/STM32L0xx_HAL_Driver/Src/stm32l0xx_hal_adc.c ****   /* start.                                                                 */
 492:../../../../../../Drivers/STM32L0xx_HAL_Driver/Src/stm32l0xx_hal_adc.c ****   /* Note: This configuration keeps the hardware feature of parameter       */
 493:../../../../../../Drivers/STM32L0xx_HAL_Driver/Src/stm32l0xx_hal_adc.c ****   /*       ExternalTrigConvEdge "trigger edge none" equivalent to           */
 494:../../../../../../Drivers/STM32L0xx_HAL_Driver/Src/stm32l0xx_hal_adc.c ****   /*       software start.                                                  */
 495:../../../../../../Drivers/STM32L0xx_HAL_Driver/Src/stm32l0xx_hal_adc.c ****   if (hadc->Init.ExternalTrigConv != ADC_SOFTWARE_START)
 496:../../../../../../Drivers/STM32L0xx_HAL_Driver/Src/stm32l0xx_hal_adc.c ****   {
 497:../../../../../../Drivers/STM32L0xx_HAL_Driver/Src/stm32l0xx_hal_adc.c ****     hadc->Instance->CFGR1 |= hadc->Init.ExternalTrigConv |
 498:../../../../../../Drivers/STM32L0xx_HAL_Driver/Src/stm32l0xx_hal_adc.c ****                              hadc->Init.ExternalTrigConvEdge;
 499:../../../../../../Drivers/STM32L0xx_HAL_Driver/Src/stm32l0xx_hal_adc.c ****   }
 500:../../../../../../Drivers/STM32L0xx_HAL_Driver/Src/stm32l0xx_hal_adc.c ****   
 501:../../../../../../Drivers/STM32L0xx_HAL_Driver/Src/stm32l0xx_hal_adc.c ****   /* Enable discontinuous mode only if continuous mode is disabled */
 502:../../../../../../Drivers/STM32L0xx_HAL_Driver/Src/stm32l0xx_hal_adc.c ****   if (hadc->Init.DiscontinuousConvMode == ENABLE)
 503:../../../../../../Drivers/STM32L0xx_HAL_Driver/Src/stm32l0xx_hal_adc.c ****   {
 504:../../../../../../Drivers/STM32L0xx_HAL_Driver/Src/stm32l0xx_hal_adc.c ****     if (hadc->Init.ContinuousConvMode == DISABLE)
 505:../../../../../../Drivers/STM32L0xx_HAL_Driver/Src/stm32l0xx_hal_adc.c ****     {
 506:../../../../../../Drivers/STM32L0xx_HAL_Driver/Src/stm32l0xx_hal_adc.c ****       /* Enable the selected ADC group regular discontinuous mode */
 507:../../../../../../Drivers/STM32L0xx_HAL_Driver/Src/stm32l0xx_hal_adc.c ****       hadc->Instance->CFGR1 |= (ADC_CFGR1_DISCEN);
 508:../../../../../../Drivers/STM32L0xx_HAL_Driver/Src/stm32l0xx_hal_adc.c ****     }
 509:../../../../../../Drivers/STM32L0xx_HAL_Driver/Src/stm32l0xx_hal_adc.c ****     else
 510:../../../../../../Drivers/STM32L0xx_HAL_Driver/Src/stm32l0xx_hal_adc.c ****     {
 511:../../../../../../Drivers/STM32L0xx_HAL_Driver/Src/stm32l0xx_hal_adc.c ****       /* ADC regular group discontinuous was intended to be enabled,        */
 512:../../../../../../Drivers/STM32L0xx_HAL_Driver/Src/stm32l0xx_hal_adc.c ****       /* but ADC regular group modes continuous and sequencer discontinuous */
 513:../../../../../../Drivers/STM32L0xx_HAL_Driver/Src/stm32l0xx_hal_adc.c ****       /* cannot be enabled simultaneously.                                  */
 514:../../../../../../Drivers/STM32L0xx_HAL_Driver/Src/stm32l0xx_hal_adc.c ****       
 515:../../../../../../Drivers/STM32L0xx_HAL_Driver/Src/stm32l0xx_hal_adc.c ****       /* Update ADC state machine to error */
 516:../../../../../../Drivers/STM32L0xx_HAL_Driver/Src/stm32l0xx_hal_adc.c ****       SET_BIT(hadc->State, HAL_ADC_STATE_ERROR_CONFIG);
 517:../../../../../../Drivers/STM32L0xx_HAL_Driver/Src/stm32l0xx_hal_adc.c ****       
 518:../../../../../../Drivers/STM32L0xx_HAL_Driver/Src/stm32l0xx_hal_adc.c ****       /* Set ADC error code to ADC IP internal error */
 519:../../../../../../Drivers/STM32L0xx_HAL_Driver/Src/stm32l0xx_hal_adc.c ****       SET_BIT(hadc->ErrorCode, HAL_ADC_ERROR_INTERNAL);
 520:../../../../../../Drivers/STM32L0xx_HAL_Driver/Src/stm32l0xx_hal_adc.c ****     }
 521:../../../../../../Drivers/STM32L0xx_HAL_Driver/Src/stm32l0xx_hal_adc.c ****   }
 522:../../../../../../Drivers/STM32L0xx_HAL_Driver/Src/stm32l0xx_hal_adc.c ****   
 523:../../../../../../Drivers/STM32L0xx_HAL_Driver/Src/stm32l0xx_hal_adc.c ****   if (hadc->Init.OversamplingMode == ENABLE)
 524:../../../../../../Drivers/STM32L0xx_HAL_Driver/Src/stm32l0xx_hal_adc.c ****   {
 525:../../../../../../Drivers/STM32L0xx_HAL_Driver/Src/stm32l0xx_hal_adc.c ****     assert_param(IS_ADC_OVERSAMPLING_RATIO(hadc->Init.Oversample.Ratio));
 526:../../../../../../Drivers/STM32L0xx_HAL_Driver/Src/stm32l0xx_hal_adc.c ****     assert_param(IS_ADC_RIGHT_BIT_SHIFT(hadc->Init.Oversample.RightBitShift));
 527:../../../../../../Drivers/STM32L0xx_HAL_Driver/Src/stm32l0xx_hal_adc.c ****     assert_param(IS_ADC_TRIGGERED_OVERSAMPLING_MODE(hadc->Init.Oversample.TriggeredMode));
 528:../../../../../../Drivers/STM32L0xx_HAL_Driver/Src/stm32l0xx_hal_adc.c **** 
 529:../../../../../../Drivers/STM32L0xx_HAL_Driver/Src/stm32l0xx_hal_adc.c ****     /* Configuration of Oversampler:                                          */
 530:../../../../../../Drivers/STM32L0xx_HAL_Driver/Src/stm32l0xx_hal_adc.c ****     /*  - Oversampling Ratio                                                  */
 531:../../../../../../Drivers/STM32L0xx_HAL_Driver/Src/stm32l0xx_hal_adc.c ****     /*  - Right bit shift                                                     */
 532:../../../../../../Drivers/STM32L0xx_HAL_Driver/Src/stm32l0xx_hal_adc.c ****     /*  - Triggered mode                                                      */
 533:../../../../../../Drivers/STM32L0xx_HAL_Driver/Src/stm32l0xx_hal_adc.c ****     
 534:../../../../../../Drivers/STM32L0xx_HAL_Driver/Src/stm32l0xx_hal_adc.c ****     hadc->Instance->CFGR2 &= ~( ADC_CFGR2_OVSR |
 535:../../../../../../Drivers/STM32L0xx_HAL_Driver/Src/stm32l0xx_hal_adc.c ****                                 ADC_CFGR2_OVSS |
 536:../../../../../../Drivers/STM32L0xx_HAL_Driver/Src/stm32l0xx_hal_adc.c ****                                 ADC_CFGR2_TOVS );
 537:../../../../../../Drivers/STM32L0xx_HAL_Driver/Src/stm32l0xx_hal_adc.c ****     
 538:../../../../../../Drivers/STM32L0xx_HAL_Driver/Src/stm32l0xx_hal_adc.c ****     hadc->Instance->CFGR2 |= ( hadc->Init.Oversample.Ratio         |
 539:../../../../../../Drivers/STM32L0xx_HAL_Driver/Src/stm32l0xx_hal_adc.c ****                                hadc->Init.Oversample.RightBitShift             |
 540:../../../../../../Drivers/STM32L0xx_HAL_Driver/Src/stm32l0xx_hal_adc.c ****                                hadc->Init.Oversample.TriggeredMode );
 541:../../../../../../Drivers/STM32L0xx_HAL_Driver/Src/stm32l0xx_hal_adc.c ****     
 542:../../../../../../Drivers/STM32L0xx_HAL_Driver/Src/stm32l0xx_hal_adc.c ****     /* Enable OverSampling mode */
 543:../../../../../../Drivers/STM32L0xx_HAL_Driver/Src/stm32l0xx_hal_adc.c ****      hadc->Instance->CFGR2 |= ADC_CFGR2_OVSE;
 544:../../../../../../Drivers/STM32L0xx_HAL_Driver/Src/stm32l0xx_hal_adc.c ****   }
ARM GAS  C:\Users\EBANO_~1\AppData\Local\Temp\cc7eeVhF.s 			page 11


 545:../../../../../../Drivers/STM32L0xx_HAL_Driver/Src/stm32l0xx_hal_adc.c ****   else
 546:../../../../../../Drivers/STM32L0xx_HAL_Driver/Src/stm32l0xx_hal_adc.c ****   {
 547:../../../../../../Drivers/STM32L0xx_HAL_Driver/Src/stm32l0xx_hal_adc.c ****     if(HAL_IS_BIT_SET(hadc->Instance->CFGR2, ADC_CFGR2_OVSE))
 548:../../../../../../Drivers/STM32L0xx_HAL_Driver/Src/stm32l0xx_hal_adc.c ****     {
 549:../../../../../../Drivers/STM32L0xx_HAL_Driver/Src/stm32l0xx_hal_adc.c ****       /* Disable OverSampling mode if needed */
 550:../../../../../../Drivers/STM32L0xx_HAL_Driver/Src/stm32l0xx_hal_adc.c ****       hadc->Instance->CFGR2 &= ~ADC_CFGR2_OVSE;
 551:../../../../../../Drivers/STM32L0xx_HAL_Driver/Src/stm32l0xx_hal_adc.c ****     }
 552:../../../../../../Drivers/STM32L0xx_HAL_Driver/Src/stm32l0xx_hal_adc.c ****   }    
 553:../../../../../../Drivers/STM32L0xx_HAL_Driver/Src/stm32l0xx_hal_adc.c ****   
 554:../../../../../../Drivers/STM32L0xx_HAL_Driver/Src/stm32l0xx_hal_adc.c ****   /* Clear the old sampling time */
 555:../../../../../../Drivers/STM32L0xx_HAL_Driver/Src/stm32l0xx_hal_adc.c ****   hadc->Instance->SMPR &= (uint32_t)(~ADC_SMPR_SMPR);
 556:../../../../../../Drivers/STM32L0xx_HAL_Driver/Src/stm32l0xx_hal_adc.c ****   
 557:../../../../../../Drivers/STM32L0xx_HAL_Driver/Src/stm32l0xx_hal_adc.c ****   /* Set the new sample time */
 558:../../../../../../Drivers/STM32L0xx_HAL_Driver/Src/stm32l0xx_hal_adc.c ****   hadc->Instance->SMPR |= hadc->Init.SamplingTime;
 559:../../../../../../Drivers/STM32L0xx_HAL_Driver/Src/stm32l0xx_hal_adc.c ****   
 560:../../../../../../Drivers/STM32L0xx_HAL_Driver/Src/stm32l0xx_hal_adc.c ****   /* Clear ADC error code */
 561:../../../../../../Drivers/STM32L0xx_HAL_Driver/Src/stm32l0xx_hal_adc.c ****   ADC_CLEAR_ERRORCODE(hadc);
 562:../../../../../../Drivers/STM32L0xx_HAL_Driver/Src/stm32l0xx_hal_adc.c **** 
 563:../../../../../../Drivers/STM32L0xx_HAL_Driver/Src/stm32l0xx_hal_adc.c ****   /* Set the ADC state */
 564:../../../../../../Drivers/STM32L0xx_HAL_Driver/Src/stm32l0xx_hal_adc.c ****   ADC_STATE_CLR_SET(hadc->State,
 565:../../../../../../Drivers/STM32L0xx_HAL_Driver/Src/stm32l0xx_hal_adc.c ****                     HAL_ADC_STATE_BUSY_INTERNAL,
 566:../../../../../../Drivers/STM32L0xx_HAL_Driver/Src/stm32l0xx_hal_adc.c ****                     HAL_ADC_STATE_READY);
 567:../../../../../../Drivers/STM32L0xx_HAL_Driver/Src/stm32l0xx_hal_adc.c **** 
 568:../../../../../../Drivers/STM32L0xx_HAL_Driver/Src/stm32l0xx_hal_adc.c **** 
 569:../../../../../../Drivers/STM32L0xx_HAL_Driver/Src/stm32l0xx_hal_adc.c ****   /* Return function status */
 570:../../../../../../Drivers/STM32L0xx_HAL_Driver/Src/stm32l0xx_hal_adc.c ****   return HAL_OK;
 571:../../../../../../Drivers/STM32L0xx_HAL_Driver/Src/stm32l0xx_hal_adc.c **** }
 572:../../../../../../Drivers/STM32L0xx_HAL_Driver/Src/stm32l0xx_hal_adc.c **** 
 573:../../../../../../Drivers/STM32L0xx_HAL_Driver/Src/stm32l0xx_hal_adc.c **** /**
 574:../../../../../../Drivers/STM32L0xx_HAL_Driver/Src/stm32l0xx_hal_adc.c ****   * @brief  Deinitialize the ADC peripheral registers to their default reset
 575:../../../../../../Drivers/STM32L0xx_HAL_Driver/Src/stm32l0xx_hal_adc.c ****   *         values, with deinitialization of the ADC MSP.
 576:../../../../../../Drivers/STM32L0xx_HAL_Driver/Src/stm32l0xx_hal_adc.c ****   * @note   For devices with several ADCs: reset of ADC common registers is done 
 577:../../../../../../Drivers/STM32L0xx_HAL_Driver/Src/stm32l0xx_hal_adc.c ****   *         only if all ADCs sharing the same common group are disabled.
 578:../../../../../../Drivers/STM32L0xx_HAL_Driver/Src/stm32l0xx_hal_adc.c ****   *         If this is not the case, reset of these common parameters reset is  
 579:../../../../../../Drivers/STM32L0xx_HAL_Driver/Src/stm32l0xx_hal_adc.c ****   *         bypassed without error reporting: it can be the intended behavior in
 580:../../../../../../Drivers/STM32L0xx_HAL_Driver/Src/stm32l0xx_hal_adc.c ****   *         case of reset of a single ADC while the other ADCs sharing the same 
 581:../../../../../../Drivers/STM32L0xx_HAL_Driver/Src/stm32l0xx_hal_adc.c ****   *         common group is still running.
 582:../../../../../../Drivers/STM32L0xx_HAL_Driver/Src/stm32l0xx_hal_adc.c ****   * @param  hadc ADC handle
 583:../../../../../../Drivers/STM32L0xx_HAL_Driver/Src/stm32l0xx_hal_adc.c ****   * @retval HAL status
 584:../../../../../../Drivers/STM32L0xx_HAL_Driver/Src/stm32l0xx_hal_adc.c ****   */
 585:../../../../../../Drivers/STM32L0xx_HAL_Driver/Src/stm32l0xx_hal_adc.c **** HAL_StatusTypeDef HAL_ADC_DeInit(ADC_HandleTypeDef* hadc)
 586:../../../../../../Drivers/STM32L0xx_HAL_Driver/Src/stm32l0xx_hal_adc.c **** {
 587:../../../../../../Drivers/STM32L0xx_HAL_Driver/Src/stm32l0xx_hal_adc.c ****   HAL_StatusTypeDef tmp_hal_status = HAL_OK;
 588:../../../../../../Drivers/STM32L0xx_HAL_Driver/Src/stm32l0xx_hal_adc.c ****   
 589:../../../../../../Drivers/STM32L0xx_HAL_Driver/Src/stm32l0xx_hal_adc.c ****   /* Check ADC handle */
 590:../../../../../../Drivers/STM32L0xx_HAL_Driver/Src/stm32l0xx_hal_adc.c ****   if(hadc == NULL)
 591:../../../../../../Drivers/STM32L0xx_HAL_Driver/Src/stm32l0xx_hal_adc.c ****   {
 592:../../../../../../Drivers/STM32L0xx_HAL_Driver/Src/stm32l0xx_hal_adc.c ****     return HAL_ERROR;
 593:../../../../../../Drivers/STM32L0xx_HAL_Driver/Src/stm32l0xx_hal_adc.c ****   }
 594:../../../../../../Drivers/STM32L0xx_HAL_Driver/Src/stm32l0xx_hal_adc.c ****   
 595:../../../../../../Drivers/STM32L0xx_HAL_Driver/Src/stm32l0xx_hal_adc.c ****   /* Check the parameters */
 596:../../../../../../Drivers/STM32L0xx_HAL_Driver/Src/stm32l0xx_hal_adc.c ****   assert_param(IS_ADC_ALL_INSTANCE(hadc->Instance));
 597:../../../../../../Drivers/STM32L0xx_HAL_Driver/Src/stm32l0xx_hal_adc.c ****   
 598:../../../../../../Drivers/STM32L0xx_HAL_Driver/Src/stm32l0xx_hal_adc.c ****   /* Set ADC state */
 599:../../../../../../Drivers/STM32L0xx_HAL_Driver/Src/stm32l0xx_hal_adc.c ****   SET_BIT(hadc->State, HAL_ADC_STATE_BUSY_INTERNAL);
 600:../../../../../../Drivers/STM32L0xx_HAL_Driver/Src/stm32l0xx_hal_adc.c ****   
 601:../../../../../../Drivers/STM32L0xx_HAL_Driver/Src/stm32l0xx_hal_adc.c ****   /* Stop potential conversion on going, on regular group */
ARM GAS  C:\Users\EBANO_~1\AppData\Local\Temp\cc7eeVhF.s 			page 12


 602:../../../../../../Drivers/STM32L0xx_HAL_Driver/Src/stm32l0xx_hal_adc.c ****   tmp_hal_status = ADC_ConversionStop(hadc);
 603:../../../../../../Drivers/STM32L0xx_HAL_Driver/Src/stm32l0xx_hal_adc.c ****   
 604:../../../../../../Drivers/STM32L0xx_HAL_Driver/Src/stm32l0xx_hal_adc.c ****   /* Disable ADC peripheral if conversions are effectively stopped */
 605:../../../../../../Drivers/STM32L0xx_HAL_Driver/Src/stm32l0xx_hal_adc.c ****   if (tmp_hal_status == HAL_OK)
 606:../../../../../../Drivers/STM32L0xx_HAL_Driver/Src/stm32l0xx_hal_adc.c ****   {   
 607:../../../../../../Drivers/STM32L0xx_HAL_Driver/Src/stm32l0xx_hal_adc.c ****     /* Disable the ADC peripheral */
 608:../../../../../../Drivers/STM32L0xx_HAL_Driver/Src/stm32l0xx_hal_adc.c ****     tmp_hal_status = ADC_Disable(hadc);
 609:../../../../../../Drivers/STM32L0xx_HAL_Driver/Src/stm32l0xx_hal_adc.c ****     
 610:../../../../../../Drivers/STM32L0xx_HAL_Driver/Src/stm32l0xx_hal_adc.c ****     /* Check if ADC is effectively disabled */
 611:../../../../../../Drivers/STM32L0xx_HAL_Driver/Src/stm32l0xx_hal_adc.c ****     if (tmp_hal_status != HAL_ERROR)
 612:../../../../../../Drivers/STM32L0xx_HAL_Driver/Src/stm32l0xx_hal_adc.c ****     {
 613:../../../../../../Drivers/STM32L0xx_HAL_Driver/Src/stm32l0xx_hal_adc.c ****       /* Change ADC state */
 614:../../../../../../Drivers/STM32L0xx_HAL_Driver/Src/stm32l0xx_hal_adc.c ****       hadc->State = HAL_ADC_STATE_READY;
 615:../../../../../../Drivers/STM32L0xx_HAL_Driver/Src/stm32l0xx_hal_adc.c ****     }
 616:../../../../../../Drivers/STM32L0xx_HAL_Driver/Src/stm32l0xx_hal_adc.c ****   }
 617:../../../../../../Drivers/STM32L0xx_HAL_Driver/Src/stm32l0xx_hal_adc.c ****   
 618:../../../../../../Drivers/STM32L0xx_HAL_Driver/Src/stm32l0xx_hal_adc.c ****   
 619:../../../../../../Drivers/STM32L0xx_HAL_Driver/Src/stm32l0xx_hal_adc.c ****   /* Configuration of ADC parameters if previous preliminary actions are      */ 
 620:../../../../../../Drivers/STM32L0xx_HAL_Driver/Src/stm32l0xx_hal_adc.c ****   /* correctly completed.                                                     */
 621:../../../../../../Drivers/STM32L0xx_HAL_Driver/Src/stm32l0xx_hal_adc.c ****   if (tmp_hal_status != HAL_ERROR)
 622:../../../../../../Drivers/STM32L0xx_HAL_Driver/Src/stm32l0xx_hal_adc.c ****   {
 623:../../../../../../Drivers/STM32L0xx_HAL_Driver/Src/stm32l0xx_hal_adc.c ****     
 624:../../../../../../Drivers/STM32L0xx_HAL_Driver/Src/stm32l0xx_hal_adc.c ****     /* ========== Reset ADC registers ========== */
 625:../../../../../../Drivers/STM32L0xx_HAL_Driver/Src/stm32l0xx_hal_adc.c ****     /* Reset register IER */
 626:../../../../../../Drivers/STM32L0xx_HAL_Driver/Src/stm32l0xx_hal_adc.c ****     __HAL_ADC_DISABLE_IT(hadc, (ADC_IT_AWD | ADC_IT_OVR | ADC_IT_EOCAL | ADC_IT_EOS |  \
 627:../../../../../../Drivers/STM32L0xx_HAL_Driver/Src/stm32l0xx_hal_adc.c ****                                 ADC_IT_EOC | ADC_IT_RDY | ADC_IT_EOSMP ));
 628:../../../../../../Drivers/STM32L0xx_HAL_Driver/Src/stm32l0xx_hal_adc.c ****   
 629:../../../../../../Drivers/STM32L0xx_HAL_Driver/Src/stm32l0xx_hal_adc.c ****         
 630:../../../../../../Drivers/STM32L0xx_HAL_Driver/Src/stm32l0xx_hal_adc.c ****     /* Reset register ISR */
 631:../../../../../../Drivers/STM32L0xx_HAL_Driver/Src/stm32l0xx_hal_adc.c ****     __HAL_ADC_CLEAR_FLAG(hadc, (ADC_FLAG_AWD | ADC_FLAG_EOCAL | ADC_FLAG_OVR | ADC_FLAG_EOS |  \
 632:../../../../../../Drivers/STM32L0xx_HAL_Driver/Src/stm32l0xx_hal_adc.c ****                                 ADC_FLAG_EOC | ADC_FLAG_EOSMP | ADC_FLAG_RDY));
 633:../../../../../../Drivers/STM32L0xx_HAL_Driver/Src/stm32l0xx_hal_adc.c ****   
 634:../../../../../../Drivers/STM32L0xx_HAL_Driver/Src/stm32l0xx_hal_adc.c ****     
 635:../../../../../../Drivers/STM32L0xx_HAL_Driver/Src/stm32l0xx_hal_adc.c ****     /* Reset register CR */
 636:../../../../../../Drivers/STM32L0xx_HAL_Driver/Src/stm32l0xx_hal_adc.c ****     /* Disable voltage regulator */
 637:../../../../../../Drivers/STM32L0xx_HAL_Driver/Src/stm32l0xx_hal_adc.c ****     /* Note: Regulator disable useful for power saving */
 638:../../../../../../Drivers/STM32L0xx_HAL_Driver/Src/stm32l0xx_hal_adc.c ****     /* Reset ADVREGEN bit */
 639:../../../../../../Drivers/STM32L0xx_HAL_Driver/Src/stm32l0xx_hal_adc.c ****     hadc->Instance->CR &= ~ADC_CR_ADVREGEN;
 640:../../../../../../Drivers/STM32L0xx_HAL_Driver/Src/stm32l0xx_hal_adc.c ****     
 641:../../../../../../Drivers/STM32L0xx_HAL_Driver/Src/stm32l0xx_hal_adc.c ****     /* Bits ADC_CR_ADSTP, ADC_CR_ADSTART are in access mode "read-set": no direct reset applicable 
 642:../../../../../../Drivers/STM32L0xx_HAL_Driver/Src/stm32l0xx_hal_adc.c ****     /* No action */
 643:../../../../../../Drivers/STM32L0xx_HAL_Driver/Src/stm32l0xx_hal_adc.c ****     
 644:../../../../../../Drivers/STM32L0xx_HAL_Driver/Src/stm32l0xx_hal_adc.c ****     /* Reset register CFGR1 */
 645:../../../../../../Drivers/STM32L0xx_HAL_Driver/Src/stm32l0xx_hal_adc.c ****     hadc->Instance->CFGR1 &= ~(ADC_CFGR1_AWDCH  | ADC_CFGR1_AWDEN  | ADC_CFGR1_AWDSGL | \
 646:../../../../../../Drivers/STM32L0xx_HAL_Driver/Src/stm32l0xx_hal_adc.c ****                                ADC_CFGR1_DISCEN | ADC_CFGR1_AUTOFF | ADC_CFGR1_AUTDLY | \
 647:../../../../../../Drivers/STM32L0xx_HAL_Driver/Src/stm32l0xx_hal_adc.c ****                                ADC_CFGR1_CONT   | ADC_CFGR1_OVRMOD | ADC_CFGR1_EXTEN  | \
 648:../../../../../../Drivers/STM32L0xx_HAL_Driver/Src/stm32l0xx_hal_adc.c ****                                ADC_CFGR1_EXTSEL | ADC_CFGR1_ALIGN  | ADC_CFGR1_RES    | \
 649:../../../../../../Drivers/STM32L0xx_HAL_Driver/Src/stm32l0xx_hal_adc.c ****                                ADC_CFGR1_SCANDIR| ADC_CFGR1_DMACFG | ADC_CFGR1_DMAEN);
 650:../../../../../../Drivers/STM32L0xx_HAL_Driver/Src/stm32l0xx_hal_adc.c ****   
 651:../../../../../../Drivers/STM32L0xx_HAL_Driver/Src/stm32l0xx_hal_adc.c ****     /* Reset register CFGR2 */
 652:../../../../../../Drivers/STM32L0xx_HAL_Driver/Src/stm32l0xx_hal_adc.c ****     hadc->Instance->CFGR2 &= ~(ADC_CFGR2_TOVS  | ADC_CFGR2_OVSS  | ADC_CFGR2_OVSR | \
 653:../../../../../../Drivers/STM32L0xx_HAL_Driver/Src/stm32l0xx_hal_adc.c ****                                ADC_CFGR2_OVSE  | ADC_CFGR2_CKMODE );
 654:../../../../../../Drivers/STM32L0xx_HAL_Driver/Src/stm32l0xx_hal_adc.c ****   
 655:../../../../../../Drivers/STM32L0xx_HAL_Driver/Src/stm32l0xx_hal_adc.c ****     
 656:../../../../../../Drivers/STM32L0xx_HAL_Driver/Src/stm32l0xx_hal_adc.c ****     /* Reset register SMPR */
 657:../../../../../../Drivers/STM32L0xx_HAL_Driver/Src/stm32l0xx_hal_adc.c ****     hadc->Instance->SMPR &= ~(ADC_SMPR_SMPR);
 658:../../../../../../Drivers/STM32L0xx_HAL_Driver/Src/stm32l0xx_hal_adc.c ****     
ARM GAS  C:\Users\EBANO_~1\AppData\Local\Temp\cc7eeVhF.s 			page 13


 659:../../../../../../Drivers/STM32L0xx_HAL_Driver/Src/stm32l0xx_hal_adc.c ****     /* Reset register TR */
 660:../../../../../../Drivers/STM32L0xx_HAL_Driver/Src/stm32l0xx_hal_adc.c ****     hadc->Instance->TR &= ~(ADC_TR_LT | ADC_TR_HT);
 661:../../../../../../Drivers/STM32L0xx_HAL_Driver/Src/stm32l0xx_hal_adc.c ****     
 662:../../../../../../Drivers/STM32L0xx_HAL_Driver/Src/stm32l0xx_hal_adc.c ****     /* Reset register CALFACT */
 663:../../../../../../Drivers/STM32L0xx_HAL_Driver/Src/stm32l0xx_hal_adc.c ****     hadc->Instance->CALFACT &= ~(ADC_CALFACT_CALFACT);
 664:../../../../../../Drivers/STM32L0xx_HAL_Driver/Src/stm32l0xx_hal_adc.c ****   
 665:../../../../../../Drivers/STM32L0xx_HAL_Driver/Src/stm32l0xx_hal_adc.c ****   
 666:../../../../../../Drivers/STM32L0xx_HAL_Driver/Src/stm32l0xx_hal_adc.c ****   
 667:../../../../../../Drivers/STM32L0xx_HAL_Driver/Src/stm32l0xx_hal_adc.c ****   
 668:../../../../../../Drivers/STM32L0xx_HAL_Driver/Src/stm32l0xx_hal_adc.c ****     
 669:../../../../../../Drivers/STM32L0xx_HAL_Driver/Src/stm32l0xx_hal_adc.c ****     /* Reset register DR */
 670:../../../../../../Drivers/STM32L0xx_HAL_Driver/Src/stm32l0xx_hal_adc.c ****     /* bits in access mode read only, no direct reset applicable*/
 671:../../../../../../Drivers/STM32L0xx_HAL_Driver/Src/stm32l0xx_hal_adc.c ****   
 672:../../../../../../Drivers/STM32L0xx_HAL_Driver/Src/stm32l0xx_hal_adc.c ****     /* Reset register CALFACT */
 673:../../../../../../Drivers/STM32L0xx_HAL_Driver/Src/stm32l0xx_hal_adc.c ****     hadc->Instance->CALFACT &= ~(ADC_CALFACT_CALFACT);
 674:../../../../../../Drivers/STM32L0xx_HAL_Driver/Src/stm32l0xx_hal_adc.c ****   
 675:../../../../../../Drivers/STM32L0xx_HAL_Driver/Src/stm32l0xx_hal_adc.c ****     /* ========== Hard reset ADC peripheral ========== */
 676:../../../../../../Drivers/STM32L0xx_HAL_Driver/Src/stm32l0xx_hal_adc.c ****     /* Performs a global reset of the entire ADC peripheral: ADC state is     */
 677:../../../../../../Drivers/STM32L0xx_HAL_Driver/Src/stm32l0xx_hal_adc.c ****     /* forced to a similar state after device power-on.                       */
 678:../../../../../../Drivers/STM32L0xx_HAL_Driver/Src/stm32l0xx_hal_adc.c ****     /* If needed, copy-paste and uncomment the following reset code into      */
 679:../../../../../../Drivers/STM32L0xx_HAL_Driver/Src/stm32l0xx_hal_adc.c ****     /* function "void HAL_ADC_MspInit(ADC_HandleTypeDef* hadc)":              */
 680:../../../../../../Drivers/STM32L0xx_HAL_Driver/Src/stm32l0xx_hal_adc.c ****     /*                                                                        */
 681:../../../../../../Drivers/STM32L0xx_HAL_Driver/Src/stm32l0xx_hal_adc.c ****     /*  __HAL_RCC_ADC1_FORCE_RESET()                                                  */
 682:../../../../../../Drivers/STM32L0xx_HAL_Driver/Src/stm32l0xx_hal_adc.c ****     /*  __HAL_RCC_ADC1_RELEASE_RESET()                                                */
 683:../../../../../../Drivers/STM32L0xx_HAL_Driver/Src/stm32l0xx_hal_adc.c ****   
 684:../../../../../../Drivers/STM32L0xx_HAL_Driver/Src/stm32l0xx_hal_adc.c ****     /* DeInit the low level hardware */
 685:../../../../../../Drivers/STM32L0xx_HAL_Driver/Src/stm32l0xx_hal_adc.c ****     HAL_ADC_MspDeInit(hadc);
 686:../../../../../../Drivers/STM32L0xx_HAL_Driver/Src/stm32l0xx_hal_adc.c ****     
 687:../../../../../../Drivers/STM32L0xx_HAL_Driver/Src/stm32l0xx_hal_adc.c ****     /* Set ADC error code to none */
 688:../../../../../../Drivers/STM32L0xx_HAL_Driver/Src/stm32l0xx_hal_adc.c ****     ADC_CLEAR_ERRORCODE(hadc);
 689:../../../../../../Drivers/STM32L0xx_HAL_Driver/Src/stm32l0xx_hal_adc.c ****     
 690:../../../../../../Drivers/STM32L0xx_HAL_Driver/Src/stm32l0xx_hal_adc.c ****     /* Set ADC state */
 691:../../../../../../Drivers/STM32L0xx_HAL_Driver/Src/stm32l0xx_hal_adc.c ****     hadc->State = HAL_ADC_STATE_RESET;
 692:../../../../../../Drivers/STM32L0xx_HAL_Driver/Src/stm32l0xx_hal_adc.c ****   }
 693:../../../../../../Drivers/STM32L0xx_HAL_Driver/Src/stm32l0xx_hal_adc.c ****   
 694:../../../../../../Drivers/STM32L0xx_HAL_Driver/Src/stm32l0xx_hal_adc.c ****   /* Process unlocked */
 695:../../../../../../Drivers/STM32L0xx_HAL_Driver/Src/stm32l0xx_hal_adc.c ****   __HAL_UNLOCK(hadc);
 696:../../../../../../Drivers/STM32L0xx_HAL_Driver/Src/stm32l0xx_hal_adc.c ****   
 697:../../../../../../Drivers/STM32L0xx_HAL_Driver/Src/stm32l0xx_hal_adc.c ****   /* Return function status */
 698:../../../../../../Drivers/STM32L0xx_HAL_Driver/Src/stm32l0xx_hal_adc.c ****   return tmp_hal_status;
 699:../../../../../../Drivers/STM32L0xx_HAL_Driver/Src/stm32l0xx_hal_adc.c **** }
 700:../../../../../../Drivers/STM32L0xx_HAL_Driver/Src/stm32l0xx_hal_adc.c **** 
 701:../../../../../../Drivers/STM32L0xx_HAL_Driver/Src/stm32l0xx_hal_adc.c **** /**
 702:../../../../../../Drivers/STM32L0xx_HAL_Driver/Src/stm32l0xx_hal_adc.c ****   * @brief  Initialize the ADC MSP.
 703:../../../../../../Drivers/STM32L0xx_HAL_Driver/Src/stm32l0xx_hal_adc.c ****   * @param  hadc ADC handle
 704:../../../../../../Drivers/STM32L0xx_HAL_Driver/Src/stm32l0xx_hal_adc.c ****   * @retval None
 705:../../../../../../Drivers/STM32L0xx_HAL_Driver/Src/stm32l0xx_hal_adc.c ****   */
 706:../../../../../../Drivers/STM32L0xx_HAL_Driver/Src/stm32l0xx_hal_adc.c **** __weak void HAL_ADC_MspInit(ADC_HandleTypeDef* hadc)
 707:../../../../../../Drivers/STM32L0xx_HAL_Driver/Src/stm32l0xx_hal_adc.c **** {
  27              		.loc 1 707 0
  28              		.cfi_startproc
  29              		@ args = 0, pretend = 0, frame = 0
  30              		@ frame_needed = 0, uses_anonymous_args = 0
  31              		@ link register save eliminated.
  32              	.LVL0:
 708:../../../../../../Drivers/STM32L0xx_HAL_Driver/Src/stm32l0xx_hal_adc.c ****   /* Prevent unused argument(s) compilation warning */
 709:../../../../../../Drivers/STM32L0xx_HAL_Driver/Src/stm32l0xx_hal_adc.c ****   UNUSED(hadc);
ARM GAS  C:\Users\EBANO_~1\AppData\Local\Temp\cc7eeVhF.s 			page 14


 710:../../../../../../Drivers/STM32L0xx_HAL_Driver/Src/stm32l0xx_hal_adc.c **** 
 711:../../../../../../Drivers/STM32L0xx_HAL_Driver/Src/stm32l0xx_hal_adc.c ****   /* NOTE : This function should not be modified. When the callback is needed,
 712:../../../../../../Drivers/STM32L0xx_HAL_Driver/Src/stm32l0xx_hal_adc.c ****             function HAL_ADC_MspInit must be implemented in the user file.
 713:../../../../../../Drivers/STM32L0xx_HAL_Driver/Src/stm32l0xx_hal_adc.c ****    */ 
 714:../../../../../../Drivers/STM32L0xx_HAL_Driver/Src/stm32l0xx_hal_adc.c **** }
  33              		.loc 1 714 0
  34              		@ sp needed
  35 0000 7047     		bx	lr
  36              		.cfi_endproc
  37              	.LFE41:
  38              		.size	HAL_ADC_MspInit, .-HAL_ADC_MspInit
  39 0002 C046     		.section	.text.HAL_ADC_Init,"ax",%progbits
  40              		.align	1
  41              		.p2align 2,,3
  42              		.global	HAL_ADC_Init
  43              		.syntax unified
  44              		.code	16
  45              		.thumb_func
  46              		.fpu softvfp
  47              		.type	HAL_ADC_Init, %function
  48              	HAL_ADC_Init:
  49              	.LFB39:
 356:../../../../../../Drivers/STM32L0xx_HAL_Driver/Src/stm32l0xx_hal_adc.c ****  
  50              		.loc 1 356 0
  51              		.cfi_startproc
  52              		@ args = 0, pretend = 0, frame = 0
  53              		@ frame_needed = 0, uses_anonymous_args = 0
  54              	.LVL1:
  55 0000 70B5     		push	{r4, r5, r6, lr}
  56              	.LCFI0:
  57              		.cfi_def_cfa_offset 16
  58              		.cfi_offset 4, -16
  59              		.cfi_offset 5, -12
  60              		.cfi_offset 6, -8
  61              		.cfi_offset 14, -4
 356:../../../../../../Drivers/STM32L0xx_HAL_Driver/Src/stm32l0xx_hal_adc.c ****  
  62              		.loc 1 356 0
  63 0002 041E     		subs	r4, r0, #0
 359:../../../../../../Drivers/STM32L0xx_HAL_Driver/Src/stm32l0xx_hal_adc.c ****   {
  64              		.loc 1 359 0
  65 0004 00D1     		bne	.LCB25
  66 0006 A4E0     		b	.L20	@long jump
  67              	.LCB25:
 391:../../../../../../Drivers/STM32L0xx_HAL_Driver/Src/stm32l0xx_hal_adc.c ****   {
  68              		.loc 1 391 0
  69 0008 836D     		ldr	r3, [r0, #88]
  70 000a 002B     		cmp	r3, #0
  71 000c 00D1     		bne	.LCB28
  72 000e 96E0     		b	.L24	@long jump
  73              	.LCB28:
 408:../../../../../../Drivers/STM32L0xx_HAL_Driver/Src/stm32l0xx_hal_adc.c ****      (ADC_IS_CONVERSION_ONGOING_REGULAR(hadc) != RESET)  )
  74              		.loc 1 408 0
  75 0010 A36D     		ldr	r3, [r4, #88]
  76 0012 DB06     		lsls	r3, r3, #27
  77 0014 00D5     		bpl	.LCB33
  78 0016 89E0     		b	.L6	@long jump
  79              	.LCB33:
ARM GAS  C:\Users\EBANO_~1\AppData\Local\Temp\cc7eeVhF.s 			page 15


  80              	.LVL2:
  81              	.L28:
 409:../../../../../../Drivers/STM32L0xx_HAL_Driver/Src/stm32l0xx_hal_adc.c ****   {
  82              		.loc 1 409 0 discriminator 1
  83 0018 0421     		movs	r1, #4
  84 001a 2368     		ldr	r3, [r4]
  85 001c 9A68     		ldr	r2, [r3, #8]
  86 001e 1140     		ands	r1, r2
 408:../../../../../../Drivers/STM32L0xx_HAL_Driver/Src/stm32l0xx_hal_adc.c ****      (ADC_IS_CONVERSION_ONGOING_REGULAR(hadc) != RESET)  )
  87              		.loc 1 408 0 discriminator 1
  88 0020 00D0     		beq	.LCB41
  89 0022 83E0     		b	.L6	@long jump
  90              	.LCB41:
 420:../../../../../../Drivers/STM32L0xx_HAL_Driver/Src/stm32l0xx_hal_adc.c ****                     HAL_ADC_STATE_REG_BUSY,
  91              		.loc 1 420 0
  92 0024 A26D     		ldr	r2, [r4, #88]
  93 0026 6248     		ldr	r0, .L29
  94 0028 0240     		ands	r2, r0
  95 002a 0630     		adds	r0, r0, #6
  96 002c FF30     		adds	r0, r0, #255
  97 002e 0243     		orrs	r2, r0
  98 0030 A265     		str	r2, [r4, #88]
 429:../../../../../../Drivers/STM32L0xx_HAL_Driver/Src/stm32l0xx_hal_adc.c ****   {
  99              		.loc 1 429 0
 100 0032 0322     		movs	r2, #3
 101 0034 9868     		ldr	r0, [r3, #8]
 102 0036 0240     		ands	r2, r0
 103 0038 012A     		cmp	r2, #1
 104 003a 00D1     		bne	.LCB53
 105 003c 8BE0     		b	.L25	@long jump
 106              	.LCB53:
 107              	.L8:
 441:../../../../../../Drivers/STM32L0xx_HAL_Driver/Src/stm32l0xx_hal_adc.c ****     
 108              		.loc 1 441 0
 109 003e 8025     		movs	r5, #128
 110 0040 6068     		ldr	r0, [r4, #4]
 111 0042 ED05     		lsls	r5, r5, #23
 112 0044 4200     		lsls	r2, r0, #1
 113 0046 5208     		lsrs	r2, r2, #1
 114 0048 AA42     		cmp	r2, r5
 115 004a 00D1     		bne	.LCB61
 116 004c 88E0     		b	.L10	@long jump
 117              	.LCB61:
 441:../../../../../../Drivers/STM32L0xx_HAL_Driver/Src/stm32l0xx_hal_adc.c ****     
 118              		.loc 1 441 0 is_stmt 0 discriminator 4
 119 004e 8022     		movs	r2, #128
 120 0050 1206     		lsls	r2, r2, #24
 121 0052 9042     		cmp	r0, r2
 122 0054 00D1     		bne	.LCB65
 123 0056 83E0     		b	.L10	@long jump
 124              	.LCB65:
 441:../../../../../../Drivers/STM32L0xx_HAL_Driver/Src/stm32l0xx_hal_adc.c ****     
 125              		.loc 1 441 0 discriminator 6
 126 0058 1A69     		ldr	r2, [r3, #16]
 127 005a 564E     		ldr	r6, .L29+4
 128 005c 9200     		lsls	r2, r2, #2
 129 005e 9208     		lsrs	r2, r2, #2
ARM GAS  C:\Users\EBANO_~1\AppData\Local\Temp\cc7eeVhF.s 			page 16


 130 0060 1A61     		str	r2, [r3, #16]
 131 0062 554A     		ldr	r2, .L29+8
 132 0064 1568     		ldr	r5, [r2]
 133 0066 3540     		ands	r5, r6
 134 0068 1560     		str	r5, [r2]
 135 006a 1568     		ldr	r5, [r2]
 136 006c 2843     		orrs	r0, r5
 137 006e 1060     		str	r0, [r2]
 138              	.L12:
 445:../../../../../../Drivers/STM32L0xx_HAL_Driver/Src/stm32l0xx_hal_adc.c ****     hadc->Instance->CFGR1 |= hadc->Init.Resolution;    
 139              		.loc 1 445 0 is_stmt 1
 140 0070 1820     		movs	r0, #24
 141 0072 DA68     		ldr	r2, [r3, #12]
 142 0074 8243     		bics	r2, r0
 143 0076 DA60     		str	r2, [r3, #12]
 446:../../../../../../Drivers/STM32L0xx_HAL_Driver/Src/stm32l0xx_hal_adc.c ****   }
 144              		.loc 1 446 0
 145 0078 DA68     		ldr	r2, [r3, #12]
 146 007a A068     		ldr	r0, [r4, #8]
 147 007c 0243     		orrs	r2, r0
 148 007e DA60     		str	r2, [r3, #12]
 149              	.L9:
 450:../../../../../../Drivers/STM32L0xx_HAL_Driver/Src/stm32l0xx_hal_adc.c ****   ADC->CCR |=__HAL_ADC_CCR_LOWFREQUENCY(hadc->Init.LowPowerFrequencyMode);  
 150              		.loc 1 450 0
 151 0080 4D48     		ldr	r0, .L29+8
 152 0082 4E4D     		ldr	r5, .L29+12
 153 0084 0268     		ldr	r2, [r0]
 154 0086 2A40     		ands	r2, r5
 155 0088 0260     		str	r2, [r0]
 451:../../../../../../Drivers/STM32L0xx_HAL_Driver/Src/stm32l0xx_hal_adc.c ****    
 156              		.loc 1 451 0
 157 008a A26B     		ldr	r2, [r4, #56]
 158 008c 0568     		ldr	r5, [r0]
 159 008e 5206     		lsls	r2, r2, #25
 160 0090 2A43     		orrs	r2, r5
 161 0092 0260     		str	r2, [r0]
 454:../../../../../../Drivers/STM32L0xx_HAL_Driver/Src/stm32l0xx_hal_adc.c ****   {
 162              		.loc 1 454 0
 163 0094 8022     		movs	r2, #128
 164 0096 9868     		ldr	r0, [r3, #8]
 165 0098 5205     		lsls	r2, r2, #21
 166 009a 1042     		tst	r0, r2
 167 009c 02D1     		bne	.L13
 457:../../../../../../Drivers/STM32L0xx_HAL_Driver/Src/stm32l0xx_hal_adc.c ****   }
 168              		.loc 1 457 0
 169 009e 9868     		ldr	r0, [r3, #8]
 170 00a0 0243     		orrs	r2, r0
 171 00a2 9A60     		str	r2, [r3, #8]
 172              	.L13:
 471:../../../../../../Drivers/STM32L0xx_HAL_Driver/Src/stm32l0xx_hal_adc.c ****                              ADC_CFGR1_SCANDIR |
 173              		.loc 1 471 0
 174 00a4 DA68     		ldr	r2, [r3, #12]
 175 00a6 4648     		ldr	r0, .L29+16
 176 00a8 0240     		ands	r2, r0
 483:../../../../../../Drivers/STM32L0xx_HAL_Driver/Src/stm32l0xx_hal_adc.c ****                             ADC_CONTINUOUS(hadc->Init.ContinuousConvMode)    |
 177              		.loc 1 483 0
 178 00aa 2069     		ldr	r0, [r4, #16]
ARM GAS  C:\Users\EBANO_~1\AppData\Local\Temp\cc7eeVhF.s 			page 17


 471:../../../../../../Drivers/STM32L0xx_HAL_Driver/Src/stm32l0xx_hal_adc.c ****                              ADC_CFGR1_SCANDIR |
 179              		.loc 1 471 0
 180 00ac DA60     		str	r2, [r3, #12]
 482:../../../../../../Drivers/STM32L0xx_HAL_Driver/Src/stm32l0xx_hal_adc.c ****                             ADC_SCANDIR(hadc->Init.ScanConvMode)             |
 181              		.loc 1 482 0
 182 00ae DE68     		ldr	r6, [r3, #12]
 183 00b0 E268     		ldr	r2, [r4, #12]
 483:../../../../../../Drivers/STM32L0xx_HAL_Driver/Src/stm32l0xx_hal_adc.c ****                             ADC_CONTINUOUS(hadc->Init.ContinuousConvMode)    |
 184              		.loc 1 483 0
 185 00b2 0228     		cmp	r0, #2
 186 00b4 00D1     		bne	.L14
 187 00b6 0421     		movs	r1, #4
 188              	.L14:
 482:../../../../../../Drivers/STM32L0xx_HAL_Driver/Src/stm32l0xx_hal_adc.c ****                             ADC_SCANDIR(hadc->Init.ScanConvMode)             |
 189              		.loc 1 482 0
 190 00b8 656B     		ldr	r5, [r4, #52]
 484:../../../../../../Drivers/STM32L0xx_HAL_Driver/Src/stm32l0xx_hal_adc.c ****                             ADC_DMACONTREQ(hadc->Init.DMAContinuousRequests) |
 191              		.loc 1 484 0
 192 00ba 206A     		ldr	r0, [r4, #32]
 482:../../../../../../Drivers/STM32L0xx_HAL_Driver/Src/stm32l0xx_hal_adc.c ****                             ADC_SCANDIR(hadc->Init.ScanConvMode)             |
 193              		.loc 1 482 0
 194 00bc 2A43     		orrs	r2, r5
 484:../../../../../../Drivers/STM32L0xx_HAL_Driver/Src/stm32l0xx_hal_adc.c ****                             ADC_DMACONTREQ(hadc->Init.DMAContinuousRequests) |
 195              		.loc 1 484 0
 196 00be 4503     		lsls	r5, r0, #13
 482:../../../../../../Drivers/STM32L0xx_HAL_Driver/Src/stm32l0xx_hal_adc.c ****                             ADC_SCANDIR(hadc->Init.ScanConvMode)             |
 197              		.loc 1 482 0
 198 00c0 2A43     		orrs	r2, r5
 485:../../../../../../Drivers/STM32L0xx_HAL_Driver/Src/stm32l0xx_hal_adc.c ****                             hadc->Init.Overrun                               |
 199              		.loc 1 485 0
 200 00c2 256B     		ldr	r5, [r4, #48]
 201 00c4 6D00     		lsls	r5, r5, #1
 482:../../../../../../Drivers/STM32L0xx_HAL_Driver/Src/stm32l0xx_hal_adc.c ****                             ADC_SCANDIR(hadc->Init.ScanConvMode)             |
 202              		.loc 1 482 0
 203 00c6 2A43     		orrs	r2, r5
 487:../../../../../../Drivers/STM32L0xx_HAL_Driver/Src/stm32l0xx_hal_adc.c ****                             __HAL_ADC_CFGR1_AUTOFF(hadc->Init.LowPowerAutoPowerOff));
 204              		.loc 1 487 0
 205 00c8 A569     		ldr	r5, [r4, #24]
 206 00ca AD03     		lsls	r5, r5, #14
 482:../../../../../../Drivers/STM32L0xx_HAL_Driver/Src/stm32l0xx_hal_adc.c ****                             ADC_SCANDIR(hadc->Init.ScanConvMode)             |
 207              		.loc 1 482 0
 208 00cc 2A43     		orrs	r2, r5
 488:../../../../../../Drivers/STM32L0xx_HAL_Driver/Src/stm32l0xx_hal_adc.c ****   
 209              		.loc 1 488 0
 210 00ce E569     		ldr	r5, [r4, #28]
 211 00d0 ED03     		lsls	r5, r5, #15
 482:../../../../../../Drivers/STM32L0xx_HAL_Driver/Src/stm32l0xx_hal_adc.c ****                             ADC_SCANDIR(hadc->Init.ScanConvMode)             |
 212              		.loc 1 482 0
 213 00d2 2A43     		orrs	r2, r5
 214 00d4 3243     		orrs	r2, r6
 215 00d6 0A43     		orrs	r2, r1
 495:../../../../../../Drivers/STM32L0xx_HAL_Driver/Src/stm32l0xx_hal_adc.c ****   {
 216              		.loc 1 495 0
 217 00d8 C221     		movs	r1, #194
 482:../../../../../../Drivers/STM32L0xx_HAL_Driver/Src/stm32l0xx_hal_adc.c ****                             ADC_SCANDIR(hadc->Init.ScanConvMode)             |
 218              		.loc 1 482 0
 219 00da DA60     		str	r2, [r3, #12]
ARM GAS  C:\Users\EBANO_~1\AppData\Local\Temp\cc7eeVhF.s 			page 18


 495:../../../../../../Drivers/STM32L0xx_HAL_Driver/Src/stm32l0xx_hal_adc.c ****   {
 220              		.loc 1 495 0
 221 00dc A26A     		ldr	r2, [r4, #40]
 222 00de FF31     		adds	r1, r1, #255
 223 00e0 8A42     		cmp	r2, r1
 224 00e2 04D0     		beq	.L15
 497:../../../../../../Drivers/STM32L0xx_HAL_Driver/Src/stm32l0xx_hal_adc.c ****                              hadc->Init.ExternalTrigConvEdge;
 225              		.loc 1 497 0
 226 00e4 E56A     		ldr	r5, [r4, #44]
 227 00e6 D968     		ldr	r1, [r3, #12]
 228 00e8 2A43     		orrs	r2, r5
 229 00ea 0A43     		orrs	r2, r1
 230 00ec DA60     		str	r2, [r3, #12]
 231              	.L15:
 502:../../../../../../Drivers/STM32L0xx_HAL_Driver/Src/stm32l0xx_hal_adc.c ****   {
 232              		.loc 1 502 0
 233 00ee 626A     		ldr	r2, [r4, #36]
 234 00f0 012A     		cmp	r2, #1
 235 00f2 4DD0     		beq	.L26
 236              	.L16:
 523:../../../../../../Drivers/STM32L0xx_HAL_Driver/Src/stm32l0xx_hal_adc.c ****   {
 237              		.loc 1 523 0
 238 00f4 216C     		ldr	r1, [r4, #64]
 239 00f6 0129     		cmp	r1, #1
 240 00f8 3AD0     		beq	.L27
 547:../../../../../../Drivers/STM32L0xx_HAL_Driver/Src/stm32l0xx_hal_adc.c ****     {
 241              		.loc 1 547 0
 242 00fa 0122     		movs	r2, #1
 243 00fc 1969     		ldr	r1, [r3, #16]
 244 00fe 0A42     		tst	r2, r1
 245 0100 02D0     		beq	.L19
 550:../../../../../../Drivers/STM32L0xx_HAL_Driver/Src/stm32l0xx_hal_adc.c ****     }
 246              		.loc 1 550 0
 247 0102 1969     		ldr	r1, [r3, #16]
 248 0104 9143     		bics	r1, r2
 249 0106 1961     		str	r1, [r3, #16]
 250              	.L19:
 555:../../../../../../Drivers/STM32L0xx_HAL_Driver/Src/stm32l0xx_hal_adc.c ****   
 251              		.loc 1 555 0
 252 0108 0721     		movs	r1, #7
 253 010a 5A69     		ldr	r2, [r3, #20]
 570:../../../../../../Drivers/STM32L0xx_HAL_Driver/Src/stm32l0xx_hal_adc.c **** }
 254              		.loc 1 570 0
 255 010c 0020     		movs	r0, #0
 555:../../../../../../Drivers/STM32L0xx_HAL_Driver/Src/stm32l0xx_hal_adc.c ****   
 256              		.loc 1 555 0
 257 010e 8A43     		bics	r2, r1
 258 0110 5A61     		str	r2, [r3, #20]
 558:../../../../../../Drivers/STM32L0xx_HAL_Driver/Src/stm32l0xx_hal_adc.c ****   
 259              		.loc 1 558 0
 260 0112 5A69     		ldr	r2, [r3, #20]
 261 0114 E16B     		ldr	r1, [r4, #60]
 262 0116 0A43     		orrs	r2, r1
 263 0118 5A61     		str	r2, [r3, #20]
 561:../../../../../../Drivers/STM32L0xx_HAL_Driver/Src/stm32l0xx_hal_adc.c **** 
 264              		.loc 1 561 0
 265 011a 0023     		movs	r3, #0
ARM GAS  C:\Users\EBANO_~1\AppData\Local\Temp\cc7eeVhF.s 			page 19


 564:../../../../../../Drivers/STM32L0xx_HAL_Driver/Src/stm32l0xx_hal_adc.c ****                     HAL_ADC_STATE_BUSY_INTERNAL,
 266              		.loc 1 564 0
 267 011c 0322     		movs	r2, #3
 561:../../../../../../Drivers/STM32L0xx_HAL_Driver/Src/stm32l0xx_hal_adc.c **** 
 268              		.loc 1 561 0
 269 011e E365     		str	r3, [r4, #92]
 564:../../../../../../Drivers/STM32L0xx_HAL_Driver/Src/stm32l0xx_hal_adc.c ****                     HAL_ADC_STATE_BUSY_INTERNAL,
 270              		.loc 1 564 0
 271 0120 A36D     		ldr	r3, [r4, #88]
 272 0122 9343     		bics	r3, r2
 273 0124 023A     		subs	r2, r2, #2
 274 0126 1343     		orrs	r3, r2
 275 0128 A365     		str	r3, [r4, #88]
 570:../../../../../../Drivers/STM32L0xx_HAL_Driver/Src/stm32l0xx_hal_adc.c **** }
 276              		.loc 1 570 0
 277 012a 07E0     		b	.L4
 278              	.L6:
 412:../../../../../../Drivers/STM32L0xx_HAL_Driver/Src/stm32l0xx_hal_adc.c ****         
 279              		.loc 1 412 0
 280 012c 1022     		movs	r2, #16
 281 012e A36D     		ldr	r3, [r4, #88]
 416:../../../../../../Drivers/STM32L0xx_HAL_Driver/Src/stm32l0xx_hal_adc.c ****   }
 282              		.loc 1 416 0
 283 0130 0120     		movs	r0, #1
 412:../../../../../../Drivers/STM32L0xx_HAL_Driver/Src/stm32l0xx_hal_adc.c ****         
 284              		.loc 1 412 0
 285 0132 1343     		orrs	r3, r2
 286 0134 A365     		str	r3, [r4, #88]
 415:../../../../../../Drivers/STM32L0xx_HAL_Driver/Src/stm32l0xx_hal_adc.c ****     return HAL_ERROR;
 287              		.loc 1 415 0
 288 0136 0022     		movs	r2, #0
 289 0138 5423     		movs	r3, #84
 290 013a E254     		strb	r2, [r4, r3]
 291              	.L4:
 571:../../../../../../Drivers/STM32L0xx_HAL_Driver/Src/stm32l0xx_hal_adc.c **** 
 292              		.loc 1 571 0
 293              		@ sp needed
 294              	.LVL3:
 295 013c 70BD     		pop	{r4, r5, r6, pc}
 296              	.LVL4:
 297              	.L24:
 397:../../../../../../Drivers/STM32L0xx_HAL_Driver/Src/stm32l0xx_hal_adc.c ****     
 298              		.loc 1 397 0
 299 013e 5422     		movs	r2, #84
 394:../../../../../../Drivers/STM32L0xx_HAL_Driver/Src/stm32l0xx_hal_adc.c ****     
 300              		.loc 1 394 0
 301 0140 C365     		str	r3, [r0, #92]
 397:../../../../../../Drivers/STM32L0xx_HAL_Driver/Src/stm32l0xx_hal_adc.c ****     
 302              		.loc 1 397 0
 303 0142 8354     		strb	r3, [r0, r2]
 400:../../../../../../Drivers/STM32L0xx_HAL_Driver/Src/stm32l0xx_hal_adc.c ****   }
 304              		.loc 1 400 0
 305 0144 FFF7FEFF 		bl	HAL_ADC_MspInit
 306              	.LVL5:
 408:../../../../../../Drivers/STM32L0xx_HAL_Driver/Src/stm32l0xx_hal_adc.c ****      (ADC_IS_CONVERSION_ONGOING_REGULAR(hadc) != RESET)  )
 307              		.loc 1 408 0
 308 0148 A36D     		ldr	r3, [r4, #88]
ARM GAS  C:\Users\EBANO_~1\AppData\Local\Temp\cc7eeVhF.s 			page 20


 309 014a DB06     		lsls	r3, r3, #27
 310 014c 00D4     		bmi	.LCB232
 311 014e 63E7     		b	.L28	@long jump
 312              	.LCB232:
 313 0150 ECE7     		b	.L6
 314              	.LVL6:
 315              	.L20:
 361:../../../../../../Drivers/STM32L0xx_HAL_Driver/Src/stm32l0xx_hal_adc.c ****   }
 316              		.loc 1 361 0
 317 0152 0120     		movs	r0, #1
 318              	.LVL7:
 319 0154 F2E7     		b	.L4
 320              	.L25:
 429:../../../../../../Drivers/STM32L0xx_HAL_Driver/Src/stm32l0xx_hal_adc.c ****   {
 321              		.loc 1 429 0 discriminator 1
 322 0156 1868     		ldr	r0, [r3]
 323 0158 0242     		tst	r2, r0
 324 015a 00D0     		beq	.LCB248
 325 015c 90E7     		b	.L9	@long jump
 326              	.LCB248:
 327 015e 6EE7     		b	.L8
 328              	.L10:
 441:../../../../../../Drivers/STM32L0xx_HAL_Driver/Src/stm32l0xx_hal_adc.c ****     
 329              		.loc 1 441 0 discriminator 5
 330 0160 1A69     		ldr	r2, [r3, #16]
 331 0162 9200     		lsls	r2, r2, #2
 332 0164 9208     		lsrs	r2, r2, #2
 333 0166 1A61     		str	r2, [r3, #16]
 334 0168 1A69     		ldr	r2, [r3, #16]
 335 016a 1043     		orrs	r0, r2
 336 016c 1861     		str	r0, [r3, #16]
 337 016e 7FE7     		b	.L12
 338              	.L27:
 534:../../../../../../Drivers/STM32L0xx_HAL_Driver/Src/stm32l0xx_hal_adc.c ****                                 ADC_CFGR2_OVSS |
 339              		.loc 1 534 0
 340 0170 1A69     		ldr	r2, [r3, #16]
 341 0172 1448     		ldr	r0, .L29+20
 538:../../../../../../Drivers/STM32L0xx_HAL_Driver/Src/stm32l0xx_hal_adc.c ****                                hadc->Init.Oversample.RightBitShift             |
 342              		.loc 1 538 0
 343 0174 A56C     		ldr	r5, [r4, #72]
 534:../../../../../../Drivers/STM32L0xx_HAL_Driver/Src/stm32l0xx_hal_adc.c ****                                 ADC_CFGR2_OVSS |
 344              		.loc 1 534 0
 345 0176 0240     		ands	r2, r0
 346 0178 1A61     		str	r2, [r3, #16]
 538:../../../../../../Drivers/STM32L0xx_HAL_Driver/Src/stm32l0xx_hal_adc.c ****                                hadc->Init.Oversample.RightBitShift             |
 347              		.loc 1 538 0
 348 017a 626C     		ldr	r2, [r4, #68]
 349 017c 1869     		ldr	r0, [r3, #16]
 350 017e 2A43     		orrs	r2, r5
 539:../../../../../../Drivers/STM32L0xx_HAL_Driver/Src/stm32l0xx_hal_adc.c ****                                hadc->Init.Oversample.TriggeredMode );
 351              		.loc 1 539 0
 352 0180 E56C     		ldr	r5, [r4, #76]
 353 0182 2A43     		orrs	r2, r5
 538:../../../../../../Drivers/STM32L0xx_HAL_Driver/Src/stm32l0xx_hal_adc.c ****                                hadc->Init.Oversample.RightBitShift             |
 354              		.loc 1 538 0
 355 0184 0243     		orrs	r2, r0
 356 0186 1A61     		str	r2, [r3, #16]
ARM GAS  C:\Users\EBANO_~1\AppData\Local\Temp\cc7eeVhF.s 			page 21


 543:../../../../../../Drivers/STM32L0xx_HAL_Driver/Src/stm32l0xx_hal_adc.c ****   }
 357              		.loc 1 543 0
 358 0188 1A69     		ldr	r2, [r3, #16]
 359 018a 1143     		orrs	r1, r2
 360 018c 1961     		str	r1, [r3, #16]
 361 018e BBE7     		b	.L19
 362              	.L26:
 504:../../../../../../Drivers/STM32L0xx_HAL_Driver/Src/stm32l0xx_hal_adc.c ****     {
 363              		.loc 1 504 0
 364 0190 0028     		cmp	r0, #0
 365 0192 05D1     		bne	.L17
 507:../../../../../../Drivers/STM32L0xx_HAL_Driver/Src/stm32l0xx_hal_adc.c ****     }
 366              		.loc 1 507 0
 367 0194 8022     		movs	r2, #128
 368 0196 D968     		ldr	r1, [r3, #12]
 369 0198 5202     		lsls	r2, r2, #9
 370 019a 0A43     		orrs	r2, r1
 371 019c DA60     		str	r2, [r3, #12]
 372 019e A9E7     		b	.L16
 373              	.L17:
 516:../../../../../../Drivers/STM32L0xx_HAL_Driver/Src/stm32l0xx_hal_adc.c ****       
 374              		.loc 1 516 0
 375 01a0 2020     		movs	r0, #32
 376 01a2 A16D     		ldr	r1, [r4, #88]
 377 01a4 0143     		orrs	r1, r0
 378 01a6 A165     		str	r1, [r4, #88]
 519:../../../../../../Drivers/STM32L0xx_HAL_Driver/Src/stm32l0xx_hal_adc.c ****     }
 379              		.loc 1 519 0
 380 01a8 E16D     		ldr	r1, [r4, #92]
 381 01aa 0A43     		orrs	r2, r1
 382 01ac E265     		str	r2, [r4, #92]
 383 01ae A1E7     		b	.L16
 384              	.L30:
 385              		.align	2
 386              	.L29:
 387 01b0 FDFEFFFF 		.word	-259
 388 01b4 FFFFC3FF 		.word	-3932161
 389 01b8 08270140 		.word	1073817352
 390 01bc FFFFFFFD 		.word	-33554433
 391 01c0 1902FEFF 		.word	-130535
 392 01c4 03FCFFFF 		.word	-1021
 393              		.cfi_endproc
 394              	.LFE39:
 395              		.size	HAL_ADC_Init, .-HAL_ADC_Init
 396              		.section	.text.HAL_ADC_MspDeInit,"ax",%progbits
 397              		.align	1
 398              		.p2align 2,,3
 399              		.weak	HAL_ADC_MspDeInit
 400              		.syntax unified
 401              		.code	16
 402              		.thumb_func
 403              		.fpu softvfp
 404              		.type	HAL_ADC_MspDeInit, %function
 405              	HAL_ADC_MspDeInit:
 406              	.LFB72:
 407              		.cfi_startproc
 408              		@ args = 0, pretend = 0, frame = 0
ARM GAS  C:\Users\EBANO_~1\AppData\Local\Temp\cc7eeVhF.s 			page 22


 409              		@ frame_needed = 0, uses_anonymous_args = 0
 410              		@ link register save eliminated.
 411              		@ sp needed
 412 0000 7047     		bx	lr
 413              		.cfi_endproc
 414              	.LFE72:
 415              		.size	HAL_ADC_MspDeInit, .-HAL_ADC_MspDeInit
 416 0002 C046     		.section	.text.HAL_ADC_DeInit,"ax",%progbits
 417              		.align	1
 418              		.p2align 2,,3
 419              		.global	HAL_ADC_DeInit
 420              		.syntax unified
 421              		.code	16
 422              		.thumb_func
 423              		.fpu softvfp
 424              		.type	HAL_ADC_DeInit, %function
 425              	HAL_ADC_DeInit:
 426              	.LFB40:
 586:../../../../../../Drivers/STM32L0xx_HAL_Driver/Src/stm32l0xx_hal_adc.c ****   HAL_StatusTypeDef tmp_hal_status = HAL_OK;
 427              		.loc 1 586 0
 428              		.cfi_startproc
 429              		@ args = 0, pretend = 0, frame = 0
 430              		@ frame_needed = 0, uses_anonymous_args = 0
 431              	.LVL8:
 586:../../../../../../Drivers/STM32L0xx_HAL_Driver/Src/stm32l0xx_hal_adc.c ****   HAL_StatusTypeDef tmp_hal_status = HAL_OK;
 432              		.loc 1 586 0
 433 0000 70B5     		push	{r4, r5, r6, lr}
 434              	.LCFI1:
 435              		.cfi_def_cfa_offset 16
 436              		.cfi_offset 4, -16
 437              		.cfi_offset 5, -12
 438              		.cfi_offset 6, -8
 439              		.cfi_offset 14, -4
 586:../../../../../../Drivers/STM32L0xx_HAL_Driver/Src/stm32l0xx_hal_adc.c ****   HAL_StatusTypeDef tmp_hal_status = HAL_OK;
 440              		.loc 1 586 0
 441 0002 0400     		movs	r4, r0
 592:../../../../../../Drivers/STM32L0xx_HAL_Driver/Src/stm32l0xx_hal_adc.c ****   }
 442              		.loc 1 592 0
 443 0004 0120     		movs	r0, #1
 444              	.LVL9:
 590:../../../../../../Drivers/STM32L0xx_HAL_Driver/Src/stm32l0xx_hal_adc.c ****   {
 445              		.loc 1 590 0
 446 0006 002C     		cmp	r4, #0
 447 0008 70D0     		beq	.L51
 599:../../../../../../Drivers/STM32L0xx_HAL_Driver/Src/stm32l0xx_hal_adc.c ****   
 448              		.loc 1 599 0
 449 000a 0221     		movs	r1, #2
 450              	.LBB16:
 451              	.LBB17:
 715:../../../../../../Drivers/STM32L0xx_HAL_Driver/Src/stm32l0xx_hal_adc.c **** 
 716:../../../../../../Drivers/STM32L0xx_HAL_Driver/Src/stm32l0xx_hal_adc.c **** /**
 717:../../../../../../Drivers/STM32L0xx_HAL_Driver/Src/stm32l0xx_hal_adc.c ****   * @brief  DeInitialize the ADC MSP.
 718:../../../../../../Drivers/STM32L0xx_HAL_Driver/Src/stm32l0xx_hal_adc.c ****   * @param  hadc ADC handle
 719:../../../../../../Drivers/STM32L0xx_HAL_Driver/Src/stm32l0xx_hal_adc.c ****   * @retval None
 720:../../../../../../Drivers/STM32L0xx_HAL_Driver/Src/stm32l0xx_hal_adc.c ****   */
 721:../../../../../../Drivers/STM32L0xx_HAL_Driver/Src/stm32l0xx_hal_adc.c **** __weak void HAL_ADC_MspDeInit(ADC_HandleTypeDef* hadc)
 722:../../../../../../Drivers/STM32L0xx_HAL_Driver/Src/stm32l0xx_hal_adc.c **** {
ARM GAS  C:\Users\EBANO_~1\AppData\Local\Temp\cc7eeVhF.s 			page 23


 723:../../../../../../Drivers/STM32L0xx_HAL_Driver/Src/stm32l0xx_hal_adc.c ****   /* Prevent unused argument(s) compilation warning */
 724:../../../../../../Drivers/STM32L0xx_HAL_Driver/Src/stm32l0xx_hal_adc.c ****   UNUSED(hadc);
 725:../../../../../../Drivers/STM32L0xx_HAL_Driver/Src/stm32l0xx_hal_adc.c **** 
 726:../../../../../../Drivers/STM32L0xx_HAL_Driver/Src/stm32l0xx_hal_adc.c ****   /* NOTE : This function should not be modified. When the callback is needed,
 727:../../../../../../Drivers/STM32L0xx_HAL_Driver/Src/stm32l0xx_hal_adc.c ****             function HAL_ADC_MspDeInit must be implemented in the user file.
 728:../../../../../../Drivers/STM32L0xx_HAL_Driver/Src/stm32l0xx_hal_adc.c ****    */ 
 729:../../../../../../Drivers/STM32L0xx_HAL_Driver/Src/stm32l0xx_hal_adc.c **** }
 730:../../../../../../Drivers/STM32L0xx_HAL_Driver/Src/stm32l0xx_hal_adc.c **** 
 731:../../../../../../Drivers/STM32L0xx_HAL_Driver/Src/stm32l0xx_hal_adc.c **** /**
 732:../../../../../../Drivers/STM32L0xx_HAL_Driver/Src/stm32l0xx_hal_adc.c ****   * @}
 733:../../../../../../Drivers/STM32L0xx_HAL_Driver/Src/stm32l0xx_hal_adc.c ****   */
 734:../../../../../../Drivers/STM32L0xx_HAL_Driver/Src/stm32l0xx_hal_adc.c **** 
 735:../../../../../../Drivers/STM32L0xx_HAL_Driver/Src/stm32l0xx_hal_adc.c **** /** @defgroup ADC_Exported_Functions_Group2 ADC Input and Output operation functions
 736:../../../../../../Drivers/STM32L0xx_HAL_Driver/Src/stm32l0xx_hal_adc.c ****  *  @brief    ADC IO operation functions 
 737:../../../../../../Drivers/STM32L0xx_HAL_Driver/Src/stm32l0xx_hal_adc.c ****  *
 738:../../../../../../Drivers/STM32L0xx_HAL_Driver/Src/stm32l0xx_hal_adc.c **** @verbatim   
 739:../../../../../../Drivers/STM32L0xx_HAL_Driver/Src/stm32l0xx_hal_adc.c ****  ===============================================================================
 740:../../../../../../Drivers/STM32L0xx_HAL_Driver/Src/stm32l0xx_hal_adc.c ****                       ##### IO operation functions #####
 741:../../../../../../Drivers/STM32L0xx_HAL_Driver/Src/stm32l0xx_hal_adc.c ****  ===============================================================================
 742:../../../../../../Drivers/STM32L0xx_HAL_Driver/Src/stm32l0xx_hal_adc.c ****     [..]  This section provides functions allowing to:
 743:../../../../../../Drivers/STM32L0xx_HAL_Driver/Src/stm32l0xx_hal_adc.c ****       (+) Start conversion of regular group.
 744:../../../../../../Drivers/STM32L0xx_HAL_Driver/Src/stm32l0xx_hal_adc.c ****       (+) Stop conversion of regular group.
 745:../../../../../../Drivers/STM32L0xx_HAL_Driver/Src/stm32l0xx_hal_adc.c ****       (+) Poll for conversion complete on regular group.
 746:../../../../../../Drivers/STM32L0xx_HAL_Driver/Src/stm32l0xx_hal_adc.c ****       (+) Poll for conversion event.
 747:../../../../../../Drivers/STM32L0xx_HAL_Driver/Src/stm32l0xx_hal_adc.c ****       (+) Get result of regular channel conversion.
 748:../../../../../../Drivers/STM32L0xx_HAL_Driver/Src/stm32l0xx_hal_adc.c ****       (+) Start conversion of regular group and enable interruptions.
 749:../../../../../../Drivers/STM32L0xx_HAL_Driver/Src/stm32l0xx_hal_adc.c ****       (+) Stop conversion of regular group and disable interruptions.
 750:../../../../../../Drivers/STM32L0xx_HAL_Driver/Src/stm32l0xx_hal_adc.c ****       (+) Handle ADC interrupt request
 751:../../../../../../Drivers/STM32L0xx_HAL_Driver/Src/stm32l0xx_hal_adc.c ****       (+) Start conversion of regular group and enable DMA transfer.
 752:../../../../../../Drivers/STM32L0xx_HAL_Driver/Src/stm32l0xx_hal_adc.c ****       (+) Stop conversion of regular group and disable ADC DMA transfer.
 753:../../../../../../Drivers/STM32L0xx_HAL_Driver/Src/stm32l0xx_hal_adc.c **** @endverbatim
 754:../../../../../../Drivers/STM32L0xx_HAL_Driver/Src/stm32l0xx_hal_adc.c ****   * @{
 755:../../../../../../Drivers/STM32L0xx_HAL_Driver/Src/stm32l0xx_hal_adc.c ****   */
 756:../../../../../../Drivers/STM32L0xx_HAL_Driver/Src/stm32l0xx_hal_adc.c **** 
 757:../../../../../../Drivers/STM32L0xx_HAL_Driver/Src/stm32l0xx_hal_adc.c **** /**
 758:../../../../../../Drivers/STM32L0xx_HAL_Driver/Src/stm32l0xx_hal_adc.c ****   * @brief  Enable ADC, start conversion of regular group.
 759:../../../../../../Drivers/STM32L0xx_HAL_Driver/Src/stm32l0xx_hal_adc.c ****   * @note   Interruptions enabled in this function: None.
 760:../../../../../../Drivers/STM32L0xx_HAL_Driver/Src/stm32l0xx_hal_adc.c ****   * @param  hadc ADC handle
 761:../../../../../../Drivers/STM32L0xx_HAL_Driver/Src/stm32l0xx_hal_adc.c ****   * @retval HAL status
 762:../../../../../../Drivers/STM32L0xx_HAL_Driver/Src/stm32l0xx_hal_adc.c ****   */
 763:../../../../../../Drivers/STM32L0xx_HAL_Driver/Src/stm32l0xx_hal_adc.c **** HAL_StatusTypeDef HAL_ADC_Start(ADC_HandleTypeDef* hadc)
 764:../../../../../../Drivers/STM32L0xx_HAL_Driver/Src/stm32l0xx_hal_adc.c **** {
 765:../../../../../../Drivers/STM32L0xx_HAL_Driver/Src/stm32l0xx_hal_adc.c ****   HAL_StatusTypeDef tmp_hal_status = HAL_OK;
 766:../../../../../../Drivers/STM32L0xx_HAL_Driver/Src/stm32l0xx_hal_adc.c ****   
 767:../../../../../../Drivers/STM32L0xx_HAL_Driver/Src/stm32l0xx_hal_adc.c ****   /* Check the parameters */
 768:../../../../../../Drivers/STM32L0xx_HAL_Driver/Src/stm32l0xx_hal_adc.c ****   assert_param(IS_ADC_ALL_INSTANCE(hadc->Instance));
 769:../../../../../../Drivers/STM32L0xx_HAL_Driver/Src/stm32l0xx_hal_adc.c ****   
 770:../../../../../../Drivers/STM32L0xx_HAL_Driver/Src/stm32l0xx_hal_adc.c ****   /* Perform ADC enable and conversion start if no conversion is on going */
 771:../../../../../../Drivers/STM32L0xx_HAL_Driver/Src/stm32l0xx_hal_adc.c ****   if (ADC_IS_CONVERSION_ONGOING_REGULAR(hadc) == RESET)
 772:../../../../../../Drivers/STM32L0xx_HAL_Driver/Src/stm32l0xx_hal_adc.c ****   {
 773:../../../../../../Drivers/STM32L0xx_HAL_Driver/Src/stm32l0xx_hal_adc.c ****     /* Process locked */
 774:../../../../../../Drivers/STM32L0xx_HAL_Driver/Src/stm32l0xx_hal_adc.c ****     __HAL_LOCK(hadc);
 775:../../../../../../Drivers/STM32L0xx_HAL_Driver/Src/stm32l0xx_hal_adc.c ****     
 776:../../../../../../Drivers/STM32L0xx_HAL_Driver/Src/stm32l0xx_hal_adc.c ****     /* Enable the ADC peripheral */
 777:../../../../../../Drivers/STM32L0xx_HAL_Driver/Src/stm32l0xx_hal_adc.c ****     /* If low power mode AutoPowerOff is enabled, power-on/off phases are     */
 778:../../../../../../Drivers/STM32L0xx_HAL_Driver/Src/stm32l0xx_hal_adc.c ****     /* performed automatically by hardware.                                   */
 779:../../../../../../Drivers/STM32L0xx_HAL_Driver/Src/stm32l0xx_hal_adc.c ****     if (hadc->Init.LowPowerAutoPowerOff != ENABLE)
ARM GAS  C:\Users\EBANO_~1\AppData\Local\Temp\cc7eeVhF.s 			page 24


 780:../../../../../../Drivers/STM32L0xx_HAL_Driver/Src/stm32l0xx_hal_adc.c ****     {
 781:../../../../../../Drivers/STM32L0xx_HAL_Driver/Src/stm32l0xx_hal_adc.c ****       tmp_hal_status = ADC_Enable(hadc);
 782:../../../../../../Drivers/STM32L0xx_HAL_Driver/Src/stm32l0xx_hal_adc.c ****     }
 783:../../../../../../Drivers/STM32L0xx_HAL_Driver/Src/stm32l0xx_hal_adc.c ****     
 784:../../../../../../Drivers/STM32L0xx_HAL_Driver/Src/stm32l0xx_hal_adc.c ****     /* Start conversion if ADC is effectively enabled */
 785:../../../../../../Drivers/STM32L0xx_HAL_Driver/Src/stm32l0xx_hal_adc.c ****     if (tmp_hal_status == HAL_OK)
 786:../../../../../../Drivers/STM32L0xx_HAL_Driver/Src/stm32l0xx_hal_adc.c ****     {
 787:../../../../../../Drivers/STM32L0xx_HAL_Driver/Src/stm32l0xx_hal_adc.c ****       /* Set ADC state                                                        */
 788:../../../../../../Drivers/STM32L0xx_HAL_Driver/Src/stm32l0xx_hal_adc.c ****       /* - Clear state bitfield related to regular group conversion results   */
 789:../../../../../../Drivers/STM32L0xx_HAL_Driver/Src/stm32l0xx_hal_adc.c ****       /* - Set state bitfield related to regular operation                    */
 790:../../../../../../Drivers/STM32L0xx_HAL_Driver/Src/stm32l0xx_hal_adc.c ****       ADC_STATE_CLR_SET(hadc->State,
 791:../../../../../../Drivers/STM32L0xx_HAL_Driver/Src/stm32l0xx_hal_adc.c ****                         HAL_ADC_STATE_READY | HAL_ADC_STATE_REG_EOC | HAL_ADC_STATE_REG_OVR | HAL_A
 792:../../../../../../Drivers/STM32L0xx_HAL_Driver/Src/stm32l0xx_hal_adc.c ****                         HAL_ADC_STATE_REG_BUSY);
 793:../../../../../../Drivers/STM32L0xx_HAL_Driver/Src/stm32l0xx_hal_adc.c ****       
 794:../../../../../../Drivers/STM32L0xx_HAL_Driver/Src/stm32l0xx_hal_adc.c ****       /* Reset ADC all error code fields */
 795:../../../../../../Drivers/STM32L0xx_HAL_Driver/Src/stm32l0xx_hal_adc.c ****       ADC_CLEAR_ERRORCODE(hadc);
 796:../../../../../../Drivers/STM32L0xx_HAL_Driver/Src/stm32l0xx_hal_adc.c ****       
 797:../../../../../../Drivers/STM32L0xx_HAL_Driver/Src/stm32l0xx_hal_adc.c ****       /* Process unlocked */
 798:../../../../../../Drivers/STM32L0xx_HAL_Driver/Src/stm32l0xx_hal_adc.c ****       /* Unlock before starting ADC conversions: in case of potential         */
 799:../../../../../../Drivers/STM32L0xx_HAL_Driver/Src/stm32l0xx_hal_adc.c ****       /* interruption, to let the process to ADC IRQ Handler.                 */
 800:../../../../../../Drivers/STM32L0xx_HAL_Driver/Src/stm32l0xx_hal_adc.c ****       __HAL_UNLOCK(hadc);
 801:../../../../../../Drivers/STM32L0xx_HAL_Driver/Src/stm32l0xx_hal_adc.c ****       
 802:../../../../../../Drivers/STM32L0xx_HAL_Driver/Src/stm32l0xx_hal_adc.c ****       /* Clear regular group conversion flag and overrun flag */
 803:../../../../../../Drivers/STM32L0xx_HAL_Driver/Src/stm32l0xx_hal_adc.c ****       /* (To ensure of no unknown state from potential previous ADC           */
 804:../../../../../../Drivers/STM32L0xx_HAL_Driver/Src/stm32l0xx_hal_adc.c ****       /* operations)                                                          */
 805:../../../../../../Drivers/STM32L0xx_HAL_Driver/Src/stm32l0xx_hal_adc.c ****       __HAL_ADC_CLEAR_FLAG(hadc, (ADC_FLAG_EOC | ADC_FLAG_EOS | ADC_FLAG_OVR));
 806:../../../../../../Drivers/STM32L0xx_HAL_Driver/Src/stm32l0xx_hal_adc.c ****       
 807:../../../../../../Drivers/STM32L0xx_HAL_Driver/Src/stm32l0xx_hal_adc.c ****       /* Enable conversion of regular group.                                  */
 808:../../../../../../Drivers/STM32L0xx_HAL_Driver/Src/stm32l0xx_hal_adc.c ****       /* If software start has been selected, conversion starts immediately.  */
 809:../../../../../../Drivers/STM32L0xx_HAL_Driver/Src/stm32l0xx_hal_adc.c ****       /* If external trigger has been selected, conversion will start at next */
 810:../../../../../../Drivers/STM32L0xx_HAL_Driver/Src/stm32l0xx_hal_adc.c ****       /* trigger event.                                                       */
 811:../../../../../../Drivers/STM32L0xx_HAL_Driver/Src/stm32l0xx_hal_adc.c ****       hadc->Instance->CR |= ADC_CR_ADSTART;
 812:../../../../../../Drivers/STM32L0xx_HAL_Driver/Src/stm32l0xx_hal_adc.c ****     }
 813:../../../../../../Drivers/STM32L0xx_HAL_Driver/Src/stm32l0xx_hal_adc.c ****   }
 814:../../../../../../Drivers/STM32L0xx_HAL_Driver/Src/stm32l0xx_hal_adc.c ****   else
 815:../../../../../../Drivers/STM32L0xx_HAL_Driver/Src/stm32l0xx_hal_adc.c ****   {
 816:../../../../../../Drivers/STM32L0xx_HAL_Driver/Src/stm32l0xx_hal_adc.c ****     tmp_hal_status = HAL_BUSY;
 817:../../../../../../Drivers/STM32L0xx_HAL_Driver/Src/stm32l0xx_hal_adc.c ****   }
 818:../../../../../../Drivers/STM32L0xx_HAL_Driver/Src/stm32l0xx_hal_adc.c ****   
 819:../../../../../../Drivers/STM32L0xx_HAL_Driver/Src/stm32l0xx_hal_adc.c ****   /* Return function status */
 820:../../../../../../Drivers/STM32L0xx_HAL_Driver/Src/stm32l0xx_hal_adc.c ****   return tmp_hal_status;
 821:../../../../../../Drivers/STM32L0xx_HAL_Driver/Src/stm32l0xx_hal_adc.c **** }
 822:../../../../../../Drivers/STM32L0xx_HAL_Driver/Src/stm32l0xx_hal_adc.c **** 
 823:../../../../../../Drivers/STM32L0xx_HAL_Driver/Src/stm32l0xx_hal_adc.c **** /**
 824:../../../../../../Drivers/STM32L0xx_HAL_Driver/Src/stm32l0xx_hal_adc.c ****   * @brief  Stop ADC conversion of regular group (and injected channels in 
 825:../../../../../../Drivers/STM32L0xx_HAL_Driver/Src/stm32l0xx_hal_adc.c ****   *         case of auto_injection mode), disable ADC peripheral.
 826:../../../../../../Drivers/STM32L0xx_HAL_Driver/Src/stm32l0xx_hal_adc.c ****   * @param  hadc ADC handle
 827:../../../../../../Drivers/STM32L0xx_HAL_Driver/Src/stm32l0xx_hal_adc.c ****   * @retval HAL status.
 828:../../../../../../Drivers/STM32L0xx_HAL_Driver/Src/stm32l0xx_hal_adc.c ****   */
 829:../../../../../../Drivers/STM32L0xx_HAL_Driver/Src/stm32l0xx_hal_adc.c **** HAL_StatusTypeDef HAL_ADC_Stop(ADC_HandleTypeDef* hadc)
 830:../../../../../../Drivers/STM32L0xx_HAL_Driver/Src/stm32l0xx_hal_adc.c **** {
 831:../../../../../../Drivers/STM32L0xx_HAL_Driver/Src/stm32l0xx_hal_adc.c ****   HAL_StatusTypeDef tmp_hal_status = HAL_OK;
 832:../../../../../../Drivers/STM32L0xx_HAL_Driver/Src/stm32l0xx_hal_adc.c ****   
 833:../../../../../../Drivers/STM32L0xx_HAL_Driver/Src/stm32l0xx_hal_adc.c ****   /* Check the parameters */
 834:../../../../../../Drivers/STM32L0xx_HAL_Driver/Src/stm32l0xx_hal_adc.c ****   assert_param(IS_ADC_ALL_INSTANCE(hadc->Instance));
 835:../../../../../../Drivers/STM32L0xx_HAL_Driver/Src/stm32l0xx_hal_adc.c ****   
 836:../../../../../../Drivers/STM32L0xx_HAL_Driver/Src/stm32l0xx_hal_adc.c ****   /* Process locked */
ARM GAS  C:\Users\EBANO_~1\AppData\Local\Temp\cc7eeVhF.s 			page 25


 837:../../../../../../Drivers/STM32L0xx_HAL_Driver/Src/stm32l0xx_hal_adc.c ****   __HAL_LOCK(hadc);
 838:../../../../../../Drivers/STM32L0xx_HAL_Driver/Src/stm32l0xx_hal_adc.c ****   
 839:../../../../../../Drivers/STM32L0xx_HAL_Driver/Src/stm32l0xx_hal_adc.c ****   /* 1. Stop potential conversion on going, on ADC group regular */
 840:../../../../../../Drivers/STM32L0xx_HAL_Driver/Src/stm32l0xx_hal_adc.c ****   tmp_hal_status = ADC_ConversionStop(hadc);
 841:../../../../../../Drivers/STM32L0xx_HAL_Driver/Src/stm32l0xx_hal_adc.c ****   
 842:../../../../../../Drivers/STM32L0xx_HAL_Driver/Src/stm32l0xx_hal_adc.c ****   /* Disable ADC peripheral if conversions are effectively stopped */
 843:../../../../../../Drivers/STM32L0xx_HAL_Driver/Src/stm32l0xx_hal_adc.c ****   if (tmp_hal_status == HAL_OK)
 844:../../../../../../Drivers/STM32L0xx_HAL_Driver/Src/stm32l0xx_hal_adc.c ****   {
 845:../../../../../../Drivers/STM32L0xx_HAL_Driver/Src/stm32l0xx_hal_adc.c ****     /* 2. Disable the ADC peripheral */
 846:../../../../../../Drivers/STM32L0xx_HAL_Driver/Src/stm32l0xx_hal_adc.c ****     tmp_hal_status = ADC_Disable(hadc);
 847:../../../../../../Drivers/STM32L0xx_HAL_Driver/Src/stm32l0xx_hal_adc.c ****     
 848:../../../../../../Drivers/STM32L0xx_HAL_Driver/Src/stm32l0xx_hal_adc.c ****     /* Check if ADC is effectively disabled */
 849:../../../../../../Drivers/STM32L0xx_HAL_Driver/Src/stm32l0xx_hal_adc.c ****     if (tmp_hal_status == HAL_OK)
 850:../../../../../../Drivers/STM32L0xx_HAL_Driver/Src/stm32l0xx_hal_adc.c ****     {
 851:../../../../../../Drivers/STM32L0xx_HAL_Driver/Src/stm32l0xx_hal_adc.c ****       /* Set ADC state */
 852:../../../../../../Drivers/STM32L0xx_HAL_Driver/Src/stm32l0xx_hal_adc.c ****       ADC_STATE_CLR_SET(hadc->State,
 853:../../../../../../Drivers/STM32L0xx_HAL_Driver/Src/stm32l0xx_hal_adc.c ****                         HAL_ADC_STATE_REG_BUSY,
 854:../../../../../../Drivers/STM32L0xx_HAL_Driver/Src/stm32l0xx_hal_adc.c ****                         HAL_ADC_STATE_READY);
 855:../../../../../../Drivers/STM32L0xx_HAL_Driver/Src/stm32l0xx_hal_adc.c ****     }
 856:../../../../../../Drivers/STM32L0xx_HAL_Driver/Src/stm32l0xx_hal_adc.c ****   }
 857:../../../../../../Drivers/STM32L0xx_HAL_Driver/Src/stm32l0xx_hal_adc.c ****   
 858:../../../../../../Drivers/STM32L0xx_HAL_Driver/Src/stm32l0xx_hal_adc.c ****   /* Process unlocked */
 859:../../../../../../Drivers/STM32L0xx_HAL_Driver/Src/stm32l0xx_hal_adc.c ****   __HAL_UNLOCK(hadc);
 860:../../../../../../Drivers/STM32L0xx_HAL_Driver/Src/stm32l0xx_hal_adc.c ****   
 861:../../../../../../Drivers/STM32L0xx_HAL_Driver/Src/stm32l0xx_hal_adc.c ****   /* Return function status */
 862:../../../../../../Drivers/STM32L0xx_HAL_Driver/Src/stm32l0xx_hal_adc.c ****   return tmp_hal_status;
 863:../../../../../../Drivers/STM32L0xx_HAL_Driver/Src/stm32l0xx_hal_adc.c **** }
 864:../../../../../../Drivers/STM32L0xx_HAL_Driver/Src/stm32l0xx_hal_adc.c **** 
 865:../../../../../../Drivers/STM32L0xx_HAL_Driver/Src/stm32l0xx_hal_adc.c **** /**
 866:../../../../../../Drivers/STM32L0xx_HAL_Driver/Src/stm32l0xx_hal_adc.c ****   * @brief  Wait for regular group conversion to be completed.
 867:../../../../../../Drivers/STM32L0xx_HAL_Driver/Src/stm32l0xx_hal_adc.c ****   * @note   ADC conversion flags EOS (end of sequence) and EOC (end of
 868:../../../../../../Drivers/STM32L0xx_HAL_Driver/Src/stm32l0xx_hal_adc.c ****   *         conversion) are cleared by this function, with an exception:
 869:../../../../../../Drivers/STM32L0xx_HAL_Driver/Src/stm32l0xx_hal_adc.c ****   *         if low power feature "LowPowerAutoWait" is enabled, flags are 
 870:../../../../../../Drivers/STM32L0xx_HAL_Driver/Src/stm32l0xx_hal_adc.c ****   *         not cleared to not interfere with this feature until data register
 871:../../../../../../Drivers/STM32L0xx_HAL_Driver/Src/stm32l0xx_hal_adc.c ****   *         is read using function HAL_ADC_GetValue().
 872:../../../../../../Drivers/STM32L0xx_HAL_Driver/Src/stm32l0xx_hal_adc.c ****   * @note   This function cannot be used in a particular setup: ADC configured 
 873:../../../../../../Drivers/STM32L0xx_HAL_Driver/Src/stm32l0xx_hal_adc.c ****   *         in DMA mode and polling for end of each conversion (ADC init
 874:../../../../../../Drivers/STM32L0xx_HAL_Driver/Src/stm32l0xx_hal_adc.c ****   *         parameter "EOCSelection" set to ADC_EOC_SINGLE_CONV).
 875:../../../../../../Drivers/STM32L0xx_HAL_Driver/Src/stm32l0xx_hal_adc.c ****   *         In this case, DMA resets the flag EOC and polling cannot be
 876:../../../../../../Drivers/STM32L0xx_HAL_Driver/Src/stm32l0xx_hal_adc.c ****   *         performed on each conversion. Nevertheless, polling can still 
 877:../../../../../../Drivers/STM32L0xx_HAL_Driver/Src/stm32l0xx_hal_adc.c ****   *         be performed on the complete sequence (ADC init
 878:../../../../../../Drivers/STM32L0xx_HAL_Driver/Src/stm32l0xx_hal_adc.c ****   *         parameter "EOCSelection" set to ADC_EOC_SEQ_CONV).
 879:../../../../../../Drivers/STM32L0xx_HAL_Driver/Src/stm32l0xx_hal_adc.c ****   * @param  hadc ADC handle
 880:../../../../../../Drivers/STM32L0xx_HAL_Driver/Src/stm32l0xx_hal_adc.c ****   * @param  Timeout Timeout value in millisecond.
 881:../../../../../../Drivers/STM32L0xx_HAL_Driver/Src/stm32l0xx_hal_adc.c ****   * @retval HAL status
 882:../../../../../../Drivers/STM32L0xx_HAL_Driver/Src/stm32l0xx_hal_adc.c ****   */
 883:../../../../../../Drivers/STM32L0xx_HAL_Driver/Src/stm32l0xx_hal_adc.c **** HAL_StatusTypeDef HAL_ADC_PollForConversion(ADC_HandleTypeDef* hadc, uint32_t Timeout)
 884:../../../../../../Drivers/STM32L0xx_HAL_Driver/Src/stm32l0xx_hal_adc.c **** {
 885:../../../../../../Drivers/STM32L0xx_HAL_Driver/Src/stm32l0xx_hal_adc.c ****   uint32_t tickstart = 0;
 886:../../../../../../Drivers/STM32L0xx_HAL_Driver/Src/stm32l0xx_hal_adc.c ****   uint32_t tmp_Flag_EOC   = 0x00;
 887:../../../../../../Drivers/STM32L0xx_HAL_Driver/Src/stm32l0xx_hal_adc.c ****   
 888:../../../../../../Drivers/STM32L0xx_HAL_Driver/Src/stm32l0xx_hal_adc.c ****   /* Check the parameters */
 889:../../../../../../Drivers/STM32L0xx_HAL_Driver/Src/stm32l0xx_hal_adc.c ****   assert_param(IS_ADC_ALL_INSTANCE(hadc->Instance));
 890:../../../../../../Drivers/STM32L0xx_HAL_Driver/Src/stm32l0xx_hal_adc.c ****   
 891:../../../../../../Drivers/STM32L0xx_HAL_Driver/Src/stm32l0xx_hal_adc.c ****   /* If end of conversion selected to end of sequence conversions */
 892:../../../../../../Drivers/STM32L0xx_HAL_Driver/Src/stm32l0xx_hal_adc.c ****   if (hadc->Init.EOCSelection == ADC_EOC_SEQ_CONV)
 893:../../../../../../Drivers/STM32L0xx_HAL_Driver/Src/stm32l0xx_hal_adc.c ****   {
ARM GAS  C:\Users\EBANO_~1\AppData\Local\Temp\cc7eeVhF.s 			page 26


 894:../../../../../../Drivers/STM32L0xx_HAL_Driver/Src/stm32l0xx_hal_adc.c ****     tmp_Flag_EOC = ADC_FLAG_EOS;
 895:../../../../../../Drivers/STM32L0xx_HAL_Driver/Src/stm32l0xx_hal_adc.c ****   }
 896:../../../../../../Drivers/STM32L0xx_HAL_Driver/Src/stm32l0xx_hal_adc.c ****   /* If end of conversion selected to end of unitary conversion */
 897:../../../../../../Drivers/STM32L0xx_HAL_Driver/Src/stm32l0xx_hal_adc.c ****   else /* ADC_EOC_SINGLE_CONV */
 898:../../../../../../Drivers/STM32L0xx_HAL_Driver/Src/stm32l0xx_hal_adc.c ****   {
 899:../../../../../../Drivers/STM32L0xx_HAL_Driver/Src/stm32l0xx_hal_adc.c ****     /* Verification that ADC configuration is compliant with polling for      */
 900:../../../../../../Drivers/STM32L0xx_HAL_Driver/Src/stm32l0xx_hal_adc.c ****     /* each conversion:                                                       */
 901:../../../../../../Drivers/STM32L0xx_HAL_Driver/Src/stm32l0xx_hal_adc.c ****     /* Particular case is ADC configured in DMA mode and ADC sequencer with   */
 902:../../../../../../Drivers/STM32L0xx_HAL_Driver/Src/stm32l0xx_hal_adc.c ****     /* several ranks and polling for end of each conversion.                  */
 903:../../../../../../Drivers/STM32L0xx_HAL_Driver/Src/stm32l0xx_hal_adc.c ****     /* For code simplicity sake, this particular case is generalized to       */
 904:../../../../../../Drivers/STM32L0xx_HAL_Driver/Src/stm32l0xx_hal_adc.c ****     /* ADC configured in DMA mode and and polling for end of each conversion. */
 905:../../../../../../Drivers/STM32L0xx_HAL_Driver/Src/stm32l0xx_hal_adc.c ****     if (HAL_IS_BIT_SET(hadc->Instance->CFGR1, ADC_CFGR1_DMAEN))
 906:../../../../../../Drivers/STM32L0xx_HAL_Driver/Src/stm32l0xx_hal_adc.c ****     {
 907:../../../../../../Drivers/STM32L0xx_HAL_Driver/Src/stm32l0xx_hal_adc.c ****       /* Update ADC state machine to error */
 908:../../../../../../Drivers/STM32L0xx_HAL_Driver/Src/stm32l0xx_hal_adc.c ****       SET_BIT(hadc->State, HAL_ADC_STATE_ERROR_CONFIG);
 909:../../../../../../Drivers/STM32L0xx_HAL_Driver/Src/stm32l0xx_hal_adc.c ****       
 910:../../../../../../Drivers/STM32L0xx_HAL_Driver/Src/stm32l0xx_hal_adc.c ****       /* Process unlocked */
 911:../../../../../../Drivers/STM32L0xx_HAL_Driver/Src/stm32l0xx_hal_adc.c ****       __HAL_UNLOCK(hadc);
 912:../../../../../../Drivers/STM32L0xx_HAL_Driver/Src/stm32l0xx_hal_adc.c ****       
 913:../../../../../../Drivers/STM32L0xx_HAL_Driver/Src/stm32l0xx_hal_adc.c ****       return HAL_ERROR;
 914:../../../../../../Drivers/STM32L0xx_HAL_Driver/Src/stm32l0xx_hal_adc.c ****     }
 915:../../../../../../Drivers/STM32L0xx_HAL_Driver/Src/stm32l0xx_hal_adc.c ****     else
 916:../../../../../../Drivers/STM32L0xx_HAL_Driver/Src/stm32l0xx_hal_adc.c ****     {
 917:../../../../../../Drivers/STM32L0xx_HAL_Driver/Src/stm32l0xx_hal_adc.c ****       tmp_Flag_EOC = (ADC_FLAG_EOC | ADC_FLAG_EOS);
 918:../../../../../../Drivers/STM32L0xx_HAL_Driver/Src/stm32l0xx_hal_adc.c ****     }
 919:../../../../../../Drivers/STM32L0xx_HAL_Driver/Src/stm32l0xx_hal_adc.c ****   }
 920:../../../../../../Drivers/STM32L0xx_HAL_Driver/Src/stm32l0xx_hal_adc.c ****   
 921:../../../../../../Drivers/STM32L0xx_HAL_Driver/Src/stm32l0xx_hal_adc.c ****   /* Get tick count */
 922:../../../../../../Drivers/STM32L0xx_HAL_Driver/Src/stm32l0xx_hal_adc.c ****   tickstart = HAL_GetTick();
 923:../../../../../../Drivers/STM32L0xx_HAL_Driver/Src/stm32l0xx_hal_adc.c ****   
 924:../../../../../../Drivers/STM32L0xx_HAL_Driver/Src/stm32l0xx_hal_adc.c ****   /* Wait until End of unitary conversion or sequence conversions flag is raised */
 925:../../../../../../Drivers/STM32L0xx_HAL_Driver/Src/stm32l0xx_hal_adc.c ****   while(HAL_IS_BIT_CLR(hadc->Instance->ISR, tmp_Flag_EOC))
 926:../../../../../../Drivers/STM32L0xx_HAL_Driver/Src/stm32l0xx_hal_adc.c ****   {
 927:../../../../../../Drivers/STM32L0xx_HAL_Driver/Src/stm32l0xx_hal_adc.c ****     /* Check if timeout is disabled (set to infinite wait) */
 928:../../../../../../Drivers/STM32L0xx_HAL_Driver/Src/stm32l0xx_hal_adc.c ****     if(Timeout != HAL_MAX_DELAY)
 929:../../../../../../Drivers/STM32L0xx_HAL_Driver/Src/stm32l0xx_hal_adc.c ****     {
 930:../../../../../../Drivers/STM32L0xx_HAL_Driver/Src/stm32l0xx_hal_adc.c ****       if((Timeout == 0U) || ((HAL_GetTick()-tickstart) > Timeout))
 931:../../../../../../Drivers/STM32L0xx_HAL_Driver/Src/stm32l0xx_hal_adc.c ****       {
 932:../../../../../../Drivers/STM32L0xx_HAL_Driver/Src/stm32l0xx_hal_adc.c ****         /* Update ADC state machine to timeout */
 933:../../../../../../Drivers/STM32L0xx_HAL_Driver/Src/stm32l0xx_hal_adc.c ****         SET_BIT(hadc->State, HAL_ADC_STATE_TIMEOUT);
 934:../../../../../../Drivers/STM32L0xx_HAL_Driver/Src/stm32l0xx_hal_adc.c ****         
 935:../../../../../../Drivers/STM32L0xx_HAL_Driver/Src/stm32l0xx_hal_adc.c ****         /* Process unlocked */
 936:../../../../../../Drivers/STM32L0xx_HAL_Driver/Src/stm32l0xx_hal_adc.c ****         __HAL_UNLOCK(hadc);
 937:../../../../../../Drivers/STM32L0xx_HAL_Driver/Src/stm32l0xx_hal_adc.c ****         
 938:../../../../../../Drivers/STM32L0xx_HAL_Driver/Src/stm32l0xx_hal_adc.c ****         return HAL_TIMEOUT;
 939:../../../../../../Drivers/STM32L0xx_HAL_Driver/Src/stm32l0xx_hal_adc.c ****       }
 940:../../../../../../Drivers/STM32L0xx_HAL_Driver/Src/stm32l0xx_hal_adc.c ****     }
 941:../../../../../../Drivers/STM32L0xx_HAL_Driver/Src/stm32l0xx_hal_adc.c ****   }
 942:../../../../../../Drivers/STM32L0xx_HAL_Driver/Src/stm32l0xx_hal_adc.c ****   
 943:../../../../../../Drivers/STM32L0xx_HAL_Driver/Src/stm32l0xx_hal_adc.c ****   /* Update ADC state machine */
 944:../../../../../../Drivers/STM32L0xx_HAL_Driver/Src/stm32l0xx_hal_adc.c ****   SET_BIT(hadc->State, HAL_ADC_STATE_REG_EOC);
 945:../../../../../../Drivers/STM32L0xx_HAL_Driver/Src/stm32l0xx_hal_adc.c ****   
 946:../../../../../../Drivers/STM32L0xx_HAL_Driver/Src/stm32l0xx_hal_adc.c ****   /* Determine whether any further conversion upcoming on group regular       */
 947:../../../../../../Drivers/STM32L0xx_HAL_Driver/Src/stm32l0xx_hal_adc.c ****   /* by external trigger, continuous mode or scan sequence on going.          */
 948:../../../../../../Drivers/STM32L0xx_HAL_Driver/Src/stm32l0xx_hal_adc.c ****   if(ADC_IS_SOFTWARE_START_REGULAR(hadc)        && 
 949:../../../../../../Drivers/STM32L0xx_HAL_Driver/Src/stm32l0xx_hal_adc.c ****      (hadc->Init.ContinuousConvMode == DISABLE)   )
 950:../../../../../../Drivers/STM32L0xx_HAL_Driver/Src/stm32l0xx_hal_adc.c ****   {
ARM GAS  C:\Users\EBANO_~1\AppData\Local\Temp\cc7eeVhF.s 			page 27


 951:../../../../../../Drivers/STM32L0xx_HAL_Driver/Src/stm32l0xx_hal_adc.c ****     /* If End of Sequence is reached, disable interrupts */
 952:../../../../../../Drivers/STM32L0xx_HAL_Driver/Src/stm32l0xx_hal_adc.c ****     if( __HAL_ADC_GET_FLAG(hadc, ADC_FLAG_EOS) )
 953:../../../../../../Drivers/STM32L0xx_HAL_Driver/Src/stm32l0xx_hal_adc.c ****     {
 954:../../../../../../Drivers/STM32L0xx_HAL_Driver/Src/stm32l0xx_hal_adc.c ****       /* Allowed to modify bits ADC_IT_EOC/ADC_IT_EOS only if bit             */
 955:../../../../../../Drivers/STM32L0xx_HAL_Driver/Src/stm32l0xx_hal_adc.c ****       /* ADSTART==0 (no conversion on going)                                  */
 956:../../../../../../Drivers/STM32L0xx_HAL_Driver/Src/stm32l0xx_hal_adc.c ****       if (ADC_IS_CONVERSION_ONGOING_REGULAR(hadc) == RESET)
 957:../../../../../../Drivers/STM32L0xx_HAL_Driver/Src/stm32l0xx_hal_adc.c ****       {
 958:../../../../../../Drivers/STM32L0xx_HAL_Driver/Src/stm32l0xx_hal_adc.c ****         /* Disable ADC end of single conversion interrupt on group regular */
 959:../../../../../../Drivers/STM32L0xx_HAL_Driver/Src/stm32l0xx_hal_adc.c ****         /* Note: Overrun interrupt was enabled with EOC interrupt in          */
 960:../../../../../../Drivers/STM32L0xx_HAL_Driver/Src/stm32l0xx_hal_adc.c ****         /* HAL_Start_IT(), but is not disabled here because can be used       */
 961:../../../../../../Drivers/STM32L0xx_HAL_Driver/Src/stm32l0xx_hal_adc.c ****         /* by overrun IRQ process below.                                      */
 962:../../../../../../Drivers/STM32L0xx_HAL_Driver/Src/stm32l0xx_hal_adc.c ****         __HAL_ADC_DISABLE_IT(hadc, ADC_IT_EOC | ADC_IT_EOS);
 963:../../../../../../Drivers/STM32L0xx_HAL_Driver/Src/stm32l0xx_hal_adc.c ****         
 964:../../../../../../Drivers/STM32L0xx_HAL_Driver/Src/stm32l0xx_hal_adc.c ****         /* Set ADC state */
 965:../../../../../../Drivers/STM32L0xx_HAL_Driver/Src/stm32l0xx_hal_adc.c ****         ADC_STATE_CLR_SET(hadc->State,
 966:../../../../../../Drivers/STM32L0xx_HAL_Driver/Src/stm32l0xx_hal_adc.c ****                           HAL_ADC_STATE_REG_BUSY,
 967:../../../../../../Drivers/STM32L0xx_HAL_Driver/Src/stm32l0xx_hal_adc.c ****                           HAL_ADC_STATE_READY);
 968:../../../../../../Drivers/STM32L0xx_HAL_Driver/Src/stm32l0xx_hal_adc.c ****       }
 969:../../../../../../Drivers/STM32L0xx_HAL_Driver/Src/stm32l0xx_hal_adc.c ****       else
 970:../../../../../../Drivers/STM32L0xx_HAL_Driver/Src/stm32l0xx_hal_adc.c ****       {
 971:../../../../../../Drivers/STM32L0xx_HAL_Driver/Src/stm32l0xx_hal_adc.c ****         /* Change ADC state to error state */
 972:../../../../../../Drivers/STM32L0xx_HAL_Driver/Src/stm32l0xx_hal_adc.c ****         SET_BIT(hadc->State, HAL_ADC_STATE_ERROR_CONFIG);
 973:../../../../../../Drivers/STM32L0xx_HAL_Driver/Src/stm32l0xx_hal_adc.c ****         
 974:../../../../../../Drivers/STM32L0xx_HAL_Driver/Src/stm32l0xx_hal_adc.c ****         /* Set ADC error code to ADC IP internal error */
 975:../../../../../../Drivers/STM32L0xx_HAL_Driver/Src/stm32l0xx_hal_adc.c ****         SET_BIT(hadc->ErrorCode, HAL_ADC_ERROR_INTERNAL);
 976:../../../../../../Drivers/STM32L0xx_HAL_Driver/Src/stm32l0xx_hal_adc.c ****       }
 977:../../../../../../Drivers/STM32L0xx_HAL_Driver/Src/stm32l0xx_hal_adc.c ****     }
 978:../../../../../../Drivers/STM32L0xx_HAL_Driver/Src/stm32l0xx_hal_adc.c ****   }
 979:../../../../../../Drivers/STM32L0xx_HAL_Driver/Src/stm32l0xx_hal_adc.c ****   
 980:../../../../../../Drivers/STM32L0xx_HAL_Driver/Src/stm32l0xx_hal_adc.c ****   /* Clear end of conversion flag of regular group if low power feature       */
 981:../../../../../../Drivers/STM32L0xx_HAL_Driver/Src/stm32l0xx_hal_adc.c ****   /* "LowPowerAutoWait " is disabled, to not interfere with this feature      */
 982:../../../../../../Drivers/STM32L0xx_HAL_Driver/Src/stm32l0xx_hal_adc.c ****   /* until data register is read using function HAL_ADC_GetValue().           */
 983:../../../../../../Drivers/STM32L0xx_HAL_Driver/Src/stm32l0xx_hal_adc.c ****   if (hadc->Init.LowPowerAutoWait == DISABLE)
 984:../../../../../../Drivers/STM32L0xx_HAL_Driver/Src/stm32l0xx_hal_adc.c ****   {
 985:../../../../../../Drivers/STM32L0xx_HAL_Driver/Src/stm32l0xx_hal_adc.c ****     /* Clear regular group conversion flag */
 986:../../../../../../Drivers/STM32L0xx_HAL_Driver/Src/stm32l0xx_hal_adc.c ****     __HAL_ADC_CLEAR_FLAG(hadc, (ADC_FLAG_EOC | ADC_FLAG_EOS));
 987:../../../../../../Drivers/STM32L0xx_HAL_Driver/Src/stm32l0xx_hal_adc.c ****   }
 988:../../../../../../Drivers/STM32L0xx_HAL_Driver/Src/stm32l0xx_hal_adc.c ****   
 989:../../../../../../Drivers/STM32L0xx_HAL_Driver/Src/stm32l0xx_hal_adc.c ****   /* Return function status */
 990:../../../../../../Drivers/STM32L0xx_HAL_Driver/Src/stm32l0xx_hal_adc.c ****   return HAL_OK;
 991:../../../../../../Drivers/STM32L0xx_HAL_Driver/Src/stm32l0xx_hal_adc.c **** }
 992:../../../../../../Drivers/STM32L0xx_HAL_Driver/Src/stm32l0xx_hal_adc.c **** 
 993:../../../../../../Drivers/STM32L0xx_HAL_Driver/Src/stm32l0xx_hal_adc.c **** /**
 994:../../../../../../Drivers/STM32L0xx_HAL_Driver/Src/stm32l0xx_hal_adc.c ****   * @brief  Poll for ADC event.
 995:../../../../../../Drivers/STM32L0xx_HAL_Driver/Src/stm32l0xx_hal_adc.c ****   * @param  hadc ADC handle
 996:../../../../../../Drivers/STM32L0xx_HAL_Driver/Src/stm32l0xx_hal_adc.c ****   * @param  EventType the ADC event type.
 997:../../../../../../Drivers/STM32L0xx_HAL_Driver/Src/stm32l0xx_hal_adc.c ****   *          This parameter can be one of the following values:
 998:../../../../../../Drivers/STM32L0xx_HAL_Driver/Src/stm32l0xx_hal_adc.c ****   *            @arg ADC_AWD_EVENT: ADC Analog watchdog event
 999:../../../../../../Drivers/STM32L0xx_HAL_Driver/Src/stm32l0xx_hal_adc.c ****   *            @arg ADC_OVR_EVENT: ADC Overrun event
1000:../../../../../../Drivers/STM32L0xx_HAL_Driver/Src/stm32l0xx_hal_adc.c ****   * @param  Timeout Timeout value in millisecond.
1001:../../../../../../Drivers/STM32L0xx_HAL_Driver/Src/stm32l0xx_hal_adc.c ****   * @note   The relevant flag is cleared if found to be set, except for ADC_FLAG_OVR.
1002:../../../../../../Drivers/STM32L0xx_HAL_Driver/Src/stm32l0xx_hal_adc.c ****   *         Indeed, the latter is reset only if hadc->Init.Overrun field is set  
1003:../../../../../../Drivers/STM32L0xx_HAL_Driver/Src/stm32l0xx_hal_adc.c ****   *         to ADC_OVR_DATA_OVERWRITTEN. Otherwise, data register may be potentially overwritten 
1004:../../../../../../Drivers/STM32L0xx_HAL_Driver/Src/stm32l0xx_hal_adc.c ****   *         by a new converted data as soon as OVR is cleared.
1005:../../../../../../Drivers/STM32L0xx_HAL_Driver/Src/stm32l0xx_hal_adc.c ****   *         To reset OVR flag once the preserved data is retrieved, the user can resort
1006:../../../../../../Drivers/STM32L0xx_HAL_Driver/Src/stm32l0xx_hal_adc.c ****   *         to macro __HAL_ADC_CLEAR_FLAG(hadc, ADC_FLAG_OVR); 
1007:../../../../../../Drivers/STM32L0xx_HAL_Driver/Src/stm32l0xx_hal_adc.c ****   * @retval HAL status
ARM GAS  C:\Users\EBANO_~1\AppData\Local\Temp\cc7eeVhF.s 			page 28


1008:../../../../../../Drivers/STM32L0xx_HAL_Driver/Src/stm32l0xx_hal_adc.c ****   */
1009:../../../../../../Drivers/STM32L0xx_HAL_Driver/Src/stm32l0xx_hal_adc.c **** HAL_StatusTypeDef HAL_ADC_PollForEvent(ADC_HandleTypeDef* hadc, uint32_t EventType, uint32_t Timeou
1010:../../../../../../Drivers/STM32L0xx_HAL_Driver/Src/stm32l0xx_hal_adc.c **** {
1011:../../../../../../Drivers/STM32L0xx_HAL_Driver/Src/stm32l0xx_hal_adc.c ****   uint32_t tickstart = 0U; 
1012:../../../../../../Drivers/STM32L0xx_HAL_Driver/Src/stm32l0xx_hal_adc.c ****   
1013:../../../../../../Drivers/STM32L0xx_HAL_Driver/Src/stm32l0xx_hal_adc.c ****   /* Check the parameters */
1014:../../../../../../Drivers/STM32L0xx_HAL_Driver/Src/stm32l0xx_hal_adc.c ****   assert_param(IS_ADC_ALL_INSTANCE(hadc->Instance));
1015:../../../../../../Drivers/STM32L0xx_HAL_Driver/Src/stm32l0xx_hal_adc.c ****   assert_param(IS_ADC_EVENT_TYPE(EventType));
1016:../../../../../../Drivers/STM32L0xx_HAL_Driver/Src/stm32l0xx_hal_adc.c ****   
1017:../../../../../../Drivers/STM32L0xx_HAL_Driver/Src/stm32l0xx_hal_adc.c ****   /* Get tick count */
1018:../../../../../../Drivers/STM32L0xx_HAL_Driver/Src/stm32l0xx_hal_adc.c ****   tickstart = HAL_GetTick();
1019:../../../../../../Drivers/STM32L0xx_HAL_Driver/Src/stm32l0xx_hal_adc.c ****   
1020:../../../../../../Drivers/STM32L0xx_HAL_Driver/Src/stm32l0xx_hal_adc.c ****   /* Check selected event flag */
1021:../../../../../../Drivers/STM32L0xx_HAL_Driver/Src/stm32l0xx_hal_adc.c ****   while(__HAL_ADC_GET_FLAG(hadc, EventType) == RESET)
1022:../../../../../../Drivers/STM32L0xx_HAL_Driver/Src/stm32l0xx_hal_adc.c ****   {
1023:../../../../../../Drivers/STM32L0xx_HAL_Driver/Src/stm32l0xx_hal_adc.c ****     /* Check if timeout is disabled (set to infinite wait) */
1024:../../../../../../Drivers/STM32L0xx_HAL_Driver/Src/stm32l0xx_hal_adc.c ****     if(Timeout != HAL_MAX_DELAY)
1025:../../../../../../Drivers/STM32L0xx_HAL_Driver/Src/stm32l0xx_hal_adc.c ****     {
1026:../../../../../../Drivers/STM32L0xx_HAL_Driver/Src/stm32l0xx_hal_adc.c ****       if((Timeout == 0U) ||((HAL_GetTick() - tickstart ) > Timeout))
1027:../../../../../../Drivers/STM32L0xx_HAL_Driver/Src/stm32l0xx_hal_adc.c ****       {
1028:../../../../../../Drivers/STM32L0xx_HAL_Driver/Src/stm32l0xx_hal_adc.c ****         /* Update ADC state machine to timeout */
1029:../../../../../../Drivers/STM32L0xx_HAL_Driver/Src/stm32l0xx_hal_adc.c ****         SET_BIT(hadc->State, HAL_ADC_STATE_TIMEOUT);
1030:../../../../../../Drivers/STM32L0xx_HAL_Driver/Src/stm32l0xx_hal_adc.c ****         
1031:../../../../../../Drivers/STM32L0xx_HAL_Driver/Src/stm32l0xx_hal_adc.c ****         /* Process unlocked */
1032:../../../../../../Drivers/STM32L0xx_HAL_Driver/Src/stm32l0xx_hal_adc.c ****         __HAL_UNLOCK(hadc);
1033:../../../../../../Drivers/STM32L0xx_HAL_Driver/Src/stm32l0xx_hal_adc.c ****         
1034:../../../../../../Drivers/STM32L0xx_HAL_Driver/Src/stm32l0xx_hal_adc.c ****         return HAL_TIMEOUT;
1035:../../../../../../Drivers/STM32L0xx_HAL_Driver/Src/stm32l0xx_hal_adc.c ****       }
1036:../../../../../../Drivers/STM32L0xx_HAL_Driver/Src/stm32l0xx_hal_adc.c ****     }
1037:../../../../../../Drivers/STM32L0xx_HAL_Driver/Src/stm32l0xx_hal_adc.c ****   }
1038:../../../../../../Drivers/STM32L0xx_HAL_Driver/Src/stm32l0xx_hal_adc.c ****   
1039:../../../../../../Drivers/STM32L0xx_HAL_Driver/Src/stm32l0xx_hal_adc.c ****   switch(EventType)
1040:../../../../../../Drivers/STM32L0xx_HAL_Driver/Src/stm32l0xx_hal_adc.c ****   {
1041:../../../../../../Drivers/STM32L0xx_HAL_Driver/Src/stm32l0xx_hal_adc.c ****   /* Analog watchdog (level out of window) event */
1042:../../../../../../Drivers/STM32L0xx_HAL_Driver/Src/stm32l0xx_hal_adc.c ****   case ADC_AWD_EVENT:
1043:../../../../../../Drivers/STM32L0xx_HAL_Driver/Src/stm32l0xx_hal_adc.c ****     /* Set ADC state */
1044:../../../../../../Drivers/STM32L0xx_HAL_Driver/Src/stm32l0xx_hal_adc.c ****     SET_BIT(hadc->State, HAL_ADC_STATE_AWD1);
1045:../../../../../../Drivers/STM32L0xx_HAL_Driver/Src/stm32l0xx_hal_adc.c ****     
1046:../../../../../../Drivers/STM32L0xx_HAL_Driver/Src/stm32l0xx_hal_adc.c ****     /* Clear ADC analog watchdog flag */
1047:../../../../../../Drivers/STM32L0xx_HAL_Driver/Src/stm32l0xx_hal_adc.c ****     __HAL_ADC_CLEAR_FLAG(hadc, ADC_FLAG_AWD);
1048:../../../../../../Drivers/STM32L0xx_HAL_Driver/Src/stm32l0xx_hal_adc.c ****     break;
1049:../../../../../../Drivers/STM32L0xx_HAL_Driver/Src/stm32l0xx_hal_adc.c ****     
1050:../../../../../../Drivers/STM32L0xx_HAL_Driver/Src/stm32l0xx_hal_adc.c ****   /* Overrun event */
1051:../../../../../../Drivers/STM32L0xx_HAL_Driver/Src/stm32l0xx_hal_adc.c ****   default: /* Case ADC_OVR_EVENT */
1052:../../../../../../Drivers/STM32L0xx_HAL_Driver/Src/stm32l0xx_hal_adc.c ****     /* If overrun is set to overwrite previous data, overrun event is not     */
1053:../../../../../../Drivers/STM32L0xx_HAL_Driver/Src/stm32l0xx_hal_adc.c ****     /* considered as an error.                                                */
1054:../../../../../../Drivers/STM32L0xx_HAL_Driver/Src/stm32l0xx_hal_adc.c ****     /* (cf ref manual "Managing conversions without using the DMA and without */
1055:../../../../../../Drivers/STM32L0xx_HAL_Driver/Src/stm32l0xx_hal_adc.c ****     /* overrun ")                                                             */
1056:../../../../../../Drivers/STM32L0xx_HAL_Driver/Src/stm32l0xx_hal_adc.c ****     if (hadc->Init.Overrun == ADC_OVR_DATA_PRESERVED)
1057:../../../../../../Drivers/STM32L0xx_HAL_Driver/Src/stm32l0xx_hal_adc.c ****     {
1058:../../../../../../Drivers/STM32L0xx_HAL_Driver/Src/stm32l0xx_hal_adc.c ****       /* Set ADC state */
1059:../../../../../../Drivers/STM32L0xx_HAL_Driver/Src/stm32l0xx_hal_adc.c ****       SET_BIT(hadc->State, HAL_ADC_STATE_REG_OVR);
1060:../../../../../../Drivers/STM32L0xx_HAL_Driver/Src/stm32l0xx_hal_adc.c ****         
1061:../../../../../../Drivers/STM32L0xx_HAL_Driver/Src/stm32l0xx_hal_adc.c ****       /* Set ADC error code to overrun */
1062:../../../../../../Drivers/STM32L0xx_HAL_Driver/Src/stm32l0xx_hal_adc.c ****       SET_BIT(hadc->ErrorCode, HAL_ADC_ERROR_OVR);
1063:../../../../../../Drivers/STM32L0xx_HAL_Driver/Src/stm32l0xx_hal_adc.c ****     }
1064:../../../../../../Drivers/STM32L0xx_HAL_Driver/Src/stm32l0xx_hal_adc.c ****     
ARM GAS  C:\Users\EBANO_~1\AppData\Local\Temp\cc7eeVhF.s 			page 29


1065:../../../../../../Drivers/STM32L0xx_HAL_Driver/Src/stm32l0xx_hal_adc.c ****     /* Clear ADC Overrun flag */
1066:../../../../../../Drivers/STM32L0xx_HAL_Driver/Src/stm32l0xx_hal_adc.c ****     __HAL_ADC_CLEAR_FLAG(hadc, ADC_FLAG_OVR);
1067:../../../../../../Drivers/STM32L0xx_HAL_Driver/Src/stm32l0xx_hal_adc.c ****     break;
1068:../../../../../../Drivers/STM32L0xx_HAL_Driver/Src/stm32l0xx_hal_adc.c ****   }
1069:../../../../../../Drivers/STM32L0xx_HAL_Driver/Src/stm32l0xx_hal_adc.c ****   
1070:../../../../../../Drivers/STM32L0xx_HAL_Driver/Src/stm32l0xx_hal_adc.c ****   /* Return function status */
1071:../../../../../../Drivers/STM32L0xx_HAL_Driver/Src/stm32l0xx_hal_adc.c ****   return HAL_OK;
1072:../../../../../../Drivers/STM32L0xx_HAL_Driver/Src/stm32l0xx_hal_adc.c **** }
1073:../../../../../../Drivers/STM32L0xx_HAL_Driver/Src/stm32l0xx_hal_adc.c **** 
1074:../../../../../../Drivers/STM32L0xx_HAL_Driver/Src/stm32l0xx_hal_adc.c **** /**
1075:../../../../../../Drivers/STM32L0xx_HAL_Driver/Src/stm32l0xx_hal_adc.c ****   * @brief  Enable ADC, start conversion of regular group with interruption.
1076:../../../../../../Drivers/STM32L0xx_HAL_Driver/Src/stm32l0xx_hal_adc.c ****   * @note   Interruptions enabled in this function according to initialization
1077:../../../../../../Drivers/STM32L0xx_HAL_Driver/Src/stm32l0xx_hal_adc.c ****   *         setting : EOC (end of conversion), EOS (end of sequence), 
1078:../../../../../../Drivers/STM32L0xx_HAL_Driver/Src/stm32l0xx_hal_adc.c ****   *         OVR overrun.
1079:../../../../../../Drivers/STM32L0xx_HAL_Driver/Src/stm32l0xx_hal_adc.c ****   *         Each of these interruptions has its dedicated callback function.
1080:../../../../../../Drivers/STM32L0xx_HAL_Driver/Src/stm32l0xx_hal_adc.c ****   * @note   To guarantee a proper reset of all interruptions once all the needed
1081:../../../../../../Drivers/STM32L0xx_HAL_Driver/Src/stm32l0xx_hal_adc.c ****   *         conversions are obtained, HAL_ADC_Stop_IT() must be called to ensure 
1082:../../../../../../Drivers/STM32L0xx_HAL_Driver/Src/stm32l0xx_hal_adc.c ****   *         a correct stop of the IT-based conversions.
1083:../../../../../../Drivers/STM32L0xx_HAL_Driver/Src/stm32l0xx_hal_adc.c ****   * @note   By default, HAL_ADC_Start_IT() doesn't enable the End Of Sampling 
1084:../../../../../../Drivers/STM32L0xx_HAL_Driver/Src/stm32l0xx_hal_adc.c ****   *         interruption. If required (e.g. in case of oversampling with trigger
1085:../../../../../../Drivers/STM32L0xx_HAL_Driver/Src/stm32l0xx_hal_adc.c ****   *         mode), the user must:
1086:../../../../../../Drivers/STM32L0xx_HAL_Driver/Src/stm32l0xx_hal_adc.c ****   *          1. first clear the EOSMP flag if set with macro __HAL_ADC_CLEAR_FLAG(hadc, ADC_FLAG_EO
1087:../../../../../../Drivers/STM32L0xx_HAL_Driver/Src/stm32l0xx_hal_adc.c ****   *          2. then enable the EOSMP interrupt with macro __HAL_ADC_ENABLE_IT(hadc, ADC_IT_EOSMP) 
1088:../../../../../../Drivers/STM32L0xx_HAL_Driver/Src/stm32l0xx_hal_adc.c ****   *          before calling HAL_ADC_Start_IT().
1089:../../../../../../Drivers/STM32L0xx_HAL_Driver/Src/stm32l0xx_hal_adc.c ****   * @param  hadc ADC handle
1090:../../../../../../Drivers/STM32L0xx_HAL_Driver/Src/stm32l0xx_hal_adc.c ****   * @retval HAL status
1091:../../../../../../Drivers/STM32L0xx_HAL_Driver/Src/stm32l0xx_hal_adc.c ****   */
1092:../../../../../../Drivers/STM32L0xx_HAL_Driver/Src/stm32l0xx_hal_adc.c **** HAL_StatusTypeDef HAL_ADC_Start_IT(ADC_HandleTypeDef* hadc)
1093:../../../../../../Drivers/STM32L0xx_HAL_Driver/Src/stm32l0xx_hal_adc.c **** {
1094:../../../../../../Drivers/STM32L0xx_HAL_Driver/Src/stm32l0xx_hal_adc.c ****   HAL_StatusTypeDef tmp_hal_status = HAL_OK;
1095:../../../../../../Drivers/STM32L0xx_HAL_Driver/Src/stm32l0xx_hal_adc.c ****   
1096:../../../../../../Drivers/STM32L0xx_HAL_Driver/Src/stm32l0xx_hal_adc.c ****   /* Check the parameters */
1097:../../../../../../Drivers/STM32L0xx_HAL_Driver/Src/stm32l0xx_hal_adc.c ****   assert_param(IS_ADC_ALL_INSTANCE(hadc->Instance));
1098:../../../../../../Drivers/STM32L0xx_HAL_Driver/Src/stm32l0xx_hal_adc.c ****   
1099:../../../../../../Drivers/STM32L0xx_HAL_Driver/Src/stm32l0xx_hal_adc.c ****   /* Perform ADC enable and conversion start if no conversion is on going */
1100:../../../../../../Drivers/STM32L0xx_HAL_Driver/Src/stm32l0xx_hal_adc.c ****   if (ADC_IS_CONVERSION_ONGOING_REGULAR(hadc) == RESET)
1101:../../../../../../Drivers/STM32L0xx_HAL_Driver/Src/stm32l0xx_hal_adc.c ****   {
1102:../../../../../../Drivers/STM32L0xx_HAL_Driver/Src/stm32l0xx_hal_adc.c ****     /* Process locked */
1103:../../../../../../Drivers/STM32L0xx_HAL_Driver/Src/stm32l0xx_hal_adc.c ****     __HAL_LOCK(hadc);
1104:../../../../../../Drivers/STM32L0xx_HAL_Driver/Src/stm32l0xx_hal_adc.c ****     
1105:../../../../../../Drivers/STM32L0xx_HAL_Driver/Src/stm32l0xx_hal_adc.c ****     /* Enable the ADC peripheral */
1106:../../../../../../Drivers/STM32L0xx_HAL_Driver/Src/stm32l0xx_hal_adc.c ****     /* If low power mode AutoPowerOff is enabled, power-on/off phases are     */
1107:../../../../../../Drivers/STM32L0xx_HAL_Driver/Src/stm32l0xx_hal_adc.c ****     /* performed automatically by hardware.                                   */
1108:../../../../../../Drivers/STM32L0xx_HAL_Driver/Src/stm32l0xx_hal_adc.c ****     if (hadc->Init.LowPowerAutoPowerOff != ENABLE)
1109:../../../../../../Drivers/STM32L0xx_HAL_Driver/Src/stm32l0xx_hal_adc.c ****     {
1110:../../../../../../Drivers/STM32L0xx_HAL_Driver/Src/stm32l0xx_hal_adc.c ****       tmp_hal_status = ADC_Enable(hadc);
1111:../../../../../../Drivers/STM32L0xx_HAL_Driver/Src/stm32l0xx_hal_adc.c ****     }
1112:../../../../../../Drivers/STM32L0xx_HAL_Driver/Src/stm32l0xx_hal_adc.c ****     
1113:../../../../../../Drivers/STM32L0xx_HAL_Driver/Src/stm32l0xx_hal_adc.c ****     /* Start conversion if ADC is effectively enabled */
1114:../../../../../../Drivers/STM32L0xx_HAL_Driver/Src/stm32l0xx_hal_adc.c ****     if (tmp_hal_status == HAL_OK)
1115:../../../../../../Drivers/STM32L0xx_HAL_Driver/Src/stm32l0xx_hal_adc.c ****     {
1116:../../../../../../Drivers/STM32L0xx_HAL_Driver/Src/stm32l0xx_hal_adc.c ****       /* Set ADC state                                                        */
1117:../../../../../../Drivers/STM32L0xx_HAL_Driver/Src/stm32l0xx_hal_adc.c ****       /* - Clear state bitfield related to regular group conversion results   */
1118:../../../../../../Drivers/STM32L0xx_HAL_Driver/Src/stm32l0xx_hal_adc.c ****       /* - Set state bitfield related to regular operation                    */
1119:../../../../../../Drivers/STM32L0xx_HAL_Driver/Src/stm32l0xx_hal_adc.c ****       ADC_STATE_CLR_SET(hadc->State,
1120:../../../../../../Drivers/STM32L0xx_HAL_Driver/Src/stm32l0xx_hal_adc.c ****                         HAL_ADC_STATE_READY | HAL_ADC_STATE_REG_EOC | HAL_ADC_STATE_REG_OVR | HAL_A
1121:../../../../../../Drivers/STM32L0xx_HAL_Driver/Src/stm32l0xx_hal_adc.c ****                         HAL_ADC_STATE_REG_BUSY);
ARM GAS  C:\Users\EBANO_~1\AppData\Local\Temp\cc7eeVhF.s 			page 30


1122:../../../../../../Drivers/STM32L0xx_HAL_Driver/Src/stm32l0xx_hal_adc.c ****       
1123:../../../../../../Drivers/STM32L0xx_HAL_Driver/Src/stm32l0xx_hal_adc.c ****       /* Reset ADC all error code fields */
1124:../../../../../../Drivers/STM32L0xx_HAL_Driver/Src/stm32l0xx_hal_adc.c ****       ADC_CLEAR_ERRORCODE(hadc);
1125:../../../../../../Drivers/STM32L0xx_HAL_Driver/Src/stm32l0xx_hal_adc.c ****       
1126:../../../../../../Drivers/STM32L0xx_HAL_Driver/Src/stm32l0xx_hal_adc.c ****       /* Process unlocked */
1127:../../../../../../Drivers/STM32L0xx_HAL_Driver/Src/stm32l0xx_hal_adc.c ****       /* Unlock before starting ADC conversions: in case of potential         */
1128:../../../../../../Drivers/STM32L0xx_HAL_Driver/Src/stm32l0xx_hal_adc.c ****       /* interruption, to let the process to ADC IRQ Handler.                 */
1129:../../../../../../Drivers/STM32L0xx_HAL_Driver/Src/stm32l0xx_hal_adc.c ****       __HAL_UNLOCK(hadc);
1130:../../../../../../Drivers/STM32L0xx_HAL_Driver/Src/stm32l0xx_hal_adc.c ****       
1131:../../../../../../Drivers/STM32L0xx_HAL_Driver/Src/stm32l0xx_hal_adc.c ****       /* Clear regular group conversion flag and overrun flag */
1132:../../../../../../Drivers/STM32L0xx_HAL_Driver/Src/stm32l0xx_hal_adc.c ****       /* (To ensure of no unknown state from potential previous ADC           */
1133:../../../../../../Drivers/STM32L0xx_HAL_Driver/Src/stm32l0xx_hal_adc.c ****       /* operations)                                                          */
1134:../../../../../../Drivers/STM32L0xx_HAL_Driver/Src/stm32l0xx_hal_adc.c ****       __HAL_ADC_CLEAR_FLAG(hadc, (ADC_FLAG_EOC | ADC_FLAG_EOS | ADC_FLAG_OVR));
1135:../../../../../../Drivers/STM32L0xx_HAL_Driver/Src/stm32l0xx_hal_adc.c ****       
1136:../../../../../../Drivers/STM32L0xx_HAL_Driver/Src/stm32l0xx_hal_adc.c ****       /* Enable ADC end of conversion interrupt */
1137:../../../../../../Drivers/STM32L0xx_HAL_Driver/Src/stm32l0xx_hal_adc.c ****       /* Enable ADC overrun interrupt */  
1138:../../../../../../Drivers/STM32L0xx_HAL_Driver/Src/stm32l0xx_hal_adc.c ****       switch(hadc->Init.EOCSelection)
1139:../../../../../../Drivers/STM32L0xx_HAL_Driver/Src/stm32l0xx_hal_adc.c ****       {
1140:../../../../../../Drivers/STM32L0xx_HAL_Driver/Src/stm32l0xx_hal_adc.c ****         case ADC_EOC_SEQ_CONV: 
1141:../../../../../../Drivers/STM32L0xx_HAL_Driver/Src/stm32l0xx_hal_adc.c ****           __HAL_ADC_DISABLE_IT(hadc, ADC_IT_EOC);
1142:../../../../../../Drivers/STM32L0xx_HAL_Driver/Src/stm32l0xx_hal_adc.c ****           __HAL_ADC_ENABLE_IT(hadc, (ADC_IT_EOS | ADC_IT_OVR));
1143:../../../../../../Drivers/STM32L0xx_HAL_Driver/Src/stm32l0xx_hal_adc.c ****           break;
1144:../../../../../../Drivers/STM32L0xx_HAL_Driver/Src/stm32l0xx_hal_adc.c ****         /* case ADC_EOC_SINGLE_CONV */
1145:../../../../../../Drivers/STM32L0xx_HAL_Driver/Src/stm32l0xx_hal_adc.c ****         default:
1146:../../../../../../Drivers/STM32L0xx_HAL_Driver/Src/stm32l0xx_hal_adc.c ****           __HAL_ADC_ENABLE_IT(hadc, (ADC_IT_EOC | ADC_IT_EOS | ADC_IT_OVR));
1147:../../../../../../Drivers/STM32L0xx_HAL_Driver/Src/stm32l0xx_hal_adc.c ****           break;
1148:../../../../../../Drivers/STM32L0xx_HAL_Driver/Src/stm32l0xx_hal_adc.c ****       }
1149:../../../../../../Drivers/STM32L0xx_HAL_Driver/Src/stm32l0xx_hal_adc.c ****       
1150:../../../../../../Drivers/STM32L0xx_HAL_Driver/Src/stm32l0xx_hal_adc.c ****       /* Enable conversion of regular group.                                  */
1151:../../../../../../Drivers/STM32L0xx_HAL_Driver/Src/stm32l0xx_hal_adc.c ****       /* If software start has been selected, conversion starts immediately.  */
1152:../../../../../../Drivers/STM32L0xx_HAL_Driver/Src/stm32l0xx_hal_adc.c ****       /* If external trigger has been selected, conversion will start at next */
1153:../../../../../../Drivers/STM32L0xx_HAL_Driver/Src/stm32l0xx_hal_adc.c ****       /* trigger event.                                                       */
1154:../../../../../../Drivers/STM32L0xx_HAL_Driver/Src/stm32l0xx_hal_adc.c ****       hadc->Instance->CR |= ADC_CR_ADSTART;
1155:../../../../../../Drivers/STM32L0xx_HAL_Driver/Src/stm32l0xx_hal_adc.c ****     }
1156:../../../../../../Drivers/STM32L0xx_HAL_Driver/Src/stm32l0xx_hal_adc.c ****   }
1157:../../../../../../Drivers/STM32L0xx_HAL_Driver/Src/stm32l0xx_hal_adc.c ****   else
1158:../../../../../../Drivers/STM32L0xx_HAL_Driver/Src/stm32l0xx_hal_adc.c ****   {
1159:../../../../../../Drivers/STM32L0xx_HAL_Driver/Src/stm32l0xx_hal_adc.c ****     tmp_hal_status = HAL_BUSY;
1160:../../../../../../Drivers/STM32L0xx_HAL_Driver/Src/stm32l0xx_hal_adc.c ****   }
1161:../../../../../../Drivers/STM32L0xx_HAL_Driver/Src/stm32l0xx_hal_adc.c ****   
1162:../../../../../../Drivers/STM32L0xx_HAL_Driver/Src/stm32l0xx_hal_adc.c ****   /* Return function status */
1163:../../../../../../Drivers/STM32L0xx_HAL_Driver/Src/stm32l0xx_hal_adc.c ****   return tmp_hal_status;
1164:../../../../../../Drivers/STM32L0xx_HAL_Driver/Src/stm32l0xx_hal_adc.c **** }
1165:../../../../../../Drivers/STM32L0xx_HAL_Driver/Src/stm32l0xx_hal_adc.c **** 
1166:../../../../../../Drivers/STM32L0xx_HAL_Driver/Src/stm32l0xx_hal_adc.c **** /**
1167:../../../../../../Drivers/STM32L0xx_HAL_Driver/Src/stm32l0xx_hal_adc.c ****   * @brief  Stop ADC conversion of regular group (and injected group in 
1168:../../../../../../Drivers/STM32L0xx_HAL_Driver/Src/stm32l0xx_hal_adc.c ****   *         case of auto_injection mode), disable interrution of 
1169:../../../../../../Drivers/STM32L0xx_HAL_Driver/Src/stm32l0xx_hal_adc.c ****   *         end-of-conversion, disable ADC peripheral.
1170:../../../../../../Drivers/STM32L0xx_HAL_Driver/Src/stm32l0xx_hal_adc.c ****   * @param  hadc ADC handle
1171:../../../../../../Drivers/STM32L0xx_HAL_Driver/Src/stm32l0xx_hal_adc.c ****   * @retval HAL status.
1172:../../../../../../Drivers/STM32L0xx_HAL_Driver/Src/stm32l0xx_hal_adc.c ****   */
1173:../../../../../../Drivers/STM32L0xx_HAL_Driver/Src/stm32l0xx_hal_adc.c **** HAL_StatusTypeDef HAL_ADC_Stop_IT(ADC_HandleTypeDef* hadc)
1174:../../../../../../Drivers/STM32L0xx_HAL_Driver/Src/stm32l0xx_hal_adc.c **** {
1175:../../../../../../Drivers/STM32L0xx_HAL_Driver/Src/stm32l0xx_hal_adc.c ****   HAL_StatusTypeDef tmp_hal_status = HAL_OK;
1176:../../../../../../Drivers/STM32L0xx_HAL_Driver/Src/stm32l0xx_hal_adc.c ****   
1177:../../../../../../Drivers/STM32L0xx_HAL_Driver/Src/stm32l0xx_hal_adc.c ****   /* Check the parameters */
1178:../../../../../../Drivers/STM32L0xx_HAL_Driver/Src/stm32l0xx_hal_adc.c ****   assert_param(IS_ADC_ALL_INSTANCE(hadc->Instance));
ARM GAS  C:\Users\EBANO_~1\AppData\Local\Temp\cc7eeVhF.s 			page 31


1179:../../../../../../Drivers/STM32L0xx_HAL_Driver/Src/stm32l0xx_hal_adc.c ****   
1180:../../../../../../Drivers/STM32L0xx_HAL_Driver/Src/stm32l0xx_hal_adc.c ****   /* Process locked */
1181:../../../../../../Drivers/STM32L0xx_HAL_Driver/Src/stm32l0xx_hal_adc.c ****   __HAL_LOCK(hadc);
1182:../../../../../../Drivers/STM32L0xx_HAL_Driver/Src/stm32l0xx_hal_adc.c ****   
1183:../../../../../../Drivers/STM32L0xx_HAL_Driver/Src/stm32l0xx_hal_adc.c ****   /* 1. Stop potential conversion on going, on ADC group regular */
1184:../../../../../../Drivers/STM32L0xx_HAL_Driver/Src/stm32l0xx_hal_adc.c ****   tmp_hal_status = ADC_ConversionStop(hadc);
1185:../../../../../../Drivers/STM32L0xx_HAL_Driver/Src/stm32l0xx_hal_adc.c ****   
1186:../../../../../../Drivers/STM32L0xx_HAL_Driver/Src/stm32l0xx_hal_adc.c ****   /* Disable ADC peripheral if conversions are effectively stopped */
1187:../../../../../../Drivers/STM32L0xx_HAL_Driver/Src/stm32l0xx_hal_adc.c ****   if (tmp_hal_status == HAL_OK)
1188:../../../../../../Drivers/STM32L0xx_HAL_Driver/Src/stm32l0xx_hal_adc.c ****   {
1189:../../../../../../Drivers/STM32L0xx_HAL_Driver/Src/stm32l0xx_hal_adc.c ****     /* Disable ADC end of conversion interrupt for regular group */
1190:../../../../../../Drivers/STM32L0xx_HAL_Driver/Src/stm32l0xx_hal_adc.c ****     /* Disable ADC overrun interrupt */
1191:../../../../../../Drivers/STM32L0xx_HAL_Driver/Src/stm32l0xx_hal_adc.c ****     __HAL_ADC_DISABLE_IT(hadc, (ADC_IT_EOC | ADC_IT_EOS | ADC_IT_OVR));
1192:../../../../../../Drivers/STM32L0xx_HAL_Driver/Src/stm32l0xx_hal_adc.c ****     
1193:../../../../../../Drivers/STM32L0xx_HAL_Driver/Src/stm32l0xx_hal_adc.c ****     /* 2. Disable the ADC peripheral */
1194:../../../../../../Drivers/STM32L0xx_HAL_Driver/Src/stm32l0xx_hal_adc.c ****     tmp_hal_status = ADC_Disable(hadc);
1195:../../../../../../Drivers/STM32L0xx_HAL_Driver/Src/stm32l0xx_hal_adc.c ****     
1196:../../../../../../Drivers/STM32L0xx_HAL_Driver/Src/stm32l0xx_hal_adc.c ****     /* Check if ADC is effectively disabled */
1197:../../../../../../Drivers/STM32L0xx_HAL_Driver/Src/stm32l0xx_hal_adc.c ****     if (tmp_hal_status == HAL_OK)
1198:../../../../../../Drivers/STM32L0xx_HAL_Driver/Src/stm32l0xx_hal_adc.c ****     {
1199:../../../../../../Drivers/STM32L0xx_HAL_Driver/Src/stm32l0xx_hal_adc.c ****       /* Set ADC state */
1200:../../../../../../Drivers/STM32L0xx_HAL_Driver/Src/stm32l0xx_hal_adc.c ****       ADC_STATE_CLR_SET(hadc->State,
1201:../../../../../../Drivers/STM32L0xx_HAL_Driver/Src/stm32l0xx_hal_adc.c ****                         HAL_ADC_STATE_REG_BUSY,
1202:../../../../../../Drivers/STM32L0xx_HAL_Driver/Src/stm32l0xx_hal_adc.c ****                         HAL_ADC_STATE_READY);
1203:../../../../../../Drivers/STM32L0xx_HAL_Driver/Src/stm32l0xx_hal_adc.c ****     }
1204:../../../../../../Drivers/STM32L0xx_HAL_Driver/Src/stm32l0xx_hal_adc.c ****   }
1205:../../../../../../Drivers/STM32L0xx_HAL_Driver/Src/stm32l0xx_hal_adc.c ****   
1206:../../../../../../Drivers/STM32L0xx_HAL_Driver/Src/stm32l0xx_hal_adc.c ****   /* Process unlocked */
1207:../../../../../../Drivers/STM32L0xx_HAL_Driver/Src/stm32l0xx_hal_adc.c ****   __HAL_UNLOCK(hadc);
1208:../../../../../../Drivers/STM32L0xx_HAL_Driver/Src/stm32l0xx_hal_adc.c ****   
1209:../../../../../../Drivers/STM32L0xx_HAL_Driver/Src/stm32l0xx_hal_adc.c ****   /* Return function status */
1210:../../../../../../Drivers/STM32L0xx_HAL_Driver/Src/stm32l0xx_hal_adc.c ****   return tmp_hal_status;
1211:../../../../../../Drivers/STM32L0xx_HAL_Driver/Src/stm32l0xx_hal_adc.c **** }
1212:../../../../../../Drivers/STM32L0xx_HAL_Driver/Src/stm32l0xx_hal_adc.c **** 
1213:../../../../../../Drivers/STM32L0xx_HAL_Driver/Src/stm32l0xx_hal_adc.c **** /**
1214:../../../../../../Drivers/STM32L0xx_HAL_Driver/Src/stm32l0xx_hal_adc.c ****   * @brief  Enable ADC, start conversion of regular group and transfer result through DMA.
1215:../../../../../../Drivers/STM32L0xx_HAL_Driver/Src/stm32l0xx_hal_adc.c ****   * @note   Interruptions enabled in this function:
1216:../../../../../../Drivers/STM32L0xx_HAL_Driver/Src/stm32l0xx_hal_adc.c ****   *         overrun (if applicable), DMA half transfer, DMA transfer complete. 
1217:../../../../../../Drivers/STM32L0xx_HAL_Driver/Src/stm32l0xx_hal_adc.c ****   *         Each of these interruptions has its dedicated callback function.
1218:../../../../../../Drivers/STM32L0xx_HAL_Driver/Src/stm32l0xx_hal_adc.c ****   * @param  hadc ADC handle
1219:../../../../../../Drivers/STM32L0xx_HAL_Driver/Src/stm32l0xx_hal_adc.c ****   * @param  pData Destination Buffer address.
1220:../../../../../../Drivers/STM32L0xx_HAL_Driver/Src/stm32l0xx_hal_adc.c ****   * @param  Length Length of data to be transferred from ADC peripheral to memory (in bytes)
1221:../../../../../../Drivers/STM32L0xx_HAL_Driver/Src/stm32l0xx_hal_adc.c ****   * @retval HAL status.
1222:../../../../../../Drivers/STM32L0xx_HAL_Driver/Src/stm32l0xx_hal_adc.c ****   */
1223:../../../../../../Drivers/STM32L0xx_HAL_Driver/Src/stm32l0xx_hal_adc.c **** HAL_StatusTypeDef HAL_ADC_Start_DMA(ADC_HandleTypeDef* hadc, uint32_t* pData, uint32_t Length)
1224:../../../../../../Drivers/STM32L0xx_HAL_Driver/Src/stm32l0xx_hal_adc.c **** {
1225:../../../../../../Drivers/STM32L0xx_HAL_Driver/Src/stm32l0xx_hal_adc.c ****   HAL_StatusTypeDef tmp_hal_status = HAL_OK;
1226:../../../../../../Drivers/STM32L0xx_HAL_Driver/Src/stm32l0xx_hal_adc.c ****   
1227:../../../../../../Drivers/STM32L0xx_HAL_Driver/Src/stm32l0xx_hal_adc.c ****   /* Check the parameters */
1228:../../../../../../Drivers/STM32L0xx_HAL_Driver/Src/stm32l0xx_hal_adc.c ****   assert_param(IS_ADC_ALL_INSTANCE(hadc->Instance));
1229:../../../../../../Drivers/STM32L0xx_HAL_Driver/Src/stm32l0xx_hal_adc.c ****   
1230:../../../../../../Drivers/STM32L0xx_HAL_Driver/Src/stm32l0xx_hal_adc.c ****   /* Perform ADC enable and conversion start if no conversion is on going */
1231:../../../../../../Drivers/STM32L0xx_HAL_Driver/Src/stm32l0xx_hal_adc.c ****   if (ADC_IS_CONVERSION_ONGOING_REGULAR(hadc) == RESET)
1232:../../../../../../Drivers/STM32L0xx_HAL_Driver/Src/stm32l0xx_hal_adc.c ****   {
1233:../../../../../../Drivers/STM32L0xx_HAL_Driver/Src/stm32l0xx_hal_adc.c ****     /* Process locked */
1234:../../../../../../Drivers/STM32L0xx_HAL_Driver/Src/stm32l0xx_hal_adc.c ****     __HAL_LOCK(hadc);
1235:../../../../../../Drivers/STM32L0xx_HAL_Driver/Src/stm32l0xx_hal_adc.c **** 
ARM GAS  C:\Users\EBANO_~1\AppData\Local\Temp\cc7eeVhF.s 			page 32


1236:../../../../../../Drivers/STM32L0xx_HAL_Driver/Src/stm32l0xx_hal_adc.c ****     /* Enable the ADC peripheral */
1237:../../../../../../Drivers/STM32L0xx_HAL_Driver/Src/stm32l0xx_hal_adc.c ****     /* If low power mode AutoPowerOff is enabled, power-on/off phases are       */
1238:../../../../../../Drivers/STM32L0xx_HAL_Driver/Src/stm32l0xx_hal_adc.c ****     /* performed automatically by hardware.                                     */
1239:../../../../../../Drivers/STM32L0xx_HAL_Driver/Src/stm32l0xx_hal_adc.c ****     if (hadc->Init.LowPowerAutoPowerOff != ENABLE)
1240:../../../../../../Drivers/STM32L0xx_HAL_Driver/Src/stm32l0xx_hal_adc.c ****     {
1241:../../../../../../Drivers/STM32L0xx_HAL_Driver/Src/stm32l0xx_hal_adc.c ****       tmp_hal_status = ADC_Enable(hadc);
1242:../../../../../../Drivers/STM32L0xx_HAL_Driver/Src/stm32l0xx_hal_adc.c ****     }
1243:../../../../../../Drivers/STM32L0xx_HAL_Driver/Src/stm32l0xx_hal_adc.c ****     
1244:../../../../../../Drivers/STM32L0xx_HAL_Driver/Src/stm32l0xx_hal_adc.c ****     /* Start conversion if ADC is effectively enabled */
1245:../../../../../../Drivers/STM32L0xx_HAL_Driver/Src/stm32l0xx_hal_adc.c ****     if (tmp_hal_status == HAL_OK)
1246:../../../../../../Drivers/STM32L0xx_HAL_Driver/Src/stm32l0xx_hal_adc.c ****     {
1247:../../../../../../Drivers/STM32L0xx_HAL_Driver/Src/stm32l0xx_hal_adc.c ****       /* Set ADC state                                                        */
1248:../../../../../../Drivers/STM32L0xx_HAL_Driver/Src/stm32l0xx_hal_adc.c ****       /* - Clear state bitfield related to regular group conversion results   */
1249:../../../../../../Drivers/STM32L0xx_HAL_Driver/Src/stm32l0xx_hal_adc.c ****       /* - Set state bitfield related to regular operation                    */
1250:../../../../../../Drivers/STM32L0xx_HAL_Driver/Src/stm32l0xx_hal_adc.c ****       ADC_STATE_CLR_SET(hadc->State,
1251:../../../../../../Drivers/STM32L0xx_HAL_Driver/Src/stm32l0xx_hal_adc.c ****                         HAL_ADC_STATE_READY | HAL_ADC_STATE_REG_EOC | HAL_ADC_STATE_REG_OVR | HAL_A
1252:../../../../../../Drivers/STM32L0xx_HAL_Driver/Src/stm32l0xx_hal_adc.c ****                         HAL_ADC_STATE_REG_BUSY);
1253:../../../../../../Drivers/STM32L0xx_HAL_Driver/Src/stm32l0xx_hal_adc.c ****       
1254:../../../../../../Drivers/STM32L0xx_HAL_Driver/Src/stm32l0xx_hal_adc.c ****       /* Reset ADC all error code fields */
1255:../../../../../../Drivers/STM32L0xx_HAL_Driver/Src/stm32l0xx_hal_adc.c ****       ADC_CLEAR_ERRORCODE(hadc);
1256:../../../../../../Drivers/STM32L0xx_HAL_Driver/Src/stm32l0xx_hal_adc.c ****       
1257:../../../../../../Drivers/STM32L0xx_HAL_Driver/Src/stm32l0xx_hal_adc.c ****       /* Process unlocked */
1258:../../../../../../Drivers/STM32L0xx_HAL_Driver/Src/stm32l0xx_hal_adc.c ****       /* Unlock before starting ADC conversions: in case of potential         */
1259:../../../../../../Drivers/STM32L0xx_HAL_Driver/Src/stm32l0xx_hal_adc.c ****       /* interruption, to let the process to ADC IRQ Handler.                 */
1260:../../../../../../Drivers/STM32L0xx_HAL_Driver/Src/stm32l0xx_hal_adc.c ****       __HAL_UNLOCK(hadc);
1261:../../../../../../Drivers/STM32L0xx_HAL_Driver/Src/stm32l0xx_hal_adc.c **** 
1262:../../../../../../Drivers/STM32L0xx_HAL_Driver/Src/stm32l0xx_hal_adc.c ****       /* Set the DMA transfer complete callback */
1263:../../../../../../Drivers/STM32L0xx_HAL_Driver/Src/stm32l0xx_hal_adc.c ****       hadc->DMA_Handle->XferCpltCallback = ADC_DMAConvCplt;
1264:../../../../../../Drivers/STM32L0xx_HAL_Driver/Src/stm32l0xx_hal_adc.c ****       
1265:../../../../../../Drivers/STM32L0xx_HAL_Driver/Src/stm32l0xx_hal_adc.c ****       /* Set the DMA half transfer complete callback */
1266:../../../../../../Drivers/STM32L0xx_HAL_Driver/Src/stm32l0xx_hal_adc.c ****       hadc->DMA_Handle->XferHalfCpltCallback = ADC_DMAHalfConvCplt;
1267:../../../../../../Drivers/STM32L0xx_HAL_Driver/Src/stm32l0xx_hal_adc.c ****       
1268:../../../../../../Drivers/STM32L0xx_HAL_Driver/Src/stm32l0xx_hal_adc.c ****       /* Set the DMA error callback */
1269:../../../../../../Drivers/STM32L0xx_HAL_Driver/Src/stm32l0xx_hal_adc.c ****       hadc->DMA_Handle->XferErrorCallback = ADC_DMAError;
1270:../../../../../../Drivers/STM32L0xx_HAL_Driver/Src/stm32l0xx_hal_adc.c ****       
1271:../../../../../../Drivers/STM32L0xx_HAL_Driver/Src/stm32l0xx_hal_adc.c ****       
1272:../../../../../../Drivers/STM32L0xx_HAL_Driver/Src/stm32l0xx_hal_adc.c ****       /* Manage ADC and DMA start: ADC overrun interruption, DMA start, ADC   */
1273:../../../../../../Drivers/STM32L0xx_HAL_Driver/Src/stm32l0xx_hal_adc.c ****       /* start (in case of SW start):                                         */
1274:../../../../../../Drivers/STM32L0xx_HAL_Driver/Src/stm32l0xx_hal_adc.c ****       
1275:../../../../../../Drivers/STM32L0xx_HAL_Driver/Src/stm32l0xx_hal_adc.c ****       /* Clear regular group conversion flag and overrun flag */
1276:../../../../../../Drivers/STM32L0xx_HAL_Driver/Src/stm32l0xx_hal_adc.c ****       /* (To ensure of no unknown state from potential previous ADC           */
1277:../../../../../../Drivers/STM32L0xx_HAL_Driver/Src/stm32l0xx_hal_adc.c ****       /* operations)                                                          */
1278:../../../../../../Drivers/STM32L0xx_HAL_Driver/Src/stm32l0xx_hal_adc.c ****       __HAL_ADC_CLEAR_FLAG(hadc, (ADC_FLAG_EOC | ADC_FLAG_EOS | ADC_FLAG_OVR));
1279:../../../../../../Drivers/STM32L0xx_HAL_Driver/Src/stm32l0xx_hal_adc.c ****       
1280:../../../../../../Drivers/STM32L0xx_HAL_Driver/Src/stm32l0xx_hal_adc.c ****       /* Enable ADC overrun interrupt */
1281:../../../../../../Drivers/STM32L0xx_HAL_Driver/Src/stm32l0xx_hal_adc.c ****       __HAL_ADC_ENABLE_IT(hadc, ADC_IT_OVR);
1282:../../../../../../Drivers/STM32L0xx_HAL_Driver/Src/stm32l0xx_hal_adc.c ****       
1283:../../../../../../Drivers/STM32L0xx_HAL_Driver/Src/stm32l0xx_hal_adc.c ****       /* Enable ADC DMA mode */
1284:../../../../../../Drivers/STM32L0xx_HAL_Driver/Src/stm32l0xx_hal_adc.c ****       hadc->Instance->CFGR1 |= ADC_CFGR1_DMAEN;
1285:../../../../../../Drivers/STM32L0xx_HAL_Driver/Src/stm32l0xx_hal_adc.c ****       
1286:../../../../../../Drivers/STM32L0xx_HAL_Driver/Src/stm32l0xx_hal_adc.c ****       /* Start the DMA channel */
1287:../../../../../../Drivers/STM32L0xx_HAL_Driver/Src/stm32l0xx_hal_adc.c ****       HAL_DMA_Start_IT(hadc->DMA_Handle, (uint32_t)&hadc->Instance->DR, (uint32_t)pData, Length);
1288:../../../../../../Drivers/STM32L0xx_HAL_Driver/Src/stm32l0xx_hal_adc.c ****       
1289:../../../../../../Drivers/STM32L0xx_HAL_Driver/Src/stm32l0xx_hal_adc.c ****       /* Enable conversion of regular group.                                  */
1290:../../../../../../Drivers/STM32L0xx_HAL_Driver/Src/stm32l0xx_hal_adc.c ****       /* If software start has been selected, conversion starts immediately.  */
1291:../../../../../../Drivers/STM32L0xx_HAL_Driver/Src/stm32l0xx_hal_adc.c ****       /* If external trigger has been selected, conversion will start at next */
1292:../../../../../../Drivers/STM32L0xx_HAL_Driver/Src/stm32l0xx_hal_adc.c ****       /* trigger event.                                                       */
ARM GAS  C:\Users\EBANO_~1\AppData\Local\Temp\cc7eeVhF.s 			page 33


1293:../../../../../../Drivers/STM32L0xx_HAL_Driver/Src/stm32l0xx_hal_adc.c ****       hadc->Instance->CR |= ADC_CR_ADSTART;
1294:../../../../../../Drivers/STM32L0xx_HAL_Driver/Src/stm32l0xx_hal_adc.c ****     }
1295:../../../../../../Drivers/STM32L0xx_HAL_Driver/Src/stm32l0xx_hal_adc.c ****   }
1296:../../../../../../Drivers/STM32L0xx_HAL_Driver/Src/stm32l0xx_hal_adc.c ****   else
1297:../../../../../../Drivers/STM32L0xx_HAL_Driver/Src/stm32l0xx_hal_adc.c ****   {
1298:../../../../../../Drivers/STM32L0xx_HAL_Driver/Src/stm32l0xx_hal_adc.c ****     tmp_hal_status = HAL_BUSY;
1299:../../../../../../Drivers/STM32L0xx_HAL_Driver/Src/stm32l0xx_hal_adc.c ****   }
1300:../../../../../../Drivers/STM32L0xx_HAL_Driver/Src/stm32l0xx_hal_adc.c ****   
1301:../../../../../../Drivers/STM32L0xx_HAL_Driver/Src/stm32l0xx_hal_adc.c ****   /* Return function status */
1302:../../../../../../Drivers/STM32L0xx_HAL_Driver/Src/stm32l0xx_hal_adc.c ****   return tmp_hal_status;
1303:../../../../../../Drivers/STM32L0xx_HAL_Driver/Src/stm32l0xx_hal_adc.c **** }
1304:../../../../../../Drivers/STM32L0xx_HAL_Driver/Src/stm32l0xx_hal_adc.c **** 
1305:../../../../../../Drivers/STM32L0xx_HAL_Driver/Src/stm32l0xx_hal_adc.c **** /**
1306:../../../../../../Drivers/STM32L0xx_HAL_Driver/Src/stm32l0xx_hal_adc.c ****   * @brief  Stop ADC conversion of regular group (and injected group in 
1307:../../../../../../Drivers/STM32L0xx_HAL_Driver/Src/stm32l0xx_hal_adc.c ****   *         case of auto_injection mode), disable ADC DMA transfer, disable 
1308:../../../../../../Drivers/STM32L0xx_HAL_Driver/Src/stm32l0xx_hal_adc.c ****   *         ADC peripheral.
1309:../../../../../../Drivers/STM32L0xx_HAL_Driver/Src/stm32l0xx_hal_adc.c ****   *         Each of these interruptions has its dedicated callback function.
1310:../../../../../../Drivers/STM32L0xx_HAL_Driver/Src/stm32l0xx_hal_adc.c ****   * @param  hadc ADC handle
1311:../../../../../../Drivers/STM32L0xx_HAL_Driver/Src/stm32l0xx_hal_adc.c ****   * @retval HAL status.
1312:../../../../../../Drivers/STM32L0xx_HAL_Driver/Src/stm32l0xx_hal_adc.c ****   */
1313:../../../../../../Drivers/STM32L0xx_HAL_Driver/Src/stm32l0xx_hal_adc.c **** HAL_StatusTypeDef HAL_ADC_Stop_DMA(ADC_HandleTypeDef* hadc)
1314:../../../../../../Drivers/STM32L0xx_HAL_Driver/Src/stm32l0xx_hal_adc.c **** {
1315:../../../../../../Drivers/STM32L0xx_HAL_Driver/Src/stm32l0xx_hal_adc.c ****   HAL_StatusTypeDef tmp_hal_status = HAL_OK;
1316:../../../../../../Drivers/STM32L0xx_HAL_Driver/Src/stm32l0xx_hal_adc.c ****   
1317:../../../../../../Drivers/STM32L0xx_HAL_Driver/Src/stm32l0xx_hal_adc.c ****   /* Check the parameters */
1318:../../../../../../Drivers/STM32L0xx_HAL_Driver/Src/stm32l0xx_hal_adc.c ****   assert_param(IS_ADC_ALL_INSTANCE(hadc->Instance));
1319:../../../../../../Drivers/STM32L0xx_HAL_Driver/Src/stm32l0xx_hal_adc.c ****   
1320:../../../../../../Drivers/STM32L0xx_HAL_Driver/Src/stm32l0xx_hal_adc.c ****   /* Process locked */
1321:../../../../../../Drivers/STM32L0xx_HAL_Driver/Src/stm32l0xx_hal_adc.c ****   __HAL_LOCK(hadc);
1322:../../../../../../Drivers/STM32L0xx_HAL_Driver/Src/stm32l0xx_hal_adc.c ****   
1323:../../../../../../Drivers/STM32L0xx_HAL_Driver/Src/stm32l0xx_hal_adc.c ****   /* 1. Stop potential ADC group regular conversion on going */
1324:../../../../../../Drivers/STM32L0xx_HAL_Driver/Src/stm32l0xx_hal_adc.c ****   tmp_hal_status = ADC_ConversionStop(hadc);
1325:../../../../../../Drivers/STM32L0xx_HAL_Driver/Src/stm32l0xx_hal_adc.c ****   
1326:../../../../../../Drivers/STM32L0xx_HAL_Driver/Src/stm32l0xx_hal_adc.c ****   /* Disable ADC peripheral if conversions are effectively stopped */
1327:../../../../../../Drivers/STM32L0xx_HAL_Driver/Src/stm32l0xx_hal_adc.c ****   if (tmp_hal_status == HAL_OK)
1328:../../../../../../Drivers/STM32L0xx_HAL_Driver/Src/stm32l0xx_hal_adc.c ****   {
1329:../../../../../../Drivers/STM32L0xx_HAL_Driver/Src/stm32l0xx_hal_adc.c ****     /* Disable ADC DMA (ADC DMA configuration ADC_CFGR_DMACFG is kept) */
1330:../../../../../../Drivers/STM32L0xx_HAL_Driver/Src/stm32l0xx_hal_adc.c ****     CLEAR_BIT(hadc->Instance->CFGR1, ADC_CFGR1_DMAEN);
1331:../../../../../../Drivers/STM32L0xx_HAL_Driver/Src/stm32l0xx_hal_adc.c ****     
1332:../../../../../../Drivers/STM32L0xx_HAL_Driver/Src/stm32l0xx_hal_adc.c ****     /* Disable the DMA channel (in case of DMA in circular mode or stop       */
1333:../../../../../../Drivers/STM32L0xx_HAL_Driver/Src/stm32l0xx_hal_adc.c ****     /* while DMA transfer is on going)                                        */
1334:../../../../../../Drivers/STM32L0xx_HAL_Driver/Src/stm32l0xx_hal_adc.c ****     tmp_hal_status = HAL_DMA_Abort(hadc->DMA_Handle);
1335:../../../../../../Drivers/STM32L0xx_HAL_Driver/Src/stm32l0xx_hal_adc.c ****     
1336:../../../../../../Drivers/STM32L0xx_HAL_Driver/Src/stm32l0xx_hal_adc.c ****     /* Check if DMA channel effectively disabled */
1337:../../../../../../Drivers/STM32L0xx_HAL_Driver/Src/stm32l0xx_hal_adc.c ****     if (tmp_hal_status != HAL_OK)
1338:../../../../../../Drivers/STM32L0xx_HAL_Driver/Src/stm32l0xx_hal_adc.c ****     {
1339:../../../../../../Drivers/STM32L0xx_HAL_Driver/Src/stm32l0xx_hal_adc.c ****       /* Update ADC state machine to error */
1340:../../../../../../Drivers/STM32L0xx_HAL_Driver/Src/stm32l0xx_hal_adc.c ****       SET_BIT(hadc->State, HAL_ADC_STATE_ERROR_DMA);
1341:../../../../../../Drivers/STM32L0xx_HAL_Driver/Src/stm32l0xx_hal_adc.c ****     }
1342:../../../../../../Drivers/STM32L0xx_HAL_Driver/Src/stm32l0xx_hal_adc.c ****     
1343:../../../../../../Drivers/STM32L0xx_HAL_Driver/Src/stm32l0xx_hal_adc.c ****     /* Disable ADC overrun interrupt */
1344:../../../../../../Drivers/STM32L0xx_HAL_Driver/Src/stm32l0xx_hal_adc.c ****     __HAL_ADC_DISABLE_IT(hadc, ADC_IT_OVR);
1345:../../../../../../Drivers/STM32L0xx_HAL_Driver/Src/stm32l0xx_hal_adc.c ****     
1346:../../../../../../Drivers/STM32L0xx_HAL_Driver/Src/stm32l0xx_hal_adc.c ****     /* 2. Disable the ADC peripheral */
1347:../../../../../../Drivers/STM32L0xx_HAL_Driver/Src/stm32l0xx_hal_adc.c ****     /* Update "tmp_hal_status" only if DMA channel disabling passed, to keep  */
1348:../../../../../../Drivers/STM32L0xx_HAL_Driver/Src/stm32l0xx_hal_adc.c ****     /* in memory a potential failing status.                                  */
1349:../../../../../../Drivers/STM32L0xx_HAL_Driver/Src/stm32l0xx_hal_adc.c ****     if (tmp_hal_status == HAL_OK)
ARM GAS  C:\Users\EBANO_~1\AppData\Local\Temp\cc7eeVhF.s 			page 34


1350:../../../../../../Drivers/STM32L0xx_HAL_Driver/Src/stm32l0xx_hal_adc.c ****     {
1351:../../../../../../Drivers/STM32L0xx_HAL_Driver/Src/stm32l0xx_hal_adc.c ****       tmp_hal_status = ADC_Disable(hadc);
1352:../../../../../../Drivers/STM32L0xx_HAL_Driver/Src/stm32l0xx_hal_adc.c ****     }
1353:../../../../../../Drivers/STM32L0xx_HAL_Driver/Src/stm32l0xx_hal_adc.c ****     else
1354:../../../../../../Drivers/STM32L0xx_HAL_Driver/Src/stm32l0xx_hal_adc.c ****     {
1355:../../../../../../Drivers/STM32L0xx_HAL_Driver/Src/stm32l0xx_hal_adc.c ****       ADC_Disable(hadc);
1356:../../../../../../Drivers/STM32L0xx_HAL_Driver/Src/stm32l0xx_hal_adc.c ****     }
1357:../../../../../../Drivers/STM32L0xx_HAL_Driver/Src/stm32l0xx_hal_adc.c **** 
1358:../../../../../../Drivers/STM32L0xx_HAL_Driver/Src/stm32l0xx_hal_adc.c ****     /* Check if ADC is effectively disabled */
1359:../../../../../../Drivers/STM32L0xx_HAL_Driver/Src/stm32l0xx_hal_adc.c ****     if (tmp_hal_status == HAL_OK)
1360:../../../../../../Drivers/STM32L0xx_HAL_Driver/Src/stm32l0xx_hal_adc.c ****     {
1361:../../../../../../Drivers/STM32L0xx_HAL_Driver/Src/stm32l0xx_hal_adc.c ****       /* Set ADC state */
1362:../../../../../../Drivers/STM32L0xx_HAL_Driver/Src/stm32l0xx_hal_adc.c ****       ADC_STATE_CLR_SET(hadc->State,
1363:../../../../../../Drivers/STM32L0xx_HAL_Driver/Src/stm32l0xx_hal_adc.c ****                         HAL_ADC_STATE_REG_BUSY,
1364:../../../../../../Drivers/STM32L0xx_HAL_Driver/Src/stm32l0xx_hal_adc.c ****                         HAL_ADC_STATE_READY);
1365:../../../../../../Drivers/STM32L0xx_HAL_Driver/Src/stm32l0xx_hal_adc.c ****     }
1366:../../../../../../Drivers/STM32L0xx_HAL_Driver/Src/stm32l0xx_hal_adc.c ****     
1367:../../../../../../Drivers/STM32L0xx_HAL_Driver/Src/stm32l0xx_hal_adc.c ****   }
1368:../../../../../../Drivers/STM32L0xx_HAL_Driver/Src/stm32l0xx_hal_adc.c ****   
1369:../../../../../../Drivers/STM32L0xx_HAL_Driver/Src/stm32l0xx_hal_adc.c ****   /* Process unlocked */
1370:../../../../../../Drivers/STM32L0xx_HAL_Driver/Src/stm32l0xx_hal_adc.c ****   __HAL_UNLOCK(hadc);
1371:../../../../../../Drivers/STM32L0xx_HAL_Driver/Src/stm32l0xx_hal_adc.c ****   
1372:../../../../../../Drivers/STM32L0xx_HAL_Driver/Src/stm32l0xx_hal_adc.c ****   /* Return function status */
1373:../../../../../../Drivers/STM32L0xx_HAL_Driver/Src/stm32l0xx_hal_adc.c ****   return tmp_hal_status;
1374:../../../../../../Drivers/STM32L0xx_HAL_Driver/Src/stm32l0xx_hal_adc.c **** }
1375:../../../../../../Drivers/STM32L0xx_HAL_Driver/Src/stm32l0xx_hal_adc.c **** 
1376:../../../../../../Drivers/STM32L0xx_HAL_Driver/Src/stm32l0xx_hal_adc.c **** /**
1377:../../../../../../Drivers/STM32L0xx_HAL_Driver/Src/stm32l0xx_hal_adc.c ****   * @brief  Get ADC regular group conversion result.
1378:../../../../../../Drivers/STM32L0xx_HAL_Driver/Src/stm32l0xx_hal_adc.c ****   * @note   Reading register DR automatically clears ADC flag EOC
1379:../../../../../../Drivers/STM32L0xx_HAL_Driver/Src/stm32l0xx_hal_adc.c ****   *         (ADC group regular end of unitary conversion).
1380:../../../../../../Drivers/STM32L0xx_HAL_Driver/Src/stm32l0xx_hal_adc.c ****   * @note   This function does not clear ADC flag EOS 
1381:../../../../../../Drivers/STM32L0xx_HAL_Driver/Src/stm32l0xx_hal_adc.c ****   *         (ADC group regular end of sequence conversion).
1382:../../../../../../Drivers/STM32L0xx_HAL_Driver/Src/stm32l0xx_hal_adc.c ****   *         Occurrence of flag EOS rising:
1383:../../../../../../Drivers/STM32L0xx_HAL_Driver/Src/stm32l0xx_hal_adc.c ****   *          - If sequencer is composed of 1 rank, flag EOS is equivalent
1384:../../../../../../Drivers/STM32L0xx_HAL_Driver/Src/stm32l0xx_hal_adc.c ****   *            to flag EOC.
1385:../../../../../../Drivers/STM32L0xx_HAL_Driver/Src/stm32l0xx_hal_adc.c ****   *          - If sequencer is composed of several ranks, during the scan
1386:../../../../../../Drivers/STM32L0xx_HAL_Driver/Src/stm32l0xx_hal_adc.c ****   *            sequence flag EOC only is raised, at the end of the scan sequence
1387:../../../../../../Drivers/STM32L0xx_HAL_Driver/Src/stm32l0xx_hal_adc.c ****   *            both flags EOC and EOS are raised.
1388:../../../../../../Drivers/STM32L0xx_HAL_Driver/Src/stm32l0xx_hal_adc.c ****   *         To clear this flag, either use function:
1389:../../../../../../Drivers/STM32L0xx_HAL_Driver/Src/stm32l0xx_hal_adc.c ****   *         in programming model IT: @ref HAL_ADC_IRQHandler(), in programming
1390:../../../../../../Drivers/STM32L0xx_HAL_Driver/Src/stm32l0xx_hal_adc.c ****   *         model polling: @ref HAL_ADC_PollForConversion()
1391:../../../../../../Drivers/STM32L0xx_HAL_Driver/Src/stm32l0xx_hal_adc.c ****   *         or @ref __HAL_ADC_CLEAR_FLAG(&hadc, ADC_FLAG_EOS).
1392:../../../../../../Drivers/STM32L0xx_HAL_Driver/Src/stm32l0xx_hal_adc.c ****   * @param  hadc ADC handle
1393:../../../../../../Drivers/STM32L0xx_HAL_Driver/Src/stm32l0xx_hal_adc.c ****   * @retval ADC group regular conversion data
1394:../../../../../../Drivers/STM32L0xx_HAL_Driver/Src/stm32l0xx_hal_adc.c ****   */
1395:../../../../../../Drivers/STM32L0xx_HAL_Driver/Src/stm32l0xx_hal_adc.c **** uint32_t HAL_ADC_GetValue(ADC_HandleTypeDef* hadc)
1396:../../../../../../Drivers/STM32L0xx_HAL_Driver/Src/stm32l0xx_hal_adc.c **** {
1397:../../../../../../Drivers/STM32L0xx_HAL_Driver/Src/stm32l0xx_hal_adc.c ****   /* Check the parameters */
1398:../../../../../../Drivers/STM32L0xx_HAL_Driver/Src/stm32l0xx_hal_adc.c ****   assert_param(IS_ADC_ALL_INSTANCE(hadc->Instance));
1399:../../../../../../Drivers/STM32L0xx_HAL_Driver/Src/stm32l0xx_hal_adc.c **** 
1400:../../../../../../Drivers/STM32L0xx_HAL_Driver/Src/stm32l0xx_hal_adc.c ****   /* Note: EOC flag is not cleared here by software because automatically     */
1401:../../../../../../Drivers/STM32L0xx_HAL_Driver/Src/stm32l0xx_hal_adc.c ****   /*       cleared by hardware when reading register DR.                      */
1402:../../../../../../Drivers/STM32L0xx_HAL_Driver/Src/stm32l0xx_hal_adc.c ****   
1403:../../../../../../Drivers/STM32L0xx_HAL_Driver/Src/stm32l0xx_hal_adc.c ****   /* Return ADC converted value */ 
1404:../../../../../../Drivers/STM32L0xx_HAL_Driver/Src/stm32l0xx_hal_adc.c ****   return hadc->Instance->DR;
1405:../../../../../../Drivers/STM32L0xx_HAL_Driver/Src/stm32l0xx_hal_adc.c **** }
1406:../../../../../../Drivers/STM32L0xx_HAL_Driver/Src/stm32l0xx_hal_adc.c **** 
ARM GAS  C:\Users\EBANO_~1\AppData\Local\Temp\cc7eeVhF.s 			page 35


1407:../../../../../../Drivers/STM32L0xx_HAL_Driver/Src/stm32l0xx_hal_adc.c **** /**
1408:../../../../../../Drivers/STM32L0xx_HAL_Driver/Src/stm32l0xx_hal_adc.c ****   * @brief  Handle ADC interrupt request.
1409:../../../../../../Drivers/STM32L0xx_HAL_Driver/Src/stm32l0xx_hal_adc.c ****   * @param  hadc ADC handle
1410:../../../../../../Drivers/STM32L0xx_HAL_Driver/Src/stm32l0xx_hal_adc.c ****   * @retval None
1411:../../../../../../Drivers/STM32L0xx_HAL_Driver/Src/stm32l0xx_hal_adc.c ****   */
1412:../../../../../../Drivers/STM32L0xx_HAL_Driver/Src/stm32l0xx_hal_adc.c **** void HAL_ADC_IRQHandler(ADC_HandleTypeDef* hadc)
1413:../../../../../../Drivers/STM32L0xx_HAL_Driver/Src/stm32l0xx_hal_adc.c **** {
1414:../../../../../../Drivers/STM32L0xx_HAL_Driver/Src/stm32l0xx_hal_adc.c ****   /* Check the parameters */
1415:../../../../../../Drivers/STM32L0xx_HAL_Driver/Src/stm32l0xx_hal_adc.c ****   assert_param(IS_ADC_ALL_INSTANCE(hadc->Instance));
1416:../../../../../../Drivers/STM32L0xx_HAL_Driver/Src/stm32l0xx_hal_adc.c ****   assert_param(IS_FUNCTIONAL_STATE(hadc->Init.ContinuousConvMode));
1417:../../../../../../Drivers/STM32L0xx_HAL_Driver/Src/stm32l0xx_hal_adc.c ****   assert_param(IS_ADC_EOC_SELECTION(hadc->Init.EOCSelection));
1418:../../../../../../Drivers/STM32L0xx_HAL_Driver/Src/stm32l0xx_hal_adc.c ****   
1419:../../../../../../Drivers/STM32L0xx_HAL_Driver/Src/stm32l0xx_hal_adc.c ****   /* ========== Check End of Conversion flag for regular group ========== */
1420:../../../../../../Drivers/STM32L0xx_HAL_Driver/Src/stm32l0xx_hal_adc.c ****   if( (__HAL_ADC_GET_FLAG(hadc, ADC_FLAG_EOC) && __HAL_ADC_GET_IT_SOURCE(hadc, ADC_IT_EOC)) || 
1421:../../../../../../Drivers/STM32L0xx_HAL_Driver/Src/stm32l0xx_hal_adc.c ****       (__HAL_ADC_GET_FLAG(hadc, ADC_FLAG_EOS) && __HAL_ADC_GET_IT_SOURCE(hadc, ADC_IT_EOS))   )
1422:../../../../../../Drivers/STM32L0xx_HAL_Driver/Src/stm32l0xx_hal_adc.c ****   {
1423:../../../../../../Drivers/STM32L0xx_HAL_Driver/Src/stm32l0xx_hal_adc.c ****     /* Update state machine on conversion status if not in error state */
1424:../../../../../../Drivers/STM32L0xx_HAL_Driver/Src/stm32l0xx_hal_adc.c ****     if (HAL_IS_BIT_CLR(hadc->State, HAL_ADC_STATE_ERROR_INTERNAL))
1425:../../../../../../Drivers/STM32L0xx_HAL_Driver/Src/stm32l0xx_hal_adc.c ****     {
1426:../../../../../../Drivers/STM32L0xx_HAL_Driver/Src/stm32l0xx_hal_adc.c ****       /* Set ADC state */
1427:../../../../../../Drivers/STM32L0xx_HAL_Driver/Src/stm32l0xx_hal_adc.c ****       SET_BIT(hadc->State, HAL_ADC_STATE_REG_EOC);
1428:../../../../../../Drivers/STM32L0xx_HAL_Driver/Src/stm32l0xx_hal_adc.c ****     }
1429:../../../../../../Drivers/STM32L0xx_HAL_Driver/Src/stm32l0xx_hal_adc.c ****     
1430:../../../../../../Drivers/STM32L0xx_HAL_Driver/Src/stm32l0xx_hal_adc.c ****     /* Determine whether any further conversion upcoming on group regular     */
1431:../../../../../../Drivers/STM32L0xx_HAL_Driver/Src/stm32l0xx_hal_adc.c ****     /* by external trigger, continuous mode or scan sequence on going.        */
1432:../../../../../../Drivers/STM32L0xx_HAL_Driver/Src/stm32l0xx_hal_adc.c ****     if(ADC_IS_SOFTWARE_START_REGULAR(hadc)        && 
1433:../../../../../../Drivers/STM32L0xx_HAL_Driver/Src/stm32l0xx_hal_adc.c ****        (hadc->Init.ContinuousConvMode == DISABLE)   )
1434:../../../../../../Drivers/STM32L0xx_HAL_Driver/Src/stm32l0xx_hal_adc.c ****     {
1435:../../../../../../Drivers/STM32L0xx_HAL_Driver/Src/stm32l0xx_hal_adc.c ****       /* If End of Sequence is reached, disable interrupts */
1436:../../../../../../Drivers/STM32L0xx_HAL_Driver/Src/stm32l0xx_hal_adc.c ****       if( __HAL_ADC_GET_FLAG(hadc, ADC_FLAG_EOS) )
1437:../../../../../../Drivers/STM32L0xx_HAL_Driver/Src/stm32l0xx_hal_adc.c ****       {
1438:../../../../../../Drivers/STM32L0xx_HAL_Driver/Src/stm32l0xx_hal_adc.c ****         /* Allowed to modify bits ADC_IT_EOC/ADC_IT_EOS only if bit           */
1439:../../../../../../Drivers/STM32L0xx_HAL_Driver/Src/stm32l0xx_hal_adc.c ****         /* ADSTART==0 (no conversion on going)                                */
1440:../../../../../../Drivers/STM32L0xx_HAL_Driver/Src/stm32l0xx_hal_adc.c ****         if (ADC_IS_CONVERSION_ONGOING_REGULAR(hadc) == RESET)
1441:../../../../../../Drivers/STM32L0xx_HAL_Driver/Src/stm32l0xx_hal_adc.c ****         {
1442:../../../../../../Drivers/STM32L0xx_HAL_Driver/Src/stm32l0xx_hal_adc.c ****           /* Disable ADC end of single conversion interrupt on group regular */
1443:../../../../../../Drivers/STM32L0xx_HAL_Driver/Src/stm32l0xx_hal_adc.c ****           /* Note: Overrun interrupt was enabled with EOC interrupt in        */
1444:../../../../../../Drivers/STM32L0xx_HAL_Driver/Src/stm32l0xx_hal_adc.c ****           /* HAL_Start_IT(), but is not disabled here because can be used     */
1445:../../../../../../Drivers/STM32L0xx_HAL_Driver/Src/stm32l0xx_hal_adc.c ****           /* by overrun IRQ process below.                                    */
1446:../../../../../../Drivers/STM32L0xx_HAL_Driver/Src/stm32l0xx_hal_adc.c ****           __HAL_ADC_DISABLE_IT(hadc, ADC_IT_EOC | ADC_IT_EOS);
1447:../../../../../../Drivers/STM32L0xx_HAL_Driver/Src/stm32l0xx_hal_adc.c ****           
1448:../../../../../../Drivers/STM32L0xx_HAL_Driver/Src/stm32l0xx_hal_adc.c ****           /* Set ADC state */
1449:../../../../../../Drivers/STM32L0xx_HAL_Driver/Src/stm32l0xx_hal_adc.c ****           ADC_STATE_CLR_SET(hadc->State,
1450:../../../../../../Drivers/STM32L0xx_HAL_Driver/Src/stm32l0xx_hal_adc.c ****                             HAL_ADC_STATE_REG_BUSY,
1451:../../../../../../Drivers/STM32L0xx_HAL_Driver/Src/stm32l0xx_hal_adc.c ****                             HAL_ADC_STATE_READY);
1452:../../../../../../Drivers/STM32L0xx_HAL_Driver/Src/stm32l0xx_hal_adc.c ****         }
1453:../../../../../../Drivers/STM32L0xx_HAL_Driver/Src/stm32l0xx_hal_adc.c ****         else
1454:../../../../../../Drivers/STM32L0xx_HAL_Driver/Src/stm32l0xx_hal_adc.c ****         {
1455:../../../../../../Drivers/STM32L0xx_HAL_Driver/Src/stm32l0xx_hal_adc.c ****           /* Change ADC state to error state */
1456:../../../../../../Drivers/STM32L0xx_HAL_Driver/Src/stm32l0xx_hal_adc.c ****           SET_BIT(hadc->State, HAL_ADC_STATE_ERROR_CONFIG);
1457:../../../../../../Drivers/STM32L0xx_HAL_Driver/Src/stm32l0xx_hal_adc.c ****           
1458:../../../../../../Drivers/STM32L0xx_HAL_Driver/Src/stm32l0xx_hal_adc.c ****           /* Set ADC error code to ADC IP internal error */
1459:../../../../../../Drivers/STM32L0xx_HAL_Driver/Src/stm32l0xx_hal_adc.c ****           SET_BIT(hadc->ErrorCode, HAL_ADC_ERROR_INTERNAL);
1460:../../../../../../Drivers/STM32L0xx_HAL_Driver/Src/stm32l0xx_hal_adc.c ****         }
1461:../../../../../../Drivers/STM32L0xx_HAL_Driver/Src/stm32l0xx_hal_adc.c ****       }
1462:../../../../../../Drivers/STM32L0xx_HAL_Driver/Src/stm32l0xx_hal_adc.c ****     }
1463:../../../../../../Drivers/STM32L0xx_HAL_Driver/Src/stm32l0xx_hal_adc.c ****     
ARM GAS  C:\Users\EBANO_~1\AppData\Local\Temp\cc7eeVhF.s 			page 36


1464:../../../../../../Drivers/STM32L0xx_HAL_Driver/Src/stm32l0xx_hal_adc.c ****     /* Conversion complete callback */
1465:../../../../../../Drivers/STM32L0xx_HAL_Driver/Src/stm32l0xx_hal_adc.c ****     /* Note: into callback, to determine if conversion has been triggered     */
1466:../../../../../../Drivers/STM32L0xx_HAL_Driver/Src/stm32l0xx_hal_adc.c ****     /*       from EOC or EOS, possibility to use:                             */
1467:../../../../../../Drivers/STM32L0xx_HAL_Driver/Src/stm32l0xx_hal_adc.c ****     /*        " if( __HAL_ADC_GET_FLAG(&hadc, ADC_FLAG_EOS)) "                */
1468:../../../../../../Drivers/STM32L0xx_HAL_Driver/Src/stm32l0xx_hal_adc.c ****     HAL_ADC_ConvCpltCallback(hadc);
1469:../../../../../../Drivers/STM32L0xx_HAL_Driver/Src/stm32l0xx_hal_adc.c ****     
1470:../../../../../../Drivers/STM32L0xx_HAL_Driver/Src/stm32l0xx_hal_adc.c ****     /* Clear regular group conversion flag */
1471:../../../../../../Drivers/STM32L0xx_HAL_Driver/Src/stm32l0xx_hal_adc.c ****     /* Note: in case of overrun set to ADC_OVR_DATA_PRESERVED, end of         */
1472:../../../../../../Drivers/STM32L0xx_HAL_Driver/Src/stm32l0xx_hal_adc.c ****     /*       conversion flags clear induces the release of the preserved data.*/
1473:../../../../../../Drivers/STM32L0xx_HAL_Driver/Src/stm32l0xx_hal_adc.c ****     /*       Therefore, if the preserved data value is needed, it must be     */
1474:../../../../../../Drivers/STM32L0xx_HAL_Driver/Src/stm32l0xx_hal_adc.c ****     /*       read preliminarily into HAL_ADC_ConvCpltCallback().              */
1475:../../../../../../Drivers/STM32L0xx_HAL_Driver/Src/stm32l0xx_hal_adc.c ****     /* Note: Management of low power auto-wait enabled: flags must be cleared */
1476:../../../../../../Drivers/STM32L0xx_HAL_Driver/Src/stm32l0xx_hal_adc.c ****     /*       by user when fetching ADC conversion data.                       */
1477:../../../../../../Drivers/STM32L0xx_HAL_Driver/Src/stm32l0xx_hal_adc.c ****     /*       This case is managed in IRQ handler, but this low-power mode     */
1478:../../../../../../Drivers/STM32L0xx_HAL_Driver/Src/stm32l0xx_hal_adc.c ****     /*       should not be used with programming model IT or DMA.             */
1479:../../../../../../Drivers/STM32L0xx_HAL_Driver/Src/stm32l0xx_hal_adc.c ****     /*       Refer to comment of parameter "LowPowerAutoWait".                */
1480:../../../../../../Drivers/STM32L0xx_HAL_Driver/Src/stm32l0xx_hal_adc.c ****     if (hadc->Init.LowPowerAutoWait != ENABLE)
1481:../../../../../../Drivers/STM32L0xx_HAL_Driver/Src/stm32l0xx_hal_adc.c ****     {
1482:../../../../../../Drivers/STM32L0xx_HAL_Driver/Src/stm32l0xx_hal_adc.c ****       __HAL_ADC_CLEAR_FLAG(hadc, (ADC_FLAG_EOC | ADC_FLAG_EOS));
1483:../../../../../../Drivers/STM32L0xx_HAL_Driver/Src/stm32l0xx_hal_adc.c ****     }
1484:../../../../../../Drivers/STM32L0xx_HAL_Driver/Src/stm32l0xx_hal_adc.c ****   }
1485:../../../../../../Drivers/STM32L0xx_HAL_Driver/Src/stm32l0xx_hal_adc.c ****   
1486:../../../../../../Drivers/STM32L0xx_HAL_Driver/Src/stm32l0xx_hal_adc.c ****   /* ========== Check analog watchdog 1 flag ========== */
1487:../../../../../../Drivers/STM32L0xx_HAL_Driver/Src/stm32l0xx_hal_adc.c ****   if(__HAL_ADC_GET_FLAG(hadc, ADC_FLAG_AWD) && __HAL_ADC_GET_IT_SOURCE(hadc, ADC_IT_AWD))
1488:../../../../../../Drivers/STM32L0xx_HAL_Driver/Src/stm32l0xx_hal_adc.c ****   {
1489:../../../../../../Drivers/STM32L0xx_HAL_Driver/Src/stm32l0xx_hal_adc.c ****     /* Set ADC state */
1490:../../../../../../Drivers/STM32L0xx_HAL_Driver/Src/stm32l0xx_hal_adc.c ****     SET_BIT(hadc->State, HAL_ADC_STATE_AWD1);
1491:../../../../../../Drivers/STM32L0xx_HAL_Driver/Src/stm32l0xx_hal_adc.c ****     
1492:../../../../../../Drivers/STM32L0xx_HAL_Driver/Src/stm32l0xx_hal_adc.c ****     /* Level out of window 1 callback */
1493:../../../../../../Drivers/STM32L0xx_HAL_Driver/Src/stm32l0xx_hal_adc.c ****     HAL_ADC_LevelOutOfWindowCallback(hadc);
1494:../../../../../../Drivers/STM32L0xx_HAL_Driver/Src/stm32l0xx_hal_adc.c ****     
1495:../../../../../../Drivers/STM32L0xx_HAL_Driver/Src/stm32l0xx_hal_adc.c ****     /* Clear ADC Analog watchdog flag */
1496:../../../../../../Drivers/STM32L0xx_HAL_Driver/Src/stm32l0xx_hal_adc.c ****     __HAL_ADC_CLEAR_FLAG(hadc, ADC_FLAG_AWD);
1497:../../../../../../Drivers/STM32L0xx_HAL_Driver/Src/stm32l0xx_hal_adc.c ****    
1498:../../../../../../Drivers/STM32L0xx_HAL_Driver/Src/stm32l0xx_hal_adc.c ****   }
1499:../../../../../../Drivers/STM32L0xx_HAL_Driver/Src/stm32l0xx_hal_adc.c ****   
1500:../../../../../../Drivers/STM32L0xx_HAL_Driver/Src/stm32l0xx_hal_adc.c ****   
1501:../../../../../../Drivers/STM32L0xx_HAL_Driver/Src/stm32l0xx_hal_adc.c ****   /* ========== Check Overrun flag ========== */
1502:../../../../../../Drivers/STM32L0xx_HAL_Driver/Src/stm32l0xx_hal_adc.c ****   if(__HAL_ADC_GET_FLAG(hadc, ADC_FLAG_OVR) && __HAL_ADC_GET_IT_SOURCE(hadc, ADC_IT_OVR))
1503:../../../../../../Drivers/STM32L0xx_HAL_Driver/Src/stm32l0xx_hal_adc.c ****   {
1504:../../../../../../Drivers/STM32L0xx_HAL_Driver/Src/stm32l0xx_hal_adc.c ****     /* If overrun is set to overwrite previous data (default setting),        */
1505:../../../../../../Drivers/STM32L0xx_HAL_Driver/Src/stm32l0xx_hal_adc.c ****     /* overrun event is not considered as an error.                           */
1506:../../../../../../Drivers/STM32L0xx_HAL_Driver/Src/stm32l0xx_hal_adc.c ****     /* (cf ref manual "Managing conversions without using the DMA and without */
1507:../../../../../../Drivers/STM32L0xx_HAL_Driver/Src/stm32l0xx_hal_adc.c ****     /* overrun ")                                                             */
1508:../../../../../../Drivers/STM32L0xx_HAL_Driver/Src/stm32l0xx_hal_adc.c ****     /* Exception for usage with DMA overrun event always considered as an     */
1509:../../../../../../Drivers/STM32L0xx_HAL_Driver/Src/stm32l0xx_hal_adc.c ****     /* error.                                                                 */
1510:../../../../../../Drivers/STM32L0xx_HAL_Driver/Src/stm32l0xx_hal_adc.c ****     if ((hadc->Init.Overrun == ADC_OVR_DATA_PRESERVED)            ||
1511:../../../../../../Drivers/STM32L0xx_HAL_Driver/Src/stm32l0xx_hal_adc.c ****         HAL_IS_BIT_SET(hadc->Instance->CFGR1, ADC_CFGR1_DMAEN)  )
1512:../../../../../../Drivers/STM32L0xx_HAL_Driver/Src/stm32l0xx_hal_adc.c ****     {
1513:../../../../../../Drivers/STM32L0xx_HAL_Driver/Src/stm32l0xx_hal_adc.c ****       /* Set ADC error code to overrun */
1514:../../../../../../Drivers/STM32L0xx_HAL_Driver/Src/stm32l0xx_hal_adc.c ****       SET_BIT(hadc->ErrorCode, HAL_ADC_ERROR_OVR);
1515:../../../../../../Drivers/STM32L0xx_HAL_Driver/Src/stm32l0xx_hal_adc.c ****       
1516:../../../../../../Drivers/STM32L0xx_HAL_Driver/Src/stm32l0xx_hal_adc.c ****       /* Clear ADC overrun flag */
1517:../../../../../../Drivers/STM32L0xx_HAL_Driver/Src/stm32l0xx_hal_adc.c ****       __HAL_ADC_CLEAR_FLAG(hadc, ADC_FLAG_OVR);
1518:../../../../../../Drivers/STM32L0xx_HAL_Driver/Src/stm32l0xx_hal_adc.c ****       
1519:../../../../../../Drivers/STM32L0xx_HAL_Driver/Src/stm32l0xx_hal_adc.c ****       /* Error callback */ 
1520:../../../../../../Drivers/STM32L0xx_HAL_Driver/Src/stm32l0xx_hal_adc.c ****       HAL_ADC_ErrorCallback(hadc);
ARM GAS  C:\Users\EBANO_~1\AppData\Local\Temp\cc7eeVhF.s 			page 37


1521:../../../../../../Drivers/STM32L0xx_HAL_Driver/Src/stm32l0xx_hal_adc.c ****     }
1522:../../../../../../Drivers/STM32L0xx_HAL_Driver/Src/stm32l0xx_hal_adc.c ****     
1523:../../../../../../Drivers/STM32L0xx_HAL_Driver/Src/stm32l0xx_hal_adc.c ****     /* Clear the Overrun flag */
1524:../../../../../../Drivers/STM32L0xx_HAL_Driver/Src/stm32l0xx_hal_adc.c ****     __HAL_ADC_CLEAR_FLAG(hadc, ADC_FLAG_OVR);
1525:../../../../../../Drivers/STM32L0xx_HAL_Driver/Src/stm32l0xx_hal_adc.c ****   }
1526:../../../../../../Drivers/STM32L0xx_HAL_Driver/Src/stm32l0xx_hal_adc.c ****   
1527:../../../../../../Drivers/STM32L0xx_HAL_Driver/Src/stm32l0xx_hal_adc.c **** }
1528:../../../../../../Drivers/STM32L0xx_HAL_Driver/Src/stm32l0xx_hal_adc.c **** 
1529:../../../../../../Drivers/STM32L0xx_HAL_Driver/Src/stm32l0xx_hal_adc.c **** /**
1530:../../../../../../Drivers/STM32L0xx_HAL_Driver/Src/stm32l0xx_hal_adc.c ****   * @brief  Conversion complete callback in non-blocking mode.
1531:../../../../../../Drivers/STM32L0xx_HAL_Driver/Src/stm32l0xx_hal_adc.c ****   * @param  hadc ADC handle
1532:../../../../../../Drivers/STM32L0xx_HAL_Driver/Src/stm32l0xx_hal_adc.c ****   * @retval None
1533:../../../../../../Drivers/STM32L0xx_HAL_Driver/Src/stm32l0xx_hal_adc.c ****   */
1534:../../../../../../Drivers/STM32L0xx_HAL_Driver/Src/stm32l0xx_hal_adc.c **** __weak void HAL_ADC_ConvCpltCallback(ADC_HandleTypeDef* hadc)
1535:../../../../../../Drivers/STM32L0xx_HAL_Driver/Src/stm32l0xx_hal_adc.c **** {
1536:../../../../../../Drivers/STM32L0xx_HAL_Driver/Src/stm32l0xx_hal_adc.c ****   /* Prevent unused argument(s) compilation warning */
1537:../../../../../../Drivers/STM32L0xx_HAL_Driver/Src/stm32l0xx_hal_adc.c ****   UNUSED(hadc);
1538:../../../../../../Drivers/STM32L0xx_HAL_Driver/Src/stm32l0xx_hal_adc.c **** 
1539:../../../../../../Drivers/STM32L0xx_HAL_Driver/Src/stm32l0xx_hal_adc.c ****   /* NOTE : This function should not be modified. When the callback is needed,
1540:../../../../../../Drivers/STM32L0xx_HAL_Driver/Src/stm32l0xx_hal_adc.c ****             function HAL_ADC_ConvCpltCallback must be implemented in the user file.
1541:../../../../../../Drivers/STM32L0xx_HAL_Driver/Src/stm32l0xx_hal_adc.c ****    */
1542:../../../../../../Drivers/STM32L0xx_HAL_Driver/Src/stm32l0xx_hal_adc.c **** }
1543:../../../../../../Drivers/STM32L0xx_HAL_Driver/Src/stm32l0xx_hal_adc.c **** 
1544:../../../../../../Drivers/STM32L0xx_HAL_Driver/Src/stm32l0xx_hal_adc.c **** /**
1545:../../../../../../Drivers/STM32L0xx_HAL_Driver/Src/stm32l0xx_hal_adc.c ****   * @brief  Conversion DMA half-transfer callback in non-blocking mode.
1546:../../../../../../Drivers/STM32L0xx_HAL_Driver/Src/stm32l0xx_hal_adc.c ****   * @param  hadc ADC handle
1547:../../../../../../Drivers/STM32L0xx_HAL_Driver/Src/stm32l0xx_hal_adc.c ****   * @retval None
1548:../../../../../../Drivers/STM32L0xx_HAL_Driver/Src/stm32l0xx_hal_adc.c ****   */
1549:../../../../../../Drivers/STM32L0xx_HAL_Driver/Src/stm32l0xx_hal_adc.c **** __weak void HAL_ADC_ConvHalfCpltCallback(ADC_HandleTypeDef* hadc)
1550:../../../../../../Drivers/STM32L0xx_HAL_Driver/Src/stm32l0xx_hal_adc.c **** {
1551:../../../../../../Drivers/STM32L0xx_HAL_Driver/Src/stm32l0xx_hal_adc.c ****   /* Prevent unused argument(s) compilation warning */
1552:../../../../../../Drivers/STM32L0xx_HAL_Driver/Src/stm32l0xx_hal_adc.c ****   UNUSED(hadc);
1553:../../../../../../Drivers/STM32L0xx_HAL_Driver/Src/stm32l0xx_hal_adc.c **** 
1554:../../../../../../Drivers/STM32L0xx_HAL_Driver/Src/stm32l0xx_hal_adc.c ****   /* NOTE : This function should not be modified. When the callback is needed,
1555:../../../../../../Drivers/STM32L0xx_HAL_Driver/Src/stm32l0xx_hal_adc.c ****             function HAL_ADC_ConvHalfCpltCallback must be implemented in the user file.
1556:../../../../../../Drivers/STM32L0xx_HAL_Driver/Src/stm32l0xx_hal_adc.c ****   */
1557:../../../../../../Drivers/STM32L0xx_HAL_Driver/Src/stm32l0xx_hal_adc.c **** }
1558:../../../../../../Drivers/STM32L0xx_HAL_Driver/Src/stm32l0xx_hal_adc.c **** 
1559:../../../../../../Drivers/STM32L0xx_HAL_Driver/Src/stm32l0xx_hal_adc.c **** /**
1560:../../../../../../Drivers/STM32L0xx_HAL_Driver/Src/stm32l0xx_hal_adc.c ****   * @brief  Analog watchdog 1 callback in non-blocking mode.
1561:../../../../../../Drivers/STM32L0xx_HAL_Driver/Src/stm32l0xx_hal_adc.c ****   * @param  hadc ADC handle
1562:../../../../../../Drivers/STM32L0xx_HAL_Driver/Src/stm32l0xx_hal_adc.c ****   * @retval None
1563:../../../../../../Drivers/STM32L0xx_HAL_Driver/Src/stm32l0xx_hal_adc.c ****   */
1564:../../../../../../Drivers/STM32L0xx_HAL_Driver/Src/stm32l0xx_hal_adc.c **** __weak void HAL_ADC_LevelOutOfWindowCallback(ADC_HandleTypeDef* hadc)
1565:../../../../../../Drivers/STM32L0xx_HAL_Driver/Src/stm32l0xx_hal_adc.c **** {
1566:../../../../../../Drivers/STM32L0xx_HAL_Driver/Src/stm32l0xx_hal_adc.c ****   /* Prevent unused argument(s) compilation warning */
1567:../../../../../../Drivers/STM32L0xx_HAL_Driver/Src/stm32l0xx_hal_adc.c ****   UNUSED(hadc);
1568:../../../../../../Drivers/STM32L0xx_HAL_Driver/Src/stm32l0xx_hal_adc.c **** 
1569:../../../../../../Drivers/STM32L0xx_HAL_Driver/Src/stm32l0xx_hal_adc.c ****   /* NOTE : This function should not be modified. When the callback is needed,
1570:../../../../../../Drivers/STM32L0xx_HAL_Driver/Src/stm32l0xx_hal_adc.c ****             function HAL_ADC_LevelOutOfWindowCallback must be implemented in the user file.
1571:../../../../../../Drivers/STM32L0xx_HAL_Driver/Src/stm32l0xx_hal_adc.c ****   */
1572:../../../../../../Drivers/STM32L0xx_HAL_Driver/Src/stm32l0xx_hal_adc.c **** }
1573:../../../../../../Drivers/STM32L0xx_HAL_Driver/Src/stm32l0xx_hal_adc.c **** 
1574:../../../../../../Drivers/STM32L0xx_HAL_Driver/Src/stm32l0xx_hal_adc.c **** /**
1575:../../../../../../Drivers/STM32L0xx_HAL_Driver/Src/stm32l0xx_hal_adc.c ****   * @brief  ADC error callback in non-blocking mode
1576:../../../../../../Drivers/STM32L0xx_HAL_Driver/Src/stm32l0xx_hal_adc.c ****   *         (ADC conversion with interruption or transfer by DMA).
1577:../../../../../../Drivers/STM32L0xx_HAL_Driver/Src/stm32l0xx_hal_adc.c ****   * @note   In case of error due to overrun when using ADC with DMA transfer 
ARM GAS  C:\Users\EBANO_~1\AppData\Local\Temp\cc7eeVhF.s 			page 38


1578:../../../../../../Drivers/STM32L0xx_HAL_Driver/Src/stm32l0xx_hal_adc.c ****   *         (HAL ADC handle paramater "ErrorCode" to state "HAL_ADC_ERROR_OVR"):
1579:../../../../../../Drivers/STM32L0xx_HAL_Driver/Src/stm32l0xx_hal_adc.c ****   *         - Reinitialize the DMA using function "HAL_ADC_Stop_DMA()".
1580:../../../../../../Drivers/STM32L0xx_HAL_Driver/Src/stm32l0xx_hal_adc.c ****   *         - If needed, restart a new ADC conversion using function
1581:../../../../../../Drivers/STM32L0xx_HAL_Driver/Src/stm32l0xx_hal_adc.c ****   *           "HAL_ADC_Start_DMA()"
1582:../../../../../../Drivers/STM32L0xx_HAL_Driver/Src/stm32l0xx_hal_adc.c ****   *           (this function is also clearing overrun flag)
1583:../../../../../../Drivers/STM32L0xx_HAL_Driver/Src/stm32l0xx_hal_adc.c ****   * @param  hadc ADC handle
1584:../../../../../../Drivers/STM32L0xx_HAL_Driver/Src/stm32l0xx_hal_adc.c ****   * @retval None
1585:../../../../../../Drivers/STM32L0xx_HAL_Driver/Src/stm32l0xx_hal_adc.c ****   */
1586:../../../../../../Drivers/STM32L0xx_HAL_Driver/Src/stm32l0xx_hal_adc.c **** __weak void HAL_ADC_ErrorCallback(ADC_HandleTypeDef *hadc)
1587:../../../../../../Drivers/STM32L0xx_HAL_Driver/Src/stm32l0xx_hal_adc.c **** {
1588:../../../../../../Drivers/STM32L0xx_HAL_Driver/Src/stm32l0xx_hal_adc.c ****   /* Prevent unused argument(s) compilation warning */
1589:../../../../../../Drivers/STM32L0xx_HAL_Driver/Src/stm32l0xx_hal_adc.c ****   UNUSED(hadc);
1590:../../../../../../Drivers/STM32L0xx_HAL_Driver/Src/stm32l0xx_hal_adc.c **** 
1591:../../../../../../Drivers/STM32L0xx_HAL_Driver/Src/stm32l0xx_hal_adc.c ****   /* NOTE : This function should not be modified. When the callback is needed,
1592:../../../../../../Drivers/STM32L0xx_HAL_Driver/Src/stm32l0xx_hal_adc.c ****             function HAL_ADC_ErrorCallback must be implemented in the user file.
1593:../../../../../../Drivers/STM32L0xx_HAL_Driver/Src/stm32l0xx_hal_adc.c ****   */
1594:../../../../../../Drivers/STM32L0xx_HAL_Driver/Src/stm32l0xx_hal_adc.c **** }
1595:../../../../../../Drivers/STM32L0xx_HAL_Driver/Src/stm32l0xx_hal_adc.c **** 
1596:../../../../../../Drivers/STM32L0xx_HAL_Driver/Src/stm32l0xx_hal_adc.c **** /**
1597:../../../../../../Drivers/STM32L0xx_HAL_Driver/Src/stm32l0xx_hal_adc.c ****   * @}
1598:../../../../../../Drivers/STM32L0xx_HAL_Driver/Src/stm32l0xx_hal_adc.c ****   */
1599:../../../../../../Drivers/STM32L0xx_HAL_Driver/Src/stm32l0xx_hal_adc.c **** 
1600:../../../../../../Drivers/STM32L0xx_HAL_Driver/Src/stm32l0xx_hal_adc.c **** /** @defgroup ADC_Exported_Functions_Group3 Peripheral Control functions
1601:../../../../../../Drivers/STM32L0xx_HAL_Driver/Src/stm32l0xx_hal_adc.c ****  *  @brief    Peripheral Control functions 
1602:../../../../../../Drivers/STM32L0xx_HAL_Driver/Src/stm32l0xx_hal_adc.c ****  *
1603:../../../../../../Drivers/STM32L0xx_HAL_Driver/Src/stm32l0xx_hal_adc.c **** @verbatim   
1604:../../../../../../Drivers/STM32L0xx_HAL_Driver/Src/stm32l0xx_hal_adc.c ****  ===============================================================================
1605:../../../../../../Drivers/STM32L0xx_HAL_Driver/Src/stm32l0xx_hal_adc.c ****              ##### Peripheral Control functions #####
1606:../../../../../../Drivers/STM32L0xx_HAL_Driver/Src/stm32l0xx_hal_adc.c ****  ===============================================================================  
1607:../../../../../../Drivers/STM32L0xx_HAL_Driver/Src/stm32l0xx_hal_adc.c ****     [..]  This section provides functions allowing to:
1608:../../../../../../Drivers/STM32L0xx_HAL_Driver/Src/stm32l0xx_hal_adc.c ****       (+) Configure channels on regular group
1609:../../../../../../Drivers/STM32L0xx_HAL_Driver/Src/stm32l0xx_hal_adc.c ****       (+) Configure the analog watchdog
1610:../../../../../../Drivers/STM32L0xx_HAL_Driver/Src/stm32l0xx_hal_adc.c ****       
1611:../../../../../../Drivers/STM32L0xx_HAL_Driver/Src/stm32l0xx_hal_adc.c **** @endverbatim
1612:../../../../../../Drivers/STM32L0xx_HAL_Driver/Src/stm32l0xx_hal_adc.c ****   * @{
1613:../../../../../../Drivers/STM32L0xx_HAL_Driver/Src/stm32l0xx_hal_adc.c ****   */
1614:../../../../../../Drivers/STM32L0xx_HAL_Driver/Src/stm32l0xx_hal_adc.c **** 
1615:../../../../../../Drivers/STM32L0xx_HAL_Driver/Src/stm32l0xx_hal_adc.c **** /**
1616:../../../../../../Drivers/STM32L0xx_HAL_Driver/Src/stm32l0xx_hal_adc.c ****   * @brief  Configure a channel to be assigned to ADC group regular.
1617:../../../../../../Drivers/STM32L0xx_HAL_Driver/Src/stm32l0xx_hal_adc.c ****   * @note   In case of usage of internal measurement channels:
1618:../../../../../../Drivers/STM32L0xx_HAL_Driver/Src/stm32l0xx_hal_adc.c ****   *         VrefInt/Vlcd(STM32L0x3xx only)/TempSensor.
1619:../../../../../../Drivers/STM32L0xx_HAL_Driver/Src/stm32l0xx_hal_adc.c ****   *         Sampling time constraints must be respected (sampling time can be 
1620:../../../../../../Drivers/STM32L0xx_HAL_Driver/Src/stm32l0xx_hal_adc.c ****   *         adjusted in function of ADC clock frequency and sampling time 
1621:../../../../../../Drivers/STM32L0xx_HAL_Driver/Src/stm32l0xx_hal_adc.c ****   *         setting).
1622:../../../../../../Drivers/STM32L0xx_HAL_Driver/Src/stm32l0xx_hal_adc.c ****   *         Refer to device datasheet for timings values, parameters TS_vrefint,
1623:../../../../../../Drivers/STM32L0xx_HAL_Driver/Src/stm32l0xx_hal_adc.c ****   *         TS_vlcd (STM32L0x3xx only), TS_temp (values rough order: 5us to 17us).
1624:../../../../../../Drivers/STM32L0xx_HAL_Driver/Src/stm32l0xx_hal_adc.c ****   *         These internal paths can be be disabled using function 
1625:../../../../../../Drivers/STM32L0xx_HAL_Driver/Src/stm32l0xx_hal_adc.c ****   *         HAL_ADC_DeInit().
1626:../../../../../../Drivers/STM32L0xx_HAL_Driver/Src/stm32l0xx_hal_adc.c ****   * @note   Possibility to update parameters on the fly:
1627:../../../../../../Drivers/STM32L0xx_HAL_Driver/Src/stm32l0xx_hal_adc.c ****   *         This function initializes channel into ADC group regular,
1628:../../../../../../Drivers/STM32L0xx_HAL_Driver/Src/stm32l0xx_hal_adc.c ****   *         following calls to this function can be used to reconfigure
1629:../../../../../../Drivers/STM32L0xx_HAL_Driver/Src/stm32l0xx_hal_adc.c ****   *         some parameters of structure "ADC_ChannelConfTypeDef" on the fly,
1630:../../../../../../Drivers/STM32L0xx_HAL_Driver/Src/stm32l0xx_hal_adc.c ****   *         without resetting the ADC.
1631:../../../../../../Drivers/STM32L0xx_HAL_Driver/Src/stm32l0xx_hal_adc.c ****   *         The setting of these parameters is conditioned to ADC state:
1632:../../../../../../Drivers/STM32L0xx_HAL_Driver/Src/stm32l0xx_hal_adc.c ****   *         Refer to comments of structure "ADC_ChannelConfTypeDef".
1633:../../../../../../Drivers/STM32L0xx_HAL_Driver/Src/stm32l0xx_hal_adc.c ****   * @param  hadc ADC handle
1634:../../../../../../Drivers/STM32L0xx_HAL_Driver/Src/stm32l0xx_hal_adc.c ****   * @param  sConfig Structure of ADC channel assigned to ADC group regular.
ARM GAS  C:\Users\EBANO_~1\AppData\Local\Temp\cc7eeVhF.s 			page 39


1635:../../../../../../Drivers/STM32L0xx_HAL_Driver/Src/stm32l0xx_hal_adc.c ****   * @retval HAL status
1636:../../../../../../Drivers/STM32L0xx_HAL_Driver/Src/stm32l0xx_hal_adc.c ****   */
1637:../../../../../../Drivers/STM32L0xx_HAL_Driver/Src/stm32l0xx_hal_adc.c **** HAL_StatusTypeDef HAL_ADC_ConfigChannel(ADC_HandleTypeDef* hadc, ADC_ChannelConfTypeDef* sConfig)
1638:../../../../../../Drivers/STM32L0xx_HAL_Driver/Src/stm32l0xx_hal_adc.c **** {
1639:../../../../../../Drivers/STM32L0xx_HAL_Driver/Src/stm32l0xx_hal_adc.c ****   /* Check the parameters */
1640:../../../../../../Drivers/STM32L0xx_HAL_Driver/Src/stm32l0xx_hal_adc.c ****   assert_param(IS_ADC_ALL_INSTANCE(hadc->Instance));
1641:../../../../../../Drivers/STM32L0xx_HAL_Driver/Src/stm32l0xx_hal_adc.c ****   assert_param(IS_ADC_CHANNEL(sConfig->Channel));
1642:../../../../../../Drivers/STM32L0xx_HAL_Driver/Src/stm32l0xx_hal_adc.c ****   assert_param(IS_ADC_RANK(sConfig->Rank));
1643:../../../../../../Drivers/STM32L0xx_HAL_Driver/Src/stm32l0xx_hal_adc.c ****   
1644:../../../../../../Drivers/STM32L0xx_HAL_Driver/Src/stm32l0xx_hal_adc.c ****   /* Process locked */
1645:../../../../../../Drivers/STM32L0xx_HAL_Driver/Src/stm32l0xx_hal_adc.c ****   __HAL_LOCK(hadc);
1646:../../../../../../Drivers/STM32L0xx_HAL_Driver/Src/stm32l0xx_hal_adc.c ****   
1647:../../../../../../Drivers/STM32L0xx_HAL_Driver/Src/stm32l0xx_hal_adc.c ****   /* Parameters update conditioned to ADC state:                              */
1648:../../../../../../Drivers/STM32L0xx_HAL_Driver/Src/stm32l0xx_hal_adc.c ****   /* Parameters that can be updated when ADC is disabled or enabled without   */
1649:../../../../../../Drivers/STM32L0xx_HAL_Driver/Src/stm32l0xx_hal_adc.c ****   /* conversion on going on regular group:                                    */
1650:../../../../../../Drivers/STM32L0xx_HAL_Driver/Src/stm32l0xx_hal_adc.c ****   /*  - Channel number                                                        */
1651:../../../../../../Drivers/STM32L0xx_HAL_Driver/Src/stm32l0xx_hal_adc.c ****   /*  - Management of internal measurement channels: Vbat/VrefInt/TempSensor  */
1652:../../../../../../Drivers/STM32L0xx_HAL_Driver/Src/stm32l0xx_hal_adc.c ****   if (ADC_IS_CONVERSION_ONGOING_REGULAR(hadc) != RESET)
1653:../../../../../../Drivers/STM32L0xx_HAL_Driver/Src/stm32l0xx_hal_adc.c ****   {
1654:../../../../../../Drivers/STM32L0xx_HAL_Driver/Src/stm32l0xx_hal_adc.c ****     /* Update ADC state machine to error */
1655:../../../../../../Drivers/STM32L0xx_HAL_Driver/Src/stm32l0xx_hal_adc.c ****     SET_BIT(hadc->State, HAL_ADC_STATE_ERROR_CONFIG);
1656:../../../../../../Drivers/STM32L0xx_HAL_Driver/Src/stm32l0xx_hal_adc.c ****     /* Process unlocked */
1657:../../../../../../Drivers/STM32L0xx_HAL_Driver/Src/stm32l0xx_hal_adc.c ****     __HAL_UNLOCK(hadc);
1658:../../../../../../Drivers/STM32L0xx_HAL_Driver/Src/stm32l0xx_hal_adc.c ****     return HAL_ERROR;
1659:../../../../../../Drivers/STM32L0xx_HAL_Driver/Src/stm32l0xx_hal_adc.c ****   }
1660:../../../../../../Drivers/STM32L0xx_HAL_Driver/Src/stm32l0xx_hal_adc.c ****   
1661:../../../../../../Drivers/STM32L0xx_HAL_Driver/Src/stm32l0xx_hal_adc.c ****   if (sConfig->Rank != ADC_RANK_NONE)
1662:../../../../../../Drivers/STM32L0xx_HAL_Driver/Src/stm32l0xx_hal_adc.c ****   {
1663:../../../../../../Drivers/STM32L0xx_HAL_Driver/Src/stm32l0xx_hal_adc.c ****     /* Enable selected channels */
1664:../../../../../../Drivers/STM32L0xx_HAL_Driver/Src/stm32l0xx_hal_adc.c ****     hadc->Instance->CHSELR |= (uint32_t)(sConfig->Channel & ADC_CHANNEL_MASK);
1665:../../../../../../Drivers/STM32L0xx_HAL_Driver/Src/stm32l0xx_hal_adc.c ****     
1666:../../../../../../Drivers/STM32L0xx_HAL_Driver/Src/stm32l0xx_hal_adc.c ****     /* Management of internal measurement channels: Vlcd (STM32L0x3xx only)/VrefInt/TempSensor */
1667:../../../../../../Drivers/STM32L0xx_HAL_Driver/Src/stm32l0xx_hal_adc.c ****     /* internal measurement paths enable: If internal channel selected, enable  */
1668:../../../../../../Drivers/STM32L0xx_HAL_Driver/Src/stm32l0xx_hal_adc.c ****     /* dedicated internal buffers and path.                                     */
1669:../../../../../../Drivers/STM32L0xx_HAL_Driver/Src/stm32l0xx_hal_adc.c ****     
1670:../../../../../../Drivers/STM32L0xx_HAL_Driver/Src/stm32l0xx_hal_adc.c ****     #if defined(ADC_CCR_TSEN)
1671:../../../../../../Drivers/STM32L0xx_HAL_Driver/Src/stm32l0xx_hal_adc.c ****     /* If Temperature sensor channel is selected, then enable the internal      */
1672:../../../../../../Drivers/STM32L0xx_HAL_Driver/Src/stm32l0xx_hal_adc.c ****     /* buffers and path  */
1673:../../../../../../Drivers/STM32L0xx_HAL_Driver/Src/stm32l0xx_hal_adc.c ****     if (((sConfig->Channel & ADC_CHANNEL_MASK) & ADC_CHANNEL_TEMPSENSOR ) == (ADC_CHANNEL_TEMPSENSO
1674:../../../../../../Drivers/STM32L0xx_HAL_Driver/Src/stm32l0xx_hal_adc.c ****     {
1675:../../../../../../Drivers/STM32L0xx_HAL_Driver/Src/stm32l0xx_hal_adc.c ****       ADC->CCR |= ADC_CCR_TSEN;   
1676:../../../../../../Drivers/STM32L0xx_HAL_Driver/Src/stm32l0xx_hal_adc.c ****       
1677:../../../../../../Drivers/STM32L0xx_HAL_Driver/Src/stm32l0xx_hal_adc.c ****       /* Delay for temperature sensor stabilization time */
1678:../../../../../../Drivers/STM32L0xx_HAL_Driver/Src/stm32l0xx_hal_adc.c ****       ADC_DelayMicroSecond(ADC_TEMPSENSOR_DELAY_US);
1679:../../../../../../Drivers/STM32L0xx_HAL_Driver/Src/stm32l0xx_hal_adc.c ****     }
1680:../../../../../../Drivers/STM32L0xx_HAL_Driver/Src/stm32l0xx_hal_adc.c ****     #endif
1681:../../../../../../Drivers/STM32L0xx_HAL_Driver/Src/stm32l0xx_hal_adc.c ****     
1682:../../../../../../Drivers/STM32L0xx_HAL_Driver/Src/stm32l0xx_hal_adc.c ****     /* If VRefInt channel is selected, then enable the internal buffers and path   */
1683:../../../../../../Drivers/STM32L0xx_HAL_Driver/Src/stm32l0xx_hal_adc.c ****     if (((sConfig->Channel & ADC_CHANNEL_MASK) & ADC_CHANNEL_VREFINT) == (ADC_CHANNEL_VREFINT & ADC
1684:../../../../../../Drivers/STM32L0xx_HAL_Driver/Src/stm32l0xx_hal_adc.c ****     {
1685:../../../../../../Drivers/STM32L0xx_HAL_Driver/Src/stm32l0xx_hal_adc.c ****       ADC->CCR |= ADC_CCR_VREFEN;   
1686:../../../../../../Drivers/STM32L0xx_HAL_Driver/Src/stm32l0xx_hal_adc.c ****     }
1687:../../../../../../Drivers/STM32L0xx_HAL_Driver/Src/stm32l0xx_hal_adc.c ****     
1688:../../../../../../Drivers/STM32L0xx_HAL_Driver/Src/stm32l0xx_hal_adc.c **** #if defined (STM32L053xx) || defined (STM32L063xx) || defined (STM32L073xx) || defined (STM32L083xx
1689:../../../../../../Drivers/STM32L0xx_HAL_Driver/Src/stm32l0xx_hal_adc.c ****     /* If Vlcd channel is selected, then enable the internal buffers and path   */
1690:../../../../../../Drivers/STM32L0xx_HAL_Driver/Src/stm32l0xx_hal_adc.c ****     if (((sConfig->Channel & ADC_CHANNEL_MASK) & ADC_CHANNEL_VLCD) == (ADC_CHANNEL_VLCD & ADC_CHANN
1691:../../../../../../Drivers/STM32L0xx_HAL_Driver/Src/stm32l0xx_hal_adc.c ****     {
ARM GAS  C:\Users\EBANO_~1\AppData\Local\Temp\cc7eeVhF.s 			page 40


1692:../../../../../../Drivers/STM32L0xx_HAL_Driver/Src/stm32l0xx_hal_adc.c ****       ADC->CCR |= ADC_CCR_VLCDEN;   
1693:../../../../../../Drivers/STM32L0xx_HAL_Driver/Src/stm32l0xx_hal_adc.c ****     }
1694:../../../../../../Drivers/STM32L0xx_HAL_Driver/Src/stm32l0xx_hal_adc.c **** #endif
1695:../../../../../../Drivers/STM32L0xx_HAL_Driver/Src/stm32l0xx_hal_adc.c ****   }
1696:../../../../../../Drivers/STM32L0xx_HAL_Driver/Src/stm32l0xx_hal_adc.c ****   else
1697:../../../../../../Drivers/STM32L0xx_HAL_Driver/Src/stm32l0xx_hal_adc.c ****   {
1698:../../../../../../Drivers/STM32L0xx_HAL_Driver/Src/stm32l0xx_hal_adc.c ****     /* Regular sequence configuration */
1699:../../../../../../Drivers/STM32L0xx_HAL_Driver/Src/stm32l0xx_hal_adc.c ****     /* Reset the channel selection register from the selected channel */
1700:../../../../../../Drivers/STM32L0xx_HAL_Driver/Src/stm32l0xx_hal_adc.c ****     hadc->Instance->CHSELR &= ~((uint32_t)(sConfig->Channel & ADC_CHANNEL_MASK));
1701:../../../../../../Drivers/STM32L0xx_HAL_Driver/Src/stm32l0xx_hal_adc.c ****     
1702:../../../../../../Drivers/STM32L0xx_HAL_Driver/Src/stm32l0xx_hal_adc.c ****     /* Management of internal measurement channels: VrefInt/TempSensor/Vbat */
1703:../../../../../../Drivers/STM32L0xx_HAL_Driver/Src/stm32l0xx_hal_adc.c ****     /* internal measurement paths disable: If internal channel selected,    */
1704:../../../../../../Drivers/STM32L0xx_HAL_Driver/Src/stm32l0xx_hal_adc.c ****     /* disable dedicated internal buffers and path.                         */
1705:../../../../../../Drivers/STM32L0xx_HAL_Driver/Src/stm32l0xx_hal_adc.c ****     #if defined(ADC_CCR_TSEN)
1706:../../../../../../Drivers/STM32L0xx_HAL_Driver/Src/stm32l0xx_hal_adc.c ****     if (((sConfig->Channel & ADC_CHANNEL_MASK) & ADC_CHANNEL_TEMPSENSOR ) == (ADC_CHANNEL_TEMPSENSO
1707:../../../../../../Drivers/STM32L0xx_HAL_Driver/Src/stm32l0xx_hal_adc.c ****     {
1708:../../../../../../Drivers/STM32L0xx_HAL_Driver/Src/stm32l0xx_hal_adc.c ****       ADC->CCR &= ~ADC_CCR_TSEN;   
1709:../../../../../../Drivers/STM32L0xx_HAL_Driver/Src/stm32l0xx_hal_adc.c ****     }
1710:../../../../../../Drivers/STM32L0xx_HAL_Driver/Src/stm32l0xx_hal_adc.c ****     #endif
1711:../../../../../../Drivers/STM32L0xx_HAL_Driver/Src/stm32l0xx_hal_adc.c ****     
1712:../../../../../../Drivers/STM32L0xx_HAL_Driver/Src/stm32l0xx_hal_adc.c ****     /* If VRefInt channel is selected, then enable the internal buffers and path   */
1713:../../../../../../Drivers/STM32L0xx_HAL_Driver/Src/stm32l0xx_hal_adc.c ****     if (((sConfig->Channel & ADC_CHANNEL_MASK) & ADC_CHANNEL_VREFINT) == (ADC_CHANNEL_VREFINT & ADC
1714:../../../../../../Drivers/STM32L0xx_HAL_Driver/Src/stm32l0xx_hal_adc.c ****     {
1715:../../../../../../Drivers/STM32L0xx_HAL_Driver/Src/stm32l0xx_hal_adc.c ****       ADC->CCR &= ~ADC_CCR_VREFEN;   
1716:../../../../../../Drivers/STM32L0xx_HAL_Driver/Src/stm32l0xx_hal_adc.c ****     }
1717:../../../../../../Drivers/STM32L0xx_HAL_Driver/Src/stm32l0xx_hal_adc.c ****     
1718:../../../../../../Drivers/STM32L0xx_HAL_Driver/Src/stm32l0xx_hal_adc.c **** #if defined (STM32L053xx) || defined (STM32L063xx) || defined (STM32L073xx) || defined (STM32L083xx
1719:../../../../../../Drivers/STM32L0xx_HAL_Driver/Src/stm32l0xx_hal_adc.c ****     /* If Vlcd channel is selected, then enable the internal buffers and path   */
1720:../../../../../../Drivers/STM32L0xx_HAL_Driver/Src/stm32l0xx_hal_adc.c ****     if (((sConfig->Channel & ADC_CHANNEL_MASK) & ADC_CHANNEL_VLCD) == (ADC_CHANNEL_VLCD & ADC_CHANN
1721:../../../../../../Drivers/STM32L0xx_HAL_Driver/Src/stm32l0xx_hal_adc.c ****     {
1722:../../../../../../Drivers/STM32L0xx_HAL_Driver/Src/stm32l0xx_hal_adc.c ****       ADC->CCR &= ~ADC_CCR_VLCDEN;   
1723:../../../../../../Drivers/STM32L0xx_HAL_Driver/Src/stm32l0xx_hal_adc.c ****     }
1724:../../../../../../Drivers/STM32L0xx_HAL_Driver/Src/stm32l0xx_hal_adc.c **** #endif
1725:../../../../../../Drivers/STM32L0xx_HAL_Driver/Src/stm32l0xx_hal_adc.c ****   }
1726:../../../../../../Drivers/STM32L0xx_HAL_Driver/Src/stm32l0xx_hal_adc.c ****   
1727:../../../../../../Drivers/STM32L0xx_HAL_Driver/Src/stm32l0xx_hal_adc.c ****   /* Process unlocked */
1728:../../../../../../Drivers/STM32L0xx_HAL_Driver/Src/stm32l0xx_hal_adc.c ****   __HAL_UNLOCK(hadc);
1729:../../../../../../Drivers/STM32L0xx_HAL_Driver/Src/stm32l0xx_hal_adc.c ****   
1730:../../../../../../Drivers/STM32L0xx_HAL_Driver/Src/stm32l0xx_hal_adc.c ****   /* Return function status */
1731:../../../../../../Drivers/STM32L0xx_HAL_Driver/Src/stm32l0xx_hal_adc.c ****   return HAL_OK;
1732:../../../../../../Drivers/STM32L0xx_HAL_Driver/Src/stm32l0xx_hal_adc.c **** }
1733:../../../../../../Drivers/STM32L0xx_HAL_Driver/Src/stm32l0xx_hal_adc.c **** 
1734:../../../../../../Drivers/STM32L0xx_HAL_Driver/Src/stm32l0xx_hal_adc.c **** /**
1735:../../../../../../Drivers/STM32L0xx_HAL_Driver/Src/stm32l0xx_hal_adc.c ****   * @brief  Configure the analog watchdog.
1736:../../../../../../Drivers/STM32L0xx_HAL_Driver/Src/stm32l0xx_hal_adc.c ****   * @note   Possibility to update parameters on the fly:
1737:../../../../../../Drivers/STM32L0xx_HAL_Driver/Src/stm32l0xx_hal_adc.c ****   *         This function initializes the selected analog watchdog, successive  
1738:../../../../../../Drivers/STM32L0xx_HAL_Driver/Src/stm32l0xx_hal_adc.c ****   *         calls to this function can be used to reconfigure some parameters 
1739:../../../../../../Drivers/STM32L0xx_HAL_Driver/Src/stm32l0xx_hal_adc.c ****   *         of structure "ADC_AnalogWDGConfTypeDef" on the fly, without resetting 
1740:../../../../../../Drivers/STM32L0xx_HAL_Driver/Src/stm32l0xx_hal_adc.c ****   *         the ADC.
1741:../../../../../../Drivers/STM32L0xx_HAL_Driver/Src/stm32l0xx_hal_adc.c ****   *         The setting of these parameters is conditioned to ADC state.
1742:../../../../../../Drivers/STM32L0xx_HAL_Driver/Src/stm32l0xx_hal_adc.c ****   *         For parameters constraints, see comments of structure 
1743:../../../../../../Drivers/STM32L0xx_HAL_Driver/Src/stm32l0xx_hal_adc.c ****   *         "ADC_AnalogWDGConfTypeDef".
1744:../../../../../../Drivers/STM32L0xx_HAL_Driver/Src/stm32l0xx_hal_adc.c ****   * @note   Analog watchdog thresholds can be modified while ADC conversion
1745:../../../../../../Drivers/STM32L0xx_HAL_Driver/Src/stm32l0xx_hal_adc.c ****   *         is on going.
1746:../../../../../../Drivers/STM32L0xx_HAL_Driver/Src/stm32l0xx_hal_adc.c ****   *         In this case, some constraints must be taken into account:
1747:../../../../../../Drivers/STM32L0xx_HAL_Driver/Src/stm32l0xx_hal_adc.c ****   *         the programmed threshold values are effective from the next
1748:../../../../../../Drivers/STM32L0xx_HAL_Driver/Src/stm32l0xx_hal_adc.c ****   *         ADC EOC (end of unitary conversion).
ARM GAS  C:\Users\EBANO_~1\AppData\Local\Temp\cc7eeVhF.s 			page 41


1749:../../../../../../Drivers/STM32L0xx_HAL_Driver/Src/stm32l0xx_hal_adc.c ****   *         Considering that registers write delay may happen due to
1750:../../../../../../Drivers/STM32L0xx_HAL_Driver/Src/stm32l0xx_hal_adc.c ****   *         bus activity, this might cause an uncertainty on the
1751:../../../../../../Drivers/STM32L0xx_HAL_Driver/Src/stm32l0xx_hal_adc.c ****   *         effective timing of the new programmed threshold values.
1752:../../../../../../Drivers/STM32L0xx_HAL_Driver/Src/stm32l0xx_hal_adc.c ****   * @param  hadc ADC handle
1753:../../../../../../Drivers/STM32L0xx_HAL_Driver/Src/stm32l0xx_hal_adc.c ****   * @param  AnalogWDGConfig Structure of ADC analog watchdog configuration
1754:../../../../../../Drivers/STM32L0xx_HAL_Driver/Src/stm32l0xx_hal_adc.c ****   * @retval HAL status
1755:../../../../../../Drivers/STM32L0xx_HAL_Driver/Src/stm32l0xx_hal_adc.c ****   */
1756:../../../../../../Drivers/STM32L0xx_HAL_Driver/Src/stm32l0xx_hal_adc.c **** HAL_StatusTypeDef HAL_ADC_AnalogWDGConfig(ADC_HandleTypeDef* hadc, ADC_AnalogWDGConfTypeDef* Analog
1757:../../../../../../Drivers/STM32L0xx_HAL_Driver/Src/stm32l0xx_hal_adc.c **** {
1758:../../../../../../Drivers/STM32L0xx_HAL_Driver/Src/stm32l0xx_hal_adc.c ****   HAL_StatusTypeDef tmp_hal_status = HAL_OK;
1759:../../../../../../Drivers/STM32L0xx_HAL_Driver/Src/stm32l0xx_hal_adc.c ****   
1760:../../../../../../Drivers/STM32L0xx_HAL_Driver/Src/stm32l0xx_hal_adc.c ****   uint32_t tmpAWDHighThresholdShifted;
1761:../../../../../../Drivers/STM32L0xx_HAL_Driver/Src/stm32l0xx_hal_adc.c ****   uint32_t tmpAWDLowThresholdShifted;
1762:../../../../../../Drivers/STM32L0xx_HAL_Driver/Src/stm32l0xx_hal_adc.c ****   
1763:../../../../../../Drivers/STM32L0xx_HAL_Driver/Src/stm32l0xx_hal_adc.c ****   /* Check the parameters */
1764:../../../../../../Drivers/STM32L0xx_HAL_Driver/Src/stm32l0xx_hal_adc.c ****   assert_param(IS_ADC_ALL_INSTANCE(hadc->Instance));
1765:../../../../../../Drivers/STM32L0xx_HAL_Driver/Src/stm32l0xx_hal_adc.c ****   assert_param(IS_ADC_ANALOG_WATCHDOG_MODE(AnalogWDGConfig->WatchdogMode));
1766:../../../../../../Drivers/STM32L0xx_HAL_Driver/Src/stm32l0xx_hal_adc.c ****   assert_param(IS_FUNCTIONAL_STATE(AnalogWDGConfig->ITMode));
1767:../../../../../../Drivers/STM32L0xx_HAL_Driver/Src/stm32l0xx_hal_adc.c ****   
1768:../../../../../../Drivers/STM32L0xx_HAL_Driver/Src/stm32l0xx_hal_adc.c ****   if(AnalogWDGConfig->WatchdogMode == ADC_ANALOGWATCHDOG_SINGLE_REG)
1769:../../../../../../Drivers/STM32L0xx_HAL_Driver/Src/stm32l0xx_hal_adc.c ****   {
1770:../../../../../../Drivers/STM32L0xx_HAL_Driver/Src/stm32l0xx_hal_adc.c ****     assert_param(IS_ADC_CHANNEL(AnalogWDGConfig->Channel));
1771:../../../../../../Drivers/STM32L0xx_HAL_Driver/Src/stm32l0xx_hal_adc.c ****   }
1772:../../../../../../Drivers/STM32L0xx_HAL_Driver/Src/stm32l0xx_hal_adc.c **** 
1773:../../../../../../Drivers/STM32L0xx_HAL_Driver/Src/stm32l0xx_hal_adc.c ****   /* Verify if threshold is within the selected ADC resolution */
1774:../../../../../../Drivers/STM32L0xx_HAL_Driver/Src/stm32l0xx_hal_adc.c ****   assert_param(IS_ADC_RANGE(ADC_GET_RESOLUTION(hadc), AnalogWDGConfig->HighThreshold));
1775:../../../../../../Drivers/STM32L0xx_HAL_Driver/Src/stm32l0xx_hal_adc.c ****   assert_param(IS_ADC_RANGE(ADC_GET_RESOLUTION(hadc), AnalogWDGConfig->LowThreshold));
1776:../../../../../../Drivers/STM32L0xx_HAL_Driver/Src/stm32l0xx_hal_adc.c **** 
1777:../../../../../../Drivers/STM32L0xx_HAL_Driver/Src/stm32l0xx_hal_adc.c ****   /* Process locked */
1778:../../../../../../Drivers/STM32L0xx_HAL_Driver/Src/stm32l0xx_hal_adc.c ****   __HAL_LOCK(hadc);
1779:../../../../../../Drivers/STM32L0xx_HAL_Driver/Src/stm32l0xx_hal_adc.c ****   
1780:../../../../../../Drivers/STM32L0xx_HAL_Driver/Src/stm32l0xx_hal_adc.c ****   /* Parameters update conditioned to ADC state:                              */
1781:../../../../../../Drivers/STM32L0xx_HAL_Driver/Src/stm32l0xx_hal_adc.c ****   /* Parameters that can be updated when ADC is disabled or enabled without   */
1782:../../../../../../Drivers/STM32L0xx_HAL_Driver/Src/stm32l0xx_hal_adc.c ****   /* conversion on going on regular group:                                    */
1783:../../../../../../Drivers/STM32L0xx_HAL_Driver/Src/stm32l0xx_hal_adc.c ****   /*  - Analog watchdog channels                                              */
1784:../../../../../../Drivers/STM32L0xx_HAL_Driver/Src/stm32l0xx_hal_adc.c ****   /*  - Analog watchdog thresholds                                            */
1785:../../../../../../Drivers/STM32L0xx_HAL_Driver/Src/stm32l0xx_hal_adc.c ****   if (ADC_IS_CONVERSION_ONGOING_REGULAR(hadc) == RESET)
1786:../../../../../../Drivers/STM32L0xx_HAL_Driver/Src/stm32l0xx_hal_adc.c ****   {
1787:../../../../../../Drivers/STM32L0xx_HAL_Driver/Src/stm32l0xx_hal_adc.c ****     /* Configure ADC Analog watchdog interrupt */
1788:../../../../../../Drivers/STM32L0xx_HAL_Driver/Src/stm32l0xx_hal_adc.c ****     if(AnalogWDGConfig->ITMode == ENABLE)
1789:../../../../../../Drivers/STM32L0xx_HAL_Driver/Src/stm32l0xx_hal_adc.c ****     {
1790:../../../../../../Drivers/STM32L0xx_HAL_Driver/Src/stm32l0xx_hal_adc.c ****       /* Enable the ADC Analog watchdog interrupt */
1791:../../../../../../Drivers/STM32L0xx_HAL_Driver/Src/stm32l0xx_hal_adc.c ****       __HAL_ADC_ENABLE_IT(hadc, ADC_IT_AWD);
1792:../../../../../../Drivers/STM32L0xx_HAL_Driver/Src/stm32l0xx_hal_adc.c ****     }
1793:../../../../../../Drivers/STM32L0xx_HAL_Driver/Src/stm32l0xx_hal_adc.c ****     else
1794:../../../../../../Drivers/STM32L0xx_HAL_Driver/Src/stm32l0xx_hal_adc.c ****     {
1795:../../../../../../Drivers/STM32L0xx_HAL_Driver/Src/stm32l0xx_hal_adc.c ****       /* Disable the ADC Analog watchdog interrupt */
1796:../../../../../../Drivers/STM32L0xx_HAL_Driver/Src/stm32l0xx_hal_adc.c ****       __HAL_ADC_DISABLE_IT(hadc, ADC_IT_AWD);
1797:../../../../../../Drivers/STM32L0xx_HAL_Driver/Src/stm32l0xx_hal_adc.c ****     }
1798:../../../../../../Drivers/STM32L0xx_HAL_Driver/Src/stm32l0xx_hal_adc.c ****     
1799:../../../../../../Drivers/STM32L0xx_HAL_Driver/Src/stm32l0xx_hal_adc.c ****     /* Configuration of analog watchdog:                                        */
1800:../../../../../../Drivers/STM32L0xx_HAL_Driver/Src/stm32l0xx_hal_adc.c ****     /*  - Set the analog watchdog mode                                          */
1801:../../../../../../Drivers/STM32L0xx_HAL_Driver/Src/stm32l0xx_hal_adc.c ****     /*  - Set the Analog watchdog channel (is not used if watchdog              */
1802:../../../../../../Drivers/STM32L0xx_HAL_Driver/Src/stm32l0xx_hal_adc.c ****     /*    mode "all channels": ADC_CFGR1_AWD1SGL=0)                             */
1803:../../../../../../Drivers/STM32L0xx_HAL_Driver/Src/stm32l0xx_hal_adc.c ****     hadc->Instance->CFGR1 &= ~( ADC_CFGR1_AWDSGL |
1804:../../../../../../Drivers/STM32L0xx_HAL_Driver/Src/stm32l0xx_hal_adc.c ****                                ADC_CFGR1_AWDEN  |
1805:../../../../../../Drivers/STM32L0xx_HAL_Driver/Src/stm32l0xx_hal_adc.c ****                                ADC_CFGR1_AWDCH);
ARM GAS  C:\Users\EBANO_~1\AppData\Local\Temp\cc7eeVhF.s 			page 42


1806:../../../../../../Drivers/STM32L0xx_HAL_Driver/Src/stm32l0xx_hal_adc.c ****     
1807:../../../../../../Drivers/STM32L0xx_HAL_Driver/Src/stm32l0xx_hal_adc.c ****     hadc->Instance->CFGR1 |= ( AnalogWDGConfig->WatchdogMode |
1808:../../../../../../Drivers/STM32L0xx_HAL_Driver/Src/stm32l0xx_hal_adc.c ****                               (AnalogWDGConfig->Channel & ADC_CHANNEL_AWD_MASK));
1809:../../../../../../Drivers/STM32L0xx_HAL_Driver/Src/stm32l0xx_hal_adc.c ****     
1810:../../../../../../Drivers/STM32L0xx_HAL_Driver/Src/stm32l0xx_hal_adc.c ****     
1811:../../../../../../Drivers/STM32L0xx_HAL_Driver/Src/stm32l0xx_hal_adc.c ****     /* Shift the offset in function of the selected ADC resolution: Thresholds  */
1812:../../../../../../Drivers/STM32L0xx_HAL_Driver/Src/stm32l0xx_hal_adc.c ****     /* have to be left-aligned on bit 11, the LSB (right bits) are set to 0     */
1813:../../../../../../Drivers/STM32L0xx_HAL_Driver/Src/stm32l0xx_hal_adc.c ****     tmpAWDHighThresholdShifted = ADC_AWD1THRESHOLD_SHIFT_RESOLUTION(hadc, AnalogWDGConfig->HighThre
1814:../../../../../../Drivers/STM32L0xx_HAL_Driver/Src/stm32l0xx_hal_adc.c ****     tmpAWDLowThresholdShifted  = ADC_AWD1THRESHOLD_SHIFT_RESOLUTION(hadc, AnalogWDGConfig->LowThres
1815:../../../../../../Drivers/STM32L0xx_HAL_Driver/Src/stm32l0xx_hal_adc.c ****     
1816:../../../../../../Drivers/STM32L0xx_HAL_Driver/Src/stm32l0xx_hal_adc.c ****     /* Clear High & Low high thresholds */
1817:../../../../../../Drivers/STM32L0xx_HAL_Driver/Src/stm32l0xx_hal_adc.c ****     hadc->Instance->TR &= (uint32_t) ~ (ADC_TR_HT | ADC_TR_LT);
1818:../../../../../../Drivers/STM32L0xx_HAL_Driver/Src/stm32l0xx_hal_adc.c ****     
1819:../../../../../../Drivers/STM32L0xx_HAL_Driver/Src/stm32l0xx_hal_adc.c ****     /* Set the high threshold */
1820:../../../../../../Drivers/STM32L0xx_HAL_Driver/Src/stm32l0xx_hal_adc.c ****     hadc->Instance->TR = ADC_TRX_HIGHTHRESHOLD (tmpAWDHighThresholdShifted);
1821:../../../../../../Drivers/STM32L0xx_HAL_Driver/Src/stm32l0xx_hal_adc.c ****     /* Set the low threshold */
1822:../../../../../../Drivers/STM32L0xx_HAL_Driver/Src/stm32l0xx_hal_adc.c ****     hadc->Instance->TR |= tmpAWDLowThresholdShifted;
1823:../../../../../../Drivers/STM32L0xx_HAL_Driver/Src/stm32l0xx_hal_adc.c ****   }
1824:../../../../../../Drivers/STM32L0xx_HAL_Driver/Src/stm32l0xx_hal_adc.c ****   /* If a conversion is on going on regular group, no update could be done    */
1825:../../../../../../Drivers/STM32L0xx_HAL_Driver/Src/stm32l0xx_hal_adc.c ****   /* on neither of the AWD configuration structure parameters.                */
1826:../../../../../../Drivers/STM32L0xx_HAL_Driver/Src/stm32l0xx_hal_adc.c ****   else
1827:../../../../../../Drivers/STM32L0xx_HAL_Driver/Src/stm32l0xx_hal_adc.c ****   {
1828:../../../../../../Drivers/STM32L0xx_HAL_Driver/Src/stm32l0xx_hal_adc.c ****     /* Update ADC state machine to error */
1829:../../../../../../Drivers/STM32L0xx_HAL_Driver/Src/stm32l0xx_hal_adc.c ****     SET_BIT(hadc->State, HAL_ADC_STATE_ERROR_CONFIG);
1830:../../../../../../Drivers/STM32L0xx_HAL_Driver/Src/stm32l0xx_hal_adc.c ****     
1831:../../../../../../Drivers/STM32L0xx_HAL_Driver/Src/stm32l0xx_hal_adc.c ****     tmp_hal_status = HAL_ERROR;
1832:../../../../../../Drivers/STM32L0xx_HAL_Driver/Src/stm32l0xx_hal_adc.c ****   }
1833:../../../../../../Drivers/STM32L0xx_HAL_Driver/Src/stm32l0xx_hal_adc.c ****   
1834:../../../../../../Drivers/STM32L0xx_HAL_Driver/Src/stm32l0xx_hal_adc.c ****   /* Process unlocked */
1835:../../../../../../Drivers/STM32L0xx_HAL_Driver/Src/stm32l0xx_hal_adc.c ****   __HAL_UNLOCK(hadc);
1836:../../../../../../Drivers/STM32L0xx_HAL_Driver/Src/stm32l0xx_hal_adc.c ****   
1837:../../../../../../Drivers/STM32L0xx_HAL_Driver/Src/stm32l0xx_hal_adc.c ****   /* Return function status */
1838:../../../../../../Drivers/STM32L0xx_HAL_Driver/Src/stm32l0xx_hal_adc.c ****   return tmp_hal_status;
1839:../../../../../../Drivers/STM32L0xx_HAL_Driver/Src/stm32l0xx_hal_adc.c **** }
1840:../../../../../../Drivers/STM32L0xx_HAL_Driver/Src/stm32l0xx_hal_adc.c **** 
1841:../../../../../../Drivers/STM32L0xx_HAL_Driver/Src/stm32l0xx_hal_adc.c **** 
1842:../../../../../../Drivers/STM32L0xx_HAL_Driver/Src/stm32l0xx_hal_adc.c **** /**
1843:../../../../../../Drivers/STM32L0xx_HAL_Driver/Src/stm32l0xx_hal_adc.c ****   * @}
1844:../../../../../../Drivers/STM32L0xx_HAL_Driver/Src/stm32l0xx_hal_adc.c ****   */
1845:../../../../../../Drivers/STM32L0xx_HAL_Driver/Src/stm32l0xx_hal_adc.c **** 
1846:../../../../../../Drivers/STM32L0xx_HAL_Driver/Src/stm32l0xx_hal_adc.c **** /** @defgroup ADC_Exported_Functions_Group4 Peripheral State functions
1847:../../../../../../Drivers/STM32L0xx_HAL_Driver/Src/stm32l0xx_hal_adc.c ****  *  @brief    ADC Peripheral State functions
1848:../../../../../../Drivers/STM32L0xx_HAL_Driver/Src/stm32l0xx_hal_adc.c ****  *
1849:../../../../../../Drivers/STM32L0xx_HAL_Driver/Src/stm32l0xx_hal_adc.c **** @verbatim
1850:../../../../../../Drivers/STM32L0xx_HAL_Driver/Src/stm32l0xx_hal_adc.c ****  ===============================================================================
1851:../../../../../../Drivers/STM32L0xx_HAL_Driver/Src/stm32l0xx_hal_adc.c ****             ##### Peripheral state and errors functions #####
1852:../../../../../../Drivers/STM32L0xx_HAL_Driver/Src/stm32l0xx_hal_adc.c ****  ===============================================================================
1853:../../../../../../Drivers/STM32L0xx_HAL_Driver/Src/stm32l0xx_hal_adc.c ****     [..]
1854:../../../../../../Drivers/STM32L0xx_HAL_Driver/Src/stm32l0xx_hal_adc.c ****     This subsection provides functions to get in run-time the status of the  
1855:../../../../../../Drivers/STM32L0xx_HAL_Driver/Src/stm32l0xx_hal_adc.c ****     peripheral.
1856:../../../../../../Drivers/STM32L0xx_HAL_Driver/Src/stm32l0xx_hal_adc.c ****       (+) Check the ADC state
1857:../../../../../../Drivers/STM32L0xx_HAL_Driver/Src/stm32l0xx_hal_adc.c ****       (+) Check the ADC error code
1858:../../../../../../Drivers/STM32L0xx_HAL_Driver/Src/stm32l0xx_hal_adc.c **** 
1859:../../../../../../Drivers/STM32L0xx_HAL_Driver/Src/stm32l0xx_hal_adc.c **** @endverbatim
1860:../../../../../../Drivers/STM32L0xx_HAL_Driver/Src/stm32l0xx_hal_adc.c ****   * @{
1861:../../../../../../Drivers/STM32L0xx_HAL_Driver/Src/stm32l0xx_hal_adc.c ****   */
1862:../../../../../../Drivers/STM32L0xx_HAL_Driver/Src/stm32l0xx_hal_adc.c **** 
ARM GAS  C:\Users\EBANO_~1\AppData\Local\Temp\cc7eeVhF.s 			page 43


1863:../../../../../../Drivers/STM32L0xx_HAL_Driver/Src/stm32l0xx_hal_adc.c **** /**
1864:../../../../../../Drivers/STM32L0xx_HAL_Driver/Src/stm32l0xx_hal_adc.c ****   * @brief  Return the ADC handle state.
1865:../../../../../../Drivers/STM32L0xx_HAL_Driver/Src/stm32l0xx_hal_adc.c ****   * @note   ADC state machine is managed by bitfields, ADC status must be 
1866:../../../../../../Drivers/STM32L0xx_HAL_Driver/Src/stm32l0xx_hal_adc.c ****   *         compared with states bits.
1867:../../../../../../Drivers/STM32L0xx_HAL_Driver/Src/stm32l0xx_hal_adc.c ****   *         For example:                                                         
1868:../../../../../../Drivers/STM32L0xx_HAL_Driver/Src/stm32l0xx_hal_adc.c ****   *           " if (HAL_IS_BIT_SET(HAL_ADC_GetState(hadc1), HAL_ADC_STATE_REG_BUSY)) "
1869:../../../../../../Drivers/STM32L0xx_HAL_Driver/Src/stm32l0xx_hal_adc.c ****   *           " if (HAL_IS_BIT_SET(HAL_ADC_GetState(hadc1), HAL_ADC_STATE_AWD1)    ) "
1870:../../../../../../Drivers/STM32L0xx_HAL_Driver/Src/stm32l0xx_hal_adc.c ****   * @param  hadc ADC handle
1871:../../../../../../Drivers/STM32L0xx_HAL_Driver/Src/stm32l0xx_hal_adc.c ****   * @retval ADC handle state (bitfield on 32 bits)
1872:../../../../../../Drivers/STM32L0xx_HAL_Driver/Src/stm32l0xx_hal_adc.c ****   */
1873:../../../../../../Drivers/STM32L0xx_HAL_Driver/Src/stm32l0xx_hal_adc.c **** uint32_t HAL_ADC_GetState(ADC_HandleTypeDef* hadc)
1874:../../../../../../Drivers/STM32L0xx_HAL_Driver/Src/stm32l0xx_hal_adc.c **** {
1875:../../../../../../Drivers/STM32L0xx_HAL_Driver/Src/stm32l0xx_hal_adc.c ****   /* Check the parameters */
1876:../../../../../../Drivers/STM32L0xx_HAL_Driver/Src/stm32l0xx_hal_adc.c ****   assert_param(IS_ADC_ALL_INSTANCE(hadc->Instance));
1877:../../../../../../Drivers/STM32L0xx_HAL_Driver/Src/stm32l0xx_hal_adc.c ****   
1878:../../../../../../Drivers/STM32L0xx_HAL_Driver/Src/stm32l0xx_hal_adc.c ****   /* Return ADC handle state */
1879:../../../../../../Drivers/STM32L0xx_HAL_Driver/Src/stm32l0xx_hal_adc.c ****   return hadc->State;
1880:../../../../../../Drivers/STM32L0xx_HAL_Driver/Src/stm32l0xx_hal_adc.c **** }
1881:../../../../../../Drivers/STM32L0xx_HAL_Driver/Src/stm32l0xx_hal_adc.c **** 
1882:../../../../../../Drivers/STM32L0xx_HAL_Driver/Src/stm32l0xx_hal_adc.c **** /**
1883:../../../../../../Drivers/STM32L0xx_HAL_Driver/Src/stm32l0xx_hal_adc.c ****   * @brief  Return the ADC error code.
1884:../../../../../../Drivers/STM32L0xx_HAL_Driver/Src/stm32l0xx_hal_adc.c ****   * @param  hadc ADC handle
1885:../../../../../../Drivers/STM32L0xx_HAL_Driver/Src/stm32l0xx_hal_adc.c ****   * @retval ADC error code (bitfield on 32 bits)
1886:../../../../../../Drivers/STM32L0xx_HAL_Driver/Src/stm32l0xx_hal_adc.c ****   */
1887:../../../../../../Drivers/STM32L0xx_HAL_Driver/Src/stm32l0xx_hal_adc.c **** uint32_t HAL_ADC_GetError(ADC_HandleTypeDef *hadc)
1888:../../../../../../Drivers/STM32L0xx_HAL_Driver/Src/stm32l0xx_hal_adc.c **** {
1889:../../../../../../Drivers/STM32L0xx_HAL_Driver/Src/stm32l0xx_hal_adc.c ****   /* Check the parameters */
1890:../../../../../../Drivers/STM32L0xx_HAL_Driver/Src/stm32l0xx_hal_adc.c ****   assert_param(IS_ADC_ALL_INSTANCE(hadc->Instance));
1891:../../../../../../Drivers/STM32L0xx_HAL_Driver/Src/stm32l0xx_hal_adc.c ****   
1892:../../../../../../Drivers/STM32L0xx_HAL_Driver/Src/stm32l0xx_hal_adc.c ****   return hadc->ErrorCode;
1893:../../../../../../Drivers/STM32L0xx_HAL_Driver/Src/stm32l0xx_hal_adc.c **** }
1894:../../../../../../Drivers/STM32L0xx_HAL_Driver/Src/stm32l0xx_hal_adc.c **** 
1895:../../../../../../Drivers/STM32L0xx_HAL_Driver/Src/stm32l0xx_hal_adc.c **** /**
1896:../../../../../../Drivers/STM32L0xx_HAL_Driver/Src/stm32l0xx_hal_adc.c ****   * @}
1897:../../../../../../Drivers/STM32L0xx_HAL_Driver/Src/stm32l0xx_hal_adc.c ****   */
1898:../../../../../../Drivers/STM32L0xx_HAL_Driver/Src/stm32l0xx_hal_adc.c **** 
1899:../../../../../../Drivers/STM32L0xx_HAL_Driver/Src/stm32l0xx_hal_adc.c **** /**
1900:../../../../../../Drivers/STM32L0xx_HAL_Driver/Src/stm32l0xx_hal_adc.c ****   * @}
1901:../../../../../../Drivers/STM32L0xx_HAL_Driver/Src/stm32l0xx_hal_adc.c ****   */
1902:../../../../../../Drivers/STM32L0xx_HAL_Driver/Src/stm32l0xx_hal_adc.c **** 
1903:../../../../../../Drivers/STM32L0xx_HAL_Driver/Src/stm32l0xx_hal_adc.c **** /** @defgroup ADC_Private_Functions ADC Private Functions
1904:../../../../../../Drivers/STM32L0xx_HAL_Driver/Src/stm32l0xx_hal_adc.c ****   * @{
1905:../../../../../../Drivers/STM32L0xx_HAL_Driver/Src/stm32l0xx_hal_adc.c ****   */
1906:../../../../../../Drivers/STM32L0xx_HAL_Driver/Src/stm32l0xx_hal_adc.c **** 
1907:../../../../../../Drivers/STM32L0xx_HAL_Driver/Src/stm32l0xx_hal_adc.c **** /**
1908:../../../../../../Drivers/STM32L0xx_HAL_Driver/Src/stm32l0xx_hal_adc.c ****   * @brief  Enable the selected ADC.
1909:../../../../../../Drivers/STM32L0xx_HAL_Driver/Src/stm32l0xx_hal_adc.c ****   * @note   Prerequisite condition to use this function: ADC must be disabled
1910:../../../../../../Drivers/STM32L0xx_HAL_Driver/Src/stm32l0xx_hal_adc.c ****   *         and voltage regulator must be enabled (done into HAL_ADC_Init()).
1911:../../../../../../Drivers/STM32L0xx_HAL_Driver/Src/stm32l0xx_hal_adc.c ****   * @note   If low power mode AutoPowerOff is enabled, power-on/off phases are
1912:../../../../../../Drivers/STM32L0xx_HAL_Driver/Src/stm32l0xx_hal_adc.c ****   *         performed automatically by hardware.
1913:../../../../../../Drivers/STM32L0xx_HAL_Driver/Src/stm32l0xx_hal_adc.c ****   *         In this mode, this function is useless and must not be called because 
1914:../../../../../../Drivers/STM32L0xx_HAL_Driver/Src/stm32l0xx_hal_adc.c ****   *         flag ADC_FLAG_RDY is not usable.
1915:../../../../../../Drivers/STM32L0xx_HAL_Driver/Src/stm32l0xx_hal_adc.c ****   *         Therefore, this function must be called under condition of
1916:../../../../../../Drivers/STM32L0xx_HAL_Driver/Src/stm32l0xx_hal_adc.c ****   *         "if (hadc->Init.LowPowerAutoPowerOff != ENABLE)".
1917:../../../../../../Drivers/STM32L0xx_HAL_Driver/Src/stm32l0xx_hal_adc.c ****   * @param  hadc ADC handle
1918:../../../../../../Drivers/STM32L0xx_HAL_Driver/Src/stm32l0xx_hal_adc.c ****   * @retval HAL status.
1919:../../../../../../Drivers/STM32L0xx_HAL_Driver/Src/stm32l0xx_hal_adc.c ****   */
ARM GAS  C:\Users\EBANO_~1\AppData\Local\Temp\cc7eeVhF.s 			page 44


1920:../../../../../../Drivers/STM32L0xx_HAL_Driver/Src/stm32l0xx_hal_adc.c **** static HAL_StatusTypeDef ADC_Enable(ADC_HandleTypeDef* hadc)
1921:../../../../../../Drivers/STM32L0xx_HAL_Driver/Src/stm32l0xx_hal_adc.c **** {
1922:../../../../../../Drivers/STM32L0xx_HAL_Driver/Src/stm32l0xx_hal_adc.c ****   uint32_t tickstart = 0U;
1923:../../../../../../Drivers/STM32L0xx_HAL_Driver/Src/stm32l0xx_hal_adc.c **** 
1924:../../../../../../Drivers/STM32L0xx_HAL_Driver/Src/stm32l0xx_hal_adc.c ****   /* ADC enable and wait for ADC ready (in case of ADC is disabled or         */
1925:../../../../../../Drivers/STM32L0xx_HAL_Driver/Src/stm32l0xx_hal_adc.c ****   /* enabling phase not yet completed: flag ADC ready not yet set).           */
1926:../../../../../../Drivers/STM32L0xx_HAL_Driver/Src/stm32l0xx_hal_adc.c ****   /* Timeout implemented to not be stuck if ADC cannot be enabled (possible   */
1927:../../../../../../Drivers/STM32L0xx_HAL_Driver/Src/stm32l0xx_hal_adc.c ****   /* causes: ADC clock not running, ...).                                     */
1928:../../../../../../Drivers/STM32L0xx_HAL_Driver/Src/stm32l0xx_hal_adc.c ****   if (ADC_IS_ENABLE(hadc) == RESET)
1929:../../../../../../Drivers/STM32L0xx_HAL_Driver/Src/stm32l0xx_hal_adc.c ****   {
1930:../../../../../../Drivers/STM32L0xx_HAL_Driver/Src/stm32l0xx_hal_adc.c ****     /* Check if conditions to enable the ADC are fulfilled */
1931:../../../../../../Drivers/STM32L0xx_HAL_Driver/Src/stm32l0xx_hal_adc.c ****     if (ADC_ENABLING_CONDITIONS(hadc) == RESET)
1932:../../../../../../Drivers/STM32L0xx_HAL_Driver/Src/stm32l0xx_hal_adc.c ****     {
1933:../../../../../../Drivers/STM32L0xx_HAL_Driver/Src/stm32l0xx_hal_adc.c ****       /* Update ADC state machine to error */
1934:../../../../../../Drivers/STM32L0xx_HAL_Driver/Src/stm32l0xx_hal_adc.c ****       SET_BIT(hadc->State, HAL_ADC_STATE_ERROR_INTERNAL);
1935:../../../../../../Drivers/STM32L0xx_HAL_Driver/Src/stm32l0xx_hal_adc.c ****       
1936:../../../../../../Drivers/STM32L0xx_HAL_Driver/Src/stm32l0xx_hal_adc.c ****       /* Set ADC error code to ADC IP internal error */
1937:../../../../../../Drivers/STM32L0xx_HAL_Driver/Src/stm32l0xx_hal_adc.c ****       SET_BIT(hadc->ErrorCode, HAL_ADC_ERROR_INTERNAL);
1938:../../../../../../Drivers/STM32L0xx_HAL_Driver/Src/stm32l0xx_hal_adc.c ****       
1939:../../../../../../Drivers/STM32L0xx_HAL_Driver/Src/stm32l0xx_hal_adc.c ****       return HAL_ERROR;
1940:../../../../../../Drivers/STM32L0xx_HAL_Driver/Src/stm32l0xx_hal_adc.c ****     }
1941:../../../../../../Drivers/STM32L0xx_HAL_Driver/Src/stm32l0xx_hal_adc.c ****     
1942:../../../../../../Drivers/STM32L0xx_HAL_Driver/Src/stm32l0xx_hal_adc.c ****     /* Enable the ADC peripheral */
1943:../../../../../../Drivers/STM32L0xx_HAL_Driver/Src/stm32l0xx_hal_adc.c ****     __HAL_ADC_ENABLE(hadc);
1944:../../../../../../Drivers/STM32L0xx_HAL_Driver/Src/stm32l0xx_hal_adc.c ****     
1945:../../../../../../Drivers/STM32L0xx_HAL_Driver/Src/stm32l0xx_hal_adc.c ****     /* Delay for ADC stabilization time. */
1946:../../../../../../Drivers/STM32L0xx_HAL_Driver/Src/stm32l0xx_hal_adc.c ****     ADC_DelayMicroSecond(ADC_STAB_DELAY_US);
1947:../../../../../../Drivers/STM32L0xx_HAL_Driver/Src/stm32l0xx_hal_adc.c **** 
1948:../../../../../../Drivers/STM32L0xx_HAL_Driver/Src/stm32l0xx_hal_adc.c ****     /* Get tick count */
1949:../../../../../../Drivers/STM32L0xx_HAL_Driver/Src/stm32l0xx_hal_adc.c ****     tickstart = HAL_GetTick();
1950:../../../../../../Drivers/STM32L0xx_HAL_Driver/Src/stm32l0xx_hal_adc.c ****     
1951:../../../../../../Drivers/STM32L0xx_HAL_Driver/Src/stm32l0xx_hal_adc.c ****     /* Wait for ADC effectively enabled */
1952:../../../../../../Drivers/STM32L0xx_HAL_Driver/Src/stm32l0xx_hal_adc.c ****     while(__HAL_ADC_GET_FLAG(hadc, ADC_FLAG_RDY) == RESET)
1953:../../../../../../Drivers/STM32L0xx_HAL_Driver/Src/stm32l0xx_hal_adc.c ****     {
1954:../../../../../../Drivers/STM32L0xx_HAL_Driver/Src/stm32l0xx_hal_adc.c ****       if((HAL_GetTick() - tickstart) > ADC_ENABLE_TIMEOUT)
1955:../../../../../../Drivers/STM32L0xx_HAL_Driver/Src/stm32l0xx_hal_adc.c ****       {
1956:../../../../../../Drivers/STM32L0xx_HAL_Driver/Src/stm32l0xx_hal_adc.c ****         /* Update ADC state machine to error */
1957:../../../../../../Drivers/STM32L0xx_HAL_Driver/Src/stm32l0xx_hal_adc.c ****         SET_BIT(hadc->State, HAL_ADC_STATE_ERROR_INTERNAL);
1958:../../../../../../Drivers/STM32L0xx_HAL_Driver/Src/stm32l0xx_hal_adc.c ****         
1959:../../../../../../Drivers/STM32L0xx_HAL_Driver/Src/stm32l0xx_hal_adc.c ****         /* Set ADC error code to ADC IP internal error */
1960:../../../../../../Drivers/STM32L0xx_HAL_Driver/Src/stm32l0xx_hal_adc.c ****         SET_BIT(hadc->ErrorCode, HAL_ADC_ERROR_INTERNAL);
1961:../../../../../../Drivers/STM32L0xx_HAL_Driver/Src/stm32l0xx_hal_adc.c ****         
1962:../../../../../../Drivers/STM32L0xx_HAL_Driver/Src/stm32l0xx_hal_adc.c ****         return HAL_ERROR;
1963:../../../../../../Drivers/STM32L0xx_HAL_Driver/Src/stm32l0xx_hal_adc.c ****       }
1964:../../../../../../Drivers/STM32L0xx_HAL_Driver/Src/stm32l0xx_hal_adc.c ****     }
1965:../../../../../../Drivers/STM32L0xx_HAL_Driver/Src/stm32l0xx_hal_adc.c ****   }
1966:../../../../../../Drivers/STM32L0xx_HAL_Driver/Src/stm32l0xx_hal_adc.c ****    
1967:../../../../../../Drivers/STM32L0xx_HAL_Driver/Src/stm32l0xx_hal_adc.c ****   /* Return HAL status */
1968:../../../../../../Drivers/STM32L0xx_HAL_Driver/Src/stm32l0xx_hal_adc.c ****   return HAL_OK;
1969:../../../../../../Drivers/STM32L0xx_HAL_Driver/Src/stm32l0xx_hal_adc.c **** }
1970:../../../../../../Drivers/STM32L0xx_HAL_Driver/Src/stm32l0xx_hal_adc.c **** 
1971:../../../../../../Drivers/STM32L0xx_HAL_Driver/Src/stm32l0xx_hal_adc.c **** /**
1972:../../../../../../Drivers/STM32L0xx_HAL_Driver/Src/stm32l0xx_hal_adc.c ****   * @brief  Disable the selected ADC.
1973:../../../../../../Drivers/STM32L0xx_HAL_Driver/Src/stm32l0xx_hal_adc.c ****   * @note   Prerequisite condition to use this function: ADC conversions must be
1974:../../../../../../Drivers/STM32L0xx_HAL_Driver/Src/stm32l0xx_hal_adc.c ****   *         stopped.
1975:../../../../../../Drivers/STM32L0xx_HAL_Driver/Src/stm32l0xx_hal_adc.c ****   * @param  hadc ADC handle
1976:../../../../../../Drivers/STM32L0xx_HAL_Driver/Src/stm32l0xx_hal_adc.c ****   * @retval HAL status.
ARM GAS  C:\Users\EBANO_~1\AppData\Local\Temp\cc7eeVhF.s 			page 45


1977:../../../../../../Drivers/STM32L0xx_HAL_Driver/Src/stm32l0xx_hal_adc.c ****   */
1978:../../../../../../Drivers/STM32L0xx_HAL_Driver/Src/stm32l0xx_hal_adc.c **** static HAL_StatusTypeDef ADC_Disable(ADC_HandleTypeDef* hadc)
1979:../../../../../../Drivers/STM32L0xx_HAL_Driver/Src/stm32l0xx_hal_adc.c **** {
1980:../../../../../../Drivers/STM32L0xx_HAL_Driver/Src/stm32l0xx_hal_adc.c ****   uint32_t tickstart = 0U;
1981:../../../../../../Drivers/STM32L0xx_HAL_Driver/Src/stm32l0xx_hal_adc.c ****   
1982:../../../../../../Drivers/STM32L0xx_HAL_Driver/Src/stm32l0xx_hal_adc.c ****   /* Verification if ADC is not already disabled:                             */
1983:../../../../../../Drivers/STM32L0xx_HAL_Driver/Src/stm32l0xx_hal_adc.c ****   /* Note: forbidden to disable ADC (set bit ADC_CR_ADDIS) if ADC is already  */
1984:../../../../../../Drivers/STM32L0xx_HAL_Driver/Src/stm32l0xx_hal_adc.c ****   /*       disabled.                                                          */
1985:../../../../../../Drivers/STM32L0xx_HAL_Driver/Src/stm32l0xx_hal_adc.c ****   if (ADC_IS_ENABLE(hadc) != RESET)
1986:../../../../../../Drivers/STM32L0xx_HAL_Driver/Src/stm32l0xx_hal_adc.c ****   {
1987:../../../../../../Drivers/STM32L0xx_HAL_Driver/Src/stm32l0xx_hal_adc.c ****     /* Check if conditions to disable the ADC are fulfilled */
1988:../../../../../../Drivers/STM32L0xx_HAL_Driver/Src/stm32l0xx_hal_adc.c ****     if (ADC_DISABLING_CONDITIONS(hadc) != RESET)
1989:../../../../../../Drivers/STM32L0xx_HAL_Driver/Src/stm32l0xx_hal_adc.c ****     {
1990:../../../../../../Drivers/STM32L0xx_HAL_Driver/Src/stm32l0xx_hal_adc.c ****       /* Disable the ADC peripheral */
1991:../../../../../../Drivers/STM32L0xx_HAL_Driver/Src/stm32l0xx_hal_adc.c ****       __HAL_ADC_DISABLE(hadc);
1992:../../../../../../Drivers/STM32L0xx_HAL_Driver/Src/stm32l0xx_hal_adc.c ****     }
1993:../../../../../../Drivers/STM32L0xx_HAL_Driver/Src/stm32l0xx_hal_adc.c ****     else
1994:../../../../../../Drivers/STM32L0xx_HAL_Driver/Src/stm32l0xx_hal_adc.c ****     {
1995:../../../../../../Drivers/STM32L0xx_HAL_Driver/Src/stm32l0xx_hal_adc.c ****       /* Update ADC state machine to error */
1996:../../../../../../Drivers/STM32L0xx_HAL_Driver/Src/stm32l0xx_hal_adc.c ****       SET_BIT(hadc->State, HAL_ADC_STATE_ERROR_INTERNAL);
1997:../../../../../../Drivers/STM32L0xx_HAL_Driver/Src/stm32l0xx_hal_adc.c ****       
1998:../../../../../../Drivers/STM32L0xx_HAL_Driver/Src/stm32l0xx_hal_adc.c ****       /* Set ADC error code to ADC IP internal error */
1999:../../../../../../Drivers/STM32L0xx_HAL_Driver/Src/stm32l0xx_hal_adc.c ****       SET_BIT(hadc->ErrorCode, HAL_ADC_ERROR_INTERNAL);
2000:../../../../../../Drivers/STM32L0xx_HAL_Driver/Src/stm32l0xx_hal_adc.c ****       
2001:../../../../../../Drivers/STM32L0xx_HAL_Driver/Src/stm32l0xx_hal_adc.c ****       return HAL_ERROR;
2002:../../../../../../Drivers/STM32L0xx_HAL_Driver/Src/stm32l0xx_hal_adc.c ****     }
2003:../../../../../../Drivers/STM32L0xx_HAL_Driver/Src/stm32l0xx_hal_adc.c ****      
2004:../../../../../../Drivers/STM32L0xx_HAL_Driver/Src/stm32l0xx_hal_adc.c ****     /* Wait for ADC effectively disabled */
2005:../../../../../../Drivers/STM32L0xx_HAL_Driver/Src/stm32l0xx_hal_adc.c ****     /* Get tick count */
2006:../../../../../../Drivers/STM32L0xx_HAL_Driver/Src/stm32l0xx_hal_adc.c ****     tickstart = HAL_GetTick();
2007:../../../../../../Drivers/STM32L0xx_HAL_Driver/Src/stm32l0xx_hal_adc.c ****     
2008:../../../../../../Drivers/STM32L0xx_HAL_Driver/Src/stm32l0xx_hal_adc.c ****     while(HAL_IS_BIT_SET(hadc->Instance->CR, ADC_CR_ADEN))
2009:../../../../../../Drivers/STM32L0xx_HAL_Driver/Src/stm32l0xx_hal_adc.c ****     {
2010:../../../../../../Drivers/STM32L0xx_HAL_Driver/Src/stm32l0xx_hal_adc.c ****       if((HAL_GetTick() - tickstart) > ADC_DISABLE_TIMEOUT)
2011:../../../../../../Drivers/STM32L0xx_HAL_Driver/Src/stm32l0xx_hal_adc.c ****       {
2012:../../../../../../Drivers/STM32L0xx_HAL_Driver/Src/stm32l0xx_hal_adc.c ****         /* Update ADC state machine to error */
2013:../../../../../../Drivers/STM32L0xx_HAL_Driver/Src/stm32l0xx_hal_adc.c ****         SET_BIT(hadc->State, HAL_ADC_STATE_ERROR_INTERNAL);
2014:../../../../../../Drivers/STM32L0xx_HAL_Driver/Src/stm32l0xx_hal_adc.c ****         
2015:../../../../../../Drivers/STM32L0xx_HAL_Driver/Src/stm32l0xx_hal_adc.c ****         /* Set ADC error code to ADC IP internal error */
2016:../../../../../../Drivers/STM32L0xx_HAL_Driver/Src/stm32l0xx_hal_adc.c ****         SET_BIT(hadc->ErrorCode, HAL_ADC_ERROR_INTERNAL);
2017:../../../../../../Drivers/STM32L0xx_HAL_Driver/Src/stm32l0xx_hal_adc.c ****         
2018:../../../../../../Drivers/STM32L0xx_HAL_Driver/Src/stm32l0xx_hal_adc.c ****         return HAL_ERROR;
2019:../../../../../../Drivers/STM32L0xx_HAL_Driver/Src/stm32l0xx_hal_adc.c ****       }
2020:../../../../../../Drivers/STM32L0xx_HAL_Driver/Src/stm32l0xx_hal_adc.c ****     }
2021:../../../../../../Drivers/STM32L0xx_HAL_Driver/Src/stm32l0xx_hal_adc.c ****   }
2022:../../../../../../Drivers/STM32L0xx_HAL_Driver/Src/stm32l0xx_hal_adc.c ****   
2023:../../../../../../Drivers/STM32L0xx_HAL_Driver/Src/stm32l0xx_hal_adc.c ****   /* Return HAL status */
2024:../../../../../../Drivers/STM32L0xx_HAL_Driver/Src/stm32l0xx_hal_adc.c ****   return HAL_OK;
2025:../../../../../../Drivers/STM32L0xx_HAL_Driver/Src/stm32l0xx_hal_adc.c **** }
2026:../../../../../../Drivers/STM32L0xx_HAL_Driver/Src/stm32l0xx_hal_adc.c **** 
2027:../../../../../../Drivers/STM32L0xx_HAL_Driver/Src/stm32l0xx_hal_adc.c **** 
2028:../../../../../../Drivers/STM32L0xx_HAL_Driver/Src/stm32l0xx_hal_adc.c **** /**
2029:../../../../../../Drivers/STM32L0xx_HAL_Driver/Src/stm32l0xx_hal_adc.c ****   * @brief  Stop ADC conversion.
2030:../../../../../../Drivers/STM32L0xx_HAL_Driver/Src/stm32l0xx_hal_adc.c ****   * @note   Prerequisite condition to use this function: ADC conversions must be
2031:../../../../../../Drivers/STM32L0xx_HAL_Driver/Src/stm32l0xx_hal_adc.c ****   *         stopped to disable the ADC.
2032:../../../../../../Drivers/STM32L0xx_HAL_Driver/Src/stm32l0xx_hal_adc.c ****   * @param  hadc ADC handle
2033:../../../../../../Drivers/STM32L0xx_HAL_Driver/Src/stm32l0xx_hal_adc.c ****   * @retval HAL status.
ARM GAS  C:\Users\EBANO_~1\AppData\Local\Temp\cc7eeVhF.s 			page 46


2034:../../../../../../Drivers/STM32L0xx_HAL_Driver/Src/stm32l0xx_hal_adc.c ****   */
2035:../../../../../../Drivers/STM32L0xx_HAL_Driver/Src/stm32l0xx_hal_adc.c **** static HAL_StatusTypeDef ADC_ConversionStop(ADC_HandleTypeDef* hadc)
2036:../../../../../../Drivers/STM32L0xx_HAL_Driver/Src/stm32l0xx_hal_adc.c **** {
2037:../../../../../../Drivers/STM32L0xx_HAL_Driver/Src/stm32l0xx_hal_adc.c ****   uint32_t tickstart = 0U;
2038:../../../../../../Drivers/STM32L0xx_HAL_Driver/Src/stm32l0xx_hal_adc.c **** 
2039:../../../../../../Drivers/STM32L0xx_HAL_Driver/Src/stm32l0xx_hal_adc.c ****   /* Check the parameters */
2040:../../../../../../Drivers/STM32L0xx_HAL_Driver/Src/stm32l0xx_hal_adc.c ****   assert_param(IS_ADC_ALL_INSTANCE(hadc->Instance));
2041:../../../../../../Drivers/STM32L0xx_HAL_Driver/Src/stm32l0xx_hal_adc.c ****     
2042:../../../../../../Drivers/STM32L0xx_HAL_Driver/Src/stm32l0xx_hal_adc.c ****   /* Verification if ADC is not already stopped on regular group to bypass    */
2043:../../../../../../Drivers/STM32L0xx_HAL_Driver/Src/stm32l0xx_hal_adc.c ****   /* this function if not needed.                                             */
2044:../../../../../../Drivers/STM32L0xx_HAL_Driver/Src/stm32l0xx_hal_adc.c ****   if (ADC_IS_CONVERSION_ONGOING_REGULAR(hadc))
 452              		.loc 1 2044 0
 453 000c 0422     		movs	r2, #4
 454              	.LBE17:
 455              	.LBE16:
 599:../../../../../../Drivers/STM32L0xx_HAL_Driver/Src/stm32l0xx_hal_adc.c ****   
 456              		.loc 1 599 0
 457 000e A36D     		ldr	r3, [r4, #88]
 458 0010 0B43     		orrs	r3, r1
 459 0012 A365     		str	r3, [r4, #88]
 460              	.LVL10:
 461              	.LBB22:
 462              	.LBB20:
 463              		.loc 1 2044 0
 464 0014 2368     		ldr	r3, [r4]
 465 0016 9868     		ldr	r0, [r3, #8]
 466 0018 0242     		tst	r2, r0
 467 001a 10D0     		beq	.L34
2045:../../../../../../Drivers/STM32L0xx_HAL_Driver/Src/stm32l0xx_hal_adc.c ****   {
2046:../../../../../../Drivers/STM32L0xx_HAL_Driver/Src/stm32l0xx_hal_adc.c ****     
2047:../../../../../../Drivers/STM32L0xx_HAL_Driver/Src/stm32l0xx_hal_adc.c ****     /* Stop potential conversion on going on regular group */
2048:../../../../../../Drivers/STM32L0xx_HAL_Driver/Src/stm32l0xx_hal_adc.c ****     /* Software is allowed to set ADSTP only when ADSTART=1 and ADDIS=0 */
2049:../../../../../../Drivers/STM32L0xx_HAL_Driver/Src/stm32l0xx_hal_adc.c ****     if (HAL_IS_BIT_SET(hadc->Instance->CR, ADC_CR_ADSTART) && 
 468              		.loc 1 2049 0
 469 001c 9868     		ldr	r0, [r3, #8]
 470 001e 0242     		tst	r2, r0
 471 0020 65D1     		bne	.L58
 472              	.L35:
2050:../../../../../../Drivers/STM32L0xx_HAL_Driver/Src/stm32l0xx_hal_adc.c ****         HAL_IS_BIT_CLR(hadc->Instance->CR, ADC_CR_ADDIS)                  )
2051:../../../../../../Drivers/STM32L0xx_HAL_Driver/Src/stm32l0xx_hal_adc.c ****     {
2052:../../../../../../Drivers/STM32L0xx_HAL_Driver/Src/stm32l0xx_hal_adc.c ****       /* Stop conversions on regular group */
2053:../../../../../../Drivers/STM32L0xx_HAL_Driver/Src/stm32l0xx_hal_adc.c ****       hadc->Instance->CR |= ADC_CR_ADSTP;
2054:../../../../../../Drivers/STM32L0xx_HAL_Driver/Src/stm32l0xx_hal_adc.c ****     }
2055:../../../../../../Drivers/STM32L0xx_HAL_Driver/Src/stm32l0xx_hal_adc.c ****     
2056:../../../../../../Drivers/STM32L0xx_HAL_Driver/Src/stm32l0xx_hal_adc.c ****     /* Wait for conversion effectively stopped */
2057:../../../../../../Drivers/STM32L0xx_HAL_Driver/Src/stm32l0xx_hal_adc.c ****     /* Get tick count */
2058:../../../../../../Drivers/STM32L0xx_HAL_Driver/Src/stm32l0xx_hal_adc.c ****     tickstart = HAL_GetTick();
 473              		.loc 1 2058 0
 474 0022 FFF7FEFF 		bl	HAL_GetTick
 475              	.LVL11:
2059:../../../../../../Drivers/STM32L0xx_HAL_Driver/Src/stm32l0xx_hal_adc.c ****       
2060:../../../../../../Drivers/STM32L0xx_HAL_Driver/Src/stm32l0xx_hal_adc.c ****     while((hadc->Instance->CR & ADC_CR_ADSTART) != RESET)
 476              		.loc 1 2060 0
 477 0026 0425     		movs	r5, #4
2058:../../../../../../Drivers/STM32L0xx_HAL_Driver/Src/stm32l0xx_hal_adc.c ****       
 478              		.loc 1 2058 0
 479 0028 0600     		movs	r6, r0
ARM GAS  C:\Users\EBANO_~1\AppData\Local\Temp\cc7eeVhF.s 			page 47


 480              	.LVL12:
 481 002a 04E0     		b	.L36
 482              	.LVL13:
 483              	.L38:
2061:../../../../../../Drivers/STM32L0xx_HAL_Driver/Src/stm32l0xx_hal_adc.c ****     {
2062:../../../../../../Drivers/STM32L0xx_HAL_Driver/Src/stm32l0xx_hal_adc.c ****       if((HAL_GetTick() - tickstart) > ADC_STOP_CONVERSION_TIMEOUT)
 484              		.loc 1 2062 0
 485 002c FFF7FEFF 		bl	HAL_GetTick
 486              	.LVL14:
 487 0030 801B     		subs	r0, r0, r6
 488 0032 0A28     		cmp	r0, #10
 489 0034 63D8     		bhi	.L59
 490              	.L36:
2060:../../../../../../Drivers/STM32L0xx_HAL_Driver/Src/stm32l0xx_hal_adc.c ****     {
 491              		.loc 1 2060 0
 492 0036 2368     		ldr	r3, [r4]
 493 0038 9A68     		ldr	r2, [r3, #8]
 494 003a 1542     		tst	r5, r2
 495 003c F6D1     		bne	.L38
 496              	.LVL15:
 497              	.L34:
 498              	.LBE20:
 499              	.LBE22:
 500              	.LBB23:
 501              	.LBB24:
1985:../../../../../../Drivers/STM32L0xx_HAL_Driver/Src/stm32l0xx_hal_adc.c ****   {
 502              		.loc 1 1985 0
 503 003e 0321     		movs	r1, #3
 504 0040 9A68     		ldr	r2, [r3, #8]
 505 0042 0A40     		ands	r2, r1
 506 0044 012A     		cmp	r2, #1
 507 0046 23D1     		bne	.L39
 508 0048 1868     		ldr	r0, [r3]
 509 004a 0242     		tst	r2, r0
 510 004c 20D0     		beq	.L39
1988:../../../../../../Drivers/STM32L0xx_HAL_Driver/Src/stm32l0xx_hal_adc.c ****     {
 511              		.loc 1 1988 0
 512 004e 0520     		movs	r0, #5
 513 0050 9D68     		ldr	r5, [r3, #8]
 514 0052 2840     		ands	r0, r5
 515 0054 0128     		cmp	r0, #1
 516 0056 08D0     		beq	.L60
1996:../../../../../../Drivers/STM32L0xx_HAL_Driver/Src/stm32l0xx_hal_adc.c ****       
 517              		.loc 1 1996 0
 518 0058 1021     		movs	r1, #16
 519 005a A36D     		ldr	r3, [r4, #88]
2001:../../../../../../Drivers/STM32L0xx_HAL_Driver/Src/stm32l0xx_hal_adc.c ****     }
 520              		.loc 1 2001 0
 521 005c 0120     		movs	r0, #1
1996:../../../../../../Drivers/STM32L0xx_HAL_Driver/Src/stm32l0xx_hal_adc.c ****       
 522              		.loc 1 1996 0
 523 005e 0B43     		orrs	r3, r1
 524 0060 A365     		str	r3, [r4, #88]
1999:../../../../../../Drivers/STM32L0xx_HAL_Driver/Src/stm32l0xx_hal_adc.c ****       
 525              		.loc 1 1999 0
 526 0062 E36D     		ldr	r3, [r4, #92]
 527 0064 1A43     		orrs	r2, r3
ARM GAS  C:\Users\EBANO_~1\AppData\Local\Temp\cc7eeVhF.s 			page 48


 528 0066 E265     		str	r2, [r4, #92]
 529              	.LVL16:
 530 0068 3DE0     		b	.L37
 531              	.LVL17:
 532              	.L60:
1991:../../../../../../Drivers/STM32L0xx_HAL_Driver/Src/stm32l0xx_hal_adc.c ****     }
 533              		.loc 1 1991 0
 534 006a 9A68     		ldr	r2, [r3, #8]
 535 006c 0130     		adds	r0, r0, #1
 536 006e 0243     		orrs	r2, r0
 537 0070 9A60     		str	r2, [r3, #8]
 538 0072 1960     		str	r1, [r3]
2006:../../../../../../Drivers/STM32L0xx_HAL_Driver/Src/stm32l0xx_hal_adc.c ****     
 539              		.loc 1 2006 0
 540 0074 FFF7FEFF 		bl	HAL_GetTick
 541              	.LVL18:
2008:../../../../../../Drivers/STM32L0xx_HAL_Driver/Src/stm32l0xx_hal_adc.c ****     {
 542              		.loc 1 2008 0
 543 0078 0125     		movs	r5, #1
2006:../../../../../../Drivers/STM32L0xx_HAL_Driver/Src/stm32l0xx_hal_adc.c ****     
 544              		.loc 1 2006 0
 545 007a 0600     		movs	r6, r0
 546              	.LVL19:
 547 007c 04E0     		b	.L41
 548              	.LVL20:
 549              	.L42:
2010:../../../../../../Drivers/STM32L0xx_HAL_Driver/Src/stm32l0xx_hal_adc.c ****       {
 550              		.loc 1 2010 0
 551 007e FFF7FEFF 		bl	HAL_GetTick
 552              	.LVL21:
 553 0082 801B     		subs	r0, r0, r6
 554 0084 0A28     		cmp	r0, #10
 555 0086 44D8     		bhi	.L61
 556              	.L41:
2008:../../../../../../Drivers/STM32L0xx_HAL_Driver/Src/stm32l0xx_hal_adc.c ****     {
 557              		.loc 1 2008 0
 558 0088 2368     		ldr	r3, [r4]
 559 008a 9A68     		ldr	r2, [r3, #8]
 560 008c 1542     		tst	r5, r2
 561 008e F6D1     		bne	.L42
 562              	.LVL22:
 563              	.L39:
 564              	.LBE24:
 565              	.LBE23:
 614:../../../../../../Drivers/STM32L0xx_HAL_Driver/Src/stm32l0xx_hal_adc.c ****     }
 566              		.loc 1 614 0
 567 0090 0122     		movs	r2, #1
 568 0092 A265     		str	r2, [r4, #88]
 626:../../../../../../Drivers/STM32L0xx_HAL_Driver/Src/stm32l0xx_hal_adc.c ****                                 ADC_IT_EOC | ADC_IT_RDY | ADC_IT_EOSMP ));
 569              		.loc 1 626 0
 570 0094 5A68     		ldr	r2, [r3, #4]
 571 0096 2349     		ldr	r1, .L62
 663:../../../../../../Drivers/STM32L0xx_HAL_Driver/Src/stm32l0xx_hal_adc.c ****   
 572              		.loc 1 663 0
 573 0098 7F20     		movs	r0, #127
 626:../../../../../../Drivers/STM32L0xx_HAL_Driver/Src/stm32l0xx_hal_adc.c ****                                 ADC_IT_EOC | ADC_IT_RDY | ADC_IT_EOSMP ));
 574              		.loc 1 626 0
ARM GAS  C:\Users\EBANO_~1\AppData\Local\Temp\cc7eeVhF.s 			page 49


 575 009a 0A40     		ands	r2, r1
 576 009c 5A60     		str	r2, [r3, #4]
 631:../../../../../../Drivers/STM32L0xx_HAL_Driver/Src/stm32l0xx_hal_adc.c ****                                 ADC_FLAG_EOC | ADC_FLAG_EOSMP | ADC_FLAG_RDY));
 577              		.loc 1 631 0
 578 009e 224A     		ldr	r2, .L62+4
 639:../../../../../../Drivers/STM32L0xx_HAL_Driver/Src/stm32l0xx_hal_adc.c ****     
 579              		.loc 1 639 0
 580 00a0 2249     		ldr	r1, .L62+8
 631:../../../../../../Drivers/STM32L0xx_HAL_Driver/Src/stm32l0xx_hal_adc.c ****                                 ADC_FLAG_EOC | ADC_FLAG_EOSMP | ADC_FLAG_RDY));
 581              		.loc 1 631 0
 582 00a2 1A60     		str	r2, [r3]
 639:../../../../../../Drivers/STM32L0xx_HAL_Driver/Src/stm32l0xx_hal_adc.c ****     
 583              		.loc 1 639 0
 584 00a4 9A68     		ldr	r2, [r3, #8]
 585 00a6 0A40     		ands	r2, r1
 586 00a8 9A60     		str	r2, [r3, #8]
 645:../../../../../../Drivers/STM32L0xx_HAL_Driver/Src/stm32l0xx_hal_adc.c ****                                ADC_CFGR1_DISCEN | ADC_CFGR1_AUTOFF | ADC_CFGR1_AUTDLY | \
 587              		.loc 1 645 0
 588 00aa DA68     		ldr	r2, [r3, #12]
 589 00ac 2049     		ldr	r1, .L62+12
 590 00ae 0A40     		ands	r2, r1
 591 00b0 DA60     		str	r2, [r3, #12]
 652:../../../../../../Drivers/STM32L0xx_HAL_Driver/Src/stm32l0xx_hal_adc.c ****                                ADC_CFGR2_OVSE  | ADC_CFGR2_CKMODE );
 592              		.loc 1 652 0
 593 00b2 1A69     		ldr	r2, [r3, #16]
 594 00b4 1F49     		ldr	r1, .L62+16
 595 00b6 0A40     		ands	r2, r1
 657:../../../../../../Drivers/STM32L0xx_HAL_Driver/Src/stm32l0xx_hal_adc.c ****     
 596              		.loc 1 657 0
 597 00b8 0721     		movs	r1, #7
 652:../../../../../../Drivers/STM32L0xx_HAL_Driver/Src/stm32l0xx_hal_adc.c ****                                ADC_CFGR2_OVSE  | ADC_CFGR2_CKMODE );
 598              		.loc 1 652 0
 599 00ba 1A61     		str	r2, [r3, #16]
 657:../../../../../../Drivers/STM32L0xx_HAL_Driver/Src/stm32l0xx_hal_adc.c ****     
 600              		.loc 1 657 0
 601 00bc 5A69     		ldr	r2, [r3, #20]
 602 00be 8A43     		bics	r2, r1
 603 00c0 5A61     		str	r2, [r3, #20]
 660:../../../../../../Drivers/STM32L0xx_HAL_Driver/Src/stm32l0xx_hal_adc.c ****     
 604              		.loc 1 660 0
 605 00c2 1A6A     		ldr	r2, [r3, #32]
 606 00c4 1C49     		ldr	r1, .L62+20
 607 00c6 0A40     		ands	r2, r1
 608 00c8 1A62     		str	r2, [r3, #32]
 663:../../../../../../Drivers/STM32L0xx_HAL_Driver/Src/stm32l0xx_hal_adc.c ****   
 609              		.loc 1 663 0
 610 00ca B422     		movs	r2, #180
 611 00cc 9958     		ldr	r1, [r3, r2]
 612 00ce 8143     		bics	r1, r0
 613 00d0 9950     		str	r1, [r3, r2]
 673:../../../../../../Drivers/STM32L0xx_HAL_Driver/Src/stm32l0xx_hal_adc.c ****   
 614              		.loc 1 673 0
 615 00d2 9958     		ldr	r1, [r3, r2]
 616 00d4 8143     		bics	r1, r0
 617 00d6 9950     		str	r1, [r3, r2]
 685:../../../../../../Drivers/STM32L0xx_HAL_Driver/Src/stm32l0xx_hal_adc.c ****     
 618              		.loc 1 685 0
ARM GAS  C:\Users\EBANO_~1\AppData\Local\Temp\cc7eeVhF.s 			page 50


 619 00d8 2000     		movs	r0, r4
 620 00da FFF7FEFF 		bl	HAL_ADC_MspDeInit
 621              	.LVL23:
 688:../../../../../../Drivers/STM32L0xx_HAL_Driver/Src/stm32l0xx_hal_adc.c ****     
 622              		.loc 1 688 0
 623 00de 0023     		movs	r3, #0
 691:../../../../../../Drivers/STM32L0xx_HAL_Driver/Src/stm32l0xx_hal_adc.c ****   }
 624              		.loc 1 691 0
 625 00e0 0020     		movs	r0, #0
 688:../../../../../../Drivers/STM32L0xx_HAL_Driver/Src/stm32l0xx_hal_adc.c ****     
 626              		.loc 1 688 0
 627 00e2 E365     		str	r3, [r4, #92]
 691:../../../../../../Drivers/STM32L0xx_HAL_Driver/Src/stm32l0xx_hal_adc.c ****   }
 628              		.loc 1 691 0
 629 00e4 A365     		str	r3, [r4, #88]
 630              	.LVL24:
 631              	.L37:
 695:../../../../../../Drivers/STM32L0xx_HAL_Driver/Src/stm32l0xx_hal_adc.c ****   
 632              		.loc 1 695 0
 633 00e6 5423     		movs	r3, #84
 634 00e8 0022     		movs	r2, #0
 635 00ea E254     		strb	r2, [r4, r3]
 636              	.L51:
 699:../../../../../../Drivers/STM32L0xx_HAL_Driver/Src/stm32l0xx_hal_adc.c **** 
 637              		.loc 1 699 0
 638              		@ sp needed
 639              	.LVL25:
 640 00ec 70BD     		pop	{r4, r5, r6, pc}
 641              	.LVL26:
 642              	.L58:
 643              	.LBB28:
 644              	.LBB21:
2050:../../../../../../Drivers/STM32L0xx_HAL_Driver/Src/stm32l0xx_hal_adc.c ****     {
 645              		.loc 1 2050 0
 646 00ee 9A68     		ldr	r2, [r3, #8]
2049:../../../../../../Drivers/STM32L0xx_HAL_Driver/Src/stm32l0xx_hal_adc.c ****         HAL_IS_BIT_CLR(hadc->Instance->CR, ADC_CR_ADDIS)                  )
 647              		.loc 1 2049 0
 648 00f0 1142     		tst	r1, r2
 649 00f2 96D1     		bne	.L35
2053:../../../../../../Drivers/STM32L0xx_HAL_Driver/Src/stm32l0xx_hal_adc.c ****     }
 650              		.loc 1 2053 0
 651 00f4 9A68     		ldr	r2, [r3, #8]
 652 00f6 0E31     		adds	r1, r1, #14
 653 00f8 0A43     		orrs	r2, r1
 654 00fa 9A60     		str	r2, [r3, #8]
 655 00fc 91E7     		b	.L35
 656              	.LVL27:
 657              	.L59:
 658              	.LBB18:
 659              	.LBB19:
2063:../../../../../../Drivers/STM32L0xx_HAL_Driver/Src/stm32l0xx_hal_adc.c ****       {
2064:../../../../../../Drivers/STM32L0xx_HAL_Driver/Src/stm32l0xx_hal_adc.c ****         /* Update ADC state machine to error */
2065:../../../../../../Drivers/STM32L0xx_HAL_Driver/Src/stm32l0xx_hal_adc.c ****         SET_BIT(hadc->State, HAL_ADC_STATE_ERROR_INTERNAL);
 660              		.loc 1 2065 0
 661 00fe 1022     		movs	r2, #16
 662 0100 A36D     		ldr	r3, [r4, #88]
2066:../../../../../../Drivers/STM32L0xx_HAL_Driver/Src/stm32l0xx_hal_adc.c ****       
ARM GAS  C:\Users\EBANO_~1\AppData\Local\Temp\cc7eeVhF.s 			page 51


2067:../../../../../../Drivers/STM32L0xx_HAL_Driver/Src/stm32l0xx_hal_adc.c ****         /* Set ADC error code to ADC IP internal error */
2068:../../../../../../Drivers/STM32L0xx_HAL_Driver/Src/stm32l0xx_hal_adc.c ****         SET_BIT(hadc->ErrorCode, HAL_ADC_ERROR_INTERNAL);
 663              		.loc 1 2068 0
 664 0102 0120     		movs	r0, #1
2065:../../../../../../Drivers/STM32L0xx_HAL_Driver/Src/stm32l0xx_hal_adc.c ****       
 665              		.loc 1 2065 0
 666 0104 1343     		orrs	r3, r2
 667 0106 A365     		str	r3, [r4, #88]
 668              		.loc 1 2068 0
 669 0108 E36D     		ldr	r3, [r4, #92]
 670 010a 0F3A     		subs	r2, r2, #15
 671 010c 1343     		orrs	r3, r2
 672 010e E365     		str	r3, [r4, #92]
 673              	.LVL28:
 674 0110 E9E7     		b	.L37
 675              	.LVL29:
 676              	.L61:
 677              	.LBE19:
 678              	.LBE18:
 679              	.LBE21:
 680              	.LBE28:
 681              	.LBB29:
 682              	.LBB27:
 683              	.LBB25:
 684              	.LBB26:
2065:../../../../../../Drivers/STM32L0xx_HAL_Driver/Src/stm32l0xx_hal_adc.c ****       
 685              		.loc 1 2065 0
 686 0112 1022     		movs	r2, #16
 687 0114 A36D     		ldr	r3, [r4, #88]
 688              		.loc 1 2068 0
 689 0116 0120     		movs	r0, #1
2065:../../../../../../Drivers/STM32L0xx_HAL_Driver/Src/stm32l0xx_hal_adc.c ****       
 690              		.loc 1 2065 0
 691 0118 1343     		orrs	r3, r2
 692 011a A365     		str	r3, [r4, #88]
 693              		.loc 1 2068 0
 694 011c E36D     		ldr	r3, [r4, #92]
 695 011e 1D43     		orrs	r5, r3
 696 0120 E565     		str	r5, [r4, #92]
 697              	.LVL30:
 698 0122 E0E7     		b	.L37
 699              	.L63:
 700              		.align	2
 701              	.L62:
 702 0124 60F7FFFF 		.word	-2208
 703 0128 9F080000 		.word	2207
 704 012c FFFFFFEF 		.word	-268435457
 705 0130 00023E83 		.word	-2093088256
 706 0134 02FCFF3F 		.word	1073740802
 707 0138 00F000F0 		.word	-268374016
 708              	.LBE26:
 709              	.LBE25:
 710              	.LBE27:
 711              	.LBE29:
 712              		.cfi_endproc
 713              	.LFE40:
 714              		.size	HAL_ADC_DeInit, .-HAL_ADC_DeInit
ARM GAS  C:\Users\EBANO_~1\AppData\Local\Temp\cc7eeVhF.s 			page 52


 715              		.global	__aeabi_uidiv
 716              		.section	.text.HAL_ADC_Start,"ax",%progbits
 717              		.align	1
 718              		.p2align 2,,3
 719              		.global	HAL_ADC_Start
 720              		.syntax unified
 721              		.code	16
 722              		.thumb_func
 723              		.fpu softvfp
 724              		.type	HAL_ADC_Start, %function
 725              	HAL_ADC_Start:
 726              	.LFB43:
 764:../../../../../../Drivers/STM32L0xx_HAL_Driver/Src/stm32l0xx_hal_adc.c ****   HAL_StatusTypeDef tmp_hal_status = HAL_OK;
 727              		.loc 1 764 0
 728              		.cfi_startproc
 729              		@ args = 0, pretend = 0, frame = 8
 730              		@ frame_needed = 0, uses_anonymous_args = 0
 731              	.LVL31:
 732 0000 70B5     		push	{r4, r5, r6, lr}
 733              	.LCFI2:
 734              		.cfi_def_cfa_offset 16
 735              		.cfi_offset 4, -16
 736              		.cfi_offset 5, -12
 737              		.cfi_offset 6, -8
 738              		.cfi_offset 14, -4
 771:../../../../../../Drivers/STM32L0xx_HAL_Driver/Src/stm32l0xx_hal_adc.c ****   {
 739              		.loc 1 771 0
 740 0002 0368     		ldr	r3, [r0]
 764:../../../../../../Drivers/STM32L0xx_HAL_Driver/Src/stm32l0xx_hal_adc.c ****   HAL_StatusTypeDef tmp_hal_status = HAL_OK;
 741              		.loc 1 764 0
 742 0004 82B0     		sub	sp, sp, #8
 743              	.LCFI3:
 744              		.cfi_def_cfa_offset 24
 771:../../../../../../Drivers/STM32L0xx_HAL_Driver/Src/stm32l0xx_hal_adc.c ****   {
 745              		.loc 1 771 0
 746 0006 9A68     		ldr	r2, [r3, #8]
 764:../../../../../../Drivers/STM32L0xx_HAL_Driver/Src/stm32l0xx_hal_adc.c ****   HAL_StatusTypeDef tmp_hal_status = HAL_OK;
 747              		.loc 1 764 0
 748 0008 0400     		movs	r4, r0
 771:../../../../../../Drivers/STM32L0xx_HAL_Driver/Src/stm32l0xx_hal_adc.c ****   {
 749              		.loc 1 771 0
 750 000a 5207     		lsls	r2, r2, #29
 751 000c 47D4     		bmi	.L74
 774:../../../../../../Drivers/STM32L0xx_HAL_Driver/Src/stm32l0xx_hal_adc.c ****     
 752              		.loc 1 774 0
 753 000e 5422     		movs	r2, #84
 754 0010 815C     		ldrb	r1, [r0, r2]
 755 0012 0129     		cmp	r1, #1
 756 0014 43D0     		beq	.L74
 774:../../../../../../Drivers/STM32L0xx_HAL_Driver/Src/stm32l0xx_hal_adc.c ****     
 757              		.loc 1 774 0 is_stmt 0 discriminator 2
 758 0016 0121     		movs	r1, #1
 759 0018 8154     		strb	r1, [r0, r2]
 779:../../../../../../Drivers/STM32L0xx_HAL_Driver/Src/stm32l0xx_hal_adc.c ****     {
 760              		.loc 1 779 0 is_stmt 1 discriminator 2
 761 001a C269     		ldr	r2, [r0, #28]
 762 001c 012A     		cmp	r2, #1
ARM GAS  C:\Users\EBANO_~1\AppData\Local\Temp\cc7eeVhF.s 			page 53


 763 001e 13D1     		bne	.L83
 764              	.LVL32:
 765              	.L66:
 790:../../../../../../Drivers/STM32L0xx_HAL_Driver/Src/stm32l0xx_hal_adc.c ****                         HAL_ADC_STATE_READY | HAL_ADC_STATE_REG_EOC | HAL_ADC_STATE_REG_OVR | HAL_A
 766              		.loc 1 790 0
 767 0020 A26D     		ldr	r2, [r4, #88]
 768 0022 2B49     		ldr	r1, .L87
 811:../../../../../../Drivers/STM32L0xx_HAL_Driver/Src/stm32l0xx_hal_adc.c ****     }
 769              		.loc 1 811 0
 770 0024 0020     		movs	r0, #0
 790:../../../../../../Drivers/STM32L0xx_HAL_Driver/Src/stm32l0xx_hal_adc.c ****                         HAL_ADC_STATE_READY | HAL_ADC_STATE_REG_EOC | HAL_ADC_STATE_REG_OVR | HAL_A
 771              		.loc 1 790 0
 772 0026 1140     		ands	r1, r2
 773 0028 8022     		movs	r2, #128
 774 002a 5200     		lsls	r2, r2, #1
 775 002c 0A43     		orrs	r2, r1
 776 002e A265     		str	r2, [r4, #88]
 800:../../../../../../Drivers/STM32L0xx_HAL_Driver/Src/stm32l0xx_hal_adc.c ****       
 777              		.loc 1 800 0
 778 0030 5421     		movs	r1, #84
 795:../../../../../../Drivers/STM32L0xx_HAL_Driver/Src/stm32l0xx_hal_adc.c ****       
 779              		.loc 1 795 0
 780 0032 0022     		movs	r2, #0
 781 0034 E265     		str	r2, [r4, #92]
 800:../../../../../../Drivers/STM32L0xx_HAL_Driver/Src/stm32l0xx_hal_adc.c ****       
 782              		.loc 1 800 0
 783 0036 6254     		strb	r2, [r4, r1]
 805:../../../../../../Drivers/STM32L0xx_HAL_Driver/Src/stm32l0xx_hal_adc.c ****       
 784              		.loc 1 805 0
 785 0038 1C32     		adds	r2, r2, #28
 786 003a 1A60     		str	r2, [r3]
 811:../../../../../../Drivers/STM32L0xx_HAL_Driver/Src/stm32l0xx_hal_adc.c ****     }
 787              		.loc 1 811 0
 788 003c 9A68     		ldr	r2, [r3, #8]
 789 003e 5039     		subs	r1, r1, #80
 790 0040 0A43     		orrs	r2, r1
 791 0042 9A60     		str	r2, [r3, #8]
 792              	.LVL33:
 793              	.L65:
 821:../../../../../../Drivers/STM32L0xx_HAL_Driver/Src/stm32l0xx_hal_adc.c **** 
 794              		.loc 1 821 0
 795 0044 02B0     		add	sp, sp, #8
 796              		@ sp needed
 797              	.LVL34:
 798 0046 70BD     		pop	{r4, r5, r6, pc}
 799              	.LVL35:
 800              	.L83:
 801              	.LBB38:
 802              	.LBB39:
1928:../../../../../../Drivers/STM32L0xx_HAL_Driver/Src/stm32l0xx_hal_adc.c ****   {
 803              		.loc 1 1928 0
 804 0048 0322     		movs	r2, #3
 805 004a 9968     		ldr	r1, [r3, #8]
 806 004c 0A40     		ands	r2, r1
 807 004e 012A     		cmp	r2, #1
 808 0050 31D0     		beq	.L84
 809              	.L67:
ARM GAS  C:\Users\EBANO_~1\AppData\Local\Temp\cc7eeVhF.s 			page 54


1931:../../../../../../Drivers/STM32L0xx_HAL_Driver/Src/stm32l0xx_hal_adc.c ****     {
 810              		.loc 1 1931 0
 811 0052 9968     		ldr	r1, [r3, #8]
 812 0054 1F4A     		ldr	r2, .L87+4
 813 0056 1142     		tst	r1, r2
 814 0058 23D1     		bne	.L85
1943:../../../../../../Drivers/STM32L0xx_HAL_Driver/Src/stm32l0xx_hal_adc.c ****     
 815              		.loc 1 1943 0
 816 005a 0121     		movs	r1, #1
 817 005c 9A68     		ldr	r2, [r3, #8]
 818 005e 0A43     		orrs	r2, r1
 819 0060 9A60     		str	r2, [r3, #8]
 820              	.LVL36:
 821              	.LBB40:
 822              	.LBB41:
2069:../../../../../../Drivers/STM32L0xx_HAL_Driver/Src/stm32l0xx_hal_adc.c ****         
2070:../../../../../../Drivers/STM32L0xx_HAL_Driver/Src/stm32l0xx_hal_adc.c ****         return HAL_ERROR;
2071:../../../../../../Drivers/STM32L0xx_HAL_Driver/Src/stm32l0xx_hal_adc.c ****       }
2072:../../../../../../Drivers/STM32L0xx_HAL_Driver/Src/stm32l0xx_hal_adc.c ****     }
2073:../../../../../../Drivers/STM32L0xx_HAL_Driver/Src/stm32l0xx_hal_adc.c ****     
2074:../../../../../../Drivers/STM32L0xx_HAL_Driver/Src/stm32l0xx_hal_adc.c ****   }
2075:../../../../../../Drivers/STM32L0xx_HAL_Driver/Src/stm32l0xx_hal_adc.c ****    
2076:../../../../../../Drivers/STM32L0xx_HAL_Driver/Src/stm32l0xx_hal_adc.c ****   /* Return HAL status */
2077:../../../../../../Drivers/STM32L0xx_HAL_Driver/Src/stm32l0xx_hal_adc.c ****   return HAL_OK;
2078:../../../../../../Drivers/STM32L0xx_HAL_Driver/Src/stm32l0xx_hal_adc.c **** }
2079:../../../../../../Drivers/STM32L0xx_HAL_Driver/Src/stm32l0xx_hal_adc.c **** 
2080:../../../../../../Drivers/STM32L0xx_HAL_Driver/Src/stm32l0xx_hal_adc.c **** 
2081:../../../../../../Drivers/STM32L0xx_HAL_Driver/Src/stm32l0xx_hal_adc.c **** /**
2082:../../../../../../Drivers/STM32L0xx_HAL_Driver/Src/stm32l0xx_hal_adc.c ****   * @brief  DMA transfer complete callback. 
2083:../../../../../../Drivers/STM32L0xx_HAL_Driver/Src/stm32l0xx_hal_adc.c ****   * @param  hdma pointer to DMA handle.
2084:../../../../../../Drivers/STM32L0xx_HAL_Driver/Src/stm32l0xx_hal_adc.c ****   * @retval None
2085:../../../../../../Drivers/STM32L0xx_HAL_Driver/Src/stm32l0xx_hal_adc.c ****   */
2086:../../../../../../Drivers/STM32L0xx_HAL_Driver/Src/stm32l0xx_hal_adc.c **** static void ADC_DMAConvCplt(DMA_HandleTypeDef *hdma)
2087:../../../../../../Drivers/STM32L0xx_HAL_Driver/Src/stm32l0xx_hal_adc.c **** {
2088:../../../../../../Drivers/STM32L0xx_HAL_Driver/Src/stm32l0xx_hal_adc.c ****   /* Retrieve ADC handle corresponding to current DMA handle */
2089:../../../../../../Drivers/STM32L0xx_HAL_Driver/Src/stm32l0xx_hal_adc.c ****   ADC_HandleTypeDef* hadc = ( ADC_HandleTypeDef* )((DMA_HandleTypeDef* )hdma)->Parent;
2090:../../../../../../Drivers/STM32L0xx_HAL_Driver/Src/stm32l0xx_hal_adc.c ****   
2091:../../../../../../Drivers/STM32L0xx_HAL_Driver/Src/stm32l0xx_hal_adc.c ****   /* Update state machine on conversion status if not in error state */
2092:../../../../../../Drivers/STM32L0xx_HAL_Driver/Src/stm32l0xx_hal_adc.c ****   if (HAL_IS_BIT_CLR(hadc->State, HAL_ADC_STATE_ERROR_INTERNAL | HAL_ADC_STATE_ERROR_DMA))
2093:../../../../../../Drivers/STM32L0xx_HAL_Driver/Src/stm32l0xx_hal_adc.c ****   {
2094:../../../../../../Drivers/STM32L0xx_HAL_Driver/Src/stm32l0xx_hal_adc.c ****     /* Set ADC state */
2095:../../../../../../Drivers/STM32L0xx_HAL_Driver/Src/stm32l0xx_hal_adc.c ****     SET_BIT(hadc->State, HAL_ADC_STATE_REG_EOC);
2096:../../../../../../Drivers/STM32L0xx_HAL_Driver/Src/stm32l0xx_hal_adc.c ****     
2097:../../../../../../Drivers/STM32L0xx_HAL_Driver/Src/stm32l0xx_hal_adc.c ****     /* Determine whether any further conversion upcoming on group regular     */
2098:../../../../../../Drivers/STM32L0xx_HAL_Driver/Src/stm32l0xx_hal_adc.c ****     /* by external trigger, continuous mode or scan sequence on going.        */
2099:../../../../../../Drivers/STM32L0xx_HAL_Driver/Src/stm32l0xx_hal_adc.c ****     if(ADC_IS_SOFTWARE_START_REGULAR(hadc)        && 
2100:../../../../../../Drivers/STM32L0xx_HAL_Driver/Src/stm32l0xx_hal_adc.c ****        (hadc->Init.ContinuousConvMode == DISABLE)   )
2101:../../../../../../Drivers/STM32L0xx_HAL_Driver/Src/stm32l0xx_hal_adc.c ****     {
2102:../../../../../../Drivers/STM32L0xx_HAL_Driver/Src/stm32l0xx_hal_adc.c ****       /* If End of Sequence is reached, disable interrupts */
2103:../../../../../../Drivers/STM32L0xx_HAL_Driver/Src/stm32l0xx_hal_adc.c ****       if( __HAL_ADC_GET_FLAG(hadc, ADC_FLAG_EOS) )
2104:../../../../../../Drivers/STM32L0xx_HAL_Driver/Src/stm32l0xx_hal_adc.c ****       {
2105:../../../../../../Drivers/STM32L0xx_HAL_Driver/Src/stm32l0xx_hal_adc.c ****         /* Allowed to modify bits ADC_IT_EOC/ADC_IT_EOS only if bit           */
2106:../../../../../../Drivers/STM32L0xx_HAL_Driver/Src/stm32l0xx_hal_adc.c ****         /* ADSTART==0 (no conversion on going)                                */
2107:../../../../../../Drivers/STM32L0xx_HAL_Driver/Src/stm32l0xx_hal_adc.c ****         if (ADC_IS_CONVERSION_ONGOING_REGULAR(hadc) == RESET)
2108:../../../../../../Drivers/STM32L0xx_HAL_Driver/Src/stm32l0xx_hal_adc.c ****         {
2109:../../../../../../Drivers/STM32L0xx_HAL_Driver/Src/stm32l0xx_hal_adc.c ****           /* Disable ADC end of single conversion interrupt on group regular */
2110:../../../../../../Drivers/STM32L0xx_HAL_Driver/Src/stm32l0xx_hal_adc.c ****           /* Note: Overrun interrupt was enabled with EOC interrupt in        */
ARM GAS  C:\Users\EBANO_~1\AppData\Local\Temp\cc7eeVhF.s 			page 55


2111:../../../../../../Drivers/STM32L0xx_HAL_Driver/Src/stm32l0xx_hal_adc.c ****           /* HAL_Start_IT(), but is not disabled here because can be used     */
2112:../../../../../../Drivers/STM32L0xx_HAL_Driver/Src/stm32l0xx_hal_adc.c ****           /* by overrun IRQ process below.                                    */
2113:../../../../../../Drivers/STM32L0xx_HAL_Driver/Src/stm32l0xx_hal_adc.c ****           __HAL_ADC_DISABLE_IT(hadc, ADC_IT_EOC | ADC_IT_EOS);
2114:../../../../../../Drivers/STM32L0xx_HAL_Driver/Src/stm32l0xx_hal_adc.c ****           
2115:../../../../../../Drivers/STM32L0xx_HAL_Driver/Src/stm32l0xx_hal_adc.c ****           /* Set ADC state */
2116:../../../../../../Drivers/STM32L0xx_HAL_Driver/Src/stm32l0xx_hal_adc.c ****           ADC_STATE_CLR_SET(hadc->State,
2117:../../../../../../Drivers/STM32L0xx_HAL_Driver/Src/stm32l0xx_hal_adc.c ****                             HAL_ADC_STATE_REG_BUSY,
2118:../../../../../../Drivers/STM32L0xx_HAL_Driver/Src/stm32l0xx_hal_adc.c ****                             HAL_ADC_STATE_READY);
2119:../../../../../../Drivers/STM32L0xx_HAL_Driver/Src/stm32l0xx_hal_adc.c ****         }
2120:../../../../../../Drivers/STM32L0xx_HAL_Driver/Src/stm32l0xx_hal_adc.c ****         else
2121:../../../../../../Drivers/STM32L0xx_HAL_Driver/Src/stm32l0xx_hal_adc.c ****         {
2122:../../../../../../Drivers/STM32L0xx_HAL_Driver/Src/stm32l0xx_hal_adc.c ****           /* Change ADC state to error state */
2123:../../../../../../Drivers/STM32L0xx_HAL_Driver/Src/stm32l0xx_hal_adc.c ****           SET_BIT(hadc->State, HAL_ADC_STATE_ERROR_CONFIG);
2124:../../../../../../Drivers/STM32L0xx_HAL_Driver/Src/stm32l0xx_hal_adc.c ****           
2125:../../../../../../Drivers/STM32L0xx_HAL_Driver/Src/stm32l0xx_hal_adc.c ****           /* Set ADC error code to ADC IP internal error */
2126:../../../../../../Drivers/STM32L0xx_HAL_Driver/Src/stm32l0xx_hal_adc.c ****           SET_BIT(hadc->ErrorCode, HAL_ADC_ERROR_INTERNAL);
2127:../../../../../../Drivers/STM32L0xx_HAL_Driver/Src/stm32l0xx_hal_adc.c ****         }
2128:../../../../../../Drivers/STM32L0xx_HAL_Driver/Src/stm32l0xx_hal_adc.c ****       }
2129:../../../../../../Drivers/STM32L0xx_HAL_Driver/Src/stm32l0xx_hal_adc.c ****     }
2130:../../../../../../Drivers/STM32L0xx_HAL_Driver/Src/stm32l0xx_hal_adc.c **** 
2131:../../../../../../Drivers/STM32L0xx_HAL_Driver/Src/stm32l0xx_hal_adc.c ****     /* Conversion complete callback */
2132:../../../../../../Drivers/STM32L0xx_HAL_Driver/Src/stm32l0xx_hal_adc.c ****     HAL_ADC_ConvCpltCallback(hadc);
2133:../../../../../../Drivers/STM32L0xx_HAL_Driver/Src/stm32l0xx_hal_adc.c ****   }
2134:../../../../../../Drivers/STM32L0xx_HAL_Driver/Src/stm32l0xx_hal_adc.c ****   else
2135:../../../../../../Drivers/STM32L0xx_HAL_Driver/Src/stm32l0xx_hal_adc.c ****   {
2136:../../../../../../Drivers/STM32L0xx_HAL_Driver/Src/stm32l0xx_hal_adc.c ****     /* Call DMA error callback */
2137:../../../../../../Drivers/STM32L0xx_HAL_Driver/Src/stm32l0xx_hal_adc.c ****     hadc->DMA_Handle->XferErrorCallback(hdma);
2138:../../../../../../Drivers/STM32L0xx_HAL_Driver/Src/stm32l0xx_hal_adc.c ****   }
2139:../../../../../../Drivers/STM32L0xx_HAL_Driver/Src/stm32l0xx_hal_adc.c **** }
2140:../../../../../../Drivers/STM32L0xx_HAL_Driver/Src/stm32l0xx_hal_adc.c **** 
2141:../../../../../../Drivers/STM32L0xx_HAL_Driver/Src/stm32l0xx_hal_adc.c **** /**
2142:../../../../../../Drivers/STM32L0xx_HAL_Driver/Src/stm32l0xx_hal_adc.c ****   * @brief  DMA half transfer complete callback. 
2143:../../../../../../Drivers/STM32L0xx_HAL_Driver/Src/stm32l0xx_hal_adc.c ****   * @param  hdma pointer to DMA handle.
2144:../../../../../../Drivers/STM32L0xx_HAL_Driver/Src/stm32l0xx_hal_adc.c ****   * @retval None
2145:../../../../../../Drivers/STM32L0xx_HAL_Driver/Src/stm32l0xx_hal_adc.c ****   */
2146:../../../../../../Drivers/STM32L0xx_HAL_Driver/Src/stm32l0xx_hal_adc.c **** static void ADC_DMAHalfConvCplt(DMA_HandleTypeDef *hdma)
2147:../../../../../../Drivers/STM32L0xx_HAL_Driver/Src/stm32l0xx_hal_adc.c **** {
2148:../../../../../../Drivers/STM32L0xx_HAL_Driver/Src/stm32l0xx_hal_adc.c ****   /* Retrieve ADC handle corresponding to current DMA handle */
2149:../../../../../../Drivers/STM32L0xx_HAL_Driver/Src/stm32l0xx_hal_adc.c ****   ADC_HandleTypeDef* hadc = ( ADC_HandleTypeDef* )((DMA_HandleTypeDef* )hdma)->Parent;
2150:../../../../../../Drivers/STM32L0xx_HAL_Driver/Src/stm32l0xx_hal_adc.c ****   
2151:../../../../../../Drivers/STM32L0xx_HAL_Driver/Src/stm32l0xx_hal_adc.c ****   /* Half conversion callback */
2152:../../../../../../Drivers/STM32L0xx_HAL_Driver/Src/stm32l0xx_hal_adc.c ****   HAL_ADC_ConvHalfCpltCallback(hadc); 
2153:../../../../../../Drivers/STM32L0xx_HAL_Driver/Src/stm32l0xx_hal_adc.c **** }
2154:../../../../../../Drivers/STM32L0xx_HAL_Driver/Src/stm32l0xx_hal_adc.c **** 
2155:../../../../../../Drivers/STM32L0xx_HAL_Driver/Src/stm32l0xx_hal_adc.c **** /**
2156:../../../../../../Drivers/STM32L0xx_HAL_Driver/Src/stm32l0xx_hal_adc.c ****   * @brief  DMA error callback.
2157:../../../../../../Drivers/STM32L0xx_HAL_Driver/Src/stm32l0xx_hal_adc.c ****   * @param  hdma pointer to DMA handle.
2158:../../../../../../Drivers/STM32L0xx_HAL_Driver/Src/stm32l0xx_hal_adc.c ****   * @retval None
2159:../../../../../../Drivers/STM32L0xx_HAL_Driver/Src/stm32l0xx_hal_adc.c ****   */
2160:../../../../../../Drivers/STM32L0xx_HAL_Driver/Src/stm32l0xx_hal_adc.c **** static void ADC_DMAError(DMA_HandleTypeDef *hdma)
2161:../../../../../../Drivers/STM32L0xx_HAL_Driver/Src/stm32l0xx_hal_adc.c **** {
2162:../../../../../../Drivers/STM32L0xx_HAL_Driver/Src/stm32l0xx_hal_adc.c ****   /* Retrieve ADC handle corresponding to current DMA handle */
2163:../../../../../../Drivers/STM32L0xx_HAL_Driver/Src/stm32l0xx_hal_adc.c ****   ADC_HandleTypeDef* hadc = ( ADC_HandleTypeDef* )((DMA_HandleTypeDef* )hdma)->Parent;
2164:../../../../../../Drivers/STM32L0xx_HAL_Driver/Src/stm32l0xx_hal_adc.c ****   
2165:../../../../../../Drivers/STM32L0xx_HAL_Driver/Src/stm32l0xx_hal_adc.c ****   /* Set ADC state */
2166:../../../../../../Drivers/STM32L0xx_HAL_Driver/Src/stm32l0xx_hal_adc.c ****   SET_BIT(hadc->State, HAL_ADC_STATE_ERROR_DMA);
2167:../../../../../../Drivers/STM32L0xx_HAL_Driver/Src/stm32l0xx_hal_adc.c ****   
ARM GAS  C:\Users\EBANO_~1\AppData\Local\Temp\cc7eeVhF.s 			page 56


2168:../../../../../../Drivers/STM32L0xx_HAL_Driver/Src/stm32l0xx_hal_adc.c ****   /* Set ADC error code to DMA error */
2169:../../../../../../Drivers/STM32L0xx_HAL_Driver/Src/stm32l0xx_hal_adc.c ****   SET_BIT(hadc->ErrorCode, HAL_ADC_ERROR_DMA);
2170:../../../../../../Drivers/STM32L0xx_HAL_Driver/Src/stm32l0xx_hal_adc.c ****   
2171:../../../../../../Drivers/STM32L0xx_HAL_Driver/Src/stm32l0xx_hal_adc.c ****   /* Error callback */
2172:../../../../../../Drivers/STM32L0xx_HAL_Driver/Src/stm32l0xx_hal_adc.c ****   HAL_ADC_ErrorCallback(hadc); 
2173:../../../../../../Drivers/STM32L0xx_HAL_Driver/Src/stm32l0xx_hal_adc.c **** }
2174:../../../../../../Drivers/STM32L0xx_HAL_Driver/Src/stm32l0xx_hal_adc.c **** 
2175:../../../../../../Drivers/STM32L0xx_HAL_Driver/Src/stm32l0xx_hal_adc.c **** /**
2176:../../../../../../Drivers/STM32L0xx_HAL_Driver/Src/stm32l0xx_hal_adc.c ****   * @brief  Delay micro seconds 
2177:../../../../../../Drivers/STM32L0xx_HAL_Driver/Src/stm32l0xx_hal_adc.c ****   * @param  microSecond  delay
2178:../../../../../../Drivers/STM32L0xx_HAL_Driver/Src/stm32l0xx_hal_adc.c ****   * @retval None
2179:../../../../../../Drivers/STM32L0xx_HAL_Driver/Src/stm32l0xx_hal_adc.c ****   */
2180:../../../../../../Drivers/STM32L0xx_HAL_Driver/Src/stm32l0xx_hal_adc.c **** static void ADC_DelayMicroSecond(uint32_t microSecond)
2181:../../../../../../Drivers/STM32L0xx_HAL_Driver/Src/stm32l0xx_hal_adc.c **** {
2182:../../../../../../Drivers/STM32L0xx_HAL_Driver/Src/stm32l0xx_hal_adc.c ****   /* Compute number of CPU cycles to wait for */
2183:../../../../../../Drivers/STM32L0xx_HAL_Driver/Src/stm32l0xx_hal_adc.c ****   __IO uint32_t waitLoopIndex = (microSecond * (SystemCoreClock / 1000000U));
 823              		.loc 1 2183 0
 824 0062 1D4B     		ldr	r3, .L87+8
 825 0064 1D49     		ldr	r1, .L87+12
 826 0066 1868     		ldr	r0, [r3]
 827              	.LVL37:
 828 0068 FFF7FEFF 		bl	__aeabi_uidiv
 829              	.LVL38:
 830 006c 0190     		str	r0, [sp, #4]
2184:../../../../../../Drivers/STM32L0xx_HAL_Driver/Src/stm32l0xx_hal_adc.c **** 
2185:../../../../../../Drivers/STM32L0xx_HAL_Driver/Src/stm32l0xx_hal_adc.c ****   while(waitLoopIndex != 0U)
 831              		.loc 1 2185 0
 832 006e 019B     		ldr	r3, [sp, #4]
 833 0070 002B     		cmp	r3, #0
 834 0072 05D0     		beq	.L69
 835              	.L70:
2186:../../../../../../Drivers/STM32L0xx_HAL_Driver/Src/stm32l0xx_hal_adc.c ****   {
2187:../../../../../../Drivers/STM32L0xx_HAL_Driver/Src/stm32l0xx_hal_adc.c ****     waitLoopIndex--;
 836              		.loc 1 2187 0
 837 0074 019B     		ldr	r3, [sp, #4]
 838 0076 013B     		subs	r3, r3, #1
 839 0078 0193     		str	r3, [sp, #4]
2185:../../../../../../Drivers/STM32L0xx_HAL_Driver/Src/stm32l0xx_hal_adc.c ****   {
 840              		.loc 1 2185 0
 841 007a 019B     		ldr	r3, [sp, #4]
 842 007c 002B     		cmp	r3, #0
 843 007e F9D1     		bne	.L70
 844              	.L69:
 845              	.LVL39:
 846              	.LBE41:
 847              	.LBE40:
 848              	.LBB42:
 849              	.LBB43:
1949:../../../../../../Drivers/STM32L0xx_HAL_Driver/Src/stm32l0xx_hal_adc.c ****     
 850              		.loc 1 1949 0
 851 0080 FFF7FEFF 		bl	HAL_GetTick
 852              	.LVL40:
1952:../../../../../../Drivers/STM32L0xx_HAL_Driver/Src/stm32l0xx_hal_adc.c ****     {
 853              		.loc 1 1952 0
 854 0084 0125     		movs	r5, #1
1949:../../../../../../Drivers/STM32L0xx_HAL_Driver/Src/stm32l0xx_hal_adc.c ****     
 855              		.loc 1 1949 0
ARM GAS  C:\Users\EBANO_~1\AppData\Local\Temp\cc7eeVhF.s 			page 57


 856 0086 0600     		movs	r6, r0
 857              	.LVL41:
 858 0088 04E0     		b	.L71
 859              	.LVL42:
 860              	.L72:
1954:../../../../../../Drivers/STM32L0xx_HAL_Driver/Src/stm32l0xx_hal_adc.c ****       {
 861              		.loc 1 1954 0
 862 008a FFF7FEFF 		bl	HAL_GetTick
 863              	.LVL43:
 864 008e 801B     		subs	r0, r0, r6
 865 0090 0A28     		cmp	r0, #10
 866 0092 14D8     		bhi	.L86
 867              	.L71:
1952:../../../../../../Drivers/STM32L0xx_HAL_Driver/Src/stm32l0xx_hal_adc.c ****     {
 868              		.loc 1 1952 0
 869 0094 2368     		ldr	r3, [r4]
 870 0096 1A68     		ldr	r2, [r3]
 871 0098 1542     		tst	r5, r2
 872 009a F6D0     		beq	.L72
 873 009c C0E7     		b	.L66
 874              	.LVL44:
 875              	.L74:
 876              	.LBE43:
 877              	.LBE42:
 878              	.LBE39:
 879              	.LBE38:
 816:../../../../../../Drivers/STM32L0xx_HAL_Driver/Src/stm32l0xx_hal_adc.c ****   }
 880              		.loc 1 816 0
 881 009e 0220     		movs	r0, #2
 882              	.LVL45:
 883 00a0 D0E7     		b	.L65
 884              	.LVL46:
 885              	.L85:
 886              	.LBB47:
 887              	.LBB46:
1934:../../../../../../Drivers/STM32L0xx_HAL_Driver/Src/stm32l0xx_hal_adc.c ****       
 888              		.loc 1 1934 0
 889 00a2 1022     		movs	r2, #16
 890 00a4 A36D     		ldr	r3, [r4, #88]
1939:../../../../../../Drivers/STM32L0xx_HAL_Driver/Src/stm32l0xx_hal_adc.c ****     }
 891              		.loc 1 1939 0
 892 00a6 0120     		movs	r0, #1
 893              	.LVL47:
1934:../../../../../../Drivers/STM32L0xx_HAL_Driver/Src/stm32l0xx_hal_adc.c ****       
 894              		.loc 1 1934 0
 895 00a8 1343     		orrs	r3, r2
 896 00aa A365     		str	r3, [r4, #88]
1937:../../../../../../Drivers/STM32L0xx_HAL_Driver/Src/stm32l0xx_hal_adc.c ****       
 897              		.loc 1 1937 0
 898 00ac E36D     		ldr	r3, [r4, #92]
 899 00ae 0F3A     		subs	r2, r2, #15
 900 00b0 1343     		orrs	r3, r2
 901 00b2 E365     		str	r3, [r4, #92]
 902              	.LVL48:
 903 00b4 C6E7     		b	.L65
 904              	.LVL49:
 905              	.L84:
ARM GAS  C:\Users\EBANO_~1\AppData\Local\Temp\cc7eeVhF.s 			page 58


1928:../../../../../../Drivers/STM32L0xx_HAL_Driver/Src/stm32l0xx_hal_adc.c ****   {
 906              		.loc 1 1928 0
 907 00b6 1968     		ldr	r1, [r3]
 908 00b8 0A42     		tst	r2, r1
 909 00ba CAD0     		beq	.L67
 910 00bc B0E7     		b	.L66
 911              	.LVL50:
 912              	.L86:
 913              	.LBB45:
 914              	.LBB44:
1957:../../../../../../Drivers/STM32L0xx_HAL_Driver/Src/stm32l0xx_hal_adc.c ****         
 915              		.loc 1 1957 0
 916 00be 1022     		movs	r2, #16
 917 00c0 A36D     		ldr	r3, [r4, #88]
1962:../../../../../../Drivers/STM32L0xx_HAL_Driver/Src/stm32l0xx_hal_adc.c ****       }
 918              		.loc 1 1962 0
 919 00c2 0120     		movs	r0, #1
1957:../../../../../../Drivers/STM32L0xx_HAL_Driver/Src/stm32l0xx_hal_adc.c ****         
 920              		.loc 1 1957 0
 921 00c4 1343     		orrs	r3, r2
 922 00c6 A365     		str	r3, [r4, #88]
1960:../../../../../../Drivers/STM32L0xx_HAL_Driver/Src/stm32l0xx_hal_adc.c ****         
 923              		.loc 1 1960 0
 924 00c8 E36D     		ldr	r3, [r4, #92]
 925 00ca 1D43     		orrs	r5, r3
 926 00cc E565     		str	r5, [r4, #92]
 927              	.LVL51:
 928 00ce B9E7     		b	.L65
 929              	.L88:
 930              		.align	2
 931              	.L87:
 932 00d0 FEF0FFFF 		.word	-3842
 933 00d4 17000080 		.word	-2147483625
 934 00d8 00000000 		.word	SystemCoreClock
 935 00dc 40420F00 		.word	1000000
 936              	.LBE44:
 937              	.LBE45:
 938              	.LBE46:
 939              	.LBE47:
 940              		.cfi_endproc
 941              	.LFE43:
 942              		.size	HAL_ADC_Start, .-HAL_ADC_Start
 943              		.section	.text.HAL_ADC_Stop,"ax",%progbits
 944              		.align	1
 945              		.p2align 2,,3
 946              		.global	HAL_ADC_Stop
 947              		.syntax unified
 948              		.code	16
 949              		.thumb_func
 950              		.fpu softvfp
 951              		.type	HAL_ADC_Stop, %function
 952              	HAL_ADC_Stop:
 953              	.LFB44:
 830:../../../../../../Drivers/STM32L0xx_HAL_Driver/Src/stm32l0xx_hal_adc.c ****   HAL_StatusTypeDef tmp_hal_status = HAL_OK;
 954              		.loc 1 830 0
 955              		.cfi_startproc
 956              		@ args = 0, pretend = 0, frame = 0
ARM GAS  C:\Users\EBANO_~1\AppData\Local\Temp\cc7eeVhF.s 			page 59


 957              		@ frame_needed = 0, uses_anonymous_args = 0
 958              	.LVL52:
 837:../../../../../../Drivers/STM32L0xx_HAL_Driver/Src/stm32l0xx_hal_adc.c ****   
 959              		.loc 1 837 0
 960 0000 5423     		movs	r3, #84
 830:../../../../../../Drivers/STM32L0xx_HAL_Driver/Src/stm32l0xx_hal_adc.c ****   HAL_StatusTypeDef tmp_hal_status = HAL_OK;
 961              		.loc 1 830 0
 962 0002 70B5     		push	{r4, r5, r6, lr}
 963              	.LCFI4:
 964              		.cfi_def_cfa_offset 16
 965              		.cfi_offset 4, -16
 966              		.cfi_offset 5, -12
 967              		.cfi_offset 6, -8
 968              		.cfi_offset 14, -4
 837:../../../../../../Drivers/STM32L0xx_HAL_Driver/Src/stm32l0xx_hal_adc.c ****   
 969              		.loc 1 837 0
 970 0004 C25C     		ldrb	r2, [r0, r3]
 830:../../../../../../Drivers/STM32L0xx_HAL_Driver/Src/stm32l0xx_hal_adc.c ****   HAL_StatusTypeDef tmp_hal_status = HAL_OK;
 971              		.loc 1 830 0
 972 0006 0400     		movs	r4, r0
 837:../../../../../../Drivers/STM32L0xx_HAL_Driver/Src/stm32l0xx_hal_adc.c ****   
 973              		.loc 1 837 0
 974 0008 012A     		cmp	r2, #1
 975 000a 28D0     		beq	.L101
 837:../../../../../../Drivers/STM32L0xx_HAL_Driver/Src/stm32l0xx_hal_adc.c ****   
 976              		.loc 1 837 0 is_stmt 0 discriminator 2
 977 000c 0122     		movs	r2, #1
 978 000e C254     		strb	r2, [r0, r3]
 979              	.LVL53:
 980              	.LBB56:
 981              	.LBB57:
2044:../../../../../../Drivers/STM32L0xx_HAL_Driver/Src/stm32l0xx_hal_adc.c ****   {
 982              		.loc 1 2044 0 is_stmt 1 discriminator 2
 983 0010 0368     		ldr	r3, [r0]
 984 0012 0332     		adds	r2, r2, #3
 985 0014 9968     		ldr	r1, [r3, #8]
 986 0016 0A42     		tst	r2, r1
 987 0018 10D0     		beq	.L91
2049:../../../../../../Drivers/STM32L0xx_HAL_Driver/Src/stm32l0xx_hal_adc.c ****         HAL_IS_BIT_CLR(hadc->Instance->CR, ADC_CR_ADDIS)                  )
 988              		.loc 1 2049 0
 989 001a 9968     		ldr	r1, [r3, #8]
 990 001c 0A42     		tst	r2, r1
 991 001e 20D1     		bne	.L113
 992              	.L92:
2058:../../../../../../Drivers/STM32L0xx_HAL_Driver/Src/stm32l0xx_hal_adc.c ****       
 993              		.loc 1 2058 0
 994 0020 FFF7FEFF 		bl	HAL_GetTick
 995              	.LVL54:
2060:../../../../../../Drivers/STM32L0xx_HAL_Driver/Src/stm32l0xx_hal_adc.c ****     {
 996              		.loc 1 2060 0
 997 0024 0425     		movs	r5, #4
2058:../../../../../../Drivers/STM32L0xx_HAL_Driver/Src/stm32l0xx_hal_adc.c ****       
 998              		.loc 1 2058 0
 999 0026 0600     		movs	r6, r0
 1000              	.LVL55:
 1001 0028 04E0     		b	.L93
 1002              	.LVL56:
ARM GAS  C:\Users\EBANO_~1\AppData\Local\Temp\cc7eeVhF.s 			page 60


 1003              	.L95:
2062:../../../../../../Drivers/STM32L0xx_HAL_Driver/Src/stm32l0xx_hal_adc.c ****       {
 1004              		.loc 1 2062 0
 1005 002a FFF7FEFF 		bl	HAL_GetTick
 1006              	.LVL57:
 1007 002e 801B     		subs	r0, r0, r6
 1008 0030 0A28     		cmp	r0, #10
 1009 0032 2FD8     		bhi	.L114
 1010              	.L93:
2060:../../../../../../Drivers/STM32L0xx_HAL_Driver/Src/stm32l0xx_hal_adc.c ****     {
 1011              		.loc 1 2060 0
 1012 0034 2368     		ldr	r3, [r4]
 1013 0036 9A68     		ldr	r2, [r3, #8]
 1014 0038 1542     		tst	r5, r2
 1015 003a F6D1     		bne	.L95
 1016              	.LVL58:
 1017              	.L91:
 1018              	.LBE57:
 1019              	.LBE56:
 1020              	.LBB62:
 1021              	.LBB63:
1985:../../../../../../Drivers/STM32L0xx_HAL_Driver/Src/stm32l0xx_hal_adc.c ****   {
 1022              		.loc 1 1985 0
 1023 003c 0321     		movs	r1, #3
 1024 003e 9A68     		ldr	r2, [r3, #8]
 1025 0040 0A40     		ands	r2, r1
 1026 0042 012A     		cmp	r2, #1
 1027 0044 15D0     		beq	.L96
 1028              	.LVL59:
 1029              	.L97:
 1030              	.LBE63:
 1031              	.LBE62:
 846:../../../../../../Drivers/STM32L0xx_HAL_Driver/Src/stm32l0xx_hal_adc.c ****     
 1032              		.loc 1 846 0
 1033 0046 0020     		movs	r0, #0
 852:../../../../../../Drivers/STM32L0xx_HAL_Driver/Src/stm32l0xx_hal_adc.c ****                         HAL_ADC_STATE_REG_BUSY,
 1034              		.loc 1 852 0
 1035 0048 A36D     		ldr	r3, [r4, #88]
 1036 004a 264A     		ldr	r2, .L117
 1037 004c 1340     		ands	r3, r2
 1038 004e 0432     		adds	r2, r2, #4
 1039 0050 FF32     		adds	r2, r2, #255
 1040 0052 1343     		orrs	r3, r2
 1041 0054 A365     		str	r3, [r4, #88]
 1042              	.LVL60:
 1043              	.L94:
 859:../../../../../../Drivers/STM32L0xx_HAL_Driver/Src/stm32l0xx_hal_adc.c ****   
 1044              		.loc 1 859 0
 1045 0056 5423     		movs	r3, #84
 1046 0058 0022     		movs	r2, #0
 1047 005a E254     		strb	r2, [r4, r3]
 862:../../../../../../Drivers/STM32L0xx_HAL_Driver/Src/stm32l0xx_hal_adc.c **** }
 1048              		.loc 1 862 0
 1049 005c 00E0     		b	.L90
 1050              	.LVL61:
 1051              	.L101:
 837:../../../../../../Drivers/STM32L0xx_HAL_Driver/Src/stm32l0xx_hal_adc.c ****   
ARM GAS  C:\Users\EBANO_~1\AppData\Local\Temp\cc7eeVhF.s 			page 61


 1052              		.loc 1 837 0
 1053 005e 0220     		movs	r0, #2
 1054              	.LVL62:
 1055              	.L90:
 863:../../../../../../Drivers/STM32L0xx_HAL_Driver/Src/stm32l0xx_hal_adc.c **** 
 1056              		.loc 1 863 0
 1057              		@ sp needed
 1058              	.LVL63:
 1059 0060 70BD     		pop	{r4, r5, r6, pc}
 1060              	.LVL64:
 1061              	.L113:
 1062              	.LBB68:
 1063              	.LBB60:
2050:../../../../../../Drivers/STM32L0xx_HAL_Driver/Src/stm32l0xx_hal_adc.c ****     {
 1064              		.loc 1 2050 0
 1065 0062 9A68     		ldr	r2, [r3, #8]
2049:../../../../../../Drivers/STM32L0xx_HAL_Driver/Src/stm32l0xx_hal_adc.c ****         HAL_IS_BIT_CLR(hadc->Instance->CR, ADC_CR_ADDIS)                  )
 1066              		.loc 1 2049 0
 1067 0064 9207     		lsls	r2, r2, #30
 1068 0066 DBD4     		bmi	.L92
2053:../../../../../../Drivers/STM32L0xx_HAL_Driver/Src/stm32l0xx_hal_adc.c ****     }
 1069              		.loc 1 2053 0
 1070 0068 1021     		movs	r1, #16
 1071 006a 9A68     		ldr	r2, [r3, #8]
 1072 006c 0A43     		orrs	r2, r1
 1073 006e 9A60     		str	r2, [r3, #8]
 1074 0070 D6E7     		b	.L92
 1075              	.LVL65:
 1076              	.L96:
 1077              	.LBE60:
 1078              	.LBE68:
 1079              	.LBB69:
 1080              	.LBB66:
1985:../../../../../../Drivers/STM32L0xx_HAL_Driver/Src/stm32l0xx_hal_adc.c ****   {
 1081              		.loc 1 1985 0
 1082 0072 1868     		ldr	r0, [r3]
 1083 0074 0242     		tst	r2, r0
 1084 0076 E6D0     		beq	.L97
1988:../../../../../../Drivers/STM32L0xx_HAL_Driver/Src/stm32l0xx_hal_adc.c ****     {
 1085              		.loc 1 1988 0
 1086 0078 0520     		movs	r0, #5
 1087 007a 9D68     		ldr	r5, [r3, #8]
 1088 007c 2840     		ands	r0, r5
 1089 007e 0128     		cmp	r0, #1
 1090 0080 12D0     		beq	.L115
1996:../../../../../../Drivers/STM32L0xx_HAL_Driver/Src/stm32l0xx_hal_adc.c ****       
 1091              		.loc 1 1996 0
 1092 0082 1021     		movs	r1, #16
 1093 0084 A36D     		ldr	r3, [r4, #88]
2001:../../../../../../Drivers/STM32L0xx_HAL_Driver/Src/stm32l0xx_hal_adc.c ****     }
 1094              		.loc 1 2001 0
 1095 0086 0120     		movs	r0, #1
1996:../../../../../../Drivers/STM32L0xx_HAL_Driver/Src/stm32l0xx_hal_adc.c ****       
 1096              		.loc 1 1996 0
 1097 0088 0B43     		orrs	r3, r1
 1098 008a A365     		str	r3, [r4, #88]
1999:../../../../../../Drivers/STM32L0xx_HAL_Driver/Src/stm32l0xx_hal_adc.c ****       
ARM GAS  C:\Users\EBANO_~1\AppData\Local\Temp\cc7eeVhF.s 			page 62


 1099              		.loc 1 1999 0
 1100 008c E36D     		ldr	r3, [r4, #92]
 1101 008e 1A43     		orrs	r2, r3
 1102 0090 E265     		str	r2, [r4, #92]
 1103              	.LVL66:
 1104 0092 E0E7     		b	.L94
 1105              	.LVL67:
 1106              	.L114:
 1107              	.LBE66:
 1108              	.LBE69:
 1109              	.LBB70:
 1110              	.LBB61:
 1111              	.LBB58:
 1112              	.LBB59:
2065:../../../../../../Drivers/STM32L0xx_HAL_Driver/Src/stm32l0xx_hal_adc.c ****       
 1113              		.loc 1 2065 0
 1114 0094 1022     		movs	r2, #16
 1115 0096 A36D     		ldr	r3, [r4, #88]
2068:../../../../../../Drivers/STM32L0xx_HAL_Driver/Src/stm32l0xx_hal_adc.c ****         
 1116              		.loc 1 2068 0
 1117 0098 0120     		movs	r0, #1
2065:../../../../../../Drivers/STM32L0xx_HAL_Driver/Src/stm32l0xx_hal_adc.c ****       
 1118              		.loc 1 2065 0
 1119 009a 1343     		orrs	r3, r2
 1120 009c A365     		str	r3, [r4, #88]
2068:../../../../../../Drivers/STM32L0xx_HAL_Driver/Src/stm32l0xx_hal_adc.c ****         
 1121              		.loc 1 2068 0
 1122 009e E36D     		ldr	r3, [r4, #92]
 1123 00a0 0F3A     		subs	r2, r2, #15
 1124 00a2 1343     		orrs	r3, r2
 1125 00a4 E365     		str	r3, [r4, #92]
 1126              	.LVL68:
 1127 00a6 D6E7     		b	.L94
 1128              	.LVL69:
 1129              	.L115:
 1130              	.LBE59:
 1131              	.LBE58:
 1132              	.LBE61:
 1133              	.LBE70:
 1134              	.LBB71:
 1135              	.LBB67:
1991:../../../../../../Drivers/STM32L0xx_HAL_Driver/Src/stm32l0xx_hal_adc.c ****     }
 1136              		.loc 1 1991 0
 1137 00a8 9A68     		ldr	r2, [r3, #8]
 1138 00aa 0130     		adds	r0, r0, #1
 1139 00ac 0243     		orrs	r2, r0
 1140 00ae 9A60     		str	r2, [r3, #8]
 1141 00b0 1960     		str	r1, [r3]
2006:../../../../../../Drivers/STM32L0xx_HAL_Driver/Src/stm32l0xx_hal_adc.c ****     
 1142              		.loc 1 2006 0
 1143 00b2 FFF7FEFF 		bl	HAL_GetTick
 1144              	.LVL70:
2008:../../../../../../Drivers/STM32L0xx_HAL_Driver/Src/stm32l0xx_hal_adc.c ****     {
 1145              		.loc 1 2008 0
 1146 00b6 0125     		movs	r5, #1
2006:../../../../../../Drivers/STM32L0xx_HAL_Driver/Src/stm32l0xx_hal_adc.c ****     
 1147              		.loc 1 2006 0
ARM GAS  C:\Users\EBANO_~1\AppData\Local\Temp\cc7eeVhF.s 			page 63


 1148 00b8 0600     		movs	r6, r0
 1149              	.LVL71:
 1150 00ba 04E0     		b	.L99
 1151              	.LVL72:
 1152              	.L100:
2010:../../../../../../Drivers/STM32L0xx_HAL_Driver/Src/stm32l0xx_hal_adc.c ****       {
 1153              		.loc 1 2010 0
 1154 00bc FFF7FEFF 		bl	HAL_GetTick
 1155              	.LVL73:
 1156 00c0 801B     		subs	r0, r0, r6
 1157 00c2 0A28     		cmp	r0, #10
 1158 00c4 04D8     		bhi	.L116
 1159              	.L99:
2008:../../../../../../Drivers/STM32L0xx_HAL_Driver/Src/stm32l0xx_hal_adc.c ****     {
 1160              		.loc 1 2008 0
 1161 00c6 2368     		ldr	r3, [r4]
 1162 00c8 9B68     		ldr	r3, [r3, #8]
 1163 00ca 1D42     		tst	r5, r3
 1164 00cc F6D1     		bne	.L100
 1165 00ce BAE7     		b	.L97
 1166              	.L116:
 1167              	.LVL74:
 1168              	.LBB64:
 1169              	.LBB65:
2065:../../../../../../Drivers/STM32L0xx_HAL_Driver/Src/stm32l0xx_hal_adc.c ****       
 1170              		.loc 1 2065 0
 1171 00d0 1022     		movs	r2, #16
 1172 00d2 A36D     		ldr	r3, [r4, #88]
2068:../../../../../../Drivers/STM32L0xx_HAL_Driver/Src/stm32l0xx_hal_adc.c ****         
 1173              		.loc 1 2068 0
 1174 00d4 0120     		movs	r0, #1
2065:../../../../../../Drivers/STM32L0xx_HAL_Driver/Src/stm32l0xx_hal_adc.c ****       
 1175              		.loc 1 2065 0
 1176 00d6 1343     		orrs	r3, r2
 1177 00d8 A365     		str	r3, [r4, #88]
2068:../../../../../../Drivers/STM32L0xx_HAL_Driver/Src/stm32l0xx_hal_adc.c ****         
 1178              		.loc 1 2068 0
 1179 00da E36D     		ldr	r3, [r4, #92]
 1180 00dc 1D43     		orrs	r5, r3
 1181 00de E565     		str	r5, [r4, #92]
 1182              	.LVL75:
 1183 00e0 B9E7     		b	.L94
 1184              	.L118:
 1185 00e2 C046     		.align	2
 1186              	.L117:
 1187 00e4 FEFEFFFF 		.word	-258
 1188              	.LBE65:
 1189              	.LBE64:
 1190              	.LBE67:
 1191              	.LBE71:
 1192              		.cfi_endproc
 1193              	.LFE44:
 1194              		.size	HAL_ADC_Stop, .-HAL_ADC_Stop
 1195              		.section	.text.HAL_ADC_PollForConversion,"ax",%progbits
 1196              		.align	1
 1197              		.p2align 2,,3
 1198              		.global	HAL_ADC_PollForConversion
ARM GAS  C:\Users\EBANO_~1\AppData\Local\Temp\cc7eeVhF.s 			page 64


 1199              		.syntax unified
 1200              		.code	16
 1201              		.thumb_func
 1202              		.fpu softvfp
 1203              		.type	HAL_ADC_PollForConversion, %function
 1204              	HAL_ADC_PollForConversion:
 1205              	.LFB45:
 884:../../../../../../Drivers/STM32L0xx_HAL_Driver/Src/stm32l0xx_hal_adc.c ****   uint32_t tickstart = 0;
 1206              		.loc 1 884 0
 1207              		.cfi_startproc
 1208              		@ args = 0, pretend = 0, frame = 0
 1209              		@ frame_needed = 0, uses_anonymous_args = 0
 1210              	.LVL76:
 1211 0000 F8B5     		push	{r3, r4, r5, r6, r7, lr}
 1212              	.LCFI5:
 1213              		.cfi_def_cfa_offset 24
 1214              		.cfi_offset 3, -24
 1215              		.cfi_offset 4, -20
 1216              		.cfi_offset 5, -16
 1217              		.cfi_offset 6, -12
 1218              		.cfi_offset 7, -8
 1219              		.cfi_offset 14, -4
 892:../../../../../../Drivers/STM32L0xx_HAL_Driver/Src/stm32l0xx_hal_adc.c ****   {
 1220              		.loc 1 892 0
 1221 0002 4469     		ldr	r4, [r0, #20]
 884:../../../../../../Drivers/STM32L0xx_HAL_Driver/Src/stm32l0xx_hal_adc.c ****   uint32_t tickstart = 0;
 1222              		.loc 1 884 0
 1223 0004 0500     		movs	r5, r0
 1224 0006 0E00     		movs	r6, r1
 892:../../../../../../Drivers/STM32L0xx_HAL_Driver/Src/stm32l0xx_hal_adc.c ****   {
 1225              		.loc 1 892 0
 1226 0008 082C     		cmp	r4, #8
 1227 000a 04D0     		beq	.L120
 905:../../../../../../Drivers/STM32L0xx_HAL_Driver/Src/stm32l0xx_hal_adc.c ****     {
 1228              		.loc 1 905 0
 1229 000c 0368     		ldr	r3, [r0]
 917:../../../../../../Drivers/STM32L0xx_HAL_Driver/Src/stm32l0xx_hal_adc.c ****     }
 1230              		.loc 1 917 0
 1231 000e 0C24     		movs	r4, #12
 905:../../../../../../Drivers/STM32L0xx_HAL_Driver/Src/stm32l0xx_hal_adc.c ****     {
 1232              		.loc 1 905 0
 1233 0010 DB68     		ldr	r3, [r3, #12]
 1234 0012 DB07     		lsls	r3, r3, #31
 1235 0014 40D4     		bmi	.L142
 1236              	.L120:
 1237              	.LVL77:
 922:../../../../../../Drivers/STM32L0xx_HAL_Driver/Src/stm32l0xx_hal_adc.c ****   
 1238              		.loc 1 922 0
 1239 0016 FFF7FEFF 		bl	HAL_GetTick
 1240              	.LVL78:
 1241 001a 0700     		movs	r7, r0
 1242              	.LVL79:
 1243              	.L122:
 925:../../../../../../Drivers/STM32L0xx_HAL_Driver/Src/stm32l0xx_hal_adc.c ****   {
 1244              		.loc 1 925 0
 1245 001c 2A68     		ldr	r2, [r5]
 1246 001e 731C     		adds	r3, r6, #1
ARM GAS  C:\Users\EBANO_~1\AppData\Local\Temp\cc7eeVhF.s 			page 65


 1247 0020 27D1     		bne	.L125
 1248              	.L126:
 1249 0022 1368     		ldr	r3, [r2]
 1250 0024 1C42     		tst	r4, r3
 1251 0026 FCD0     		beq	.L126
 1252              	.L127:
 944:../../../../../../Drivers/STM32L0xx_HAL_Driver/Src/stm32l0xx_hal_adc.c ****   
 1253              		.loc 1 944 0
 1254 0028 8023     		movs	r3, #128
 1255 002a A96D     		ldr	r1, [r5, #88]
 1256 002c 9B00     		lsls	r3, r3, #2
 1257 002e 0B43     		orrs	r3, r1
 1258 0030 AB65     		str	r3, [r5, #88]
 948:../../../../../../Drivers/STM32L0xx_HAL_Driver/Src/stm32l0xx_hal_adc.c ****      (hadc->Init.ContinuousConvMode == DISABLE)   )
 1259              		.loc 1 948 0
 1260 0032 C023     		movs	r3, #192
 1261 0034 D168     		ldr	r1, [r2, #12]
 1262 0036 1B01     		lsls	r3, r3, #4
 1263 0038 1942     		tst	r1, r3
 1264 003a 13D1     		bne	.L129
 948:../../../../../../Drivers/STM32L0xx_HAL_Driver/Src/stm32l0xx_hal_adc.c ****      (hadc->Init.ContinuousConvMode == DISABLE)   )
 1265              		.loc 1 948 0 is_stmt 0 discriminator 1
 1266 003c 2B6A     		ldr	r3, [r5, #32]
 1267 003e 002B     		cmp	r3, #0
 1268 0040 10D1     		bne	.L129
 952:../../../../../../Drivers/STM32L0xx_HAL_Driver/Src/stm32l0xx_hal_adc.c ****     {
 1269              		.loc 1 952 0 is_stmt 1
 1270 0042 1368     		ldr	r3, [r2]
 1271 0044 1B07     		lsls	r3, r3, #28
 1272 0046 0DD5     		bpl	.L129
 956:../../../../../../Drivers/STM32L0xx_HAL_Driver/Src/stm32l0xx_hal_adc.c ****       {
 1273              		.loc 1 956 0
 1274 0048 9368     		ldr	r3, [r2, #8]
 1275 004a 5B07     		lsls	r3, r3, #29
 1276 004c 2DD4     		bmi	.L130
 962:../../../../../../Drivers/STM32L0xx_HAL_Driver/Src/stm32l0xx_hal_adc.c ****         
 1277              		.loc 1 962 0
 1278 004e 0C21     		movs	r1, #12
 1279 0050 5368     		ldr	r3, [r2, #4]
 1280 0052 8B43     		bics	r3, r1
 1281 0054 5360     		str	r3, [r2, #4]
 965:../../../../../../Drivers/STM32L0xx_HAL_Driver/Src/stm32l0xx_hal_adc.c ****                           HAL_ADC_STATE_REG_BUSY,
 1282              		.loc 1 965 0
 1283 0056 AB6D     		ldr	r3, [r5, #88]
 1284 0058 1849     		ldr	r1, .L143
 1285 005a 0B40     		ands	r3, r1
 1286 005c 0431     		adds	r1, r1, #4
 1287 005e FF31     		adds	r1, r1, #255
 1288 0060 0B43     		orrs	r3, r1
 1289 0062 AB65     		str	r3, [r5, #88]
 1290              	.L129:
 983:../../../../../../Drivers/STM32L0xx_HAL_Driver/Src/stm32l0xx_hal_adc.c ****   {
 1291              		.loc 1 983 0
 1292 0064 AB69     		ldr	r3, [r5, #24]
 990:../../../../../../Drivers/STM32L0xx_HAL_Driver/Src/stm32l0xx_hal_adc.c **** }
 1293              		.loc 1 990 0
 1294 0066 0020     		movs	r0, #0
ARM GAS  C:\Users\EBANO_~1\AppData\Local\Temp\cc7eeVhF.s 			page 66


 983:../../../../../../Drivers/STM32L0xx_HAL_Driver/Src/stm32l0xx_hal_adc.c ****   {
 1295              		.loc 1 983 0
 1296 0068 002B     		cmp	r3, #0
 1297 006a 01D1     		bne	.L121
 986:../../../../../../Drivers/STM32L0xx_HAL_Driver/Src/stm32l0xx_hal_adc.c ****   }
 1298              		.loc 1 986 0
 1299 006c 0C33     		adds	r3, r3, #12
 1300 006e 1360     		str	r3, [r2]
 1301              	.LVL80:
 1302              	.L121:
 991:../../../../../../Drivers/STM32L0xx_HAL_Driver/Src/stm32l0xx_hal_adc.c **** 
 1303              		.loc 1 991 0
 1304              		@ sp needed
 1305              	.LVL81:
 1306              	.LVL82:
 1307 0070 F8BD     		pop	{r3, r4, r5, r6, r7, pc}
 1308              	.LVL83:
 1309              	.L125:
 925:../../../../../../Drivers/STM32L0xx_HAL_Driver/Src/stm32l0xx_hal_adc.c ****   {
 1310              		.loc 1 925 0
 1311 0072 1368     		ldr	r3, [r2]
 1312 0074 1C42     		tst	r4, r3
 1313 0076 D7D1     		bne	.L127
 930:../../../../../../Drivers/STM32L0xx_HAL_Driver/Src/stm32l0xx_hal_adc.c ****       {
 1314              		.loc 1 930 0
 1315 0078 002E     		cmp	r6, #0
 1316 007a 04D0     		beq	.L124
 930:../../../../../../Drivers/STM32L0xx_HAL_Driver/Src/stm32l0xx_hal_adc.c ****       {
 1317              		.loc 1 930 0 is_stmt 0 discriminator 1
 1318 007c FFF7FEFF 		bl	HAL_GetTick
 1319              	.LVL84:
 1320 0080 C01B     		subs	r0, r0, r7
 1321 0082 B042     		cmp	r0, r6
 1322 0084 CAD9     		bls	.L122
 1323              	.L124:
 933:../../../../../../Drivers/STM32L0xx_HAL_Driver/Src/stm32l0xx_hal_adc.c ****         
 1324              		.loc 1 933 0 is_stmt 1
 1325 0086 0422     		movs	r2, #4
 1326 0088 AB6D     		ldr	r3, [r5, #88]
 938:../../../../../../Drivers/STM32L0xx_HAL_Driver/Src/stm32l0xx_hal_adc.c ****       }
 1327              		.loc 1 938 0
 1328 008a 0320     		movs	r0, #3
 933:../../../../../../Drivers/STM32L0xx_HAL_Driver/Src/stm32l0xx_hal_adc.c ****         
 1329              		.loc 1 933 0
 1330 008c 1343     		orrs	r3, r2
 1331 008e AB65     		str	r3, [r5, #88]
 936:../../../../../../Drivers/STM32L0xx_HAL_Driver/Src/stm32l0xx_hal_adc.c ****         
 1332              		.loc 1 936 0
 1333 0090 0022     		movs	r2, #0
 1334 0092 5423     		movs	r3, #84
 1335 0094 EA54     		strb	r2, [r5, r3]
 938:../../../../../../Drivers/STM32L0xx_HAL_Driver/Src/stm32l0xx_hal_adc.c ****       }
 1336              		.loc 1 938 0
 1337 0096 EBE7     		b	.L121
 1338              	.LVL85:
 1339              	.L142:
 908:../../../../../../Drivers/STM32L0xx_HAL_Driver/Src/stm32l0xx_hal_adc.c ****       
ARM GAS  C:\Users\EBANO_~1\AppData\Local\Temp\cc7eeVhF.s 			page 67


 1340              		.loc 1 908 0
 1341 0098 2022     		movs	r2, #32
 1342 009a 836D     		ldr	r3, [r0, #88]
 1343 009c 1343     		orrs	r3, r2
 1344 009e 8365     		str	r3, [r0, #88]
 911:../../../../../../Drivers/STM32L0xx_HAL_Driver/Src/stm32l0xx_hal_adc.c ****       
 1345              		.loc 1 911 0
 1346 00a0 0022     		movs	r2, #0
 1347 00a2 5423     		movs	r3, #84
 1348 00a4 C254     		strb	r2, [r0, r3]
 913:../../../../../../Drivers/STM32L0xx_HAL_Driver/Src/stm32l0xx_hal_adc.c ****     }
 1349              		.loc 1 913 0
 1350 00a6 0120     		movs	r0, #1
 1351              	.LVL86:
 1352 00a8 E2E7     		b	.L121
 1353              	.LVL87:
 1354              	.L130:
 972:../../../../../../Drivers/STM32L0xx_HAL_Driver/Src/stm32l0xx_hal_adc.c ****         
 1355              		.loc 1 972 0
 1356 00aa 2021     		movs	r1, #32
 1357 00ac AB6D     		ldr	r3, [r5, #88]
 1358 00ae 0B43     		orrs	r3, r1
 1359 00b0 AB65     		str	r3, [r5, #88]
 975:../../../../../../Drivers/STM32L0xx_HAL_Driver/Src/stm32l0xx_hal_adc.c ****       }
 1360              		.loc 1 975 0
 1361 00b2 EB6D     		ldr	r3, [r5, #92]
 1362 00b4 1F39     		subs	r1, r1, #31
 1363 00b6 0B43     		orrs	r3, r1
 1364 00b8 EB65     		str	r3, [r5, #92]
 1365 00ba D3E7     		b	.L129
 1366              	.L144:
 1367              		.align	2
 1368              	.L143:
 1369 00bc FEFEFFFF 		.word	-258
 1370              		.cfi_endproc
 1371              	.LFE45:
 1372              		.size	HAL_ADC_PollForConversion, .-HAL_ADC_PollForConversion
 1373              		.section	.text.HAL_ADC_PollForEvent,"ax",%progbits
 1374              		.align	1
 1375              		.p2align 2,,3
 1376              		.global	HAL_ADC_PollForEvent
 1377              		.syntax unified
 1378              		.code	16
 1379              		.thumb_func
 1380              		.fpu softvfp
 1381              		.type	HAL_ADC_PollForEvent, %function
 1382              	HAL_ADC_PollForEvent:
 1383              	.LFB46:
1010:../../../../../../Drivers/STM32L0xx_HAL_Driver/Src/stm32l0xx_hal_adc.c ****   uint32_t tickstart = 0U; 
 1384              		.loc 1 1010 0
 1385              		.cfi_startproc
 1386              		@ args = 0, pretend = 0, frame = 0
 1387              		@ frame_needed = 0, uses_anonymous_args = 0
 1388              	.LVL88:
 1389 0000 F8B5     		push	{r3, r4, r5, r6, r7, lr}
 1390              	.LCFI6:
 1391              		.cfi_def_cfa_offset 24
ARM GAS  C:\Users\EBANO_~1\AppData\Local\Temp\cc7eeVhF.s 			page 68


 1392              		.cfi_offset 3, -24
 1393              		.cfi_offset 4, -20
 1394              		.cfi_offset 5, -16
 1395              		.cfi_offset 6, -12
 1396              		.cfi_offset 7, -8
 1397              		.cfi_offset 14, -4
1010:../../../../../../Drivers/STM32L0xx_HAL_Driver/Src/stm32l0xx_hal_adc.c ****   uint32_t tickstart = 0U; 
 1398              		.loc 1 1010 0
 1399 0002 0500     		movs	r5, r0
 1400 0004 0C00     		movs	r4, r1
 1401 0006 1600     		movs	r6, r2
1018:../../../../../../Drivers/STM32L0xx_HAL_Driver/Src/stm32l0xx_hal_adc.c ****   
 1402              		.loc 1 1018 0
 1403 0008 FFF7FEFF 		bl	HAL_GetTick
 1404              	.LVL89:
 1405 000c 0700     		movs	r7, r0
 1406              	.LVL90:
 1407              	.L146:
1021:../../../../../../Drivers/STM32L0xx_HAL_Driver/Src/stm32l0xx_hal_adc.c ****   {
 1408              		.loc 1 1021 0
 1409 000e 2A68     		ldr	r2, [r5]
 1410 0010 731C     		adds	r3, r6, #1
 1411 0012 15D1     		bne	.L150
 1412              	.L151:
 1413 0014 1368     		ldr	r3, [r2]
 1414 0016 2340     		ands	r3, r4
 1415 0018 9C42     		cmp	r4, r3
 1416 001a FBD1     		bne	.L151
 1417              	.L152:
1039:../../../../../../Drivers/STM32L0xx_HAL_Driver/Src/stm32l0xx_hal_adc.c ****   {
 1418              		.loc 1 1039 0
 1419 001c 802C     		cmp	r4, #128
 1420 001e 23D0     		beq	.L159
1056:../../../../../../Drivers/STM32L0xx_HAL_Driver/Src/stm32l0xx_hal_adc.c ****     {
 1421              		.loc 1 1056 0
 1422 0020 6B6B     		ldr	r3, [r5, #52]
 1423 0022 002B     		cmp	r3, #0
 1424 0024 08D1     		bne	.L156
1059:../../../../../../Drivers/STM32L0xx_HAL_Driver/Src/stm32l0xx_hal_adc.c ****         
 1425              		.loc 1 1059 0
 1426 0026 8023     		movs	r3, #128
 1427 0028 A96D     		ldr	r1, [r5, #88]
 1428 002a DB00     		lsls	r3, r3, #3
 1429 002c 0B43     		orrs	r3, r1
1062:../../../../../../Drivers/STM32L0xx_HAL_Driver/Src/stm32l0xx_hal_adc.c ****     }
 1430              		.loc 1 1062 0
 1431 002e 0221     		movs	r1, #2
1059:../../../../../../Drivers/STM32L0xx_HAL_Driver/Src/stm32l0xx_hal_adc.c ****         
 1432              		.loc 1 1059 0
 1433 0030 AB65     		str	r3, [r5, #88]
1062:../../../../../../Drivers/STM32L0xx_HAL_Driver/Src/stm32l0xx_hal_adc.c ****     }
 1434              		.loc 1 1062 0
 1435 0032 EB6D     		ldr	r3, [r5, #92]
 1436 0034 0B43     		orrs	r3, r1
 1437 0036 EB65     		str	r3, [r5, #92]
 1438              	.L156:
1066:../../../../../../Drivers/STM32L0xx_HAL_Driver/Src/stm32l0xx_hal_adc.c ****     break;
ARM GAS  C:\Users\EBANO_~1\AppData\Local\Temp\cc7eeVhF.s 			page 69


 1439              		.loc 1 1066 0
 1440 0038 1023     		movs	r3, #16
1071:../../../../../../Drivers/STM32L0xx_HAL_Driver/Src/stm32l0xx_hal_adc.c **** }
 1441              		.loc 1 1071 0
 1442 003a 0020     		movs	r0, #0
1066:../../../../../../Drivers/STM32L0xx_HAL_Driver/Src/stm32l0xx_hal_adc.c ****     break;
 1443              		.loc 1 1066 0
 1444 003c 1360     		str	r3, [r2]
 1445              	.L148:
1072:../../../../../../Drivers/STM32L0xx_HAL_Driver/Src/stm32l0xx_hal_adc.c **** 
 1446              		.loc 1 1072 0
 1447              		@ sp needed
 1448              	.LVL91:
 1449              	.LVL92:
 1450              	.LVL93:
 1451              	.LVL94:
 1452 003e F8BD     		pop	{r3, r4, r5, r6, r7, pc}
 1453              	.LVL95:
 1454              	.L150:
1021:../../../../../../Drivers/STM32L0xx_HAL_Driver/Src/stm32l0xx_hal_adc.c ****   {
 1455              		.loc 1 1021 0
 1456 0040 1368     		ldr	r3, [r2]
 1457 0042 2340     		ands	r3, r4
 1458 0044 A342     		cmp	r3, r4
 1459 0046 E9D0     		beq	.L152
1026:../../../../../../Drivers/STM32L0xx_HAL_Driver/Src/stm32l0xx_hal_adc.c ****       {
 1460              		.loc 1 1026 0
 1461 0048 002E     		cmp	r6, #0
 1462 004a 04D0     		beq	.L149
1026:../../../../../../Drivers/STM32L0xx_HAL_Driver/Src/stm32l0xx_hal_adc.c ****       {
 1463              		.loc 1 1026 0 is_stmt 0 discriminator 1
 1464 004c FFF7FEFF 		bl	HAL_GetTick
 1465              	.LVL96:
 1466 0050 C01B     		subs	r0, r0, r7
 1467 0052 B042     		cmp	r0, r6
 1468 0054 DBD9     		bls	.L146
 1469              	.L149:
1029:../../../../../../Drivers/STM32L0xx_HAL_Driver/Src/stm32l0xx_hal_adc.c ****         
 1470              		.loc 1 1029 0 is_stmt 1
 1471 0056 0422     		movs	r2, #4
 1472 0058 AB6D     		ldr	r3, [r5, #88]
1034:../../../../../../Drivers/STM32L0xx_HAL_Driver/Src/stm32l0xx_hal_adc.c ****       }
 1473              		.loc 1 1034 0
 1474 005a 0320     		movs	r0, #3
1029:../../../../../../Drivers/STM32L0xx_HAL_Driver/Src/stm32l0xx_hal_adc.c ****         
 1475              		.loc 1 1029 0
 1476 005c 1343     		orrs	r3, r2
 1477 005e AB65     		str	r3, [r5, #88]
1032:../../../../../../Drivers/STM32L0xx_HAL_Driver/Src/stm32l0xx_hal_adc.c ****         
 1478              		.loc 1 1032 0
 1479 0060 0022     		movs	r2, #0
 1480 0062 5423     		movs	r3, #84
 1481 0064 EA54     		strb	r2, [r5, r3]
1034:../../../../../../Drivers/STM32L0xx_HAL_Driver/Src/stm32l0xx_hal_adc.c ****       }
 1482              		.loc 1 1034 0
 1483 0066 EAE7     		b	.L148
 1484              	.L159:
ARM GAS  C:\Users\EBANO_~1\AppData\Local\Temp\cc7eeVhF.s 			page 70


1044:../../../../../../Drivers/STM32L0xx_HAL_Driver/Src/stm32l0xx_hal_adc.c ****     
 1485              		.loc 1 1044 0
 1486 0068 8023     		movs	r3, #128
 1487 006a A96D     		ldr	r1, [r5, #88]
 1488 006c 5B02     		lsls	r3, r3, #9
 1489 006e 0B43     		orrs	r3, r1
 1490 0070 AB65     		str	r3, [r5, #88]
1071:../../../../../../Drivers/STM32L0xx_HAL_Driver/Src/stm32l0xx_hal_adc.c **** }
 1491              		.loc 1 1071 0
 1492 0072 0020     		movs	r0, #0
1047:../../../../../../Drivers/STM32L0xx_HAL_Driver/Src/stm32l0xx_hal_adc.c ****     break;
 1493              		.loc 1 1047 0
 1494 0074 1460     		str	r4, [r2]
1048:../../../../../../Drivers/STM32L0xx_HAL_Driver/Src/stm32l0xx_hal_adc.c ****     
 1495              		.loc 1 1048 0
 1496 0076 E2E7     		b	.L148
 1497              		.cfi_endproc
 1498              	.LFE46:
 1499              		.size	HAL_ADC_PollForEvent, .-HAL_ADC_PollForEvent
 1500              		.section	.text.HAL_ADC_Start_IT,"ax",%progbits
 1501              		.align	1
 1502              		.p2align 2,,3
 1503              		.global	HAL_ADC_Start_IT
 1504              		.syntax unified
 1505              		.code	16
 1506              		.thumb_func
 1507              		.fpu softvfp
 1508              		.type	HAL_ADC_Start_IT, %function
 1509              	HAL_ADC_Start_IT:
 1510              	.LFB47:
1093:../../../../../../Drivers/STM32L0xx_HAL_Driver/Src/stm32l0xx_hal_adc.c ****   HAL_StatusTypeDef tmp_hal_status = HAL_OK;
 1511              		.loc 1 1093 0
 1512              		.cfi_startproc
 1513              		@ args = 0, pretend = 0, frame = 8
 1514              		@ frame_needed = 0, uses_anonymous_args = 0
 1515              	.LVL97:
 1516 0000 70B5     		push	{r4, r5, r6, lr}
 1517              	.LCFI7:
 1518              		.cfi_def_cfa_offset 16
 1519              		.cfi_offset 4, -16
 1520              		.cfi_offset 5, -12
 1521              		.cfi_offset 6, -8
 1522              		.cfi_offset 14, -4
1100:../../../../../../Drivers/STM32L0xx_HAL_Driver/Src/stm32l0xx_hal_adc.c ****   {
 1523              		.loc 1 1100 0
 1524 0002 0368     		ldr	r3, [r0]
1093:../../../../../../Drivers/STM32L0xx_HAL_Driver/Src/stm32l0xx_hal_adc.c ****   HAL_StatusTypeDef tmp_hal_status = HAL_OK;
 1525              		.loc 1 1093 0
 1526 0004 82B0     		sub	sp, sp, #8
 1527              	.LCFI8:
 1528              		.cfi_def_cfa_offset 24
1100:../../../../../../Drivers/STM32L0xx_HAL_Driver/Src/stm32l0xx_hal_adc.c ****   {
 1529              		.loc 1 1100 0
 1530 0006 9A68     		ldr	r2, [r3, #8]
1093:../../../../../../Drivers/STM32L0xx_HAL_Driver/Src/stm32l0xx_hal_adc.c ****   HAL_StatusTypeDef tmp_hal_status = HAL_OK;
 1531              		.loc 1 1093 0
 1532 0008 0400     		movs	r4, r0
ARM GAS  C:\Users\EBANO_~1\AppData\Local\Temp\cc7eeVhF.s 			page 71


1100:../../../../../../Drivers/STM32L0xx_HAL_Driver/Src/stm32l0xx_hal_adc.c ****   {
 1533              		.loc 1 1100 0
 1534 000a 5207     		lsls	r2, r2, #29
 1535 000c 52D4     		bmi	.L173
1103:../../../../../../Drivers/STM32L0xx_HAL_Driver/Src/stm32l0xx_hal_adc.c ****     
 1536              		.loc 1 1103 0
 1537 000e 5422     		movs	r2, #84
 1538 0010 815C     		ldrb	r1, [r0, r2]
 1539 0012 0129     		cmp	r1, #1
 1540 0014 4ED0     		beq	.L173
1103:../../../../../../Drivers/STM32L0xx_HAL_Driver/Src/stm32l0xx_hal_adc.c ****     
 1541              		.loc 1 1103 0 is_stmt 0 discriminator 2
 1542 0016 0121     		movs	r1, #1
 1543 0018 8154     		strb	r1, [r0, r2]
1108:../../../../../../Drivers/STM32L0xx_HAL_Driver/Src/stm32l0xx_hal_adc.c ****     {
 1544              		.loc 1 1108 0 is_stmt 1 discriminator 2
 1545 001a C269     		ldr	r2, [r0, #28]
 1546 001c 012A     		cmp	r2, #1
 1547 001e 1ED1     		bne	.L183
 1548              	.LVL98:
 1549              	.L162:
1119:../../../../../../Drivers/STM32L0xx_HAL_Driver/Src/stm32l0xx_hal_adc.c ****                         HAL_ADC_STATE_READY | HAL_ADC_STATE_REG_EOC | HAL_ADC_STATE_REG_OVR | HAL_A
 1550              		.loc 1 1119 0
 1551 0020 A26D     		ldr	r2, [r4, #88]
 1552 0022 3349     		ldr	r1, .L187
 1553 0024 1140     		ands	r1, r2
 1554 0026 8022     		movs	r2, #128
 1555 0028 5200     		lsls	r2, r2, #1
 1556 002a 0A43     		orrs	r2, r1
 1557 002c A265     		str	r2, [r4, #88]
1129:../../../../../../Drivers/STM32L0xx_HAL_Driver/Src/stm32l0xx_hal_adc.c ****       
 1558              		.loc 1 1129 0
 1559 002e 5421     		movs	r1, #84
1124:../../../../../../Drivers/STM32L0xx_HAL_Driver/Src/stm32l0xx_hal_adc.c ****       
 1560              		.loc 1 1124 0
 1561 0030 0022     		movs	r2, #0
 1562 0032 E265     		str	r2, [r4, #92]
1129:../../../../../../Drivers/STM32L0xx_HAL_Driver/Src/stm32l0xx_hal_adc.c ****       
 1563              		.loc 1 1129 0
 1564 0034 6254     		strb	r2, [r4, r1]
1138:../../../../../../Drivers/STM32L0xx_HAL_Driver/Src/stm32l0xx_hal_adc.c ****       {
 1565              		.loc 1 1138 0
 1566 0036 6169     		ldr	r1, [r4, #20]
1134:../../../../../../Drivers/STM32L0xx_HAL_Driver/Src/stm32l0xx_hal_adc.c ****       
 1567              		.loc 1 1134 0
 1568 0038 1C32     		adds	r2, r2, #28
 1569 003a 1A60     		str	r2, [r3]
1138:../../../../../../Drivers/STM32L0xx_HAL_Driver/Src/stm32l0xx_hal_adc.c ****       {
 1570              		.loc 1 1138 0
 1571 003c 0829     		cmp	r1, #8
 1572 003e 3BD1     		bne	.L182
1141:../../../../../../Drivers/STM32L0xx_HAL_Driver/Src/stm32l0xx_hal_adc.c ****           __HAL_ADC_ENABLE_IT(hadc, (ADC_IT_EOS | ADC_IT_OVR));
 1573              		.loc 1 1141 0
 1574 0040 5A68     		ldr	r2, [r3, #4]
 1575 0042 0439     		subs	r1, r1, #4
 1576 0044 8A43     		bics	r2, r1
 1577 0046 5A60     		str	r2, [r3, #4]
ARM GAS  C:\Users\EBANO_~1\AppData\Local\Temp\cc7eeVhF.s 			page 72


1142:../../../../../../Drivers/STM32L0xx_HAL_Driver/Src/stm32l0xx_hal_adc.c ****           break;
 1578              		.loc 1 1142 0
 1579 0048 5A68     		ldr	r2, [r3, #4]
 1580 004a 1431     		adds	r1, r1, #20
 1581 004c 0A43     		orrs	r2, r1
 1582 004e 5A60     		str	r2, [r3, #4]
 1583              	.L171:
1154:../../../../../../Drivers/STM32L0xx_HAL_Driver/Src/stm32l0xx_hal_adc.c ****     }
 1584              		.loc 1 1154 0
 1585 0050 0421     		movs	r1, #4
 1586 0052 0020     		movs	r0, #0
 1587 0054 9A68     		ldr	r2, [r3, #8]
 1588 0056 0A43     		orrs	r2, r1
 1589 0058 9A60     		str	r2, [r3, #8]
 1590              	.LVL99:
 1591              	.L161:
1164:../../../../../../Drivers/STM32L0xx_HAL_Driver/Src/stm32l0xx_hal_adc.c **** 
 1592              		.loc 1 1164 0
 1593 005a 02B0     		add	sp, sp, #8
 1594              		@ sp needed
 1595              	.LVL100:
 1596 005c 70BD     		pop	{r4, r5, r6, pc}
 1597              	.LVL101:
 1598              	.L183:
 1599              	.LBB80:
 1600              	.LBB81:
1928:../../../../../../Drivers/STM32L0xx_HAL_Driver/Src/stm32l0xx_hal_adc.c ****   {
 1601              		.loc 1 1928 0
 1602 005e 0322     		movs	r2, #3
 1603 0060 9968     		ldr	r1, [r3, #8]
 1604 0062 0A40     		ands	r2, r1
 1605 0064 012A     		cmp	r2, #1
 1606 0066 35D0     		beq	.L184
 1607              	.L163:
1931:../../../../../../Drivers/STM32L0xx_HAL_Driver/Src/stm32l0xx_hal_adc.c ****     {
 1608              		.loc 1 1931 0
 1609 0068 9968     		ldr	r1, [r3, #8]
 1610 006a 224A     		ldr	r2, .L187+4
 1611 006c 1142     		tst	r1, r2
 1612 006e 27D1     		bne	.L185
1943:../../../../../../Drivers/STM32L0xx_HAL_Driver/Src/stm32l0xx_hal_adc.c ****     
 1613              		.loc 1 1943 0
 1614 0070 0121     		movs	r1, #1
 1615 0072 9A68     		ldr	r2, [r3, #8]
 1616 0074 0A43     		orrs	r2, r1
 1617 0076 9A60     		str	r2, [r3, #8]
 1618              	.LVL102:
 1619              	.LBB82:
 1620              	.LBB83:
2183:../../../../../../Drivers/STM32L0xx_HAL_Driver/Src/stm32l0xx_hal_adc.c **** 
 1621              		.loc 1 2183 0
 1622 0078 1F4B     		ldr	r3, .L187+8
 1623 007a 2049     		ldr	r1, .L187+12
 1624 007c 1868     		ldr	r0, [r3]
 1625              	.LVL103:
 1626 007e FFF7FEFF 		bl	__aeabi_uidiv
 1627              	.LVL104:
ARM GAS  C:\Users\EBANO_~1\AppData\Local\Temp\cc7eeVhF.s 			page 73


 1628 0082 0190     		str	r0, [sp, #4]
2185:../../../../../../Drivers/STM32L0xx_HAL_Driver/Src/stm32l0xx_hal_adc.c ****   {
 1629              		.loc 1 2185 0
 1630 0084 019B     		ldr	r3, [sp, #4]
 1631 0086 002B     		cmp	r3, #0
 1632 0088 05D0     		beq	.L165
 1633              	.L166:
 1634              		.loc 1 2187 0
 1635 008a 019B     		ldr	r3, [sp, #4]
 1636 008c 013B     		subs	r3, r3, #1
 1637 008e 0193     		str	r3, [sp, #4]
2185:../../../../../../Drivers/STM32L0xx_HAL_Driver/Src/stm32l0xx_hal_adc.c ****   {
 1638              		.loc 1 2185 0
 1639 0090 019B     		ldr	r3, [sp, #4]
 1640 0092 002B     		cmp	r3, #0
 1641 0094 F9D1     		bne	.L166
 1642              	.L165:
 1643              	.LVL105:
 1644              	.LBE83:
 1645              	.LBE82:
 1646              	.LBB84:
 1647              	.LBB85:
1949:../../../../../../Drivers/STM32L0xx_HAL_Driver/Src/stm32l0xx_hal_adc.c ****     
 1648              		.loc 1 1949 0
 1649 0096 FFF7FEFF 		bl	HAL_GetTick
 1650              	.LVL106:
1952:../../../../../../Drivers/STM32L0xx_HAL_Driver/Src/stm32l0xx_hal_adc.c ****     {
 1651              		.loc 1 1952 0
 1652 009a 0125     		movs	r5, #1
1949:../../../../../../Drivers/STM32L0xx_HAL_Driver/Src/stm32l0xx_hal_adc.c ****     
 1653              		.loc 1 1949 0
 1654 009c 0600     		movs	r6, r0
 1655              	.LVL107:
 1656 009e 04E0     		b	.L167
 1657              	.LVL108:
 1658              	.L168:
1954:../../../../../../Drivers/STM32L0xx_HAL_Driver/Src/stm32l0xx_hal_adc.c ****       {
 1659              		.loc 1 1954 0
 1660 00a0 FFF7FEFF 		bl	HAL_GetTick
 1661              	.LVL109:
 1662 00a4 801B     		subs	r0, r0, r6
 1663 00a6 0A28     		cmp	r0, #10
 1664 00a8 18D8     		bhi	.L186
 1665              	.L167:
1952:../../../../../../Drivers/STM32L0xx_HAL_Driver/Src/stm32l0xx_hal_adc.c ****     {
 1666              		.loc 1 1952 0
 1667 00aa 2368     		ldr	r3, [r4]
 1668 00ac 1A68     		ldr	r2, [r3]
 1669 00ae 1542     		tst	r5, r2
 1670 00b0 F6D0     		beq	.L168
 1671 00b2 B5E7     		b	.L162
 1672              	.LVL110:
 1673              	.L173:
 1674              	.LBE85:
 1675              	.LBE84:
 1676              	.LBE81:
 1677              	.LBE80:
ARM GAS  C:\Users\EBANO_~1\AppData\Local\Temp\cc7eeVhF.s 			page 74


1159:../../../../../../Drivers/STM32L0xx_HAL_Driver/Src/stm32l0xx_hal_adc.c ****   }
 1678              		.loc 1 1159 0
 1679 00b4 0220     		movs	r0, #2
 1680              	.LVL111:
 1681 00b6 D0E7     		b	.L161
 1682              	.L182:
1146:../../../../../../Drivers/STM32L0xx_HAL_Driver/Src/stm32l0xx_hal_adc.c ****           break;
 1683              		.loc 1 1146 0
 1684 00b8 5968     		ldr	r1, [r3, #4]
 1685 00ba 0A43     		orrs	r2, r1
 1686 00bc 5A60     		str	r2, [r3, #4]
1147:../../../../../../Drivers/STM32L0xx_HAL_Driver/Src/stm32l0xx_hal_adc.c ****       }
 1687              		.loc 1 1147 0
 1688 00be C7E7     		b	.L171
 1689              	.LVL112:
 1690              	.L185:
 1691              	.LBB89:
 1692              	.LBB88:
1934:../../../../../../Drivers/STM32L0xx_HAL_Driver/Src/stm32l0xx_hal_adc.c ****       
 1693              		.loc 1 1934 0
 1694 00c0 1022     		movs	r2, #16
 1695 00c2 A36D     		ldr	r3, [r4, #88]
1939:../../../../../../Drivers/STM32L0xx_HAL_Driver/Src/stm32l0xx_hal_adc.c ****     }
 1696              		.loc 1 1939 0
 1697 00c4 0120     		movs	r0, #1
 1698              	.LVL113:
1934:../../../../../../Drivers/STM32L0xx_HAL_Driver/Src/stm32l0xx_hal_adc.c ****       
 1699              		.loc 1 1934 0
 1700 00c6 1343     		orrs	r3, r2
 1701 00c8 A365     		str	r3, [r4, #88]
1937:../../../../../../Drivers/STM32L0xx_HAL_Driver/Src/stm32l0xx_hal_adc.c ****       
 1702              		.loc 1 1937 0
 1703 00ca E36D     		ldr	r3, [r4, #92]
 1704 00cc 0F3A     		subs	r2, r2, #15
 1705 00ce 1343     		orrs	r3, r2
 1706 00d0 E365     		str	r3, [r4, #92]
 1707              	.LVL114:
 1708 00d2 C2E7     		b	.L161
 1709              	.LVL115:
 1710              	.L184:
1928:../../../../../../Drivers/STM32L0xx_HAL_Driver/Src/stm32l0xx_hal_adc.c ****   {
 1711              		.loc 1 1928 0
 1712 00d4 1968     		ldr	r1, [r3]
 1713 00d6 0A42     		tst	r2, r1
 1714 00d8 C6D0     		beq	.L163
 1715 00da A1E7     		b	.L162
 1716              	.LVL116:
 1717              	.L186:
 1718              	.LBB87:
 1719              	.LBB86:
1957:../../../../../../Drivers/STM32L0xx_HAL_Driver/Src/stm32l0xx_hal_adc.c ****         
 1720              		.loc 1 1957 0
 1721 00dc 1022     		movs	r2, #16
 1722 00de A36D     		ldr	r3, [r4, #88]
1962:../../../../../../Drivers/STM32L0xx_HAL_Driver/Src/stm32l0xx_hal_adc.c ****       }
 1723              		.loc 1 1962 0
 1724 00e0 0120     		movs	r0, #1
ARM GAS  C:\Users\EBANO_~1\AppData\Local\Temp\cc7eeVhF.s 			page 75


1957:../../../../../../Drivers/STM32L0xx_HAL_Driver/Src/stm32l0xx_hal_adc.c ****         
 1725              		.loc 1 1957 0
 1726 00e2 1343     		orrs	r3, r2
 1727 00e4 A365     		str	r3, [r4, #88]
1960:../../../../../../Drivers/STM32L0xx_HAL_Driver/Src/stm32l0xx_hal_adc.c ****         
 1728              		.loc 1 1960 0
 1729 00e6 E36D     		ldr	r3, [r4, #92]
 1730 00e8 1D43     		orrs	r5, r3
 1731 00ea E565     		str	r5, [r4, #92]
 1732              	.LVL117:
 1733 00ec B5E7     		b	.L161
 1734              	.L188:
 1735 00ee C046     		.align	2
 1736              	.L187:
 1737 00f0 FEF0FFFF 		.word	-3842
 1738 00f4 17000080 		.word	-2147483625
 1739 00f8 00000000 		.word	SystemCoreClock
 1740 00fc 40420F00 		.word	1000000
 1741              	.LBE86:
 1742              	.LBE87:
 1743              	.LBE88:
 1744              	.LBE89:
 1745              		.cfi_endproc
 1746              	.LFE47:
 1747              		.size	HAL_ADC_Start_IT, .-HAL_ADC_Start_IT
 1748              		.section	.text.HAL_ADC_Stop_IT,"ax",%progbits
 1749              		.align	1
 1750              		.p2align 2,,3
 1751              		.global	HAL_ADC_Stop_IT
 1752              		.syntax unified
 1753              		.code	16
 1754              		.thumb_func
 1755              		.fpu softvfp
 1756              		.type	HAL_ADC_Stop_IT, %function
 1757              	HAL_ADC_Stop_IT:
 1758              	.LFB48:
1174:../../../../../../Drivers/STM32L0xx_HAL_Driver/Src/stm32l0xx_hal_adc.c ****   HAL_StatusTypeDef tmp_hal_status = HAL_OK;
 1759              		.loc 1 1174 0
 1760              		.cfi_startproc
 1761              		@ args = 0, pretend = 0, frame = 0
 1762              		@ frame_needed = 0, uses_anonymous_args = 0
 1763              	.LVL118:
1181:../../../../../../Drivers/STM32L0xx_HAL_Driver/Src/stm32l0xx_hal_adc.c ****   
 1764              		.loc 1 1181 0
 1765 0000 5423     		movs	r3, #84
1174:../../../../../../Drivers/STM32L0xx_HAL_Driver/Src/stm32l0xx_hal_adc.c ****   HAL_StatusTypeDef tmp_hal_status = HAL_OK;
 1766              		.loc 1 1174 0
 1767 0002 70B5     		push	{r4, r5, r6, lr}
 1768              	.LCFI9:
 1769              		.cfi_def_cfa_offset 16
 1770              		.cfi_offset 4, -16
 1771              		.cfi_offset 5, -12
 1772              		.cfi_offset 6, -8
 1773              		.cfi_offset 14, -4
1181:../../../../../../Drivers/STM32L0xx_HAL_Driver/Src/stm32l0xx_hal_adc.c ****   
 1774              		.loc 1 1181 0
 1775 0004 C25C     		ldrb	r2, [r0, r3]
ARM GAS  C:\Users\EBANO_~1\AppData\Local\Temp\cc7eeVhF.s 			page 76


1174:../../../../../../Drivers/STM32L0xx_HAL_Driver/Src/stm32l0xx_hal_adc.c ****   HAL_StatusTypeDef tmp_hal_status = HAL_OK;
 1776              		.loc 1 1174 0
 1777 0006 0400     		movs	r4, r0
1181:../../../../../../Drivers/STM32L0xx_HAL_Driver/Src/stm32l0xx_hal_adc.c ****   
 1778              		.loc 1 1181 0
 1779 0008 012A     		cmp	r2, #1
 1780 000a 2CD0     		beq	.L201
1181:../../../../../../Drivers/STM32L0xx_HAL_Driver/Src/stm32l0xx_hal_adc.c ****   
 1781              		.loc 1 1181 0 is_stmt 0 discriminator 2
 1782 000c 0122     		movs	r2, #1
 1783 000e C254     		strb	r2, [r0, r3]
 1784              	.LVL119:
 1785              	.LBB98:
 1786              	.LBB99:
2044:../../../../../../Drivers/STM32L0xx_HAL_Driver/Src/stm32l0xx_hal_adc.c ****   {
 1787              		.loc 1 2044 0 is_stmt 1 discriminator 2
 1788 0010 0368     		ldr	r3, [r0]
 1789 0012 0332     		adds	r2, r2, #3
 1790 0014 9968     		ldr	r1, [r3, #8]
 1791 0016 0A42     		tst	r2, r1
 1792 0018 10D0     		beq	.L191
2049:../../../../../../Drivers/STM32L0xx_HAL_Driver/Src/stm32l0xx_hal_adc.c ****         HAL_IS_BIT_CLR(hadc->Instance->CR, ADC_CR_ADDIS)                  )
 1793              		.loc 1 2049 0
 1794 001a 9968     		ldr	r1, [r3, #8]
 1795 001c 0A42     		tst	r2, r1
 1796 001e 24D1     		bne	.L213
 1797              	.L192:
2058:../../../../../../Drivers/STM32L0xx_HAL_Driver/Src/stm32l0xx_hal_adc.c ****       
 1798              		.loc 1 2058 0
 1799 0020 FFF7FEFF 		bl	HAL_GetTick
 1800              	.LVL120:
2060:../../../../../../Drivers/STM32L0xx_HAL_Driver/Src/stm32l0xx_hal_adc.c ****     {
 1801              		.loc 1 2060 0
 1802 0024 0425     		movs	r5, #4
2058:../../../../../../Drivers/STM32L0xx_HAL_Driver/Src/stm32l0xx_hal_adc.c ****       
 1803              		.loc 1 2058 0
 1804 0026 0600     		movs	r6, r0
 1805              	.LVL121:
 1806 0028 04E0     		b	.L193
 1807              	.LVL122:
 1808              	.L195:
2062:../../../../../../Drivers/STM32L0xx_HAL_Driver/Src/stm32l0xx_hal_adc.c ****       {
 1809              		.loc 1 2062 0
 1810 002a FFF7FEFF 		bl	HAL_GetTick
 1811              	.LVL123:
 1812 002e 801B     		subs	r0, r0, r6
 1813 0030 0A28     		cmp	r0, #10
 1814 0032 33D8     		bhi	.L214
 1815              	.L193:
2060:../../../../../../Drivers/STM32L0xx_HAL_Driver/Src/stm32l0xx_hal_adc.c ****     {
 1816              		.loc 1 2060 0
 1817 0034 2368     		ldr	r3, [r4]
 1818 0036 9A68     		ldr	r2, [r3, #8]
 1819 0038 1542     		tst	r5, r2
 1820 003a F6D1     		bne	.L195
 1821              	.LVL124:
 1822              	.L191:
ARM GAS  C:\Users\EBANO_~1\AppData\Local\Temp\cc7eeVhF.s 			page 77


 1823              	.LBE99:
 1824              	.LBE98:
1191:../../../../../../Drivers/STM32L0xx_HAL_Driver/Src/stm32l0xx_hal_adc.c ****     
 1825              		.loc 1 1191 0
 1826 003c 1C21     		movs	r1, #28
 1827 003e 5A68     		ldr	r2, [r3, #4]
 1828 0040 8A43     		bics	r2, r1
 1829 0042 5A60     		str	r2, [r3, #4]
 1830              	.LVL125:
 1831              	.LBB104:
 1832              	.LBB105:
1985:../../../../../../Drivers/STM32L0xx_HAL_Driver/Src/stm32l0xx_hal_adc.c ****   {
 1833              		.loc 1 1985 0
 1834 0044 9A68     		ldr	r2, [r3, #8]
 1835 0046 1939     		subs	r1, r1, #25
 1836 0048 0A40     		ands	r2, r1
 1837 004a 012A     		cmp	r2, #1
 1838 004c 15D0     		beq	.L196
 1839              	.LVL126:
 1840              	.L197:
 1841              	.LBE105:
 1842              	.LBE104:
1194:../../../../../../Drivers/STM32L0xx_HAL_Driver/Src/stm32l0xx_hal_adc.c ****     
 1843              		.loc 1 1194 0
 1844 004e 0020     		movs	r0, #0
1200:../../../../../../Drivers/STM32L0xx_HAL_Driver/Src/stm32l0xx_hal_adc.c ****                         HAL_ADC_STATE_REG_BUSY,
 1845              		.loc 1 1200 0
 1846 0050 A36D     		ldr	r3, [r4, #88]
 1847 0052 264A     		ldr	r2, .L217
 1848 0054 1340     		ands	r3, r2
 1849 0056 0432     		adds	r2, r2, #4
 1850 0058 FF32     		adds	r2, r2, #255
 1851 005a 1343     		orrs	r3, r2
 1852 005c A365     		str	r3, [r4, #88]
 1853              	.LVL127:
 1854              	.L194:
1207:../../../../../../Drivers/STM32L0xx_HAL_Driver/Src/stm32l0xx_hal_adc.c ****   
 1855              		.loc 1 1207 0
 1856 005e 5423     		movs	r3, #84
 1857 0060 0022     		movs	r2, #0
 1858 0062 E254     		strb	r2, [r4, r3]
1210:../../../../../../Drivers/STM32L0xx_HAL_Driver/Src/stm32l0xx_hal_adc.c **** }
 1859              		.loc 1 1210 0
 1860 0064 00E0     		b	.L190
 1861              	.LVL128:
 1862              	.L201:
1181:../../../../../../Drivers/STM32L0xx_HAL_Driver/Src/stm32l0xx_hal_adc.c ****   
 1863              		.loc 1 1181 0
 1864 0066 0220     		movs	r0, #2
 1865              	.LVL129:
 1866              	.L190:
1211:../../../../../../Drivers/STM32L0xx_HAL_Driver/Src/stm32l0xx_hal_adc.c **** 
 1867              		.loc 1 1211 0
 1868              		@ sp needed
 1869              	.LVL130:
 1870 0068 70BD     		pop	{r4, r5, r6, pc}
 1871              	.LVL131:
ARM GAS  C:\Users\EBANO_~1\AppData\Local\Temp\cc7eeVhF.s 			page 78


 1872              	.L213:
 1873              	.LBB110:
 1874              	.LBB102:
2050:../../../../../../Drivers/STM32L0xx_HAL_Driver/Src/stm32l0xx_hal_adc.c ****     {
 1875              		.loc 1 2050 0
 1876 006a 9A68     		ldr	r2, [r3, #8]
2049:../../../../../../Drivers/STM32L0xx_HAL_Driver/Src/stm32l0xx_hal_adc.c ****         HAL_IS_BIT_CLR(hadc->Instance->CR, ADC_CR_ADDIS)                  )
 1877              		.loc 1 2049 0
 1878 006c 9207     		lsls	r2, r2, #30
 1879 006e D7D4     		bmi	.L192
2053:../../../../../../Drivers/STM32L0xx_HAL_Driver/Src/stm32l0xx_hal_adc.c ****     }
 1880              		.loc 1 2053 0
 1881 0070 1021     		movs	r1, #16
 1882 0072 9A68     		ldr	r2, [r3, #8]
 1883 0074 0A43     		orrs	r2, r1
 1884 0076 9A60     		str	r2, [r3, #8]
 1885 0078 D2E7     		b	.L192
 1886              	.LVL132:
 1887              	.L196:
 1888              	.LBE102:
 1889              	.LBE110:
 1890              	.LBB111:
 1891              	.LBB108:
1985:../../../../../../Drivers/STM32L0xx_HAL_Driver/Src/stm32l0xx_hal_adc.c ****   {
 1892              		.loc 1 1985 0
 1893 007a 1868     		ldr	r0, [r3]
 1894 007c 0242     		tst	r2, r0
 1895 007e E6D0     		beq	.L197
1988:../../../../../../Drivers/STM32L0xx_HAL_Driver/Src/stm32l0xx_hal_adc.c ****     {
 1896              		.loc 1 1988 0
 1897 0080 0520     		movs	r0, #5
 1898 0082 9D68     		ldr	r5, [r3, #8]
 1899 0084 2840     		ands	r0, r5
 1900 0086 0128     		cmp	r0, #1
 1901 0088 12D0     		beq	.L215
1996:../../../../../../Drivers/STM32L0xx_HAL_Driver/Src/stm32l0xx_hal_adc.c ****       
 1902              		.loc 1 1996 0
 1903 008a 1021     		movs	r1, #16
 1904 008c A36D     		ldr	r3, [r4, #88]
2001:../../../../../../Drivers/STM32L0xx_HAL_Driver/Src/stm32l0xx_hal_adc.c ****     }
 1905              		.loc 1 2001 0
 1906 008e 0120     		movs	r0, #1
1996:../../../../../../Drivers/STM32L0xx_HAL_Driver/Src/stm32l0xx_hal_adc.c ****       
 1907              		.loc 1 1996 0
 1908 0090 0B43     		orrs	r3, r1
 1909 0092 A365     		str	r3, [r4, #88]
1999:../../../../../../Drivers/STM32L0xx_HAL_Driver/Src/stm32l0xx_hal_adc.c ****       
 1910              		.loc 1 1999 0
 1911 0094 E36D     		ldr	r3, [r4, #92]
 1912 0096 1A43     		orrs	r2, r3
 1913 0098 E265     		str	r2, [r4, #92]
 1914              	.LVL133:
 1915 009a E0E7     		b	.L194
 1916              	.LVL134:
 1917              	.L214:
 1918              	.LBE108:
 1919              	.LBE111:
ARM GAS  C:\Users\EBANO_~1\AppData\Local\Temp\cc7eeVhF.s 			page 79


 1920              	.LBB112:
 1921              	.LBB103:
 1922              	.LBB100:
 1923              	.LBB101:
2065:../../../../../../Drivers/STM32L0xx_HAL_Driver/Src/stm32l0xx_hal_adc.c ****       
 1924              		.loc 1 2065 0
 1925 009c 1022     		movs	r2, #16
 1926 009e A36D     		ldr	r3, [r4, #88]
2068:../../../../../../Drivers/STM32L0xx_HAL_Driver/Src/stm32l0xx_hal_adc.c ****         
 1927              		.loc 1 2068 0
 1928 00a0 0120     		movs	r0, #1
2065:../../../../../../Drivers/STM32L0xx_HAL_Driver/Src/stm32l0xx_hal_adc.c ****       
 1929              		.loc 1 2065 0
 1930 00a2 1343     		orrs	r3, r2
 1931 00a4 A365     		str	r3, [r4, #88]
2068:../../../../../../Drivers/STM32L0xx_HAL_Driver/Src/stm32l0xx_hal_adc.c ****         
 1932              		.loc 1 2068 0
 1933 00a6 E36D     		ldr	r3, [r4, #92]
 1934 00a8 0F3A     		subs	r2, r2, #15
 1935 00aa 1343     		orrs	r3, r2
 1936 00ac E365     		str	r3, [r4, #92]
 1937              	.LVL135:
 1938 00ae D6E7     		b	.L194
 1939              	.LVL136:
 1940              	.L215:
 1941              	.LBE101:
 1942              	.LBE100:
 1943              	.LBE103:
 1944              	.LBE112:
 1945              	.LBB113:
 1946              	.LBB109:
1991:../../../../../../Drivers/STM32L0xx_HAL_Driver/Src/stm32l0xx_hal_adc.c ****     }
 1947              		.loc 1 1991 0
 1948 00b0 9A68     		ldr	r2, [r3, #8]
 1949 00b2 0130     		adds	r0, r0, #1
 1950 00b4 0243     		orrs	r2, r0
 1951 00b6 9A60     		str	r2, [r3, #8]
 1952 00b8 1960     		str	r1, [r3]
2006:../../../../../../Drivers/STM32L0xx_HAL_Driver/Src/stm32l0xx_hal_adc.c ****     
 1953              		.loc 1 2006 0
 1954 00ba FFF7FEFF 		bl	HAL_GetTick
 1955              	.LVL137:
2008:../../../../../../Drivers/STM32L0xx_HAL_Driver/Src/stm32l0xx_hal_adc.c ****     {
 1956              		.loc 1 2008 0
 1957 00be 0125     		movs	r5, #1
2006:../../../../../../Drivers/STM32L0xx_HAL_Driver/Src/stm32l0xx_hal_adc.c ****     
 1958              		.loc 1 2006 0
 1959 00c0 0600     		movs	r6, r0
 1960              	.LVL138:
 1961 00c2 04E0     		b	.L199
 1962              	.LVL139:
 1963              	.L200:
2010:../../../../../../Drivers/STM32L0xx_HAL_Driver/Src/stm32l0xx_hal_adc.c ****       {
 1964              		.loc 1 2010 0
 1965 00c4 FFF7FEFF 		bl	HAL_GetTick
 1966              	.LVL140:
 1967 00c8 801B     		subs	r0, r0, r6
ARM GAS  C:\Users\EBANO_~1\AppData\Local\Temp\cc7eeVhF.s 			page 80


 1968 00ca 0A28     		cmp	r0, #10
 1969 00cc 04D8     		bhi	.L216
 1970              	.L199:
2008:../../../../../../Drivers/STM32L0xx_HAL_Driver/Src/stm32l0xx_hal_adc.c ****     {
 1971              		.loc 1 2008 0
 1972 00ce 2368     		ldr	r3, [r4]
 1973 00d0 9B68     		ldr	r3, [r3, #8]
 1974 00d2 1D42     		tst	r5, r3
 1975 00d4 F6D1     		bne	.L200
 1976 00d6 BAE7     		b	.L197
 1977              	.L216:
 1978              	.LVL141:
 1979              	.LBB106:
 1980              	.LBB107:
2065:../../../../../../Drivers/STM32L0xx_HAL_Driver/Src/stm32l0xx_hal_adc.c ****       
 1981              		.loc 1 2065 0
 1982 00d8 1022     		movs	r2, #16
 1983 00da A36D     		ldr	r3, [r4, #88]
2068:../../../../../../Drivers/STM32L0xx_HAL_Driver/Src/stm32l0xx_hal_adc.c ****         
 1984              		.loc 1 2068 0
 1985 00dc 0120     		movs	r0, #1
2065:../../../../../../Drivers/STM32L0xx_HAL_Driver/Src/stm32l0xx_hal_adc.c ****       
 1986              		.loc 1 2065 0
 1987 00de 1343     		orrs	r3, r2
 1988 00e0 A365     		str	r3, [r4, #88]
2068:../../../../../../Drivers/STM32L0xx_HAL_Driver/Src/stm32l0xx_hal_adc.c ****         
 1989              		.loc 1 2068 0
 1990 00e2 E36D     		ldr	r3, [r4, #92]
 1991 00e4 1D43     		orrs	r5, r3
 1992 00e6 E565     		str	r5, [r4, #92]
 1993              	.LVL142:
 1994 00e8 B9E7     		b	.L194
 1995              	.L218:
 1996 00ea C046     		.align	2
 1997              	.L217:
 1998 00ec FEFEFFFF 		.word	-258
 1999              	.LBE107:
 2000              	.LBE106:
 2001              	.LBE109:
 2002              	.LBE113:
 2003              		.cfi_endproc
 2004              	.LFE48:
 2005              		.size	HAL_ADC_Stop_IT, .-HAL_ADC_Stop_IT
 2006              		.section	.text.HAL_ADC_Start_DMA,"ax",%progbits
 2007              		.align	1
 2008              		.p2align 2,,3
 2009              		.global	HAL_ADC_Start_DMA
 2010              		.syntax unified
 2011              		.code	16
 2012              		.thumb_func
 2013              		.fpu softvfp
 2014              		.type	HAL_ADC_Start_DMA, %function
 2015              	HAL_ADC_Start_DMA:
 2016              	.LFB49:
1224:../../../../../../Drivers/STM32L0xx_HAL_Driver/Src/stm32l0xx_hal_adc.c ****   HAL_StatusTypeDef tmp_hal_status = HAL_OK;
 2017              		.loc 1 1224 0
 2018              		.cfi_startproc
ARM GAS  C:\Users\EBANO_~1\AppData\Local\Temp\cc7eeVhF.s 			page 81


 2019              		@ args = 0, pretend = 0, frame = 8
 2020              		@ frame_needed = 0, uses_anonymous_args = 0
 2021              	.LVL143:
 2022 0000 F0B5     		push	{r4, r5, r6, r7, lr}
 2023              	.LCFI10:
 2024              		.cfi_def_cfa_offset 20
 2025              		.cfi_offset 4, -20
 2026              		.cfi_offset 5, -16
 2027              		.cfi_offset 6, -12
 2028              		.cfi_offset 7, -8
 2029              		.cfi_offset 14, -4
 2030 0002 C646     		mov	lr, r8
 2031 0004 00B5     		push	{lr}
 2032              	.LCFI11:
 2033              		.cfi_def_cfa_offset 24
 2034              		.cfi_offset 8, -24
 2035 0006 0D00     		movs	r5, r1
1231:../../../../../../Drivers/STM32L0xx_HAL_Driver/Src/stm32l0xx_hal_adc.c ****   {
 2036              		.loc 1 1231 0
 2037 0008 0168     		ldr	r1, [r0]
 2038              	.LVL144:
1224:../../../../../../Drivers/STM32L0xx_HAL_Driver/Src/stm32l0xx_hal_adc.c ****   HAL_StatusTypeDef tmp_hal_status = HAL_OK;
 2039              		.loc 1 1224 0
 2040 000a 82B0     		sub	sp, sp, #8
 2041              	.LCFI12:
 2042              		.cfi_def_cfa_offset 32
1231:../../../../../../Drivers/STM32L0xx_HAL_Driver/Src/stm32l0xx_hal_adc.c ****   {
 2043              		.loc 1 1231 0
 2044 000c 8B68     		ldr	r3, [r1, #8]
1224:../../../../../../Drivers/STM32L0xx_HAL_Driver/Src/stm32l0xx_hal_adc.c ****   HAL_StatusTypeDef tmp_hal_status = HAL_OK;
 2045              		.loc 1 1224 0
 2046 000e 0400     		movs	r4, r0
 2047 0010 1600     		movs	r6, r2
1231:../../../../../../Drivers/STM32L0xx_HAL_Driver/Src/stm32l0xx_hal_adc.c ****   {
 2048              		.loc 1 1231 0
 2049 0012 5B07     		lsls	r3, r3, #29
 2050 0014 5ED4     		bmi	.L229
1234:../../../../../../Drivers/STM32L0xx_HAL_Driver/Src/stm32l0xx_hal_adc.c **** 
 2051              		.loc 1 1234 0
 2052 0016 5423     		movs	r3, #84
 2053 0018 C25C     		ldrb	r2, [r0, r3]
 2054              	.LVL145:
 2055 001a 012A     		cmp	r2, #1
 2056 001c 5AD0     		beq	.L229
1234:../../../../../../Drivers/STM32L0xx_HAL_Driver/Src/stm32l0xx_hal_adc.c **** 
 2057              		.loc 1 1234 0 is_stmt 0 discriminator 2
 2058 001e 0122     		movs	r2, #1
 2059 0020 C254     		strb	r2, [r0, r3]
1239:../../../../../../Drivers/STM32L0xx_HAL_Driver/Src/stm32l0xx_hal_adc.c ****     {
 2060              		.loc 1 1239 0 is_stmt 1 discriminator 2
 2061 0022 C369     		ldr	r3, [r0, #28]
 2062 0024 012B     		cmp	r3, #1
 2063 0026 2AD0     		beq	.L221
 2064              	.LVL146:
 2065              	.LBB122:
 2066              	.LBB123:
1928:../../../../../../Drivers/STM32L0xx_HAL_Driver/Src/stm32l0xx_hal_adc.c ****   {
ARM GAS  C:\Users\EBANO_~1\AppData\Local\Temp\cc7eeVhF.s 			page 82


 2067              		.loc 1 1928 0
 2068 0028 0323     		movs	r3, #3
 2069 002a 8A68     		ldr	r2, [r1, #8]
 2070 002c 1340     		ands	r3, r2
 2071 002e 012B     		cmp	r3, #1
 2072 0030 5CD0     		beq	.L238
 2073              	.L222:
1931:../../../../../../Drivers/STM32L0xx_HAL_Driver/Src/stm32l0xx_hal_adc.c ****     {
 2074              		.loc 1 1931 0
 2075 0032 8A68     		ldr	r2, [r1, #8]
 2076 0034 344B     		ldr	r3, .L241
 2077 0036 1A42     		tst	r2, r3
 2078 0038 4ED1     		bne	.L239
1943:../../../../../../Drivers/STM32L0xx_HAL_Driver/Src/stm32l0xx_hal_adc.c ****     
 2079              		.loc 1 1943 0
 2080 003a 0122     		movs	r2, #1
 2081 003c 8B68     		ldr	r3, [r1, #8]
 2082 003e 1343     		orrs	r3, r2
 2083 0040 8B60     		str	r3, [r1, #8]
 2084              	.LVL147:
 2085              	.LBB124:
 2086              	.LBB125:
2183:../../../../../../Drivers/STM32L0xx_HAL_Driver/Src/stm32l0xx_hal_adc.c **** 
 2087              		.loc 1 2183 0
 2088 0042 324B     		ldr	r3, .L241+4
 2089 0044 3249     		ldr	r1, .L241+8
 2090 0046 1868     		ldr	r0, [r3]
 2091              	.LVL148:
 2092 0048 FFF7FEFF 		bl	__aeabi_uidiv
 2093              	.LVL149:
 2094 004c 0190     		str	r0, [sp, #4]
2185:../../../../../../Drivers/STM32L0xx_HAL_Driver/Src/stm32l0xx_hal_adc.c ****   {
 2095              		.loc 1 2185 0
 2096 004e 019B     		ldr	r3, [sp, #4]
 2097 0050 002B     		cmp	r3, #0
 2098 0052 05D0     		beq	.L224
 2099              	.L225:
 2100              		.loc 1 2187 0
 2101 0054 019B     		ldr	r3, [sp, #4]
 2102 0056 013B     		subs	r3, r3, #1
 2103 0058 0193     		str	r3, [sp, #4]
2185:../../../../../../Drivers/STM32L0xx_HAL_Driver/Src/stm32l0xx_hal_adc.c ****   {
 2104              		.loc 1 2185 0
 2105 005a 019B     		ldr	r3, [sp, #4]
 2106 005c 002B     		cmp	r3, #0
 2107 005e F9D1     		bne	.L225
 2108              	.L224:
 2109              	.LVL150:
 2110              	.LBE125:
 2111              	.LBE124:
 2112              	.LBB126:
 2113              	.LBB127:
1949:../../../../../../Drivers/STM32L0xx_HAL_Driver/Src/stm32l0xx_hal_adc.c ****     
 2114              		.loc 1 1949 0
 2115 0060 FFF7FEFF 		bl	HAL_GetTick
 2116              	.LVL151:
1952:../../../../../../Drivers/STM32L0xx_HAL_Driver/Src/stm32l0xx_hal_adc.c ****     {
ARM GAS  C:\Users\EBANO_~1\AppData\Local\Temp\cc7eeVhF.s 			page 83


 2117              		.loc 1 1952 0
 2118 0064 0127     		movs	r7, #1
1949:../../../../../../Drivers/STM32L0xx_HAL_Driver/Src/stm32l0xx_hal_adc.c ****     
 2119              		.loc 1 1949 0
 2120 0066 8046     		mov	r8, r0
 2121              	.LVL152:
 2122 0068 05E0     		b	.L226
 2123              	.LVL153:
 2124              	.L227:
1954:../../../../../../Drivers/STM32L0xx_HAL_Driver/Src/stm32l0xx_hal_adc.c ****       {
 2125              		.loc 1 1954 0
 2126 006a FFF7FEFF 		bl	HAL_GetTick
 2127              	.LVL154:
 2128 006e 4346     		mov	r3, r8
 2129 0070 C01A     		subs	r0, r0, r3
 2130 0072 0A28     		cmp	r0, #10
 2131 0074 3ED8     		bhi	.L240
 2132              	.L226:
1952:../../../../../../Drivers/STM32L0xx_HAL_Driver/Src/stm32l0xx_hal_adc.c ****     {
 2133              		.loc 1 1952 0
 2134 0076 2168     		ldr	r1, [r4]
 2135 0078 0B68     		ldr	r3, [r1]
 2136 007a 1F42     		tst	r7, r3
 2137 007c F5D0     		beq	.L227
 2138              	.LVL155:
 2139              	.L221:
 2140              	.LBE127:
 2141              	.LBE126:
 2142              	.LBE123:
 2143              	.LBE122:
1250:../../../../../../Drivers/STM32L0xx_HAL_Driver/Src/stm32l0xx_hal_adc.c ****                         HAL_ADC_STATE_READY | HAL_ADC_STATE_REG_EOC | HAL_ADC_STATE_REG_OVR | HAL_A
 2144              		.loc 1 1250 0
 2145 007e A36D     		ldr	r3, [r4, #88]
 2146 0080 244A     		ldr	r2, .L241+12
1263:../../../../../../Drivers/STM32L0xx_HAL_Driver/Src/stm32l0xx_hal_adc.c ****       
 2147              		.loc 1 1263 0
 2148 0082 206D     		ldr	r0, [r4, #80]
1250:../../../../../../Drivers/STM32L0xx_HAL_Driver/Src/stm32l0xx_hal_adc.c ****                         HAL_ADC_STATE_READY | HAL_ADC_STATE_REG_EOC | HAL_ADC_STATE_REG_OVR | HAL_A
 2149              		.loc 1 1250 0
 2150 0084 1A40     		ands	r2, r3
 2151 0086 8023     		movs	r3, #128
 2152 0088 5B00     		lsls	r3, r3, #1
 2153 008a 1343     		orrs	r3, r2
 2154 008c A365     		str	r3, [r4, #88]
1260:../../../../../../Drivers/STM32L0xx_HAL_Driver/Src/stm32l0xx_hal_adc.c **** 
 2155              		.loc 1 1260 0
 2156 008e 5422     		movs	r2, #84
1255:../../../../../../Drivers/STM32L0xx_HAL_Driver/Src/stm32l0xx_hal_adc.c ****       
 2157              		.loc 1 1255 0
 2158 0090 0023     		movs	r3, #0
 2159 0092 E365     		str	r3, [r4, #92]
1260:../../../../../../Drivers/STM32L0xx_HAL_Driver/Src/stm32l0xx_hal_adc.c **** 
 2160              		.loc 1 1260 0
 2161 0094 A354     		strb	r3, [r4, r2]
1263:../../../../../../Drivers/STM32L0xx_HAL_Driver/Src/stm32l0xx_hal_adc.c ****       
 2162              		.loc 1 1263 0
 2163 0096 204B     		ldr	r3, .L241+16
ARM GAS  C:\Users\EBANO_~1\AppData\Local\Temp\cc7eeVhF.s 			page 84


1281:../../../../../../Drivers/STM32L0xx_HAL_Driver/Src/stm32l0xx_hal_adc.c ****       
 2164              		.loc 1 1281 0
 2165 0098 443A     		subs	r2, r2, #68
1263:../../../../../../Drivers/STM32L0xx_HAL_Driver/Src/stm32l0xx_hal_adc.c ****       
 2166              		.loc 1 1263 0
 2167 009a C362     		str	r3, [r0, #44]
1266:../../../../../../Drivers/STM32L0xx_HAL_Driver/Src/stm32l0xx_hal_adc.c ****       
 2168              		.loc 1 1266 0
 2169 009c 1F4B     		ldr	r3, .L241+20
 2170 009e 0363     		str	r3, [r0, #48]
1269:../../../../../../Drivers/STM32L0xx_HAL_Driver/Src/stm32l0xx_hal_adc.c ****       
 2171              		.loc 1 1269 0
 2172 00a0 1F4B     		ldr	r3, .L241+24
 2173 00a2 4363     		str	r3, [r0, #52]
1278:../../../../../../Drivers/STM32L0xx_HAL_Driver/Src/stm32l0xx_hal_adc.c ****       
 2174              		.loc 1 1278 0
 2175 00a4 1C23     		movs	r3, #28
 2176 00a6 0B60     		str	r3, [r1]
1281:../../../../../../Drivers/STM32L0xx_HAL_Driver/Src/stm32l0xx_hal_adc.c ****       
 2177              		.loc 1 1281 0
 2178 00a8 4B68     		ldr	r3, [r1, #4]
 2179 00aa 1343     		orrs	r3, r2
 2180 00ac 4B60     		str	r3, [r1, #4]
1284:../../../../../../Drivers/STM32L0xx_HAL_Driver/Src/stm32l0xx_hal_adc.c ****       
 2181              		.loc 1 1284 0
 2182 00ae CB68     		ldr	r3, [r1, #12]
 2183 00b0 0F3A     		subs	r2, r2, #15
 2184 00b2 1343     		orrs	r3, r2
 2185 00b4 CB60     		str	r3, [r1, #12]
1287:../../../../../../Drivers/STM32L0xx_HAL_Driver/Src/stm32l0xx_hal_adc.c ****       
 2186              		.loc 1 1287 0
 2187 00b6 2A00     		movs	r2, r5
 2188 00b8 4031     		adds	r1, r1, #64
 2189 00ba 3300     		movs	r3, r6
 2190 00bc FFF7FEFF 		bl	HAL_DMA_Start_IT
 2191              	.LVL156:
1293:../../../../../../Drivers/STM32L0xx_HAL_Driver/Src/stm32l0xx_hal_adc.c ****     }
 2192              		.loc 1 1293 0
 2193 00c0 0421     		movs	r1, #4
 2194 00c2 0020     		movs	r0, #0
 2195 00c4 2268     		ldr	r2, [r4]
 2196 00c6 9368     		ldr	r3, [r2, #8]
 2197 00c8 0B43     		orrs	r3, r1
 2198 00ca 9360     		str	r3, [r2, #8]
 2199              	.LVL157:
 2200              	.L220:
1303:../../../../../../Drivers/STM32L0xx_HAL_Driver/Src/stm32l0xx_hal_adc.c **** 
 2201              		.loc 1 1303 0
 2202 00cc 02B0     		add	sp, sp, #8
 2203              		@ sp needed
 2204              	.LVL158:
 2205              	.LVL159:
 2206              	.LVL160:
 2207 00ce 04BC     		pop	{r2}
 2208 00d0 9046     		mov	r8, r2
 2209 00d2 F0BD     		pop	{r4, r5, r6, r7, pc}
 2210              	.LVL161:
ARM GAS  C:\Users\EBANO_~1\AppData\Local\Temp\cc7eeVhF.s 			page 85


 2211              	.L229:
1298:../../../../../../Drivers/STM32L0xx_HAL_Driver/Src/stm32l0xx_hal_adc.c ****   }
 2212              		.loc 1 1298 0
 2213 00d4 0220     		movs	r0, #2
 2214              	.LVL162:
 2215 00d6 F9E7     		b	.L220
 2216              	.LVL163:
 2217              	.L239:
 2218              	.LBB131:
 2219              	.LBB130:
1934:../../../../../../Drivers/STM32L0xx_HAL_Driver/Src/stm32l0xx_hal_adc.c ****       
 2220              		.loc 1 1934 0
 2221 00d8 1022     		movs	r2, #16
 2222 00da A36D     		ldr	r3, [r4, #88]
1939:../../../../../../Drivers/STM32L0xx_HAL_Driver/Src/stm32l0xx_hal_adc.c ****     }
 2223              		.loc 1 1939 0
 2224 00dc 0120     		movs	r0, #1
 2225              	.LVL164:
1934:../../../../../../Drivers/STM32L0xx_HAL_Driver/Src/stm32l0xx_hal_adc.c ****       
 2226              		.loc 1 1934 0
 2227 00de 1343     		orrs	r3, r2
 2228 00e0 A365     		str	r3, [r4, #88]
1937:../../../../../../Drivers/STM32L0xx_HAL_Driver/Src/stm32l0xx_hal_adc.c ****       
 2229              		.loc 1 1937 0
 2230 00e2 E36D     		ldr	r3, [r4, #92]
 2231 00e4 0F3A     		subs	r2, r2, #15
 2232 00e6 1343     		orrs	r3, r2
 2233 00e8 E365     		str	r3, [r4, #92]
 2234              	.LVL165:
 2235 00ea EFE7     		b	.L220
 2236              	.LVL166:
 2237              	.L238:
1928:../../../../../../Drivers/STM32L0xx_HAL_Driver/Src/stm32l0xx_hal_adc.c ****   {
 2238              		.loc 1 1928 0
 2239 00ec 0A68     		ldr	r2, [r1]
 2240 00ee 1342     		tst	r3, r2
 2241 00f0 9FD0     		beq	.L222
 2242 00f2 C4E7     		b	.L221
 2243              	.LVL167:
 2244              	.L240:
 2245              	.LBB129:
 2246              	.LBB128:
1957:../../../../../../Drivers/STM32L0xx_HAL_Driver/Src/stm32l0xx_hal_adc.c ****         
 2247              		.loc 1 1957 0
 2248 00f4 1022     		movs	r2, #16
 2249 00f6 A36D     		ldr	r3, [r4, #88]
 2250              	.LVL168:
1962:../../../../../../Drivers/STM32L0xx_HAL_Driver/Src/stm32l0xx_hal_adc.c ****       }
 2251              		.loc 1 1962 0
 2252 00f8 0120     		movs	r0, #1
1957:../../../../../../Drivers/STM32L0xx_HAL_Driver/Src/stm32l0xx_hal_adc.c ****         
 2253              		.loc 1 1957 0
 2254 00fa 1343     		orrs	r3, r2
 2255 00fc A365     		str	r3, [r4, #88]
1960:../../../../../../Drivers/STM32L0xx_HAL_Driver/Src/stm32l0xx_hal_adc.c ****         
 2256              		.loc 1 1960 0
 2257 00fe E36D     		ldr	r3, [r4, #92]
ARM GAS  C:\Users\EBANO_~1\AppData\Local\Temp\cc7eeVhF.s 			page 86


 2258 0100 1F43     		orrs	r7, r3
 2259 0102 E765     		str	r7, [r4, #92]
 2260              	.LVL169:
 2261 0104 E2E7     		b	.L220
 2262              	.L242:
 2263 0106 C046     		.align	2
 2264              	.L241:
 2265 0108 17000080 		.word	-2147483625
 2266 010c 00000000 		.word	SystemCoreClock
 2267 0110 40420F00 		.word	1000000
 2268 0114 FEF0FFFF 		.word	-3842
 2269 0118 00000000 		.word	ADC_DMAConvCplt
 2270 011c 00000000 		.word	ADC_DMAHalfConvCplt
 2271 0120 00000000 		.word	ADC_DMAError
 2272              	.LBE128:
 2273              	.LBE129:
 2274              	.LBE130:
 2275              	.LBE131:
 2276              		.cfi_endproc
 2277              	.LFE49:
 2278              		.size	HAL_ADC_Start_DMA, .-HAL_ADC_Start_DMA
 2279              		.section	.text.HAL_ADC_Stop_DMA,"ax",%progbits
 2280              		.align	1
 2281              		.p2align 2,,3
 2282              		.global	HAL_ADC_Stop_DMA
 2283              		.syntax unified
 2284              		.code	16
 2285              		.thumb_func
 2286              		.fpu softvfp
 2287              		.type	HAL_ADC_Stop_DMA, %function
 2288              	HAL_ADC_Stop_DMA:
 2289              	.LFB50:
1314:../../../../../../Drivers/STM32L0xx_HAL_Driver/Src/stm32l0xx_hal_adc.c ****   HAL_StatusTypeDef tmp_hal_status = HAL_OK;
 2290              		.loc 1 1314 0
 2291              		.cfi_startproc
 2292              		@ args = 0, pretend = 0, frame = 0
 2293              		@ frame_needed = 0, uses_anonymous_args = 0
 2294              	.LVL170:
 2295 0000 F8B5     		push	{r3, r4, r5, r6, r7, lr}
 2296              	.LCFI13:
 2297              		.cfi_def_cfa_offset 24
 2298              		.cfi_offset 3, -24
 2299              		.cfi_offset 4, -20
 2300              		.cfi_offset 5, -16
 2301              		.cfi_offset 6, -12
 2302              		.cfi_offset 7, -8
 2303              		.cfi_offset 14, -4
1321:../../../../../../Drivers/STM32L0xx_HAL_Driver/Src/stm32l0xx_hal_adc.c ****   
 2304              		.loc 1 1321 0
 2305 0002 5423     		movs	r3, #84
 2306 0004 C25C     		ldrb	r2, [r0, r3]
1314:../../../../../../Drivers/STM32L0xx_HAL_Driver/Src/stm32l0xx_hal_adc.c ****   HAL_StatusTypeDef tmp_hal_status = HAL_OK;
 2307              		.loc 1 1314 0
 2308 0006 0400     		movs	r4, r0
1321:../../../../../../Drivers/STM32L0xx_HAL_Driver/Src/stm32l0xx_hal_adc.c ****   
 2309              		.loc 1 1321 0
 2310 0008 012A     		cmp	r2, #1
ARM GAS  C:\Users\EBANO_~1\AppData\Local\Temp\cc7eeVhF.s 			page 87


 2311 000a 35D0     		beq	.L260
1321:../../../../../../Drivers/STM32L0xx_HAL_Driver/Src/stm32l0xx_hal_adc.c ****   
 2312              		.loc 1 1321 0 is_stmt 0 discriminator 2
 2313 000c 0122     		movs	r2, #1
 2314 000e C254     		strb	r2, [r0, r3]
 2315              	.LVL171:
 2316              	.LBB144:
 2317              	.LBB145:
2044:../../../../../../Drivers/STM32L0xx_HAL_Driver/Src/stm32l0xx_hal_adc.c ****   {
 2318              		.loc 1 2044 0 is_stmt 1 discriminator 2
 2319 0010 0368     		ldr	r3, [r0]
 2320 0012 0332     		adds	r2, r2, #3
 2321 0014 9968     		ldr	r1, [r3, #8]
 2322 0016 0A42     		tst	r2, r1
 2323 0018 10D0     		beq	.L245
2049:../../../../../../Drivers/STM32L0xx_HAL_Driver/Src/stm32l0xx_hal_adc.c ****         HAL_IS_BIT_CLR(hadc->Instance->CR, ADC_CR_ADDIS)                  )
 2324              		.loc 1 2049 0
 2325 001a 9968     		ldr	r1, [r3, #8]
 2326 001c 0A42     		tst	r2, r1
 2327 001e 2ED1     		bne	.L277
 2328              	.L246:
2058:../../../../../../Drivers/STM32L0xx_HAL_Driver/Src/stm32l0xx_hal_adc.c ****       
 2329              		.loc 1 2058 0
 2330 0020 FFF7FEFF 		bl	HAL_GetTick
 2331              	.LVL172:
2060:../../../../../../Drivers/STM32L0xx_HAL_Driver/Src/stm32l0xx_hal_adc.c ****     {
 2332              		.loc 1 2060 0
 2333 0024 0425     		movs	r5, #4
2058:../../../../../../Drivers/STM32L0xx_HAL_Driver/Src/stm32l0xx_hal_adc.c ****       
 2334              		.loc 1 2058 0
 2335 0026 0600     		movs	r6, r0
 2336              	.LVL173:
 2337 0028 04E0     		b	.L247
 2338              	.LVL174:
 2339              	.L249:
2062:../../../../../../Drivers/STM32L0xx_HAL_Driver/Src/stm32l0xx_hal_adc.c ****       {
 2340              		.loc 1 2062 0
 2341 002a FFF7FEFF 		bl	HAL_GetTick
 2342              	.LVL175:
 2343 002e 801B     		subs	r0, r0, r6
 2344 0030 0A28     		cmp	r0, #10
 2345 0032 49D8     		bhi	.L278
 2346              	.L247:
2060:../../../../../../Drivers/STM32L0xx_HAL_Driver/Src/stm32l0xx_hal_adc.c ****     {
 2347              		.loc 1 2060 0
 2348 0034 2368     		ldr	r3, [r4]
 2349 0036 9A68     		ldr	r2, [r3, #8]
 2350 0038 1542     		tst	r5, r2
 2351 003a F6D1     		bne	.L249
 2352              	.LVL176:
 2353              	.L245:
 2354              	.LBE145:
 2355              	.LBE144:
1330:../../../../../../Drivers/STM32L0xx_HAL_Driver/Src/stm32l0xx_hal_adc.c ****     
 2356              		.loc 1 1330 0
 2357 003c 0121     		movs	r1, #1
 2358 003e DA68     		ldr	r2, [r3, #12]
ARM GAS  C:\Users\EBANO_~1\AppData\Local\Temp\cc7eeVhF.s 			page 88


1334:../../../../../../Drivers/STM32L0xx_HAL_Driver/Src/stm32l0xx_hal_adc.c ****     
 2359              		.loc 1 1334 0
 2360 0040 206D     		ldr	r0, [r4, #80]
1330:../../../../../../Drivers/STM32L0xx_HAL_Driver/Src/stm32l0xx_hal_adc.c ****     
 2361              		.loc 1 1330 0
 2362 0042 8A43     		bics	r2, r1
 2363 0044 DA60     		str	r2, [r3, #12]
1334:../../../../../../Drivers/STM32L0xx_HAL_Driver/Src/stm32l0xx_hal_adc.c ****     
 2364              		.loc 1 1334 0
 2365 0046 FFF7FEFF 		bl	HAL_DMA_Abort
 2366              	.LVL177:
 2367 004a 051E     		subs	r5, r0, #0
 2368              	.LVL178:
1337:../../../../../../Drivers/STM32L0xx_HAL_Driver/Src/stm32l0xx_hal_adc.c ****     {
 2369              		.loc 1 1337 0
 2370 004c 1FD1     		bne	.L279
1344:../../../../../../Drivers/STM32L0xx_HAL_Driver/Src/stm32l0xx_hal_adc.c ****     
 2371              		.loc 1 1344 0
 2372 004e 1021     		movs	r1, #16
 2373              	.LBB150:
 2374              	.LBB151:
1985:../../../../../../Drivers/STM32L0xx_HAL_Driver/Src/stm32l0xx_hal_adc.c ****   {
 2375              		.loc 1 1985 0
 2376 0050 0320     		movs	r0, #3
 2377              	.LVL179:
 2378              	.LBE151:
 2379              	.LBE150:
1344:../../../../../../Drivers/STM32L0xx_HAL_Driver/Src/stm32l0xx_hal_adc.c ****     
 2380              		.loc 1 1344 0
 2381 0052 2368     		ldr	r3, [r4]
 2382 0054 5A68     		ldr	r2, [r3, #4]
 2383 0056 8A43     		bics	r2, r1
 2384 0058 5A60     		str	r2, [r3, #4]
 2385              	.LVL180:
 2386              	.LBB157:
 2387              	.LBB154:
1985:../../../../../../Drivers/STM32L0xx_HAL_Driver/Src/stm32l0xx_hal_adc.c ****   {
 2388              		.loc 1 1985 0
 2389 005a 9A68     		ldr	r2, [r3, #8]
 2390 005c 0240     		ands	r2, r0
 2391 005e 012A     		cmp	r2, #1
 2392 0060 3CD0     		beq	.L280
 2393              	.LVL181:
 2394              	.L252:
 2395              	.LBE154:
 2396              	.LBE157:
1362:../../../../../../Drivers/STM32L0xx_HAL_Driver/Src/stm32l0xx_hal_adc.c ****                         HAL_ADC_STATE_REG_BUSY,
 2397              		.loc 1 1362 0
 2398 0062 A36D     		ldr	r3, [r4, #88]
 2399 0064 3F4A     		ldr	r2, .L283
 2400 0066 1340     		ands	r3, r2
 2401 0068 0432     		adds	r2, r2, #4
 2402 006a FF32     		adds	r2, r2, #255
 2403 006c 1343     		orrs	r3, r2
 2404 006e A365     		str	r3, [r4, #88]
 2405              	.LVL182:
 2406              	.L248:
ARM GAS  C:\Users\EBANO_~1\AppData\Local\Temp\cc7eeVhF.s 			page 89


1370:../../../../../../Drivers/STM32L0xx_HAL_Driver/Src/stm32l0xx_hal_adc.c ****   
 2407              		.loc 1 1370 0
 2408 0070 5423     		movs	r3, #84
 2409 0072 0022     		movs	r2, #0
 2410 0074 E254     		strb	r2, [r4, r3]
1373:../../../../../../Drivers/STM32L0xx_HAL_Driver/Src/stm32l0xx_hal_adc.c **** }
 2411              		.loc 1 1373 0
 2412 0076 00E0     		b	.L276
 2413              	.LVL183:
 2414              	.L260:
1321:../../../../../../Drivers/STM32L0xx_HAL_Driver/Src/stm32l0xx_hal_adc.c ****   
 2415              		.loc 1 1321 0
 2416 0078 0225     		movs	r5, #2
 2417              	.LVL184:
 2418              	.L276:
1374:../../../../../../Drivers/STM32L0xx_HAL_Driver/Src/stm32l0xx_hal_adc.c **** 
 2419              		.loc 1 1374 0
 2420 007a 2800     		movs	r0, r5
 2421              		@ sp needed
 2422              	.LVL185:
 2423 007c F8BD     		pop	{r3, r4, r5, r6, r7, pc}
 2424              	.LVL186:
 2425              	.L277:
 2426              	.LBB158:
 2427              	.LBB148:
2050:../../../../../../Drivers/STM32L0xx_HAL_Driver/Src/stm32l0xx_hal_adc.c ****     {
 2428              		.loc 1 2050 0
 2429 007e 9A68     		ldr	r2, [r3, #8]
2049:../../../../../../Drivers/STM32L0xx_HAL_Driver/Src/stm32l0xx_hal_adc.c ****         HAL_IS_BIT_CLR(hadc->Instance->CR, ADC_CR_ADDIS)                  )
 2430              		.loc 1 2049 0
 2431 0080 9207     		lsls	r2, r2, #30
 2432 0082 CDD4     		bmi	.L246
2053:../../../../../../Drivers/STM32L0xx_HAL_Driver/Src/stm32l0xx_hal_adc.c ****     }
 2433              		.loc 1 2053 0
 2434 0084 1021     		movs	r1, #16
 2435 0086 9A68     		ldr	r2, [r3, #8]
 2436 0088 0A43     		orrs	r2, r1
 2437 008a 9A60     		str	r2, [r3, #8]
 2438 008c C8E7     		b	.L246
 2439              	.LVL187:
 2440              	.L279:
 2441              	.LBE148:
 2442              	.LBE158:
1340:../../../../../../Drivers/STM32L0xx_HAL_Driver/Src/stm32l0xx_hal_adc.c ****     }
 2443              		.loc 1 1340 0
 2444 008e 4022     		movs	r2, #64
1344:../../../../../../Drivers/STM32L0xx_HAL_Driver/Src/stm32l0xx_hal_adc.c ****     
 2445              		.loc 1 1344 0
 2446 0090 1021     		movs	r1, #16
 2447              	.LBB159:
 2448              	.LBB160:
1985:../../../../../../Drivers/STM32L0xx_HAL_Driver/Src/stm32l0xx_hal_adc.c ****   {
 2449              		.loc 1 1985 0
 2450 0092 0320     		movs	r0, #3
 2451              	.LVL188:
 2452              	.LBE160:
 2453              	.LBE159:
ARM GAS  C:\Users\EBANO_~1\AppData\Local\Temp\cc7eeVhF.s 			page 90


1340:../../../../../../Drivers/STM32L0xx_HAL_Driver/Src/stm32l0xx_hal_adc.c ****     }
 2454              		.loc 1 1340 0
 2455 0094 A36D     		ldr	r3, [r4, #88]
 2456 0096 1343     		orrs	r3, r2
 2457 0098 A365     		str	r3, [r4, #88]
1344:../../../../../../Drivers/STM32L0xx_HAL_Driver/Src/stm32l0xx_hal_adc.c ****     
 2458              		.loc 1 1344 0
 2459 009a 2368     		ldr	r3, [r4]
 2460 009c 5A68     		ldr	r2, [r3, #4]
 2461 009e 8A43     		bics	r2, r1
 2462 00a0 5A60     		str	r2, [r3, #4]
 2463              	.LVL189:
 2464              	.LBB165:
 2465              	.LBB163:
1985:../../../../../../Drivers/STM32L0xx_HAL_Driver/Src/stm32l0xx_hal_adc.c ****   {
 2466              		.loc 1 1985 0
 2467 00a2 9A68     		ldr	r2, [r3, #8]
 2468 00a4 0240     		ands	r2, r0
 2469 00a6 012A     		cmp	r2, #1
 2470 00a8 E2D1     		bne	.L248
 2471 00aa 1E68     		ldr	r6, [r3]
 2472 00ac 3242     		tst	r2, r6
 2473 00ae DFD0     		beq	.L248
1988:../../../../../../Drivers/STM32L0xx_HAL_Driver/Src/stm32l0xx_hal_adc.c ****     {
 2474              		.loc 1 1988 0
 2475 00b0 0526     		movs	r6, #5
 2476 00b2 9F68     		ldr	r7, [r3, #8]
 2477 00b4 3E40     		ands	r6, r7
 2478 00b6 012E     		cmp	r6, #1
 2479 00b8 20D0     		beq	.L281
1996:../../../../../../Drivers/STM32L0xx_HAL_Driver/Src/stm32l0xx_hal_adc.c ****       
 2480              		.loc 1 1996 0
 2481 00ba A36D     		ldr	r3, [r4, #88]
 2482 00bc 1943     		orrs	r1, r3
 2483 00be A165     		str	r1, [r4, #88]
1999:../../../../../../Drivers/STM32L0xx_HAL_Driver/Src/stm32l0xx_hal_adc.c ****       
 2484              		.loc 1 1999 0
 2485 00c0 E36D     		ldr	r3, [r4, #92]
 2486 00c2 1A43     		orrs	r2, r3
 2487 00c4 E265     		str	r2, [r4, #92]
 2488 00c6 D3E7     		b	.L248
 2489              	.LVL190:
 2490              	.L278:
 2491              	.LBE163:
 2492              	.LBE165:
 2493              	.LBB166:
 2494              	.LBB149:
 2495              	.LBB146:
 2496              	.LBB147:
2065:../../../../../../Drivers/STM32L0xx_HAL_Driver/Src/stm32l0xx_hal_adc.c ****       
 2497              		.loc 1 2065 0
 2498 00c8 1022     		movs	r2, #16
 2499 00ca A36D     		ldr	r3, [r4, #88]
2068:../../../../../../Drivers/STM32L0xx_HAL_Driver/Src/stm32l0xx_hal_adc.c ****         
 2500              		.loc 1 2068 0
 2501 00cc 0125     		movs	r5, #1
2065:../../../../../../Drivers/STM32L0xx_HAL_Driver/Src/stm32l0xx_hal_adc.c ****       
ARM GAS  C:\Users\EBANO_~1\AppData\Local\Temp\cc7eeVhF.s 			page 91


 2502              		.loc 1 2065 0
 2503 00ce 1343     		orrs	r3, r2
 2504 00d0 A365     		str	r3, [r4, #88]
2068:../../../../../../Drivers/STM32L0xx_HAL_Driver/Src/stm32l0xx_hal_adc.c ****         
 2505              		.loc 1 2068 0
 2506 00d2 E36D     		ldr	r3, [r4, #92]
 2507 00d4 0F3A     		subs	r2, r2, #15
 2508 00d6 1343     		orrs	r3, r2
 2509 00d8 E365     		str	r3, [r4, #92]
 2510              	.LVL191:
 2511 00da C9E7     		b	.L248
 2512              	.LVL192:
 2513              	.L280:
 2514              	.LBE147:
 2515              	.LBE146:
 2516              	.LBE149:
 2517              	.LBE166:
 2518              	.LBB167:
 2519              	.LBB155:
1985:../../../../../../Drivers/STM32L0xx_HAL_Driver/Src/stm32l0xx_hal_adc.c ****   {
 2520              		.loc 1 1985 0
 2521 00dc 1E68     		ldr	r6, [r3]
 2522 00de 3242     		tst	r2, r6
 2523 00e0 BFD0     		beq	.L252
1988:../../../../../../Drivers/STM32L0xx_HAL_Driver/Src/stm32l0xx_hal_adc.c ****     {
 2524              		.loc 1 1988 0
 2525 00e2 0526     		movs	r6, #5
 2526 00e4 9F68     		ldr	r7, [r3, #8]
 2527 00e6 3E40     		ands	r6, r7
 2528 00e8 012E     		cmp	r6, #1
 2529 00ea 20D0     		beq	.L282
1996:../../../../../../Drivers/STM32L0xx_HAL_Driver/Src/stm32l0xx_hal_adc.c ****       
 2530              		.loc 1 1996 0
 2531 00ec A36D     		ldr	r3, [r4, #88]
2001:../../../../../../Drivers/STM32L0xx_HAL_Driver/Src/stm32l0xx_hal_adc.c ****     }
 2532              		.loc 1 2001 0
 2533 00ee 0125     		movs	r5, #1
 2534              	.LVL193:
1996:../../../../../../Drivers/STM32L0xx_HAL_Driver/Src/stm32l0xx_hal_adc.c ****       
 2535              		.loc 1 1996 0
 2536 00f0 1943     		orrs	r1, r3
 2537 00f2 A165     		str	r1, [r4, #88]
1999:../../../../../../Drivers/STM32L0xx_HAL_Driver/Src/stm32l0xx_hal_adc.c ****       
 2538              		.loc 1 1999 0
 2539 00f4 E36D     		ldr	r3, [r4, #92]
 2540 00f6 1A43     		orrs	r2, r3
 2541 00f8 E265     		str	r2, [r4, #92]
 2542              	.LVL194:
 2543 00fa B9E7     		b	.L248
 2544              	.LVL195:
 2545              	.L281:
 2546              	.LBE155:
 2547              	.LBE167:
 2548              	.LBB168:
 2549              	.LBB164:
1991:../../../../../../Drivers/STM32L0xx_HAL_Driver/Src/stm32l0xx_hal_adc.c ****     }
 2550              		.loc 1 1991 0
ARM GAS  C:\Users\EBANO_~1\AppData\Local\Temp\cc7eeVhF.s 			page 92


 2551 00fc 0221     		movs	r1, #2
 2552 00fe 9A68     		ldr	r2, [r3, #8]
 2553 0100 0A43     		orrs	r2, r1
 2554 0102 9A60     		str	r2, [r3, #8]
 2555 0104 1860     		str	r0, [r3]
2006:../../../../../../Drivers/STM32L0xx_HAL_Driver/Src/stm32l0xx_hal_adc.c ****     
 2556              		.loc 1 2006 0
 2557 0106 FFF7FEFF 		bl	HAL_GetTick
 2558              	.LVL196:
 2559 010a 0700     		movs	r7, r0
 2560              	.LVL197:
 2561              	.L257:
2008:../../../../../../Drivers/STM32L0xx_HAL_Driver/Src/stm32l0xx_hal_adc.c ****     {
 2562              		.loc 1 2008 0
 2563 010c 2368     		ldr	r3, [r4]
 2564 010e 9B68     		ldr	r3, [r3, #8]
 2565 0110 1E42     		tst	r6, r3
 2566 0112 ADD0     		beq	.L248
2010:../../../../../../Drivers/STM32L0xx_HAL_Driver/Src/stm32l0xx_hal_adc.c ****       {
 2567              		.loc 1 2010 0
 2568 0114 FFF7FEFF 		bl	HAL_GetTick
 2569              	.LVL198:
 2570 0118 C01B     		subs	r0, r0, r7
 2571 011a 0A28     		cmp	r0, #10
 2572 011c F6D9     		bls	.L257
 2573              	.LVL199:
 2574              	.LBB161:
 2575              	.LBB162:
2065:../../../../../../Drivers/STM32L0xx_HAL_Driver/Src/stm32l0xx_hal_adc.c ****       
 2576              		.loc 1 2065 0
 2577 011e 1022     		movs	r2, #16
 2578 0120 A36D     		ldr	r3, [r4, #88]
 2579 0122 1343     		orrs	r3, r2
 2580 0124 A365     		str	r3, [r4, #88]
2068:../../../../../../Drivers/STM32L0xx_HAL_Driver/Src/stm32l0xx_hal_adc.c ****         
 2581              		.loc 1 2068 0
 2582 0126 E36D     		ldr	r3, [r4, #92]
 2583 0128 1E43     		orrs	r6, r3
 2584 012a E665     		str	r6, [r4, #92]
 2585              	.LVL200:
 2586 012c A0E7     		b	.L248
 2587              	.LVL201:
 2588              	.L282:
 2589              	.LBE162:
 2590              	.LBE161:
 2591              	.LBE164:
 2592              	.LBE168:
 2593              	.LBB169:
 2594              	.LBB156:
1991:../../../../../../Drivers/STM32L0xx_HAL_Driver/Src/stm32l0xx_hal_adc.c ****     }
 2595              		.loc 1 1991 0
 2596 012e 0221     		movs	r1, #2
 2597 0130 9A68     		ldr	r2, [r3, #8]
 2598 0132 0A43     		orrs	r2, r1
 2599 0134 9A60     		str	r2, [r3, #8]
 2600 0136 1860     		str	r0, [r3]
2006:../../../../../../Drivers/STM32L0xx_HAL_Driver/Src/stm32l0xx_hal_adc.c ****     
ARM GAS  C:\Users\EBANO_~1\AppData\Local\Temp\cc7eeVhF.s 			page 93


 2601              		.loc 1 2006 0
 2602 0138 FFF7FEFF 		bl	HAL_GetTick
 2603              	.LVL202:
 2604 013c 0700     		movs	r7, r0
 2605              	.LVL203:
 2606              	.L254:
2008:../../../../../../Drivers/STM32L0xx_HAL_Driver/Src/stm32l0xx_hal_adc.c ****     {
 2607              		.loc 1 2008 0
 2608 013e 2368     		ldr	r3, [r4]
 2609 0140 9B68     		ldr	r3, [r3, #8]
 2610 0142 1E42     		tst	r6, r3
 2611 0144 00D1     		bne	.LCB2610
 2612 0146 8CE7     		b	.L252	@long jump
 2613              	.LCB2610:
2010:../../../../../../Drivers/STM32L0xx_HAL_Driver/Src/stm32l0xx_hal_adc.c ****       {
 2614              		.loc 1 2010 0
 2615 0148 FFF7FEFF 		bl	HAL_GetTick
 2616              	.LVL204:
 2617 014c C01B     		subs	r0, r0, r7
 2618 014e 0A28     		cmp	r0, #10
 2619 0150 F5D9     		bls	.L254
 2620              	.LVL205:
 2621              	.LBB152:
 2622              	.LBB153:
2065:../../../../../../Drivers/STM32L0xx_HAL_Driver/Src/stm32l0xx_hal_adc.c ****       
 2623              		.loc 1 2065 0
 2624 0152 1022     		movs	r2, #16
 2625 0154 A36D     		ldr	r3, [r4, #88]
2068:../../../../../../Drivers/STM32L0xx_HAL_Driver/Src/stm32l0xx_hal_adc.c ****         
 2626              		.loc 1 2068 0
 2627 0156 0125     		movs	r5, #1
 2628              	.LVL206:
2065:../../../../../../Drivers/STM32L0xx_HAL_Driver/Src/stm32l0xx_hal_adc.c ****       
 2629              		.loc 1 2065 0
 2630 0158 1343     		orrs	r3, r2
 2631 015a A365     		str	r3, [r4, #88]
2068:../../../../../../Drivers/STM32L0xx_HAL_Driver/Src/stm32l0xx_hal_adc.c ****         
 2632              		.loc 1 2068 0
 2633 015c E36D     		ldr	r3, [r4, #92]
 2634 015e 1E43     		orrs	r6, r3
 2635 0160 E665     		str	r6, [r4, #92]
 2636              	.LVL207:
 2637 0162 85E7     		b	.L248
 2638              	.L284:
 2639              		.align	2
 2640              	.L283:
 2641 0164 FEFEFFFF 		.word	-258
 2642              	.LBE153:
 2643              	.LBE152:
 2644              	.LBE156:
 2645              	.LBE169:
 2646              		.cfi_endproc
 2647              	.LFE50:
 2648              		.size	HAL_ADC_Stop_DMA, .-HAL_ADC_Stop_DMA
 2649              		.section	.text.HAL_ADC_GetValue,"ax",%progbits
 2650              		.align	1
 2651              		.p2align 2,,3
ARM GAS  C:\Users\EBANO_~1\AppData\Local\Temp\cc7eeVhF.s 			page 94


 2652              		.global	HAL_ADC_GetValue
 2653              		.syntax unified
 2654              		.code	16
 2655              		.thumb_func
 2656              		.fpu softvfp
 2657              		.type	HAL_ADC_GetValue, %function
 2658              	HAL_ADC_GetValue:
 2659              	.LFB51:
1396:../../../../../../Drivers/STM32L0xx_HAL_Driver/Src/stm32l0xx_hal_adc.c ****   /* Check the parameters */
 2660              		.loc 1 1396 0
 2661              		.cfi_startproc
 2662              		@ args = 0, pretend = 0, frame = 0
 2663              		@ frame_needed = 0, uses_anonymous_args = 0
 2664              		@ link register save eliminated.
 2665              	.LVL208:
1404:../../../../../../Drivers/STM32L0xx_HAL_Driver/Src/stm32l0xx_hal_adc.c **** }
 2666              		.loc 1 1404 0
 2667 0000 0368     		ldr	r3, [r0]
1405:../../../../../../Drivers/STM32L0xx_HAL_Driver/Src/stm32l0xx_hal_adc.c **** 
 2668              		.loc 1 1405 0
 2669              		@ sp needed
1404:../../../../../../Drivers/STM32L0xx_HAL_Driver/Src/stm32l0xx_hal_adc.c **** }
 2670              		.loc 1 1404 0
 2671 0002 186C     		ldr	r0, [r3, #64]
 2672              	.LVL209:
1405:../../../../../../Drivers/STM32L0xx_HAL_Driver/Src/stm32l0xx_hal_adc.c **** 
 2673              		.loc 1 1405 0
 2674 0004 7047     		bx	lr
 2675              		.cfi_endproc
 2676              	.LFE51:
 2677              		.size	HAL_ADC_GetValue, .-HAL_ADC_GetValue
 2678 0006 C046     		.section	.text.HAL_ADC_ConvCpltCallback,"ax",%progbits
 2679              		.align	1
 2680              		.p2align 2,,3
 2681              		.weak	HAL_ADC_ConvCpltCallback
 2682              		.syntax unified
 2683              		.code	16
 2684              		.thumb_func
 2685              		.fpu softvfp
 2686              		.type	HAL_ADC_ConvCpltCallback, %function
 2687              	HAL_ADC_ConvCpltCallback:
 2688              	.LFB74:
 2689              		.cfi_startproc
 2690              		@ args = 0, pretend = 0, frame = 0
 2691              		@ frame_needed = 0, uses_anonymous_args = 0
 2692              		@ link register save eliminated.
 2693              		@ sp needed
 2694 0000 7047     		bx	lr
 2695              		.cfi_endproc
 2696              	.LFE74:
 2697              		.size	HAL_ADC_ConvCpltCallback, .-HAL_ADC_ConvCpltCallback
 2698 0002 C046     		.section	.text.ADC_DMAConvCplt,"ax",%progbits
 2699              		.align	1
 2700              		.p2align 2,,3
 2701              		.syntax unified
 2702              		.code	16
 2703              		.thumb_func
ARM GAS  C:\Users\EBANO_~1\AppData\Local\Temp\cc7eeVhF.s 			page 95


 2704              		.fpu softvfp
 2705              		.type	ADC_DMAConvCplt, %function
 2706              	ADC_DMAConvCplt:
 2707              	.LFB64:
2087:../../../../../../Drivers/STM32L0xx_HAL_Driver/Src/stm32l0xx_hal_adc.c ****   /* Retrieve ADC handle corresponding to current DMA handle */
 2708              		.loc 1 2087 0
 2709              		.cfi_startproc
 2710              		@ args = 0, pretend = 0, frame = 0
 2711              		@ frame_needed = 0, uses_anonymous_args = 0
 2712              	.LVL210:
2092:../../../../../../Drivers/STM32L0xx_HAL_Driver/Src/stm32l0xx_hal_adc.c ****   {
 2713              		.loc 1 2092 0
 2714 0000 5021     		movs	r1, #80
2089:../../../../../../Drivers/STM32L0xx_HAL_Driver/Src/stm32l0xx_hal_adc.c ****   
 2715              		.loc 1 2089 0
 2716 0002 836A     		ldr	r3, [r0, #40]
 2717              	.LVL211:
2087:../../../../../../Drivers/STM32L0xx_HAL_Driver/Src/stm32l0xx_hal_adc.c ****   /* Retrieve ADC handle corresponding to current DMA handle */
 2718              		.loc 1 2087 0
 2719 0004 10B5     		push	{r4, lr}
 2720              	.LCFI14:
 2721              		.cfi_def_cfa_offset 8
 2722              		.cfi_offset 4, -8
 2723              		.cfi_offset 14, -4
2092:../../../../../../Drivers/STM32L0xx_HAL_Driver/Src/stm32l0xx_hal_adc.c ****   {
 2724              		.loc 1 2092 0
 2725 0006 9A6D     		ldr	r2, [r3, #88]
 2726 0008 1142     		tst	r1, r2
 2727 000a 03D0     		beq	.L295
2137:../../../../../../Drivers/STM32L0xx_HAL_Driver/Src/stm32l0xx_hal_adc.c ****   }
 2728              		.loc 1 2137 0
 2729 000c 1B6D     		ldr	r3, [r3, #80]
 2730              	.LVL212:
 2731 000e 5B6B     		ldr	r3, [r3, #52]
 2732 0010 9847     		blx	r3
 2733              	.LVL213:
 2734              	.L287:
2139:../../../../../../Drivers/STM32L0xx_HAL_Driver/Src/stm32l0xx_hal_adc.c **** 
 2735              		.loc 1 2139 0
 2736              		@ sp needed
 2737 0012 10BD     		pop	{r4, pc}
 2738              	.LVL214:
 2739              	.L295:
2095:../../../../../../Drivers/STM32L0xx_HAL_Driver/Src/stm32l0xx_hal_adc.c ****     
 2740              		.loc 1 2095 0
 2741 0014 8022     		movs	r2, #128
 2742 0016 996D     		ldr	r1, [r3, #88]
 2743 0018 9200     		lsls	r2, r2, #2
 2744 001a 0A43     		orrs	r2, r1
2099:../../../../../../Drivers/STM32L0xx_HAL_Driver/Src/stm32l0xx_hal_adc.c ****        (hadc->Init.ContinuousConvMode == DISABLE)   )
 2745              		.loc 1 2099 0
 2746 001c C021     		movs	r1, #192
2095:../../../../../../Drivers/STM32L0xx_HAL_Driver/Src/stm32l0xx_hal_adc.c ****     
 2747              		.loc 1 2095 0
 2748 001e 9A65     		str	r2, [r3, #88]
2099:../../../../../../Drivers/STM32L0xx_HAL_Driver/Src/stm32l0xx_hal_adc.c ****        (hadc->Init.ContinuousConvMode == DISABLE)   )
 2749              		.loc 1 2099 0
ARM GAS  C:\Users\EBANO_~1\AppData\Local\Temp\cc7eeVhF.s 			page 96


 2750 0020 1A68     		ldr	r2, [r3]
 2751 0022 0901     		lsls	r1, r1, #4
 2752 0024 D068     		ldr	r0, [r2, #12]
 2753              	.LVL215:
 2754 0026 0842     		tst	r0, r1
 2755 0028 13D1     		bne	.L289
2099:../../../../../../Drivers/STM32L0xx_HAL_Driver/Src/stm32l0xx_hal_adc.c ****        (hadc->Init.ContinuousConvMode == DISABLE)   )
 2756              		.loc 1 2099 0 is_stmt 0 discriminator 1
 2757 002a 196A     		ldr	r1, [r3, #32]
 2758 002c 0029     		cmp	r1, #0
 2759 002e 10D1     		bne	.L289
2103:../../../../../../Drivers/STM32L0xx_HAL_Driver/Src/stm32l0xx_hal_adc.c ****       {
 2760              		.loc 1 2103 0 is_stmt 1
 2761 0030 1168     		ldr	r1, [r2]
 2762 0032 0907     		lsls	r1, r1, #28
 2763 0034 0DD5     		bpl	.L289
2107:../../../../../../Drivers/STM32L0xx_HAL_Driver/Src/stm32l0xx_hal_adc.c ****         {
 2764              		.loc 1 2107 0
 2765 0036 9168     		ldr	r1, [r2, #8]
 2766 0038 4907     		lsls	r1, r1, #29
 2767 003a 0ED4     		bmi	.L290
2113:../../../../../../Drivers/STM32L0xx_HAL_Driver/Src/stm32l0xx_hal_adc.c ****           
 2768              		.loc 1 2113 0
 2769 003c 0C20     		movs	r0, #12
 2770 003e 5168     		ldr	r1, [r2, #4]
 2771 0040 8143     		bics	r1, r0
 2772 0042 5160     		str	r1, [r2, #4]
2116:../../../../../../Drivers/STM32L0xx_HAL_Driver/Src/stm32l0xx_hal_adc.c ****                             HAL_ADC_STATE_REG_BUSY,
 2773              		.loc 1 2116 0
 2774 0044 9A6D     		ldr	r2, [r3, #88]
 2775 0046 0949     		ldr	r1, .L296
 2776 0048 0A40     		ands	r2, r1
 2777 004a 0431     		adds	r1, r1, #4
 2778 004c FF31     		adds	r1, r1, #255
 2779 004e 0A43     		orrs	r2, r1
 2780 0050 9A65     		str	r2, [r3, #88]
 2781              	.L289:
2132:../../../../../../Drivers/STM32L0xx_HAL_Driver/Src/stm32l0xx_hal_adc.c ****   }
 2782              		.loc 1 2132 0
 2783 0052 1800     		movs	r0, r3
 2784 0054 FFF7FEFF 		bl	HAL_ADC_ConvCpltCallback
 2785              	.LVL216:
 2786 0058 DBE7     		b	.L287
 2787              	.LVL217:
 2788              	.L290:
2123:../../../../../../Drivers/STM32L0xx_HAL_Driver/Src/stm32l0xx_hal_adc.c ****           
 2789              		.loc 1 2123 0
 2790 005a 2021     		movs	r1, #32
 2791 005c 9A6D     		ldr	r2, [r3, #88]
 2792 005e 0A43     		orrs	r2, r1
 2793 0060 9A65     		str	r2, [r3, #88]
2126:../../../../../../Drivers/STM32L0xx_HAL_Driver/Src/stm32l0xx_hal_adc.c ****         }
 2794              		.loc 1 2126 0
 2795 0062 DA6D     		ldr	r2, [r3, #92]
 2796 0064 1F39     		subs	r1, r1, #31
 2797 0066 0A43     		orrs	r2, r1
 2798 0068 DA65     		str	r2, [r3, #92]
ARM GAS  C:\Users\EBANO_~1\AppData\Local\Temp\cc7eeVhF.s 			page 97


 2799 006a F2E7     		b	.L289
 2800              	.L297:
 2801              		.align	2
 2802              	.L296:
 2803 006c FEFEFFFF 		.word	-258
 2804              		.cfi_endproc
 2805              	.LFE64:
 2806              		.size	ADC_DMAConvCplt, .-ADC_DMAConvCplt
 2807              		.section	.text.HAL_ADC_ConvHalfCpltCallback,"ax",%progbits
 2808              		.align	1
 2809              		.p2align 2,,3
 2810              		.weak	HAL_ADC_ConvHalfCpltCallback
 2811              		.syntax unified
 2812              		.code	16
 2813              		.thumb_func
 2814              		.fpu softvfp
 2815              		.type	HAL_ADC_ConvHalfCpltCallback, %function
 2816              	HAL_ADC_ConvHalfCpltCallback:
 2817              	.LFB76:
 2818              		.cfi_startproc
 2819              		@ args = 0, pretend = 0, frame = 0
 2820              		@ frame_needed = 0, uses_anonymous_args = 0
 2821              		@ link register save eliminated.
 2822              		@ sp needed
 2823 0000 7047     		bx	lr
 2824              		.cfi_endproc
 2825              	.LFE76:
 2826              		.size	HAL_ADC_ConvHalfCpltCallback, .-HAL_ADC_ConvHalfCpltCallback
 2827 0002 C046     		.section	.text.ADC_DMAHalfConvCplt,"ax",%progbits
 2828              		.align	1
 2829              		.p2align 2,,3
 2830              		.syntax unified
 2831              		.code	16
 2832              		.thumb_func
 2833              		.fpu softvfp
 2834              		.type	ADC_DMAHalfConvCplt, %function
 2835              	ADC_DMAHalfConvCplt:
 2836              	.LFB65:
2147:../../../../../../Drivers/STM32L0xx_HAL_Driver/Src/stm32l0xx_hal_adc.c ****   /* Retrieve ADC handle corresponding to current DMA handle */
 2837              		.loc 1 2147 0
 2838              		.cfi_startproc
 2839              		@ args = 0, pretend = 0, frame = 0
 2840              		@ frame_needed = 0, uses_anonymous_args = 0
 2841              	.LVL218:
2147:../../../../../../Drivers/STM32L0xx_HAL_Driver/Src/stm32l0xx_hal_adc.c ****   /* Retrieve ADC handle corresponding to current DMA handle */
 2842              		.loc 1 2147 0
 2843 0000 10B5     		push	{r4, lr}
 2844              	.LCFI15:
 2845              		.cfi_def_cfa_offset 8
 2846              		.cfi_offset 4, -8
 2847              		.cfi_offset 14, -4
2152:../../../../../../Drivers/STM32L0xx_HAL_Driver/Src/stm32l0xx_hal_adc.c **** }
 2848              		.loc 1 2152 0
 2849 0002 806A     		ldr	r0, [r0, #40]
 2850              	.LVL219:
 2851 0004 FFF7FEFF 		bl	HAL_ADC_ConvHalfCpltCallback
 2852              	.LVL220:
ARM GAS  C:\Users\EBANO_~1\AppData\Local\Temp\cc7eeVhF.s 			page 98


2153:../../../../../../Drivers/STM32L0xx_HAL_Driver/Src/stm32l0xx_hal_adc.c **** 
 2853              		.loc 1 2153 0
 2854              		@ sp needed
 2855 0008 10BD     		pop	{r4, pc}
 2856              		.cfi_endproc
 2857              	.LFE65:
 2858              		.size	ADC_DMAHalfConvCplt, .-ADC_DMAHalfConvCplt
 2859 000a C046     		.section	.text.HAL_ADC_LevelOutOfWindowCallback,"ax",%progbits
 2860              		.align	1
 2861              		.p2align 2,,3
 2862              		.weak	HAL_ADC_LevelOutOfWindowCallback
 2863              		.syntax unified
 2864              		.code	16
 2865              		.thumb_func
 2866              		.fpu softvfp
 2867              		.type	HAL_ADC_LevelOutOfWindowCallback, %function
 2868              	HAL_ADC_LevelOutOfWindowCallback:
 2869              	.LFB78:
 2870              		.cfi_startproc
 2871              		@ args = 0, pretend = 0, frame = 0
 2872              		@ frame_needed = 0, uses_anonymous_args = 0
 2873              		@ link register save eliminated.
 2874              		@ sp needed
 2875 0000 7047     		bx	lr
 2876              		.cfi_endproc
 2877              	.LFE78:
 2878              		.size	HAL_ADC_LevelOutOfWindowCallback, .-HAL_ADC_LevelOutOfWindowCallback
 2879 0002 C046     		.section	.text.HAL_ADC_ErrorCallback,"ax",%progbits
 2880              		.align	1
 2881              		.p2align 2,,3
 2882              		.weak	HAL_ADC_ErrorCallback
 2883              		.syntax unified
 2884              		.code	16
 2885              		.thumb_func
 2886              		.fpu softvfp
 2887              		.type	HAL_ADC_ErrorCallback, %function
 2888              	HAL_ADC_ErrorCallback:
 2889              	.LFB80:
 2890              		.cfi_startproc
 2891              		@ args = 0, pretend = 0, frame = 0
 2892              		@ frame_needed = 0, uses_anonymous_args = 0
 2893              		@ link register save eliminated.
 2894              		@ sp needed
 2895 0000 7047     		bx	lr
 2896              		.cfi_endproc
 2897              	.LFE80:
 2898              		.size	HAL_ADC_ErrorCallback, .-HAL_ADC_ErrorCallback
 2899 0002 C046     		.section	.text.ADC_DMAError,"ax",%progbits
 2900              		.align	1
 2901              		.p2align 2,,3
 2902              		.syntax unified
 2903              		.code	16
 2904              		.thumb_func
 2905              		.fpu softvfp
 2906              		.type	ADC_DMAError, %function
 2907              	ADC_DMAError:
 2908              	.LFB66:
ARM GAS  C:\Users\EBANO_~1\AppData\Local\Temp\cc7eeVhF.s 			page 99


2161:../../../../../../Drivers/STM32L0xx_HAL_Driver/Src/stm32l0xx_hal_adc.c ****   /* Retrieve ADC handle corresponding to current DMA handle */
 2909              		.loc 1 2161 0
 2910              		.cfi_startproc
 2911              		@ args = 0, pretend = 0, frame = 0
 2912              		@ frame_needed = 0, uses_anonymous_args = 0
 2913              	.LVL221:
2166:../../../../../../Drivers/STM32L0xx_HAL_Driver/Src/stm32l0xx_hal_adc.c ****   
 2914              		.loc 1 2166 0
 2915 0000 4022     		movs	r2, #64
2163:../../../../../../Drivers/STM32L0xx_HAL_Driver/Src/stm32l0xx_hal_adc.c ****   
 2916              		.loc 1 2163 0
 2917 0002 806A     		ldr	r0, [r0, #40]
 2918              	.LVL222:
2161:../../../../../../Drivers/STM32L0xx_HAL_Driver/Src/stm32l0xx_hal_adc.c ****   /* Retrieve ADC handle corresponding to current DMA handle */
 2919              		.loc 1 2161 0
 2920 0004 10B5     		push	{r4, lr}
 2921              	.LCFI16:
 2922              		.cfi_def_cfa_offset 8
 2923              		.cfi_offset 4, -8
 2924              		.cfi_offset 14, -4
2166:../../../../../../Drivers/STM32L0xx_HAL_Driver/Src/stm32l0xx_hal_adc.c ****   
 2925              		.loc 1 2166 0
 2926 0006 836D     		ldr	r3, [r0, #88]
2173:../../../../../../Drivers/STM32L0xx_HAL_Driver/Src/stm32l0xx_hal_adc.c **** 
 2927              		.loc 1 2173 0
 2928              		@ sp needed
2166:../../../../../../Drivers/STM32L0xx_HAL_Driver/Src/stm32l0xx_hal_adc.c ****   
 2929              		.loc 1 2166 0
 2930 0008 1343     		orrs	r3, r2
 2931 000a 8365     		str	r3, [r0, #88]
2169:../../../../../../Drivers/STM32L0xx_HAL_Driver/Src/stm32l0xx_hal_adc.c ****   
 2932              		.loc 1 2169 0
 2933 000c C36D     		ldr	r3, [r0, #92]
 2934 000e 3C3A     		subs	r2, r2, #60
 2935 0010 1343     		orrs	r3, r2
 2936 0012 C365     		str	r3, [r0, #92]
2172:../../../../../../Drivers/STM32L0xx_HAL_Driver/Src/stm32l0xx_hal_adc.c **** }
 2937              		.loc 1 2172 0
 2938 0014 FFF7FEFF 		bl	HAL_ADC_ErrorCallback
 2939              	.LVL223:
2173:../../../../../../Drivers/STM32L0xx_HAL_Driver/Src/stm32l0xx_hal_adc.c **** 
 2940              		.loc 1 2173 0
 2941 0018 10BD     		pop	{r4, pc}
 2942              		.cfi_endproc
 2943              	.LFE66:
 2944              		.size	ADC_DMAError, .-ADC_DMAError
 2945 001a C046     		.section	.text.HAL_ADC_IRQHandler,"ax",%progbits
 2946              		.align	1
 2947              		.p2align 2,,3
 2948              		.global	HAL_ADC_IRQHandler
 2949              		.syntax unified
 2950              		.code	16
 2951              		.thumb_func
 2952              		.fpu softvfp
 2953              		.type	HAL_ADC_IRQHandler, %function
 2954              	HAL_ADC_IRQHandler:
 2955              	.LFB52:
ARM GAS  C:\Users\EBANO_~1\AppData\Local\Temp\cc7eeVhF.s 			page 100


1413:../../../../../../Drivers/STM32L0xx_HAL_Driver/Src/stm32l0xx_hal_adc.c ****   /* Check the parameters */
 2956              		.loc 1 1413 0
 2957              		.cfi_startproc
 2958              		@ args = 0, pretend = 0, frame = 0
 2959              		@ frame_needed = 0, uses_anonymous_args = 0
 2960              	.LVL224:
1420:../../../../../../Drivers/STM32L0xx_HAL_Driver/Src/stm32l0xx_hal_adc.c ****       (__HAL_ADC_GET_FLAG(hadc, ADC_FLAG_EOS) && __HAL_ADC_GET_IT_SOURCE(hadc, ADC_IT_EOS))   )
 2961              		.loc 1 1420 0
 2962 0000 0422     		movs	r2, #4
 2963 0002 0368     		ldr	r3, [r0]
1413:../../../../../../Drivers/STM32L0xx_HAL_Driver/Src/stm32l0xx_hal_adc.c ****   /* Check the parameters */
 2964              		.loc 1 1413 0
 2965 0004 70B5     		push	{r4, r5, r6, lr}
 2966              	.LCFI17:
 2967              		.cfi_def_cfa_offset 16
 2968              		.cfi_offset 4, -16
 2969              		.cfi_offset 5, -12
 2970              		.cfi_offset 6, -8
 2971              		.cfi_offset 14, -4
1420:../../../../../../Drivers/STM32L0xx_HAL_Driver/Src/stm32l0xx_hal_adc.c ****       (__HAL_ADC_GET_FLAG(hadc, ADC_FLAG_EOS) && __HAL_ADC_GET_IT_SOURCE(hadc, ADC_IT_EOS))   )
 2972              		.loc 1 1420 0
 2973 0006 1968     		ldr	r1, [r3]
1413:../../../../../../Drivers/STM32L0xx_HAL_Driver/Src/stm32l0xx_hal_adc.c ****   /* Check the parameters */
 2974              		.loc 1 1413 0
 2975 0008 0400     		movs	r4, r0
1420:../../../../../../Drivers/STM32L0xx_HAL_Driver/Src/stm32l0xx_hal_adc.c ****       (__HAL_ADC_GET_FLAG(hadc, ADC_FLAG_EOS) && __HAL_ADC_GET_IT_SOURCE(hadc, ADC_IT_EOS))   )
 2976              		.loc 1 1420 0
 2977 000a 0A42     		tst	r2, r1
 2978 000c 4DD0     		beq	.L304
1420:../../../../../../Drivers/STM32L0xx_HAL_Driver/Src/stm32l0xx_hal_adc.c ****       (__HAL_ADC_GET_FLAG(hadc, ADC_FLAG_EOS) && __HAL_ADC_GET_IT_SOURCE(hadc, ADC_IT_EOS))   )
 2979              		.loc 1 1420 0 is_stmt 0 discriminator 1
 2980 000e 5968     		ldr	r1, [r3, #4]
 2981 0010 0A42     		tst	r2, r1
 2982 0012 4AD0     		beq	.L304
 2983              	.L305:
1424:../../../../../../Drivers/STM32L0xx_HAL_Driver/Src/stm32l0xx_hal_adc.c ****     {
 2984              		.loc 1 1424 0 is_stmt 1
 2985 0014 A26D     		ldr	r2, [r4, #88]
 2986 0016 D206     		lsls	r2, r2, #27
 2987 0018 04D4     		bmi	.L307
1427:../../../../../../Drivers/STM32L0xx_HAL_Driver/Src/stm32l0xx_hal_adc.c ****     }
 2988              		.loc 1 1427 0
 2989 001a 8022     		movs	r2, #128
 2990 001c A16D     		ldr	r1, [r4, #88]
 2991 001e 9200     		lsls	r2, r2, #2
 2992 0020 0A43     		orrs	r2, r1
 2993 0022 A265     		str	r2, [r4, #88]
 2994              	.L307:
1432:../../../../../../Drivers/STM32L0xx_HAL_Driver/Src/stm32l0xx_hal_adc.c ****        (hadc->Init.ContinuousConvMode == DISABLE)   )
 2995              		.loc 1 1432 0
 2996 0024 C022     		movs	r2, #192
 2997 0026 D968     		ldr	r1, [r3, #12]
 2998 0028 1201     		lsls	r2, r2, #4
 2999 002a 1142     		tst	r1, r2
 3000 002c 13D1     		bne	.L308
1432:../../../../../../Drivers/STM32L0xx_HAL_Driver/Src/stm32l0xx_hal_adc.c ****        (hadc->Init.ContinuousConvMode == DISABLE)   )
 3001              		.loc 1 1432 0 is_stmt 0 discriminator 1
ARM GAS  C:\Users\EBANO_~1\AppData\Local\Temp\cc7eeVhF.s 			page 101


 3002 002e 226A     		ldr	r2, [r4, #32]
 3003 0030 002A     		cmp	r2, #0
 3004 0032 10D1     		bne	.L308
1436:../../../../../../Drivers/STM32L0xx_HAL_Driver/Src/stm32l0xx_hal_adc.c ****       {
 3005              		.loc 1 1436 0 is_stmt 1
 3006 0034 1A68     		ldr	r2, [r3]
 3007 0036 1207     		lsls	r2, r2, #28
 3008 0038 0DD5     		bpl	.L308
1440:../../../../../../Drivers/STM32L0xx_HAL_Driver/Src/stm32l0xx_hal_adc.c ****         {
 3009              		.loc 1 1440 0
 3010 003a 9A68     		ldr	r2, [r3, #8]
 3011 003c 5207     		lsls	r2, r2, #29
 3012 003e 49D4     		bmi	.L309
1446:../../../../../../Drivers/STM32L0xx_HAL_Driver/Src/stm32l0xx_hal_adc.c ****           
 3013              		.loc 1 1446 0
 3014 0040 0C21     		movs	r1, #12
 3015 0042 5A68     		ldr	r2, [r3, #4]
 3016 0044 8A43     		bics	r2, r1
 3017 0046 5A60     		str	r2, [r3, #4]
1449:../../../../../../Drivers/STM32L0xx_HAL_Driver/Src/stm32l0xx_hal_adc.c ****                             HAL_ADC_STATE_REG_BUSY,
 3018              		.loc 1 1449 0
 3019 0048 A36D     		ldr	r3, [r4, #88]
 3020 004a 274A     		ldr	r2, .L347
 3021 004c 1340     		ands	r3, r2
 3022 004e 0432     		adds	r2, r2, #4
 3023 0050 FF32     		adds	r2, r2, #255
 3024 0052 1343     		orrs	r3, r2
 3025 0054 A365     		str	r3, [r4, #88]
 3026              	.L308:
1468:../../../../../../Drivers/STM32L0xx_HAL_Driver/Src/stm32l0xx_hal_adc.c ****     
 3027              		.loc 1 1468 0
 3028 0056 2000     		movs	r0, r4
 3029              	.LVL225:
 3030 0058 FFF7FEFF 		bl	HAL_ADC_ConvCpltCallback
 3031              	.LVL226:
1480:../../../../../../Drivers/STM32L0xx_HAL_Driver/Src/stm32l0xx_hal_adc.c ****     {
 3032              		.loc 1 1480 0
 3033 005c A369     		ldr	r3, [r4, #24]
 3034 005e 012B     		cmp	r3, #1
 3035 0060 36D0     		beq	.L345
1482:../../../../../../Drivers/STM32L0xx_HAL_Driver/Src/stm32l0xx_hal_adc.c ****     }
 3036              		.loc 1 1482 0
 3037 0062 0C22     		movs	r2, #12
 3038 0064 2368     		ldr	r3, [r4]
 3039 0066 1A60     		str	r2, [r3]
 3040              	.L306:
1487:../../../../../../Drivers/STM32L0xx_HAL_Driver/Src/stm32l0xx_hal_adc.c ****   {
 3041              		.loc 1 1487 0
 3042 0068 8025     		movs	r5, #128
 3043 006a 1A68     		ldr	r2, [r3]
 3044 006c 1542     		tst	r5, r2
 3045 006e 02D0     		beq	.L311
1487:../../../../../../Drivers/STM32L0xx_HAL_Driver/Src/stm32l0xx_hal_adc.c ****   {
 3046              		.loc 1 1487 0 is_stmt 0 discriminator 1
 3047 0070 5A68     		ldr	r2, [r3, #4]
 3048 0072 1542     		tst	r5, r2
 3049 0074 21D1     		bne	.L346
ARM GAS  C:\Users\EBANO_~1\AppData\Local\Temp\cc7eeVhF.s 			page 102


 3050              	.L311:
1502:../../../../../../Drivers/STM32L0xx_HAL_Driver/Src/stm32l0xx_hal_adc.c ****   {
 3051              		.loc 1 1502 0 is_stmt 1
 3052 0076 1022     		movs	r2, #16
 3053 0078 1968     		ldr	r1, [r3]
 3054 007a 0A42     		tst	r2, r1
 3055 007c 14D0     		beq	.L303
1502:../../../../../../Drivers/STM32L0xx_HAL_Driver/Src/stm32l0xx_hal_adc.c ****   {
 3056              		.loc 1 1502 0 is_stmt 0 discriminator 1
 3057 007e 5968     		ldr	r1, [r3, #4]
 3058 0080 0A42     		tst	r2, r1
 3059 0082 11D0     		beq	.L303
1510:../../../../../../Drivers/STM32L0xx_HAL_Driver/Src/stm32l0xx_hal_adc.c ****         HAL_IS_BIT_SET(hadc->Instance->CFGR1, ADC_CFGR1_DMAEN)  )
 3060              		.loc 1 1510 0 is_stmt 1
 3061 0084 626B     		ldr	r2, [r4, #52]
 3062 0086 002A     		cmp	r2, #0
 3063 0088 02D0     		beq	.L313
1511:../../../../../../Drivers/STM32L0xx_HAL_Driver/Src/stm32l0xx_hal_adc.c ****     {
 3064              		.loc 1 1511 0 discriminator 1
 3065 008a DA68     		ldr	r2, [r3, #12]
1510:../../../../../../Drivers/STM32L0xx_HAL_Driver/Src/stm32l0xx_hal_adc.c ****         HAL_IS_BIT_SET(hadc->Instance->CFGR1, ADC_CFGR1_DMAEN)  )
 3066              		.loc 1 1510 0 discriminator 1
 3067 008c D207     		lsls	r2, r2, #31
 3068 008e 09D5     		bpl	.L314
 3069              	.L313:
1514:../../../../../../Drivers/STM32L0xx_HAL_Driver/Src/stm32l0xx_hal_adc.c ****       
 3070              		.loc 1 1514 0
 3071 0090 0221     		movs	r1, #2
 3072 0092 E26D     		ldr	r2, [r4, #92]
1520:../../../../../../Drivers/STM32L0xx_HAL_Driver/Src/stm32l0xx_hal_adc.c ****     }
 3073              		.loc 1 1520 0
 3074 0094 2000     		movs	r0, r4
1514:../../../../../../Drivers/STM32L0xx_HAL_Driver/Src/stm32l0xx_hal_adc.c ****       
 3075              		.loc 1 1514 0
 3076 0096 0A43     		orrs	r2, r1
 3077 0098 E265     		str	r2, [r4, #92]
1517:../../../../../../Drivers/STM32L0xx_HAL_Driver/Src/stm32l0xx_hal_adc.c ****       
 3078              		.loc 1 1517 0
 3079 009a 1022     		movs	r2, #16
 3080 009c 1A60     		str	r2, [r3]
1520:../../../../../../Drivers/STM32L0xx_HAL_Driver/Src/stm32l0xx_hal_adc.c ****     }
 3081              		.loc 1 1520 0
 3082 009e FFF7FEFF 		bl	HAL_ADC_ErrorCallback
 3083              	.LVL227:
 3084 00a2 2368     		ldr	r3, [r4]
 3085              	.L314:
1524:../../../../../../Drivers/STM32L0xx_HAL_Driver/Src/stm32l0xx_hal_adc.c ****   }
 3086              		.loc 1 1524 0
 3087 00a4 1022     		movs	r2, #16
 3088 00a6 1A60     		str	r2, [r3]
 3089              	.L303:
1527:../../../../../../Drivers/STM32L0xx_HAL_Driver/Src/stm32l0xx_hal_adc.c **** 
 3090              		.loc 1 1527 0
 3091              		@ sp needed
 3092              	.LVL228:
 3093 00a8 70BD     		pop	{r4, r5, r6, pc}
 3094              	.LVL229:
ARM GAS  C:\Users\EBANO_~1\AppData\Local\Temp\cc7eeVhF.s 			page 103


 3095              	.L304:
1421:../../../../../../Drivers/STM32L0xx_HAL_Driver/Src/stm32l0xx_hal_adc.c ****   {
 3096              		.loc 1 1421 0 discriminator 3
 3097 00aa 0822     		movs	r2, #8
 3098 00ac 1968     		ldr	r1, [r3]
1420:../../../../../../Drivers/STM32L0xx_HAL_Driver/Src/stm32l0xx_hal_adc.c ****       (__HAL_ADC_GET_FLAG(hadc, ADC_FLAG_EOS) && __HAL_ADC_GET_IT_SOURCE(hadc, ADC_IT_EOS))   )
 3099              		.loc 1 1420 0 discriminator 3
 3100 00ae 0A42     		tst	r2, r1
 3101 00b0 DAD0     		beq	.L306
1421:../../../../../../Drivers/STM32L0xx_HAL_Driver/Src/stm32l0xx_hal_adc.c ****   {
 3102              		.loc 1 1421 0
 3103 00b2 5968     		ldr	r1, [r3, #4]
 3104 00b4 0A42     		tst	r2, r1
 3105 00b6 D7D0     		beq	.L306
 3106 00b8 ACE7     		b	.L305
 3107              	.LVL230:
 3108              	.L346:
1490:../../../../../../Drivers/STM32L0xx_HAL_Driver/Src/stm32l0xx_hal_adc.c ****     
 3109              		.loc 1 1490 0
 3110 00ba 8023     		movs	r3, #128
 3111 00bc A26D     		ldr	r2, [r4, #88]
 3112 00be 5B02     		lsls	r3, r3, #9
 3113 00c0 1343     		orrs	r3, r2
 3114 00c2 A365     		str	r3, [r4, #88]
1493:../../../../../../Drivers/STM32L0xx_HAL_Driver/Src/stm32l0xx_hal_adc.c ****     
 3115              		.loc 1 1493 0
 3116 00c4 2000     		movs	r0, r4
 3117 00c6 FFF7FEFF 		bl	HAL_ADC_LevelOutOfWindowCallback
 3118              	.LVL231:
1496:../../../../../../Drivers/STM32L0xx_HAL_Driver/Src/stm32l0xx_hal_adc.c ****    
 3119              		.loc 1 1496 0
 3120 00ca 2368     		ldr	r3, [r4]
 3121 00cc 1D60     		str	r5, [r3]
 3122 00ce D2E7     		b	.L311
 3123              	.L345:
 3124 00d0 2368     		ldr	r3, [r4]
 3125 00d2 C9E7     		b	.L306
 3126              	.LVL232:
 3127              	.L309:
1456:../../../../../../Drivers/STM32L0xx_HAL_Driver/Src/stm32l0xx_hal_adc.c ****           
 3128              		.loc 1 1456 0
 3129 00d4 2022     		movs	r2, #32
 3130 00d6 A36D     		ldr	r3, [r4, #88]
 3131 00d8 1343     		orrs	r3, r2
 3132 00da A365     		str	r3, [r4, #88]
1459:../../../../../../Drivers/STM32L0xx_HAL_Driver/Src/stm32l0xx_hal_adc.c ****         }
 3133              		.loc 1 1459 0
 3134 00dc E36D     		ldr	r3, [r4, #92]
 3135 00de 1F3A     		subs	r2, r2, #31
 3136 00e0 1343     		orrs	r3, r2
 3137 00e2 E365     		str	r3, [r4, #92]
 3138 00e4 B7E7     		b	.L308
 3139              	.L348:
 3140 00e6 C046     		.align	2
 3141              	.L347:
 3142 00e8 FEFEFFFF 		.word	-258
 3143              		.cfi_endproc
ARM GAS  C:\Users\EBANO_~1\AppData\Local\Temp\cc7eeVhF.s 			page 104


 3144              	.LFE52:
 3145              		.size	HAL_ADC_IRQHandler, .-HAL_ADC_IRQHandler
 3146              		.section	.text.HAL_ADC_ConfigChannel,"ax",%progbits
 3147              		.align	1
 3148              		.p2align 2,,3
 3149              		.global	HAL_ADC_ConfigChannel
 3150              		.syntax unified
 3151              		.code	16
 3152              		.thumb_func
 3153              		.fpu softvfp
 3154              		.type	HAL_ADC_ConfigChannel, %function
 3155              	HAL_ADC_ConfigChannel:
 3156              	.LFB57:
1638:../../../../../../Drivers/STM32L0xx_HAL_Driver/Src/stm32l0xx_hal_adc.c ****   /* Check the parameters */
 3157              		.loc 1 1638 0
 3158              		.cfi_startproc
 3159              		@ args = 0, pretend = 0, frame = 8
 3160              		@ frame_needed = 0, uses_anonymous_args = 0
 3161              	.LVL233:
1645:../../../../../../Drivers/STM32L0xx_HAL_Driver/Src/stm32l0xx_hal_adc.c ****   
 3162              		.loc 1 1645 0
 3163 0000 5423     		movs	r3, #84
1638:../../../../../../Drivers/STM32L0xx_HAL_Driver/Src/stm32l0xx_hal_adc.c ****   /* Check the parameters */
 3164              		.loc 1 1638 0
 3165 0002 70B5     		push	{r4, r5, r6, lr}
 3166              	.LCFI18:
 3167              		.cfi_def_cfa_offset 16
 3168              		.cfi_offset 4, -16
 3169              		.cfi_offset 5, -12
 3170              		.cfi_offset 6, -8
 3171              		.cfi_offset 14, -4
1645:../../../../../../Drivers/STM32L0xx_HAL_Driver/Src/stm32l0xx_hal_adc.c ****   
 3172              		.loc 1 1645 0
 3173 0004 C25C     		ldrb	r2, [r0, r3]
1638:../../../../../../Drivers/STM32L0xx_HAL_Driver/Src/stm32l0xx_hal_adc.c ****   /* Check the parameters */
 3174              		.loc 1 1638 0
 3175 0006 82B0     		sub	sp, sp, #8
 3176              	.LCFI19:
 3177              		.cfi_def_cfa_offset 24
1638:../../../../../../Drivers/STM32L0xx_HAL_Driver/Src/stm32l0xx_hal_adc.c ****   /* Check the parameters */
 3178              		.loc 1 1638 0
 3179 0008 0400     		movs	r4, r0
1645:../../../../../../Drivers/STM32L0xx_HAL_Driver/Src/stm32l0xx_hal_adc.c ****   
 3180              		.loc 1 1645 0
 3181 000a 012A     		cmp	r2, #1
 3182 000c 42D0     		beq	.L359
1645:../../../../../../Drivers/STM32L0xx_HAL_Driver/Src/stm32l0xx_hal_adc.c ****   
 3183              		.loc 1 1645 0 is_stmt 0 discriminator 2
 3184 000e 0122     		movs	r2, #1
 3185 0010 C254     		strb	r2, [r0, r3]
1652:../../../../../../Drivers/STM32L0xx_HAL_Driver/Src/stm32l0xx_hal_adc.c ****   {
 3186              		.loc 1 1652 0 is_stmt 1 discriminator 2
 3187 0012 0268     		ldr	r2, [r0]
 3188 0014 9068     		ldr	r0, [r2, #8]
 3189              	.LVL234:
 3190 0016 4007     		lsls	r0, r0, #29
 3191 0018 33D4     		bmi	.L373
ARM GAS  C:\Users\EBANO_~1\AppData\Local\Temp\cc7eeVhF.s 			page 105


 3192 001a 8023     		movs	r3, #128
 3193 001c 0D68     		ldr	r5, [r1]
1661:../../../../../../Drivers/STM32L0xx_HAL_Driver/Src/stm32l0xx_hal_adc.c ****   {
 3194              		.loc 1 1661 0
 3195 001e 274E     		ldr	r6, .L374
 3196 0020 4968     		ldr	r1, [r1, #4]
 3197              	.LVL235:
 3198 0022 6803     		lsls	r0, r5, #13
 3199 0024 DB02     		lsls	r3, r3, #11
 3200 0026 400B     		lsrs	r0, r0, #13
 3201 0028 2B40     		ands	r3, r5
 3202 002a B142     		cmp	r1, r6
 3203 002c 34D0     		beq	.L352
1664:../../../../../../Drivers/STM32L0xx_HAL_Driver/Src/stm32l0xx_hal_adc.c ****     
 3204              		.loc 1 1664 0
 3205 002e 916A     		ldr	r1, [r2, #40]
 3206 0030 0843     		orrs	r0, r1
 3207 0032 9062     		str	r0, [r2, #40]
1673:../../../../../../Drivers/STM32L0xx_HAL_Driver/Src/stm32l0xx_hal_adc.c ****     {
 3208              		.loc 1 1673 0
 3209 0034 002B     		cmp	r3, #0
 3210 0036 17D0     		beq	.L353
1675:../../../../../../Drivers/STM32L0xx_HAL_Driver/Src/stm32l0xx_hal_adc.c ****       
 3211              		.loc 1 1675 0
 3212 0038 8023     		movs	r3, #128
 3213 003a 214A     		ldr	r2, .L374+4
 3214 003c 1B04     		lsls	r3, r3, #16
 3215 003e 1168     		ldr	r1, [r2]
 3216 0040 0B43     		orrs	r3, r1
 3217 0042 1360     		str	r3, [r2]
 3218              	.LVL236:
 3219              	.LBB170:
 3220              	.LBB171:
2183:../../../../../../Drivers/STM32L0xx_HAL_Driver/Src/stm32l0xx_hal_adc.c **** 
 3221              		.loc 1 2183 0
 3222 0044 1F4B     		ldr	r3, .L374+8
 3223 0046 2049     		ldr	r1, .L374+12
 3224 0048 1868     		ldr	r0, [r3]
 3225 004a FFF7FEFF 		bl	__aeabi_uidiv
 3226              	.LVL237:
 3227 004e 8300     		lsls	r3, r0, #2
 3228 0050 1818     		adds	r0, r3, r0
 3229 0052 4000     		lsls	r0, r0, #1
 3230 0054 0190     		str	r0, [sp, #4]
2185:../../../../../../Drivers/STM32L0xx_HAL_Driver/Src/stm32l0xx_hal_adc.c ****   {
 3231              		.loc 1 2185 0
 3232 0056 019B     		ldr	r3, [sp, #4]
 3233 0058 002B     		cmp	r3, #0
 3234 005a 05D0     		beq	.L353
 3235              	.L354:
 3236              		.loc 1 2187 0
 3237 005c 019B     		ldr	r3, [sp, #4]
 3238 005e 013B     		subs	r3, r3, #1
 3239 0060 0193     		str	r3, [sp, #4]
2185:../../../../../../Drivers/STM32L0xx_HAL_Driver/Src/stm32l0xx_hal_adc.c ****   {
 3240              		.loc 1 2185 0
 3241 0062 019B     		ldr	r3, [sp, #4]
ARM GAS  C:\Users\EBANO_~1\AppData\Local\Temp\cc7eeVhF.s 			page 106


 3242 0064 002B     		cmp	r3, #0
 3243 0066 F9D1     		bne	.L354
 3244              	.LVL238:
 3245              	.L353:
 3246              	.LBE171:
 3247              	.LBE170:
1683:../../../../../../Drivers/STM32L0xx_HAL_Driver/Src/stm32l0xx_hal_adc.c ****     {
 3248              		.loc 1 1683 0
 3249 0068 AB03     		lsls	r3, r5, #14
 3250 006a 05D5     		bpl	.L356
1685:../../../../../../Drivers/STM32L0xx_HAL_Driver/Src/stm32l0xx_hal_adc.c ****     }
 3251              		.loc 1 1685 0
 3252 006c 8023     		movs	r3, #128
 3253 006e 144A     		ldr	r2, .L374+4
 3254 0070 DB03     		lsls	r3, r3, #15
 3255 0072 1168     		ldr	r1, [r2]
 3256 0074 0B43     		orrs	r3, r1
 3257 0076 1360     		str	r3, [r2]
 3258              	.L356:
1728:../../../../../../Drivers/STM32L0xx_HAL_Driver/Src/stm32l0xx_hal_adc.c ****   
 3259              		.loc 1 1728 0
 3260 0078 5423     		movs	r3, #84
 3261 007a 0022     		movs	r2, #0
1731:../../../../../../Drivers/STM32L0xx_HAL_Driver/Src/stm32l0xx_hal_adc.c **** }
 3262              		.loc 1 1731 0
 3263 007c 0020     		movs	r0, #0
1728:../../../../../../Drivers/STM32L0xx_HAL_Driver/Src/stm32l0xx_hal_adc.c ****   
 3264              		.loc 1 1728 0
 3265 007e E254     		strb	r2, [r4, r3]
1731:../../../../../../Drivers/STM32L0xx_HAL_Driver/Src/stm32l0xx_hal_adc.c **** }
 3266              		.loc 1 1731 0
 3267 0080 06E0     		b	.L350
 3268              	.LVL239:
 3269              	.L373:
1655:../../../../../../Drivers/STM32L0xx_HAL_Driver/Src/stm32l0xx_hal_adc.c ****     /* Process unlocked */
 3270              		.loc 1 1655 0
 3271 0082 2021     		movs	r1, #32
 3272              	.LVL240:
 3273 0084 A26D     		ldr	r2, [r4, #88]
1658:../../../../../../Drivers/STM32L0xx_HAL_Driver/Src/stm32l0xx_hal_adc.c ****   }
 3274              		.loc 1 1658 0
 3275 0086 0120     		movs	r0, #1
1655:../../../../../../Drivers/STM32L0xx_HAL_Driver/Src/stm32l0xx_hal_adc.c ****     /* Process unlocked */
 3276              		.loc 1 1655 0
 3277 0088 0A43     		orrs	r2, r1
 3278 008a A265     		str	r2, [r4, #88]
1657:../../../../../../Drivers/STM32L0xx_HAL_Driver/Src/stm32l0xx_hal_adc.c ****     return HAL_ERROR;
 3279              		.loc 1 1657 0
 3280 008c 0022     		movs	r2, #0
 3281 008e E254     		strb	r2, [r4, r3]
 3282              	.L350:
1732:../../../../../../Drivers/STM32L0xx_HAL_Driver/Src/stm32l0xx_hal_adc.c **** 
 3283              		.loc 1 1732 0
 3284 0090 02B0     		add	sp, sp, #8
 3285              		@ sp needed
 3286              	.LVL241:
 3287 0092 70BD     		pop	{r4, r5, r6, pc}
ARM GAS  C:\Users\EBANO_~1\AppData\Local\Temp\cc7eeVhF.s 			page 107


 3288              	.LVL242:
 3289              	.L359:
1645:../../../../../../Drivers/STM32L0xx_HAL_Driver/Src/stm32l0xx_hal_adc.c ****   
 3290              		.loc 1 1645 0
 3291 0094 0220     		movs	r0, #2
 3292              	.LVL243:
 3293 0096 FBE7     		b	.L350
 3294              	.LVL244:
 3295              	.L352:
1700:../../../../../../Drivers/STM32L0xx_HAL_Driver/Src/stm32l0xx_hal_adc.c ****     
 3296              		.loc 1 1700 0
 3297 0098 916A     		ldr	r1, [r2, #40]
 3298 009a 8143     		bics	r1, r0
 3299 009c 9162     		str	r1, [r2, #40]
1706:../../../../../../Drivers/STM32L0xx_HAL_Driver/Src/stm32l0xx_hal_adc.c ****     {
 3300              		.loc 1 1706 0
 3301 009e 002B     		cmp	r3, #0
 3302 00a0 04D0     		beq	.L357
1708:../../../../../../Drivers/STM32L0xx_HAL_Driver/Src/stm32l0xx_hal_adc.c ****     }
 3303              		.loc 1 1708 0
 3304 00a2 074A     		ldr	r2, .L374+4
 3305 00a4 0949     		ldr	r1, .L374+16
 3306 00a6 1368     		ldr	r3, [r2]
 3307 00a8 0B40     		ands	r3, r1
 3308 00aa 1360     		str	r3, [r2]
 3309              	.L357:
1713:../../../../../../Drivers/STM32L0xx_HAL_Driver/Src/stm32l0xx_hal_adc.c ****     {
 3310              		.loc 1 1713 0
 3311 00ac AB03     		lsls	r3, r5, #14
 3312 00ae E3D5     		bpl	.L356
1715:../../../../../../Drivers/STM32L0xx_HAL_Driver/Src/stm32l0xx_hal_adc.c ****     }
 3313              		.loc 1 1715 0
 3314 00b0 034A     		ldr	r2, .L374+4
 3315 00b2 0749     		ldr	r1, .L374+20
 3316 00b4 1368     		ldr	r3, [r2]
 3317 00b6 0B40     		ands	r3, r1
 3318 00b8 1360     		str	r3, [r2]
 3319 00ba DDE7     		b	.L356
 3320              	.L375:
 3321              		.align	2
 3322              	.L374:
 3323 00bc 01100000 		.word	4097
 3324 00c0 08270140 		.word	1073817352
 3325 00c4 00000000 		.word	SystemCoreClock
 3326 00c8 40420F00 		.word	1000000
 3327 00cc FFFF7FFF 		.word	-8388609
 3328 00d0 FFFFBFFF 		.word	-4194305
 3329              		.cfi_endproc
 3330              	.LFE57:
 3331              		.size	HAL_ADC_ConfigChannel, .-HAL_ADC_ConfigChannel
 3332              		.section	.text.HAL_ADC_AnalogWDGConfig,"ax",%progbits
 3333              		.align	1
 3334              		.p2align 2,,3
 3335              		.global	HAL_ADC_AnalogWDGConfig
 3336              		.syntax unified
 3337              		.code	16
 3338              		.thumb_func
ARM GAS  C:\Users\EBANO_~1\AppData\Local\Temp\cc7eeVhF.s 			page 108


 3339              		.fpu softvfp
 3340              		.type	HAL_ADC_AnalogWDGConfig, %function
 3341              	HAL_ADC_AnalogWDGConfig:
 3342              	.LFB58:
1757:../../../../../../Drivers/STM32L0xx_HAL_Driver/Src/stm32l0xx_hal_adc.c ****   HAL_StatusTypeDef tmp_hal_status = HAL_OK;
 3343              		.loc 1 1757 0
 3344              		.cfi_startproc
 3345              		@ args = 0, pretend = 0, frame = 0
 3346              		@ frame_needed = 0, uses_anonymous_args = 0
 3347              	.LVL245:
1778:../../../../../../Drivers/STM32L0xx_HAL_Driver/Src/stm32l0xx_hal_adc.c ****   
 3348              		.loc 1 1778 0
 3349 0000 5423     		movs	r3, #84
1757:../../../../../../Drivers/STM32L0xx_HAL_Driver/Src/stm32l0xx_hal_adc.c ****   HAL_StatusTypeDef tmp_hal_status = HAL_OK;
 3350              		.loc 1 1757 0
 3351 0002 70B5     		push	{r4, r5, r6, lr}
 3352              	.LCFI20:
 3353              		.cfi_def_cfa_offset 16
 3354              		.cfi_offset 4, -16
 3355              		.cfi_offset 5, -12
 3356              		.cfi_offset 6, -8
 3357              		.cfi_offset 14, -4
1757:../../../../../../Drivers/STM32L0xx_HAL_Driver/Src/stm32l0xx_hal_adc.c ****   HAL_StatusTypeDef tmp_hal_status = HAL_OK;
 3358              		.loc 1 1757 0
 3359 0004 0200     		movs	r2, r0
1778:../../../../../../Drivers/STM32L0xx_HAL_Driver/Src/stm32l0xx_hal_adc.c ****   
 3360              		.loc 1 1778 0
 3361 0006 C05C     		ldrb	r0, [r0, r3]
 3362              	.LVL246:
 3363 0008 0128     		cmp	r0, #1
 3364 000a 3AD0     		beq	.L382
1778:../../../../../../Drivers/STM32L0xx_HAL_Driver/Src/stm32l0xx_hal_adc.c ****   
 3365              		.loc 1 1778 0 is_stmt 0 discriminator 2
 3366 000c 0120     		movs	r0, #1
1768:../../../../../../Drivers/STM32L0xx_HAL_Driver/Src/stm32l0xx_hal_adc.c ****   {
 3367              		.loc 1 1768 0 is_stmt 1 discriminator 2
 3368 000e 0C68     		ldr	r4, [r1]
1778:../../../../../../Drivers/STM32L0xx_HAL_Driver/Src/stm32l0xx_hal_adc.c ****   
 3369              		.loc 1 1778 0 discriminator 2
 3370 0010 D054     		strb	r0, [r2, r3]
1785:../../../../../../Drivers/STM32L0xx_HAL_Driver/Src/stm32l0xx_hal_adc.c ****   {
 3371              		.loc 1 1785 0 discriminator 2
 3372 0012 1368     		ldr	r3, [r2]
 3373 0014 9868     		ldr	r0, [r3, #8]
 3374 0016 4007     		lsls	r0, r0, #29
 3375 0018 2AD4     		bmi	.L378
1788:../../../../../../Drivers/STM32L0xx_HAL_Driver/Src/stm32l0xx_hal_adc.c ****     {
 3376              		.loc 1 1788 0
 3377 001a 8868     		ldr	r0, [r1, #8]
 3378 001c 0128     		cmp	r0, #1
 3379 001e 32D0     		beq	.L383
1796:../../../../../../Drivers/STM32L0xx_HAL_Driver/Src/stm32l0xx_hal_adc.c ****     }
 3380              		.loc 1 1796 0
 3381 0020 8025     		movs	r5, #128
 3382 0022 5868     		ldr	r0, [r3, #4]
 3383 0024 A843     		bics	r0, r5
 3384 0026 5860     		str	r0, [r3, #4]
ARM GAS  C:\Users\EBANO_~1\AppData\Local\Temp\cc7eeVhF.s 			page 109


 3385              	.L380:
1803:../../../../../../Drivers/STM32L0xx_HAL_Driver/Src/stm32l0xx_hal_adc.c ****                                ADC_CFGR1_AWDEN  |
 3386              		.loc 1 1803 0
 3387 0028 D868     		ldr	r0, [r3, #12]
 3388 002a 194D     		ldr	r5, .L384
1808:../../../../../../Drivers/STM32L0xx_HAL_Driver/Src/stm32l0xx_hal_adc.c ****     
 3389              		.loc 1 1808 0
 3390 002c 4E68     		ldr	r6, [r1, #4]
1803:../../../../../../Drivers/STM32L0xx_HAL_Driver/Src/stm32l0xx_hal_adc.c ****                                ADC_CFGR1_AWDEN  |
 3391              		.loc 1 1803 0
 3392 002e 2840     		ands	r0, r5
 3393 0030 D860     		str	r0, [r3, #12]
1808:../../../../../../Drivers/STM32L0xx_HAL_Driver/Src/stm32l0xx_hal_adc.c ****     
 3394              		.loc 1 1808 0
 3395 0032 F820     		movs	r0, #248
1807:../../../../../../Drivers/STM32L0xx_HAL_Driver/Src/stm32l0xx_hal_adc.c ****                               (AnalogWDGConfig->Channel & ADC_CHANNEL_AWD_MASK));
 3396              		.loc 1 1807 0
 3397 0034 DD68     		ldr	r5, [r3, #12]
1808:../../../../../../Drivers/STM32L0xx_HAL_Driver/Src/stm32l0xx_hal_adc.c ****     
 3398              		.loc 1 1808 0
 3399 0036 C005     		lsls	r0, r0, #23
1807:../../../../../../Drivers/STM32L0xx_HAL_Driver/Src/stm32l0xx_hal_adc.c ****                               (AnalogWDGConfig->Channel & ADC_CHANNEL_AWD_MASK));
 3400              		.loc 1 1807 0
 3401 0038 2C43     		orrs	r4, r5
1808:../../../../../../Drivers/STM32L0xx_HAL_Driver/Src/stm32l0xx_hal_adc.c ****     
 3402              		.loc 1 1808 0
 3403 003a 3040     		ands	r0, r6
1807:../../../../../../Drivers/STM32L0xx_HAL_Driver/Src/stm32l0xx_hal_adc.c ****                               (AnalogWDGConfig->Channel & ADC_CHANNEL_AWD_MASK));
 3404              		.loc 1 1807 0
 3405 003c 2043     		orrs	r0, r4
1813:../../../../../../Drivers/STM32L0xx_HAL_Driver/Src/stm32l0xx_hal_adc.c ****     tmpAWDLowThresholdShifted  = ADC_AWD1THRESHOLD_SHIFT_RESOLUTION(hadc, AnalogWDGConfig->LowThres
 3406              		.loc 1 1813 0
 3407 003e 0324     		movs	r4, #3
1807:../../../../../../Drivers/STM32L0xx_HAL_Driver/Src/stm32l0xx_hal_adc.c ****                               (AnalogWDGConfig->Channel & ADC_CHANNEL_AWD_MASK));
 3408              		.loc 1 1807 0
 3409 0040 D860     		str	r0, [r3, #12]
1813:../../../../../../Drivers/STM32L0xx_HAL_Driver/Src/stm32l0xx_hal_adc.c ****     tmpAWDLowThresholdShifted  = ADC_AWD1THRESHOLD_SHIFT_RESOLUTION(hadc, AnalogWDGConfig->LowThres
 3410              		.loc 1 1813 0
 3411 0042 D868     		ldr	r0, [r3, #12]
 3412 0044 CD68     		ldr	r5, [r1, #12]
 3413 0046 C008     		lsrs	r0, r0, #3
 3414 0048 2040     		ands	r0, r4
 3415 004a 4000     		lsls	r0, r0, #1
 3416 004c 8540     		lsls	r5, r5, r0
 3417              	.LVL247:
1814:../../../../../../Drivers/STM32L0xx_HAL_Driver/Src/stm32l0xx_hal_adc.c ****     
 3418              		.loc 1 1814 0
 3419 004e D868     		ldr	r0, [r3, #12]
1820:../../../../../../Drivers/STM32L0xx_HAL_Driver/Src/stm32l0xx_hal_adc.c ****     /* Set the low threshold */
 3420              		.loc 1 1820 0
 3421 0050 2D04     		lsls	r5, r5, #16
 3422              	.LVL248:
1814:../../../../../../Drivers/STM32L0xx_HAL_Driver/Src/stm32l0xx_hal_adc.c ****     
 3423              		.loc 1 1814 0
 3424 0052 C008     		lsrs	r0, r0, #3
 3425 0054 0440     		ands	r4, r0
 3426 0056 0869     		ldr	r0, [r1, #16]
ARM GAS  C:\Users\EBANO_~1\AppData\Local\Temp\cc7eeVhF.s 			page 110


 3427 0058 6400     		lsls	r4, r4, #1
 3428 005a A040     		lsls	r0, r0, r4
 3429              	.LVL249:
1817:../../../../../../Drivers/STM32L0xx_HAL_Driver/Src/stm32l0xx_hal_adc.c ****     
 3430              		.loc 1 1817 0
 3431 005c 196A     		ldr	r1, [r3, #32]
 3432              	.LVL250:
 3433 005e 0D4C     		ldr	r4, .L384+4
 3434 0060 2140     		ands	r1, r4
 3435 0062 1962     		str	r1, [r3, #32]
1820:../../../../../../Drivers/STM32L0xx_HAL_Driver/Src/stm32l0xx_hal_adc.c ****     /* Set the low threshold */
 3436              		.loc 1 1820 0
 3437 0064 1D62     		str	r5, [r3, #32]
1822:../../../../../../Drivers/STM32L0xx_HAL_Driver/Src/stm32l0xx_hal_adc.c ****   }
 3438              		.loc 1 1822 0
 3439 0066 196A     		ldr	r1, [r3, #32]
 3440 0068 0143     		orrs	r1, r0
 3441 006a 1962     		str	r1, [r3, #32]
1758:../../../../../../Drivers/STM32L0xx_HAL_Driver/Src/stm32l0xx_hal_adc.c ****   
 3442              		.loc 1 1758 0
 3443 006c 0020     		movs	r0, #0
 3444              	.LVL251:
 3445 006e 04E0     		b	.L381
 3446              	.LVL252:
 3447              	.L378:
1829:../../../../../../Drivers/STM32L0xx_HAL_Driver/Src/stm32l0xx_hal_adc.c ****     
 3448              		.loc 1 1829 0
 3449 0070 2021     		movs	r1, #32
 3450              	.LVL253:
1831:../../../../../../Drivers/STM32L0xx_HAL_Driver/Src/stm32l0xx_hal_adc.c ****   }
 3451              		.loc 1 1831 0
 3452 0072 0120     		movs	r0, #1
1829:../../../../../../Drivers/STM32L0xx_HAL_Driver/Src/stm32l0xx_hal_adc.c ****     
 3453              		.loc 1 1829 0
 3454 0074 936D     		ldr	r3, [r2, #88]
 3455 0076 0B43     		orrs	r3, r1
 3456 0078 9365     		str	r3, [r2, #88]
 3457              	.LVL254:
 3458              	.L381:
1835:../../../../../../Drivers/STM32L0xx_HAL_Driver/Src/stm32l0xx_hal_adc.c ****   
 3459              		.loc 1 1835 0
 3460 007a 5423     		movs	r3, #84
 3461 007c 0021     		movs	r1, #0
 3462 007e D154     		strb	r1, [r2, r3]
 3463              	.LVL255:
 3464              	.L377:
1839:../../../../../../Drivers/STM32L0xx_HAL_Driver/Src/stm32l0xx_hal_adc.c **** 
 3465              		.loc 1 1839 0
 3466              		@ sp needed
 3467 0080 70BD     		pop	{r4, r5, r6, pc}
 3468              	.LVL256:
 3469              	.L382:
1778:../../../../../../Drivers/STM32L0xx_HAL_Driver/Src/stm32l0xx_hal_adc.c ****   
 3470              		.loc 1 1778 0
 3471 0082 0220     		movs	r0, #2
 3472 0084 FCE7     		b	.L377
 3473              	.L383:
ARM GAS  C:\Users\EBANO_~1\AppData\Local\Temp\cc7eeVhF.s 			page 111


1791:../../../../../../Drivers/STM32L0xx_HAL_Driver/Src/stm32l0xx_hal_adc.c ****     }
 3474              		.loc 1 1791 0
 3475 0086 8025     		movs	r5, #128
 3476 0088 5868     		ldr	r0, [r3, #4]
 3477 008a 2843     		orrs	r0, r5
 3478 008c 5860     		str	r0, [r3, #4]
 3479 008e CBE7     		b	.L380
 3480              	.L385:
 3481              		.align	2
 3482              	.L384:
 3483 0090 FFFF3F83 		.word	-2092957697
 3484 0094 00F000F0 		.word	-268374016
 3485              		.cfi_endproc
 3486              	.LFE58:
 3487              		.size	HAL_ADC_AnalogWDGConfig, .-HAL_ADC_AnalogWDGConfig
 3488              		.section	.text.HAL_ADC_GetState,"ax",%progbits
 3489              		.align	1
 3490              		.p2align 2,,3
 3491              		.global	HAL_ADC_GetState
 3492              		.syntax unified
 3493              		.code	16
 3494              		.thumb_func
 3495              		.fpu softvfp
 3496              		.type	HAL_ADC_GetState, %function
 3497              	HAL_ADC_GetState:
 3498              	.LFB59:
1874:../../../../../../Drivers/STM32L0xx_HAL_Driver/Src/stm32l0xx_hal_adc.c ****   /* Check the parameters */
 3499              		.loc 1 1874 0
 3500              		.cfi_startproc
 3501              		@ args = 0, pretend = 0, frame = 0
 3502              		@ frame_needed = 0, uses_anonymous_args = 0
 3503              		@ link register save eliminated.
 3504              	.LVL257:
1879:../../../../../../Drivers/STM32L0xx_HAL_Driver/Src/stm32l0xx_hal_adc.c **** }
 3505              		.loc 1 1879 0
 3506 0000 806D     		ldr	r0, [r0, #88]
 3507              	.LVL258:
1880:../../../../../../Drivers/STM32L0xx_HAL_Driver/Src/stm32l0xx_hal_adc.c **** 
 3508              		.loc 1 1880 0
 3509              		@ sp needed
 3510 0002 7047     		bx	lr
 3511              		.cfi_endproc
 3512              	.LFE59:
 3513              		.size	HAL_ADC_GetState, .-HAL_ADC_GetState
 3514              		.section	.text.HAL_ADC_GetError,"ax",%progbits
 3515              		.align	1
 3516              		.p2align 2,,3
 3517              		.global	HAL_ADC_GetError
 3518              		.syntax unified
 3519              		.code	16
 3520              		.thumb_func
 3521              		.fpu softvfp
 3522              		.type	HAL_ADC_GetError, %function
 3523              	HAL_ADC_GetError:
 3524              	.LFB60:
1888:../../../../../../Drivers/STM32L0xx_HAL_Driver/Src/stm32l0xx_hal_adc.c ****   /* Check the parameters */
 3525              		.loc 1 1888 0
ARM GAS  C:\Users\EBANO_~1\AppData\Local\Temp\cc7eeVhF.s 			page 112


 3526              		.cfi_startproc
 3527              		@ args = 0, pretend = 0, frame = 0
 3528              		@ frame_needed = 0, uses_anonymous_args = 0
 3529              		@ link register save eliminated.
 3530              	.LVL259:
1892:../../../../../../Drivers/STM32L0xx_HAL_Driver/Src/stm32l0xx_hal_adc.c **** }
 3531              		.loc 1 1892 0
 3532 0000 C06D     		ldr	r0, [r0, #92]
 3533              	.LVL260:
1893:../../../../../../Drivers/STM32L0xx_HAL_Driver/Src/stm32l0xx_hal_adc.c **** 
 3534              		.loc 1 1893 0
 3535              		@ sp needed
 3536 0002 7047     		bx	lr
 3537              		.cfi_endproc
 3538              	.LFE60:
 3539              		.size	HAL_ADC_GetError, .-HAL_ADC_GetError
 3540              		.text
 3541              	.Letext0:
 3542              		.file 2 "c:\\program files (x86)\\gnu tools arm embedded\\7 2018-q2-update\\arm-none-eabi\\include
 3543              		.file 3 "c:\\program files (x86)\\gnu tools arm embedded\\7 2018-q2-update\\arm-none-eabi\\include
 3544              		.file 4 "../../../../../../Drivers/CMSIS/Device/ST/STM32L0xx/Include/system_stm32l0xx.h"
 3545              		.file 5 "../../../../../../Drivers/CMSIS/Device/ST/STM32L0xx/Include/stm32l072xx.h"
 3546              		.file 6 "../../../../../../Drivers/CMSIS/Device/ST/STM32L0xx/Include/stm32l0xx.h"
 3547              		.file 7 "c:\\program files (x86)\\gnu tools arm embedded\\7 2018-q2-update\\arm-none-eabi\\include
 3548              		.file 8 "c:\\program files (x86)\\gnu tools arm embedded\\7 2018-q2-update\\arm-none-eabi\\include
 3549              		.file 9 "c:\\program files (x86)\\gnu tools arm embedded\\7 2018-q2-update\\lib\\gcc\\arm-none-eab
 3550              		.file 10 "c:\\program files (x86)\\gnu tools arm embedded\\7 2018-q2-update\\arm-none-eabi\\includ
 3551              		.file 11 "../../../../../../Drivers/STM32L0xx_HAL_Driver/Inc/stm32l0xx_hal_def.h"
 3552              		.file 12 "../../../../../../Drivers/STM32L0xx_HAL_Driver/Inc/stm32l0xx_hal_dma.h"
 3553              		.file 13 "../../../../../../Drivers/STM32L0xx_HAL_Driver/Inc/stm32l0xx_hal_adc.h"
 3554              		.file 14 "../../../../../../Drivers/STM32L0xx_HAL_Driver/Inc/stm32l0xx_hal.h"
 3555              		.section	.debug_info,"",%progbits
 3556              	.Ldebug_info0:
 3557 0000 C41C0000 		.4byte	0x1cc4
 3558 0004 0200     		.2byte	0x2
 3559 0006 00000000 		.4byte	.Ldebug_abbrev0
 3560 000a 04       		.byte	0x4
 3561 000b 01       		.uleb128 0x1
 3562 000c 390B0000 		.4byte	.LASF260
 3563 0010 0C       		.byte	0xc
 3564 0011 77070000 		.4byte	.LASF261
 3565 0015 9A030000 		.4byte	.LASF262
 3566 0019 B0010000 		.4byte	.Ldebug_ranges0+0x1b0
 3567 001d 00000000 		.4byte	0
 3568 0021 00000000 		.4byte	0
 3569 0025 00000000 		.4byte	.Ldebug_line0
 3570 0029 02       		.uleb128 0x2
 3571 002a 01       		.byte	0x1
 3572 002b 06       		.byte	0x6
 3573 002c 46020000 		.4byte	.LASF0
 3574 0030 03       		.uleb128 0x3
 3575 0031 76010000 		.4byte	.LASF5
 3576 0035 02       		.byte	0x2
 3577 0036 2B       		.byte	0x2b
 3578 0037 3B000000 		.4byte	0x3b
 3579 003b 02       		.uleb128 0x2
 3580 003c 01       		.byte	0x1
ARM GAS  C:\Users\EBANO_~1\AppData\Local\Temp\cc7eeVhF.s 			page 113


 3581 003d 08       		.byte	0x8
 3582 003e AE020000 		.4byte	.LASF1
 3583 0042 02       		.uleb128 0x2
 3584 0043 02       		.byte	0x2
 3585 0044 05       		.byte	0x5
 3586 0045 FE0A0000 		.4byte	.LASF2
 3587 0049 02       		.uleb128 0x2
 3588 004a 02       		.byte	0x2
 3589 004b 07       		.byte	0x7
 3590 004c 1B0D0000 		.4byte	.LASF3
 3591 0050 02       		.uleb128 0x2
 3592 0051 04       		.byte	0x4
 3593 0052 05       		.byte	0x5
 3594 0053 A2010000 		.4byte	.LASF4
 3595 0057 03       		.uleb128 0x3
 3596 0058 1D060000 		.4byte	.LASF6
 3597 005c 02       		.byte	0x2
 3598 005d 4F       		.byte	0x4f
 3599 005e 62000000 		.4byte	0x62
 3600 0062 02       		.uleb128 0x2
 3601 0063 04       		.byte	0x4
 3602 0064 07       		.byte	0x7
 3603 0065 4C050000 		.4byte	.LASF7
 3604 0069 02       		.uleb128 0x2
 3605 006a 08       		.byte	0x8
 3606 006b 05       		.byte	0x5
 3607 006c 33060000 		.4byte	.LASF8
 3608 0070 02       		.uleb128 0x2
 3609 0071 08       		.byte	0x8
 3610 0072 07       		.byte	0x7
 3611 0073 24090000 		.4byte	.LASF9
 3612 0077 04       		.uleb128 0x4
 3613 0078 04       		.byte	0x4
 3614 0079 05       		.byte	0x5
 3615 007a 696E7400 		.ascii	"int\000"
 3616 007e 02       		.uleb128 0x2
 3617 007f 04       		.byte	0x4
 3618 0080 07       		.byte	0x7
 3619 0081 14070000 		.4byte	.LASF10
 3620 0085 03       		.uleb128 0x3
 3621 0086 52020000 		.4byte	.LASF11
 3622 008a 03       		.byte	0x3
 3623 008b 18       		.byte	0x18
 3624 008c 30000000 		.4byte	0x30
 3625 0090 05       		.uleb128 0x5
 3626 0091 85000000 		.4byte	0x85
 3627 0095 03       		.uleb128 0x3
 3628 0096 B50C0000 		.4byte	.LASF12
 3629 009a 03       		.byte	0x3
 3630 009b 30       		.byte	0x30
 3631 009c 57000000 		.4byte	0x57
 3632 00a0 06       		.uleb128 0x6
 3633 00a1 95000000 		.4byte	0x95
 3634 00a5 07       		.uleb128 0x7
 3635 00a6 B6050000 		.4byte	.LASF13
 3636 00aa 04       		.byte	0x4
 3637 00ab 4A       		.byte	0x4a
ARM GAS  C:\Users\EBANO_~1\AppData\Local\Temp\cc7eeVhF.s 			page 114


 3638 00ac 95000000 		.4byte	0x95
 3639 00b0 01       		.byte	0x1
 3640 00b1 01       		.byte	0x1
 3641 00b2 08       		.uleb128 0x8
 3642 00b3 90000000 		.4byte	0x90
 3643 00b7 C2000000 		.4byte	0xc2
 3644 00bb 09       		.uleb128 0x9
 3645 00bc 7E000000 		.4byte	0x7e
 3646 00c0 0F       		.byte	0xf
 3647 00c1 00       		.byte	0
 3648 00c2 05       		.uleb128 0x5
 3649 00c3 B2000000 		.4byte	0xb2
 3650 00c7 07       		.uleb128 0x7
 3651 00c8 08090000 		.4byte	.LASF14
 3652 00cc 04       		.byte	0x4
 3653 00cd 4D       		.byte	0x4d
 3654 00ce C2000000 		.4byte	0xc2
 3655 00d2 01       		.byte	0x1
 3656 00d3 01       		.byte	0x1
 3657 00d4 08       		.uleb128 0x8
 3658 00d5 90000000 		.4byte	0x90
 3659 00d9 E4000000 		.4byte	0xe4
 3660 00dd 09       		.uleb128 0x9
 3661 00de 7E000000 		.4byte	0x7e
 3662 00e2 07       		.byte	0x7
 3663 00e3 00       		.byte	0
 3664 00e4 05       		.uleb128 0x5
 3665 00e5 D4000000 		.4byte	0xd4
 3666 00e9 07       		.uleb128 0x7
 3667 00ea CB0A0000 		.4byte	.LASF15
 3668 00ee 04       		.byte	0x4
 3669 00ef 4E       		.byte	0x4e
 3670 00f0 E4000000 		.4byte	0xe4
 3671 00f4 01       		.byte	0x1
 3672 00f5 01       		.byte	0x1
 3673 00f6 08       		.uleb128 0x8
 3674 00f7 90000000 		.4byte	0x90
 3675 00fb 06010000 		.4byte	0x106
 3676 00ff 09       		.uleb128 0x9
 3677 0100 7E000000 		.4byte	0x7e
 3678 0104 08       		.byte	0x8
 3679 0105 00       		.byte	0
 3680 0106 05       		.uleb128 0x5
 3681 0107 F6000000 		.4byte	0xf6
 3682 010b 07       		.uleb128 0x7
 3683 010c CC040000 		.4byte	.LASF16
 3684 0110 04       		.byte	0x4
 3685 0111 4F       		.byte	0x4f
 3686 0112 06010000 		.4byte	0x106
 3687 0116 01       		.byte	0x1
 3688 0117 01       		.byte	0x1
 3689 0118 0A       		.uleb128 0xa
 3690 0119 B8       		.byte	0xb8
 3691 011a 05       		.byte	0x5
 3692 011b 90       		.byte	0x90
 3693 011c F1010000 		.4byte	0x1f1
 3694 0120 0B       		.uleb128 0xb
ARM GAS  C:\Users\EBANO_~1\AppData\Local\Temp\cc7eeVhF.s 			page 115


 3695 0121 49535200 		.ascii	"ISR\000"
 3696 0125 05       		.byte	0x5
 3697 0126 92       		.byte	0x92
 3698 0127 A0000000 		.4byte	0xa0
 3699 012b 02       		.byte	0x2
 3700 012c 23       		.byte	0x23
 3701 012d 00       		.uleb128 0
 3702 012e 0B       		.uleb128 0xb
 3703 012f 49455200 		.ascii	"IER\000"
 3704 0133 05       		.byte	0x5
 3705 0134 93       		.byte	0x93
 3706 0135 A0000000 		.4byte	0xa0
 3707 0139 02       		.byte	0x2
 3708 013a 23       		.byte	0x23
 3709 013b 04       		.uleb128 0x4
 3710 013c 0B       		.uleb128 0xb
 3711 013d 435200   		.ascii	"CR\000"
 3712 0140 05       		.byte	0x5
 3713 0141 94       		.byte	0x94
 3714 0142 A0000000 		.4byte	0xa0
 3715 0146 02       		.byte	0x2
 3716 0147 23       		.byte	0x23
 3717 0148 08       		.uleb128 0x8
 3718 0149 0C       		.uleb128 0xc
 3719 014a 42070000 		.4byte	.LASF17
 3720 014e 05       		.byte	0x5
 3721 014f 95       		.byte	0x95
 3722 0150 A0000000 		.4byte	0xa0
 3723 0154 02       		.byte	0x2
 3724 0155 23       		.byte	0x23
 3725 0156 0C       		.uleb128 0xc
 3726 0157 0C       		.uleb128 0xc
 3727 0158 48070000 		.4byte	.LASF18
 3728 015c 05       		.byte	0x5
 3729 015d 96       		.byte	0x96
 3730 015e A0000000 		.4byte	0xa0
 3731 0162 02       		.byte	0x2
 3732 0163 23       		.byte	0x23
 3733 0164 10       		.uleb128 0x10
 3734 0165 0C       		.uleb128 0xc
 3735 0166 F7010000 		.4byte	.LASF19
 3736 016a 05       		.byte	0x5
 3737 016b 97       		.byte	0x97
 3738 016c A0000000 		.4byte	0xa0
 3739 0170 02       		.byte	0x2
 3740 0171 23       		.byte	0x23
 3741 0172 14       		.uleb128 0x14
 3742 0173 0C       		.uleb128 0xc
 3743 0174 A4020000 		.4byte	.LASF20
 3744 0178 05       		.byte	0x5
 3745 0179 98       		.byte	0x98
 3746 017a 95000000 		.4byte	0x95
 3747 017e 02       		.byte	0x2
 3748 017f 23       		.byte	0x23
 3749 0180 18       		.uleb128 0x18
 3750 0181 0C       		.uleb128 0xc
 3751 0182 5C030000 		.4byte	.LASF21
ARM GAS  C:\Users\EBANO_~1\AppData\Local\Temp\cc7eeVhF.s 			page 116


 3752 0186 05       		.byte	0x5
 3753 0187 99       		.byte	0x99
 3754 0188 95000000 		.4byte	0x95
 3755 018c 02       		.byte	0x2
 3756 018d 23       		.byte	0x23
 3757 018e 1C       		.uleb128 0x1c
 3758 018f 0B       		.uleb128 0xb
 3759 0190 545200   		.ascii	"TR\000"
 3760 0193 05       		.byte	0x5
 3761 0194 9A       		.byte	0x9a
 3762 0195 A0000000 		.4byte	0xa0
 3763 0199 02       		.byte	0x2
 3764 019a 23       		.byte	0x23
 3765 019b 20       		.uleb128 0x20
 3766 019c 0C       		.uleb128 0xc
 3767 019d BC020000 		.4byte	.LASF22
 3768 01a1 05       		.byte	0x5
 3769 01a2 9B       		.byte	0x9b
 3770 01a3 95000000 		.4byte	0x95
 3771 01a7 02       		.byte	0x2
 3772 01a8 23       		.byte	0x23
 3773 01a9 24       		.uleb128 0x24
 3774 01aa 0C       		.uleb128 0xc
 3775 01ab EA0C0000 		.4byte	.LASF23
 3776 01af 05       		.byte	0x5
 3777 01b0 9C       		.byte	0x9c
 3778 01b1 A0000000 		.4byte	0xa0
 3779 01b5 02       		.byte	0x2
 3780 01b6 23       		.byte	0x23
 3781 01b7 28       		.uleb128 0x28
 3782 01b8 0C       		.uleb128 0xc
 3783 01b9 C6020000 		.4byte	.LASF24
 3784 01bd 05       		.byte	0x5
 3785 01be 9D       		.byte	0x9d
 3786 01bf F1010000 		.4byte	0x1f1
 3787 01c3 02       		.byte	0x2
 3788 01c4 23       		.byte	0x23
 3789 01c5 2C       		.uleb128 0x2c
 3790 01c6 0B       		.uleb128 0xb
 3791 01c7 445200   		.ascii	"DR\000"
 3792 01ca 05       		.byte	0x5
 3793 01cb 9E       		.byte	0x9e
 3794 01cc A0000000 		.4byte	0xa0
 3795 01d0 02       		.byte	0x2
 3796 01d1 23       		.byte	0x23
 3797 01d2 40       		.uleb128 0x40
 3798 01d3 0C       		.uleb128 0xc
 3799 01d4 D0020000 		.4byte	.LASF25
 3800 01d8 05       		.byte	0x5
 3801 01d9 9F       		.byte	0x9f
 3802 01da 01020000 		.4byte	0x201
 3803 01de 02       		.byte	0x2
 3804 01df 23       		.byte	0x23
 3805 01e0 44       		.uleb128 0x44
 3806 01e1 0C       		.uleb128 0xc
 3807 01e2 F60A0000 		.4byte	.LASF26
 3808 01e6 05       		.byte	0x5
ARM GAS  C:\Users\EBANO_~1\AppData\Local\Temp\cc7eeVhF.s 			page 117


 3809 01e7 A0       		.byte	0xa0
 3810 01e8 A0000000 		.4byte	0xa0
 3811 01ec 03       		.byte	0x3
 3812 01ed 23       		.byte	0x23
 3813 01ee B401     		.uleb128 0xb4
 3814 01f0 00       		.byte	0
 3815 01f1 08       		.uleb128 0x8
 3816 01f2 95000000 		.4byte	0x95
 3817 01f6 01020000 		.4byte	0x201
 3818 01fa 09       		.uleb128 0x9
 3819 01fb 7E000000 		.4byte	0x7e
 3820 01ff 04       		.byte	0x4
 3821 0200 00       		.byte	0
 3822 0201 08       		.uleb128 0x8
 3823 0202 95000000 		.4byte	0x95
 3824 0206 11020000 		.4byte	0x211
 3825 020a 09       		.uleb128 0x9
 3826 020b 7E000000 		.4byte	0x7e
 3827 020f 1B       		.byte	0x1b
 3828 0210 00       		.byte	0
 3829 0211 03       		.uleb128 0x3
 3830 0212 95040000 		.4byte	.LASF27
 3831 0216 05       		.byte	0x5
 3832 0217 A1       		.byte	0xa1
 3833 0218 18010000 		.4byte	0x118
 3834 021c 0A       		.uleb128 0xa
 3835 021d 04       		.byte	0x4
 3836 021e 05       		.byte	0x5
 3837 021f A3       		.byte	0xa3
 3838 0220 33020000 		.4byte	0x233
 3839 0224 0B       		.uleb128 0xb
 3840 0225 43435200 		.ascii	"CCR\000"
 3841 0229 05       		.byte	0x5
 3842 022a A5       		.byte	0xa5
 3843 022b A0000000 		.4byte	0xa0
 3844 022f 02       		.byte	0x2
 3845 0230 23       		.byte	0x23
 3846 0231 00       		.uleb128 0
 3847 0232 00       		.byte	0
 3848 0233 03       		.uleb128 0x3
 3849 0234 5D0D0000 		.4byte	.LASF28
 3850 0238 05       		.byte	0x5
 3851 0239 A6       		.byte	0xa6
 3852 023a 1C020000 		.4byte	0x21c
 3853 023e 0A       		.uleb128 0xa
 3854 023f 10       		.byte	0x10
 3855 0240 05       		.byte	0x5
 3856 0241 FA       		.byte	0xfa
 3857 0242 7F020000 		.4byte	0x27f
 3858 0246 0B       		.uleb128 0xb
 3859 0247 43435200 		.ascii	"CCR\000"
 3860 024b 05       		.byte	0x5
 3861 024c FC       		.byte	0xfc
 3862 024d A0000000 		.4byte	0xa0
 3863 0251 02       		.byte	0x2
 3864 0252 23       		.byte	0x23
 3865 0253 00       		.uleb128 0
ARM GAS  C:\Users\EBANO_~1\AppData\Local\Temp\cc7eeVhF.s 			page 118


 3866 0254 0C       		.uleb128 0xc
 3867 0255 03010000 		.4byte	.LASF29
 3868 0259 05       		.byte	0x5
 3869 025a FD       		.byte	0xfd
 3870 025b A0000000 		.4byte	0xa0
 3871 025f 02       		.byte	0x2
 3872 0260 23       		.byte	0x23
 3873 0261 04       		.uleb128 0x4
 3874 0262 0C       		.uleb128 0xc
 3875 0263 27020000 		.4byte	.LASF30
 3876 0267 05       		.byte	0x5
 3877 0268 FE       		.byte	0xfe
 3878 0269 A0000000 		.4byte	0xa0
 3879 026d 02       		.byte	0x2
 3880 026e 23       		.byte	0x23
 3881 026f 08       		.uleb128 0x8
 3882 0270 0C       		.uleb128 0xc
 3883 0271 C9070000 		.4byte	.LASF31
 3884 0275 05       		.byte	0x5
 3885 0276 FF       		.byte	0xff
 3886 0277 A0000000 		.4byte	0xa0
 3887 027b 02       		.byte	0x2
 3888 027c 23       		.byte	0x23
 3889 027d 0C       		.uleb128 0xc
 3890 027e 00       		.byte	0
 3891 027f 0D       		.uleb128 0xd
 3892 0280 F4080000 		.4byte	.LASF32
 3893 0284 05       		.byte	0x5
 3894 0285 0001     		.2byte	0x100
 3895 0287 3E020000 		.4byte	0x23e
 3896 028b 0E       		.uleb128 0xe
 3897 028c 07       		.byte	0x7
 3898 028d 01       		.byte	0x1
 3899 028e 3B000000 		.4byte	0x3b
 3900 0292 06       		.byte	0x6
 3901 0293 BE       		.byte	0xbe
 3902 0294 A5020000 		.4byte	0x2a5
 3903 0298 0F       		.uleb128 0xf
 3904 0299 270A0000 		.4byte	.LASF33
 3905 029d 00       		.byte	0
 3906 029e 10       		.uleb128 0x10
 3907 029f 53455400 		.ascii	"SET\000"
 3908 02a3 01       		.byte	0x1
 3909 02a4 00       		.byte	0
 3910 02a5 0E       		.uleb128 0xe
 3911 02a6 07       		.byte	0x7
 3912 02a7 01       		.byte	0x1
 3913 02a8 3B000000 		.4byte	0x3b
 3914 02ac 06       		.byte	0x6
 3915 02ad C4       		.byte	0xc4
 3916 02ae BF020000 		.4byte	0x2bf
 3917 02b2 0F       		.uleb128 0xf
 3918 02b3 83080000 		.4byte	.LASF34
 3919 02b7 00       		.byte	0
 3920 02b8 0F       		.uleb128 0xf
 3921 02b9 EF0B0000 		.4byte	.LASF35
 3922 02bd 01       		.byte	0x1
ARM GAS  C:\Users\EBANO_~1\AppData\Local\Temp\cc7eeVhF.s 			page 119


 3923 02be 00       		.byte	0
 3924 02bf 02       		.uleb128 0x2
 3925 02c0 08       		.byte	0x8
 3926 02c1 04       		.byte	0x4
 3927 02c2 9D080000 		.4byte	.LASF36
 3928 02c6 11       		.uleb128 0x11
 3929 02c7 04       		.byte	0x4
 3930 02c8 03       		.uleb128 0x3
 3931 02c9 720C0000 		.4byte	.LASF37
 3932 02cd 07       		.byte	0x7
 3933 02ce 22       		.byte	0x22
 3934 02cf D3020000 		.4byte	0x2d3
 3935 02d3 12       		.uleb128 0x12
 3936 02d4 04       		.byte	0x4
 3937 02d5 D9020000 		.4byte	0x2d9
 3938 02d9 13       		.uleb128 0x13
 3939 02da B3040000 		.4byte	.LASF144
 3940 02de 01       		.byte	0x1
 3941 02df 03       		.uleb128 0x3
 3942 02e0 E30C0000 		.4byte	.LASF38
 3943 02e4 08       		.byte	0x8
 3944 02e5 2C       		.byte	0x2c
 3945 02e6 50000000 		.4byte	0x50
 3946 02ea 03       		.uleb128 0x3
 3947 02eb DC080000 		.4byte	.LASF39
 3948 02ef 08       		.byte	0x8
 3949 02f0 72       		.byte	0x72
 3950 02f1 50000000 		.4byte	0x50
 3951 02f5 0D       		.uleb128 0xd
 3952 02f6 5D0A0000 		.4byte	.LASF40
 3953 02fa 09       		.byte	0x9
 3954 02fb 6501     		.2byte	0x165
 3955 02fd 7E000000 		.4byte	0x7e
 3956 0301 14       		.uleb128 0x14
 3957 0302 04       		.byte	0x4
 3958 0303 08       		.byte	0x8
 3959 0304 A6       		.byte	0xa6
 3960 0305 20030000 		.4byte	0x320
 3961 0309 15       		.uleb128 0x15
 3962 030a 6B010000 		.4byte	.LASF41
 3963 030e 08       		.byte	0x8
 3964 030f A8       		.byte	0xa8
 3965 0310 F5020000 		.4byte	0x2f5
 3966 0314 15       		.uleb128 0x15
 3967 0315 ED080000 		.4byte	.LASF42
 3968 0319 08       		.byte	0x8
 3969 031a A9       		.byte	0xa9
 3970 031b 20030000 		.4byte	0x320
 3971 031f 00       		.byte	0
 3972 0320 08       		.uleb128 0x8
 3973 0321 3B000000 		.4byte	0x3b
 3974 0325 30030000 		.4byte	0x330
 3975 0329 09       		.uleb128 0x9
 3976 032a 7E000000 		.4byte	0x7e
 3977 032e 03       		.byte	0x3
 3978 032f 00       		.byte	0
 3979 0330 0A       		.uleb128 0xa
ARM GAS  C:\Users\EBANO_~1\AppData\Local\Temp\cc7eeVhF.s 			page 120


 3980 0331 08       		.byte	0x8
 3981 0332 08       		.byte	0x8
 3982 0333 A3       		.byte	0xa3
 3983 0334 55030000 		.4byte	0x355
 3984 0338 0C       		.uleb128 0xc
 3985 0339 58080000 		.4byte	.LASF43
 3986 033d 08       		.byte	0x8
 3987 033e A5       		.byte	0xa5
 3988 033f 77000000 		.4byte	0x77
 3989 0343 02       		.byte	0x2
 3990 0344 23       		.byte	0x23
 3991 0345 00       		.uleb128 0
 3992 0346 0C       		.uleb128 0xc
 3993 0347 1A000000 		.4byte	.LASF44
 3994 034b 08       		.byte	0x8
 3995 034c AA       		.byte	0xaa
 3996 034d 01030000 		.4byte	0x301
 3997 0351 02       		.byte	0x2
 3998 0352 23       		.byte	0x23
 3999 0353 04       		.uleb128 0x4
 4000 0354 00       		.byte	0
 4001 0355 03       		.uleb128 0x3
 4002 0356 2D0A0000 		.4byte	.LASF45
 4003 035a 08       		.byte	0x8
 4004 035b AB       		.byte	0xab
 4005 035c 30030000 		.4byte	0x330
 4006 0360 03       		.uleb128 0x3
 4007 0361 110A0000 		.4byte	.LASF46
 4008 0365 08       		.byte	0x8
 4009 0366 AF       		.byte	0xaf
 4010 0367 C8020000 		.4byte	0x2c8
 4011 036b 03       		.uleb128 0x3
 4012 036c 890C0000 		.4byte	.LASF47
 4013 0370 0A       		.byte	0xa
 4014 0371 16       		.byte	0x16
 4015 0372 62000000 		.4byte	0x62
 4016 0376 16       		.uleb128 0x16
 4017 0377 E4050000 		.4byte	.LASF52
 4018 037b 18       		.byte	0x18
 4019 037c 0A       		.byte	0xa
 4020 037d 2F       		.byte	0x2f
 4021 037e D5030000 		.4byte	0x3d5
 4022 0382 0C       		.uleb128 0xc
 4023 0383 640A0000 		.4byte	.LASF48
 4024 0387 0A       		.byte	0xa
 4025 0388 31       		.byte	0x31
 4026 0389 D5030000 		.4byte	0x3d5
 4027 038d 02       		.byte	0x2
 4028 038e 23       		.byte	0x23
 4029 038f 00       		.uleb128 0
 4030 0390 0B       		.uleb128 0xb
 4031 0391 5F6B00   		.ascii	"_k\000"
 4032 0394 0A       		.byte	0xa
 4033 0395 32       		.byte	0x32
 4034 0396 77000000 		.4byte	0x77
 4035 039a 02       		.byte	0x2
 4036 039b 23       		.byte	0x23
ARM GAS  C:\Users\EBANO_~1\AppData\Local\Temp\cc7eeVhF.s 			page 121


 4037 039c 04       		.uleb128 0x4
 4038 039d 0C       		.uleb128 0xc
 4039 039e EC050000 		.4byte	.LASF49
 4040 03a2 0A       		.byte	0xa
 4041 03a3 32       		.byte	0x32
 4042 03a4 77000000 		.4byte	0x77
 4043 03a8 02       		.byte	0x2
 4044 03a9 23       		.byte	0x23
 4045 03aa 08       		.uleb128 0x8
 4046 03ab 0C       		.uleb128 0xc
 4047 03ac CB060000 		.4byte	.LASF50
 4048 03b0 0A       		.byte	0xa
 4049 03b1 32       		.byte	0x32
 4050 03b2 77000000 		.4byte	0x77
 4051 03b6 02       		.byte	0x2
 4052 03b7 23       		.byte	0x23
 4053 03b8 0C       		.uleb128 0xc
 4054 03b9 0C       		.uleb128 0xc
 4055 03ba A9040000 		.4byte	.LASF51
 4056 03be 0A       		.byte	0xa
 4057 03bf 32       		.byte	0x32
 4058 03c0 77000000 		.4byte	0x77
 4059 03c4 02       		.byte	0x2
 4060 03c5 23       		.byte	0x23
 4061 03c6 10       		.uleb128 0x10
 4062 03c7 0B       		.uleb128 0xb
 4063 03c8 5F7800   		.ascii	"_x\000"
 4064 03cb 0A       		.byte	0xa
 4065 03cc 33       		.byte	0x33
 4066 03cd DB030000 		.4byte	0x3db
 4067 03d1 02       		.byte	0x2
 4068 03d2 23       		.byte	0x23
 4069 03d3 14       		.uleb128 0x14
 4070 03d4 00       		.byte	0
 4071 03d5 12       		.uleb128 0x12
 4072 03d6 04       		.byte	0x4
 4073 03d7 76030000 		.4byte	0x376
 4074 03db 08       		.uleb128 0x8
 4075 03dc 6B030000 		.4byte	0x36b
 4076 03e0 EB030000 		.4byte	0x3eb
 4077 03e4 09       		.uleb128 0x9
 4078 03e5 7E000000 		.4byte	0x7e
 4079 03e9 00       		.byte	0
 4080 03ea 00       		.byte	0
 4081 03eb 16       		.uleb128 0x16
 4082 03ec AE000000 		.4byte	.LASF53
 4083 03f0 24       		.byte	0x24
 4084 03f1 0A       		.byte	0xa
 4085 03f2 37       		.byte	0x37
 4086 03f3 76040000 		.4byte	0x476
 4087 03f7 0C       		.uleb128 0xc
 4088 03f8 CA000000 		.4byte	.LASF54
 4089 03fc 0A       		.byte	0xa
 4090 03fd 39       		.byte	0x39
 4091 03fe 77000000 		.4byte	0x77
 4092 0402 02       		.byte	0x2
 4093 0403 23       		.byte	0x23
ARM GAS  C:\Users\EBANO_~1\AppData\Local\Temp\cc7eeVhF.s 			page 122


 4094 0404 00       		.uleb128 0
 4095 0405 0C       		.uleb128 0xc
 4096 0406 890D0000 		.4byte	.LASF55
 4097 040a 0A       		.byte	0xa
 4098 040b 3A       		.byte	0x3a
 4099 040c 77000000 		.4byte	0x77
 4100 0410 02       		.byte	0x2
 4101 0411 23       		.byte	0x23
 4102 0412 04       		.uleb128 0x4
 4103 0413 0C       		.uleb128 0xc
 4104 0414 2E0D0000 		.4byte	.LASF56
 4105 0418 0A       		.byte	0xa
 4106 0419 3B       		.byte	0x3b
 4107 041a 77000000 		.4byte	0x77
 4108 041e 02       		.byte	0x2
 4109 041f 23       		.byte	0x23
 4110 0420 08       		.uleb128 0x8
 4111 0421 0C       		.uleb128 0xc
 4112 0422 6D070000 		.4byte	.LASF57
 4113 0426 0A       		.byte	0xa
 4114 0427 3C       		.byte	0x3c
 4115 0428 77000000 		.4byte	0x77
 4116 042c 02       		.byte	0x2
 4117 042d 23       		.byte	0x23
 4118 042e 0C       		.uleb128 0xc
 4119 042f 0C       		.uleb128 0xc
 4120 0430 06020000 		.4byte	.LASF58
 4121 0434 0A       		.byte	0xa
 4122 0435 3D       		.byte	0x3d
 4123 0436 77000000 		.4byte	0x77
 4124 043a 02       		.byte	0x2
 4125 043b 23       		.byte	0x23
 4126 043c 10       		.uleb128 0x10
 4127 043d 0C       		.uleb128 0xc
 4128 043e F60B0000 		.4byte	.LASF59
 4129 0442 0A       		.byte	0xa
 4130 0443 3E       		.byte	0x3e
 4131 0444 77000000 		.4byte	0x77
 4132 0448 02       		.byte	0x2
 4133 0449 23       		.byte	0x23
 4134 044a 14       		.uleb128 0x14
 4135 044b 0C       		.uleb128 0xc
 4136 044c 79080000 		.4byte	.LASF60
 4137 0450 0A       		.byte	0xa
 4138 0451 3F       		.byte	0x3f
 4139 0452 77000000 		.4byte	0x77
 4140 0456 02       		.byte	0x2
 4141 0457 23       		.byte	0x23
 4142 0458 18       		.uleb128 0x18
 4143 0459 0C       		.uleb128 0xc
 4144 045a A9080000 		.4byte	.LASF61
 4145 045e 0A       		.byte	0xa
 4146 045f 40       		.byte	0x40
 4147 0460 77000000 		.4byte	0x77
 4148 0464 02       		.byte	0x2
 4149 0465 23       		.byte	0x23
 4150 0466 1C       		.uleb128 0x1c
ARM GAS  C:\Users\EBANO_~1\AppData\Local\Temp\cc7eeVhF.s 			page 123


 4151 0467 0C       		.uleb128 0xc
 4152 0468 7E0D0000 		.4byte	.LASF62
 4153 046c 0A       		.byte	0xa
 4154 046d 41       		.byte	0x41
 4155 046e 77000000 		.4byte	0x77
 4156 0472 02       		.byte	0x2
 4157 0473 23       		.byte	0x23
 4158 0474 20       		.uleb128 0x20
 4159 0475 00       		.byte	0
 4160 0476 17       		.uleb128 0x17
 4161 0477 86010000 		.4byte	.LASF63
 4162 047b 0801     		.2byte	0x108
 4163 047d 0A       		.byte	0xa
 4164 047e 4A       		.byte	0x4a
 4165 047f BF040000 		.4byte	0x4bf
 4166 0483 0C       		.uleb128 0xc
 4167 0484 760D0000 		.4byte	.LASF64
 4168 0488 0A       		.byte	0xa
 4169 0489 4B       		.byte	0x4b
 4170 048a BF040000 		.4byte	0x4bf
 4171 048e 02       		.byte	0x2
 4172 048f 23       		.byte	0x23
 4173 0490 00       		.uleb128 0
 4174 0491 0C       		.uleb128 0xc
 4175 0492 63090000 		.4byte	.LASF65
 4176 0496 0A       		.byte	0xa
 4177 0497 4C       		.byte	0x4c
 4178 0498 BF040000 		.4byte	0x4bf
 4179 049c 03       		.byte	0x3
 4180 049d 23       		.byte	0x23
 4181 049e 8001     		.uleb128 0x80
 4182 04a0 0C       		.uleb128 0xc
 4183 04a1 E60B0000 		.4byte	.LASF66
 4184 04a5 0A       		.byte	0xa
 4185 04a6 4E       		.byte	0x4e
 4186 04a7 6B030000 		.4byte	0x36b
 4187 04ab 03       		.byte	0x3
 4188 04ac 23       		.byte	0x23
 4189 04ad 8002     		.uleb128 0x100
 4190 04af 0C       		.uleb128 0xc
 4191 04b0 6A0C0000 		.4byte	.LASF67
 4192 04b4 0A       		.byte	0xa
 4193 04b5 51       		.byte	0x51
 4194 04b6 6B030000 		.4byte	0x36b
 4195 04ba 03       		.byte	0x3
 4196 04bb 23       		.byte	0x23
 4197 04bc 8402     		.uleb128 0x104
 4198 04be 00       		.byte	0
 4199 04bf 08       		.uleb128 0x8
 4200 04c0 C6020000 		.4byte	0x2c6
 4201 04c4 CF040000 		.4byte	0x4cf
 4202 04c8 09       		.uleb128 0x9
 4203 04c9 7E000000 		.4byte	0x7e
 4204 04cd 1F       		.byte	0x1f
 4205 04ce 00       		.byte	0
 4206 04cf 17       		.uleb128 0x17
 4207 04d0 35080000 		.4byte	.LASF68
ARM GAS  C:\Users\EBANO_~1\AppData\Local\Temp\cc7eeVhF.s 			page 124


 4208 04d4 9001     		.2byte	0x190
 4209 04d6 0A       		.byte	0xa
 4210 04d7 5D       		.byte	0x5d
 4211 04d8 16050000 		.4byte	0x516
 4212 04dc 0C       		.uleb128 0xc
 4213 04dd 640A0000 		.4byte	.LASF48
 4214 04e1 0A       		.byte	0xa
 4215 04e2 5E       		.byte	0x5e
 4216 04e3 16050000 		.4byte	0x516
 4217 04e7 02       		.byte	0x2
 4218 04e8 23       		.byte	0x23
 4219 04e9 00       		.uleb128 0
 4220 04ea 0C       		.uleb128 0xc
 4221 04eb 2E0C0000 		.4byte	.LASF69
 4222 04ef 0A       		.byte	0xa
 4223 04f0 5F       		.byte	0x5f
 4224 04f1 77000000 		.4byte	0x77
 4225 04f5 02       		.byte	0x2
 4226 04f6 23       		.byte	0x23
 4227 04f7 04       		.uleb128 0x4
 4228 04f8 0C       		.uleb128 0xc
 4229 04f9 78030000 		.4byte	.LASF70
 4230 04fd 0A       		.byte	0xa
 4231 04fe 61       		.byte	0x61
 4232 04ff 1C050000 		.4byte	0x51c
 4233 0503 02       		.byte	0x2
 4234 0504 23       		.byte	0x23
 4235 0505 08       		.uleb128 0x8
 4236 0506 0C       		.uleb128 0xc
 4237 0507 86010000 		.4byte	.LASF63
 4238 050b 0A       		.byte	0xa
 4239 050c 62       		.byte	0x62
 4240 050d 76040000 		.4byte	0x476
 4241 0511 03       		.byte	0x3
 4242 0512 23       		.byte	0x23
 4243 0513 8801     		.uleb128 0x88
 4244 0515 00       		.byte	0
 4245 0516 12       		.uleb128 0x12
 4246 0517 04       		.byte	0x4
 4247 0518 CF040000 		.4byte	0x4cf
 4248 051c 08       		.uleb128 0x8
 4249 051d 2C050000 		.4byte	0x52c
 4250 0521 2C050000 		.4byte	0x52c
 4251 0525 09       		.uleb128 0x9
 4252 0526 7E000000 		.4byte	0x7e
 4253 052a 1F       		.byte	0x1f
 4254 052b 00       		.byte	0
 4255 052c 12       		.uleb128 0x12
 4256 052d 04       		.byte	0x4
 4257 052e 32050000 		.4byte	0x532
 4258 0532 18       		.uleb128 0x18
 4259 0533 01       		.byte	0x1
 4260 0534 16       		.uleb128 0x16
 4261 0535 630C0000 		.4byte	.LASF71
 4262 0539 08       		.byte	0x8
 4263 053a 0A       		.byte	0xa
 4264 053b 75       		.byte	0x75
ARM GAS  C:\Users\EBANO_~1\AppData\Local\Temp\cc7eeVhF.s 			page 125


 4265 053c 5D050000 		.4byte	0x55d
 4266 0540 0C       		.uleb128 0xc
 4267 0541 DE090000 		.4byte	.LASF72
 4268 0545 0A       		.byte	0xa
 4269 0546 76       		.byte	0x76
 4270 0547 5D050000 		.4byte	0x55d
 4271 054b 02       		.byte	0x2
 4272 054c 23       		.byte	0x23
 4273 054d 00       		.uleb128 0
 4274 054e 0C       		.uleb128 0xc
 4275 054f D9010000 		.4byte	.LASF73
 4276 0553 0A       		.byte	0xa
 4277 0554 77       		.byte	0x77
 4278 0555 77000000 		.4byte	0x77
 4279 0559 02       		.byte	0x2
 4280 055a 23       		.byte	0x23
 4281 055b 04       		.uleb128 0x4
 4282 055c 00       		.byte	0
 4283 055d 12       		.uleb128 0x12
 4284 055e 04       		.byte	0x4
 4285 055f 3B000000 		.4byte	0x3b
 4286 0563 16       		.uleb128 0x16
 4287 0564 88050000 		.4byte	.LASF74
 4288 0568 68       		.byte	0x68
 4289 0569 0A       		.byte	0xa
 4290 056a B5       		.byte	0xb5
 4291 056b BD060000 		.4byte	0x6bd
 4292 056f 0B       		.uleb128 0xb
 4293 0570 5F7000   		.ascii	"_p\000"
 4294 0573 0A       		.byte	0xa
 4295 0574 B6       		.byte	0xb6
 4296 0575 5D050000 		.4byte	0x55d
 4297 0579 02       		.byte	0x2
 4298 057a 23       		.byte	0x23
 4299 057b 00       		.uleb128 0
 4300 057c 0B       		.uleb128 0xb
 4301 057d 5F7200   		.ascii	"_r\000"
 4302 0580 0A       		.byte	0xa
 4303 0581 B7       		.byte	0xb7
 4304 0582 77000000 		.4byte	0x77
 4305 0586 02       		.byte	0x2
 4306 0587 23       		.byte	0x23
 4307 0588 04       		.uleb128 0x4
 4308 0589 0B       		.uleb128 0xb
 4309 058a 5F7700   		.ascii	"_w\000"
 4310 058d 0A       		.byte	0xa
 4311 058e B8       		.byte	0xb8
 4312 058f 77000000 		.4byte	0x77
 4313 0593 02       		.byte	0x2
 4314 0594 23       		.byte	0x23
 4315 0595 08       		.uleb128 0x8
 4316 0596 0C       		.uleb128 0xc
 4317 0597 0C080000 		.4byte	.LASF75
 4318 059b 0A       		.byte	0xa
 4319 059c B9       		.byte	0xb9
 4320 059d 42000000 		.4byte	0x42
 4321 05a1 02       		.byte	0x2
ARM GAS  C:\Users\EBANO_~1\AppData\Local\Temp\cc7eeVhF.s 			page 126


 4322 05a2 23       		.byte	0x23
 4323 05a3 0C       		.uleb128 0xc
 4324 05a4 0C       		.uleb128 0xc
 4325 05a5 80010000 		.4byte	.LASF76
 4326 05a9 0A       		.byte	0xa
 4327 05aa BA       		.byte	0xba
 4328 05ab 42000000 		.4byte	0x42
 4329 05af 02       		.byte	0x2
 4330 05b0 23       		.byte	0x23
 4331 05b1 0E       		.uleb128 0xe
 4332 05b2 0B       		.uleb128 0xb
 4333 05b3 5F626600 		.ascii	"_bf\000"
 4334 05b7 0A       		.byte	0xa
 4335 05b8 BB       		.byte	0xbb
 4336 05b9 34050000 		.4byte	0x534
 4337 05bd 02       		.byte	0x2
 4338 05be 23       		.byte	0x23
 4339 05bf 10       		.uleb128 0x10
 4340 05c0 0C       		.uleb128 0xc
 4341 05c1 200C0000 		.4byte	.LASF77
 4342 05c5 0A       		.byte	0xa
 4343 05c6 BC       		.byte	0xbc
 4344 05c7 77000000 		.4byte	0x77
 4345 05cb 02       		.byte	0x2
 4346 05cc 23       		.byte	0x23
 4347 05cd 18       		.uleb128 0x18
 4348 05ce 0C       		.uleb128 0xc
 4349 05cf A1040000 		.4byte	.LASF78
 4350 05d3 0A       		.byte	0xa
 4351 05d4 C3       		.byte	0xc3
 4352 05d5 C6020000 		.4byte	0x2c6
 4353 05d9 02       		.byte	0x2
 4354 05da 23       		.byte	0x23
 4355 05db 1C       		.uleb128 0x1c
 4356 05dc 0C       		.uleb128 0xc
 4357 05dd 39000000 		.4byte	.LASF79
 4358 05e1 0A       		.byte	0xa
 4359 05e2 C5       		.byte	0xc5
 4360 05e3 57080000 		.4byte	0x857
 4361 05e7 02       		.byte	0x2
 4362 05e8 23       		.byte	0x23
 4363 05e9 20       		.uleb128 0x20
 4364 05ea 0C       		.uleb128 0xc
 4365 05eb 58000000 		.4byte	.LASF80
 4366 05ef 0A       		.byte	0xa
 4367 05f0 C7       		.byte	0xc7
 4368 05f1 82080000 		.4byte	0x882
 4369 05f5 02       		.byte	0x2
 4370 05f6 23       		.byte	0x23
 4371 05f7 24       		.uleb128 0x24
 4372 05f8 0C       		.uleb128 0xc
 4373 05f9 C5080000 		.4byte	.LASF81
 4374 05fd 0A       		.byte	0xa
 4375 05fe CA       		.byte	0xca
 4376 05ff A7080000 		.4byte	0x8a7
 4377 0603 02       		.byte	0x2
 4378 0604 23       		.byte	0x23
ARM GAS  C:\Users\EBANO_~1\AppData\Local\Temp\cc7eeVhF.s 			page 127


 4379 0605 28       		.uleb128 0x28
 4380 0606 0C       		.uleb128 0xc
 4381 0607 7D030000 		.4byte	.LASF82
 4382 060b 0A       		.byte	0xa
 4383 060c CB       		.byte	0xcb
 4384 060d C2080000 		.4byte	0x8c2
 4385 0611 02       		.byte	0x2
 4386 0612 23       		.byte	0x23
 4387 0613 2C       		.uleb128 0x2c
 4388 0614 0B       		.uleb128 0xb
 4389 0615 5F756200 		.ascii	"_ub\000"
 4390 0619 0A       		.byte	0xa
 4391 061a CE       		.byte	0xce
 4392 061b 34050000 		.4byte	0x534
 4393 061f 02       		.byte	0x2
 4394 0620 23       		.byte	0x23
 4395 0621 30       		.uleb128 0x30
 4396 0622 0B       		.uleb128 0xb
 4397 0623 5F757000 		.ascii	"_up\000"
 4398 0627 0A       		.byte	0xa
 4399 0628 CF       		.byte	0xcf
 4400 0629 5D050000 		.4byte	0x55d
 4401 062d 02       		.byte	0x2
 4402 062e 23       		.byte	0x23
 4403 062f 38       		.uleb128 0x38
 4404 0630 0B       		.uleb128 0xb
 4405 0631 5F757200 		.ascii	"_ur\000"
 4406 0635 0A       		.byte	0xa
 4407 0636 D0       		.byte	0xd0
 4408 0637 77000000 		.4byte	0x77
 4409 063b 02       		.byte	0x2
 4410 063c 23       		.byte	0x23
 4411 063d 3C       		.uleb128 0x3c
 4412 063e 0C       		.uleb128 0xc
 4413 063f C3070000 		.4byte	.LASF83
 4414 0643 0A       		.byte	0xa
 4415 0644 D3       		.byte	0xd3
 4416 0645 C8080000 		.4byte	0x8c8
 4417 0649 02       		.byte	0x2
 4418 064a 23       		.byte	0x23
 4419 064b 40       		.uleb128 0x40
 4420 064c 0C       		.uleb128 0xc
 4421 064d C4000000 		.4byte	.LASF84
 4422 0651 0A       		.byte	0xa
 4423 0652 D4       		.byte	0xd4
 4424 0653 D8080000 		.4byte	0x8d8
 4425 0657 02       		.byte	0x2
 4426 0658 23       		.byte	0x23
 4427 0659 43       		.uleb128 0x43
 4428 065a 0B       		.uleb128 0xb
 4429 065b 5F6C6200 		.ascii	"_lb\000"
 4430 065f 0A       		.byte	0xa
 4431 0660 D7       		.byte	0xd7
 4432 0661 34050000 		.4byte	0x534
 4433 0665 02       		.byte	0x2
 4434 0666 23       		.byte	0x23
 4435 0667 44       		.uleb128 0x44
ARM GAS  C:\Users\EBANO_~1\AppData\Local\Temp\cc7eeVhF.s 			page 128


 4436 0668 0C       		.uleb128 0xc
 4437 0669 C4090000 		.4byte	.LASF85
 4438 066d 0A       		.byte	0xa
 4439 066e DA       		.byte	0xda
 4440 066f 77000000 		.4byte	0x77
 4441 0673 02       		.byte	0x2
 4442 0674 23       		.byte	0x23
 4443 0675 4C       		.uleb128 0x4c
 4444 0676 0C       		.uleb128 0xc
 4445 0677 C4040000 		.4byte	.LASF86
 4446 067b 0A       		.byte	0xa
 4447 067c DB       		.byte	0xdb
 4448 067d DF020000 		.4byte	0x2df
 4449 0681 02       		.byte	0x2
 4450 0682 23       		.byte	0x23
 4451 0683 50       		.uleb128 0x50
 4452 0684 0C       		.uleb128 0xc
 4453 0685 6A0A0000 		.4byte	.LASF87
 4454 0689 0A       		.byte	0xa
 4455 068a DE       		.byte	0xde
 4456 068b DC060000 		.4byte	0x6dc
 4457 068f 02       		.byte	0x2
 4458 0690 23       		.byte	0x23
 4459 0691 54       		.uleb128 0x54
 4460 0692 0C       		.uleb128 0xc
 4461 0693 DD000000 		.4byte	.LASF88
 4462 0697 0A       		.byte	0xa
 4463 0698 E2       		.byte	0xe2
 4464 0699 60030000 		.4byte	0x360
 4465 069d 02       		.byte	0x2
 4466 069e 23       		.byte	0x23
 4467 069f 58       		.uleb128 0x58
 4468 06a0 0C       		.uleb128 0xc
 4469 06a1 E4070000 		.4byte	.LASF89
 4470 06a5 0A       		.byte	0xa
 4471 06a6 E4       		.byte	0xe4
 4472 06a7 55030000 		.4byte	0x355
 4473 06ab 02       		.byte	0x2
 4474 06ac 23       		.byte	0x23
 4475 06ad 5C       		.uleb128 0x5c
 4476 06ae 0C       		.uleb128 0xc
 4477 06af 9B050000 		.4byte	.LASF90
 4478 06b3 0A       		.byte	0xa
 4479 06b4 E5       		.byte	0xe5
 4480 06b5 77000000 		.4byte	0x77
 4481 06b9 02       		.byte	0x2
 4482 06ba 23       		.byte	0x23
 4483 06bb 64       		.uleb128 0x64
 4484 06bc 00       		.byte	0
 4485 06bd 19       		.uleb128 0x19
 4486 06be 01       		.byte	0x1
 4487 06bf 77000000 		.4byte	0x77
 4488 06c3 DC060000 		.4byte	0x6dc
 4489 06c7 1A       		.uleb128 0x1a
 4490 06c8 DC060000 		.4byte	0x6dc
 4491 06cc 1A       		.uleb128 0x1a
 4492 06cd C6020000 		.4byte	0x2c6
ARM GAS  C:\Users\EBANO_~1\AppData\Local\Temp\cc7eeVhF.s 			page 129


 4493 06d1 1A       		.uleb128 0x1a
 4494 06d2 45080000 		.4byte	0x845
 4495 06d6 1A       		.uleb128 0x1a
 4496 06d7 77000000 		.4byte	0x77
 4497 06db 00       		.byte	0
 4498 06dc 12       		.uleb128 0x12
 4499 06dd 04       		.byte	0x4
 4500 06de E7060000 		.4byte	0x6e7
 4501 06e2 05       		.uleb128 0x5
 4502 06e3 DC060000 		.4byte	0x6dc
 4503 06e7 1B       		.uleb128 0x1b
 4504 06e8 34030000 		.4byte	.LASF91
 4505 06ec 2804     		.2byte	0x428
 4506 06ee 0A       		.byte	0xa
 4507 06ef 6002     		.2byte	0x260
 4508 06f1 45080000 		.4byte	0x845
 4509 06f5 1C       		.uleb128 0x1c
 4510 06f6 C6050000 		.4byte	.LASF92
 4511 06fa 0A       		.byte	0xa
 4512 06fb 6202     		.2byte	0x262
 4513 06fd 77000000 		.4byte	0x77
 4514 0701 02       		.byte	0x2
 4515 0702 23       		.byte	0x23
 4516 0703 00       		.uleb128 0
 4517 0704 1C       		.uleb128 0x1c
 4518 0705 0D040000 		.4byte	.LASF93
 4519 0709 0A       		.byte	0xa
 4520 070a 6702     		.2byte	0x267
 4521 070c 35090000 		.4byte	0x935
 4522 0710 02       		.byte	0x2
 4523 0711 23       		.byte	0x23
 4524 0712 04       		.uleb128 0x4
 4525 0713 1C       		.uleb128 0x1c
 4526 0714 81090000 		.4byte	.LASF94
 4527 0718 0A       		.byte	0xa
 4528 0719 6702     		.2byte	0x267
 4529 071b 35090000 		.4byte	0x935
 4530 071f 02       		.byte	0x2
 4531 0720 23       		.byte	0x23
 4532 0721 08       		.uleb128 0x8
 4533 0722 1C       		.uleb128 0x1c
 4534 0723 CE070000 		.4byte	.LASF95
 4535 0727 0A       		.byte	0xa
 4536 0728 6702     		.2byte	0x267
 4537 072a 35090000 		.4byte	0x935
 4538 072e 02       		.byte	0x2
 4539 072f 23       		.byte	0x23
 4540 0730 0C       		.uleb128 0xc
 4541 0731 1C       		.uleb128 0x1c
 4542 0732 290C0000 		.4byte	.LASF96
 4543 0736 0A       		.byte	0xa
 4544 0737 6902     		.2byte	0x269
 4545 0739 77000000 		.4byte	0x77
 4546 073d 02       		.byte	0x2
 4547 073e 23       		.byte	0x23
 4548 073f 10       		.uleb128 0x10
 4549 0740 1C       		.uleb128 0x1c
ARM GAS  C:\Users\EBANO_~1\AppData\Local\Temp\cc7eeVhF.s 			page 130


 4550 0741 28060000 		.4byte	.LASF97
 4551 0745 0A       		.byte	0xa
 4552 0746 6A02     		.2byte	0x26a
 4553 0748 500B0000 		.4byte	0xb50
 4554 074c 02       		.byte	0x2
 4555 074d 23       		.byte	0x23
 4556 074e 14       		.uleb128 0x14
 4557 074f 1C       		.uleb128 0x1c
 4558 0750 1B030000 		.4byte	.LASF98
 4559 0754 0A       		.byte	0xa
 4560 0755 6D02     		.2byte	0x26d
 4561 0757 77000000 		.4byte	0x77
 4562 075b 02       		.byte	0x2
 4563 075c 23       		.byte	0x23
 4564 075d 30       		.uleb128 0x30
 4565 075e 1C       		.uleb128 0x1c
 4566 075f 810C0000 		.4byte	.LASF99
 4567 0763 0A       		.byte	0xa
 4568 0764 6E02     		.2byte	0x26e
 4569 0766 660B0000 		.4byte	0xb66
 4570 076a 02       		.byte	0x2
 4571 076b 23       		.byte	0x23
 4572 076c 34       		.uleb128 0x34
 4573 076d 1C       		.uleb128 0x1c
 4574 076e 90050000 		.4byte	.LASF100
 4575 0772 0A       		.byte	0xa
 4576 0773 7002     		.2byte	0x270
 4577 0775 77000000 		.4byte	0x77
 4578 0779 02       		.byte	0x2
 4579 077a 23       		.byte	0x23
 4580 077b 38       		.uleb128 0x38
 4581 077c 1C       		.uleb128 0x1c
 4582 077d F9050000 		.4byte	.LASF101
 4583 0781 0A       		.byte	0xa
 4584 0782 7202     		.2byte	0x272
 4585 0784 780B0000 		.4byte	0xb78
 4586 0788 02       		.byte	0x2
 4587 0789 23       		.byte	0x23
 4588 078a 3C       		.uleb128 0x3c
 4589 078b 1C       		.uleb128 0x1c
 4590 078c BE0C0000 		.4byte	.LASF102
 4591 0790 0A       		.byte	0xa
 4592 0791 7502     		.2byte	0x275
 4593 0793 D5030000 		.4byte	0x3d5
 4594 0797 02       		.byte	0x2
 4595 0798 23       		.byte	0x23
 4596 0799 40       		.uleb128 0x40
 4597 079a 1C       		.uleb128 0x1c
 4598 079b B7010000 		.4byte	.LASF103
 4599 079f 0A       		.byte	0xa
 4600 07a0 7602     		.2byte	0x276
 4601 07a2 77000000 		.4byte	0x77
 4602 07a6 02       		.byte	0x2
 4603 07a7 23       		.byte	0x23
 4604 07a8 44       		.uleb128 0x44
 4605 07a9 1C       		.uleb128 0x1c
 4606 07aa 47050000 		.4byte	.LASF104
ARM GAS  C:\Users\EBANO_~1\AppData\Local\Temp\cc7eeVhF.s 			page 131


 4607 07ae 0A       		.byte	0xa
 4608 07af 7702     		.2byte	0x277
 4609 07b1 D5030000 		.4byte	0x3d5
 4610 07b5 02       		.byte	0x2
 4611 07b6 23       		.byte	0x23
 4612 07b7 48       		.uleb128 0x48
 4613 07b8 1C       		.uleb128 0x1c
 4614 07b9 90060000 		.4byte	.LASF105
 4615 07bd 0A       		.byte	0xa
 4616 07be 7802     		.2byte	0x278
 4617 07c0 7E0B0000 		.4byte	0xb7e
 4618 07c4 02       		.byte	0x2
 4619 07c5 23       		.byte	0x23
 4620 07c6 4C       		.uleb128 0x4c
 4621 07c7 1C       		.uleb128 0x1c
 4622 07c8 7F000000 		.4byte	.LASF106
 4623 07cc 0A       		.byte	0xa
 4624 07cd 7B02     		.2byte	0x27b
 4625 07cf 77000000 		.4byte	0x77
 4626 07d3 02       		.byte	0x2
 4627 07d4 23       		.byte	0x23
 4628 07d5 50       		.uleb128 0x50
 4629 07d6 1C       		.uleb128 0x1c
 4630 07d7 D8040000 		.4byte	.LASF107
 4631 07db 0A       		.byte	0xa
 4632 07dc 7C02     		.2byte	0x27c
 4633 07de 45080000 		.4byte	0x845
 4634 07e2 02       		.byte	0x2
 4635 07e3 23       		.byte	0x23
 4636 07e4 54       		.uleb128 0x54
 4637 07e5 1C       		.uleb128 0x1c
 4638 07e6 BE070000 		.4byte	.LASF108
 4639 07ea 0A       		.byte	0xa
 4640 07eb 9F02     		.2byte	0x29f
 4641 07ed 2E0B0000 		.4byte	0xb2e
 4642 07f1 02       		.byte	0x2
 4643 07f2 23       		.byte	0x23
 4644 07f3 58       		.uleb128 0x58
 4645 07f4 1C       		.uleb128 0x1c
 4646 07f5 35080000 		.4byte	.LASF68
 4647 07f9 0A       		.byte	0xa
 4648 07fa A302     		.2byte	0x2a3
 4649 07fc 16050000 		.4byte	0x516
 4650 0800 03       		.byte	0x3
 4651 0801 23       		.byte	0x23
 4652 0802 C802     		.uleb128 0x148
 4653 0804 1C       		.uleb128 0x1c
 4654 0805 03060000 		.4byte	.LASF109
 4655 0809 0A       		.byte	0xa
 4656 080a A402     		.2byte	0x2a4
 4657 080c CF040000 		.4byte	0x4cf
 4658 0810 03       		.byte	0x3
 4659 0811 23       		.byte	0x23
 4660 0812 CC02     		.uleb128 0x14c
 4661 0814 1C       		.uleb128 0x1c
 4662 0815 BA040000 		.4byte	.LASF110
 4663 0819 0A       		.byte	0xa
ARM GAS  C:\Users\EBANO_~1\AppData\Local\Temp\cc7eeVhF.s 			page 132


 4664 081a A802     		.2byte	0x2a8
 4665 081c 900B0000 		.4byte	0xb90
 4666 0820 03       		.byte	0x3
 4667 0821 23       		.byte	0x23
 4668 0822 DC05     		.uleb128 0x2dc
 4669 0824 1C       		.uleb128 0x1c
 4670 0825 53060000 		.4byte	.LASF111
 4671 0829 0A       		.byte	0xa
 4672 082a AD02     		.2byte	0x2ad
 4673 082c F4080000 		.4byte	0x8f4
 4674 0830 03       		.byte	0x3
 4675 0831 23       		.byte	0x23
 4676 0832 E005     		.uleb128 0x2e0
 4677 0834 1C       		.uleb128 0x1c
 4678 0835 22000000 		.4byte	.LASF112
 4679 0839 0A       		.byte	0xa
 4680 083a AF02     		.2byte	0x2af
 4681 083c 9C0B0000 		.4byte	0xb9c
 4682 0840 03       		.byte	0x3
 4683 0841 23       		.byte	0x23
 4684 0842 EC05     		.uleb128 0x2ec
 4685 0844 00       		.byte	0
 4686 0845 12       		.uleb128 0x12
 4687 0846 04       		.byte	0x4
 4688 0847 4B080000 		.4byte	0x84b
 4689 084b 02       		.uleb128 0x2
 4690 084c 01       		.byte	0x1
 4691 084d 08       		.byte	0x8
 4692 084e 73030000 		.4byte	.LASF113
 4693 0852 05       		.uleb128 0x5
 4694 0853 4B080000 		.4byte	0x84b
 4695 0857 12       		.uleb128 0x12
 4696 0858 04       		.byte	0x4
 4697 0859 BD060000 		.4byte	0x6bd
 4698 085d 19       		.uleb128 0x19
 4699 085e 01       		.byte	0x1
 4700 085f 77000000 		.4byte	0x77
 4701 0863 7C080000 		.4byte	0x87c
 4702 0867 1A       		.uleb128 0x1a
 4703 0868 DC060000 		.4byte	0x6dc
 4704 086c 1A       		.uleb128 0x1a
 4705 086d C6020000 		.4byte	0x2c6
 4706 0871 1A       		.uleb128 0x1a
 4707 0872 7C080000 		.4byte	0x87c
 4708 0876 1A       		.uleb128 0x1a
 4709 0877 77000000 		.4byte	0x77
 4710 087b 00       		.byte	0
 4711 087c 12       		.uleb128 0x12
 4712 087d 04       		.byte	0x4
 4713 087e 52080000 		.4byte	0x852
 4714 0882 12       		.uleb128 0x12
 4715 0883 04       		.byte	0x4
 4716 0884 5D080000 		.4byte	0x85d
 4717 0888 19       		.uleb128 0x19
 4718 0889 01       		.byte	0x1
 4719 088a EA020000 		.4byte	0x2ea
 4720 088e A7080000 		.4byte	0x8a7
ARM GAS  C:\Users\EBANO_~1\AppData\Local\Temp\cc7eeVhF.s 			page 133


 4721 0892 1A       		.uleb128 0x1a
 4722 0893 DC060000 		.4byte	0x6dc
 4723 0897 1A       		.uleb128 0x1a
 4724 0898 C6020000 		.4byte	0x2c6
 4725 089c 1A       		.uleb128 0x1a
 4726 089d EA020000 		.4byte	0x2ea
 4727 08a1 1A       		.uleb128 0x1a
 4728 08a2 77000000 		.4byte	0x77
 4729 08a6 00       		.byte	0
 4730 08a7 12       		.uleb128 0x12
 4731 08a8 04       		.byte	0x4
 4732 08a9 88080000 		.4byte	0x888
 4733 08ad 19       		.uleb128 0x19
 4734 08ae 01       		.byte	0x1
 4735 08af 77000000 		.4byte	0x77
 4736 08b3 C2080000 		.4byte	0x8c2
 4737 08b7 1A       		.uleb128 0x1a
 4738 08b8 DC060000 		.4byte	0x6dc
 4739 08bc 1A       		.uleb128 0x1a
 4740 08bd C6020000 		.4byte	0x2c6
 4741 08c1 00       		.byte	0
 4742 08c2 12       		.uleb128 0x12
 4743 08c3 04       		.byte	0x4
 4744 08c4 AD080000 		.4byte	0x8ad
 4745 08c8 08       		.uleb128 0x8
 4746 08c9 3B000000 		.4byte	0x3b
 4747 08cd D8080000 		.4byte	0x8d8
 4748 08d1 09       		.uleb128 0x9
 4749 08d2 7E000000 		.4byte	0x7e
 4750 08d6 02       		.byte	0x2
 4751 08d7 00       		.byte	0
 4752 08d8 08       		.uleb128 0x8
 4753 08d9 3B000000 		.4byte	0x3b
 4754 08dd E8080000 		.4byte	0x8e8
 4755 08e1 09       		.uleb128 0x9
 4756 08e2 7E000000 		.4byte	0x7e
 4757 08e6 00       		.byte	0
 4758 08e7 00       		.byte	0
 4759 08e8 0D       		.uleb128 0xd
 4760 08e9 200A0000 		.4byte	.LASF114
 4761 08ed 0A       		.byte	0xa
 4762 08ee 1F01     		.2byte	0x11f
 4763 08f0 63050000 		.4byte	0x563
 4764 08f4 1D       		.uleb128 0x1d
 4765 08f5 C5060000 		.4byte	.LASF115
 4766 08f9 0C       		.byte	0xc
 4767 08fa 0A       		.byte	0xa
 4768 08fb 2301     		.2byte	0x123
 4769 08fd 2F090000 		.4byte	0x92f
 4770 0901 1C       		.uleb128 0x1c
 4771 0902 640A0000 		.4byte	.LASF48
 4772 0906 0A       		.byte	0xa
 4773 0907 2501     		.2byte	0x125
 4774 0909 2F090000 		.4byte	0x92f
 4775 090d 02       		.byte	0x2
 4776 090e 23       		.byte	0x23
 4777 090f 00       		.uleb128 0
ARM GAS  C:\Users\EBANO_~1\AppData\Local\Temp\cc7eeVhF.s 			page 134


 4778 0910 1C       		.uleb128 0x1c
 4779 0911 4C060000 		.4byte	.LASF116
 4780 0915 0A       		.byte	0xa
 4781 0916 2601     		.2byte	0x126
 4782 0918 77000000 		.4byte	0x77
 4783 091c 02       		.byte	0x2
 4784 091d 23       		.byte	0x23
 4785 091e 04       		.uleb128 0x4
 4786 091f 1C       		.uleb128 0x1c
 4787 0920 AC060000 		.4byte	.LASF117
 4788 0924 0A       		.byte	0xa
 4789 0925 2701     		.2byte	0x127
 4790 0927 35090000 		.4byte	0x935
 4791 092b 02       		.byte	0x2
 4792 092c 23       		.byte	0x23
 4793 092d 08       		.uleb128 0x8
 4794 092e 00       		.byte	0
 4795 092f 12       		.uleb128 0x12
 4796 0930 04       		.byte	0x4
 4797 0931 F4080000 		.4byte	0x8f4
 4798 0935 12       		.uleb128 0x12
 4799 0936 04       		.byte	0x4
 4800 0937 E8080000 		.4byte	0x8e8
 4801 093b 1D       		.uleb128 0x1d
 4802 093c 6F090000 		.4byte	.LASF118
 4803 0940 0E       		.byte	0xe
 4804 0941 0A       		.byte	0xa
 4805 0942 3F01     		.2byte	0x13f
 4806 0944 76090000 		.4byte	0x976
 4807 0948 1C       		.uleb128 0x1c
 4808 0949 BF080000 		.4byte	.LASF119
 4809 094d 0A       		.byte	0xa
 4810 094e 4001     		.2byte	0x140
 4811 0950 76090000 		.4byte	0x976
 4812 0954 02       		.byte	0x2
 4813 0955 23       		.byte	0x23
 4814 0956 00       		.uleb128 0
 4815 0957 1C       		.uleb128 0x1c
 4816 0958 09010000 		.4byte	.LASF120
 4817 095c 0A       		.byte	0xa
 4818 095d 4101     		.2byte	0x141
 4819 095f 76090000 		.4byte	0x976
 4820 0963 02       		.byte	0x2
 4821 0964 23       		.byte	0x23
 4822 0965 06       		.uleb128 0x6
 4823 0966 1C       		.uleb128 0x1c
 4824 0967 0A0D0000 		.4byte	.LASF121
 4825 096b 0A       		.byte	0xa
 4826 096c 4201     		.2byte	0x142
 4827 096e 49000000 		.4byte	0x49
 4828 0972 02       		.byte	0x2
 4829 0973 23       		.byte	0x23
 4830 0974 0C       		.uleb128 0xc
 4831 0975 00       		.byte	0
 4832 0976 08       		.uleb128 0x8
 4833 0977 49000000 		.4byte	0x49
 4834 097b 86090000 		.4byte	0x986
ARM GAS  C:\Users\EBANO_~1\AppData\Local\Temp\cc7eeVhF.s 			page 135


 4835 097f 09       		.uleb128 0x9
 4836 0980 7E000000 		.4byte	0x7e
 4837 0984 02       		.byte	0x2
 4838 0985 00       		.byte	0
 4839 0986 1E       		.uleb128 0x1e
 4840 0987 D0       		.byte	0xd0
 4841 0988 0A       		.byte	0xa
 4842 0989 8002     		.2byte	0x280
 4843 098b B60A0000 		.4byte	0xab6
 4844 098f 1C       		.uleb128 0x1c
 4845 0990 39020000 		.4byte	.LASF122
 4846 0994 0A       		.byte	0xa
 4847 0995 8202     		.2byte	0x282
 4848 0997 7E000000 		.4byte	0x7e
 4849 099b 02       		.byte	0x2
 4850 099c 23       		.byte	0x23
 4851 099d 00       		.uleb128 0
 4852 099e 1C       		.uleb128 0x1c
 4853 099f F5090000 		.4byte	.LASF123
 4854 09a3 0A       		.byte	0xa
 4855 09a4 8302     		.2byte	0x283
 4856 09a6 45080000 		.4byte	0x845
 4857 09aa 02       		.byte	0x2
 4858 09ab 23       		.byte	0x23
 4859 09ac 04       		.uleb128 0x4
 4860 09ad 1C       		.uleb128 0x1c
 4861 09ae 72000000 		.4byte	.LASF124
 4862 09b2 0A       		.byte	0xa
 4863 09b3 8402     		.2byte	0x284
 4864 09b5 B60A0000 		.4byte	0xab6
 4865 09b9 02       		.byte	0x2
 4866 09ba 23       		.byte	0x23
 4867 09bb 08       		.uleb128 0x8
 4868 09bc 1C       		.uleb128 0x1c
 4869 09bd DF010000 		.4byte	.LASF125
 4870 09c1 0A       		.byte	0xa
 4871 09c2 8502     		.2byte	0x285
 4872 09c4 EB030000 		.4byte	0x3eb
 4873 09c8 02       		.byte	0x2
 4874 09c9 23       		.byte	0x23
 4875 09ca 24       		.uleb128 0x24
 4876 09cb 1C       		.uleb128 0x1c
 4877 09cc 73060000 		.4byte	.LASF126
 4878 09d0 0A       		.byte	0xa
 4879 09d1 8602     		.2byte	0x286
 4880 09d3 77000000 		.4byte	0x77
 4881 09d7 02       		.byte	0x2
 4882 09d8 23       		.byte	0x23
 4883 09d9 48       		.uleb128 0x48
 4884 09da 1C       		.uleb128 0x1c
 4885 09db 01080000 		.4byte	.LASF127
 4886 09df 0A       		.byte	0xa
 4887 09e0 8702     		.2byte	0x287
 4888 09e2 70000000 		.4byte	0x70
 4889 09e6 02       		.byte	0x2
 4890 09e7 23       		.byte	0x23
 4891 09e8 50       		.uleb128 0x50
ARM GAS  C:\Users\EBANO_~1\AppData\Local\Temp\cc7eeVhF.s 			page 136


 4892 09e9 1C       		.uleb128 0x1c
 4893 09ea 490A0000 		.4byte	.LASF128
 4894 09ee 0A       		.byte	0xa
 4895 09ef 8802     		.2byte	0x288
 4896 09f1 3B090000 		.4byte	0x93b
 4897 09f5 02       		.byte	0x2
 4898 09f6 23       		.byte	0x23
 4899 09f7 58       		.uleb128 0x58
 4900 09f8 1C       		.uleb128 0x1c
 4901 09f9 D90A0000 		.4byte	.LASF129
 4902 09fd 0A       		.byte	0xa
 4903 09fe 8902     		.2byte	0x289
 4904 0a00 55030000 		.4byte	0x355
 4905 0a04 02       		.byte	0x2
 4906 0a05 23       		.byte	0x23
 4907 0a06 68       		.uleb128 0x68
 4908 0a07 1C       		.uleb128 0x1c
 4909 0a08 16090000 		.4byte	.LASF130
 4910 0a0c 0A       		.byte	0xa
 4911 0a0d 8A02     		.2byte	0x28a
 4912 0a0f 55030000 		.4byte	0x355
 4913 0a13 02       		.byte	0x2
 4914 0a14 23       		.byte	0x23
 4915 0a15 70       		.uleb128 0x70
 4916 0a16 1C       		.uleb128 0x1c
 4917 0a17 D6070000 		.4byte	.LASF131
 4918 0a1b 0A       		.byte	0xa
 4919 0a1c 8B02     		.2byte	0x28b
 4920 0a1e 55030000 		.4byte	0x355
 4921 0a22 02       		.byte	0x2
 4922 0a23 23       		.byte	0x23
 4923 0a24 78       		.uleb128 0x78
 4924 0a25 1C       		.uleb128 0x1c
 4925 0a26 D3000000 		.4byte	.LASF132
 4926 0a2a 0A       		.byte	0xa
 4927 0a2b 8C02     		.2byte	0x28c
 4928 0a2d C60A0000 		.4byte	0xac6
 4929 0a31 03       		.byte	0x3
 4930 0a32 23       		.byte	0x23
 4931 0a33 8001     		.uleb128 0x80
 4932 0a35 1C       		.uleb128 0x1c
 4933 0a36 CD050000 		.4byte	.LASF133
 4934 0a3a 0A       		.byte	0xa
 4935 0a3b 8D02     		.2byte	0x28d
 4936 0a3d D60A0000 		.4byte	0xad6
 4937 0a41 03       		.byte	0x3
 4938 0a42 23       		.byte	0x23
 4939 0a43 8801     		.uleb128 0x88
 4940 0a45 1C       		.uleb128 0x1c
 4941 0a46 920D0000 		.4byte	.LASF134
 4942 0a4a 0A       		.byte	0xa
 4943 0a4b 8E02     		.2byte	0x28e
 4944 0a4d 77000000 		.4byte	0x77
 4945 0a51 03       		.byte	0x3
 4946 0a52 23       		.byte	0x23
 4947 0a53 A001     		.uleb128 0xa0
 4948 0a55 1C       		.uleb128 0x1c
ARM GAS  C:\Users\EBANO_~1\AppData\Local\Temp\cc7eeVhF.s 			page 137


 4949 0a56 94010000 		.4byte	.LASF135
 4950 0a5a 0A       		.byte	0xa
 4951 0a5b 8F02     		.2byte	0x28f
 4952 0a5d 55030000 		.4byte	0x355
 4953 0a61 03       		.byte	0x3
 4954 0a62 23       		.byte	0x23
 4955 0a63 A401     		.uleb128 0xa4
 4956 0a65 1C       		.uleb128 0x1c
 4957 0a66 020A0000 		.4byte	.LASF136
 4958 0a6a 0A       		.byte	0xa
 4959 0a6b 9002     		.2byte	0x290
 4960 0a6d 55030000 		.4byte	0x355
 4961 0a71 03       		.byte	0x3
 4962 0a72 23       		.byte	0x23
 4963 0a73 AC01     		.uleb128 0xac
 4964 0a75 1C       		.uleb128 0x1c
 4965 0a76 4C0D0000 		.4byte	.LASF137
 4966 0a7a 0A       		.byte	0xa
 4967 0a7b 9102     		.2byte	0x291
 4968 0a7d 55030000 		.4byte	0x355
 4969 0a81 03       		.byte	0x3
 4970 0a82 23       		.byte	0x23
 4971 0a83 B401     		.uleb128 0xb4
 4972 0a85 1C       		.uleb128 0x1c
 4973 0a86 5E070000 		.4byte	.LASF138
 4974 0a8a 0A       		.byte	0xa
 4975 0a8b 9202     		.2byte	0x292
 4976 0a8d 55030000 		.4byte	0x355
 4977 0a91 03       		.byte	0x3
 4978 0a92 23       		.byte	0x23
 4979 0a93 BC01     		.uleb128 0xbc
 4980 0a95 1C       		.uleb128 0x1c
 4981 0a96 B3000000 		.4byte	.LASF139
 4982 0a9a 0A       		.byte	0xa
 4983 0a9b 9302     		.2byte	0x293
 4984 0a9d 55030000 		.4byte	0x355
 4985 0aa1 03       		.byte	0x3
 4986 0aa2 23       		.byte	0x23
 4987 0aa3 C401     		.uleb128 0xc4
 4988 0aa5 1C       		.uleb128 0x1c
 4989 0aa6 91030000 		.4byte	.LASF140
 4990 0aaa 0A       		.byte	0xa
 4991 0aab 9402     		.2byte	0x294
 4992 0aad 77000000 		.4byte	0x77
 4993 0ab1 03       		.byte	0x3
 4994 0ab2 23       		.byte	0x23
 4995 0ab3 CC01     		.uleb128 0xcc
 4996 0ab5 00       		.byte	0
 4997 0ab6 08       		.uleb128 0x8
 4998 0ab7 4B080000 		.4byte	0x84b
 4999 0abb C60A0000 		.4byte	0xac6
 5000 0abf 09       		.uleb128 0x9
 5001 0ac0 7E000000 		.4byte	0x7e
 5002 0ac4 19       		.byte	0x19
 5003 0ac5 00       		.byte	0
 5004 0ac6 08       		.uleb128 0x8
 5005 0ac7 4B080000 		.4byte	0x84b
ARM GAS  C:\Users\EBANO_~1\AppData\Local\Temp\cc7eeVhF.s 			page 138


 5006 0acb D60A0000 		.4byte	0xad6
 5007 0acf 09       		.uleb128 0x9
 5008 0ad0 7E000000 		.4byte	0x7e
 5009 0ad4 07       		.byte	0x7
 5010 0ad5 00       		.byte	0
 5011 0ad6 08       		.uleb128 0x8
 5012 0ad7 4B080000 		.4byte	0x84b
 5013 0adb E60A0000 		.4byte	0xae6
 5014 0adf 09       		.uleb128 0x9
 5015 0ae0 7E000000 		.4byte	0x7e
 5016 0ae4 17       		.byte	0x17
 5017 0ae5 00       		.byte	0
 5018 0ae6 1E       		.uleb128 0x1e
 5019 0ae7 F0       		.byte	0xf0
 5020 0ae8 0A       		.byte	0xa
 5021 0ae9 9902     		.2byte	0x299
 5022 0aeb 0E0B0000 		.4byte	0xb0e
 5023 0aef 1C       		.uleb128 0x1c
 5024 0af0 7A0C0000 		.4byte	.LASF141
 5025 0af4 0A       		.byte	0xa
 5026 0af5 9C02     		.2byte	0x29c
 5027 0af7 0E0B0000 		.4byte	0xb0e
 5028 0afb 02       		.byte	0x2
 5029 0afc 23       		.byte	0x23
 5030 0afd 00       		.uleb128 0
 5031 0afe 1C       		.uleb128 0x1c
 5032 0aff 6A060000 		.4byte	.LASF142
 5033 0b03 0A       		.byte	0xa
 5034 0b04 9D02     		.2byte	0x29d
 5035 0b06 1E0B0000 		.4byte	0xb1e
 5036 0b0a 02       		.byte	0x2
 5037 0b0b 23       		.byte	0x23
 5038 0b0c 78       		.uleb128 0x78
 5039 0b0d 00       		.byte	0
 5040 0b0e 08       		.uleb128 0x8
 5041 0b0f 5D050000 		.4byte	0x55d
 5042 0b13 1E0B0000 		.4byte	0xb1e
 5043 0b17 09       		.uleb128 0x9
 5044 0b18 7E000000 		.4byte	0x7e
 5045 0b1c 1D       		.byte	0x1d
 5046 0b1d 00       		.byte	0
 5047 0b1e 08       		.uleb128 0x8
 5048 0b1f 7E000000 		.4byte	0x7e
 5049 0b23 2E0B0000 		.4byte	0xb2e
 5050 0b27 09       		.uleb128 0x9
 5051 0b28 7E000000 		.4byte	0x7e
 5052 0b2c 1D       		.byte	0x1d
 5053 0b2d 00       		.byte	0
 5054 0b2e 1F       		.uleb128 0x1f
 5055 0b2f F0       		.byte	0xf0
 5056 0b30 0A       		.byte	0xa
 5057 0b31 7E02     		.2byte	0x27e
 5058 0b33 500B0000 		.4byte	0xb50
 5059 0b37 20       		.uleb128 0x20
 5060 0b38 34030000 		.4byte	.LASF91
 5061 0b3c 0A       		.byte	0xa
 5062 0b3d 9502     		.2byte	0x295
ARM GAS  C:\Users\EBANO_~1\AppData\Local\Temp\cc7eeVhF.s 			page 139


 5063 0b3f 86090000 		.4byte	0x986
 5064 0b43 20       		.uleb128 0x20
 5065 0b44 A6000000 		.4byte	.LASF143
 5066 0b48 0A       		.byte	0xa
 5067 0b49 9E02     		.2byte	0x29e
 5068 0b4b E60A0000 		.4byte	0xae6
 5069 0b4f 00       		.byte	0
 5070 0b50 08       		.uleb128 0x8
 5071 0b51 4B080000 		.4byte	0x84b
 5072 0b55 600B0000 		.4byte	0xb60
 5073 0b59 09       		.uleb128 0x9
 5074 0b5a 7E000000 		.4byte	0x7e
 5075 0b5e 18       		.byte	0x18
 5076 0b5f 00       		.byte	0
 5077 0b60 13       		.uleb128 0x13
 5078 0b61 0F000000 		.4byte	.LASF145
 5079 0b65 01       		.byte	0x1
 5080 0b66 12       		.uleb128 0x12
 5081 0b67 04       		.byte	0x4
 5082 0b68 600B0000 		.4byte	0xb60
 5083 0b6c 21       		.uleb128 0x21
 5084 0b6d 01       		.byte	0x1
 5085 0b6e 780B0000 		.4byte	0xb78
 5086 0b72 1A       		.uleb128 0x1a
 5087 0b73 DC060000 		.4byte	0x6dc
 5088 0b77 00       		.byte	0
 5089 0b78 12       		.uleb128 0x12
 5090 0b79 04       		.byte	0x4
 5091 0b7a 6C0B0000 		.4byte	0xb6c
 5092 0b7e 12       		.uleb128 0x12
 5093 0b7f 04       		.byte	0x4
 5094 0b80 D5030000 		.4byte	0x3d5
 5095 0b84 21       		.uleb128 0x21
 5096 0b85 01       		.byte	0x1
 5097 0b86 900B0000 		.4byte	0xb90
 5098 0b8a 1A       		.uleb128 0x1a
 5099 0b8b 77000000 		.4byte	0x77
 5100 0b8f 00       		.byte	0
 5101 0b90 12       		.uleb128 0x12
 5102 0b91 04       		.byte	0x4
 5103 0b92 960B0000 		.4byte	0xb96
 5104 0b96 12       		.uleb128 0x12
 5105 0b97 04       		.byte	0x4
 5106 0b98 840B0000 		.4byte	0xb84
 5107 0b9c 08       		.uleb128 0x8
 5108 0b9d E8080000 		.4byte	0x8e8
 5109 0ba1 AC0B0000 		.4byte	0xbac
 5110 0ba5 09       		.uleb128 0x9
 5111 0ba6 7E000000 		.4byte	0x7e
 5112 0baa 02       		.byte	0x2
 5113 0bab 00       		.byte	0
 5114 0bac 22       		.uleb128 0x22
 5115 0bad AB010000 		.4byte	.LASF146
 5116 0bb1 0A       		.byte	0xa
 5117 0bb2 2E03     		.2byte	0x32e
 5118 0bb4 DC060000 		.4byte	0x6dc
 5119 0bb8 01       		.byte	0x1
ARM GAS  C:\Users\EBANO_~1\AppData\Local\Temp\cc7eeVhF.s 			page 140


 5120 0bb9 01       		.byte	0x1
 5121 0bba 22       		.uleb128 0x22
 5122 0bbb 3B030000 		.4byte	.LASF147
 5123 0bbf 0A       		.byte	0xa
 5124 0bc0 2F03     		.2byte	0x32f
 5125 0bc2 E2060000 		.4byte	0x6e2
 5126 0bc6 01       		.byte	0x1
 5127 0bc7 01       		.byte	0x1
 5128 0bc8 0E       		.uleb128 0xe
 5129 0bc9 07       		.byte	0x7
 5130 0bca 01       		.byte	0x1
 5131 0bcb 3B000000 		.4byte	0x3b
 5132 0bcf 0B       		.byte	0xb
 5133 0bd0 38       		.byte	0x38
 5134 0bd1 EE0B0000 		.4byte	0xbee
 5135 0bd5 0F       		.uleb128 0xf
 5136 0bd6 5A020000 		.4byte	.LASF148
 5137 0bda 00       		.byte	0
 5138 0bdb 0F       		.uleb128 0xf
 5139 0bdc 77090000 		.4byte	.LASF149
 5140 0be0 01       		.byte	0x1
 5141 0be1 0F       		.uleb128 0xf
 5142 0be2 E4080000 		.4byte	.LASF150
 5143 0be6 02       		.byte	0x2
 5144 0be7 0F       		.uleb128 0xf
 5145 0be8 0F0D0000 		.4byte	.LASF151
 5146 0bec 03       		.byte	0x3
 5147 0bed 00       		.byte	0
 5148 0bee 03       		.uleb128 0x3
 5149 0bef 27000000 		.4byte	.LASF152
 5150 0bf3 0B       		.byte	0xb
 5151 0bf4 3D       		.byte	0x3d
 5152 0bf5 C80B0000 		.4byte	0xbc8
 5153 0bf9 0E       		.uleb128 0xe
 5154 0bfa 07       		.byte	0x7
 5155 0bfb 01       		.byte	0x1
 5156 0bfc 3B000000 		.4byte	0x3b
 5157 0c00 0B       		.byte	0xb
 5158 0c01 43       		.byte	0x43
 5159 0c02 130C0000 		.4byte	0xc13
 5160 0c06 0F       		.uleb128 0xf
 5161 0c07 A5090000 		.4byte	.LASF153
 5162 0c0b 00       		.byte	0
 5163 0c0c 0F       		.uleb128 0xf
 5164 0c0d FF0C0000 		.4byte	.LASF154
 5165 0c11 01       		.byte	0x1
 5166 0c12 00       		.byte	0
 5167 0c13 03       		.uleb128 0x3
 5168 0c14 0F020000 		.4byte	.LASF155
 5169 0c18 0B       		.byte	0xb
 5170 0c19 46       		.byte	0x46
 5171 0c1a F90B0000 		.4byte	0xbf9
 5172 0c1e 0A       		.uleb128 0xa
 5173 0c1f 20       		.byte	0x20
 5174 0c20 0C       		.byte	0xc
 5175 0c21 3F       		.byte	0x3f
 5176 0c22 970C0000 		.4byte	0xc97
ARM GAS  C:\Users\EBANO_~1\AppData\Local\Temp\cc7eeVhF.s 			page 141


 5177 0c26 0C       		.uleb128 0xc
 5178 0c27 A10A0000 		.4byte	.LASF156
 5179 0c2b 0C       		.byte	0xc
 5180 0c2c 41       		.byte	0x41
 5181 0c2d 95000000 		.4byte	0x95
 5182 0c31 02       		.byte	0x2
 5183 0c32 23       		.byte	0x23
 5184 0c33 00       		.uleb128 0
 5185 0c34 0C       		.uleb128 0xc
 5186 0c35 00000000 		.4byte	.LASF157
 5187 0c39 0C       		.byte	0xc
 5188 0c3a 44       		.byte	0x44
 5189 0c3b 95000000 		.4byte	0x95
 5190 0c3f 02       		.byte	0x2
 5191 0c40 23       		.byte	0x23
 5192 0c41 04       		.uleb128 0x4
 5193 0c42 0C       		.uleb128 0xc
 5194 0c43 4C040000 		.4byte	.LASF158
 5195 0c47 0C       		.byte	0xc
 5196 0c48 48       		.byte	0x48
 5197 0c49 95000000 		.4byte	0x95
 5198 0c4d 02       		.byte	0x2
 5199 0c4e 23       		.byte	0x23
 5200 0c4f 08       		.uleb128 0x8
 5201 0c50 0C       		.uleb128 0xc
 5202 0c51 30040000 		.4byte	.LASF159
 5203 0c55 0C       		.byte	0xc
 5204 0c56 4C       		.byte	0x4c
 5205 0c57 95000000 		.4byte	0x95
 5206 0c5b 02       		.byte	0x2
 5207 0c5c 23       		.byte	0x23
 5208 0c5d 0C       		.uleb128 0xc
 5209 0c5e 0C       		.uleb128 0xc
 5210 0c5f 74040000 		.4byte	.LASF160
 5211 0c63 0C       		.byte	0xc
 5212 0c64 50       		.byte	0x50
 5213 0c65 95000000 		.4byte	0x95
 5214 0c69 02       		.byte	0x2
 5215 0c6a 23       		.byte	0x23
 5216 0c6b 10       		.uleb128 0x10
 5217 0c6c 0C       		.uleb128 0xc
 5218 0c6d 0C060000 		.4byte	.LASF161
 5219 0c71 0C       		.byte	0xc
 5220 0c72 54       		.byte	0x54
 5221 0c73 95000000 		.4byte	0x95
 5222 0c77 02       		.byte	0x2
 5223 0c78 23       		.byte	0x23
 5224 0c79 14       		.uleb128 0x14
 5225 0c7a 0C       		.uleb128 0xc
 5226 0c7b BA080000 		.4byte	.LASF162
 5227 0c7f 0C       		.byte	0xc
 5228 0c80 58       		.byte	0x58
 5229 0c81 95000000 		.4byte	0x95
 5230 0c85 02       		.byte	0x2
 5231 0c86 23       		.byte	0x23
 5232 0c87 18       		.uleb128 0x18
 5233 0c88 0C       		.uleb128 0xc
ARM GAS  C:\Users\EBANO_~1\AppData\Local\Temp\cc7eeVhF.s 			page 142


 5234 0c89 EE010000 		.4byte	.LASF163
 5235 0c8d 0C       		.byte	0xc
 5236 0c8e 5D       		.byte	0x5d
 5237 0c8f 95000000 		.4byte	0x95
 5238 0c93 02       		.byte	0x2
 5239 0c94 23       		.byte	0x23
 5240 0c95 1C       		.uleb128 0x1c
 5241 0c96 00       		.byte	0
 5242 0c97 03       		.uleb128 0x3
 5243 0c98 A90A0000 		.4byte	.LASF164
 5244 0c9c 0C       		.byte	0xc
 5245 0c9d 5F       		.byte	0x5f
 5246 0c9e 1E0C0000 		.4byte	0xc1e
 5247 0ca2 0E       		.uleb128 0xe
 5248 0ca3 07       		.byte	0x7
 5249 0ca4 01       		.byte	0x1
 5250 0ca5 3B000000 		.4byte	0x3b
 5251 0ca9 0C       		.byte	0xc
 5252 0caa 6F       		.byte	0x6f
 5253 0cab D40C0000 		.4byte	0xcd4
 5254 0caf 0F       		.uleb128 0xf
 5255 0cb0 ED070000 		.4byte	.LASF165
 5256 0cb4 00       		.byte	0
 5257 0cb5 0F       		.uleb128 0xf
 5258 0cb6 380D0000 		.4byte	.LASF166
 5259 0cba 01       		.byte	0x1
 5260 0cbb 0F       		.uleb128 0xf
 5261 0cbc 810A0000 		.4byte	.LASF167
 5262 0cc0 02       		.byte	0x2
 5263 0cc1 0F       		.uleb128 0xf
 5264 0cc2 FE060000 		.4byte	.LASF168
 5265 0cc6 03       		.byte	0x3
 5266 0cc7 0F       		.uleb128 0xf
 5267 0cc8 1C040000 		.4byte	.LASF169
 5268 0ccc 04       		.byte	0x4
 5269 0ccd 0F       		.uleb128 0xf
 5270 0cce 3F000000 		.4byte	.LASF170
 5271 0cd2 05       		.byte	0x5
 5272 0cd3 00       		.byte	0
 5273 0cd4 03       		.uleb128 0x3
 5274 0cd5 D10B0000 		.4byte	.LASF171
 5275 0cd9 0C       		.byte	0xc
 5276 0cda 76       		.byte	0x76
 5277 0cdb A20C0000 		.4byte	0xca2
 5278 0cdf 06       		.uleb128 0x6
 5279 0ce0 D40C0000 		.4byte	0xcd4
 5280 0ce4 16       		.uleb128 0x16
 5281 0ce5 3B090000 		.4byte	.LASF172
 5282 0ce9 40       		.byte	0x40
 5283 0cea 0C       		.byte	0xc
 5284 0ceb 86       		.byte	0x86
 5285 0cec 7D0D0000 		.4byte	0xd7d
 5286 0cf0 0C       		.uleb128 0xc
 5287 0cf1 ED040000 		.4byte	.LASF173
 5288 0cf5 0C       		.byte	0xc
 5289 0cf6 88       		.byte	0x88
 5290 0cf7 7D0D0000 		.4byte	0xd7d
ARM GAS  C:\Users\EBANO_~1\AppData\Local\Temp\cc7eeVhF.s 			page 143


 5291 0cfb 02       		.byte	0x2
 5292 0cfc 23       		.byte	0x23
 5293 0cfd 00       		.uleb128 0
 5294 0cfe 0C       		.uleb128 0xc
 5295 0cff 1A080000 		.4byte	.LASF174
 5296 0d03 0C       		.byte	0xc
 5297 0d04 8A       		.byte	0x8a
 5298 0d05 970C0000 		.4byte	0xc97
 5299 0d09 02       		.byte	0x2
 5300 0d0a 23       		.byte	0x23
 5301 0d0b 04       		.uleb128 0x4
 5302 0d0c 0C       		.uleb128 0xc
 5303 0d0d 71010000 		.4byte	.LASF175
 5304 0d11 0C       		.byte	0xc
 5305 0d12 8C       		.byte	0x8c
 5306 0d13 130C0000 		.4byte	0xc13
 5307 0d17 02       		.byte	0x2
 5308 0d18 23       		.byte	0x23
 5309 0d19 24       		.uleb128 0x24
 5310 0d1a 0C       		.uleb128 0xc
 5311 0d1b 9F090000 		.4byte	.LASF176
 5312 0d1f 0C       		.byte	0xc
 5313 0d20 8E       		.byte	0x8e
 5314 0d21 DF0C0000 		.4byte	0xcdf
 5315 0d25 02       		.byte	0x2
 5316 0d26 23       		.byte	0x23
 5317 0d27 25       		.uleb128 0x25
 5318 0d28 0C       		.uleb128 0xc
 5319 0d29 13080000 		.4byte	.LASF177
 5320 0d2d 0C       		.byte	0xc
 5321 0d2e 90       		.byte	0x90
 5322 0d2f C6020000 		.4byte	0x2c6
 5323 0d33 02       		.byte	0x2
 5324 0d34 23       		.byte	0x23
 5325 0d35 28       		.uleb128 0x28
 5326 0d36 0C       		.uleb128 0xc
 5327 0d37 CD090000 		.4byte	.LASF178
 5328 0d3b 0C       		.byte	0xc
 5329 0d3c 92       		.byte	0x92
 5330 0d3d 950D0000 		.4byte	0xd95
 5331 0d41 02       		.byte	0x2
 5332 0d42 23       		.byte	0x23
 5333 0d43 2C       		.uleb128 0x2c
 5334 0d44 0C       		.uleb128 0xc
 5335 0d45 4E0C0000 		.4byte	.LASF179
 5336 0d49 0C       		.byte	0xc
 5337 0d4a 94       		.byte	0x94
 5338 0d4b 950D0000 		.4byte	0xd95
 5339 0d4f 02       		.byte	0x2
 5340 0d50 23       		.byte	0x23
 5341 0d51 30       		.uleb128 0x30
 5342 0d52 0C       		.uleb128 0xc
 5343 0d53 8B080000 		.4byte	.LASF180
 5344 0d57 0C       		.byte	0xc
 5345 0d58 96       		.byte	0x96
 5346 0d59 950D0000 		.4byte	0xd95
 5347 0d5d 02       		.byte	0x2
ARM GAS  C:\Users\EBANO_~1\AppData\Local\Temp\cc7eeVhF.s 			page 144


 5348 0d5e 23       		.byte	0x23
 5349 0d5f 34       		.uleb128 0x34
 5350 0d60 0C       		.uleb128 0xc
 5351 0d61 56040000 		.4byte	.LASF181
 5352 0d65 0C       		.byte	0xc
 5353 0d66 98       		.byte	0x98
 5354 0d67 950D0000 		.4byte	0xd95
 5355 0d6b 02       		.byte	0x2
 5356 0d6c 23       		.byte	0x23
 5357 0d6d 38       		.uleb128 0x38
 5358 0d6e 0C       		.uleb128 0xc
 5359 0d6f FC010000 		.4byte	.LASF182
 5360 0d73 0C       		.byte	0xc
 5361 0d74 9A       		.byte	0x9a
 5362 0d75 A0000000 		.4byte	0xa0
 5363 0d79 02       		.byte	0x2
 5364 0d7a 23       		.byte	0x23
 5365 0d7b 3C       		.uleb128 0x3c
 5366 0d7c 00       		.byte	0
 5367 0d7d 12       		.uleb128 0x12
 5368 0d7e 04       		.byte	0x4
 5369 0d7f 7F020000 		.4byte	0x27f
 5370 0d83 21       		.uleb128 0x21
 5371 0d84 01       		.byte	0x1
 5372 0d85 8F0D0000 		.4byte	0xd8f
 5373 0d89 1A       		.uleb128 0x1a
 5374 0d8a 8F0D0000 		.4byte	0xd8f
 5375 0d8e 00       		.byte	0
 5376 0d8f 12       		.uleb128 0x12
 5377 0d90 04       		.byte	0x4
 5378 0d91 E40C0000 		.4byte	0xce4
 5379 0d95 12       		.uleb128 0x12
 5380 0d96 04       		.byte	0x4
 5381 0d97 830D0000 		.4byte	0xd83
 5382 0d9b 03       		.uleb128 0x3
 5383 0d9c B2090000 		.4byte	.LASF183
 5384 0da0 0C       		.byte	0xc
 5385 0da1 9C       		.byte	0x9c
 5386 0da2 E40C0000 		.4byte	0xce4
 5387 0da6 0A       		.uleb128 0xa
 5388 0da7 0C       		.byte	0xc
 5389 0da8 0D       		.byte	0xd
 5390 0da9 3F       		.byte	0x3f
 5391 0daa D90D0000 		.4byte	0xdd9
 5392 0dae 0C       		.uleb128 0xc
 5393 0daf 1A0A0000 		.4byte	.LASF184
 5394 0db3 0D       		.byte	0xd
 5395 0db4 41       		.byte	0x41
 5396 0db5 95000000 		.4byte	0x95
 5397 0db9 02       		.byte	0x2
 5398 0dba 23       		.byte	0x23
 5399 0dbb 00       		.uleb128 0
 5400 0dbc 0C       		.uleb128 0xc
 5401 0dbd F10C0000 		.4byte	.LASF185
 5402 0dc1 0D       		.byte	0xd
 5403 0dc2 44       		.byte	0x44
 5404 0dc3 95000000 		.4byte	0x95
ARM GAS  C:\Users\EBANO_~1\AppData\Local\Temp\cc7eeVhF.s 			page 145


 5405 0dc7 02       		.byte	0x2
 5406 0dc8 23       		.byte	0x23
 5407 0dc9 04       		.uleb128 0x4
 5408 0dca 0C       		.uleb128 0xc
 5409 0dcb 4E030000 		.4byte	.LASF186
 5410 0dcf 0D       		.byte	0xd
 5411 0dd0 47       		.byte	0x47
 5412 0dd1 95000000 		.4byte	0x95
 5413 0dd5 02       		.byte	0x2
 5414 0dd6 23       		.byte	0x23
 5415 0dd7 08       		.uleb128 0x8
 5416 0dd8 00       		.byte	0
 5417 0dd9 03       		.uleb128 0x3
 5418 0dda F6040000 		.4byte	.LASF187
 5419 0dde 0D       		.byte	0xd
 5420 0ddf 49       		.byte	0x49
 5421 0de0 A60D0000 		.4byte	0xda6
 5422 0de4 0A       		.uleb128 0xa
 5423 0de5 4C       		.byte	0x4c
 5424 0de6 0D       		.byte	0xd
 5425 0de7 5A       		.byte	0x5a
 5426 0de8 DB0E0000 		.4byte	0xedb
 5427 0dec 0C       		.uleb128 0xc
 5428 0ded 000C0000 		.4byte	.LASF188
 5429 0df1 0D       		.byte	0xd
 5430 0df2 5C       		.byte	0x5c
 5431 0df3 95000000 		.4byte	0x95
 5432 0df7 02       		.byte	0x2
 5433 0df8 23       		.byte	0x23
 5434 0df9 00       		.uleb128 0
 5435 0dfa 0C       		.uleb128 0xc
 5436 0dfb 37070000 		.4byte	.LASF189
 5437 0dff 0D       		.byte	0xd
 5438 0e00 64       		.byte	0x64
 5439 0e01 95000000 		.4byte	0x95
 5440 0e05 02       		.byte	0x2
 5441 0e06 23       		.byte	0x23
 5442 0e07 04       		.uleb128 0x4
 5443 0e08 0C       		.uleb128 0xc
 5444 0e09 330C0000 		.4byte	.LASF190
 5445 0e0d 0D       		.byte	0xd
 5446 0e0e 67       		.byte	0x67
 5447 0e0f 95000000 		.4byte	0x95
 5448 0e13 02       		.byte	0x2
 5449 0e14 23       		.byte	0x23
 5450 0e15 08       		.uleb128 0x8
 5451 0e16 0C       		.uleb128 0xc
 5452 0e17 0E030000 		.4byte	.LASF191
 5453 0e1b 0D       		.byte	0xd
 5454 0e1c 6B       		.byte	0x6b
 5455 0e1d 95000000 		.4byte	0x95
 5456 0e21 02       		.byte	0x2
 5457 0e22 23       		.byte	0x23
 5458 0e23 0C       		.uleb128 0xc
 5459 0e24 0C       		.uleb128 0xc
 5460 0e25 940A0000 		.4byte	.LASF192
 5461 0e29 0D       		.byte	0xd
ARM GAS  C:\Users\EBANO_~1\AppData\Local\Temp\cc7eeVhF.s 			page 146


 5462 0e2a 73       		.byte	0x73
 5463 0e2b 95000000 		.4byte	0x95
 5464 0e2f 02       		.byte	0x2
 5465 0e30 23       		.byte	0x23
 5466 0e31 10       		.uleb128 0x10
 5467 0e32 0C       		.uleb128 0xc
 5468 0e33 0F010000 		.4byte	.LASF193
 5469 0e37 0D       		.byte	0xd
 5470 0e38 76       		.byte	0x76
 5471 0e39 95000000 		.4byte	0x95
 5472 0e3d 02       		.byte	0x2
 5473 0e3e 23       		.byte	0x23
 5474 0e3f 14       		.uleb128 0x14
 5475 0e40 0C       		.uleb128 0xc
 5476 0e41 37040000 		.4byte	.LASF194
 5477 0e45 0D       		.byte	0xd
 5478 0e46 81       		.byte	0x81
 5479 0e47 95000000 		.4byte	0x95
 5480 0e4b 02       		.byte	0x2
 5481 0e4c 23       		.byte	0x23
 5482 0e4d 18       		.uleb128 0x18
 5483 0e4e 0C       		.uleb128 0xc
 5484 0e4f B2060000 		.4byte	.LASF195
 5485 0e53 0D       		.byte	0xd
 5486 0e54 86       		.byte	0x86
 5487 0e55 95000000 		.4byte	0x95
 5488 0e59 02       		.byte	0x2
 5489 0e5a 23       		.byte	0x23
 5490 0e5b 1C       		.uleb128 0x1c
 5491 0e5c 0C       		.uleb128 0xc
 5492 0e5d 31050000 		.4byte	.LASF196
 5493 0e61 0D       		.byte	0xd
 5494 0e62 8A       		.byte	0x8a
 5495 0e63 95000000 		.4byte	0x95
 5496 0e67 02       		.byte	0x2
 5497 0e68 23       		.byte	0x23
 5498 0e69 20       		.uleb128 0x20
 5499 0e6a 0C       		.uleb128 0xc
 5500 0e6b 700A0000 		.4byte	.LASF197
 5501 0e6f 0D       		.byte	0xd
 5502 0e70 91       		.byte	0x91
 5503 0e71 95000000 		.4byte	0x95
 5504 0e75 02       		.byte	0x2
 5505 0e76 23       		.byte	0x23
 5506 0e77 24       		.uleb128 0x24
 5507 0e78 0C       		.uleb128 0xc
 5508 0e79 56010000 		.4byte	.LASF198
 5509 0e7d 0D       		.byte	0xd
 5510 0e7e 96       		.byte	0x96
 5511 0e7f 95000000 		.4byte	0x95
 5512 0e83 02       		.byte	0x2
 5513 0e84 23       		.byte	0x23
 5514 0e85 28       		.uleb128 0x28
 5515 0e86 0C       		.uleb128 0xc
 5516 0e87 1F080000 		.4byte	.LASF199
 5517 0e8b 0D       		.byte	0xd
 5518 0e8c 9A       		.byte	0x9a
ARM GAS  C:\Users\EBANO_~1\AppData\Local\Temp\cc7eeVhF.s 			page 147


 5519 0e8d 95000000 		.4byte	0x95
 5520 0e91 02       		.byte	0x2
 5521 0e92 23       		.byte	0x23
 5522 0e93 2C       		.uleb128 0x2c
 5523 0e94 0C       		.uleb128 0xc
 5524 0e95 4E0A0000 		.4byte	.LASF200
 5525 0e99 0D       		.byte	0xd
 5526 0e9a 9F       		.byte	0x9f
 5527 0e9b 95000000 		.4byte	0x95
 5528 0e9f 02       		.byte	0x2
 5529 0ea0 23       		.byte	0x23
 5530 0ea1 30       		.uleb128 0x30
 5531 0ea2 0C       		.uleb128 0xc
 5532 0ea3 21070000 		.4byte	.LASF201
 5533 0ea7 0D       		.byte	0xd
 5534 0ea8 A9       		.byte	0xa9
 5535 0ea9 95000000 		.4byte	0x95
 5536 0ead 02       		.byte	0x2
 5537 0eae 23       		.byte	0x23
 5538 0eaf 34       		.uleb128 0x34
 5539 0eb0 0C       		.uleb128 0xc
 5540 0eb1 66030000 		.4byte	.LASF202
 5541 0eb5 0D       		.byte	0xd
 5542 0eb6 AF       		.byte	0xaf
 5543 0eb7 95000000 		.4byte	0x95
 5544 0ebb 02       		.byte	0x2
 5545 0ebc 23       		.byte	0x23
 5546 0ebd 38       		.uleb128 0x38
 5547 0ebe 0C       		.uleb128 0xc
 5548 0ebf E4090000 		.4byte	.LASF203
 5549 0ec3 0D       		.byte	0xd
 5550 0ec4 B4       		.byte	0xb4
 5551 0ec5 95000000 		.4byte	0x95
 5552 0ec9 02       		.byte	0x2
 5553 0eca 23       		.byte	0x23
 5554 0ecb 3C       		.uleb128 0x3c
 5555 0ecc 0C       		.uleb128 0xc
 5556 0ecd 3D080000 		.4byte	.LASF204
 5557 0ed1 0D       		.byte	0xd
 5558 0ed2 B9       		.byte	0xb9
 5559 0ed3 D90D0000 		.4byte	0xdd9
 5560 0ed7 02       		.byte	0x2
 5561 0ed8 23       		.byte	0x23
 5562 0ed9 40       		.uleb128 0x40
 5563 0eda 00       		.byte	0
 5564 0edb 03       		.uleb128 0x3
 5565 0edc E60A0000 		.4byte	.LASF205
 5566 0ee0 0D       		.byte	0xd
 5567 0ee1 BB       		.byte	0xbb
 5568 0ee2 E40D0000 		.4byte	0xde4
 5569 0ee6 0A       		.uleb128 0xa
 5570 0ee7 08       		.byte	0x8
 5571 0ee8 0D       		.byte	0xd
 5572 0ee9 C5       		.byte	0xc5
 5573 0eea 0B0F0000 		.4byte	0xf0b
 5574 0eee 0C       		.uleb128 0xc
 5575 0eef 1F020000 		.4byte	.LASF206
ARM GAS  C:\Users\EBANO_~1\AppData\Local\Temp\cc7eeVhF.s 			page 148


 5576 0ef3 0D       		.byte	0xd
 5577 0ef4 C7       		.byte	0xc7
 5578 0ef5 95000000 		.4byte	0x95
 5579 0ef9 02       		.byte	0x2
 5580 0efa 23       		.byte	0x23
 5581 0efb 00       		.uleb128 0
 5582 0efc 0C       		.uleb128 0xc
 5583 0efd 0A000000 		.4byte	.LASF207
 5584 0f01 0D       		.byte	0xd
 5585 0f02 CB       		.byte	0xcb
 5586 0f03 95000000 		.4byte	0x95
 5587 0f07 02       		.byte	0x2
 5588 0f08 23       		.byte	0x23
 5589 0f09 04       		.uleb128 0x4
 5590 0f0a 00       		.byte	0
 5591 0f0b 03       		.uleb128 0x3
 5592 0f0c DA020000 		.4byte	.LASF208
 5593 0f10 0D       		.byte	0xd
 5594 0f11 D0       		.byte	0xd0
 5595 0f12 E60E0000 		.4byte	0xee6
 5596 0f16 0A       		.uleb128 0xa
 5597 0f17 14       		.byte	0x14
 5598 0f18 0D       		.byte	0xd
 5599 0f19 D9       		.byte	0xd9
 5600 0f1a 650F0000 		.4byte	0xf65
 5601 0f1e 0C       		.uleb128 0xc
 5602 0f1f 24050000 		.4byte	.LASF209
 5603 0f23 0D       		.byte	0xd
 5604 0f24 DB       		.byte	0xdb
 5605 0f25 95000000 		.4byte	0x95
 5606 0f29 02       		.byte	0x2
 5607 0f2a 23       		.byte	0x23
 5608 0f2b 00       		.uleb128 0
 5609 0f2c 0C       		.uleb128 0xc
 5610 0f2d 1F020000 		.4byte	.LASF206
 5611 0f31 0D       		.byte	0xd
 5612 0f32 DE       		.byte	0xde
 5613 0f33 95000000 		.4byte	0x95
 5614 0f37 02       		.byte	0x2
 5615 0f38 23       		.byte	0x23
 5616 0f39 04       		.uleb128 0x4
 5617 0f3a 0C       		.uleb128 0xc
 5618 0f3b B3080000 		.4byte	.LASF210
 5619 0f3f 0D       		.byte	0xd
 5620 0f40 E2       		.byte	0xe2
 5621 0f41 95000000 		.4byte	0x95
 5622 0f45 02       		.byte	0x2
 5623 0f46 23       		.byte	0x23
 5624 0f47 08       		.uleb128 0x8
 5625 0f48 0C       		.uleb128 0xc
 5626 0f49 82060000 		.4byte	.LASF211
 5627 0f4d 0D       		.byte	0xd
 5628 0f4e E4       		.byte	0xe4
 5629 0f4f 95000000 		.4byte	0x95
 5630 0f53 02       		.byte	0x2
 5631 0f54 23       		.byte	0x23
 5632 0f55 0C       		.uleb128 0xc
ARM GAS  C:\Users\EBANO_~1\AppData\Local\Temp\cc7eeVhF.s 			page 149


 5633 0f56 0C       		.uleb128 0xc
 5634 0f57 E0040000 		.4byte	.LASF212
 5635 0f5b 0D       		.byte	0xd
 5636 0f5c E8       		.byte	0xe8
 5637 0f5d 95000000 		.4byte	0x95
 5638 0f61 02       		.byte	0x2
 5639 0f62 23       		.byte	0x23
 5640 0f63 10       		.uleb128 0x10
 5641 0f64 00       		.byte	0
 5642 0f65 03       		.uleb128 0x3
 5643 0f66 8B020000 		.4byte	.LASF213
 5644 0f6a 0D       		.byte	0xd
 5645 0f6b EB       		.byte	0xeb
 5646 0f6c 160F0000 		.4byte	0xf16
 5647 0f70 1E       		.uleb128 0x1e
 5648 0f71 60       		.byte	0x60
 5649 0f72 0D       		.byte	0xd
 5650 0f73 1A01     		.2byte	0x11a
 5651 0f75 D40F0000 		.4byte	0xfd4
 5652 0f79 1C       		.uleb128 0x1c
 5653 0f7a ED040000 		.4byte	.LASF173
 5654 0f7e 0D       		.byte	0xd
 5655 0f7f 1C01     		.2byte	0x11c
 5656 0f81 D40F0000 		.4byte	0xfd4
 5657 0f85 02       		.byte	0x2
 5658 0f86 23       		.byte	0x23
 5659 0f87 00       		.uleb128 0
 5660 0f88 1C       		.uleb128 0x1c
 5661 0f89 1A080000 		.4byte	.LASF174
 5662 0f8d 0D       		.byte	0xd
 5663 0f8e 1E01     		.2byte	0x11e
 5664 0f90 DB0E0000 		.4byte	0xedb
 5665 0f94 02       		.byte	0x2
 5666 0f95 23       		.byte	0x23
 5667 0f96 04       		.uleb128 0x4
 5668 0f97 1C       		.uleb128 0x1c
 5669 0f98 D9050000 		.4byte	.LASF214
 5670 0f9c 0D       		.byte	0xd
 5671 0f9d 2001     		.2byte	0x120
 5672 0f9f DA0F0000 		.4byte	0xfda
 5673 0fa3 02       		.byte	0x2
 5674 0fa4 23       		.byte	0x23
 5675 0fa5 50       		.uleb128 0x50
 5676 0fa6 1C       		.uleb128 0x1c
 5677 0fa7 71010000 		.4byte	.LASF175
 5678 0fab 0D       		.byte	0xd
 5679 0fac 2201     		.2byte	0x122
 5680 0fae 130C0000 		.4byte	0xc13
 5681 0fb2 02       		.byte	0x2
 5682 0fb3 23       		.byte	0x23
 5683 0fb4 54       		.uleb128 0x54
 5684 0fb5 1C       		.uleb128 0x1c
 5685 0fb6 9F090000 		.4byte	.LASF176
 5686 0fba 0D       		.byte	0xd
 5687 0fbb 2401     		.2byte	0x124
 5688 0fbd A0000000 		.4byte	0xa0
 5689 0fc1 02       		.byte	0x2
ARM GAS  C:\Users\EBANO_~1\AppData\Local\Temp\cc7eeVhF.s 			page 150


 5690 0fc2 23       		.byte	0x23
 5691 0fc3 58       		.uleb128 0x58
 5692 0fc4 1C       		.uleb128 0x1c
 5693 0fc5 FC010000 		.4byte	.LASF182
 5694 0fc9 0D       		.byte	0xd
 5695 0fca 2601     		.2byte	0x126
 5696 0fcc A0000000 		.4byte	0xa0
 5697 0fd0 02       		.byte	0x2
 5698 0fd1 23       		.byte	0x23
 5699 0fd2 5C       		.uleb128 0x5c
 5700 0fd3 00       		.byte	0
 5701 0fd4 12       		.uleb128 0x12
 5702 0fd5 04       		.byte	0x4
 5703 0fd6 11020000 		.4byte	0x211
 5704 0fda 12       		.uleb128 0x12
 5705 0fdb 04       		.byte	0x4
 5706 0fdc 9B0D0000 		.4byte	0xd9b
 5707 0fe0 0D       		.uleb128 0xd
 5708 0fe1 B90A0000 		.4byte	.LASF215
 5709 0fe5 0D       		.byte	0xd
 5710 0fe6 2701     		.2byte	0x127
 5711 0fe8 700F0000 		.4byte	0xf70
 5712 0fec 23       		.uleb128 0x23
 5713 0fed 41010000 		.4byte	.LASF263
 5714 0ff1 01       		.byte	0x1
 5715 0ff2 8408     		.2byte	0x884
 5716 0ff4 01       		.byte	0x1
 5717 0ff5 01       		.byte	0x1
 5718 0ff6 13100000 		.4byte	0x1013
 5719 0ffa 24       		.uleb128 0x24
 5720 0ffb 71020000 		.4byte	.LASF221
 5721 0fff 01       		.byte	0x1
 5722 1000 8408     		.2byte	0x884
 5723 1002 95000000 		.4byte	0x95
 5724 1006 25       		.uleb128 0x25
 5725 1007 87000000 		.4byte	.LASF222
 5726 100b 01       		.byte	0x1
 5727 100c 8708     		.2byte	0x887
 5728 100e A0000000 		.4byte	0xa0
 5729 1012 00       		.byte	0
 5730 1013 26       		.uleb128 0x26
 5731 1014 2C020000 		.4byte	.LASF216
 5732 1018 01       		.byte	0x1
 5733 1019 7008     		.2byte	0x870
 5734 101b 01       		.byte	0x1
 5735 101c 00000000 		.4byte	.LFB66
 5736 1020 1A000000 		.4byte	.LFE66
 5737 1024 00000000 		.4byte	.LLST84
 5738 1028 01       		.byte	0x1
 5739 1029 57100000 		.4byte	0x1057
 5740 102d 27       		.uleb128 0x27
 5741 102e AE040000 		.4byte	.LASF218
 5742 1032 01       		.byte	0x1
 5743 1033 7008     		.2byte	0x870
 5744 1035 DA0F0000 		.4byte	0xfda
 5745 1039 20000000 		.4byte	.LLST85
 5746 103d 28       		.uleb128 0x28
ARM GAS  C:\Users\EBANO_~1\AppData\Local\Temp\cc7eeVhF.s 			page 151


 5747 103e F4050000 		.4byte	.LASF219
 5748 1042 01       		.byte	0x1
 5749 1043 7308     		.2byte	0x873
 5750 1045 57100000 		.4byte	0x1057
 5751 1049 41000000 		.4byte	.LLST86
 5752 104d 29       		.uleb128 0x29
 5753 104e 18000000 		.4byte	.LVL223
 5754 1052 BD120000 		.4byte	0x12bd
 5755 1056 00       		.byte	0
 5756 1057 12       		.uleb128 0x12
 5757 1058 04       		.byte	0x4
 5758 1059 E00F0000 		.4byte	0xfe0
 5759 105d 26       		.uleb128 0x26
 5760 105e 4F090000 		.4byte	.LASF217
 5761 1062 01       		.byte	0x1
 5762 1063 6208     		.2byte	0x862
 5763 1065 01       		.byte	0x1
 5764 1066 00000000 		.4byte	.LFB65
 5765 106a 0A000000 		.4byte	.LFE65
 5766 106e 54000000 		.4byte	.LLST81
 5767 1072 01       		.byte	0x1
 5768 1073 A1100000 		.4byte	0x10a1
 5769 1077 27       		.uleb128 0x27
 5770 1078 AE040000 		.4byte	.LASF218
 5771 107c 01       		.byte	0x1
 5772 107d 6208     		.2byte	0x862
 5773 107f DA0F0000 		.4byte	0xfda
 5774 1083 74000000 		.4byte	.LLST82
 5775 1087 28       		.uleb128 0x28
 5776 1088 F4050000 		.4byte	.LASF219
 5777 108c 01       		.byte	0x1
 5778 108d 6508     		.2byte	0x865
 5779 108f 57100000 		.4byte	0x1057
 5780 1093 95000000 		.4byte	.LLST83
 5781 1097 29       		.uleb128 0x29
 5782 1098 08000000 		.4byte	.LVL220
 5783 109c F3120000 		.4byte	0x12f3
 5784 10a0 00       		.byte	0
 5785 10a1 26       		.uleb128 0x26
 5786 10a2 31010000 		.4byte	.LASF220
 5787 10a6 01       		.byte	0x1
 5788 10a7 2608     		.2byte	0x826
 5789 10a9 01       		.byte	0x1
 5790 10aa 00000000 		.4byte	.LFB64
 5791 10ae 70000000 		.4byte	.LFE64
 5792 10b2 B8000000 		.4byte	.LLST78
 5793 10b6 01       		.byte	0x1
 5794 10b7 F6100000 		.4byte	0x10f6
 5795 10bb 27       		.uleb128 0x27
 5796 10bc AE040000 		.4byte	.LASF218
 5797 10c0 01       		.byte	0x1
 5798 10c1 2608     		.2byte	0x826
 5799 10c3 DA0F0000 		.4byte	0xfda
 5800 10c7 D8000000 		.4byte	.LLST79
 5801 10cb 28       		.uleb128 0x28
 5802 10cc F4050000 		.4byte	.LASF219
 5803 10d0 01       		.byte	0x1
ARM GAS  C:\Users\EBANO_~1\AppData\Local\Temp\cc7eeVhF.s 			page 152


 5804 10d1 2908     		.2byte	0x829
 5805 10d3 57100000 		.4byte	0x1057
 5806 10d7 12010000 		.4byte	.LLST80
 5807 10db 2A       		.uleb128 0x2a
 5808 10dc 12000000 		.4byte	.LVL213
 5809 10e0 EC100000 		.4byte	0x10ec
 5810 10e4 2B       		.uleb128 0x2b
 5811 10e5 01       		.byte	0x1
 5812 10e6 50       		.byte	0x50
 5813 10e7 03       		.byte	0x3
 5814 10e8 F3       		.byte	0xf3
 5815 10e9 01       		.uleb128 0x1
 5816 10ea 50       		.byte	0x50
 5817 10eb 00       		.byte	0
 5818 10ec 29       		.uleb128 0x29
 5819 10ed 58000000 		.4byte	.LVL216
 5820 10f1 0E130000 		.4byte	0x130e
 5821 10f5 00       		.byte	0
 5822 10f6 2C       		.uleb128 0x2c
 5823 10f7 5F000000 		.4byte	.LASF224
 5824 10fb 01       		.byte	0x1
 5825 10fc F307     		.2byte	0x7f3
 5826 10fe 01       		.byte	0x1
 5827 10ff EE0B0000 		.4byte	0xbee
 5828 1103 01       		.byte	0x1
 5829 1104 21110000 		.4byte	0x1121
 5830 1108 24       		.uleb128 0x24
 5831 1109 F4050000 		.4byte	.LASF219
 5832 110d 01       		.byte	0x1
 5833 110e F307     		.2byte	0x7f3
 5834 1110 57100000 		.4byte	0x1057
 5835 1114 25       		.uleb128 0x25
 5836 1115 AB0C0000 		.4byte	.LASF223
 5837 1119 01       		.byte	0x1
 5838 111a F507     		.2byte	0x7f5
 5839 111c 95000000 		.4byte	0x95
 5840 1120 00       		.byte	0
 5841 1121 2C       		.uleb128 0x2c
 5842 1122 F2060000 		.4byte	.LASF225
 5843 1126 01       		.byte	0x1
 5844 1127 BA07     		.2byte	0x7ba
 5845 1129 01       		.byte	0x1
 5846 112a EE0B0000 		.4byte	0xbee
 5847 112e 01       		.byte	0x1
 5848 112f 4C110000 		.4byte	0x114c
 5849 1133 24       		.uleb128 0x24
 5850 1134 F4050000 		.4byte	.LASF219
 5851 1138 01       		.byte	0x1
 5852 1139 BA07     		.2byte	0x7ba
 5853 113b 57100000 		.4byte	0x1057
 5854 113f 25       		.uleb128 0x25
 5855 1140 AB0C0000 		.4byte	.LASF223
 5856 1144 01       		.byte	0x1
 5857 1145 BC07     		.2byte	0x7bc
 5858 1147 95000000 		.4byte	0x95
 5859 114b 00       		.byte	0
 5860 114c 2C       		.uleb128 0x2c
ARM GAS  C:\Users\EBANO_~1\AppData\Local\Temp\cc7eeVhF.s 			page 153


 5861 114d 41060000 		.4byte	.LASF226
 5862 1151 01       		.byte	0x1
 5863 1152 8007     		.2byte	0x780
 5864 1154 01       		.byte	0x1
 5865 1155 EE0B0000 		.4byte	0xbee
 5866 1159 01       		.byte	0x1
 5867 115a 77110000 		.4byte	0x1177
 5868 115e 24       		.uleb128 0x24
 5869 115f F4050000 		.4byte	.LASF219
 5870 1163 01       		.byte	0x1
 5871 1164 8007     		.2byte	0x780
 5872 1166 57100000 		.4byte	0x1057
 5873 116a 25       		.uleb128 0x25
 5874 116b AB0C0000 		.4byte	.LASF223
 5875 116f 01       		.byte	0x1
 5876 1170 8207     		.2byte	0x782
 5877 1172 95000000 		.4byte	0x95
 5878 1176 00       		.byte	0
 5879 1177 2D       		.uleb128 0x2d
 5880 1178 01       		.byte	0x1
 5881 1179 20010000 		.4byte	.LASF227
 5882 117d 01       		.byte	0x1
 5883 117e 5F07     		.2byte	0x75f
 5884 1180 01       		.byte	0x1
 5885 1181 95000000 		.4byte	0x95
 5886 1185 00000000 		.4byte	.LFB60
 5887 1189 04000000 		.4byte	.LFE60
 5888 118d 02       		.byte	0x2
 5889 118e 7D       		.byte	0x7d
 5890 118f 00       		.sleb128 0
 5891 1190 01       		.byte	0x1
 5892 1191 A6110000 		.4byte	0x11a6
 5893 1195 27       		.uleb128 0x27
 5894 1196 F4050000 		.4byte	.LASF219
 5895 119a 01       		.byte	0x1
 5896 119b 5F07     		.2byte	0x75f
 5897 119d 57100000 		.4byte	0x1057
 5898 11a1 47010000 		.4byte	.LLST100
 5899 11a5 00       		.byte	0
 5900 11a6 2D       		.uleb128 0x2d
 5901 11a7 01       		.byte	0x1
 5902 11a8 CB080000 		.4byte	.LASF228
 5903 11ac 01       		.byte	0x1
 5904 11ad 5107     		.2byte	0x751
 5905 11af 01       		.byte	0x1
 5906 11b0 95000000 		.4byte	0x95
 5907 11b4 00000000 		.4byte	.LFB59
 5908 11b8 04000000 		.4byte	.LFE59
 5909 11bc 02       		.byte	0x2
 5910 11bd 7D       		.byte	0x7d
 5911 11be 00       		.sleb128 0
 5912 11bf 01       		.byte	0x1
 5913 11c0 D5110000 		.4byte	0x11d5
 5914 11c4 27       		.uleb128 0x27
 5915 11c5 F4050000 		.4byte	.LASF219
 5916 11c9 01       		.byte	0x1
 5917 11ca 5107     		.2byte	0x751
ARM GAS  C:\Users\EBANO_~1\AppData\Local\Temp\cc7eeVhF.s 			page 154


 5918 11cc 57100000 		.4byte	0x1057
 5919 11d0 68010000 		.4byte	.LLST99
 5920 11d4 00       		.byte	0
 5921 11d5 2E       		.uleb128 0x2e
 5922 11d6 01       		.byte	0x1
 5923 11d7 C1010000 		.4byte	.LASF229
 5924 11db 01       		.byte	0x1
 5925 11dc DC06     		.2byte	0x6dc
 5926 11de 01       		.byte	0x1
 5927 11df EE0B0000 		.4byte	0xbee
 5928 11e3 00000000 		.4byte	.LFB58
 5929 11e7 98000000 		.4byte	.LFE58
 5930 11eb 89010000 		.4byte	.LLST93
 5931 11ef 01       		.byte	0x1
 5932 11f0 45120000 		.4byte	0x1245
 5933 11f4 27       		.uleb128 0x27
 5934 11f5 F4050000 		.4byte	.LASF219
 5935 11f9 01       		.byte	0x1
 5936 11fa DC06     		.2byte	0x6dc
 5937 11fc 57100000 		.4byte	0x1057
 5938 1200 A9010000 		.4byte	.LLST94
 5939 1204 27       		.uleb128 0x27
 5940 1205 61020000 		.4byte	.LASF230
 5941 1209 01       		.byte	0x1
 5942 120a DC06     		.2byte	0x6dc
 5943 120c 45120000 		.4byte	0x1245
 5944 1210 C7010000 		.4byte	.LLST95
 5945 1214 28       		.uleb128 0x28
 5946 1215 5E050000 		.4byte	.LASF231
 5947 1219 01       		.byte	0x1
 5948 121a DE06     		.2byte	0x6de
 5949 121c EE0B0000 		.4byte	0xbee
 5950 1220 0C020000 		.4byte	.LLST96
 5951 1224 28       		.uleb128 0x28
 5952 1225 6D050000 		.4byte	.LASF232
 5953 1229 01       		.byte	0x1
 5954 122a E006     		.2byte	0x6e0
 5955 122c 95000000 		.4byte	0x95
 5956 1230 37020000 		.4byte	.LLST97
 5957 1234 28       		.uleb128 0x28
 5958 1235 910C0000 		.4byte	.LASF233
 5959 1239 01       		.byte	0x1
 5960 123a E106     		.2byte	0x6e1
 5961 123c 95000000 		.4byte	0x95
 5962 1240 4A020000 		.4byte	.LLST98
 5963 1244 00       		.byte	0
 5964 1245 12       		.uleb128 0x12
 5965 1246 04       		.byte	0x4
 5966 1247 650F0000 		.4byte	0xf65
 5967 124b 2F       		.uleb128 0x2f
 5968 124c 01       		.byte	0x1
 5969 124d 89090000 		.4byte	.LASF234
 5970 1251 01       		.byte	0x1
 5971 1252 6506     		.2byte	0x665
 5972 1254 01       		.byte	0x1
 5973 1255 EE0B0000 		.4byte	0xbee
 5974 1259 00000000 		.4byte	.LFB57
ARM GAS  C:\Users\EBANO_~1\AppData\Local\Temp\cc7eeVhF.s 			page 155


 5975 125d D4000000 		.4byte	.LFE57
 5976 1261 5D020000 		.4byte	.LLST89
 5977 1265 01       		.byte	0x1
 5978 1266 B7120000 		.4byte	0x12b7
 5979 126a 27       		.uleb128 0x27
 5980 126b F4050000 		.4byte	.LASF219
 5981 126f 01       		.byte	0x1
 5982 1270 6506     		.2byte	0x665
 5983 1272 57100000 		.4byte	0x1057
 5984 1276 89020000 		.4byte	.LLST90
 5985 127a 27       		.uleb128 0x27
 5986 127b 06030000 		.4byte	.LASF235
 5987 127f 01       		.byte	0x1
 5988 1280 6506     		.2byte	0x665
 5989 1282 B7120000 		.4byte	0x12b7
 5990 1286 CB020000 		.4byte	.LLST91
 5991 128a 30       		.uleb128 0x30
 5992 128b EC0F0000 		.4byte	0xfec
 5993 128f 44000000 		.4byte	.LBB170
 5994 1293 68000000 		.4byte	.LBE170
 5995 1297 01       		.byte	0x1
 5996 1298 8E06     		.2byte	0x68e
 5997 129a 31       		.uleb128 0x31
 5998 129b FA0F0000 		.4byte	0xffa
 5999 129f 1E030000 		.4byte	.LLST92
 6000 12a3 32       		.uleb128 0x32
 6001 12a4 44000000 		.4byte	.LBB171
 6002 12a8 68000000 		.4byte	.LBE171
 6003 12ac 33       		.uleb128 0x33
 6004 12ad 06100000 		.4byte	0x1006
 6005 12b1 02       		.byte	0x2
 6006 12b2 91       		.byte	0x91
 6007 12b3 6C       		.sleb128 -20
 6008 12b4 00       		.byte	0
 6009 12b5 00       		.byte	0
 6010 12b6 00       		.byte	0
 6011 12b7 12       		.uleb128 0x12
 6012 12b8 04       		.byte	0x4
 6013 12b9 0B0F0000 		.4byte	0xf0b
 6014 12bd 34       		.uleb128 0x34
 6015 12be 01       		.byte	0x1
 6016 12bf 0E050000 		.4byte	.LASF236
 6017 12c3 01       		.byte	0x1
 6018 12c4 3206     		.2byte	0x632
 6019 12c6 01       		.byte	0x1
 6020 12c7 D8120000 		.4byte	0x12d8
 6021 12cb 24       		.uleb128 0x24
 6022 12cc F4050000 		.4byte	.LASF219
 6023 12d0 01       		.byte	0x1
 6024 12d1 3206     		.2byte	0x632
 6025 12d3 57100000 		.4byte	0x1057
 6026 12d7 00       		.byte	0
 6027 12d8 34       		.uleb128 0x34
 6028 12d9 01       		.byte	0x1
 6029 12da D1060000 		.4byte	.LASF237
 6030 12de 01       		.byte	0x1
 6031 12df 1C06     		.2byte	0x61c
ARM GAS  C:\Users\EBANO_~1\AppData\Local\Temp\cc7eeVhF.s 			page 156


 6032 12e1 01       		.byte	0x1
 6033 12e2 F3120000 		.4byte	0x12f3
 6034 12e6 24       		.uleb128 0x24
 6035 12e7 F4050000 		.4byte	.LASF219
 6036 12eb 01       		.byte	0x1
 6037 12ec 1C06     		.2byte	0x61c
 6038 12ee 57100000 		.4byte	0x1057
 6039 12f2 00       		.byte	0
 6040 12f3 34       		.uleb128 0x34
 6041 12f4 01       		.byte	0x1
 6042 12f5 C60C0000 		.4byte	.LASF238
 6043 12f9 01       		.byte	0x1
 6044 12fa 0D06     		.2byte	0x60d
 6045 12fc 01       		.byte	0x1
 6046 12fd 0E130000 		.4byte	0x130e
 6047 1301 24       		.uleb128 0x24
 6048 1302 F4050000 		.4byte	.LASF219
 6049 1306 01       		.byte	0x1
 6050 1307 0D06     		.2byte	0x60d
 6051 1309 57100000 		.4byte	0x1057
 6052 130d 00       		.byte	0
 6053 130e 34       		.uleb128 0x34
 6054 130f 01       		.byte	0x1
 6055 1310 60080000 		.4byte	.LASF239
 6056 1314 01       		.byte	0x1
 6057 1315 FE05     		.2byte	0x5fe
 6058 1317 01       		.byte	0x1
 6059 1318 29130000 		.4byte	0x1329
 6060 131c 24       		.uleb128 0x24
 6061 131d F4050000 		.4byte	.LASF219
 6062 1321 01       		.byte	0x1
 6063 1322 FE05     		.2byte	0x5fe
 6064 1324 57100000 		.4byte	0x1057
 6065 1328 00       		.byte	0
 6066 1329 35       		.uleb128 0x35
 6067 132a 01       		.byte	0x1
 6068 132b A3050000 		.4byte	.LASF264
 6069 132f 01       		.byte	0x1
 6070 1330 8405     		.2byte	0x584
 6071 1332 01       		.byte	0x1
 6072 1333 00000000 		.4byte	.LFB52
 6073 1337 EC000000 		.4byte	.LFE52
 6074 133b 32030000 		.4byte	.LLST87
 6075 133f 01       		.byte	0x1
 6076 1340 8D130000 		.4byte	0x138d
 6077 1344 27       		.uleb128 0x27
 6078 1345 F4050000 		.4byte	.LASF219
 6079 1349 01       		.byte	0x1
 6080 134a 8405     		.2byte	0x584
 6081 134c 57100000 		.4byte	0x1057
 6082 1350 52030000 		.4byte	.LLST88
 6083 1354 36       		.uleb128 0x36
 6084 1355 5C000000 		.4byte	.LVL226
 6085 1359 0E130000 		.4byte	0x130e
 6086 135d 68130000 		.4byte	0x1368
 6087 1361 2B       		.uleb128 0x2b
 6088 1362 01       		.byte	0x1
ARM GAS  C:\Users\EBANO_~1\AppData\Local\Temp\cc7eeVhF.s 			page 157


 6089 1363 50       		.byte	0x50
 6090 1364 02       		.byte	0x2
 6091 1365 74       		.byte	0x74
 6092 1366 00       		.sleb128 0
 6093 1367 00       		.byte	0
 6094 1368 36       		.uleb128 0x36
 6095 1369 A2000000 		.4byte	.LVL227
 6096 136d BD120000 		.4byte	0x12bd
 6097 1371 7C130000 		.4byte	0x137c
 6098 1375 2B       		.uleb128 0x2b
 6099 1376 01       		.byte	0x1
 6100 1377 50       		.byte	0x50
 6101 1378 02       		.byte	0x2
 6102 1379 74       		.byte	0x74
 6103 137a 00       		.sleb128 0
 6104 137b 00       		.byte	0
 6105 137c 37       		.uleb128 0x37
 6106 137d CA000000 		.4byte	.LVL231
 6107 1381 D8120000 		.4byte	0x12d8
 6108 1385 2B       		.uleb128 0x2b
 6109 1386 01       		.byte	0x1
 6110 1387 50       		.byte	0x50
 6111 1388 02       		.byte	0x2
 6112 1389 74       		.byte	0x74
 6113 138a 00       		.sleb128 0
 6114 138b 00       		.byte	0
 6115 138c 00       		.byte	0
 6116 138d 2D       		.uleb128 0x2d
 6117 138e 01       		.byte	0x1
 6118 138f 0F0C0000 		.4byte	.LASF240
 6119 1393 01       		.byte	0x1
 6120 1394 7305     		.2byte	0x573
 6121 1396 01       		.byte	0x1
 6122 1397 95000000 		.4byte	0x95
 6123 139b 00000000 		.4byte	.LFB51
 6124 139f 06000000 		.4byte	.LFE51
 6125 13a3 02       		.byte	0x2
 6126 13a4 7D       		.byte	0x7d
 6127 13a5 00       		.sleb128 0
 6128 13a6 01       		.byte	0x1
 6129 13a7 BC130000 		.4byte	0x13bc
 6130 13ab 27       		.uleb128 0x27
 6131 13ac F4050000 		.4byte	.LASF219
 6132 13b0 01       		.byte	0x1
 6133 13b1 7305     		.2byte	0x573
 6134 13b3 57100000 		.4byte	0x1057
 6135 13b7 9F030000 		.4byte	.LLST77
 6136 13bb 00       		.byte	0
 6137 13bc 2E       		.uleb128 0x2e
 6138 13bd 01       		.byte	0x1
 6139 13be 95000000 		.4byte	.LASF241
 6140 13c2 01       		.byte	0x1
 6141 13c3 2105     		.2byte	0x521
 6142 13c5 01       		.byte	0x1
 6143 13c6 EE0B0000 		.4byte	0xbee
 6144 13ca 00000000 		.4byte	.LFB50
 6145 13ce 68010000 		.4byte	.LFE50
ARM GAS  C:\Users\EBANO_~1\AppData\Local\Temp\cc7eeVhF.s 			page 158


 6146 13d2 C0030000 		.4byte	.LLST65
 6147 13d6 01       		.byte	0x1
 6148 13d7 40150000 		.4byte	0x1540
 6149 13db 27       		.uleb128 0x27
 6150 13dc F4050000 		.4byte	.LASF219
 6151 13e0 01       		.byte	0x1
 6152 13e1 2105     		.2byte	0x521
 6153 13e3 57100000 		.4byte	0x1057
 6154 13e7 E0030000 		.4byte	.LLST66
 6155 13eb 28       		.uleb128 0x28
 6156 13ec 5E050000 		.4byte	.LASF231
 6157 13f0 01       		.byte	0x1
 6158 13f1 2305     		.2byte	0x523
 6159 13f3 EE0B0000 		.4byte	0xbee
 6160 13f7 38040000 		.4byte	.LLST67
 6161 13fb 38       		.uleb128 0x38
 6162 13fc F6100000 		.4byte	0x10f6
 6163 1400 10000000 		.4byte	.LBB144
 6164 1404 48010000 		.4byte	.Ldebug_ranges0+0x148
 6165 1408 01       		.byte	0x1
 6166 1409 2C05     		.2byte	0x52c
 6167 140b 64140000 		.4byte	0x1464
 6168 140f 31       		.uleb128 0x31
 6169 1410 08110000 		.4byte	0x1108
 6170 1414 CA040000 		.4byte	.LLST68
 6171 1418 39       		.uleb128 0x39
 6172 1419 48010000 		.4byte	.Ldebug_ranges0+0x148
 6173 141d 3A       		.uleb128 0x3a
 6174 141e 14110000 		.4byte	0x1114
 6175 1422 09050000 		.4byte	.LLST69
 6176 1426 3B       		.uleb128 0x3b
 6177 1427 F6100000 		.4byte	0x10f6
 6178 142b C8000000 		.4byte	.LBB146
 6179 142f DC000000 		.4byte	.LBE146
 6180 1433 50140000 		.4byte	0x1450
 6181 1437 31       		.uleb128 0x31
 6182 1438 08110000 		.4byte	0x1108
 6183 143c 4A050000 		.4byte	.LLST70
 6184 1440 32       		.uleb128 0x32
 6185 1441 C8000000 		.4byte	.LBB147
 6186 1445 DC000000 		.4byte	.LBE147
 6187 1449 3C       		.uleb128 0x3c
 6188 144a 14110000 		.4byte	0x1114
 6189 144e 00       		.byte	0
 6190 144f 00       		.byte	0
 6191 1450 29       		.uleb128 0x29
 6192 1451 24000000 		.4byte	.LVL172
 6193 1455 9D1C0000 		.4byte	0x1c9d
 6194 1459 29       		.uleb128 0x29
 6195 145a 2E000000 		.4byte	.LVL175
 6196 145e 9D1C0000 		.4byte	0x1c9d
 6197 1462 00       		.byte	0
 6198 1463 00       		.byte	0
 6199 1464 38       		.uleb128 0x38
 6200 1465 21110000 		.4byte	0x1121
 6201 1469 50000000 		.4byte	.LBB150
 6202 146d 68010000 		.4byte	.Ldebug_ranges0+0x168
ARM GAS  C:\Users\EBANO_~1\AppData\Local\Temp\cc7eeVhF.s 			page 159


 6203 1471 01       		.byte	0x1
 6204 1472 4705     		.2byte	0x547
 6205 1474 CD140000 		.4byte	0x14cd
 6206 1478 31       		.uleb128 0x31
 6207 1479 33110000 		.4byte	0x1133
 6208 147d 5D050000 		.4byte	.LLST71
 6209 1481 39       		.uleb128 0x39
 6210 1482 68010000 		.4byte	.Ldebug_ranges0+0x168
 6211 1486 3A       		.uleb128 0x3a
 6212 1487 3F110000 		.4byte	0x113f
 6213 148b 86050000 		.4byte	.LLST72
 6214 148f 3B       		.uleb128 0x3b
 6215 1490 F6100000 		.4byte	0x10f6
 6216 1494 52010000 		.4byte	.LBB152
 6217 1498 68010000 		.4byte	.LBE152
 6218 149c B9140000 		.4byte	0x14b9
 6219 14a0 31       		.uleb128 0x31
 6220 14a1 08110000 		.4byte	0x1108
 6221 14a5 BD050000 		.4byte	.LLST73
 6222 14a9 32       		.uleb128 0x32
 6223 14aa 52010000 		.4byte	.LBB153
 6224 14ae 68010000 		.4byte	.LBE153
 6225 14b2 3C       		.uleb128 0x3c
 6226 14b3 14110000 		.4byte	0x1114
 6227 14b7 00       		.byte	0
 6228 14b8 00       		.byte	0
 6229 14b9 29       		.uleb128 0x29
 6230 14ba 3C010000 		.4byte	.LVL202
 6231 14be 9D1C0000 		.4byte	0x1c9d
 6232 14c2 29       		.uleb128 0x29
 6233 14c3 4C010000 		.4byte	.LVL204
 6234 14c7 9D1C0000 		.4byte	0x1c9d
 6235 14cb 00       		.byte	0
 6236 14cc 00       		.byte	0
 6237 14cd 38       		.uleb128 0x38
 6238 14ce 21110000 		.4byte	0x1121
 6239 14d2 92000000 		.4byte	.LBB159
 6240 14d6 90010000 		.4byte	.Ldebug_ranges0+0x190
 6241 14da 01       		.byte	0x1
 6242 14db 4B05     		.2byte	0x54b
 6243 14dd 36150000 		.4byte	0x1536
 6244 14e1 31       		.uleb128 0x31
 6245 14e2 33110000 		.4byte	0x1133
 6246 14e6 D0050000 		.4byte	.LLST74
 6247 14ea 39       		.uleb128 0x39
 6248 14eb 90010000 		.4byte	.Ldebug_ranges0+0x190
 6249 14ef 3A       		.uleb128 0x3a
 6250 14f0 3F110000 		.4byte	0x113f
 6251 14f4 EE050000 		.4byte	.LLST75
 6252 14f8 3B       		.uleb128 0x3b
 6253 14f9 F6100000 		.4byte	0x10f6
 6254 14fd 1E010000 		.4byte	.LBB161
 6255 1501 2E010000 		.4byte	.LBE161
 6256 1505 22150000 		.4byte	0x1522
 6257 1509 31       		.uleb128 0x31
 6258 150a 08110000 		.4byte	0x1108
 6259 150e 19060000 		.4byte	.LLST76
ARM GAS  C:\Users\EBANO_~1\AppData\Local\Temp\cc7eeVhF.s 			page 160


 6260 1512 32       		.uleb128 0x32
 6261 1513 1E010000 		.4byte	.LBB162
 6262 1517 2E010000 		.4byte	.LBE162
 6263 151b 3C       		.uleb128 0x3c
 6264 151c 14110000 		.4byte	0x1114
 6265 1520 00       		.byte	0
 6266 1521 00       		.byte	0
 6267 1522 29       		.uleb128 0x29
 6268 1523 0A010000 		.4byte	.LVL196
 6269 1527 9D1C0000 		.4byte	0x1c9d
 6270 152b 29       		.uleb128 0x29
 6271 152c 18010000 		.4byte	.LVL198
 6272 1530 9D1C0000 		.4byte	0x1c9d
 6273 1534 00       		.byte	0
 6274 1535 00       		.byte	0
 6275 1536 29       		.uleb128 0x29
 6276 1537 4A000000 		.4byte	.LVL177
 6277 153b AB1C0000 		.4byte	0x1cab
 6278 153f 00       		.byte	0
 6279 1540 2F       		.uleb128 0x2f
 6280 1541 01       		.byte	0x1
 6281 1542 9A060000 		.4byte	.LASF242
 6282 1546 01       		.byte	0x1
 6283 1547 C704     		.2byte	0x4c7
 6284 1549 01       		.byte	0x1
 6285 154a EE0B0000 		.4byte	0xbee
 6286 154e 00000000 		.4byte	.LFB49
 6287 1552 24010000 		.4byte	.LFE49
 6288 1556 2C060000 		.4byte	.LLST55
 6289 155a 01       		.byte	0x1
 6290 155b 47160000 		.4byte	0x1647
 6291 155f 27       		.uleb128 0x27
 6292 1560 F4050000 		.4byte	.LASF219
 6293 1564 01       		.byte	0x1
 6294 1565 C704     		.2byte	0x4c7
 6295 1567 57100000 		.4byte	0x1057
 6296 156b 64060000 		.4byte	.LLST56
 6297 156f 27       		.uleb128 0x27
 6298 1570 700D0000 		.4byte	.LASF243
 6299 1574 01       		.byte	0x1
 6300 1575 C704     		.2byte	0x4c7
 6301 1577 47160000 		.4byte	0x1647
 6302 157b D2060000 		.4byte	.LLST57
 6303 157f 27       		.uleb128 0x27
 6304 1580 560A0000 		.4byte	.LASF244
 6305 1584 01       		.byte	0x1
 6306 1585 C704     		.2byte	0x4c7
 6307 1587 95000000 		.4byte	0x95
 6308 158b 09070000 		.4byte	.LLST58
 6309 158f 28       		.uleb128 0x28
 6310 1590 5E050000 		.4byte	.LASF231
 6311 1594 01       		.byte	0x1
 6312 1595 C904     		.2byte	0x4c9
 6313 1597 EE0B0000 		.4byte	0xbee
 6314 159b 40070000 		.4byte	.LLST59
 6315 159f 38       		.uleb128 0x38
 6316 15a0 4C110000 		.4byte	0x114c
ARM GAS  C:\Users\EBANO_~1\AppData\Local\Temp\cc7eeVhF.s 			page 161


 6317 15a4 28000000 		.4byte	.LBB122
 6318 15a8 18010000 		.4byte	.Ldebug_ranges0+0x118
 6319 15ac 01       		.byte	0x1
 6320 15ad D904     		.2byte	0x4d9
 6321 15af 30160000 		.4byte	0x1630
 6322 15b3 31       		.uleb128 0x31
 6323 15b4 5E110000 		.4byte	0x115e
 6324 15b8 6C070000 		.4byte	.LLST60
 6325 15bc 39       		.uleb128 0x39
 6326 15bd 18010000 		.4byte	.Ldebug_ranges0+0x118
 6327 15c1 3A       		.uleb128 0x3a
 6328 15c2 6A110000 		.4byte	0x116a
 6329 15c6 B6070000 		.4byte	.LLST61
 6330 15ca 3D       		.uleb128 0x3d
 6331 15cb EC0F0000 		.4byte	0xfec
 6332 15cf 42000000 		.4byte	.LBB124
 6333 15d3 60000000 		.4byte	.LBE124
 6334 15d7 01       		.byte	0x1
 6335 15d8 9A07     		.2byte	0x79a
 6336 15da FA150000 		.4byte	0x15fa
 6337 15de 31       		.uleb128 0x31
 6338 15df FA0F0000 		.4byte	0xffa
 6339 15e3 D6070000 		.4byte	.LLST62
 6340 15e7 32       		.uleb128 0x32
 6341 15e8 42000000 		.4byte	.LBB125
 6342 15ec 60000000 		.4byte	.LBE125
 6343 15f0 33       		.uleb128 0x33
 6344 15f1 06100000 		.4byte	0x1006
 6345 15f5 02       		.byte	0x2
 6346 15f6 91       		.byte	0x91
 6347 15f7 64       		.sleb128 -28
 6348 15f8 00       		.byte	0
 6349 15f9 00       		.byte	0
 6350 15fa 3E       		.uleb128 0x3e
 6351 15fb 4C110000 		.4byte	0x114c
 6352 15ff 30010000 		.4byte	.Ldebug_ranges0+0x130
 6353 1603 31       		.uleb128 0x31
 6354 1604 5E110000 		.4byte	0x115e
 6355 1608 F6070000 		.4byte	.LLST63
 6356 160c 39       		.uleb128 0x39
 6357 160d 30010000 		.4byte	.Ldebug_ranges0+0x130
 6358 1611 3A       		.uleb128 0x3a
 6359 1612 6A110000 		.4byte	0x116a
 6360 1616 14080000 		.4byte	.LLST64
 6361 161a 29       		.uleb128 0x29
 6362 161b 64000000 		.4byte	.LVL151
 6363 161f 9D1C0000 		.4byte	0x1c9d
 6364 1623 29       		.uleb128 0x29
 6365 1624 6E000000 		.4byte	.LVL154
 6366 1628 9D1C0000 		.4byte	0x1c9d
 6367 162c 00       		.byte	0
 6368 162d 00       		.byte	0
 6369 162e 00       		.byte	0
 6370 162f 00       		.byte	0
 6371 1630 37       		.uleb128 0x37
 6372 1631 C0000000 		.4byte	.LVL156
 6373 1635 B91C0000 		.4byte	0x1cb9
ARM GAS  C:\Users\EBANO_~1\AppData\Local\Temp\cc7eeVhF.s 			page 162


 6374 1639 2B       		.uleb128 0x2b
 6375 163a 01       		.byte	0x1
 6376 163b 52       		.byte	0x52
 6377 163c 02       		.byte	0x2
 6378 163d 75       		.byte	0x75
 6379 163e 00       		.sleb128 0
 6380 163f 2B       		.uleb128 0x2b
 6381 1640 01       		.byte	0x1
 6382 1641 53       		.byte	0x53
 6383 1642 02       		.byte	0x2
 6384 1643 76       		.byte	0x76
 6385 1644 00       		.sleb128 0
 6386 1645 00       		.byte	0
 6387 1646 00       		.byte	0
 6388 1647 12       		.uleb128 0x12
 6389 1648 04       		.byte	0x4
 6390 1649 95000000 		.4byte	0x95
 6391 164d 2E       		.uleb128 0x2e
 6392 164e 01       		.byte	0x1
 6393 164f 4E070000 		.4byte	.LASF245
 6394 1653 01       		.byte	0x1
 6395 1654 9504     		.2byte	0x495
 6396 1656 01       		.byte	0x1
 6397 1657 EE0B0000 		.4byte	0xbee
 6398 165b 00000000 		.4byte	.LFB48
 6399 165f F0000000 		.4byte	.LFE48
 6400 1663 48080000 		.4byte	.LLST46
 6401 1667 01       		.byte	0x1
 6402 1668 5B170000 		.4byte	0x175b
 6403 166c 27       		.uleb128 0x27
 6404 166d F4050000 		.4byte	.LASF219
 6405 1671 01       		.byte	0x1
 6406 1672 9504     		.2byte	0x495
 6407 1674 57100000 		.4byte	0x1057
 6408 1678 68080000 		.4byte	.LLST47
 6409 167c 28       		.uleb128 0x28
 6410 167d 5E050000 		.4byte	.LASF231
 6411 1681 01       		.byte	0x1
 6412 1682 9704     		.2byte	0x497
 6413 1684 EE0B0000 		.4byte	0xbee
 6414 1688 C0080000 		.4byte	.LLST48
 6415 168c 38       		.uleb128 0x38
 6416 168d F6100000 		.4byte	0x10f6
 6417 1691 10000000 		.4byte	.LBB98
 6418 1695 D8000000 		.4byte	.Ldebug_ranges0+0xd8
 6419 1699 01       		.byte	0x1
 6420 169a A004     		.2byte	0x4a0
 6421 169c F5160000 		.4byte	0x16f5
 6422 16a0 31       		.uleb128 0x31
 6423 16a1 08110000 		.4byte	0x1108
 6424 16a5 0F090000 		.4byte	.LLST49
 6425 16a9 39       		.uleb128 0x39
 6426 16aa D8000000 		.4byte	.Ldebug_ranges0+0xd8
 6427 16ae 3A       		.uleb128 0x3a
 6428 16af 14110000 		.4byte	0x1114
 6429 16b3 4E090000 		.4byte	.LLST50
 6430 16b7 3B       		.uleb128 0x3b
ARM GAS  C:\Users\EBANO_~1\AppData\Local\Temp\cc7eeVhF.s 			page 163


 6431 16b8 F6100000 		.4byte	0x10f6
 6432 16bc 9C000000 		.4byte	.LBB100
 6433 16c0 B0000000 		.4byte	.LBE100
 6434 16c4 E1160000 		.4byte	0x16e1
 6435 16c8 31       		.uleb128 0x31
 6436 16c9 08110000 		.4byte	0x1108
 6437 16cd 8F090000 		.4byte	.LLST51
 6438 16d1 32       		.uleb128 0x32
 6439 16d2 9C000000 		.4byte	.LBB101
 6440 16d6 B0000000 		.4byte	.LBE101
 6441 16da 3C       		.uleb128 0x3c
 6442 16db 14110000 		.4byte	0x1114
 6443 16df 00       		.byte	0
 6444 16e0 00       		.byte	0
 6445 16e1 29       		.uleb128 0x29
 6446 16e2 24000000 		.4byte	.LVL120
 6447 16e6 9D1C0000 		.4byte	0x1c9d
 6448 16ea 29       		.uleb128 0x29
 6449 16eb 2E000000 		.4byte	.LVL123
 6450 16ef 9D1C0000 		.4byte	0x1c9d
 6451 16f3 00       		.byte	0
 6452 16f4 00       		.byte	0
 6453 16f5 3F       		.uleb128 0x3f
 6454 16f6 21110000 		.4byte	0x1121
 6455 16fa 44000000 		.4byte	.LBB104
 6456 16fe F8000000 		.4byte	.Ldebug_ranges0+0xf8
 6457 1702 01       		.byte	0x1
 6458 1703 AA04     		.2byte	0x4aa
 6459 1705 31       		.uleb128 0x31
 6460 1706 33110000 		.4byte	0x1133
 6461 170a A2090000 		.4byte	.LLST52
 6462 170e 39       		.uleb128 0x39
 6463 170f F8000000 		.4byte	.Ldebug_ranges0+0xf8
 6464 1713 3A       		.uleb128 0x3a
 6465 1714 3F110000 		.4byte	0x113f
 6466 1718 CB090000 		.4byte	.LLST53
 6467 171c 3B       		.uleb128 0x3b
 6468 171d F6100000 		.4byte	0x10f6
 6469 1721 D8000000 		.4byte	.LBB106
 6470 1725 F0000000 		.4byte	.LBE106
 6471 1729 46170000 		.4byte	0x1746
 6472 172d 31       		.uleb128 0x31
 6473 172e 08110000 		.4byte	0x1108
 6474 1732 0D0A0000 		.4byte	.LLST54
 6475 1736 32       		.uleb128 0x32
 6476 1737 D8000000 		.4byte	.LBB107
 6477 173b F0000000 		.4byte	.LBE107
 6478 173f 3C       		.uleb128 0x3c
 6479 1740 14110000 		.4byte	0x1114
 6480 1744 00       		.byte	0
 6481 1745 00       		.byte	0
 6482 1746 29       		.uleb128 0x29
 6483 1747 BE000000 		.4byte	.LVL137
 6484 174b 9D1C0000 		.4byte	0x1c9d
 6485 174f 29       		.uleb128 0x29
 6486 1750 C8000000 		.4byte	.LVL140
 6487 1754 9D1C0000 		.4byte	0x1c9d
ARM GAS  C:\Users\EBANO_~1\AppData\Local\Temp\cc7eeVhF.s 			page 164


 6488 1758 00       		.byte	0
 6489 1759 00       		.byte	0
 6490 175a 00       		.byte	0
 6491 175b 2F       		.uleb128 0x2f
 6492 175c 01       		.byte	0x1
 6493 175d 380A0000 		.4byte	.LASF246
 6494 1761 01       		.byte	0x1
 6495 1762 4404     		.2byte	0x444
 6496 1764 01       		.byte	0x1
 6497 1765 EE0B0000 		.4byte	0xbee
 6498 1769 00000000 		.4byte	.LFB47
 6499 176d 00010000 		.4byte	.LFE47
 6500 1771 200A0000 		.4byte	.LLST38
 6501 1775 01       		.byte	0x1
 6502 1776 28180000 		.4byte	0x1828
 6503 177a 27       		.uleb128 0x27
 6504 177b F4050000 		.4byte	.LASF219
 6505 177f 01       		.byte	0x1
 6506 1780 4404     		.2byte	0x444
 6507 1782 57100000 		.4byte	0x1057
 6508 1786 4C0A0000 		.4byte	.LLST39
 6509 178a 28       		.uleb128 0x28
 6510 178b 5E050000 		.4byte	.LASF231
 6511 178f 01       		.byte	0x1
 6512 1790 4604     		.2byte	0x446
 6513 1792 EE0B0000 		.4byte	0xbee
 6514 1796 D00A0000 		.4byte	.LLST40
 6515 179a 3F       		.uleb128 0x3f
 6516 179b 4C110000 		.4byte	0x114c
 6517 179f 5E000000 		.4byte	.LBB80
 6518 17a3 A8000000 		.4byte	.Ldebug_ranges0+0xa8
 6519 17a7 01       		.byte	0x1
 6520 17a8 5604     		.2byte	0x456
 6521 17aa 31       		.uleb128 0x31
 6522 17ab 5E110000 		.4byte	0x115e
 6523 17af FC0A0000 		.4byte	.LLST41
 6524 17b3 39       		.uleb128 0x39
 6525 17b4 A8000000 		.4byte	.Ldebug_ranges0+0xa8
 6526 17b8 3A       		.uleb128 0x3a
 6527 17b9 6A110000 		.4byte	0x116a
 6528 17bd 460B0000 		.4byte	.LLST42
 6529 17c1 3D       		.uleb128 0x3d
 6530 17c2 EC0F0000 		.4byte	0xfec
 6531 17c6 78000000 		.4byte	.LBB82
 6532 17ca 96000000 		.4byte	.LBE82
 6533 17ce 01       		.byte	0x1
 6534 17cf 9A07     		.2byte	0x79a
 6535 17d1 F1170000 		.4byte	0x17f1
 6536 17d5 31       		.uleb128 0x31
 6537 17d6 FA0F0000 		.4byte	0xffa
 6538 17da 660B0000 		.4byte	.LLST43
 6539 17de 32       		.uleb128 0x32
 6540 17df 78000000 		.4byte	.LBB83
 6541 17e3 96000000 		.4byte	.LBE83
 6542 17e7 33       		.uleb128 0x33
 6543 17e8 06100000 		.4byte	0x1006
 6544 17ec 02       		.byte	0x2
ARM GAS  C:\Users\EBANO_~1\AppData\Local\Temp\cc7eeVhF.s 			page 165


 6545 17ed 91       		.byte	0x91
 6546 17ee 6C       		.sleb128 -20
 6547 17ef 00       		.byte	0
 6548 17f0 00       		.byte	0
 6549 17f1 3E       		.uleb128 0x3e
 6550 17f2 4C110000 		.4byte	0x114c
 6551 17f6 C0000000 		.4byte	.Ldebug_ranges0+0xc0
 6552 17fa 31       		.uleb128 0x31
 6553 17fb 5E110000 		.4byte	0x115e
 6554 17ff 860B0000 		.4byte	.LLST44
 6555 1803 39       		.uleb128 0x39
 6556 1804 C0000000 		.4byte	.Ldebug_ranges0+0xc0
 6557 1808 3A       		.uleb128 0x3a
 6558 1809 6A110000 		.4byte	0x116a
 6559 180d A40B0000 		.4byte	.LLST45
 6560 1811 29       		.uleb128 0x29
 6561 1812 9A000000 		.4byte	.LVL106
 6562 1816 9D1C0000 		.4byte	0x1c9d
 6563 181a 29       		.uleb128 0x29
 6564 181b A4000000 		.4byte	.LVL109
 6565 181f 9D1C0000 		.4byte	0x1c9d
 6566 1823 00       		.byte	0
 6567 1824 00       		.byte	0
 6568 1825 00       		.byte	0
 6569 1826 00       		.byte	0
 6570 1827 00       		.byte	0
 6571 1828 2E       		.uleb128 0x2e
 6572 1829 01       		.byte	0x1
 6573 182a F1020000 		.4byte	.LASF247
 6574 182e 01       		.byte	0x1
 6575 182f F103     		.2byte	0x3f1
 6576 1831 01       		.byte	0x1
 6577 1832 EE0B0000 		.4byte	0xbee
 6578 1836 00000000 		.4byte	.LFB46
 6579 183a 78000000 		.4byte	.LFE46
 6580 183e CD0B0000 		.4byte	.LLST33
 6581 1842 01       		.byte	0x1
 6582 1843 9A180000 		.4byte	0x189a
 6583 1847 27       		.uleb128 0x27
 6584 1848 F4050000 		.4byte	.LASF219
 6585 184c 01       		.byte	0x1
 6586 184d F103     		.2byte	0x3f1
 6587 184f 57100000 		.4byte	0x1057
 6588 1853 ED0B0000 		.4byte	.LLST34
 6589 1857 27       		.uleb128 0x27
 6590 1858 220B0000 		.4byte	.LASF248
 6591 185c 01       		.byte	0x1
 6592 185d F103     		.2byte	0x3f1
 6593 185f 95000000 		.4byte	0x95
 6594 1863 240C0000 		.4byte	.LLST35
 6595 1867 27       		.uleb128 0x27
 6596 1868 14040000 		.4byte	.LASF249
 6597 186c 01       		.byte	0x1
 6598 186d F103     		.2byte	0x3f1
 6599 186f 95000000 		.4byte	0x95
 6600 1873 5B0C0000 		.4byte	.LLST36
 6601 1877 28       		.uleb128 0x28
ARM GAS  C:\Users\EBANO_~1\AppData\Local\Temp\cc7eeVhF.s 			page 166


 6602 1878 AB0C0000 		.4byte	.LASF223
 6603 187c 01       		.byte	0x1
 6604 187d F303     		.2byte	0x3f3
 6605 187f 95000000 		.4byte	0x95
 6606 1883 920C0000 		.4byte	.LLST37
 6607 1887 29       		.uleb128 0x29
 6608 1888 0C000000 		.4byte	.LVL89
 6609 188c 9D1C0000 		.4byte	0x1c9d
 6610 1890 29       		.uleb128 0x29
 6611 1891 50000000 		.4byte	.LVL96
 6612 1895 9D1C0000 		.4byte	0x1c9d
 6613 1899 00       		.byte	0
 6614 189a 2E       		.uleb128 0x2e
 6615 189b 01       		.byte	0x1
 6616 189c 080B0000 		.4byte	.LASF250
 6617 18a0 01       		.byte	0x1
 6618 18a1 7303     		.2byte	0x373
 6619 18a3 01       		.byte	0x1
 6620 18a4 EE0B0000 		.4byte	0xbee
 6621 18a8 00000000 		.4byte	.LFB45
 6622 18ac C0000000 		.4byte	.LFE45
 6623 18b0 BC0C0000 		.4byte	.LLST28
 6624 18b4 01       		.byte	0x1
 6625 18b5 0C190000 		.4byte	0x190c
 6626 18b9 27       		.uleb128 0x27
 6627 18ba F4050000 		.4byte	.LASF219
 6628 18be 01       		.byte	0x1
 6629 18bf 7303     		.2byte	0x373
 6630 18c1 57100000 		.4byte	0x1057
 6631 18c5 DC0C0000 		.4byte	.LLST29
 6632 18c9 27       		.uleb128 0x27
 6633 18ca 14040000 		.4byte	.LASF249
 6634 18ce 01       		.byte	0x1
 6635 18cf 7303     		.2byte	0x373
 6636 18d1 95000000 		.4byte	0x95
 6637 18d5 290D0000 		.4byte	.LLST30
 6638 18d9 28       		.uleb128 0x28
 6639 18da AB0C0000 		.4byte	.LASF223
 6640 18de 01       		.byte	0x1
 6641 18df 7503     		.2byte	0x375
 6642 18e1 95000000 		.4byte	0x95
 6643 18e5 760D0000 		.4byte	.LLST31
 6644 18e9 28       		.uleb128 0x28
 6645 18ea 88040000 		.4byte	.LASF251
 6646 18ee 01       		.byte	0x1
 6647 18ef 7603     		.2byte	0x376
 6648 18f1 95000000 		.4byte	0x95
 6649 18f5 B70D0000 		.4byte	.LLST32
 6650 18f9 29       		.uleb128 0x29
 6651 18fa 1A000000 		.4byte	.LVL78
 6652 18fe 9D1C0000 		.4byte	0x1c9d
 6653 1902 29       		.uleb128 0x29
 6654 1903 80000000 		.4byte	.LVL84
 6655 1907 9D1C0000 		.4byte	0x1c9d
 6656 190b 00       		.byte	0
 6657 190c 2E       		.uleb128 0x2e
 6658 190d 01       		.byte	0x1
ARM GAS  C:\Users\EBANO_~1\AppData\Local\Temp\cc7eeVhF.s 			page 167


 6659 190e 84030000 		.4byte	.LASF252
 6660 1912 01       		.byte	0x1
 6661 1913 3D03     		.2byte	0x33d
 6662 1915 01       		.byte	0x1
 6663 1916 EE0B0000 		.4byte	0xbee
 6664 191a 00000000 		.4byte	.LFB44
 6665 191e E8000000 		.4byte	.LFE44
 6666 1922 F80D0000 		.4byte	.LLST19
 6667 1926 01       		.byte	0x1
 6668 1927 1A1A0000 		.4byte	0x1a1a
 6669 192b 27       		.uleb128 0x27
 6670 192c F4050000 		.4byte	.LASF219
 6671 1930 01       		.byte	0x1
 6672 1931 3D03     		.2byte	0x33d
 6673 1933 57100000 		.4byte	0x1057
 6674 1937 180E0000 		.4byte	.LLST20
 6675 193b 28       		.uleb128 0x28
 6676 193c 5E050000 		.4byte	.LASF231
 6677 1940 01       		.byte	0x1
 6678 1941 3F03     		.2byte	0x33f
 6679 1943 EE0B0000 		.4byte	0xbee
 6680 1947 700E0000 		.4byte	.LLST21
 6681 194b 38       		.uleb128 0x38
 6682 194c F6100000 		.4byte	0x10f6
 6683 1950 10000000 		.4byte	.LBB56
 6684 1954 68000000 		.4byte	.Ldebug_ranges0+0x68
 6685 1958 01       		.byte	0x1
 6686 1959 4803     		.2byte	0x348
 6687 195b B4190000 		.4byte	0x19b4
 6688 195f 31       		.uleb128 0x31
 6689 1960 08110000 		.4byte	0x1108
 6690 1964 BF0E0000 		.4byte	.LLST22
 6691 1968 39       		.uleb128 0x39
 6692 1969 68000000 		.4byte	.Ldebug_ranges0+0x68
 6693 196d 3A       		.uleb128 0x3a
 6694 196e 14110000 		.4byte	0x1114
 6695 1972 FE0E0000 		.4byte	.LLST23
 6696 1976 3B       		.uleb128 0x3b
 6697 1977 F6100000 		.4byte	0x10f6
 6698 197b 94000000 		.4byte	.LBB58
 6699 197f A8000000 		.4byte	.LBE58
 6700 1983 A0190000 		.4byte	0x19a0
 6701 1987 31       		.uleb128 0x31
 6702 1988 08110000 		.4byte	0x1108
 6703 198c 3F0F0000 		.4byte	.LLST24
 6704 1990 32       		.uleb128 0x32
 6705 1991 94000000 		.4byte	.LBB59
 6706 1995 A8000000 		.4byte	.LBE59
 6707 1999 3C       		.uleb128 0x3c
 6708 199a 14110000 		.4byte	0x1114
 6709 199e 00       		.byte	0
 6710 199f 00       		.byte	0
 6711 19a0 29       		.uleb128 0x29
 6712 19a1 24000000 		.4byte	.LVL54
 6713 19a5 9D1C0000 		.4byte	0x1c9d
 6714 19a9 29       		.uleb128 0x29
 6715 19aa 2E000000 		.4byte	.LVL57
ARM GAS  C:\Users\EBANO_~1\AppData\Local\Temp\cc7eeVhF.s 			page 168


 6716 19ae 9D1C0000 		.4byte	0x1c9d
 6717 19b2 00       		.byte	0
 6718 19b3 00       		.byte	0
 6719 19b4 3F       		.uleb128 0x3f
 6720 19b5 21110000 		.4byte	0x1121
 6721 19b9 3C000000 		.4byte	.LBB62
 6722 19bd 88000000 		.4byte	.Ldebug_ranges0+0x88
 6723 19c1 01       		.byte	0x1
 6724 19c2 4E03     		.2byte	0x34e
 6725 19c4 31       		.uleb128 0x31
 6726 19c5 33110000 		.4byte	0x1133
 6727 19c9 520F0000 		.4byte	.LLST25
 6728 19cd 39       		.uleb128 0x39
 6729 19ce 88000000 		.4byte	.Ldebug_ranges0+0x88
 6730 19d2 3A       		.uleb128 0x3a
 6731 19d3 3F110000 		.4byte	0x113f
 6732 19d7 7B0F0000 		.4byte	.LLST26
 6733 19db 3B       		.uleb128 0x3b
 6734 19dc F6100000 		.4byte	0x10f6
 6735 19e0 D0000000 		.4byte	.LBB64
 6736 19e4 E8000000 		.4byte	.LBE64
 6737 19e8 051A0000 		.4byte	0x1a05
 6738 19ec 31       		.uleb128 0x31
 6739 19ed 08110000 		.4byte	0x1108
 6740 19f1 BD0F0000 		.4byte	.LLST27
 6741 19f5 32       		.uleb128 0x32
 6742 19f6 D0000000 		.4byte	.LBB65
 6743 19fa E8000000 		.4byte	.LBE65
 6744 19fe 3C       		.uleb128 0x3c
 6745 19ff 14110000 		.4byte	0x1114
 6746 1a03 00       		.byte	0
 6747 1a04 00       		.byte	0
 6748 1a05 29       		.uleb128 0x29
 6749 1a06 B6000000 		.4byte	.LVL70
 6750 1a0a 9D1C0000 		.4byte	0x1c9d
 6751 1a0e 29       		.uleb128 0x29
 6752 1a0f C0000000 		.4byte	.LVL73
 6753 1a13 9D1C0000 		.4byte	0x1c9d
 6754 1a17 00       		.byte	0
 6755 1a18 00       		.byte	0
 6756 1a19 00       		.byte	0
 6757 1a1a 2F       		.uleb128 0x2f
 6758 1a1b 01       		.byte	0x1
 6759 1a1c E3000000 		.4byte	.LASF253
 6760 1a20 01       		.byte	0x1
 6761 1a21 FB02     		.2byte	0x2fb
 6762 1a23 01       		.byte	0x1
 6763 1a24 EE0B0000 		.4byte	0xbee
 6764 1a28 00000000 		.4byte	.LFB43
 6765 1a2c E0000000 		.4byte	.LFE43
 6766 1a30 D00F0000 		.4byte	.LLST11
 6767 1a34 01       		.byte	0x1
 6768 1a35 E71A0000 		.4byte	0x1ae7
 6769 1a39 27       		.uleb128 0x27
 6770 1a3a F4050000 		.4byte	.LASF219
 6771 1a3e 01       		.byte	0x1
 6772 1a3f FB02     		.2byte	0x2fb
ARM GAS  C:\Users\EBANO_~1\AppData\Local\Temp\cc7eeVhF.s 			page 169


 6773 1a41 57100000 		.4byte	0x1057
 6774 1a45 FC0F0000 		.4byte	.LLST12
 6775 1a49 28       		.uleb128 0x28
 6776 1a4a 5E050000 		.4byte	.LASF231
 6777 1a4e 01       		.byte	0x1
 6778 1a4f FD02     		.2byte	0x2fd
 6779 1a51 EE0B0000 		.4byte	0xbee
 6780 1a55 80100000 		.4byte	.LLST13
 6781 1a59 3F       		.uleb128 0x3f
 6782 1a5a 4C110000 		.4byte	0x114c
 6783 1a5e 48000000 		.4byte	.LBB38
 6784 1a62 38000000 		.4byte	.Ldebug_ranges0+0x38
 6785 1a66 01       		.byte	0x1
 6786 1a67 0D03     		.2byte	0x30d
 6787 1a69 31       		.uleb128 0x31
 6788 1a6a 5E110000 		.4byte	0x115e
 6789 1a6e AC100000 		.4byte	.LLST14
 6790 1a72 39       		.uleb128 0x39
 6791 1a73 38000000 		.4byte	.Ldebug_ranges0+0x38
 6792 1a77 3A       		.uleb128 0x3a
 6793 1a78 6A110000 		.4byte	0x116a
 6794 1a7c F6100000 		.4byte	.LLST15
 6795 1a80 3D       		.uleb128 0x3d
 6796 1a81 EC0F0000 		.4byte	0xfec
 6797 1a85 62000000 		.4byte	.LBB40
 6798 1a89 80000000 		.4byte	.LBE40
 6799 1a8d 01       		.byte	0x1
 6800 1a8e 9A07     		.2byte	0x79a
 6801 1a90 B01A0000 		.4byte	0x1ab0
 6802 1a94 31       		.uleb128 0x31
 6803 1a95 FA0F0000 		.4byte	0xffa
 6804 1a99 16110000 		.4byte	.LLST16
 6805 1a9d 32       		.uleb128 0x32
 6806 1a9e 62000000 		.4byte	.LBB41
 6807 1aa2 80000000 		.4byte	.LBE41
 6808 1aa6 33       		.uleb128 0x33
 6809 1aa7 06100000 		.4byte	0x1006
 6810 1aab 02       		.byte	0x2
 6811 1aac 91       		.byte	0x91
 6812 1aad 6C       		.sleb128 -20
 6813 1aae 00       		.byte	0
 6814 1aaf 00       		.byte	0
 6815 1ab0 3E       		.uleb128 0x3e
 6816 1ab1 4C110000 		.4byte	0x114c
 6817 1ab5 50000000 		.4byte	.Ldebug_ranges0+0x50
 6818 1ab9 31       		.uleb128 0x31
 6819 1aba 5E110000 		.4byte	0x115e
 6820 1abe 36110000 		.4byte	.LLST17
 6821 1ac2 39       		.uleb128 0x39
 6822 1ac3 50000000 		.4byte	.Ldebug_ranges0+0x50
 6823 1ac7 3A       		.uleb128 0x3a
 6824 1ac8 6A110000 		.4byte	0x116a
 6825 1acc 54110000 		.4byte	.LLST18
 6826 1ad0 29       		.uleb128 0x29
 6827 1ad1 84000000 		.4byte	.LVL40
 6828 1ad5 9D1C0000 		.4byte	0x1c9d
 6829 1ad9 29       		.uleb128 0x29
ARM GAS  C:\Users\EBANO_~1\AppData\Local\Temp\cc7eeVhF.s 			page 170


 6830 1ada 8E000000 		.4byte	.LVL43
 6831 1ade 9D1C0000 		.4byte	0x1c9d
 6832 1ae2 00       		.byte	0
 6833 1ae3 00       		.byte	0
 6834 1ae4 00       		.byte	0
 6835 1ae5 00       		.byte	0
 6836 1ae6 00       		.byte	0
 6837 1ae7 34       		.uleb128 0x34
 6838 1ae8 01       		.byte	0x1
 6839 1ae9 F1000000 		.4byte	.LASF254
 6840 1aed 01       		.byte	0x1
 6841 1aee D102     		.2byte	0x2d1
 6842 1af0 01       		.byte	0x1
 6843 1af1 021B0000 		.4byte	0x1b02
 6844 1af5 24       		.uleb128 0x24
 6845 1af6 F4050000 		.4byte	.LASF219
 6846 1afa 01       		.byte	0x1
 6847 1afb D102     		.2byte	0x2d1
 6848 1afd 57100000 		.4byte	0x1057
 6849 1b01 00       		.byte	0
 6850 1b02 40       		.uleb128 0x40
 6851 1b03 01       		.byte	0x1
 6852 1b04 48080000 		.4byte	.LASF265
 6853 1b08 01       		.byte	0x1
 6854 1b09 C202     		.2byte	0x2c2
 6855 1b0b 01       		.byte	0x1
 6856 1b0c 01       		.byte	0x1
 6857 1b0d 1E1B0000 		.4byte	0x1b1e
 6858 1b11 24       		.uleb128 0x24
 6859 1b12 F4050000 		.4byte	.LASF219
 6860 1b16 01       		.byte	0x1
 6861 1b17 C202     		.2byte	0x2c2
 6862 1b19 57100000 		.4byte	0x1057
 6863 1b1d 00       		.byte	0
 6864 1b1e 2E       		.uleb128 0x2e
 6865 1b1f 01       		.byte	0x1
 6866 1b20 5B060000 		.4byte	.LASF255
 6867 1b24 01       		.byte	0x1
 6868 1b25 4902     		.2byte	0x249
 6869 1b27 01       		.byte	0x1
 6870 1b28 EE0B0000 		.4byte	0xbee
 6871 1b2c 00000000 		.4byte	.LFB40
 6872 1b30 3C010000 		.4byte	.LFE40
 6873 1b34 7D110000 		.4byte	.LLST2
 6874 1b38 01       		.byte	0x1
 6875 1b39 401C0000 		.4byte	0x1c40
 6876 1b3d 27       		.uleb128 0x27
 6877 1b3e F4050000 		.4byte	.LASF219
 6878 1b42 01       		.byte	0x1
 6879 1b43 4902     		.2byte	0x249
 6880 1b45 57100000 		.4byte	0x1057
 6881 1b49 9D110000 		.4byte	.LLST3
 6882 1b4d 28       		.uleb128 0x28
 6883 1b4e 5E050000 		.4byte	.LASF231
 6884 1b52 01       		.byte	0x1
 6885 1b53 4B02     		.2byte	0x24b
 6886 1b55 EE0B0000 		.4byte	0xbee
ARM GAS  C:\Users\EBANO_~1\AppData\Local\Temp\cc7eeVhF.s 			page 171


 6887 1b59 D4110000 		.4byte	.LLST4
 6888 1b5d 38       		.uleb128 0x38
 6889 1b5e F6100000 		.4byte	0x10f6
 6890 1b62 0C000000 		.4byte	.LBB16
 6891 1b66 00000000 		.4byte	.Ldebug_ranges0+0
 6892 1b6a 01       		.byte	0x1
 6893 1b6b 5A02     		.2byte	0x25a
 6894 1b6d C61B0000 		.4byte	0x1bc6
 6895 1b71 31       		.uleb128 0x31
 6896 1b72 08110000 		.4byte	0x1108
 6897 1b76 30120000 		.4byte	.LLST5
 6898 1b7a 39       		.uleb128 0x39
 6899 1b7b 00000000 		.4byte	.Ldebug_ranges0+0
 6900 1b7f 3A       		.uleb128 0x3a
 6901 1b80 14110000 		.4byte	0x1114
 6902 1b84 59120000 		.4byte	.LLST6
 6903 1b88 3B       		.uleb128 0x3b
 6904 1b89 F6100000 		.4byte	0x10f6
 6905 1b8d FE000000 		.4byte	.LBB18
 6906 1b91 12010000 		.4byte	.LBE18
 6907 1b95 B21B0000 		.4byte	0x1bb2
 6908 1b99 31       		.uleb128 0x31
 6909 1b9a 08110000 		.4byte	0x1108
 6910 1b9e 9A120000 		.4byte	.LLST7
 6911 1ba2 32       		.uleb128 0x32
 6912 1ba3 FE000000 		.4byte	.LBB19
 6913 1ba7 12010000 		.4byte	.LBE19
 6914 1bab 3C       		.uleb128 0x3c
 6915 1bac 14110000 		.4byte	0x1114
 6916 1bb0 00       		.byte	0
 6917 1bb1 00       		.byte	0
 6918 1bb2 29       		.uleb128 0x29
 6919 1bb3 26000000 		.4byte	.LVL11
 6920 1bb7 9D1C0000 		.4byte	0x1c9d
 6921 1bbb 29       		.uleb128 0x29
 6922 1bbc 30000000 		.4byte	.LVL14
 6923 1bc0 9D1C0000 		.4byte	0x1c9d
 6924 1bc4 00       		.byte	0
 6925 1bc5 00       		.byte	0
 6926 1bc6 38       		.uleb128 0x38
 6927 1bc7 21110000 		.4byte	0x1121
 6928 1bcb 3E000000 		.4byte	.LBB23
 6929 1bcf 20000000 		.4byte	.Ldebug_ranges0+0x20
 6930 1bd3 01       		.byte	0x1
 6931 1bd4 6002     		.2byte	0x260
 6932 1bd6 2F1C0000 		.4byte	0x1c2f
 6933 1bda 31       		.uleb128 0x31
 6934 1bdb 33110000 		.4byte	0x1133
 6935 1bdf AD120000 		.4byte	.LLST8
 6936 1be3 39       		.uleb128 0x39
 6937 1be4 20000000 		.4byte	.Ldebug_ranges0+0x20
 6938 1be8 3A       		.uleb128 0x3a
 6939 1be9 3F110000 		.4byte	0x113f
 6940 1bed D6120000 		.4byte	.LLST9
 6941 1bf1 3B       		.uleb128 0x3b
 6942 1bf2 F6100000 		.4byte	0x10f6
 6943 1bf6 12010000 		.4byte	.LBB25
ARM GAS  C:\Users\EBANO_~1\AppData\Local\Temp\cc7eeVhF.s 			page 172


 6944 1bfa 3C010000 		.4byte	.LBE25
 6945 1bfe 1B1C0000 		.4byte	0x1c1b
 6946 1c02 31       		.uleb128 0x31
 6947 1c03 08110000 		.4byte	0x1108
 6948 1c07 17130000 		.4byte	.LLST10
 6949 1c0b 32       		.uleb128 0x32
 6950 1c0c 12010000 		.4byte	.LBB26
 6951 1c10 3C010000 		.4byte	.LBE26
 6952 1c14 3C       		.uleb128 0x3c
 6953 1c15 14110000 		.4byte	0x1114
 6954 1c19 00       		.byte	0
 6955 1c1a 00       		.byte	0
 6956 1c1b 29       		.uleb128 0x29
 6957 1c1c 78000000 		.4byte	.LVL18
 6958 1c20 9D1C0000 		.4byte	0x1c9d
 6959 1c24 29       		.uleb128 0x29
 6960 1c25 82000000 		.4byte	.LVL21
 6961 1c29 9D1C0000 		.4byte	0x1c9d
 6962 1c2d 00       		.byte	0
 6963 1c2e 00       		.byte	0
 6964 1c2f 37       		.uleb128 0x37
 6965 1c30 DE000000 		.4byte	.LVL23
 6966 1c34 E71A0000 		.4byte	0x1ae7
 6967 1c38 2B       		.uleb128 0x2b
 6968 1c39 01       		.byte	0x1
 6969 1c3a 50       		.byte	0x50
 6970 1c3b 02       		.byte	0x2
 6971 1c3c 74       		.byte	0x74
 6972 1c3d 00       		.sleb128 0
 6973 1c3e 00       		.byte	0
 6974 1c3f 00       		.byte	0
 6975 1c40 2E       		.uleb128 0x2e
 6976 1c41 01       		.byte	0x1
 6977 1c42 2C0B0000 		.4byte	.LASF256
 6978 1c46 01       		.byte	0x1
 6979 1c47 6301     		.2byte	0x163
 6980 1c49 01       		.byte	0x1
 6981 1c4a EE0B0000 		.4byte	0xbee
 6982 1c4e 00000000 		.4byte	.LFB39
 6983 1c52 C8010000 		.4byte	.LFE39
 6984 1c56 2A130000 		.4byte	.LLST0
 6985 1c5a 01       		.byte	0x1
 6986 1c5b 801C0000 		.4byte	0x1c80
 6987 1c5f 27       		.uleb128 0x27
 6988 1c60 F4050000 		.4byte	.LASF219
 6989 1c64 01       		.byte	0x1
 6990 1c65 6301     		.2byte	0x163
 6991 1c67 57100000 		.4byte	0x1057
 6992 1c6b 4A130000 		.4byte	.LLST1
 6993 1c6f 37       		.uleb128 0x37
 6994 1c70 48010000 		.4byte	.LVL5
 6995 1c74 021B0000 		.4byte	0x1b02
 6996 1c78 2B       		.uleb128 0x2b
 6997 1c79 01       		.byte	0x1
 6998 1c7a 50       		.byte	0x50
 6999 1c7b 02       		.byte	0x2
 7000 1c7c 74       		.byte	0x74
ARM GAS  C:\Users\EBANO_~1\AppData\Local\Temp\cc7eeVhF.s 			page 173


 7001 1c7d 00       		.sleb128 0
 7002 1c7e 00       		.byte	0
 7003 1c7f 00       		.byte	0
 7004 1c80 41       		.uleb128 0x41
 7005 1c81 021B0000 		.4byte	0x1b02
 7006 1c85 00000000 		.4byte	.LFB41
 7007 1c89 02000000 		.4byte	.LFE41
 7008 1c8d 02       		.byte	0x2
 7009 1c8e 7D       		.byte	0x7d
 7010 1c8f 00       		.sleb128 0
 7011 1c90 01       		.byte	0x1
 7012 1c91 9D1C0000 		.4byte	0x1c9d
 7013 1c95 42       		.uleb128 0x42
 7014 1c96 111B0000 		.4byte	0x1b11
 7015 1c9a 01       		.byte	0x1
 7016 1c9b 50       		.byte	0x50
 7017 1c9c 00       		.byte	0
 7018 1c9d 43       		.uleb128 0x43
 7019 1c9e 01       		.byte	0x1
 7020 1c9f 01       		.byte	0x1
 7021 1ca0 68040000 		.4byte	.LASF257
 7022 1ca4 68040000 		.4byte	.LASF257
 7023 1ca8 0E       		.byte	0xe
 7024 1ca9 8401     		.2byte	0x184
 7025 1cab 43       		.uleb128 0x43
 7026 1cac 01       		.byte	0x1
 7027 1cad 01       		.byte	0x1
 7028 1cae 7D020000 		.4byte	.LASF258
 7029 1cb2 7D020000 		.4byte	.LASF258
 7030 1cb6 0C       		.byte	0xc
 7031 1cb7 8602     		.2byte	0x286
 7032 1cb9 43       		.uleb128 0x43
 7033 1cba 01       		.byte	0x1
 7034 1cbb 01       		.byte	0x1
 7035 1cbc 3D0C0000 		.4byte	.LASF259
 7036 1cc0 3D0C0000 		.4byte	.LASF259
 7037 1cc4 0C       		.byte	0xc
 7038 1cc5 8502     		.2byte	0x285
 7039 1cc7 00       		.byte	0
 7040              		.section	.debug_abbrev,"",%progbits
 7041              	.Ldebug_abbrev0:
 7042 0000 01       		.uleb128 0x1
 7043 0001 11       		.uleb128 0x11
 7044 0002 01       		.byte	0x1
 7045 0003 25       		.uleb128 0x25
 7046 0004 0E       		.uleb128 0xe
 7047 0005 13       		.uleb128 0x13
 7048 0006 0B       		.uleb128 0xb
 7049 0007 03       		.uleb128 0x3
 7050 0008 0E       		.uleb128 0xe
 7051 0009 1B       		.uleb128 0x1b
 7052 000a 0E       		.uleb128 0xe
 7053 000b 55       		.uleb128 0x55
 7054 000c 06       		.uleb128 0x6
 7055 000d 11       		.uleb128 0x11
 7056 000e 01       		.uleb128 0x1
 7057 000f 52       		.uleb128 0x52
ARM GAS  C:\Users\EBANO_~1\AppData\Local\Temp\cc7eeVhF.s 			page 174


 7058 0010 01       		.uleb128 0x1
 7059 0011 10       		.uleb128 0x10
 7060 0012 06       		.uleb128 0x6
 7061 0013 00       		.byte	0
 7062 0014 00       		.byte	0
 7063 0015 02       		.uleb128 0x2
 7064 0016 24       		.uleb128 0x24
 7065 0017 00       		.byte	0
 7066 0018 0B       		.uleb128 0xb
 7067 0019 0B       		.uleb128 0xb
 7068 001a 3E       		.uleb128 0x3e
 7069 001b 0B       		.uleb128 0xb
 7070 001c 03       		.uleb128 0x3
 7071 001d 0E       		.uleb128 0xe
 7072 001e 00       		.byte	0
 7073 001f 00       		.byte	0
 7074 0020 03       		.uleb128 0x3
 7075 0021 16       		.uleb128 0x16
 7076 0022 00       		.byte	0
 7077 0023 03       		.uleb128 0x3
 7078 0024 0E       		.uleb128 0xe
 7079 0025 3A       		.uleb128 0x3a
 7080 0026 0B       		.uleb128 0xb
 7081 0027 3B       		.uleb128 0x3b
 7082 0028 0B       		.uleb128 0xb
 7083 0029 49       		.uleb128 0x49
 7084 002a 13       		.uleb128 0x13
 7085 002b 00       		.byte	0
 7086 002c 00       		.byte	0
 7087 002d 04       		.uleb128 0x4
 7088 002e 24       		.uleb128 0x24
 7089 002f 00       		.byte	0
 7090 0030 0B       		.uleb128 0xb
 7091 0031 0B       		.uleb128 0xb
 7092 0032 3E       		.uleb128 0x3e
 7093 0033 0B       		.uleb128 0xb
 7094 0034 03       		.uleb128 0x3
 7095 0035 08       		.uleb128 0x8
 7096 0036 00       		.byte	0
 7097 0037 00       		.byte	0
 7098 0038 05       		.uleb128 0x5
 7099 0039 26       		.uleb128 0x26
 7100 003a 00       		.byte	0
 7101 003b 49       		.uleb128 0x49
 7102 003c 13       		.uleb128 0x13
 7103 003d 00       		.byte	0
 7104 003e 00       		.byte	0
 7105 003f 06       		.uleb128 0x6
 7106 0040 35       		.uleb128 0x35
 7107 0041 00       		.byte	0
 7108 0042 49       		.uleb128 0x49
 7109 0043 13       		.uleb128 0x13
 7110 0044 00       		.byte	0
 7111 0045 00       		.byte	0
 7112 0046 07       		.uleb128 0x7
 7113 0047 34       		.uleb128 0x34
 7114 0048 00       		.byte	0
ARM GAS  C:\Users\EBANO_~1\AppData\Local\Temp\cc7eeVhF.s 			page 175


 7115 0049 03       		.uleb128 0x3
 7116 004a 0E       		.uleb128 0xe
 7117 004b 3A       		.uleb128 0x3a
 7118 004c 0B       		.uleb128 0xb
 7119 004d 3B       		.uleb128 0x3b
 7120 004e 0B       		.uleb128 0xb
 7121 004f 49       		.uleb128 0x49
 7122 0050 13       		.uleb128 0x13
 7123 0051 3F       		.uleb128 0x3f
 7124 0052 0C       		.uleb128 0xc
 7125 0053 3C       		.uleb128 0x3c
 7126 0054 0C       		.uleb128 0xc
 7127 0055 00       		.byte	0
 7128 0056 00       		.byte	0
 7129 0057 08       		.uleb128 0x8
 7130 0058 01       		.uleb128 0x1
 7131 0059 01       		.byte	0x1
 7132 005a 49       		.uleb128 0x49
 7133 005b 13       		.uleb128 0x13
 7134 005c 01       		.uleb128 0x1
 7135 005d 13       		.uleb128 0x13
 7136 005e 00       		.byte	0
 7137 005f 00       		.byte	0
 7138 0060 09       		.uleb128 0x9
 7139 0061 21       		.uleb128 0x21
 7140 0062 00       		.byte	0
 7141 0063 49       		.uleb128 0x49
 7142 0064 13       		.uleb128 0x13
 7143 0065 2F       		.uleb128 0x2f
 7144 0066 0B       		.uleb128 0xb
 7145 0067 00       		.byte	0
 7146 0068 00       		.byte	0
 7147 0069 0A       		.uleb128 0xa
 7148 006a 13       		.uleb128 0x13
 7149 006b 01       		.byte	0x1
 7150 006c 0B       		.uleb128 0xb
 7151 006d 0B       		.uleb128 0xb
 7152 006e 3A       		.uleb128 0x3a
 7153 006f 0B       		.uleb128 0xb
 7154 0070 3B       		.uleb128 0x3b
 7155 0071 0B       		.uleb128 0xb
 7156 0072 01       		.uleb128 0x1
 7157 0073 13       		.uleb128 0x13
 7158 0074 00       		.byte	0
 7159 0075 00       		.byte	0
 7160 0076 0B       		.uleb128 0xb
 7161 0077 0D       		.uleb128 0xd
 7162 0078 00       		.byte	0
 7163 0079 03       		.uleb128 0x3
 7164 007a 08       		.uleb128 0x8
 7165 007b 3A       		.uleb128 0x3a
 7166 007c 0B       		.uleb128 0xb
 7167 007d 3B       		.uleb128 0x3b
 7168 007e 0B       		.uleb128 0xb
 7169 007f 49       		.uleb128 0x49
 7170 0080 13       		.uleb128 0x13
 7171 0081 38       		.uleb128 0x38
ARM GAS  C:\Users\EBANO_~1\AppData\Local\Temp\cc7eeVhF.s 			page 176


 7172 0082 0A       		.uleb128 0xa
 7173 0083 00       		.byte	0
 7174 0084 00       		.byte	0
 7175 0085 0C       		.uleb128 0xc
 7176 0086 0D       		.uleb128 0xd
 7177 0087 00       		.byte	0
 7178 0088 03       		.uleb128 0x3
 7179 0089 0E       		.uleb128 0xe
 7180 008a 3A       		.uleb128 0x3a
 7181 008b 0B       		.uleb128 0xb
 7182 008c 3B       		.uleb128 0x3b
 7183 008d 0B       		.uleb128 0xb
 7184 008e 49       		.uleb128 0x49
 7185 008f 13       		.uleb128 0x13
 7186 0090 38       		.uleb128 0x38
 7187 0091 0A       		.uleb128 0xa
 7188 0092 00       		.byte	0
 7189 0093 00       		.byte	0
 7190 0094 0D       		.uleb128 0xd
 7191 0095 16       		.uleb128 0x16
 7192 0096 00       		.byte	0
 7193 0097 03       		.uleb128 0x3
 7194 0098 0E       		.uleb128 0xe
 7195 0099 3A       		.uleb128 0x3a
 7196 009a 0B       		.uleb128 0xb
 7197 009b 3B       		.uleb128 0x3b
 7198 009c 05       		.uleb128 0x5
 7199 009d 49       		.uleb128 0x49
 7200 009e 13       		.uleb128 0x13
 7201 009f 00       		.byte	0
 7202 00a0 00       		.byte	0
 7203 00a1 0E       		.uleb128 0xe
 7204 00a2 04       		.uleb128 0x4
 7205 00a3 01       		.byte	0x1
 7206 00a4 3E       		.uleb128 0x3e
 7207 00a5 0B       		.uleb128 0xb
 7208 00a6 0B       		.uleb128 0xb
 7209 00a7 0B       		.uleb128 0xb
 7210 00a8 49       		.uleb128 0x49
 7211 00a9 13       		.uleb128 0x13
 7212 00aa 3A       		.uleb128 0x3a
 7213 00ab 0B       		.uleb128 0xb
 7214 00ac 3B       		.uleb128 0x3b
 7215 00ad 0B       		.uleb128 0xb
 7216 00ae 01       		.uleb128 0x1
 7217 00af 13       		.uleb128 0x13
 7218 00b0 00       		.byte	0
 7219 00b1 00       		.byte	0
 7220 00b2 0F       		.uleb128 0xf
 7221 00b3 28       		.uleb128 0x28
 7222 00b4 00       		.byte	0
 7223 00b5 03       		.uleb128 0x3
 7224 00b6 0E       		.uleb128 0xe
 7225 00b7 1C       		.uleb128 0x1c
 7226 00b8 0B       		.uleb128 0xb
 7227 00b9 00       		.byte	0
 7228 00ba 00       		.byte	0
ARM GAS  C:\Users\EBANO_~1\AppData\Local\Temp\cc7eeVhF.s 			page 177


 7229 00bb 10       		.uleb128 0x10
 7230 00bc 28       		.uleb128 0x28
 7231 00bd 00       		.byte	0
 7232 00be 03       		.uleb128 0x3
 7233 00bf 08       		.uleb128 0x8
 7234 00c0 1C       		.uleb128 0x1c
 7235 00c1 0B       		.uleb128 0xb
 7236 00c2 00       		.byte	0
 7237 00c3 00       		.byte	0
 7238 00c4 11       		.uleb128 0x11
 7239 00c5 0F       		.uleb128 0xf
 7240 00c6 00       		.byte	0
 7241 00c7 0B       		.uleb128 0xb
 7242 00c8 0B       		.uleb128 0xb
 7243 00c9 00       		.byte	0
 7244 00ca 00       		.byte	0
 7245 00cb 12       		.uleb128 0x12
 7246 00cc 0F       		.uleb128 0xf
 7247 00cd 00       		.byte	0
 7248 00ce 0B       		.uleb128 0xb
 7249 00cf 0B       		.uleb128 0xb
 7250 00d0 49       		.uleb128 0x49
 7251 00d1 13       		.uleb128 0x13
 7252 00d2 00       		.byte	0
 7253 00d3 00       		.byte	0
 7254 00d4 13       		.uleb128 0x13
 7255 00d5 13       		.uleb128 0x13
 7256 00d6 00       		.byte	0
 7257 00d7 03       		.uleb128 0x3
 7258 00d8 0E       		.uleb128 0xe
 7259 00d9 3C       		.uleb128 0x3c
 7260 00da 0C       		.uleb128 0xc
 7261 00db 00       		.byte	0
 7262 00dc 00       		.byte	0
 7263 00dd 14       		.uleb128 0x14
 7264 00de 17       		.uleb128 0x17
 7265 00df 01       		.byte	0x1
 7266 00e0 0B       		.uleb128 0xb
 7267 00e1 0B       		.uleb128 0xb
 7268 00e2 3A       		.uleb128 0x3a
 7269 00e3 0B       		.uleb128 0xb
 7270 00e4 3B       		.uleb128 0x3b
 7271 00e5 0B       		.uleb128 0xb
 7272 00e6 01       		.uleb128 0x1
 7273 00e7 13       		.uleb128 0x13
 7274 00e8 00       		.byte	0
 7275 00e9 00       		.byte	0
 7276 00ea 15       		.uleb128 0x15
 7277 00eb 0D       		.uleb128 0xd
 7278 00ec 00       		.byte	0
 7279 00ed 03       		.uleb128 0x3
 7280 00ee 0E       		.uleb128 0xe
 7281 00ef 3A       		.uleb128 0x3a
 7282 00f0 0B       		.uleb128 0xb
 7283 00f1 3B       		.uleb128 0x3b
 7284 00f2 0B       		.uleb128 0xb
 7285 00f3 49       		.uleb128 0x49
ARM GAS  C:\Users\EBANO_~1\AppData\Local\Temp\cc7eeVhF.s 			page 178


 7286 00f4 13       		.uleb128 0x13
 7287 00f5 00       		.byte	0
 7288 00f6 00       		.byte	0
 7289 00f7 16       		.uleb128 0x16
 7290 00f8 13       		.uleb128 0x13
 7291 00f9 01       		.byte	0x1
 7292 00fa 03       		.uleb128 0x3
 7293 00fb 0E       		.uleb128 0xe
 7294 00fc 0B       		.uleb128 0xb
 7295 00fd 0B       		.uleb128 0xb
 7296 00fe 3A       		.uleb128 0x3a
 7297 00ff 0B       		.uleb128 0xb
 7298 0100 3B       		.uleb128 0x3b
 7299 0101 0B       		.uleb128 0xb
 7300 0102 01       		.uleb128 0x1
 7301 0103 13       		.uleb128 0x13
 7302 0104 00       		.byte	0
 7303 0105 00       		.byte	0
 7304 0106 17       		.uleb128 0x17
 7305 0107 13       		.uleb128 0x13
 7306 0108 01       		.byte	0x1
 7307 0109 03       		.uleb128 0x3
 7308 010a 0E       		.uleb128 0xe
 7309 010b 0B       		.uleb128 0xb
 7310 010c 05       		.uleb128 0x5
 7311 010d 3A       		.uleb128 0x3a
 7312 010e 0B       		.uleb128 0xb
 7313 010f 3B       		.uleb128 0x3b
 7314 0110 0B       		.uleb128 0xb
 7315 0111 01       		.uleb128 0x1
 7316 0112 13       		.uleb128 0x13
 7317 0113 00       		.byte	0
 7318 0114 00       		.byte	0
 7319 0115 18       		.uleb128 0x18
 7320 0116 15       		.uleb128 0x15
 7321 0117 00       		.byte	0
 7322 0118 27       		.uleb128 0x27
 7323 0119 0C       		.uleb128 0xc
 7324 011a 00       		.byte	0
 7325 011b 00       		.byte	0
 7326 011c 19       		.uleb128 0x19
 7327 011d 15       		.uleb128 0x15
 7328 011e 01       		.byte	0x1
 7329 011f 27       		.uleb128 0x27
 7330 0120 0C       		.uleb128 0xc
 7331 0121 49       		.uleb128 0x49
 7332 0122 13       		.uleb128 0x13
 7333 0123 01       		.uleb128 0x1
 7334 0124 13       		.uleb128 0x13
 7335 0125 00       		.byte	0
 7336 0126 00       		.byte	0
 7337 0127 1A       		.uleb128 0x1a
 7338 0128 05       		.uleb128 0x5
 7339 0129 00       		.byte	0
 7340 012a 49       		.uleb128 0x49
 7341 012b 13       		.uleb128 0x13
 7342 012c 00       		.byte	0
ARM GAS  C:\Users\EBANO_~1\AppData\Local\Temp\cc7eeVhF.s 			page 179


 7343 012d 00       		.byte	0
 7344 012e 1B       		.uleb128 0x1b
 7345 012f 13       		.uleb128 0x13
 7346 0130 01       		.byte	0x1
 7347 0131 03       		.uleb128 0x3
 7348 0132 0E       		.uleb128 0xe
 7349 0133 0B       		.uleb128 0xb
 7350 0134 05       		.uleb128 0x5
 7351 0135 3A       		.uleb128 0x3a
 7352 0136 0B       		.uleb128 0xb
 7353 0137 3B       		.uleb128 0x3b
 7354 0138 05       		.uleb128 0x5
 7355 0139 01       		.uleb128 0x1
 7356 013a 13       		.uleb128 0x13
 7357 013b 00       		.byte	0
 7358 013c 00       		.byte	0
 7359 013d 1C       		.uleb128 0x1c
 7360 013e 0D       		.uleb128 0xd
 7361 013f 00       		.byte	0
 7362 0140 03       		.uleb128 0x3
 7363 0141 0E       		.uleb128 0xe
 7364 0142 3A       		.uleb128 0x3a
 7365 0143 0B       		.uleb128 0xb
 7366 0144 3B       		.uleb128 0x3b
 7367 0145 05       		.uleb128 0x5
 7368 0146 49       		.uleb128 0x49
 7369 0147 13       		.uleb128 0x13
 7370 0148 38       		.uleb128 0x38
 7371 0149 0A       		.uleb128 0xa
 7372 014a 00       		.byte	0
 7373 014b 00       		.byte	0
 7374 014c 1D       		.uleb128 0x1d
 7375 014d 13       		.uleb128 0x13
 7376 014e 01       		.byte	0x1
 7377 014f 03       		.uleb128 0x3
 7378 0150 0E       		.uleb128 0xe
 7379 0151 0B       		.uleb128 0xb
 7380 0152 0B       		.uleb128 0xb
 7381 0153 3A       		.uleb128 0x3a
 7382 0154 0B       		.uleb128 0xb
 7383 0155 3B       		.uleb128 0x3b
 7384 0156 05       		.uleb128 0x5
 7385 0157 01       		.uleb128 0x1
 7386 0158 13       		.uleb128 0x13
 7387 0159 00       		.byte	0
 7388 015a 00       		.byte	0
 7389 015b 1E       		.uleb128 0x1e
 7390 015c 13       		.uleb128 0x13
 7391 015d 01       		.byte	0x1
 7392 015e 0B       		.uleb128 0xb
 7393 015f 0B       		.uleb128 0xb
 7394 0160 3A       		.uleb128 0x3a
 7395 0161 0B       		.uleb128 0xb
 7396 0162 3B       		.uleb128 0x3b
 7397 0163 05       		.uleb128 0x5
 7398 0164 01       		.uleb128 0x1
 7399 0165 13       		.uleb128 0x13
ARM GAS  C:\Users\EBANO_~1\AppData\Local\Temp\cc7eeVhF.s 			page 180


 7400 0166 00       		.byte	0
 7401 0167 00       		.byte	0
 7402 0168 1F       		.uleb128 0x1f
 7403 0169 17       		.uleb128 0x17
 7404 016a 01       		.byte	0x1
 7405 016b 0B       		.uleb128 0xb
 7406 016c 0B       		.uleb128 0xb
 7407 016d 3A       		.uleb128 0x3a
 7408 016e 0B       		.uleb128 0xb
 7409 016f 3B       		.uleb128 0x3b
 7410 0170 05       		.uleb128 0x5
 7411 0171 01       		.uleb128 0x1
 7412 0172 13       		.uleb128 0x13
 7413 0173 00       		.byte	0
 7414 0174 00       		.byte	0
 7415 0175 20       		.uleb128 0x20
 7416 0176 0D       		.uleb128 0xd
 7417 0177 00       		.byte	0
 7418 0178 03       		.uleb128 0x3
 7419 0179 0E       		.uleb128 0xe
 7420 017a 3A       		.uleb128 0x3a
 7421 017b 0B       		.uleb128 0xb
 7422 017c 3B       		.uleb128 0x3b
 7423 017d 05       		.uleb128 0x5
 7424 017e 49       		.uleb128 0x49
 7425 017f 13       		.uleb128 0x13
 7426 0180 00       		.byte	0
 7427 0181 00       		.byte	0
 7428 0182 21       		.uleb128 0x21
 7429 0183 15       		.uleb128 0x15
 7430 0184 01       		.byte	0x1
 7431 0185 27       		.uleb128 0x27
 7432 0186 0C       		.uleb128 0xc
 7433 0187 01       		.uleb128 0x1
 7434 0188 13       		.uleb128 0x13
 7435 0189 00       		.byte	0
 7436 018a 00       		.byte	0
 7437 018b 22       		.uleb128 0x22
 7438 018c 34       		.uleb128 0x34
 7439 018d 00       		.byte	0
 7440 018e 03       		.uleb128 0x3
 7441 018f 0E       		.uleb128 0xe
 7442 0190 3A       		.uleb128 0x3a
 7443 0191 0B       		.uleb128 0xb
 7444 0192 3B       		.uleb128 0x3b
 7445 0193 05       		.uleb128 0x5
 7446 0194 49       		.uleb128 0x49
 7447 0195 13       		.uleb128 0x13
 7448 0196 3F       		.uleb128 0x3f
 7449 0197 0C       		.uleb128 0xc
 7450 0198 3C       		.uleb128 0x3c
 7451 0199 0C       		.uleb128 0xc
 7452 019a 00       		.byte	0
 7453 019b 00       		.byte	0
 7454 019c 23       		.uleb128 0x23
 7455 019d 2E       		.uleb128 0x2e
 7456 019e 01       		.byte	0x1
ARM GAS  C:\Users\EBANO_~1\AppData\Local\Temp\cc7eeVhF.s 			page 181


 7457 019f 03       		.uleb128 0x3
 7458 01a0 0E       		.uleb128 0xe
 7459 01a1 3A       		.uleb128 0x3a
 7460 01a2 0B       		.uleb128 0xb
 7461 01a3 3B       		.uleb128 0x3b
 7462 01a4 05       		.uleb128 0x5
 7463 01a5 27       		.uleb128 0x27
 7464 01a6 0C       		.uleb128 0xc
 7465 01a7 20       		.uleb128 0x20
 7466 01a8 0B       		.uleb128 0xb
 7467 01a9 01       		.uleb128 0x1
 7468 01aa 13       		.uleb128 0x13
 7469 01ab 00       		.byte	0
 7470 01ac 00       		.byte	0
 7471 01ad 24       		.uleb128 0x24
 7472 01ae 05       		.uleb128 0x5
 7473 01af 00       		.byte	0
 7474 01b0 03       		.uleb128 0x3
 7475 01b1 0E       		.uleb128 0xe
 7476 01b2 3A       		.uleb128 0x3a
 7477 01b3 0B       		.uleb128 0xb
 7478 01b4 3B       		.uleb128 0x3b
 7479 01b5 05       		.uleb128 0x5
 7480 01b6 49       		.uleb128 0x49
 7481 01b7 13       		.uleb128 0x13
 7482 01b8 00       		.byte	0
 7483 01b9 00       		.byte	0
 7484 01ba 25       		.uleb128 0x25
 7485 01bb 34       		.uleb128 0x34
 7486 01bc 00       		.byte	0
 7487 01bd 03       		.uleb128 0x3
 7488 01be 0E       		.uleb128 0xe
 7489 01bf 3A       		.uleb128 0x3a
 7490 01c0 0B       		.uleb128 0xb
 7491 01c1 3B       		.uleb128 0x3b
 7492 01c2 05       		.uleb128 0x5
 7493 01c3 49       		.uleb128 0x49
 7494 01c4 13       		.uleb128 0x13
 7495 01c5 00       		.byte	0
 7496 01c6 00       		.byte	0
 7497 01c7 26       		.uleb128 0x26
 7498 01c8 2E       		.uleb128 0x2e
 7499 01c9 01       		.byte	0x1
 7500 01ca 03       		.uleb128 0x3
 7501 01cb 0E       		.uleb128 0xe
 7502 01cc 3A       		.uleb128 0x3a
 7503 01cd 0B       		.uleb128 0xb
 7504 01ce 3B       		.uleb128 0x3b
 7505 01cf 05       		.uleb128 0x5
 7506 01d0 27       		.uleb128 0x27
 7507 01d1 0C       		.uleb128 0xc
 7508 01d2 11       		.uleb128 0x11
 7509 01d3 01       		.uleb128 0x1
 7510 01d4 12       		.uleb128 0x12
 7511 01d5 01       		.uleb128 0x1
 7512 01d6 40       		.uleb128 0x40
 7513 01d7 06       		.uleb128 0x6
ARM GAS  C:\Users\EBANO_~1\AppData\Local\Temp\cc7eeVhF.s 			page 182


 7514 01d8 9742     		.uleb128 0x2117
 7515 01da 0C       		.uleb128 0xc
 7516 01db 01       		.uleb128 0x1
 7517 01dc 13       		.uleb128 0x13
 7518 01dd 00       		.byte	0
 7519 01de 00       		.byte	0
 7520 01df 27       		.uleb128 0x27
 7521 01e0 05       		.uleb128 0x5
 7522 01e1 00       		.byte	0
 7523 01e2 03       		.uleb128 0x3
 7524 01e3 0E       		.uleb128 0xe
 7525 01e4 3A       		.uleb128 0x3a
 7526 01e5 0B       		.uleb128 0xb
 7527 01e6 3B       		.uleb128 0x3b
 7528 01e7 05       		.uleb128 0x5
 7529 01e8 49       		.uleb128 0x49
 7530 01e9 13       		.uleb128 0x13
 7531 01ea 02       		.uleb128 0x2
 7532 01eb 06       		.uleb128 0x6
 7533 01ec 00       		.byte	0
 7534 01ed 00       		.byte	0
 7535 01ee 28       		.uleb128 0x28
 7536 01ef 34       		.uleb128 0x34
 7537 01f0 00       		.byte	0
 7538 01f1 03       		.uleb128 0x3
 7539 01f2 0E       		.uleb128 0xe
 7540 01f3 3A       		.uleb128 0x3a
 7541 01f4 0B       		.uleb128 0xb
 7542 01f5 3B       		.uleb128 0x3b
 7543 01f6 05       		.uleb128 0x5
 7544 01f7 49       		.uleb128 0x49
 7545 01f8 13       		.uleb128 0x13
 7546 01f9 02       		.uleb128 0x2
 7547 01fa 06       		.uleb128 0x6
 7548 01fb 00       		.byte	0
 7549 01fc 00       		.byte	0
 7550 01fd 29       		.uleb128 0x29
 7551 01fe 898201   		.uleb128 0x4109
 7552 0201 00       		.byte	0
 7553 0202 11       		.uleb128 0x11
 7554 0203 01       		.uleb128 0x1
 7555 0204 31       		.uleb128 0x31
 7556 0205 13       		.uleb128 0x13
 7557 0206 00       		.byte	0
 7558 0207 00       		.byte	0
 7559 0208 2A       		.uleb128 0x2a
 7560 0209 898201   		.uleb128 0x4109
 7561 020c 01       		.byte	0x1
 7562 020d 11       		.uleb128 0x11
 7563 020e 01       		.uleb128 0x1
 7564 020f 01       		.uleb128 0x1
 7565 0210 13       		.uleb128 0x13
 7566 0211 00       		.byte	0
 7567 0212 00       		.byte	0
 7568 0213 2B       		.uleb128 0x2b
 7569 0214 8A8201   		.uleb128 0x410a
 7570 0217 00       		.byte	0
ARM GAS  C:\Users\EBANO_~1\AppData\Local\Temp\cc7eeVhF.s 			page 183


 7571 0218 02       		.uleb128 0x2
 7572 0219 0A       		.uleb128 0xa
 7573 021a 9142     		.uleb128 0x2111
 7574 021c 0A       		.uleb128 0xa
 7575 021d 00       		.byte	0
 7576 021e 00       		.byte	0
 7577 021f 2C       		.uleb128 0x2c
 7578 0220 2E       		.uleb128 0x2e
 7579 0221 01       		.byte	0x1
 7580 0222 03       		.uleb128 0x3
 7581 0223 0E       		.uleb128 0xe
 7582 0224 3A       		.uleb128 0x3a
 7583 0225 0B       		.uleb128 0xb
 7584 0226 3B       		.uleb128 0x3b
 7585 0227 05       		.uleb128 0x5
 7586 0228 27       		.uleb128 0x27
 7587 0229 0C       		.uleb128 0xc
 7588 022a 49       		.uleb128 0x49
 7589 022b 13       		.uleb128 0x13
 7590 022c 20       		.uleb128 0x20
 7591 022d 0B       		.uleb128 0xb
 7592 022e 01       		.uleb128 0x1
 7593 022f 13       		.uleb128 0x13
 7594 0230 00       		.byte	0
 7595 0231 00       		.byte	0
 7596 0232 2D       		.uleb128 0x2d
 7597 0233 2E       		.uleb128 0x2e
 7598 0234 01       		.byte	0x1
 7599 0235 3F       		.uleb128 0x3f
 7600 0236 0C       		.uleb128 0xc
 7601 0237 03       		.uleb128 0x3
 7602 0238 0E       		.uleb128 0xe
 7603 0239 3A       		.uleb128 0x3a
 7604 023a 0B       		.uleb128 0xb
 7605 023b 3B       		.uleb128 0x3b
 7606 023c 05       		.uleb128 0x5
 7607 023d 27       		.uleb128 0x27
 7608 023e 0C       		.uleb128 0xc
 7609 023f 49       		.uleb128 0x49
 7610 0240 13       		.uleb128 0x13
 7611 0241 11       		.uleb128 0x11
 7612 0242 01       		.uleb128 0x1
 7613 0243 12       		.uleb128 0x12
 7614 0244 01       		.uleb128 0x1
 7615 0245 40       		.uleb128 0x40
 7616 0246 0A       		.uleb128 0xa
 7617 0247 9742     		.uleb128 0x2117
 7618 0249 0C       		.uleb128 0xc
 7619 024a 01       		.uleb128 0x1
 7620 024b 13       		.uleb128 0x13
 7621 024c 00       		.byte	0
 7622 024d 00       		.byte	0
 7623 024e 2E       		.uleb128 0x2e
 7624 024f 2E       		.uleb128 0x2e
 7625 0250 01       		.byte	0x1
 7626 0251 3F       		.uleb128 0x3f
 7627 0252 0C       		.uleb128 0xc
ARM GAS  C:\Users\EBANO_~1\AppData\Local\Temp\cc7eeVhF.s 			page 184


 7628 0253 03       		.uleb128 0x3
 7629 0254 0E       		.uleb128 0xe
 7630 0255 3A       		.uleb128 0x3a
 7631 0256 0B       		.uleb128 0xb
 7632 0257 3B       		.uleb128 0x3b
 7633 0258 05       		.uleb128 0x5
 7634 0259 27       		.uleb128 0x27
 7635 025a 0C       		.uleb128 0xc
 7636 025b 49       		.uleb128 0x49
 7637 025c 13       		.uleb128 0x13
 7638 025d 11       		.uleb128 0x11
 7639 025e 01       		.uleb128 0x1
 7640 025f 12       		.uleb128 0x12
 7641 0260 01       		.uleb128 0x1
 7642 0261 40       		.uleb128 0x40
 7643 0262 06       		.uleb128 0x6
 7644 0263 9742     		.uleb128 0x2117
 7645 0265 0C       		.uleb128 0xc
 7646 0266 01       		.uleb128 0x1
 7647 0267 13       		.uleb128 0x13
 7648 0268 00       		.byte	0
 7649 0269 00       		.byte	0
 7650 026a 2F       		.uleb128 0x2f
 7651 026b 2E       		.uleb128 0x2e
 7652 026c 01       		.byte	0x1
 7653 026d 3F       		.uleb128 0x3f
 7654 026e 0C       		.uleb128 0xc
 7655 026f 03       		.uleb128 0x3
 7656 0270 0E       		.uleb128 0xe
 7657 0271 3A       		.uleb128 0x3a
 7658 0272 0B       		.uleb128 0xb
 7659 0273 3B       		.uleb128 0x3b
 7660 0274 05       		.uleb128 0x5
 7661 0275 27       		.uleb128 0x27
 7662 0276 0C       		.uleb128 0xc
 7663 0277 49       		.uleb128 0x49
 7664 0278 13       		.uleb128 0x13
 7665 0279 11       		.uleb128 0x11
 7666 027a 01       		.uleb128 0x1
 7667 027b 12       		.uleb128 0x12
 7668 027c 01       		.uleb128 0x1
 7669 027d 40       		.uleb128 0x40
 7670 027e 06       		.uleb128 0x6
 7671 027f 9642     		.uleb128 0x2116
 7672 0281 0C       		.uleb128 0xc
 7673 0282 01       		.uleb128 0x1
 7674 0283 13       		.uleb128 0x13
 7675 0284 00       		.byte	0
 7676 0285 00       		.byte	0
 7677 0286 30       		.uleb128 0x30
 7678 0287 1D       		.uleb128 0x1d
 7679 0288 01       		.byte	0x1
 7680 0289 31       		.uleb128 0x31
 7681 028a 13       		.uleb128 0x13
 7682 028b 11       		.uleb128 0x11
 7683 028c 01       		.uleb128 0x1
 7684 028d 12       		.uleb128 0x12
ARM GAS  C:\Users\EBANO_~1\AppData\Local\Temp\cc7eeVhF.s 			page 185


 7685 028e 01       		.uleb128 0x1
 7686 028f 58       		.uleb128 0x58
 7687 0290 0B       		.uleb128 0xb
 7688 0291 59       		.uleb128 0x59
 7689 0292 05       		.uleb128 0x5
 7690 0293 00       		.byte	0
 7691 0294 00       		.byte	0
 7692 0295 31       		.uleb128 0x31
 7693 0296 05       		.uleb128 0x5
 7694 0297 00       		.byte	0
 7695 0298 31       		.uleb128 0x31
 7696 0299 13       		.uleb128 0x13
 7697 029a 02       		.uleb128 0x2
 7698 029b 06       		.uleb128 0x6
 7699 029c 00       		.byte	0
 7700 029d 00       		.byte	0
 7701 029e 32       		.uleb128 0x32
 7702 029f 0B       		.uleb128 0xb
 7703 02a0 01       		.byte	0x1
 7704 02a1 11       		.uleb128 0x11
 7705 02a2 01       		.uleb128 0x1
 7706 02a3 12       		.uleb128 0x12
 7707 02a4 01       		.uleb128 0x1
 7708 02a5 00       		.byte	0
 7709 02a6 00       		.byte	0
 7710 02a7 33       		.uleb128 0x33
 7711 02a8 34       		.uleb128 0x34
 7712 02a9 00       		.byte	0
 7713 02aa 31       		.uleb128 0x31
 7714 02ab 13       		.uleb128 0x13
 7715 02ac 02       		.uleb128 0x2
 7716 02ad 0A       		.uleb128 0xa
 7717 02ae 00       		.byte	0
 7718 02af 00       		.byte	0
 7719 02b0 34       		.uleb128 0x34
 7720 02b1 2E       		.uleb128 0x2e
 7721 02b2 01       		.byte	0x1
 7722 02b3 3F       		.uleb128 0x3f
 7723 02b4 0C       		.uleb128 0xc
 7724 02b5 03       		.uleb128 0x3
 7725 02b6 0E       		.uleb128 0xe
 7726 02b7 3A       		.uleb128 0x3a
 7727 02b8 0B       		.uleb128 0xb
 7728 02b9 3B       		.uleb128 0x3b
 7729 02ba 05       		.uleb128 0x5
 7730 02bb 27       		.uleb128 0x27
 7731 02bc 0C       		.uleb128 0xc
 7732 02bd 01       		.uleb128 0x1
 7733 02be 13       		.uleb128 0x13
 7734 02bf 00       		.byte	0
 7735 02c0 00       		.byte	0
 7736 02c1 35       		.uleb128 0x35
 7737 02c2 2E       		.uleb128 0x2e
 7738 02c3 01       		.byte	0x1
 7739 02c4 3F       		.uleb128 0x3f
 7740 02c5 0C       		.uleb128 0xc
 7741 02c6 03       		.uleb128 0x3
ARM GAS  C:\Users\EBANO_~1\AppData\Local\Temp\cc7eeVhF.s 			page 186


 7742 02c7 0E       		.uleb128 0xe
 7743 02c8 3A       		.uleb128 0x3a
 7744 02c9 0B       		.uleb128 0xb
 7745 02ca 3B       		.uleb128 0x3b
 7746 02cb 05       		.uleb128 0x5
 7747 02cc 27       		.uleb128 0x27
 7748 02cd 0C       		.uleb128 0xc
 7749 02ce 11       		.uleb128 0x11
 7750 02cf 01       		.uleb128 0x1
 7751 02d0 12       		.uleb128 0x12
 7752 02d1 01       		.uleb128 0x1
 7753 02d2 40       		.uleb128 0x40
 7754 02d3 06       		.uleb128 0x6
 7755 02d4 9742     		.uleb128 0x2117
 7756 02d6 0C       		.uleb128 0xc
 7757 02d7 01       		.uleb128 0x1
 7758 02d8 13       		.uleb128 0x13
 7759 02d9 00       		.byte	0
 7760 02da 00       		.byte	0
 7761 02db 36       		.uleb128 0x36
 7762 02dc 898201   		.uleb128 0x4109
 7763 02df 01       		.byte	0x1
 7764 02e0 11       		.uleb128 0x11
 7765 02e1 01       		.uleb128 0x1
 7766 02e2 31       		.uleb128 0x31
 7767 02e3 13       		.uleb128 0x13
 7768 02e4 01       		.uleb128 0x1
 7769 02e5 13       		.uleb128 0x13
 7770 02e6 00       		.byte	0
 7771 02e7 00       		.byte	0
 7772 02e8 37       		.uleb128 0x37
 7773 02e9 898201   		.uleb128 0x4109
 7774 02ec 01       		.byte	0x1
 7775 02ed 11       		.uleb128 0x11
 7776 02ee 01       		.uleb128 0x1
 7777 02ef 31       		.uleb128 0x31
 7778 02f0 13       		.uleb128 0x13
 7779 02f1 00       		.byte	0
 7780 02f2 00       		.byte	0
 7781 02f3 38       		.uleb128 0x38
 7782 02f4 1D       		.uleb128 0x1d
 7783 02f5 01       		.byte	0x1
 7784 02f6 31       		.uleb128 0x31
 7785 02f7 13       		.uleb128 0x13
 7786 02f8 52       		.uleb128 0x52
 7787 02f9 01       		.uleb128 0x1
 7788 02fa 55       		.uleb128 0x55
 7789 02fb 06       		.uleb128 0x6
 7790 02fc 58       		.uleb128 0x58
 7791 02fd 0B       		.uleb128 0xb
 7792 02fe 59       		.uleb128 0x59
 7793 02ff 05       		.uleb128 0x5
 7794 0300 01       		.uleb128 0x1
 7795 0301 13       		.uleb128 0x13
 7796 0302 00       		.byte	0
 7797 0303 00       		.byte	0
 7798 0304 39       		.uleb128 0x39
ARM GAS  C:\Users\EBANO_~1\AppData\Local\Temp\cc7eeVhF.s 			page 187


 7799 0305 0B       		.uleb128 0xb
 7800 0306 01       		.byte	0x1
 7801 0307 55       		.uleb128 0x55
 7802 0308 06       		.uleb128 0x6
 7803 0309 00       		.byte	0
 7804 030a 00       		.byte	0
 7805 030b 3A       		.uleb128 0x3a
 7806 030c 34       		.uleb128 0x34
 7807 030d 00       		.byte	0
 7808 030e 31       		.uleb128 0x31
 7809 030f 13       		.uleb128 0x13
 7810 0310 02       		.uleb128 0x2
 7811 0311 06       		.uleb128 0x6
 7812 0312 00       		.byte	0
 7813 0313 00       		.byte	0
 7814 0314 3B       		.uleb128 0x3b
 7815 0315 0B       		.uleb128 0xb
 7816 0316 01       		.byte	0x1
 7817 0317 31       		.uleb128 0x31
 7818 0318 13       		.uleb128 0x13
 7819 0319 11       		.uleb128 0x11
 7820 031a 01       		.uleb128 0x1
 7821 031b 12       		.uleb128 0x12
 7822 031c 01       		.uleb128 0x1
 7823 031d 01       		.uleb128 0x1
 7824 031e 13       		.uleb128 0x13
 7825 031f 00       		.byte	0
 7826 0320 00       		.byte	0
 7827 0321 3C       		.uleb128 0x3c
 7828 0322 34       		.uleb128 0x34
 7829 0323 00       		.byte	0
 7830 0324 31       		.uleb128 0x31
 7831 0325 13       		.uleb128 0x13
 7832 0326 00       		.byte	0
 7833 0327 00       		.byte	0
 7834 0328 3D       		.uleb128 0x3d
 7835 0329 1D       		.uleb128 0x1d
 7836 032a 01       		.byte	0x1
 7837 032b 31       		.uleb128 0x31
 7838 032c 13       		.uleb128 0x13
 7839 032d 11       		.uleb128 0x11
 7840 032e 01       		.uleb128 0x1
 7841 032f 12       		.uleb128 0x12
 7842 0330 01       		.uleb128 0x1
 7843 0331 58       		.uleb128 0x58
 7844 0332 0B       		.uleb128 0xb
 7845 0333 59       		.uleb128 0x59
 7846 0334 05       		.uleb128 0x5
 7847 0335 01       		.uleb128 0x1
 7848 0336 13       		.uleb128 0x13
 7849 0337 00       		.byte	0
 7850 0338 00       		.byte	0
 7851 0339 3E       		.uleb128 0x3e
 7852 033a 0B       		.uleb128 0xb
 7853 033b 01       		.byte	0x1
 7854 033c 31       		.uleb128 0x31
 7855 033d 13       		.uleb128 0x13
ARM GAS  C:\Users\EBANO_~1\AppData\Local\Temp\cc7eeVhF.s 			page 188


 7856 033e 55       		.uleb128 0x55
 7857 033f 06       		.uleb128 0x6
 7858 0340 00       		.byte	0
 7859 0341 00       		.byte	0
 7860 0342 3F       		.uleb128 0x3f
 7861 0343 1D       		.uleb128 0x1d
 7862 0344 01       		.byte	0x1
 7863 0345 31       		.uleb128 0x31
 7864 0346 13       		.uleb128 0x13
 7865 0347 52       		.uleb128 0x52
 7866 0348 01       		.uleb128 0x1
 7867 0349 55       		.uleb128 0x55
 7868 034a 06       		.uleb128 0x6
 7869 034b 58       		.uleb128 0x58
 7870 034c 0B       		.uleb128 0xb
 7871 034d 59       		.uleb128 0x59
 7872 034e 05       		.uleb128 0x5
 7873 034f 00       		.byte	0
 7874 0350 00       		.byte	0
 7875 0351 40       		.uleb128 0x40
 7876 0352 2E       		.uleb128 0x2e
 7877 0353 01       		.byte	0x1
 7878 0354 3F       		.uleb128 0x3f
 7879 0355 0C       		.uleb128 0xc
 7880 0356 03       		.uleb128 0x3
 7881 0357 0E       		.uleb128 0xe
 7882 0358 3A       		.uleb128 0x3a
 7883 0359 0B       		.uleb128 0xb
 7884 035a 3B       		.uleb128 0x3b
 7885 035b 05       		.uleb128 0x5
 7886 035c 27       		.uleb128 0x27
 7887 035d 0C       		.uleb128 0xc
 7888 035e 20       		.uleb128 0x20
 7889 035f 0B       		.uleb128 0xb
 7890 0360 01       		.uleb128 0x1
 7891 0361 13       		.uleb128 0x13
 7892 0362 00       		.byte	0
 7893 0363 00       		.byte	0
 7894 0364 41       		.uleb128 0x41
 7895 0365 2E       		.uleb128 0x2e
 7896 0366 01       		.byte	0x1
 7897 0367 31       		.uleb128 0x31
 7898 0368 13       		.uleb128 0x13
 7899 0369 11       		.uleb128 0x11
 7900 036a 01       		.uleb128 0x1
 7901 036b 12       		.uleb128 0x12
 7902 036c 01       		.uleb128 0x1
 7903 036d 40       		.uleb128 0x40
 7904 036e 0A       		.uleb128 0xa
 7905 036f 9742     		.uleb128 0x2117
 7906 0371 0C       		.uleb128 0xc
 7907 0372 01       		.uleb128 0x1
 7908 0373 13       		.uleb128 0x13
 7909 0374 00       		.byte	0
 7910 0375 00       		.byte	0
 7911 0376 42       		.uleb128 0x42
 7912 0377 05       		.uleb128 0x5
ARM GAS  C:\Users\EBANO_~1\AppData\Local\Temp\cc7eeVhF.s 			page 189


 7913 0378 00       		.byte	0
 7914 0379 31       		.uleb128 0x31
 7915 037a 13       		.uleb128 0x13
 7916 037b 02       		.uleb128 0x2
 7917 037c 0A       		.uleb128 0xa
 7918 037d 00       		.byte	0
 7919 037e 00       		.byte	0
 7920 037f 43       		.uleb128 0x43
 7921 0380 2E       		.uleb128 0x2e
 7922 0381 00       		.byte	0
 7923 0382 3F       		.uleb128 0x3f
 7924 0383 0C       		.uleb128 0xc
 7925 0384 3C       		.uleb128 0x3c
 7926 0385 0C       		.uleb128 0xc
 7927 0386 8740     		.uleb128 0x2007
 7928 0388 0E       		.uleb128 0xe
 7929 0389 03       		.uleb128 0x3
 7930 038a 0E       		.uleb128 0xe
 7931 038b 3A       		.uleb128 0x3a
 7932 038c 0B       		.uleb128 0xb
 7933 038d 3B       		.uleb128 0x3b
 7934 038e 05       		.uleb128 0x5
 7935 038f 00       		.byte	0
 7936 0390 00       		.byte	0
 7937 0391 00       		.byte	0
 7938              		.section	.debug_loc,"",%progbits
 7939              	.Ldebug_loc0:
 7940              	.LLST84:
 7941 0000 00000000 		.4byte	.LFB66
 7942 0004 06000000 		.4byte	.LCFI16
 7943 0008 0200     		.2byte	0x2
 7944 000a 7D       		.byte	0x7d
 7945 000b 00       		.sleb128 0
 7946 000c 06000000 		.4byte	.LCFI16
 7947 0010 1A000000 		.4byte	.LFE66
 7948 0014 0200     		.2byte	0x2
 7949 0016 7D       		.byte	0x7d
 7950 0017 08       		.sleb128 8
 7951 0018 00000000 		.4byte	0
 7952 001c 00000000 		.4byte	0
 7953              	.LLST85:
 7954 0020 00000000 		.4byte	.LVL221
 7955 0024 04000000 		.4byte	.LVL222
 7956 0028 0100     		.2byte	0x1
 7957 002a 50       		.byte	0x50
 7958 002b 04000000 		.4byte	.LVL222
 7959 002f 1A000000 		.4byte	.LFE66
 7960 0033 0400     		.2byte	0x4
 7961 0035 F3       		.byte	0xf3
 7962 0036 01       		.uleb128 0x1
 7963 0037 50       		.byte	0x50
 7964 0038 9F       		.byte	0x9f
 7965 0039 00000000 		.4byte	0
 7966 003d 00000000 		.4byte	0
 7967              	.LLST86:
 7968 0041 04000000 		.4byte	.LVL222
 7969 0045 17000000 		.4byte	.LVL223-1
ARM GAS  C:\Users\EBANO_~1\AppData\Local\Temp\cc7eeVhF.s 			page 190


 7970 0049 0100     		.2byte	0x1
 7971 004b 50       		.byte	0x50
 7972 004c 00000000 		.4byte	0
 7973 0050 00000000 		.4byte	0
 7974              	.LLST81:
 7975 0054 00000000 		.4byte	.LFB65
 7976 0058 02000000 		.4byte	.LCFI15
 7977 005c 0200     		.2byte	0x2
 7978 005e 7D       		.byte	0x7d
 7979 005f 00       		.sleb128 0
 7980 0060 02000000 		.4byte	.LCFI15
 7981 0064 0A000000 		.4byte	.LFE65
 7982 0068 0200     		.2byte	0x2
 7983 006a 7D       		.byte	0x7d
 7984 006b 08       		.sleb128 8
 7985 006c 00000000 		.4byte	0
 7986 0070 00000000 		.4byte	0
 7987              	.LLST82:
 7988 0074 00000000 		.4byte	.LVL218
 7989 0078 04000000 		.4byte	.LVL219
 7990 007c 0100     		.2byte	0x1
 7991 007e 50       		.byte	0x50
 7992 007f 04000000 		.4byte	.LVL219
 7993 0083 0A000000 		.4byte	.LFE65
 7994 0087 0400     		.2byte	0x4
 7995 0089 F3       		.byte	0xf3
 7996 008a 01       		.uleb128 0x1
 7997 008b 50       		.byte	0x50
 7998 008c 9F       		.byte	0x9f
 7999 008d 00000000 		.4byte	0
 8000 0091 00000000 		.4byte	0
 8001              	.LLST83:
 8002 0095 00000000 		.4byte	.LVL218
 8003 0099 04000000 		.4byte	.LVL219
 8004 009d 0200     		.2byte	0x2
 8005 009f 70       		.byte	0x70
 8006 00a0 28       		.sleb128 40
 8007 00a1 04000000 		.4byte	.LVL219
 8008 00a5 07000000 		.4byte	.LVL220-1
 8009 00a9 0500     		.2byte	0x5
 8010 00ab F3       		.byte	0xf3
 8011 00ac 01       		.uleb128 0x1
 8012 00ad 50       		.byte	0x50
 8013 00ae 23       		.byte	0x23
 8014 00af 28       		.uleb128 0x28
 8015 00b0 00000000 		.4byte	0
 8016 00b4 00000000 		.4byte	0
 8017              	.LLST78:
 8018 00b8 00000000 		.4byte	.LFB64
 8019 00bc 06000000 		.4byte	.LCFI14
 8020 00c0 0200     		.2byte	0x2
 8021 00c2 7D       		.byte	0x7d
 8022 00c3 00       		.sleb128 0
 8023 00c4 06000000 		.4byte	.LCFI14
 8024 00c8 70000000 		.4byte	.LFE64
 8025 00cc 0200     		.2byte	0x2
 8026 00ce 7D       		.byte	0x7d
ARM GAS  C:\Users\EBANO_~1\AppData\Local\Temp\cc7eeVhF.s 			page 191


 8027 00cf 08       		.sleb128 8
 8028 00d0 00000000 		.4byte	0
 8029 00d4 00000000 		.4byte	0
 8030              	.LLST79:
 8031 00d8 00000000 		.4byte	.LVL210
 8032 00dc 11000000 		.4byte	.LVL213-1
 8033 00e0 0100     		.2byte	0x1
 8034 00e2 50       		.byte	0x50
 8035 00e3 11000000 		.4byte	.LVL213-1
 8036 00e7 14000000 		.4byte	.LVL214
 8037 00eb 0400     		.2byte	0x4
 8038 00ed F3       		.byte	0xf3
 8039 00ee 01       		.uleb128 0x1
 8040 00ef 50       		.byte	0x50
 8041 00f0 9F       		.byte	0x9f
 8042 00f1 14000000 		.4byte	.LVL214
 8043 00f5 26000000 		.4byte	.LVL215
 8044 00f9 0100     		.2byte	0x1
 8045 00fb 50       		.byte	0x50
 8046 00fc 26000000 		.4byte	.LVL215
 8047 0100 70000000 		.4byte	.LFE64
 8048 0104 0400     		.2byte	0x4
 8049 0106 F3       		.byte	0xf3
 8050 0107 01       		.uleb128 0x1
 8051 0108 50       		.byte	0x50
 8052 0109 9F       		.byte	0x9f
 8053 010a 00000000 		.4byte	0
 8054 010e 00000000 		.4byte	0
 8055              	.LLST80:
 8056 0112 04000000 		.4byte	.LVL211
 8057 0116 0E000000 		.4byte	.LVL212
 8058 011a 0100     		.2byte	0x1
 8059 011c 53       		.byte	0x53
 8060 011d 0E000000 		.4byte	.LVL212
 8061 0121 11000000 		.4byte	.LVL213-1
 8062 0125 0200     		.2byte	0x2
 8063 0127 70       		.byte	0x70
 8064 0128 28       		.sleb128 40
 8065 0129 14000000 		.4byte	.LVL214
 8066 012d 57000000 		.4byte	.LVL216-1
 8067 0131 0100     		.2byte	0x1
 8068 0133 53       		.byte	0x53
 8069 0134 5A000000 		.4byte	.LVL217
 8070 0138 70000000 		.4byte	.LFE64
 8071 013c 0100     		.2byte	0x1
 8072 013e 53       		.byte	0x53
 8073 013f 00000000 		.4byte	0
 8074 0143 00000000 		.4byte	0
 8075              	.LLST100:
 8076 0147 00000000 		.4byte	.LVL259
 8077 014b 02000000 		.4byte	.LVL260
 8078 014f 0100     		.2byte	0x1
 8079 0151 50       		.byte	0x50
 8080 0152 02000000 		.4byte	.LVL260
 8081 0156 04000000 		.4byte	.LFE60
 8082 015a 0400     		.2byte	0x4
 8083 015c F3       		.byte	0xf3
ARM GAS  C:\Users\EBANO_~1\AppData\Local\Temp\cc7eeVhF.s 			page 192


 8084 015d 01       		.uleb128 0x1
 8085 015e 50       		.byte	0x50
 8086 015f 9F       		.byte	0x9f
 8087 0160 00000000 		.4byte	0
 8088 0164 00000000 		.4byte	0
 8089              	.LLST99:
 8090 0168 00000000 		.4byte	.LVL257
 8091 016c 02000000 		.4byte	.LVL258
 8092 0170 0100     		.2byte	0x1
 8093 0172 50       		.byte	0x50
 8094 0173 02000000 		.4byte	.LVL258
 8095 0177 04000000 		.4byte	.LFE59
 8096 017b 0400     		.2byte	0x4
 8097 017d F3       		.byte	0xf3
 8098 017e 01       		.uleb128 0x1
 8099 017f 50       		.byte	0x50
 8100 0180 9F       		.byte	0x9f
 8101 0181 00000000 		.4byte	0
 8102 0185 00000000 		.4byte	0
 8103              	.LLST93:
 8104 0189 00000000 		.4byte	.LFB58
 8105 018d 04000000 		.4byte	.LCFI20
 8106 0191 0200     		.2byte	0x2
 8107 0193 7D       		.byte	0x7d
 8108 0194 00       		.sleb128 0
 8109 0195 04000000 		.4byte	.LCFI20
 8110 0199 98000000 		.4byte	.LFE58
 8111 019d 0200     		.2byte	0x2
 8112 019f 7D       		.byte	0x7d
 8113 01a0 10       		.sleb128 16
 8114 01a1 00000000 		.4byte	0
 8115 01a5 00000000 		.4byte	0
 8116              	.LLST94:
 8117 01a9 00000000 		.4byte	.LVL245
 8118 01ad 08000000 		.4byte	.LVL246
 8119 01b1 0100     		.2byte	0x1
 8120 01b3 50       		.byte	0x50
 8121 01b4 08000000 		.4byte	.LVL246
 8122 01b8 98000000 		.4byte	.LFE58
 8123 01bc 0100     		.2byte	0x1
 8124 01be 52       		.byte	0x52
 8125 01bf 00000000 		.4byte	0
 8126 01c3 00000000 		.4byte	0
 8127              	.LLST95:
 8128 01c7 00000000 		.4byte	.LVL245
 8129 01cb 5E000000 		.4byte	.LVL250
 8130 01cf 0100     		.2byte	0x1
 8131 01d1 51       		.byte	0x51
 8132 01d2 5E000000 		.4byte	.LVL250
 8133 01d6 70000000 		.4byte	.LVL252
 8134 01da 0400     		.2byte	0x4
 8135 01dc F3       		.byte	0xf3
 8136 01dd 01       		.uleb128 0x1
 8137 01de 51       		.byte	0x51
 8138 01df 9F       		.byte	0x9f
 8139 01e0 70000000 		.4byte	.LVL252
 8140 01e4 72000000 		.4byte	.LVL253
ARM GAS  C:\Users\EBANO_~1\AppData\Local\Temp\cc7eeVhF.s 			page 193


 8141 01e8 0100     		.2byte	0x1
 8142 01ea 51       		.byte	0x51
 8143 01eb 72000000 		.4byte	.LVL253
 8144 01ef 82000000 		.4byte	.LVL256
 8145 01f3 0400     		.2byte	0x4
 8146 01f5 F3       		.byte	0xf3
 8147 01f6 01       		.uleb128 0x1
 8148 01f7 51       		.byte	0x51
 8149 01f8 9F       		.byte	0x9f
 8150 01f9 82000000 		.4byte	.LVL256
 8151 01fd 98000000 		.4byte	.LFE58
 8152 0201 0100     		.2byte	0x1
 8153 0203 51       		.byte	0x51
 8154 0204 00000000 		.4byte	0
 8155 0208 00000000 		.4byte	0
 8156              	.LLST96:
 8157 020c 00000000 		.4byte	.LVL245
 8158 0210 7A000000 		.4byte	.LVL254
 8159 0214 0200     		.2byte	0x2
 8160 0216 30       		.byte	0x30
 8161 0217 9F       		.byte	0x9f
 8162 0218 7A000000 		.4byte	.LVL254
 8163 021c 80000000 		.4byte	.LVL255
 8164 0220 0100     		.2byte	0x1
 8165 0222 50       		.byte	0x50
 8166 0223 82000000 		.4byte	.LVL256
 8167 0227 98000000 		.4byte	.LFE58
 8168 022b 0200     		.2byte	0x2
 8169 022d 30       		.byte	0x30
 8170 022e 9F       		.byte	0x9f
 8171 022f 00000000 		.4byte	0
 8172 0233 00000000 		.4byte	0
 8173              	.LLST97:
 8174 0237 4E000000 		.4byte	.LVL247
 8175 023b 52000000 		.4byte	.LVL248
 8176 023f 0100     		.2byte	0x1
 8177 0241 55       		.byte	0x55
 8178 0242 00000000 		.4byte	0
 8179 0246 00000000 		.4byte	0
 8180              	.LLST98:
 8181 024a 5C000000 		.4byte	.LVL249
 8182 024e 6E000000 		.4byte	.LVL251
 8183 0252 0100     		.2byte	0x1
 8184 0254 50       		.byte	0x50
 8185 0255 00000000 		.4byte	0
 8186 0259 00000000 		.4byte	0
 8187              	.LLST89:
 8188 025d 00000000 		.4byte	.LFB57
 8189 0261 04000000 		.4byte	.LCFI18
 8190 0265 0200     		.2byte	0x2
 8191 0267 7D       		.byte	0x7d
 8192 0268 00       		.sleb128 0
 8193 0269 04000000 		.4byte	.LCFI18
 8194 026d 08000000 		.4byte	.LCFI19
 8195 0271 0200     		.2byte	0x2
 8196 0273 7D       		.byte	0x7d
 8197 0274 10       		.sleb128 16
ARM GAS  C:\Users\EBANO_~1\AppData\Local\Temp\cc7eeVhF.s 			page 194


 8198 0275 08000000 		.4byte	.LCFI19
 8199 0279 D4000000 		.4byte	.LFE57
 8200 027d 0200     		.2byte	0x2
 8201 027f 7D       		.byte	0x7d
 8202 0280 18       		.sleb128 24
 8203 0281 00000000 		.4byte	0
 8204 0285 00000000 		.4byte	0
 8205              	.LLST90:
 8206 0289 00000000 		.4byte	.LVL233
 8207 028d 16000000 		.4byte	.LVL234
 8208 0291 0100     		.2byte	0x1
 8209 0293 50       		.byte	0x50
 8210 0294 16000000 		.4byte	.LVL234
 8211 0298 92000000 		.4byte	.LVL241
 8212 029c 0100     		.2byte	0x1
 8213 029e 54       		.byte	0x54
 8214 029f 92000000 		.4byte	.LVL241
 8215 02a3 94000000 		.4byte	.LVL242
 8216 02a7 0400     		.2byte	0x4
 8217 02a9 F3       		.byte	0xf3
 8218 02aa 01       		.uleb128 0x1
 8219 02ab 50       		.byte	0x50
 8220 02ac 9F       		.byte	0x9f
 8221 02ad 94000000 		.4byte	.LVL242
 8222 02b1 96000000 		.4byte	.LVL243
 8223 02b5 0100     		.2byte	0x1
 8224 02b7 50       		.byte	0x50
 8225 02b8 96000000 		.4byte	.LVL243
 8226 02bc D4000000 		.4byte	.LFE57
 8227 02c0 0100     		.2byte	0x1
 8228 02c2 54       		.byte	0x54
 8229 02c3 00000000 		.4byte	0
 8230 02c7 00000000 		.4byte	0
 8231              	.LLST91:
 8232 02cb 00000000 		.4byte	.LVL233
 8233 02cf 22000000 		.4byte	.LVL235
 8234 02d3 0100     		.2byte	0x1
 8235 02d5 51       		.byte	0x51
 8236 02d6 22000000 		.4byte	.LVL235
 8237 02da 82000000 		.4byte	.LVL239
 8238 02de 0400     		.2byte	0x4
 8239 02e0 F3       		.byte	0xf3
 8240 02e1 01       		.uleb128 0x1
 8241 02e2 51       		.byte	0x51
 8242 02e3 9F       		.byte	0x9f
 8243 02e4 82000000 		.4byte	.LVL239
 8244 02e8 84000000 		.4byte	.LVL240
 8245 02ec 0100     		.2byte	0x1
 8246 02ee 51       		.byte	0x51
 8247 02ef 84000000 		.4byte	.LVL240
 8248 02f3 94000000 		.4byte	.LVL242
 8249 02f7 0400     		.2byte	0x4
 8250 02f9 F3       		.byte	0xf3
 8251 02fa 01       		.uleb128 0x1
 8252 02fb 51       		.byte	0x51
 8253 02fc 9F       		.byte	0x9f
 8254 02fd 94000000 		.4byte	.LVL242
ARM GAS  C:\Users\EBANO_~1\AppData\Local\Temp\cc7eeVhF.s 			page 195


 8255 0301 98000000 		.4byte	.LVL244
 8256 0305 0100     		.2byte	0x1
 8257 0307 51       		.byte	0x51
 8258 0308 98000000 		.4byte	.LVL244
 8259 030c D4000000 		.4byte	.LFE57
 8260 0310 0400     		.2byte	0x4
 8261 0312 F3       		.byte	0xf3
 8262 0313 01       		.uleb128 0x1
 8263 0314 51       		.byte	0x51
 8264 0315 9F       		.byte	0x9f
 8265 0316 00000000 		.4byte	0
 8266 031a 00000000 		.4byte	0
 8267              	.LLST92:
 8268 031e 44000000 		.4byte	.LVL236
 8269 0322 68000000 		.4byte	.LVL238
 8270 0326 0200     		.2byte	0x2
 8271 0328 3A       		.byte	0x3a
 8272 0329 9F       		.byte	0x9f
 8273 032a 00000000 		.4byte	0
 8274 032e 00000000 		.4byte	0
 8275              	.LLST87:
 8276 0332 00000000 		.4byte	.LFB52
 8277 0336 06000000 		.4byte	.LCFI17
 8278 033a 0200     		.2byte	0x2
 8279 033c 7D       		.byte	0x7d
 8280 033d 00       		.sleb128 0
 8281 033e 06000000 		.4byte	.LCFI17
 8282 0342 EC000000 		.4byte	.LFE52
 8283 0346 0200     		.2byte	0x2
 8284 0348 7D       		.byte	0x7d
 8285 0349 10       		.sleb128 16
 8286 034a 00000000 		.4byte	0
 8287 034e 00000000 		.4byte	0
 8288              	.LLST88:
 8289 0352 00000000 		.4byte	.LVL224
 8290 0356 58000000 		.4byte	.LVL225
 8291 035a 0100     		.2byte	0x1
 8292 035c 50       		.byte	0x50
 8293 035d 58000000 		.4byte	.LVL225
 8294 0361 A8000000 		.4byte	.LVL228
 8295 0365 0100     		.2byte	0x1
 8296 0367 54       		.byte	0x54
 8297 0368 A8000000 		.4byte	.LVL228
 8298 036c AA000000 		.4byte	.LVL229
 8299 0370 0400     		.2byte	0x4
 8300 0372 F3       		.byte	0xf3
 8301 0373 01       		.uleb128 0x1
 8302 0374 50       		.byte	0x50
 8303 0375 9F       		.byte	0x9f
 8304 0376 AA000000 		.4byte	.LVL229
 8305 037a BA000000 		.4byte	.LVL230
 8306 037e 0100     		.2byte	0x1
 8307 0380 50       		.byte	0x50
 8308 0381 BA000000 		.4byte	.LVL230
 8309 0385 D4000000 		.4byte	.LVL232
 8310 0389 0100     		.2byte	0x1
 8311 038b 54       		.byte	0x54
ARM GAS  C:\Users\EBANO_~1\AppData\Local\Temp\cc7eeVhF.s 			page 196


 8312 038c D4000000 		.4byte	.LVL232
 8313 0390 EC000000 		.4byte	.LFE52
 8314 0394 0100     		.2byte	0x1
 8315 0396 50       		.byte	0x50
 8316 0397 00000000 		.4byte	0
 8317 039b 00000000 		.4byte	0
 8318              	.LLST77:
 8319 039f 00000000 		.4byte	.LVL208
 8320 03a3 04000000 		.4byte	.LVL209
 8321 03a7 0100     		.2byte	0x1
 8322 03a9 50       		.byte	0x50
 8323 03aa 04000000 		.4byte	.LVL209
 8324 03ae 06000000 		.4byte	.LFE51
 8325 03b2 0400     		.2byte	0x4
 8326 03b4 F3       		.byte	0xf3
 8327 03b5 01       		.uleb128 0x1
 8328 03b6 50       		.byte	0x50
 8329 03b7 9F       		.byte	0x9f
 8330 03b8 00000000 		.4byte	0
 8331 03bc 00000000 		.4byte	0
 8332              	.LLST65:
 8333 03c0 00000000 		.4byte	.LFB50
 8334 03c4 02000000 		.4byte	.LCFI13
 8335 03c8 0200     		.2byte	0x2
 8336 03ca 7D       		.byte	0x7d
 8337 03cb 00       		.sleb128 0
 8338 03cc 02000000 		.4byte	.LCFI13
 8339 03d0 68010000 		.4byte	.LFE50
 8340 03d4 0200     		.2byte	0x2
 8341 03d6 7D       		.byte	0x7d
 8342 03d7 18       		.sleb128 24
 8343 03d8 00000000 		.4byte	0
 8344 03dc 00000000 		.4byte	0
 8345              	.LLST66:
 8346 03e0 00000000 		.4byte	.LVL170
 8347 03e4 23000000 		.4byte	.LVL172-1
 8348 03e8 0100     		.2byte	0x1
 8349 03ea 50       		.byte	0x50
 8350 03eb 23000000 		.4byte	.LVL172-1
 8351 03ef 78000000 		.4byte	.LVL183
 8352 03f3 0100     		.2byte	0x1
 8353 03f5 54       		.byte	0x54
 8354 03f6 78000000 		.4byte	.LVL183
 8355 03fa 7A000000 		.4byte	.LVL184
 8356 03fe 0100     		.2byte	0x1
 8357 0400 50       		.byte	0x50
 8358 0401 7A000000 		.4byte	.LVL184
 8359 0405 7C000000 		.4byte	.LVL185
 8360 0409 0100     		.2byte	0x1
 8361 040b 54       		.byte	0x54
 8362 040c 7C000000 		.4byte	.LVL185
 8363 0410 7E000000 		.4byte	.LVL186
 8364 0414 0400     		.2byte	0x4
 8365 0416 F3       		.byte	0xf3
 8366 0417 01       		.uleb128 0x1
 8367 0418 50       		.byte	0x50
 8368 0419 9F       		.byte	0x9f
ARM GAS  C:\Users\EBANO_~1\AppData\Local\Temp\cc7eeVhF.s 			page 197


 8369 041a 7E000000 		.4byte	.LVL186
 8370 041e 8E000000 		.4byte	.LVL187
 8371 0422 0100     		.2byte	0x1
 8372 0424 50       		.byte	0x50
 8373 0425 8E000000 		.4byte	.LVL187
 8374 0429 68010000 		.4byte	.LFE50
 8375 042d 0100     		.2byte	0x1
 8376 042f 54       		.byte	0x54
 8377 0430 00000000 		.4byte	0
 8378 0434 00000000 		.4byte	0
 8379              	.LLST67:
 8380 0438 00000000 		.4byte	.LVL170
 8381 043c 4C000000 		.4byte	.LVL178
 8382 0440 0200     		.2byte	0x2
 8383 0442 30       		.byte	0x30
 8384 0443 9F       		.byte	0x9f
 8385 0444 4C000000 		.4byte	.LVL178
 8386 0448 52000000 		.4byte	.LVL179
 8387 044c 0100     		.2byte	0x1
 8388 044e 50       		.byte	0x50
 8389 044f 52000000 		.4byte	.LVL179
 8390 0453 78000000 		.4byte	.LVL183
 8391 0457 0100     		.2byte	0x1
 8392 0459 55       		.byte	0x55
 8393 045a 78000000 		.4byte	.LVL183
 8394 045e 7A000000 		.4byte	.LVL184
 8395 0462 0200     		.2byte	0x2
 8396 0464 30       		.byte	0x30
 8397 0465 9F       		.byte	0x9f
 8398 0466 7E000000 		.4byte	.LVL186
 8399 046a 8E000000 		.4byte	.LVL187
 8400 046e 0200     		.2byte	0x2
 8401 0470 30       		.byte	0x30
 8402 0471 9F       		.byte	0x9f
 8403 0472 8E000000 		.4byte	.LVL187
 8404 0476 94000000 		.4byte	.LVL188
 8405 047a 0100     		.2byte	0x1
 8406 047c 50       		.byte	0x50
 8407 047d 94000000 		.4byte	.LVL188
 8408 0481 C8000000 		.4byte	.LVL190
 8409 0485 0100     		.2byte	0x1
 8410 0487 55       		.byte	0x55
 8411 0488 C8000000 		.4byte	.LVL190
 8412 048c DA000000 		.4byte	.LVL191
 8413 0490 0200     		.2byte	0x2
 8414 0492 30       		.byte	0x30
 8415 0493 9F       		.byte	0x9f
 8416 0494 DC000000 		.4byte	.LVL192
 8417 0498 F0000000 		.4byte	.LVL193
 8418 049c 0100     		.2byte	0x1
 8419 049e 55       		.byte	0x55
 8420 049f FA000000 		.4byte	.LVL194
 8421 04a3 FC000000 		.4byte	.LVL195
 8422 04a7 0200     		.2byte	0x2
 8423 04a9 31       		.byte	0x31
 8424 04aa 9F       		.byte	0x9f
 8425 04ab FC000000 		.4byte	.LVL195
ARM GAS  C:\Users\EBANO_~1\AppData\Local\Temp\cc7eeVhF.s 			page 198


 8426 04af 58010000 		.4byte	.LVL206
 8427 04b3 0100     		.2byte	0x1
 8428 04b5 55       		.byte	0x55
 8429 04b6 62010000 		.4byte	.LVL207
 8430 04ba 68010000 		.4byte	.LFE50
 8431 04be 0200     		.2byte	0x2
 8432 04c0 31       		.byte	0x31
 8433 04c1 9F       		.byte	0x9f
 8434 04c2 00000000 		.4byte	0
 8435 04c6 00000000 		.4byte	0
 8436              	.LLST68:
 8437 04ca 10000000 		.4byte	.LVL171
 8438 04ce 23000000 		.4byte	.LVL172-1
 8439 04d2 0100     		.2byte	0x1
 8440 04d4 50       		.byte	0x50
 8441 04d5 23000000 		.4byte	.LVL172-1
 8442 04d9 70000000 		.4byte	.LVL182
 8443 04dd 0100     		.2byte	0x1
 8444 04df 54       		.byte	0x54
 8445 04e0 7E000000 		.4byte	.LVL186
 8446 04e4 8E000000 		.4byte	.LVL187
 8447 04e8 0100     		.2byte	0x1
 8448 04ea 50       		.byte	0x50
 8449 04eb 8E000000 		.4byte	.LVL187
 8450 04ef DA000000 		.4byte	.LVL191
 8451 04f3 0100     		.2byte	0x1
 8452 04f5 54       		.byte	0x54
 8453 04f6 DC000000 		.4byte	.LVL192
 8454 04fa 68010000 		.4byte	.LFE50
 8455 04fe 0100     		.2byte	0x1
 8456 0500 54       		.byte	0x54
 8457 0501 00000000 		.4byte	0
 8458 0505 00000000 		.4byte	0
 8459              	.LLST69:
 8460 0509 10000000 		.4byte	.LVL171
 8461 050d 28000000 		.4byte	.LVL173
 8462 0511 0200     		.2byte	0x2
 8463 0513 30       		.byte	0x30
 8464 0514 9F       		.byte	0x9f
 8465 0515 28000000 		.4byte	.LVL173
 8466 0519 2A000000 		.4byte	.LVL174
 8467 051d 0100     		.2byte	0x1
 8468 051f 50       		.byte	0x50
 8469 0520 2A000000 		.4byte	.LVL174
 8470 0524 3C000000 		.4byte	.LVL176
 8471 0528 0100     		.2byte	0x1
 8472 052a 56       		.byte	0x56
 8473 052b 7E000000 		.4byte	.LVL186
 8474 052f 8E000000 		.4byte	.LVL187
 8475 0533 0200     		.2byte	0x2
 8476 0535 30       		.byte	0x30
 8477 0536 9F       		.byte	0x9f
 8478 0537 C8000000 		.4byte	.LVL190
 8479 053b DA000000 		.4byte	.LVL191
 8480 053f 0100     		.2byte	0x1
 8481 0541 56       		.byte	0x56
 8482 0542 00000000 		.4byte	0
ARM GAS  C:\Users\EBANO_~1\AppData\Local\Temp\cc7eeVhF.s 			page 199


 8483 0546 00000000 		.4byte	0
 8484              	.LLST70:
 8485 054a C8000000 		.4byte	.LVL190
 8486 054e DA000000 		.4byte	.LVL191
 8487 0552 0100     		.2byte	0x1
 8488 0554 54       		.byte	0x54
 8489 0555 00000000 		.4byte	0
 8490 0559 00000000 		.4byte	0
 8491              	.LLST71:
 8492 055d 5A000000 		.4byte	.LVL180
 8493 0561 70000000 		.4byte	.LVL182
 8494 0565 0100     		.2byte	0x1
 8495 0567 54       		.byte	0x54
 8496 0568 DC000000 		.4byte	.LVL192
 8497 056c FC000000 		.4byte	.LVL195
 8498 0570 0100     		.2byte	0x1
 8499 0572 54       		.byte	0x54
 8500 0573 2E010000 		.4byte	.LVL201
 8501 0577 68010000 		.4byte	.LFE50
 8502 057b 0100     		.2byte	0x1
 8503 057d 54       		.byte	0x54
 8504 057e 00000000 		.4byte	0
 8505 0582 00000000 		.4byte	0
 8506              	.LLST72:
 8507 0586 5A000000 		.4byte	.LVL180
 8508 058a 62000000 		.4byte	.LVL181
 8509 058e 0200     		.2byte	0x2
 8510 0590 30       		.byte	0x30
 8511 0591 9F       		.byte	0x9f
 8512 0592 DC000000 		.4byte	.LVL192
 8513 0596 FC000000 		.4byte	.LVL195
 8514 059a 0200     		.2byte	0x2
 8515 059c 30       		.byte	0x30
 8516 059d 9F       		.byte	0x9f
 8517 059e 2E010000 		.4byte	.LVL201
 8518 05a2 3E010000 		.4byte	.LVL203
 8519 05a6 0200     		.2byte	0x2
 8520 05a8 30       		.byte	0x30
 8521 05a9 9F       		.byte	0x9f
 8522 05aa 3E010000 		.4byte	.LVL203
 8523 05ae 68010000 		.4byte	.LFE50
 8524 05b2 0100     		.2byte	0x1
 8525 05b4 57       		.byte	0x57
 8526 05b5 00000000 		.4byte	0
 8527 05b9 00000000 		.4byte	0
 8528              	.LLST73:
 8529 05bd 52010000 		.4byte	.LVL205
 8530 05c1 62010000 		.4byte	.LVL207
 8531 05c5 0100     		.2byte	0x1
 8532 05c7 54       		.byte	0x54
 8533 05c8 00000000 		.4byte	0
 8534 05cc 00000000 		.4byte	0
 8535              	.LLST74:
 8536 05d0 A2000000 		.4byte	.LVL189
 8537 05d4 C8000000 		.4byte	.LVL190
 8538 05d8 0100     		.2byte	0x1
 8539 05da 54       		.byte	0x54
ARM GAS  C:\Users\EBANO_~1\AppData\Local\Temp\cc7eeVhF.s 			page 200


 8540 05db FC000000 		.4byte	.LVL195
 8541 05df 2E010000 		.4byte	.LVL201
 8542 05e3 0100     		.2byte	0x1
 8543 05e5 54       		.byte	0x54
 8544 05e6 00000000 		.4byte	0
 8545 05ea 00000000 		.4byte	0
 8546              	.LLST75:
 8547 05ee A2000000 		.4byte	.LVL189
 8548 05f2 C8000000 		.4byte	.LVL190
 8549 05f6 0200     		.2byte	0x2
 8550 05f8 30       		.byte	0x30
 8551 05f9 9F       		.byte	0x9f
 8552 05fa FC000000 		.4byte	.LVL195
 8553 05fe 0C010000 		.4byte	.LVL197
 8554 0602 0200     		.2byte	0x2
 8555 0604 30       		.byte	0x30
 8556 0605 9F       		.byte	0x9f
 8557 0606 0C010000 		.4byte	.LVL197
 8558 060a 2E010000 		.4byte	.LVL201
 8559 060e 0100     		.2byte	0x1
 8560 0610 57       		.byte	0x57
 8561 0611 00000000 		.4byte	0
 8562 0615 00000000 		.4byte	0
 8563              	.LLST76:
 8564 0619 1E010000 		.4byte	.LVL199
 8565 061d 2C010000 		.4byte	.LVL200
 8566 0621 0100     		.2byte	0x1
 8567 0623 54       		.byte	0x54
 8568 0624 00000000 		.4byte	0
 8569 0628 00000000 		.4byte	0
 8570              	.LLST55:
 8571 062c 00000000 		.4byte	.LFB49
 8572 0630 02000000 		.4byte	.LCFI10
 8573 0634 0200     		.2byte	0x2
 8574 0636 7D       		.byte	0x7d
 8575 0637 00       		.sleb128 0
 8576 0638 02000000 		.4byte	.LCFI10
 8577 063c 06000000 		.4byte	.LCFI11
 8578 0640 0200     		.2byte	0x2
 8579 0642 7D       		.byte	0x7d
 8580 0643 14       		.sleb128 20
 8581 0644 06000000 		.4byte	.LCFI11
 8582 0648 0C000000 		.4byte	.LCFI12
 8583 064c 0200     		.2byte	0x2
 8584 064e 7D       		.byte	0x7d
 8585 064f 18       		.sleb128 24
 8586 0650 0C000000 		.4byte	.LCFI12
 8587 0654 24010000 		.4byte	.LFE49
 8588 0658 0200     		.2byte	0x2
 8589 065a 7D       		.byte	0x7d
 8590 065b 20       		.sleb128 32
 8591 065c 00000000 		.4byte	0
 8592 0660 00000000 		.4byte	0
 8593              	.LLST56:
 8594 0664 00000000 		.4byte	.LVL143
 8595 0668 48000000 		.4byte	.LVL148
 8596 066c 0100     		.2byte	0x1
ARM GAS  C:\Users\EBANO_~1\AppData\Local\Temp\cc7eeVhF.s 			page 201


 8597 066e 50       		.byte	0x50
 8598 066f 48000000 		.4byte	.LVL148
 8599 0673 CE000000 		.4byte	.LVL158
 8600 0677 0100     		.2byte	0x1
 8601 0679 54       		.byte	0x54
 8602 067a CE000000 		.4byte	.LVL158
 8603 067e D4000000 		.4byte	.LVL161
 8604 0682 0400     		.2byte	0x4
 8605 0684 F3       		.byte	0xf3
 8606 0685 01       		.uleb128 0x1
 8607 0686 50       		.byte	0x50
 8608 0687 9F       		.byte	0x9f
 8609 0688 D4000000 		.4byte	.LVL161
 8610 068c D6000000 		.4byte	.LVL162
 8611 0690 0100     		.2byte	0x1
 8612 0692 50       		.byte	0x50
 8613 0693 D6000000 		.4byte	.LVL162
 8614 0697 D8000000 		.4byte	.LVL163
 8615 069b 0100     		.2byte	0x1
 8616 069d 54       		.byte	0x54
 8617 069e D8000000 		.4byte	.LVL163
 8618 06a2 DE000000 		.4byte	.LVL164
 8619 06a6 0100     		.2byte	0x1
 8620 06a8 50       		.byte	0x50
 8621 06a9 DE000000 		.4byte	.LVL164
 8622 06ad EC000000 		.4byte	.LVL166
 8623 06b1 0100     		.2byte	0x1
 8624 06b3 54       		.byte	0x54
 8625 06b4 EC000000 		.4byte	.LVL166
 8626 06b8 F4000000 		.4byte	.LVL167
 8627 06bc 0100     		.2byte	0x1
 8628 06be 50       		.byte	0x50
 8629 06bf F4000000 		.4byte	.LVL167
 8630 06c3 24010000 		.4byte	.LFE49
 8631 06c7 0100     		.2byte	0x1
 8632 06c9 54       		.byte	0x54
 8633 06ca 00000000 		.4byte	0
 8634 06ce 00000000 		.4byte	0
 8635              	.LLST57:
 8636 06d2 00000000 		.4byte	.LVL143
 8637 06d6 0A000000 		.4byte	.LVL144
 8638 06da 0100     		.2byte	0x1
 8639 06dc 51       		.byte	0x51
 8640 06dd 0A000000 		.4byte	.LVL144
 8641 06e1 CE000000 		.4byte	.LVL159
 8642 06e5 0100     		.2byte	0x1
 8643 06e7 55       		.byte	0x55
 8644 06e8 CE000000 		.4byte	.LVL159
 8645 06ec D4000000 		.4byte	.LVL161
 8646 06f0 0400     		.2byte	0x4
 8647 06f2 F3       		.byte	0xf3
 8648 06f3 01       		.uleb128 0x1
 8649 06f4 51       		.byte	0x51
 8650 06f5 9F       		.byte	0x9f
 8651 06f6 D4000000 		.4byte	.LVL161
 8652 06fa 24010000 		.4byte	.LFE49
 8653 06fe 0100     		.2byte	0x1
ARM GAS  C:\Users\EBANO_~1\AppData\Local\Temp\cc7eeVhF.s 			page 202


 8654 0700 55       		.byte	0x55
 8655 0701 00000000 		.4byte	0
 8656 0705 00000000 		.4byte	0
 8657              	.LLST58:
 8658 0709 00000000 		.4byte	.LVL143
 8659 070d 1A000000 		.4byte	.LVL145
 8660 0711 0100     		.2byte	0x1
 8661 0713 52       		.byte	0x52
 8662 0714 1A000000 		.4byte	.LVL145
 8663 0718 CE000000 		.4byte	.LVL160
 8664 071c 0100     		.2byte	0x1
 8665 071e 56       		.byte	0x56
 8666 071f CE000000 		.4byte	.LVL160
 8667 0723 D4000000 		.4byte	.LVL161
 8668 0727 0400     		.2byte	0x4
 8669 0729 F3       		.byte	0xf3
 8670 072a 01       		.uleb128 0x1
 8671 072b 52       		.byte	0x52
 8672 072c 9F       		.byte	0x9f
 8673 072d D4000000 		.4byte	.LVL161
 8674 0731 24010000 		.4byte	.LFE49
 8675 0735 0100     		.2byte	0x1
 8676 0737 56       		.byte	0x56
 8677 0738 00000000 		.4byte	0
 8678 073c 00000000 		.4byte	0
 8679              	.LLST59:
 8680 0740 00000000 		.4byte	.LVL143
 8681 0744 CC000000 		.4byte	.LVL157
 8682 0748 0200     		.2byte	0x2
 8683 074a 30       		.byte	0x30
 8684 074b 9F       		.byte	0x9f
 8685 074c D4000000 		.4byte	.LVL161
 8686 0750 EA000000 		.4byte	.LVL165
 8687 0754 0200     		.2byte	0x2
 8688 0756 30       		.byte	0x30
 8689 0757 9F       		.byte	0x9f
 8690 0758 EC000000 		.4byte	.LVL166
 8691 075c 04010000 		.4byte	.LVL169
 8692 0760 0200     		.2byte	0x2
 8693 0762 30       		.byte	0x30
 8694 0763 9F       		.byte	0x9f
 8695 0764 00000000 		.4byte	0
 8696 0768 00000000 		.4byte	0
 8697              	.LLST60:
 8698 076c 28000000 		.4byte	.LVL146
 8699 0770 48000000 		.4byte	.LVL148
 8700 0774 0100     		.2byte	0x1
 8701 0776 50       		.byte	0x50
 8702 0777 48000000 		.4byte	.LVL148
 8703 077b 7E000000 		.4byte	.LVL155
 8704 077f 0100     		.2byte	0x1
 8705 0781 54       		.byte	0x54
 8706 0782 D8000000 		.4byte	.LVL163
 8707 0786 DE000000 		.4byte	.LVL164
 8708 078a 0100     		.2byte	0x1
 8709 078c 50       		.byte	0x50
 8710 078d DE000000 		.4byte	.LVL164
ARM GAS  C:\Users\EBANO_~1\AppData\Local\Temp\cc7eeVhF.s 			page 203


 8711 0791 EA000000 		.4byte	.LVL165
 8712 0795 0100     		.2byte	0x1
 8713 0797 54       		.byte	0x54
 8714 0798 EC000000 		.4byte	.LVL166
 8715 079c F4000000 		.4byte	.LVL167
 8716 07a0 0100     		.2byte	0x1
 8717 07a2 50       		.byte	0x50
 8718 07a3 F4000000 		.4byte	.LVL167
 8719 07a7 04010000 		.4byte	.LVL169
 8720 07ab 0100     		.2byte	0x1
 8721 07ad 54       		.byte	0x54
 8722 07ae 00000000 		.4byte	0
 8723 07b2 00000000 		.4byte	0
 8724              	.LLST61:
 8725 07b6 28000000 		.4byte	.LVL146
 8726 07ba 7E000000 		.4byte	.LVL155
 8727 07be 0200     		.2byte	0x2
 8728 07c0 30       		.byte	0x30
 8729 07c1 9F       		.byte	0x9f
 8730 07c2 D8000000 		.4byte	.LVL163
 8731 07c6 24010000 		.4byte	.LFE49
 8732 07ca 0200     		.2byte	0x2
 8733 07cc 30       		.byte	0x30
 8734 07cd 9F       		.byte	0x9f
 8735 07ce 00000000 		.4byte	0
 8736 07d2 00000000 		.4byte	0
 8737              	.LLST62:
 8738 07d6 42000000 		.4byte	.LVL147
 8739 07da 7E000000 		.4byte	.LVL155
 8740 07de 0200     		.2byte	0x2
 8741 07e0 31       		.byte	0x31
 8742 07e1 9F       		.byte	0x9f
 8743 07e2 F4000000 		.4byte	.LVL167
 8744 07e6 24010000 		.4byte	.LFE49
 8745 07ea 0200     		.2byte	0x2
 8746 07ec 31       		.byte	0x31
 8747 07ed 9F       		.byte	0x9f
 8748 07ee 00000000 		.4byte	0
 8749 07f2 00000000 		.4byte	0
 8750              	.LLST63:
 8751 07f6 60000000 		.4byte	.LVL150
 8752 07fa 7E000000 		.4byte	.LVL155
 8753 07fe 0100     		.2byte	0x1
 8754 0800 54       		.byte	0x54
 8755 0801 F4000000 		.4byte	.LVL167
 8756 0805 24010000 		.4byte	.LFE49
 8757 0809 0100     		.2byte	0x1
 8758 080b 54       		.byte	0x54
 8759 080c 00000000 		.4byte	0
 8760 0810 00000000 		.4byte	0
 8761              	.LLST64:
 8762 0814 68000000 		.4byte	.LVL152
 8763 0818 6A000000 		.4byte	.LVL153
 8764 081c 0100     		.2byte	0x1
 8765 081e 50       		.byte	0x50
 8766 081f 6A000000 		.4byte	.LVL153
 8767 0823 7E000000 		.4byte	.LVL155
ARM GAS  C:\Users\EBANO_~1\AppData\Local\Temp\cc7eeVhF.s 			page 204


 8768 0827 0100     		.2byte	0x1
 8769 0829 58       		.byte	0x58
 8770 082a F4000000 		.4byte	.LVL167
 8771 082e F8000000 		.4byte	.LVL168
 8772 0832 0100     		.2byte	0x1
 8773 0834 53       		.byte	0x53
 8774 0835 F8000000 		.4byte	.LVL168
 8775 0839 24010000 		.4byte	.LFE49
 8776 083d 0100     		.2byte	0x1
 8777 083f 58       		.byte	0x58
 8778 0840 00000000 		.4byte	0
 8779 0844 00000000 		.4byte	0
 8780              	.LLST46:
 8781 0848 00000000 		.4byte	.LFB48
 8782 084c 04000000 		.4byte	.LCFI9
 8783 0850 0200     		.2byte	0x2
 8784 0852 7D       		.byte	0x7d
 8785 0853 00       		.sleb128 0
 8786 0854 04000000 		.4byte	.LCFI9
 8787 0858 F0000000 		.4byte	.LFE48
 8788 085c 0200     		.2byte	0x2
 8789 085e 7D       		.byte	0x7d
 8790 085f 10       		.sleb128 16
 8791 0860 00000000 		.4byte	0
 8792 0864 00000000 		.4byte	0
 8793              	.LLST47:
 8794 0868 00000000 		.4byte	.LVL118
 8795 086c 23000000 		.4byte	.LVL120-1
 8796 0870 0100     		.2byte	0x1
 8797 0872 50       		.byte	0x50
 8798 0873 23000000 		.4byte	.LVL120-1
 8799 0877 66000000 		.4byte	.LVL128
 8800 087b 0100     		.2byte	0x1
 8801 087d 54       		.byte	0x54
 8802 087e 66000000 		.4byte	.LVL128
 8803 0882 68000000 		.4byte	.LVL129
 8804 0886 0100     		.2byte	0x1
 8805 0888 50       		.byte	0x50
 8806 0889 68000000 		.4byte	.LVL129
 8807 088d 68000000 		.4byte	.LVL130
 8808 0891 0100     		.2byte	0x1
 8809 0893 54       		.byte	0x54
 8810 0894 68000000 		.4byte	.LVL130
 8811 0898 6A000000 		.4byte	.LVL131
 8812 089c 0400     		.2byte	0x4
 8813 089e F3       		.byte	0xf3
 8814 089f 01       		.uleb128 0x1
 8815 08a0 50       		.byte	0x50
 8816 08a1 9F       		.byte	0x9f
 8817 08a2 6A000000 		.4byte	.LVL131
 8818 08a6 7A000000 		.4byte	.LVL132
 8819 08aa 0100     		.2byte	0x1
 8820 08ac 50       		.byte	0x50
 8821 08ad 7A000000 		.4byte	.LVL132
 8822 08b1 F0000000 		.4byte	.LFE48
 8823 08b5 0100     		.2byte	0x1
 8824 08b7 54       		.byte	0x54
ARM GAS  C:\Users\EBANO_~1\AppData\Local\Temp\cc7eeVhF.s 			page 205


 8825 08b8 00000000 		.4byte	0
 8826 08bc 00000000 		.4byte	0
 8827              	.LLST48:
 8828 08c0 00000000 		.4byte	.LVL118
 8829 08c4 5E000000 		.4byte	.LVL127
 8830 08c8 0200     		.2byte	0x2
 8831 08ca 30       		.byte	0x30
 8832 08cb 9F       		.byte	0x9f
 8833 08cc 5E000000 		.4byte	.LVL127
 8834 08d0 66000000 		.4byte	.LVL128
 8835 08d4 0100     		.2byte	0x1
 8836 08d6 50       		.byte	0x50
 8837 08d7 66000000 		.4byte	.LVL128
 8838 08db 68000000 		.4byte	.LVL129
 8839 08df 0200     		.2byte	0x2
 8840 08e1 30       		.byte	0x30
 8841 08e2 9F       		.byte	0x9f
 8842 08e3 6A000000 		.4byte	.LVL131
 8843 08e7 9A000000 		.4byte	.LVL133
 8844 08eb 0200     		.2byte	0x2
 8845 08ed 30       		.byte	0x30
 8846 08ee 9F       		.byte	0x9f
 8847 08ef 9C000000 		.4byte	.LVL134
 8848 08f3 AE000000 		.4byte	.LVL135
 8849 08f7 0200     		.2byte	0x2
 8850 08f9 30       		.byte	0x30
 8851 08fa 9F       		.byte	0x9f
 8852 08fb B0000000 		.4byte	.LVL136
 8853 08ff E8000000 		.4byte	.LVL142
 8854 0903 0200     		.2byte	0x2
 8855 0905 30       		.byte	0x30
 8856 0906 9F       		.byte	0x9f
 8857 0907 00000000 		.4byte	0
 8858 090b 00000000 		.4byte	0
 8859              	.LLST49:
 8860 090f 10000000 		.4byte	.LVL119
 8861 0913 23000000 		.4byte	.LVL120-1
 8862 0917 0100     		.2byte	0x1
 8863 0919 50       		.byte	0x50
 8864 091a 23000000 		.4byte	.LVL120-1
 8865 091e 5E000000 		.4byte	.LVL127
 8866 0922 0100     		.2byte	0x1
 8867 0924 54       		.byte	0x54
 8868 0925 6A000000 		.4byte	.LVL131
 8869 0929 7A000000 		.4byte	.LVL132
 8870 092d 0100     		.2byte	0x1
 8871 092f 50       		.byte	0x50
 8872 0930 7A000000 		.4byte	.LVL132
 8873 0934 AE000000 		.4byte	.LVL135
 8874 0938 0100     		.2byte	0x1
 8875 093a 54       		.byte	0x54
 8876 093b B0000000 		.4byte	.LVL136
 8877 093f F0000000 		.4byte	.LFE48
 8878 0943 0100     		.2byte	0x1
 8879 0945 54       		.byte	0x54
 8880 0946 00000000 		.4byte	0
 8881 094a 00000000 		.4byte	0
ARM GAS  C:\Users\EBANO_~1\AppData\Local\Temp\cc7eeVhF.s 			page 206


 8882              	.LLST50:
 8883 094e 10000000 		.4byte	.LVL119
 8884 0952 28000000 		.4byte	.LVL121
 8885 0956 0200     		.2byte	0x2
 8886 0958 30       		.byte	0x30
 8887 0959 9F       		.byte	0x9f
 8888 095a 28000000 		.4byte	.LVL121
 8889 095e 2A000000 		.4byte	.LVL122
 8890 0962 0100     		.2byte	0x1
 8891 0964 50       		.byte	0x50
 8892 0965 2A000000 		.4byte	.LVL122
 8893 0969 3C000000 		.4byte	.LVL124
 8894 096d 0100     		.2byte	0x1
 8895 096f 56       		.byte	0x56
 8896 0970 6A000000 		.4byte	.LVL131
 8897 0974 7A000000 		.4byte	.LVL132
 8898 0978 0200     		.2byte	0x2
 8899 097a 30       		.byte	0x30
 8900 097b 9F       		.byte	0x9f
 8901 097c 9C000000 		.4byte	.LVL134
 8902 0980 AE000000 		.4byte	.LVL135
 8903 0984 0100     		.2byte	0x1
 8904 0986 56       		.byte	0x56
 8905 0987 00000000 		.4byte	0
 8906 098b 00000000 		.4byte	0
 8907              	.LLST51:
 8908 098f 9C000000 		.4byte	.LVL134
 8909 0993 AE000000 		.4byte	.LVL135
 8910 0997 0100     		.2byte	0x1
 8911 0999 54       		.byte	0x54
 8912 099a 00000000 		.4byte	0
 8913 099e 00000000 		.4byte	0
 8914              	.LLST52:
 8915 09a2 44000000 		.4byte	.LVL125
 8916 09a6 5E000000 		.4byte	.LVL127
 8917 09aa 0100     		.2byte	0x1
 8918 09ac 54       		.byte	0x54
 8919 09ad 7A000000 		.4byte	.LVL132
 8920 09b1 9A000000 		.4byte	.LVL133
 8921 09b5 0100     		.2byte	0x1
 8922 09b7 54       		.byte	0x54
 8923 09b8 B0000000 		.4byte	.LVL136
 8924 09bc E8000000 		.4byte	.LVL142
 8925 09c0 0100     		.2byte	0x1
 8926 09c2 54       		.byte	0x54
 8927 09c3 00000000 		.4byte	0
 8928 09c7 00000000 		.4byte	0
 8929              	.LLST53:
 8930 09cb 44000000 		.4byte	.LVL125
 8931 09cf 4E000000 		.4byte	.LVL126
 8932 09d3 0200     		.2byte	0x2
 8933 09d5 30       		.byte	0x30
 8934 09d6 9F       		.byte	0x9f
 8935 09d7 7A000000 		.4byte	.LVL132
 8936 09db 9A000000 		.4byte	.LVL133
 8937 09df 0200     		.2byte	0x2
 8938 09e1 30       		.byte	0x30
ARM GAS  C:\Users\EBANO_~1\AppData\Local\Temp\cc7eeVhF.s 			page 207


 8939 09e2 9F       		.byte	0x9f
 8940 09e3 B0000000 		.4byte	.LVL136
 8941 09e7 C2000000 		.4byte	.LVL138
 8942 09eb 0200     		.2byte	0x2
 8943 09ed 30       		.byte	0x30
 8944 09ee 9F       		.byte	0x9f
 8945 09ef C2000000 		.4byte	.LVL138
 8946 09f3 C4000000 		.4byte	.LVL139
 8947 09f7 0100     		.2byte	0x1
 8948 09f9 50       		.byte	0x50
 8949 09fa C4000000 		.4byte	.LVL139
 8950 09fe E8000000 		.4byte	.LVL142
 8951 0a02 0100     		.2byte	0x1
 8952 0a04 56       		.byte	0x56
 8953 0a05 00000000 		.4byte	0
 8954 0a09 00000000 		.4byte	0
 8955              	.LLST54:
 8956 0a0d D8000000 		.4byte	.LVL141
 8957 0a11 E8000000 		.4byte	.LVL142
 8958 0a15 0100     		.2byte	0x1
 8959 0a17 54       		.byte	0x54
 8960 0a18 00000000 		.4byte	0
 8961 0a1c 00000000 		.4byte	0
 8962              	.LLST38:
 8963 0a20 00000000 		.4byte	.LFB47
 8964 0a24 02000000 		.4byte	.LCFI7
 8965 0a28 0200     		.2byte	0x2
 8966 0a2a 7D       		.byte	0x7d
 8967 0a2b 00       		.sleb128 0
 8968 0a2c 02000000 		.4byte	.LCFI7
 8969 0a30 06000000 		.4byte	.LCFI8
 8970 0a34 0200     		.2byte	0x2
 8971 0a36 7D       		.byte	0x7d
 8972 0a37 10       		.sleb128 16
 8973 0a38 06000000 		.4byte	.LCFI8
 8974 0a3c 00010000 		.4byte	.LFE47
 8975 0a40 0200     		.2byte	0x2
 8976 0a42 7D       		.byte	0x7d
 8977 0a43 18       		.sleb128 24
 8978 0a44 00000000 		.4byte	0
 8979 0a48 00000000 		.4byte	0
 8980              	.LLST39:
 8981 0a4c 00000000 		.4byte	.LVL97
 8982 0a50 20000000 		.4byte	.LVL98
 8983 0a54 0100     		.2byte	0x1
 8984 0a56 50       		.byte	0x50
 8985 0a57 20000000 		.4byte	.LVL98
 8986 0a5b 5C000000 		.4byte	.LVL100
 8987 0a5f 0100     		.2byte	0x1
 8988 0a61 54       		.byte	0x54
 8989 0a62 5C000000 		.4byte	.LVL100
 8990 0a66 5E000000 		.4byte	.LVL101
 8991 0a6a 0400     		.2byte	0x4
 8992 0a6c F3       		.byte	0xf3
 8993 0a6d 01       		.uleb128 0x1
 8994 0a6e 50       		.byte	0x50
 8995 0a6f 9F       		.byte	0x9f
ARM GAS  C:\Users\EBANO_~1\AppData\Local\Temp\cc7eeVhF.s 			page 208


 8996 0a70 5E000000 		.4byte	.LVL101
 8997 0a74 7E000000 		.4byte	.LVL103
 8998 0a78 0100     		.2byte	0x1
 8999 0a7a 50       		.byte	0x50
 9000 0a7b 7E000000 		.4byte	.LVL103
 9001 0a7f B4000000 		.4byte	.LVL110
 9002 0a83 0100     		.2byte	0x1
 9003 0a85 54       		.byte	0x54
 9004 0a86 B4000000 		.4byte	.LVL110
 9005 0a8a B6000000 		.4byte	.LVL111
 9006 0a8e 0100     		.2byte	0x1
 9007 0a90 50       		.byte	0x50
 9008 0a91 B6000000 		.4byte	.LVL111
 9009 0a95 C0000000 		.4byte	.LVL112
 9010 0a99 0100     		.2byte	0x1
 9011 0a9b 54       		.byte	0x54
 9012 0a9c C0000000 		.4byte	.LVL112
 9013 0aa0 C6000000 		.4byte	.LVL113
 9014 0aa4 0100     		.2byte	0x1
 9015 0aa6 50       		.byte	0x50
 9016 0aa7 C6000000 		.4byte	.LVL113
 9017 0aab D4000000 		.4byte	.LVL115
 9018 0aaf 0100     		.2byte	0x1
 9019 0ab1 54       		.byte	0x54
 9020 0ab2 D4000000 		.4byte	.LVL115
 9021 0ab6 DC000000 		.4byte	.LVL116
 9022 0aba 0100     		.2byte	0x1
 9023 0abc 50       		.byte	0x50
 9024 0abd DC000000 		.4byte	.LVL116
 9025 0ac1 00010000 		.4byte	.LFE47
 9026 0ac5 0100     		.2byte	0x1
 9027 0ac7 54       		.byte	0x54
 9028 0ac8 00000000 		.4byte	0
 9029 0acc 00000000 		.4byte	0
 9030              	.LLST40:
 9031 0ad0 00000000 		.4byte	.LVL97
 9032 0ad4 5A000000 		.4byte	.LVL99
 9033 0ad8 0200     		.2byte	0x2
 9034 0ada 30       		.byte	0x30
 9035 0adb 9F       		.byte	0x9f
 9036 0adc 5E000000 		.4byte	.LVL101
 9037 0ae0 D2000000 		.4byte	.LVL114
 9038 0ae4 0200     		.2byte	0x2
 9039 0ae6 30       		.byte	0x30
 9040 0ae7 9F       		.byte	0x9f
 9041 0ae8 D4000000 		.4byte	.LVL115
 9042 0aec EC000000 		.4byte	.LVL117
 9043 0af0 0200     		.2byte	0x2
 9044 0af2 30       		.byte	0x30
 9045 0af3 9F       		.byte	0x9f
 9046 0af4 00000000 		.4byte	0
 9047 0af8 00000000 		.4byte	0
 9048              	.LLST41:
 9049 0afc 5E000000 		.4byte	.LVL101
 9050 0b00 7E000000 		.4byte	.LVL103
 9051 0b04 0100     		.2byte	0x1
 9052 0b06 50       		.byte	0x50
ARM GAS  C:\Users\EBANO_~1\AppData\Local\Temp\cc7eeVhF.s 			page 209


 9053 0b07 7E000000 		.4byte	.LVL103
 9054 0b0b B4000000 		.4byte	.LVL110
 9055 0b0f 0100     		.2byte	0x1
 9056 0b11 54       		.byte	0x54
 9057 0b12 C0000000 		.4byte	.LVL112
 9058 0b16 C6000000 		.4byte	.LVL113
 9059 0b1a 0100     		.2byte	0x1
 9060 0b1c 50       		.byte	0x50
 9061 0b1d C6000000 		.4byte	.LVL113
 9062 0b21 D2000000 		.4byte	.LVL114
 9063 0b25 0100     		.2byte	0x1
 9064 0b27 54       		.byte	0x54
 9065 0b28 D4000000 		.4byte	.LVL115
 9066 0b2c DC000000 		.4byte	.LVL116
 9067 0b30 0100     		.2byte	0x1
 9068 0b32 50       		.byte	0x50
 9069 0b33 DC000000 		.4byte	.LVL116
 9070 0b37 EC000000 		.4byte	.LVL117
 9071 0b3b 0100     		.2byte	0x1
 9072 0b3d 54       		.byte	0x54
 9073 0b3e 00000000 		.4byte	0
 9074 0b42 00000000 		.4byte	0
 9075              	.LLST42:
 9076 0b46 5E000000 		.4byte	.LVL101
 9077 0b4a B4000000 		.4byte	.LVL110
 9078 0b4e 0200     		.2byte	0x2
 9079 0b50 30       		.byte	0x30
 9080 0b51 9F       		.byte	0x9f
 9081 0b52 C0000000 		.4byte	.LVL112
 9082 0b56 00010000 		.4byte	.LFE47
 9083 0b5a 0200     		.2byte	0x2
 9084 0b5c 30       		.byte	0x30
 9085 0b5d 9F       		.byte	0x9f
 9086 0b5e 00000000 		.4byte	0
 9087 0b62 00000000 		.4byte	0
 9088              	.LLST43:
 9089 0b66 78000000 		.4byte	.LVL102
 9090 0b6a B4000000 		.4byte	.LVL110
 9091 0b6e 0200     		.2byte	0x2
 9092 0b70 31       		.byte	0x31
 9093 0b71 9F       		.byte	0x9f
 9094 0b72 DC000000 		.4byte	.LVL116
 9095 0b76 00010000 		.4byte	.LFE47
 9096 0b7a 0200     		.2byte	0x2
 9097 0b7c 31       		.byte	0x31
 9098 0b7d 9F       		.byte	0x9f
 9099 0b7e 00000000 		.4byte	0
 9100 0b82 00000000 		.4byte	0
 9101              	.LLST44:
 9102 0b86 96000000 		.4byte	.LVL105
 9103 0b8a B4000000 		.4byte	.LVL110
 9104 0b8e 0100     		.2byte	0x1
 9105 0b90 54       		.byte	0x54
 9106 0b91 DC000000 		.4byte	.LVL116
 9107 0b95 00010000 		.4byte	.LFE47
 9108 0b99 0100     		.2byte	0x1
 9109 0b9b 54       		.byte	0x54
ARM GAS  C:\Users\EBANO_~1\AppData\Local\Temp\cc7eeVhF.s 			page 210


 9110 0b9c 00000000 		.4byte	0
 9111 0ba0 00000000 		.4byte	0
 9112              	.LLST45:
 9113 0ba4 9E000000 		.4byte	.LVL107
 9114 0ba8 A0000000 		.4byte	.LVL108
 9115 0bac 0100     		.2byte	0x1
 9116 0bae 50       		.byte	0x50
 9117 0baf A0000000 		.4byte	.LVL108
 9118 0bb3 B4000000 		.4byte	.LVL110
 9119 0bb7 0100     		.2byte	0x1
 9120 0bb9 56       		.byte	0x56
 9121 0bba DC000000 		.4byte	.LVL116
 9122 0bbe 00010000 		.4byte	.LFE47
 9123 0bc2 0100     		.2byte	0x1
 9124 0bc4 56       		.byte	0x56
 9125 0bc5 00000000 		.4byte	0
 9126 0bc9 00000000 		.4byte	0
 9127              	.LLST33:
 9128 0bcd 00000000 		.4byte	.LFB46
 9129 0bd1 02000000 		.4byte	.LCFI6
 9130 0bd5 0200     		.2byte	0x2
 9131 0bd7 7D       		.byte	0x7d
 9132 0bd8 00       		.sleb128 0
 9133 0bd9 02000000 		.4byte	.LCFI6
 9134 0bdd 78000000 		.4byte	.LFE46
 9135 0be1 0200     		.2byte	0x2
 9136 0be3 7D       		.byte	0x7d
 9137 0be4 18       		.sleb128 24
 9138 0be5 00000000 		.4byte	0
 9139 0be9 00000000 		.4byte	0
 9140              	.LLST34:
 9141 0bed 00000000 		.4byte	.LVL88
 9142 0bf1 0B000000 		.4byte	.LVL89-1
 9143 0bf5 0100     		.2byte	0x1
 9144 0bf7 50       		.byte	0x50
 9145 0bf8 0B000000 		.4byte	.LVL89-1
 9146 0bfc 3E000000 		.4byte	.LVL92
 9147 0c00 0100     		.2byte	0x1
 9148 0c02 55       		.byte	0x55
 9149 0c03 3E000000 		.4byte	.LVL92
 9150 0c07 40000000 		.4byte	.LVL95
 9151 0c0b 0400     		.2byte	0x4
 9152 0c0d F3       		.byte	0xf3
 9153 0c0e 01       		.uleb128 0x1
 9154 0c0f 50       		.byte	0x50
 9155 0c10 9F       		.byte	0x9f
 9156 0c11 40000000 		.4byte	.LVL95
 9157 0c15 78000000 		.4byte	.LFE46
 9158 0c19 0100     		.2byte	0x1
 9159 0c1b 55       		.byte	0x55
 9160 0c1c 00000000 		.4byte	0
 9161 0c20 00000000 		.4byte	0
 9162              	.LLST35:
 9163 0c24 00000000 		.4byte	.LVL88
 9164 0c28 0B000000 		.4byte	.LVL89-1
 9165 0c2c 0100     		.2byte	0x1
 9166 0c2e 51       		.byte	0x51
ARM GAS  C:\Users\EBANO_~1\AppData\Local\Temp\cc7eeVhF.s 			page 211


 9167 0c2f 0B000000 		.4byte	.LVL89-1
 9168 0c33 3E000000 		.4byte	.LVL91
 9169 0c37 0100     		.2byte	0x1
 9170 0c39 54       		.byte	0x54
 9171 0c3a 3E000000 		.4byte	.LVL91
 9172 0c3e 40000000 		.4byte	.LVL95
 9173 0c42 0400     		.2byte	0x4
 9174 0c44 F3       		.byte	0xf3
 9175 0c45 01       		.uleb128 0x1
 9176 0c46 51       		.byte	0x51
 9177 0c47 9F       		.byte	0x9f
 9178 0c48 40000000 		.4byte	.LVL95
 9179 0c4c 78000000 		.4byte	.LFE46
 9180 0c50 0100     		.2byte	0x1
 9181 0c52 54       		.byte	0x54
 9182 0c53 00000000 		.4byte	0
 9183 0c57 00000000 		.4byte	0
 9184              	.LLST36:
 9185 0c5b 00000000 		.4byte	.LVL88
 9186 0c5f 0B000000 		.4byte	.LVL89-1
 9187 0c63 0100     		.2byte	0x1
 9188 0c65 52       		.byte	0x52
 9189 0c66 0B000000 		.4byte	.LVL89-1
 9190 0c6a 3E000000 		.4byte	.LVL93
 9191 0c6e 0100     		.2byte	0x1
 9192 0c70 56       		.byte	0x56
 9193 0c71 3E000000 		.4byte	.LVL93
 9194 0c75 40000000 		.4byte	.LVL95
 9195 0c79 0400     		.2byte	0x4
 9196 0c7b F3       		.byte	0xf3
 9197 0c7c 01       		.uleb128 0x1
 9198 0c7d 52       		.byte	0x52
 9199 0c7e 9F       		.byte	0x9f
 9200 0c7f 40000000 		.4byte	.LVL95
 9201 0c83 78000000 		.4byte	.LFE46
 9202 0c87 0100     		.2byte	0x1
 9203 0c89 56       		.byte	0x56
 9204 0c8a 00000000 		.4byte	0
 9205 0c8e 00000000 		.4byte	0
 9206              	.LLST37:
 9207 0c92 00000000 		.4byte	.LVL88
 9208 0c96 0E000000 		.4byte	.LVL90
 9209 0c9a 0200     		.2byte	0x2
 9210 0c9c 30       		.byte	0x30
 9211 0c9d 9F       		.byte	0x9f
 9212 0c9e 0E000000 		.4byte	.LVL90
 9213 0ca2 3E000000 		.4byte	.LVL94
 9214 0ca6 0100     		.2byte	0x1
 9215 0ca8 57       		.byte	0x57
 9216 0ca9 40000000 		.4byte	.LVL95
 9217 0cad 78000000 		.4byte	.LFE46
 9218 0cb1 0100     		.2byte	0x1
 9219 0cb3 57       		.byte	0x57
 9220 0cb4 00000000 		.4byte	0
 9221 0cb8 00000000 		.4byte	0
 9222              	.LLST28:
 9223 0cbc 00000000 		.4byte	.LFB45
ARM GAS  C:\Users\EBANO_~1\AppData\Local\Temp\cc7eeVhF.s 			page 212


 9224 0cc0 02000000 		.4byte	.LCFI5
 9225 0cc4 0200     		.2byte	0x2
 9226 0cc6 7D       		.byte	0x7d
 9227 0cc7 00       		.sleb128 0
 9228 0cc8 02000000 		.4byte	.LCFI5
 9229 0ccc C0000000 		.4byte	.LFE45
 9230 0cd0 0200     		.2byte	0x2
 9231 0cd2 7D       		.byte	0x7d
 9232 0cd3 18       		.sleb128 24
 9233 0cd4 00000000 		.4byte	0
 9234 0cd8 00000000 		.4byte	0
 9235              	.LLST29:
 9236 0cdc 00000000 		.4byte	.LVL76
 9237 0ce0 19000000 		.4byte	.LVL78-1
 9238 0ce4 0100     		.2byte	0x1
 9239 0ce6 50       		.byte	0x50
 9240 0ce7 19000000 		.4byte	.LVL78-1
 9241 0ceb 70000000 		.4byte	.LVL81
 9242 0cef 0100     		.2byte	0x1
 9243 0cf1 55       		.byte	0x55
 9244 0cf2 70000000 		.4byte	.LVL81
 9245 0cf6 72000000 		.4byte	.LVL83
 9246 0cfa 0400     		.2byte	0x4
 9247 0cfc F3       		.byte	0xf3
 9248 0cfd 01       		.uleb128 0x1
 9249 0cfe 50       		.byte	0x50
 9250 0cff 9F       		.byte	0x9f
 9251 0d00 72000000 		.4byte	.LVL83
 9252 0d04 98000000 		.4byte	.LVL85
 9253 0d08 0100     		.2byte	0x1
 9254 0d0a 55       		.byte	0x55
 9255 0d0b 98000000 		.4byte	.LVL85
 9256 0d0f A8000000 		.4byte	.LVL86
 9257 0d13 0100     		.2byte	0x1
 9258 0d15 50       		.byte	0x50
 9259 0d16 A8000000 		.4byte	.LVL86
 9260 0d1a C0000000 		.4byte	.LFE45
 9261 0d1e 0100     		.2byte	0x1
 9262 0d20 55       		.byte	0x55
 9263 0d21 00000000 		.4byte	0
 9264 0d25 00000000 		.4byte	0
 9265              	.LLST30:
 9266 0d29 00000000 		.4byte	.LVL76
 9267 0d2d 19000000 		.4byte	.LVL78-1
 9268 0d31 0100     		.2byte	0x1
 9269 0d33 51       		.byte	0x51
 9270 0d34 19000000 		.4byte	.LVL78-1
 9271 0d38 70000000 		.4byte	.LVL82
 9272 0d3c 0100     		.2byte	0x1
 9273 0d3e 56       		.byte	0x56
 9274 0d3f 70000000 		.4byte	.LVL82
 9275 0d43 72000000 		.4byte	.LVL83
 9276 0d47 0400     		.2byte	0x4
 9277 0d49 F3       		.byte	0xf3
 9278 0d4a 01       		.uleb128 0x1
 9279 0d4b 51       		.byte	0x51
 9280 0d4c 9F       		.byte	0x9f
ARM GAS  C:\Users\EBANO_~1\AppData\Local\Temp\cc7eeVhF.s 			page 213


 9281 0d4d 72000000 		.4byte	.LVL83
 9282 0d51 98000000 		.4byte	.LVL85
 9283 0d55 0100     		.2byte	0x1
 9284 0d57 56       		.byte	0x56
 9285 0d58 98000000 		.4byte	.LVL85
 9286 0d5c AA000000 		.4byte	.LVL87
 9287 0d60 0100     		.2byte	0x1
 9288 0d62 51       		.byte	0x51
 9289 0d63 AA000000 		.4byte	.LVL87
 9290 0d67 C0000000 		.4byte	.LFE45
 9291 0d6b 0100     		.2byte	0x1
 9292 0d6d 56       		.byte	0x56
 9293 0d6e 00000000 		.4byte	0
 9294 0d72 00000000 		.4byte	0
 9295              	.LLST31:
 9296 0d76 00000000 		.4byte	.LVL76
 9297 0d7a 1C000000 		.4byte	.LVL79
 9298 0d7e 0200     		.2byte	0x2
 9299 0d80 30       		.byte	0x30
 9300 0d81 9F       		.byte	0x9f
 9301 0d82 1C000000 		.4byte	.LVL79
 9302 0d86 70000000 		.4byte	.LVL80
 9303 0d8a 0100     		.2byte	0x1
 9304 0d8c 57       		.byte	0x57
 9305 0d8d 72000000 		.4byte	.LVL83
 9306 0d91 98000000 		.4byte	.LVL85
 9307 0d95 0100     		.2byte	0x1
 9308 0d97 57       		.byte	0x57
 9309 0d98 98000000 		.4byte	.LVL85
 9310 0d9c AA000000 		.4byte	.LVL87
 9311 0da0 0200     		.2byte	0x2
 9312 0da2 30       		.byte	0x30
 9313 0da3 9F       		.byte	0x9f
 9314 0da4 AA000000 		.4byte	.LVL87
 9315 0da8 C0000000 		.4byte	.LFE45
 9316 0dac 0100     		.2byte	0x1
 9317 0dae 57       		.byte	0x57
 9318 0daf 00000000 		.4byte	0
 9319 0db3 00000000 		.4byte	0
 9320              	.LLST32:
 9321 0db7 00000000 		.4byte	.LVL76
 9322 0dbb 16000000 		.4byte	.LVL77
 9323 0dbf 0200     		.2byte	0x2
 9324 0dc1 30       		.byte	0x30
 9325 0dc2 9F       		.byte	0x9f
 9326 0dc3 16000000 		.4byte	.LVL77
 9327 0dc7 70000000 		.4byte	.LVL80
 9328 0dcb 0100     		.2byte	0x1
 9329 0dcd 54       		.byte	0x54
 9330 0dce 72000000 		.4byte	.LVL83
 9331 0dd2 98000000 		.4byte	.LVL85
 9332 0dd6 0100     		.2byte	0x1
 9333 0dd8 54       		.byte	0x54
 9334 0dd9 98000000 		.4byte	.LVL85
 9335 0ddd AA000000 		.4byte	.LVL87
 9336 0de1 0200     		.2byte	0x2
 9337 0de3 30       		.byte	0x30
ARM GAS  C:\Users\EBANO_~1\AppData\Local\Temp\cc7eeVhF.s 			page 214


 9338 0de4 9F       		.byte	0x9f
 9339 0de5 AA000000 		.4byte	.LVL87
 9340 0de9 C0000000 		.4byte	.LFE45
 9341 0ded 0100     		.2byte	0x1
 9342 0def 54       		.byte	0x54
 9343 0df0 00000000 		.4byte	0
 9344 0df4 00000000 		.4byte	0
 9345              	.LLST19:
 9346 0df8 00000000 		.4byte	.LFB44
 9347 0dfc 04000000 		.4byte	.LCFI4
 9348 0e00 0200     		.2byte	0x2
 9349 0e02 7D       		.byte	0x7d
 9350 0e03 00       		.sleb128 0
 9351 0e04 04000000 		.4byte	.LCFI4
 9352 0e08 E8000000 		.4byte	.LFE44
 9353 0e0c 0200     		.2byte	0x2
 9354 0e0e 7D       		.byte	0x7d
 9355 0e0f 10       		.sleb128 16
 9356 0e10 00000000 		.4byte	0
 9357 0e14 00000000 		.4byte	0
 9358              	.LLST20:
 9359 0e18 00000000 		.4byte	.LVL52
 9360 0e1c 23000000 		.4byte	.LVL54-1
 9361 0e20 0100     		.2byte	0x1
 9362 0e22 50       		.byte	0x50
 9363 0e23 23000000 		.4byte	.LVL54-1
 9364 0e27 5E000000 		.4byte	.LVL61
 9365 0e2b 0100     		.2byte	0x1
 9366 0e2d 54       		.byte	0x54
 9367 0e2e 5E000000 		.4byte	.LVL61
 9368 0e32 60000000 		.4byte	.LVL62
 9369 0e36 0100     		.2byte	0x1
 9370 0e38 50       		.byte	0x50
 9371 0e39 60000000 		.4byte	.LVL62
 9372 0e3d 60000000 		.4byte	.LVL63
 9373 0e41 0100     		.2byte	0x1
 9374 0e43 54       		.byte	0x54
 9375 0e44 60000000 		.4byte	.LVL63
 9376 0e48 62000000 		.4byte	.LVL64
 9377 0e4c 0400     		.2byte	0x4
 9378 0e4e F3       		.byte	0xf3
 9379 0e4f 01       		.uleb128 0x1
 9380 0e50 50       		.byte	0x50
 9381 0e51 9F       		.byte	0x9f
 9382 0e52 62000000 		.4byte	.LVL64
 9383 0e56 72000000 		.4byte	.LVL65
 9384 0e5a 0100     		.2byte	0x1
 9385 0e5c 50       		.byte	0x50
 9386 0e5d 72000000 		.4byte	.LVL65
 9387 0e61 E8000000 		.4byte	.LFE44
 9388 0e65 0100     		.2byte	0x1
 9389 0e67 54       		.byte	0x54
 9390 0e68 00000000 		.4byte	0
 9391 0e6c 00000000 		.4byte	0
 9392              	.LLST21:
 9393 0e70 00000000 		.4byte	.LVL52
 9394 0e74 56000000 		.4byte	.LVL60
ARM GAS  C:\Users\EBANO_~1\AppData\Local\Temp\cc7eeVhF.s 			page 215


 9395 0e78 0200     		.2byte	0x2
 9396 0e7a 30       		.byte	0x30
 9397 0e7b 9F       		.byte	0x9f
 9398 0e7c 56000000 		.4byte	.LVL60
 9399 0e80 5E000000 		.4byte	.LVL61
 9400 0e84 0100     		.2byte	0x1
 9401 0e86 50       		.byte	0x50
 9402 0e87 5E000000 		.4byte	.LVL61
 9403 0e8b 60000000 		.4byte	.LVL62
 9404 0e8f 0200     		.2byte	0x2
 9405 0e91 30       		.byte	0x30
 9406 0e92 9F       		.byte	0x9f
 9407 0e93 62000000 		.4byte	.LVL64
 9408 0e97 92000000 		.4byte	.LVL66
 9409 0e9b 0200     		.2byte	0x2
 9410 0e9d 30       		.byte	0x30
 9411 0e9e 9F       		.byte	0x9f
 9412 0e9f 94000000 		.4byte	.LVL67
 9413 0ea3 A6000000 		.4byte	.LVL68
 9414 0ea7 0200     		.2byte	0x2
 9415 0ea9 30       		.byte	0x30
 9416 0eaa 9F       		.byte	0x9f
 9417 0eab A8000000 		.4byte	.LVL69
 9418 0eaf E0000000 		.4byte	.LVL75
 9419 0eb3 0200     		.2byte	0x2
 9420 0eb5 30       		.byte	0x30
 9421 0eb6 9F       		.byte	0x9f
 9422 0eb7 00000000 		.4byte	0
 9423 0ebb 00000000 		.4byte	0
 9424              	.LLST22:
 9425 0ebf 10000000 		.4byte	.LVL53
 9426 0ec3 23000000 		.4byte	.LVL54-1
 9427 0ec7 0100     		.2byte	0x1
 9428 0ec9 50       		.byte	0x50
 9429 0eca 23000000 		.4byte	.LVL54-1
 9430 0ece 56000000 		.4byte	.LVL60
 9431 0ed2 0100     		.2byte	0x1
 9432 0ed4 54       		.byte	0x54
 9433 0ed5 62000000 		.4byte	.LVL64
 9434 0ed9 72000000 		.4byte	.LVL65
 9435 0edd 0100     		.2byte	0x1
 9436 0edf 50       		.byte	0x50
 9437 0ee0 72000000 		.4byte	.LVL65
 9438 0ee4 A6000000 		.4byte	.LVL68
 9439 0ee8 0100     		.2byte	0x1
 9440 0eea 54       		.byte	0x54
 9441 0eeb A8000000 		.4byte	.LVL69
 9442 0eef E8000000 		.4byte	.LFE44
 9443 0ef3 0100     		.2byte	0x1
 9444 0ef5 54       		.byte	0x54
 9445 0ef6 00000000 		.4byte	0
 9446 0efa 00000000 		.4byte	0
 9447              	.LLST23:
 9448 0efe 10000000 		.4byte	.LVL53
 9449 0f02 28000000 		.4byte	.LVL55
 9450 0f06 0200     		.2byte	0x2
 9451 0f08 30       		.byte	0x30
ARM GAS  C:\Users\EBANO_~1\AppData\Local\Temp\cc7eeVhF.s 			page 216


 9452 0f09 9F       		.byte	0x9f
 9453 0f0a 28000000 		.4byte	.LVL55
 9454 0f0e 2A000000 		.4byte	.LVL56
 9455 0f12 0100     		.2byte	0x1
 9456 0f14 50       		.byte	0x50
 9457 0f15 2A000000 		.4byte	.LVL56
 9458 0f19 3C000000 		.4byte	.LVL58
 9459 0f1d 0100     		.2byte	0x1
 9460 0f1f 56       		.byte	0x56
 9461 0f20 62000000 		.4byte	.LVL64
 9462 0f24 72000000 		.4byte	.LVL65
 9463 0f28 0200     		.2byte	0x2
 9464 0f2a 30       		.byte	0x30
 9465 0f2b 9F       		.byte	0x9f
 9466 0f2c 94000000 		.4byte	.LVL67
 9467 0f30 A6000000 		.4byte	.LVL68
 9468 0f34 0100     		.2byte	0x1
 9469 0f36 56       		.byte	0x56
 9470 0f37 00000000 		.4byte	0
 9471 0f3b 00000000 		.4byte	0
 9472              	.LLST24:
 9473 0f3f 94000000 		.4byte	.LVL67
 9474 0f43 A6000000 		.4byte	.LVL68
 9475 0f47 0100     		.2byte	0x1
 9476 0f49 54       		.byte	0x54
 9477 0f4a 00000000 		.4byte	0
 9478 0f4e 00000000 		.4byte	0
 9479              	.LLST25:
 9480 0f52 3C000000 		.4byte	.LVL58
 9481 0f56 56000000 		.4byte	.LVL60
 9482 0f5a 0100     		.2byte	0x1
 9483 0f5c 54       		.byte	0x54
 9484 0f5d 72000000 		.4byte	.LVL65
 9485 0f61 92000000 		.4byte	.LVL66
 9486 0f65 0100     		.2byte	0x1
 9487 0f67 54       		.byte	0x54
 9488 0f68 A8000000 		.4byte	.LVL69
 9489 0f6c E0000000 		.4byte	.LVL75
 9490 0f70 0100     		.2byte	0x1
 9491 0f72 54       		.byte	0x54
 9492 0f73 00000000 		.4byte	0
 9493 0f77 00000000 		.4byte	0
 9494              	.LLST26:
 9495 0f7b 3C000000 		.4byte	.LVL58
 9496 0f7f 46000000 		.4byte	.LVL59
 9497 0f83 0200     		.2byte	0x2
 9498 0f85 30       		.byte	0x30
 9499 0f86 9F       		.byte	0x9f
 9500 0f87 72000000 		.4byte	.LVL65
 9501 0f8b 92000000 		.4byte	.LVL66
 9502 0f8f 0200     		.2byte	0x2
 9503 0f91 30       		.byte	0x30
 9504 0f92 9F       		.byte	0x9f
 9505 0f93 A8000000 		.4byte	.LVL69
 9506 0f97 BA000000 		.4byte	.LVL71
 9507 0f9b 0200     		.2byte	0x2
 9508 0f9d 30       		.byte	0x30
ARM GAS  C:\Users\EBANO_~1\AppData\Local\Temp\cc7eeVhF.s 			page 217


 9509 0f9e 9F       		.byte	0x9f
 9510 0f9f BA000000 		.4byte	.LVL71
 9511 0fa3 BC000000 		.4byte	.LVL72
 9512 0fa7 0100     		.2byte	0x1
 9513 0fa9 50       		.byte	0x50
 9514 0faa BC000000 		.4byte	.LVL72
 9515 0fae E0000000 		.4byte	.LVL75
 9516 0fb2 0100     		.2byte	0x1
 9517 0fb4 56       		.byte	0x56
 9518 0fb5 00000000 		.4byte	0
 9519 0fb9 00000000 		.4byte	0
 9520              	.LLST27:
 9521 0fbd D0000000 		.4byte	.LVL74
 9522 0fc1 E0000000 		.4byte	.LVL75
 9523 0fc5 0100     		.2byte	0x1
 9524 0fc7 54       		.byte	0x54
 9525 0fc8 00000000 		.4byte	0
 9526 0fcc 00000000 		.4byte	0
 9527              	.LLST11:
 9528 0fd0 00000000 		.4byte	.LFB43
 9529 0fd4 02000000 		.4byte	.LCFI2
 9530 0fd8 0200     		.2byte	0x2
 9531 0fda 7D       		.byte	0x7d
 9532 0fdb 00       		.sleb128 0
 9533 0fdc 02000000 		.4byte	.LCFI2
 9534 0fe0 06000000 		.4byte	.LCFI3
 9535 0fe4 0200     		.2byte	0x2
 9536 0fe6 7D       		.byte	0x7d
 9537 0fe7 10       		.sleb128 16
 9538 0fe8 06000000 		.4byte	.LCFI3
 9539 0fec E0000000 		.4byte	.LFE43
 9540 0ff0 0200     		.2byte	0x2
 9541 0ff2 7D       		.byte	0x7d
 9542 0ff3 18       		.sleb128 24
 9543 0ff4 00000000 		.4byte	0
 9544 0ff8 00000000 		.4byte	0
 9545              	.LLST12:
 9546 0ffc 00000000 		.4byte	.LVL31
 9547 1000 20000000 		.4byte	.LVL32
 9548 1004 0100     		.2byte	0x1
 9549 1006 50       		.byte	0x50
 9550 1007 20000000 		.4byte	.LVL32
 9551 100b 46000000 		.4byte	.LVL34
 9552 100f 0100     		.2byte	0x1
 9553 1011 54       		.byte	0x54
 9554 1012 46000000 		.4byte	.LVL34
 9555 1016 48000000 		.4byte	.LVL35
 9556 101a 0400     		.2byte	0x4
 9557 101c F3       		.byte	0xf3
 9558 101d 01       		.uleb128 0x1
 9559 101e 50       		.byte	0x50
 9560 101f 9F       		.byte	0x9f
 9561 1020 48000000 		.4byte	.LVL35
 9562 1024 68000000 		.4byte	.LVL37
 9563 1028 0100     		.2byte	0x1
 9564 102a 50       		.byte	0x50
 9565 102b 68000000 		.4byte	.LVL37
ARM GAS  C:\Users\EBANO_~1\AppData\Local\Temp\cc7eeVhF.s 			page 218


 9566 102f 9E000000 		.4byte	.LVL44
 9567 1033 0100     		.2byte	0x1
 9568 1035 54       		.byte	0x54
 9569 1036 9E000000 		.4byte	.LVL44
 9570 103a A0000000 		.4byte	.LVL45
 9571 103e 0100     		.2byte	0x1
 9572 1040 50       		.byte	0x50
 9573 1041 A0000000 		.4byte	.LVL45
 9574 1045 A2000000 		.4byte	.LVL46
 9575 1049 0100     		.2byte	0x1
 9576 104b 54       		.byte	0x54
 9577 104c A2000000 		.4byte	.LVL46
 9578 1050 A8000000 		.4byte	.LVL47
 9579 1054 0100     		.2byte	0x1
 9580 1056 50       		.byte	0x50
 9581 1057 A8000000 		.4byte	.LVL47
 9582 105b B6000000 		.4byte	.LVL49
 9583 105f 0100     		.2byte	0x1
 9584 1061 54       		.byte	0x54
 9585 1062 B6000000 		.4byte	.LVL49
 9586 1066 BE000000 		.4byte	.LVL50
 9587 106a 0100     		.2byte	0x1
 9588 106c 50       		.byte	0x50
 9589 106d BE000000 		.4byte	.LVL50
 9590 1071 E0000000 		.4byte	.LFE43
 9591 1075 0100     		.2byte	0x1
 9592 1077 54       		.byte	0x54
 9593 1078 00000000 		.4byte	0
 9594 107c 00000000 		.4byte	0
 9595              	.LLST13:
 9596 1080 00000000 		.4byte	.LVL31
 9597 1084 44000000 		.4byte	.LVL33
 9598 1088 0200     		.2byte	0x2
 9599 108a 30       		.byte	0x30
 9600 108b 9F       		.byte	0x9f
 9601 108c 48000000 		.4byte	.LVL35
 9602 1090 B4000000 		.4byte	.LVL48
 9603 1094 0200     		.2byte	0x2
 9604 1096 30       		.byte	0x30
 9605 1097 9F       		.byte	0x9f
 9606 1098 B6000000 		.4byte	.LVL49
 9607 109c CE000000 		.4byte	.LVL51
 9608 10a0 0200     		.2byte	0x2
 9609 10a2 30       		.byte	0x30
 9610 10a3 9F       		.byte	0x9f
 9611 10a4 00000000 		.4byte	0
 9612 10a8 00000000 		.4byte	0
 9613              	.LLST14:
 9614 10ac 48000000 		.4byte	.LVL35
 9615 10b0 68000000 		.4byte	.LVL37
 9616 10b4 0100     		.2byte	0x1
 9617 10b6 50       		.byte	0x50
 9618 10b7 68000000 		.4byte	.LVL37
 9619 10bb 9E000000 		.4byte	.LVL44
 9620 10bf 0100     		.2byte	0x1
 9621 10c1 54       		.byte	0x54
 9622 10c2 A2000000 		.4byte	.LVL46
ARM GAS  C:\Users\EBANO_~1\AppData\Local\Temp\cc7eeVhF.s 			page 219


 9623 10c6 A8000000 		.4byte	.LVL47
 9624 10ca 0100     		.2byte	0x1
 9625 10cc 50       		.byte	0x50
 9626 10cd A8000000 		.4byte	.LVL47
 9627 10d1 B4000000 		.4byte	.LVL48
 9628 10d5 0100     		.2byte	0x1
 9629 10d7 54       		.byte	0x54
 9630 10d8 B6000000 		.4byte	.LVL49
 9631 10dc BE000000 		.4byte	.LVL50
 9632 10e0 0100     		.2byte	0x1
 9633 10e2 50       		.byte	0x50
 9634 10e3 BE000000 		.4byte	.LVL50
 9635 10e7 CE000000 		.4byte	.LVL51
 9636 10eb 0100     		.2byte	0x1
 9637 10ed 54       		.byte	0x54
 9638 10ee 00000000 		.4byte	0
 9639 10f2 00000000 		.4byte	0
 9640              	.LLST15:
 9641 10f6 48000000 		.4byte	.LVL35
 9642 10fa 9E000000 		.4byte	.LVL44
 9643 10fe 0200     		.2byte	0x2
 9644 1100 30       		.byte	0x30
 9645 1101 9F       		.byte	0x9f
 9646 1102 A2000000 		.4byte	.LVL46
 9647 1106 E0000000 		.4byte	.LFE43
 9648 110a 0200     		.2byte	0x2
 9649 110c 30       		.byte	0x30
 9650 110d 9F       		.byte	0x9f
 9651 110e 00000000 		.4byte	0
 9652 1112 00000000 		.4byte	0
 9653              	.LLST16:
 9654 1116 62000000 		.4byte	.LVL36
 9655 111a 9E000000 		.4byte	.LVL44
 9656 111e 0200     		.2byte	0x2
 9657 1120 31       		.byte	0x31
 9658 1121 9F       		.byte	0x9f
 9659 1122 BE000000 		.4byte	.LVL50
 9660 1126 E0000000 		.4byte	.LFE43
 9661 112a 0200     		.2byte	0x2
 9662 112c 31       		.byte	0x31
 9663 112d 9F       		.byte	0x9f
 9664 112e 00000000 		.4byte	0
 9665 1132 00000000 		.4byte	0
 9666              	.LLST17:
 9667 1136 80000000 		.4byte	.LVL39
 9668 113a 9E000000 		.4byte	.LVL44
 9669 113e 0100     		.2byte	0x1
 9670 1140 54       		.byte	0x54
 9671 1141 BE000000 		.4byte	.LVL50
 9672 1145 E0000000 		.4byte	.LFE43
 9673 1149 0100     		.2byte	0x1
 9674 114b 54       		.byte	0x54
 9675 114c 00000000 		.4byte	0
 9676 1150 00000000 		.4byte	0
 9677              	.LLST18:
 9678 1154 88000000 		.4byte	.LVL41
 9679 1158 8A000000 		.4byte	.LVL42
ARM GAS  C:\Users\EBANO_~1\AppData\Local\Temp\cc7eeVhF.s 			page 220


 9680 115c 0100     		.2byte	0x1
 9681 115e 50       		.byte	0x50
 9682 115f 8A000000 		.4byte	.LVL42
 9683 1163 9E000000 		.4byte	.LVL44
 9684 1167 0100     		.2byte	0x1
 9685 1169 56       		.byte	0x56
 9686 116a BE000000 		.4byte	.LVL50
 9687 116e E0000000 		.4byte	.LFE43
 9688 1172 0100     		.2byte	0x1
 9689 1174 56       		.byte	0x56
 9690 1175 00000000 		.4byte	0
 9691 1179 00000000 		.4byte	0
 9692              	.LLST2:
 9693 117d 00000000 		.4byte	.LFB40
 9694 1181 02000000 		.4byte	.LCFI1
 9695 1185 0200     		.2byte	0x2
 9696 1187 7D       		.byte	0x7d
 9697 1188 00       		.sleb128 0
 9698 1189 02000000 		.4byte	.LCFI1
 9699 118d 3C010000 		.4byte	.LFE40
 9700 1191 0200     		.2byte	0x2
 9701 1193 7D       		.byte	0x7d
 9702 1194 10       		.sleb128 16
 9703 1195 00000000 		.4byte	0
 9704 1199 00000000 		.4byte	0
 9705              	.LLST3:
 9706 119d 00000000 		.4byte	.LVL8
 9707 11a1 06000000 		.4byte	.LVL9
 9708 11a5 0100     		.2byte	0x1
 9709 11a7 50       		.byte	0x50
 9710 11a8 06000000 		.4byte	.LVL9
 9711 11ac EC000000 		.4byte	.LVL25
 9712 11b0 0100     		.2byte	0x1
 9713 11b2 54       		.byte	0x54
 9714 11b3 EC000000 		.4byte	.LVL25
 9715 11b7 EE000000 		.4byte	.LVL26
 9716 11bb 0400     		.2byte	0x4
 9717 11bd F3       		.byte	0xf3
 9718 11be 01       		.uleb128 0x1
 9719 11bf 50       		.byte	0x50
 9720 11c0 9F       		.byte	0x9f
 9721 11c1 EE000000 		.4byte	.LVL26
 9722 11c5 3C010000 		.4byte	.LFE40
 9723 11c9 0100     		.2byte	0x1
 9724 11cb 54       		.byte	0x54
 9725 11cc 00000000 		.4byte	0
 9726 11d0 00000000 		.4byte	0
 9727              	.LLST4:
 9728 11d4 00000000 		.4byte	.LVL8
 9729 11d8 68000000 		.4byte	.LVL16
 9730 11dc 0200     		.2byte	0x2
 9731 11de 30       		.byte	0x30
 9732 11df 9F       		.byte	0x9f
 9733 11e0 68000000 		.4byte	.LVL16
 9734 11e4 6A000000 		.4byte	.LVL17
 9735 11e8 0200     		.2byte	0x2
 9736 11ea 31       		.byte	0x31
ARM GAS  C:\Users\EBANO_~1\AppData\Local\Temp\cc7eeVhF.s 			page 221


 9737 11eb 9F       		.byte	0x9f
 9738 11ec 6A000000 		.4byte	.LVL17
 9739 11f0 E6000000 		.4byte	.LVL24
 9740 11f4 0200     		.2byte	0x2
 9741 11f6 30       		.byte	0x30
 9742 11f7 9F       		.byte	0x9f
 9743 11f8 EE000000 		.4byte	.LVL26
 9744 11fc 10010000 		.4byte	.LVL28
 9745 1200 0200     		.2byte	0x2
 9746 1202 30       		.byte	0x30
 9747 1203 9F       		.byte	0x9f
 9748 1204 10010000 		.4byte	.LVL28
 9749 1208 12010000 		.4byte	.LVL29
 9750 120c 0200     		.2byte	0x2
 9751 120e 31       		.byte	0x31
 9752 120f 9F       		.byte	0x9f
 9753 1210 12010000 		.4byte	.LVL29
 9754 1214 22010000 		.4byte	.LVL30
 9755 1218 0200     		.2byte	0x2
 9756 121a 30       		.byte	0x30
 9757 121b 9F       		.byte	0x9f
 9758 121c 22010000 		.4byte	.LVL30
 9759 1220 3C010000 		.4byte	.LFE40
 9760 1224 0200     		.2byte	0x2
 9761 1226 31       		.byte	0x31
 9762 1227 9F       		.byte	0x9f
 9763 1228 00000000 		.4byte	0
 9764 122c 00000000 		.4byte	0
 9765              	.LLST5:
 9766 1230 14000000 		.4byte	.LVL10
 9767 1234 E6000000 		.4byte	.LVL24
 9768 1238 0100     		.2byte	0x1
 9769 123a 54       		.byte	0x54
 9770 123b EE000000 		.4byte	.LVL26
 9771 123f 10010000 		.4byte	.LVL28
 9772 1243 0100     		.2byte	0x1
 9773 1245 54       		.byte	0x54
 9774 1246 12010000 		.4byte	.LVL29
 9775 124a 3C010000 		.4byte	.LFE40
 9776 124e 0100     		.2byte	0x1
 9777 1250 54       		.byte	0x54
 9778 1251 00000000 		.4byte	0
 9779 1255 00000000 		.4byte	0
 9780              	.LLST6:
 9781 1259 14000000 		.4byte	.LVL10
 9782 125d 2A000000 		.4byte	.LVL12
 9783 1261 0200     		.2byte	0x2
 9784 1263 30       		.byte	0x30
 9785 1264 9F       		.byte	0x9f
 9786 1265 2A000000 		.4byte	.LVL12
 9787 1269 2C000000 		.4byte	.LVL13
 9788 126d 0100     		.2byte	0x1
 9789 126f 50       		.byte	0x50
 9790 1270 2C000000 		.4byte	.LVL13
 9791 1274 3E000000 		.4byte	.LVL15
 9792 1278 0100     		.2byte	0x1
 9793 127a 56       		.byte	0x56
ARM GAS  C:\Users\EBANO_~1\AppData\Local\Temp\cc7eeVhF.s 			page 222


 9794 127b EE000000 		.4byte	.LVL26
 9795 127f FE000000 		.4byte	.LVL27
 9796 1283 0200     		.2byte	0x2
 9797 1285 30       		.byte	0x30
 9798 1286 9F       		.byte	0x9f
 9799 1287 FE000000 		.4byte	.LVL27
 9800 128b 10010000 		.4byte	.LVL28
 9801 128f 0100     		.2byte	0x1
 9802 1291 56       		.byte	0x56
 9803 1292 00000000 		.4byte	0
 9804 1296 00000000 		.4byte	0
 9805              	.LLST7:
 9806 129a FE000000 		.4byte	.LVL27
 9807 129e 10010000 		.4byte	.LVL28
 9808 12a2 0100     		.2byte	0x1
 9809 12a4 54       		.byte	0x54
 9810 12a5 00000000 		.4byte	0
 9811 12a9 00000000 		.4byte	0
 9812              	.LLST8:
 9813 12ad 3E000000 		.4byte	.LVL15
 9814 12b1 68000000 		.4byte	.LVL16
 9815 12b5 0100     		.2byte	0x1
 9816 12b7 54       		.byte	0x54
 9817 12b8 6A000000 		.4byte	.LVL17
 9818 12bc E6000000 		.4byte	.LVL24
 9819 12c0 0100     		.2byte	0x1
 9820 12c2 54       		.byte	0x54
 9821 12c3 12010000 		.4byte	.LVL29
 9822 12c7 22010000 		.4byte	.LVL30
 9823 12cb 0100     		.2byte	0x1
 9824 12cd 54       		.byte	0x54
 9825 12ce 00000000 		.4byte	0
 9826 12d2 00000000 		.4byte	0
 9827              	.LLST9:
 9828 12d6 3E000000 		.4byte	.LVL15
 9829 12da 68000000 		.4byte	.LVL16
 9830 12de 0200     		.2byte	0x2
 9831 12e0 30       		.byte	0x30
 9832 12e1 9F       		.byte	0x9f
 9833 12e2 6A000000 		.4byte	.LVL17
 9834 12e6 7C000000 		.4byte	.LVL19
 9835 12ea 0200     		.2byte	0x2
 9836 12ec 30       		.byte	0x30
 9837 12ed 9F       		.byte	0x9f
 9838 12ee 7C000000 		.4byte	.LVL19
 9839 12f2 7E000000 		.4byte	.LVL20
 9840 12f6 0100     		.2byte	0x1
 9841 12f8 50       		.byte	0x50
 9842 12f9 7E000000 		.4byte	.LVL20
 9843 12fd 90000000 		.4byte	.LVL22
 9844 1301 0100     		.2byte	0x1
 9845 1303 56       		.byte	0x56
 9846 1304 12010000 		.4byte	.LVL29
 9847 1308 22010000 		.4byte	.LVL30
 9848 130c 0100     		.2byte	0x1
 9849 130e 56       		.byte	0x56
 9850 130f 00000000 		.4byte	0
ARM GAS  C:\Users\EBANO_~1\AppData\Local\Temp\cc7eeVhF.s 			page 223


 9851 1313 00000000 		.4byte	0
 9852              	.LLST10:
 9853 1317 12010000 		.4byte	.LVL29
 9854 131b 22010000 		.4byte	.LVL30
 9855 131f 0100     		.2byte	0x1
 9856 1321 54       		.byte	0x54
 9857 1322 00000000 		.4byte	0
 9858 1326 00000000 		.4byte	0
 9859              	.LLST0:
 9860 132a 00000000 		.4byte	.LFB39
 9861 132e 02000000 		.4byte	.LCFI0
 9862 1332 0200     		.2byte	0x2
 9863 1334 7D       		.byte	0x7d
 9864 1335 00       		.sleb128 0
 9865 1336 02000000 		.4byte	.LCFI0
 9866 133a C8010000 		.4byte	.LFE39
 9867 133e 0200     		.2byte	0x2
 9868 1340 7D       		.byte	0x7d
 9869 1341 10       		.sleb128 16
 9870 1342 00000000 		.4byte	0
 9871 1346 00000000 		.4byte	0
 9872              	.LLST1:
 9873 134a 00000000 		.4byte	.LVL1
 9874 134e 18000000 		.4byte	.LVL2
 9875 1352 0100     		.2byte	0x1
 9876 1354 50       		.byte	0x50
 9877 1355 18000000 		.4byte	.LVL2
 9878 1359 3C010000 		.4byte	.LVL3
 9879 135d 0100     		.2byte	0x1
 9880 135f 54       		.byte	0x54
 9881 1360 3C010000 		.4byte	.LVL3
 9882 1364 3E010000 		.4byte	.LVL4
 9883 1368 0400     		.2byte	0x4
 9884 136a F3       		.byte	0xf3
 9885 136b 01       		.uleb128 0x1
 9886 136c 50       		.byte	0x50
 9887 136d 9F       		.byte	0x9f
 9888 136e 3E010000 		.4byte	.LVL4
 9889 1372 47010000 		.4byte	.LVL5-1
 9890 1376 0100     		.2byte	0x1
 9891 1378 50       		.byte	0x50
 9892 1379 47010000 		.4byte	.LVL5-1
 9893 137d 52010000 		.4byte	.LVL6
 9894 1381 0100     		.2byte	0x1
 9895 1383 54       		.byte	0x54
 9896 1384 52010000 		.4byte	.LVL6
 9897 1388 54010000 		.4byte	.LVL7
 9898 138c 0100     		.2byte	0x1
 9899 138e 50       		.byte	0x50
 9900 138f 54010000 		.4byte	.LVL7
 9901 1393 C8010000 		.4byte	.LFE39
 9902 1397 0100     		.2byte	0x1
 9903 1399 54       		.byte	0x54
 9904 139a 00000000 		.4byte	0
 9905 139e 00000000 		.4byte	0
 9906              		.section	.debug_aranges,"",%progbits
 9907 0000 B4000000 		.4byte	0xb4
ARM GAS  C:\Users\EBANO_~1\AppData\Local\Temp\cc7eeVhF.s 			page 224


 9908 0004 0200     		.2byte	0x2
 9909 0006 00000000 		.4byte	.Ldebug_info0
 9910 000a 04       		.byte	0x4
 9911 000b 00       		.byte	0
 9912 000c 0000     		.2byte	0
 9913 000e 0000     		.2byte	0
 9914 0010 00000000 		.4byte	.LFB41
 9915 0014 02000000 		.4byte	.LFE41-.LFB41
 9916 0018 00000000 		.4byte	.LFB39
 9917 001c C8010000 		.4byte	.LFE39-.LFB39
 9918 0020 00000000 		.4byte	.LFB40
 9919 0024 3C010000 		.4byte	.LFE40-.LFB40
 9920 0028 00000000 		.4byte	.LFB43
 9921 002c E0000000 		.4byte	.LFE43-.LFB43
 9922 0030 00000000 		.4byte	.LFB44
 9923 0034 E8000000 		.4byte	.LFE44-.LFB44
 9924 0038 00000000 		.4byte	.LFB45
 9925 003c C0000000 		.4byte	.LFE45-.LFB45
 9926 0040 00000000 		.4byte	.LFB46
 9927 0044 78000000 		.4byte	.LFE46-.LFB46
 9928 0048 00000000 		.4byte	.LFB47
 9929 004c 00010000 		.4byte	.LFE47-.LFB47
 9930 0050 00000000 		.4byte	.LFB48
 9931 0054 F0000000 		.4byte	.LFE48-.LFB48
 9932 0058 00000000 		.4byte	.LFB49
 9933 005c 24010000 		.4byte	.LFE49-.LFB49
 9934 0060 00000000 		.4byte	.LFB50
 9935 0064 68010000 		.4byte	.LFE50-.LFB50
 9936 0068 00000000 		.4byte	.LFB51
 9937 006c 06000000 		.4byte	.LFE51-.LFB51
 9938 0070 00000000 		.4byte	.LFB64
 9939 0074 70000000 		.4byte	.LFE64-.LFB64
 9940 0078 00000000 		.4byte	.LFB65
 9941 007c 0A000000 		.4byte	.LFE65-.LFB65
 9942 0080 00000000 		.4byte	.LFB66
 9943 0084 1A000000 		.4byte	.LFE66-.LFB66
 9944 0088 00000000 		.4byte	.LFB52
 9945 008c EC000000 		.4byte	.LFE52-.LFB52
 9946 0090 00000000 		.4byte	.LFB57
 9947 0094 D4000000 		.4byte	.LFE57-.LFB57
 9948 0098 00000000 		.4byte	.LFB58
 9949 009c 98000000 		.4byte	.LFE58-.LFB58
 9950 00a0 00000000 		.4byte	.LFB59
 9951 00a4 04000000 		.4byte	.LFE59-.LFB59
 9952 00a8 00000000 		.4byte	.LFB60
 9953 00ac 04000000 		.4byte	.LFE60-.LFB60
 9954 00b0 00000000 		.4byte	0
 9955 00b4 00000000 		.4byte	0
 9956              		.section	.debug_ranges,"",%progbits
 9957              	.Ldebug_ranges0:
 9958 0000 0C000000 		.4byte	.LBB16
 9959 0004 0E000000 		.4byte	.LBE16
 9960 0008 14000000 		.4byte	.LBB22
 9961 000c 3E000000 		.4byte	.LBE22
 9962 0010 EE000000 		.4byte	.LBB28
 9963 0014 12010000 		.4byte	.LBE28
 9964 0018 00000000 		.4byte	0
ARM GAS  C:\Users\EBANO_~1\AppData\Local\Temp\cc7eeVhF.s 			page 225


 9965 001c 00000000 		.4byte	0
 9966 0020 3E000000 		.4byte	.LBB23
 9967 0024 90000000 		.4byte	.LBE23
 9968 0028 12010000 		.4byte	.LBB29
 9969 002c 3C010000 		.4byte	.LBE29
 9970 0030 00000000 		.4byte	0
 9971 0034 00000000 		.4byte	0
 9972 0038 48000000 		.4byte	.LBB38
 9973 003c 9E000000 		.4byte	.LBE38
 9974 0040 A2000000 		.4byte	.LBB47
 9975 0044 E0000000 		.4byte	.LBE47
 9976 0048 00000000 		.4byte	0
 9977 004c 00000000 		.4byte	0
 9978 0050 80000000 		.4byte	.LBB42
 9979 0054 9E000000 		.4byte	.LBE42
 9980 0058 BE000000 		.4byte	.LBB45
 9981 005c E0000000 		.4byte	.LBE45
 9982 0060 00000000 		.4byte	0
 9983 0064 00000000 		.4byte	0
 9984 0068 10000000 		.4byte	.LBB56
 9985 006c 3C000000 		.4byte	.LBE56
 9986 0070 62000000 		.4byte	.LBB68
 9987 0074 72000000 		.4byte	.LBE68
 9988 0078 94000000 		.4byte	.LBB70
 9989 007c A8000000 		.4byte	.LBE70
 9990 0080 00000000 		.4byte	0
 9991 0084 00000000 		.4byte	0
 9992 0088 3C000000 		.4byte	.LBB62
 9993 008c 46000000 		.4byte	.LBE62
 9994 0090 72000000 		.4byte	.LBB69
 9995 0094 94000000 		.4byte	.LBE69
 9996 0098 A8000000 		.4byte	.LBB71
 9997 009c E8000000 		.4byte	.LBE71
 9998 00a0 00000000 		.4byte	0
 9999 00a4 00000000 		.4byte	0
 10000 00a8 5E000000 		.4byte	.LBB80
 10001 00ac B4000000 		.4byte	.LBE80
 10002 00b0 C0000000 		.4byte	.LBB89
 10003 00b4 00010000 		.4byte	.LBE89
 10004 00b8 00000000 		.4byte	0
 10005 00bc 00000000 		.4byte	0
 10006 00c0 96000000 		.4byte	.LBB84
 10007 00c4 B4000000 		.4byte	.LBE84
 10008 00c8 DC000000 		.4byte	.LBB87
 10009 00cc 00010000 		.4byte	.LBE87
 10010 00d0 00000000 		.4byte	0
 10011 00d4 00000000 		.4byte	0
 10012 00d8 10000000 		.4byte	.LBB98
 10013 00dc 3C000000 		.4byte	.LBE98
 10014 00e0 6A000000 		.4byte	.LBB110
 10015 00e4 7A000000 		.4byte	.LBE110
 10016 00e8 9C000000 		.4byte	.LBB112
 10017 00ec B0000000 		.4byte	.LBE112
 10018 00f0 00000000 		.4byte	0
 10019 00f4 00000000 		.4byte	0
 10020 00f8 44000000 		.4byte	.LBB104
 10021 00fc 4E000000 		.4byte	.LBE104
ARM GAS  C:\Users\EBANO_~1\AppData\Local\Temp\cc7eeVhF.s 			page 226


 10022 0100 7A000000 		.4byte	.LBB111
 10023 0104 9C000000 		.4byte	.LBE111
 10024 0108 B0000000 		.4byte	.LBB113
 10025 010c F0000000 		.4byte	.LBE113
 10026 0110 00000000 		.4byte	0
 10027 0114 00000000 		.4byte	0
 10028 0118 28000000 		.4byte	.LBB122
 10029 011c 7E000000 		.4byte	.LBE122
 10030 0120 D8000000 		.4byte	.LBB131
 10031 0124 24010000 		.4byte	.LBE131
 10032 0128 00000000 		.4byte	0
 10033 012c 00000000 		.4byte	0
 10034 0130 60000000 		.4byte	.LBB126
 10035 0134 7E000000 		.4byte	.LBE126
 10036 0138 F4000000 		.4byte	.LBB129
 10037 013c 24010000 		.4byte	.LBE129
 10038 0140 00000000 		.4byte	0
 10039 0144 00000000 		.4byte	0
 10040 0148 10000000 		.4byte	.LBB144
 10041 014c 3C000000 		.4byte	.LBE144
 10042 0150 7E000000 		.4byte	.LBB158
 10043 0154 8E000000 		.4byte	.LBE158
 10044 0158 C8000000 		.4byte	.LBB166
 10045 015c DC000000 		.4byte	.LBE166
 10046 0160 00000000 		.4byte	0
 10047 0164 00000000 		.4byte	0
 10048 0168 50000000 		.4byte	.LBB150
 10049 016c 52000000 		.4byte	.LBE150
 10050 0170 5A000000 		.4byte	.LBB157
 10051 0174 62000000 		.4byte	.LBE157
 10052 0178 DC000000 		.4byte	.LBB167
 10053 017c FC000000 		.4byte	.LBE167
 10054 0180 2E010000 		.4byte	.LBB169
 10055 0184 68010000 		.4byte	.LBE169
 10056 0188 00000000 		.4byte	0
 10057 018c 00000000 		.4byte	0
 10058 0190 92000000 		.4byte	.LBB159
 10059 0194 94000000 		.4byte	.LBE159
 10060 0198 A2000000 		.4byte	.LBB165
 10061 019c C8000000 		.4byte	.LBE165
 10062 01a0 FC000000 		.4byte	.LBB168
 10063 01a4 2E010000 		.4byte	.LBE168
 10064 01a8 00000000 		.4byte	0
 10065 01ac 00000000 		.4byte	0
 10066 01b0 00000000 		.4byte	.LFB41
 10067 01b4 02000000 		.4byte	.LFE41
 10068 01b8 00000000 		.4byte	.LFB39
 10069 01bc C8010000 		.4byte	.LFE39
 10070 01c0 00000000 		.4byte	.LFB40
 10071 01c4 3C010000 		.4byte	.LFE40
 10072 01c8 00000000 		.4byte	.LFB43
 10073 01cc E0000000 		.4byte	.LFE43
 10074 01d0 00000000 		.4byte	.LFB44
 10075 01d4 E8000000 		.4byte	.LFE44
 10076 01d8 00000000 		.4byte	.LFB45
 10077 01dc C0000000 		.4byte	.LFE45
 10078 01e0 00000000 		.4byte	.LFB46
ARM GAS  C:\Users\EBANO_~1\AppData\Local\Temp\cc7eeVhF.s 			page 227


 10079 01e4 78000000 		.4byte	.LFE46
 10080 01e8 00000000 		.4byte	.LFB47
 10081 01ec 00010000 		.4byte	.LFE47
 10082 01f0 00000000 		.4byte	.LFB48
 10083 01f4 F0000000 		.4byte	.LFE48
 10084 01f8 00000000 		.4byte	.LFB49
 10085 01fc 24010000 		.4byte	.LFE49
 10086 0200 00000000 		.4byte	.LFB50
 10087 0204 68010000 		.4byte	.LFE50
 10088 0208 00000000 		.4byte	.LFB51
 10089 020c 06000000 		.4byte	.LFE51
 10090 0210 00000000 		.4byte	.LFB64
 10091 0214 70000000 		.4byte	.LFE64
 10092 0218 00000000 		.4byte	.LFB65
 10093 021c 0A000000 		.4byte	.LFE65
 10094 0220 00000000 		.4byte	.LFB66
 10095 0224 1A000000 		.4byte	.LFE66
 10096 0228 00000000 		.4byte	.LFB52
 10097 022c EC000000 		.4byte	.LFE52
 10098 0230 00000000 		.4byte	.LFB57
 10099 0234 D4000000 		.4byte	.LFE57
 10100 0238 00000000 		.4byte	.LFB58
 10101 023c 98000000 		.4byte	.LFE58
 10102 0240 00000000 		.4byte	.LFB59
 10103 0244 04000000 		.4byte	.LFE59
 10104 0248 00000000 		.4byte	.LFB60
 10105 024c 04000000 		.4byte	.LFE60
 10106 0250 00000000 		.4byte	0
 10107 0254 00000000 		.4byte	0
 10108              		.section	.debug_line,"",%progbits
 10109              	.Ldebug_line0:
 10110 0000 E9080000 		.section	.debug_str,"MS",%progbits,1
 10110      0200C102 
 10110      00000201 
 10110      FB0E0D00 
 10110      01010101 
 10111              	.LASF157:
 10112 0000 44697265 		.ascii	"Direction\000"
 10112      6374696F 
 10112      6E00
 10113              	.LASF207:
 10114 000a 52616E6B 		.ascii	"Rank\000"
 10114      00
 10115              	.LASF145:
 10116 000f 5F5F6C6F 		.ascii	"__locale_t\000"
 10116      63616C65 
 10116      5F7400
 10117              	.LASF44:
 10118 001a 5F5F7661 		.ascii	"__value\000"
 10118      6C756500 
 10119              	.LASF112:
 10120 0022 5F5F7366 		.ascii	"__sf\000"
 10120      00
 10121              	.LASF152:
 10122 0027 48414C5F 		.ascii	"HAL_StatusTypeDef\000"
 10122      53746174 
 10122      75735479 
ARM GAS  C:\Users\EBANO_~1\AppData\Local\Temp\cc7eeVhF.s 			page 228


 10122      70654465 
 10122      6600
 10123              	.LASF79:
 10124 0039 5F726561 		.ascii	"_read\000"
 10124      6400
 10125              	.LASF170:
 10126 003f 48414C5F 		.ascii	"HAL_DMA_STATE_READY_HALF\000"
 10126      444D415F 
 10126      53544154 
 10126      455F5245 
 10126      4144595F 
 10127              	.LASF80:
 10128 0058 5F777269 		.ascii	"_write\000"
 10128      746500
 10129              	.LASF224:
 10130 005f 4144435F 		.ascii	"ADC_ConversionStop\000"
 10130      436F6E76 
 10130      65727369 
 10130      6F6E5374 
 10130      6F7000
 10131              	.LASF124:
 10132 0072 5F617363 		.ascii	"_asctime_buf\000"
 10132      74696D65 
 10132      5F627566 
 10132      00
 10133              	.LASF106:
 10134 007f 5F637674 		.ascii	"_cvtlen\000"
 10134      6C656E00 
 10135              	.LASF222:
 10136 0087 77616974 		.ascii	"waitLoopIndex\000"
 10136      4C6F6F70 
 10136      496E6465 
 10136      7800
 10137              	.LASF241:
 10138 0095 48414C5F 		.ascii	"HAL_ADC_Stop_DMA\000"
 10138      4144435F 
 10138      53746F70 
 10138      5F444D41 
 10138      00
 10139              	.LASF143:
 10140 00a6 5F756E75 		.ascii	"_unused\000"
 10140      73656400 
 10141              	.LASF53:
 10142 00ae 5F5F746D 		.ascii	"__tm\000"
 10142      00
 10143              	.LASF139:
 10144 00b3 5F776373 		.ascii	"_wcsrtombs_state\000"
 10144      72746F6D 
 10144      62735F73 
 10144      74617465 
 10144      00
 10145              	.LASF84:
 10146 00c4 5F6E6275 		.ascii	"_nbuf\000"
 10146      6600
 10147              	.LASF54:
 10148 00ca 5F5F746D 		.ascii	"__tm_sec\000"
 10148      5F736563 
ARM GAS  C:\Users\EBANO_~1\AppData\Local\Temp\cc7eeVhF.s 			page 229


 10148      00
 10149              	.LASF132:
 10150 00d3 5F6C3634 		.ascii	"_l64a_buf\000"
 10150      615F6275 
 10150      6600
 10151              	.LASF88:
 10152 00dd 5F6C6F63 		.ascii	"_lock\000"
 10152      6B00
 10153              	.LASF253:
 10154 00e3 48414C5F 		.ascii	"HAL_ADC_Start\000"
 10154      4144435F 
 10154      53746172 
 10154      7400
 10155              	.LASF254:
 10156 00f1 48414C5F 		.ascii	"HAL_ADC_MspDeInit\000"
 10156      4144435F 
 10156      4D737044 
 10156      65496E69 
 10156      7400
 10157              	.LASF29:
 10158 0103 434E4454 		.ascii	"CNDTR\000"
 10158      5200
 10159              	.LASF120:
 10160 0109 5F6D756C 		.ascii	"_mult\000"
 10160      7400
 10161              	.LASF193:
 10162 010f 4C6F7750 		.ascii	"LowPowerAutoWait\000"
 10162      6F776572 
 10162      4175746F 
 10162      57616974 
 10162      00
 10163              	.LASF227:
 10164 0120 48414C5F 		.ascii	"HAL_ADC_GetError\000"
 10164      4144435F 
 10164      47657445 
 10164      72726F72 
 10164      00
 10165              	.LASF220:
 10166 0131 4144435F 		.ascii	"ADC_DMAConvCplt\000"
 10166      444D4143 
 10166      6F6E7643 
 10166      706C7400 
 10167              	.LASF263:
 10168 0141 4144435F 		.ascii	"ADC_DelayMicroSecond\000"
 10168      44656C61 
 10168      794D6963 
 10168      726F5365 
 10168      636F6E64 
 10169              	.LASF198:
 10170 0156 45787465 		.ascii	"ExternalTrigConvEdge\000"
 10170      726E616C 
 10170      54726967 
 10170      436F6E76 
 10170      45646765 
 10171              	.LASF41:
 10172 016b 5F5F7763 		.ascii	"__wch\000"
 10172      6800
ARM GAS  C:\Users\EBANO_~1\AppData\Local\Temp\cc7eeVhF.s 			page 230


 10173              	.LASF175:
 10174 0171 4C6F636B 		.ascii	"Lock\000"
 10174      00
 10175              	.LASF5:
 10176 0176 5F5F7569 		.ascii	"__uint8_t\000"
 10176      6E74385F 
 10176      7400
 10177              	.LASF76:
 10178 0180 5F66696C 		.ascii	"_file\000"
 10178      6500
 10179              	.LASF63:
 10180 0186 5F6F6E5F 		.ascii	"_on_exit_args\000"
 10180      65786974 
 10180      5F617267 
 10180      7300
 10181              	.LASF135:
 10182 0194 5F6D6272 		.ascii	"_mbrlen_state\000"
 10182      6C656E5F 
 10182      73746174 
 10182      6500
 10183              	.LASF4:
 10184 01a2 6C6F6E67 		.ascii	"long int\000"
 10184      20696E74 
 10184      00
 10185              	.LASF146:
 10186 01ab 5F696D70 		.ascii	"_impure_ptr\000"
 10186      7572655F 
 10186      70747200 
 10187              	.LASF103:
 10188 01b7 5F726573 		.ascii	"_result_k\000"
 10188      756C745F 
 10188      6B00
 10189              	.LASF229:
 10190 01c1 48414C5F 		.ascii	"HAL_ADC_AnalogWDGConfig\000"
 10190      4144435F 
 10190      416E616C 
 10190      6F675744 
 10190      47436F6E 
 10191              	.LASF73:
 10192 01d9 5F73697A 		.ascii	"_size\000"
 10192      6500
 10193              	.LASF125:
 10194 01df 5F6C6F63 		.ascii	"_localtime_buf\000"
 10194      616C7469 
 10194      6D655F62 
 10194      756600
 10195              	.LASF163:
 10196 01ee 5072696F 		.ascii	"Priority\000"
 10196      72697479 
 10196      00
 10197              	.LASF19:
 10198 01f7 534D5052 		.ascii	"SMPR\000"
 10198      00
 10199              	.LASF182:
 10200 01fc 4572726F 		.ascii	"ErrorCode\000"
 10200      72436F64 
 10200      6500
ARM GAS  C:\Users\EBANO_~1\AppData\Local\Temp\cc7eeVhF.s 			page 231


 10201              	.LASF58:
 10202 0206 5F5F746D 		.ascii	"__tm_mon\000"
 10202      5F6D6F6E 
 10202      00
 10203              	.LASF155:
 10204 020f 48414C5F 		.ascii	"HAL_LockTypeDef\000"
 10204      4C6F636B 
 10204      54797065 
 10204      44656600 
 10205              	.LASF206:
 10206 021f 4368616E 		.ascii	"Channel\000"
 10206      6E656C00 
 10207              	.LASF30:
 10208 0227 43504152 		.ascii	"CPAR\000"
 10208      00
 10209              	.LASF216:
 10210 022c 4144435F 		.ascii	"ADC_DMAError\000"
 10210      444D4145 
 10210      72726F72 
 10210      00
 10211              	.LASF122:
 10212 0239 5F756E75 		.ascii	"_unused_rand\000"
 10212      7365645F 
 10212      72616E64 
 10212      00
 10213              	.LASF0:
 10214 0246 7369676E 		.ascii	"signed char\000"
 10214      65642063 
 10214      68617200 
 10215              	.LASF11:
 10216 0252 75696E74 		.ascii	"uint8_t\000"
 10216      385F7400 
 10217              	.LASF148:
 10218 025a 48414C5F 		.ascii	"HAL_OK\000"
 10218      4F4B00
 10219              	.LASF230:
 10220 0261 416E616C 		.ascii	"AnalogWDGConfig\000"
 10220      6F675744 
 10220      47436F6E 
 10220      66696700 
 10221              	.LASF221:
 10222 0271 6D696372 		.ascii	"microSecond\000"
 10222      6F536563 
 10222      6F6E6400 
 10223              	.LASF258:
 10224 027d 48414C5F 		.ascii	"HAL_DMA_Abort\000"
 10224      444D415F 
 10224      41626F72 
 10224      7400
 10225              	.LASF213:
 10226 028b 4144435F 		.ascii	"ADC_AnalogWDGConfTypeDef\000"
 10226      416E616C 
 10226      6F675744 
 10226      47436F6E 
 10226      66547970 
 10227              	.LASF20:
 10228 02a4 52455345 		.ascii	"RESERVED1\000"
ARM GAS  C:\Users\EBANO_~1\AppData\Local\Temp\cc7eeVhF.s 			page 232


 10228      52564544 
 10228      3100
 10229              	.LASF1:
 10230 02ae 756E7369 		.ascii	"unsigned char\000"
 10230      676E6564 
 10230      20636861 
 10230      7200
 10231              	.LASF22:
 10232 02bc 52455345 		.ascii	"RESERVED3\000"
 10232      52564544 
 10232      3300
 10233              	.LASF24:
 10234 02c6 52455345 		.ascii	"RESERVED4\000"
 10234      52564544 
 10234      3400
 10235              	.LASF25:
 10236 02d0 52455345 		.ascii	"RESERVED5\000"
 10236      52564544 
 10236      3500
 10237              	.LASF208:
 10238 02da 4144435F 		.ascii	"ADC_ChannelConfTypeDef\000"
 10238      4368616E 
 10238      6E656C43 
 10238      6F6E6654 
 10238      79706544 
 10239              	.LASF247:
 10240 02f1 48414C5F 		.ascii	"HAL_ADC_PollForEvent\000"
 10240      4144435F 
 10240      506F6C6C 
 10240      466F7245 
 10240      76656E74 
 10241              	.LASF235:
 10242 0306 73436F6E 		.ascii	"sConfig\000"
 10242      66696700 
 10243              	.LASF191:
 10244 030e 5363616E 		.ascii	"ScanConvMode\000"
 10244      436F6E76 
 10244      4D6F6465 
 10244      00
 10245              	.LASF98:
 10246 031b 5F756E73 		.ascii	"_unspecified_locale_info\000"
 10246      70656369 
 10246      66696564 
 10246      5F6C6F63 
 10246      616C655F 
 10247              	.LASF91:
 10248 0334 5F726565 		.ascii	"_reent\000"
 10248      6E7400
 10249              	.LASF147:
 10250 033b 5F676C6F 		.ascii	"_global_impure_ptr\000"
 10250      62616C5F 
 10250      696D7075 
 10250      72655F70 
 10250      747200
 10251              	.LASF186:
 10252 034e 54726967 		.ascii	"TriggeredMode\000"
 10252      67657265 
ARM GAS  C:\Users\EBANO_~1\AppData\Local\Temp\cc7eeVhF.s 			page 233


 10252      644D6F64 
 10252      6500
 10253              	.LASF21:
 10254 035c 52455345 		.ascii	"RESERVED2\000"
 10254      52564544 
 10254      3200
 10255              	.LASF202:
 10256 0366 53616D70 		.ascii	"SamplingTime\000"
 10256      6C696E67 
 10256      54696D65 
 10256      00
 10257              	.LASF113:
 10258 0373 63686172 		.ascii	"char\000"
 10258      00
 10259              	.LASF70:
 10260 0378 5F666E73 		.ascii	"_fns\000"
 10260      00
 10261              	.LASF82:
 10262 037d 5F636C6F 		.ascii	"_close\000"
 10262      736500
 10263              	.LASF252:
 10264 0384 48414C5F 		.ascii	"HAL_ADC_Stop\000"
 10264      4144435F 
 10264      53746F70 
 10264      00
 10265              	.LASF140:
 10266 0391 5F685F65 		.ascii	"_h_errno\000"
 10266      72726E6F 
 10266      00
 10267              	.LASF262:
 10268 039a 443A5C67 		.ascii	"D:\\git_pessoal\\keil_gcc\\STM32CubeExpansion_LRWAN"
 10268      69745F70 
 10268      6573736F 
 10268      616C5C6B 
 10268      65696C5F 
 10269 03ca 5F56312E 		.ascii	"_V1.2.1\\Projects\\B-L072Z-LRWAN1\\Applications\\Lo"
 10269      322E315C 
 10269      50726F6A 
 10269      65637473 
 10269      5C422D4C 
 10270 03f9 52615C45 		.ascii	"Ra\\End_Node\\MDK-ARM\000"
 10270      6E645F4E 
 10270      6F64655C 
 10270      4D444B2D 
 10270      41524D00 
 10271              	.LASF93:
 10272 040d 5F737464 		.ascii	"_stdin\000"
 10272      696E00
 10273              	.LASF249:
 10274 0414 54696D65 		.ascii	"Timeout\000"
 10274      6F757400 
 10275              	.LASF169:
 10276 041c 48414C5F 		.ascii	"HAL_DMA_STATE_ERROR\000"
 10276      444D415F 
 10276      53544154 
 10276      455F4552 
 10276      524F5200 
ARM GAS  C:\Users\EBANO_~1\AppData\Local\Temp\cc7eeVhF.s 			page 234


 10277              	.LASF159:
 10278 0430 4D656D49 		.ascii	"MemInc\000"
 10278      6E6300
 10279              	.LASF194:
 10280 0437 4C6F7750 		.ascii	"LowPowerAutoPowerOff\000"
 10280      6F776572 
 10280      4175746F 
 10280      506F7765 
 10280      724F6666 
 10281              	.LASF158:
 10282 044c 50657269 		.ascii	"PeriphInc\000"
 10282      7068496E 
 10282      6300
 10283              	.LASF181:
 10284 0456 58666572 		.ascii	"XferAbortCallback\000"
 10284      41626F72 
 10284      7443616C 
 10284      6C626163 
 10284      6B00
 10285              	.LASF257:
 10286 0468 48414C5F 		.ascii	"HAL_GetTick\000"
 10286      47657454 
 10286      69636B00 
 10287              	.LASF160:
 10288 0474 50657269 		.ascii	"PeriphDataAlignment\000"
 10288      70684461 
 10288      7461416C 
 10288      69676E6D 
 10288      656E7400 
 10289              	.LASF251:
 10290 0488 746D705F 		.ascii	"tmp_Flag_EOC\000"
 10290      466C6167 
 10290      5F454F43 
 10290      00
 10291              	.LASF27:
 10292 0495 4144435F 		.ascii	"ADC_TypeDef\000"
 10292      54797065 
 10292      44656600 
 10293              	.LASF78:
 10294 04a1 5F636F6F 		.ascii	"_cookie\000"
 10294      6B696500 
 10295              	.LASF51:
 10296 04a9 5F776473 		.ascii	"_wds\000"
 10296      00
 10297              	.LASF218:
 10298 04ae 68646D61 		.ascii	"hdma\000"
 10298      00
 10299              	.LASF144:
 10300 04b3 5F5F6C6F 		.ascii	"__lock\000"
 10300      636B00
 10301              	.LASF110:
 10302 04ba 5F736967 		.ascii	"_sig_func\000"
 10302      5F66756E 
 10302      6300
 10303              	.LASF86:
 10304 04c4 5F6F6666 		.ascii	"_offset\000"
 10304      73657400 
ARM GAS  C:\Users\EBANO_~1\AppData\Local\Temp\cc7eeVhF.s 			page 235


 10305              	.LASF16:
 10306 04cc 504C4C4D 		.ascii	"PLLMulTable\000"
 10306      756C5461 
 10306      626C6500 
 10307              	.LASF107:
 10308 04d8 5F637674 		.ascii	"_cvtbuf\000"
 10308      62756600 
 10309              	.LASF212:
 10310 04e0 4C6F7754 		.ascii	"LowThreshold\000"
 10310      68726573 
 10310      686F6C64 
 10310      00
 10311              	.LASF173:
 10312 04ed 496E7374 		.ascii	"Instance\000"
 10312      616E6365 
 10312      00
 10313              	.LASF187:
 10314 04f6 4144435F 		.ascii	"ADC_OversamplingTypeDef\000"
 10314      4F766572 
 10314      73616D70 
 10314      6C696E67 
 10314      54797065 
 10315              	.LASF236:
 10316 050e 48414C5F 		.ascii	"HAL_ADC_ErrorCallback\000"
 10316      4144435F 
 10316      4572726F 
 10316      7243616C 
 10316      6C626163 
 10317              	.LASF209:
 10318 0524 57617463 		.ascii	"WatchdogMode\000"
 10318      68646F67 
 10318      4D6F6465 
 10318      00
 10319              	.LASF196:
 10320 0531 44697363 		.ascii	"DiscontinuousConvMode\000"
 10320      6F6E7469 
 10320      6E756F75 
 10320      73436F6E 
 10320      764D6F64 
 10321              	.LASF104:
 10322 0547 5F703573 		.ascii	"_p5s\000"
 10322      00
 10323              	.LASF7:
 10324 054c 6C6F6E67 		.ascii	"long unsigned int\000"
 10324      20756E73 
 10324      69676E65 
 10324      6420696E 
 10324      7400
 10325              	.LASF231:
 10326 055e 746D705F 		.ascii	"tmp_hal_status\000"
 10326      68616C5F 
 10326      73746174 
 10326      757300
 10327              	.LASF232:
 10328 056d 746D7041 		.ascii	"tmpAWDHighThresholdShifted\000"
 10328      57444869 
 10328      67685468 
ARM GAS  C:\Users\EBANO_~1\AppData\Local\Temp\cc7eeVhF.s 			page 236


 10328      72657368 
 10328      6F6C6453 
 10329              	.LASF74:
 10330 0588 5F5F7346 		.ascii	"__sFILE\000"
 10330      494C4500 
 10331              	.LASF100:
 10332 0590 5F5F7364 		.ascii	"__sdidinit\000"
 10332      6964696E 
 10332      697400
 10333              	.LASF90:
 10334 059b 5F666C61 		.ascii	"_flags2\000"
 10334      67733200 
 10335              	.LASF264:
 10336 05a3 48414C5F 		.ascii	"HAL_ADC_IRQHandler\000"
 10336      4144435F 
 10336      49525148 
 10336      616E646C 
 10336      657200
 10337              	.LASF13:
 10338 05b6 53797374 		.ascii	"SystemCoreClock\000"
 10338      656D436F 
 10338      7265436C 
 10338      6F636B00 
 10339              	.LASF92:
 10340 05c6 5F657272 		.ascii	"_errno\000"
 10340      6E6F00
 10341              	.LASF133:
 10342 05cd 5F736967 		.ascii	"_signal_buf\000"
 10342      6E616C5F 
 10342      62756600 
 10343              	.LASF214:
 10344 05d9 444D415F 		.ascii	"DMA_Handle\000"
 10344      48616E64 
 10344      6C6500
 10345              	.LASF52:
 10346 05e4 5F426967 		.ascii	"_Bigint\000"
 10346      696E7400 
 10347              	.LASF49:
 10348 05ec 5F6D6178 		.ascii	"_maxwds\000"
 10348      77647300 
 10349              	.LASF219:
 10350 05f4 68616463 		.ascii	"hadc\000"
 10350      00
 10351              	.LASF101:
 10352 05f9 5F5F636C 		.ascii	"__cleanup\000"
 10352      65616E75 
 10352      7000
 10353              	.LASF109:
 10354 0603 5F617465 		.ascii	"_atexit0\000"
 10354      78697430 
 10354      00
 10355              	.LASF161:
 10356 060c 4D656D44 		.ascii	"MemDataAlignment\000"
 10356      61746141 
 10356      6C69676E 
 10356      6D656E74 
 10356      00
ARM GAS  C:\Users\EBANO_~1\AppData\Local\Temp\cc7eeVhF.s 			page 237


 10357              	.LASF6:
 10358 061d 5F5F7569 		.ascii	"__uint32_t\000"
 10358      6E743332 
 10358      5F7400
 10359              	.LASF97:
 10360 0628 5F656D65 		.ascii	"_emergency\000"
 10360      7267656E 
 10360      637900
 10361              	.LASF8:
 10362 0633 6C6F6E67 		.ascii	"long long int\000"
 10362      206C6F6E 
 10362      6720696E 
 10362      7400
 10363              	.LASF226:
 10364 0641 4144435F 		.ascii	"ADC_Enable\000"
 10364      456E6162 
 10364      6C6500
 10365              	.LASF116:
 10366 064c 5F6E696F 		.ascii	"_niobs\000"
 10366      627300
 10367              	.LASF111:
 10368 0653 5F5F7367 		.ascii	"__sglue\000"
 10368      6C756500 
 10369              	.LASF255:
 10370 065b 48414C5F 		.ascii	"HAL_ADC_DeInit\000"
 10370      4144435F 
 10370      4465496E 
 10370      697400
 10371              	.LASF142:
 10372 066a 5F6E6D61 		.ascii	"_nmalloc\000"
 10372      6C6C6F63 
 10372      00
 10373              	.LASF126:
 10374 0673 5F67616D 		.ascii	"_gamma_signgam\000"
 10374      6D615F73 
 10374      69676E67 
 10374      616D00
 10375              	.LASF211:
 10376 0682 48696768 		.ascii	"HighThreshold\000"
 10376      54687265 
 10376      73686F6C 
 10376      6400
 10377              	.LASF105:
 10378 0690 5F667265 		.ascii	"_freelist\000"
 10378      656C6973 
 10378      7400
 10379              	.LASF242:
 10380 069a 48414C5F 		.ascii	"HAL_ADC_Start_DMA\000"
 10380      4144435F 
 10380      53746172 
 10380      745F444D 
 10380      4100
 10381              	.LASF117:
 10382 06ac 5F696F62 		.ascii	"_iobs\000"
 10382      7300
 10383              	.LASF195:
 10384 06b2 436F6E74 		.ascii	"ContinuousConvMode\000"
ARM GAS  C:\Users\EBANO_~1\AppData\Local\Temp\cc7eeVhF.s 			page 238


 10384      696E756F 
 10384      7573436F 
 10384      6E764D6F 
 10384      646500
 10385              	.LASF115:
 10386 06c5 5F676C75 		.ascii	"_glue\000"
 10386      6500
 10387              	.LASF50:
 10388 06cb 5F736967 		.ascii	"_sign\000"
 10388      6E00
 10389              	.LASF237:
 10390 06d1 48414C5F 		.ascii	"HAL_ADC_LevelOutOfWindowCallback\000"
 10390      4144435F 
 10390      4C657665 
 10390      6C4F7574 
 10390      4F665769 
 10391              	.LASF225:
 10392 06f2 4144435F 		.ascii	"ADC_Disable\000"
 10392      44697361 
 10392      626C6500 
 10393              	.LASF168:
 10394 06fe 48414C5F 		.ascii	"HAL_DMA_STATE_TIMEOUT\000"
 10394      444D415F 
 10394      53544154 
 10394      455F5449 
 10394      4D454F55 
 10395              	.LASF10:
 10396 0714 756E7369 		.ascii	"unsigned int\000"
 10396      676E6564 
 10396      20696E74 
 10396      00
 10397              	.LASF201:
 10398 0721 4C6F7750 		.ascii	"LowPowerFrequencyMode\000"
 10398      6F776572 
 10398      46726571 
 10398      75656E63 
 10398      794D6F64 
 10399              	.LASF189:
 10400 0737 5265736F 		.ascii	"Resolution\000"
 10400      6C757469 
 10400      6F6E00
 10401              	.LASF17:
 10402 0742 43464752 		.ascii	"CFGR1\000"
 10402      3100
 10403              	.LASF18:
 10404 0748 43464752 		.ascii	"CFGR2\000"
 10404      3200
 10405              	.LASF245:
 10406 074e 48414C5F 		.ascii	"HAL_ADC_Stop_IT\000"
 10406      4144435F 
 10406      53746F70 
 10406      5F495400 
 10407              	.LASF138:
 10408 075e 5F776372 		.ascii	"_wcrtomb_state\000"
 10408      746F6D62 
 10408      5F737461 
 10408      746500
ARM GAS  C:\Users\EBANO_~1\AppData\Local\Temp\cc7eeVhF.s 			page 239


 10409              	.LASF57:
 10410 076d 5F5F746D 		.ascii	"__tm_mday\000"
 10410      5F6D6461 
 10410      7900
 10411              	.LASF261:
 10412 0777 2E2E2F2E 		.ascii	"../../../../../../Drivers/STM32L0xx_HAL_Driver/Src/"
 10412      2E2F2E2E 
 10412      2F2E2E2F 
 10412      2E2E2F2E 
 10412      2E2F4472 
 10413 07aa 73746D33 		.ascii	"stm32l0xx_hal_adc.c\000"
 10413      326C3078 
 10413      785F6861 
 10413      6C5F6164 
 10413      632E6300 
 10414              	.LASF108:
 10415 07be 5F6E6577 		.ascii	"_new\000"
 10415      00
 10416              	.LASF83:
 10417 07c3 5F756275 		.ascii	"_ubuf\000"
 10417      6600
 10418              	.LASF31:
 10419 07c9 434D4152 		.ascii	"CMAR\000"
 10419      00
 10420              	.LASF95:
 10421 07ce 5F737464 		.ascii	"_stderr\000"
 10421      65727200 
 10422              	.LASF131:
 10423 07d6 5F776374 		.ascii	"_wctomb_state\000"
 10423      6F6D625F 
 10423      73746174 
 10423      6500
 10424              	.LASF89:
 10425 07e4 5F6D6273 		.ascii	"_mbstate\000"
 10425      74617465 
 10425      00
 10426              	.LASF165:
 10427 07ed 48414C5F 		.ascii	"HAL_DMA_STATE_RESET\000"
 10427      444D415F 
 10427      53544154 
 10427      455F5245 
 10427      53455400 
 10428              	.LASF127:
 10429 0801 5F72616E 		.ascii	"_rand_next\000"
 10429      645F6E65 
 10429      787400
 10430              	.LASF75:
 10431 080c 5F666C61 		.ascii	"_flags\000"
 10431      677300
 10432              	.LASF177:
 10433 0813 50617265 		.ascii	"Parent\000"
 10433      6E7400
 10434              	.LASF174:
 10435 081a 496E6974 		.ascii	"Init\000"
 10435      00
 10436              	.LASF199:
 10437 081f 444D4143 		.ascii	"DMAContinuousRequests\000"
ARM GAS  C:\Users\EBANO_~1\AppData\Local\Temp\cc7eeVhF.s 			page 240


 10437      6F6E7469 
 10437      6E756F75 
 10437      73526571 
 10437      75657374 
 10438              	.LASF68:
 10439 0835 5F617465 		.ascii	"_atexit\000"
 10439      78697400 
 10440              	.LASF204:
 10441 083d 4F766572 		.ascii	"Oversample\000"
 10441      73616D70 
 10441      6C6500
 10442              	.LASF265:
 10443 0848 48414C5F 		.ascii	"HAL_ADC_MspInit\000"
 10443      4144435F 
 10443      4D737049 
 10443      6E697400 
 10444              	.LASF43:
 10445 0858 5F5F636F 		.ascii	"__count\000"
 10445      756E7400 
 10446              	.LASF239:
 10447 0860 48414C5F 		.ascii	"HAL_ADC_ConvCpltCallback\000"
 10447      4144435F 
 10447      436F6E76 
 10447      43706C74 
 10447      43616C6C 
 10448              	.LASF60:
 10449 0879 5F5F746D 		.ascii	"__tm_wday\000"
 10449      5F776461 
 10449      7900
 10450              	.LASF34:
 10451 0883 44495341 		.ascii	"DISABLE\000"
 10451      424C4500 
 10452              	.LASF180:
 10453 088b 58666572 		.ascii	"XferErrorCallback\000"
 10453      4572726F 
 10453      7243616C 
 10453      6C626163 
 10453      6B00
 10454              	.LASF36:
 10455 089d 6C6F6E67 		.ascii	"long double\000"
 10455      20646F75 
 10455      626C6500 
 10456              	.LASF61:
 10457 08a9 5F5F746D 		.ascii	"__tm_yday\000"
 10457      5F796461 
 10457      7900
 10458              	.LASF210:
 10459 08b3 49544D6F 		.ascii	"ITMode\000"
 10459      646500
 10460              	.LASF162:
 10461 08ba 4D6F6465 		.ascii	"Mode\000"
 10461      00
 10462              	.LASF119:
 10463 08bf 5F736565 		.ascii	"_seed\000"
 10463      6400
 10464              	.LASF81:
 10465 08c5 5F736565 		.ascii	"_seek\000"
ARM GAS  C:\Users\EBANO_~1\AppData\Local\Temp\cc7eeVhF.s 			page 241


 10465      6B00
 10466              	.LASF228:
 10467 08cb 48414C5F 		.ascii	"HAL_ADC_GetState\000"
 10467      4144435F 
 10467      47657453 
 10467      74617465 
 10467      00
 10468              	.LASF39:
 10469 08dc 5F66706F 		.ascii	"_fpos_t\000"
 10469      735F7400 
 10470              	.LASF150:
 10471 08e4 48414C5F 		.ascii	"HAL_BUSY\000"
 10471      42555359 
 10471      00
 10472              	.LASF42:
 10473 08ed 5F5F7763 		.ascii	"__wchb\000"
 10473      686200
 10474              	.LASF32:
 10475 08f4 444D415F 		.ascii	"DMA_Channel_TypeDef\000"
 10475      4368616E 
 10475      6E656C5F 
 10475      54797065 
 10475      44656600 
 10476              	.LASF14:
 10477 0908 41484250 		.ascii	"AHBPrescTable\000"
 10477      72657363 
 10477      5461626C 
 10477      6500
 10478              	.LASF130:
 10479 0916 5F6D6274 		.ascii	"_mbtowc_state\000"
 10479      6F77635F 
 10479      73746174 
 10479      6500
 10480              	.LASF9:
 10481 0924 6C6F6E67 		.ascii	"long long unsigned int\000"
 10481      206C6F6E 
 10481      6720756E 
 10481      7369676E 
 10481      65642069 
 10482              	.LASF172:
 10483 093b 5F5F444D 		.ascii	"__DMA_HandleTypeDef\000"
 10483      415F4861 
 10483      6E646C65 
 10483      54797065 
 10483      44656600 
 10484              	.LASF217:
 10485 094f 4144435F 		.ascii	"ADC_DMAHalfConvCplt\000"
 10485      444D4148 
 10485      616C6643 
 10485      6F6E7643 
 10485      706C7400 
 10486              	.LASF65:
 10487 0963 5F64736F 		.ascii	"_dso_handle\000"
 10487      5F68616E 
 10487      646C6500 
 10488              	.LASF118:
 10489 096f 5F72616E 		.ascii	"_rand48\000"
ARM GAS  C:\Users\EBANO_~1\AppData\Local\Temp\cc7eeVhF.s 			page 242


 10489      64343800 
 10490              	.LASF149:
 10491 0977 48414C5F 		.ascii	"HAL_ERROR\000"
 10491      4552524F 
 10491      5200
 10492              	.LASF94:
 10493 0981 5F737464 		.ascii	"_stdout\000"
 10493      6F757400 
 10494              	.LASF234:
 10495 0989 48414C5F 		.ascii	"HAL_ADC_ConfigChannel\000"
 10495      4144435F 
 10495      436F6E66 
 10495      69674368 
 10495      616E6E65 
 10496              	.LASF176:
 10497 099f 53746174 		.ascii	"State\000"
 10497      6500
 10498              	.LASF153:
 10499 09a5 48414C5F 		.ascii	"HAL_UNLOCKED\000"
 10499      554E4C4F 
 10499      434B4544 
 10499      00
 10500              	.LASF183:
 10501 09b2 444D415F 		.ascii	"DMA_HandleTypeDef\000"
 10501      48616E64 
 10501      6C655479 
 10501      70654465 
 10501      6600
 10502              	.LASF85:
 10503 09c4 5F626C6B 		.ascii	"_blksize\000"
 10503      73697A65 
 10503      00
 10504              	.LASF178:
 10505 09cd 58666572 		.ascii	"XferCpltCallback\000"
 10505      43706C74 
 10505      43616C6C 
 10505      6261636B 
 10505      00
 10506              	.LASF72:
 10507 09de 5F626173 		.ascii	"_base\000"
 10507      6500
 10508              	.LASF203:
 10509 09e4 4F766572 		.ascii	"OversamplingMode\000"
 10509      73616D70 
 10509      6C696E67 
 10509      4D6F6465 
 10509      00
 10510              	.LASF123:
 10511 09f5 5F737472 		.ascii	"_strtok_last\000"
 10511      746F6B5F 
 10511      6C617374 
 10511      00
 10512              	.LASF136:
 10513 0a02 5F6D6272 		.ascii	"_mbrtowc_state\000"
 10513      746F7763 
 10513      5F737461 
 10513      746500
ARM GAS  C:\Users\EBANO_~1\AppData\Local\Temp\cc7eeVhF.s 			page 243


 10514              	.LASF46:
 10515 0a11 5F666C6F 		.ascii	"_flock_t\000"
 10515      636B5F74 
 10515      00
 10516              	.LASF184:
 10517 0a1a 52617469 		.ascii	"Ratio\000"
 10517      6F00
 10518              	.LASF114:
 10519 0a20 5F5F4649 		.ascii	"__FILE\000"
 10519      4C4500
 10520              	.LASF33:
 10521 0a27 52455345 		.ascii	"RESET\000"
 10521      5400
 10522              	.LASF45:
 10523 0a2d 5F6D6273 		.ascii	"_mbstate_t\000"
 10523      74617465 
 10523      5F7400
 10524              	.LASF246:
 10525 0a38 48414C5F 		.ascii	"HAL_ADC_Start_IT\000"
 10525      4144435F 
 10525      53746172 
 10525      745F4954 
 10525      00
 10526              	.LASF128:
 10527 0a49 5F723438 		.ascii	"_r48\000"
 10527      00
 10528              	.LASF200:
 10529 0a4e 4F766572 		.ascii	"Overrun\000"
 10529      72756E00 
 10530              	.LASF244:
 10531 0a56 4C656E67 		.ascii	"Length\000"
 10531      746800
 10532              	.LASF40:
 10533 0a5d 77696E74 		.ascii	"wint_t\000"
 10533      5F7400
 10534              	.LASF48:
 10535 0a64 5F6E6578 		.ascii	"_next\000"
 10535      7400
 10536              	.LASF87:
 10537 0a6a 5F646174 		.ascii	"_data\000"
 10537      6100
 10538              	.LASF197:
 10539 0a70 45787465 		.ascii	"ExternalTrigConv\000"
 10539      726E616C 
 10539      54726967 
 10539      436F6E76 
 10539      00
 10540              	.LASF167:
 10541 0a81 48414C5F 		.ascii	"HAL_DMA_STATE_BUSY\000"
 10541      444D415F 
 10541      53544154 
 10541      455F4255 
 10541      535900
 10542              	.LASF192:
 10543 0a94 454F4353 		.ascii	"EOCSelection\000"
 10543      656C6563 
 10543      74696F6E 
ARM GAS  C:\Users\EBANO_~1\AppData\Local\Temp\cc7eeVhF.s 			page 244


 10543      00
 10544              	.LASF156:
 10545 0aa1 52657175 		.ascii	"Request\000"
 10545      65737400 
 10546              	.LASF164:
 10547 0aa9 444D415F 		.ascii	"DMA_InitTypeDef\000"
 10547      496E6974 
 10547      54797065 
 10547      44656600 
 10548              	.LASF215:
 10549 0ab9 4144435F 		.ascii	"ADC_HandleTypeDef\000"
 10549      48616E64 
 10549      6C655479 
 10549      70654465 
 10549      6600
 10550              	.LASF15:
 10551 0acb 41504250 		.ascii	"APBPrescTable\000"
 10551      72657363 
 10551      5461626C 
 10551      6500
 10552              	.LASF129:
 10553 0ad9 5F6D626C 		.ascii	"_mblen_state\000"
 10553      656E5F73 
 10553      74617465 
 10553      00
 10554              	.LASF205:
 10555 0ae6 4144435F 		.ascii	"ADC_InitTypeDef\000"
 10555      496E6974 
 10555      54797065 
 10555      44656600 
 10556              	.LASF26:
 10557 0af6 43414C46 		.ascii	"CALFACT\000"
 10557      41435400 
 10558              	.LASF2:
 10559 0afe 73686F72 		.ascii	"short int\000"
 10559      7420696E 
 10559      7400
 10560              	.LASF250:
 10561 0b08 48414C5F 		.ascii	"HAL_ADC_PollForConversion\000"
 10561      4144435F 
 10561      506F6C6C 
 10561      466F7243 
 10561      6F6E7665 
 10562              	.LASF248:
 10563 0b22 4576656E 		.ascii	"EventType\000"
 10563      74547970 
 10563      6500
 10564              	.LASF256:
 10565 0b2c 48414C5F 		.ascii	"HAL_ADC_Init\000"
 10565      4144435F 
 10565      496E6974 
 10565      00
 10566              	.LASF260:
 10567 0b39 474E5520 		.ascii	"GNU C11 7.3.1 20180622 (release) [ARM/embedded-7-br"
 10567      43313120 
 10567      372E332E 
 10567      31203230 
ARM GAS  C:\Users\EBANO_~1\AppData\Local\Temp\cc7eeVhF.s 			page 245


 10567      31383036 
 10568 0b6c 616E6368 		.ascii	"anch revision 261907] -mcpu=cortex-m0plus -mthumb -"
 10568      20726576 
 10568      6973696F 
 10568      6E203236 
 10568      31393037 
 10569 0b9f 6D666C6F 		.ascii	"mfloat-abi=soft -gdwarf-2 -O3 -ffunction-sections\000"
 10569      61742D61 
 10569      62693D73 
 10569      6F667420 
 10569      2D676477 
 10570              	.LASF171:
 10571 0bd1 48414C5F 		.ascii	"HAL_DMA_StateTypeDef\000"
 10571      444D415F 
 10571      53746174 
 10571      65547970 
 10571      65446566 
 10572              	.LASF66:
 10573 0be6 5F666E74 		.ascii	"_fntypes\000"
 10573      79706573 
 10573      00
 10574              	.LASF35:
 10575 0bef 454E4142 		.ascii	"ENABLE\000"
 10575      4C4500
 10576              	.LASF59:
 10577 0bf6 5F5F746D 		.ascii	"__tm_year\000"
 10577      5F796561 
 10577      7200
 10578              	.LASF188:
 10579 0c00 436C6F63 		.ascii	"ClockPrescaler\000"
 10579      6B507265 
 10579      7363616C 
 10579      657200
 10580              	.LASF240:
 10581 0c0f 48414C5F 		.ascii	"HAL_ADC_GetValue\000"
 10581      4144435F 
 10581      47657456 
 10581      616C7565 
 10581      00
 10582              	.LASF77:
 10583 0c20 5F6C6266 		.ascii	"_lbfsize\000"
 10583      73697A65 
 10583      00
 10584              	.LASF96:
 10585 0c29 5F696E63 		.ascii	"_inc\000"
 10585      00
 10586              	.LASF69:
 10587 0c2e 5F696E64 		.ascii	"_ind\000"
 10587      00
 10588              	.LASF190:
 10589 0c33 44617461 		.ascii	"DataAlign\000"
 10589      416C6967 
 10589      6E00
 10590              	.LASF259:
 10591 0c3d 48414C5F 		.ascii	"HAL_DMA_Start_IT\000"
 10591      444D415F 
 10591      53746172 
ARM GAS  C:\Users\EBANO_~1\AppData\Local\Temp\cc7eeVhF.s 			page 246


 10591      745F4954 
 10591      00
 10592              	.LASF179:
 10593 0c4e 58666572 		.ascii	"XferHalfCpltCallback\000"
 10593      48616C66 
 10593      43706C74 
 10593      43616C6C 
 10593      6261636B 
 10594              	.LASF71:
 10595 0c63 5F5F7362 		.ascii	"__sbuf\000"
 10595      756600
 10596              	.LASF67:
 10597 0c6a 5F69735F 		.ascii	"_is_cxa\000"
 10597      63786100 
 10598              	.LASF37:
 10599 0c72 5F4C4F43 		.ascii	"_LOCK_T\000"
 10599      4B5F5400 
 10600              	.LASF141:
 10601 0c7a 5F6E6578 		.ascii	"_nextf\000"
 10601      746600
 10602              	.LASF99:
 10603 0c81 5F6C6F63 		.ascii	"_locale\000"
 10603      616C6500 
 10604              	.LASF47:
 10605 0c89 5F5F554C 		.ascii	"__ULong\000"
 10605      6F6E6700 
 10606              	.LASF233:
 10607 0c91 746D7041 		.ascii	"tmpAWDLowThresholdShifted\000"
 10607      57444C6F 
 10607      77546872 
 10607      6573686F 
 10607      6C645368 
 10608              	.LASF223:
 10609 0cab 7469636B 		.ascii	"tickstart\000"
 10609      73746172 
 10609      7400
 10610              	.LASF12:
 10611 0cb5 75696E74 		.ascii	"uint32_t\000"
 10611      33325F74 
 10611      00
 10612              	.LASF102:
 10613 0cbe 5F726573 		.ascii	"_result\000"
 10613      756C7400 
 10614              	.LASF238:
 10615 0cc6 48414C5F 		.ascii	"HAL_ADC_ConvHalfCpltCallback\000"
 10615      4144435F 
 10615      436F6E76 
 10615      48616C66 
 10615      43706C74 
 10616              	.LASF38:
 10617 0ce3 5F6F6666 		.ascii	"_off_t\000"
 10617      5F7400
 10618              	.LASF23:
 10619 0cea 43485345 		.ascii	"CHSELR\000"
 10619      4C5200
 10620              	.LASF185:
 10621 0cf1 52696768 		.ascii	"RightBitShift\000"
ARM GAS  C:\Users\EBANO_~1\AppData\Local\Temp\cc7eeVhF.s 			page 247


 10621      74426974 
 10621      53686966 
 10621      7400
 10622              	.LASF154:
 10623 0cff 48414C5F 		.ascii	"HAL_LOCKED\000"
 10623      4C4F434B 
 10623      454400
 10624              	.LASF121:
 10625 0d0a 5F616464 		.ascii	"_add\000"
 10625      00
 10626              	.LASF151:
 10627 0d0f 48414C5F 		.ascii	"HAL_TIMEOUT\000"
 10627      54494D45 
 10627      4F555400 
 10628              	.LASF3:
 10629 0d1b 73686F72 		.ascii	"short unsigned int\000"
 10629      7420756E 
 10629      7369676E 
 10629      65642069 
 10629      6E7400
 10630              	.LASF56:
 10631 0d2e 5F5F746D 		.ascii	"__tm_hour\000"
 10631      5F686F75 
 10631      7200
 10632              	.LASF166:
 10633 0d38 48414C5F 		.ascii	"HAL_DMA_STATE_READY\000"
 10633      444D415F 
 10633      53544154 
 10633      455F5245 
 10633      41445900 
 10634              	.LASF137:
 10635 0d4c 5F6D6273 		.ascii	"_mbsrtowcs_state\000"
 10635      72746F77 
 10635      63735F73 
 10635      74617465 
 10635      00
 10636              	.LASF28:
 10637 0d5d 4144435F 		.ascii	"ADC_Common_TypeDef\000"
 10637      436F6D6D 
 10637      6F6E5F54 
 10637      79706544 
 10637      656600
 10638              	.LASF243:
 10639 0d70 70446174 		.ascii	"pData\000"
 10639      6100
 10640              	.LASF64:
 10641 0d76 5F666E61 		.ascii	"_fnargs\000"
 10641      72677300 
 10642              	.LASF62:
 10643 0d7e 5F5F746D 		.ascii	"__tm_isdst\000"
 10643      5F697364 
 10643      737400
 10644              	.LASF55:
 10645 0d89 5F5F746D 		.ascii	"__tm_min\000"
 10645      5F6D696E 
 10645      00
 10646              	.LASF134:
ARM GAS  C:\Users\EBANO_~1\AppData\Local\Temp\cc7eeVhF.s 			page 248


 10647 0d92 5F676574 		.ascii	"_getdate_err\000"
 10647      64617465 
 10647      5F657272 
 10647      00
 10648              		.ident	"GCC: (GNU Tools for Arm Embedded Processors 7-2018-q2-update) 7.3.1 20180622 (release) [AR
ARM GAS  C:\Users\EBANO_~1\AppData\Local\Temp\cc7eeVhF.s 			page 249


DEFINED SYMBOLS
                            *ABS*:00000000 stm32l0xx_hal_adc.c
C:\Users\EBANO_~1\AppData\Local\Temp\cc7eeVhF.s:16     .text.HAL_ADC_MspInit:00000000 $t
C:\Users\EBANO_~1\AppData\Local\Temp\cc7eeVhF.s:24     .text.HAL_ADC_MspInit:00000000 HAL_ADC_MspInit
C:\Users\EBANO_~1\AppData\Local\Temp\cc7eeVhF.s:40     .text.HAL_ADC_Init:00000000 $t
C:\Users\EBANO_~1\AppData\Local\Temp\cc7eeVhF.s:48     .text.HAL_ADC_Init:00000000 HAL_ADC_Init
C:\Users\EBANO_~1\AppData\Local\Temp\cc7eeVhF.s:387    .text.HAL_ADC_Init:000001b0 $d
C:\Users\EBANO_~1\AppData\Local\Temp\cc7eeVhF.s:397    .text.HAL_ADC_MspDeInit:00000000 $t
C:\Users\EBANO_~1\AppData\Local\Temp\cc7eeVhF.s:405    .text.HAL_ADC_MspDeInit:00000000 HAL_ADC_MspDeInit
C:\Users\EBANO_~1\AppData\Local\Temp\cc7eeVhF.s:417    .text.HAL_ADC_DeInit:00000000 $t
C:\Users\EBANO_~1\AppData\Local\Temp\cc7eeVhF.s:425    .text.HAL_ADC_DeInit:00000000 HAL_ADC_DeInit
C:\Users\EBANO_~1\AppData\Local\Temp\cc7eeVhF.s:702    .text.HAL_ADC_DeInit:00000124 $d
C:\Users\EBANO_~1\AppData\Local\Temp\cc7eeVhF.s:717    .text.HAL_ADC_Start:00000000 $t
C:\Users\EBANO_~1\AppData\Local\Temp\cc7eeVhF.s:725    .text.HAL_ADC_Start:00000000 HAL_ADC_Start
C:\Users\EBANO_~1\AppData\Local\Temp\cc7eeVhF.s:932    .text.HAL_ADC_Start:000000d0 $d
C:\Users\EBANO_~1\AppData\Local\Temp\cc7eeVhF.s:944    .text.HAL_ADC_Stop:00000000 $t
C:\Users\EBANO_~1\AppData\Local\Temp\cc7eeVhF.s:952    .text.HAL_ADC_Stop:00000000 HAL_ADC_Stop
C:\Users\EBANO_~1\AppData\Local\Temp\cc7eeVhF.s:1187   .text.HAL_ADC_Stop:000000e4 $d
C:\Users\EBANO_~1\AppData\Local\Temp\cc7eeVhF.s:1196   .text.HAL_ADC_PollForConversion:00000000 $t
C:\Users\EBANO_~1\AppData\Local\Temp\cc7eeVhF.s:1204   .text.HAL_ADC_PollForConversion:00000000 HAL_ADC_PollForConversion
C:\Users\EBANO_~1\AppData\Local\Temp\cc7eeVhF.s:1369   .text.HAL_ADC_PollForConversion:000000bc $d
C:\Users\EBANO_~1\AppData\Local\Temp\cc7eeVhF.s:1374   .text.HAL_ADC_PollForEvent:00000000 $t
C:\Users\EBANO_~1\AppData\Local\Temp\cc7eeVhF.s:1382   .text.HAL_ADC_PollForEvent:00000000 HAL_ADC_PollForEvent
C:\Users\EBANO_~1\AppData\Local\Temp\cc7eeVhF.s:1501   .text.HAL_ADC_Start_IT:00000000 $t
C:\Users\EBANO_~1\AppData\Local\Temp\cc7eeVhF.s:1509   .text.HAL_ADC_Start_IT:00000000 HAL_ADC_Start_IT
C:\Users\EBANO_~1\AppData\Local\Temp\cc7eeVhF.s:1737   .text.HAL_ADC_Start_IT:000000f0 $d
C:\Users\EBANO_~1\AppData\Local\Temp\cc7eeVhF.s:1749   .text.HAL_ADC_Stop_IT:00000000 $t
C:\Users\EBANO_~1\AppData\Local\Temp\cc7eeVhF.s:1757   .text.HAL_ADC_Stop_IT:00000000 HAL_ADC_Stop_IT
C:\Users\EBANO_~1\AppData\Local\Temp\cc7eeVhF.s:1998   .text.HAL_ADC_Stop_IT:000000ec $d
C:\Users\EBANO_~1\AppData\Local\Temp\cc7eeVhF.s:2007   .text.HAL_ADC_Start_DMA:00000000 $t
C:\Users\EBANO_~1\AppData\Local\Temp\cc7eeVhF.s:2015   .text.HAL_ADC_Start_DMA:00000000 HAL_ADC_Start_DMA
C:\Users\EBANO_~1\AppData\Local\Temp\cc7eeVhF.s:2265   .text.HAL_ADC_Start_DMA:00000108 $d
C:\Users\EBANO_~1\AppData\Local\Temp\cc7eeVhF.s:2706   .text.ADC_DMAConvCplt:00000000 ADC_DMAConvCplt
C:\Users\EBANO_~1\AppData\Local\Temp\cc7eeVhF.s:2835   .text.ADC_DMAHalfConvCplt:00000000 ADC_DMAHalfConvCplt
C:\Users\EBANO_~1\AppData\Local\Temp\cc7eeVhF.s:2907   .text.ADC_DMAError:00000000 ADC_DMAError
C:\Users\EBANO_~1\AppData\Local\Temp\cc7eeVhF.s:2280   .text.HAL_ADC_Stop_DMA:00000000 $t
C:\Users\EBANO_~1\AppData\Local\Temp\cc7eeVhF.s:2288   .text.HAL_ADC_Stop_DMA:00000000 HAL_ADC_Stop_DMA
C:\Users\EBANO_~1\AppData\Local\Temp\cc7eeVhF.s:2641   .text.HAL_ADC_Stop_DMA:00000164 $d
C:\Users\EBANO_~1\AppData\Local\Temp\cc7eeVhF.s:2650   .text.HAL_ADC_GetValue:00000000 $t
C:\Users\EBANO_~1\AppData\Local\Temp\cc7eeVhF.s:2658   .text.HAL_ADC_GetValue:00000000 HAL_ADC_GetValue
C:\Users\EBANO_~1\AppData\Local\Temp\cc7eeVhF.s:2679   .text.HAL_ADC_ConvCpltCallback:00000000 $t
C:\Users\EBANO_~1\AppData\Local\Temp\cc7eeVhF.s:2687   .text.HAL_ADC_ConvCpltCallback:00000000 HAL_ADC_ConvCpltCallback
C:\Users\EBANO_~1\AppData\Local\Temp\cc7eeVhF.s:2699   .text.ADC_DMAConvCplt:00000000 $t
C:\Users\EBANO_~1\AppData\Local\Temp\cc7eeVhF.s:2803   .text.ADC_DMAConvCplt:0000006c $d
C:\Users\EBANO_~1\AppData\Local\Temp\cc7eeVhF.s:2808   .text.HAL_ADC_ConvHalfCpltCallback:00000000 $t
C:\Users\EBANO_~1\AppData\Local\Temp\cc7eeVhF.s:2816   .text.HAL_ADC_ConvHalfCpltCallback:00000000 HAL_ADC_ConvHalfCpltCallback
C:\Users\EBANO_~1\AppData\Local\Temp\cc7eeVhF.s:2828   .text.ADC_DMAHalfConvCplt:00000000 $t
C:\Users\EBANO_~1\AppData\Local\Temp\cc7eeVhF.s:2860   .text.HAL_ADC_LevelOutOfWindowCallback:00000000 $t
C:\Users\EBANO_~1\AppData\Local\Temp\cc7eeVhF.s:2868   .text.HAL_ADC_LevelOutOfWindowCallback:00000000 HAL_ADC_LevelOutOfWindowCallback
C:\Users\EBANO_~1\AppData\Local\Temp\cc7eeVhF.s:2880   .text.HAL_ADC_ErrorCallback:00000000 $t
C:\Users\EBANO_~1\AppData\Local\Temp\cc7eeVhF.s:2888   .text.HAL_ADC_ErrorCallback:00000000 HAL_ADC_ErrorCallback
C:\Users\EBANO_~1\AppData\Local\Temp\cc7eeVhF.s:2900   .text.ADC_DMAError:00000000 $t
C:\Users\EBANO_~1\AppData\Local\Temp\cc7eeVhF.s:2946   .text.HAL_ADC_IRQHandler:00000000 $t
C:\Users\EBANO_~1\AppData\Local\Temp\cc7eeVhF.s:2954   .text.HAL_ADC_IRQHandler:00000000 HAL_ADC_IRQHandler
C:\Users\EBANO_~1\AppData\Local\Temp\cc7eeVhF.s:3142   .text.HAL_ADC_IRQHandler:000000e8 $d
C:\Users\EBANO_~1\AppData\Local\Temp\cc7eeVhF.s:3147   .text.HAL_ADC_ConfigChannel:00000000 $t
C:\Users\EBANO_~1\AppData\Local\Temp\cc7eeVhF.s:3155   .text.HAL_ADC_ConfigChannel:00000000 HAL_ADC_ConfigChannel
ARM GAS  C:\Users\EBANO_~1\AppData\Local\Temp\cc7eeVhF.s 			page 250


C:\Users\EBANO_~1\AppData\Local\Temp\cc7eeVhF.s:3323   .text.HAL_ADC_ConfigChannel:000000bc $d
C:\Users\EBANO_~1\AppData\Local\Temp\cc7eeVhF.s:3333   .text.HAL_ADC_AnalogWDGConfig:00000000 $t
C:\Users\EBANO_~1\AppData\Local\Temp\cc7eeVhF.s:3341   .text.HAL_ADC_AnalogWDGConfig:00000000 HAL_ADC_AnalogWDGConfig
C:\Users\EBANO_~1\AppData\Local\Temp\cc7eeVhF.s:3483   .text.HAL_ADC_AnalogWDGConfig:00000090 $d
C:\Users\EBANO_~1\AppData\Local\Temp\cc7eeVhF.s:3489   .text.HAL_ADC_GetState:00000000 $t
C:\Users\EBANO_~1\AppData\Local\Temp\cc7eeVhF.s:3497   .text.HAL_ADC_GetState:00000000 HAL_ADC_GetState
C:\Users\EBANO_~1\AppData\Local\Temp\cc7eeVhF.s:3515   .text.HAL_ADC_GetError:00000000 $t
C:\Users\EBANO_~1\AppData\Local\Temp\cc7eeVhF.s:3523   .text.HAL_ADC_GetError:00000000 HAL_ADC_GetError

UNDEFINED SYMBOLS
HAL_GetTick
__aeabi_uidiv
SystemCoreClock
HAL_DMA_Start_IT
HAL_DMA_Abort
