ARM GAS  C:\Users\EBANO_~1\AppData\Local\Temp\ccAi8UpB.s 			page 1


   1              		.cpu cortex-m0plus
   2              		.eabi_attribute 20, 1
   3              		.eabi_attribute 21, 1
   4              		.eabi_attribute 23, 3
   5              		.eabi_attribute 24, 1
   6              		.eabi_attribute 25, 1
   7              		.eabi_attribute 26, 1
   8              		.eabi_attribute 30, 2
   9              		.eabi_attribute 34, 0
  10              		.eabi_attribute 18, 4
  11              		.file	"stm32l0xx_hal_pwr_ex.c"
  12              		.text
  13              	.Ltext0:
  14              		.cfi_sections	.debug_frame
  15              		.section	.text.HAL_PWREx_GetVoltageRange,"ax",%progbits
  16              		.align	1
  17              		.p2align 2,,3
  18              		.global	HAL_PWREx_GetVoltageRange
  19              		.syntax unified
  20              		.code	16
  21              		.thumb_func
  22              		.fpu softvfp
  23              		.type	HAL_PWREx_GetVoltageRange, %function
  24              	HAL_PWREx_GetVoltageRange:
  25              	.LFB39:
  26              		.file 1 "../../../../../../Drivers/STM32L0xx_HAL_Driver/Src/stm32l0xx_hal_pwr_ex.c"
   1:../../../../../../Drivers/STM32L0xx_HAL_Driver/Src/stm32l0xx_hal_pwr_ex.c **** /**
   2:../../../../../../Drivers/STM32L0xx_HAL_Driver/Src/stm32l0xx_hal_pwr_ex.c ****   ******************************************************************************
   3:../../../../../../Drivers/STM32L0xx_HAL_Driver/Src/stm32l0xx_hal_pwr_ex.c ****   * @file    stm32l0xx_hal_pwr_ex.c
   4:../../../../../../Drivers/STM32L0xx_HAL_Driver/Src/stm32l0xx_hal_pwr_ex.c ****   * @author  MCD Application Team
   5:../../../../../../Drivers/STM32L0xx_HAL_Driver/Src/stm32l0xx_hal_pwr_ex.c ****   * @brief   Extended PWR HAL module driver.
   6:../../../../../../Drivers/STM32L0xx_HAL_Driver/Src/stm32l0xx_hal_pwr_ex.c ****   *          This file provides firmware functions to manage the following
   7:../../../../../../Drivers/STM32L0xx_HAL_Driver/Src/stm32l0xx_hal_pwr_ex.c ****   *          functionalities of the Power Controller (PWR) peripheral:
   8:../../../../../../Drivers/STM32L0xx_HAL_Driver/Src/stm32l0xx_hal_pwr_ex.c ****   *           + Extended Initialization and de-initialization functions
   9:../../../../../../Drivers/STM32L0xx_HAL_Driver/Src/stm32l0xx_hal_pwr_ex.c ****   *           + Extended Peripheral Control functions
  10:../../../../../../Drivers/STM32L0xx_HAL_Driver/Src/stm32l0xx_hal_pwr_ex.c ****   *         
  11:../../../../../../Drivers/STM32L0xx_HAL_Driver/Src/stm32l0xx_hal_pwr_ex.c ****   ******************************************************************************
  12:../../../../../../Drivers/STM32L0xx_HAL_Driver/Src/stm32l0xx_hal_pwr_ex.c ****   * @attention
  13:../../../../../../Drivers/STM32L0xx_HAL_Driver/Src/stm32l0xx_hal_pwr_ex.c ****   *
  14:../../../../../../Drivers/STM32L0xx_HAL_Driver/Src/stm32l0xx_hal_pwr_ex.c ****   * <h2><center>&copy; COPYRIGHT(c) 2016 STMicroelectronics</center></h2>
  15:../../../../../../Drivers/STM32L0xx_HAL_Driver/Src/stm32l0xx_hal_pwr_ex.c ****   *
  16:../../../../../../Drivers/STM32L0xx_HAL_Driver/Src/stm32l0xx_hal_pwr_ex.c ****   * Redistribution and use in source and binary forms, with or without modification,
  17:../../../../../../Drivers/STM32L0xx_HAL_Driver/Src/stm32l0xx_hal_pwr_ex.c ****   * are permitted provided that the following conditions are met:
  18:../../../../../../Drivers/STM32L0xx_HAL_Driver/Src/stm32l0xx_hal_pwr_ex.c ****   *   1. Redistributions of source code must retain the above copyright notice,
  19:../../../../../../Drivers/STM32L0xx_HAL_Driver/Src/stm32l0xx_hal_pwr_ex.c ****   *      this list of conditions and the following disclaimer.
  20:../../../../../../Drivers/STM32L0xx_HAL_Driver/Src/stm32l0xx_hal_pwr_ex.c ****   *   2. Redistributions in binary form must reproduce the above copyright notice,
  21:../../../../../../Drivers/STM32L0xx_HAL_Driver/Src/stm32l0xx_hal_pwr_ex.c ****   *      this list of conditions and the following disclaimer in the documentation
  22:../../../../../../Drivers/STM32L0xx_HAL_Driver/Src/stm32l0xx_hal_pwr_ex.c ****   *      and/or other materials provided with the distribution.
  23:../../../../../../Drivers/STM32L0xx_HAL_Driver/Src/stm32l0xx_hal_pwr_ex.c ****   *   3. Neither the name of STMicroelectronics nor the names of its contributors
  24:../../../../../../Drivers/STM32L0xx_HAL_Driver/Src/stm32l0xx_hal_pwr_ex.c ****   *      may be used to endorse or promote products derived from this software
  25:../../../../../../Drivers/STM32L0xx_HAL_Driver/Src/stm32l0xx_hal_pwr_ex.c ****   *      without specific prior written permission.
  26:../../../../../../Drivers/STM32L0xx_HAL_Driver/Src/stm32l0xx_hal_pwr_ex.c ****   *
  27:../../../../../../Drivers/STM32L0xx_HAL_Driver/Src/stm32l0xx_hal_pwr_ex.c ****   * THIS SOFTWARE IS PROVIDED BY THE COPYRIGHT HOLDERS AND CONTRIBUTORS "AS IS"
  28:../../../../../../Drivers/STM32L0xx_HAL_Driver/Src/stm32l0xx_hal_pwr_ex.c ****   * AND ANY EXPRESS OR IMPLIED WARRANTIES, INCLUDING, BUT NOT LIMITED TO, THE
  29:../../../../../../Drivers/STM32L0xx_HAL_Driver/Src/stm32l0xx_hal_pwr_ex.c ****   * IMPLIED WARRANTIES OF MERCHANTABILITY AND FITNESS FOR A PARTICULAR PURPOSE ARE
  30:../../../../../../Drivers/STM32L0xx_HAL_Driver/Src/stm32l0xx_hal_pwr_ex.c ****   * DISCLAIMED. IN NO EVENT SHALL THE COPYRIGHT HOLDER OR CONTRIBUTORS BE LIABLE
  31:../../../../../../Drivers/STM32L0xx_HAL_Driver/Src/stm32l0xx_hal_pwr_ex.c ****   * FOR ANY DIRECT, INDIRECT, INCIDENTAL, SPECIAL, EXEMPLARY, OR CONSEQUENTIAL
ARM GAS  C:\Users\EBANO_~1\AppData\Local\Temp\ccAi8UpB.s 			page 2


  32:../../../../../../Drivers/STM32L0xx_HAL_Driver/Src/stm32l0xx_hal_pwr_ex.c ****   * DAMAGES (INCLUDING, BUT NOT LIMITED TO, PROCUREMENT OF SUBSTITUTE GOODS OR
  33:../../../../../../Drivers/STM32L0xx_HAL_Driver/Src/stm32l0xx_hal_pwr_ex.c ****   * SERVICES; LOSS OF USE, DATA, OR PROFITS; OR BUSINESS INTERRUPTION) HOWEVER
  34:../../../../../../Drivers/STM32L0xx_HAL_Driver/Src/stm32l0xx_hal_pwr_ex.c ****   * CAUSED AND ON ANY THEORY OF LIABILITY, WHETHER IN CONTRACT, STRICT LIABILITY,
  35:../../../../../../Drivers/STM32L0xx_HAL_Driver/Src/stm32l0xx_hal_pwr_ex.c ****   * OR TORT (INCLUDING NEGLIGENCE OR OTHERWISE) ARISING IN ANY WAY OUT OF THE USE
  36:../../../../../../Drivers/STM32L0xx_HAL_Driver/Src/stm32l0xx_hal_pwr_ex.c ****   * OF THIS SOFTWARE, EVEN IF ADVISED OF THE POSSIBILITY OF SUCH DAMAGE.
  37:../../../../../../Drivers/STM32L0xx_HAL_Driver/Src/stm32l0xx_hal_pwr_ex.c ****   *
  38:../../../../../../Drivers/STM32L0xx_HAL_Driver/Src/stm32l0xx_hal_pwr_ex.c ****   ******************************************************************************
  39:../../../../../../Drivers/STM32L0xx_HAL_Driver/Src/stm32l0xx_hal_pwr_ex.c ****   */
  40:../../../../../../Drivers/STM32L0xx_HAL_Driver/Src/stm32l0xx_hal_pwr_ex.c **** 
  41:../../../../../../Drivers/STM32L0xx_HAL_Driver/Src/stm32l0xx_hal_pwr_ex.c **** /* Includes ------------------------------------------------------------------*/
  42:../../../../../../Drivers/STM32L0xx_HAL_Driver/Src/stm32l0xx_hal_pwr_ex.c **** #include "stm32l0xx_hal.h"
  43:../../../../../../Drivers/STM32L0xx_HAL_Driver/Src/stm32l0xx_hal_pwr_ex.c **** 
  44:../../../../../../Drivers/STM32L0xx_HAL_Driver/Src/stm32l0xx_hal_pwr_ex.c **** #ifdef HAL_PWR_MODULE_ENABLED
  45:../../../../../../Drivers/STM32L0xx_HAL_Driver/Src/stm32l0xx_hal_pwr_ex.c **** /** @addtogroup STM32L0xx_HAL_Driver
  46:../../../../../../Drivers/STM32L0xx_HAL_Driver/Src/stm32l0xx_hal_pwr_ex.c ****   * @{
  47:../../../../../../Drivers/STM32L0xx_HAL_Driver/Src/stm32l0xx_hal_pwr_ex.c ****   */
  48:../../../../../../Drivers/STM32L0xx_HAL_Driver/Src/stm32l0xx_hal_pwr_ex.c **** 
  49:../../../../../../Drivers/STM32L0xx_HAL_Driver/Src/stm32l0xx_hal_pwr_ex.c **** /** @addtogroup PWREx 
  50:../../../../../../Drivers/STM32L0xx_HAL_Driver/Src/stm32l0xx_hal_pwr_ex.c ****   * @{
  51:../../../../../../Drivers/STM32L0xx_HAL_Driver/Src/stm32l0xx_hal_pwr_ex.c ****   */
  52:../../../../../../Drivers/STM32L0xx_HAL_Driver/Src/stm32l0xx_hal_pwr_ex.c **** 
  53:../../../../../../Drivers/STM32L0xx_HAL_Driver/Src/stm32l0xx_hal_pwr_ex.c **** /** @addtogroup PWREx_Private
  54:../../../../../../Drivers/STM32L0xx_HAL_Driver/Src/stm32l0xx_hal_pwr_ex.c ****   * @{
  55:../../../../../../Drivers/STM32L0xx_HAL_Driver/Src/stm32l0xx_hal_pwr_ex.c ****   */
  56:../../../../../../Drivers/STM32L0xx_HAL_Driver/Src/stm32l0xx_hal_pwr_ex.c **** 
  57:../../../../../../Drivers/STM32L0xx_HAL_Driver/Src/stm32l0xx_hal_pwr_ex.c **** /** @defgroup PWR_Extended_TimeOut_Value PWREx Flag Setting Time Out Value
  58:../../../../../../Drivers/STM32L0xx_HAL_Driver/Src/stm32l0xx_hal_pwr_ex.c ****   * @{
  59:../../../../../../Drivers/STM32L0xx_HAL_Driver/Src/stm32l0xx_hal_pwr_ex.c ****   */ 
  60:../../../../../../Drivers/STM32L0xx_HAL_Driver/Src/stm32l0xx_hal_pwr_ex.c **** #define PWR_FLAG_SETTING_DELAY_US 50U
  61:../../../../../../Drivers/STM32L0xx_HAL_Driver/Src/stm32l0xx_hal_pwr_ex.c **** /**
  62:../../../../../../Drivers/STM32L0xx_HAL_Driver/Src/stm32l0xx_hal_pwr_ex.c ****   * @}
  63:../../../../../../Drivers/STM32L0xx_HAL_Driver/Src/stm32l0xx_hal_pwr_ex.c ****   */
  64:../../../../../../Drivers/STM32L0xx_HAL_Driver/Src/stm32l0xx_hal_pwr_ex.c **** 
  65:../../../../../../Drivers/STM32L0xx_HAL_Driver/Src/stm32l0xx_hal_pwr_ex.c **** /**
  66:../../../../../../Drivers/STM32L0xx_HAL_Driver/Src/stm32l0xx_hal_pwr_ex.c ****   * @}
  67:../../../../../../Drivers/STM32L0xx_HAL_Driver/Src/stm32l0xx_hal_pwr_ex.c ****   */
  68:../../../../../../Drivers/STM32L0xx_HAL_Driver/Src/stm32l0xx_hal_pwr_ex.c **** 
  69:../../../../../../Drivers/STM32L0xx_HAL_Driver/Src/stm32l0xx_hal_pwr_ex.c **** 
  70:../../../../../../Drivers/STM32L0xx_HAL_Driver/Src/stm32l0xx_hal_pwr_ex.c **** /** @addtogroup PWREx_Exported_Functions
  71:../../../../../../Drivers/STM32L0xx_HAL_Driver/Src/stm32l0xx_hal_pwr_ex.c ****   * @brief      Low Power modes configuration functions 
  72:../../../../../../Drivers/STM32L0xx_HAL_Driver/Src/stm32l0xx_hal_pwr_ex.c ****   *
  73:../../../../../../Drivers/STM32L0xx_HAL_Driver/Src/stm32l0xx_hal_pwr_ex.c **** @verbatim
  74:../../../../../../Drivers/STM32L0xx_HAL_Driver/Src/stm32l0xx_hal_pwr_ex.c **** 
  75:../../../../../../Drivers/STM32L0xx_HAL_Driver/Src/stm32l0xx_hal_pwr_ex.c ****  ===============================================================================
  76:../../../../../../Drivers/STM32L0xx_HAL_Driver/Src/stm32l0xx_hal_pwr_ex.c ****                  ##### Peripheral extended features functions #####
  77:../../../../../../Drivers/STM32L0xx_HAL_Driver/Src/stm32l0xx_hal_pwr_ex.c ****  ===============================================================================
  78:../../../../../../Drivers/STM32L0xx_HAL_Driver/Src/stm32l0xx_hal_pwr_ex.c **** @endverbatim
  79:../../../../../../Drivers/STM32L0xx_HAL_Driver/Src/stm32l0xx_hal_pwr_ex.c ****   * @{
  80:../../../../../../Drivers/STM32L0xx_HAL_Driver/Src/stm32l0xx_hal_pwr_ex.c ****   */
  81:../../../../../../Drivers/STM32L0xx_HAL_Driver/Src/stm32l0xx_hal_pwr_ex.c **** 
  82:../../../../../../Drivers/STM32L0xx_HAL_Driver/Src/stm32l0xx_hal_pwr_ex.c **** /**
  83:../../../../../../Drivers/STM32L0xx_HAL_Driver/Src/stm32l0xx_hal_pwr_ex.c ****   * @brief Return Voltage Scaling Range.   
  84:../../../../../../Drivers/STM32L0xx_HAL_Driver/Src/stm32l0xx_hal_pwr_ex.c ****   * @retval VOS bit field (PWR_REGULATOR_VOLTAGE_SCALE1, PWR_REGULATOR_VOLTAGE_SCALE2 or PWR_REGULA
  85:../../../../../../Drivers/STM32L0xx_HAL_Driver/Src/stm32l0xx_hal_pwr_ex.c ****   */  
  86:../../../../../../Drivers/STM32L0xx_HAL_Driver/Src/stm32l0xx_hal_pwr_ex.c **** uint32_t HAL_PWREx_GetVoltageRange(void)
  87:../../../../../../Drivers/STM32L0xx_HAL_Driver/Src/stm32l0xx_hal_pwr_ex.c **** {
  27              		.loc 1 87 0
ARM GAS  C:\Users\EBANO_~1\AppData\Local\Temp\ccAi8UpB.s 			page 3


  28              		.cfi_startproc
  29              		@ args = 0, pretend = 0, frame = 0
  30              		@ frame_needed = 0, uses_anonymous_args = 0
  31              		@ link register save eliminated.
  88:../../../../../../Drivers/STM32L0xx_HAL_Driver/Src/stm32l0xx_hal_pwr_ex.c ****   return  (PWR->CR & PWR_CR_VOS);
  32              		.loc 1 88 0
  33 0000 024B     		ldr	r3, .L3
  89:../../../../../../Drivers/STM32L0xx_HAL_Driver/Src/stm32l0xx_hal_pwr_ex.c **** }
  34              		.loc 1 89 0
  35              		@ sp needed
  88:../../../../../../Drivers/STM32L0xx_HAL_Driver/Src/stm32l0xx_hal_pwr_ex.c ****   return  (PWR->CR & PWR_CR_VOS);
  36              		.loc 1 88 0
  37 0002 1868     		ldr	r0, [r3]
  38 0004 C023     		movs	r3, #192
  39 0006 5B01     		lsls	r3, r3, #5
  40 0008 1840     		ands	r0, r3
  41              		.loc 1 89 0
  42 000a 7047     		bx	lr
  43              	.L4:
  44              		.align	2
  45              	.L3:
  46 000c 00700040 		.word	1073770496
  47              		.cfi_endproc
  48              	.LFE39:
  49              		.size	HAL_PWREx_GetVoltageRange, .-HAL_PWREx_GetVoltageRange
  50              		.section	.text.HAL_PWREx_EnableFastWakeUp,"ax",%progbits
  51              		.align	1
  52              		.p2align 2,,3
  53              		.global	HAL_PWREx_EnableFastWakeUp
  54              		.syntax unified
  55              		.code	16
  56              		.thumb_func
  57              		.fpu softvfp
  58              		.type	HAL_PWREx_EnableFastWakeUp, %function
  59              	HAL_PWREx_EnableFastWakeUp:
  60              	.LFB40:
  90:../../../../../../Drivers/STM32L0xx_HAL_Driver/Src/stm32l0xx_hal_pwr_ex.c **** 
  91:../../../../../../Drivers/STM32L0xx_HAL_Driver/Src/stm32l0xx_hal_pwr_ex.c **** 
  92:../../../../../../Drivers/STM32L0xx_HAL_Driver/Src/stm32l0xx_hal_pwr_ex.c **** /**
  93:../../../../../../Drivers/STM32L0xx_HAL_Driver/Src/stm32l0xx_hal_pwr_ex.c ****   * @brief  Enables the Fast WakeUp from Ultra Low Power mode.
  94:../../../../../../Drivers/STM32L0xx_HAL_Driver/Src/stm32l0xx_hal_pwr_ex.c ****   * @note This bit works in conjunction with ULP bit. 
  95:../../../../../../Drivers/STM32L0xx_HAL_Driver/Src/stm32l0xx_hal_pwr_ex.c ****   *        Means, when ULP = 1 and FWU = 1 :VREFINT startup time is ignored when 
  96:../../../../../../Drivers/STM32L0xx_HAL_Driver/Src/stm32l0xx_hal_pwr_ex.c ****   *        exiting from low power mode.
  97:../../../../../../Drivers/STM32L0xx_HAL_Driver/Src/stm32l0xx_hal_pwr_ex.c ****   * @retval None
  98:../../../../../../Drivers/STM32L0xx_HAL_Driver/Src/stm32l0xx_hal_pwr_ex.c ****   */
  99:../../../../../../Drivers/STM32L0xx_HAL_Driver/Src/stm32l0xx_hal_pwr_ex.c **** void HAL_PWREx_EnableFastWakeUp(void)
 100:../../../../../../Drivers/STM32L0xx_HAL_Driver/Src/stm32l0xx_hal_pwr_ex.c **** {
  61              		.loc 1 100 0
  62              		.cfi_startproc
  63              		@ args = 0, pretend = 0, frame = 0
  64              		@ frame_needed = 0, uses_anonymous_args = 0
  65              		@ link register save eliminated.
 101:../../../../../../Drivers/STM32L0xx_HAL_Driver/Src/stm32l0xx_hal_pwr_ex.c ****   /* Enable the fast wake up */
 102:../../../../../../Drivers/STM32L0xx_HAL_Driver/Src/stm32l0xx_hal_pwr_ex.c ****   SET_BIT(PWR->CR, PWR_CR_FWU);
  66              		.loc 1 102 0
  67 0000 8023     		movs	r3, #128
  68 0002 034A     		ldr	r2, .L6
ARM GAS  C:\Users\EBANO_~1\AppData\Local\Temp\ccAi8UpB.s 			page 4


  69 0004 DB00     		lsls	r3, r3, #3
  70 0006 1168     		ldr	r1, [r2]
 103:../../../../../../Drivers/STM32L0xx_HAL_Driver/Src/stm32l0xx_hal_pwr_ex.c **** }
  71              		.loc 1 103 0
  72              		@ sp needed
 102:../../../../../../Drivers/STM32L0xx_HAL_Driver/Src/stm32l0xx_hal_pwr_ex.c **** }
  73              		.loc 1 102 0
  74 0008 0B43     		orrs	r3, r1
  75 000a 1360     		str	r3, [r2]
  76              		.loc 1 103 0
  77 000c 7047     		bx	lr
  78              	.L7:
  79 000e C046     		.align	2
  80              	.L6:
  81 0010 00700040 		.word	1073770496
  82              		.cfi_endproc
  83              	.LFE40:
  84              		.size	HAL_PWREx_EnableFastWakeUp, .-HAL_PWREx_EnableFastWakeUp
  85              		.section	.text.HAL_PWREx_DisableFastWakeUp,"ax",%progbits
  86              		.align	1
  87              		.p2align 2,,3
  88              		.global	HAL_PWREx_DisableFastWakeUp
  89              		.syntax unified
  90              		.code	16
  91              		.thumb_func
  92              		.fpu softvfp
  93              		.type	HAL_PWREx_DisableFastWakeUp, %function
  94              	HAL_PWREx_DisableFastWakeUp:
  95              	.LFB41:
 104:../../../../../../Drivers/STM32L0xx_HAL_Driver/Src/stm32l0xx_hal_pwr_ex.c **** 
 105:../../../../../../Drivers/STM32L0xx_HAL_Driver/Src/stm32l0xx_hal_pwr_ex.c **** /**
 106:../../../../../../Drivers/STM32L0xx_HAL_Driver/Src/stm32l0xx_hal_pwr_ex.c ****   * @brief  Disables the Fast WakeUp from Ultra Low Power mode.
 107:../../../../../../Drivers/STM32L0xx_HAL_Driver/Src/stm32l0xx_hal_pwr_ex.c ****   * @retval None
 108:../../../../../../Drivers/STM32L0xx_HAL_Driver/Src/stm32l0xx_hal_pwr_ex.c ****   */
 109:../../../../../../Drivers/STM32L0xx_HAL_Driver/Src/stm32l0xx_hal_pwr_ex.c **** void HAL_PWREx_DisableFastWakeUp(void)
 110:../../../../../../Drivers/STM32L0xx_HAL_Driver/Src/stm32l0xx_hal_pwr_ex.c **** {
  96              		.loc 1 110 0
  97              		.cfi_startproc
  98              		@ args = 0, pretend = 0, frame = 0
  99              		@ frame_needed = 0, uses_anonymous_args = 0
 100              		@ link register save eliminated.
 111:../../../../../../Drivers/STM32L0xx_HAL_Driver/Src/stm32l0xx_hal_pwr_ex.c ****   /* Disable the fast wake up */
 112:../../../../../../Drivers/STM32L0xx_HAL_Driver/Src/stm32l0xx_hal_pwr_ex.c ****   CLEAR_BIT(PWR->CR, PWR_CR_FWU);
 101              		.loc 1 112 0
 102 0000 024A     		ldr	r2, .L9
 103 0002 0349     		ldr	r1, .L9+4
 104 0004 1368     		ldr	r3, [r2]
 113:../../../../../../Drivers/STM32L0xx_HAL_Driver/Src/stm32l0xx_hal_pwr_ex.c **** }
 105              		.loc 1 113 0
 106              		@ sp needed
 112:../../../../../../Drivers/STM32L0xx_HAL_Driver/Src/stm32l0xx_hal_pwr_ex.c **** }
 107              		.loc 1 112 0
 108 0006 0B40     		ands	r3, r1
 109 0008 1360     		str	r3, [r2]
 110              		.loc 1 113 0
 111 000a 7047     		bx	lr
 112              	.L10:
ARM GAS  C:\Users\EBANO_~1\AppData\Local\Temp\ccAi8UpB.s 			page 5


 113              		.align	2
 114              	.L9:
 115 000c 00700040 		.word	1073770496
 116 0010 FFFBFFFF 		.word	-1025
 117              		.cfi_endproc
 118              	.LFE41:
 119              		.size	HAL_PWREx_DisableFastWakeUp, .-HAL_PWREx_DisableFastWakeUp
 120              		.section	.text.HAL_PWREx_EnableUltraLowPower,"ax",%progbits
 121              		.align	1
 122              		.p2align 2,,3
 123              		.global	HAL_PWREx_EnableUltraLowPower
 124              		.syntax unified
 125              		.code	16
 126              		.thumb_func
 127              		.fpu softvfp
 128              		.type	HAL_PWREx_EnableUltraLowPower, %function
 129              	HAL_PWREx_EnableUltraLowPower:
 130              	.LFB42:
 114:../../../../../../Drivers/STM32L0xx_HAL_Driver/Src/stm32l0xx_hal_pwr_ex.c **** 
 115:../../../../../../Drivers/STM32L0xx_HAL_Driver/Src/stm32l0xx_hal_pwr_ex.c **** /**
 116:../../../../../../Drivers/STM32L0xx_HAL_Driver/Src/stm32l0xx_hal_pwr_ex.c ****   * @brief  Enables the Ultra Low Power mode
 117:../../../../../../Drivers/STM32L0xx_HAL_Driver/Src/stm32l0xx_hal_pwr_ex.c ****   * @retval None
 118:../../../../../../Drivers/STM32L0xx_HAL_Driver/Src/stm32l0xx_hal_pwr_ex.c ****   */
 119:../../../../../../Drivers/STM32L0xx_HAL_Driver/Src/stm32l0xx_hal_pwr_ex.c **** void HAL_PWREx_EnableUltraLowPower(void)
 120:../../../../../../Drivers/STM32L0xx_HAL_Driver/Src/stm32l0xx_hal_pwr_ex.c **** {
 131              		.loc 1 120 0
 132              		.cfi_startproc
 133              		@ args = 0, pretend = 0, frame = 0
 134              		@ frame_needed = 0, uses_anonymous_args = 0
 135              		@ link register save eliminated.
 121:../../../../../../Drivers/STM32L0xx_HAL_Driver/Src/stm32l0xx_hal_pwr_ex.c ****   /* Enable the Ultra Low Power mode */
 122:../../../../../../Drivers/STM32L0xx_HAL_Driver/Src/stm32l0xx_hal_pwr_ex.c ****   SET_BIT(PWR->CR, PWR_CR_ULP);
 136              		.loc 1 122 0
 137 0000 8023     		movs	r3, #128
 138 0002 034A     		ldr	r2, .L12
 139 0004 9B00     		lsls	r3, r3, #2
 140 0006 1168     		ldr	r1, [r2]
 123:../../../../../../Drivers/STM32L0xx_HAL_Driver/Src/stm32l0xx_hal_pwr_ex.c **** }
 141              		.loc 1 123 0
 142              		@ sp needed
 122:../../../../../../Drivers/STM32L0xx_HAL_Driver/Src/stm32l0xx_hal_pwr_ex.c **** }
 143              		.loc 1 122 0
 144 0008 0B43     		orrs	r3, r1
 145 000a 1360     		str	r3, [r2]
 146              		.loc 1 123 0
 147 000c 7047     		bx	lr
 148              	.L13:
 149 000e C046     		.align	2
 150              	.L12:
 151 0010 00700040 		.word	1073770496
 152              		.cfi_endproc
 153              	.LFE42:
 154              		.size	HAL_PWREx_EnableUltraLowPower, .-HAL_PWREx_EnableUltraLowPower
 155              		.section	.text.HAL_PWREx_DisableUltraLowPower,"ax",%progbits
 156              		.align	1
 157              		.p2align 2,,3
 158              		.global	HAL_PWREx_DisableUltraLowPower
ARM GAS  C:\Users\EBANO_~1\AppData\Local\Temp\ccAi8UpB.s 			page 6


 159              		.syntax unified
 160              		.code	16
 161              		.thumb_func
 162              		.fpu softvfp
 163              		.type	HAL_PWREx_DisableUltraLowPower, %function
 164              	HAL_PWREx_DisableUltraLowPower:
 165              	.LFB43:
 124:../../../../../../Drivers/STM32L0xx_HAL_Driver/Src/stm32l0xx_hal_pwr_ex.c **** 
 125:../../../../../../Drivers/STM32L0xx_HAL_Driver/Src/stm32l0xx_hal_pwr_ex.c **** /**
 126:../../../../../../Drivers/STM32L0xx_HAL_Driver/Src/stm32l0xx_hal_pwr_ex.c ****   * @brief  Disables the Ultra Low Power mode
 127:../../../../../../Drivers/STM32L0xx_HAL_Driver/Src/stm32l0xx_hal_pwr_ex.c ****   * @retval None
 128:../../../../../../Drivers/STM32L0xx_HAL_Driver/Src/stm32l0xx_hal_pwr_ex.c ****   */
 129:../../../../../../Drivers/STM32L0xx_HAL_Driver/Src/stm32l0xx_hal_pwr_ex.c **** void HAL_PWREx_DisableUltraLowPower(void)
 130:../../../../../../Drivers/STM32L0xx_HAL_Driver/Src/stm32l0xx_hal_pwr_ex.c **** {
 166              		.loc 1 130 0
 167              		.cfi_startproc
 168              		@ args = 0, pretend = 0, frame = 0
 169              		@ frame_needed = 0, uses_anonymous_args = 0
 170              		@ link register save eliminated.
 131:../../../../../../Drivers/STM32L0xx_HAL_Driver/Src/stm32l0xx_hal_pwr_ex.c ****   /* Disable the Ultra Low Power mode */
 132:../../../../../../Drivers/STM32L0xx_HAL_Driver/Src/stm32l0xx_hal_pwr_ex.c ****   CLEAR_BIT(PWR->CR, PWR_CR_ULP);
 171              		.loc 1 132 0
 172 0000 024A     		ldr	r2, .L15
 173 0002 0349     		ldr	r1, .L15+4
 174 0004 1368     		ldr	r3, [r2]
 133:../../../../../../Drivers/STM32L0xx_HAL_Driver/Src/stm32l0xx_hal_pwr_ex.c **** }
 175              		.loc 1 133 0
 176              		@ sp needed
 132:../../../../../../Drivers/STM32L0xx_HAL_Driver/Src/stm32l0xx_hal_pwr_ex.c **** }
 177              		.loc 1 132 0
 178 0006 0B40     		ands	r3, r1
 179 0008 1360     		str	r3, [r2]
 180              		.loc 1 133 0
 181 000a 7047     		bx	lr
 182              	.L16:
 183              		.align	2
 184              	.L15:
 185 000c 00700040 		.word	1073770496
 186 0010 FFFDFFFF 		.word	-513
 187              		.cfi_endproc
 188              	.LFE43:
 189              		.size	HAL_PWREx_DisableUltraLowPower, .-HAL_PWREx_DisableUltraLowPower
 190              		.section	.text.HAL_PWREx_EnableLowPowerRunMode,"ax",%progbits
 191              		.align	1
 192              		.p2align 2,,3
 193              		.global	HAL_PWREx_EnableLowPowerRunMode
 194              		.syntax unified
 195              		.code	16
 196              		.thumb_func
 197              		.fpu softvfp
 198              		.type	HAL_PWREx_EnableLowPowerRunMode, %function
 199              	HAL_PWREx_EnableLowPowerRunMode:
 200              	.LFB44:
 134:../../../../../../Drivers/STM32L0xx_HAL_Driver/Src/stm32l0xx_hal_pwr_ex.c **** 
 135:../../../../../../Drivers/STM32L0xx_HAL_Driver/Src/stm32l0xx_hal_pwr_ex.c **** /**
 136:../../../../../../Drivers/STM32L0xx_HAL_Driver/Src/stm32l0xx_hal_pwr_ex.c ****   * @brief  Enable the Low Power Run mode.
 137:../../../../../../Drivers/STM32L0xx_HAL_Driver/Src/stm32l0xx_hal_pwr_ex.c ****   * @note   Low power run mode can only be entered when VCORE is in range 2.
ARM GAS  C:\Users\EBANO_~1\AppData\Local\Temp\ccAi8UpB.s 			page 7


 138:../../../../../../Drivers/STM32L0xx_HAL_Driver/Src/stm32l0xx_hal_pwr_ex.c ****   *         In addition, the dynamic voltage scaling must not be used when Low
 139:../../../../../../Drivers/STM32L0xx_HAL_Driver/Src/stm32l0xx_hal_pwr_ex.c ****   *         power run mode is selected. Only Stop and Sleep modes with regulator
 140:../../../../../../Drivers/STM32L0xx_HAL_Driver/Src/stm32l0xx_hal_pwr_ex.c ****   *         configured in Low power mode is allowed when Low power run mode is 
 141:../../../../../../Drivers/STM32L0xx_HAL_Driver/Src/stm32l0xx_hal_pwr_ex.c ****   *         selected.
 142:../../../../../../Drivers/STM32L0xx_HAL_Driver/Src/stm32l0xx_hal_pwr_ex.c ****   * @note   The frequency of the system clock must be decreased to not exceed the
 143:../../../../../../Drivers/STM32L0xx_HAL_Driver/Src/stm32l0xx_hal_pwr_ex.c ****   *         frequency of RCC_MSIRANGE_1.
 144:../../../../../../Drivers/STM32L0xx_HAL_Driver/Src/stm32l0xx_hal_pwr_ex.c ****   * @note   In Low power run mode, all I/O pins keep the same state as in Run mode.
 145:../../../../../../Drivers/STM32L0xx_HAL_Driver/Src/stm32l0xx_hal_pwr_ex.c ****   * @retval None
 146:../../../../../../Drivers/STM32L0xx_HAL_Driver/Src/stm32l0xx_hal_pwr_ex.c ****   */
 147:../../../../../../Drivers/STM32L0xx_HAL_Driver/Src/stm32l0xx_hal_pwr_ex.c **** void HAL_PWREx_EnableLowPowerRunMode(void)
 148:../../../../../../Drivers/STM32L0xx_HAL_Driver/Src/stm32l0xx_hal_pwr_ex.c **** {
 201              		.loc 1 148 0
 202              		.cfi_startproc
 203              		@ args = 0, pretend = 0, frame = 0
 204              		@ frame_needed = 0, uses_anonymous_args = 0
 205              		@ link register save eliminated.
 149:../../../../../../Drivers/STM32L0xx_HAL_Driver/Src/stm32l0xx_hal_pwr_ex.c ****   /* Enters the Low Power Run mode */
 150:../../../../../../Drivers/STM32L0xx_HAL_Driver/Src/stm32l0xx_hal_pwr_ex.c ****   SET_BIT(PWR->CR, PWR_CR_LPSDSR);
 206              		.loc 1 150 0
 207 0000 0121     		movs	r1, #1
 208 0002 054B     		ldr	r3, .L18
 151:../../../../../../Drivers/STM32L0xx_HAL_Driver/Src/stm32l0xx_hal_pwr_ex.c ****   SET_BIT(PWR->CR, PWR_CR_LPRUN);
 152:../../../../../../Drivers/STM32L0xx_HAL_Driver/Src/stm32l0xx_hal_pwr_ex.c **** }
 209              		.loc 1 152 0
 210              		@ sp needed
 150:../../../../../../Drivers/STM32L0xx_HAL_Driver/Src/stm32l0xx_hal_pwr_ex.c ****   SET_BIT(PWR->CR, PWR_CR_LPRUN);
 211              		.loc 1 150 0
 212 0004 1A68     		ldr	r2, [r3]
 213 0006 0A43     		orrs	r2, r1
 214 0008 1A60     		str	r2, [r3]
 151:../../../../../../Drivers/STM32L0xx_HAL_Driver/Src/stm32l0xx_hal_pwr_ex.c ****   SET_BIT(PWR->CR, PWR_CR_LPRUN);
 215              		.loc 1 151 0
 216 000a 8022     		movs	r2, #128
 217 000c 1968     		ldr	r1, [r3]
 218 000e D201     		lsls	r2, r2, #7
 219 0010 0A43     		orrs	r2, r1
 220 0012 1A60     		str	r2, [r3]
 221              		.loc 1 152 0
 222 0014 7047     		bx	lr
 223              	.L19:
 224 0016 C046     		.align	2
 225              	.L18:
 226 0018 00700040 		.word	1073770496
 227              		.cfi_endproc
 228              	.LFE44:
 229              		.size	HAL_PWREx_EnableLowPowerRunMode, .-HAL_PWREx_EnableLowPowerRunMode
 230              		.global	__aeabi_uidiv
 231              		.section	.text.HAL_PWREx_DisableLowPowerRunMode,"ax",%progbits
 232              		.align	1
 233              		.p2align 2,,3
 234              		.global	HAL_PWREx_DisableLowPowerRunMode
 235              		.syntax unified
 236              		.code	16
 237              		.thumb_func
 238              		.fpu softvfp
 239              		.type	HAL_PWREx_DisableLowPowerRunMode, %function
 240              	HAL_PWREx_DisableLowPowerRunMode:
ARM GAS  C:\Users\EBANO_~1\AppData\Local\Temp\ccAi8UpB.s 			page 8


 241              	.LFB45:
 153:../../../../../../Drivers/STM32L0xx_HAL_Driver/Src/stm32l0xx_hal_pwr_ex.c **** 
 154:../../../../../../Drivers/STM32L0xx_HAL_Driver/Src/stm32l0xx_hal_pwr_ex.c **** /**
 155:../../../../../../Drivers/STM32L0xx_HAL_Driver/Src/stm32l0xx_hal_pwr_ex.c ****   * @brief  Disable the Low Power Run mode.
 156:../../../../../../Drivers/STM32L0xx_HAL_Driver/Src/stm32l0xx_hal_pwr_ex.c ****   * @note  Before HAL_PWREx_DisableLowPowerRunMode() completion, the function checks that 
 157:../../../../../../Drivers/STM32L0xx_HAL_Driver/Src/stm32l0xx_hal_pwr_ex.c ****   *        REGLPF has been properly reset (otherwise, HAL_PWREx_DisableLowPowerRunMode 
 158:../../../../../../Drivers/STM32L0xx_HAL_Driver/Src/stm32l0xx_hal_pwr_ex.c ****   *        returns HAL_TIMEOUT status). The system clock frequency can then be
 159:../../../../../../Drivers/STM32L0xx_HAL_Driver/Src/stm32l0xx_hal_pwr_ex.c ****   *        increased above 2 MHz.   
 160:../../../../../../Drivers/STM32L0xx_HAL_Driver/Src/stm32l0xx_hal_pwr_ex.c ****   * @retval HAL_StatusTypeDef
 161:../../../../../../Drivers/STM32L0xx_HAL_Driver/Src/stm32l0xx_hal_pwr_ex.c ****   */
 162:../../../../../../Drivers/STM32L0xx_HAL_Driver/Src/stm32l0xx_hal_pwr_ex.c **** HAL_StatusTypeDef HAL_PWREx_DisableLowPowerRunMode(void)
 163:../../../../../../Drivers/STM32L0xx_HAL_Driver/Src/stm32l0xx_hal_pwr_ex.c **** {
 242              		.loc 1 163 0
 243              		.cfi_startproc
 244              		@ args = 0, pretend = 0, frame = 0
 245              		@ frame_needed = 0, uses_anonymous_args = 0
 246              	.LVL0:
 247 0000 10B5     		push	{r4, lr}
 248              	.LCFI0:
 249              		.cfi_def_cfa_offset 8
 250              		.cfi_offset 4, -8
 251              		.cfi_offset 14, -4
 164:../../../../../../Drivers/STM32L0xx_HAL_Driver/Src/stm32l0xx_hal_pwr_ex.c ****   uint32_t wait_loop_index = 0U;
 165:../../../../../../Drivers/STM32L0xx_HAL_Driver/Src/stm32l0xx_hal_pwr_ex.c ****   
 166:../../../../../../Drivers/STM32L0xx_HAL_Driver/Src/stm32l0xx_hal_pwr_ex.c ****   /* Exit the Low Power Run mode */
 167:../../../../../../Drivers/STM32L0xx_HAL_Driver/Src/stm32l0xx_hal_pwr_ex.c ****   CLEAR_BIT(PWR->CR, PWR_CR_LPRUN);
 252              		.loc 1 167 0
 253 0002 124C     		ldr	r4, .L36
 254 0004 124A     		ldr	r2, .L36+4
 255 0006 2368     		ldr	r3, [r4]
 168:../../../../../../Drivers/STM32L0xx_HAL_Driver/Src/stm32l0xx_hal_pwr_ex.c ****   CLEAR_BIT(PWR->CR, PWR_CR_LPSDSR);
 169:../../../../../../Drivers/STM32L0xx_HAL_Driver/Src/stm32l0xx_hal_pwr_ex.c ****   
 170:../../../../../../Drivers/STM32L0xx_HAL_Driver/Src/stm32l0xx_hal_pwr_ex.c ****   /* Wait until REGLPF is reset */
 171:../../../../../../Drivers/STM32L0xx_HAL_Driver/Src/stm32l0xx_hal_pwr_ex.c ****   wait_loop_index = (PWR_FLAG_SETTING_DELAY_US * (SystemCoreClock / 1000000U));
 256              		.loc 1 171 0
 257 0008 1249     		ldr	r1, .L36+8
 167:../../../../../../Drivers/STM32L0xx_HAL_Driver/Src/stm32l0xx_hal_pwr_ex.c ****   CLEAR_BIT(PWR->CR, PWR_CR_LPSDSR);
 258              		.loc 1 167 0
 259 000a 1340     		ands	r3, r2
 168:../../../../../../Drivers/STM32L0xx_HAL_Driver/Src/stm32l0xx_hal_pwr_ex.c ****   CLEAR_BIT(PWR->CR, PWR_CR_LPSDSR);
 260              		.loc 1 168 0
 261 000c 0122     		movs	r2, #1
 167:../../../../../../Drivers/STM32L0xx_HAL_Driver/Src/stm32l0xx_hal_pwr_ex.c ****   CLEAR_BIT(PWR->CR, PWR_CR_LPSDSR);
 262              		.loc 1 167 0
 263 000e 2360     		str	r3, [r4]
 168:../../../../../../Drivers/STM32L0xx_HAL_Driver/Src/stm32l0xx_hal_pwr_ex.c ****   CLEAR_BIT(PWR->CR, PWR_CR_LPSDSR);
 264              		.loc 1 168 0
 265 0010 2368     		ldr	r3, [r4]
 266 0012 9343     		bics	r3, r2
 267 0014 2360     		str	r3, [r4]
 268              		.loc 1 171 0
 269 0016 104B     		ldr	r3, .L36+12
 270 0018 1868     		ldr	r0, [r3]
 271 001a FFF7FEFF 		bl	__aeabi_uidiv
 272              	.LVL1:
 273 001e 3223     		movs	r3, #50
 274 0020 5843     		muls	r0, r3
ARM GAS  C:\Users\EBANO_~1\AppData\Local\Temp\ccAi8UpB.s 			page 9


 275              	.LVL2:
 172:../../../../../../Drivers/STM32L0xx_HAL_Driver/Src/stm32l0xx_hal_pwr_ex.c **** 
 173:../../../../../../Drivers/STM32L0xx_HAL_Driver/Src/stm32l0xx_hal_pwr_ex.c ****   while ((wait_loop_index != 0U) && (HAL_IS_BIT_SET(PWR->CSR, PWR_CSR_REGLPF)))
 276              		.loc 1 173 0
 277 0022 0028     		cmp	r0, #0
 278 0024 0AD0     		beq	.L21
 279 0026 6368     		ldr	r3, [r4, #4]
 280 0028 9B06     		lsls	r3, r3, #26
 281 002a 07D5     		bpl	.L21
 282 002c 2022     		movs	r2, #32
 283 002e 02E0     		b	.L22
 284              	.L35:
 285              		.loc 1 173 0 is_stmt 0 discriminator 1
 286 0030 6368     		ldr	r3, [r4, #4]
 287 0032 1A42     		tst	r2, r3
 288 0034 02D0     		beq	.L21
 289              	.L22:
 174:../../../../../../Drivers/STM32L0xx_HAL_Driver/Src/stm32l0xx_hal_pwr_ex.c ****   {
 175:../../../../../../Drivers/STM32L0xx_HAL_Driver/Src/stm32l0xx_hal_pwr_ex.c ****     wait_loop_index--;
 290              		.loc 1 175 0 is_stmt 1
 291 0036 0138     		subs	r0, r0, #1
 292              	.LVL3:
 173:../../../../../../Drivers/STM32L0xx_HAL_Driver/Src/stm32l0xx_hal_pwr_ex.c ****   {
 293              		.loc 1 173 0
 294 0038 0028     		cmp	r0, #0
 295 003a F9D1     		bne	.L35
 296              	.L21:
 176:../../../../../../Drivers/STM32L0xx_HAL_Driver/Src/stm32l0xx_hal_pwr_ex.c ****   }
 177:../../../../../../Drivers/STM32L0xx_HAL_Driver/Src/stm32l0xx_hal_pwr_ex.c **** 
 178:../../../../../../Drivers/STM32L0xx_HAL_Driver/Src/stm32l0xx_hal_pwr_ex.c ****   if (HAL_IS_BIT_SET(PWR->CSR, PWR_CSR_REGLPF))
 297              		.loc 1 178 0
 298 003c 034B     		ldr	r3, .L36
 179:../../../../../../Drivers/STM32L0xx_HAL_Driver/Src/stm32l0xx_hal_pwr_ex.c ****   {
 180:../../../../../../Drivers/STM32L0xx_HAL_Driver/Src/stm32l0xx_hal_pwr_ex.c ****     return HAL_TIMEOUT;
 181:../../../../../../Drivers/STM32L0xx_HAL_Driver/Src/stm32l0xx_hal_pwr_ex.c ****   }
 182:../../../../../../Drivers/STM32L0xx_HAL_Driver/Src/stm32l0xx_hal_pwr_ex.c **** 
 183:../../../../../../Drivers/STM32L0xx_HAL_Driver/Src/stm32l0xx_hal_pwr_ex.c ****   return HAL_OK;
 184:../../../../../../Drivers/STM32L0xx_HAL_Driver/Src/stm32l0xx_hal_pwr_ex.c **** }
 299              		.loc 1 184 0
 300              		@ sp needed
 178:../../../../../../Drivers/STM32L0xx_HAL_Driver/Src/stm32l0xx_hal_pwr_ex.c ****   {
 301              		.loc 1 178 0
 302 003e 5868     		ldr	r0, [r3, #4]
 303              	.LVL4:
 183:../../../../../../Drivers/STM32L0xx_HAL_Driver/Src/stm32l0xx_hal_pwr_ex.c **** }
 304              		.loc 1 183 0
 305 0040 0323     		movs	r3, #3
 178:../../../../../../Drivers/STM32L0xx_HAL_Driver/Src/stm32l0xx_hal_pwr_ex.c ****   {
 306              		.loc 1 178 0
 307 0042 8006     		lsls	r0, r0, #26
 183:../../../../../../Drivers/STM32L0xx_HAL_Driver/Src/stm32l0xx_hal_pwr_ex.c **** }
 308              		.loc 1 183 0
 309 0044 C017     		asrs	r0, r0, #31
 310 0046 1840     		ands	r0, r3
 311              		.loc 1 184 0
 312 0048 10BD     		pop	{r4, pc}
 313              	.L37:
ARM GAS  C:\Users\EBANO_~1\AppData\Local\Temp\ccAi8UpB.s 			page 10


 314 004a C046     		.align	2
 315              	.L36:
 316 004c 00700040 		.word	1073770496
 317 0050 FFBFFFFF 		.word	-16385
 318 0054 40420F00 		.word	1000000
 319 0058 00000000 		.word	SystemCoreClock
 320              		.cfi_endproc
 321              	.LFE45:
 322              		.size	HAL_PWREx_DisableLowPowerRunMode, .-HAL_PWREx_DisableLowPowerRunMode
 323              		.text
 324              	.Letext0:
 325              		.file 2 "c:\\program files (x86)\\gnu tools arm embedded\\7 2018-q2-update\\arm-none-eabi\\include
 326              		.file 3 "c:\\program files (x86)\\gnu tools arm embedded\\7 2018-q2-update\\arm-none-eabi\\include
 327              		.file 4 "../../../../../../Drivers/CMSIS/Device/ST/STM32L0xx/Include/system_stm32l0xx.h"
 328              		.file 5 "../../../../../../Drivers/CMSIS/Device/ST/STM32L0xx/Include/stm32l072xx.h"
 329              		.file 6 "c:\\program files (x86)\\gnu tools arm embedded\\7 2018-q2-update\\arm-none-eabi\\include
 330              		.file 7 "c:\\program files (x86)\\gnu tools arm embedded\\7 2018-q2-update\\arm-none-eabi\\include
 331              		.file 8 "c:\\program files (x86)\\gnu tools arm embedded\\7 2018-q2-update\\lib\\gcc\\arm-none-eab
 332              		.file 9 "c:\\program files (x86)\\gnu tools arm embedded\\7 2018-q2-update\\arm-none-eabi\\include
 333              		.file 10 "../../../../../../Drivers/CMSIS/Device/ST/STM32L0xx/Include/stm32l0xx.h"
 334              		.file 11 "../../../../../../Drivers/STM32L0xx_HAL_Driver/Inc/stm32l0xx_hal_def.h"
 335              		.section	.debug_info,"",%progbits
 336              	.Ldebug_info0:
 337 0000 4C0B0000 		.4byte	0xb4c
 338 0004 0200     		.2byte	0x2
 339 0006 00000000 		.4byte	.Ldebug_abbrev0
 340 000a 04       		.byte	0x4
 341 000b 01       		.uleb128 0x1
 342 000c BE030000 		.4byte	.LASF141
 343 0010 0C       		.byte	0xc
 344 0011 03070000 		.4byte	.LASF142
 345 0015 3D060000 		.4byte	.LASF143
 346 0019 00000000 		.4byte	.Ldebug_ranges0+0
 347 001d 00000000 		.4byte	0
 348 0021 00000000 		.4byte	0
 349 0025 00000000 		.4byte	.Ldebug_line0
 350 0029 02       		.uleb128 0x2
 351 002a 01       		.byte	0x1
 352 002b 06       		.byte	0x6
 353 002c DE000000 		.4byte	.LASF0
 354 0030 03       		.uleb128 0x3
 355 0031 51000000 		.4byte	.LASF5
 356 0035 02       		.byte	0x2
 357 0036 2B       		.byte	0x2b
 358 0037 3B000000 		.4byte	0x3b
 359 003b 02       		.uleb128 0x2
 360 003c 01       		.byte	0x1
 361 003d 08       		.byte	0x8
 362 003e 56040000 		.4byte	.LASF1
 363 0042 02       		.uleb128 0x2
 364 0043 02       		.byte	0x2
 365 0044 05       		.byte	0x5
 366 0045 0C000000 		.4byte	.LASF2
 367 0049 02       		.uleb128 0x2
 368 004a 02       		.byte	0x2
 369 004b 07       		.byte	0x7
 370 004c A6050000 		.4byte	.LASF3
ARM GAS  C:\Users\EBANO_~1\AppData\Local\Temp\ccAi8UpB.s 			page 11


 371 0050 02       		.uleb128 0x2
 372 0051 04       		.byte	0x4
 373 0052 05       		.byte	0x5
 374 0053 41010000 		.4byte	.LASF4
 375 0057 03       		.uleb128 0x3
 376 0058 DB010000 		.4byte	.LASF6
 377 005c 02       		.byte	0x2
 378 005d 4F       		.byte	0x4f
 379 005e 62000000 		.4byte	0x62
 380 0062 02       		.uleb128 0x2
 381 0063 04       		.byte	0x4
 382 0064 07       		.byte	0x7
 383 0065 6F020000 		.4byte	.LASF7
 384 0069 02       		.uleb128 0x2
 385 006a 08       		.byte	0x8
 386 006b 05       		.byte	0x5
 387 006c 89010000 		.4byte	.LASF8
 388 0070 02       		.uleb128 0x2
 389 0071 08       		.byte	0x8
 390 0072 07       		.byte	0x7
 391 0073 8D000000 		.4byte	.LASF9
 392 0077 04       		.uleb128 0x4
 393 0078 04       		.byte	0x4
 394 0079 05       		.byte	0x5
 395 007a 696E7400 		.ascii	"int\000"
 396 007e 02       		.uleb128 0x2
 397 007f 04       		.byte	0x4
 398 0080 07       		.byte	0x7
 399 0081 6F050000 		.4byte	.LASF10
 400 0085 03       		.uleb128 0x3
 401 0086 07060000 		.4byte	.LASF11
 402 008a 03       		.byte	0x3
 403 008b 18       		.byte	0x18
 404 008c 30000000 		.4byte	0x30
 405 0090 05       		.uleb128 0x5
 406 0091 85000000 		.4byte	0x85
 407 0095 03       		.uleb128 0x3
 408 0096 E6050000 		.4byte	.LASF12
 409 009a 03       		.byte	0x3
 410 009b 30       		.byte	0x30
 411 009c 57000000 		.4byte	0x57
 412 00a0 06       		.uleb128 0x6
 413 00a1 95000000 		.4byte	0x95
 414 00a5 07       		.uleb128 0x7
 415 00a6 4F020000 		.4byte	.LASF13
 416 00aa 04       		.byte	0x4
 417 00ab 4A       		.byte	0x4a
 418 00ac 95000000 		.4byte	0x95
 419 00b0 01       		.byte	0x1
 420 00b1 01       		.byte	0x1
 421 00b2 08       		.uleb128 0x8
 422 00b3 90000000 		.4byte	0x90
 423 00b7 C2000000 		.4byte	0xc2
 424 00bb 09       		.uleb128 0x9
 425 00bc 7E000000 		.4byte	0x7e
 426 00c0 0F       		.byte	0xf
 427 00c1 00       		.byte	0
ARM GAS  C:\Users\EBANO_~1\AppData\Local\Temp\ccAi8UpB.s 			page 12


 428 00c2 05       		.uleb128 0x5
 429 00c3 B2000000 		.4byte	0xb2
 430 00c7 07       		.uleb128 0x7
 431 00c8 7C050000 		.4byte	.LASF14
 432 00cc 04       		.byte	0x4
 433 00cd 4D       		.byte	0x4d
 434 00ce C2000000 		.4byte	0xc2
 435 00d2 01       		.byte	0x1
 436 00d3 01       		.byte	0x1
 437 00d4 08       		.uleb128 0x8
 438 00d5 90000000 		.4byte	0x90
 439 00d9 E4000000 		.4byte	0xe4
 440 00dd 09       		.uleb128 0x9
 441 00de 7E000000 		.4byte	0x7e
 442 00e2 07       		.byte	0x7
 443 00e3 00       		.byte	0
 444 00e4 05       		.uleb128 0x5
 445 00e5 D4000000 		.4byte	0xd4
 446 00e9 07       		.uleb128 0x7
 447 00ea 08020000 		.4byte	.LASF15
 448 00ee 04       		.byte	0x4
 449 00ef 4E       		.byte	0x4e
 450 00f0 E4000000 		.4byte	0xe4
 451 00f4 01       		.byte	0x1
 452 00f5 01       		.byte	0x1
 453 00f6 08       		.uleb128 0x8
 454 00f7 90000000 		.4byte	0x90
 455 00fb 06010000 		.4byte	0x106
 456 00ff 09       		.uleb128 0x9
 457 0100 7E000000 		.4byte	0x7e
 458 0104 08       		.byte	0x8
 459 0105 00       		.byte	0
 460 0106 05       		.uleb128 0x5
 461 0107 F6000000 		.4byte	0xf6
 462 010b 07       		.uleb128 0x7
 463 010c 3A030000 		.4byte	.LASF16
 464 0110 04       		.byte	0x4
 465 0111 4F       		.byte	0x4f
 466 0112 06010000 		.4byte	0x106
 467 0116 01       		.byte	0x1
 468 0117 01       		.byte	0x1
 469 0118 0A       		.uleb128 0xa
 470 0119 08       		.byte	0x8
 471 011a 05       		.byte	0x5
 472 011b 9F01     		.2byte	0x19f
 473 011d 3F010000 		.4byte	0x13f
 474 0121 0B       		.uleb128 0xb
 475 0122 435200   		.ascii	"CR\000"
 476 0125 05       		.byte	0x5
 477 0126 A101     		.2byte	0x1a1
 478 0128 A0000000 		.4byte	0xa0
 479 012c 02       		.byte	0x2
 480 012d 23       		.byte	0x23
 481 012e 00       		.uleb128 0
 482 012f 0B       		.uleb128 0xb
 483 0130 43535200 		.ascii	"CSR\000"
 484 0134 05       		.byte	0x5
ARM GAS  C:\Users\EBANO_~1\AppData\Local\Temp\ccAi8UpB.s 			page 13


 485 0135 A201     		.2byte	0x1a2
 486 0137 A0000000 		.4byte	0xa0
 487 013b 02       		.byte	0x2
 488 013c 23       		.byte	0x23
 489 013d 04       		.uleb128 0x4
 490 013e 00       		.byte	0
 491 013f 0C       		.uleb128 0xc
 492 0140 14030000 		.4byte	.LASF17
 493 0144 05       		.byte	0x5
 494 0145 A301     		.2byte	0x1a3
 495 0147 18010000 		.4byte	0x118
 496 014b 0D       		.uleb128 0xd
 497 014c 07       		.byte	0x7
 498 014d 01       		.byte	0x1
 499 014e 3B000000 		.4byte	0x3b
 500 0152 0A       		.byte	0xa
 501 0153 BE       		.byte	0xbe
 502 0154 65010000 		.4byte	0x165
 503 0158 0E       		.uleb128 0xe
 504 0159 97030000 		.4byte	.LASF18
 505 015d 00       		.byte	0
 506 015e 0F       		.uleb128 0xf
 507 015f 53455400 		.ascii	"SET\000"
 508 0163 01       		.byte	0x1
 509 0164 00       		.byte	0
 510 0165 02       		.uleb128 0x2
 511 0166 08       		.byte	0x8
 512 0167 04       		.byte	0x4
 513 0168 48050000 		.4byte	.LASF19
 514 016c 10       		.uleb128 0x10
 515 016d 04       		.byte	0x4
 516 016e 03       		.uleb128 0x3
 517 016f E9020000 		.4byte	.LASF20
 518 0173 06       		.byte	0x6
 519 0174 22       		.byte	0x22
 520 0175 79010000 		.4byte	0x179
 521 0179 11       		.uleb128 0x11
 522 017a 04       		.byte	0x4
 523 017b 7F010000 		.4byte	0x17f
 524 017f 12       		.uleb128 0x12
 525 0180 17050000 		.4byte	.LASF127
 526 0184 01       		.byte	0x1
 527 0185 03       		.uleb128 0x3
 528 0186 D0000000 		.4byte	.LASF21
 529 018a 07       		.byte	0x7
 530 018b 2C       		.byte	0x2c
 531 018c 50000000 		.4byte	0x50
 532 0190 03       		.uleb128 0x3
 533 0191 40050000 		.4byte	.LASF22
 534 0195 07       		.byte	0x7
 535 0196 72       		.byte	0x72
 536 0197 50000000 		.4byte	0x50
 537 019b 0C       		.uleb128 0xc
 538 019c 78030000 		.4byte	.LASF23
 539 01a0 08       		.byte	0x8
 540 01a1 6501     		.2byte	0x165
 541 01a3 7E000000 		.4byte	0x7e
ARM GAS  C:\Users\EBANO_~1\AppData\Local\Temp\ccAi8UpB.s 			page 14


 542 01a7 13       		.uleb128 0x13
 543 01a8 04       		.byte	0x4
 544 01a9 07       		.byte	0x7
 545 01aa A6       		.byte	0xa6
 546 01ab C6010000 		.4byte	0x1c6
 547 01af 14       		.uleb128 0x14
 548 01b0 E3020000 		.4byte	.LASF24
 549 01b4 07       		.byte	0x7
 550 01b5 A8       		.byte	0xa8
 551 01b6 9B010000 		.4byte	0x19b
 552 01ba 14       		.uleb128 0x14
 553 01bb 48020000 		.4byte	.LASF25
 554 01bf 07       		.byte	0x7
 555 01c0 A9       		.byte	0xa9
 556 01c1 C6010000 		.4byte	0x1c6
 557 01c5 00       		.byte	0
 558 01c6 08       		.uleb128 0x8
 559 01c7 3B000000 		.4byte	0x3b
 560 01cb D6010000 		.4byte	0x1d6
 561 01cf 09       		.uleb128 0x9
 562 01d0 7E000000 		.4byte	0x7e
 563 01d4 03       		.byte	0x3
 564 01d5 00       		.byte	0
 565 01d6 15       		.uleb128 0x15
 566 01d7 08       		.byte	0x8
 567 01d8 07       		.byte	0x7
 568 01d9 A3       		.byte	0xa3
 569 01da FB010000 		.4byte	0x1fb
 570 01de 16       		.uleb128 0x16
 571 01df 0F050000 		.4byte	.LASF26
 572 01e3 07       		.byte	0x7
 573 01e4 A5       		.byte	0xa5
 574 01e5 77000000 		.4byte	0x77
 575 01e9 02       		.byte	0x2
 576 01ea 23       		.byte	0x23
 577 01eb 00       		.uleb128 0
 578 01ec 16       		.uleb128 0x16
 579 01ed 1E050000 		.4byte	.LASF27
 580 01f1 07       		.byte	0x7
 581 01f2 AA       		.byte	0xaa
 582 01f3 A7010000 		.4byte	0x1a7
 583 01f7 02       		.byte	0x2
 584 01f8 23       		.byte	0x23
 585 01f9 04       		.uleb128 0x4
 586 01fa 00       		.byte	0
 587 01fb 03       		.uleb128 0x3
 588 01fc 9C040000 		.4byte	.LASF28
 589 0200 07       		.byte	0x7
 590 0201 AB       		.byte	0xab
 591 0202 D6010000 		.4byte	0x1d6
 592 0206 03       		.uleb128 0x3
 593 0207 73040000 		.4byte	.LASF29
 594 020b 07       		.byte	0x7
 595 020c AF       		.byte	0xaf
 596 020d 6E010000 		.4byte	0x16e
 597 0211 03       		.uleb128 0x3
 598 0212 BE050000 		.4byte	.LASF30
ARM GAS  C:\Users\EBANO_~1\AppData\Local\Temp\ccAi8UpB.s 			page 15


 599 0216 09       		.byte	0x9
 600 0217 16       		.byte	0x16
 601 0218 62000000 		.4byte	0x62
 602 021c 17       		.uleb128 0x17
 603 021d 00020000 		.4byte	.LASF35
 604 0221 18       		.byte	0x18
 605 0222 09       		.byte	0x9
 606 0223 2F       		.byte	0x2f
 607 0224 7B020000 		.4byte	0x27b
 608 0228 16       		.uleb128 0x16
 609 0229 8A050000 		.4byte	.LASF31
 610 022d 09       		.byte	0x9
 611 022e 31       		.byte	0x31
 612 022f 7B020000 		.4byte	0x27b
 613 0233 02       		.byte	0x2
 614 0234 23       		.byte	0x23
 615 0235 00       		.uleb128 0
 616 0236 18       		.uleb128 0x18
 617 0237 5F6B00   		.ascii	"_k\000"
 618 023a 09       		.byte	0x9
 619 023b 32       		.byte	0x32
 620 023c 77000000 		.4byte	0x77
 621 0240 02       		.byte	0x2
 622 0241 23       		.byte	0x23
 623 0242 04       		.uleb128 0x4
 624 0243 16       		.uleb128 0x16
 625 0244 FA040000 		.4byte	.LASF32
 626 0248 09       		.byte	0x9
 627 0249 32       		.byte	0x32
 628 024a 77000000 		.4byte	0x77
 629 024e 02       		.byte	0x2
 630 024f 23       		.byte	0x23
 631 0250 08       		.uleb128 0x8
 632 0251 16       		.uleb128 0x16
 633 0252 E6010000 		.4byte	.LASF33
 634 0256 09       		.byte	0x9
 635 0257 32       		.byte	0x32
 636 0258 77000000 		.4byte	0x77
 637 025c 02       		.byte	0x2
 638 025d 23       		.byte	0x23
 639 025e 0C       		.uleb128 0xc
 640 025f 16       		.uleb128 0x16
 641 0260 FC050000 		.4byte	.LASF34
 642 0264 09       		.byte	0x9
 643 0265 32       		.byte	0x32
 644 0266 77000000 		.4byte	0x77
 645 026a 02       		.byte	0x2
 646 026b 23       		.byte	0x23
 647 026c 10       		.uleb128 0x10
 648 026d 18       		.uleb128 0x18
 649 026e 5F7800   		.ascii	"_x\000"
 650 0271 09       		.byte	0x9
 651 0272 33       		.byte	0x33
 652 0273 81020000 		.4byte	0x281
 653 0277 02       		.byte	0x2
 654 0278 23       		.byte	0x23
 655 0279 14       		.uleb128 0x14
ARM GAS  C:\Users\EBANO_~1\AppData\Local\Temp\ccAi8UpB.s 			page 16


 656 027a 00       		.byte	0
 657 027b 11       		.uleb128 0x11
 658 027c 04       		.byte	0x4
 659 027d 1C020000 		.4byte	0x21c
 660 0281 08       		.uleb128 0x8
 661 0282 11020000 		.4byte	0x211
 662 0286 91020000 		.4byte	0x291
 663 028a 09       		.uleb128 0x9
 664 028b 7E000000 		.4byte	0x7e
 665 028f 00       		.byte	0
 666 0290 00       		.byte	0
 667 0291 17       		.uleb128 0x17
 668 0292 43020000 		.4byte	.LASF36
 669 0296 24       		.byte	0x24
 670 0297 09       		.byte	0x9
 671 0298 37       		.byte	0x37
 672 0299 1C030000 		.4byte	0x31c
 673 029d 16       		.uleb128 0x16
 674 029e C7000000 		.4byte	.LASF37
 675 02a2 09       		.byte	0x9
 676 02a3 39       		.byte	0x39
 677 02a4 77000000 		.4byte	0x77
 678 02a8 02       		.byte	0x2
 679 02a9 23       		.byte	0x23
 680 02aa 00       		.uleb128 0
 681 02ab 16       		.uleb128 0x16
 682 02ac D8060000 		.4byte	.LASF38
 683 02b0 09       		.byte	0x9
 684 02b1 3A       		.byte	0x3a
 685 02b2 77000000 		.4byte	0x77
 686 02b6 02       		.byte	0x2
 687 02b7 23       		.byte	0x23
 688 02b8 04       		.uleb128 0x4
 689 02b9 16       		.uleb128 0x16
 690 02ba F6000000 		.4byte	.LASF39
 691 02be 09       		.byte	0x9
 692 02bf 3B       		.byte	0x3b
 693 02c0 77000000 		.4byte	0x77
 694 02c4 02       		.byte	0x2
 695 02c5 23       		.byte	0x23
 696 02c6 08       		.uleb128 0x8
 697 02c7 16       		.uleb128 0x16
 698 02c8 F9060000 		.4byte	.LASF40
 699 02cc 09       		.byte	0x9
 700 02cd 3C       		.byte	0x3c
 701 02ce 77000000 		.4byte	0x77
 702 02d2 02       		.byte	0x2
 703 02d3 23       		.byte	0x23
 704 02d4 0C       		.uleb128 0xc
 705 02d5 16       		.uleb128 0x16
 706 02d6 4D030000 		.4byte	.LASF41
 707 02da 09       		.byte	0x9
 708 02db 3D       		.byte	0x3d
 709 02dc 77000000 		.4byte	0x77
 710 02e0 02       		.byte	0x2
 711 02e1 23       		.byte	0x23
 712 02e2 10       		.uleb128 0x10
ARM GAS  C:\Users\EBANO_~1\AppData\Local\Temp\ccAi8UpB.s 			page 17


 713 02e3 16       		.uleb128 0x16
 714 02e4 27030000 		.4byte	.LASF42
 715 02e8 09       		.byte	0x9
 716 02e9 3E       		.byte	0x3e
 717 02ea 77000000 		.4byte	0x77
 718 02ee 02       		.byte	0x2
 719 02ef 23       		.byte	0x23
 720 02f0 14       		.uleb128 0x14
 721 02f1 16       		.uleb128 0x16
 722 02f2 36050000 		.4byte	.LASF43
 723 02f6 09       		.byte	0x9
 724 02f7 3F       		.byte	0x3f
 725 02f8 77000000 		.4byte	0x77
 726 02fc 02       		.byte	0x2
 727 02fd 23       		.byte	0x23
 728 02fe 18       		.uleb128 0x18
 729 02ff 16       		.uleb128 0x16
 730 0300 7C040000 		.4byte	.LASF44
 731 0304 09       		.byte	0x9
 732 0305 40       		.byte	0x40
 733 0306 77000000 		.4byte	0x77
 734 030a 02       		.byte	0x2
 735 030b 23       		.byte	0x23
 736 030c 1C       		.uleb128 0x1c
 737 030d 16       		.uleb128 0x16
 738 030e BE060000 		.4byte	.LASF45
 739 0312 09       		.byte	0x9
 740 0313 41       		.byte	0x41
 741 0314 77000000 		.4byte	0x77
 742 0318 02       		.byte	0x2
 743 0319 23       		.byte	0x23
 744 031a 20       		.uleb128 0x20
 745 031b 00       		.byte	0
 746 031c 19       		.uleb128 0x19
 747 031d 05010000 		.4byte	.LASF46
 748 0321 0801     		.2byte	0x108
 749 0323 09       		.byte	0x9
 750 0324 4A       		.byte	0x4a
 751 0325 65030000 		.4byte	0x365
 752 0329 16       		.uleb128 0x16
 753 032a 36000000 		.4byte	.LASF47
 754 032e 09       		.byte	0x9
 755 032f 4B       		.byte	0x4b
 756 0330 65030000 		.4byte	0x365
 757 0334 02       		.byte	0x2
 758 0335 23       		.byte	0x23
 759 0336 00       		.uleb128 0
 760 0337 16       		.uleb128 0x16
 761 0338 00000000 		.4byte	.LASF48
 762 033c 09       		.byte	0x9
 763 033d 4C       		.byte	0x4c
 764 033e 65030000 		.4byte	0x365
 765 0342 03       		.byte	0x3
 766 0343 23       		.byte	0x23
 767 0344 8001     		.uleb128 0x80
 768 0346 16       		.uleb128 0x16
 769 0347 9D050000 		.4byte	.LASF49
ARM GAS  C:\Users\EBANO_~1\AppData\Local\Temp\ccAi8UpB.s 			page 18


 770 034b 09       		.byte	0x9
 771 034c 4E       		.byte	0x4e
 772 034d 11020000 		.4byte	0x211
 773 0351 03       		.byte	0x3
 774 0352 23       		.byte	0x23
 775 0353 8002     		.uleb128 0x100
 776 0355 16       		.uleb128 0x16
 777 0356 51010000 		.4byte	.LASF50
 778 035a 09       		.byte	0x9
 779 035b 51       		.byte	0x51
 780 035c 11020000 		.4byte	0x211
 781 0360 03       		.byte	0x3
 782 0361 23       		.byte	0x23
 783 0362 8402     		.uleb128 0x104
 784 0364 00       		.byte	0
 785 0365 08       		.uleb128 0x8
 786 0366 6C010000 		.4byte	0x16c
 787 036a 75030000 		.4byte	0x375
 788 036e 09       		.uleb128 0x9
 789 036f 7E000000 		.4byte	0x7e
 790 0373 1F       		.byte	0x1f
 791 0374 00       		.byte	0
 792 0375 19       		.uleb128 0x19
 793 0376 56030000 		.4byte	.LASF51
 794 037a 9001     		.2byte	0x190
 795 037c 09       		.byte	0x9
 796 037d 5D       		.byte	0x5d
 797 037e BC030000 		.4byte	0x3bc
 798 0382 16       		.uleb128 0x16
 799 0383 8A050000 		.4byte	.LASF31
 800 0387 09       		.byte	0x9
 801 0388 5E       		.byte	0x5e
 802 0389 BC030000 		.4byte	0x3bc
 803 038d 02       		.byte	0x2
 804 038e 23       		.byte	0x23
 805 038f 00       		.uleb128 0
 806 0390 16       		.uleb128 0x16
 807 0391 CA040000 		.4byte	.LASF52
 808 0395 09       		.byte	0x9
 809 0396 5F       		.byte	0x5f
 810 0397 77000000 		.4byte	0x77
 811 039b 02       		.byte	0x2
 812 039c 23       		.byte	0x23
 813 039d 04       		.uleb128 0x4
 814 039e 16       		.uleb128 0x16
 815 039f C6010000 		.4byte	.LASF53
 816 03a3 09       		.byte	0x9
 817 03a4 61       		.byte	0x61
 818 03a5 C2030000 		.4byte	0x3c2
 819 03a9 02       		.byte	0x2
 820 03aa 23       		.byte	0x23
 821 03ab 08       		.uleb128 0x8
 822 03ac 16       		.uleb128 0x16
 823 03ad 05010000 		.4byte	.LASF46
 824 03b1 09       		.byte	0x9
 825 03b2 62       		.byte	0x62
 826 03b3 1C030000 		.4byte	0x31c
ARM GAS  C:\Users\EBANO_~1\AppData\Local\Temp\ccAi8UpB.s 			page 19


 827 03b7 03       		.byte	0x3
 828 03b8 23       		.byte	0x23
 829 03b9 8801     		.uleb128 0x88
 830 03bb 00       		.byte	0
 831 03bc 11       		.uleb128 0x11
 832 03bd 04       		.byte	0x4
 833 03be 75030000 		.4byte	0x375
 834 03c2 08       		.uleb128 0x8
 835 03c3 D2030000 		.4byte	0x3d2
 836 03c7 D2030000 		.4byte	0x3d2
 837 03cb 09       		.uleb128 0x9
 838 03cc 7E000000 		.4byte	0x7e
 839 03d0 1F       		.byte	0x1f
 840 03d1 00       		.byte	0
 841 03d2 11       		.uleb128 0x11
 842 03d3 04       		.byte	0x4
 843 03d4 D8030000 		.4byte	0x3d8
 844 03d8 1A       		.uleb128 0x1a
 845 03d9 01       		.byte	0x1
 846 03da 17       		.uleb128 0x17
 847 03db 86040000 		.4byte	.LASF54
 848 03df 08       		.byte	0x8
 849 03e0 09       		.byte	0x9
 850 03e1 75       		.byte	0x75
 851 03e2 03040000 		.4byte	0x403
 852 03e6 16       		.uleb128 0x16
 853 03e7 F0000000 		.4byte	.LASF55
 854 03eb 09       		.byte	0x9
 855 03ec 76       		.byte	0x76
 856 03ed 03040000 		.4byte	0x403
 857 03f1 02       		.byte	0x2
 858 03f2 23       		.byte	0x23
 859 03f3 00       		.uleb128 0
 860 03f4 16       		.uleb128 0x16
 861 03f5 69050000 		.4byte	.LASF56
 862 03f9 09       		.byte	0x9
 863 03fa 77       		.byte	0x77
 864 03fb 77000000 		.4byte	0x77
 865 03ff 02       		.byte	0x2
 866 0400 23       		.byte	0x23
 867 0401 04       		.uleb128 0x4
 868 0402 00       		.byte	0
 869 0403 11       		.uleb128 0x11
 870 0404 04       		.byte	0x4
 871 0405 3B000000 		.4byte	0x3b
 872 0409 17       		.uleb128 0x17
 873 040a A7040000 		.4byte	.LASF57
 874 040e 68       		.byte	0x68
 875 040f 09       		.byte	0x9
 876 0410 B5       		.byte	0xb5
 877 0411 63050000 		.4byte	0x563
 878 0415 18       		.uleb128 0x18
 879 0416 5F7000   		.ascii	"_p\000"
 880 0419 09       		.byte	0x9
 881 041a B6       		.byte	0xb6
 882 041b 03040000 		.4byte	0x403
 883 041f 02       		.byte	0x2
ARM GAS  C:\Users\EBANO_~1\AppData\Local\Temp\ccAi8UpB.s 			page 20


 884 0420 23       		.byte	0x23
 885 0421 00       		.uleb128 0
 886 0422 18       		.uleb128 0x18
 887 0423 5F7200   		.ascii	"_r\000"
 888 0426 09       		.byte	0x9
 889 0427 B7       		.byte	0xb7
 890 0428 77000000 		.4byte	0x77
 891 042c 02       		.byte	0x2
 892 042d 23       		.byte	0x23
 893 042e 04       		.uleb128 0x4
 894 042f 18       		.uleb128 0x18
 895 0430 5F7700   		.ascii	"_w\000"
 896 0433 09       		.byte	0x9
 897 0434 B8       		.byte	0xb8
 898 0435 77000000 		.4byte	0x77
 899 0439 02       		.byte	0x2
 900 043a 23       		.byte	0x23
 901 043b 08       		.uleb128 0x8
 902 043c 16       		.uleb128 0x16
 903 043d 4A010000 		.4byte	.LASF58
 904 0441 09       		.byte	0x9
 905 0442 B9       		.byte	0xb9
 906 0443 42000000 		.4byte	0x42
 907 0447 02       		.byte	0x2
 908 0448 23       		.byte	0x23
 909 0449 0C       		.uleb128 0xc
 910 044a 16       		.uleb128 0x16
 911 044b 81020000 		.4byte	.LASF59
 912 044f 09       		.byte	0x9
 913 0450 BA       		.byte	0xba
 914 0451 42000000 		.4byte	0x42
 915 0455 02       		.byte	0x2
 916 0456 23       		.byte	0x23
 917 0457 0E       		.uleb128 0xe
 918 0458 18       		.uleb128 0x18
 919 0459 5F626600 		.ascii	"_bf\000"
 920 045d 09       		.byte	0x9
 921 045e BB       		.byte	0xbb
 922 045f DA030000 		.4byte	0x3da
 923 0463 02       		.byte	0x2
 924 0464 23       		.byte	0x23
 925 0465 10       		.uleb128 0x10
 926 0466 16       		.uleb128 0x16
 927 0467 A4000000 		.4byte	.LASF60
 928 046b 09       		.byte	0x9
 929 046c BC       		.byte	0xbc
 930 046d 77000000 		.4byte	0x77
 931 0471 02       		.byte	0x2
 932 0472 23       		.byte	0x23
 933 0473 18       		.uleb128 0x18
 934 0474 16       		.uleb128 0x16
 935 0475 31010000 		.4byte	.LASF61
 936 0479 09       		.byte	0x9
 937 047a C3       		.byte	0xc3
 938 047b 6C010000 		.4byte	0x16c
 939 047f 02       		.byte	0x2
 940 0480 23       		.byte	0x23
ARM GAS  C:\Users\EBANO_~1\AppData\Local\Temp\ccAi8UpB.s 			page 21


 941 0481 1C       		.uleb128 0x1c
 942 0482 16       		.uleb128 0x16
 943 0483 31020000 		.4byte	.LASF62
 944 0487 09       		.byte	0x9
 945 0488 C5       		.byte	0xc5
 946 0489 FD060000 		.4byte	0x6fd
 947 048d 02       		.byte	0x2
 948 048e 23       		.byte	0x23
 949 048f 20       		.uleb128 0x20
 950 0490 16       		.uleb128 0x16
 951 0491 20030000 		.4byte	.LASF63
 952 0495 09       		.byte	0x9
 953 0496 C7       		.byte	0xc7
 954 0497 28070000 		.4byte	0x728
 955 049b 02       		.byte	0x2
 956 049c 23       		.byte	0x23
 957 049d 24       		.uleb128 0x24
 958 049e 16       		.uleb128 0x16
 959 049f 26050000 		.4byte	.LASF64
 960 04a3 09       		.byte	0x9
 961 04a4 CA       		.byte	0xca
 962 04a5 4D070000 		.4byte	0x74d
 963 04a9 02       		.byte	0x2
 964 04aa 23       		.byte	0x23
 965 04ab 28       		.uleb128 0x28
 966 04ac 16       		.uleb128 0x16
 967 04ad D7000000 		.4byte	.LASF65
 968 04b1 09       		.byte	0x9
 969 04b2 CB       		.byte	0xcb
 970 04b3 68070000 		.4byte	0x768
 971 04b7 02       		.byte	0x2
 972 04b8 23       		.byte	0x23
 973 04b9 2C       		.uleb128 0x2c
 974 04ba 18       		.uleb128 0x18
 975 04bb 5F756200 		.ascii	"_ub\000"
 976 04bf 09       		.byte	0x9
 977 04c0 CE       		.byte	0xce
 978 04c1 DA030000 		.4byte	0x3da
 979 04c5 02       		.byte	0x2
 980 04c6 23       		.byte	0x23
 981 04c7 30       		.uleb128 0x30
 982 04c8 18       		.uleb128 0x18
 983 04c9 5F757000 		.ascii	"_up\000"
 984 04cd 09       		.byte	0x9
 985 04ce CF       		.byte	0xcf
 986 04cf 03040000 		.4byte	0x403
 987 04d3 02       		.byte	0x2
 988 04d4 23       		.byte	0x23
 989 04d5 38       		.uleb128 0x38
 990 04d6 18       		.uleb128 0x18
 991 04d7 5F757200 		.ascii	"_ur\000"
 992 04db 09       		.byte	0x9
 993 04dc D0       		.byte	0xd0
 994 04dd 77000000 		.4byte	0x77
 995 04e1 02       		.byte	0x2
 996 04e2 23       		.byte	0x23
 997 04e3 3C       		.uleb128 0x3c
ARM GAS  C:\Users\EBANO_~1\AppData\Local\Temp\ccAi8UpB.s 			page 22


 998 04e4 16       		.uleb128 0x16
 999 04e5 EA000000 		.4byte	.LASF66
 1000 04e9 09       		.byte	0x9
 1001 04ea D3       		.byte	0xd3
 1002 04eb 6E070000 		.4byte	0x76e
 1003 04ef 02       		.byte	0x2
 1004 04f0 23       		.byte	0x23
 1005 04f1 40       		.uleb128 0x40
 1006 04f2 16       		.uleb128 0x16
 1007 04f3 B0060000 		.4byte	.LASF67
 1008 04f7 09       		.byte	0x9
 1009 04f8 D4       		.byte	0xd4
 1010 04f9 7E070000 		.4byte	0x77e
 1011 04fd 02       		.byte	0x2
 1012 04fe 23       		.byte	0x23
 1013 04ff 43       		.uleb128 0x43
 1014 0500 18       		.uleb128 0x18
 1015 0501 5F6C6200 		.ascii	"_lb\000"
 1016 0505 09       		.byte	0x9
 1017 0506 D7       		.byte	0xd7
 1018 0507 DA030000 		.4byte	0x3da
 1019 050b 02       		.byte	0x2
 1020 050c 23       		.byte	0x23
 1021 050d 44       		.uleb128 0x44
 1022 050e 16       		.uleb128 0x16
 1023 050f 60050000 		.4byte	.LASF68
 1024 0513 09       		.byte	0x9
 1025 0514 DA       		.byte	0xda
 1026 0515 77000000 		.4byte	0x77
 1027 0519 02       		.byte	0x2
 1028 051a 23       		.byte	0x23
 1029 051b 4C       		.uleb128 0x4c
 1030 051c 16       		.uleb128 0x16
 1031 051d 9F010000 		.4byte	.LASF69
 1032 0521 09       		.byte	0x9
 1033 0522 DB       		.byte	0xdb
 1034 0523 85010000 		.4byte	0x185
 1035 0527 02       		.byte	0x2
 1036 0528 23       		.byte	0x23
 1037 0529 50       		.uleb128 0x50
 1038 052a 16       		.uleb128 0x16
 1039 052b 8E020000 		.4byte	.LASF70
 1040 052f 09       		.byte	0x9
 1041 0530 DE       		.byte	0xde
 1042 0531 82050000 		.4byte	0x582
 1043 0535 02       		.byte	0x2
 1044 0536 23       		.byte	0x23
 1045 0537 54       		.uleb128 0x54
 1046 0538 16       		.uleb128 0x16
 1047 0539 08030000 		.4byte	.LASF71
 1048 053d 09       		.byte	0x9
 1049 053e E2       		.byte	0xe2
 1050 053f 06020000 		.4byte	0x206
 1051 0543 02       		.byte	0x2
 1052 0544 23       		.byte	0x23
 1053 0545 58       		.uleb128 0x58
 1054 0546 16       		.uleb128 0x16
ARM GAS  C:\Users\EBANO_~1\AppData\Local\Temp\ccAi8UpB.s 			page 23


 1055 0547 AF040000 		.4byte	.LASF72
 1056 054b 09       		.byte	0x9
 1057 054c E4       		.byte	0xe4
 1058 054d FB010000 		.4byte	0x1fb
 1059 0551 02       		.byte	0x2
 1060 0552 23       		.byte	0x23
 1061 0553 5C       		.uleb128 0x5c
 1062 0554 16       		.uleb128 0x16
 1063 0555 8D040000 		.4byte	.LASF73
 1064 0559 09       		.byte	0x9
 1065 055a E5       		.byte	0xe5
 1066 055b 77000000 		.4byte	0x77
 1067 055f 02       		.byte	0x2
 1068 0560 23       		.byte	0x23
 1069 0561 64       		.uleb128 0x64
 1070 0562 00       		.byte	0
 1071 0563 1B       		.uleb128 0x1b
 1072 0564 01       		.byte	0x1
 1073 0565 77000000 		.4byte	0x77
 1074 0569 82050000 		.4byte	0x582
 1075 056d 1C       		.uleb128 0x1c
 1076 056e 82050000 		.4byte	0x582
 1077 0572 1C       		.uleb128 0x1c
 1078 0573 6C010000 		.4byte	0x16c
 1079 0577 1C       		.uleb128 0x1c
 1080 0578 EB060000 		.4byte	0x6eb
 1081 057c 1C       		.uleb128 0x1c
 1082 057d 77000000 		.4byte	0x77
 1083 0581 00       		.byte	0
 1084 0582 11       		.uleb128 0x11
 1085 0583 04       		.byte	0x4
 1086 0584 8D050000 		.4byte	0x58d
 1087 0588 05       		.uleb128 0x5
 1088 0589 82050000 		.4byte	0x582
 1089 058d 1D       		.uleb128 0x1d
 1090 058e 02050000 		.4byte	.LASF74
 1091 0592 2804     		.2byte	0x428
 1092 0594 09       		.byte	0x9
 1093 0595 6002     		.2byte	0x260
 1094 0597 EB060000 		.4byte	0x6eb
 1095 059b 1E       		.uleb128 0x1e
 1096 059c 54050000 		.4byte	.LASF75
 1097 05a0 09       		.byte	0x9
 1098 05a1 6202     		.2byte	0x262
 1099 05a3 77000000 		.4byte	0x77
 1100 05a7 02       		.byte	0x2
 1101 05a8 23       		.byte	0x23
 1102 05a9 00       		.uleb128 0
 1103 05aa 1E       		.uleb128 0x1e
 1104 05ab 59010000 		.4byte	.LASF76
 1105 05af 09       		.byte	0x9
 1106 05b0 6702     		.2byte	0x267
 1107 05b2 DB070000 		.4byte	0x7db
 1108 05b6 02       		.byte	0x2
 1109 05b7 23       		.byte	0x23
 1110 05b8 04       		.uleb128 0x4
 1111 05b9 1E       		.uleb128 0x1e
ARM GAS  C:\Users\EBANO_~1\AppData\Local\Temp\ccAi8UpB.s 			page 24


 1112 05ba 5F020000 		.4byte	.LASF77
 1113 05be 09       		.byte	0x9
 1114 05bf 6702     		.2byte	0x267
 1115 05c1 DB070000 		.4byte	0x7db
 1116 05c5 02       		.byte	0x2
 1117 05c6 23       		.byte	0x23
 1118 05c7 08       		.uleb128 0x8
 1119 05c8 1E       		.uleb128 0x1e
 1120 05c9 F8010000 		.4byte	.LASF78
 1121 05cd 09       		.byte	0x9
 1122 05ce 6702     		.2byte	0x267
 1123 05d0 DB070000 		.4byte	0x7db
 1124 05d4 02       		.byte	0x2
 1125 05d5 23       		.byte	0x23
 1126 05d6 0C       		.uleb128 0xc
 1127 05d7 1E       		.uleb128 0x1e
 1128 05d8 C5040000 		.4byte	.LASF79
 1129 05dc 09       		.byte	0x9
 1130 05dd 6902     		.2byte	0x269
 1131 05df 77000000 		.4byte	0x77
 1132 05e3 02       		.byte	0x2
 1133 05e4 23       		.byte	0x23
 1134 05e5 10       		.uleb128 0x10
 1135 05e6 1E       		.uleb128 0x1e
 1136 05e7 46000000 		.4byte	.LASF80
 1137 05eb 09       		.byte	0x9
 1138 05ec 6A02     		.2byte	0x26a
 1139 05ee F6090000 		.4byte	0x9f6
 1140 05f2 02       		.byte	0x2
 1141 05f3 23       		.byte	0x23
 1142 05f4 14       		.uleb128 0x14
 1143 05f5 1E       		.uleb128 0x1e
 1144 05f6 E1040000 		.4byte	.LASF81
 1145 05fa 09       		.byte	0x9
 1146 05fb 6D02     		.2byte	0x26d
 1147 05fd 77000000 		.4byte	0x77
 1148 0601 02       		.byte	0x2
 1149 0602 23       		.byte	0x23
 1150 0603 30       		.uleb128 0x30
 1151 0604 1E       		.uleb128 0x1e
 1152 0605 CF040000 		.4byte	.LASF82
 1153 0609 09       		.byte	0x9
 1154 060a 6E02     		.2byte	0x26e
 1155 060c 0C0A0000 		.4byte	0xa0c
 1156 0610 02       		.byte	0x2
 1157 0611 23       		.byte	0x23
 1158 0612 34       		.uleb128 0x34
 1159 0613 1E       		.uleb128 0x1e
 1160 0614 5E030000 		.4byte	.LASF83
 1161 0618 09       		.byte	0x9
 1162 0619 7002     		.2byte	0x270
 1163 061b 77000000 		.4byte	0x77
 1164 061f 02       		.byte	0x2
 1165 0620 23       		.byte	0x23
 1166 0621 38       		.uleb128 0x38
 1167 0622 1E       		.uleb128 0x1e
 1168 0623 D7040000 		.4byte	.LASF84
ARM GAS  C:\Users\EBANO_~1\AppData\Local\Temp\ccAi8UpB.s 			page 25


 1169 0627 09       		.byte	0x9
 1170 0628 7202     		.2byte	0x272
 1171 062a 1E0A0000 		.4byte	0xa1e
 1172 062e 02       		.byte	0x2
 1173 062f 23       		.byte	0x23
 1174 0630 3C       		.uleb128 0x3c
 1175 0631 1E       		.uleb128 0x1e
 1176 0632 DB020000 		.4byte	.LASF85
 1177 0636 09       		.byte	0x9
 1178 0637 7502     		.2byte	0x275
 1179 0639 7B020000 		.4byte	0x27b
 1180 063d 02       		.byte	0x2
 1181 063e 23       		.byte	0x23
 1182 063f 40       		.uleb128 0x40
 1183 0640 1E       		.uleb128 0x1e
 1184 0641 60010000 		.4byte	.LASF86
 1185 0645 09       		.byte	0x9
 1186 0646 7602     		.2byte	0x276
 1187 0648 77000000 		.4byte	0x77
 1188 064c 02       		.byte	0x2
 1189 064d 23       		.byte	0x23
 1190 064e 44       		.uleb128 0x44
 1191 064f 1E       		.uleb128 0x1e
 1192 0650 F4060000 		.4byte	.LASF87
 1193 0654 09       		.byte	0x9
 1194 0655 7702     		.2byte	0x277
 1195 0657 7B020000 		.4byte	0x27b
 1196 065b 02       		.byte	0x2
 1197 065c 23       		.byte	0x23
 1198 065d 48       		.uleb128 0x48
 1199 065e 1E       		.uleb128 0x1e
 1200 065f 7F030000 		.4byte	.LASF88
 1201 0663 09       		.byte	0x9
 1202 0664 7802     		.2byte	0x278
 1203 0666 240A0000 		.4byte	0xa24
 1204 066a 02       		.byte	0x2
 1205 066b 23       		.byte	0x23
 1206 066c 4C       		.uleb128 0x4c
 1207 066d 1E       		.uleb128 0x1e
 1208 066e 67020000 		.4byte	.LASF89
 1209 0672 09       		.byte	0x9
 1210 0673 7B02     		.2byte	0x27b
 1211 0675 77000000 		.4byte	0x77
 1212 0679 02       		.byte	0x2
 1213 067a 23       		.byte	0x23
 1214 067b 50       		.uleb128 0x50
 1215 067c 1E       		.uleb128 0x1e
 1216 067d 97010000 		.4byte	.LASF90
 1217 0681 09       		.byte	0x9
 1218 0682 7C02     		.2byte	0x27c
 1219 0684 EB060000 		.4byte	0x6eb
 1220 0688 02       		.byte	0x2
 1221 0689 23       		.byte	0x23
 1222 068a 54       		.uleb128 0x54
 1223 068b 1E       		.uleb128 0x1e
 1224 068c F1020000 		.4byte	.LASF91
 1225 0690 09       		.byte	0x9
ARM GAS  C:\Users\EBANO_~1\AppData\Local\Temp\ccAi8UpB.s 			page 26


 1226 0691 9F02     		.2byte	0x29f
 1227 0693 D4090000 		.4byte	0x9d4
 1228 0697 02       		.byte	0x2
 1229 0698 23       		.byte	0x23
 1230 0699 58       		.uleb128 0x58
 1231 069a 1E       		.uleb128 0x1e
 1232 069b 56030000 		.4byte	.LASF51
 1233 069f 09       		.byte	0x9
 1234 06a0 A302     		.2byte	0x2a3
 1235 06a2 BC030000 		.4byte	0x3bc
 1236 06a6 03       		.byte	0x3
 1237 06a7 23       		.byte	0x23
 1238 06a8 C802     		.uleb128 0x148
 1239 06aa 1E       		.uleb128 0x1e
 1240 06ab 64000000 		.4byte	.LASF92
 1241 06af 09       		.byte	0x9
 1242 06b0 A402     		.2byte	0x2a4
 1243 06b2 75030000 		.4byte	0x375
 1244 06b6 03       		.byte	0x3
 1245 06b7 23       		.byte	0x23
 1246 06b8 CC02     		.uleb128 0x14c
 1247 06ba 1E       		.uleb128 0x1e
 1248 06bb 19060000 		.4byte	.LASF93
 1249 06bf 09       		.byte	0x9
 1250 06c0 A802     		.2byte	0x2a8
 1251 06c2 360A0000 		.4byte	0xa36
 1252 06c6 03       		.byte	0x3
 1253 06c7 23       		.byte	0x23
 1254 06c8 DC05     		.uleb128 0x2dc
 1255 06ca 1E       		.uleb128 0x1e
 1256 06cb 39010000 		.4byte	.LASF94
 1257 06cf 09       		.byte	0x9
 1258 06d0 AD02     		.2byte	0x2ad
 1259 06d2 9A070000 		.4byte	0x79a
 1260 06d6 03       		.byte	0x3
 1261 06d7 23       		.byte	0x23
 1262 06d8 E005     		.uleb128 0x2e0
 1263 06da 1E       		.uleb128 0x1e
 1264 06db 00010000 		.4byte	.LASF95
 1265 06df 09       		.byte	0x9
 1266 06e0 AF02     		.2byte	0x2af
 1267 06e2 420A0000 		.4byte	0xa42
 1268 06e6 03       		.byte	0x3
 1269 06e7 23       		.byte	0x23
 1270 06e8 EC05     		.uleb128 0x2ec
 1271 06ea 00       		.byte	0
 1272 06eb 11       		.uleb128 0x11
 1273 06ec 04       		.byte	0x4
 1274 06ed F1060000 		.4byte	0x6f1
 1275 06f1 02       		.uleb128 0x2
 1276 06f2 01       		.byte	0x1
 1277 06f3 08       		.byte	0x8
 1278 06f4 5B050000 		.4byte	.LASF96
 1279 06f8 05       		.uleb128 0x5
 1280 06f9 F1060000 		.4byte	0x6f1
 1281 06fd 11       		.uleb128 0x11
 1282 06fe 04       		.byte	0x4
ARM GAS  C:\Users\EBANO_~1\AppData\Local\Temp\ccAi8UpB.s 			page 27


 1283 06ff 63050000 		.4byte	0x563
 1284 0703 1B       		.uleb128 0x1b
 1285 0704 01       		.byte	0x1
 1286 0705 77000000 		.4byte	0x77
 1287 0709 22070000 		.4byte	0x722
 1288 070d 1C       		.uleb128 0x1c
 1289 070e 82050000 		.4byte	0x582
 1290 0712 1C       		.uleb128 0x1c
 1291 0713 6C010000 		.4byte	0x16c
 1292 0717 1C       		.uleb128 0x1c
 1293 0718 22070000 		.4byte	0x722
 1294 071c 1C       		.uleb128 0x1c
 1295 071d 77000000 		.4byte	0x77
 1296 0721 00       		.byte	0
 1297 0722 11       		.uleb128 0x11
 1298 0723 04       		.byte	0x4
 1299 0724 F8060000 		.4byte	0x6f8
 1300 0728 11       		.uleb128 0x11
 1301 0729 04       		.byte	0x4
 1302 072a 03070000 		.4byte	0x703
 1303 072e 1B       		.uleb128 0x1b
 1304 072f 01       		.byte	0x1
 1305 0730 90010000 		.4byte	0x190
 1306 0734 4D070000 		.4byte	0x74d
 1307 0738 1C       		.uleb128 0x1c
 1308 0739 82050000 		.4byte	0x582
 1309 073d 1C       		.uleb128 0x1c
 1310 073e 6C010000 		.4byte	0x16c
 1311 0742 1C       		.uleb128 0x1c
 1312 0743 90010000 		.4byte	0x190
 1313 0747 1C       		.uleb128 0x1c
 1314 0748 77000000 		.4byte	0x77
 1315 074c 00       		.byte	0
 1316 074d 11       		.uleb128 0x11
 1317 074e 04       		.byte	0x4
 1318 074f 2E070000 		.4byte	0x72e
 1319 0753 1B       		.uleb128 0x1b
 1320 0754 01       		.byte	0x1
 1321 0755 77000000 		.4byte	0x77
 1322 0759 68070000 		.4byte	0x768
 1323 075d 1C       		.uleb128 0x1c
 1324 075e 82050000 		.4byte	0x582
 1325 0762 1C       		.uleb128 0x1c
 1326 0763 6C010000 		.4byte	0x16c
 1327 0767 00       		.byte	0
 1328 0768 11       		.uleb128 0x11
 1329 0769 04       		.byte	0x4
 1330 076a 53070000 		.4byte	0x753
 1331 076e 08       		.uleb128 0x8
 1332 076f 3B000000 		.4byte	0x3b
 1333 0773 7E070000 		.4byte	0x77e
 1334 0777 09       		.uleb128 0x9
 1335 0778 7E000000 		.4byte	0x7e
 1336 077c 02       		.byte	0x2
 1337 077d 00       		.byte	0
 1338 077e 08       		.uleb128 0x8
 1339 077f 3B000000 		.4byte	0x3b
ARM GAS  C:\Users\EBANO_~1\AppData\Local\Temp\ccAi8UpB.s 			page 28


 1340 0783 8E070000 		.4byte	0x78e
 1341 0787 09       		.uleb128 0x9
 1342 0788 7E000000 		.4byte	0x7e
 1343 078c 00       		.byte	0
 1344 078d 00       		.byte	0
 1345 078e 0C       		.uleb128 0xc
 1346 078f 95040000 		.4byte	.LASF97
 1347 0793 09       		.byte	0x9
 1348 0794 1F01     		.2byte	0x11f
 1349 0796 09040000 		.4byte	0x409
 1350 079a 1F       		.uleb128 0x1f
 1351 079b 01060000 		.4byte	.LASF98
 1352 079f 0C       		.byte	0xc
 1353 07a0 09       		.byte	0x9
 1354 07a1 2301     		.2byte	0x123
 1355 07a3 D5070000 		.4byte	0x7d5
 1356 07a7 1E       		.uleb128 0x1e
 1357 07a8 8A050000 		.4byte	.LASF31
 1358 07ac 09       		.byte	0x9
 1359 07ad 2501     		.2byte	0x125
 1360 07af D5070000 		.4byte	0x7d5
 1361 07b3 02       		.byte	0x2
 1362 07b4 23       		.byte	0x23
 1363 07b5 00       		.uleb128 0
 1364 07b6 1E       		.uleb128 0x1e
 1365 07b7 94020000 		.4byte	.LASF99
 1366 07bb 09       		.byte	0x9
 1367 07bc 2601     		.2byte	0x126
 1368 07be 77000000 		.4byte	0x77
 1369 07c2 02       		.byte	0x2
 1370 07c3 23       		.byte	0x23
 1371 07c4 04       		.uleb128 0x4
 1372 07c5 1E       		.uleb128 0x1e
 1373 07c6 64040000 		.4byte	.LASF100
 1374 07ca 09       		.byte	0x9
 1375 07cb 2701     		.2byte	0x127
 1376 07cd DB070000 		.4byte	0x7db
 1377 07d1 02       		.byte	0x2
 1378 07d2 23       		.byte	0x23
 1379 07d3 08       		.uleb128 0x8
 1380 07d4 00       		.byte	0
 1381 07d5 11       		.uleb128 0x11
 1382 07d6 04       		.byte	0x4
 1383 07d7 9A070000 		.4byte	0x79a
 1384 07db 11       		.uleb128 0x11
 1385 07dc 04       		.byte	0x4
 1386 07dd 8E070000 		.4byte	0x78e
 1387 07e1 1F       		.uleb128 0x1f
 1388 07e2 3E000000 		.4byte	.LASF101
 1389 07e6 0E       		.byte	0xe
 1390 07e7 09       		.byte	0x9
 1391 07e8 3F01     		.2byte	0x13f
 1392 07ea 1C080000 		.4byte	0x81c
 1393 07ee 1E       		.uleb128 0x1e
 1394 07ef 09050000 		.4byte	.LASF102
 1395 07f3 09       		.byte	0x9
 1396 07f4 4001     		.2byte	0x140
ARM GAS  C:\Users\EBANO_~1\AppData\Local\Temp\ccAi8UpB.s 			page 29


 1397 07f6 1C080000 		.4byte	0x81c
 1398 07fa 02       		.byte	0x2
 1399 07fb 23       		.byte	0x23
 1400 07fc 00       		.uleb128 0
 1401 07fd 1E       		.uleb128 0x1e
 1402 07fe 0E030000 		.4byte	.LASF103
 1403 0802 09       		.byte	0x9
 1404 0803 4101     		.2byte	0x141
 1405 0805 1C080000 		.4byte	0x81c
 1406 0809 02       		.byte	0x2
 1407 080a 23       		.byte	0x23
 1408 080b 06       		.uleb128 0x6
 1409 080c 1E       		.uleb128 0x1e
 1410 080d B9050000 		.4byte	.LASF104
 1411 0811 09       		.byte	0x9
 1412 0812 4201     		.2byte	0x142
 1413 0814 49000000 		.4byte	0x49
 1414 0818 02       		.byte	0x2
 1415 0819 23       		.byte	0x23
 1416 081a 0C       		.uleb128 0xc
 1417 081b 00       		.byte	0
 1418 081c 08       		.uleb128 0x8
 1419 081d 49000000 		.4byte	0x49
 1420 0821 2C080000 		.4byte	0x82c
 1421 0825 09       		.uleb128 0x9
 1422 0826 7E000000 		.4byte	0x7e
 1423 082a 02       		.byte	0x2
 1424 082b 00       		.byte	0
 1425 082c 0A       		.uleb128 0xa
 1426 082d D0       		.byte	0xd0
 1427 082e 09       		.byte	0x9
 1428 082f 8002     		.2byte	0x280
 1429 0831 5C090000 		.4byte	0x95c
 1430 0835 1E       		.uleb128 0x1e
 1431 0836 EF050000 		.4byte	.LASF105
 1432 083a 09       		.byte	0x9
 1433 083b 8202     		.2byte	0x282
 1434 083d 7E000000 		.4byte	0x7e
 1435 0841 02       		.byte	0x2
 1436 0842 23       		.byte	0x23
 1437 0843 00       		.uleb128 0
 1438 0844 1E       		.uleb128 0x1e
 1439 0845 90050000 		.4byte	.LASF106
 1440 0849 09       		.byte	0x9
 1441 084a 8302     		.2byte	0x283
 1442 084c EB060000 		.4byte	0x6eb
 1443 0850 02       		.byte	0x2
 1444 0851 23       		.byte	0x23
 1445 0852 04       		.uleb128 0x4
 1446 0853 1E       		.uleb128 0x1e
 1447 0854 B2020000 		.4byte	.LASF107
 1448 0858 09       		.byte	0x9
 1449 0859 8402     		.2byte	0x284
 1450 085b 5C090000 		.4byte	0x95c
 1451 085f 02       		.byte	0x2
 1452 0860 23       		.byte	0x23
 1453 0861 08       		.uleb128 0x8
ARM GAS  C:\Users\EBANO_~1\AppData\Local\Temp\ccAi8UpB.s 			page 30


 1454 0862 1E       		.uleb128 0x1e
 1455 0863 C9060000 		.4byte	.LASF108
 1456 0867 09       		.byte	0x9
 1457 0868 8502     		.2byte	0x285
 1458 086a 91020000 		.4byte	0x291
 1459 086e 02       		.byte	0x2
 1460 086f 23       		.byte	0x23
 1461 0870 24       		.uleb128 0x24
 1462 0871 1E       		.uleb128 0x1e
 1463 0872 69030000 		.4byte	.LASF109
 1464 0876 09       		.byte	0x9
 1465 0877 8602     		.2byte	0x286
 1466 0879 77000000 		.4byte	0x77
 1467 087d 02       		.byte	0x2
 1468 087e 23       		.byte	0x23
 1469 087f 48       		.uleb128 0x48
 1470 0880 1E       		.uleb128 0x1e
 1471 0881 9B020000 		.4byte	.LASF110
 1472 0885 09       		.byte	0x9
 1473 0886 8702     		.2byte	0x287
 1474 0888 70000000 		.4byte	0x70
 1475 088c 02       		.byte	0x2
 1476 088d 23       		.byte	0x23
 1477 088e 50       		.uleb128 0x50
 1478 088f 1E       		.uleb128 0x1e
 1479 0890 E1060000 		.4byte	.LASF111
 1480 0894 09       		.byte	0x9
 1481 0895 8802     		.2byte	0x288
 1482 0897 E1070000 		.4byte	0x7e1
 1483 089b 02       		.byte	0x2
 1484 089c 23       		.byte	0x23
 1485 089d 58       		.uleb128 0x58
 1486 089e 1E       		.uleb128 0x1e
 1487 089f B8040000 		.4byte	.LASF112
 1488 08a3 09       		.byte	0x9
 1489 08a4 8902     		.2byte	0x289
 1490 08a6 FB010000 		.4byte	0x1fb
 1491 08aa 02       		.byte	0x2
 1492 08ab 23       		.byte	0x23
 1493 08ac 68       		.uleb128 0x68
 1494 08ad 1E       		.uleb128 0x1e
 1495 08ae E6060000 		.4byte	.LASF113
 1496 08b2 09       		.byte	0x9
 1497 08b3 8A02     		.2byte	0x28a
 1498 08b5 FB010000 		.4byte	0x1fb
 1499 08b9 02       		.byte	0x2
 1500 08ba 23       		.byte	0x23
 1501 08bb 70       		.uleb128 0x70
 1502 08bc 1E       		.uleb128 0x1e
 1503 08bd 89030000 		.4byte	.LASF114
 1504 08c1 09       		.byte	0x9
 1505 08c2 8B02     		.2byte	0x28b
 1506 08c4 FB010000 		.4byte	0x1fb
 1507 08c8 02       		.byte	0x2
 1508 08c9 23       		.byte	0x23
 1509 08ca 78       		.uleb128 0x78
 1510 08cb 1E       		.uleb128 0x1e
ARM GAS  C:\Users\EBANO_~1\AppData\Local\Temp\ccAi8UpB.s 			page 31


 1511 08cc 0F060000 		.4byte	.LASF115
 1512 08d0 09       		.byte	0x9
 1513 08d1 8C02     		.2byte	0x28c
 1514 08d3 6C090000 		.4byte	0x96c
 1515 08d7 03       		.byte	0x3
 1516 08d8 23       		.byte	0x23
 1517 08d9 8001     		.uleb128 0x80
 1518 08db 1E       		.uleb128 0x1e
 1519 08dc A6020000 		.4byte	.LASF116
 1520 08e0 09       		.byte	0x9
 1521 08e1 8D02     		.2byte	0x28d
 1522 08e3 7C090000 		.4byte	0x97c
 1523 08e7 03       		.byte	0x3
 1524 08e8 23       		.byte	0x23
 1525 08e9 8801     		.uleb128 0x88
 1526 08eb 1E       		.uleb128 0x1e
 1527 08ec C6050000 		.4byte	.LASF117
 1528 08f0 09       		.byte	0x9
 1529 08f1 8E02     		.2byte	0x28e
 1530 08f3 77000000 		.4byte	0x77
 1531 08f7 03       		.byte	0x3
 1532 08f8 23       		.byte	0x23
 1533 08f9 A001     		.uleb128 0xa0
 1534 08fb 1E       		.uleb128 0x1e
 1535 08fc B8010000 		.4byte	.LASF118
 1536 0900 09       		.byte	0x9
 1537 0901 8F02     		.2byte	0x28f
 1538 0903 FB010000 		.4byte	0x1fb
 1539 0907 03       		.byte	0x3
 1540 0908 23       		.byte	0x23
 1541 0909 A401     		.uleb128 0xa4
 1542 090b 1E       		.uleb128 0x1e
 1543 090c B8000000 		.4byte	.LASF119
 1544 0910 09       		.byte	0x9
 1545 0911 9002     		.2byte	0x290
 1546 0913 FB010000 		.4byte	0x1fb
 1547 0917 03       		.byte	0x3
 1548 0918 23       		.byte	0x23
 1549 0919 AC01     		.uleb128 0xac
 1550 091b 1E       		.uleb128 0x1e
 1551 091c A7010000 		.4byte	.LASF120
 1552 0920 09       		.byte	0x9
 1553 0921 9102     		.2byte	0x291
 1554 0923 FB010000 		.4byte	0x1fb
 1555 0927 03       		.byte	0x3
 1556 0928 23       		.byte	0x23
 1557 0929 B401     		.uleb128 0xb4
 1558 092b 1E       		.uleb128 0x1e
 1559 092c 6D000000 		.4byte	.LASF121
 1560 0930 09       		.byte	0x9
 1561 0931 9202     		.2byte	0x292
 1562 0933 FB010000 		.4byte	0x1fb
 1563 0937 03       		.byte	0x3
 1564 0938 23       		.byte	0x23
 1565 0939 BC01     		.uleb128 0xbc
 1566 093b 1E       		.uleb128 0x1e
 1567 093c 7C000000 		.4byte	.LASF122
ARM GAS  C:\Users\EBANO_~1\AppData\Local\Temp\ccAi8UpB.s 			page 32


 1568 0940 09       		.byte	0x9
 1569 0941 9302     		.2byte	0x293
 1570 0943 FB010000 		.4byte	0x1fb
 1571 0947 03       		.byte	0x3
 1572 0948 23       		.byte	0x23
 1573 0949 C401     		.uleb128 0xc4
 1574 094b 1E       		.uleb128 0x1e
 1575 094c 6A040000 		.4byte	.LASF123
 1576 0950 09       		.byte	0x9
 1577 0951 9402     		.2byte	0x294
 1578 0953 77000000 		.4byte	0x77
 1579 0957 03       		.byte	0x3
 1580 0958 23       		.byte	0x23
 1581 0959 CC01     		.uleb128 0xcc
 1582 095b 00       		.byte	0
 1583 095c 08       		.uleb128 0x8
 1584 095d F1060000 		.4byte	0x6f1
 1585 0961 6C090000 		.4byte	0x96c
 1586 0965 09       		.uleb128 0x9
 1587 0966 7E000000 		.4byte	0x7e
 1588 096a 19       		.byte	0x19
 1589 096b 00       		.byte	0
 1590 096c 08       		.uleb128 0x8
 1591 096d F1060000 		.4byte	0x6f1
 1592 0971 7C090000 		.4byte	0x97c
 1593 0975 09       		.uleb128 0x9
 1594 0976 7E000000 		.4byte	0x7e
 1595 097a 07       		.byte	0x7
 1596 097b 00       		.byte	0
 1597 097c 08       		.uleb128 0x8
 1598 097d F1060000 		.4byte	0x6f1
 1599 0981 8C090000 		.4byte	0x98c
 1600 0985 09       		.uleb128 0x9
 1601 0986 7E000000 		.4byte	0x7e
 1602 098a 17       		.byte	0x17
 1603 098b 00       		.byte	0
 1604 098c 0A       		.uleb128 0xa
 1605 098d F0       		.byte	0xf0
 1606 098e 09       		.byte	0x9
 1607 098f 9902     		.2byte	0x299
 1608 0991 B4090000 		.4byte	0x9b4
 1609 0995 1E       		.uleb128 0x1e
 1610 0996 46030000 		.4byte	.LASF124
 1611 099a 09       		.byte	0x9
 1612 099b 9C02     		.2byte	0x29c
 1613 099d B4090000 		.4byte	0x9b4
 1614 09a1 02       		.byte	0x2
 1615 09a2 23       		.byte	0x23
 1616 09a3 00       		.uleb128 0
 1617 09a4 1E       		.uleb128 0x1e
 1618 09a5 31030000 		.4byte	.LASF125
 1619 09a9 09       		.byte	0x9
 1620 09aa 9D02     		.2byte	0x29d
 1621 09ac C4090000 		.4byte	0x9c4
 1622 09b0 02       		.byte	0x2
 1623 09b1 23       		.byte	0x23
 1624 09b2 78       		.uleb128 0x78
ARM GAS  C:\Users\EBANO_~1\AppData\Local\Temp\ccAi8UpB.s 			page 33


 1625 09b3 00       		.byte	0
 1626 09b4 08       		.uleb128 0x8
 1627 09b5 03040000 		.4byte	0x403
 1628 09b9 C4090000 		.4byte	0x9c4
 1629 09bd 09       		.uleb128 0x9
 1630 09be 7E000000 		.4byte	0x7e
 1631 09c2 1D       		.byte	0x1d
 1632 09c3 00       		.byte	0
 1633 09c4 08       		.uleb128 0x8
 1634 09c5 7E000000 		.4byte	0x7e
 1635 09c9 D4090000 		.4byte	0x9d4
 1636 09cd 09       		.uleb128 0x9
 1637 09ce 7E000000 		.4byte	0x7e
 1638 09d2 1D       		.byte	0x1d
 1639 09d3 00       		.byte	0
 1640 09d4 20       		.uleb128 0x20
 1641 09d5 F0       		.byte	0xf0
 1642 09d6 09       		.byte	0x9
 1643 09d7 7E02     		.2byte	0x27e
 1644 09d9 F6090000 		.4byte	0x9f6
 1645 09dd 21       		.uleb128 0x21
 1646 09de 02050000 		.4byte	.LASF74
 1647 09e2 09       		.byte	0x9
 1648 09e3 9502     		.2byte	0x295
 1649 09e5 2C080000 		.4byte	0x82c
 1650 09e9 21       		.uleb128 0x21
 1651 09ea B6060000 		.4byte	.LASF126
 1652 09ee 09       		.byte	0x9
 1653 09ef 9E02     		.2byte	0x29e
 1654 09f1 8C090000 		.4byte	0x98c
 1655 09f5 00       		.byte	0
 1656 09f6 08       		.uleb128 0x8
 1657 09f7 F1060000 		.4byte	0x6f1
 1658 09fb 060A0000 		.4byte	0xa06
 1659 09ff 09       		.uleb128 0x9
 1660 0a00 7E000000 		.4byte	0x7e
 1661 0a04 18       		.byte	0x18
 1662 0a05 00       		.byte	0
 1663 0a06 12       		.uleb128 0x12
 1664 0a07 AD000000 		.4byte	.LASF128
 1665 0a0b 01       		.byte	0x1
 1666 0a0c 11       		.uleb128 0x11
 1667 0a0d 04       		.byte	0x4
 1668 0a0e 060A0000 		.4byte	0xa06
 1669 0a12 22       		.uleb128 0x22
 1670 0a13 01       		.byte	0x1
 1671 0a14 1E0A0000 		.4byte	0xa1e
 1672 0a18 1C       		.uleb128 0x1c
 1673 0a19 82050000 		.4byte	0x582
 1674 0a1d 00       		.byte	0
 1675 0a1e 11       		.uleb128 0x11
 1676 0a1f 04       		.byte	0x4
 1677 0a20 120A0000 		.4byte	0xa12
 1678 0a24 11       		.uleb128 0x11
 1679 0a25 04       		.byte	0x4
 1680 0a26 7B020000 		.4byte	0x27b
 1681 0a2a 22       		.uleb128 0x22
ARM GAS  C:\Users\EBANO_~1\AppData\Local\Temp\ccAi8UpB.s 			page 34


 1682 0a2b 01       		.byte	0x1
 1683 0a2c 360A0000 		.4byte	0xa36
 1684 0a30 1C       		.uleb128 0x1c
 1685 0a31 77000000 		.4byte	0x77
 1686 0a35 00       		.byte	0
 1687 0a36 11       		.uleb128 0x11
 1688 0a37 04       		.byte	0x4
 1689 0a38 3C0A0000 		.4byte	0xa3c
 1690 0a3c 11       		.uleb128 0x11
 1691 0a3d 04       		.byte	0x4
 1692 0a3e 2A0A0000 		.4byte	0xa2a
 1693 0a42 08       		.uleb128 0x8
 1694 0a43 8E070000 		.4byte	0x78e
 1695 0a47 520A0000 		.4byte	0xa52
 1696 0a4b 09       		.uleb128 0x9
 1697 0a4c 7E000000 		.4byte	0x7e
 1698 0a50 02       		.byte	0x2
 1699 0a51 00       		.byte	0
 1700 0a52 23       		.uleb128 0x23
 1701 0a53 EC010000 		.4byte	.LASF129
 1702 0a57 09       		.byte	0x9
 1703 0a58 2E03     		.2byte	0x32e
 1704 0a5a 82050000 		.4byte	0x582
 1705 0a5e 01       		.byte	0x1
 1706 0a5f 01       		.byte	0x1
 1707 0a60 23       		.uleb128 0x23
 1708 0a61 D3050000 		.4byte	.LASF130
 1709 0a65 09       		.byte	0x9
 1710 0a66 2F03     		.2byte	0x32f
 1711 0a68 88050000 		.4byte	0x588
 1712 0a6c 01       		.byte	0x1
 1713 0a6d 01       		.byte	0x1
 1714 0a6e 0D       		.uleb128 0xd
 1715 0a6f 07       		.byte	0x7
 1716 0a70 01       		.byte	0x1
 1717 0a71 3B000000 		.4byte	0x3b
 1718 0a75 0B       		.byte	0xb
 1719 0a76 38       		.byte	0x38
 1720 0a77 940A0000 		.4byte	0xa94
 1721 0a7b 0E       		.uleb128 0xe
 1722 0a7c 87020000 		.4byte	.LASF131
 1723 0a80 00       		.byte	0
 1724 0a81 0E       		.uleb128 0xe
 1725 0a82 2C050000 		.4byte	.LASF132
 1726 0a86 01       		.byte	0x1
 1727 0a87 0E       		.uleb128 0xe
 1728 0a88 5B000000 		.4byte	.LASF133
 1729 0a8c 02       		.byte	0x2
 1730 0a8d 0E       		.uleb128 0xe
 1731 0a8e 37020000 		.4byte	.LASF134
 1732 0a92 03       		.byte	0x3
 1733 0a93 00       		.byte	0
 1734 0a94 03       		.uleb128 0x3
 1735 0a95 F6020000 		.4byte	.LASF135
 1736 0a99 0B       		.byte	0xb
 1737 0a9a 3D       		.byte	0x3d
 1738 0a9b 6E0A0000 		.4byte	0xa6e
ARM GAS  C:\Users\EBANO_~1\AppData\Local\Temp\ccAi8UpB.s 			page 35


 1739 0a9f 24       		.uleb128 0x24
 1740 0aa0 01       		.byte	0x1
 1741 0aa1 9D030000 		.4byte	.LASF144
 1742 0aa5 01       		.byte	0x1
 1743 0aa6 A2       		.byte	0xa2
 1744 0aa7 01       		.byte	0x1
 1745 0aa8 940A0000 		.4byte	0xa94
 1746 0aac 00000000 		.4byte	.LFB45
 1747 0ab0 5C000000 		.4byte	.LFE45
 1748 0ab4 00000000 		.4byte	.LLST0
 1749 0ab8 01       		.byte	0x1
 1750 0ab9 CD0A0000 		.4byte	0xacd
 1751 0abd 25       		.uleb128 0x25
 1752 0abe CB010000 		.4byte	.LASF145
 1753 0ac2 01       		.byte	0x1
 1754 0ac3 A4       		.byte	0xa4
 1755 0ac4 95000000 		.4byte	0x95
 1756 0ac8 20000000 		.4byte	.LLST1
 1757 0acc 00       		.byte	0
 1758 0acd 26       		.uleb128 0x26
 1759 0ace 01       		.byte	0x1
 1760 0acf 16000000 		.4byte	.LASF136
 1761 0ad3 01       		.byte	0x1
 1762 0ad4 93       		.byte	0x93
 1763 0ad5 01       		.byte	0x1
 1764 0ad6 00000000 		.4byte	.LFB44
 1765 0ada 1C000000 		.4byte	.LFE44
 1766 0ade 02       		.byte	0x2
 1767 0adf 7D       		.byte	0x7d
 1768 0ae0 00       		.sleb128 0
 1769 0ae1 01       		.byte	0x1
 1770 0ae2 26       		.uleb128 0x26
 1771 0ae3 01       		.byte	0x1
 1772 0ae4 6A010000 		.4byte	.LASF137
 1773 0ae8 01       		.byte	0x1
 1774 0ae9 81       		.byte	0x81
 1775 0aea 01       		.byte	0x1
 1776 0aeb 00000000 		.4byte	.LFB43
 1777 0aef 14000000 		.4byte	.LFE43
 1778 0af3 02       		.byte	0x2
 1779 0af4 7D       		.byte	0x7d
 1780 0af5 00       		.sleb128 0
 1781 0af6 01       		.byte	0x1
 1782 0af7 26       		.uleb128 0x26
 1783 0af8 01       		.byte	0x1
 1784 0af9 13010000 		.4byte	.LASF138
 1785 0afd 01       		.byte	0x1
 1786 0afe 77       		.byte	0x77
 1787 0aff 01       		.byte	0x1
 1788 0b00 00000000 		.4byte	.LFB42
 1789 0b04 14000000 		.4byte	.LFE42
 1790 0b08 02       		.byte	0x2
 1791 0b09 7D       		.byte	0x7d
 1792 0b0a 00       		.sleb128 0
 1793 0b0b 01       		.byte	0x1
 1794 0b0c 26       		.uleb128 0x26
 1795 0b0d 01       		.byte	0x1
ARM GAS  C:\Users\EBANO_~1\AppData\Local\Temp\ccAi8UpB.s 			page 36


 1796 0b0e BF020000 		.4byte	.LASF139
 1797 0b12 01       		.byte	0x1
 1798 0b13 6D       		.byte	0x6d
 1799 0b14 01       		.byte	0x1
 1800 0b15 00000000 		.4byte	.LFB41
 1801 0b19 14000000 		.4byte	.LFE41
 1802 0b1d 02       		.byte	0x2
 1803 0b1e 7D       		.byte	0x7d
 1804 0b1f 00       		.sleb128 0
 1805 0b20 01       		.byte	0x1
 1806 0b21 26       		.uleb128 0x26
 1807 0b22 01       		.byte	0x1
 1808 0b23 16020000 		.4byte	.LASF140
 1809 0b27 01       		.byte	0x1
 1810 0b28 63       		.byte	0x63
 1811 0b29 01       		.byte	0x1
 1812 0b2a 00000000 		.4byte	.LFB40
 1813 0b2e 14000000 		.4byte	.LFE40
 1814 0b32 02       		.byte	0x2
 1815 0b33 7D       		.byte	0x7d
 1816 0b34 00       		.sleb128 0
 1817 0b35 01       		.byte	0x1
 1818 0b36 27       		.uleb128 0x27
 1819 0b37 01       		.byte	0x1
 1820 0b38 23060000 		.4byte	.LASF146
 1821 0b3c 01       		.byte	0x1
 1822 0b3d 56       		.byte	0x56
 1823 0b3e 01       		.byte	0x1
 1824 0b3f 95000000 		.4byte	0x95
 1825 0b43 00000000 		.4byte	.LFB39
 1826 0b47 10000000 		.4byte	.LFE39
 1827 0b4b 02       		.byte	0x2
 1828 0b4c 7D       		.byte	0x7d
 1829 0b4d 00       		.sleb128 0
 1830 0b4e 01       		.byte	0x1
 1831 0b4f 00       		.byte	0
 1832              		.section	.debug_abbrev,"",%progbits
 1833              	.Ldebug_abbrev0:
 1834 0000 01       		.uleb128 0x1
 1835 0001 11       		.uleb128 0x11
 1836 0002 01       		.byte	0x1
 1837 0003 25       		.uleb128 0x25
 1838 0004 0E       		.uleb128 0xe
 1839 0005 13       		.uleb128 0x13
 1840 0006 0B       		.uleb128 0xb
 1841 0007 03       		.uleb128 0x3
 1842 0008 0E       		.uleb128 0xe
 1843 0009 1B       		.uleb128 0x1b
 1844 000a 0E       		.uleb128 0xe
 1845 000b 55       		.uleb128 0x55
 1846 000c 06       		.uleb128 0x6
 1847 000d 11       		.uleb128 0x11
 1848 000e 01       		.uleb128 0x1
 1849 000f 52       		.uleb128 0x52
 1850 0010 01       		.uleb128 0x1
 1851 0011 10       		.uleb128 0x10
 1852 0012 06       		.uleb128 0x6
ARM GAS  C:\Users\EBANO_~1\AppData\Local\Temp\ccAi8UpB.s 			page 37


 1853 0013 00       		.byte	0
 1854 0014 00       		.byte	0
 1855 0015 02       		.uleb128 0x2
 1856 0016 24       		.uleb128 0x24
 1857 0017 00       		.byte	0
 1858 0018 0B       		.uleb128 0xb
 1859 0019 0B       		.uleb128 0xb
 1860 001a 3E       		.uleb128 0x3e
 1861 001b 0B       		.uleb128 0xb
 1862 001c 03       		.uleb128 0x3
 1863 001d 0E       		.uleb128 0xe
 1864 001e 00       		.byte	0
 1865 001f 00       		.byte	0
 1866 0020 03       		.uleb128 0x3
 1867 0021 16       		.uleb128 0x16
 1868 0022 00       		.byte	0
 1869 0023 03       		.uleb128 0x3
 1870 0024 0E       		.uleb128 0xe
 1871 0025 3A       		.uleb128 0x3a
 1872 0026 0B       		.uleb128 0xb
 1873 0027 3B       		.uleb128 0x3b
 1874 0028 0B       		.uleb128 0xb
 1875 0029 49       		.uleb128 0x49
 1876 002a 13       		.uleb128 0x13
 1877 002b 00       		.byte	0
 1878 002c 00       		.byte	0
 1879 002d 04       		.uleb128 0x4
 1880 002e 24       		.uleb128 0x24
 1881 002f 00       		.byte	0
 1882 0030 0B       		.uleb128 0xb
 1883 0031 0B       		.uleb128 0xb
 1884 0032 3E       		.uleb128 0x3e
 1885 0033 0B       		.uleb128 0xb
 1886 0034 03       		.uleb128 0x3
 1887 0035 08       		.uleb128 0x8
 1888 0036 00       		.byte	0
 1889 0037 00       		.byte	0
 1890 0038 05       		.uleb128 0x5
 1891 0039 26       		.uleb128 0x26
 1892 003a 00       		.byte	0
 1893 003b 49       		.uleb128 0x49
 1894 003c 13       		.uleb128 0x13
 1895 003d 00       		.byte	0
 1896 003e 00       		.byte	0
 1897 003f 06       		.uleb128 0x6
 1898 0040 35       		.uleb128 0x35
 1899 0041 00       		.byte	0
 1900 0042 49       		.uleb128 0x49
 1901 0043 13       		.uleb128 0x13
 1902 0044 00       		.byte	0
 1903 0045 00       		.byte	0
 1904 0046 07       		.uleb128 0x7
 1905 0047 34       		.uleb128 0x34
 1906 0048 00       		.byte	0
 1907 0049 03       		.uleb128 0x3
 1908 004a 0E       		.uleb128 0xe
 1909 004b 3A       		.uleb128 0x3a
ARM GAS  C:\Users\EBANO_~1\AppData\Local\Temp\ccAi8UpB.s 			page 38


 1910 004c 0B       		.uleb128 0xb
 1911 004d 3B       		.uleb128 0x3b
 1912 004e 0B       		.uleb128 0xb
 1913 004f 49       		.uleb128 0x49
 1914 0050 13       		.uleb128 0x13
 1915 0051 3F       		.uleb128 0x3f
 1916 0052 0C       		.uleb128 0xc
 1917 0053 3C       		.uleb128 0x3c
 1918 0054 0C       		.uleb128 0xc
 1919 0055 00       		.byte	0
 1920 0056 00       		.byte	0
 1921 0057 08       		.uleb128 0x8
 1922 0058 01       		.uleb128 0x1
 1923 0059 01       		.byte	0x1
 1924 005a 49       		.uleb128 0x49
 1925 005b 13       		.uleb128 0x13
 1926 005c 01       		.uleb128 0x1
 1927 005d 13       		.uleb128 0x13
 1928 005e 00       		.byte	0
 1929 005f 00       		.byte	0
 1930 0060 09       		.uleb128 0x9
 1931 0061 21       		.uleb128 0x21
 1932 0062 00       		.byte	0
 1933 0063 49       		.uleb128 0x49
 1934 0064 13       		.uleb128 0x13
 1935 0065 2F       		.uleb128 0x2f
 1936 0066 0B       		.uleb128 0xb
 1937 0067 00       		.byte	0
 1938 0068 00       		.byte	0
 1939 0069 0A       		.uleb128 0xa
 1940 006a 13       		.uleb128 0x13
 1941 006b 01       		.byte	0x1
 1942 006c 0B       		.uleb128 0xb
 1943 006d 0B       		.uleb128 0xb
 1944 006e 3A       		.uleb128 0x3a
 1945 006f 0B       		.uleb128 0xb
 1946 0070 3B       		.uleb128 0x3b
 1947 0071 05       		.uleb128 0x5
 1948 0072 01       		.uleb128 0x1
 1949 0073 13       		.uleb128 0x13
 1950 0074 00       		.byte	0
 1951 0075 00       		.byte	0
 1952 0076 0B       		.uleb128 0xb
 1953 0077 0D       		.uleb128 0xd
 1954 0078 00       		.byte	0
 1955 0079 03       		.uleb128 0x3
 1956 007a 08       		.uleb128 0x8
 1957 007b 3A       		.uleb128 0x3a
 1958 007c 0B       		.uleb128 0xb
 1959 007d 3B       		.uleb128 0x3b
 1960 007e 05       		.uleb128 0x5
 1961 007f 49       		.uleb128 0x49
 1962 0080 13       		.uleb128 0x13
 1963 0081 38       		.uleb128 0x38
 1964 0082 0A       		.uleb128 0xa
 1965 0083 00       		.byte	0
 1966 0084 00       		.byte	0
ARM GAS  C:\Users\EBANO_~1\AppData\Local\Temp\ccAi8UpB.s 			page 39


 1967 0085 0C       		.uleb128 0xc
 1968 0086 16       		.uleb128 0x16
 1969 0087 00       		.byte	0
 1970 0088 03       		.uleb128 0x3
 1971 0089 0E       		.uleb128 0xe
 1972 008a 3A       		.uleb128 0x3a
 1973 008b 0B       		.uleb128 0xb
 1974 008c 3B       		.uleb128 0x3b
 1975 008d 05       		.uleb128 0x5
 1976 008e 49       		.uleb128 0x49
 1977 008f 13       		.uleb128 0x13
 1978 0090 00       		.byte	0
 1979 0091 00       		.byte	0
 1980 0092 0D       		.uleb128 0xd
 1981 0093 04       		.uleb128 0x4
 1982 0094 01       		.byte	0x1
 1983 0095 3E       		.uleb128 0x3e
 1984 0096 0B       		.uleb128 0xb
 1985 0097 0B       		.uleb128 0xb
 1986 0098 0B       		.uleb128 0xb
 1987 0099 49       		.uleb128 0x49
 1988 009a 13       		.uleb128 0x13
 1989 009b 3A       		.uleb128 0x3a
 1990 009c 0B       		.uleb128 0xb
 1991 009d 3B       		.uleb128 0x3b
 1992 009e 0B       		.uleb128 0xb
 1993 009f 01       		.uleb128 0x1
 1994 00a0 13       		.uleb128 0x13
 1995 00a1 00       		.byte	0
 1996 00a2 00       		.byte	0
 1997 00a3 0E       		.uleb128 0xe
 1998 00a4 28       		.uleb128 0x28
 1999 00a5 00       		.byte	0
 2000 00a6 03       		.uleb128 0x3
 2001 00a7 0E       		.uleb128 0xe
 2002 00a8 1C       		.uleb128 0x1c
 2003 00a9 0B       		.uleb128 0xb
 2004 00aa 00       		.byte	0
 2005 00ab 00       		.byte	0
 2006 00ac 0F       		.uleb128 0xf
 2007 00ad 28       		.uleb128 0x28
 2008 00ae 00       		.byte	0
 2009 00af 03       		.uleb128 0x3
 2010 00b0 08       		.uleb128 0x8
 2011 00b1 1C       		.uleb128 0x1c
 2012 00b2 0B       		.uleb128 0xb
 2013 00b3 00       		.byte	0
 2014 00b4 00       		.byte	0
 2015 00b5 10       		.uleb128 0x10
 2016 00b6 0F       		.uleb128 0xf
 2017 00b7 00       		.byte	0
 2018 00b8 0B       		.uleb128 0xb
 2019 00b9 0B       		.uleb128 0xb
 2020 00ba 00       		.byte	0
 2021 00bb 00       		.byte	0
 2022 00bc 11       		.uleb128 0x11
 2023 00bd 0F       		.uleb128 0xf
ARM GAS  C:\Users\EBANO_~1\AppData\Local\Temp\ccAi8UpB.s 			page 40


 2024 00be 00       		.byte	0
 2025 00bf 0B       		.uleb128 0xb
 2026 00c0 0B       		.uleb128 0xb
 2027 00c1 49       		.uleb128 0x49
 2028 00c2 13       		.uleb128 0x13
 2029 00c3 00       		.byte	0
 2030 00c4 00       		.byte	0
 2031 00c5 12       		.uleb128 0x12
 2032 00c6 13       		.uleb128 0x13
 2033 00c7 00       		.byte	0
 2034 00c8 03       		.uleb128 0x3
 2035 00c9 0E       		.uleb128 0xe
 2036 00ca 3C       		.uleb128 0x3c
 2037 00cb 0C       		.uleb128 0xc
 2038 00cc 00       		.byte	0
 2039 00cd 00       		.byte	0
 2040 00ce 13       		.uleb128 0x13
 2041 00cf 17       		.uleb128 0x17
 2042 00d0 01       		.byte	0x1
 2043 00d1 0B       		.uleb128 0xb
 2044 00d2 0B       		.uleb128 0xb
 2045 00d3 3A       		.uleb128 0x3a
 2046 00d4 0B       		.uleb128 0xb
 2047 00d5 3B       		.uleb128 0x3b
 2048 00d6 0B       		.uleb128 0xb
 2049 00d7 01       		.uleb128 0x1
 2050 00d8 13       		.uleb128 0x13
 2051 00d9 00       		.byte	0
 2052 00da 00       		.byte	0
 2053 00db 14       		.uleb128 0x14
 2054 00dc 0D       		.uleb128 0xd
 2055 00dd 00       		.byte	0
 2056 00de 03       		.uleb128 0x3
 2057 00df 0E       		.uleb128 0xe
 2058 00e0 3A       		.uleb128 0x3a
 2059 00e1 0B       		.uleb128 0xb
 2060 00e2 3B       		.uleb128 0x3b
 2061 00e3 0B       		.uleb128 0xb
 2062 00e4 49       		.uleb128 0x49
 2063 00e5 13       		.uleb128 0x13
 2064 00e6 00       		.byte	0
 2065 00e7 00       		.byte	0
 2066 00e8 15       		.uleb128 0x15
 2067 00e9 13       		.uleb128 0x13
 2068 00ea 01       		.byte	0x1
 2069 00eb 0B       		.uleb128 0xb
 2070 00ec 0B       		.uleb128 0xb
 2071 00ed 3A       		.uleb128 0x3a
 2072 00ee 0B       		.uleb128 0xb
 2073 00ef 3B       		.uleb128 0x3b
 2074 00f0 0B       		.uleb128 0xb
 2075 00f1 01       		.uleb128 0x1
 2076 00f2 13       		.uleb128 0x13
 2077 00f3 00       		.byte	0
 2078 00f4 00       		.byte	0
 2079 00f5 16       		.uleb128 0x16
 2080 00f6 0D       		.uleb128 0xd
ARM GAS  C:\Users\EBANO_~1\AppData\Local\Temp\ccAi8UpB.s 			page 41


 2081 00f7 00       		.byte	0
 2082 00f8 03       		.uleb128 0x3
 2083 00f9 0E       		.uleb128 0xe
 2084 00fa 3A       		.uleb128 0x3a
 2085 00fb 0B       		.uleb128 0xb
 2086 00fc 3B       		.uleb128 0x3b
 2087 00fd 0B       		.uleb128 0xb
 2088 00fe 49       		.uleb128 0x49
 2089 00ff 13       		.uleb128 0x13
 2090 0100 38       		.uleb128 0x38
 2091 0101 0A       		.uleb128 0xa
 2092 0102 00       		.byte	0
 2093 0103 00       		.byte	0
 2094 0104 17       		.uleb128 0x17
 2095 0105 13       		.uleb128 0x13
 2096 0106 01       		.byte	0x1
 2097 0107 03       		.uleb128 0x3
 2098 0108 0E       		.uleb128 0xe
 2099 0109 0B       		.uleb128 0xb
 2100 010a 0B       		.uleb128 0xb
 2101 010b 3A       		.uleb128 0x3a
 2102 010c 0B       		.uleb128 0xb
 2103 010d 3B       		.uleb128 0x3b
 2104 010e 0B       		.uleb128 0xb
 2105 010f 01       		.uleb128 0x1
 2106 0110 13       		.uleb128 0x13
 2107 0111 00       		.byte	0
 2108 0112 00       		.byte	0
 2109 0113 18       		.uleb128 0x18
 2110 0114 0D       		.uleb128 0xd
 2111 0115 00       		.byte	0
 2112 0116 03       		.uleb128 0x3
 2113 0117 08       		.uleb128 0x8
 2114 0118 3A       		.uleb128 0x3a
 2115 0119 0B       		.uleb128 0xb
 2116 011a 3B       		.uleb128 0x3b
 2117 011b 0B       		.uleb128 0xb
 2118 011c 49       		.uleb128 0x49
 2119 011d 13       		.uleb128 0x13
 2120 011e 38       		.uleb128 0x38
 2121 011f 0A       		.uleb128 0xa
 2122 0120 00       		.byte	0
 2123 0121 00       		.byte	0
 2124 0122 19       		.uleb128 0x19
 2125 0123 13       		.uleb128 0x13
 2126 0124 01       		.byte	0x1
 2127 0125 03       		.uleb128 0x3
 2128 0126 0E       		.uleb128 0xe
 2129 0127 0B       		.uleb128 0xb
 2130 0128 05       		.uleb128 0x5
 2131 0129 3A       		.uleb128 0x3a
 2132 012a 0B       		.uleb128 0xb
 2133 012b 3B       		.uleb128 0x3b
 2134 012c 0B       		.uleb128 0xb
 2135 012d 01       		.uleb128 0x1
 2136 012e 13       		.uleb128 0x13
 2137 012f 00       		.byte	0
ARM GAS  C:\Users\EBANO_~1\AppData\Local\Temp\ccAi8UpB.s 			page 42


 2138 0130 00       		.byte	0
 2139 0131 1A       		.uleb128 0x1a
 2140 0132 15       		.uleb128 0x15
 2141 0133 00       		.byte	0
 2142 0134 27       		.uleb128 0x27
 2143 0135 0C       		.uleb128 0xc
 2144 0136 00       		.byte	0
 2145 0137 00       		.byte	0
 2146 0138 1B       		.uleb128 0x1b
 2147 0139 15       		.uleb128 0x15
 2148 013a 01       		.byte	0x1
 2149 013b 27       		.uleb128 0x27
 2150 013c 0C       		.uleb128 0xc
 2151 013d 49       		.uleb128 0x49
 2152 013e 13       		.uleb128 0x13
 2153 013f 01       		.uleb128 0x1
 2154 0140 13       		.uleb128 0x13
 2155 0141 00       		.byte	0
 2156 0142 00       		.byte	0
 2157 0143 1C       		.uleb128 0x1c
 2158 0144 05       		.uleb128 0x5
 2159 0145 00       		.byte	0
 2160 0146 49       		.uleb128 0x49
 2161 0147 13       		.uleb128 0x13
 2162 0148 00       		.byte	0
 2163 0149 00       		.byte	0
 2164 014a 1D       		.uleb128 0x1d
 2165 014b 13       		.uleb128 0x13
 2166 014c 01       		.byte	0x1
 2167 014d 03       		.uleb128 0x3
 2168 014e 0E       		.uleb128 0xe
 2169 014f 0B       		.uleb128 0xb
 2170 0150 05       		.uleb128 0x5
 2171 0151 3A       		.uleb128 0x3a
 2172 0152 0B       		.uleb128 0xb
 2173 0153 3B       		.uleb128 0x3b
 2174 0154 05       		.uleb128 0x5
 2175 0155 01       		.uleb128 0x1
 2176 0156 13       		.uleb128 0x13
 2177 0157 00       		.byte	0
 2178 0158 00       		.byte	0
 2179 0159 1E       		.uleb128 0x1e
 2180 015a 0D       		.uleb128 0xd
 2181 015b 00       		.byte	0
 2182 015c 03       		.uleb128 0x3
 2183 015d 0E       		.uleb128 0xe
 2184 015e 3A       		.uleb128 0x3a
 2185 015f 0B       		.uleb128 0xb
 2186 0160 3B       		.uleb128 0x3b
 2187 0161 05       		.uleb128 0x5
 2188 0162 49       		.uleb128 0x49
 2189 0163 13       		.uleb128 0x13
 2190 0164 38       		.uleb128 0x38
 2191 0165 0A       		.uleb128 0xa
 2192 0166 00       		.byte	0
 2193 0167 00       		.byte	0
 2194 0168 1F       		.uleb128 0x1f
ARM GAS  C:\Users\EBANO_~1\AppData\Local\Temp\ccAi8UpB.s 			page 43


 2195 0169 13       		.uleb128 0x13
 2196 016a 01       		.byte	0x1
 2197 016b 03       		.uleb128 0x3
 2198 016c 0E       		.uleb128 0xe
 2199 016d 0B       		.uleb128 0xb
 2200 016e 0B       		.uleb128 0xb
 2201 016f 3A       		.uleb128 0x3a
 2202 0170 0B       		.uleb128 0xb
 2203 0171 3B       		.uleb128 0x3b
 2204 0172 05       		.uleb128 0x5
 2205 0173 01       		.uleb128 0x1
 2206 0174 13       		.uleb128 0x13
 2207 0175 00       		.byte	0
 2208 0176 00       		.byte	0
 2209 0177 20       		.uleb128 0x20
 2210 0178 17       		.uleb128 0x17
 2211 0179 01       		.byte	0x1
 2212 017a 0B       		.uleb128 0xb
 2213 017b 0B       		.uleb128 0xb
 2214 017c 3A       		.uleb128 0x3a
 2215 017d 0B       		.uleb128 0xb
 2216 017e 3B       		.uleb128 0x3b
 2217 017f 05       		.uleb128 0x5
 2218 0180 01       		.uleb128 0x1
 2219 0181 13       		.uleb128 0x13
 2220 0182 00       		.byte	0
 2221 0183 00       		.byte	0
 2222 0184 21       		.uleb128 0x21
 2223 0185 0D       		.uleb128 0xd
 2224 0186 00       		.byte	0
 2225 0187 03       		.uleb128 0x3
 2226 0188 0E       		.uleb128 0xe
 2227 0189 3A       		.uleb128 0x3a
 2228 018a 0B       		.uleb128 0xb
 2229 018b 3B       		.uleb128 0x3b
 2230 018c 05       		.uleb128 0x5
 2231 018d 49       		.uleb128 0x49
 2232 018e 13       		.uleb128 0x13
 2233 018f 00       		.byte	0
 2234 0190 00       		.byte	0
 2235 0191 22       		.uleb128 0x22
 2236 0192 15       		.uleb128 0x15
 2237 0193 01       		.byte	0x1
 2238 0194 27       		.uleb128 0x27
 2239 0195 0C       		.uleb128 0xc
 2240 0196 01       		.uleb128 0x1
 2241 0197 13       		.uleb128 0x13
 2242 0198 00       		.byte	0
 2243 0199 00       		.byte	0
 2244 019a 23       		.uleb128 0x23
 2245 019b 34       		.uleb128 0x34
 2246 019c 00       		.byte	0
 2247 019d 03       		.uleb128 0x3
 2248 019e 0E       		.uleb128 0xe
 2249 019f 3A       		.uleb128 0x3a
 2250 01a0 0B       		.uleb128 0xb
 2251 01a1 3B       		.uleb128 0x3b
ARM GAS  C:\Users\EBANO_~1\AppData\Local\Temp\ccAi8UpB.s 			page 44


 2252 01a2 05       		.uleb128 0x5
 2253 01a3 49       		.uleb128 0x49
 2254 01a4 13       		.uleb128 0x13
 2255 01a5 3F       		.uleb128 0x3f
 2256 01a6 0C       		.uleb128 0xc
 2257 01a7 3C       		.uleb128 0x3c
 2258 01a8 0C       		.uleb128 0xc
 2259 01a9 00       		.byte	0
 2260 01aa 00       		.byte	0
 2261 01ab 24       		.uleb128 0x24
 2262 01ac 2E       		.uleb128 0x2e
 2263 01ad 01       		.byte	0x1
 2264 01ae 3F       		.uleb128 0x3f
 2265 01af 0C       		.uleb128 0xc
 2266 01b0 03       		.uleb128 0x3
 2267 01b1 0E       		.uleb128 0xe
 2268 01b2 3A       		.uleb128 0x3a
 2269 01b3 0B       		.uleb128 0xb
 2270 01b4 3B       		.uleb128 0x3b
 2271 01b5 0B       		.uleb128 0xb
 2272 01b6 27       		.uleb128 0x27
 2273 01b7 0C       		.uleb128 0xc
 2274 01b8 49       		.uleb128 0x49
 2275 01b9 13       		.uleb128 0x13
 2276 01ba 11       		.uleb128 0x11
 2277 01bb 01       		.uleb128 0x1
 2278 01bc 12       		.uleb128 0x12
 2279 01bd 01       		.uleb128 0x1
 2280 01be 40       		.uleb128 0x40
 2281 01bf 06       		.uleb128 0x6
 2282 01c0 9642     		.uleb128 0x2116
 2283 01c2 0C       		.uleb128 0xc
 2284 01c3 01       		.uleb128 0x1
 2285 01c4 13       		.uleb128 0x13
 2286 01c5 00       		.byte	0
 2287 01c6 00       		.byte	0
 2288 01c7 25       		.uleb128 0x25
 2289 01c8 34       		.uleb128 0x34
 2290 01c9 00       		.byte	0
 2291 01ca 03       		.uleb128 0x3
 2292 01cb 0E       		.uleb128 0xe
 2293 01cc 3A       		.uleb128 0x3a
 2294 01cd 0B       		.uleb128 0xb
 2295 01ce 3B       		.uleb128 0x3b
 2296 01cf 0B       		.uleb128 0xb
 2297 01d0 49       		.uleb128 0x49
 2298 01d1 13       		.uleb128 0x13
 2299 01d2 02       		.uleb128 0x2
 2300 01d3 06       		.uleb128 0x6
 2301 01d4 00       		.byte	0
 2302 01d5 00       		.byte	0
 2303 01d6 26       		.uleb128 0x26
 2304 01d7 2E       		.uleb128 0x2e
 2305 01d8 00       		.byte	0
 2306 01d9 3F       		.uleb128 0x3f
 2307 01da 0C       		.uleb128 0xc
 2308 01db 03       		.uleb128 0x3
ARM GAS  C:\Users\EBANO_~1\AppData\Local\Temp\ccAi8UpB.s 			page 45


 2309 01dc 0E       		.uleb128 0xe
 2310 01dd 3A       		.uleb128 0x3a
 2311 01de 0B       		.uleb128 0xb
 2312 01df 3B       		.uleb128 0x3b
 2313 01e0 0B       		.uleb128 0xb
 2314 01e1 27       		.uleb128 0x27
 2315 01e2 0C       		.uleb128 0xc
 2316 01e3 11       		.uleb128 0x11
 2317 01e4 01       		.uleb128 0x1
 2318 01e5 12       		.uleb128 0x12
 2319 01e6 01       		.uleb128 0x1
 2320 01e7 40       		.uleb128 0x40
 2321 01e8 0A       		.uleb128 0xa
 2322 01e9 9742     		.uleb128 0x2117
 2323 01eb 0C       		.uleb128 0xc
 2324 01ec 00       		.byte	0
 2325 01ed 00       		.byte	0
 2326 01ee 27       		.uleb128 0x27
 2327 01ef 2E       		.uleb128 0x2e
 2328 01f0 00       		.byte	0
 2329 01f1 3F       		.uleb128 0x3f
 2330 01f2 0C       		.uleb128 0xc
 2331 01f3 03       		.uleb128 0x3
 2332 01f4 0E       		.uleb128 0xe
 2333 01f5 3A       		.uleb128 0x3a
 2334 01f6 0B       		.uleb128 0xb
 2335 01f7 3B       		.uleb128 0x3b
 2336 01f8 0B       		.uleb128 0xb
 2337 01f9 27       		.uleb128 0x27
 2338 01fa 0C       		.uleb128 0xc
 2339 01fb 49       		.uleb128 0x49
 2340 01fc 13       		.uleb128 0x13
 2341 01fd 11       		.uleb128 0x11
 2342 01fe 01       		.uleb128 0x1
 2343 01ff 12       		.uleb128 0x12
 2344 0200 01       		.uleb128 0x1
 2345 0201 40       		.uleb128 0x40
 2346 0202 0A       		.uleb128 0xa
 2347 0203 9742     		.uleb128 0x2117
 2348 0205 0C       		.uleb128 0xc
 2349 0206 00       		.byte	0
 2350 0207 00       		.byte	0
 2351 0208 00       		.byte	0
 2352              		.section	.debug_loc,"",%progbits
 2353              	.Ldebug_loc0:
 2354              	.LLST0:
 2355 0000 00000000 		.4byte	.LFB45
 2356 0004 02000000 		.4byte	.LCFI0
 2357 0008 0200     		.2byte	0x2
 2358 000a 7D       		.byte	0x7d
 2359 000b 00       		.sleb128 0
 2360 000c 02000000 		.4byte	.LCFI0
 2361 0010 5C000000 		.4byte	.LFE45
 2362 0014 0200     		.2byte	0x2
 2363 0016 7D       		.byte	0x7d
 2364 0017 08       		.sleb128 8
 2365 0018 00000000 		.4byte	0
ARM GAS  C:\Users\EBANO_~1\AppData\Local\Temp\ccAi8UpB.s 			page 46


 2366 001c 00000000 		.4byte	0
 2367              	.LLST1:
 2368 0020 00000000 		.4byte	.LVL0
 2369 0024 22000000 		.4byte	.LVL2
 2370 0028 0200     		.2byte	0x2
 2371 002a 30       		.byte	0x30
 2372 002b 9F       		.byte	0x9f
 2373 002c 22000000 		.4byte	.LVL2
 2374 0030 40000000 		.4byte	.LVL4
 2375 0034 0100     		.2byte	0x1
 2376 0036 50       		.byte	0x50
 2377 0037 00000000 		.4byte	0
 2378 003b 00000000 		.4byte	0
 2379              		.section	.debug_aranges,"",%progbits
 2380 0000 4C000000 		.4byte	0x4c
 2381 0004 0200     		.2byte	0x2
 2382 0006 00000000 		.4byte	.Ldebug_info0
 2383 000a 04       		.byte	0x4
 2384 000b 00       		.byte	0
 2385 000c 0000     		.2byte	0
 2386 000e 0000     		.2byte	0
 2387 0010 00000000 		.4byte	.LFB39
 2388 0014 10000000 		.4byte	.LFE39-.LFB39
 2389 0018 00000000 		.4byte	.LFB40
 2390 001c 14000000 		.4byte	.LFE40-.LFB40
 2391 0020 00000000 		.4byte	.LFB41
 2392 0024 14000000 		.4byte	.LFE41-.LFB41
 2393 0028 00000000 		.4byte	.LFB42
 2394 002c 14000000 		.4byte	.LFE42-.LFB42
 2395 0030 00000000 		.4byte	.LFB43
 2396 0034 14000000 		.4byte	.LFE43-.LFB43
 2397 0038 00000000 		.4byte	.LFB44
 2398 003c 1C000000 		.4byte	.LFE44-.LFB44
 2399 0040 00000000 		.4byte	.LFB45
 2400 0044 5C000000 		.4byte	.LFE45-.LFB45
 2401 0048 00000000 		.4byte	0
 2402 004c 00000000 		.4byte	0
 2403              		.section	.debug_ranges,"",%progbits
 2404              	.Ldebug_ranges0:
 2405 0000 00000000 		.4byte	.LFB39
 2406 0004 10000000 		.4byte	.LFE39
 2407 0008 00000000 		.4byte	.LFB40
 2408 000c 14000000 		.4byte	.LFE40
 2409 0010 00000000 		.4byte	.LFB41
 2410 0014 14000000 		.4byte	.LFE41
 2411 0018 00000000 		.4byte	.LFB42
 2412 001c 14000000 		.4byte	.LFE42
 2413 0020 00000000 		.4byte	.LFB43
 2414 0024 14000000 		.4byte	.LFE43
 2415 0028 00000000 		.4byte	.LFB44
 2416 002c 1C000000 		.4byte	.LFE44
 2417 0030 00000000 		.4byte	.LFB45
 2418 0034 5C000000 		.4byte	.LFE45
 2419 0038 00000000 		.4byte	0
 2420 003c 00000000 		.4byte	0
 2421              		.section	.debug_line,"",%progbits
 2422              	.Ldebug_line0:
ARM GAS  C:\Users\EBANO_~1\AppData\Local\Temp\ccAi8UpB.s 			page 47


 2423 0000 2C030000 		.section	.debug_str,"MS",%progbits,1
 2423      02008302 
 2423      00000201 
 2423      FB0E0D00 
 2423      01010101 
 2424              	.LASF48:
 2425 0000 5F64736F 		.ascii	"_dso_handle\000"
 2425      5F68616E 
 2425      646C6500 
 2426              	.LASF2:
 2427 000c 73686F72 		.ascii	"short int\000"
 2427      7420696E 
 2427      7400
 2428              	.LASF136:
 2429 0016 48414C5F 		.ascii	"HAL_PWREx_EnableLowPowerRunMode\000"
 2429      50575245 
 2429      785F456E 
 2429      61626C65 
 2429      4C6F7750 
 2430              	.LASF47:
 2431 0036 5F666E61 		.ascii	"_fnargs\000"
 2431      72677300 
 2432              	.LASF101:
 2433 003e 5F72616E 		.ascii	"_rand48\000"
 2433      64343800 
 2434              	.LASF80:
 2435 0046 5F656D65 		.ascii	"_emergency\000"
 2435      7267656E 
 2435      637900
 2436              	.LASF5:
 2437 0051 5F5F7569 		.ascii	"__uint8_t\000"
 2437      6E74385F 
 2437      7400
 2438              	.LASF133:
 2439 005b 48414C5F 		.ascii	"HAL_BUSY\000"
 2439      42555359 
 2439      00
 2440              	.LASF92:
 2441 0064 5F617465 		.ascii	"_atexit0\000"
 2441      78697430 
 2441      00
 2442              	.LASF121:
 2443 006d 5F776372 		.ascii	"_wcrtomb_state\000"
 2443      746F6D62 
 2443      5F737461 
 2443      746500
 2444              	.LASF122:
 2445 007c 5F776373 		.ascii	"_wcsrtombs_state\000"
 2445      72746F6D 
 2445      62735F73 
 2445      74617465 
 2445      00
 2446              	.LASF9:
 2447 008d 6C6F6E67 		.ascii	"long long unsigned int\000"
 2447      206C6F6E 
 2447      6720756E 
 2447      7369676E 
ARM GAS  C:\Users\EBANO_~1\AppData\Local\Temp\ccAi8UpB.s 			page 48


 2447      65642069 
 2448              	.LASF60:
 2449 00a4 5F6C6266 		.ascii	"_lbfsize\000"
 2449      73697A65 
 2449      00
 2450              	.LASF128:
 2451 00ad 5F5F6C6F 		.ascii	"__locale_t\000"
 2451      63616C65 
 2451      5F7400
 2452              	.LASF119:
 2453 00b8 5F6D6272 		.ascii	"_mbrtowc_state\000"
 2453      746F7763 
 2453      5F737461 
 2453      746500
 2454              	.LASF37:
 2455 00c7 5F5F746D 		.ascii	"__tm_sec\000"
 2455      5F736563 
 2455      00
 2456              	.LASF21:
 2457 00d0 5F6F6666 		.ascii	"_off_t\000"
 2457      5F7400
 2458              	.LASF65:
 2459 00d7 5F636C6F 		.ascii	"_close\000"
 2459      736500
 2460              	.LASF0:
 2461 00de 7369676E 		.ascii	"signed char\000"
 2461      65642063 
 2461      68617200 
 2462              	.LASF66:
 2463 00ea 5F756275 		.ascii	"_ubuf\000"
 2463      6600
 2464              	.LASF55:
 2465 00f0 5F626173 		.ascii	"_base\000"
 2465      6500
 2466              	.LASF39:
 2467 00f6 5F5F746D 		.ascii	"__tm_hour\000"
 2467      5F686F75 
 2467      7200
 2468              	.LASF95:
 2469 0100 5F5F7366 		.ascii	"__sf\000"
 2469      00
 2470              	.LASF46:
 2471 0105 5F6F6E5F 		.ascii	"_on_exit_args\000"
 2471      65786974 
 2471      5F617267 
 2471      7300
 2472              	.LASF138:
 2473 0113 48414C5F 		.ascii	"HAL_PWREx_EnableUltraLowPower\000"
 2473      50575245 
 2473      785F456E 
 2473      61626C65 
 2473      556C7472 
 2474              	.LASF61:
 2475 0131 5F636F6F 		.ascii	"_cookie\000"
 2475      6B696500 
 2476              	.LASF94:
 2477 0139 5F5F7367 		.ascii	"__sglue\000"
ARM GAS  C:\Users\EBANO_~1\AppData\Local\Temp\ccAi8UpB.s 			page 49


 2477      6C756500 
 2478              	.LASF4:
 2479 0141 6C6F6E67 		.ascii	"long int\000"
 2479      20696E74 
 2479      00
 2480              	.LASF58:
 2481 014a 5F666C61 		.ascii	"_flags\000"
 2481      677300
 2482              	.LASF50:
 2483 0151 5F69735F 		.ascii	"_is_cxa\000"
 2483      63786100 
 2484              	.LASF76:
 2485 0159 5F737464 		.ascii	"_stdin\000"
 2485      696E00
 2486              	.LASF86:
 2487 0160 5F726573 		.ascii	"_result_k\000"
 2487      756C745F 
 2487      6B00
 2488              	.LASF137:
 2489 016a 48414C5F 		.ascii	"HAL_PWREx_DisableUltraLowPower\000"
 2489      50575245 
 2489      785F4469 
 2489      7361626C 
 2489      65556C74 
 2490              	.LASF8:
 2491 0189 6C6F6E67 		.ascii	"long long int\000"
 2491      206C6F6E 
 2491      6720696E 
 2491      7400
 2492              	.LASF90:
 2493 0197 5F637674 		.ascii	"_cvtbuf\000"
 2493      62756600 
 2494              	.LASF69:
 2495 019f 5F6F6666 		.ascii	"_offset\000"
 2495      73657400 
 2496              	.LASF120:
 2497 01a7 5F6D6273 		.ascii	"_mbsrtowcs_state\000"
 2497      72746F77 
 2497      63735F73 
 2497      74617465 
 2497      00
 2498              	.LASF118:
 2499 01b8 5F6D6272 		.ascii	"_mbrlen_state\000"
 2499      6C656E5F 
 2499      73746174 
 2499      6500
 2500              	.LASF53:
 2501 01c6 5F666E73 		.ascii	"_fns\000"
 2501      00
 2502              	.LASF145:
 2503 01cb 77616974 		.ascii	"wait_loop_index\000"
 2503      5F6C6F6F 
 2503      705F696E 
 2503      64657800 
 2504              	.LASF6:
 2505 01db 5F5F7569 		.ascii	"__uint32_t\000"
 2505      6E743332 
ARM GAS  C:\Users\EBANO_~1\AppData\Local\Temp\ccAi8UpB.s 			page 50


 2505      5F7400
 2506              	.LASF33:
 2507 01e6 5F736967 		.ascii	"_sign\000"
 2507      6E00
 2508              	.LASF129:
 2509 01ec 5F696D70 		.ascii	"_impure_ptr\000"
 2509      7572655F 
 2509      70747200 
 2510              	.LASF78:
 2511 01f8 5F737464 		.ascii	"_stderr\000"
 2511      65727200 
 2512              	.LASF35:
 2513 0200 5F426967 		.ascii	"_Bigint\000"
 2513      696E7400 
 2514              	.LASF15:
 2515 0208 41504250 		.ascii	"APBPrescTable\000"
 2515      72657363 
 2515      5461626C 
 2515      6500
 2516              	.LASF140:
 2517 0216 48414C5F 		.ascii	"HAL_PWREx_EnableFastWakeUp\000"
 2517      50575245 
 2517      785F456E 
 2517      61626C65 
 2517      46617374 
 2518              	.LASF62:
 2519 0231 5F726561 		.ascii	"_read\000"
 2519      6400
 2520              	.LASF134:
 2521 0237 48414C5F 		.ascii	"HAL_TIMEOUT\000"
 2521      54494D45 
 2521      4F555400 
 2522              	.LASF36:
 2523 0243 5F5F746D 		.ascii	"__tm\000"
 2523      00
 2524              	.LASF25:
 2525 0248 5F5F7763 		.ascii	"__wchb\000"
 2525      686200
 2526              	.LASF13:
 2527 024f 53797374 		.ascii	"SystemCoreClock\000"
 2527      656D436F 
 2527      7265436C 
 2527      6F636B00 
 2528              	.LASF77:
 2529 025f 5F737464 		.ascii	"_stdout\000"
 2529      6F757400 
 2530              	.LASF89:
 2531 0267 5F637674 		.ascii	"_cvtlen\000"
 2531      6C656E00 
 2532              	.LASF7:
 2533 026f 6C6F6E67 		.ascii	"long unsigned int\000"
 2533      20756E73 
 2533      69676E65 
 2533      6420696E 
 2533      7400
 2534              	.LASF59:
 2535 0281 5F66696C 		.ascii	"_file\000"
ARM GAS  C:\Users\EBANO_~1\AppData\Local\Temp\ccAi8UpB.s 			page 51


 2535      6500
 2536              	.LASF131:
 2537 0287 48414C5F 		.ascii	"HAL_OK\000"
 2537      4F4B00
 2538              	.LASF70:
 2539 028e 5F646174 		.ascii	"_data\000"
 2539      6100
 2540              	.LASF99:
 2541 0294 5F6E696F 		.ascii	"_niobs\000"
 2541      627300
 2542              	.LASF110:
 2543 029b 5F72616E 		.ascii	"_rand_next\000"
 2543      645F6E65 
 2543      787400
 2544              	.LASF116:
 2545 02a6 5F736967 		.ascii	"_signal_buf\000"
 2545      6E616C5F 
 2545      62756600 
 2546              	.LASF107:
 2547 02b2 5F617363 		.ascii	"_asctime_buf\000"
 2547      74696D65 
 2547      5F627566 
 2547      00
 2548              	.LASF139:
 2549 02bf 48414C5F 		.ascii	"HAL_PWREx_DisableFastWakeUp\000"
 2549      50575245 
 2549      785F4469 
 2549      7361626C 
 2549      65466173 
 2550              	.LASF85:
 2551 02db 5F726573 		.ascii	"_result\000"
 2551      756C7400 
 2552              	.LASF24:
 2553 02e3 5F5F7763 		.ascii	"__wch\000"
 2553      6800
 2554              	.LASF20:
 2555 02e9 5F4C4F43 		.ascii	"_LOCK_T\000"
 2555      4B5F5400 
 2556              	.LASF91:
 2557 02f1 5F6E6577 		.ascii	"_new\000"
 2557      00
 2558              	.LASF135:
 2559 02f6 48414C5F 		.ascii	"HAL_StatusTypeDef\000"
 2559      53746174 
 2559      75735479 
 2559      70654465 
 2559      6600
 2560              	.LASF71:
 2561 0308 5F6C6F63 		.ascii	"_lock\000"
 2561      6B00
 2562              	.LASF103:
 2563 030e 5F6D756C 		.ascii	"_mult\000"
 2563      7400
 2564              	.LASF17:
 2565 0314 5057525F 		.ascii	"PWR_TypeDef\000"
 2565      54797065 
 2565      44656600 
ARM GAS  C:\Users\EBANO_~1\AppData\Local\Temp\ccAi8UpB.s 			page 52


 2566              	.LASF63:
 2567 0320 5F777269 		.ascii	"_write\000"
 2567      746500
 2568              	.LASF42:
 2569 0327 5F5F746D 		.ascii	"__tm_year\000"
 2569      5F796561 
 2569      7200
 2570              	.LASF125:
 2571 0331 5F6E6D61 		.ascii	"_nmalloc\000"
 2571      6C6C6F63 
 2571      00
 2572              	.LASF16:
 2573 033a 504C4C4D 		.ascii	"PLLMulTable\000"
 2573      756C5461 
 2573      626C6500 
 2574              	.LASF124:
 2575 0346 5F6E6578 		.ascii	"_nextf\000"
 2575      746600
 2576              	.LASF41:
 2577 034d 5F5F746D 		.ascii	"__tm_mon\000"
 2577      5F6D6F6E 
 2577      00
 2578              	.LASF51:
 2579 0356 5F617465 		.ascii	"_atexit\000"
 2579      78697400 
 2580              	.LASF83:
 2581 035e 5F5F7364 		.ascii	"__sdidinit\000"
 2581      6964696E 
 2581      697400
 2582              	.LASF109:
 2583 0369 5F67616D 		.ascii	"_gamma_signgam\000"
 2583      6D615F73 
 2583      69676E67 
 2583      616D00
 2584              	.LASF23:
 2585 0378 77696E74 		.ascii	"wint_t\000"
 2585      5F7400
 2586              	.LASF88:
 2587 037f 5F667265 		.ascii	"_freelist\000"
 2587      656C6973 
 2587      7400
 2588              	.LASF114:
 2589 0389 5F776374 		.ascii	"_wctomb_state\000"
 2589      6F6D625F 
 2589      73746174 
 2589      6500
 2590              	.LASF18:
 2591 0397 52455345 		.ascii	"RESET\000"
 2591      5400
 2592              	.LASF144:
 2593 039d 48414C5F 		.ascii	"HAL_PWREx_DisableLowPowerRunMode\000"
 2593      50575245 
 2593      785F4469 
 2593      7361626C 
 2593      654C6F77 
 2594              	.LASF141:
 2595 03be 474E5520 		.ascii	"GNU C11 7.3.1 20180622 (release) [ARM/embedded-7-br"
ARM GAS  C:\Users\EBANO_~1\AppData\Local\Temp\ccAi8UpB.s 			page 53


 2595      43313120 
 2595      372E332E 
 2595      31203230 
 2595      31383036 
 2596 03f1 616E6368 		.ascii	"anch revision 261907] -mcpu=cortex-m0plus -mthumb -"
 2596      20726576 
 2596      6973696F 
 2596      6E203236 
 2596      31393037 
 2597 0424 6D666C6F 		.ascii	"mfloat-abi=soft -gdwarf-2 -O3 -ffunction-sections\000"
 2597      61742D61 
 2597      62693D73 
 2597      6F667420 
 2597      2D676477 
 2598              	.LASF1:
 2599 0456 756E7369 		.ascii	"unsigned char\000"
 2599      676E6564 
 2599      20636861 
 2599      7200
 2600              	.LASF100:
 2601 0464 5F696F62 		.ascii	"_iobs\000"
 2601      7300
 2602              	.LASF123:
 2603 046a 5F685F65 		.ascii	"_h_errno\000"
 2603      72726E6F 
 2603      00
 2604              	.LASF29:
 2605 0473 5F666C6F 		.ascii	"_flock_t\000"
 2605      636B5F74 
 2605      00
 2606              	.LASF44:
 2607 047c 5F5F746D 		.ascii	"__tm_yday\000"
 2607      5F796461 
 2607      7900
 2608              	.LASF54:
 2609 0486 5F5F7362 		.ascii	"__sbuf\000"
 2609      756600
 2610              	.LASF73:
 2611 048d 5F666C61 		.ascii	"_flags2\000"
 2611      67733200 
 2612              	.LASF97:
 2613 0495 5F5F4649 		.ascii	"__FILE\000"
 2613      4C4500
 2614              	.LASF28:
 2615 049c 5F6D6273 		.ascii	"_mbstate_t\000"
 2615      74617465 
 2615      5F7400
 2616              	.LASF57:
 2617 04a7 5F5F7346 		.ascii	"__sFILE\000"
 2617      494C4500 
 2618              	.LASF72:
 2619 04af 5F6D6273 		.ascii	"_mbstate\000"
 2619      74617465 
 2619      00
 2620              	.LASF112:
 2621 04b8 5F6D626C 		.ascii	"_mblen_state\000"
 2621      656E5F73 
ARM GAS  C:\Users\EBANO_~1\AppData\Local\Temp\ccAi8UpB.s 			page 54


 2621      74617465 
 2621      00
 2622              	.LASF79:
 2623 04c5 5F696E63 		.ascii	"_inc\000"
 2623      00
 2624              	.LASF52:
 2625 04ca 5F696E64 		.ascii	"_ind\000"
 2625      00
 2626              	.LASF82:
 2627 04cf 5F6C6F63 		.ascii	"_locale\000"
 2627      616C6500 
 2628              	.LASF84:
 2629 04d7 5F5F636C 		.ascii	"__cleanup\000"
 2629      65616E75 
 2629      7000
 2630              	.LASF81:
 2631 04e1 5F756E73 		.ascii	"_unspecified_locale_info\000"
 2631      70656369 
 2631      66696564 
 2631      5F6C6F63 
 2631      616C655F 
 2632              	.LASF32:
 2633 04fa 5F6D6178 		.ascii	"_maxwds\000"
 2633      77647300 
 2634              	.LASF74:
 2635 0502 5F726565 		.ascii	"_reent\000"
 2635      6E7400
 2636              	.LASF102:
 2637 0509 5F736565 		.ascii	"_seed\000"
 2637      6400
 2638              	.LASF26:
 2639 050f 5F5F636F 		.ascii	"__count\000"
 2639      756E7400 
 2640              	.LASF127:
 2641 0517 5F5F6C6F 		.ascii	"__lock\000"
 2641      636B00
 2642              	.LASF27:
 2643 051e 5F5F7661 		.ascii	"__value\000"
 2643      6C756500 
 2644              	.LASF64:
 2645 0526 5F736565 		.ascii	"_seek\000"
 2645      6B00
 2646              	.LASF132:
 2647 052c 48414C5F 		.ascii	"HAL_ERROR\000"
 2647      4552524F 
 2647      5200
 2648              	.LASF43:
 2649 0536 5F5F746D 		.ascii	"__tm_wday\000"
 2649      5F776461 
 2649      7900
 2650              	.LASF22:
 2651 0540 5F66706F 		.ascii	"_fpos_t\000"
 2651      735F7400 
 2652              	.LASF19:
 2653 0548 6C6F6E67 		.ascii	"long double\000"
 2653      20646F75 
 2653      626C6500 
ARM GAS  C:\Users\EBANO_~1\AppData\Local\Temp\ccAi8UpB.s 			page 55


 2654              	.LASF75:
 2655 0554 5F657272 		.ascii	"_errno\000"
 2655      6E6F00
 2656              	.LASF96:
 2657 055b 63686172 		.ascii	"char\000"
 2657      00
 2658              	.LASF68:
 2659 0560 5F626C6B 		.ascii	"_blksize\000"
 2659      73697A65 
 2659      00
 2660              	.LASF56:
 2661 0569 5F73697A 		.ascii	"_size\000"
 2661      6500
 2662              	.LASF10:
 2663 056f 756E7369 		.ascii	"unsigned int\000"
 2663      676E6564 
 2663      20696E74 
 2663      00
 2664              	.LASF14:
 2665 057c 41484250 		.ascii	"AHBPrescTable\000"
 2665      72657363 
 2665      5461626C 
 2665      6500
 2666              	.LASF31:
 2667 058a 5F6E6578 		.ascii	"_next\000"
 2667      7400
 2668              	.LASF106:
 2669 0590 5F737472 		.ascii	"_strtok_last\000"
 2669      746F6B5F 
 2669      6C617374 
 2669      00
 2670              	.LASF49:
 2671 059d 5F666E74 		.ascii	"_fntypes\000"
 2671      79706573 
 2671      00
 2672              	.LASF3:
 2673 05a6 73686F72 		.ascii	"short unsigned int\000"
 2673      7420756E 
 2673      7369676E 
 2673      65642069 
 2673      6E7400
 2674              	.LASF104:
 2675 05b9 5F616464 		.ascii	"_add\000"
 2675      00
 2676              	.LASF30:
 2677 05be 5F5F554C 		.ascii	"__ULong\000"
 2677      6F6E6700 
 2678              	.LASF117:
 2679 05c6 5F676574 		.ascii	"_getdate_err\000"
 2679      64617465 
 2679      5F657272 
 2679      00
 2680              	.LASF130:
 2681 05d3 5F676C6F 		.ascii	"_global_impure_ptr\000"
 2681      62616C5F 
 2681      696D7075 
 2681      72655F70 
ARM GAS  C:\Users\EBANO_~1\AppData\Local\Temp\ccAi8UpB.s 			page 56


 2681      747200
 2682              	.LASF12:
 2683 05e6 75696E74 		.ascii	"uint32_t\000"
 2683      33325F74 
 2683      00
 2684              	.LASF105:
 2685 05ef 5F756E75 		.ascii	"_unused_rand\000"
 2685      7365645F 
 2685      72616E64 
 2685      00
 2686              	.LASF34:
 2687 05fc 5F776473 		.ascii	"_wds\000"
 2687      00
 2688              	.LASF98:
 2689 0601 5F676C75 		.ascii	"_glue\000"
 2689      6500
 2690              	.LASF11:
 2691 0607 75696E74 		.ascii	"uint8_t\000"
 2691      385F7400 
 2692              	.LASF115:
 2693 060f 5F6C3634 		.ascii	"_l64a_buf\000"
 2693      615F6275 
 2693      6600
 2694              	.LASF93:
 2695 0619 5F736967 		.ascii	"_sig_func\000"
 2695      5F66756E 
 2695      6300
 2696              	.LASF146:
 2697 0623 48414C5F 		.ascii	"HAL_PWREx_GetVoltageRange\000"
 2697      50575245 
 2697      785F4765 
 2697      74566F6C 
 2697      74616765 
 2698              	.LASF143:
 2699 063d 443A5C67 		.ascii	"D:\\git_pessoal\\keil_gcc\\STM32CubeExpansion_LRWAN"
 2699      69745F70 
 2699      6573736F 
 2699      616C5C6B 
 2699      65696C5F 
 2700 066d 5F56312E 		.ascii	"_V1.2.1\\Projects\\B-L072Z-LRWAN1\\Applications\\Lo"
 2700      322E315C 
 2700      50726F6A 
 2700      65637473 
 2700      5C422D4C 
 2701 069c 52615C45 		.ascii	"Ra\\End_Node\\MDK-ARM\000"
 2701      6E645F4E 
 2701      6F64655C 
 2701      4D444B2D 
 2701      41524D00 
 2702              	.LASF67:
 2703 06b0 5F6E6275 		.ascii	"_nbuf\000"
 2703      6600
 2704              	.LASF126:
 2705 06b6 5F756E75 		.ascii	"_unused\000"
 2705      73656400 
 2706              	.LASF45:
 2707 06be 5F5F746D 		.ascii	"__tm_isdst\000"
ARM GAS  C:\Users\EBANO_~1\AppData\Local\Temp\ccAi8UpB.s 			page 57


 2707      5F697364 
 2707      737400
 2708              	.LASF108:
 2709 06c9 5F6C6F63 		.ascii	"_localtime_buf\000"
 2709      616C7469 
 2709      6D655F62 
 2709      756600
 2710              	.LASF38:
 2711 06d8 5F5F746D 		.ascii	"__tm_min\000"
 2711      5F6D696E 
 2711      00
 2712              	.LASF111:
 2713 06e1 5F723438 		.ascii	"_r48\000"
 2713      00
 2714              	.LASF113:
 2715 06e6 5F6D6274 		.ascii	"_mbtowc_state\000"
 2715      6F77635F 
 2715      73746174 
 2715      6500
 2716              	.LASF87:
 2717 06f4 5F703573 		.ascii	"_p5s\000"
 2717      00
 2718              	.LASF40:
 2719 06f9 5F5F746D 		.ascii	"__tm_mday\000"
 2719      5F6D6461 
 2719      7900
 2720              	.LASF142:
 2721 0703 2E2E2F2E 		.ascii	"../../../../../../Drivers/STM32L0xx_HAL_Driver/Src/"
 2721      2E2F2E2E 
 2721      2F2E2E2F 
 2721      2E2E2F2E 
 2721      2E2F4472 
 2722 0736 73746D33 		.ascii	"stm32l0xx_hal_pwr_ex.c\000"
 2722      326C3078 
 2722      785F6861 
 2722      6C5F7077 
 2722      725F6578 
 2723              		.ident	"GCC: (GNU Tools for Arm Embedded Processors 7-2018-q2-update) 7.3.1 20180622 (release) [AR
ARM GAS  C:\Users\EBANO_~1\AppData\Local\Temp\ccAi8UpB.s 			page 58


DEFINED SYMBOLS
                            *ABS*:00000000 stm32l0xx_hal_pwr_ex.c
C:\Users\EBANO_~1\AppData\Local\Temp\ccAi8UpB.s:16     .text.HAL_PWREx_GetVoltageRange:00000000 $t
C:\Users\EBANO_~1\AppData\Local\Temp\ccAi8UpB.s:24     .text.HAL_PWREx_GetVoltageRange:00000000 HAL_PWREx_GetVoltageRange
C:\Users\EBANO_~1\AppData\Local\Temp\ccAi8UpB.s:46     .text.HAL_PWREx_GetVoltageRange:0000000c $d
C:\Users\EBANO_~1\AppData\Local\Temp\ccAi8UpB.s:51     .text.HAL_PWREx_EnableFastWakeUp:00000000 $t
C:\Users\EBANO_~1\AppData\Local\Temp\ccAi8UpB.s:59     .text.HAL_PWREx_EnableFastWakeUp:00000000 HAL_PWREx_EnableFastWakeUp
C:\Users\EBANO_~1\AppData\Local\Temp\ccAi8UpB.s:81     .text.HAL_PWREx_EnableFastWakeUp:00000010 $d
C:\Users\EBANO_~1\AppData\Local\Temp\ccAi8UpB.s:86     .text.HAL_PWREx_DisableFastWakeUp:00000000 $t
C:\Users\EBANO_~1\AppData\Local\Temp\ccAi8UpB.s:94     .text.HAL_PWREx_DisableFastWakeUp:00000000 HAL_PWREx_DisableFastWakeUp
C:\Users\EBANO_~1\AppData\Local\Temp\ccAi8UpB.s:115    .text.HAL_PWREx_DisableFastWakeUp:0000000c $d
C:\Users\EBANO_~1\AppData\Local\Temp\ccAi8UpB.s:121    .text.HAL_PWREx_EnableUltraLowPower:00000000 $t
C:\Users\EBANO_~1\AppData\Local\Temp\ccAi8UpB.s:129    .text.HAL_PWREx_EnableUltraLowPower:00000000 HAL_PWREx_EnableUltraLowPower
C:\Users\EBANO_~1\AppData\Local\Temp\ccAi8UpB.s:151    .text.HAL_PWREx_EnableUltraLowPower:00000010 $d
C:\Users\EBANO_~1\AppData\Local\Temp\ccAi8UpB.s:156    .text.HAL_PWREx_DisableUltraLowPower:00000000 $t
C:\Users\EBANO_~1\AppData\Local\Temp\ccAi8UpB.s:164    .text.HAL_PWREx_DisableUltraLowPower:00000000 HAL_PWREx_DisableUltraLowPower
C:\Users\EBANO_~1\AppData\Local\Temp\ccAi8UpB.s:185    .text.HAL_PWREx_DisableUltraLowPower:0000000c $d
C:\Users\EBANO_~1\AppData\Local\Temp\ccAi8UpB.s:191    .text.HAL_PWREx_EnableLowPowerRunMode:00000000 $t
C:\Users\EBANO_~1\AppData\Local\Temp\ccAi8UpB.s:199    .text.HAL_PWREx_EnableLowPowerRunMode:00000000 HAL_PWREx_EnableLowPowerRunMode
C:\Users\EBANO_~1\AppData\Local\Temp\ccAi8UpB.s:226    .text.HAL_PWREx_EnableLowPowerRunMode:00000018 $d
C:\Users\EBANO_~1\AppData\Local\Temp\ccAi8UpB.s:232    .text.HAL_PWREx_DisableLowPowerRunMode:00000000 $t
C:\Users\EBANO_~1\AppData\Local\Temp\ccAi8UpB.s:240    .text.HAL_PWREx_DisableLowPowerRunMode:00000000 HAL_PWREx_DisableLowPowerRunMode
C:\Users\EBANO_~1\AppData\Local\Temp\ccAi8UpB.s:316    .text.HAL_PWREx_DisableLowPowerRunMode:0000004c $d

UNDEFINED SYMBOLS
__aeabi_uidiv
SystemCoreClock
