ARM GAS  C:\Users\EBANO_~1\AppData\Local\Temp\cc4h82Al.s 			page 1


   1              		.cpu cortex-m0plus
   2              		.eabi_attribute 20, 1
   3              		.eabi_attribute 21, 1
   4              		.eabi_attribute 23, 3
   5              		.eabi_attribute 24, 1
   6              		.eabi_attribute 25, 1
   7              		.eabi_attribute 26, 1
   8              		.eabi_attribute 30, 2
   9              		.eabi_attribute 34, 0
  10              		.eabi_attribute 18, 4
  11              		.file	"stm32l0xx_hal_dma.c"
  12              		.text
  13              	.Ltext0:
  14              		.cfi_sections	.debug_frame
  15              		.section	.text.HAL_DMA_Init,"ax",%progbits
  16              		.align	1
  17              		.p2align 2,,3
  18              		.global	HAL_DMA_Init
  19              		.syntax unified
  20              		.code	16
  21              		.thumb_func
  22              		.fpu softvfp
  23              		.type	HAL_DMA_Init, %function
  24              	HAL_DMA_Init:
  25              	.LFB39:
  26              		.file 1 "../../../../../../Drivers/STM32L0xx_HAL_Driver/Src/stm32l0xx_hal_dma.c"
   1:../../../../../../Drivers/STM32L0xx_HAL_Driver/Src/stm32l0xx_hal_dma.c **** /**
   2:../../../../../../Drivers/STM32L0xx_HAL_Driver/Src/stm32l0xx_hal_dma.c ****   ******************************************************************************
   3:../../../../../../Drivers/STM32L0xx_HAL_Driver/Src/stm32l0xx_hal_dma.c ****   * @file    stm32l0xx_hal_dma.c
   4:../../../../../../Drivers/STM32L0xx_HAL_Driver/Src/stm32l0xx_hal_dma.c ****   * @author  MCD Application Team
   5:../../../../../../Drivers/STM32L0xx_HAL_Driver/Src/stm32l0xx_hal_dma.c ****   * @brief   DMA HAL module driver.
   6:../../../../../../Drivers/STM32L0xx_HAL_Driver/Src/stm32l0xx_hal_dma.c ****   *    
   7:../../../../../../Drivers/STM32L0xx_HAL_Driver/Src/stm32l0xx_hal_dma.c ****   *         This file provides firmware functions to manage the following 
   8:../../../../../../Drivers/STM32L0xx_HAL_Driver/Src/stm32l0xx_hal_dma.c ****   *         functionalities of the Direct Memory Access (DMA) peripheral:
   9:../../../../../../Drivers/STM32L0xx_HAL_Driver/Src/stm32l0xx_hal_dma.c ****   *           + Initialization/de-initialization functions
  10:../../../../../../Drivers/STM32L0xx_HAL_Driver/Src/stm32l0xx_hal_dma.c ****   *           + I/O operation functions
  11:../../../../../../Drivers/STM32L0xx_HAL_Driver/Src/stm32l0xx_hal_dma.c ****   *           + Peripheral State functions
  12:../../../../../../Drivers/STM32L0xx_HAL_Driver/Src/stm32l0xx_hal_dma.c ****   *  
  13:../../../../../../Drivers/STM32L0xx_HAL_Driver/Src/stm32l0xx_hal_dma.c ****   *           
  14:../../../../../../Drivers/STM32L0xx_HAL_Driver/Src/stm32l0xx_hal_dma.c ****   @verbatim     
  15:../../../../../../Drivers/STM32L0xx_HAL_Driver/Src/stm32l0xx_hal_dma.c ****   ==============================================================================      
  16:../../../../../../Drivers/STM32L0xx_HAL_Driver/Src/stm32l0xx_hal_dma.c ****                         ##### How to use this driver #####
  17:../../../../../../Drivers/STM32L0xx_HAL_Driver/Src/stm32l0xx_hal_dma.c ****   ============================================================================== 
  18:../../../../../../Drivers/STM32L0xx_HAL_Driver/Src/stm32l0xx_hal_dma.c ****   [..]
  19:../../../../../../Drivers/STM32L0xx_HAL_Driver/Src/stm32l0xx_hal_dma.c ****    (#) Enable and configure the peripheral to be connected to the DMA Channel
  20:../../../../../../Drivers/STM32L0xx_HAL_Driver/Src/stm32l0xx_hal_dma.c ****        (except for internal SRAM / FLASH memories: no initialization is 
  21:../../../../../../Drivers/STM32L0xx_HAL_Driver/Src/stm32l0xx_hal_dma.c ****        necessary). 
  22:../../../../../../Drivers/STM32L0xx_HAL_Driver/Src/stm32l0xx_hal_dma.c ****           
  23:../../../../../../Drivers/STM32L0xx_HAL_Driver/Src/stm32l0xx_hal_dma.c ****    (#) For a given Channel, program the required configuration through the following parameters:   
  24:../../../../../../Drivers/STM32L0xx_HAL_Driver/Src/stm32l0xx_hal_dma.c ****        Channel request, Transfer Direction, Source and Destination data formats, 
  25:../../../../../../Drivers/STM32L0xx_HAL_Driver/Src/stm32l0xx_hal_dma.c ****        Circular, Normal or peripheral flow control mode, Channel Priority level, 
  26:../../../../../../Drivers/STM32L0xx_HAL_Driver/Src/stm32l0xx_hal_dma.c ****        Source and Destination Increment mode using HAL_DMA_Init() function.
  27:../../../../../../Drivers/STM32L0xx_HAL_Driver/Src/stm32l0xx_hal_dma.c ****    
  28:../../../../../../Drivers/STM32L0xx_HAL_Driver/Src/stm32l0xx_hal_dma.c ****      *** Polling mode IO operation ***
  29:../../../../../../Drivers/STM32L0xx_HAL_Driver/Src/stm32l0xx_hal_dma.c ****      =================================   
  30:../../../../../../Drivers/STM32L0xx_HAL_Driver/Src/stm32l0xx_hal_dma.c ****     [..] 
  31:../../../../../../Drivers/STM32L0xx_HAL_Driver/Src/stm32l0xx_hal_dma.c ****           (+) Use HAL_DMA_Start() to start DMA transfer after the configuration of Source 
ARM GAS  C:\Users\EBANO_~1\AppData\Local\Temp\cc4h82Al.s 			page 2


  32:../../../../../../Drivers/STM32L0xx_HAL_Driver/Src/stm32l0xx_hal_dma.c ****               address and destination address and the Length of data to be transferred
  33:../../../../../../Drivers/STM32L0xx_HAL_Driver/Src/stm32l0xx_hal_dma.c ****           (+) Use HAL_DMA_PollForTransfer() to poll for the end of current transfer, in this  
  34:../../../../../../Drivers/STM32L0xx_HAL_Driver/Src/stm32l0xx_hal_dma.c ****               case a fixed Timeout can be configured by User depending from his application.
  35:../../../../../../Drivers/STM32L0xx_HAL_Driver/Src/stm32l0xx_hal_dma.c ****                
  36:../../../../../../Drivers/STM32L0xx_HAL_Driver/Src/stm32l0xx_hal_dma.c ****      *** Interrupt mode IO operation ***    
  37:../../../../../../Drivers/STM32L0xx_HAL_Driver/Src/stm32l0xx_hal_dma.c ****      =================================== 
  38:../../../../../../Drivers/STM32L0xx_HAL_Driver/Src/stm32l0xx_hal_dma.c ****     [..]     
  39:../../../../../../Drivers/STM32L0xx_HAL_Driver/Src/stm32l0xx_hal_dma.c ****           (+) Configure the DMA interrupt priority using HAL_NVIC_SetPriority()
  40:../../../../../../Drivers/STM32L0xx_HAL_Driver/Src/stm32l0xx_hal_dma.c ****           (+) Enable the DMA IRQ handler using HAL_NVIC_EnableIRQ() 
  41:../../../../../../Drivers/STM32L0xx_HAL_Driver/Src/stm32l0xx_hal_dma.c ****           (+) Use HAL_DMA_Start_IT() to start DMA transfer after the configuration of  
  42:../../../../../../Drivers/STM32L0xx_HAL_Driver/Src/stm32l0xx_hal_dma.c ****               Source address and destination address and the Length of data to be transferred. In t
  43:../../../../../../Drivers/STM32L0xx_HAL_Driver/Src/stm32l0xx_hal_dma.c ****               case the DMA interrupt is configured 
  44:../../../../../../Drivers/STM32L0xx_HAL_Driver/Src/stm32l0xx_hal_dma.c ****           (+) Use HAL_DMA_IRQHandler() called under DMA_IRQHandler() Interrupt subroutine
  45:../../../../../../Drivers/STM32L0xx_HAL_Driver/Src/stm32l0xx_hal_dma.c ****           (+) At the end of data transfer HAL_DMA_IRQHandler() function is executed and user can 
  46:../../../../../../Drivers/STM32L0xx_HAL_Driver/Src/stm32l0xx_hal_dma.c ****               add his own function by customization of function pointer XferCpltCallback and 
  47:../../../../../../Drivers/STM32L0xx_HAL_Driver/Src/stm32l0xx_hal_dma.c ****               XferErrorCallback (i.e a member of DMA handle structure). 
  48:../../../../../../Drivers/STM32L0xx_HAL_Driver/Src/stm32l0xx_hal_dma.c ****                 
  49:../../../../../../Drivers/STM32L0xx_HAL_Driver/Src/stm32l0xx_hal_dma.c ****    (#) Use HAL_DMA_GetState() function to return the DMA state and HAL_DMA_GetError() in case of er
  50:../../../../../../Drivers/STM32L0xx_HAL_Driver/Src/stm32l0xx_hal_dma.c ****        detection.
  51:../../../../../../Drivers/STM32L0xx_HAL_Driver/Src/stm32l0xx_hal_dma.c ****          
  52:../../../../../../Drivers/STM32L0xx_HAL_Driver/Src/stm32l0xx_hal_dma.c ****    (#) Use HAL_DMA_Abort() function to abort the current transfer              
  53:../../../../../../Drivers/STM32L0xx_HAL_Driver/Src/stm32l0xx_hal_dma.c ****                    
  54:../../../../../../Drivers/STM32L0xx_HAL_Driver/Src/stm32l0xx_hal_dma.c ****    -@-   In Memory-to-Memory transfer mode, Circular mode is not allowed.          
  55:../../../../../../Drivers/STM32L0xx_HAL_Driver/Src/stm32l0xx_hal_dma.c ****   
  56:../../../../../../Drivers/STM32L0xx_HAL_Driver/Src/stm32l0xx_hal_dma.c ****   @endverbatim
  57:../../../../../../Drivers/STM32L0xx_HAL_Driver/Src/stm32l0xx_hal_dma.c ****   ******************************************************************************
  58:../../../../../../Drivers/STM32L0xx_HAL_Driver/Src/stm32l0xx_hal_dma.c ****   * @attention
  59:../../../../../../Drivers/STM32L0xx_HAL_Driver/Src/stm32l0xx_hal_dma.c ****   *
  60:../../../../../../Drivers/STM32L0xx_HAL_Driver/Src/stm32l0xx_hal_dma.c ****   * <h2><center>&copy; COPYRIGHT(c) 2016 STMicroelectronics</center></h2>
  61:../../../../../../Drivers/STM32L0xx_HAL_Driver/Src/stm32l0xx_hal_dma.c ****   *
  62:../../../../../../Drivers/STM32L0xx_HAL_Driver/Src/stm32l0xx_hal_dma.c ****   * Redistribution and use in source and binary forms, with or without modification,
  63:../../../../../../Drivers/STM32L0xx_HAL_Driver/Src/stm32l0xx_hal_dma.c ****   * are permitted provided that the following conditions are met:
  64:../../../../../../Drivers/STM32L0xx_HAL_Driver/Src/stm32l0xx_hal_dma.c ****   *   1. Redistributions of source code must retain the above copyright notice,
  65:../../../../../../Drivers/STM32L0xx_HAL_Driver/Src/stm32l0xx_hal_dma.c ****   *      this list of conditions and the following disclaimer.
  66:../../../../../../Drivers/STM32L0xx_HAL_Driver/Src/stm32l0xx_hal_dma.c ****   *   2. Redistributions in binary form must reproduce the above copyright notice,
  67:../../../../../../Drivers/STM32L0xx_HAL_Driver/Src/stm32l0xx_hal_dma.c ****   *      this list of conditions and the following disclaimer in the documentation
  68:../../../../../../Drivers/STM32L0xx_HAL_Driver/Src/stm32l0xx_hal_dma.c ****   *      and/or other materials provided with the distribution.
  69:../../../../../../Drivers/STM32L0xx_HAL_Driver/Src/stm32l0xx_hal_dma.c ****   *   3. Neither the name of STMicroelectronics nor the names of its contributors
  70:../../../../../../Drivers/STM32L0xx_HAL_Driver/Src/stm32l0xx_hal_dma.c ****   *      may be used to endorse or promote products derived from this software
  71:../../../../../../Drivers/STM32L0xx_HAL_Driver/Src/stm32l0xx_hal_dma.c ****   *      without specific prior written permission.
  72:../../../../../../Drivers/STM32L0xx_HAL_Driver/Src/stm32l0xx_hal_dma.c ****   *
  73:../../../../../../Drivers/STM32L0xx_HAL_Driver/Src/stm32l0xx_hal_dma.c ****   * THIS SOFTWARE IS PROVIDED BY THE COPYRIGHT HOLDERS AND CONTRIBUTORS "AS IS"
  74:../../../../../../Drivers/STM32L0xx_HAL_Driver/Src/stm32l0xx_hal_dma.c ****   * AND ANY EXPRESS OR IMPLIED WARRANTIES, INCLUDING, BUT NOT LIMITED TO, THE
  75:../../../../../../Drivers/STM32L0xx_HAL_Driver/Src/stm32l0xx_hal_dma.c ****   * IMPLIED WARRANTIES OF MERCHANTABILITY AND FITNESS FOR A PARTICULAR PURPOSE ARE
  76:../../../../../../Drivers/STM32L0xx_HAL_Driver/Src/stm32l0xx_hal_dma.c ****   * DISCLAIMED. IN NO EVENT SHALL THE COPYRIGHT HOLDER OR CONTRIBUTORS BE LIABLE
  77:../../../../../../Drivers/STM32L0xx_HAL_Driver/Src/stm32l0xx_hal_dma.c ****   * FOR ANY DIRECT, INDIRECT, INCIDENTAL, SPECIAL, EXEMPLARY, OR CONSEQUENTIAL
  78:../../../../../../Drivers/STM32L0xx_HAL_Driver/Src/stm32l0xx_hal_dma.c ****   * DAMAGES (INCLUDING, BUT NOT LIMITED TO, PROCUREMENT OF SUBSTITUTE GOODS OR
  79:../../../../../../Drivers/STM32L0xx_HAL_Driver/Src/stm32l0xx_hal_dma.c ****   * SERVICES; LOSS OF USE, DATA, OR PROFITS; OR BUSINESS INTERRUPTION) HOWEVER
  80:../../../../../../Drivers/STM32L0xx_HAL_Driver/Src/stm32l0xx_hal_dma.c ****   * CAUSED AND ON ANY THEORY OF LIABILITY, WHETHER IN CONTRACT, STRICT LIABILITY,
  81:../../../../../../Drivers/STM32L0xx_HAL_Driver/Src/stm32l0xx_hal_dma.c ****   * OR TORT (INCLUDING NEGLIGENCE OR OTHERWISE) ARISING IN ANY WAY OUT OF THE USE
  82:../../../../../../Drivers/STM32L0xx_HAL_Driver/Src/stm32l0xx_hal_dma.c ****   * OF THIS SOFTWARE, EVEN IF ADVISED OF THE POSSIBILITY OF SUCH DAMAGE.
  83:../../../../../../Drivers/STM32L0xx_HAL_Driver/Src/stm32l0xx_hal_dma.c ****   *
  84:../../../../../../Drivers/STM32L0xx_HAL_Driver/Src/stm32l0xx_hal_dma.c ****   ******************************************************************************
  85:../../../../../../Drivers/STM32L0xx_HAL_Driver/Src/stm32l0xx_hal_dma.c ****   */ 
  86:../../../../../../Drivers/STM32L0xx_HAL_Driver/Src/stm32l0xx_hal_dma.c **** 
  87:../../../../../../Drivers/STM32L0xx_HAL_Driver/Src/stm32l0xx_hal_dma.c **** /* Includes ------------------------------------------------------------------*/
  88:../../../../../../Drivers/STM32L0xx_HAL_Driver/Src/stm32l0xx_hal_dma.c **** #include "stm32l0xx_hal.h"
ARM GAS  C:\Users\EBANO_~1\AppData\Local\Temp\cc4h82Al.s 			page 3


  89:../../../../../../Drivers/STM32L0xx_HAL_Driver/Src/stm32l0xx_hal_dma.c **** 
  90:../../../../../../Drivers/STM32L0xx_HAL_Driver/Src/stm32l0xx_hal_dma.c **** /** @addtogroup STM32L0xx_HAL_Driver
  91:../../../../../../Drivers/STM32L0xx_HAL_Driver/Src/stm32l0xx_hal_dma.c ****   * @{
  92:../../../../../../Drivers/STM32L0xx_HAL_Driver/Src/stm32l0xx_hal_dma.c ****   */
  93:../../../../../../Drivers/STM32L0xx_HAL_Driver/Src/stm32l0xx_hal_dma.c **** #ifdef HAL_DMA_MODULE_ENABLED
  94:../../../../../../Drivers/STM32L0xx_HAL_Driver/Src/stm32l0xx_hal_dma.c **** 
  95:../../../../../../Drivers/STM32L0xx_HAL_Driver/Src/stm32l0xx_hal_dma.c **** /** @addtogroup DMA DMA
  96:../../../../../../Drivers/STM32L0xx_HAL_Driver/Src/stm32l0xx_hal_dma.c ****   * @brief DMA HAL module driver
  97:../../../../../../Drivers/STM32L0xx_HAL_Driver/Src/stm32l0xx_hal_dma.c ****   * @{
  98:../../../../../../Drivers/STM32L0xx_HAL_Driver/Src/stm32l0xx_hal_dma.c ****   */
  99:../../../../../../Drivers/STM32L0xx_HAL_Driver/Src/stm32l0xx_hal_dma.c **** 
 100:../../../../../../Drivers/STM32L0xx_HAL_Driver/Src/stm32l0xx_hal_dma.c **** /* Private typedef -----------------------------------------------------------*/  
 101:../../../../../../Drivers/STM32L0xx_HAL_Driver/Src/stm32l0xx_hal_dma.c **** /** @addtogroup DMA_Private
 102:../../../../../../Drivers/STM32L0xx_HAL_Driver/Src/stm32l0xx_hal_dma.c ****   *
 103:../../../../../../Drivers/STM32L0xx_HAL_Driver/Src/stm32l0xx_hal_dma.c ****   * @{
 104:../../../../../../Drivers/STM32L0xx_HAL_Driver/Src/stm32l0xx_hal_dma.c ****   */
 105:../../../../../../Drivers/STM32L0xx_HAL_Driver/Src/stm32l0xx_hal_dma.c **** #define HAL_TIMEOUT_DMA_ABORT    ((uint32_t)1000U)  /* 1s  */
 106:../../../../../../Drivers/STM32L0xx_HAL_Driver/Src/stm32l0xx_hal_dma.c **** 
 107:../../../../../../Drivers/STM32L0xx_HAL_Driver/Src/stm32l0xx_hal_dma.c **** 
 108:../../../../../../Drivers/STM32L0xx_HAL_Driver/Src/stm32l0xx_hal_dma.c **** static void DMA_SetConfig(DMA_HandleTypeDef *hdma, uint32_t SrcAddress, uint32_t DstAddress, uint32
 109:../../../../../../Drivers/STM32L0xx_HAL_Driver/Src/stm32l0xx_hal_dma.c **** /**
 110:../../../../../../Drivers/STM32L0xx_HAL_Driver/Src/stm32l0xx_hal_dma.c ****   * @}
 111:../../../../../../Drivers/STM32L0xx_HAL_Driver/Src/stm32l0xx_hal_dma.c ****   */
 112:../../../../../../Drivers/STM32L0xx_HAL_Driver/Src/stm32l0xx_hal_dma.c **** 
 113:../../../../../../Drivers/STM32L0xx_HAL_Driver/Src/stm32l0xx_hal_dma.c **** /** @addtogroup DMA_Exported_Functions DMA Exported Functions
 114:../../../../../../Drivers/STM32L0xx_HAL_Driver/Src/stm32l0xx_hal_dma.c ****   * @{
 115:../../../../../../Drivers/STM32L0xx_HAL_Driver/Src/stm32l0xx_hal_dma.c ****   */
 116:../../../../../../Drivers/STM32L0xx_HAL_Driver/Src/stm32l0xx_hal_dma.c **** 
 117:../../../../../../Drivers/STM32L0xx_HAL_Driver/Src/stm32l0xx_hal_dma.c **** /** @addtogroup DMA_Exported_Functions_Group1 
 118:../../../../../../Drivers/STM32L0xx_HAL_Driver/Src/stm32l0xx_hal_dma.c ****  *  @brief   Initialization/de-initialization functions 
 119:../../../../../../Drivers/STM32L0xx_HAL_Driver/Src/stm32l0xx_hal_dma.c ****  *
 120:../../../../../../Drivers/STM32L0xx_HAL_Driver/Src/stm32l0xx_hal_dma.c **** @verbatim   
 121:../../../../../../Drivers/STM32L0xx_HAL_Driver/Src/stm32l0xx_hal_dma.c ****  ===============================================================================
 122:../../../../../../Drivers/STM32L0xx_HAL_Driver/Src/stm32l0xx_hal_dma.c ****              ##### Initialization and de-initialization functions  #####
 123:../../../../../../Drivers/STM32L0xx_HAL_Driver/Src/stm32l0xx_hal_dma.c ****  ===============================================================================  
 124:../../../../../../Drivers/STM32L0xx_HAL_Driver/Src/stm32l0xx_hal_dma.c ****     [..]  This section provides functions allowing to:
 125:../../../../../../Drivers/STM32L0xx_HAL_Driver/Src/stm32l0xx_hal_dma.c ****       (+) Initialize and configure the DMA
 126:../../../../../../Drivers/STM32L0xx_HAL_Driver/Src/stm32l0xx_hal_dma.c ****       (+) De-Initialize the DMA 
 127:../../../../../../Drivers/STM32L0xx_HAL_Driver/Src/stm32l0xx_hal_dma.c **** 
 128:../../../../../../Drivers/STM32L0xx_HAL_Driver/Src/stm32l0xx_hal_dma.c **** @endverbatim
 129:../../../../../../Drivers/STM32L0xx_HAL_Driver/Src/stm32l0xx_hal_dma.c ****   * @{
 130:../../../../../../Drivers/STM32L0xx_HAL_Driver/Src/stm32l0xx_hal_dma.c ****   */
 131:../../../../../../Drivers/STM32L0xx_HAL_Driver/Src/stm32l0xx_hal_dma.c ****   
 132:../../../../../../Drivers/STM32L0xx_HAL_Driver/Src/stm32l0xx_hal_dma.c **** /**
 133:../../../../../../Drivers/STM32L0xx_HAL_Driver/Src/stm32l0xx_hal_dma.c ****   * @brief  Initializes the DMA according to the specified
 134:../../../../../../Drivers/STM32L0xx_HAL_Driver/Src/stm32l0xx_hal_dma.c ****   *         parameters in the DMA_InitTypeDef and create the associated handle.
 135:../../../../../../Drivers/STM32L0xx_HAL_Driver/Src/stm32l0xx_hal_dma.c ****   * @param  hdma Pointer to a DMA_HandleTypeDef structure that contains
 136:../../../../../../Drivers/STM32L0xx_HAL_Driver/Src/stm32l0xx_hal_dma.c ****   *               the configuration information for the specified DMA Channel.  
 137:../../../../../../Drivers/STM32L0xx_HAL_Driver/Src/stm32l0xx_hal_dma.c ****   * @retval HAL status
 138:../../../../../../Drivers/STM32L0xx_HAL_Driver/Src/stm32l0xx_hal_dma.c ****   */
 139:../../../../../../Drivers/STM32L0xx_HAL_Driver/Src/stm32l0xx_hal_dma.c **** HAL_StatusTypeDef HAL_DMA_Init(DMA_HandleTypeDef *hdma)
 140:../../../../../../Drivers/STM32L0xx_HAL_Driver/Src/stm32l0xx_hal_dma.c **** { 
  27              		.loc 1 140 0
  28              		.cfi_startproc
  29              		@ args = 0, pretend = 0, frame = 0
  30              		@ frame_needed = 0, uses_anonymous_args = 0
  31              	.LVL0:
ARM GAS  C:\Users\EBANO_~1\AppData\Local\Temp\cc4h82Al.s 			page 4


  32 0000 10B5     		push	{r4, lr}
  33              	.LCFI0:
  34              		.cfi_def_cfa_offset 8
  35              		.cfi_offset 4, -8
  36              		.cfi_offset 14, -4
 141:../../../../../../Drivers/STM32L0xx_HAL_Driver/Src/stm32l0xx_hal_dma.c ****   uint32_t tmp = 0U;
 142:../../../../../../Drivers/STM32L0xx_HAL_Driver/Src/stm32l0xx_hal_dma.c ****   
 143:../../../../../../Drivers/STM32L0xx_HAL_Driver/Src/stm32l0xx_hal_dma.c ****   /* Check the DMA peripheral state */
 144:../../../../../../Drivers/STM32L0xx_HAL_Driver/Src/stm32l0xx_hal_dma.c ****   if(hdma == NULL)
  37              		.loc 1 144 0
  38 0002 0028     		cmp	r0, #0
  39 0004 3DD0     		beq	.L11
 145:../../../../../../Drivers/STM32L0xx_HAL_Driver/Src/stm32l0xx_hal_dma.c ****   {
 146:../../../../../../Drivers/STM32L0xx_HAL_Driver/Src/stm32l0xx_hal_dma.c ****     return HAL_ERROR;
 147:../../../../../../Drivers/STM32L0xx_HAL_Driver/Src/stm32l0xx_hal_dma.c ****   }
 148:../../../../../../Drivers/STM32L0xx_HAL_Driver/Src/stm32l0xx_hal_dma.c **** 
 149:../../../../../../Drivers/STM32L0xx_HAL_Driver/Src/stm32l0xx_hal_dma.c ****   /* Check the parameters */
 150:../../../../../../Drivers/STM32L0xx_HAL_Driver/Src/stm32l0xx_hal_dma.c ****   assert_param(IS_DMA_ALL_INSTANCE(hdma->Instance));
 151:../../../../../../Drivers/STM32L0xx_HAL_Driver/Src/stm32l0xx_hal_dma.c ****   assert_param(IS_DMA_ALL_REQUEST(hdma->Init.Request));
 152:../../../../../../Drivers/STM32L0xx_HAL_Driver/Src/stm32l0xx_hal_dma.c ****   assert_param(IS_DMA_DIRECTION(hdma->Init.Direction));
 153:../../../../../../Drivers/STM32L0xx_HAL_Driver/Src/stm32l0xx_hal_dma.c ****   assert_param(IS_DMA_PERIPHERAL_INC_STATE(hdma->Init.PeriphInc));
 154:../../../../../../Drivers/STM32L0xx_HAL_Driver/Src/stm32l0xx_hal_dma.c ****   assert_param(IS_DMA_MEMORY_INC_STATE(hdma->Init.MemInc));
 155:../../../../../../Drivers/STM32L0xx_HAL_Driver/Src/stm32l0xx_hal_dma.c ****   assert_param(IS_DMA_PERIPHERAL_DATA_SIZE(hdma->Init.PeriphDataAlignment));
 156:../../../../../../Drivers/STM32L0xx_HAL_Driver/Src/stm32l0xx_hal_dma.c ****   assert_param(IS_DMA_MEMORY_DATA_SIZE(hdma->Init.MemDataAlignment));
 157:../../../../../../Drivers/STM32L0xx_HAL_Driver/Src/stm32l0xx_hal_dma.c ****   assert_param(IS_DMA_MODE(hdma->Init.Mode));
 158:../../../../../../Drivers/STM32L0xx_HAL_Driver/Src/stm32l0xx_hal_dma.c ****   assert_param(IS_DMA_PRIORITY(hdma->Init.Priority));
 159:../../../../../../Drivers/STM32L0xx_HAL_Driver/Src/stm32l0xx_hal_dma.c ****   
 160:../../../../../../Drivers/STM32L0xx_HAL_Driver/Src/stm32l0xx_hal_dma.c ****   if(hdma->State == HAL_DMA_STATE_RESET)
  40              		.loc 1 160 0
  41 0006 2523     		movs	r3, #37
  42 0008 C35C     		ldrb	r3, [r0, r3]
  43 000a DBB2     		uxtb	r3, r3
  44 000c 002B     		cmp	r3, #0
  45 000e 35D0     		beq	.L13
  46              	.L3:
 161:../../../../../../Drivers/STM32L0xx_HAL_Driver/Src/stm32l0xx_hal_dma.c ****   {
 162:../../../../../../Drivers/STM32L0xx_HAL_Driver/Src/stm32l0xx_hal_dma.c ****     /* Allocate lock resource and initialize it */
 163:../../../../../../Drivers/STM32L0xx_HAL_Driver/Src/stm32l0xx_hal_dma.c ****     hdma->Lock = HAL_UNLOCKED;
 164:../../../../../../Drivers/STM32L0xx_HAL_Driver/Src/stm32l0xx_hal_dma.c ****   }
 165:../../../../../../Drivers/STM32L0xx_HAL_Driver/Src/stm32l0xx_hal_dma.c **** 
 166:../../../../../../Drivers/STM32L0xx_HAL_Driver/Src/stm32l0xx_hal_dma.c ****   /* Change DMA peripheral state */
 167:../../../../../../Drivers/STM32L0xx_HAL_Driver/Src/stm32l0xx_hal_dma.c ****   hdma->State = HAL_DMA_STATE_BUSY;
  47              		.loc 1 167 0
  48 0010 2523     		movs	r3, #37
  49 0012 0222     		movs	r2, #2
  50 0014 C254     		strb	r2, [r0, r3]
 168:../../../../../../Drivers/STM32L0xx_HAL_Driver/Src/stm32l0xx_hal_dma.c **** 
 169:../../../../../../Drivers/STM32L0xx_HAL_Driver/Src/stm32l0xx_hal_dma.c ****   /* Get the CR register value */
 170:../../../../../../Drivers/STM32L0xx_HAL_Driver/Src/stm32l0xx_hal_dma.c ****   tmp = hdma->Instance->CCR;
  51              		.loc 1 170 0
  52 0016 0268     		ldr	r2, [r0]
 171:../../../../../../Drivers/STM32L0xx_HAL_Driver/Src/stm32l0xx_hal_dma.c ****   
 172:../../../../../../Drivers/STM32L0xx_HAL_Driver/Src/stm32l0xx_hal_dma.c ****   /* Clear PL, MSIZE, PSIZE, MINC, PINC, CIRC, DIR bits */
 173:../../../../../../Drivers/STM32L0xx_HAL_Driver/Src/stm32l0xx_hal_dma.c ****   tmp &= ((uint32_t)~(DMA_CCR_PL    | DMA_CCR_MSIZE  | DMA_CCR_PSIZE  | \
  53              		.loc 1 173 0
  54 0018 3D49     		ldr	r1, .L20
 170:../../../../../../Drivers/STM32L0xx_HAL_Driver/Src/stm32l0xx_hal_dma.c ****   
ARM GAS  C:\Users\EBANO_~1\AppData\Local\Temp\cc4h82Al.s 			page 5


  55              		.loc 1 170 0
  56 001a 1368     		ldr	r3, [r2]
  57              	.LVL1:
 174:../../../../../../Drivers/STM32L0xx_HAL_Driver/Src/stm32l0xx_hal_dma.c ****                       DMA_CCR_MINC  | DMA_CCR_PINC   | DMA_CCR_CIRC   | \
 175:../../../../../../Drivers/STM32L0xx_HAL_Driver/Src/stm32l0xx_hal_dma.c ****                       DMA_CCR_DIR));
 176:../../../../../../Drivers/STM32L0xx_HAL_Driver/Src/stm32l0xx_hal_dma.c ****   
 177:../../../../../../Drivers/STM32L0xx_HAL_Driver/Src/stm32l0xx_hal_dma.c ****   /* Prepare the DMA Channel configuration */
 178:../../../../../../Drivers/STM32L0xx_HAL_Driver/Src/stm32l0xx_hal_dma.c ****   tmp |=  hdma->Init.Direction        |
  58              		.loc 1 178 0
  59 001c C468     		ldr	r4, [r0, #12]
 173:../../../../../../Drivers/STM32L0xx_HAL_Driver/Src/stm32l0xx_hal_dma.c ****                       DMA_CCR_MINC  | DMA_CCR_PINC   | DMA_CCR_CIRC   | \
  60              		.loc 1 173 0
  61 001e 1940     		ands	r1, r3
  62              	.LVL2:
  63              		.loc 1 178 0
  64 0020 8368     		ldr	r3, [r0, #8]
  65 0022 2343     		orrs	r3, r4
 179:../../../../../../Drivers/STM32L0xx_HAL_Driver/Src/stm32l0xx_hal_dma.c ****           hdma->Init.PeriphInc           | hdma->Init.MemInc           |
  66              		.loc 1 179 0
  67 0024 0469     		ldr	r4, [r0, #16]
  68 0026 2343     		orrs	r3, r4
  69 0028 4469     		ldr	r4, [r0, #20]
  70 002a 2343     		orrs	r3, r4
 180:../../../../../../Drivers/STM32L0xx_HAL_Driver/Src/stm32l0xx_hal_dma.c ****           hdma->Init.PeriphDataAlignment | hdma->Init.MemDataAlignment |
  71              		.loc 1 180 0
  72 002c 8469     		ldr	r4, [r0, #24]
  73 002e 2343     		orrs	r3, r4
  74 0030 C469     		ldr	r4, [r0, #28]
  75 0032 2343     		orrs	r3, r4
 181:../../../../../../Drivers/STM32L0xx_HAL_Driver/Src/stm32l0xx_hal_dma.c ****           hdma->Init.Mode                | hdma->Init.Priority;
  76              		.loc 1 181 0
  77 0034 046A     		ldr	r4, [r0, #32]
  78 0036 2343     		orrs	r3, r4
 178:../../../../../../Drivers/STM32L0xx_HAL_Driver/Src/stm32l0xx_hal_dma.c ****           hdma->Init.PeriphInc           | hdma->Init.MemInc           |
  79              		.loc 1 178 0
  80 0038 0B43     		orrs	r3, r1
  81              	.LVL3:
 182:../../../../../../Drivers/STM32L0xx_HAL_Driver/Src/stm32l0xx_hal_dma.c **** 
 183:../../../../../../Drivers/STM32L0xx_HAL_Driver/Src/stm32l0xx_hal_dma.c ****   /* Write to DMA Channel CR register */
 184:../../../../../../Drivers/STM32L0xx_HAL_Driver/Src/stm32l0xx_hal_dma.c ****   hdma->Instance->CCR = tmp;  
  82              		.loc 1 184 0
  83 003a 1360     		str	r3, [r2]
 185:../../../../../../Drivers/STM32L0xx_HAL_Driver/Src/stm32l0xx_hal_dma.c ****   
 186:../../../../../../Drivers/STM32L0xx_HAL_Driver/Src/stm32l0xx_hal_dma.c ****   /* Write to DMA channel selection register */
 187:../../../../../../Drivers/STM32L0xx_HAL_Driver/Src/stm32l0xx_hal_dma.c ****   if (hdma->Instance == DMA1_Channel1)
  84              		.loc 1 187 0
  85 003c 354B     		ldr	r3, .L20+4
  86              	.LVL4:
  87 003e 9A42     		cmp	r2, r3
  88 0040 21D0     		beq	.L14
 188:../../../../../../Drivers/STM32L0xx_HAL_Driver/Src/stm32l0xx_hal_dma.c ****   {
 189:../../../../../../Drivers/STM32L0xx_HAL_Driver/Src/stm32l0xx_hal_dma.c ****     /*Reset request selection for DMA1 Channel1*/
 190:../../../../../../Drivers/STM32L0xx_HAL_Driver/Src/stm32l0xx_hal_dma.c ****     DMA1_CSELR->CSELR &= ~DMA_CSELR_C1S;
 191:../../../../../../Drivers/STM32L0xx_HAL_Driver/Src/stm32l0xx_hal_dma.c ****     
 192:../../../../../../Drivers/STM32L0xx_HAL_Driver/Src/stm32l0xx_hal_dma.c ****     /* Configure request selection for DMA1 Channel1 */
 193:../../../../../../Drivers/STM32L0xx_HAL_Driver/Src/stm32l0xx_hal_dma.c ****     DMA1_CSELR->CSELR |= hdma->Init.Request;
 194:../../../../../../Drivers/STM32L0xx_HAL_Driver/Src/stm32l0xx_hal_dma.c ****   }
ARM GAS  C:\Users\EBANO_~1\AppData\Local\Temp\cc4h82Al.s 			page 6


 195:../../../../../../Drivers/STM32L0xx_HAL_Driver/Src/stm32l0xx_hal_dma.c ****   else if (hdma->Instance == DMA1_Channel2)
  89              		.loc 1 195 0
  90 0042 354B     		ldr	r3, .L20+8
  91 0044 9A42     		cmp	r2, r3
  92 0046 2CD0     		beq	.L15
 196:../../../../../../Drivers/STM32L0xx_HAL_Driver/Src/stm32l0xx_hal_dma.c ****   {
 197:../../../../../../Drivers/STM32L0xx_HAL_Driver/Src/stm32l0xx_hal_dma.c ****     /*Reset request selection for DMA1 Channel2*/
 198:../../../../../../Drivers/STM32L0xx_HAL_Driver/Src/stm32l0xx_hal_dma.c ****     DMA1_CSELR->CSELR &= ~DMA_CSELR_C2S;
 199:../../../../../../Drivers/STM32L0xx_HAL_Driver/Src/stm32l0xx_hal_dma.c ****     
 200:../../../../../../Drivers/STM32L0xx_HAL_Driver/Src/stm32l0xx_hal_dma.c ****     /* Configure request selection for DMA1 Channel2 */
 201:../../../../../../Drivers/STM32L0xx_HAL_Driver/Src/stm32l0xx_hal_dma.c ****     DMA1_CSELR->CSELR |= (uint32_t)(hdma->Init.Request << 4U);
 202:../../../../../../Drivers/STM32L0xx_HAL_Driver/Src/stm32l0xx_hal_dma.c ****   }
 203:../../../../../../Drivers/STM32L0xx_HAL_Driver/Src/stm32l0xx_hal_dma.c ****   else if (hdma->Instance == DMA1_Channel3)
  93              		.loc 1 203 0
  94 0048 344B     		ldr	r3, .L20+12
  95 004a 9A42     		cmp	r2, r3
  96 004c 3FD0     		beq	.L16
 204:../../../../../../Drivers/STM32L0xx_HAL_Driver/Src/stm32l0xx_hal_dma.c ****   {
 205:../../../../../../Drivers/STM32L0xx_HAL_Driver/Src/stm32l0xx_hal_dma.c ****     /*Reset request selection for DMA1 Channel3*/
 206:../../../../../../Drivers/STM32L0xx_HAL_Driver/Src/stm32l0xx_hal_dma.c ****     DMA1_CSELR->CSELR &= ~DMA_CSELR_C3S;
 207:../../../../../../Drivers/STM32L0xx_HAL_Driver/Src/stm32l0xx_hal_dma.c ****     
 208:../../../../../../Drivers/STM32L0xx_HAL_Driver/Src/stm32l0xx_hal_dma.c ****     /* Configure request selection for DMA1 Channel3 */
 209:../../../../../../Drivers/STM32L0xx_HAL_Driver/Src/stm32l0xx_hal_dma.c ****     DMA1_CSELR->CSELR |= (uint32_t) (hdma->Init.Request << 8U);
 210:../../../../../../Drivers/STM32L0xx_HAL_Driver/Src/stm32l0xx_hal_dma.c ****   }
 211:../../../../../../Drivers/STM32L0xx_HAL_Driver/Src/stm32l0xx_hal_dma.c ****   else if (hdma->Instance == DMA1_Channel4)
  97              		.loc 1 211 0
  98 004e 344B     		ldr	r3, .L20+16
  99 0050 9A42     		cmp	r2, r3
 100 0052 31D0     		beq	.L17
 212:../../../../../../Drivers/STM32L0xx_HAL_Driver/Src/stm32l0xx_hal_dma.c ****   {
 213:../../../../../../Drivers/STM32L0xx_HAL_Driver/Src/stm32l0xx_hal_dma.c ****     /*Reset request selection for DMA1 Channel4*/
 214:../../../../../../Drivers/STM32L0xx_HAL_Driver/Src/stm32l0xx_hal_dma.c ****     DMA1_CSELR->CSELR &= ~DMA_CSELR_C4S;
 215:../../../../../../Drivers/STM32L0xx_HAL_Driver/Src/stm32l0xx_hal_dma.c ****     
 216:../../../../../../Drivers/STM32L0xx_HAL_Driver/Src/stm32l0xx_hal_dma.c ****     /* Configure request selection for DMA1 Channel4 */
 217:../../../../../../Drivers/STM32L0xx_HAL_Driver/Src/stm32l0xx_hal_dma.c ****     DMA1_CSELR->CSELR |= (uint32_t) (hdma->Init.Request << 12U);
 218:../../../../../../Drivers/STM32L0xx_HAL_Driver/Src/stm32l0xx_hal_dma.c ****   }
 219:../../../../../../Drivers/STM32L0xx_HAL_Driver/Src/stm32l0xx_hal_dma.c ****   else if (hdma->Instance == DMA1_Channel5)
 101              		.loc 1 219 0
 102 0054 334B     		ldr	r3, .L20+20
 103 0056 9A42     		cmp	r2, r3
 104 0058 44D0     		beq	.L18
 220:../../../../../../Drivers/STM32L0xx_HAL_Driver/Src/stm32l0xx_hal_dma.c ****   {
 221:../../../../../../Drivers/STM32L0xx_HAL_Driver/Src/stm32l0xx_hal_dma.c ****     /*Reset request selection for DMA1 Channel5*/
 222:../../../../../../Drivers/STM32L0xx_HAL_Driver/Src/stm32l0xx_hal_dma.c ****     DMA1_CSELR->CSELR &= ~DMA_CSELR_C5S;
 223:../../../../../../Drivers/STM32L0xx_HAL_Driver/Src/stm32l0xx_hal_dma.c ****     
 224:../../../../../../Drivers/STM32L0xx_HAL_Driver/Src/stm32l0xx_hal_dma.c ****     /* Configure request selection for DMA1 Channel5 */
 225:../../../../../../Drivers/STM32L0xx_HAL_Driver/Src/stm32l0xx_hal_dma.c ****     DMA1_CSELR->CSELR |= (uint32_t) (hdma->Init.Request << 16U);
 226:../../../../../../Drivers/STM32L0xx_HAL_Driver/Src/stm32l0xx_hal_dma.c ****   }
 227:../../../../../../Drivers/STM32L0xx_HAL_Driver/Src/stm32l0xx_hal_dma.c **** #if !defined (STM32L010x4) && !defined (STM32L011xx) && !defined (STM32L021xx)
 228:../../../../../../Drivers/STM32L0xx_HAL_Driver/Src/stm32l0xx_hal_dma.c ****   else if (hdma->Instance == DMA1_Channel6)
 105              		.loc 1 228 0
 106 005a 334B     		ldr	r3, .L20+24
 107 005c 9A42     		cmp	r2, r3
 108 005e 4CD0     		beq	.L19
 229:../../../../../../Drivers/STM32L0xx_HAL_Driver/Src/stm32l0xx_hal_dma.c ****   {
 230:../../../../../../Drivers/STM32L0xx_HAL_Driver/Src/stm32l0xx_hal_dma.c ****     /*Reset request selection for DMA1 Channel6*/
 231:../../../../../../Drivers/STM32L0xx_HAL_Driver/Src/stm32l0xx_hal_dma.c ****     DMA1_CSELR->CSELR &= ~DMA_CSELR_C6S;
ARM GAS  C:\Users\EBANO_~1\AppData\Local\Temp\cc4h82Al.s 			page 7


 232:../../../../../../Drivers/STM32L0xx_HAL_Driver/Src/stm32l0xx_hal_dma.c ****     
 233:../../../../../../Drivers/STM32L0xx_HAL_Driver/Src/stm32l0xx_hal_dma.c ****     /* Configure request selection for DMA1 Channel6 */
 234:../../../../../../Drivers/STM32L0xx_HAL_Driver/Src/stm32l0xx_hal_dma.c ****     DMA1_CSELR->CSELR |= (uint32_t) (hdma->Init.Request << 20U);
 235:../../../../../../Drivers/STM32L0xx_HAL_Driver/Src/stm32l0xx_hal_dma.c ****   }
 236:../../../../../../Drivers/STM32L0xx_HAL_Driver/Src/stm32l0xx_hal_dma.c ****   else if (hdma->Instance == DMA1_Channel7)
 109              		.loc 1 236 0
 110 0060 324B     		ldr	r3, .L20+28
 111 0062 9A42     		cmp	r2, r3
 112 0064 18D1     		bne	.L5
 237:../../../../../../Drivers/STM32L0xx_HAL_Driver/Src/stm32l0xx_hal_dma.c ****   {
 238:../../../../../../Drivers/STM32L0xx_HAL_Driver/Src/stm32l0xx_hal_dma.c ****     /*Reset request selection for DMA1 Channel7*/
 239:../../../../../../Drivers/STM32L0xx_HAL_Driver/Src/stm32l0xx_hal_dma.c ****     DMA1_CSELR->CSELR &= ~DMA_CSELR_C7S;
 113              		.loc 1 239 0
 114 0066 324A     		ldr	r2, .L20+32
 115              	.LVL5:
 116 0068 3249     		ldr	r1, .L20+36
 117 006a 1368     		ldr	r3, [r2]
 118 006c 0B40     		ands	r3, r1
 119 006e 1360     		str	r3, [r2]
 120              	.LVL6:
 240:../../../../../../Drivers/STM32L0xx_HAL_Driver/Src/stm32l0xx_hal_dma.c ****     
 241:../../../../../../Drivers/STM32L0xx_HAL_Driver/Src/stm32l0xx_hal_dma.c ****     /* Configure request selection for DMA1 Channel7 */
 242:../../../../../../Drivers/STM32L0xx_HAL_Driver/Src/stm32l0xx_hal_dma.c ****     DMA1_CSELR->CSELR |= (uint32_t) (hdma->Init.Request << 24U);
 121              		.loc 1 242 0
 122 0070 4368     		ldr	r3, [r0, #4]
 123 0072 1168     		ldr	r1, [r2]
 124 0074 1B06     		lsls	r3, r3, #24
 125 0076 0B43     		orrs	r3, r1
 126 0078 1360     		str	r3, [r2]
 127 007a 0DE0     		b	.L5
 128              	.LVL7:
 129              	.L13:
 163:../../../../../../Drivers/STM32L0xx_HAL_Driver/Src/stm32l0xx_hal_dma.c ****   }
 130              		.loc 1 163 0
 131 007c 2422     		movs	r2, #36
 132 007e 8354     		strb	r3, [r0, r2]
 133 0080 C6E7     		b	.L3
 134              	.L11:
 146:../../../../../../Drivers/STM32L0xx_HAL_Driver/Src/stm32l0xx_hal_dma.c ****   }
 135              		.loc 1 146 0
 136 0082 0120     		movs	r0, #1
 137              	.LVL8:
 138              	.L2:
 243:../../../../../../Drivers/STM32L0xx_HAL_Driver/Src/stm32l0xx_hal_dma.c ****   }
 244:../../../../../../Drivers/STM32L0xx_HAL_Driver/Src/stm32l0xx_hal_dma.c **** #endif   
 245:../../../../../../Drivers/STM32L0xx_HAL_Driver/Src/stm32l0xx_hal_dma.c ****   /* Initialize the DMA state*/
 246:../../../../../../Drivers/STM32L0xx_HAL_Driver/Src/stm32l0xx_hal_dma.c ****   hdma->State  = HAL_DMA_STATE_READY;
 247:../../../../../../Drivers/STM32L0xx_HAL_Driver/Src/stm32l0xx_hal_dma.c ****   
 248:../../../../../../Drivers/STM32L0xx_HAL_Driver/Src/stm32l0xx_hal_dma.c ****   return HAL_OK;
 249:../../../../../../Drivers/STM32L0xx_HAL_Driver/Src/stm32l0xx_hal_dma.c **** }  
 139              		.loc 1 249 0
 140              		@ sp needed
 141 0084 10BD     		pop	{r4, pc}
 142              	.LVL9:
 143              	.L14:
 190:../../../../../../Drivers/STM32L0xx_HAL_Driver/Src/stm32l0xx_hal_dma.c ****     
 144              		.loc 1 190 0
ARM GAS  C:\Users\EBANO_~1\AppData\Local\Temp\cc4h82Al.s 			page 8


 145 0086 0F21     		movs	r1, #15
 146 0088 294B     		ldr	r3, .L20+32
 147 008a 1A68     		ldr	r2, [r3]
 148              	.LVL10:
 149 008c 8A43     		bics	r2, r1
 150 008e 1A60     		str	r2, [r3]
 151              	.LVL11:
 193:../../../../../../Drivers/STM32L0xx_HAL_Driver/Src/stm32l0xx_hal_dma.c ****   }
 152              		.loc 1 193 0
 153 0090 1A68     		ldr	r2, [r3]
 154 0092 4168     		ldr	r1, [r0, #4]
 155 0094 0A43     		orrs	r2, r1
 156 0096 1A60     		str	r2, [r3]
 157              	.L5:
 246:../../../../../../Drivers/STM32L0xx_HAL_Driver/Src/stm32l0xx_hal_dma.c ****   
 158              		.loc 1 246 0
 159 0098 2523     		movs	r3, #37
 160 009a 0122     		movs	r2, #1
 161 009c C254     		strb	r2, [r0, r3]
 248:../../../../../../Drivers/STM32L0xx_HAL_Driver/Src/stm32l0xx_hal_dma.c **** }  
 162              		.loc 1 248 0
 163 009e 0020     		movs	r0, #0
 164              	.LVL12:
 165 00a0 F0E7     		b	.L2
 166              	.LVL13:
 167              	.L15:
 198:../../../../../../Drivers/STM32L0xx_HAL_Driver/Src/stm32l0xx_hal_dma.c ****     
 168              		.loc 1 198 0
 169 00a2 F021     		movs	r1, #240
 170 00a4 224A     		ldr	r2, .L20+32
 171              	.LVL14:
 172 00a6 1368     		ldr	r3, [r2]
 173 00a8 8B43     		bics	r3, r1
 174 00aa 1360     		str	r3, [r2]
 175              	.LVL15:
 201:../../../../../../Drivers/STM32L0xx_HAL_Driver/Src/stm32l0xx_hal_dma.c ****   }
 176              		.loc 1 201 0
 177 00ac 4368     		ldr	r3, [r0, #4]
 178 00ae 1168     		ldr	r1, [r2]
 179 00b0 1B01     		lsls	r3, r3, #4
 180 00b2 0B43     		orrs	r3, r1
 181 00b4 1360     		str	r3, [r2]
 182 00b6 EFE7     		b	.L5
 183              	.LVL16:
 184              	.L17:
 214:../../../../../../Drivers/STM32L0xx_HAL_Driver/Src/stm32l0xx_hal_dma.c ****     
 185              		.loc 1 214 0
 186 00b8 1D4A     		ldr	r2, .L20+32
 187              	.LVL17:
 188 00ba 1F49     		ldr	r1, .L20+40
 189 00bc 1368     		ldr	r3, [r2]
 190 00be 0B40     		ands	r3, r1
 191 00c0 1360     		str	r3, [r2]
 192              	.LVL18:
 217:../../../../../../Drivers/STM32L0xx_HAL_Driver/Src/stm32l0xx_hal_dma.c ****   }
 193              		.loc 1 217 0
 194 00c2 4368     		ldr	r3, [r0, #4]
ARM GAS  C:\Users\EBANO_~1\AppData\Local\Temp\cc4h82Al.s 			page 9


 195 00c4 1168     		ldr	r1, [r2]
 196 00c6 1B03     		lsls	r3, r3, #12
 197 00c8 0B43     		orrs	r3, r1
 198 00ca 1360     		str	r3, [r2]
 199 00cc E4E7     		b	.L5
 200              	.LVL19:
 201              	.L16:
 206:../../../../../../Drivers/STM32L0xx_HAL_Driver/Src/stm32l0xx_hal_dma.c ****     
 202              		.loc 1 206 0
 203 00ce 184A     		ldr	r2, .L20+32
 204              	.LVL20:
 205 00d0 1A49     		ldr	r1, .L20+44
 206 00d2 1368     		ldr	r3, [r2]
 207 00d4 0B40     		ands	r3, r1
 208 00d6 1360     		str	r3, [r2]
 209              	.LVL21:
 209:../../../../../../Drivers/STM32L0xx_HAL_Driver/Src/stm32l0xx_hal_dma.c ****   }
 210              		.loc 1 209 0
 211 00d8 4368     		ldr	r3, [r0, #4]
 212 00da 1168     		ldr	r1, [r2]
 213 00dc 1B02     		lsls	r3, r3, #8
 214 00de 0B43     		orrs	r3, r1
 215 00e0 1360     		str	r3, [r2]
 216 00e2 D9E7     		b	.L5
 217              	.LVL22:
 218              	.L18:
 222:../../../../../../Drivers/STM32L0xx_HAL_Driver/Src/stm32l0xx_hal_dma.c ****     
 219              		.loc 1 222 0
 220 00e4 124A     		ldr	r2, .L20+32
 221              	.LVL23:
 222 00e6 1649     		ldr	r1, .L20+48
 223 00e8 1368     		ldr	r3, [r2]
 224 00ea 0B40     		ands	r3, r1
 225 00ec 1360     		str	r3, [r2]
 226              	.LVL24:
 225:../../../../../../Drivers/STM32L0xx_HAL_Driver/Src/stm32l0xx_hal_dma.c ****   }
 227              		.loc 1 225 0
 228 00ee 4368     		ldr	r3, [r0, #4]
 229 00f0 1168     		ldr	r1, [r2]
 230 00f2 1B04     		lsls	r3, r3, #16
 231 00f4 0B43     		orrs	r3, r1
 232 00f6 1360     		str	r3, [r2]
 233 00f8 CEE7     		b	.L5
 234              	.LVL25:
 235              	.L19:
 231:../../../../../../Drivers/STM32L0xx_HAL_Driver/Src/stm32l0xx_hal_dma.c ****     
 236              		.loc 1 231 0
 237 00fa 0D4A     		ldr	r2, .L20+32
 238              	.LVL26:
 239 00fc 1149     		ldr	r1, .L20+52
 240 00fe 1368     		ldr	r3, [r2]
 241 0100 0B40     		ands	r3, r1
 242 0102 1360     		str	r3, [r2]
 243              	.LVL27:
 234:../../../../../../Drivers/STM32L0xx_HAL_Driver/Src/stm32l0xx_hal_dma.c ****   }
 244              		.loc 1 234 0
 245 0104 4368     		ldr	r3, [r0, #4]
ARM GAS  C:\Users\EBANO_~1\AppData\Local\Temp\cc4h82Al.s 			page 10


 246 0106 1168     		ldr	r1, [r2]
 247 0108 1B05     		lsls	r3, r3, #20
 248 010a 0B43     		orrs	r3, r1
 249 010c 1360     		str	r3, [r2]
 250 010e C3E7     		b	.L5
 251              	.L21:
 252              		.align	2
 253              	.L20:
 254 0110 0FC0FFFF 		.word	-16369
 255 0114 08000240 		.word	1073872904
 256 0118 1C000240 		.word	1073872924
 257 011c 30000240 		.word	1073872944
 258 0120 44000240 		.word	1073872964
 259 0124 58000240 		.word	1073872984
 260 0128 6C000240 		.word	1073873004
 261 012c 80000240 		.word	1073873024
 262 0130 A8000240 		.word	1073873064
 263 0134 FFFFFFF0 		.word	-251658241
 264 0138 FF0FFFFF 		.word	-61441
 265 013c FFF0FFFF 		.word	-3841
 266 0140 FFFFF0FF 		.word	-983041
 267 0144 FFFF0FFF 		.word	-15728641
 268              		.cfi_endproc
 269              	.LFE39:
 270              		.size	HAL_DMA_Init, .-HAL_DMA_Init
 271              		.section	.text.HAL_DMA_DeInit,"ax",%progbits
 272              		.align	1
 273              		.p2align 2,,3
 274              		.global	HAL_DMA_DeInit
 275              		.syntax unified
 276              		.code	16
 277              		.thumb_func
 278              		.fpu softvfp
 279              		.type	HAL_DMA_DeInit, %function
 280              	HAL_DMA_DeInit:
 281              	.LFB40:
 250:../../../../../../Drivers/STM32L0xx_HAL_Driver/Src/stm32l0xx_hal_dma.c ****   
 251:../../../../../../Drivers/STM32L0xx_HAL_Driver/Src/stm32l0xx_hal_dma.c **** /**
 252:../../../../../../Drivers/STM32L0xx_HAL_Driver/Src/stm32l0xx_hal_dma.c ****   * @brief  DeInitializes the DMA peripheral 
 253:../../../../../../Drivers/STM32L0xx_HAL_Driver/Src/stm32l0xx_hal_dma.c ****   * @param  hdma pointer to a DMA_HandleTypeDef structure that contains
 254:../../../../../../Drivers/STM32L0xx_HAL_Driver/Src/stm32l0xx_hal_dma.c ****   *               the configuration information for the specified DMA Channel.  
 255:../../../../../../Drivers/STM32L0xx_HAL_Driver/Src/stm32l0xx_hal_dma.c ****   * @retval HAL status
 256:../../../../../../Drivers/STM32L0xx_HAL_Driver/Src/stm32l0xx_hal_dma.c ****   */
 257:../../../../../../Drivers/STM32L0xx_HAL_Driver/Src/stm32l0xx_hal_dma.c **** HAL_StatusTypeDef HAL_DMA_DeInit(DMA_HandleTypeDef *hdma)
 258:../../../../../../Drivers/STM32L0xx_HAL_Driver/Src/stm32l0xx_hal_dma.c **** {
 282              		.loc 1 258 0
 283              		.cfi_startproc
 284              		@ args = 0, pretend = 0, frame = 0
 285              		@ frame_needed = 0, uses_anonymous_args = 0
 286              		@ link register save eliminated.
 287              	.LVL28:
 259:../../../../../../Drivers/STM32L0xx_HAL_Driver/Src/stm32l0xx_hal_dma.c ****   /* Check the DMA peripheral state */
 260:../../../../../../Drivers/STM32L0xx_HAL_Driver/Src/stm32l0xx_hal_dma.c ****   if(hdma == NULL)
 288              		.loc 1 260 0
 289 0000 0028     		cmp	r0, #0
 290 0002 36D0     		beq	.L34
 261:../../../../../../Drivers/STM32L0xx_HAL_Driver/Src/stm32l0xx_hal_dma.c ****   {
ARM GAS  C:\Users\EBANO_~1\AppData\Local\Temp\cc4h82Al.s 			page 11


 262:../../../../../../Drivers/STM32L0xx_HAL_Driver/Src/stm32l0xx_hal_dma.c ****     return HAL_ERROR;
 263:../../../../../../Drivers/STM32L0xx_HAL_Driver/Src/stm32l0xx_hal_dma.c ****   }
 264:../../../../../../Drivers/STM32L0xx_HAL_Driver/Src/stm32l0xx_hal_dma.c ****   
 265:../../../../../../Drivers/STM32L0xx_HAL_Driver/Src/stm32l0xx_hal_dma.c ****   /* Check the DMA peripheral state */
 266:../../../../../../Drivers/STM32L0xx_HAL_Driver/Src/stm32l0xx_hal_dma.c ****   if(hdma->State == HAL_DMA_STATE_BUSY)
 291              		.loc 1 266 0
 292 0004 2523     		movs	r3, #37
 293 0006 C35C     		ldrb	r3, [r0, r3]
 294 0008 022B     		cmp	r3, #2
 295 000a 32D0     		beq	.L34
 267:../../../../../../Drivers/STM32L0xx_HAL_Driver/Src/stm32l0xx_hal_dma.c ****   {
 268:../../../../../../Drivers/STM32L0xx_HAL_Driver/Src/stm32l0xx_hal_dma.c ****     return HAL_ERROR;
 269:../../../../../../Drivers/STM32L0xx_HAL_Driver/Src/stm32l0xx_hal_dma.c ****   }
 270:../../../../../../Drivers/STM32L0xx_HAL_Driver/Src/stm32l0xx_hal_dma.c **** 
 271:../../../../../../Drivers/STM32L0xx_HAL_Driver/Src/stm32l0xx_hal_dma.c ****   /* Disable the selected DMA Channelx */
 272:../../../../../../Drivers/STM32L0xx_HAL_Driver/Src/stm32l0xx_hal_dma.c ****   __HAL_DMA_DISABLE(hdma);
 296              		.loc 1 272 0
 297 000c 0121     		movs	r1, #1
 298 000e 0368     		ldr	r3, [r0]
 299 0010 1A68     		ldr	r2, [r3]
 300 0012 8A43     		bics	r2, r1
 301 0014 1A60     		str	r2, [r3]
 273:../../../../../../Drivers/STM32L0xx_HAL_Driver/Src/stm32l0xx_hal_dma.c ****   
 274:../../../../../../Drivers/STM32L0xx_HAL_Driver/Src/stm32l0xx_hal_dma.c ****   /* Reset DMA Channel control register */
 275:../../../../../../Drivers/STM32L0xx_HAL_Driver/Src/stm32l0xx_hal_dma.c ****   hdma->Instance->CCR  = 0U;
 302              		.loc 1 275 0
 303 0016 0022     		movs	r2, #0
 304 0018 1A60     		str	r2, [r3]
 276:../../../../../../Drivers/STM32L0xx_HAL_Driver/Src/stm32l0xx_hal_dma.c ****   
 277:../../../../../../Drivers/STM32L0xx_HAL_Driver/Src/stm32l0xx_hal_dma.c ****   /* Reset DMA Channel Number of Data to Transfer register */
 278:../../../../../../Drivers/STM32L0xx_HAL_Driver/Src/stm32l0xx_hal_dma.c ****   hdma->Instance->CNDTR = 0U;
 305              		.loc 1 278 0
 306 001a 5A60     		str	r2, [r3, #4]
 279:../../../../../../Drivers/STM32L0xx_HAL_Driver/Src/stm32l0xx_hal_dma.c ****   
 280:../../../../../../Drivers/STM32L0xx_HAL_Driver/Src/stm32l0xx_hal_dma.c ****   /* Reset DMA Channel peripheral address register */
 281:../../../../../../Drivers/STM32L0xx_HAL_Driver/Src/stm32l0xx_hal_dma.c ****   hdma->Instance->CPAR  = 0U;
 307              		.loc 1 281 0
 308 001c 9A60     		str	r2, [r3, #8]
 282:../../../../../../Drivers/STM32L0xx_HAL_Driver/Src/stm32l0xx_hal_dma.c ****   
 283:../../../../../../Drivers/STM32L0xx_HAL_Driver/Src/stm32l0xx_hal_dma.c ****   /* Reset DMA Channel memory address register */
 284:../../../../../../Drivers/STM32L0xx_HAL_Driver/Src/stm32l0xx_hal_dma.c ****   hdma->Instance->CMAR = 0U;
 309              		.loc 1 284 0
 310 001e DA60     		str	r2, [r3, #12]
 285:../../../../../../Drivers/STM32L0xx_HAL_Driver/Src/stm32l0xx_hal_dma.c **** 
 286:../../../../../../Drivers/STM32L0xx_HAL_Driver/Src/stm32l0xx_hal_dma.c ****   /* Clear all flags */
 287:../../../../../../Drivers/STM32L0xx_HAL_Driver/Src/stm32l0xx_hal_dma.c ****   __HAL_DMA_CLEAR_FLAG(hdma, __HAL_DMA_GET_GI_FLAG_INDEX(hdma));
 311              		.loc 1 287 0
 312 0020 4C4A     		ldr	r2, .L38
 313 0022 9342     		cmp	r3, r2
 314 0024 27D0     		beq	.L24
 315              		.loc 1 287 0 is_stmt 0 discriminator 1
 316 0026 4C4A     		ldr	r2, .L38+4
 317 0028 9342     		cmp	r3, r2
 318 002a 4BD0     		beq	.L25
 319              		.loc 1 287 0 discriminator 3
 320 002c 4B4A     		ldr	r2, .L38+8
 321 002e 9342     		cmp	r3, r2
ARM GAS  C:\Users\EBANO_~1\AppData\Local\Temp\cc4h82Al.s 			page 12


 322 0030 36D0     		beq	.L26
 323              		.loc 1 287 0 discriminator 5
 324 0032 4B4A     		ldr	r2, .L38+12
 325 0034 9342     		cmp	r3, r2
 326 0036 54D0     		beq	.L27
 327              		.loc 1 287 0 discriminator 7
 328 0038 4A4A     		ldr	r2, .L38+16
 329 003a 9342     		cmp	r3, r2
 330 003c 64D0     		beq	.L28
 331              		.loc 1 287 0 discriminator 9
 332 003e 4A4A     		ldr	r2, .L38+20
 333 0040 9342     		cmp	r3, r2
 334 0042 00D1     		bne	.LCB292
 335 0044 73E0     		b	.L37	@long jump
 336              	.LCB292:
 337              		.loc 1 287 0
 338 0046 8021     		movs	r1, #128
 339 0048 484A     		ldr	r2, .L38+24
 340 004a 4904     		lsls	r1, r1, #17
 341 004c 5160     		str	r1, [r2, #4]
 288:../../../../../../Drivers/STM32L0xx_HAL_Driver/Src/stm32l0xx_hal_dma.c ****   __HAL_DMA_CLEAR_FLAG(hdma, __HAL_DMA_GET_TC_FLAG_INDEX(hdma));
 342              		.loc 1 288 0 is_stmt 1
 343 004e 8021     		movs	r1, #128
 344 0050 8904     		lsls	r1, r1, #18
 345 0052 5160     		str	r1, [r2, #4]
 289:../../../../../../Drivers/STM32L0xx_HAL_Driver/Src/stm32l0xx_hal_dma.c ****   __HAL_DMA_CLEAR_FLAG(hdma, __HAL_DMA_GET_TE_FLAG_INDEX(hdma));
 346              		.loc 1 289 0
 347 0054 8021     		movs	r1, #128
 348 0056 0905     		lsls	r1, r1, #20
 349 0058 5160     		str	r1, [r2, #4]
 290:../../../../../../Drivers/STM32L0xx_HAL_Driver/Src/stm32l0xx_hal_dma.c ****   __HAL_DMA_CLEAR_FLAG(hdma, __HAL_DMA_GET_HT_FLAG_INDEX(hdma));
 350              		.loc 1 290 0
 351 005a 8021     		movs	r1, #128
 352 005c C904     		lsls	r1, r1, #19
 353 005e 5160     		str	r1, [r2, #4]
 291:../../../../../../Drivers/STM32L0xx_HAL_Driver/Src/stm32l0xx_hal_dma.c ****   
 292:../../../../../../Drivers/STM32L0xx_HAL_Driver/Src/stm32l0xx_hal_dma.c ****   /* Reset DMA channel selection register */
 293:../../../../../../Drivers/STM32L0xx_HAL_Driver/Src/stm32l0xx_hal_dma.c ****   if (hdma->Instance == DMA1_Channel1)
 294:../../../../../../Drivers/STM32L0xx_HAL_Driver/Src/stm32l0xx_hal_dma.c ****   {
 295:../../../../../../Drivers/STM32L0xx_HAL_Driver/Src/stm32l0xx_hal_dma.c ****     /*Reset DMA request*/
 296:../../../../../../Drivers/STM32L0xx_HAL_Driver/Src/stm32l0xx_hal_dma.c ****     DMA1_CSELR->CSELR &= ~DMA_CSELR_C1S;
 297:../../../../../../Drivers/STM32L0xx_HAL_Driver/Src/stm32l0xx_hal_dma.c ****   }
 298:../../../../../../Drivers/STM32L0xx_HAL_Driver/Src/stm32l0xx_hal_dma.c ****   else if (hdma->Instance == DMA1_Channel2)
 299:../../../../../../Drivers/STM32L0xx_HAL_Driver/Src/stm32l0xx_hal_dma.c ****   {
 300:../../../../../../Drivers/STM32L0xx_HAL_Driver/Src/stm32l0xx_hal_dma.c ****     /*Reset DMA request*/
 301:../../../../../../Drivers/STM32L0xx_HAL_Driver/Src/stm32l0xx_hal_dma.c ****     DMA1_CSELR->CSELR &= ~DMA_CSELR_C2S;
 302:../../../../../../Drivers/STM32L0xx_HAL_Driver/Src/stm32l0xx_hal_dma.c ****   }
 303:../../../../../../Drivers/STM32L0xx_HAL_Driver/Src/stm32l0xx_hal_dma.c ****   else if (hdma->Instance == DMA1_Channel3)
 304:../../../../../../Drivers/STM32L0xx_HAL_Driver/Src/stm32l0xx_hal_dma.c ****   {
 305:../../../../../../Drivers/STM32L0xx_HAL_Driver/Src/stm32l0xx_hal_dma.c ****     /*Reset DMA request*/
 306:../../../../../../Drivers/STM32L0xx_HAL_Driver/Src/stm32l0xx_hal_dma.c ****     DMA1_CSELR->CSELR &= ~DMA_CSELR_C3S;
 307:../../../../../../Drivers/STM32L0xx_HAL_Driver/Src/stm32l0xx_hal_dma.c ****   }
 308:../../../../../../Drivers/STM32L0xx_HAL_Driver/Src/stm32l0xx_hal_dma.c ****   else if (hdma->Instance == DMA1_Channel4)
 309:../../../../../../Drivers/STM32L0xx_HAL_Driver/Src/stm32l0xx_hal_dma.c ****   {
 310:../../../../../../Drivers/STM32L0xx_HAL_Driver/Src/stm32l0xx_hal_dma.c ****     /*Reset DMA request*/
 311:../../../../../../Drivers/STM32L0xx_HAL_Driver/Src/stm32l0xx_hal_dma.c ****     DMA1_CSELR->CSELR &= ~DMA_CSELR_C4S;
 312:../../../../../../Drivers/STM32L0xx_HAL_Driver/Src/stm32l0xx_hal_dma.c ****   }
ARM GAS  C:\Users\EBANO_~1\AppData\Local\Temp\cc4h82Al.s 			page 13


 313:../../../../../../Drivers/STM32L0xx_HAL_Driver/Src/stm32l0xx_hal_dma.c ****   else if (hdma->Instance == DMA1_Channel5)
 314:../../../../../../Drivers/STM32L0xx_HAL_Driver/Src/stm32l0xx_hal_dma.c ****   {
 315:../../../../../../Drivers/STM32L0xx_HAL_Driver/Src/stm32l0xx_hal_dma.c ****     /*Reset DMA request*/
 316:../../../../../../Drivers/STM32L0xx_HAL_Driver/Src/stm32l0xx_hal_dma.c ****     DMA1_CSELR->CSELR &= ~DMA_CSELR_C5S;
 317:../../../../../../Drivers/STM32L0xx_HAL_Driver/Src/stm32l0xx_hal_dma.c ****   }
 318:../../../../../../Drivers/STM32L0xx_HAL_Driver/Src/stm32l0xx_hal_dma.c **** #if !defined (STM32L010x4) && !defined (STM32L011xx) && !defined (STM32L021xx)
 319:../../../../../../Drivers/STM32L0xx_HAL_Driver/Src/stm32l0xx_hal_dma.c ****   else if (hdma->Instance == DMA1_Channel6)
 320:../../../../../../Drivers/STM32L0xx_HAL_Driver/Src/stm32l0xx_hal_dma.c ****   {
 321:../../../../../../Drivers/STM32L0xx_HAL_Driver/Src/stm32l0xx_hal_dma.c ****     /*Reset DMA request*/
 322:../../../../../../Drivers/STM32L0xx_HAL_Driver/Src/stm32l0xx_hal_dma.c ****     DMA1_CSELR->CSELR &= ~DMA_CSELR_C6S;
 323:../../../../../../Drivers/STM32L0xx_HAL_Driver/Src/stm32l0xx_hal_dma.c ****   }
 324:../../../../../../Drivers/STM32L0xx_HAL_Driver/Src/stm32l0xx_hal_dma.c ****   else if (hdma->Instance == DMA1_Channel7)
 354              		.loc 1 324 0
 355 0060 434A     		ldr	r2, .L38+28
 356 0062 9342     		cmp	r3, r2
 357 0064 14D1     		bne	.L31
 325:../../../../../../Drivers/STM32L0xx_HAL_Driver/Src/stm32l0xx_hal_dma.c ****   {
 326:../../../../../../Drivers/STM32L0xx_HAL_Driver/Src/stm32l0xx_hal_dma.c ****     /*Reset DMA request*/
 327:../../../../../../Drivers/STM32L0xx_HAL_Driver/Src/stm32l0xx_hal_dma.c ****     DMA1_CSELR->CSELR &= ~DMA_CSELR_C7S;
 358              		.loc 1 327 0
 359 0066 434A     		ldr	r2, .L38+32
 360 0068 4349     		ldr	r1, .L38+36
 361 006a 1368     		ldr	r3, [r2]
 362 006c 0B40     		ands	r3, r1
 363 006e 1360     		str	r3, [r2]
 364 0070 0EE0     		b	.L31
 365              	.L34:
 262:../../../../../../Drivers/STM32L0xx_HAL_Driver/Src/stm32l0xx_hal_dma.c ****   }
 366              		.loc 1 262 0
 367 0072 0120     		movs	r0, #1
 368              	.LVL29:
 369              	.L36:
 328:../../../../../../Drivers/STM32L0xx_HAL_Driver/Src/stm32l0xx_hal_dma.c ****   }
 329:../../../../../../Drivers/STM32L0xx_HAL_Driver/Src/stm32l0xx_hal_dma.c **** #endif  
 330:../../../../../../Drivers/STM32L0xx_HAL_Driver/Src/stm32l0xx_hal_dma.c ****   /* Initialise the error code */
 331:../../../../../../Drivers/STM32L0xx_HAL_Driver/Src/stm32l0xx_hal_dma.c ****   hdma->ErrorCode = HAL_DMA_ERROR_NONE;
 332:../../../../../../Drivers/STM32L0xx_HAL_Driver/Src/stm32l0xx_hal_dma.c **** 
 333:../../../../../../Drivers/STM32L0xx_HAL_Driver/Src/stm32l0xx_hal_dma.c ****   /* Initialize the DMA state */
 334:../../../../../../Drivers/STM32L0xx_HAL_Driver/Src/stm32l0xx_hal_dma.c ****   hdma->State = HAL_DMA_STATE_RESET;
 335:../../../../../../Drivers/STM32L0xx_HAL_Driver/Src/stm32l0xx_hal_dma.c ****   
 336:../../../../../../Drivers/STM32L0xx_HAL_Driver/Src/stm32l0xx_hal_dma.c ****   /* Release Lock */
 337:../../../../../../Drivers/STM32L0xx_HAL_Driver/Src/stm32l0xx_hal_dma.c ****   __HAL_UNLOCK(hdma);
 338:../../../../../../Drivers/STM32L0xx_HAL_Driver/Src/stm32l0xx_hal_dma.c **** 
 339:../../../../../../Drivers/STM32L0xx_HAL_Driver/Src/stm32l0xx_hal_dma.c ****   return HAL_OK;
 340:../../../../../../Drivers/STM32L0xx_HAL_Driver/Src/stm32l0xx_hal_dma.c **** }
 370              		.loc 1 340 0
 371              		@ sp needed
 372 0074 7047     		bx	lr
 373              	.LVL30:
 374              	.L24:
 288:../../../../../../Drivers/STM32L0xx_HAL_Driver/Src/stm32l0xx_hal_dma.c ****   __HAL_DMA_CLEAR_FLAG(hdma, __HAL_DMA_GET_TE_FLAG_INDEX(hdma));
 375              		.loc 1 288 0
 376 0076 0222     		movs	r2, #2
 287:../../../../../../Drivers/STM32L0xx_HAL_Driver/Src/stm32l0xx_hal_dma.c ****   __HAL_DMA_CLEAR_FLAG(hdma, __HAL_DMA_GET_TC_FLAG_INDEX(hdma));
 377              		.loc 1 287 0
 378 0078 3C4B     		ldr	r3, .L38+24
 379 007a 5960     		str	r1, [r3, #4]
ARM GAS  C:\Users\EBANO_~1\AppData\Local\Temp\cc4h82Al.s 			page 14


 296:../../../../../../Drivers/STM32L0xx_HAL_Driver/Src/stm32l0xx_hal_dma.c ****   }
 380              		.loc 1 296 0
 381 007c 0F21     		movs	r1, #15
 288:../../../../../../Drivers/STM32L0xx_HAL_Driver/Src/stm32l0xx_hal_dma.c ****   __HAL_DMA_CLEAR_FLAG(hdma, __HAL_DMA_GET_TE_FLAG_INDEX(hdma));
 382              		.loc 1 288 0
 383 007e 5A60     		str	r2, [r3, #4]
 289:../../../../../../Drivers/STM32L0xx_HAL_Driver/Src/stm32l0xx_hal_dma.c ****   __HAL_DMA_CLEAR_FLAG(hdma, __HAL_DMA_GET_HT_FLAG_INDEX(hdma));
 384              		.loc 1 289 0
 385 0080 0632     		adds	r2, r2, #6
 386 0082 5A60     		str	r2, [r3, #4]
 290:../../../../../../Drivers/STM32L0xx_HAL_Driver/Src/stm32l0xx_hal_dma.c ****   
 387              		.loc 1 290 0
 388 0084 043A     		subs	r2, r2, #4
 389 0086 5A60     		str	r2, [r3, #4]
 296:../../../../../../Drivers/STM32L0xx_HAL_Driver/Src/stm32l0xx_hal_dma.c ****   }
 390              		.loc 1 296 0
 391 0088 3A4A     		ldr	r2, .L38+32
 392 008a 1368     		ldr	r3, [r2]
 393 008c 8B43     		bics	r3, r1
 394 008e 1360     		str	r3, [r2]
 395              	.L31:
 331:../../../../../../Drivers/STM32L0xx_HAL_Driver/Src/stm32l0xx_hal_dma.c **** 
 396              		.loc 1 331 0
 397 0090 0023     		movs	r3, #0
 334:../../../../../../Drivers/STM32L0xx_HAL_Driver/Src/stm32l0xx_hal_dma.c ****   
 398              		.loc 1 334 0
 399 0092 2522     		movs	r2, #37
 331:../../../../../../Drivers/STM32L0xx_HAL_Driver/Src/stm32l0xx_hal_dma.c **** 
 400              		.loc 1 331 0
 401 0094 C363     		str	r3, [r0, #60]
 334:../../../../../../Drivers/STM32L0xx_HAL_Driver/Src/stm32l0xx_hal_dma.c ****   
 402              		.loc 1 334 0
 403 0096 8354     		strb	r3, [r0, r2]
 337:../../../../../../Drivers/STM32L0xx_HAL_Driver/Src/stm32l0xx_hal_dma.c **** 
 404              		.loc 1 337 0
 405 0098 013A     		subs	r2, r2, #1
 406 009a 8354     		strb	r3, [r0, r2]
 339:../../../../../../Drivers/STM32L0xx_HAL_Driver/Src/stm32l0xx_hal_dma.c **** }
 407              		.loc 1 339 0
 408 009c 0020     		movs	r0, #0
 409              	.LVL31:
 410 009e E9E7     		b	.L36
 411              	.LVL32:
 412              	.L26:
 287:../../../../../../Drivers/STM32L0xx_HAL_Driver/Src/stm32l0xx_hal_dma.c ****   __HAL_DMA_CLEAR_FLAG(hdma, __HAL_DMA_GET_TC_FLAG_INDEX(hdma));
 413              		.loc 1 287 0
 414 00a0 8022     		movs	r2, #128
 415 00a2 324B     		ldr	r3, .L38+24
 416 00a4 5200     		lsls	r2, r2, #1
 417 00a6 5A60     		str	r2, [r3, #4]
 288:../../../../../../Drivers/STM32L0xx_HAL_Driver/Src/stm32l0xx_hal_dma.c ****   __HAL_DMA_CLEAR_FLAG(hdma, __HAL_DMA_GET_TE_FLAG_INDEX(hdma));
 418              		.loc 1 288 0
 419 00a8 9218     		adds	r2, r2, r2
 420 00aa 5A60     		str	r2, [r3, #4]
 289:../../../../../../Drivers/STM32L0xx_HAL_Driver/Src/stm32l0xx_hal_dma.c ****   __HAL_DMA_CLEAR_FLAG(hdma, __HAL_DMA_GET_HT_FLAG_INDEX(hdma));
 421              		.loc 1 289 0
 422 00ac 8022     		movs	r2, #128
ARM GAS  C:\Users\EBANO_~1\AppData\Local\Temp\cc4h82Al.s 			page 15


 423 00ae 1201     		lsls	r2, r2, #4
 424 00b0 5A60     		str	r2, [r3, #4]
 290:../../../../../../Drivers/STM32L0xx_HAL_Driver/Src/stm32l0xx_hal_dma.c ****   
 425              		.loc 1 290 0
 426 00b2 8022     		movs	r2, #128
 427 00b4 D200     		lsls	r2, r2, #3
 428 00b6 5A60     		str	r2, [r3, #4]
 306:../../../../../../Drivers/STM32L0xx_HAL_Driver/Src/stm32l0xx_hal_dma.c ****   }
 429              		.loc 1 306 0
 430 00b8 2E4A     		ldr	r2, .L38+32
 431 00ba 3049     		ldr	r1, .L38+40
 432 00bc 1368     		ldr	r3, [r2]
 433 00be 0B40     		ands	r3, r1
 434 00c0 1360     		str	r3, [r2]
 435 00c2 E5E7     		b	.L31
 436              	.L25:
 287:../../../../../../Drivers/STM32L0xx_HAL_Driver/Src/stm32l0xx_hal_dma.c ****   __HAL_DMA_CLEAR_FLAG(hdma, __HAL_DMA_GET_TC_FLAG_INDEX(hdma));
 437              		.loc 1 287 0
 438 00c4 1022     		movs	r2, #16
 301:../../../../../../Drivers/STM32L0xx_HAL_Driver/Src/stm32l0xx_hal_dma.c ****   }
 439              		.loc 1 301 0
 440 00c6 F021     		movs	r1, #240
 287:../../../../../../Drivers/STM32L0xx_HAL_Driver/Src/stm32l0xx_hal_dma.c ****   __HAL_DMA_CLEAR_FLAG(hdma, __HAL_DMA_GET_TC_FLAG_INDEX(hdma));
 441              		.loc 1 287 0
 442 00c8 284B     		ldr	r3, .L38+24
 443 00ca 5A60     		str	r2, [r3, #4]
 288:../../../../../../Drivers/STM32L0xx_HAL_Driver/Src/stm32l0xx_hal_dma.c ****   __HAL_DMA_CLEAR_FLAG(hdma, __HAL_DMA_GET_TE_FLAG_INDEX(hdma));
 444              		.loc 1 288 0
 445 00cc 1032     		adds	r2, r2, #16
 446 00ce 5A60     		str	r2, [r3, #4]
 289:../../../../../../Drivers/STM32L0xx_HAL_Driver/Src/stm32l0xx_hal_dma.c ****   __HAL_DMA_CLEAR_FLAG(hdma, __HAL_DMA_GET_HT_FLAG_INDEX(hdma));
 447              		.loc 1 289 0
 448 00d0 6032     		adds	r2, r2, #96
 449 00d2 5A60     		str	r2, [r3, #4]
 290:../../../../../../Drivers/STM32L0xx_HAL_Driver/Src/stm32l0xx_hal_dma.c ****   
 450              		.loc 1 290 0
 451 00d4 403A     		subs	r2, r2, #64
 452 00d6 5A60     		str	r2, [r3, #4]
 301:../../../../../../Drivers/STM32L0xx_HAL_Driver/Src/stm32l0xx_hal_dma.c ****   }
 453              		.loc 1 301 0
 454 00d8 264A     		ldr	r2, .L38+32
 455 00da 1368     		ldr	r3, [r2]
 456 00dc 8B43     		bics	r3, r1
 457 00de 1360     		str	r3, [r2]
 458 00e0 D6E7     		b	.L31
 459              	.L27:
 287:../../../../../../Drivers/STM32L0xx_HAL_Driver/Src/stm32l0xx_hal_dma.c ****   __HAL_DMA_CLEAR_FLAG(hdma, __HAL_DMA_GET_TC_FLAG_INDEX(hdma));
 460              		.loc 1 287 0
 461 00e2 8022     		movs	r2, #128
 462 00e4 214B     		ldr	r3, .L38+24
 463 00e6 5201     		lsls	r2, r2, #5
 464 00e8 5A60     		str	r2, [r3, #4]
 288:../../../../../../Drivers/STM32L0xx_HAL_Driver/Src/stm32l0xx_hal_dma.c ****   __HAL_DMA_CLEAR_FLAG(hdma, __HAL_DMA_GET_TE_FLAG_INDEX(hdma));
 465              		.loc 1 288 0
 466 00ea 8022     		movs	r2, #128
 467 00ec 9201     		lsls	r2, r2, #6
 468 00ee 5A60     		str	r2, [r3, #4]
ARM GAS  C:\Users\EBANO_~1\AppData\Local\Temp\cc4h82Al.s 			page 16


 289:../../../../../../Drivers/STM32L0xx_HAL_Driver/Src/stm32l0xx_hal_dma.c ****   __HAL_DMA_CLEAR_FLAG(hdma, __HAL_DMA_GET_HT_FLAG_INDEX(hdma));
 469              		.loc 1 289 0
 470 00f0 8022     		movs	r2, #128
 471 00f2 1202     		lsls	r2, r2, #8
 472 00f4 5A60     		str	r2, [r3, #4]
 290:../../../../../../Drivers/STM32L0xx_HAL_Driver/Src/stm32l0xx_hal_dma.c ****   
 473              		.loc 1 290 0
 474 00f6 8022     		movs	r2, #128
 475 00f8 D201     		lsls	r2, r2, #7
 476 00fa 5A60     		str	r2, [r3, #4]
 311:../../../../../../Drivers/STM32L0xx_HAL_Driver/Src/stm32l0xx_hal_dma.c ****   }
 477              		.loc 1 311 0
 478 00fc 1D4A     		ldr	r2, .L38+32
 479 00fe 2049     		ldr	r1, .L38+44
 480 0100 1368     		ldr	r3, [r2]
 481 0102 0B40     		ands	r3, r1
 482 0104 1360     		str	r3, [r2]
 483 0106 C3E7     		b	.L31
 484              	.L28:
 287:../../../../../../Drivers/STM32L0xx_HAL_Driver/Src/stm32l0xx_hal_dma.c ****   __HAL_DMA_CLEAR_FLAG(hdma, __HAL_DMA_GET_TC_FLAG_INDEX(hdma));
 485              		.loc 1 287 0
 486 0108 8022     		movs	r2, #128
 487 010a 184B     		ldr	r3, .L38+24
 488 010c 5202     		lsls	r2, r2, #9
 489 010e 5A60     		str	r2, [r3, #4]
 288:../../../../../../Drivers/STM32L0xx_HAL_Driver/Src/stm32l0xx_hal_dma.c ****   __HAL_DMA_CLEAR_FLAG(hdma, __HAL_DMA_GET_TE_FLAG_INDEX(hdma));
 490              		.loc 1 288 0
 491 0110 8022     		movs	r2, #128
 492 0112 9202     		lsls	r2, r2, #10
 493 0114 5A60     		str	r2, [r3, #4]
 289:../../../../../../Drivers/STM32L0xx_HAL_Driver/Src/stm32l0xx_hal_dma.c ****   __HAL_DMA_CLEAR_FLAG(hdma, __HAL_DMA_GET_HT_FLAG_INDEX(hdma));
 494              		.loc 1 289 0
 495 0116 8022     		movs	r2, #128
 496 0118 1203     		lsls	r2, r2, #12
 497 011a 5A60     		str	r2, [r3, #4]
 290:../../../../../../Drivers/STM32L0xx_HAL_Driver/Src/stm32l0xx_hal_dma.c ****   
 498              		.loc 1 290 0
 499 011c 8022     		movs	r2, #128
 500 011e D202     		lsls	r2, r2, #11
 501 0120 5A60     		str	r2, [r3, #4]
 316:../../../../../../Drivers/STM32L0xx_HAL_Driver/Src/stm32l0xx_hal_dma.c ****   }
 502              		.loc 1 316 0
 503 0122 144A     		ldr	r2, .L38+32
 504 0124 1749     		ldr	r1, .L38+48
 505 0126 1368     		ldr	r3, [r2]
 506 0128 0B40     		ands	r3, r1
 507 012a 1360     		str	r3, [r2]
 508 012c B0E7     		b	.L31
 509              	.L37:
 287:../../../../../../Drivers/STM32L0xx_HAL_Driver/Src/stm32l0xx_hal_dma.c ****   __HAL_DMA_CLEAR_FLAG(hdma, __HAL_DMA_GET_TC_FLAG_INDEX(hdma));
 510              		.loc 1 287 0
 511 012e 8022     		movs	r2, #128
 512 0130 0E4B     		ldr	r3, .L38+24
 513 0132 5203     		lsls	r2, r2, #13
 514 0134 5A60     		str	r2, [r3, #4]
 288:../../../../../../Drivers/STM32L0xx_HAL_Driver/Src/stm32l0xx_hal_dma.c ****   __HAL_DMA_CLEAR_FLAG(hdma, __HAL_DMA_GET_TE_FLAG_INDEX(hdma));
 515              		.loc 1 288 0
ARM GAS  C:\Users\EBANO_~1\AppData\Local\Temp\cc4h82Al.s 			page 17


 516 0136 8022     		movs	r2, #128
 517 0138 9203     		lsls	r2, r2, #14
 518 013a 5A60     		str	r2, [r3, #4]
 289:../../../../../../Drivers/STM32L0xx_HAL_Driver/Src/stm32l0xx_hal_dma.c ****   __HAL_DMA_CLEAR_FLAG(hdma, __HAL_DMA_GET_HT_FLAG_INDEX(hdma));
 519              		.loc 1 289 0
 520 013c 8022     		movs	r2, #128
 521 013e 1204     		lsls	r2, r2, #16
 522 0140 5A60     		str	r2, [r3, #4]
 290:../../../../../../Drivers/STM32L0xx_HAL_Driver/Src/stm32l0xx_hal_dma.c ****   
 523              		.loc 1 290 0
 524 0142 8022     		movs	r2, #128
 525 0144 D203     		lsls	r2, r2, #15
 526 0146 5A60     		str	r2, [r3, #4]
 322:../../../../../../Drivers/STM32L0xx_HAL_Driver/Src/stm32l0xx_hal_dma.c ****   }
 527              		.loc 1 322 0
 528 0148 0A4A     		ldr	r2, .L38+32
 529 014a 0F49     		ldr	r1, .L38+52
 530 014c 1368     		ldr	r3, [r2]
 531 014e 0B40     		ands	r3, r1
 532 0150 1360     		str	r3, [r2]
 533 0152 9DE7     		b	.L31
 534              	.L39:
 535              		.align	2
 536              	.L38:
 537 0154 08000240 		.word	1073872904
 538 0158 1C000240 		.word	1073872924
 539 015c 30000240 		.word	1073872944
 540 0160 44000240 		.word	1073872964
 541 0164 58000240 		.word	1073872984
 542 0168 6C000240 		.word	1073873004
 543 016c 00000240 		.word	1073872896
 544 0170 80000240 		.word	1073873024
 545 0174 A8000240 		.word	1073873064
 546 0178 FFFFFFF0 		.word	-251658241
 547 017c FFF0FFFF 		.word	-3841
 548 0180 FF0FFFFF 		.word	-61441
 549 0184 FFFFF0FF 		.word	-983041
 550 0188 FFFF0FFF 		.word	-15728641
 551              		.cfi_endproc
 552              	.LFE40:
 553              		.size	HAL_DMA_DeInit, .-HAL_DMA_DeInit
 554              		.section	.text.HAL_DMA_Start,"ax",%progbits
 555              		.align	1
 556              		.p2align 2,,3
 557              		.global	HAL_DMA_Start
 558              		.syntax unified
 559              		.code	16
 560              		.thumb_func
 561              		.fpu softvfp
 562              		.type	HAL_DMA_Start, %function
 563              	HAL_DMA_Start:
 564              	.LFB41:
 341:../../../../../../Drivers/STM32L0xx_HAL_Driver/Src/stm32l0xx_hal_dma.c **** 
 342:../../../../../../Drivers/STM32L0xx_HAL_Driver/Src/stm32l0xx_hal_dma.c **** /**
 343:../../../../../../Drivers/STM32L0xx_HAL_Driver/Src/stm32l0xx_hal_dma.c ****   * @}
 344:../../../../../../Drivers/STM32L0xx_HAL_Driver/Src/stm32l0xx_hal_dma.c ****   */
 345:../../../../../../Drivers/STM32L0xx_HAL_Driver/Src/stm32l0xx_hal_dma.c **** 
ARM GAS  C:\Users\EBANO_~1\AppData\Local\Temp\cc4h82Al.s 			page 18


 346:../../../../../../Drivers/STM32L0xx_HAL_Driver/Src/stm32l0xx_hal_dma.c **** /** @addtogroup DMA_Exported_Functions_Group2  
 347:../../../../../../Drivers/STM32L0xx_HAL_Driver/Src/stm32l0xx_hal_dma.c ****  *  @brief   I/O operation functions  
 348:../../../../../../Drivers/STM32L0xx_HAL_Driver/Src/stm32l0xx_hal_dma.c ****  *
 349:../../../../../../Drivers/STM32L0xx_HAL_Driver/Src/stm32l0xx_hal_dma.c **** @verbatim   
 350:../../../../../../Drivers/STM32L0xx_HAL_Driver/Src/stm32l0xx_hal_dma.c ****  ===============================================================================
 351:../../../../../../Drivers/STM32L0xx_HAL_Driver/Src/stm32l0xx_hal_dma.c ****                       #####  IO operation functions  #####
 352:../../../../../../Drivers/STM32L0xx_HAL_Driver/Src/stm32l0xx_hal_dma.c ****  ===============================================================================  
 353:../../../../../../Drivers/STM32L0xx_HAL_Driver/Src/stm32l0xx_hal_dma.c ****     [..]  This section provides functions allowing to:
 354:../../../../../../Drivers/STM32L0xx_HAL_Driver/Src/stm32l0xx_hal_dma.c ****       (+) Configure the source, destination address and data length and Start DMA transfer
 355:../../../../../../Drivers/STM32L0xx_HAL_Driver/Src/stm32l0xx_hal_dma.c ****       (+) Configure the source, destination address and data length and 
 356:../../../../../../Drivers/STM32L0xx_HAL_Driver/Src/stm32l0xx_hal_dma.c ****           Start DMA transfer with interrupt
 357:../../../../../../Drivers/STM32L0xx_HAL_Driver/Src/stm32l0xx_hal_dma.c ****       (+) Abort DMA transfer
 358:../../../../../../Drivers/STM32L0xx_HAL_Driver/Src/stm32l0xx_hal_dma.c ****       (+) Poll for transfer complete
 359:../../../../../../Drivers/STM32L0xx_HAL_Driver/Src/stm32l0xx_hal_dma.c ****       (+) Handle DMA interrupt request  
 360:../../../../../../Drivers/STM32L0xx_HAL_Driver/Src/stm32l0xx_hal_dma.c **** 
 361:../../../../../../Drivers/STM32L0xx_HAL_Driver/Src/stm32l0xx_hal_dma.c **** @endverbatim
 362:../../../../../../Drivers/STM32L0xx_HAL_Driver/Src/stm32l0xx_hal_dma.c ****   * @{
 363:../../../../../../Drivers/STM32L0xx_HAL_Driver/Src/stm32l0xx_hal_dma.c ****   */
 364:../../../../../../Drivers/STM32L0xx_HAL_Driver/Src/stm32l0xx_hal_dma.c **** 
 365:../../../../../../Drivers/STM32L0xx_HAL_Driver/Src/stm32l0xx_hal_dma.c **** /**
 366:../../../../../../Drivers/STM32L0xx_HAL_Driver/Src/stm32l0xx_hal_dma.c ****   * @brief  Starts the DMA Transfer.
 367:../../../../../../Drivers/STM32L0xx_HAL_Driver/Src/stm32l0xx_hal_dma.c ****   * @param  hdma       pointer to a DMA_HandleTypeDef structure that contains
 368:../../../../../../Drivers/STM32L0xx_HAL_Driver/Src/stm32l0xx_hal_dma.c ****   *                     the configuration information for the specified DMA Channel.  
 369:../../../../../../Drivers/STM32L0xx_HAL_Driver/Src/stm32l0xx_hal_dma.c ****   * @param  SrcAddress The source memory Buffer address
 370:../../../../../../Drivers/STM32L0xx_HAL_Driver/Src/stm32l0xx_hal_dma.c ****   * @param  DstAddress The destination memory Buffer address
 371:../../../../../../Drivers/STM32L0xx_HAL_Driver/Src/stm32l0xx_hal_dma.c ****   * @param  DataLength The length of data to be transferred from source to destination
 372:../../../../../../Drivers/STM32L0xx_HAL_Driver/Src/stm32l0xx_hal_dma.c ****   * @retval HAL status
 373:../../../../../../Drivers/STM32L0xx_HAL_Driver/Src/stm32l0xx_hal_dma.c ****   */
 374:../../../../../../Drivers/STM32L0xx_HAL_Driver/Src/stm32l0xx_hal_dma.c **** HAL_StatusTypeDef HAL_DMA_Start(DMA_HandleTypeDef *hdma, uint32_t SrcAddress, uint32_t DstAddress, 
 375:../../../../../../Drivers/STM32L0xx_HAL_Driver/Src/stm32l0xx_hal_dma.c **** { 
 565              		.loc 1 375 0
 566              		.cfi_startproc
 567              		@ args = 0, pretend = 0, frame = 0
 568              		@ frame_needed = 0, uses_anonymous_args = 0
 569              	.LVL33:
 570 0000 70B5     		push	{r4, r5, r6, lr}
 571              	.LCFI1:
 572              		.cfi_def_cfa_offset 16
 573              		.cfi_offset 4, -16
 574              		.cfi_offset 5, -12
 575              		.cfi_offset 6, -8
 576              		.cfi_offset 14, -4
 376:../../../../../../Drivers/STM32L0xx_HAL_Driver/Src/stm32l0xx_hal_dma.c ****   /* Process locked */
 377:../../../../../../Drivers/STM32L0xx_HAL_Driver/Src/stm32l0xx_hal_dma.c ****   __HAL_LOCK(hdma);  
 577              		.loc 1 377 0
 578 0002 2424     		movs	r4, #36
 579 0004 055D     		ldrb	r5, [r0, r4]
 580 0006 012D     		cmp	r5, #1
 581 0008 17D0     		beq	.L44
 582              		.loc 1 377 0 is_stmt 0 discriminator 2
 583 000a 0126     		movs	r6, #1
 378:../../../../../../Drivers/STM32L0xx_HAL_Driver/Src/stm32l0xx_hal_dma.c **** 
 379:../../../../../../Drivers/STM32L0xx_HAL_Driver/Src/stm32l0xx_hal_dma.c ****   /* Change DMA peripheral state */  
 380:../../../../../../Drivers/STM32L0xx_HAL_Driver/Src/stm32l0xx_hal_dma.c ****   hdma->State = HAL_DMA_STATE_BUSY;  
 584              		.loc 1 380 0 is_stmt 1 discriminator 2
 585 000c 0225     		movs	r5, #2
 377:../../../../../../Drivers/STM32L0xx_HAL_Driver/Src/stm32l0xx_hal_dma.c **** 
ARM GAS  C:\Users\EBANO_~1\AppData\Local\Temp\cc4h82Al.s 			page 19


 586              		.loc 1 377 0 discriminator 2
 587 000e 0655     		strb	r6, [r0, r4]
 588              		.loc 1 380 0 discriminator 2
 589 0010 0134     		adds	r4, r4, #1
 590 0012 0555     		strb	r5, [r0, r4]
 381:../../../../../../Drivers/STM32L0xx_HAL_Driver/Src/stm32l0xx_hal_dma.c **** 
 382:../../../../../../Drivers/STM32L0xx_HAL_Driver/Src/stm32l0xx_hal_dma.c ****    /* Check the parameters */
 383:../../../../../../Drivers/STM32L0xx_HAL_Driver/Src/stm32l0xx_hal_dma.c ****   assert_param(IS_DMA_BUFFER_SIZE(DataLength));
 384:../../../../../../Drivers/STM32L0xx_HAL_Driver/Src/stm32l0xx_hal_dma.c ****   
 385:../../../../../../Drivers/STM32L0xx_HAL_Driver/Src/stm32l0xx_hal_dma.c ****   /* Disable the peripheral */
 386:../../../../../../Drivers/STM32L0xx_HAL_Driver/Src/stm32l0xx_hal_dma.c ****   __HAL_DMA_DISABLE(hdma);  
 591              		.loc 1 386 0 discriminator 2
 592 0014 0468     		ldr	r4, [r0]
 593 0016 2568     		ldr	r5, [r4]
 594 0018 B543     		bics	r5, r6
 595 001a 2560     		str	r5, [r4]
 596              	.LVL34:
 597              	.LBB6:
 598              	.LBB7:
 387:../../../../../../Drivers/STM32L0xx_HAL_Driver/Src/stm32l0xx_hal_dma.c ****   
 388:../../../../../../Drivers/STM32L0xx_HAL_Driver/Src/stm32l0xx_hal_dma.c ****   /* Configure the source, destination address and the data length */
 389:../../../../../../Drivers/STM32L0xx_HAL_Driver/Src/stm32l0xx_hal_dma.c ****   DMA_SetConfig(hdma, SrcAddress, DstAddress, DataLength);
 390:../../../../../../Drivers/STM32L0xx_HAL_Driver/Src/stm32l0xx_hal_dma.c **** 
 391:../../../../../../Drivers/STM32L0xx_HAL_Driver/Src/stm32l0xx_hal_dma.c ****   /* Enable the Peripheral */
 392:../../../../../../Drivers/STM32L0xx_HAL_Driver/Src/stm32l0xx_hal_dma.c ****   __HAL_DMA_ENABLE(hdma);  
 393:../../../../../../Drivers/STM32L0xx_HAL_Driver/Src/stm32l0xx_hal_dma.c **** 
 394:../../../../../../Drivers/STM32L0xx_HAL_Driver/Src/stm32l0xx_hal_dma.c ****   return HAL_OK; 
 395:../../../../../../Drivers/STM32L0xx_HAL_Driver/Src/stm32l0xx_hal_dma.c **** } 
 396:../../../../../../Drivers/STM32L0xx_HAL_Driver/Src/stm32l0xx_hal_dma.c **** 
 397:../../../../../../Drivers/STM32L0xx_HAL_Driver/Src/stm32l0xx_hal_dma.c **** /**
 398:../../../../../../Drivers/STM32L0xx_HAL_Driver/Src/stm32l0xx_hal_dma.c ****   * @brief  Start the DMA Transfer with interrupt enabled.
 399:../../../../../../Drivers/STM32L0xx_HAL_Driver/Src/stm32l0xx_hal_dma.c ****   * @param  hdma       pointer to a DMA_HandleTypeDef structure that contains
 400:../../../../../../Drivers/STM32L0xx_HAL_Driver/Src/stm32l0xx_hal_dma.c ****   *                     the configuration information for the specified DMA Channel.  
 401:../../../../../../Drivers/STM32L0xx_HAL_Driver/Src/stm32l0xx_hal_dma.c ****   * @param  SrcAddress The source memory Buffer address
 402:../../../../../../Drivers/STM32L0xx_HAL_Driver/Src/stm32l0xx_hal_dma.c ****   * @param  DstAddress The destination memory Buffer address
 403:../../../../../../Drivers/STM32L0xx_HAL_Driver/Src/stm32l0xx_hal_dma.c ****   * @param  DataLength The length of data to be transferred from source to destination
 404:../../../../../../Drivers/STM32L0xx_HAL_Driver/Src/stm32l0xx_hal_dma.c ****   * @retval HAL status
 405:../../../../../../Drivers/STM32L0xx_HAL_Driver/Src/stm32l0xx_hal_dma.c ****   */
 406:../../../../../../Drivers/STM32L0xx_HAL_Driver/Src/stm32l0xx_hal_dma.c **** HAL_StatusTypeDef HAL_DMA_Start_IT(DMA_HandleTypeDef *hdma, uint32_t SrcAddress, uint32_t DstAddres
 407:../../../../../../Drivers/STM32L0xx_HAL_Driver/Src/stm32l0xx_hal_dma.c **** {
 408:../../../../../../Drivers/STM32L0xx_HAL_Driver/Src/stm32l0xx_hal_dma.c ****   /* Process locked */
 409:../../../../../../Drivers/STM32L0xx_HAL_Driver/Src/stm32l0xx_hal_dma.c ****   __HAL_LOCK(hdma);
 410:../../../../../../Drivers/STM32L0xx_HAL_Driver/Src/stm32l0xx_hal_dma.c **** 
 411:../../../../../../Drivers/STM32L0xx_HAL_Driver/Src/stm32l0xx_hal_dma.c ****   /* Change DMA peripheral state */  
 412:../../../../../../Drivers/STM32L0xx_HAL_Driver/Src/stm32l0xx_hal_dma.c ****   hdma->State = HAL_DMA_STATE_BUSY;  
 413:../../../../../../Drivers/STM32L0xx_HAL_Driver/Src/stm32l0xx_hal_dma.c **** 
 414:../../../../../../Drivers/STM32L0xx_HAL_Driver/Src/stm32l0xx_hal_dma.c ****    /* Check the parameters */
 415:../../../../../../Drivers/STM32L0xx_HAL_Driver/Src/stm32l0xx_hal_dma.c ****   assert_param(IS_DMA_BUFFER_SIZE(DataLength));
 416:../../../../../../Drivers/STM32L0xx_HAL_Driver/Src/stm32l0xx_hal_dma.c ****   
 417:../../../../../../Drivers/STM32L0xx_HAL_Driver/Src/stm32l0xx_hal_dma.c ****   /* Disable the peripheral */
 418:../../../../../../Drivers/STM32L0xx_HAL_Driver/Src/stm32l0xx_hal_dma.c ****   __HAL_DMA_DISABLE(hdma);
 419:../../../../../../Drivers/STM32L0xx_HAL_Driver/Src/stm32l0xx_hal_dma.c ****   
 420:../../../../../../Drivers/STM32L0xx_HAL_Driver/Src/stm32l0xx_hal_dma.c ****   /* Configure the source, destination address and the data length */  
 421:../../../../../../Drivers/STM32L0xx_HAL_Driver/Src/stm32l0xx_hal_dma.c ****   DMA_SetConfig(hdma, SrcAddress, DstAddress, DataLength);
 422:../../../../../../Drivers/STM32L0xx_HAL_Driver/Src/stm32l0xx_hal_dma.c ****   
 423:../../../../../../Drivers/STM32L0xx_HAL_Driver/Src/stm32l0xx_hal_dma.c ****   /* Enable the transfer complete interrupt */
 424:../../../../../../Drivers/STM32L0xx_HAL_Driver/Src/stm32l0xx_hal_dma.c ****   __HAL_DMA_ENABLE_IT(hdma, DMA_IT_TC);
ARM GAS  C:\Users\EBANO_~1\AppData\Local\Temp\cc4h82Al.s 			page 20


 425:../../../../../../Drivers/STM32L0xx_HAL_Driver/Src/stm32l0xx_hal_dma.c **** 
 426:../../../../../../Drivers/STM32L0xx_HAL_Driver/Src/stm32l0xx_hal_dma.c ****   /* Enable the Half transfer complete interrupt */
 427:../../../../../../Drivers/STM32L0xx_HAL_Driver/Src/stm32l0xx_hal_dma.c ****   __HAL_DMA_ENABLE_IT(hdma, DMA_IT_HT);  
 428:../../../../../../Drivers/STM32L0xx_HAL_Driver/Src/stm32l0xx_hal_dma.c **** 
 429:../../../../../../Drivers/STM32L0xx_HAL_Driver/Src/stm32l0xx_hal_dma.c ****   /* Enable the transfer Error interrupt */
 430:../../../../../../Drivers/STM32L0xx_HAL_Driver/Src/stm32l0xx_hal_dma.c ****   __HAL_DMA_ENABLE_IT(hdma, DMA_IT_TE);
 431:../../../../../../Drivers/STM32L0xx_HAL_Driver/Src/stm32l0xx_hal_dma.c ****   
 432:../../../../../../Drivers/STM32L0xx_HAL_Driver/Src/stm32l0xx_hal_dma.c ****    /* Enable the Peripheral */
 433:../../../../../../Drivers/STM32L0xx_HAL_Driver/Src/stm32l0xx_hal_dma.c ****   __HAL_DMA_ENABLE(hdma);   
 434:../../../../../../Drivers/STM32L0xx_HAL_Driver/Src/stm32l0xx_hal_dma.c ****   
 435:../../../../../../Drivers/STM32L0xx_HAL_Driver/Src/stm32l0xx_hal_dma.c ****   return HAL_OK;    
 436:../../../../../../Drivers/STM32L0xx_HAL_Driver/Src/stm32l0xx_hal_dma.c **** } 
 437:../../../../../../Drivers/STM32L0xx_HAL_Driver/Src/stm32l0xx_hal_dma.c **** 
 438:../../../../../../Drivers/STM32L0xx_HAL_Driver/Src/stm32l0xx_hal_dma.c **** /**
 439:../../../../../../Drivers/STM32L0xx_HAL_Driver/Src/stm32l0xx_hal_dma.c ****   * @brief  Aborts the DMA Transfer.
 440:../../../../../../Drivers/STM32L0xx_HAL_Driver/Src/stm32l0xx_hal_dma.c ****   * @param  hdma   pointer to a DMA_HandleTypeDef structure that contains
 441:../../../../../../Drivers/STM32L0xx_HAL_Driver/Src/stm32l0xx_hal_dma.c ****   *                 the configuration information for the specified DMA Channel.
 442:../../../../../../Drivers/STM32L0xx_HAL_Driver/Src/stm32l0xx_hal_dma.c ****   * @retval HAL status
 443:../../../../../../Drivers/STM32L0xx_HAL_Driver/Src/stm32l0xx_hal_dma.c ****   */
 444:../../../../../../Drivers/STM32L0xx_HAL_Driver/Src/stm32l0xx_hal_dma.c **** HAL_StatusTypeDef HAL_DMA_Abort(DMA_HandleTypeDef *hdma)
 445:../../../../../../Drivers/STM32L0xx_HAL_Driver/Src/stm32l0xx_hal_dma.c **** {
 446:../../../../../../Drivers/STM32L0xx_HAL_Driver/Src/stm32l0xx_hal_dma.c ****   uint32_t tickstart = 0U;
 447:../../../../../../Drivers/STM32L0xx_HAL_Driver/Src/stm32l0xx_hal_dma.c ****   
 448:../../../../../../Drivers/STM32L0xx_HAL_Driver/Src/stm32l0xx_hal_dma.c ****   /* Disable the channel */
 449:../../../../../../Drivers/STM32L0xx_HAL_Driver/Src/stm32l0xx_hal_dma.c ****   __HAL_DMA_DISABLE(hdma);
 450:../../../../../../Drivers/STM32L0xx_HAL_Driver/Src/stm32l0xx_hal_dma.c ****   
 451:../../../../../../Drivers/STM32L0xx_HAL_Driver/Src/stm32l0xx_hal_dma.c ****   /* Get timeout */
 452:../../../../../../Drivers/STM32L0xx_HAL_Driver/Src/stm32l0xx_hal_dma.c ****   tickstart = HAL_GetTick();
 453:../../../../../../Drivers/STM32L0xx_HAL_Driver/Src/stm32l0xx_hal_dma.c ****   
 454:../../../../../../Drivers/STM32L0xx_HAL_Driver/Src/stm32l0xx_hal_dma.c ****   /* Check if the DMA Channel is effectively disabled */
 455:../../../../../../Drivers/STM32L0xx_HAL_Driver/Src/stm32l0xx_hal_dma.c ****   while((hdma->Instance->CCR & DMA_CCR_EN) != 0U) 
 456:../../../../../../Drivers/STM32L0xx_HAL_Driver/Src/stm32l0xx_hal_dma.c ****   {
 457:../../../../../../Drivers/STM32L0xx_HAL_Driver/Src/stm32l0xx_hal_dma.c ****     /* Check for the Timeout */
 458:../../../../../../Drivers/STM32L0xx_HAL_Driver/Src/stm32l0xx_hal_dma.c ****     if( (HAL_GetTick()  - tickstart ) > HAL_TIMEOUT_DMA_ABORT)
 459:../../../../../../Drivers/STM32L0xx_HAL_Driver/Src/stm32l0xx_hal_dma.c ****     {
 460:../../../../../../Drivers/STM32L0xx_HAL_Driver/Src/stm32l0xx_hal_dma.c ****       /* Update error code */
 461:../../../../../../Drivers/STM32L0xx_HAL_Driver/Src/stm32l0xx_hal_dma.c ****       hdma->ErrorCode |= HAL_DMA_ERROR_TIMEOUT;
 462:../../../../../../Drivers/STM32L0xx_HAL_Driver/Src/stm32l0xx_hal_dma.c ****       
 463:../../../../../../Drivers/STM32L0xx_HAL_Driver/Src/stm32l0xx_hal_dma.c ****       /* Process Unlocked */
 464:../../../../../../Drivers/STM32L0xx_HAL_Driver/Src/stm32l0xx_hal_dma.c ****       __HAL_UNLOCK(hdma);
 465:../../../../../../Drivers/STM32L0xx_HAL_Driver/Src/stm32l0xx_hal_dma.c ****       
 466:../../../../../../Drivers/STM32L0xx_HAL_Driver/Src/stm32l0xx_hal_dma.c ****       /* Change the DMA state */
 467:../../../../../../Drivers/STM32L0xx_HAL_Driver/Src/stm32l0xx_hal_dma.c ****       hdma->State = HAL_DMA_STATE_TIMEOUT;
 468:../../../../../../Drivers/STM32L0xx_HAL_Driver/Src/stm32l0xx_hal_dma.c ****       
 469:../../../../../../Drivers/STM32L0xx_HAL_Driver/Src/stm32l0xx_hal_dma.c ****       return HAL_TIMEOUT;
 470:../../../../../../Drivers/STM32L0xx_HAL_Driver/Src/stm32l0xx_hal_dma.c ****     }
 471:../../../../../../Drivers/STM32L0xx_HAL_Driver/Src/stm32l0xx_hal_dma.c ****   }
 472:../../../../../../Drivers/STM32L0xx_HAL_Driver/Src/stm32l0xx_hal_dma.c ****   /* Process Unlocked */
 473:../../../../../../Drivers/STM32L0xx_HAL_Driver/Src/stm32l0xx_hal_dma.c ****   __HAL_UNLOCK(hdma);
 474:../../../../../../Drivers/STM32L0xx_HAL_Driver/Src/stm32l0xx_hal_dma.c ****   
 475:../../../../../../Drivers/STM32L0xx_HAL_Driver/Src/stm32l0xx_hal_dma.c ****   /* Change the DMA state*/
 476:../../../../../../Drivers/STM32L0xx_HAL_Driver/Src/stm32l0xx_hal_dma.c ****   hdma->State = HAL_DMA_STATE_READY; 
 477:../../../../../../Drivers/STM32L0xx_HAL_Driver/Src/stm32l0xx_hal_dma.c ****   
 478:../../../../../../Drivers/STM32L0xx_HAL_Driver/Src/stm32l0xx_hal_dma.c ****   return HAL_OK; 
 479:../../../../../../Drivers/STM32L0xx_HAL_Driver/Src/stm32l0xx_hal_dma.c **** }
 480:../../../../../../Drivers/STM32L0xx_HAL_Driver/Src/stm32l0xx_hal_dma.c **** 
 481:../../../../../../Drivers/STM32L0xx_HAL_Driver/Src/stm32l0xx_hal_dma.c **** /**
ARM GAS  C:\Users\EBANO_~1\AppData\Local\Temp\cc4h82Al.s 			page 21


 482:../../../../../../Drivers/STM32L0xx_HAL_Driver/Src/stm32l0xx_hal_dma.c ****   * @brief  Aborts the DMA Transfer in Interrupt mode.
 483:../../../../../../Drivers/STM32L0xx_HAL_Driver/Src/stm32l0xx_hal_dma.c ****   * @param  hdma   pointer to a DMA_HandleTypeDef structure that contains
 484:../../../../../../Drivers/STM32L0xx_HAL_Driver/Src/stm32l0xx_hal_dma.c ****   *                 the configuration information for the specified DMA Stream.
 485:../../../../../../Drivers/STM32L0xx_HAL_Driver/Src/stm32l0xx_hal_dma.c ****   * @retval HAL status
 486:../../../../../../Drivers/STM32L0xx_HAL_Driver/Src/stm32l0xx_hal_dma.c ****   */
 487:../../../../../../Drivers/STM32L0xx_HAL_Driver/Src/stm32l0xx_hal_dma.c **** HAL_StatusTypeDef HAL_DMA_Abort_IT(DMA_HandleTypeDef *hdma)
 488:../../../../../../Drivers/STM32L0xx_HAL_Driver/Src/stm32l0xx_hal_dma.c **** {  
 489:../../../../../../Drivers/STM32L0xx_HAL_Driver/Src/stm32l0xx_hal_dma.c ****   HAL_StatusTypeDef status = HAL_OK;
 490:../../../../../../Drivers/STM32L0xx_HAL_Driver/Src/stm32l0xx_hal_dma.c ****   
 491:../../../../../../Drivers/STM32L0xx_HAL_Driver/Src/stm32l0xx_hal_dma.c ****   if(HAL_DMA_STATE_BUSY != hdma->State)
 492:../../../../../../Drivers/STM32L0xx_HAL_Driver/Src/stm32l0xx_hal_dma.c ****   {
 493:../../../../../../Drivers/STM32L0xx_HAL_Driver/Src/stm32l0xx_hal_dma.c ****     /* no transfer ongoing */
 494:../../../../../../Drivers/STM32L0xx_HAL_Driver/Src/stm32l0xx_hal_dma.c ****     hdma->ErrorCode = HAL_DMA_ERROR_NO_XFER;
 495:../../../../../../Drivers/STM32L0xx_HAL_Driver/Src/stm32l0xx_hal_dma.c ****         
 496:../../../../../../Drivers/STM32L0xx_HAL_Driver/Src/stm32l0xx_hal_dma.c ****     status = HAL_ERROR;
 497:../../../../../../Drivers/STM32L0xx_HAL_Driver/Src/stm32l0xx_hal_dma.c ****   }
 498:../../../../../../Drivers/STM32L0xx_HAL_Driver/Src/stm32l0xx_hal_dma.c ****   else
 499:../../../../../../Drivers/STM32L0xx_HAL_Driver/Src/stm32l0xx_hal_dma.c ****   { 
 500:../../../../../../Drivers/STM32L0xx_HAL_Driver/Src/stm32l0xx_hal_dma.c ****     /* Disable DMA IT */
 501:../../../../../../Drivers/STM32L0xx_HAL_Driver/Src/stm32l0xx_hal_dma.c ****     __HAL_DMA_DISABLE_IT(hdma, (DMA_IT_TC | DMA_IT_HT | DMA_IT_TE));
 502:../../../../../../Drivers/STM32L0xx_HAL_Driver/Src/stm32l0xx_hal_dma.c ****     
 503:../../../../../../Drivers/STM32L0xx_HAL_Driver/Src/stm32l0xx_hal_dma.c ****     /* Disable the channel */
 504:../../../../../../Drivers/STM32L0xx_HAL_Driver/Src/stm32l0xx_hal_dma.c ****     __HAL_DMA_DISABLE(hdma);
 505:../../../../../../Drivers/STM32L0xx_HAL_Driver/Src/stm32l0xx_hal_dma.c ****     
 506:../../../../../../Drivers/STM32L0xx_HAL_Driver/Src/stm32l0xx_hal_dma.c ****     /* Clear all flags */
 507:../../../../../../Drivers/STM32L0xx_HAL_Driver/Src/stm32l0xx_hal_dma.c ****     __HAL_DMA_CLEAR_FLAG(hdma, __HAL_DMA_GET_GI_FLAG_INDEX(hdma));
 508:../../../../../../Drivers/STM32L0xx_HAL_Driver/Src/stm32l0xx_hal_dma.c ****     
 509:../../../../../../Drivers/STM32L0xx_HAL_Driver/Src/stm32l0xx_hal_dma.c ****     /* Change the DMA state */
 510:../../../../../../Drivers/STM32L0xx_HAL_Driver/Src/stm32l0xx_hal_dma.c ****     hdma->State = HAL_DMA_STATE_READY;
 511:../../../../../../Drivers/STM32L0xx_HAL_Driver/Src/stm32l0xx_hal_dma.c ****     
 512:../../../../../../Drivers/STM32L0xx_HAL_Driver/Src/stm32l0xx_hal_dma.c ****     /* Process Unlocked */
 513:../../../../../../Drivers/STM32L0xx_HAL_Driver/Src/stm32l0xx_hal_dma.c ****     __HAL_UNLOCK(hdma);
 514:../../../../../../Drivers/STM32L0xx_HAL_Driver/Src/stm32l0xx_hal_dma.c ****     
 515:../../../../../../Drivers/STM32L0xx_HAL_Driver/Src/stm32l0xx_hal_dma.c ****     /* Call User Abort callback */ 
 516:../../../../../../Drivers/STM32L0xx_HAL_Driver/Src/stm32l0xx_hal_dma.c ****     if(hdma->XferAbortCallback != NULL)
 517:../../../../../../Drivers/STM32L0xx_HAL_Driver/Src/stm32l0xx_hal_dma.c ****     {
 518:../../../../../../Drivers/STM32L0xx_HAL_Driver/Src/stm32l0xx_hal_dma.c ****       hdma->XferAbortCallback(hdma);
 519:../../../../../../Drivers/STM32L0xx_HAL_Driver/Src/stm32l0xx_hal_dma.c ****     } 
 520:../../../../../../Drivers/STM32L0xx_HAL_Driver/Src/stm32l0xx_hal_dma.c ****   }
 521:../../../../../../Drivers/STM32L0xx_HAL_Driver/Src/stm32l0xx_hal_dma.c ****   return status;
 522:../../../../../../Drivers/STM32L0xx_HAL_Driver/Src/stm32l0xx_hal_dma.c **** }
 523:../../../../../../Drivers/STM32L0xx_HAL_Driver/Src/stm32l0xx_hal_dma.c **** 
 524:../../../../../../Drivers/STM32L0xx_HAL_Driver/Src/stm32l0xx_hal_dma.c **** /**
 525:../../../../../../Drivers/STM32L0xx_HAL_Driver/Src/stm32l0xx_hal_dma.c ****   * @brief  Polling for transfer complete.
 526:../../../../../../Drivers/STM32L0xx_HAL_Driver/Src/stm32l0xx_hal_dma.c ****   * @param  hdma    pointer to a DMA_HandleTypeDef structure that contains
 527:../../../../../../Drivers/STM32L0xx_HAL_Driver/Src/stm32l0xx_hal_dma.c ****   *                  the configuration information for the specified DMA Channel.
 528:../../../../../../Drivers/STM32L0xx_HAL_Driver/Src/stm32l0xx_hal_dma.c ****   * @param  CompleteLevel Specifies the DMA level complete.  
 529:../../../../../../Drivers/STM32L0xx_HAL_Driver/Src/stm32l0xx_hal_dma.c ****   * @param  Timeout       Timeout duration.
 530:../../../../../../Drivers/STM32L0xx_HAL_Driver/Src/stm32l0xx_hal_dma.c ****   * @retval HAL status
 531:../../../../../../Drivers/STM32L0xx_HAL_Driver/Src/stm32l0xx_hal_dma.c ****   */
 532:../../../../../../Drivers/STM32L0xx_HAL_Driver/Src/stm32l0xx_hal_dma.c **** HAL_StatusTypeDef HAL_DMA_PollForTransfer(DMA_HandleTypeDef *hdma, uint32_t CompleteLevel, uint32_t
 533:../../../../../../Drivers/STM32L0xx_HAL_Driver/Src/stm32l0xx_hal_dma.c **** {
 534:../../../../../../Drivers/STM32L0xx_HAL_Driver/Src/stm32l0xx_hal_dma.c ****   uint32_t temp;
 535:../../../../../../Drivers/STM32L0xx_HAL_Driver/Src/stm32l0xx_hal_dma.c ****   uint32_t tickstart = 0U;
 536:../../../../../../Drivers/STM32L0xx_HAL_Driver/Src/stm32l0xx_hal_dma.c ****   
 537:../../../../../../Drivers/STM32L0xx_HAL_Driver/Src/stm32l0xx_hal_dma.c ****   /* Get the level transfer complete flag */
 538:../../../../../../Drivers/STM32L0xx_HAL_Driver/Src/stm32l0xx_hal_dma.c ****   if(CompleteLevel == HAL_DMA_FULL_TRANSFER)
ARM GAS  C:\Users\EBANO_~1\AppData\Local\Temp\cc4h82Al.s 			page 22


 539:../../../../../../Drivers/STM32L0xx_HAL_Driver/Src/stm32l0xx_hal_dma.c ****   {
 540:../../../../../../Drivers/STM32L0xx_HAL_Driver/Src/stm32l0xx_hal_dma.c ****     /* Transfer Complete flag */
 541:../../../../../../Drivers/STM32L0xx_HAL_Driver/Src/stm32l0xx_hal_dma.c ****     temp = __HAL_DMA_GET_TC_FLAG_INDEX(hdma);
 542:../../../../../../Drivers/STM32L0xx_HAL_Driver/Src/stm32l0xx_hal_dma.c ****   }
 543:../../../../../../Drivers/STM32L0xx_HAL_Driver/Src/stm32l0xx_hal_dma.c ****   else
 544:../../../../../../Drivers/STM32L0xx_HAL_Driver/Src/stm32l0xx_hal_dma.c ****   {
 545:../../../../../../Drivers/STM32L0xx_HAL_Driver/Src/stm32l0xx_hal_dma.c ****     /* Half Transfer Complete flag */
 546:../../../../../../Drivers/STM32L0xx_HAL_Driver/Src/stm32l0xx_hal_dma.c ****     temp = __HAL_DMA_GET_HT_FLAG_INDEX(hdma);
 547:../../../../../../Drivers/STM32L0xx_HAL_Driver/Src/stm32l0xx_hal_dma.c ****   }
 548:../../../../../../Drivers/STM32L0xx_HAL_Driver/Src/stm32l0xx_hal_dma.c **** 
 549:../../../../../../Drivers/STM32L0xx_HAL_Driver/Src/stm32l0xx_hal_dma.c ****   /* Get timeout */
 550:../../../../../../Drivers/STM32L0xx_HAL_Driver/Src/stm32l0xx_hal_dma.c ****   tickstart = HAL_GetTick();
 551:../../../../../../Drivers/STM32L0xx_HAL_Driver/Src/stm32l0xx_hal_dma.c **** 
 552:../../../../../../Drivers/STM32L0xx_HAL_Driver/Src/stm32l0xx_hal_dma.c ****   while(__HAL_DMA_GET_FLAG(hdma, temp) == RESET)
 553:../../../../../../Drivers/STM32L0xx_HAL_Driver/Src/stm32l0xx_hal_dma.c ****   {
 554:../../../../../../Drivers/STM32L0xx_HAL_Driver/Src/stm32l0xx_hal_dma.c ****     if((__HAL_DMA_GET_FLAG(hdma, __HAL_DMA_GET_TE_FLAG_INDEX(hdma)) != RESET))
 555:../../../../../../Drivers/STM32L0xx_HAL_Driver/Src/stm32l0xx_hal_dma.c ****     {      
 556:../../../../../../Drivers/STM32L0xx_HAL_Driver/Src/stm32l0xx_hal_dma.c ****       /* Clear the transfer error flags */
 557:../../../../../../Drivers/STM32L0xx_HAL_Driver/Src/stm32l0xx_hal_dma.c ****       __HAL_DMA_CLEAR_FLAG(hdma, __HAL_DMA_GET_TE_FLAG_INDEX(hdma));
 558:../../../../../../Drivers/STM32L0xx_HAL_Driver/Src/stm32l0xx_hal_dma.c ****       
 559:../../../../../../Drivers/STM32L0xx_HAL_Driver/Src/stm32l0xx_hal_dma.c ****       /* Update error code */
 560:../../../../../../Drivers/STM32L0xx_HAL_Driver/Src/stm32l0xx_hal_dma.c ****       SET_BIT(hdma->ErrorCode, HAL_DMA_ERROR_TE);
 561:../../../../../../Drivers/STM32L0xx_HAL_Driver/Src/stm32l0xx_hal_dma.c ****       
 562:../../../../../../Drivers/STM32L0xx_HAL_Driver/Src/stm32l0xx_hal_dma.c ****       /* Change the DMA state */
 563:../../../../../../Drivers/STM32L0xx_HAL_Driver/Src/stm32l0xx_hal_dma.c ****       hdma->State= HAL_DMA_STATE_ERROR;       
 564:../../../../../../Drivers/STM32L0xx_HAL_Driver/Src/stm32l0xx_hal_dma.c ****       
 565:../../../../../../Drivers/STM32L0xx_HAL_Driver/Src/stm32l0xx_hal_dma.c ****       /* Process Unlocked */
 566:../../../../../../Drivers/STM32L0xx_HAL_Driver/Src/stm32l0xx_hal_dma.c ****       __HAL_UNLOCK(hdma);
 567:../../../../../../Drivers/STM32L0xx_HAL_Driver/Src/stm32l0xx_hal_dma.c ****       
 568:../../../../../../Drivers/STM32L0xx_HAL_Driver/Src/stm32l0xx_hal_dma.c ****       return HAL_ERROR;      
 569:../../../../../../Drivers/STM32L0xx_HAL_Driver/Src/stm32l0xx_hal_dma.c ****     }      
 570:../../../../../../Drivers/STM32L0xx_HAL_Driver/Src/stm32l0xx_hal_dma.c ****     /* Check for the Timeout */
 571:../../../../../../Drivers/STM32L0xx_HAL_Driver/Src/stm32l0xx_hal_dma.c ****     if(Timeout != HAL_MAX_DELAY)
 572:../../../../../../Drivers/STM32L0xx_HAL_Driver/Src/stm32l0xx_hal_dma.c ****     {
 573:../../../../../../Drivers/STM32L0xx_HAL_Driver/Src/stm32l0xx_hal_dma.c ****       if((Timeout == 0U)||((HAL_GetTick() - tickstart ) > Timeout))
 574:../../../../../../Drivers/STM32L0xx_HAL_Driver/Src/stm32l0xx_hal_dma.c ****       {
 575:../../../../../../Drivers/STM32L0xx_HAL_Driver/Src/stm32l0xx_hal_dma.c ****         /* Update error code */
 576:../../../../../../Drivers/STM32L0xx_HAL_Driver/Src/stm32l0xx_hal_dma.c ****         SET_BIT(hdma->ErrorCode, HAL_DMA_ERROR_TIMEOUT);
 577:../../../../../../Drivers/STM32L0xx_HAL_Driver/Src/stm32l0xx_hal_dma.c ****         
 578:../../../../../../Drivers/STM32L0xx_HAL_Driver/Src/stm32l0xx_hal_dma.c ****         /* Change the DMA state */
 579:../../../../../../Drivers/STM32L0xx_HAL_Driver/Src/stm32l0xx_hal_dma.c ****         hdma->State= HAL_DMA_STATE_TIMEOUT;
 580:../../../../../../Drivers/STM32L0xx_HAL_Driver/Src/stm32l0xx_hal_dma.c ****         
 581:../../../../../../Drivers/STM32L0xx_HAL_Driver/Src/stm32l0xx_hal_dma.c ****         /* Process Unlocked */
 582:../../../../../../Drivers/STM32L0xx_HAL_Driver/Src/stm32l0xx_hal_dma.c ****         __HAL_UNLOCK(hdma);
 583:../../../../../../Drivers/STM32L0xx_HAL_Driver/Src/stm32l0xx_hal_dma.c ****       
 584:../../../../../../Drivers/STM32L0xx_HAL_Driver/Src/stm32l0xx_hal_dma.c ****         return HAL_TIMEOUT;
 585:../../../../../../Drivers/STM32L0xx_HAL_Driver/Src/stm32l0xx_hal_dma.c ****       }
 586:../../../../../../Drivers/STM32L0xx_HAL_Driver/Src/stm32l0xx_hal_dma.c ****     }
 587:../../../../../../Drivers/STM32L0xx_HAL_Driver/Src/stm32l0xx_hal_dma.c ****   }
 588:../../../../../../Drivers/STM32L0xx_HAL_Driver/Src/stm32l0xx_hal_dma.c **** 
 589:../../../../../../Drivers/STM32L0xx_HAL_Driver/Src/stm32l0xx_hal_dma.c ****   if(CompleteLevel == HAL_DMA_FULL_TRANSFER)
 590:../../../../../../Drivers/STM32L0xx_HAL_Driver/Src/stm32l0xx_hal_dma.c ****   {
 591:../../../../../../Drivers/STM32L0xx_HAL_Driver/Src/stm32l0xx_hal_dma.c ****     /* Clear the transfer complete flag */
 592:../../../../../../Drivers/STM32L0xx_HAL_Driver/Src/stm32l0xx_hal_dma.c ****     __HAL_DMA_CLEAR_FLAG(hdma, __HAL_DMA_GET_TC_FLAG_INDEX(hdma));
 593:../../../../../../Drivers/STM32L0xx_HAL_Driver/Src/stm32l0xx_hal_dma.c **** 
 594:../../../../../../Drivers/STM32L0xx_HAL_Driver/Src/stm32l0xx_hal_dma.c ****     /* The selected Channelx EN bit is cleared (DMA is disabled and 
 595:../../../../../../Drivers/STM32L0xx_HAL_Driver/Src/stm32l0xx_hal_dma.c ****     all transfers are complete) */
ARM GAS  C:\Users\EBANO_~1\AppData\Local\Temp\cc4h82Al.s 			page 23


 596:../../../../../../Drivers/STM32L0xx_HAL_Driver/Src/stm32l0xx_hal_dma.c ****     hdma->State = HAL_DMA_STATE_READY;
 597:../../../../../../Drivers/STM32L0xx_HAL_Driver/Src/stm32l0xx_hal_dma.c **** 
 598:../../../../../../Drivers/STM32L0xx_HAL_Driver/Src/stm32l0xx_hal_dma.c ****     /* Process unlocked */
 599:../../../../../../Drivers/STM32L0xx_HAL_Driver/Src/stm32l0xx_hal_dma.c ****     __HAL_UNLOCK(hdma);  
 600:../../../../../../Drivers/STM32L0xx_HAL_Driver/Src/stm32l0xx_hal_dma.c ****   }
 601:../../../../../../Drivers/STM32L0xx_HAL_Driver/Src/stm32l0xx_hal_dma.c ****   else
 602:../../../../../../Drivers/STM32L0xx_HAL_Driver/Src/stm32l0xx_hal_dma.c ****   { 
 603:../../../../../../Drivers/STM32L0xx_HAL_Driver/Src/stm32l0xx_hal_dma.c ****     /* Clear the half transfer complete flag */
 604:../../../../../../Drivers/STM32L0xx_HAL_Driver/Src/stm32l0xx_hal_dma.c ****     __HAL_DMA_CLEAR_FLAG(hdma, __HAL_DMA_GET_HT_FLAG_INDEX(hdma));
 605:../../../../../../Drivers/STM32L0xx_HAL_Driver/Src/stm32l0xx_hal_dma.c **** 
 606:../../../../../../Drivers/STM32L0xx_HAL_Driver/Src/stm32l0xx_hal_dma.c ****     /* The selected Channelx EN bit is cleared (DMA is disabled and 
 607:../../../../../../Drivers/STM32L0xx_HAL_Driver/Src/stm32l0xx_hal_dma.c ****     all transfers are complete) */
 608:../../../../../../Drivers/STM32L0xx_HAL_Driver/Src/stm32l0xx_hal_dma.c ****     hdma->State = HAL_DMA_STATE_READY_HALF;
 609:../../../../../../Drivers/STM32L0xx_HAL_Driver/Src/stm32l0xx_hal_dma.c ****     
 610:../../../../../../Drivers/STM32L0xx_HAL_Driver/Src/stm32l0xx_hal_dma.c ****     /* Process unlocked */
 611:../../../../../../Drivers/STM32L0xx_HAL_Driver/Src/stm32l0xx_hal_dma.c ****     __HAL_UNLOCK(hdma); 
 612:../../../../../../Drivers/STM32L0xx_HAL_Driver/Src/stm32l0xx_hal_dma.c ****   }
 613:../../../../../../Drivers/STM32L0xx_HAL_Driver/Src/stm32l0xx_hal_dma.c ****   
 614:../../../../../../Drivers/STM32L0xx_HAL_Driver/Src/stm32l0xx_hal_dma.c ****   return HAL_OK;
 615:../../../../../../Drivers/STM32L0xx_HAL_Driver/Src/stm32l0xx_hal_dma.c **** }
 616:../../../../../../Drivers/STM32L0xx_HAL_Driver/Src/stm32l0xx_hal_dma.c **** /**
 617:../../../../../../Drivers/STM32L0xx_HAL_Driver/Src/stm32l0xx_hal_dma.c ****   * @brief  Handles DMA interrupt request.
 618:../../../../../../Drivers/STM32L0xx_HAL_Driver/Src/stm32l0xx_hal_dma.c ****   * @param  hdma pointer to a DMA_HandleTypeDef structure that contains
 619:../../../../../../Drivers/STM32L0xx_HAL_Driver/Src/stm32l0xx_hal_dma.c ****   *               the configuration information for the specified DMA Channel.  
 620:../../../../../../Drivers/STM32L0xx_HAL_Driver/Src/stm32l0xx_hal_dma.c ****   * @retval None
 621:../../../../../../Drivers/STM32L0xx_HAL_Driver/Src/stm32l0xx_hal_dma.c ****   */
 622:../../../../../../Drivers/STM32L0xx_HAL_Driver/Src/stm32l0xx_hal_dma.c **** void HAL_DMA_IRQHandler(DMA_HandleTypeDef *hdma)
 623:../../../../../../Drivers/STM32L0xx_HAL_Driver/Src/stm32l0xx_hal_dma.c **** {        
 624:../../../../../../Drivers/STM32L0xx_HAL_Driver/Src/stm32l0xx_hal_dma.c ****   /* Transfer Error Interrupt management ***************************************/
 625:../../../../../../Drivers/STM32L0xx_HAL_Driver/Src/stm32l0xx_hal_dma.c ****   if(__HAL_DMA_GET_FLAG(hdma, __HAL_DMA_GET_TE_FLAG_INDEX(hdma)) != RESET)
 626:../../../../../../Drivers/STM32L0xx_HAL_Driver/Src/stm32l0xx_hal_dma.c ****   {
 627:../../../../../../Drivers/STM32L0xx_HAL_Driver/Src/stm32l0xx_hal_dma.c ****     if(__HAL_DMA_GET_IT_SOURCE(hdma, DMA_IT_TE) != RESET)
 628:../../../../../../Drivers/STM32L0xx_HAL_Driver/Src/stm32l0xx_hal_dma.c ****     {
 629:../../../../../../Drivers/STM32L0xx_HAL_Driver/Src/stm32l0xx_hal_dma.c ****       /* Disable the transfer error interrupt */
 630:../../../../../../Drivers/STM32L0xx_HAL_Driver/Src/stm32l0xx_hal_dma.c ****       __HAL_DMA_DISABLE_IT(hdma, DMA_IT_TE);
 631:../../../../../../Drivers/STM32L0xx_HAL_Driver/Src/stm32l0xx_hal_dma.c ****     
 632:../../../../../../Drivers/STM32L0xx_HAL_Driver/Src/stm32l0xx_hal_dma.c ****       /* Clear the transfer error flag */
 633:../../../../../../Drivers/STM32L0xx_HAL_Driver/Src/stm32l0xx_hal_dma.c ****       __HAL_DMA_CLEAR_FLAG(hdma, __HAL_DMA_GET_TE_FLAG_INDEX(hdma));
 634:../../../../../../Drivers/STM32L0xx_HAL_Driver/Src/stm32l0xx_hal_dma.c ****     
 635:../../../../../../Drivers/STM32L0xx_HAL_Driver/Src/stm32l0xx_hal_dma.c ****       /* Update error code */
 636:../../../../../../Drivers/STM32L0xx_HAL_Driver/Src/stm32l0xx_hal_dma.c ****       hdma->ErrorCode |= HAL_DMA_ERROR_TE;
 637:../../../../../../Drivers/STM32L0xx_HAL_Driver/Src/stm32l0xx_hal_dma.c **** 
 638:../../../../../../Drivers/STM32L0xx_HAL_Driver/Src/stm32l0xx_hal_dma.c ****       /* Change the DMA state */
 639:../../../../../../Drivers/STM32L0xx_HAL_Driver/Src/stm32l0xx_hal_dma.c ****       hdma->State = HAL_DMA_STATE_ERROR;    
 640:../../../../../../Drivers/STM32L0xx_HAL_Driver/Src/stm32l0xx_hal_dma.c ****     
 641:../../../../../../Drivers/STM32L0xx_HAL_Driver/Src/stm32l0xx_hal_dma.c ****       /* Process Unlocked */
 642:../../../../../../Drivers/STM32L0xx_HAL_Driver/Src/stm32l0xx_hal_dma.c ****       __HAL_UNLOCK(hdma); 
 643:../../../../../../Drivers/STM32L0xx_HAL_Driver/Src/stm32l0xx_hal_dma.c ****     
 644:../../../../../../Drivers/STM32L0xx_HAL_Driver/Src/stm32l0xx_hal_dma.c ****       if (hdma->XferErrorCallback != NULL)
 645:../../../../../../Drivers/STM32L0xx_HAL_Driver/Src/stm32l0xx_hal_dma.c ****       {
 646:../../../../../../Drivers/STM32L0xx_HAL_Driver/Src/stm32l0xx_hal_dma.c ****         /* Transfer error callback */
 647:../../../../../../Drivers/STM32L0xx_HAL_Driver/Src/stm32l0xx_hal_dma.c ****         hdma->XferErrorCallback(hdma);
 648:../../../../../../Drivers/STM32L0xx_HAL_Driver/Src/stm32l0xx_hal_dma.c ****       }
 649:../../../../../../Drivers/STM32L0xx_HAL_Driver/Src/stm32l0xx_hal_dma.c ****     }
 650:../../../../../../Drivers/STM32L0xx_HAL_Driver/Src/stm32l0xx_hal_dma.c ****   }
 651:../../../../../../Drivers/STM32L0xx_HAL_Driver/Src/stm32l0xx_hal_dma.c **** 
 652:../../../../../../Drivers/STM32L0xx_HAL_Driver/Src/stm32l0xx_hal_dma.c ****   /* Half Transfer Complete Interrupt management ******************************/
ARM GAS  C:\Users\EBANO_~1\AppData\Local\Temp\cc4h82Al.s 			page 24


 653:../../../../../../Drivers/STM32L0xx_HAL_Driver/Src/stm32l0xx_hal_dma.c ****   if(__HAL_DMA_GET_FLAG(hdma, __HAL_DMA_GET_HT_FLAG_INDEX(hdma)) != RESET)
 654:../../../../../../Drivers/STM32L0xx_HAL_Driver/Src/stm32l0xx_hal_dma.c ****   {
 655:../../../../../../Drivers/STM32L0xx_HAL_Driver/Src/stm32l0xx_hal_dma.c ****     if(__HAL_DMA_GET_IT_SOURCE(hdma, DMA_IT_HT) != RESET)
 656:../../../../../../Drivers/STM32L0xx_HAL_Driver/Src/stm32l0xx_hal_dma.c ****     { 
 657:../../../../../../Drivers/STM32L0xx_HAL_Driver/Src/stm32l0xx_hal_dma.c ****       /* Disable the half transfer interrupt if the DMA mode is not CIRCULAR */
 658:../../../../../../Drivers/STM32L0xx_HAL_Driver/Src/stm32l0xx_hal_dma.c ****       if((hdma->Instance->CCR & DMA_CCR_CIRC) == 0U)
 659:../../../../../../Drivers/STM32L0xx_HAL_Driver/Src/stm32l0xx_hal_dma.c ****       {
 660:../../../../../../Drivers/STM32L0xx_HAL_Driver/Src/stm32l0xx_hal_dma.c ****         /* Disable the half transfer interrupt */
 661:../../../../../../Drivers/STM32L0xx_HAL_Driver/Src/stm32l0xx_hal_dma.c ****         __HAL_DMA_DISABLE_IT(hdma, DMA_IT_HT);
 662:../../../../../../Drivers/STM32L0xx_HAL_Driver/Src/stm32l0xx_hal_dma.c ****       }
 663:../../../../../../Drivers/STM32L0xx_HAL_Driver/Src/stm32l0xx_hal_dma.c ****       /* Clear the half transfer complete flag */
 664:../../../../../../Drivers/STM32L0xx_HAL_Driver/Src/stm32l0xx_hal_dma.c ****       __HAL_DMA_CLEAR_FLAG(hdma, __HAL_DMA_GET_HT_FLAG_INDEX(hdma));
 665:../../../../../../Drivers/STM32L0xx_HAL_Driver/Src/stm32l0xx_hal_dma.c **** 
 666:../../../../../../Drivers/STM32L0xx_HAL_Driver/Src/stm32l0xx_hal_dma.c ****       /* Change DMA peripheral state */
 667:../../../../../../Drivers/STM32L0xx_HAL_Driver/Src/stm32l0xx_hal_dma.c ****       hdma->State = HAL_DMA_STATE_READY_HALF;
 668:../../../../../../Drivers/STM32L0xx_HAL_Driver/Src/stm32l0xx_hal_dma.c **** 
 669:../../../../../../Drivers/STM32L0xx_HAL_Driver/Src/stm32l0xx_hal_dma.c ****       if(hdma->XferHalfCpltCallback != NULL)
 670:../../../../../../Drivers/STM32L0xx_HAL_Driver/Src/stm32l0xx_hal_dma.c ****       {
 671:../../../../../../Drivers/STM32L0xx_HAL_Driver/Src/stm32l0xx_hal_dma.c ****         /* Half transfer callback */
 672:../../../../../../Drivers/STM32L0xx_HAL_Driver/Src/stm32l0xx_hal_dma.c ****         hdma->XferHalfCpltCallback(hdma);
 673:../../../../../../Drivers/STM32L0xx_HAL_Driver/Src/stm32l0xx_hal_dma.c ****       }
 674:../../../../../../Drivers/STM32L0xx_HAL_Driver/Src/stm32l0xx_hal_dma.c ****     }
 675:../../../../../../Drivers/STM32L0xx_HAL_Driver/Src/stm32l0xx_hal_dma.c ****   }
 676:../../../../../../Drivers/STM32L0xx_HAL_Driver/Src/stm32l0xx_hal_dma.c ****   
 677:../../../../../../Drivers/STM32L0xx_HAL_Driver/Src/stm32l0xx_hal_dma.c ****   /* Transfer Complete Interrupt management ***********************************/
 678:../../../../../../Drivers/STM32L0xx_HAL_Driver/Src/stm32l0xx_hal_dma.c ****   if(__HAL_DMA_GET_FLAG(hdma, __HAL_DMA_GET_TC_FLAG_INDEX(hdma)) != RESET)
 679:../../../../../../Drivers/STM32L0xx_HAL_Driver/Src/stm32l0xx_hal_dma.c ****   {
 680:../../../../../../Drivers/STM32L0xx_HAL_Driver/Src/stm32l0xx_hal_dma.c ****     if(__HAL_DMA_GET_IT_SOURCE(hdma, DMA_IT_TC) != RESET)
 681:../../../../../../Drivers/STM32L0xx_HAL_Driver/Src/stm32l0xx_hal_dma.c ****     {
 682:../../../../../../Drivers/STM32L0xx_HAL_Driver/Src/stm32l0xx_hal_dma.c ****       if((hdma->Instance->CCR & DMA_CCR_CIRC) == 0U)
 683:../../../../../../Drivers/STM32L0xx_HAL_Driver/Src/stm32l0xx_hal_dma.c ****       {
 684:../../../../../../Drivers/STM32L0xx_HAL_Driver/Src/stm32l0xx_hal_dma.c ****         /* Disable the transfer complete interrupt */
 685:../../../../../../Drivers/STM32L0xx_HAL_Driver/Src/stm32l0xx_hal_dma.c ****         __HAL_DMA_DISABLE_IT(hdma, DMA_IT_TC);
 686:../../../../../../Drivers/STM32L0xx_HAL_Driver/Src/stm32l0xx_hal_dma.c ****       }
 687:../../../../../../Drivers/STM32L0xx_HAL_Driver/Src/stm32l0xx_hal_dma.c ****       /* Clear the transfer complete flag */
 688:../../../../../../Drivers/STM32L0xx_HAL_Driver/Src/stm32l0xx_hal_dma.c ****       __HAL_DMA_CLEAR_FLAG(hdma, __HAL_DMA_GET_TC_FLAG_INDEX(hdma));
 689:../../../../../../Drivers/STM32L0xx_HAL_Driver/Src/stm32l0xx_hal_dma.c ****     
 690:../../../../../../Drivers/STM32L0xx_HAL_Driver/Src/stm32l0xx_hal_dma.c ****       /* Update error code */
 691:../../../../../../Drivers/STM32L0xx_HAL_Driver/Src/stm32l0xx_hal_dma.c ****       hdma->ErrorCode |= HAL_DMA_ERROR_NONE;
 692:../../../../../../Drivers/STM32L0xx_HAL_Driver/Src/stm32l0xx_hal_dma.c **** 
 693:../../../../../../Drivers/STM32L0xx_HAL_Driver/Src/stm32l0xx_hal_dma.c ****       /* Change the DMA state */
 694:../../../../../../Drivers/STM32L0xx_HAL_Driver/Src/stm32l0xx_hal_dma.c ****       hdma->State = HAL_DMA_STATE_READY;    
 695:../../../../../../Drivers/STM32L0xx_HAL_Driver/Src/stm32l0xx_hal_dma.c ****     
 696:../../../../../../Drivers/STM32L0xx_HAL_Driver/Src/stm32l0xx_hal_dma.c ****       /* Process Unlocked */
 697:../../../../../../Drivers/STM32L0xx_HAL_Driver/Src/stm32l0xx_hal_dma.c ****       __HAL_UNLOCK(hdma);
 698:../../../../../../Drivers/STM32L0xx_HAL_Driver/Src/stm32l0xx_hal_dma.c ****     
 699:../../../../../../Drivers/STM32L0xx_HAL_Driver/Src/stm32l0xx_hal_dma.c ****       if(hdma->XferCpltCallback != NULL)
 700:../../../../../../Drivers/STM32L0xx_HAL_Driver/Src/stm32l0xx_hal_dma.c ****       {       
 701:../../../../../../Drivers/STM32L0xx_HAL_Driver/Src/stm32l0xx_hal_dma.c ****         /* Transfer complete callback */
 702:../../../../../../Drivers/STM32L0xx_HAL_Driver/Src/stm32l0xx_hal_dma.c ****         hdma->XferCpltCallback(hdma);
 703:../../../../../../Drivers/STM32L0xx_HAL_Driver/Src/stm32l0xx_hal_dma.c ****       }
 704:../../../../../../Drivers/STM32L0xx_HAL_Driver/Src/stm32l0xx_hal_dma.c ****     }
 705:../../../../../../Drivers/STM32L0xx_HAL_Driver/Src/stm32l0xx_hal_dma.c ****   }
 706:../../../../../../Drivers/STM32L0xx_HAL_Driver/Src/stm32l0xx_hal_dma.c **** }  
 707:../../../../../../Drivers/STM32L0xx_HAL_Driver/Src/stm32l0xx_hal_dma.c **** 
 708:../../../../../../Drivers/STM32L0xx_HAL_Driver/Src/stm32l0xx_hal_dma.c **** /**
 709:../../../../../../Drivers/STM32L0xx_HAL_Driver/Src/stm32l0xx_hal_dma.c ****   * @}
ARM GAS  C:\Users\EBANO_~1\AppData\Local\Temp\cc4h82Al.s 			page 25


 710:../../../../../../Drivers/STM32L0xx_HAL_Driver/Src/stm32l0xx_hal_dma.c ****   */
 711:../../../../../../Drivers/STM32L0xx_HAL_Driver/Src/stm32l0xx_hal_dma.c **** 
 712:../../../../../../Drivers/STM32L0xx_HAL_Driver/Src/stm32l0xx_hal_dma.c **** /** @addtogroup DMA_Exported_Functions_Group3 
 713:../../../../../../Drivers/STM32L0xx_HAL_Driver/Src/stm32l0xx_hal_dma.c ****  *  @brief    Peripheral State functions 
 714:../../../../../../Drivers/STM32L0xx_HAL_Driver/Src/stm32l0xx_hal_dma.c ****  *
 715:../../../../../../Drivers/STM32L0xx_HAL_Driver/Src/stm32l0xx_hal_dma.c **** @verbatim   
 716:../../../../../../Drivers/STM32L0xx_HAL_Driver/Src/stm32l0xx_hal_dma.c ****  ===============================================================================
 717:../../../../../../Drivers/STM32L0xx_HAL_Driver/Src/stm32l0xx_hal_dma.c ****                         ##### Peripheral State functions #####
 718:../../../../../../Drivers/STM32L0xx_HAL_Driver/Src/stm32l0xx_hal_dma.c ****  ===============================================================================  
 719:../../../../../../Drivers/STM32L0xx_HAL_Driver/Src/stm32l0xx_hal_dma.c ****     [..]
 720:../../../../../../Drivers/STM32L0xx_HAL_Driver/Src/stm32l0xx_hal_dma.c ****     This subsection provides functions allowing to
 721:../../../../../../Drivers/STM32L0xx_HAL_Driver/Src/stm32l0xx_hal_dma.c ****       (+) Check the DMA state
 722:../../../../../../Drivers/STM32L0xx_HAL_Driver/Src/stm32l0xx_hal_dma.c ****       (+) Get error code
 723:../../../../../../Drivers/STM32L0xx_HAL_Driver/Src/stm32l0xx_hal_dma.c **** 
 724:../../../../../../Drivers/STM32L0xx_HAL_Driver/Src/stm32l0xx_hal_dma.c **** @endverbatim
 725:../../../../../../Drivers/STM32L0xx_HAL_Driver/Src/stm32l0xx_hal_dma.c ****   * @{
 726:../../../../../../Drivers/STM32L0xx_HAL_Driver/Src/stm32l0xx_hal_dma.c ****   */  
 727:../../../../../../Drivers/STM32L0xx_HAL_Driver/Src/stm32l0xx_hal_dma.c **** 
 728:../../../../../../Drivers/STM32L0xx_HAL_Driver/Src/stm32l0xx_hal_dma.c **** /**
 729:../../../../../../Drivers/STM32L0xx_HAL_Driver/Src/stm32l0xx_hal_dma.c ****   * @brief  Returns the DMA state.
 730:../../../../../../Drivers/STM32L0xx_HAL_Driver/Src/stm32l0xx_hal_dma.c ****   * @param  hdma pointer to a DMA_HandleTypeDef structure that contains
 731:../../../../../../Drivers/STM32L0xx_HAL_Driver/Src/stm32l0xx_hal_dma.c ****   *               the configuration information for the specified DMA Channel.  
 732:../../../../../../Drivers/STM32L0xx_HAL_Driver/Src/stm32l0xx_hal_dma.c ****   * @retval HAL state
 733:../../../../../../Drivers/STM32L0xx_HAL_Driver/Src/stm32l0xx_hal_dma.c ****   */
 734:../../../../../../Drivers/STM32L0xx_HAL_Driver/Src/stm32l0xx_hal_dma.c **** HAL_DMA_StateTypeDef HAL_DMA_GetState(DMA_HandleTypeDef *hdma)
 735:../../../../../../Drivers/STM32L0xx_HAL_Driver/Src/stm32l0xx_hal_dma.c **** {
 736:../../../../../../Drivers/STM32L0xx_HAL_Driver/Src/stm32l0xx_hal_dma.c ****   return hdma->State;
 737:../../../../../../Drivers/STM32L0xx_HAL_Driver/Src/stm32l0xx_hal_dma.c **** }
 738:../../../../../../Drivers/STM32L0xx_HAL_Driver/Src/stm32l0xx_hal_dma.c **** 
 739:../../../../../../Drivers/STM32L0xx_HAL_Driver/Src/stm32l0xx_hal_dma.c **** /**
 740:../../../../../../Drivers/STM32L0xx_HAL_Driver/Src/stm32l0xx_hal_dma.c ****   * @brief  Return the DMA error code
 741:../../../../../../Drivers/STM32L0xx_HAL_Driver/Src/stm32l0xx_hal_dma.c ****   * @param  hdma  pointer to a DMA_HandleTypeDef structure that contains
 742:../../../../../../Drivers/STM32L0xx_HAL_Driver/Src/stm32l0xx_hal_dma.c ****   *              the configuration information for the specified DMA Channel.
 743:../../../../../../Drivers/STM32L0xx_HAL_Driver/Src/stm32l0xx_hal_dma.c ****   * @retval DMA Error Code
 744:../../../../../../Drivers/STM32L0xx_HAL_Driver/Src/stm32l0xx_hal_dma.c ****   */
 745:../../../../../../Drivers/STM32L0xx_HAL_Driver/Src/stm32l0xx_hal_dma.c **** uint32_t HAL_DMA_GetError(DMA_HandleTypeDef *hdma)
 746:../../../../../../Drivers/STM32L0xx_HAL_Driver/Src/stm32l0xx_hal_dma.c **** {
 747:../../../../../../Drivers/STM32L0xx_HAL_Driver/Src/stm32l0xx_hal_dma.c ****   return hdma->ErrorCode;
 748:../../../../../../Drivers/STM32L0xx_HAL_Driver/Src/stm32l0xx_hal_dma.c **** }
 749:../../../../../../Drivers/STM32L0xx_HAL_Driver/Src/stm32l0xx_hal_dma.c **** 
 750:../../../../../../Drivers/STM32L0xx_HAL_Driver/Src/stm32l0xx_hal_dma.c **** /**
 751:../../../../../../Drivers/STM32L0xx_HAL_Driver/Src/stm32l0xx_hal_dma.c ****   * @}
 752:../../../../../../Drivers/STM32L0xx_HAL_Driver/Src/stm32l0xx_hal_dma.c ****   */
 753:../../../../../../Drivers/STM32L0xx_HAL_Driver/Src/stm32l0xx_hal_dma.c **** 
 754:../../../../../../Drivers/STM32L0xx_HAL_Driver/Src/stm32l0xx_hal_dma.c **** /**
 755:../../../../../../Drivers/STM32L0xx_HAL_Driver/Src/stm32l0xx_hal_dma.c ****   * @}
 756:../../../../../../Drivers/STM32L0xx_HAL_Driver/Src/stm32l0xx_hal_dma.c ****   */
 757:../../../../../../Drivers/STM32L0xx_HAL_Driver/Src/stm32l0xx_hal_dma.c **** /* Private macro -------------------------------------------------------------*/
 758:../../../../../../Drivers/STM32L0xx_HAL_Driver/Src/stm32l0xx_hal_dma.c **** /* Private variables ---------------------------------------------------------*/
 759:../../../../../../Drivers/STM32L0xx_HAL_Driver/Src/stm32l0xx_hal_dma.c **** 
 760:../../../../../../Drivers/STM32L0xx_HAL_Driver/Src/stm32l0xx_hal_dma.c **** 
 761:../../../../../../Drivers/STM32L0xx_HAL_Driver/Src/stm32l0xx_hal_dma.c **** /* Private function prototypes -----------------------------------------------*/  
 762:../../../../../../Drivers/STM32L0xx_HAL_Driver/Src/stm32l0xx_hal_dma.c **** /** @addtogroup DMA_Private
 763:../../../../../../Drivers/STM32L0xx_HAL_Driver/Src/stm32l0xx_hal_dma.c ****   * @{
 764:../../../../../../Drivers/STM32L0xx_HAL_Driver/Src/stm32l0xx_hal_dma.c ****   */
 765:../../../../../../Drivers/STM32L0xx_HAL_Driver/Src/stm32l0xx_hal_dma.c ****   
 766:../../../../../../Drivers/STM32L0xx_HAL_Driver/Src/stm32l0xx_hal_dma.c ****   /*
ARM GAS  C:\Users\EBANO_~1\AppData\Local\Temp\cc4h82Al.s 			page 26


 767:../../../../../../Drivers/STM32L0xx_HAL_Driver/Src/stm32l0xx_hal_dma.c ****   * @brief  Sets the DMA Transfer parameter.
 768:../../../../../../Drivers/STM32L0xx_HAL_Driver/Src/stm32l0xx_hal_dma.c ****   * @param  hdma       pointer to a DMA_HandleTypeDef structure that contains
 769:../../../../../../Drivers/STM32L0xx_HAL_Driver/Src/stm32l0xx_hal_dma.c ****   *                     the configuration information for the specified DMA Channel.  
 770:../../../../../../Drivers/STM32L0xx_HAL_Driver/Src/stm32l0xx_hal_dma.c ****   * @param  SrcAddress The source memory Buffer address
 771:../../../../../../Drivers/STM32L0xx_HAL_Driver/Src/stm32l0xx_hal_dma.c ****   * @param  DstAddress The destination memory Buffer address
 772:../../../../../../Drivers/STM32L0xx_HAL_Driver/Src/stm32l0xx_hal_dma.c ****   * @param  DataLength The length of data to be transferred from source to destination
 773:../../../../../../Drivers/STM32L0xx_HAL_Driver/Src/stm32l0xx_hal_dma.c ****   * @retval HAL status
 774:../../../../../../Drivers/STM32L0xx_HAL_Driver/Src/stm32l0xx_hal_dma.c ****   */
 775:../../../../../../Drivers/STM32L0xx_HAL_Driver/Src/stm32l0xx_hal_dma.c **** static void DMA_SetConfig(DMA_HandleTypeDef *hdma, uint32_t SrcAddress, uint32_t DstAddress, uint32
 776:../../../../../../Drivers/STM32L0xx_HAL_Driver/Src/stm32l0xx_hal_dma.c **** {  
 777:../../../../../../Drivers/STM32L0xx_HAL_Driver/Src/stm32l0xx_hal_dma.c ****   /* Configure DMA Channel data length */
 778:../../../../../../Drivers/STM32L0xx_HAL_Driver/Src/stm32l0xx_hal_dma.c ****   hdma->Instance->CNDTR = DataLength;
 599              		.loc 1 778 0 discriminator 2
 600 001c 6360     		str	r3, [r4, #4]
 779:../../../../../../Drivers/STM32L0xx_HAL_Driver/Src/stm32l0xx_hal_dma.c ****   
 780:../../../../../../Drivers/STM32L0xx_HAL_Driver/Src/stm32l0xx_hal_dma.c ****   /* Peripheral to Memory */
 781:../../../../../../Drivers/STM32L0xx_HAL_Driver/Src/stm32l0xx_hal_dma.c ****   if((hdma->Init.Direction) == DMA_MEMORY_TO_PERIPH)
 601              		.loc 1 781 0 discriminator 2
 602 001e 8368     		ldr	r3, [r0, #8]
 603              	.LVL35:
 604 0020 102B     		cmp	r3, #16
 605 0022 07D0     		beq	.L45
 782:../../../../../../Drivers/STM32L0xx_HAL_Driver/Src/stm32l0xx_hal_dma.c ****   {   
 783:../../../../../../Drivers/STM32L0xx_HAL_Driver/Src/stm32l0xx_hal_dma.c ****     /* Configure DMA Channel destination address */
 784:../../../../../../Drivers/STM32L0xx_HAL_Driver/Src/stm32l0xx_hal_dma.c ****     hdma->Instance->CPAR = DstAddress;
 785:../../../../../../Drivers/STM32L0xx_HAL_Driver/Src/stm32l0xx_hal_dma.c ****     
 786:../../../../../../Drivers/STM32L0xx_HAL_Driver/Src/stm32l0xx_hal_dma.c ****     /* Configure DMA Channel source address */
 787:../../../../../../Drivers/STM32L0xx_HAL_Driver/Src/stm32l0xx_hal_dma.c ****     hdma->Instance->CMAR = SrcAddress;
 788:../../../../../../Drivers/STM32L0xx_HAL_Driver/Src/stm32l0xx_hal_dma.c ****   }
 789:../../../../../../Drivers/STM32L0xx_HAL_Driver/Src/stm32l0xx_hal_dma.c ****   /* Memory to Peripheral */
 790:../../../../../../Drivers/STM32L0xx_HAL_Driver/Src/stm32l0xx_hal_dma.c ****   else
 791:../../../../../../Drivers/STM32L0xx_HAL_Driver/Src/stm32l0xx_hal_dma.c ****   {
 792:../../../../../../Drivers/STM32L0xx_HAL_Driver/Src/stm32l0xx_hal_dma.c ****     /* Configure DMA Channel source address */
 793:../../../../../../Drivers/STM32L0xx_HAL_Driver/Src/stm32l0xx_hal_dma.c ****     hdma->Instance->CPAR = SrcAddress;
 606              		.loc 1 793 0
 607 0024 A160     		str	r1, [r4, #8]
 608              	.LVL36:
 794:../../../../../../Drivers/STM32L0xx_HAL_Driver/Src/stm32l0xx_hal_dma.c ****     
 795:../../../../../../Drivers/STM32L0xx_HAL_Driver/Src/stm32l0xx_hal_dma.c ****     /* Configure DMA Channel destination address */
 796:../../../../../../Drivers/STM32L0xx_HAL_Driver/Src/stm32l0xx_hal_dma.c ****     hdma->Instance->CMAR = DstAddress;
 609              		.loc 1 796 0
 610 0026 E260     		str	r2, [r4, #12]
 611              	.L43:
 612              	.LVL37:
 613              	.LBE7:
 614              	.LBE6:
 392:../../../../../../Drivers/STM32L0xx_HAL_Driver/Src/stm32l0xx_hal_dma.c **** 
 615              		.loc 1 392 0 discriminator 2
 616 0028 0122     		movs	r2, #1
 617              	.LVL38:
 394:../../../../../../Drivers/STM32L0xx_HAL_Driver/Src/stm32l0xx_hal_dma.c **** } 
 618              		.loc 1 394 0 discriminator 2
 619 002a 0020     		movs	r0, #0
 620              	.LVL39:
 392:../../../../../../Drivers/STM32L0xx_HAL_Driver/Src/stm32l0xx_hal_dma.c **** 
 621              		.loc 1 392 0 discriminator 2
 622 002c 2368     		ldr	r3, [r4]
ARM GAS  C:\Users\EBANO_~1\AppData\Local\Temp\cc4h82Al.s 			page 27


 623 002e 1343     		orrs	r3, r2
 624 0030 2360     		str	r3, [r4]
 625              	.L41:
 395:../../../../../../Drivers/STM32L0xx_HAL_Driver/Src/stm32l0xx_hal_dma.c **** 
 626              		.loc 1 395 0
 627              		@ sp needed
 628 0032 70BD     		pop	{r4, r5, r6, pc}
 629              	.LVL40:
 630              	.L45:
 631              	.LBB9:
 632              	.LBB8:
 784:../../../../../../Drivers/STM32L0xx_HAL_Driver/Src/stm32l0xx_hal_dma.c ****     
 633              		.loc 1 784 0
 634 0034 A260     		str	r2, [r4, #8]
 635              	.LVL41:
 787:../../../../../../Drivers/STM32L0xx_HAL_Driver/Src/stm32l0xx_hal_dma.c ****   }
 636              		.loc 1 787 0
 637 0036 E160     		str	r1, [r4, #12]
 638 0038 F6E7     		b	.L43
 639              	.LVL42:
 640              	.L44:
 641              	.LBE8:
 642              	.LBE9:
 377:../../../../../../Drivers/STM32L0xx_HAL_Driver/Src/stm32l0xx_hal_dma.c **** 
 643              		.loc 1 377 0
 644 003a 0220     		movs	r0, #2
 645              	.LVL43:
 646 003c F9E7     		b	.L41
 647              		.cfi_endproc
 648              	.LFE41:
 649              		.size	HAL_DMA_Start, .-HAL_DMA_Start
 650 003e C046     		.section	.text.HAL_DMA_Start_IT,"ax",%progbits
 651              		.align	1
 652              		.p2align 2,,3
 653              		.global	HAL_DMA_Start_IT
 654              		.syntax unified
 655              		.code	16
 656              		.thumb_func
 657              		.fpu softvfp
 658              		.type	HAL_DMA_Start_IT, %function
 659              	HAL_DMA_Start_IT:
 660              	.LFB42:
 407:../../../../../../Drivers/STM32L0xx_HAL_Driver/Src/stm32l0xx_hal_dma.c ****   /* Process locked */
 661              		.loc 1 407 0
 662              		.cfi_startproc
 663              		@ args = 0, pretend = 0, frame = 0
 664              		@ frame_needed = 0, uses_anonymous_args = 0
 665              	.LVL44:
 666 0000 70B5     		push	{r4, r5, r6, lr}
 667              	.LCFI2:
 668              		.cfi_def_cfa_offset 16
 669              		.cfi_offset 4, -16
 670              		.cfi_offset 5, -12
 671              		.cfi_offset 6, -8
 672              		.cfi_offset 14, -4
 409:../../../../../../Drivers/STM32L0xx_HAL_Driver/Src/stm32l0xx_hal_dma.c **** 
 673              		.loc 1 409 0
ARM GAS  C:\Users\EBANO_~1\AppData\Local\Temp\cc4h82Al.s 			page 28


 674 0002 2424     		movs	r4, #36
 675 0004 055D     		ldrb	r5, [r0, r4]
 676 0006 012D     		cmp	r5, #1
 677 0008 23D0     		beq	.L50
 409:../../../../../../Drivers/STM32L0xx_HAL_Driver/Src/stm32l0xx_hal_dma.c **** 
 678              		.loc 1 409 0 is_stmt 0 discriminator 2
 679 000a 0126     		movs	r6, #1
 412:../../../../../../Drivers/STM32L0xx_HAL_Driver/Src/stm32l0xx_hal_dma.c **** 
 680              		.loc 1 412 0 is_stmt 1 discriminator 2
 681 000c 0225     		movs	r5, #2
 409:../../../../../../Drivers/STM32L0xx_HAL_Driver/Src/stm32l0xx_hal_dma.c **** 
 682              		.loc 1 409 0 discriminator 2
 683 000e 0655     		strb	r6, [r0, r4]
 412:../../../../../../Drivers/STM32L0xx_HAL_Driver/Src/stm32l0xx_hal_dma.c **** 
 684              		.loc 1 412 0 discriminator 2
 685 0010 0134     		adds	r4, r4, #1
 686 0012 0555     		strb	r5, [r0, r4]
 418:../../../../../../Drivers/STM32L0xx_HAL_Driver/Src/stm32l0xx_hal_dma.c ****   
 687              		.loc 1 418 0 discriminator 2
 688 0014 0468     		ldr	r4, [r0]
 689 0016 2568     		ldr	r5, [r4]
 690 0018 B543     		bics	r5, r6
 691 001a 2560     		str	r5, [r4]
 692              	.LVL45:
 693              	.LBB10:
 694              	.LBB11:
 778:../../../../../../Drivers/STM32L0xx_HAL_Driver/Src/stm32l0xx_hal_dma.c ****   
 695              		.loc 1 778 0 discriminator 2
 696 001c 6360     		str	r3, [r4, #4]
 781:../../../../../../Drivers/STM32L0xx_HAL_Driver/Src/stm32l0xx_hal_dma.c ****   {   
 697              		.loc 1 781 0 discriminator 2
 698 001e 8368     		ldr	r3, [r0, #8]
 699              	.LVL46:
 700 0020 102B     		cmp	r3, #16
 701 0022 13D0     		beq	.L51
 793:../../../../../../Drivers/STM32L0xx_HAL_Driver/Src/stm32l0xx_hal_dma.c ****     
 702              		.loc 1 793 0
 703 0024 A160     		str	r1, [r4, #8]
 704              	.LVL47:
 705              		.loc 1 796 0
 706 0026 E260     		str	r2, [r4, #12]
 707              	.L49:
 708              	.LVL48:
 709              	.LBE11:
 710              	.LBE10:
 424:../../../../../../Drivers/STM32L0xx_HAL_Driver/Src/stm32l0xx_hal_dma.c **** 
 711              		.loc 1 424 0 discriminator 2
 712 0028 0222     		movs	r2, #2
 713              	.LVL49:
 435:../../../../../../Drivers/STM32L0xx_HAL_Driver/Src/stm32l0xx_hal_dma.c **** } 
 714              		.loc 1 435 0 discriminator 2
 715 002a 0020     		movs	r0, #0
 716              	.LVL50:
 424:../../../../../../Drivers/STM32L0xx_HAL_Driver/Src/stm32l0xx_hal_dma.c **** 
 717              		.loc 1 424 0 discriminator 2
 718 002c 2368     		ldr	r3, [r4]
 719 002e 1343     		orrs	r3, r2
ARM GAS  C:\Users\EBANO_~1\AppData\Local\Temp\cc4h82Al.s 			page 29


 720 0030 2360     		str	r3, [r4]
 427:../../../../../../Drivers/STM32L0xx_HAL_Driver/Src/stm32l0xx_hal_dma.c **** 
 721              		.loc 1 427 0 discriminator 2
 722 0032 2368     		ldr	r3, [r4]
 723 0034 0232     		adds	r2, r2, #2
 724 0036 1343     		orrs	r3, r2
 725 0038 2360     		str	r3, [r4]
 430:../../../../../../Drivers/STM32L0xx_HAL_Driver/Src/stm32l0xx_hal_dma.c ****   
 726              		.loc 1 430 0 discriminator 2
 727 003a 2368     		ldr	r3, [r4]
 728 003c 0432     		adds	r2, r2, #4
 729 003e 1343     		orrs	r3, r2
 730 0040 2360     		str	r3, [r4]
 433:../../../../../../Drivers/STM32L0xx_HAL_Driver/Src/stm32l0xx_hal_dma.c ****   
 731              		.loc 1 433 0 discriminator 2
 732 0042 2368     		ldr	r3, [r4]
 733 0044 073A     		subs	r2, r2, #7
 734 0046 1343     		orrs	r3, r2
 735 0048 2360     		str	r3, [r4]
 736              	.L47:
 436:../../../../../../Drivers/STM32L0xx_HAL_Driver/Src/stm32l0xx_hal_dma.c **** 
 737              		.loc 1 436 0
 738              		@ sp needed
 739 004a 70BD     		pop	{r4, r5, r6, pc}
 740              	.LVL51:
 741              	.L51:
 742              	.LBB13:
 743              	.LBB12:
 784:../../../../../../Drivers/STM32L0xx_HAL_Driver/Src/stm32l0xx_hal_dma.c ****     
 744              		.loc 1 784 0
 745 004c A260     		str	r2, [r4, #8]
 746              	.LVL52:
 787:../../../../../../Drivers/STM32L0xx_HAL_Driver/Src/stm32l0xx_hal_dma.c ****   }
 747              		.loc 1 787 0
 748 004e E160     		str	r1, [r4, #12]
 749 0050 EAE7     		b	.L49
 750              	.LVL53:
 751              	.L50:
 752              	.LBE12:
 753              	.LBE13:
 409:../../../../../../Drivers/STM32L0xx_HAL_Driver/Src/stm32l0xx_hal_dma.c **** 
 754              		.loc 1 409 0
 755 0052 0220     		movs	r0, #2
 756              	.LVL54:
 757 0054 F9E7     		b	.L47
 758              		.cfi_endproc
 759              	.LFE42:
 760              		.size	HAL_DMA_Start_IT, .-HAL_DMA_Start_IT
 761 0056 C046     		.section	.text.HAL_DMA_Abort,"ax",%progbits
 762              		.align	1
 763              		.p2align 2,,3
 764              		.global	HAL_DMA_Abort
 765              		.syntax unified
 766              		.code	16
 767              		.thumb_func
 768              		.fpu softvfp
 769              		.type	HAL_DMA_Abort, %function
ARM GAS  C:\Users\EBANO_~1\AppData\Local\Temp\cc4h82Al.s 			page 30


 770              	HAL_DMA_Abort:
 771              	.LFB43:
 445:../../../../../../Drivers/STM32L0xx_HAL_Driver/Src/stm32l0xx_hal_dma.c ****   uint32_t tickstart = 0U;
 772              		.loc 1 445 0
 773              		.cfi_startproc
 774              		@ args = 0, pretend = 0, frame = 0
 775              		@ frame_needed = 0, uses_anonymous_args = 0
 776              	.LVL55:
 449:../../../../../../Drivers/STM32L0xx_HAL_Driver/Src/stm32l0xx_hal_dma.c ****   
 777              		.loc 1 449 0
 778 0000 0121     		movs	r1, #1
 779 0002 0268     		ldr	r2, [r0]
 445:../../../../../../Drivers/STM32L0xx_HAL_Driver/Src/stm32l0xx_hal_dma.c ****   uint32_t tickstart = 0U;
 780              		.loc 1 445 0
 781 0004 F8B5     		push	{r3, r4, r5, r6, r7, lr}
 782              	.LCFI3:
 783              		.cfi_def_cfa_offset 24
 784              		.cfi_offset 3, -24
 785              		.cfi_offset 4, -20
 786              		.cfi_offset 5, -16
 787              		.cfi_offset 6, -12
 788              		.cfi_offset 7, -8
 789              		.cfi_offset 14, -4
 449:../../../../../../Drivers/STM32L0xx_HAL_Driver/Src/stm32l0xx_hal_dma.c ****   
 790              		.loc 1 449 0
 791 0006 1368     		ldr	r3, [r2]
 445:../../../../../../Drivers/STM32L0xx_HAL_Driver/Src/stm32l0xx_hal_dma.c ****   uint32_t tickstart = 0U;
 792              		.loc 1 445 0
 793 0008 0400     		movs	r4, r0
 449:../../../../../../Drivers/STM32L0xx_HAL_Driver/Src/stm32l0xx_hal_dma.c ****   
 794              		.loc 1 449 0
 795 000a 8B43     		bics	r3, r1
 796 000c 1360     		str	r3, [r2]
 452:../../../../../../Drivers/STM32L0xx_HAL_Driver/Src/stm32l0xx_hal_dma.c ****   
 797              		.loc 1 452 0
 798 000e FFF7FEFF 		bl	HAL_GetTick
 799              	.LVL56:
 458:../../../../../../Drivers/STM32L0xx_HAL_Driver/Src/stm32l0xx_hal_dma.c ****     {
 800              		.loc 1 458 0
 801 0012 FA26     		movs	r6, #250
 452:../../../../../../Drivers/STM32L0xx_HAL_Driver/Src/stm32l0xx_hal_dma.c ****   
 802              		.loc 1 452 0
 803 0014 0700     		movs	r7, r0
 804              	.LVL57:
 455:../../../../../../Drivers/STM32L0xx_HAL_Driver/Src/stm32l0xx_hal_dma.c ****   {
 805              		.loc 1 455 0
 806 0016 0125     		movs	r5, #1
 458:../../../../../../Drivers/STM32L0xx_HAL_Driver/Src/stm32l0xx_hal_dma.c ****     {
 807              		.loc 1 458 0
 808 0018 B600     		lsls	r6, r6, #2
 455:../../../../../../Drivers/STM32L0xx_HAL_Driver/Src/stm32l0xx_hal_dma.c ****   {
 809              		.loc 1 455 0
 810 001a 04E0     		b	.L53
 811              	.LVL58:
 812              	.L55:
 458:../../../../../../Drivers/STM32L0xx_HAL_Driver/Src/stm32l0xx_hal_dma.c ****     {
 813              		.loc 1 458 0
ARM GAS  C:\Users\EBANO_~1\AppData\Local\Temp\cc4h82Al.s 			page 31


 814 001c FFF7FEFF 		bl	HAL_GetTick
 815              	.LVL59:
 816 0020 C01B     		subs	r0, r0, r7
 817 0022 B042     		cmp	r0, r6
 818 0024 09D8     		bhi	.L57
 819              	.L53:
 455:../../../../../../Drivers/STM32L0xx_HAL_Driver/Src/stm32l0xx_hal_dma.c ****   {
 820              		.loc 1 455 0
 821 0026 2368     		ldr	r3, [r4]
 822 0028 1B68     		ldr	r3, [r3]
 823 002a 2B40     		ands	r3, r5
 824 002c F6D1     		bne	.L55
 473:../../../../../../Drivers/STM32L0xx_HAL_Driver/Src/stm32l0xx_hal_dma.c ****   
 825              		.loc 1 473 0
 826 002e 2422     		movs	r2, #36
 478:../../../../../../Drivers/STM32L0xx_HAL_Driver/Src/stm32l0xx_hal_dma.c **** }
 827              		.loc 1 478 0
 828 0030 0020     		movs	r0, #0
 473:../../../../../../Drivers/STM32L0xx_HAL_Driver/Src/stm32l0xx_hal_dma.c ****   
 829              		.loc 1 473 0
 830 0032 A354     		strb	r3, [r4, r2]
 476:../../../../../../Drivers/STM32L0xx_HAL_Driver/Src/stm32l0xx_hal_dma.c ****   
 831              		.loc 1 476 0
 832 0034 2533     		adds	r3, r3, #37
 833 0036 E554     		strb	r5, [r4, r3]
 834              	.L54:
 479:../../../../../../Drivers/STM32L0xx_HAL_Driver/Src/stm32l0xx_hal_dma.c **** 
 835              		.loc 1 479 0
 836              		@ sp needed
 837              	.LVL60:
 838              	.LVL61:
 839 0038 F8BD     		pop	{r3, r4, r5, r6, r7, pc}
 840              	.LVL62:
 841              	.L57:
 461:../../../../../../Drivers/STM32L0xx_HAL_Driver/Src/stm32l0xx_hal_dma.c ****       
 842              		.loc 1 461 0
 843 003a 2022     		movs	r2, #32
 844 003c E36B     		ldr	r3, [r4, #60]
 469:../../../../../../Drivers/STM32L0xx_HAL_Driver/Src/stm32l0xx_hal_dma.c ****     }
 845              		.loc 1 469 0
 846 003e 0320     		movs	r0, #3
 461:../../../../../../Drivers/STM32L0xx_HAL_Driver/Src/stm32l0xx_hal_dma.c ****       
 847              		.loc 1 461 0
 848 0040 1343     		orrs	r3, r2
 849 0042 E363     		str	r3, [r4, #60]
 464:../../../../../../Drivers/STM32L0xx_HAL_Driver/Src/stm32l0xx_hal_dma.c ****       
 850              		.loc 1 464 0
 851 0044 0022     		movs	r2, #0
 852 0046 2423     		movs	r3, #36
 853 0048 E254     		strb	r2, [r4, r3]
 467:../../../../../../Drivers/STM32L0xx_HAL_Driver/Src/stm32l0xx_hal_dma.c ****       
 854              		.loc 1 467 0
 855 004a 0133     		adds	r3, r3, #1
 856 004c 0332     		adds	r2, r2, #3
 857 004e E254     		strb	r2, [r4, r3]
 469:../../../../../../Drivers/STM32L0xx_HAL_Driver/Src/stm32l0xx_hal_dma.c ****     }
 858              		.loc 1 469 0
ARM GAS  C:\Users\EBANO_~1\AppData\Local\Temp\cc4h82Al.s 			page 32


 859 0050 F2E7     		b	.L54
 860              		.cfi_endproc
 861              	.LFE43:
 862              		.size	HAL_DMA_Abort, .-HAL_DMA_Abort
 863 0052 C046     		.section	.text.HAL_DMA_Abort_IT,"ax",%progbits
 864              		.align	1
 865              		.p2align 2,,3
 866              		.global	HAL_DMA_Abort_IT
 867              		.syntax unified
 868              		.code	16
 869              		.thumb_func
 870              		.fpu softvfp
 871              		.type	HAL_DMA_Abort_IT, %function
 872              	HAL_DMA_Abort_IT:
 873              	.LFB44:
 488:../../../../../../Drivers/STM32L0xx_HAL_Driver/Src/stm32l0xx_hal_dma.c ****   HAL_StatusTypeDef status = HAL_OK;
 874              		.loc 1 488 0
 875              		.cfi_startproc
 876              		@ args = 0, pretend = 0, frame = 0
 877              		@ frame_needed = 0, uses_anonymous_args = 0
 878              	.LVL63:
 491:../../../../../../Drivers/STM32L0xx_HAL_Driver/Src/stm32l0xx_hal_dma.c ****   {
 879              		.loc 1 491 0
 880 0000 2523     		movs	r3, #37
 488:../../../../../../Drivers/STM32L0xx_HAL_Driver/Src/stm32l0xx_hal_dma.c ****   HAL_StatusTypeDef status = HAL_OK;
 881              		.loc 1 488 0
 882 0002 10B5     		push	{r4, lr}
 883              	.LCFI4:
 884              		.cfi_def_cfa_offset 8
 885              		.cfi_offset 4, -8
 886              		.cfi_offset 14, -4
 491:../../../../../../Drivers/STM32L0xx_HAL_Driver/Src/stm32l0xx_hal_dma.c ****   {
 887              		.loc 1 491 0
 888 0004 C35C     		ldrb	r3, [r0, r3]
 889 0006 022B     		cmp	r3, #2
 890 0008 03D0     		beq	.L59
 494:../../../../../../Drivers/STM32L0xx_HAL_Driver/Src/stm32l0xx_hal_dma.c ****         
 891              		.loc 1 494 0
 892 000a 0423     		movs	r3, #4
 893 000c C363     		str	r3, [r0, #60]
 894              	.LVL64:
 496:../../../../../../Drivers/STM32L0xx_HAL_Driver/Src/stm32l0xx_hal_dma.c ****   }
 895              		.loc 1 496 0
 896 000e 0120     		movs	r0, #1
 897              	.LVL65:
 898              	.L60:
 522:../../../../../../Drivers/STM32L0xx_HAL_Driver/Src/stm32l0xx_hal_dma.c **** 
 899              		.loc 1 522 0
 900              		@ sp needed
 901 0010 10BD     		pop	{r4, pc}
 902              	.LVL66:
 903              	.L59:
 501:../../../../../../Drivers/STM32L0xx_HAL_Driver/Src/stm32l0xx_hal_dma.c ****     
 904              		.loc 1 501 0
 905 0012 0E21     		movs	r1, #14
 906 0014 0368     		ldr	r3, [r0]
 907 0016 1A68     		ldr	r2, [r3]
ARM GAS  C:\Users\EBANO_~1\AppData\Local\Temp\cc4h82Al.s 			page 33


 908 0018 8A43     		bics	r2, r1
 909 001a 1A60     		str	r2, [r3]
 504:../../../../../../Drivers/STM32L0xx_HAL_Driver/Src/stm32l0xx_hal_dma.c ****     
 910              		.loc 1 504 0
 911 001c 1A68     		ldr	r2, [r3]
 912 001e 0D39     		subs	r1, r1, #13
 913 0020 8A43     		bics	r2, r1
 914 0022 1A60     		str	r2, [r3]
 507:../../../../../../Drivers/STM32L0xx_HAL_Driver/Src/stm32l0xx_hal_dma.c ****     
 915              		.loc 1 507 0
 916 0024 1B4A     		ldr	r2, .L69
 917 0026 9342     		cmp	r3, r2
 918 0028 27D0     		beq	.L62
 507:../../../../../../Drivers/STM32L0xx_HAL_Driver/Src/stm32l0xx_hal_dma.c ****     
 919              		.loc 1 507 0 is_stmt 0 discriminator 1
 920 002a 1B4A     		ldr	r2, .L69+4
 921 002c 9342     		cmp	r3, r2
 922 002e 22D0     		beq	.L63
 507:../../../../../../Drivers/STM32L0xx_HAL_Driver/Src/stm32l0xx_hal_dma.c ****     
 923              		.loc 1 507 0 discriminator 3
 924 0030 1A4A     		ldr	r2, .L69+8
 925 0032 9342     		cmp	r3, r2
 926 0034 23D0     		beq	.L64
 507:../../../../../../Drivers/STM32L0xx_HAL_Driver/Src/stm32l0xx_hal_dma.c ****     
 927              		.loc 1 507 0 discriminator 5
 928 0036 1A4A     		ldr	r2, .L69+12
 929 0038 9342     		cmp	r3, r2
 930 003a 23D0     		beq	.L65
 507:../../../../../../Drivers/STM32L0xx_HAL_Driver/Src/stm32l0xx_hal_dma.c ****     
 931              		.loc 1 507 0 discriminator 7
 932 003c 194A     		ldr	r2, .L69+16
 933 003e 9342     		cmp	r3, r2
 934 0040 23D0     		beq	.L66
 507:../../../../../../Drivers/STM32L0xx_HAL_Driver/Src/stm32l0xx_hal_dma.c ****     
 935              		.loc 1 507 0 discriminator 9
 936 0042 194A     		ldr	r2, .L69+20
 937 0044 9446     		mov	ip, r2
 938 0046 6344     		add	r3, r3, ip
 939 0048 5A42     		rsbs	r2, r3, #0
 940 004a 5341     		adcs	r3, r3, r2
 941 004c 174A     		ldr	r2, .L69+24
 942 004e 5B42     		rsbs	r3, r3, #0
 943 0050 1340     		ands	r3, r2
 944 0052 8022     		movs	r2, #128
 945 0054 5204     		lsls	r2, r2, #17
 946 0056 9446     		mov	ip, r2
 947 0058 6344     		add	r3, r3, ip
 948              	.L61:
 507:../../../../../../Drivers/STM32L0xx_HAL_Driver/Src/stm32l0xx_hal_dma.c ****     
 949              		.loc 1 507 0 discriminator 24
 950 005a 154A     		ldr	r2, .L69+28
 951 005c 5360     		str	r3, [r2, #4]
 510:../../../../../../Drivers/STM32L0xx_HAL_Driver/Src/stm32l0xx_hal_dma.c ****     
 952              		.loc 1 510 0 is_stmt 1 discriminator 24
 953 005e 2523     		movs	r3, #37
 954 0060 0122     		movs	r2, #1
 955 0062 C254     		strb	r2, [r0, r3]
ARM GAS  C:\Users\EBANO_~1\AppData\Local\Temp\cc4h82Al.s 			page 34


 513:../../../../../../Drivers/STM32L0xx_HAL_Driver/Src/stm32l0xx_hal_dma.c ****     
 956              		.loc 1 513 0 discriminator 24
 957 0064 0022     		movs	r2, #0
 958 0066 013B     		subs	r3, r3, #1
 959 0068 C254     		strb	r2, [r0, r3]
 516:../../../../../../Drivers/STM32L0xx_HAL_Driver/Src/stm32l0xx_hal_dma.c ****     {
 960              		.loc 1 516 0 discriminator 24
 961 006a 836B     		ldr	r3, [r0, #56]
 962 006c 002B     		cmp	r3, #0
 963 006e 0FD0     		beq	.L68
 518:../../../../../../Drivers/STM32L0xx_HAL_Driver/Src/stm32l0xx_hal_dma.c ****     } 
 964              		.loc 1 518 0
 965 0070 9847     		blx	r3
 966              	.LVL67:
 489:../../../../../../Drivers/STM32L0xx_HAL_Driver/Src/stm32l0xx_hal_dma.c ****   
 967              		.loc 1 489 0
 968 0072 0020     		movs	r0, #0
 969 0074 CCE7     		b	.L60
 970              	.LVL68:
 971              	.L63:
 507:../../../../../../Drivers/STM32L0xx_HAL_Driver/Src/stm32l0xx_hal_dma.c ****     
 972              		.loc 1 507 0
 973 0076 1023     		movs	r3, #16
 974 0078 EFE7     		b	.L61
 975              	.L62:
 976 007a 0123     		movs	r3, #1
 977 007c EDE7     		b	.L61
 978              	.L64:
 979 007e 8023     		movs	r3, #128
 980 0080 5B00     		lsls	r3, r3, #1
 981 0082 EAE7     		b	.L61
 982              	.L65:
 983 0084 8023     		movs	r3, #128
 984 0086 5B01     		lsls	r3, r3, #5
 985 0088 E7E7     		b	.L61
 986              	.L66:
 987 008a 8023     		movs	r3, #128
 988 008c 5B02     		lsls	r3, r3, #9
 989 008e E4E7     		b	.L61
 990              	.L68:
 489:../../../../../../Drivers/STM32L0xx_HAL_Driver/Src/stm32l0xx_hal_dma.c ****   
 991              		.loc 1 489 0
 992 0090 0020     		movs	r0, #0
 993              	.LVL69:
 994 0092 BDE7     		b	.L60
 995              	.L70:
 996              		.align	2
 997              	.L69:
 998 0094 08000240 		.word	1073872904
 999 0098 1C000240 		.word	1073872924
 1000 009c 30000240 		.word	1073872944
 1001 00a0 44000240 		.word	1073872964
 1002 00a4 58000240 		.word	1073872984
 1003 00a8 94FFFDBF 		.word	-1073873004
 1004 00ac 000010FF 		.word	-15728640
 1005 00b0 00000240 		.word	1073872896
 1006              		.cfi_endproc
ARM GAS  C:\Users\EBANO_~1\AppData\Local\Temp\cc4h82Al.s 			page 35


 1007              	.LFE44:
 1008              		.size	HAL_DMA_Abort_IT, .-HAL_DMA_Abort_IT
 1009              		.section	.text.HAL_DMA_PollForTransfer,"ax",%progbits
 1010              		.align	1
 1011              		.p2align 2,,3
 1012              		.global	HAL_DMA_PollForTransfer
 1013              		.syntax unified
 1014              		.code	16
 1015              		.thumb_func
 1016              		.fpu softvfp
 1017              		.type	HAL_DMA_PollForTransfer, %function
 1018              	HAL_DMA_PollForTransfer:
 1019              	.LFB45:
 533:../../../../../../Drivers/STM32L0xx_HAL_Driver/Src/stm32l0xx_hal_dma.c ****   uint32_t temp;
 1020              		.loc 1 533 0
 1021              		.cfi_startproc
 1022              		@ args = 0, pretend = 0, frame = 8
 1023              		@ frame_needed = 0, uses_anonymous_args = 0
 1024              	.LVL70:
 1025 0000 F0B5     		push	{r4, r5, r6, r7, lr}
 1026              	.LCFI5:
 1027              		.cfi_def_cfa_offset 20
 1028              		.cfi_offset 4, -20
 1029              		.cfi_offset 5, -16
 1030              		.cfi_offset 6, -12
 1031              		.cfi_offset 7, -8
 1032              		.cfi_offset 14, -4
 1033 0002 4E46     		mov	r6, r9
 1034 0004 4546     		mov	r5, r8
 1035 0006 DE46     		mov	lr, fp
 1036 0008 5746     		mov	r7, r10
 1037 000a E0B5     		push	{r5, r6, r7, lr}
 1038              	.LCFI6:
 1039              		.cfi_def_cfa_offset 36
 1040              		.cfi_offset 8, -36
 1041              		.cfi_offset 9, -32
 1042              		.cfi_offset 10, -28
 1043              		.cfi_offset 11, -24
 1044 000c 83B0     		sub	sp, sp, #12
 1045              	.LCFI7:
 1046              		.cfi_def_cfa_offset 48
 533:../../../../../../Drivers/STM32L0xx_HAL_Driver/Src/stm32l0xx_hal_dma.c ****   uint32_t temp;
 1047              		.loc 1 533 0
 1048 000e 0500     		movs	r5, r0
 1049 0010 0191     		str	r1, [sp, #4]
 1050 0012 1600     		movs	r6, r2
 1051 0014 0368     		ldr	r3, [r0]
 538:../../../../../../Drivers/STM32L0xx_HAL_Driver/Src/stm32l0xx_hal_dma.c ****   {
 1052              		.loc 1 538 0
 1053 0016 0029     		cmp	r1, #0
 1054 0018 00D0     		beq	.LCB961
 1055 001a 70E0     		b	.L72	@long jump
 1056              	.LCB961:
 541:../../../../../../Drivers/STM32L0xx_HAL_Driver/Src/stm32l0xx_hal_dma.c ****   }
 1057              		.loc 1 541 0
 1058 001c C24A     		ldr	r2, .L173
 1059              	.LVL71:
ARM GAS  C:\Users\EBANO_~1\AppData\Local\Temp\cc4h82Al.s 			page 36


 1060 001e 9342     		cmp	r3, r2
 1061 0020 00D1     		bne	.LCB965
 1062 0022 8EE0     		b	.L107	@long jump
 1063              	.LCB965:
 541:../../../../../../Drivers/STM32L0xx_HAL_Driver/Src/stm32l0xx_hal_dma.c ****   }
 1064              		.loc 1 541 0 is_stmt 0 discriminator 1
 1065 0024 C14A     		ldr	r2, .L173+4
 1066 0026 9342     		cmp	r3, r2
 1067 0028 00D1     		bne	.LCB968
 1068 002a 1BE1     		b	.L108	@long jump
 1069              	.LCB968:
 541:../../../../../../Drivers/STM32L0xx_HAL_Driver/Src/stm32l0xx_hal_dma.c ****   }
 1070              		.loc 1 541 0 discriminator 3
 1071 002c C04A     		ldr	r2, .L173+8
 1072 002e 9342     		cmp	r3, r2
 1073 0030 00D1     		bne	.LCB971
 1074 0032 88E0     		b	.L109	@long jump
 1075              	.LCB971:
 541:../../../../../../Drivers/STM32L0xx_HAL_Driver/Src/stm32l0xx_hal_dma.c ****   }
 1076              		.loc 1 541 0 discriminator 5
 1077 0034 BF4A     		ldr	r2, .L173+12
 1078 0036 9342     		cmp	r3, r2
 1079 0038 00D1     		bne	.LCB974
 1080 003a 6EE1     		b	.L110	@long jump
 1081              	.LCB974:
 541:../../../../../../Drivers/STM32L0xx_HAL_Driver/Src/stm32l0xx_hal_dma.c ****   }
 1082              		.loc 1 541 0 discriminator 7
 1083 003c BE4A     		ldr	r2, .L173+16
 1084 003e 9342     		cmp	r3, r2
 1085 0040 00D1     		bne	.LCB977
 1086 0042 A1E1     		b	.L111	@long jump
 1087              	.LCB977:
 541:../../../../../../Drivers/STM32L0xx_HAL_Driver/Src/stm32l0xx_hal_dma.c ****   }
 1088              		.loc 1 541 0 discriminator 9
 1089 0044 BD4A     		ldr	r2, .L173+20
 1090 0046 9446     		mov	ip, r2
 1091 0048 6344     		add	r3, r3, ip
 1092 004a 5C1E     		subs	r4, r3, #1
 1093 004c A341     		sbcs	r3, r3, r4
 1094 004e 5C42     		rsbs	r4, r3, #0
 1095 0050 F023     		movs	r3, #240
 1096 0052 5B04     		lsls	r3, r3, #17
 1097 0054 1C40     		ands	r4, r3
 1098 0056 8023     		movs	r3, #128
 1099 0058 9B03     		lsls	r3, r3, #14
 1100 005a 9C46     		mov	ip, r3
 1101 005c 6444     		add	r4, r4, ip
 1102              	.L73:
 1103              	.LVL72:
 550:../../../../../../Drivers/STM32L0xx_HAL_Driver/Src/stm32l0xx_hal_dma.c **** 
 1104              		.loc 1 550 0 is_stmt 1
 1105 005e FFF7FEFF 		bl	HAL_GetTick
 1106              	.LVL73:
 1107 0062 B74B     		ldr	r3, .L173+24
 1108 0064 8146     		mov	r9, r0
 1109              	.LVL74:
 1110 0066 9B46     		mov	fp, r3
ARM GAS  C:\Users\EBANO_~1\AppData\Local\Temp\cc4h82Al.s 			page 37


 552:../../../../../../Drivers/STM32L0xx_HAL_Driver/Src/stm32l0xx_hal_dma.c ****   {
 1111              		.loc 1 552 0
 1112 0068 B64B     		ldr	r3, .L173+28
 1113 006a 9846     		mov	r8, r3
 554:../../../../../../Drivers/STM32L0xx_HAL_Driver/Src/stm32l0xx_hal_dma.c ****     {      
 1114              		.loc 1 554 0
 1115 006c 8023     		movs	r3, #128
 1116 006e 1B04     		lsls	r3, r3, #16
 1117 0070 9A46     		mov	r10, r3
 1118              	.LVL75:
 1119              	.L74:
 1120 0072 2B68     		ldr	r3, [r5]
 1121 0074 721C     		adds	r2, r6, #1
 1122 0076 00D0     		beq	.LCB1011
 1123 0078 F8E0     		b	.L79	@long jump
 1124              	.LCB1011:
 1125 007a B14A     		ldr	r2, .L173+24
 1126 007c 9342     		cmp	r3, r2
 1127 007e 68D0     		beq	.L162
 1128 0080 A94A     		ldr	r2, .L173
 1129 0082 9342     		cmp	r3, r2
 1130 0084 00D1     		bne	.LCB1017
 1131 0086 A3E0     		b	.L163	@long jump
 1132              	.LCB1017:
 1133 0088 A84A     		ldr	r2, .L173+4
 1134 008a 9342     		cmp	r3, r2
 1135 008c 00D1     		bne	.LCB1020
 1136 008e B2E0     		b	.L160	@long jump
 1137              	.LCB1020:
 1138 0090 A84A     		ldr	r2, .L173+12
 552:../../../../../../Drivers/STM32L0xx_HAL_Driver/Src/stm32l0xx_hal_dma.c ****   {
 1139              		.loc 1 552 0
 1140 0092 AC49     		ldr	r1, .L173+28
 554:../../../../../../Drivers/STM32L0xx_HAL_Driver/Src/stm32l0xx_hal_dma.c ****     {      
 1141              		.loc 1 554 0
 1142 0094 9046     		mov	r8, r2
 1143 0096 AC4A     		ldr	r2, .L173+32
 1144 0098 A54E     		ldr	r6, .L173+8
 1145              	.LVL76:
 1146 009a 9A18     		adds	r2, r3, r2
 1147 009c 5042     		rsbs	r0, r2, #0
 1148 009e 4241     		adcs	r2, r2, r0
 1149 00a0 5242     		rsbs	r2, r2, #0
 1150 00a2 9446     		mov	ip, r2
 1151 00a4 A94A     		ldr	r2, .L173+36
 1152 00a6 9146     		mov	r9, r2
 1153              	.LVL77:
 1154 00a8 0BE0     		b	.L85
 1155              	.L164:
 1156 00aa 4345     		cmp	r3, r8
 1157 00ac 00D1     		bne	.LCB1039
 1158 00ae 8CE0     		b	.L122	@long jump
 1159              	.LCB1039:
 1160 00b0 4F46     		mov	r7, r9
 1161 00b2 6246     		mov	r2, ip
 1162 00b4 3A40     		ands	r2, r7
 1163 00b6 8027     		movs	r7, #128
ARM GAS  C:\Users\EBANO_~1\AppData\Local\Temp\cc4h82Al.s 			page 38


 1164 00b8 3F05     		lsls	r7, r7, #20
 1165 00ba BA46     		mov	r10, r7
 1166 00bc 5244     		add	r2, r2, r10
 1167              	.L89:
 1168 00be 0242     		tst	r2, r0
 1169 00c0 09D1     		bne	.L83
 1170              	.L85:
 552:../../../../../../Drivers/STM32L0xx_HAL_Driver/Src/stm32l0xx_hal_dma.c ****   {
 1171              		.loc 1 552 0
 1172 00c2 0A68     		ldr	r2, [r1]
 1173 00c4 2242     		tst	r2, r4
 1174 00c6 62D1     		bne	.L88
 554:../../../../../../Drivers/STM32L0xx_HAL_Driver/Src/stm32l0xx_hal_dma.c ****     {      
 1175              		.loc 1 554 0
 1176 00c8 0868     		ldr	r0, [r1]
 1177 00ca B342     		cmp	r3, r6
 1178 00cc EDD1     		bne	.L164
 1179 00ce 8022     		movs	r2, #128
 1180 00d0 1201     		lsls	r2, r2, #4
 1181 00d2 0242     		tst	r2, r0
 1182 00d4 F5D0     		beq	.L85
 1183              	.L83:
 557:../../../../../../Drivers/STM32L0xx_HAL_Driver/Src/stm32l0xx_hal_dma.c ****       
 1184              		.loc 1 557 0
 1185 00d6 9B4B     		ldr	r3, .L173+28
 568:../../../../../../Drivers/STM32L0xx_HAL_Driver/Src/stm32l0xx_hal_dma.c ****     }      
 1186              		.loc 1 568 0
 1187 00d8 0120     		movs	r0, #1
 557:../../../../../../Drivers/STM32L0xx_HAL_Driver/Src/stm32l0xx_hal_dma.c ****       
 1188              		.loc 1 557 0
 1189 00da 5A60     		str	r2, [r3, #4]
 560:../../../../../../Drivers/STM32L0xx_HAL_Driver/Src/stm32l0xx_hal_dma.c ****       
 1190              		.loc 1 560 0
 1191 00dc 0122     		movs	r2, #1
 1192 00de EB6B     		ldr	r3, [r5, #60]
 1193 00e0 1343     		orrs	r3, r2
 1194 00e2 EB63     		str	r3, [r5, #60]
 563:../../../../../../Drivers/STM32L0xx_HAL_Driver/Src/stm32l0xx_hal_dma.c ****       
 1195              		.loc 1 563 0
 1196 00e4 2523     		movs	r3, #37
 1197 00e6 0332     		adds	r2, r2, #3
 1198 00e8 EA54     		strb	r2, [r5, r3]
 566:../../../../../../Drivers/STM32L0xx_HAL_Driver/Src/stm32l0xx_hal_dma.c ****       
 1199              		.loc 1 566 0
 1200 00ea 0022     		movs	r2, #0
 1201 00ec 013B     		subs	r3, r3, #1
 1202 00ee EA54     		strb	r2, [r5, r3]
 1203              	.L158:
 615:../../../../../../Drivers/STM32L0xx_HAL_Driver/Src/stm32l0xx_hal_dma.c **** /**
 1204              		.loc 1 615 0
 1205 00f0 03B0     		add	sp, sp, #12
 1206              		@ sp needed
 1207              	.LVL78:
 1208              	.LVL79:
 1209 00f2 3CBC     		pop	{r2, r3, r4, r5}
 1210 00f4 9046     		mov	r8, r2
 1211 00f6 9946     		mov	r9, r3
ARM GAS  C:\Users\EBANO_~1\AppData\Local\Temp\cc4h82Al.s 			page 39


 1212 00f8 A246     		mov	r10, r4
 1213 00fa AB46     		mov	fp, r5
 1214 00fc F0BD     		pop	{r4, r5, r6, r7, pc}
 1215              	.LVL80:
 1216              	.L72:
 546:../../../../../../Drivers/STM32L0xx_HAL_Driver/Src/stm32l0xx_hal_dma.c ****   }
 1217              		.loc 1 546 0
 1218 00fe 8A4A     		ldr	r2, .L173
 1219              	.LVL81:
 1220 0100 9342     		cmp	r3, r2
 1221 0102 1CD0     		beq	.L113
 546:../../../../../../Drivers/STM32L0xx_HAL_Driver/Src/stm32l0xx_hal_dma.c ****   }
 1222              		.loc 1 546 0 is_stmt 0 discriminator 1
 1223 0104 894A     		ldr	r2, .L173+4
 1224 0106 9342     		cmp	r3, r2
 1225 0108 00D1     		bne	.LCB1111
 1226 010a A9E0     		b	.L114	@long jump
 1227              	.LCB1111:
 546:../../../../../../Drivers/STM32L0xx_HAL_Driver/Src/stm32l0xx_hal_dma.c ****   }
 1228              		.loc 1 546 0 discriminator 3
 1229 010c 884A     		ldr	r2, .L173+8
 1230 010e 9342     		cmp	r3, r2
 1231 0110 1CD0     		beq	.L115
 546:../../../../../../Drivers/STM32L0xx_HAL_Driver/Src/stm32l0xx_hal_dma.c ****   }
 1232              		.loc 1 546 0 discriminator 5
 1233 0112 884A     		ldr	r2, .L173+12
 1234 0114 9342     		cmp	r3, r2
 1235 0116 00D1     		bne	.LCB1117
 1236 0118 FCE0     		b	.L116	@long jump
 1237              	.LCB1117:
 546:../../../../../../Drivers/STM32L0xx_HAL_Driver/Src/stm32l0xx_hal_dma.c ****   }
 1238              		.loc 1 546 0 discriminator 7
 1239 011a 874A     		ldr	r2, .L173+16
 1240 011c 9342     		cmp	r3, r2
 1241 011e 00D1     		bne	.LCB1120
 1242 0120 2FE1     		b	.L117	@long jump
 1243              	.LCB1120:
 546:../../../../../../Drivers/STM32L0xx_HAL_Driver/Src/stm32l0xx_hal_dma.c ****   }
 1244              		.loc 1 546 0 discriminator 9
 1245 0122 864A     		ldr	r2, .L173+20
 1246 0124 9446     		mov	ip, r2
 1247 0126 6344     		add	r3, r3, ip
 1248 0128 5C1E     		subs	r4, r3, #1
 1249 012a A341     		sbcs	r3, r3, r4
 1250 012c 5C42     		rsbs	r4, r3, #0
 1251 012e F023     		movs	r3, #240
 1252 0130 9B04     		lsls	r3, r3, #18
 1253 0132 1C40     		ands	r4, r3
 1254 0134 8023     		movs	r3, #128
 1255 0136 DB03     		lsls	r3, r3, #15
 1256 0138 9C46     		mov	ip, r3
 1257 013a 6444     		add	r4, r4, ip
 1258 013c 8FE7     		b	.L73
 1259              	.L113:
 546:../../../../../../Drivers/STM32L0xx_HAL_Driver/Src/stm32l0xx_hal_dma.c ****   }
 1260              		.loc 1 546 0
 1261 013e 0424     		movs	r4, #4
ARM GAS  C:\Users\EBANO_~1\AppData\Local\Temp\cc4h82Al.s 			page 40


 1262 0140 8DE7     		b	.L73
 1263              	.L107:
 541:../../../../../../Drivers/STM32L0xx_HAL_Driver/Src/stm32l0xx_hal_dma.c ****   }
 1264              		.loc 1 541 0 is_stmt 1
 1265 0142 0224     		movs	r4, #2
 1266 0144 8BE7     		b	.L73
 1267              	.L109:
 1268 0146 8024     		movs	r4, #128
 1269 0148 A400     		lsls	r4, r4, #2
 1270 014a 88E7     		b	.L73
 1271              	.L115:
 546:../../../../../../Drivers/STM32L0xx_HAL_Driver/Src/stm32l0xx_hal_dma.c ****   }
 1272              		.loc 1 546 0
 1273 014c 8024     		movs	r4, #128
 1274 014e E400     		lsls	r4, r4, #3
 1275 0150 85E7     		b	.L73
 1276              	.LVL82:
 1277              	.L162:
 554:../../../../../../Drivers/STM32L0xx_HAL_Driver/Src/stm32l0xx_hal_dma.c ****     {      
 1278              		.loc 1 554 0
 1279 0152 8021     		movs	r1, #128
 552:../../../../../../Drivers/STM32L0xx_HAL_Driver/Src/stm32l0xx_hal_dma.c ****   {
 1280              		.loc 1 552 0
 1281 0154 7B4B     		ldr	r3, .L173+28
 554:../../../../../../Drivers/STM32L0xx_HAL_Driver/Src/stm32l0xx_hal_dma.c ****     {      
 1282              		.loc 1 554 0
 1283 0156 0904     		lsls	r1, r1, #16
 1284 0158 03E0     		b	.L80
 1285              	.L165:
 1286 015a 1A68     		ldr	r2, [r3]
 1287 015c 0A42     		tst	r2, r1
 1288 015e 00D0     		beq	.LCB1173
 1289 0160 D3E0     		b	.L124	@long jump
 1290              	.LCB1173:
 1291              	.L80:
 552:../../../../../../Drivers/STM32L0xx_HAL_Driver/Src/stm32l0xx_hal_dma.c ****   {
 1292              		.loc 1 552 0
 1293 0162 1A68     		ldr	r2, [r3]
 1294 0164 1442     		tst	r4, r2
 1295 0166 F8D0     		beq	.L165
 1296              	.L90:
 589:../../../../../../Drivers/STM32L0xx_HAL_Driver/Src/stm32l0xx_hal_dma.c ****   {
 1297              		.loc 1 589 0
 1298 0168 019B     		ldr	r3, [sp, #4]
 1299 016a 002B     		cmp	r3, #0
 1300 016c 00D1     		bne	.LCB1182
 1301 016e 21E1     		b	.L143	@long jump
 1302              	.LCB1182:
 1303 0170 734B     		ldr	r3, .L173+24
 1304              	.L106:
 604:../../../../../../Drivers/STM32L0xx_HAL_Driver/Src/stm32l0xx_hal_dma.c **** 
 1305              		.loc 1 604 0 discriminator 1
 1306 0172 6E49     		ldr	r1, .L173+4
 1307 0174 4022     		movs	r2, #64
 1308 0176 8B42     		cmp	r3, r1
 1309 0178 0CD1     		bne	.L104
 1310              	.LVL83:
ARM GAS  C:\Users\EBANO_~1\AppData\Local\Temp\cc4h82Al.s 			page 41


 1311              	.L101:
 604:../../../../../../Drivers/STM32L0xx_HAL_Driver/Src/stm32l0xx_hal_dma.c **** 
 1312              		.loc 1 604 0 is_stmt 0 discriminator 24
 1313 017a 724B     		ldr	r3, .L173+28
 1314 017c 5A60     		str	r2, [r3, #4]
 608:../../../../../../Drivers/STM32L0xx_HAL_Driver/Src/stm32l0xx_hal_dma.c ****     
 1315              		.loc 1 608 0 is_stmt 1 discriminator 24
 1316 017e 2523     		movs	r3, #37
 1317 0180 0522     		movs	r2, #5
 1318              	.L161:
 1319 0182 EA54     		strb	r2, [r5, r3]
 611:../../../../../../Drivers/STM32L0xx_HAL_Driver/Src/stm32l0xx_hal_dma.c ****   }
 1320              		.loc 1 611 0 discriminator 24
 1321 0184 0022     		movs	r2, #0
 1322 0186 013B     		subs	r3, r3, #1
 1323 0188 EA54     		strb	r2, [r5, r3]
 614:../../../../../../Drivers/STM32L0xx_HAL_Driver/Src/stm32l0xx_hal_dma.c **** }
 1324              		.loc 1 614 0 discriminator 24
 1325 018a 0020     		movs	r0, #0
 1326 018c B0E7     		b	.L158
 1327              	.L88:
 589:../../../../../../Drivers/STM32L0xx_HAL_Driver/Src/stm32l0xx_hal_dma.c ****   {
 1328              		.loc 1 589 0
 1329 018e 019A     		ldr	r2, [sp, #4]
 1330 0190 002A     		cmp	r2, #0
 1331 0192 47D0     		beq	.L105
 1332              	.L104:
 604:../../../../../../Drivers/STM32L0xx_HAL_Driver/Src/stm32l0xx_hal_dma.c **** 
 1333              		.loc 1 604 0 discriminator 3
 1334 0194 664A     		ldr	r2, .L173+8
 1335 0196 9342     		cmp	r3, r2
 1336 0198 00D1     		bne	.LCB1215
 1337 019a EFE0     		b	.L138	@long jump
 1338              	.LCB1215:
 604:../../../../../../Drivers/STM32L0xx_HAL_Driver/Src/stm32l0xx_hal_dma.c **** 
 1339              		.loc 1 604 0 is_stmt 0 discriminator 5
 1340 019c 654A     		ldr	r2, .L173+12
 1341 019e 9342     		cmp	r3, r2
 1342 01a0 00D1     		bne	.LCB1218
 1343 01a2 04E1     		b	.L139	@long jump
 1344              	.LCB1218:
 604:../../../../../../Drivers/STM32L0xx_HAL_Driver/Src/stm32l0xx_hal_dma.c **** 
 1345              		.loc 1 604 0 discriminator 7
 1346 01a4 644A     		ldr	r2, .L173+16
 1347 01a6 9342     		cmp	r3, r2
 1348 01a8 00D1     		bne	.LCB1221
 1349 01aa D5E0     		b	.L140	@long jump
 1350              	.LCB1221:
 604:../../../../../../Drivers/STM32L0xx_HAL_Driver/Src/stm32l0xx_hal_dma.c **** 
 1351              		.loc 1 604 0 discriminator 9
 1352 01ac 634A     		ldr	r2, .L173+20
 1353 01ae 9446     		mov	ip, r2
 1354 01b0 6344     		add	r3, r3, ip
 1355 01b2 1A00     		movs	r2, r3
 1356 01b4 531E     		subs	r3, r2, #1
 1357 01b6 9A41     		sbcs	r2, r2, r3
 1358 01b8 F023     		movs	r3, #240
ARM GAS  C:\Users\EBANO_~1\AppData\Local\Temp\cc4h82Al.s 			page 42


 1359 01ba 5242     		rsbs	r2, r2, #0
 1360 01bc 9B04     		lsls	r3, r3, #18
 1361 01be 1A40     		ands	r2, r3
 1362 01c0 8023     		movs	r3, #128
 1363 01c2 DB03     		lsls	r3, r3, #15
 1364 01c4 9C46     		mov	ip, r3
 1365 01c6 6244     		add	r2, r2, ip
 1366 01c8 D7E7     		b	.L101
 1367              	.L122:
 554:../../../../../../Drivers/STM32L0xx_HAL_Driver/Src/stm32l0xx_hal_dma.c ****     {      
 1368              		.loc 1 554 0 is_stmt 1
 1369 01ca 8022     		movs	r2, #128
 1370 01cc 1202     		lsls	r2, r2, #8
 1371 01ce 76E7     		b	.L89
 1372              	.LVL84:
 1373              	.L163:
 552:../../../../../../Drivers/STM32L0xx_HAL_Driver/Src/stm32l0xx_hal_dma.c ****   {
 1374              		.loc 1 552 0
 1375 01d0 5C4B     		ldr	r3, .L173+28
 554:../../../../../../Drivers/STM32L0xx_HAL_Driver/Src/stm32l0xx_hal_dma.c ****     {      
 1376              		.loc 1 554 0
 1377 01d2 0821     		movs	r1, #8
 1378 01d4 02E0     		b	.L84
 1379              	.L167:
 1380 01d6 1A68     		ldr	r2, [r3]
 1381 01d8 1142     		tst	r1, r2
 1382 01da 45D1     		bne	.L166
 1383              	.L84:
 552:../../../../../../Drivers/STM32L0xx_HAL_Driver/Src/stm32l0xx_hal_dma.c ****   {
 1384              		.loc 1 552 0
 1385 01dc 1A68     		ldr	r2, [r3]
 1386 01de 2242     		tst	r2, r4
 1387 01e0 F9D0     		beq	.L167
 589:../../../../../../Drivers/STM32L0xx_HAL_Driver/Src/stm32l0xx_hal_dma.c ****   {
 1388              		.loc 1 589 0
 1389 01e2 019B     		ldr	r3, [sp, #4]
 592:../../../../../../Drivers/STM32L0xx_HAL_Driver/Src/stm32l0xx_hal_dma.c **** 
 1390              		.loc 1 592 0
 1391 01e4 0222     		movs	r2, #2
 589:../../../../../../Drivers/STM32L0xx_HAL_Driver/Src/stm32l0xx_hal_dma.c ****   {
 1392              		.loc 1 589 0
 1393 01e6 002B     		cmp	r3, #0
 1394 01e8 00D0     		beq	.LCB1265
 1395 01ea C5E0     		b	.L168	@long jump
 1396              	.LCB1265:
 1397              	.LVL85:
 1398              	.L100:
 592:../../../../../../Drivers/STM32L0xx_HAL_Driver/Src/stm32l0xx_hal_dma.c **** 
 1399              		.loc 1 592 0 discriminator 24
 1400 01ec 554B     		ldr	r3, .L173+28
 1401 01ee 5A60     		str	r2, [r3, #4]
 596:../../../../../../Drivers/STM32L0xx_HAL_Driver/Src/stm32l0xx_hal_dma.c **** 
 1402              		.loc 1 596 0 discriminator 24
 1403 01f0 2523     		movs	r3, #37
 1404 01f2 0122     		movs	r2, #1
 1405 01f4 C5E7     		b	.L161
 1406              	.LVL86:
ARM GAS  C:\Users\EBANO_~1\AppData\Local\Temp\cc4h82Al.s 			page 43


 1407              	.L160:
 552:../../../../../../Drivers/STM32L0xx_HAL_Driver/Src/stm32l0xx_hal_dma.c ****   {
 1408              		.loc 1 552 0
 1409 01f6 534A     		ldr	r2, .L173+28
 554:../../../../../../Drivers/STM32L0xx_HAL_Driver/Src/stm32l0xx_hal_dma.c ****     {      
 1410              		.loc 1 554 0
 1411 01f8 8020     		movs	r0, #128
 1412 01fa 03E0     		b	.L87
 1413              	.L170:
 1414 01fc 1168     		ldr	r1, [r2]
 1415 01fe 0842     		tst	r0, r1
 1416 0200 00D0     		beq	.LCB1288
 1417 0202 85E0     		b	.L169	@long jump
 1418              	.LCB1288:
 1419              	.L87:
 552:../../../../../../Drivers/STM32L0xx_HAL_Driver/Src/stm32l0xx_hal_dma.c ****   {
 1420              		.loc 1 552 0
 1421 0204 1168     		ldr	r1, [r2]
 1422 0206 2142     		tst	r1, r4
 1423 0208 F8D0     		beq	.L170
 589:../../../../../../Drivers/STM32L0xx_HAL_Driver/Src/stm32l0xx_hal_dma.c ****   {
 1424              		.loc 1 589 0
 1425 020a 019A     		ldr	r2, [sp, #4]
 1426 020c 002A     		cmp	r2, #0
 1427 020e 09D0     		beq	.L105
 604:../../../../../../Drivers/STM32L0xx_HAL_Driver/Src/stm32l0xx_hal_dma.c **** 
 1428              		.loc 1 604 0
 1429 0210 4022     		movs	r2, #64
 1430 0212 B2E7     		b	.L101
 1431              	.L96:
 589:../../../../../../Drivers/STM32L0xx_HAL_Driver/Src/stm32l0xx_hal_dma.c ****   {
 1432              		.loc 1 589 0
 1433 0214 019A     		ldr	r2, [sp, #4]
 592:../../../../../../Drivers/STM32L0xx_HAL_Driver/Src/stm32l0xx_hal_dma.c **** 
 1434              		.loc 1 592 0
 1435 0216 4449     		ldr	r1, .L173
 589:../../../../../../Drivers/STM32L0xx_HAL_Driver/Src/stm32l0xx_hal_dma.c ****   {
 1436              		.loc 1 589 0
 1437 0218 002A     		cmp	r2, #0
 1438 021a 00D0     		beq	.LCB1305
 1439 021c CDE0     		b	.L99	@long jump
 1440              	.LCB1305:
 592:../../../../../../Drivers/STM32L0xx_HAL_Driver/Src/stm32l0xx_hal_dma.c **** 
 1441              		.loc 1 592 0
 1442 021e 0232     		adds	r2, r2, #2
 1443 0220 8B42     		cmp	r3, r1
 1444 0222 E3D0     		beq	.L100
 1445              	.LVL87:
 1446              	.L105:
 592:../../../../../../Drivers/STM32L0xx_HAL_Driver/Src/stm32l0xx_hal_dma.c **** 
 1447              		.loc 1 592 0 is_stmt 0 discriminator 1
 1448 0224 4149     		ldr	r1, .L173+4
 1449 0226 2022     		movs	r2, #32
 1450 0228 8B42     		cmp	r3, r1
 1451 022a DFD0     		beq	.L100
 592:../../../../../../Drivers/STM32L0xx_HAL_Driver/Src/stm32l0xx_hal_dma.c **** 
 1452              		.loc 1 592 0 discriminator 3
ARM GAS  C:\Users\EBANO_~1\AppData\Local\Temp\cc4h82Al.s 			page 44


 1453 022c 404A     		ldr	r2, .L173+8
 1454 022e 9342     		cmp	r3, r2
 1455 0230 76D0     		beq	.L132
 592:../../../../../../Drivers/STM32L0xx_HAL_Driver/Src/stm32l0xx_hal_dma.c **** 
 1456              		.loc 1 592 0 discriminator 5
 1457 0232 404A     		ldr	r2, .L173+12
 1458 0234 9342     		cmp	r3, r2
 1459 0236 00D1     		bne	.LCB1321
 1460 0238 B6E0     		b	.L142	@long jump
 1461              	.LCB1321:
 592:../../../../../../Drivers/STM32L0xx_HAL_Driver/Src/stm32l0xx_hal_dma.c **** 
 1462              		.loc 1 592 0 discriminator 7
 1463 023a 3F4A     		ldr	r2, .L173+16
 1464 023c 9342     		cmp	r3, r2
 1465 023e 00D1     		bne	.LCB1324
 1466 0240 A9E0     		b	.L145	@long jump
 1467              	.LCB1324:
 592:../../../../../../Drivers/STM32L0xx_HAL_Driver/Src/stm32l0xx_hal_dma.c **** 
 1468              		.loc 1 592 0 discriminator 9
 1469 0242 3E4A     		ldr	r2, .L173+20
 1470 0244 9446     		mov	ip, r2
 1471 0246 6344     		add	r3, r3, ip
 1472 0248 1A00     		movs	r2, r3
 1473 024a 531E     		subs	r3, r2, #1
 1474 024c 9A41     		sbcs	r2, r2, r3
 1475 024e F023     		movs	r3, #240
 1476 0250 5242     		rsbs	r2, r2, #0
 1477 0252 5B04     		lsls	r3, r3, #17
 1478 0254 1A40     		ands	r2, r3
 1479 0256 8023     		movs	r3, #128
 1480 0258 9B03     		lsls	r3, r3, #14
 1481 025a 9C46     		mov	ip, r3
 1482 025c 6244     		add	r2, r2, ip
 1483 025e C5E7     		b	.L100
 1484              	.LVL88:
 1485              	.L114:
 546:../../../../../../Drivers/STM32L0xx_HAL_Driver/Src/stm32l0xx_hal_dma.c ****   }
 1486              		.loc 1 546 0 is_stmt 1
 1487 0260 4024     		movs	r4, #64
 1488 0262 FCE6     		b	.L73
 1489              	.L108:
 541:../../../../../../Drivers/STM32L0xx_HAL_Driver/Src/stm32l0xx_hal_dma.c ****   }
 1490              		.loc 1 541 0
 1491 0264 2024     		movs	r4, #32
 1492 0266 FAE6     		b	.L73
 1493              	.LVL89:
 1494              	.L166:
 554:../../../../../../Drivers/STM32L0xx_HAL_Driver/Src/stm32l0xx_hal_dma.c ****     {      
 1495              		.loc 1 554 0
 1496 0268 0822     		movs	r2, #8
 1497 026a 34E7     		b	.L83
 1498              	.L79:
 1499 026c 5B45     		cmp	r3, fp
 1500 026e 42D0     		beq	.L91
 1501 0270 314A     		ldr	r2, .L173+16
 1502 0272 9342     		cmp	r3, r2
 1503 0274 1FD0     		beq	.L171
ARM GAS  C:\Users\EBANO_~1\AppData\Local\Temp\cc4h82Al.s 			page 45


 1504 0276 2F4A     		ldr	r2, .L173+12
 1505 0278 9342     		cmp	r3, r2
 1506 027a 70D0     		beq	.L172
 552:../../../../../../Drivers/STM32L0xx_HAL_Driver/Src/stm32l0xx_hal_dma.c ****   {
 1507              		.loc 1 552 0
 1508 027c 4246     		mov	r2, r8
 1509 027e 1268     		ldr	r2, [r2]
 1510 0280 2242     		tst	r2, r4
 1511 0282 C7D1     		bne	.L96
 554:../../../../../../Drivers/STM32L0xx_HAL_Driver/Src/stm32l0xx_hal_dma.c ****     {      
 1512              		.loc 1 554 0
 1513 0284 4246     		mov	r2, r8
 1514 0286 1168     		ldr	r1, [r2]
 1515 0288 274A     		ldr	r2, .L173
 1516 028a 9342     		cmp	r3, r2
 1517 028c 72D0     		beq	.L127
 1518 028e 274A     		ldr	r2, .L173+4
 1519 0290 9342     		cmp	r3, r2
 1520 0292 00D1     		bne	.LCB1386
 1521 0294 82E0     		b	.L128	@long jump
 1522              	.LCB1386:
 1523 0296 2E4A     		ldr	r2, .L173+40
 1524 0298 9446     		mov	ip, r2
 1525 029a 6344     		add	r3, r3, ip
 1526 029c 1A00     		movs	r2, r3
 1527 029e 531E     		subs	r3, r2, #1
 1528 02a0 9A41     		sbcs	r2, r2, r3
 1529 02a2 2C4B     		ldr	r3, .L173+44
 1530 02a4 5242     		rsbs	r2, r2, #0
 1531 02a6 1A40     		ands	r2, r3
 1532 02a8 8023     		movs	r3, #128
 1533 02aa 1B01     		lsls	r3, r3, #4
 1534 02ac 9C46     		mov	ip, r3
 1535 02ae 6244     		add	r2, r2, ip
 1536              	.L97:
 1537 02b0 1142     		tst	r1, r2
 1538 02b2 0BD0     		beq	.L75
 1539 02b4 0FE7     		b	.L83
 1540              	.L171:
 552:../../../../../../Drivers/STM32L0xx_HAL_Driver/Src/stm32l0xx_hal_dma.c ****   {
 1541              		.loc 1 552 0
 1542 02b6 4246     		mov	r2, r8
 1543 02b8 1268     		ldr	r2, [r2]
 1544 02ba 2242     		tst	r2, r4
 1545 02bc 67D1     		bne	.L93
 554:../../../../../../Drivers/STM32L0xx_HAL_Driver/Src/stm32l0xx_hal_dma.c ****     {      
 1546              		.loc 1 554 0
 1547 02be 4346     		mov	r3, r8
 1548 02c0 8022     		movs	r2, #128
 1549 02c2 1B68     		ldr	r3, [r3]
 1550 02c4 1203     		lsls	r2, r2, #12
 1551 02c6 1342     		tst	r3, r2
 1552 02c8 00D0     		beq	.LCB1419
 1553 02ca 04E7     		b	.L83	@long jump
 1554              	.LCB1419:
 1555              	.L75:
 573:../../../../../../Drivers/STM32L0xx_HAL_Driver/Src/stm32l0xx_hal_dma.c ****       {
ARM GAS  C:\Users\EBANO_~1\AppData\Local\Temp\cc4h82Al.s 			page 46


 1556              		.loc 1 573 0
 1557 02cc 002E     		cmp	r6, #0
 1558 02ce 06D0     		beq	.L78
 573:../../../../../../Drivers/STM32L0xx_HAL_Driver/Src/stm32l0xx_hal_dma.c ****       {
 1559              		.loc 1 573 0 is_stmt 0 discriminator 1
 1560 02d0 FFF7FEFF 		bl	HAL_GetTick
 1561              	.LVL90:
 1562 02d4 4B46     		mov	r3, r9
 1563 02d6 C01A     		subs	r0, r0, r3
 1564 02d8 B042     		cmp	r0, r6
 1565 02da 00D8     		bhi	.LCB1428
 1566 02dc C9E6     		b	.L74	@long jump
 1567              	.LCB1428:
 1568              	.L78:
 576:../../../../../../Drivers/STM32L0xx_HAL_Driver/Src/stm32l0xx_hal_dma.c ****         
 1569              		.loc 1 576 0 is_stmt 1
 1570 02de 2022     		movs	r2, #32
 1571 02e0 EB6B     		ldr	r3, [r5, #60]
 584:../../../../../../Drivers/STM32L0xx_HAL_Driver/Src/stm32l0xx_hal_dma.c ****       }
 1572              		.loc 1 584 0
 1573 02e2 0320     		movs	r0, #3
 576:../../../../../../Drivers/STM32L0xx_HAL_Driver/Src/stm32l0xx_hal_dma.c ****         
 1574              		.loc 1 576 0
 1575 02e4 1343     		orrs	r3, r2
 1576 02e6 EB63     		str	r3, [r5, #60]
 579:../../../../../../Drivers/STM32L0xx_HAL_Driver/Src/stm32l0xx_hal_dma.c ****         
 1577              		.loc 1 579 0
 1578 02e8 2523     		movs	r3, #37
 1579 02ea 1D3A     		subs	r2, r2, #29
 1580 02ec EA54     		strb	r2, [r5, r3]
 582:../../../../../../Drivers/STM32L0xx_HAL_Driver/Src/stm32l0xx_hal_dma.c ****       
 1581              		.loc 1 582 0
 1582 02ee 0022     		movs	r2, #0
 1583 02f0 013B     		subs	r3, r3, #1
 1584 02f2 EA54     		strb	r2, [r5, r3]
 584:../../../../../../Drivers/STM32L0xx_HAL_Driver/Src/stm32l0xx_hal_dma.c ****       }
 1585              		.loc 1 584 0
 1586 02f4 FCE6     		b	.L158
 1587              	.L91:
 552:../../../../../../Drivers/STM32L0xx_HAL_Driver/Src/stm32l0xx_hal_dma.c ****   {
 1588              		.loc 1 552 0
 1589 02f6 4346     		mov	r3, r8
 1590 02f8 1B68     		ldr	r3, [r3]
 1591 02fa 1C42     		tst	r4, r3
 1592 02fc 00D0     		beq	.LCB1451
 1593 02fe 33E7     		b	.L90	@long jump
 1594              	.LCB1451:
 554:../../../../../../Drivers/STM32L0xx_HAL_Driver/Src/stm32l0xx_hal_dma.c ****     {      
 1595              		.loc 1 554 0
 1596 0300 4346     		mov	r3, r8
 1597 0302 5246     		mov	r2, r10
 1598 0304 1B68     		ldr	r3, [r3]
 1599 0306 1342     		tst	r3, r2
 1600 0308 E0D0     		beq	.L75
 1601              	.L124:
 1602 030a 8022     		movs	r2, #128
 1603 030c 1204     		lsls	r2, r2, #16
ARM GAS  C:\Users\EBANO_~1\AppData\Local\Temp\cc4h82Al.s 			page 47


 1604 030e E2E6     		b	.L83
 1605              	.L169:
 1606 0310 8022     		movs	r2, #128
 1607 0312 E0E6     		b	.L83
 1608              	.LVL91:
 1609              	.L116:
 546:../../../../../../Drivers/STM32L0xx_HAL_Driver/Src/stm32l0xx_hal_dma.c ****   }
 1610              		.loc 1 546 0
 1611 0314 8024     		movs	r4, #128
 1612 0316 E401     		lsls	r4, r4, #7
 1613 0318 A1E6     		b	.L73
 1614              	.L110:
 541:../../../../../../Drivers/STM32L0xx_HAL_Driver/Src/stm32l0xx_hal_dma.c ****   }
 1615              		.loc 1 541 0
 1616 031a 8024     		movs	r4, #128
 1617 031c A401     		lsls	r4, r4, #6
 1618 031e 9EE6     		b	.L73
 1619              	.LVL92:
 1620              	.L132:
 592:../../../../../../Drivers/STM32L0xx_HAL_Driver/Src/stm32l0xx_hal_dma.c **** 
 1621              		.loc 1 592 0
 1622 0320 8022     		movs	r2, #128
 1623 0322 9200     		lsls	r2, r2, #2
 1624 0324 62E7     		b	.L100
 1625              	.L174:
 1626 0326 C046     		.align	2
 1627              	.L173:
 1628 0328 08000240 		.word	1073872904
 1629 032c 1C000240 		.word	1073872924
 1630 0330 30000240 		.word	1073872944
 1631 0334 44000240 		.word	1073872964
 1632 0338 58000240 		.word	1073872984
 1633 033c 94FFFDBF 		.word	-1073873004
 1634 0340 6C000240 		.word	1073873004
 1635 0344 00000240 		.word	1073872896
 1636 0348 A8FFFDBF 		.word	-1073872984
 1637 034c 000008F8 		.word	-133693440
 1638 0350 D0FFFDBF 		.word	-1073872944
 1639 0354 00F8FF07 		.word	134215680
 1640              	.L140:
 604:../../../../../../Drivers/STM32L0xx_HAL_Driver/Src/stm32l0xx_hal_dma.c **** 
 1641              		.loc 1 604 0
 1642 0358 8022     		movs	r2, #128
 1643 035a D202     		lsls	r2, r2, #11
 1644 035c 0DE7     		b	.L101
 1645              	.LVL93:
 1646              	.L172:
 552:../../../../../../Drivers/STM32L0xx_HAL_Driver/Src/stm32l0xx_hal_dma.c ****   {
 1647              		.loc 1 552 0
 1648 035e 4246     		mov	r2, r8
 1649 0360 1268     		ldr	r2, [r2]
 1650 0362 2242     		tst	r2, r4
 1651 0364 1CD1     		bne	.L95
 554:../../../../../../Drivers/STM32L0xx_HAL_Driver/Src/stm32l0xx_hal_dma.c ****     {      
 1652              		.loc 1 554 0
 1653 0366 4346     		mov	r3, r8
 1654 0368 8022     		movs	r2, #128
ARM GAS  C:\Users\EBANO_~1\AppData\Local\Temp\cc4h82Al.s 			page 48


 1655 036a 1B68     		ldr	r3, [r3]
 1656 036c 1202     		lsls	r2, r2, #8
 1657 036e 1342     		tst	r3, r2
 1658 0370 ACD0     		beq	.L75
 1659 0372 B0E6     		b	.L83
 1660              	.L127:
 1661 0374 0822     		movs	r2, #8
 1662 0376 9BE7     		b	.L97
 1663              	.L168:
 604:../../../../../../Drivers/STM32L0xx_HAL_Driver/Src/stm32l0xx_hal_dma.c **** 
 1664              		.loc 1 604 0
 1665 0378 0232     		adds	r2, r2, #2
 1666 037a FEE6     		b	.L101
 1667              	.LVL94:
 1668              	.L138:
 1669 037c 8022     		movs	r2, #128
 1670 037e D200     		lsls	r2, r2, #3
 1671 0380 FBE6     		b	.L101
 1672              	.LVL95:
 1673              	.L117:
 546:../../../../../../Drivers/STM32L0xx_HAL_Driver/Src/stm32l0xx_hal_dma.c ****   }
 1674              		.loc 1 546 0
 1675 0382 8024     		movs	r4, #128
 1676 0384 E402     		lsls	r4, r4, #11
 1677 0386 6AE6     		b	.L73
 1678              	.L111:
 541:../../../../../../Drivers/STM32L0xx_HAL_Driver/Src/stm32l0xx_hal_dma.c ****   }
 1679              		.loc 1 541 0
 1680 0388 8024     		movs	r4, #128
 1681 038a A402     		lsls	r4, r4, #10
 1682 038c 67E6     		b	.L73
 1683              	.LVL96:
 1684              	.L93:
 589:../../../../../../Drivers/STM32L0xx_HAL_Driver/Src/stm32l0xx_hal_dma.c ****   {
 1685              		.loc 1 589 0
 1686 038e 019A     		ldr	r2, [sp, #4]
 1687 0390 002A     		cmp	r2, #0
 1688 0392 00D0     		beq	.LCB1579
 1689 0394 EDE6     		b	.L106	@long jump
 1690              	.LCB1579:
 1691              	.LVL97:
 1692              	.L145:
 592:../../../../../../Drivers/STM32L0xx_HAL_Driver/Src/stm32l0xx_hal_dma.c **** 
 1693              		.loc 1 592 0
 1694 0396 8022     		movs	r2, #128
 1695 0398 9202     		lsls	r2, r2, #10
 1696 039a 27E7     		b	.L100
 1697              	.LVL98:
 1698              	.L128:
 554:../../../../../../Drivers/STM32L0xx_HAL_Driver/Src/stm32l0xx_hal_dma.c ****     {      
 1699              		.loc 1 554 0
 1700 039c 8022     		movs	r2, #128
 1701 039e 87E7     		b	.L97
 1702              	.L95:
 589:../../../../../../Drivers/STM32L0xx_HAL_Driver/Src/stm32l0xx_hal_dma.c ****   {
 1703              		.loc 1 589 0
 1704 03a0 019A     		ldr	r2, [sp, #4]
ARM GAS  C:\Users\EBANO_~1\AppData\Local\Temp\cc4h82Al.s 			page 49


 1705 03a2 002A     		cmp	r2, #0
 1706 03a4 00D0     		beq	.LCB1598
 1707 03a6 E4E6     		b	.L106	@long jump
 1708              	.LCB1598:
 1709              	.LVL99:
 1710              	.L142:
 592:../../../../../../Drivers/STM32L0xx_HAL_Driver/Src/stm32l0xx_hal_dma.c **** 
 1711              		.loc 1 592 0
 1712 03a8 8022     		movs	r2, #128
 1713 03aa 9201     		lsls	r2, r2, #6
 1714 03ac 1EE7     		b	.L100
 1715              	.L139:
 604:../../../../../../Drivers/STM32L0xx_HAL_Driver/Src/stm32l0xx_hal_dma.c **** 
 1716              		.loc 1 604 0
 1717 03ae 8022     		movs	r2, #128
 1718 03b0 D201     		lsls	r2, r2, #7
 1719 03b2 E2E6     		b	.L101
 1720              	.LVL100:
 1721              	.L143:
 592:../../../../../../Drivers/STM32L0xx_HAL_Driver/Src/stm32l0xx_hal_dma.c **** 
 1722              		.loc 1 592 0
 1723 03b4 8022     		movs	r2, #128
 1724 03b6 9203     		lsls	r2, r2, #14
 1725 03b8 18E7     		b	.L100
 1726              	.L99:
 604:../../../../../../Drivers/STM32L0xx_HAL_Driver/Src/stm32l0xx_hal_dma.c **** 
 1727              		.loc 1 604 0
 1728 03ba 0422     		movs	r2, #4
 1729 03bc 8B42     		cmp	r3, r1
 1730 03be 00D1     		bne	.LCB1624
 1731 03c0 DBE6     		b	.L101	@long jump
 1732              	.LCB1624:
 1733 03c2 D6E6     		b	.L106
 1734              		.cfi_endproc
 1735              	.LFE45:
 1736              		.size	HAL_DMA_PollForTransfer, .-HAL_DMA_PollForTransfer
 1737              		.section	.text.HAL_DMA_IRQHandler,"ax",%progbits
 1738              		.align	1
 1739              		.p2align 2,,3
 1740              		.global	HAL_DMA_IRQHandler
 1741              		.syntax unified
 1742              		.code	16
 1743              		.thumb_func
 1744              		.fpu softvfp
 1745              		.type	HAL_DMA_IRQHandler, %function
 1746              	HAL_DMA_IRQHandler:
 1747              	.LFB46:
 623:../../../../../../Drivers/STM32L0xx_HAL_Driver/Src/stm32l0xx_hal_dma.c ****   /* Transfer Error Interrupt management ***************************************/
 1748              		.loc 1 623 0
 1749              		.cfi_startproc
 1750              		@ args = 0, pretend = 0, frame = 0
 1751              		@ frame_needed = 0, uses_anonymous_args = 0
 1752              	.LVL101:
 1753 0000 10B5     		push	{r4, lr}
 1754              	.LCFI8:
 1755              		.cfi_def_cfa_offset 8
 1756              		.cfi_offset 4, -8
ARM GAS  C:\Users\EBANO_~1\AppData\Local\Temp\cc4h82Al.s 			page 50


 1757              		.cfi_offset 14, -4
 623:../../../../../../Drivers/STM32L0xx_HAL_Driver/Src/stm32l0xx_hal_dma.c ****   /* Transfer Error Interrupt management ***************************************/
 1758              		.loc 1 623 0
 1759 0002 0400     		movs	r4, r0
 625:../../../../../../Drivers/STM32L0xx_HAL_Driver/Src/stm32l0xx_hal_dma.c ****   {
 1760              		.loc 1 625 0
 1761 0004 9C4A     		ldr	r2, .L300
 1762 0006 2368     		ldr	r3, [r4]
 1763 0008 9C49     		ldr	r1, .L300+4
 1764 000a 1068     		ldr	r0, [r2]
 1765              	.LVL102:
 1766 000c 8B42     		cmp	r3, r1
 1767 000e 4FD0     		beq	.L176
 625:../../../../../../Drivers/STM32L0xx_HAL_Driver/Src/stm32l0xx_hal_dma.c ****   {
 1768              		.loc 1 625 0 is_stmt 0 discriminator 1
 1769 0010 9B49     		ldr	r1, .L300+8
 1770 0012 8B42     		cmp	r3, r1
 1771 0014 15D0     		beq	.L177
 625:../../../../../../Drivers/STM32L0xx_HAL_Driver/Src/stm32l0xx_hal_dma.c ****   {
 1772              		.loc 1 625 0 discriminator 3
 1773 0016 9B49     		ldr	r1, .L300+12
 1774 0018 8B42     		cmp	r3, r1
 1775 001a 00D1     		bne	.LCB1651
 1776 001c CFE0     		b	.L178	@long jump
 1777              	.LCB1651:
 625:../../../../../../Drivers/STM32L0xx_HAL_Driver/Src/stm32l0xx_hal_dma.c ****   {
 1778              		.loc 1 625 0 discriminator 5
 1779 001e 9A49     		ldr	r1, .L300+16
 1780 0020 8B42     		cmp	r3, r1
 1781 0022 00D1     		bne	.LCB1654
 1782 0024 D2E0     		b	.L179	@long jump
 1783              	.LCB1654:
 625:../../../../../../Drivers/STM32L0xx_HAL_Driver/Src/stm32l0xx_hal_dma.c ****   {
 1784              		.loc 1 625 0 discriminator 7
 1785 0026 9949     		ldr	r1, .L300+20
 1786 0028 8B42     		cmp	r3, r1
 1787 002a 00D1     		bne	.LCB1657
 1788 002c B7E0     		b	.L180	@long jump
 1789              	.LCB1657:
 625:../../../../../../Drivers/STM32L0xx_HAL_Driver/Src/stm32l0xx_hal_dma.c ****   {
 1790              		.loc 1 625 0 discriminator 9
 1791 002e 9849     		ldr	r1, .L300+24
 1792 0030 8B42     		cmp	r3, r1
 1793 0032 00D1     		bne	.LCB1660
 1794 0034 DAE0     		b	.L288	@long jump
 1795              	.LCB1660:
 625:../../../../../../Drivers/STM32L0xx_HAL_Driver/Src/stm32l0xx_hal_dma.c ****   {
 1796              		.loc 1 625 0
 1797 0036 8021     		movs	r1, #128
 1798 0038 0905     		lsls	r1, r1, #20
 1799 003a 0842     		tst	r0, r1
 1800 003c 04D1     		bne	.L212
 653:../../../../../../Drivers/STM32L0xx_HAL_Driver/Src/stm32l0xx_hal_dma.c ****   {
 1801              		.loc 1 653 0 is_stmt 1
 1802 003e 1268     		ldr	r2, [r2]
 1803 0040 9CE0     		b	.L190
 1804              	.L177:
ARM GAS  C:\Users\EBANO_~1\AppData\Local\Temp\cc4h82Al.s 			page 51


 625:../../../../../../Drivers/STM32L0xx_HAL_Driver/Src/stm32l0xx_hal_dma.c ****   {
 1805              		.loc 1 625 0
 1806 0042 8021     		movs	r1, #128
 1807 0044 0006     		lsls	r0, r0, #24
 1808 0046 58D5     		bpl	.L289
 1809              	.L212:
 627:../../../../../../Drivers/STM32L0xx_HAL_Driver/Src/stm32l0xx_hal_dma.c ****     {
 1810              		.loc 1 627 0
 1811 0048 0822     		movs	r2, #8
 1812 004a 1868     		ldr	r0, [r3]
 1813 004c 0242     		tst	r2, r0
 1814 004e 14D0     		beq	.L183
 630:../../../../../../Drivers/STM32L0xx_HAL_Driver/Src/stm32l0xx_hal_dma.c ****     
 1815              		.loc 1 630 0
 1816 0050 1868     		ldr	r0, [r3]
 1817 0052 9043     		bics	r0, r2
 633:../../../../../../Drivers/STM32L0xx_HAL_Driver/Src/stm32l0xx_hal_dma.c ****     
 1818              		.loc 1 633 0
 1819 0054 884A     		ldr	r2, .L300
 630:../../../../../../Drivers/STM32L0xx_HAL_Driver/Src/stm32l0xx_hal_dma.c ****     
 1820              		.loc 1 630 0
 1821 0056 1860     		str	r0, [r3]
 633:../../../../../../Drivers/STM32L0xx_HAL_Driver/Src/stm32l0xx_hal_dma.c ****     
 1822              		.loc 1 633 0
 1823 0058 5160     		str	r1, [r2, #4]
 636:../../../../../../Drivers/STM32L0xx_HAL_Driver/Src/stm32l0xx_hal_dma.c **** 
 1824              		.loc 1 636 0
 1825 005a 0121     		movs	r1, #1
 1826 005c E26B     		ldr	r2, [r4, #60]
 1827 005e 0A43     		orrs	r2, r1
 1828 0060 E263     		str	r2, [r4, #60]
 639:../../../../../../Drivers/STM32L0xx_HAL_Driver/Src/stm32l0xx_hal_dma.c ****     
 1829              		.loc 1 639 0
 1830 0062 2522     		movs	r2, #37
 1831 0064 0331     		adds	r1, r1, #3
 1832 0066 A154     		strb	r1, [r4, r2]
 642:../../../../../../Drivers/STM32L0xx_HAL_Driver/Src/stm32l0xx_hal_dma.c ****     
 1833              		.loc 1 642 0
 1834 0068 0021     		movs	r1, #0
 1835 006a 013A     		subs	r2, r2, #1
 1836 006c A154     		strb	r1, [r4, r2]
 644:../../../../../../Drivers/STM32L0xx_HAL_Driver/Src/stm32l0xx_hal_dma.c ****       {
 1837              		.loc 1 644 0
 1838 006e 626B     		ldr	r2, [r4, #52]
 1839 0070 002A     		cmp	r2, #0
 1840 0072 02D0     		beq	.L183
 647:../../../../../../Drivers/STM32L0xx_HAL_Driver/Src/stm32l0xx_hal_dma.c ****       }
 1841              		.loc 1 647 0
 1842 0074 2000     		movs	r0, r4
 1843 0076 9047     		blx	r2
 1844              	.LVL103:
 1845 0078 2368     		ldr	r3, [r4]
 1846              	.L183:
 653:../../../../../../Drivers/STM32L0xx_HAL_Driver/Src/stm32l0xx_hal_dma.c ****   {
 1847              		.loc 1 653 0
 1848 007a 7F4A     		ldr	r2, .L300
 1849 007c 7F49     		ldr	r1, .L300+4
ARM GAS  C:\Users\EBANO_~1\AppData\Local\Temp\cc4h82Al.s 			page 52


 1850 007e 1268     		ldr	r2, [r2]
 1851 0080 8B42     		cmp	r3, r1
 1852 0082 19D0     		beq	.L184
 653:../../../../../../Drivers/STM32L0xx_HAL_Driver/Src/stm32l0xx_hal_dma.c ****   {
 1853              		.loc 1 653 0 is_stmt 0 discriminator 1
 1854 0084 7E49     		ldr	r1, .L300+8
 1855 0086 8B42     		cmp	r3, r1
 1856 0088 38D0     		beq	.L185
 653:../../../../../../Drivers/STM32L0xx_HAL_Driver/Src/stm32l0xx_hal_dma.c ****   {
 1857              		.loc 1 653 0 discriminator 3
 1858 008a 7E49     		ldr	r1, .L300+12
 1859 008c 8B42     		cmp	r3, r1
 1860 008e 00D0     		beq	.LCB1717
 1861 0090 6BE0     		b	.L290	@long jump
 1862              	.LCB1717:
 1863              	.L186:
 653:../../../../../../Drivers/STM32L0xx_HAL_Driver/Src/stm32l0xx_hal_dma.c ****   {
 1864              		.loc 1 653 0
 1865 0092 8021     		movs	r1, #128
 1866 0094 C900     		lsls	r1, r1, #3
 1867 0096 0A42     		tst	r2, r1
 1868 0098 00D1     		bne	.LCB1723
 1869 009a C5E0     		b	.L291	@long jump
 1870              	.LCB1723:
 655:../../../../../../Drivers/STM32L0xx_HAL_Driver/Src/stm32l0xx_hal_dma.c ****     { 
 1871              		.loc 1 655 0 is_stmt 1
 1872 009c 794B     		ldr	r3, .L300+12
 1873 009e 1A68     		ldr	r2, [r3]
 1874 00a0 5207     		lsls	r2, r2, #29
 1875 00a2 00D5     		bpl	.LCB1729
 1876 00a4 B5E0     		b	.L247	@long jump
 1877              	.LCB1729:
 678:../../../../../../Drivers/STM32L0xx_HAL_Driver/Src/stm32l0xx_hal_dma.c ****   {
 1878              		.loc 1 678 0
 1879 00a6 744A     		ldr	r2, .L300
 1880 00a8 1168     		ldr	r1, [r2]
 1881 00aa 8022     		movs	r2, #128
 1882 00ac 9200     		lsls	r2, r2, #2
 1883 00ae 0BE0     		b	.L193
 1884              	.L176:
 625:../../../../../../Drivers/STM32L0xx_HAL_Driver/Src/stm32l0xx_hal_dma.c ****   {
 1885              		.loc 1 625 0
 1886 00b0 0107     		lsls	r1, r0, #28
 1887 00b2 00D5     		bpl	.LCB1741
 1888 00b4 C1E0     		b	.L292	@long jump
 1889              	.LCB1741:
 653:../../../../../../Drivers/STM32L0xx_HAL_Driver/Src/stm32l0xx_hal_dma.c ****   {
 1890              		.loc 1 653 0
 1891 00b6 1268     		ldr	r2, [r2]
 1892              	.L184:
 1893 00b8 0421     		movs	r1, #4
 1894 00ba 1142     		tst	r1, r2
 1895 00bc 00D0     		beq	.LCB1748
 1896 00be BEE0     		b	.L293	@long jump
 1897              	.LCB1748:
 678:../../../../../../Drivers/STM32L0xx_HAL_Driver/Src/stm32l0xx_hal_dma.c ****   {
 1898              		.loc 1 678 0
ARM GAS  C:\Users\EBANO_~1\AppData\Local\Temp\cc4h82Al.s 			page 53


 1899 00c0 0222     		movs	r2, #2
 1900 00c2 6D4B     		ldr	r3, .L300
 1901 00c4 1968     		ldr	r1, [r3]
 1902 00c6 6D4B     		ldr	r3, .L300+4
 1903              	.L193:
 678:../../../../../../Drivers/STM32L0xx_HAL_Driver/Src/stm32l0xx_hal_dma.c ****   {
 1904              		.loc 1 678 0 is_stmt 0 discriminator 24
 1905 00c8 1142     		tst	r1, r2
 1906 00ca 15D0     		beq	.L175
 680:../../../../../../Drivers/STM32L0xx_HAL_Driver/Src/stm32l0xx_hal_dma.c ****     {
 1907              		.loc 1 680 0 is_stmt 1
 1908 00cc 0221     		movs	r1, #2
 1909 00ce 1868     		ldr	r0, [r3]
 1910 00d0 0142     		tst	r1, r0
 1911 00d2 11D0     		beq	.L175
 682:../../../../../../Drivers/STM32L0xx_HAL_Driver/Src/stm32l0xx_hal_dma.c ****       {
 1912              		.loc 1 682 0
 1913 00d4 1868     		ldr	r0, [r3]
 1914 00d6 8006     		lsls	r0, r0, #26
 1915 00d8 43D5     		bpl	.L294
 1916              	.L197:
 688:../../../../../../Drivers/STM32L0xx_HAL_Driver/Src/stm32l0xx_hal_dma.c ****     
 1917              		.loc 1 688 0
 1918 00da 674B     		ldr	r3, .L300
 1919 00dc 5A60     		str	r2, [r3, #4]
 691:../../../../../../Drivers/STM32L0xx_HAL_Driver/Src/stm32l0xx_hal_dma.c **** 
 1920              		.loc 1 691 0
 1921 00de E36B     		ldr	r3, [r4, #60]
 694:../../../../../../Drivers/STM32L0xx_HAL_Driver/Src/stm32l0xx_hal_dma.c ****     
 1922              		.loc 1 694 0
 1923 00e0 0122     		movs	r2, #1
 691:../../../../../../Drivers/STM32L0xx_HAL_Driver/Src/stm32l0xx_hal_dma.c **** 
 1924              		.loc 1 691 0
 1925 00e2 E363     		str	r3, [r4, #60]
 694:../../../../../../Drivers/STM32L0xx_HAL_Driver/Src/stm32l0xx_hal_dma.c ****     
 1926              		.loc 1 694 0
 1927 00e4 2523     		movs	r3, #37
 1928 00e6 E254     		strb	r2, [r4, r3]
 697:../../../../../../Drivers/STM32L0xx_HAL_Driver/Src/stm32l0xx_hal_dma.c ****     
 1929              		.loc 1 697 0
 1930 00e8 0022     		movs	r2, #0
 1931 00ea 013B     		subs	r3, r3, #1
 1932 00ec E254     		strb	r2, [r4, r3]
 699:../../../../../../Drivers/STM32L0xx_HAL_Driver/Src/stm32l0xx_hal_dma.c ****       {       
 1933              		.loc 1 699 0
 1934 00ee E36A     		ldr	r3, [r4, #44]
 1935 00f0 002B     		cmp	r3, #0
 1936 00f2 01D0     		beq	.L175
 702:../../../../../../Drivers/STM32L0xx_HAL_Driver/Src/stm32l0xx_hal_dma.c ****       }
 1937              		.loc 1 702 0
 1938 00f4 2000     		movs	r0, r4
 1939 00f6 9847     		blx	r3
 1940              	.LVL104:
 1941              	.L175:
 706:../../../../../../Drivers/STM32L0xx_HAL_Driver/Src/stm32l0xx_hal_dma.c **** 
 1942              		.loc 1 706 0
 1943              		@ sp needed
ARM GAS  C:\Users\EBANO_~1\AppData\Local\Temp\cc4h82Al.s 			page 54


 1944              	.LVL105:
 1945 00f8 10BD     		pop	{r4, pc}
 1946              	.LVL106:
 1947              	.L289:
 653:../../../../../../Drivers/STM32L0xx_HAL_Driver/Src/stm32l0xx_hal_dma.c ****   {
 1948              		.loc 1 653 0
 1949 00fa 1268     		ldr	r2, [r2]
 1950              	.L185:
 1951 00fc 5306     		lsls	r3, r2, #25
 1952 00fe 00D4     		bmi	.LCB1803
 1953 0100 A7E0     		b	.L269	@long jump
 1954              	.LCB1803:
 655:../../../../../../Drivers/STM32L0xx_HAL_Driver/Src/stm32l0xx_hal_dma.c ****     { 
 1955              		.loc 1 655 0
 1956 0102 5F48     		ldr	r0, .L300+8
 653:../../../../../../Drivers/STM32L0xx_HAL_Driver/Src/stm32l0xx_hal_dma.c ****   {
 1957              		.loc 1 653 0
 1958 0104 4022     		movs	r2, #64
 655:../../../../../../Drivers/STM32L0xx_HAL_Driver/Src/stm32l0xx_hal_dma.c ****     { 
 1959              		.loc 1 655 0
 1960 0106 0168     		ldr	r1, [r0]
 1961 0108 0300     		movs	r3, r0
 1962 010a 4907     		lsls	r1, r1, #29
 1963 010c 00D4     		bmi	.LCB1811
 1964 010e A0E0     		b	.L269	@long jump
 1965              	.LCB1811:
 1966              	.L220:
 658:../../../../../../Drivers/STM32L0xx_HAL_Driver/Src/stm32l0xx_hal_dma.c ****       {
 1967              		.loc 1 658 0
 1968 0110 1968     		ldr	r1, [r3]
 1969 0112 8906     		lsls	r1, r1, #26
 1970 0114 3ED5     		bpl	.L295
 1971              	.L191:
 664:../../../../../../Drivers/STM32L0xx_HAL_Driver/Src/stm32l0xx_hal_dma.c **** 
 1972              		.loc 1 664 0
 1973 0116 5849     		ldr	r1, .L300
 1974 0118 4A60     		str	r2, [r1, #4]
 667:../../../../../../Drivers/STM32L0xx_HAL_Driver/Src/stm32l0xx_hal_dma.c **** 
 1975              		.loc 1 667 0
 1976 011a 2522     		movs	r2, #37
 1977 011c 0521     		movs	r1, #5
 1978 011e A154     		strb	r1, [r4, r2]
 669:../../../../../../Drivers/STM32L0xx_HAL_Driver/Src/stm32l0xx_hal_dma.c ****       {
 1979              		.loc 1 669 0
 1980 0120 226B     		ldr	r2, [r4, #48]
 1981 0122 002A     		cmp	r2, #0
 1982 0124 02D0     		beq	.L192
 672:../../../../../../Drivers/STM32L0xx_HAL_Driver/Src/stm32l0xx_hal_dma.c ****       }
 1983              		.loc 1 672 0
 1984 0126 2000     		movs	r0, r4
 1985 0128 9047     		blx	r2
 1986              	.LVL107:
 1987 012a 2368     		ldr	r3, [r4]
 1988              	.L192:
 678:../../../../../../Drivers/STM32L0xx_HAL_Driver/Src/stm32l0xx_hal_dma.c ****   {
 1989              		.loc 1 678 0
 1990 012c 524A     		ldr	r2, .L300
ARM GAS  C:\Users\EBANO_~1\AppData\Local\Temp\cc4h82Al.s 			page 55


 1991 012e 5348     		ldr	r0, .L300+4
 1992 0130 1168     		ldr	r1, [r2]
 1993 0132 0222     		movs	r2, #2
 1994 0134 8342     		cmp	r3, r0
 1995 0136 C7D0     		beq	.L193
 678:../../../../../../Drivers/STM32L0xx_HAL_Driver/Src/stm32l0xx_hal_dma.c ****   {
 1996              		.loc 1 678 0 is_stmt 0 discriminator 1
 1997 0138 5148     		ldr	r0, .L300+8
 1998 013a 1E32     		adds	r2, r2, #30
 1999 013c 8342     		cmp	r3, r0
 2000 013e C3D0     		beq	.L193
 678:../../../../../../Drivers/STM32L0xx_HAL_Driver/Src/stm32l0xx_hal_dma.c ****   {
 2001              		.loc 1 678 0 discriminator 3
 2002 0140 5048     		ldr	r0, .L300+12
 2003 0142 E132     		adds	r2, r2, #225
 2004 0144 FF32     		adds	r2, r2, #255
 2005 0146 8342     		cmp	r3, r0
 2006 0148 BED0     		beq	.L193
 678:../../../../../../Drivers/STM32L0xx_HAL_Driver/Src/stm32l0xx_hal_dma.c ****   {
 2007              		.loc 1 678 0 discriminator 5
 2008 014a 4F4A     		ldr	r2, .L300+16
 2009 014c 9342     		cmp	r3, r2
 2010 014e 4AD0     		beq	.L285
 678:../../../../../../Drivers/STM32L0xx_HAL_Driver/Src/stm32l0xx_hal_dma.c ****   {
 2011              		.loc 1 678 0 discriminator 7
 2012 0150 4E4A     		ldr	r2, .L300+20
 2013 0152 9342     		cmp	r3, r2
 2014 0154 30D0     		beq	.L287
 678:../../../../../../Drivers/STM32L0xx_HAL_Driver/Src/stm32l0xx_hal_dma.c ****   {
 2015              		.loc 1 678 0 discriminator 9
 2016 0156 4E4A     		ldr	r2, .L300+24
 2017 0158 9342     		cmp	r3, r2
 2018 015a 6BD1     		bne	.L233
 2019              	.L286:
 678:../../../../../../Drivers/STM32L0xx_HAL_Driver/Src/stm32l0xx_hal_dma.c ****   {
 2020              		.loc 1 678 0
 2021 015c 8022     		movs	r2, #128
 2022 015e 9203     		lsls	r2, r2, #14
 2023 0160 B2E7     		b	.L193
 2024              	.L294:
 685:../../../../../../Drivers/STM32L0xx_HAL_Driver/Src/stm32l0xx_hal_dma.c ****       }
 2025              		.loc 1 685 0 is_stmt 1
 2026 0162 1868     		ldr	r0, [r3]
 2027 0164 8843     		bics	r0, r1
 2028 0166 1860     		str	r0, [r3]
 2029 0168 B7E7     		b	.L197
 2030              	.L290:
 653:../../../../../../Drivers/STM32L0xx_HAL_Driver/Src/stm32l0xx_hal_dma.c ****   {
 2031              		.loc 1 653 0 discriminator 5
 2032 016a 4749     		ldr	r1, .L300+16
 2033 016c 8B42     		cmp	r3, r1
 2034 016e 33D0     		beq	.L187
 653:../../../../../../Drivers/STM32L0xx_HAL_Driver/Src/stm32l0xx_hal_dma.c ****   {
 2035              		.loc 1 653 0 is_stmt 0 discriminator 7
 2036 0170 4649     		ldr	r1, .L300+20
 2037 0172 8B42     		cmp	r3, r1
 2038 0174 19D0     		beq	.L188
ARM GAS  C:\Users\EBANO_~1\AppData\Local\Temp\cc4h82Al.s 			page 56


 653:../../../../../../Drivers/STM32L0xx_HAL_Driver/Src/stm32l0xx_hal_dma.c ****   {
 2039              		.loc 1 653 0 discriminator 9
 2040 0176 4649     		ldr	r1, .L300+24
 2041 0178 8B42     		cmp	r3, r1
 2042 017a 3DD0     		beq	.L189
 2043              	.L190:
 653:../../../../../../Drivers/STM32L0xx_HAL_Driver/Src/stm32l0xx_hal_dma.c ****   {
 2044              		.loc 1 653 0
 2045 017c 8021     		movs	r1, #128
 2046 017e C904     		lsls	r1, r1, #19
 2047 0180 0A42     		tst	r2, r1
 2048 0182 02D0     		beq	.L280
 655:../../../../../../Drivers/STM32L0xx_HAL_Driver/Src/stm32l0xx_hal_dma.c ****     { 
 2049              		.loc 1 655 0 is_stmt 1
 2050 0184 1A68     		ldr	r2, [r3]
 2051 0186 5207     		lsls	r2, r2, #29
 2052 0188 43D4     		bmi	.L247
 2053              	.L280:
 678:../../../../../../Drivers/STM32L0xx_HAL_Driver/Src/stm32l0xx_hal_dma.c ****   {
 2054              		.loc 1 678 0
 2055 018a 3B4A     		ldr	r2, .L300
 2056 018c 1168     		ldr	r1, [r2]
 2057 018e 8022     		movs	r2, #128
 2058 0190 9204     		lsls	r2, r2, #18
 2059 0192 99E7     		b	.L193
 2060              	.L295:
 661:../../../../../../Drivers/STM32L0xx_HAL_Driver/Src/stm32l0xx_hal_dma.c ****       }
 2061              		.loc 1 661 0
 2062 0194 0420     		movs	r0, #4
 2063 0196 1968     		ldr	r1, [r3]
 2064 0198 8143     		bics	r1, r0
 2065 019a 1960     		str	r1, [r3]
 2066 019c BBE7     		b	.L191
 2067              	.L180:
 625:../../../../../../Drivers/STM32L0xx_HAL_Driver/Src/stm32l0xx_hal_dma.c ****   {
 2068              		.loc 1 625 0
 2069 019e 8021     		movs	r1, #128
 2070 01a0 0903     		lsls	r1, r1, #12
 2071 01a2 0842     		tst	r0, r1
 2072 01a4 00D0     		beq	.LCB1913
 2073 01a6 4FE7     		b	.L212	@long jump
 2074              	.LCB1913:
 653:../../../../../../Drivers/STM32L0xx_HAL_Driver/Src/stm32l0xx_hal_dma.c ****   {
 2075              		.loc 1 653 0
 2076 01a8 1268     		ldr	r2, [r2]
 2077              	.L188:
 2078 01aa 8021     		movs	r1, #128
 2079 01ac C902     		lsls	r1, r1, #11
 2080 01ae 0A42     		tst	r2, r1
 2081 01b0 31D1     		bne	.L296
 678:../../../../../../Drivers/STM32L0xx_HAL_Driver/Src/stm32l0xx_hal_dma.c ****   {
 2082              		.loc 1 678 0
 2083 01b2 314B     		ldr	r3, .L300
 2084 01b4 1968     		ldr	r1, [r3]
 2085 01b6 354B     		ldr	r3, .L300+20
 2086              	.L287:
 2087 01b8 8022     		movs	r2, #128
ARM GAS  C:\Users\EBANO_~1\AppData\Local\Temp\cc4h82Al.s 			page 57


 2088 01ba 9202     		lsls	r2, r2, #10
 2089 01bc 84E7     		b	.L193
 2090              	.L178:
 625:../../../../../../Drivers/STM32L0xx_HAL_Driver/Src/stm32l0xx_hal_dma.c ****   {
 2091              		.loc 1 625 0
 2092 01be 8021     		movs	r1, #128
 2093 01c0 0901     		lsls	r1, r1, #4
 2094 01c2 0842     		tst	r0, r1
 2095 01c4 00D0     		beq	.LCB1937
 2096 01c6 3FE7     		b	.L212	@long jump
 2097              	.LCB1937:
 653:../../../../../../Drivers/STM32L0xx_HAL_Driver/Src/stm32l0xx_hal_dma.c ****   {
 2098              		.loc 1 653 0
 2099 01c8 1268     		ldr	r2, [r2]
 2100 01ca 62E7     		b	.L186
 2101              	.L179:
 625:../../../../../../Drivers/STM32L0xx_HAL_Driver/Src/stm32l0xx_hal_dma.c ****   {
 2102              		.loc 1 625 0
 2103 01cc 8021     		movs	r1, #128
 2104 01ce 0902     		lsls	r1, r1, #8
 2105 01d0 0842     		tst	r0, r1
 2106 01d2 00D0     		beq	.LCB1947
 2107 01d4 38E7     		b	.L212	@long jump
 2108              	.LCB1947:
 653:../../../../../../Drivers/STM32L0xx_HAL_Driver/Src/stm32l0xx_hal_dma.c ****   {
 2109              		.loc 1 653 0
 2110 01d6 1268     		ldr	r2, [r2]
 2111              	.L187:
 2112 01d8 8021     		movs	r1, #128
 2113 01da C901     		lsls	r1, r1, #7
 2114 01dc 0A42     		tst	r2, r1
 2115 01de 41D1     		bne	.L297
 678:../../../../../../Drivers/STM32L0xx_HAL_Driver/Src/stm32l0xx_hal_dma.c ****   {
 2116              		.loc 1 678 0
 2117 01e0 254B     		ldr	r3, .L300
 2118 01e2 1968     		ldr	r1, [r3]
 2119 01e4 284B     		ldr	r3, .L300+16
 2120              	.L285:
 2121 01e6 8022     		movs	r2, #128
 2122 01e8 9201     		lsls	r2, r2, #6
 2123 01ea 6DE7     		b	.L193
 2124              	.L288:
 625:../../../../../../Drivers/STM32L0xx_HAL_Driver/Src/stm32l0xx_hal_dma.c ****   {
 2125              		.loc 1 625 0
 2126 01ec 8021     		movs	r1, #128
 2127 01ee 0904     		lsls	r1, r1, #16
 2128 01f0 0842     		tst	r0, r1
 2129 01f2 00D0     		beq	.LCB1971
 2130 01f4 28E7     		b	.L212	@long jump
 2131              	.LCB1971:
 653:../../../../../../Drivers/STM32L0xx_HAL_Driver/Src/stm32l0xx_hal_dma.c ****   {
 2132              		.loc 1 653 0
 2133 01f6 1268     		ldr	r2, [r2]
 2134              	.L189:
 2135 01f8 8021     		movs	r1, #128
 2136 01fa C903     		lsls	r1, r1, #15
 2137 01fc 0A42     		tst	r2, r1
ARM GAS  C:\Users\EBANO_~1\AppData\Local\Temp\cc4h82Al.s 			page 58


 2138 01fe 2DD0     		beq	.L298
 655:../../../../../../Drivers/STM32L0xx_HAL_Driver/Src/stm32l0xx_hal_dma.c ****     { 
 2139              		.loc 1 655 0
 2140 0200 234B     		ldr	r3, .L300+24
 2141 0202 1A68     		ldr	r2, [r3]
 2142 0204 5207     		lsls	r2, r2, #29
 2143 0206 04D4     		bmi	.L247
 678:../../../../../../Drivers/STM32L0xx_HAL_Driver/Src/stm32l0xx_hal_dma.c ****   {
 2144              		.loc 1 678 0
 2145 0208 1B4A     		ldr	r2, .L300
 2146 020a 1168     		ldr	r1, [r2]
 2147 020c 8022     		movs	r2, #128
 2148 020e 9203     		lsls	r2, r2, #14
 2149 0210 5AE7     		b	.L193
 2150              	.L247:
 653:../../../../../../Drivers/STM32L0xx_HAL_Driver/Src/stm32l0xx_hal_dma.c ****   {
 2151              		.loc 1 653 0
 2152 0212 0A00     		movs	r2, r1
 2153 0214 7CE7     		b	.L220
 2154              	.L296:
 655:../../../../../../Drivers/STM32L0xx_HAL_Driver/Src/stm32l0xx_hal_dma.c ****     { 
 2155              		.loc 1 655 0
 2156 0216 1D4B     		ldr	r3, .L300+20
 2157 0218 1A68     		ldr	r2, [r3]
 2158 021a 5207     		lsls	r2, r2, #29
 2159 021c F9D4     		bmi	.L247
 678:../../../../../../Drivers/STM32L0xx_HAL_Driver/Src/stm32l0xx_hal_dma.c ****   {
 2160              		.loc 1 678 0
 2161 021e 164A     		ldr	r2, .L300
 2162 0220 1168     		ldr	r1, [r2]
 2163 0222 8022     		movs	r2, #128
 2164 0224 9202     		lsls	r2, r2, #10
 2165 0226 4FE7     		b	.L193
 2166              	.L291:
 2167 0228 8022     		movs	r2, #128
 2168 022a 134B     		ldr	r3, .L300
 2169 022c 9200     		lsls	r2, r2, #2
 2170 022e 1968     		ldr	r1, [r3]
 2171 0230 144B     		ldr	r3, .L300+12
 2172 0232 49E7     		b	.L193
 2173              	.L233:
 2174 0234 8022     		movs	r2, #128
 2175 0236 9204     		lsls	r2, r2, #18
 2176 0238 46E7     		b	.L193
 2177              	.L292:
 625:../../../../../../Drivers/STM32L0xx_HAL_Driver/Src/stm32l0xx_hal_dma.c ****   {
 2178              		.loc 1 625 0
 2179 023a 0821     		movs	r1, #8
 2180 023c 04E7     		b	.L212
 2181              	.L293:
 655:../../../../../../Drivers/STM32L0xx_HAL_Driver/Src/stm32l0xx_hal_dma.c ****     { 
 2182              		.loc 1 655 0
 2183 023e 0F4B     		ldr	r3, .L300+4
 2184 0240 1A68     		ldr	r2, [r3]
 2185 0242 0A42     		tst	r2, r1
 2186 0244 01D0     		beq	.L299
 653:../../../../../../Drivers/STM32L0xx_HAL_Driver/Src/stm32l0xx_hal_dma.c ****   {
ARM GAS  C:\Users\EBANO_~1\AppData\Local\Temp\cc4h82Al.s 			page 59


 2187              		.loc 1 653 0
 2188 0246 0422     		movs	r2, #4
 2189 0248 62E7     		b	.L220
 2190              	.L299:
 678:../../../../../../Drivers/STM32L0xx_HAL_Driver/Src/stm32l0xx_hal_dma.c ****   {
 2191              		.loc 1 678 0
 2192 024a 0B4A     		ldr	r2, .L300
 2193 024c 1168     		ldr	r1, [r2]
 2194 024e 0222     		movs	r2, #2
 2195 0250 3AE7     		b	.L193
 2196              	.L269:
 2197 0252 094B     		ldr	r3, .L300
 2198 0254 2022     		movs	r2, #32
 2199 0256 1968     		ldr	r1, [r3]
 2200 0258 094B     		ldr	r3, .L300+8
 2201 025a 35E7     		b	.L193
 2202              	.L298:
 2203 025c 064B     		ldr	r3, .L300
 2204 025e 1968     		ldr	r1, [r3]
 2205 0260 0B4B     		ldr	r3, .L300+24
 2206 0262 7BE7     		b	.L286
 2207              	.L297:
 655:../../../../../../Drivers/STM32L0xx_HAL_Driver/Src/stm32l0xx_hal_dma.c ****     { 
 2208              		.loc 1 655 0
 2209 0264 084B     		ldr	r3, .L300+16
 2210 0266 1A68     		ldr	r2, [r3]
 2211 0268 5207     		lsls	r2, r2, #29
 2212 026a D2D4     		bmi	.L247
 678:../../../../../../Drivers/STM32L0xx_HAL_Driver/Src/stm32l0xx_hal_dma.c ****   {
 2213              		.loc 1 678 0
 2214 026c 024A     		ldr	r2, .L300
 2215 026e 1168     		ldr	r1, [r2]
 2216 0270 8022     		movs	r2, #128
 2217 0272 9201     		lsls	r2, r2, #6
 2218 0274 28E7     		b	.L193
 2219              	.L301:
 2220 0276 C046     		.align	2
 2221              	.L300:
 2222 0278 00000240 		.word	1073872896
 2223 027c 08000240 		.word	1073872904
 2224 0280 1C000240 		.word	1073872924
 2225 0284 30000240 		.word	1073872944
 2226 0288 44000240 		.word	1073872964
 2227 028c 58000240 		.word	1073872984
 2228 0290 6C000240 		.word	1073873004
 2229              		.cfi_endproc
 2230              	.LFE46:
 2231              		.size	HAL_DMA_IRQHandler, .-HAL_DMA_IRQHandler
 2232              		.section	.text.HAL_DMA_GetState,"ax",%progbits
 2233              		.align	1
 2234              		.p2align 2,,3
 2235              		.global	HAL_DMA_GetState
 2236              		.syntax unified
 2237              		.code	16
 2238              		.thumb_func
 2239              		.fpu softvfp
 2240              		.type	HAL_DMA_GetState, %function
ARM GAS  C:\Users\EBANO_~1\AppData\Local\Temp\cc4h82Al.s 			page 60


 2241              	HAL_DMA_GetState:
 2242              	.LFB47:
 735:../../../../../../Drivers/STM32L0xx_HAL_Driver/Src/stm32l0xx_hal_dma.c ****   return hdma->State;
 2243              		.loc 1 735 0
 2244              		.cfi_startproc
 2245              		@ args = 0, pretend = 0, frame = 0
 2246              		@ frame_needed = 0, uses_anonymous_args = 0
 2247              		@ link register save eliminated.
 2248              	.LVL108:
 736:../../../../../../Drivers/STM32L0xx_HAL_Driver/Src/stm32l0xx_hal_dma.c **** }
 2249              		.loc 1 736 0
 2250 0000 2523     		movs	r3, #37
 2251 0002 C05C     		ldrb	r0, [r0, r3]
 2252              	.LVL109:
 737:../../../../../../Drivers/STM32L0xx_HAL_Driver/Src/stm32l0xx_hal_dma.c **** 
 2253              		.loc 1 737 0
 2254              		@ sp needed
 736:../../../../../../Drivers/STM32L0xx_HAL_Driver/Src/stm32l0xx_hal_dma.c **** }
 2255              		.loc 1 736 0
 2256 0004 C0B2     		uxtb	r0, r0
 737:../../../../../../Drivers/STM32L0xx_HAL_Driver/Src/stm32l0xx_hal_dma.c **** 
 2257              		.loc 1 737 0
 2258 0006 7047     		bx	lr
 2259              		.cfi_endproc
 2260              	.LFE47:
 2261              		.size	HAL_DMA_GetState, .-HAL_DMA_GetState
 2262              		.section	.text.HAL_DMA_GetError,"ax",%progbits
 2263              		.align	1
 2264              		.p2align 2,,3
 2265              		.global	HAL_DMA_GetError
 2266              		.syntax unified
 2267              		.code	16
 2268              		.thumb_func
 2269              		.fpu softvfp
 2270              		.type	HAL_DMA_GetError, %function
 2271              	HAL_DMA_GetError:
 2272              	.LFB48:
 746:../../../../../../Drivers/STM32L0xx_HAL_Driver/Src/stm32l0xx_hal_dma.c ****   return hdma->ErrorCode;
 2273              		.loc 1 746 0
 2274              		.cfi_startproc
 2275              		@ args = 0, pretend = 0, frame = 0
 2276              		@ frame_needed = 0, uses_anonymous_args = 0
 2277              		@ link register save eliminated.
 2278              	.LVL110:
 747:../../../../../../Drivers/STM32L0xx_HAL_Driver/Src/stm32l0xx_hal_dma.c **** }
 2279              		.loc 1 747 0
 2280 0000 C06B     		ldr	r0, [r0, #60]
 2281              	.LVL111:
 748:../../../../../../Drivers/STM32L0xx_HAL_Driver/Src/stm32l0xx_hal_dma.c **** 
 2282              		.loc 1 748 0
 2283              		@ sp needed
 2284 0002 7047     		bx	lr
 2285              		.cfi_endproc
 2286              	.LFE48:
 2287              		.size	HAL_DMA_GetError, .-HAL_DMA_GetError
 2288              		.text
 2289              	.Letext0:
ARM GAS  C:\Users\EBANO_~1\AppData\Local\Temp\cc4h82Al.s 			page 61


 2290              		.file 2 "c:\\program files (x86)\\gnu tools arm embedded\\7 2018-q2-update\\arm-none-eabi\\include
 2291              		.file 3 "c:\\program files (x86)\\gnu tools arm embedded\\7 2018-q2-update\\arm-none-eabi\\include
 2292              		.file 4 "../../../../../../Drivers/CMSIS/Device/ST/STM32L0xx/Include/system_stm32l0xx.h"
 2293              		.file 5 "../../../../../../Drivers/CMSIS/Device/ST/STM32L0xx/Include/stm32l072xx.h"
 2294              		.file 6 "c:\\program files (x86)\\gnu tools arm embedded\\7 2018-q2-update\\arm-none-eabi\\include
 2295              		.file 7 "c:\\program files (x86)\\gnu tools arm embedded\\7 2018-q2-update\\arm-none-eabi\\include
 2296              		.file 8 "c:\\program files (x86)\\gnu tools arm embedded\\7 2018-q2-update\\lib\\gcc\\arm-none-eab
 2297              		.file 9 "c:\\program files (x86)\\gnu tools arm embedded\\7 2018-q2-update\\arm-none-eabi\\include
 2298              		.file 10 "../../../../../../Drivers/CMSIS/Device/ST/STM32L0xx/Include/stm32l0xx.h"
 2299              		.file 11 "../../../../../../Drivers/STM32L0xx_HAL_Driver/Inc/stm32l0xx_hal_def.h"
 2300              		.file 12 "../../../../../../Drivers/STM32L0xx_HAL_Driver/Inc/stm32l0xx_hal_dma.h"
 2301              		.file 13 "../../../../../../Drivers/STM32L0xx_HAL_Driver/Inc/stm32l0xx_hal.h"
 2302              		.section	.debug_info,"",%progbits
 2303              	.Ldebug_info0:
 2304 0000 92100000 		.4byte	0x1092
 2305 0004 0200     		.2byte	0x2
 2306 0006 00000000 		.4byte	.Ldebug_abbrev0
 2307 000a 04       		.byte	0x4
 2308 000b 01       		.uleb128 0x1
 2309 000c 3F050000 		.4byte	.LASF194
 2310 0010 0C       		.byte	0xc
 2311 0011 D7050000 		.4byte	.LASF195
 2312 0015 AA080000 		.4byte	.LASF196
 2313 0019 30000000 		.4byte	.Ldebug_ranges0+0x30
 2314 001d 00000000 		.4byte	0
 2315 0021 00000000 		.4byte	0
 2316 0025 00000000 		.4byte	.Ldebug_line0
 2317 0029 02       		.uleb128 0x2
 2318 002a 01       		.byte	0x1
 2319 002b 06       		.byte	0x6
 2320 002c 54010000 		.4byte	.LASF0
 2321 0030 03       		.uleb128 0x3
 2322 0031 70000000 		.4byte	.LASF5
 2323 0035 02       		.byte	0x2
 2324 0036 2B       		.byte	0x2b
 2325 0037 3B000000 		.4byte	0x3b
 2326 003b 02       		.uleb128 0x2
 2327 003c 01       		.byte	0x1
 2328 003d 08       		.byte	0x8
 2329 003e 1E060000 		.4byte	.LASF1
 2330 0042 02       		.uleb128 0x2
 2331 0043 02       		.byte	0x2
 2332 0044 05       		.byte	0x5
 2333 0045 1F000000 		.4byte	.LASF2
 2334 0049 02       		.uleb128 0x2
 2335 004a 02       		.byte	0x2
 2336 004b 07       		.byte	0x7
 2337 004c CB070000 		.4byte	.LASF3
 2338 0050 02       		.uleb128 0x2
 2339 0051 04       		.byte	0x4
 2340 0052 05       		.byte	0x5
 2341 0053 F3010000 		.4byte	.LASF4
 2342 0057 03       		.uleb128 0x3
 2343 0058 99020000 		.4byte	.LASF6
 2344 005c 02       		.byte	0x2
 2345 005d 4F       		.byte	0x4f
 2346 005e 62000000 		.4byte	0x62
ARM GAS  C:\Users\EBANO_~1\AppData\Local\Temp\cc4h82Al.s 			page 62


 2347 0062 02       		.uleb128 0x2
 2348 0063 04       		.byte	0x4
 2349 0064 07       		.byte	0x7
 2350 0065 42030000 		.4byte	.LASF7
 2351 0069 02       		.uleb128 0x2
 2352 006a 08       		.byte	0x8
 2353 006b 05       		.byte	0x5
 2354 006c 50020000 		.4byte	.LASF8
 2355 0070 02       		.uleb128 0x2
 2356 0071 08       		.byte	0x8
 2357 0072 07       		.byte	0x7
 2358 0073 D0000000 		.4byte	.LASF9
 2359 0077 04       		.uleb128 0x4
 2360 0078 04       		.byte	0x4
 2361 0079 05       		.byte	0x5
 2362 007a 696E7400 		.ascii	"int\000"
 2363 007e 02       		.uleb128 0x2
 2364 007f 04       		.byte	0x4
 2365 0080 07       		.byte	0x7
 2366 0081 7B070000 		.4byte	.LASF10
 2367 0085 03       		.uleb128 0x3
 2368 0086 72080000 		.4byte	.LASF11
 2369 008a 03       		.byte	0x3
 2370 008b 18       		.byte	0x18
 2371 008c 30000000 		.4byte	0x30
 2372 0090 05       		.uleb128 0x5
 2373 0091 85000000 		.4byte	0x85
 2374 0095 03       		.uleb128 0x3
 2375 0096 25080000 		.4byte	.LASF12
 2376 009a 03       		.byte	0x3
 2377 009b 30       		.byte	0x30
 2378 009c 57000000 		.4byte	0x57
 2379 00a0 06       		.uleb128 0x6
 2380 00a1 95000000 		.4byte	0x95
 2381 00a5 07       		.uleb128 0x7
 2382 00a6 1D030000 		.4byte	.LASF13
 2383 00aa 04       		.byte	0x4
 2384 00ab 4A       		.byte	0x4a
 2385 00ac 95000000 		.4byte	0x95
 2386 00b0 01       		.byte	0x1
 2387 00b1 01       		.byte	0x1
 2388 00b2 08       		.uleb128 0x8
 2389 00b3 90000000 		.4byte	0x90
 2390 00b7 C2000000 		.4byte	0xc2
 2391 00bb 09       		.uleb128 0x9
 2392 00bc 7E000000 		.4byte	0x7e
 2393 00c0 0F       		.byte	0xf
 2394 00c1 00       		.byte	0
 2395 00c2 05       		.uleb128 0x5
 2396 00c3 B2000000 		.4byte	0xb2
 2397 00c7 07       		.uleb128 0x7
 2398 00c8 60010000 		.4byte	.LASF14
 2399 00cc 04       		.byte	0x4
 2400 00cd 4D       		.byte	0x4d
 2401 00ce C2000000 		.4byte	0xc2
 2402 00d2 01       		.byte	0x1
 2403 00d3 01       		.byte	0x1
ARM GAS  C:\Users\EBANO_~1\AppData\Local\Temp\cc4h82Al.s 			page 63


 2404 00d4 08       		.uleb128 0x8
 2405 00d5 90000000 		.4byte	0x90
 2406 00d9 E4000000 		.4byte	0xe4
 2407 00dd 09       		.uleb128 0x9
 2408 00de 7E000000 		.4byte	0x7e
 2409 00e2 07       		.byte	0x7
 2410 00e3 00       		.byte	0
 2411 00e4 05       		.uleb128 0x5
 2412 00e5 D4000000 		.4byte	0xd4
 2413 00e9 07       		.uleb128 0x7
 2414 00ea DE020000 		.4byte	.LASF15
 2415 00ee 04       		.byte	0x4
 2416 00ef 4E       		.byte	0x4e
 2417 00f0 E4000000 		.4byte	0xe4
 2418 00f4 01       		.byte	0x1
 2419 00f5 01       		.byte	0x1
 2420 00f6 08       		.uleb128 0x8
 2421 00f7 90000000 		.4byte	0x90
 2422 00fb 06010000 		.4byte	0x106
 2423 00ff 09       		.uleb128 0x9
 2424 0100 7E000000 		.4byte	0x7e
 2425 0104 08       		.byte	0x8
 2426 0105 00       		.byte	0
 2427 0106 05       		.uleb128 0x5
 2428 0107 F6000000 		.4byte	0xf6
 2429 010b 07       		.uleb128 0x7
 2430 010c 75040000 		.4byte	.LASF16
 2431 0110 04       		.byte	0x4
 2432 0111 4F       		.byte	0x4f
 2433 0112 06010000 		.4byte	0x106
 2434 0116 01       		.byte	0x1
 2435 0117 01       		.byte	0x1
 2436 0118 0A       		.uleb128 0xa
 2437 0119 10       		.byte	0x10
 2438 011a 05       		.byte	0x5
 2439 011b FA       		.byte	0xfa
 2440 011c 59010000 		.4byte	0x159
 2441 0120 0B       		.uleb128 0xb
 2442 0121 43435200 		.ascii	"CCR\000"
 2443 0125 05       		.byte	0x5
 2444 0126 FC       		.byte	0xfc
 2445 0127 A0000000 		.4byte	0xa0
 2446 012b 02       		.byte	0x2
 2447 012c 23       		.byte	0x23
 2448 012d 00       		.uleb128 0
 2449 012e 0C       		.uleb128 0xc
 2450 012f 42080000 		.4byte	.LASF17
 2451 0133 05       		.byte	0x5
 2452 0134 FD       		.byte	0xfd
 2453 0135 A0000000 		.4byte	0xa0
 2454 0139 02       		.byte	0x2
 2455 013a 23       		.byte	0x23
 2456 013b 04       		.uleb128 0x4
 2457 013c 0C       		.uleb128 0xc
 2458 013d 35030000 		.4byte	.LASF18
 2459 0141 05       		.byte	0x5
 2460 0142 FE       		.byte	0xfe
ARM GAS  C:\Users\EBANO_~1\AppData\Local\Temp\cc4h82Al.s 			page 64


 2461 0143 A0000000 		.4byte	0xa0
 2462 0147 02       		.byte	0x2
 2463 0148 23       		.byte	0x23
 2464 0149 08       		.uleb128 0x8
 2465 014a 0C       		.uleb128 0xc
 2466 014b 26040000 		.4byte	.LASF19
 2467 014f 05       		.byte	0x5
 2468 0150 FF       		.byte	0xff
 2469 0151 A0000000 		.4byte	0xa0
 2470 0155 02       		.byte	0x2
 2471 0156 23       		.byte	0x23
 2472 0157 0C       		.uleb128 0xc
 2473 0158 00       		.byte	0
 2474 0159 0D       		.uleb128 0xd
 2475 015a FF040000 		.4byte	.LASF20
 2476 015e 05       		.byte	0x5
 2477 015f 0001     		.2byte	0x100
 2478 0161 18010000 		.4byte	0x118
 2479 0165 0E       		.uleb128 0xe
 2480 0166 08       		.byte	0x8
 2481 0167 05       		.byte	0x5
 2482 0168 0201     		.2byte	0x102
 2483 016a 8D010000 		.4byte	0x18d
 2484 016e 0F       		.uleb128 0xf
 2485 016f 49535200 		.ascii	"ISR\000"
 2486 0173 05       		.byte	0x5
 2487 0174 0401     		.2byte	0x104
 2488 0176 A0000000 		.4byte	0xa0
 2489 017a 02       		.byte	0x2
 2490 017b 23       		.byte	0x23
 2491 017c 00       		.uleb128 0
 2492 017d 10       		.uleb128 0x10
 2493 017e 50070000 		.4byte	.LASF21
 2494 0182 05       		.byte	0x5
 2495 0183 0501     		.2byte	0x105
 2496 0185 A0000000 		.4byte	0xa0
 2497 0189 02       		.byte	0x2
 2498 018a 23       		.byte	0x23
 2499 018b 04       		.uleb128 0x4
 2500 018c 00       		.byte	0
 2501 018d 0D       		.uleb128 0xd
 2502 018e 2C060000 		.4byte	.LASF22
 2503 0192 05       		.byte	0x5
 2504 0193 0601     		.2byte	0x106
 2505 0195 65010000 		.4byte	0x165
 2506 0199 0E       		.uleb128 0xe
 2507 019a 04       		.byte	0x4
 2508 019b 05       		.byte	0x5
 2509 019c 0801     		.2byte	0x108
 2510 019e B2010000 		.4byte	0x1b2
 2511 01a2 10       		.uleb128 0x10
 2512 01a3 F0000000 		.4byte	.LASF23
 2513 01a7 05       		.byte	0x5
 2514 01a8 0A01     		.2byte	0x10a
 2515 01aa A0000000 		.4byte	0xa0
 2516 01ae 02       		.byte	0x2
 2517 01af 23       		.byte	0x23
ARM GAS  C:\Users\EBANO_~1\AppData\Local\Temp\cc4h82Al.s 			page 65


 2518 01b0 00       		.uleb128 0
 2519 01b1 00       		.byte	0
 2520 01b2 0D       		.uleb128 0xd
 2521 01b3 96080000 		.4byte	.LASF24
 2522 01b7 05       		.byte	0x5
 2523 01b8 0B01     		.2byte	0x10b
 2524 01ba 99010000 		.4byte	0x199
 2525 01be 11       		.uleb128 0x11
 2526 01bf 07       		.byte	0x7
 2527 01c0 01       		.byte	0x1
 2528 01c1 3B000000 		.4byte	0x3b
 2529 01c5 0A       		.byte	0xa
 2530 01c6 BE       		.byte	0xbe
 2531 01c7 D8010000 		.4byte	0x1d8
 2532 01cb 12       		.uleb128 0x12
 2533 01cc 39050000 		.4byte	.LASF25
 2534 01d0 00       		.byte	0
 2535 01d1 13       		.uleb128 0x13
 2536 01d2 53455400 		.ascii	"SET\000"
 2537 01d6 01       		.byte	0x1
 2538 01d7 00       		.byte	0
 2539 01d8 02       		.uleb128 0x2
 2540 01d9 08       		.byte	0x8
 2541 01da 04       		.byte	0x4
 2542 01db 69040000 		.4byte	.LASF26
 2543 01df 14       		.uleb128 0x14
 2544 01e0 04       		.byte	0x4
 2545 01e1 03       		.uleb128 0x3
 2546 01e2 CC030000 		.4byte	.LASF27
 2547 01e6 06       		.byte	0x6
 2548 01e7 22       		.byte	0x22
 2549 01e8 EC010000 		.4byte	0x1ec
 2550 01ec 15       		.uleb128 0x15
 2551 01ed 04       		.byte	0x4
 2552 01ee F2010000 		.4byte	0x1f2
 2553 01f2 16       		.uleb128 0x16
 2554 01f3 15070000 		.4byte	.LASF134
 2555 01f7 01       		.byte	0x1
 2556 01f8 03       		.uleb128 0x3
 2557 01f9 56040000 		.4byte	.LASF28
 2558 01fd 07       		.byte	0x7
 2559 01fe 2C       		.byte	0x2c
 2560 01ff 50000000 		.4byte	0x50
 2561 0203 03       		.uleb128 0x3
 2562 0204 48070000 		.4byte	.LASF29
 2563 0208 07       		.byte	0x7
 2564 0209 72       		.byte	0x72
 2565 020a 50000000 		.4byte	0x50
 2566 020e 0D       		.uleb128 0xd
 2567 020f F8040000 		.4byte	.LASF30
 2568 0213 08       		.byte	0x8
 2569 0214 6501     		.2byte	0x165
 2570 0216 7E000000 		.4byte	0x7e
 2571 021a 17       		.uleb128 0x17
 2572 021b 04       		.byte	0x4
 2573 021c 07       		.byte	0x7
 2574 021d A6       		.byte	0xa6
ARM GAS  C:\Users\EBANO_~1\AppData\Local\Temp\cc4h82Al.s 			page 66


 2575 021e 39020000 		.4byte	0x239
 2576 0222 18       		.uleb128 0x18
 2577 0223 B5030000 		.4byte	.LASF31
 2578 0227 07       		.byte	0x7
 2579 0228 A8       		.byte	0xa8
 2580 0229 0E020000 		.4byte	0x20e
 2581 022d 18       		.uleb128 0x18
 2582 022e 16030000 		.4byte	.LASF32
 2583 0232 07       		.byte	0x7
 2584 0233 A9       		.byte	0xa9
 2585 0234 39020000 		.4byte	0x239
 2586 0238 00       		.byte	0
 2587 0239 08       		.uleb128 0x8
 2588 023a 3B000000 		.4byte	0x3b
 2589 023e 49020000 		.4byte	0x249
 2590 0242 09       		.uleb128 0x9
 2591 0243 7E000000 		.4byte	0x7e
 2592 0247 03       		.byte	0x3
 2593 0248 00       		.byte	0
 2594 0249 0A       		.uleb128 0xa
 2595 024a 08       		.byte	0x8
 2596 024b 07       		.byte	0x7
 2597 024c A3       		.byte	0xa3
 2598 024d 6E020000 		.4byte	0x26e
 2599 0251 0C       		.uleb128 0xc
 2600 0252 0D070000 		.4byte	.LASF33
 2601 0256 07       		.byte	0x7
 2602 0257 A5       		.byte	0xa5
 2603 0258 77000000 		.4byte	0x77
 2604 025c 02       		.byte	0x2
 2605 025d 23       		.byte	0x23
 2606 025e 00       		.uleb128 0
 2607 025f 0C       		.uleb128 0xc
 2608 0260 1C070000 		.4byte	.LASF34
 2609 0264 07       		.byte	0x7
 2610 0265 AA       		.byte	0xaa
 2611 0266 1A020000 		.4byte	0x21a
 2612 026a 02       		.byte	0x2
 2613 026b 23       		.byte	0x23
 2614 026c 04       		.uleb128 0x4
 2615 026d 00       		.byte	0
 2616 026e 03       		.uleb128 0x3
 2617 026f 88060000 		.4byte	.LASF35
 2618 0273 07       		.byte	0x7
 2619 0274 AB       		.byte	0xab
 2620 0275 49020000 		.4byte	0x249
 2621 0279 03       		.uleb128 0x3
 2622 027a 4F060000 		.4byte	.LASF36
 2623 027e 07       		.byte	0x7
 2624 027f AF       		.byte	0xaf
 2625 0280 E1010000 		.4byte	0x1e1
 2626 0284 03       		.uleb128 0x3
 2627 0285 E3070000 		.4byte	.LASF37
 2628 0289 09       		.byte	0x9
 2629 028a 16       		.byte	0x16
 2630 028b 62000000 		.4byte	0x62
 2631 028f 19       		.uleb128 0x19
ARM GAS  C:\Users\EBANO_~1\AppData\Local\Temp\cc4h82Al.s 			page 67


 2632 0290 84080000 		.4byte	.LASF42
 2633 0294 18       		.byte	0x18
 2634 0295 09       		.byte	0x9
 2635 0296 2F       		.byte	0x2f
 2636 0297 EE020000 		.4byte	0x2ee
 2637 029b 0C       		.uleb128 0xc
 2638 029c 93070000 		.4byte	.LASF38
 2639 02a0 09       		.byte	0x9
 2640 02a1 31       		.byte	0x31
 2641 02a2 EE020000 		.4byte	0x2ee
 2642 02a6 02       		.byte	0x2
 2643 02a7 23       		.byte	0x23
 2644 02a8 00       		.uleb128 0
 2645 02a9 0B       		.uleb128 0xb
 2646 02aa 5F6B00   		.ascii	"_k\000"
 2647 02ad 09       		.byte	0x9
 2648 02ae 32       		.byte	0x32
 2649 02af 77000000 		.4byte	0x77
 2650 02b3 02       		.byte	0x2
 2651 02b4 23       		.byte	0x23
 2652 02b5 04       		.uleb128 0x4
 2653 02b6 0C       		.uleb128 0xc
 2654 02b7 C3070000 		.4byte	.LASF39
 2655 02bb 09       		.byte	0x9
 2656 02bc 32       		.byte	0x32
 2657 02bd 77000000 		.4byte	0x77
 2658 02c1 02       		.byte	0x2
 2659 02c2 23       		.byte	0x23
 2660 02c3 08       		.uleb128 0x8
 2661 02c4 0C       		.uleb128 0xc
 2662 02c5 8D070000 		.4byte	.LASF40
 2663 02c9 09       		.byte	0x9
 2664 02ca 32       		.byte	0x32
 2665 02cb 77000000 		.4byte	0x77
 2666 02cf 02       		.byte	0x2
 2667 02d0 23       		.byte	0x23
 2668 02d1 0C       		.uleb128 0xc
 2669 02d2 0C       		.uleb128 0xc
 2670 02d3 48080000 		.4byte	.LASF41
 2671 02d7 09       		.byte	0x9
 2672 02d8 32       		.byte	0x32
 2673 02d9 77000000 		.4byte	0x77
 2674 02dd 02       		.byte	0x2
 2675 02de 23       		.byte	0x23
 2676 02df 10       		.uleb128 0x10
 2677 02e0 0B       		.uleb128 0xb
 2678 02e1 5F7800   		.ascii	"_x\000"
 2679 02e4 09       		.byte	0x9
 2680 02e5 33       		.byte	0x33
 2681 02e6 F4020000 		.4byte	0x2f4
 2682 02ea 02       		.byte	0x2
 2683 02eb 23       		.byte	0x23
 2684 02ec 14       		.uleb128 0x14
 2685 02ed 00       		.byte	0
 2686 02ee 15       		.uleb128 0x15
 2687 02ef 04       		.byte	0x4
 2688 02f0 8F020000 		.4byte	0x28f
ARM GAS  C:\Users\EBANO_~1\AppData\Local\Temp\cc4h82Al.s 			page 68


 2689 02f4 08       		.uleb128 0x8
 2690 02f5 84020000 		.4byte	0x284
 2691 02f9 04030000 		.4byte	0x304
 2692 02fd 09       		.uleb128 0x9
 2693 02fe 7E000000 		.4byte	0x7e
 2694 0302 00       		.byte	0
 2695 0303 00       		.byte	0
 2696 0304 19       		.uleb128 0x19
 2697 0305 11030000 		.4byte	.LASF43
 2698 0309 24       		.byte	0x24
 2699 030a 09       		.byte	0x9
 2700 030b 37       		.byte	0x37
 2701 030c 8F030000 		.4byte	0x38f
 2702 0310 0C       		.uleb128 0xc
 2703 0311 33010000 		.4byte	.LASF44
 2704 0315 09       		.byte	0x9
 2705 0316 39       		.byte	0x39
 2706 0317 77000000 		.4byte	0x77
 2707 031b 02       		.byte	0x2
 2708 031c 23       		.byte	0x23
 2709 031d 00       		.uleb128 0
 2710 031e 0C       		.uleb128 0xc
 2711 031f 45090000 		.4byte	.LASF45
 2712 0323 09       		.byte	0x9
 2713 0324 3A       		.byte	0x3a
 2714 0325 77000000 		.4byte	0x77
 2715 0329 02       		.byte	0x2
 2716 032a 23       		.byte	0x23
 2717 032b 04       		.uleb128 0x4
 2718 032c 0C       		.uleb128 0xc
 2719 032d 24070000 		.4byte	.LASF46
 2720 0331 09       		.byte	0x9
 2721 0332 3B       		.byte	0x3b
 2722 0333 77000000 		.4byte	0x77
 2723 0337 02       		.byte	0x2
 2724 0338 23       		.byte	0x23
 2725 0339 08       		.uleb128 0x8
 2726 033a 0C       		.uleb128 0xc
 2727 033b 9E090000 		.4byte	.LASF47
 2728 033f 09       		.byte	0x9
 2729 0340 3C       		.byte	0x3c
 2730 0341 77000000 		.4byte	0x77
 2731 0345 02       		.byte	0x2
 2732 0346 23       		.byte	0x23
 2733 0347 0C       		.uleb128 0xc
 2734 0348 0C       		.uleb128 0xc
 2735 0349 CD040000 		.4byte	.LASF48
 2736 034d 09       		.byte	0x9
 2737 034e 3D       		.byte	0x3d
 2738 034f 77000000 		.4byte	0x77
 2739 0353 02       		.byte	0x2
 2740 0354 23       		.byte	0x23
 2741 0355 10       		.uleb128 0x10
 2742 0356 0C       		.uleb128 0xc
 2743 0357 43040000 		.4byte	.LASF49
 2744 035b 09       		.byte	0x9
 2745 035c 3E       		.byte	0x3e
ARM GAS  C:\Users\EBANO_~1\AppData\Local\Temp\cc4h82Al.s 			page 69


 2746 035d 77000000 		.4byte	0x77
 2747 0361 02       		.byte	0x2
 2748 0362 23       		.byte	0x23
 2749 0363 14       		.uleb128 0x14
 2750 0364 0C       		.uleb128 0xc
 2751 0365 3E070000 		.4byte	.LASF50
 2752 0369 09       		.byte	0x9
 2753 036a 3F       		.byte	0x3f
 2754 036b 77000000 		.4byte	0x77
 2755 036f 02       		.byte	0x2
 2756 0370 23       		.byte	0x23
 2757 0371 18       		.uleb128 0x18
 2758 0372 0C       		.uleb128 0xc
 2759 0373 58060000 		.4byte	.LASF51
 2760 0377 09       		.byte	0x9
 2761 0378 40       		.byte	0x40
 2762 0379 77000000 		.4byte	0x77
 2763 037d 02       		.byte	0x2
 2764 037e 23       		.byte	0x23
 2765 037f 1C       		.uleb128 0x1c
 2766 0380 0C       		.uleb128 0xc
 2767 0381 2B090000 		.4byte	.LASF52
 2768 0385 09       		.byte	0x9
 2769 0386 41       		.byte	0x41
 2770 0387 77000000 		.4byte	0x77
 2771 038b 02       		.byte	0x2
 2772 038c 23       		.byte	0x23
 2773 038d 20       		.uleb128 0x20
 2774 038e 00       		.byte	0
 2775 038f 1A       		.uleb128 0x1a
 2776 0390 B0010000 		.4byte	.LASF53
 2777 0394 0801     		.2byte	0x108
 2778 0396 09       		.byte	0x9
 2779 0397 4A       		.byte	0x4a
 2780 0398 D8030000 		.4byte	0x3d8
 2781 039c 0C       		.uleb128 0xc
 2782 039d 3A000000 		.4byte	.LASF54
 2783 03a1 09       		.byte	0x9
 2784 03a2 4B       		.byte	0x4b
 2785 03a3 D8030000 		.4byte	0x3d8
 2786 03a7 02       		.byte	0x2
 2787 03a8 23       		.byte	0x23
 2788 03a9 00       		.uleb128 0
 2789 03aa 0C       		.uleb128 0xc
 2790 03ab 00000000 		.4byte	.LASF55
 2791 03af 09       		.byte	0x9
 2792 03b0 4C       		.byte	0x4c
 2793 03b1 D8030000 		.4byte	0x3d8
 2794 03b5 03       		.byte	0x3
 2795 03b6 23       		.byte	0x23
 2796 03b7 8001     		.uleb128 0x80
 2797 03b9 0C       		.uleb128 0xc
 2798 03ba BA070000 		.4byte	.LASF56
 2799 03be 09       		.byte	0x9
 2800 03bf 4E       		.byte	0x4e
 2801 03c0 84020000 		.4byte	0x284
 2802 03c4 03       		.byte	0x3
ARM GAS  C:\Users\EBANO_~1\AppData\Local\Temp\cc4h82Al.s 			page 70


 2803 03c5 23       		.byte	0x23
 2804 03c6 8002     		.uleb128 0x100
 2805 03c8 0C       		.uleb128 0xc
 2806 03c9 0D020000 		.4byte	.LASF57
 2807 03cd 09       		.byte	0x9
 2808 03ce 51       		.byte	0x51
 2809 03cf 84020000 		.4byte	0x284
 2810 03d3 03       		.byte	0x3
 2811 03d4 23       		.byte	0x23
 2812 03d5 8402     		.uleb128 0x104
 2813 03d7 00       		.byte	0
 2814 03d8 08       		.uleb128 0x8
 2815 03d9 DF010000 		.4byte	0x1df
 2816 03dd E8030000 		.4byte	0x3e8
 2817 03e1 09       		.uleb128 0x9
 2818 03e2 7E000000 		.4byte	0x7e
 2819 03e6 1F       		.byte	0x1f
 2820 03e7 00       		.byte	0
 2821 03e8 1A       		.uleb128 0x1a
 2822 03e9 D6040000 		.4byte	.LASF58
 2823 03ed 9001     		.2byte	0x190
 2824 03ef 09       		.byte	0x9
 2825 03f0 5D       		.byte	0x5d
 2826 03f1 2F040000 		.4byte	0x42f
 2827 03f5 0C       		.uleb128 0xc
 2828 03f6 93070000 		.4byte	.LASF38
 2829 03fa 09       		.byte	0x9
 2830 03fb 5E       		.byte	0x5e
 2831 03fc 2F040000 		.4byte	0x42f
 2832 0400 02       		.byte	0x2
 2833 0401 23       		.byte	0x23
 2834 0402 00       		.uleb128 0
 2835 0403 0C       		.uleb128 0xc
 2836 0404 BD060000 		.4byte	.LASF59
 2837 0408 09       		.byte	0x9
 2838 0409 5F       		.byte	0x5f
 2839 040a 77000000 		.4byte	0x77
 2840 040e 02       		.byte	0x2
 2841 040f 23       		.byte	0x23
 2842 0410 04       		.uleb128 0x4
 2843 0411 0C       		.uleb128 0xc
 2844 0412 91030000 		.4byte	.LASF60
 2845 0416 09       		.byte	0x9
 2846 0417 61       		.byte	0x61
 2847 0418 35040000 		.4byte	0x435
 2848 041c 02       		.byte	0x2
 2849 041d 23       		.byte	0x23
 2850 041e 08       		.uleb128 0x8
 2851 041f 0C       		.uleb128 0xc
 2852 0420 B0010000 		.4byte	.LASF53
 2853 0424 09       		.byte	0x9
 2854 0425 62       		.byte	0x62
 2855 0426 8F030000 		.4byte	0x38f
 2856 042a 03       		.byte	0x3
 2857 042b 23       		.byte	0x23
 2858 042c 8801     		.uleb128 0x88
 2859 042e 00       		.byte	0
ARM GAS  C:\Users\EBANO_~1\AppData\Local\Temp\cc4h82Al.s 			page 71


 2860 042f 15       		.uleb128 0x15
 2861 0430 04       		.byte	0x4
 2862 0431 E8030000 		.4byte	0x3e8
 2863 0435 08       		.uleb128 0x8
 2864 0436 45040000 		.4byte	0x445
 2865 043a 45040000 		.4byte	0x445
 2866 043e 09       		.uleb128 0x9
 2867 043f 7E000000 		.4byte	0x7e
 2868 0443 1F       		.byte	0x1f
 2869 0444 00       		.byte	0
 2870 0445 15       		.uleb128 0x15
 2871 0446 04       		.byte	0x4
 2872 0447 4B040000 		.4byte	0x44b
 2873 044b 1B       		.uleb128 0x1b
 2874 044c 01       		.byte	0x1
 2875 044d 19       		.uleb128 0x19
 2876 044e 62060000 		.4byte	.LASF61
 2877 0452 08       		.byte	0x8
 2878 0453 09       		.byte	0x9
 2879 0454 75       		.byte	0x75
 2880 0455 76040000 		.4byte	0x476
 2881 0459 0C       		.uleb128 0xc
 2882 045a 89010000 		.4byte	.LASF62
 2883 045e 09       		.byte	0x9
 2884 045f 76       		.byte	0x76
 2885 0460 76040000 		.4byte	0x476
 2886 0464 02       		.byte	0x2
 2887 0465 23       		.byte	0x23
 2888 0466 00       		.uleb128 0
 2889 0467 0C       		.uleb128 0xc
 2890 0468 75070000 		.4byte	.LASF63
 2891 046c 09       		.byte	0x9
 2892 046d 77       		.byte	0x77
 2893 046e 77000000 		.4byte	0x77
 2894 0472 02       		.byte	0x2
 2895 0473 23       		.byte	0x23
 2896 0474 04       		.uleb128 0x4
 2897 0475 00       		.byte	0
 2898 0476 15       		.uleb128 0x15
 2899 0477 04       		.byte	0x4
 2900 0478 3B000000 		.4byte	0x3b
 2901 047c 19       		.uleb128 0x19
 2902 047d 93060000 		.4byte	.LASF64
 2903 0481 68       		.byte	0x68
 2904 0482 09       		.byte	0x9
 2905 0483 B5       		.byte	0xb5
 2906 0484 D6050000 		.4byte	0x5d6
 2907 0488 0B       		.uleb128 0xb
 2908 0489 5F7000   		.ascii	"_p\000"
 2909 048c 09       		.byte	0x9
 2910 048d B6       		.byte	0xb6
 2911 048e 76040000 		.4byte	0x476
 2912 0492 02       		.byte	0x2
 2913 0493 23       		.byte	0x23
 2914 0494 00       		.uleb128 0
 2915 0495 0B       		.uleb128 0xb
 2916 0496 5F7200   		.ascii	"_r\000"
ARM GAS  C:\Users\EBANO_~1\AppData\Local\Temp\cc4h82Al.s 			page 72


 2917 0499 09       		.byte	0x9
 2918 049a B7       		.byte	0xb7
 2919 049b 77000000 		.4byte	0x77
 2920 049f 02       		.byte	0x2
 2921 04a0 23       		.byte	0x23
 2922 04a1 04       		.uleb128 0x4
 2923 04a2 0B       		.uleb128 0xb
 2924 04a3 5F7700   		.ascii	"_w\000"
 2925 04a6 09       		.byte	0x9
 2926 04a7 B8       		.byte	0xb8
 2927 04a8 77000000 		.4byte	0x77
 2928 04ac 02       		.byte	0x2
 2929 04ad 23       		.byte	0x23
 2930 04ae 08       		.uleb128 0x8
 2931 04af 0C       		.uleb128 0xc
 2932 04b0 06020000 		.4byte	.LASF65
 2933 04b4 09       		.byte	0x9
 2934 04b5 B9       		.byte	0xb9
 2935 04b6 42000000 		.4byte	0x42
 2936 04ba 02       		.byte	0x2
 2937 04bb 23       		.byte	0x23
 2938 04bc 0C       		.uleb128 0xc
 2939 04bd 0C       		.uleb128 0xc
 2940 04be 54030000 		.4byte	.LASF66
 2941 04c2 09       		.byte	0x9
 2942 04c3 BA       		.byte	0xba
 2943 04c4 42000000 		.4byte	0x42
 2944 04c8 02       		.byte	0x2
 2945 04c9 23       		.byte	0x23
 2946 04ca 0E       		.uleb128 0xe
 2947 04cb 0B       		.uleb128 0xb
 2948 04cc 5F626600 		.ascii	"_bf\000"
 2949 04d0 09       		.byte	0x9
 2950 04d1 BB       		.byte	0xbb
 2951 04d2 4D040000 		.4byte	0x44d
 2952 04d6 02       		.byte	0x2
 2953 04d7 23       		.byte	0x23
 2954 04d8 10       		.uleb128 0x10
 2955 04d9 0C       		.uleb128 0xc
 2956 04da E7000000 		.4byte	.LASF67
 2957 04de 09       		.byte	0x9
 2958 04df BC       		.byte	0xbc
 2959 04e0 77000000 		.4byte	0x77
 2960 04e4 02       		.byte	0x2
 2961 04e5 23       		.byte	0x23
 2962 04e6 18       		.uleb128 0x18
 2963 04e7 0C       		.uleb128 0xc
 2964 04e8 CE010000 		.4byte	.LASF68
 2965 04ec 09       		.byte	0x9
 2966 04ed C3       		.byte	0xc3
 2967 04ee DF010000 		.4byte	0x1df
 2968 04f2 02       		.byte	0x2
 2969 04f3 23       		.byte	0x23
 2970 04f4 1C       		.uleb128 0x1c
 2971 04f5 0C       		.uleb128 0xc
 2972 04f6 FA020000 		.4byte	.LASF69
 2973 04fa 09       		.byte	0x9
ARM GAS  C:\Users\EBANO_~1\AppData\Local\Temp\cc4h82Al.s 			page 73


 2974 04fb C5       		.byte	0xc5
 2975 04fc 70070000 		.4byte	0x770
 2976 0500 02       		.byte	0x2
 2977 0501 23       		.byte	0x23
 2978 0502 20       		.uleb128 0x20
 2979 0503 0C       		.uleb128 0xc
 2980 0504 3C040000 		.4byte	.LASF70
 2981 0508 09       		.byte	0x9
 2982 0509 C7       		.byte	0xc7
 2983 050a 9B070000 		.4byte	0x79b
 2984 050e 02       		.byte	0x2
 2985 050f 23       		.byte	0x23
 2986 0510 24       		.uleb128 0x24
 2987 0511 0C       		.uleb128 0xc
 2988 0512 2E070000 		.4byte	.LASF71
 2989 0516 09       		.byte	0x9
 2990 0517 CA       		.byte	0xca
 2991 0518 C0070000 		.4byte	0x7c0
 2992 051c 02       		.byte	0x2
 2993 051d 23       		.byte	0x23
 2994 051e 28       		.uleb128 0x28
 2995 051f 0C       		.uleb128 0xc
 2996 0520 4D010000 		.4byte	.LASF72
 2997 0524 09       		.byte	0x9
 2998 0525 CB       		.byte	0xcb
 2999 0526 DB070000 		.4byte	0x7db
 3000 052a 02       		.byte	0x2
 3001 052b 23       		.byte	0x23
 3002 052c 2C       		.uleb128 0x2c
 3003 052d 0B       		.uleb128 0xb
 3004 052e 5F756200 		.ascii	"_ub\000"
 3005 0532 09       		.byte	0x9
 3006 0533 CE       		.byte	0xce
 3007 0534 4D040000 		.4byte	0x44d
 3008 0538 02       		.byte	0x2
 3009 0539 23       		.byte	0x23
 3010 053a 30       		.uleb128 0x30
 3011 053b 0B       		.uleb128 0xb
 3012 053c 5F757000 		.ascii	"_up\000"
 3013 0540 09       		.byte	0x9
 3014 0541 CF       		.byte	0xcf
 3015 0542 76040000 		.4byte	0x476
 3016 0546 02       		.byte	0x2
 3017 0547 23       		.byte	0x23
 3018 0548 38       		.uleb128 0x38
 3019 0549 0B       		.uleb128 0xb
 3020 054a 5F757200 		.ascii	"_ur\000"
 3021 054e 09       		.byte	0x9
 3022 054f D0       		.byte	0xd0
 3023 0550 77000000 		.4byte	0x77
 3024 0554 02       		.byte	0x2
 3025 0555 23       		.byte	0x23
 3026 0556 3C       		.uleb128 0x3c
 3027 0557 0C       		.uleb128 0xc
 3028 0558 83010000 		.4byte	.LASF73
 3029 055c 09       		.byte	0x9
 3030 055d D3       		.byte	0xd3
ARM GAS  C:\Users\EBANO_~1\AppData\Local\Temp\cc4h82Al.s 			page 74


 3031 055e E1070000 		.4byte	0x7e1
 3032 0562 02       		.byte	0x2
 3033 0563 23       		.byte	0x23
 3034 0564 40       		.uleb128 0x40
 3035 0565 0C       		.uleb128 0xc
 3036 0566 1D090000 		.4byte	.LASF74
 3037 056a 09       		.byte	0x9
 3038 056b D4       		.byte	0xd4
 3039 056c F1070000 		.4byte	0x7f1
 3040 0570 02       		.byte	0x2
 3041 0571 23       		.byte	0x23
 3042 0572 43       		.uleb128 0x43
 3043 0573 0B       		.uleb128 0xb
 3044 0574 5F6C6200 		.ascii	"_lb\000"
 3045 0578 09       		.byte	0x9
 3046 0579 D7       		.byte	0xd7
 3047 057a 4D040000 		.4byte	0x44d
 3048 057e 02       		.byte	0x2
 3049 057f 23       		.byte	0x23
 3050 0580 44       		.uleb128 0x44
 3051 0581 0C       		.uleb128 0xc
 3052 0582 F8070000 		.4byte	.LASF75
 3053 0586 09       		.byte	0x9
 3054 0587 DA       		.byte	0xda
 3055 0588 77000000 		.4byte	0x77
 3056 058c 02       		.byte	0x2
 3057 058d 23       		.byte	0x23
 3058 058e 4C       		.uleb128 0x4c
 3059 058f 0C       		.uleb128 0xc
 3060 0590 66020000 		.4byte	.LASF76
 3061 0594 09       		.byte	0x9
 3062 0595 DB       		.byte	0xdb
 3063 0596 F8010000 		.4byte	0x1f8
 3064 059a 02       		.byte	0x2
 3065 059b 23       		.byte	0x23
 3066 059c 50       		.uleb128 0x50
 3067 059d 0C       		.uleb128 0xc
 3068 059e 61030000 		.4byte	.LASF77
 3069 05a2 09       		.byte	0x9
 3070 05a3 DE       		.byte	0xde
 3071 05a4 F5050000 		.4byte	0x5f5
 3072 05a8 02       		.byte	0x2
 3073 05a9 23       		.byte	0x23
 3074 05aa 54       		.uleb128 0x54
 3075 05ab 0C       		.uleb128 0xc
 3076 05ac EB030000 		.4byte	.LASF78
 3077 05b0 09       		.byte	0x9
 3078 05b1 E2       		.byte	0xe2
 3079 05b2 79020000 		.4byte	0x279
 3080 05b6 02       		.byte	0x2
 3081 05b7 23       		.byte	0x23
 3082 05b8 58       		.uleb128 0x58
 3083 05b9 0C       		.uleb128 0xc
 3084 05ba A2060000 		.4byte	.LASF79
 3085 05be 09       		.byte	0x9
 3086 05bf E4       		.byte	0xe4
 3087 05c0 6E020000 		.4byte	0x26e
ARM GAS  C:\Users\EBANO_~1\AppData\Local\Temp\cc4h82Al.s 			page 75


 3088 05c4 02       		.byte	0x2
 3089 05c5 23       		.byte	0x23
 3090 05c6 5C       		.uleb128 0x5c
 3091 05c7 0C       		.uleb128 0xc
 3092 05c8 69060000 		.4byte	.LASF80
 3093 05cc 09       		.byte	0x9
 3094 05cd E5       		.byte	0xe5
 3095 05ce 77000000 		.4byte	0x77
 3096 05d2 02       		.byte	0x2
 3097 05d3 23       		.byte	0x23
 3098 05d4 64       		.uleb128 0x64
 3099 05d5 00       		.byte	0
 3100 05d6 1C       		.uleb128 0x1c
 3101 05d7 01       		.byte	0x1
 3102 05d8 77000000 		.4byte	0x77
 3103 05dc F5050000 		.4byte	0x5f5
 3104 05e0 1D       		.uleb128 0x1d
 3105 05e1 F5050000 		.4byte	0x5f5
 3106 05e5 1D       		.uleb128 0x1d
 3107 05e6 DF010000 		.4byte	0x1df
 3108 05ea 1D       		.uleb128 0x1d
 3109 05eb 5E070000 		.4byte	0x75e
 3110 05ef 1D       		.uleb128 0x1d
 3111 05f0 77000000 		.4byte	0x77
 3112 05f4 00       		.byte	0
 3113 05f5 15       		.uleb128 0x15
 3114 05f6 04       		.byte	0x4
 3115 05f7 00060000 		.4byte	0x600
 3116 05fb 05       		.uleb128 0x5
 3117 05fc F5050000 		.4byte	0x5f5
 3118 0600 1E       		.uleb128 0x1e
 3119 0601 00070000 		.4byte	.LASF81
 3120 0605 2804     		.2byte	0x428
 3121 0607 09       		.byte	0x9
 3122 0608 6002     		.2byte	0x260
 3123 060a 5E070000 		.4byte	0x75e
 3124 060e 10       		.uleb128 0x10
 3125 060f 55070000 		.4byte	.LASF82
 3126 0613 09       		.byte	0x9
 3127 0614 6202     		.2byte	0x262
 3128 0616 77000000 		.4byte	0x77
 3129 061a 02       		.byte	0x2
 3130 061b 23       		.byte	0x23
 3131 061c 00       		.uleb128 0
 3132 061d 10       		.uleb128 0x10
 3133 061e 15020000 		.4byte	.LASF83
 3134 0622 09       		.byte	0x9
 3135 0623 6702     		.2byte	0x267
 3136 0625 4E080000 		.4byte	0x84e
 3137 0629 02       		.byte	0x2
 3138 062a 23       		.byte	0x23
 3139 062b 04       		.uleb128 0x4
 3140 062c 10       		.uleb128 0x10
 3141 062d 2D030000 		.4byte	.LASF84
 3142 0631 09       		.byte	0x9
 3143 0632 6702     		.2byte	0x267
 3144 0634 4E080000 		.4byte	0x84e
ARM GAS  C:\Users\EBANO_~1\AppData\Local\Temp\cc4h82Al.s 			page 76


 3145 0638 02       		.byte	0x2
 3146 0639 23       		.byte	0x23
 3147 063a 08       		.uleb128 0x8
 3148 063b 10       		.uleb128 0x10
 3149 063c C2020000 		.4byte	.LASF85
 3150 0640 09       		.byte	0x9
 3151 0641 6702     		.2byte	0x267
 3152 0643 4E080000 		.4byte	0x84e
 3153 0647 02       		.byte	0x2
 3154 0648 23       		.byte	0x23
 3155 0649 0C       		.uleb128 0xc
 3156 064a 10       		.uleb128 0x10
 3157 064b B8060000 		.4byte	.LASF86
 3158 064f 09       		.byte	0x9
 3159 0650 6902     		.2byte	0x269
 3160 0652 77000000 		.4byte	0x77
 3161 0656 02       		.byte	0x2
 3162 0657 23       		.byte	0x23
 3163 0658 10       		.uleb128 0x10
 3164 0659 10       		.uleb128 0x10
 3165 065a 65000000 		.4byte	.LASF87
 3166 065e 09       		.byte	0x9
 3167 065f 6A02     		.2byte	0x26a
 3168 0661 690A0000 		.4byte	0xa69
 3169 0665 02       		.byte	0x2
 3170 0666 23       		.byte	0x23
 3171 0667 14       		.uleb128 0x14
 3172 0668 10       		.uleb128 0x10
 3173 0669 D4060000 		.4byte	.LASF88
 3174 066d 09       		.byte	0x9
 3175 066e 6D02     		.2byte	0x26d
 3176 0670 77000000 		.4byte	0x77
 3177 0674 02       		.byte	0x2
 3178 0675 23       		.byte	0x23
 3179 0676 30       		.uleb128 0x30
 3180 0677 10       		.uleb128 0x10
 3181 0678 C2060000 		.4byte	.LASF89
 3182 067c 09       		.byte	0x9
 3183 067d 6E02     		.2byte	0x26e
 3184 067f 7F0A0000 		.4byte	0xa7f
 3185 0683 02       		.byte	0x2
 3186 0684 23       		.byte	0x23
 3187 0685 34       		.uleb128 0x34
 3188 0686 10       		.uleb128 0x10
 3189 0687 DE040000 		.4byte	.LASF90
 3190 068b 09       		.byte	0x9
 3191 068c 7002     		.2byte	0x270
 3192 068e 77000000 		.4byte	0x77
 3193 0692 02       		.byte	0x2
 3194 0693 23       		.byte	0x23
 3195 0694 38       		.uleb128 0x38
 3196 0695 10       		.uleb128 0x10
 3197 0696 CA060000 		.4byte	.LASF91
 3198 069a 09       		.byte	0x9
 3199 069b 7202     		.2byte	0x272
 3200 069d 910A0000 		.4byte	0xa91
 3201 06a1 02       		.byte	0x2
ARM GAS  C:\Users\EBANO_~1\AppData\Local\Temp\cc4h82Al.s 			page 77


 3202 06a2 23       		.byte	0x23
 3203 06a3 3C       		.uleb128 0x3c
 3204 06a4 10       		.uleb128 0x10
 3205 06a5 AD030000 		.4byte	.LASF92
 3206 06a9 09       		.byte	0x9
 3207 06aa 7502     		.2byte	0x275
 3208 06ac EE020000 		.4byte	0x2ee
 3209 06b0 02       		.byte	0x2
 3210 06b1 23       		.byte	0x23
 3211 06b2 40       		.uleb128 0x40
 3212 06b3 10       		.uleb128 0x10
 3213 06b4 32020000 		.4byte	.LASF93
 3214 06b8 09       		.byte	0x9
 3215 06b9 7602     		.2byte	0x276
 3216 06bb 77000000 		.4byte	0x77
 3217 06bf 02       		.byte	0x2
 3218 06c0 23       		.byte	0x23
 3219 06c1 44       		.uleb128 0x44
 3220 06c2 10       		.uleb128 0x10
 3221 06c3 87090000 		.4byte	.LASF94
 3222 06c7 09       		.byte	0x9
 3223 06c8 7702     		.2byte	0x277
 3224 06ca EE020000 		.4byte	0x2ee
 3225 06ce 02       		.byte	0x2
 3226 06cf 23       		.byte	0x23
 3227 06d0 48       		.uleb128 0x48
 3228 06d1 10       		.uleb128 0x10
 3229 06d2 18050000 		.4byte	.LASF95
 3230 06d6 09       		.byte	0x9
 3231 06d7 7802     		.2byte	0x278
 3232 06d9 970A0000 		.4byte	0xa97
 3233 06dd 02       		.byte	0x2
 3234 06de 23       		.byte	0x23
 3235 06df 4C       		.uleb128 0x4c
 3236 06e0 10       		.uleb128 0x10
 3237 06e1 3A030000 		.4byte	.LASF96
 3238 06e5 09       		.byte	0x9
 3239 06e6 7B02     		.2byte	0x27b
 3240 06e8 77000000 		.4byte	0x77
 3241 06ec 02       		.byte	0x2
 3242 06ed 23       		.byte	0x23
 3243 06ee 50       		.uleb128 0x50
 3244 06ef 10       		.uleb128 0x10
 3245 06f0 5E020000 		.4byte	.LASF97
 3246 06f4 09       		.byte	0x9
 3247 06f5 7C02     		.2byte	0x27c
 3248 06f7 5E070000 		.4byte	0x75e
 3249 06fb 02       		.byte	0x2
 3250 06fc 23       		.byte	0x23
 3251 06fd 54       		.uleb128 0x54
 3252 06fe 10       		.uleb128 0x10
 3253 06ff D4030000 		.4byte	.LASF98
 3254 0703 09       		.byte	0x9
 3255 0704 9F02     		.2byte	0x29f
 3256 0706 470A0000 		.4byte	0xa47
 3257 070a 02       		.byte	0x2
 3258 070b 23       		.byte	0x23
ARM GAS  C:\Users\EBANO_~1\AppData\Local\Temp\cc4h82Al.s 			page 78


 3259 070c 58       		.uleb128 0x58
 3260 070d 10       		.uleb128 0x10
 3261 070e D6040000 		.4byte	.LASF58
 3262 0712 09       		.byte	0x9
 3263 0713 A302     		.2byte	0x2a3
 3264 0715 2F040000 		.4byte	0x42f
 3265 0719 03       		.byte	0x3
 3266 071a 23       		.byte	0x23
 3267 071b C802     		.uleb128 0x148
 3268 071d 10       		.uleb128 0x10
 3269 071e 94000000 		.4byte	.LASF99
 3270 0722 09       		.byte	0x9
 3271 0723 A402     		.2byte	0x2a4
 3272 0725 E8030000 		.4byte	0x3e8
 3273 0729 03       		.byte	0x3
 3274 072a 23       		.byte	0x23
 3275 072b CC02     		.uleb128 0x14c
 3276 072d 10       		.uleb128 0x10
 3277 072e 8C080000 		.4byte	.LASF100
 3278 0732 09       		.byte	0x9
 3279 0733 A802     		.2byte	0x2a8
 3280 0735 A90A0000 		.4byte	0xaa9
 3281 0739 03       		.byte	0x3
 3282 073a 23       		.byte	0x23
 3283 073b DC05     		.uleb128 0x2dc
 3284 073d 10       		.uleb128 0x10
 3285 073e D6010000 		.4byte	.LASF101
 3286 0742 09       		.byte	0x9
 3287 0743 AD02     		.2byte	0x2ad
 3288 0745 0D080000 		.4byte	0x80d
 3289 0749 03       		.byte	0x3
 3290 074a 23       		.byte	0x23
 3291 074b E005     		.uleb128 0x2e0
 3292 074d 10       		.uleb128 0x10
 3293 074e AB010000 		.4byte	.LASF102
 3294 0752 09       		.byte	0x9
 3295 0753 AF02     		.2byte	0x2af
 3296 0755 B50A0000 		.4byte	0xab5
 3297 0759 03       		.byte	0x3
 3298 075a 23       		.byte	0x23
 3299 075b EC05     		.uleb128 0x2ec
 3300 075d 00       		.byte	0
 3301 075e 15       		.uleb128 0x15
 3302 075f 04       		.byte	0x4
 3303 0760 64070000 		.4byte	0x764
 3304 0764 02       		.uleb128 0x2
 3305 0765 01       		.byte	0x1
 3306 0766 08       		.byte	0x8
 3307 0767 5C070000 		.4byte	.LASF103
 3308 076b 05       		.uleb128 0x5
 3309 076c 64070000 		.4byte	0x764
 3310 0770 15       		.uleb128 0x15
 3311 0771 04       		.byte	0x4
 3312 0772 D6050000 		.4byte	0x5d6
 3313 0776 1C       		.uleb128 0x1c
 3314 0777 01       		.byte	0x1
 3315 0778 77000000 		.4byte	0x77
ARM GAS  C:\Users\EBANO_~1\AppData\Local\Temp\cc4h82Al.s 			page 79


 3316 077c 95070000 		.4byte	0x795
 3317 0780 1D       		.uleb128 0x1d
 3318 0781 F5050000 		.4byte	0x5f5
 3319 0785 1D       		.uleb128 0x1d
 3320 0786 DF010000 		.4byte	0x1df
 3321 078a 1D       		.uleb128 0x1d
 3322 078b 95070000 		.4byte	0x795
 3323 078f 1D       		.uleb128 0x1d
 3324 0790 77000000 		.4byte	0x77
 3325 0794 00       		.byte	0
 3326 0795 15       		.uleb128 0x15
 3327 0796 04       		.byte	0x4
 3328 0797 6B070000 		.4byte	0x76b
 3329 079b 15       		.uleb128 0x15
 3330 079c 04       		.byte	0x4
 3331 079d 76070000 		.4byte	0x776
 3332 07a1 1C       		.uleb128 0x1c
 3333 07a2 01       		.byte	0x1
 3334 07a3 03020000 		.4byte	0x203
 3335 07a7 C0070000 		.4byte	0x7c0
 3336 07ab 1D       		.uleb128 0x1d
 3337 07ac F5050000 		.4byte	0x5f5
 3338 07b0 1D       		.uleb128 0x1d
 3339 07b1 DF010000 		.4byte	0x1df
 3340 07b5 1D       		.uleb128 0x1d
 3341 07b6 03020000 		.4byte	0x203
 3342 07ba 1D       		.uleb128 0x1d
 3343 07bb 77000000 		.4byte	0x77
 3344 07bf 00       		.byte	0
 3345 07c0 15       		.uleb128 0x15
 3346 07c1 04       		.byte	0x4
 3347 07c2 A1070000 		.4byte	0x7a1
 3348 07c6 1C       		.uleb128 0x1c
 3349 07c7 01       		.byte	0x1
 3350 07c8 77000000 		.4byte	0x77
 3351 07cc DB070000 		.4byte	0x7db
 3352 07d0 1D       		.uleb128 0x1d
 3353 07d1 F5050000 		.4byte	0x5f5
 3354 07d5 1D       		.uleb128 0x1d
 3355 07d6 DF010000 		.4byte	0x1df
 3356 07da 00       		.byte	0
 3357 07db 15       		.uleb128 0x15
 3358 07dc 04       		.byte	0x4
 3359 07dd C6070000 		.4byte	0x7c6
 3360 07e1 08       		.uleb128 0x8
 3361 07e2 3B000000 		.4byte	0x3b
 3362 07e6 F1070000 		.4byte	0x7f1
 3363 07ea 09       		.uleb128 0x9
 3364 07eb 7E000000 		.4byte	0x7e
 3365 07ef 02       		.byte	0x2
 3366 07f0 00       		.byte	0
 3367 07f1 08       		.uleb128 0x8
 3368 07f2 3B000000 		.4byte	0x3b
 3369 07f6 01080000 		.4byte	0x801
 3370 07fa 09       		.uleb128 0x9
 3371 07fb 7E000000 		.4byte	0x7e
 3372 07ff 00       		.byte	0
ARM GAS  C:\Users\EBANO_~1\AppData\Local\Temp\cc4h82Al.s 			page 80


 3373 0800 00       		.byte	0
 3374 0801 0D       		.uleb128 0xd
 3375 0802 81060000 		.4byte	.LASF104
 3376 0806 09       		.byte	0x9
 3377 0807 1F01     		.2byte	0x11f
 3378 0809 7C040000 		.4byte	0x47c
 3379 080d 1F       		.uleb128 0x1f
 3380 080e 4D080000 		.4byte	.LASF105
 3381 0812 0C       		.byte	0xc
 3382 0813 09       		.byte	0x9
 3383 0814 2301     		.2byte	0x123
 3384 0816 48080000 		.4byte	0x848
 3385 081a 10       		.uleb128 0x10
 3386 081b 93070000 		.4byte	.LASF38
 3387 081f 09       		.byte	0x9
 3388 0820 2501     		.2byte	0x125
 3389 0822 48080000 		.4byte	0x848
 3390 0826 02       		.byte	0x2
 3391 0827 23       		.byte	0x23
 3392 0828 00       		.uleb128 0
 3393 0829 10       		.uleb128 0x10
 3394 082a 67030000 		.4byte	.LASF106
 3395 082e 09       		.byte	0x9
 3396 082f 2601     		.2byte	0x126
 3397 0831 77000000 		.4byte	0x77
 3398 0835 02       		.byte	0x2
 3399 0836 23       		.byte	0x23
 3400 0837 04       		.uleb128 0x4
 3401 0838 10       		.uleb128 0x10
 3402 0839 71060000 		.4byte	.LASF107
 3403 083d 09       		.byte	0x9
 3404 083e 2701     		.2byte	0x127
 3405 0840 4E080000 		.4byte	0x84e
 3406 0844 02       		.byte	0x2
 3407 0845 23       		.byte	0x23
 3408 0846 08       		.uleb128 0x8
 3409 0847 00       		.byte	0
 3410 0848 15       		.uleb128 0x15
 3411 0849 04       		.byte	0x4
 3412 084a 0D080000 		.4byte	0x80d
 3413 084e 15       		.uleb128 0x15
 3414 084f 04       		.byte	0x4
 3415 0850 01080000 		.4byte	0x801
 3416 0854 1F       		.uleb128 0x1f
 3417 0855 4D000000 		.4byte	.LASF108
 3418 0859 0E       		.byte	0xe
 3419 085a 09       		.byte	0x9
 3420 085b 3F01     		.2byte	0x13f
 3421 085d 8F080000 		.4byte	0x88f
 3422 0861 10       		.uleb128 0x10
 3423 0862 07070000 		.4byte	.LASF109
 3424 0866 09       		.byte	0x9
 3425 0867 4001     		.2byte	0x140
 3426 0869 8F080000 		.4byte	0x88f
 3427 086d 02       		.byte	0x2
 3428 086e 23       		.byte	0x23
 3429 086f 00       		.uleb128 0
ARM GAS  C:\Users\EBANO_~1\AppData\Local\Temp\cc4h82Al.s 			page 81


 3430 0870 10       		.uleb128 0x10
 3431 0871 FF030000 		.4byte	.LASF110
 3432 0875 09       		.byte	0x9
 3433 0876 4101     		.2byte	0x141
 3434 0878 8F080000 		.4byte	0x88f
 3435 087c 02       		.byte	0x2
 3436 087d 23       		.byte	0x23
 3437 087e 06       		.uleb128 0x6
 3438 087f 10       		.uleb128 0x10
 3439 0880 DE070000 		.4byte	.LASF111
 3440 0884 09       		.byte	0x9
 3441 0885 4201     		.2byte	0x142
 3442 0887 49000000 		.4byte	0x49
 3443 088b 02       		.byte	0x2
 3444 088c 23       		.byte	0x23
 3445 088d 0C       		.uleb128 0xc
 3446 088e 00       		.byte	0
 3447 088f 08       		.uleb128 0x8
 3448 0890 49000000 		.4byte	0x49
 3449 0894 9F080000 		.4byte	0x89f
 3450 0898 09       		.uleb128 0x9
 3451 0899 7E000000 		.4byte	0x7e
 3452 089d 02       		.byte	0x2
 3453 089e 00       		.byte	0
 3454 089f 0E       		.uleb128 0xe
 3455 08a0 D0       		.byte	0xd0
 3456 08a1 09       		.byte	0x9
 3457 08a2 8002     		.2byte	0x280
 3458 08a4 CF090000 		.4byte	0x9cf
 3459 08a8 10       		.uleb128 0x10
 3460 08a9 2E080000 		.4byte	.LASF112
 3461 08ad 09       		.byte	0x9
 3462 08ae 8202     		.2byte	0x282
 3463 08b0 7E000000 		.4byte	0x7e
 3464 08b4 02       		.byte	0x2
 3465 08b5 23       		.byte	0x23
 3466 08b6 00       		.uleb128 0
 3467 08b7 10       		.uleb128 0x10
 3468 08b8 99070000 		.4byte	.LASF113
 3469 08bc 09       		.byte	0x9
 3470 08bd 8302     		.2byte	0x283
 3471 08bf 5E070000 		.4byte	0x75e
 3472 08c3 02       		.byte	0x2
 3473 08c4 23       		.byte	0x23
 3474 08c5 04       		.uleb128 0x4
 3475 08c6 10       		.uleb128 0x10
 3476 08c7 96030000 		.4byte	.LASF114
 3477 08cb 09       		.byte	0x9
 3478 08cc 8402     		.2byte	0x284
 3479 08ce CF090000 		.4byte	0x9cf
 3480 08d2 02       		.byte	0x2
 3481 08d3 23       		.byte	0x23
 3482 08d4 08       		.uleb128 0x8
 3483 08d5 10       		.uleb128 0x10
 3484 08d6 36090000 		.4byte	.LASF115
 3485 08da 09       		.byte	0x9
 3486 08db 8502     		.2byte	0x285
ARM GAS  C:\Users\EBANO_~1\AppData\Local\Temp\cc4h82Al.s 			page 82


 3487 08dd 04030000 		.4byte	0x304
 3488 08e1 02       		.byte	0x2
 3489 08e2 23       		.byte	0x23
 3490 08e3 24       		.uleb128 0x24
 3491 08e4 10       		.uleb128 0x10
 3492 08e5 E9040000 		.4byte	.LASF116
 3493 08e9 09       		.byte	0x9
 3494 08ea 8602     		.2byte	0x286
 3495 08ec 77000000 		.4byte	0x77
 3496 08f0 02       		.byte	0x2
 3497 08f1 23       		.byte	0x23
 3498 08f2 48       		.uleb128 0x48
 3499 08f3 10       		.uleb128 0x10
 3500 08f4 86030000 		.4byte	.LASF117
 3501 08f8 09       		.byte	0x9
 3502 08f9 8702     		.2byte	0x287
 3503 08fb 70000000 		.4byte	0x70
 3504 08ff 02       		.byte	0x2
 3505 0900 23       		.byte	0x23
 3506 0901 50       		.uleb128 0x50
 3507 0902 10       		.uleb128 0x10
 3508 0903 4E090000 		.4byte	.LASF118
 3509 0907 09       		.byte	0x9
 3510 0908 8802     		.2byte	0x288
 3511 090a 54080000 		.4byte	0x854
 3512 090e 02       		.byte	0x2
 3513 090f 23       		.byte	0x23
 3514 0910 58       		.uleb128 0x58
 3515 0911 10       		.uleb128 0x10
 3516 0912 AB060000 		.4byte	.LASF119
 3517 0916 09       		.byte	0x9
 3518 0917 8902     		.2byte	0x289
 3519 0919 6E020000 		.4byte	0x26e
 3520 091d 02       		.byte	0x2
 3521 091e 23       		.byte	0x23
 3522 091f 68       		.uleb128 0x68
 3523 0920 10       		.uleb128 0x10
 3524 0921 79090000 		.4byte	.LASF120
 3525 0925 09       		.byte	0x9
 3526 0926 8A02     		.2byte	0x28a
 3527 0928 6E020000 		.4byte	0x26e
 3528 092c 02       		.byte	0x2
 3529 092d 23       		.byte	0x23
 3530 092e 70       		.uleb128 0x70
 3531 092f 10       		.uleb128 0x10
 3532 0930 2B050000 		.4byte	.LASF121
 3533 0934 09       		.byte	0x9
 3534 0935 8B02     		.2byte	0x28b
 3535 0937 6E020000 		.4byte	0x26e
 3536 093b 02       		.byte	0x2
 3537 093c 23       		.byte	0x23
 3538 093d 78       		.uleb128 0x78
 3539 093e 10       		.uleb128 0x10
 3540 093f 7A080000 		.4byte	.LASF122
 3541 0943 09       		.byte	0x9
 3542 0944 8C02     		.2byte	0x28c
 3543 0946 DF090000 		.4byte	0x9df
ARM GAS  C:\Users\EBANO_~1\AppData\Local\Temp\cc4h82Al.s 			page 83


 3544 094a 03       		.byte	0x3
 3545 094b 23       		.byte	0x23
 3546 094c 8001     		.uleb128 0x80
 3547 094e 10       		.uleb128 0x10
 3548 094f 61070000 		.4byte	.LASF123
 3549 0953 09       		.byte	0x9
 3550 0954 8D02     		.2byte	0x28d
 3551 0956 EF090000 		.4byte	0x9ef
 3552 095a 03       		.byte	0x3
 3553 095b 23       		.byte	0x23
 3554 095c 8801     		.uleb128 0x88
 3555 095e 10       		.uleb128 0x10
 3556 095f EB070000 		.4byte	.LASF124
 3557 0963 09       		.byte	0x9
 3558 0964 8E02     		.2byte	0x28e
 3559 0966 77000000 		.4byte	0x77
 3560 096a 03       		.byte	0x3
 3561 096b 23       		.byte	0x23
 3562 096c A001     		.uleb128 0xa0
 3563 096e 10       		.uleb128 0x10
 3564 096f 7F020000 		.4byte	.LASF125
 3565 0973 09       		.byte	0x9
 3566 0974 8F02     		.2byte	0x28f
 3567 0976 6E020000 		.4byte	0x26e
 3568 097a 03       		.byte	0x3
 3569 097b 23       		.byte	0x23
 3570 097c A401     		.uleb128 0xa4
 3571 097e 10       		.uleb128 0x10
 3572 097f 15010000 		.4byte	.LASF126
 3573 0983 09       		.byte	0x9
 3574 0984 9002     		.2byte	0x290
 3575 0986 6E020000 		.4byte	0x26e
 3576 098a 03       		.byte	0x3
 3577 098b 23       		.byte	0x23
 3578 098c AC01     		.uleb128 0xac
 3579 098e 10       		.uleb128 0x10
 3580 098f 6E020000 		.4byte	.LASF127
 3581 0993 09       		.byte	0x9
 3582 0994 9102     		.2byte	0x291
 3583 0996 6E020000 		.4byte	0x26e
 3584 099a 03       		.byte	0x3
 3585 099b 23       		.byte	0x23
 3586 099c B401     		.uleb128 0xb4
 3587 099e 10       		.uleb128 0x10
 3588 099f B0000000 		.4byte	.LASF128
 3589 09a3 09       		.byte	0x9
 3590 09a4 9202     		.2byte	0x292
 3591 09a6 6E020000 		.4byte	0x26e
 3592 09aa 03       		.byte	0x3
 3593 09ab 23       		.byte	0x23
 3594 09ac BC01     		.uleb128 0xbc
 3595 09ae 10       		.uleb128 0x10
 3596 09af BF000000 		.4byte	.LASF129
 3597 09b3 09       		.byte	0x9
 3598 09b4 9302     		.2byte	0x293
 3599 09b6 6E020000 		.4byte	0x26e
 3600 09ba 03       		.byte	0x3
ARM GAS  C:\Users\EBANO_~1\AppData\Local\Temp\cc4h82Al.s 			page 84


 3601 09bb 23       		.byte	0x23
 3602 09bc C401     		.uleb128 0xc4
 3603 09be 10       		.uleb128 0x10
 3604 09bf 46060000 		.4byte	.LASF130
 3605 09c3 09       		.byte	0x9
 3606 09c4 9402     		.2byte	0x294
 3607 09c6 77000000 		.4byte	0x77
 3608 09ca 03       		.byte	0x3
 3609 09cb 23       		.byte	0x23
 3610 09cc CC01     		.uleb128 0xcc
 3611 09ce 00       		.byte	0
 3612 09cf 08       		.uleb128 0x8
 3613 09d0 64070000 		.4byte	0x764
 3614 09d4 DF090000 		.4byte	0x9df
 3615 09d8 09       		.uleb128 0x9
 3616 09d9 7E000000 		.4byte	0x7e
 3617 09dd 19       		.byte	0x19
 3618 09de 00       		.byte	0
 3619 09df 08       		.uleb128 0x8
 3620 09e0 64070000 		.4byte	0x764
 3621 09e4 EF090000 		.4byte	0x9ef
 3622 09e8 09       		.uleb128 0x9
 3623 09e9 7E000000 		.4byte	0x7e
 3624 09ed 07       		.byte	0x7
 3625 09ee 00       		.byte	0
 3626 09ef 08       		.uleb128 0x8
 3627 09f0 64070000 		.4byte	0x764
 3628 09f4 FF090000 		.4byte	0x9ff
 3629 09f8 09       		.uleb128 0x9
 3630 09f9 7E000000 		.4byte	0x7e
 3631 09fd 17       		.byte	0x17
 3632 09fe 00       		.byte	0
 3633 09ff 0E       		.uleb128 0xe
 3634 0a00 F0       		.byte	0xf0
 3635 0a01 09       		.byte	0x9
 3636 0a02 9902     		.2byte	0x299
 3637 0a04 270A0000 		.4byte	0xa27
 3638 0a08 10       		.uleb128 0x10
 3639 0a09 8C040000 		.4byte	.LASF131
 3640 0a0d 09       		.byte	0x9
 3641 0a0e 9C02     		.2byte	0x29c
 3642 0a10 270A0000 		.4byte	0xa27
 3643 0a14 02       		.byte	0x2
 3644 0a15 23       		.byte	0x23
 3645 0a16 00       		.uleb128 0
 3646 0a17 10       		.uleb128 0x10
 3647 0a18 4D040000 		.4byte	.LASF132
 3648 0a1c 09       		.byte	0x9
 3649 0a1d 9D02     		.2byte	0x29d
 3650 0a1f 370A0000 		.4byte	0xa37
 3651 0a23 02       		.byte	0x2
 3652 0a24 23       		.byte	0x23
 3653 0a25 78       		.uleb128 0x78
 3654 0a26 00       		.byte	0
 3655 0a27 08       		.uleb128 0x8
 3656 0a28 76040000 		.4byte	0x476
 3657 0a2c 370A0000 		.4byte	0xa37
ARM GAS  C:\Users\EBANO_~1\AppData\Local\Temp\cc4h82Al.s 			page 85


 3658 0a30 09       		.uleb128 0x9
 3659 0a31 7E000000 		.4byte	0x7e
 3660 0a35 1D       		.byte	0x1d
 3661 0a36 00       		.byte	0
 3662 0a37 08       		.uleb128 0x8
 3663 0a38 7E000000 		.4byte	0x7e
 3664 0a3c 470A0000 		.4byte	0xa47
 3665 0a40 09       		.uleb128 0x9
 3666 0a41 7E000000 		.4byte	0x7e
 3667 0a45 1D       		.byte	0x1d
 3668 0a46 00       		.byte	0
 3669 0a47 20       		.uleb128 0x20
 3670 0a48 F0       		.byte	0xf0
 3671 0a49 09       		.byte	0x9
 3672 0a4a 7E02     		.2byte	0x27e
 3673 0a4c 690A0000 		.4byte	0xa69
 3674 0a50 21       		.uleb128 0x21
 3675 0a51 00070000 		.4byte	.LASF81
 3676 0a55 09       		.byte	0x9
 3677 0a56 9502     		.2byte	0x295
 3678 0a58 9F080000 		.4byte	0x89f
 3679 0a5c 21       		.uleb128 0x21
 3680 0a5d 23090000 		.4byte	.LASF133
 3681 0a61 09       		.byte	0x9
 3682 0a62 9E02     		.2byte	0x29e
 3683 0a64 FF090000 		.4byte	0x9ff
 3684 0a68 00       		.byte	0
 3685 0a69 08       		.uleb128 0x8
 3686 0a6a 64070000 		.4byte	0x764
 3687 0a6e 790A0000 		.4byte	0xa79
 3688 0a72 09       		.uleb128 0x9
 3689 0a73 7E000000 		.4byte	0x7e
 3690 0a77 18       		.byte	0x18
 3691 0a78 00       		.byte	0
 3692 0a79 16       		.uleb128 0x16
 3693 0a7a F6000000 		.4byte	.LASF135
 3694 0a7e 01       		.byte	0x1
 3695 0a7f 15       		.uleb128 0x15
 3696 0a80 04       		.byte	0x4
 3697 0a81 790A0000 		.4byte	0xa79
 3698 0a85 22       		.uleb128 0x22
 3699 0a86 01       		.byte	0x1
 3700 0a87 910A0000 		.4byte	0xa91
 3701 0a8b 1D       		.uleb128 0x1d
 3702 0a8c F5050000 		.4byte	0x5f5
 3703 0a90 00       		.byte	0
 3704 0a91 15       		.uleb128 0x15
 3705 0a92 04       		.byte	0x4
 3706 0a93 850A0000 		.4byte	0xa85
 3707 0a97 15       		.uleb128 0x15
 3708 0a98 04       		.byte	0x4
 3709 0a99 EE020000 		.4byte	0x2ee
 3710 0a9d 22       		.uleb128 0x22
 3711 0a9e 01       		.byte	0x1
 3712 0a9f A90A0000 		.4byte	0xaa9
 3713 0aa3 1D       		.uleb128 0x1d
 3714 0aa4 77000000 		.4byte	0x77
ARM GAS  C:\Users\EBANO_~1\AppData\Local\Temp\cc4h82Al.s 			page 86


 3715 0aa8 00       		.byte	0
 3716 0aa9 15       		.uleb128 0x15
 3717 0aaa 04       		.byte	0x4
 3718 0aab AF0A0000 		.4byte	0xaaf
 3719 0aaf 15       		.uleb128 0x15
 3720 0ab0 04       		.byte	0x4
 3721 0ab1 9D0A0000 		.4byte	0xa9d
 3722 0ab5 08       		.uleb128 0x8
 3723 0ab6 01080000 		.4byte	0x801
 3724 0aba C50A0000 		.4byte	0xac5
 3725 0abe 09       		.uleb128 0x9
 3726 0abf 7E000000 		.4byte	0x7e
 3727 0ac3 02       		.byte	0x2
 3728 0ac4 00       		.byte	0
 3729 0ac5 23       		.uleb128 0x23
 3730 0ac6 B6020000 		.4byte	.LASF136
 3731 0aca 09       		.byte	0x9
 3732 0acb 2E03     		.2byte	0x32e
 3733 0acd F5050000 		.4byte	0x5f5
 3734 0ad1 01       		.byte	0x1
 3735 0ad2 01       		.byte	0x1
 3736 0ad3 23       		.uleb128 0x23
 3737 0ad4 12080000 		.4byte	.LASF137
 3738 0ad8 09       		.byte	0x9
 3739 0ad9 2F03     		.2byte	0x32f
 3740 0adb FB050000 		.4byte	0x5fb
 3741 0adf 01       		.byte	0x1
 3742 0ae0 01       		.byte	0x1
 3743 0ae1 11       		.uleb128 0x11
 3744 0ae2 07       		.byte	0x7
 3745 0ae3 01       		.byte	0x1
 3746 0ae4 3B000000 		.4byte	0x3b
 3747 0ae8 0B       		.byte	0xb
 3748 0ae9 38       		.byte	0x38
 3749 0aea 070B0000 		.4byte	0xb07
 3750 0aee 12       		.uleb128 0x12
 3751 0aef 5A030000 		.4byte	.LASF138
 3752 0af3 00       		.byte	0
 3753 0af4 12       		.uleb128 0x12
 3754 0af5 34070000 		.4byte	.LASF139
 3755 0af9 01       		.byte	0x1
 3756 0afa 12       		.uleb128 0x12
 3757 0afb 8B000000 		.4byte	.LASF140
 3758 0aff 02       		.byte	0x2
 3759 0b00 12       		.uleb128 0x12
 3760 0b01 05030000 		.4byte	.LASF141
 3761 0b05 03       		.byte	0x3
 3762 0b06 00       		.byte	0
 3763 0b07 03       		.uleb128 0x3
 3764 0b08 D9030000 		.4byte	.LASF142
 3765 0b0c 0B       		.byte	0xb
 3766 0b0d 3D       		.byte	0x3d
 3767 0b0e E10A0000 		.4byte	0xae1
 3768 0b12 11       		.uleb128 0x11
 3769 0b13 07       		.byte	0x7
 3770 0b14 01       		.byte	0x1
 3771 0b15 3B000000 		.4byte	0x3b
ARM GAS  C:\Users\EBANO_~1\AppData\Local\Temp\cc4h82Al.s 			page 87


 3772 0b19 0B       		.byte	0xb
 3773 0b1a 43       		.byte	0x43
 3774 0b1b 2C0B0000 		.4byte	0xb2c
 3775 0b1f 12       		.uleb128 0x12
 3776 0b20 6C090000 		.4byte	.LASF143
 3777 0b24 00       		.byte	0
 3778 0b25 12       		.uleb128 0x12
 3779 0b26 81040000 		.4byte	.LASF144
 3780 0b2a 01       		.byte	0x1
 3781 0b2b 00       		.byte	0
 3782 0b2c 03       		.uleb128 0x3
 3783 0b2d BE010000 		.4byte	.LASF145
 3784 0b31 0B       		.byte	0xb
 3785 0b32 46       		.byte	0x46
 3786 0b33 120B0000 		.4byte	0xb12
 3787 0b37 0A       		.uleb128 0xa
 3788 0b38 20       		.byte	0x20
 3789 0b39 0C       		.byte	0xc
 3790 0b3a 3F       		.byte	0x3f
 3791 0b3b B00B0000 		.4byte	0xbb0
 3792 0b3f 0C       		.uleb128 0xc
 3793 0b40 6D070000 		.4byte	.LASF146
 3794 0b44 0C       		.byte	0xc
 3795 0b45 41       		.byte	0x41
 3796 0b46 95000000 		.4byte	0x95
 3797 0b4a 02       		.byte	0x2
 3798 0b4b 23       		.byte	0x23
 3799 0b4c 00       		.uleb128 0
 3800 0b4d 0C       		.uleb128 0xc
 3801 0b4e AC020000 		.4byte	.LASF147
 3802 0b52 0C       		.byte	0xc
 3803 0b53 44       		.byte	0x44
 3804 0b54 95000000 		.4byte	0x95
 3805 0b58 02       		.byte	0x2
 3806 0b59 23       		.byte	0x23
 3807 0b5a 04       		.uleb128 0x4
 3808 0b5b 0C       		.uleb128 0xc
 3809 0b5c FC010000 		.4byte	.LASF148
 3810 0b60 0C       		.byte	0xc
 3811 0b61 48       		.byte	0x48
 3812 0b62 95000000 		.4byte	0x95
 3813 0b66 02       		.byte	0x2
 3814 0b67 23       		.byte	0x23
 3815 0b68 08       		.uleb128 0x8
 3816 0b69 0C       		.uleb128 0xc
 3817 0b6a 9B060000 		.4byte	.LASF149
 3818 0b6e 0C       		.byte	0xc
 3819 0b6f 4C       		.byte	0x4c
 3820 0b70 95000000 		.4byte	0x95
 3821 0b74 02       		.byte	0x2
 3822 0b75 23       		.byte	0x23
 3823 0b76 0C       		.uleb128 0xc
 3824 0b77 0C       		.uleb128 0xc
 3825 0b78 CA020000 		.4byte	.LASF150
 3826 0b7c 0C       		.byte	0xc
 3827 0b7d 50       		.byte	0x50
 3828 0b7e 95000000 		.4byte	0x95
ARM GAS  C:\Users\EBANO_~1\AppData\Local\Temp\cc4h82Al.s 			page 88


 3829 0b82 02       		.byte	0x2
 3830 0b83 23       		.byte	0x23
 3831 0b84 10       		.uleb128 0x10
 3832 0b85 0C       		.uleb128 0xc
 3833 0b86 BB030000 		.4byte	.LASF151
 3834 0b8a 0C       		.byte	0xc
 3835 0b8b 54       		.byte	0x54
 3836 0b8c 95000000 		.4byte	0x95
 3837 0b90 02       		.byte	0x2
 3838 0b91 23       		.byte	0x23
 3839 0b92 14       		.uleb128 0x14
 3840 0b93 0C       		.uleb128 0xc
 3841 0b94 88070000 		.4byte	.LASF152
 3842 0b98 0C       		.byte	0xc
 3843 0b99 58       		.byte	0x58
 3844 0b9a 95000000 		.4byte	0x95
 3845 0b9e 02       		.byte	0x2
 3846 0b9f 23       		.byte	0x23
 3847 0ba0 18       		.uleb128 0x18
 3848 0ba1 0C       		.uleb128 0xc
 3849 0ba2 69080000 		.4byte	.LASF153
 3850 0ba6 0C       		.byte	0xc
 3851 0ba7 5D       		.byte	0x5d
 3852 0ba8 95000000 		.4byte	0x95
 3853 0bac 02       		.byte	0x2
 3854 0bad 23       		.byte	0x23
 3855 0bae 1C       		.uleb128 0x1c
 3856 0baf 00       		.byte	0
 3857 0bb0 03       		.uleb128 0x3
 3858 0bb1 55000000 		.4byte	.LASF154
 3859 0bb5 0C       		.byte	0xc
 3860 0bb6 5F       		.byte	0x5f
 3861 0bb7 370B0000 		.4byte	0xb37
 3862 0bbb 11       		.uleb128 0x11
 3863 0bbc 07       		.byte	0x7
 3864 0bbd 01       		.byte	0x1
 3865 0bbe 3B000000 		.4byte	0x3b
 3866 0bc2 0C       		.byte	0xc
 3867 0bc3 6F       		.byte	0x6f
 3868 0bc4 ED0B0000 		.4byte	0xbed
 3869 0bc8 12       		.uleb128 0x12
 3870 0bc9 01010000 		.4byte	.LASF155
 3871 0bcd 00       		.byte	0
 3872 0bce 12       		.uleb128 0x12
 3873 0bcf 12040000 		.4byte	.LASF156
 3874 0bd3 01       		.byte	0x1
 3875 0bd4 12       		.uleb128 0x12
 3876 0bd5 9D000000 		.4byte	.LASF157
 3877 0bd9 02       		.byte	0x2
 3878 0bda 12       		.uleb128 0x12
 3879 0bdb 53080000 		.4byte	.LASF158
 3880 0bdf 03       		.byte	0x3
 3881 0be0 12       		.uleb128 0x12
 3882 0be1 3C020000 		.4byte	.LASF159
 3883 0be5 04       		.byte	0x4
 3884 0be6 12       		.uleb128 0x12
 3885 0be7 53090000 		.4byte	.LASF160
ARM GAS  C:\Users\EBANO_~1\AppData\Local\Temp\cc4h82Al.s 			page 89


 3886 0beb 05       		.byte	0x5
 3887 0bec 00       		.byte	0
 3888 0bed 03       		.uleb128 0x3
 3889 0bee DE010000 		.4byte	.LASF161
 3890 0bf2 0C       		.byte	0xc
 3891 0bf3 76       		.byte	0x76
 3892 0bf4 BB0B0000 		.4byte	0xbbb
 3893 0bf8 06       		.uleb128 0x6
 3894 0bf9 ED0B0000 		.4byte	0xbed
 3895 0bfd 11       		.uleb128 0x11
 3896 0bfe 07       		.byte	0x7
 3897 0bff 01       		.byte	0x1
 3898 0c00 3B000000 		.4byte	0x3b
 3899 0c04 0C       		.byte	0xc
 3900 0c05 7C       		.byte	0x7c
 3901 0c06 170C0000 		.4byte	0xc17
 3902 0c0a 12       		.uleb128 0x12
 3903 0c0b 93040000 		.4byte	.LASF162
 3904 0c0f 00       		.byte	0
 3905 0c10 12       		.uleb128 0x12
 3906 0c11 1C020000 		.4byte	.LASF163
 3907 0c15 01       		.byte	0x1
 3908 0c16 00       		.byte	0
 3909 0c17 19       		.uleb128 0x19
 3910 0c18 A6070000 		.4byte	.LASF164
 3911 0c1c 40       		.byte	0x40
 3912 0c1d 0C       		.byte	0xc
 3913 0c1e 86       		.byte	0x86
 3914 0c1f B00C0000 		.4byte	0xcb0
 3915 0c23 0C       		.uleb128 0xc
 3916 0c24 22050000 		.4byte	.LASF165
 3917 0c28 0C       		.byte	0xc
 3918 0c29 88       		.byte	0x88
 3919 0c2a B00C0000 		.4byte	0xcb0
 3920 0c2e 02       		.byte	0x2
 3921 0c2f 23       		.byte	0x23
 3922 0c30 00       		.uleb128 0
 3923 0c31 0C       		.uleb128 0xc
 3924 0c32 13050000 		.4byte	.LASF166
 3925 0c36 0C       		.byte	0xc
 3926 0c37 8A       		.byte	0x8a
 3927 0c38 B00B0000 		.4byte	0xbb0
 3928 0c3c 02       		.byte	0x2
 3929 0c3d 23       		.byte	0x23
 3930 0c3e 04       		.uleb128 0x4
 3931 0c3f 0C       		.uleb128 0xc
 3932 0c40 94020000 		.4byte	.LASF167
 3933 0c44 0C       		.byte	0xc
 3934 0c45 8C       		.byte	0x8c
 3935 0c46 2C0B0000 		.4byte	0xb2c
 3936 0c4a 02       		.byte	0x2
 3937 0c4b 23       		.byte	0x23
 3938 0c4c 24       		.uleb128 0x24
 3939 0c4d 0C       		.uleb128 0xc
 3940 0c4e 29000000 		.4byte	.LASF168
 3941 0c52 0C       		.byte	0xc
 3942 0c53 8E       		.byte	0x8e
ARM GAS  C:\Users\EBANO_~1\AppData\Local\Temp\cc4h82Al.s 			page 90


 3943 0c54 F80B0000 		.4byte	0xbf8
 3944 0c58 02       		.byte	0x2
 3945 0c59 23       		.byte	0x23
 3946 0c5a 25       		.uleb128 0x25
 3947 0c5b 0C       		.uleb128 0xc
 3948 0c5c 8D020000 		.4byte	.LASF169
 3949 0c60 0C       		.byte	0xc
 3950 0c61 90       		.byte	0x90
 3951 0c62 DF010000 		.4byte	0x1df
 3952 0c66 02       		.byte	0x2
 3953 0c67 23       		.byte	0x23
 3954 0c68 28       		.uleb128 0x28
 3955 0c69 0C       		.uleb128 0xc
 3956 0c6a 2B040000 		.4byte	.LASF170
 3957 0c6e 0C       		.byte	0xc
 3958 0c6f 92       		.byte	0x92
 3959 0c70 C80C0000 		.4byte	0xcc8
 3960 0c74 02       		.byte	0x2
 3961 0c75 23       		.byte	0x23
 3962 0c76 2C       		.uleb128 0x2c
 3963 0c77 0C       		.uleb128 0xc
 3964 0c78 6E010000 		.4byte	.LASF171
 3965 0c7c 0C       		.byte	0xc
 3966 0c7d 94       		.byte	0x94
 3967 0c7e C80C0000 		.4byte	0xcc8
 3968 0c82 02       		.byte	0x2
 3969 0c83 23       		.byte	0x23
 3970 0c84 30       		.uleb128 0x30
 3971 0c85 0C       		.uleb128 0xc
 3972 0c86 BB040000 		.4byte	.LASF172
 3973 0c8a 0C       		.byte	0xc
 3974 0c8b 96       		.byte	0x96
 3975 0c8c C80C0000 		.4byte	0xcc8
 3976 0c90 02       		.byte	0x2
 3977 0c91 23       		.byte	0x23
 3978 0c92 34       		.uleb128 0x34
 3979 0c93 0C       		.uleb128 0xc
 3980 0c94 8C090000 		.4byte	.LASF173
 3981 0c98 0C       		.byte	0xc
 3982 0c99 98       		.byte	0x98
 3983 0c9a C80C0000 		.4byte	0xcc8
 3984 0c9e 02       		.byte	0x2
 3985 0c9f 23       		.byte	0x23
 3986 0ca0 38       		.uleb128 0x38
 3987 0ca1 0C       		.uleb128 0xc
 3988 0ca2 A3030000 		.4byte	.LASF174
 3989 0ca6 0C       		.byte	0xc
 3990 0ca7 9A       		.byte	0x9a
 3991 0ca8 A0000000 		.4byte	0xa0
 3992 0cac 02       		.byte	0x2
 3993 0cad 23       		.byte	0x23
 3994 0cae 3C       		.uleb128 0x3c
 3995 0caf 00       		.byte	0
 3996 0cb0 15       		.uleb128 0x15
 3997 0cb1 04       		.byte	0x4
 3998 0cb2 59010000 		.4byte	0x159
 3999 0cb6 22       		.uleb128 0x22
ARM GAS  C:\Users\EBANO_~1\AppData\Local\Temp\cc4h82Al.s 			page 91


 4000 0cb7 01       		.byte	0x1
 4001 0cb8 C20C0000 		.4byte	0xcc2
 4002 0cbc 1D       		.uleb128 0x1d
 4003 0cbd C20C0000 		.4byte	0xcc2
 4004 0cc1 00       		.byte	0
 4005 0cc2 15       		.uleb128 0x15
 4006 0cc3 04       		.byte	0x4
 4007 0cc4 170C0000 		.4byte	0xc17
 4008 0cc8 15       		.uleb128 0x15
 4009 0cc9 04       		.byte	0x4
 4010 0cca B60C0000 		.4byte	0xcb6
 4011 0cce 03       		.uleb128 0x3
 4012 0ccf A9040000 		.4byte	.LASF175
 4013 0cd3 0C       		.byte	0xc
 4014 0cd4 9C       		.byte	0x9c
 4015 0cd5 170C0000 		.4byte	0xc17
 4016 0cd9 15       		.uleb128 0x15
 4017 0cda 04       		.byte	0x4
 4018 0cdb CE0C0000 		.4byte	0xcce
 4019 0cdf 24       		.uleb128 0x24
 4020 0ce0 ED060000 		.4byte	.LASF197
 4021 0ce4 01       		.byte	0x1
 4022 0ce5 0703     		.2byte	0x307
 4023 0ce7 01       		.byte	0x1
 4024 0ce8 01       		.byte	0x1
 4025 0ce9 1E0D0000 		.4byte	0xd1e
 4026 0ced 25       		.uleb128 0x25
 4027 0cee FB060000 		.4byte	.LASF176
 4028 0cf2 01       		.byte	0x1
 4029 0cf3 0703     		.2byte	0x307
 4030 0cf5 D90C0000 		.4byte	0xcd9
 4031 0cf9 25       		.uleb128 0x25
 4032 0cfa 2F000000 		.4byte	.LASF177
 4033 0cfe 01       		.byte	0x1
 4034 0cff 0703     		.2byte	0x307
 4035 0d01 95000000 		.4byte	0x95
 4036 0d05 25       		.uleb128 0x25
 4037 0d06 A0010000 		.4byte	.LASF178
 4038 0d0a 01       		.byte	0x1
 4039 0d0b 0703     		.2byte	0x307
 4040 0d0d 95000000 		.4byte	0x95
 4041 0d11 25       		.uleb128 0x25
 4042 0d12 42000000 		.4byte	.LASF179
 4043 0d16 01       		.byte	0x1
 4044 0d17 0703     		.2byte	0x307
 4045 0d19 95000000 		.4byte	0x95
 4046 0d1d 00       		.byte	0
 4047 0d1e 26       		.uleb128 0x26
 4048 0d1f 01       		.byte	0x1
 4049 0d20 01080000 		.4byte	.LASF180
 4050 0d24 01       		.byte	0x1
 4051 0d25 E902     		.2byte	0x2e9
 4052 0d27 01       		.byte	0x1
 4053 0d28 95000000 		.4byte	0x95
 4054 0d2c 00000000 		.4byte	.LFB48
 4055 0d30 04000000 		.4byte	.LFE48
 4056 0d34 02       		.byte	0x2
ARM GAS  C:\Users\EBANO_~1\AppData\Local\Temp\cc4h82Al.s 			page 92


 4057 0d35 7D       		.byte	0x7d
 4058 0d36 00       		.sleb128 0
 4059 0d37 01       		.byte	0x1
 4060 0d38 4D0D0000 		.4byte	0xd4d
 4061 0d3c 27       		.uleb128 0x27
 4062 0d3d FB060000 		.4byte	.LASF176
 4063 0d41 01       		.byte	0x1
 4064 0d42 E902     		.2byte	0x2e9
 4065 0d44 D90C0000 		.4byte	0xcd9
 4066 0d48 00000000 		.4byte	.LLST35
 4067 0d4c 00       		.byte	0
 4068 0d4d 26       		.uleb128 0x26
 4069 0d4e 01       		.byte	0x1
 4070 0d4f 3C010000 		.4byte	.LASF181
 4071 0d53 01       		.byte	0x1
 4072 0d54 DE02     		.2byte	0x2de
 4073 0d56 01       		.byte	0x1
 4074 0d57 ED0B0000 		.4byte	0xbed
 4075 0d5b 00000000 		.4byte	.LFB47
 4076 0d5f 08000000 		.4byte	.LFE47
 4077 0d63 02       		.byte	0x2
 4078 0d64 7D       		.byte	0x7d
 4079 0d65 00       		.sleb128 0
 4080 0d66 01       		.byte	0x1
 4081 0d67 7C0D0000 		.4byte	0xd7c
 4082 0d6b 27       		.uleb128 0x27
 4083 0d6c FB060000 		.4byte	.LASF176
 4084 0d70 01       		.byte	0x1
 4085 0d71 DE02     		.2byte	0x2de
 4086 0d73 D90C0000 		.4byte	0xcd9
 4087 0d77 21000000 		.4byte	.LLST34
 4088 0d7b 00       		.byte	0
 4089 0d7c 28       		.uleb128 0x28
 4090 0d7d 01       		.byte	0x1
 4091 0d7e 0C000000 		.4byte	.LASF198
 4092 0d82 01       		.byte	0x1
 4093 0d83 6E02     		.2byte	0x26e
 4094 0d85 01       		.byte	0x1
 4095 0d86 00000000 		.4byte	.LFB46
 4096 0d8a 94020000 		.4byte	.LFE46
 4097 0d8e 42000000 		.4byte	.LLST32
 4098 0d92 01       		.byte	0x1
 4099 0d93 D40D0000 		.4byte	0xdd4
 4100 0d97 27       		.uleb128 0x27
 4101 0d98 FB060000 		.4byte	.LASF176
 4102 0d9c 01       		.byte	0x1
 4103 0d9d 6E02     		.2byte	0x26e
 4104 0d9f D90C0000 		.4byte	0xcd9
 4105 0da3 62000000 		.4byte	.LLST33
 4106 0da7 29       		.uleb128 0x29
 4107 0da8 78000000 		.4byte	.LVL103
 4108 0dac B70D0000 		.4byte	0xdb7
 4109 0db0 2A       		.uleb128 0x2a
 4110 0db1 01       		.byte	0x1
 4111 0db2 50       		.byte	0x50
 4112 0db3 02       		.byte	0x2
 4113 0db4 74       		.byte	0x74
ARM GAS  C:\Users\EBANO_~1\AppData\Local\Temp\cc4h82Al.s 			page 93


 4114 0db5 00       		.sleb128 0
 4115 0db6 00       		.byte	0
 4116 0db7 29       		.uleb128 0x29
 4117 0db8 F8000000 		.4byte	.LVL104
 4118 0dbc C70D0000 		.4byte	0xdc7
 4119 0dc0 2A       		.uleb128 0x2a
 4120 0dc1 01       		.byte	0x1
 4121 0dc2 50       		.byte	0x50
 4122 0dc3 02       		.byte	0x2
 4123 0dc4 74       		.byte	0x74
 4124 0dc5 00       		.sleb128 0
 4125 0dc6 00       		.byte	0
 4126 0dc7 2B       		.uleb128 0x2b
 4127 0dc8 2A010000 		.4byte	.LVL107
 4128 0dcc 2A       		.uleb128 0x2a
 4129 0dcd 01       		.byte	0x1
 4130 0dce 50       		.byte	0x50
 4131 0dcf 02       		.byte	0x2
 4132 0dd0 74       		.byte	0x74
 4133 0dd1 00       		.sleb128 0
 4134 0dd2 00       		.byte	0
 4135 0dd3 00       		.byte	0
 4136 0dd4 2C       		.uleb128 0x2c
 4137 0dd5 01       		.byte	0x1
 4138 0dd6 6E030000 		.4byte	.LASF182
 4139 0dda 01       		.byte	0x1
 4140 0ddb 1402     		.2byte	0x214
 4141 0ddd 01       		.byte	0x1
 4142 0dde 070B0000 		.4byte	0xb07
 4143 0de2 00000000 		.4byte	.LFB45
 4144 0de6 C4030000 		.4byte	.LFE45
 4145 0dea 99000000 		.4byte	.LLST26
 4146 0dee 01       		.byte	0x1
 4147 0def 560E0000 		.4byte	0xe56
 4148 0df3 27       		.uleb128 0x27
 4149 0df4 FB060000 		.4byte	.LASF176
 4150 0df8 01       		.byte	0x1
 4151 0df9 1402     		.2byte	0x214
 4152 0dfb D90C0000 		.4byte	0xcd9
 4153 0dff D1000000 		.4byte	.LLST27
 4154 0e03 27       		.uleb128 0x27
 4155 0e04 38060000 		.4byte	.LASF183
 4156 0e08 01       		.byte	0x1
 4157 0e09 1402     		.2byte	0x214
 4158 0e0b 95000000 		.4byte	0x95
 4159 0e0f 55010000 		.4byte	.LLST28
 4160 0e13 27       		.uleb128 0x27
 4161 0e14 A4020000 		.4byte	.LASF184
 4162 0e18 01       		.byte	0x1
 4163 0e19 1402     		.2byte	0x214
 4164 0e1b 95000000 		.4byte	0x95
 4165 0e1f D0010000 		.4byte	.LLST29
 4166 0e23 2D       		.uleb128 0x2d
 4167 0e24 00030000 		.4byte	.LASF185
 4168 0e28 01       		.byte	0x1
 4169 0e29 1602     		.2byte	0x216
 4170 0e2b 95000000 		.4byte	0x95
ARM GAS  C:\Users\EBANO_~1\AppData\Local\Temp\cc4h82Al.s 			page 94


 4171 0e2f C1020000 		.4byte	.LLST30
 4172 0e33 2D       		.uleb128 0x2d
 4173 0e34 77060000 		.4byte	.LASF186
 4174 0e38 01       		.byte	0x1
 4175 0e39 1702     		.2byte	0x217
 4176 0e3b 95000000 		.4byte	0x95
 4177 0e3f 00030000 		.4byte	.LLST31
 4178 0e43 2E       		.uleb128 0x2e
 4179 0e44 62000000 		.4byte	.LVL73
 4180 0e48 87100000 		.4byte	0x1087
 4181 0e4c 2E       		.uleb128 0x2e
 4182 0e4d D4020000 		.4byte	.LVL90
 4183 0e51 87100000 		.4byte	0x1087
 4184 0e55 00       		.byte	0
 4185 0e56 2C       		.uleb128 0x2c
 4186 0e57 01       		.byte	0x1
 4187 0e58 7A000000 		.4byte	.LASF187
 4188 0e5c 01       		.byte	0x1
 4189 0e5d E701     		.2byte	0x1e7
 4190 0e5f 01       		.byte	0x1
 4191 0e60 070B0000 		.4byte	0xb07
 4192 0e64 00000000 		.4byte	.LFB44
 4193 0e68 B4000000 		.4byte	.LFE44
 4194 0e6c B2030000 		.4byte	.LLST23
 4195 0e70 01       		.byte	0x1
 4196 0e71 A30E0000 		.4byte	0xea3
 4197 0e75 27       		.uleb128 0x27
 4198 0e76 FB060000 		.4byte	.LASF176
 4199 0e7a 01       		.byte	0x1
 4200 0e7b E701     		.2byte	0x1e7
 4201 0e7d D90C0000 		.4byte	0xcd9
 4202 0e81 D2030000 		.4byte	.LLST24
 4203 0e85 2D       		.uleb128 0x2d
 4204 0e86 3B080000 		.4byte	.LASF188
 4205 0e8a 01       		.byte	0x1
 4206 0e8b E901     		.2byte	0x1e9
 4207 0e8d 070B0000 		.4byte	0xb07
 4208 0e91 25040000 		.4byte	.LLST25
 4209 0e95 2B       		.uleb128 0x2b
 4210 0e96 72000000 		.4byte	.LVL67
 4211 0e9a 2A       		.uleb128 0x2a
 4212 0e9b 01       		.byte	0x1
 4213 0e9c 50       		.byte	0x50
 4214 0e9d 03       		.byte	0x3
 4215 0e9e F3       		.byte	0xf3
 4216 0e9f 01       		.uleb128 0x1
 4217 0ea0 50       		.byte	0x50
 4218 0ea1 00       		.byte	0
 4219 0ea2 00       		.byte	0
 4220 0ea3 2C       		.uleb128 0x2c
 4221 0ea4 01       		.byte	0x1
 4222 0ea5 F1030000 		.4byte	.LASF189
 4223 0ea9 01       		.byte	0x1
 4224 0eaa BC01     		.2byte	0x1bc
 4225 0eac 01       		.byte	0x1
 4226 0ead 070B0000 		.4byte	0xb07
 4227 0eb1 00000000 		.4byte	.LFB43
ARM GAS  C:\Users\EBANO_~1\AppData\Local\Temp\cc4h82Al.s 			page 95


 4228 0eb5 52000000 		.4byte	.LFE43
 4229 0eb9 5C040000 		.4byte	.LLST20
 4230 0ebd 01       		.byte	0x1
 4231 0ebe F50E0000 		.4byte	0xef5
 4232 0ec2 27       		.uleb128 0x27
 4233 0ec3 FB060000 		.4byte	.LASF176
 4234 0ec7 01       		.byte	0x1
 4235 0ec8 BC01     		.2byte	0x1bc
 4236 0eca D90C0000 		.4byte	0xcd9
 4237 0ece 7C040000 		.4byte	.LLST21
 4238 0ed2 2D       		.uleb128 0x2d
 4239 0ed3 77060000 		.4byte	.LASF186
 4240 0ed7 01       		.byte	0x1
 4241 0ed8 BE01     		.2byte	0x1be
 4242 0eda 95000000 		.4byte	0x95
 4243 0ede B3040000 		.4byte	.LLST22
 4244 0ee2 2E       		.uleb128 0x2e
 4245 0ee3 12000000 		.4byte	.LVL56
 4246 0ee7 87100000 		.4byte	0x1087
 4247 0eeb 2E       		.uleb128 0x2e
 4248 0eec 20000000 		.4byte	.LVL59
 4249 0ef0 87100000 		.4byte	0x1087
 4250 0ef4 00       		.byte	0
 4251 0ef5 2C       		.uleb128 0x2c
 4252 0ef6 01       		.byte	0x1
 4253 0ef7 8F010000 		.4byte	.LASF190
 4254 0efb 01       		.byte	0x1
 4255 0efc 9601     		.2byte	0x196
 4256 0efe 01       		.byte	0x1
 4257 0eff 070B0000 		.4byte	0xb07
 4258 0f03 00000000 		.4byte	.LFB42
 4259 0f07 56000000 		.4byte	.LFE42
 4260 0f0b E8040000 		.4byte	.LLST12
 4261 0f0f 01       		.byte	0x1
 4262 0f10 880F0000 		.4byte	0xf88
 4263 0f14 27       		.uleb128 0x27
 4264 0f15 FB060000 		.4byte	.LASF176
 4265 0f19 01       		.byte	0x1
 4266 0f1a 9601     		.2byte	0x196
 4267 0f1c D90C0000 		.4byte	0xcd9
 4268 0f20 08050000 		.4byte	.LLST13
 4269 0f24 2F       		.uleb128 0x2f
 4270 0f25 2F000000 		.4byte	.LASF177
 4271 0f29 01       		.byte	0x1
 4272 0f2a 9601     		.2byte	0x196
 4273 0f2c 95000000 		.4byte	0x95
 4274 0f30 01       		.byte	0x1
 4275 0f31 51       		.byte	0x51
 4276 0f32 27       		.uleb128 0x27
 4277 0f33 A0010000 		.4byte	.LASF178
 4278 0f37 01       		.byte	0x1
 4279 0f38 9601     		.2byte	0x196
 4280 0f3a 95000000 		.4byte	0x95
 4281 0f3e 42050000 		.4byte	.LLST14
 4282 0f42 27       		.uleb128 0x27
 4283 0f43 42000000 		.4byte	.LASF179
 4284 0f47 01       		.byte	0x1
ARM GAS  C:\Users\EBANO_~1\AppData\Local\Temp\cc4h82Al.s 			page 96


 4285 0f48 9601     		.2byte	0x196
 4286 0f4a 95000000 		.4byte	0x95
 4287 0f4e 6E050000 		.4byte	.LLST15
 4288 0f52 30       		.uleb128 0x30
 4289 0f53 DF0C0000 		.4byte	0xcdf
 4290 0f57 1C000000 		.4byte	.LBB10
 4291 0f5b 18000000 		.4byte	.Ldebug_ranges0+0x18
 4292 0f5f 01       		.byte	0x1
 4293 0f60 A501     		.2byte	0x1a5
 4294 0f62 31       		.uleb128 0x31
 4295 0f63 110D0000 		.4byte	0xd11
 4296 0f67 C0050000 		.4byte	.LLST16
 4297 0f6b 31       		.uleb128 0x31
 4298 0f6c 050D0000 		.4byte	0xd05
 4299 0f70 07060000 		.4byte	.LLST17
 4300 0f74 31       		.uleb128 0x31
 4301 0f75 F90C0000 		.4byte	0xcf9
 4302 0f79 25060000 		.4byte	.LLST18
 4303 0f7d 31       		.uleb128 0x31
 4304 0f7e ED0C0000 		.4byte	0xced
 4305 0f82 43060000 		.4byte	.LLST19
 4306 0f86 00       		.byte	0
 4307 0f87 00       		.byte	0
 4308 0f88 2C       		.uleb128 0x2c
 4309 0f89 01       		.byte	0x1
 4310 0f8a EC020000 		.4byte	.LASF191
 4311 0f8e 01       		.byte	0x1
 4312 0f8f 7601     		.2byte	0x176
 4313 0f91 01       		.byte	0x1
 4314 0f92 070B0000 		.4byte	0xb07
 4315 0f96 00000000 		.4byte	.LFB41
 4316 0f9a 3E000000 		.4byte	.LFE41
 4317 0f9e 61060000 		.4byte	.LLST4
 4318 0fa2 01       		.byte	0x1
 4319 0fa3 1B100000 		.4byte	0x101b
 4320 0fa7 27       		.uleb128 0x27
 4321 0fa8 FB060000 		.4byte	.LASF176
 4322 0fac 01       		.byte	0x1
 4323 0fad 7601     		.2byte	0x176
 4324 0faf D90C0000 		.4byte	0xcd9
 4325 0fb3 81060000 		.4byte	.LLST5
 4326 0fb7 2F       		.uleb128 0x2f
 4327 0fb8 2F000000 		.4byte	.LASF177
 4328 0fbc 01       		.byte	0x1
 4329 0fbd 7601     		.2byte	0x176
 4330 0fbf 95000000 		.4byte	0x95
 4331 0fc3 01       		.byte	0x1
 4332 0fc4 51       		.byte	0x51
 4333 0fc5 27       		.uleb128 0x27
 4334 0fc6 A0010000 		.4byte	.LASF178
 4335 0fca 01       		.byte	0x1
 4336 0fcb 7601     		.2byte	0x176
 4337 0fcd 95000000 		.4byte	0x95
 4338 0fd1 BB060000 		.4byte	.LLST6
 4339 0fd5 27       		.uleb128 0x27
 4340 0fd6 42000000 		.4byte	.LASF179
 4341 0fda 01       		.byte	0x1
ARM GAS  C:\Users\EBANO_~1\AppData\Local\Temp\cc4h82Al.s 			page 97


 4342 0fdb 7601     		.2byte	0x176
 4343 0fdd 95000000 		.4byte	0x95
 4344 0fe1 E7060000 		.4byte	.LLST7
 4345 0fe5 30       		.uleb128 0x30
 4346 0fe6 DF0C0000 		.4byte	0xcdf
 4347 0fea 1C000000 		.4byte	.LBB6
 4348 0fee 00000000 		.4byte	.Ldebug_ranges0+0
 4349 0ff2 01       		.byte	0x1
 4350 0ff3 8501     		.2byte	0x185
 4351 0ff5 31       		.uleb128 0x31
 4352 0ff6 110D0000 		.4byte	0xd11
 4353 0ffa 39070000 		.4byte	.LLST8
 4354 0ffe 31       		.uleb128 0x31
 4355 0fff 050D0000 		.4byte	0xd05
 4356 1003 80070000 		.4byte	.LLST9
 4357 1007 31       		.uleb128 0x31
 4358 1008 F90C0000 		.4byte	0xcf9
 4359 100c 9E070000 		.4byte	.LLST10
 4360 1010 31       		.uleb128 0x31
 4361 1011 ED0C0000 		.4byte	0xced
 4362 1015 BC070000 		.4byte	.LLST11
 4363 1019 00       		.byte	0
 4364 101a 00       		.byte	0
 4365 101b 26       		.uleb128 0x26
 4366 101c 01       		.byte	0x1
 4367 101d 24010000 		.4byte	.LASF192
 4368 1021 01       		.byte	0x1
 4369 1022 0101     		.2byte	0x101
 4370 1024 01       		.byte	0x1
 4371 1025 070B0000 		.4byte	0xb07
 4372 1029 00000000 		.4byte	.LFB40
 4373 102d 8C010000 		.4byte	.LFE40
 4374 1031 02       		.byte	0x2
 4375 1032 7D       		.byte	0x7d
 4376 1033 00       		.sleb128 0
 4377 1034 01       		.byte	0x1
 4378 1035 4A100000 		.4byte	0x104a
 4379 1039 27       		.uleb128 0x27
 4380 103a FB060000 		.4byte	.LASF176
 4381 103e 01       		.byte	0x1
 4382 103f 0101     		.2byte	0x101
 4383 1041 D90C0000 		.4byte	0xcd9
 4384 1045 DA070000 		.4byte	.LLST3
 4385 1049 00       		.byte	0
 4386 104a 32       		.uleb128 0x32
 4387 104b 01       		.byte	0x1
 4388 104c 05040000 		.4byte	.LASF193
 4389 1050 01       		.byte	0x1
 4390 1051 8B       		.byte	0x8b
 4391 1052 01       		.byte	0x1
 4392 1053 070B0000 		.4byte	0xb07
 4393 1057 00000000 		.4byte	.LFB39
 4394 105b 48010000 		.4byte	.LFE39
 4395 105f 1F080000 		.4byte	.LLST0
 4396 1063 01       		.byte	0x1
 4397 1064 87100000 		.4byte	0x1087
 4398 1068 33       		.uleb128 0x33
ARM GAS  C:\Users\EBANO_~1\AppData\Local\Temp\cc4h82Al.s 			page 98


 4399 1069 FB060000 		.4byte	.LASF176
 4400 106d 01       		.byte	0x1
 4401 106e 8B       		.byte	0x8b
 4402 106f D90C0000 		.4byte	0xcd9
 4403 1073 3F080000 		.4byte	.LLST1
 4404 1077 34       		.uleb128 0x34
 4405 1078 746D7000 		.ascii	"tmp\000"
 4406 107c 01       		.byte	0x1
 4407 107d 8D       		.byte	0x8d
 4408 107e 95000000 		.4byte	0x95
 4409 1082 84080000 		.4byte	.LLST2
 4410 1086 00       		.byte	0
 4411 1087 35       		.uleb128 0x35
 4412 1088 01       		.byte	0x1
 4413 1089 01       		.byte	0x1
 4414 108a 5D040000 		.4byte	.LASF199
 4415 108e 5D040000 		.4byte	.LASF199
 4416 1092 0D       		.byte	0xd
 4417 1093 8401     		.2byte	0x184
 4418 1095 00       		.byte	0
 4419              		.section	.debug_abbrev,"",%progbits
 4420              	.Ldebug_abbrev0:
 4421 0000 01       		.uleb128 0x1
 4422 0001 11       		.uleb128 0x11
 4423 0002 01       		.byte	0x1
 4424 0003 25       		.uleb128 0x25
 4425 0004 0E       		.uleb128 0xe
 4426 0005 13       		.uleb128 0x13
 4427 0006 0B       		.uleb128 0xb
 4428 0007 03       		.uleb128 0x3
 4429 0008 0E       		.uleb128 0xe
 4430 0009 1B       		.uleb128 0x1b
 4431 000a 0E       		.uleb128 0xe
 4432 000b 55       		.uleb128 0x55
 4433 000c 06       		.uleb128 0x6
 4434 000d 11       		.uleb128 0x11
 4435 000e 01       		.uleb128 0x1
 4436 000f 52       		.uleb128 0x52
 4437 0010 01       		.uleb128 0x1
 4438 0011 10       		.uleb128 0x10
 4439 0012 06       		.uleb128 0x6
 4440 0013 00       		.byte	0
 4441 0014 00       		.byte	0
 4442 0015 02       		.uleb128 0x2
 4443 0016 24       		.uleb128 0x24
 4444 0017 00       		.byte	0
 4445 0018 0B       		.uleb128 0xb
 4446 0019 0B       		.uleb128 0xb
 4447 001a 3E       		.uleb128 0x3e
 4448 001b 0B       		.uleb128 0xb
 4449 001c 03       		.uleb128 0x3
 4450 001d 0E       		.uleb128 0xe
 4451 001e 00       		.byte	0
 4452 001f 00       		.byte	0
 4453 0020 03       		.uleb128 0x3
 4454 0021 16       		.uleb128 0x16
 4455 0022 00       		.byte	0
ARM GAS  C:\Users\EBANO_~1\AppData\Local\Temp\cc4h82Al.s 			page 99


 4456 0023 03       		.uleb128 0x3
 4457 0024 0E       		.uleb128 0xe
 4458 0025 3A       		.uleb128 0x3a
 4459 0026 0B       		.uleb128 0xb
 4460 0027 3B       		.uleb128 0x3b
 4461 0028 0B       		.uleb128 0xb
 4462 0029 49       		.uleb128 0x49
 4463 002a 13       		.uleb128 0x13
 4464 002b 00       		.byte	0
 4465 002c 00       		.byte	0
 4466 002d 04       		.uleb128 0x4
 4467 002e 24       		.uleb128 0x24
 4468 002f 00       		.byte	0
 4469 0030 0B       		.uleb128 0xb
 4470 0031 0B       		.uleb128 0xb
 4471 0032 3E       		.uleb128 0x3e
 4472 0033 0B       		.uleb128 0xb
 4473 0034 03       		.uleb128 0x3
 4474 0035 08       		.uleb128 0x8
 4475 0036 00       		.byte	0
 4476 0037 00       		.byte	0
 4477 0038 05       		.uleb128 0x5
 4478 0039 26       		.uleb128 0x26
 4479 003a 00       		.byte	0
 4480 003b 49       		.uleb128 0x49
 4481 003c 13       		.uleb128 0x13
 4482 003d 00       		.byte	0
 4483 003e 00       		.byte	0
 4484 003f 06       		.uleb128 0x6
 4485 0040 35       		.uleb128 0x35
 4486 0041 00       		.byte	0
 4487 0042 49       		.uleb128 0x49
 4488 0043 13       		.uleb128 0x13
 4489 0044 00       		.byte	0
 4490 0045 00       		.byte	0
 4491 0046 07       		.uleb128 0x7
 4492 0047 34       		.uleb128 0x34
 4493 0048 00       		.byte	0
 4494 0049 03       		.uleb128 0x3
 4495 004a 0E       		.uleb128 0xe
 4496 004b 3A       		.uleb128 0x3a
 4497 004c 0B       		.uleb128 0xb
 4498 004d 3B       		.uleb128 0x3b
 4499 004e 0B       		.uleb128 0xb
 4500 004f 49       		.uleb128 0x49
 4501 0050 13       		.uleb128 0x13
 4502 0051 3F       		.uleb128 0x3f
 4503 0052 0C       		.uleb128 0xc
 4504 0053 3C       		.uleb128 0x3c
 4505 0054 0C       		.uleb128 0xc
 4506 0055 00       		.byte	0
 4507 0056 00       		.byte	0
 4508 0057 08       		.uleb128 0x8
 4509 0058 01       		.uleb128 0x1
 4510 0059 01       		.byte	0x1
 4511 005a 49       		.uleb128 0x49
 4512 005b 13       		.uleb128 0x13
ARM GAS  C:\Users\EBANO_~1\AppData\Local\Temp\cc4h82Al.s 			page 100


 4513 005c 01       		.uleb128 0x1
 4514 005d 13       		.uleb128 0x13
 4515 005e 00       		.byte	0
 4516 005f 00       		.byte	0
 4517 0060 09       		.uleb128 0x9
 4518 0061 21       		.uleb128 0x21
 4519 0062 00       		.byte	0
 4520 0063 49       		.uleb128 0x49
 4521 0064 13       		.uleb128 0x13
 4522 0065 2F       		.uleb128 0x2f
 4523 0066 0B       		.uleb128 0xb
 4524 0067 00       		.byte	0
 4525 0068 00       		.byte	0
 4526 0069 0A       		.uleb128 0xa
 4527 006a 13       		.uleb128 0x13
 4528 006b 01       		.byte	0x1
 4529 006c 0B       		.uleb128 0xb
 4530 006d 0B       		.uleb128 0xb
 4531 006e 3A       		.uleb128 0x3a
 4532 006f 0B       		.uleb128 0xb
 4533 0070 3B       		.uleb128 0x3b
 4534 0071 0B       		.uleb128 0xb
 4535 0072 01       		.uleb128 0x1
 4536 0073 13       		.uleb128 0x13
 4537 0074 00       		.byte	0
 4538 0075 00       		.byte	0
 4539 0076 0B       		.uleb128 0xb
 4540 0077 0D       		.uleb128 0xd
 4541 0078 00       		.byte	0
 4542 0079 03       		.uleb128 0x3
 4543 007a 08       		.uleb128 0x8
 4544 007b 3A       		.uleb128 0x3a
 4545 007c 0B       		.uleb128 0xb
 4546 007d 3B       		.uleb128 0x3b
 4547 007e 0B       		.uleb128 0xb
 4548 007f 49       		.uleb128 0x49
 4549 0080 13       		.uleb128 0x13
 4550 0081 38       		.uleb128 0x38
 4551 0082 0A       		.uleb128 0xa
 4552 0083 00       		.byte	0
 4553 0084 00       		.byte	0
 4554 0085 0C       		.uleb128 0xc
 4555 0086 0D       		.uleb128 0xd
 4556 0087 00       		.byte	0
 4557 0088 03       		.uleb128 0x3
 4558 0089 0E       		.uleb128 0xe
 4559 008a 3A       		.uleb128 0x3a
 4560 008b 0B       		.uleb128 0xb
 4561 008c 3B       		.uleb128 0x3b
 4562 008d 0B       		.uleb128 0xb
 4563 008e 49       		.uleb128 0x49
 4564 008f 13       		.uleb128 0x13
 4565 0090 38       		.uleb128 0x38
 4566 0091 0A       		.uleb128 0xa
 4567 0092 00       		.byte	0
 4568 0093 00       		.byte	0
 4569 0094 0D       		.uleb128 0xd
ARM GAS  C:\Users\EBANO_~1\AppData\Local\Temp\cc4h82Al.s 			page 101


 4570 0095 16       		.uleb128 0x16
 4571 0096 00       		.byte	0
 4572 0097 03       		.uleb128 0x3
 4573 0098 0E       		.uleb128 0xe
 4574 0099 3A       		.uleb128 0x3a
 4575 009a 0B       		.uleb128 0xb
 4576 009b 3B       		.uleb128 0x3b
 4577 009c 05       		.uleb128 0x5
 4578 009d 49       		.uleb128 0x49
 4579 009e 13       		.uleb128 0x13
 4580 009f 00       		.byte	0
 4581 00a0 00       		.byte	0
 4582 00a1 0E       		.uleb128 0xe
 4583 00a2 13       		.uleb128 0x13
 4584 00a3 01       		.byte	0x1
 4585 00a4 0B       		.uleb128 0xb
 4586 00a5 0B       		.uleb128 0xb
 4587 00a6 3A       		.uleb128 0x3a
 4588 00a7 0B       		.uleb128 0xb
 4589 00a8 3B       		.uleb128 0x3b
 4590 00a9 05       		.uleb128 0x5
 4591 00aa 01       		.uleb128 0x1
 4592 00ab 13       		.uleb128 0x13
 4593 00ac 00       		.byte	0
 4594 00ad 00       		.byte	0
 4595 00ae 0F       		.uleb128 0xf
 4596 00af 0D       		.uleb128 0xd
 4597 00b0 00       		.byte	0
 4598 00b1 03       		.uleb128 0x3
 4599 00b2 08       		.uleb128 0x8
 4600 00b3 3A       		.uleb128 0x3a
 4601 00b4 0B       		.uleb128 0xb
 4602 00b5 3B       		.uleb128 0x3b
 4603 00b6 05       		.uleb128 0x5
 4604 00b7 49       		.uleb128 0x49
 4605 00b8 13       		.uleb128 0x13
 4606 00b9 38       		.uleb128 0x38
 4607 00ba 0A       		.uleb128 0xa
 4608 00bb 00       		.byte	0
 4609 00bc 00       		.byte	0
 4610 00bd 10       		.uleb128 0x10
 4611 00be 0D       		.uleb128 0xd
 4612 00bf 00       		.byte	0
 4613 00c0 03       		.uleb128 0x3
 4614 00c1 0E       		.uleb128 0xe
 4615 00c2 3A       		.uleb128 0x3a
 4616 00c3 0B       		.uleb128 0xb
 4617 00c4 3B       		.uleb128 0x3b
 4618 00c5 05       		.uleb128 0x5
 4619 00c6 49       		.uleb128 0x49
 4620 00c7 13       		.uleb128 0x13
 4621 00c8 38       		.uleb128 0x38
 4622 00c9 0A       		.uleb128 0xa
 4623 00ca 00       		.byte	0
 4624 00cb 00       		.byte	0
 4625 00cc 11       		.uleb128 0x11
 4626 00cd 04       		.uleb128 0x4
ARM GAS  C:\Users\EBANO_~1\AppData\Local\Temp\cc4h82Al.s 			page 102


 4627 00ce 01       		.byte	0x1
 4628 00cf 3E       		.uleb128 0x3e
 4629 00d0 0B       		.uleb128 0xb
 4630 00d1 0B       		.uleb128 0xb
 4631 00d2 0B       		.uleb128 0xb
 4632 00d3 49       		.uleb128 0x49
 4633 00d4 13       		.uleb128 0x13
 4634 00d5 3A       		.uleb128 0x3a
 4635 00d6 0B       		.uleb128 0xb
 4636 00d7 3B       		.uleb128 0x3b
 4637 00d8 0B       		.uleb128 0xb
 4638 00d9 01       		.uleb128 0x1
 4639 00da 13       		.uleb128 0x13
 4640 00db 00       		.byte	0
 4641 00dc 00       		.byte	0
 4642 00dd 12       		.uleb128 0x12
 4643 00de 28       		.uleb128 0x28
 4644 00df 00       		.byte	0
 4645 00e0 03       		.uleb128 0x3
 4646 00e1 0E       		.uleb128 0xe
 4647 00e2 1C       		.uleb128 0x1c
 4648 00e3 0B       		.uleb128 0xb
 4649 00e4 00       		.byte	0
 4650 00e5 00       		.byte	0
 4651 00e6 13       		.uleb128 0x13
 4652 00e7 28       		.uleb128 0x28
 4653 00e8 00       		.byte	0
 4654 00e9 03       		.uleb128 0x3
 4655 00ea 08       		.uleb128 0x8
 4656 00eb 1C       		.uleb128 0x1c
 4657 00ec 0B       		.uleb128 0xb
 4658 00ed 00       		.byte	0
 4659 00ee 00       		.byte	0
 4660 00ef 14       		.uleb128 0x14
 4661 00f0 0F       		.uleb128 0xf
 4662 00f1 00       		.byte	0
 4663 00f2 0B       		.uleb128 0xb
 4664 00f3 0B       		.uleb128 0xb
 4665 00f4 00       		.byte	0
 4666 00f5 00       		.byte	0
 4667 00f6 15       		.uleb128 0x15
 4668 00f7 0F       		.uleb128 0xf
 4669 00f8 00       		.byte	0
 4670 00f9 0B       		.uleb128 0xb
 4671 00fa 0B       		.uleb128 0xb
 4672 00fb 49       		.uleb128 0x49
 4673 00fc 13       		.uleb128 0x13
 4674 00fd 00       		.byte	0
 4675 00fe 00       		.byte	0
 4676 00ff 16       		.uleb128 0x16
 4677 0100 13       		.uleb128 0x13
 4678 0101 00       		.byte	0
 4679 0102 03       		.uleb128 0x3
 4680 0103 0E       		.uleb128 0xe
 4681 0104 3C       		.uleb128 0x3c
 4682 0105 0C       		.uleb128 0xc
 4683 0106 00       		.byte	0
ARM GAS  C:\Users\EBANO_~1\AppData\Local\Temp\cc4h82Al.s 			page 103


 4684 0107 00       		.byte	0
 4685 0108 17       		.uleb128 0x17
 4686 0109 17       		.uleb128 0x17
 4687 010a 01       		.byte	0x1
 4688 010b 0B       		.uleb128 0xb
 4689 010c 0B       		.uleb128 0xb
 4690 010d 3A       		.uleb128 0x3a
 4691 010e 0B       		.uleb128 0xb
 4692 010f 3B       		.uleb128 0x3b
 4693 0110 0B       		.uleb128 0xb
 4694 0111 01       		.uleb128 0x1
 4695 0112 13       		.uleb128 0x13
 4696 0113 00       		.byte	0
 4697 0114 00       		.byte	0
 4698 0115 18       		.uleb128 0x18
 4699 0116 0D       		.uleb128 0xd
 4700 0117 00       		.byte	0
 4701 0118 03       		.uleb128 0x3
 4702 0119 0E       		.uleb128 0xe
 4703 011a 3A       		.uleb128 0x3a
 4704 011b 0B       		.uleb128 0xb
 4705 011c 3B       		.uleb128 0x3b
 4706 011d 0B       		.uleb128 0xb
 4707 011e 49       		.uleb128 0x49
 4708 011f 13       		.uleb128 0x13
 4709 0120 00       		.byte	0
 4710 0121 00       		.byte	0
 4711 0122 19       		.uleb128 0x19
 4712 0123 13       		.uleb128 0x13
 4713 0124 01       		.byte	0x1
 4714 0125 03       		.uleb128 0x3
 4715 0126 0E       		.uleb128 0xe
 4716 0127 0B       		.uleb128 0xb
 4717 0128 0B       		.uleb128 0xb
 4718 0129 3A       		.uleb128 0x3a
 4719 012a 0B       		.uleb128 0xb
 4720 012b 3B       		.uleb128 0x3b
 4721 012c 0B       		.uleb128 0xb
 4722 012d 01       		.uleb128 0x1
 4723 012e 13       		.uleb128 0x13
 4724 012f 00       		.byte	0
 4725 0130 00       		.byte	0
 4726 0131 1A       		.uleb128 0x1a
 4727 0132 13       		.uleb128 0x13
 4728 0133 01       		.byte	0x1
 4729 0134 03       		.uleb128 0x3
 4730 0135 0E       		.uleb128 0xe
 4731 0136 0B       		.uleb128 0xb
 4732 0137 05       		.uleb128 0x5
 4733 0138 3A       		.uleb128 0x3a
 4734 0139 0B       		.uleb128 0xb
 4735 013a 3B       		.uleb128 0x3b
 4736 013b 0B       		.uleb128 0xb
 4737 013c 01       		.uleb128 0x1
 4738 013d 13       		.uleb128 0x13
 4739 013e 00       		.byte	0
 4740 013f 00       		.byte	0
ARM GAS  C:\Users\EBANO_~1\AppData\Local\Temp\cc4h82Al.s 			page 104


 4741 0140 1B       		.uleb128 0x1b
 4742 0141 15       		.uleb128 0x15
 4743 0142 00       		.byte	0
 4744 0143 27       		.uleb128 0x27
 4745 0144 0C       		.uleb128 0xc
 4746 0145 00       		.byte	0
 4747 0146 00       		.byte	0
 4748 0147 1C       		.uleb128 0x1c
 4749 0148 15       		.uleb128 0x15
 4750 0149 01       		.byte	0x1
 4751 014a 27       		.uleb128 0x27
 4752 014b 0C       		.uleb128 0xc
 4753 014c 49       		.uleb128 0x49
 4754 014d 13       		.uleb128 0x13
 4755 014e 01       		.uleb128 0x1
 4756 014f 13       		.uleb128 0x13
 4757 0150 00       		.byte	0
 4758 0151 00       		.byte	0
 4759 0152 1D       		.uleb128 0x1d
 4760 0153 05       		.uleb128 0x5
 4761 0154 00       		.byte	0
 4762 0155 49       		.uleb128 0x49
 4763 0156 13       		.uleb128 0x13
 4764 0157 00       		.byte	0
 4765 0158 00       		.byte	0
 4766 0159 1E       		.uleb128 0x1e
 4767 015a 13       		.uleb128 0x13
 4768 015b 01       		.byte	0x1
 4769 015c 03       		.uleb128 0x3
 4770 015d 0E       		.uleb128 0xe
 4771 015e 0B       		.uleb128 0xb
 4772 015f 05       		.uleb128 0x5
 4773 0160 3A       		.uleb128 0x3a
 4774 0161 0B       		.uleb128 0xb
 4775 0162 3B       		.uleb128 0x3b
 4776 0163 05       		.uleb128 0x5
 4777 0164 01       		.uleb128 0x1
 4778 0165 13       		.uleb128 0x13
 4779 0166 00       		.byte	0
 4780 0167 00       		.byte	0
 4781 0168 1F       		.uleb128 0x1f
 4782 0169 13       		.uleb128 0x13
 4783 016a 01       		.byte	0x1
 4784 016b 03       		.uleb128 0x3
 4785 016c 0E       		.uleb128 0xe
 4786 016d 0B       		.uleb128 0xb
 4787 016e 0B       		.uleb128 0xb
 4788 016f 3A       		.uleb128 0x3a
 4789 0170 0B       		.uleb128 0xb
 4790 0171 3B       		.uleb128 0x3b
 4791 0172 05       		.uleb128 0x5
 4792 0173 01       		.uleb128 0x1
 4793 0174 13       		.uleb128 0x13
 4794 0175 00       		.byte	0
 4795 0176 00       		.byte	0
 4796 0177 20       		.uleb128 0x20
 4797 0178 17       		.uleb128 0x17
ARM GAS  C:\Users\EBANO_~1\AppData\Local\Temp\cc4h82Al.s 			page 105


 4798 0179 01       		.byte	0x1
 4799 017a 0B       		.uleb128 0xb
 4800 017b 0B       		.uleb128 0xb
 4801 017c 3A       		.uleb128 0x3a
 4802 017d 0B       		.uleb128 0xb
 4803 017e 3B       		.uleb128 0x3b
 4804 017f 05       		.uleb128 0x5
 4805 0180 01       		.uleb128 0x1
 4806 0181 13       		.uleb128 0x13
 4807 0182 00       		.byte	0
 4808 0183 00       		.byte	0
 4809 0184 21       		.uleb128 0x21
 4810 0185 0D       		.uleb128 0xd
 4811 0186 00       		.byte	0
 4812 0187 03       		.uleb128 0x3
 4813 0188 0E       		.uleb128 0xe
 4814 0189 3A       		.uleb128 0x3a
 4815 018a 0B       		.uleb128 0xb
 4816 018b 3B       		.uleb128 0x3b
 4817 018c 05       		.uleb128 0x5
 4818 018d 49       		.uleb128 0x49
 4819 018e 13       		.uleb128 0x13
 4820 018f 00       		.byte	0
 4821 0190 00       		.byte	0
 4822 0191 22       		.uleb128 0x22
 4823 0192 15       		.uleb128 0x15
 4824 0193 01       		.byte	0x1
 4825 0194 27       		.uleb128 0x27
 4826 0195 0C       		.uleb128 0xc
 4827 0196 01       		.uleb128 0x1
 4828 0197 13       		.uleb128 0x13
 4829 0198 00       		.byte	0
 4830 0199 00       		.byte	0
 4831 019a 23       		.uleb128 0x23
 4832 019b 34       		.uleb128 0x34
 4833 019c 00       		.byte	0
 4834 019d 03       		.uleb128 0x3
 4835 019e 0E       		.uleb128 0xe
 4836 019f 3A       		.uleb128 0x3a
 4837 01a0 0B       		.uleb128 0xb
 4838 01a1 3B       		.uleb128 0x3b
 4839 01a2 05       		.uleb128 0x5
 4840 01a3 49       		.uleb128 0x49
 4841 01a4 13       		.uleb128 0x13
 4842 01a5 3F       		.uleb128 0x3f
 4843 01a6 0C       		.uleb128 0xc
 4844 01a7 3C       		.uleb128 0x3c
 4845 01a8 0C       		.uleb128 0xc
 4846 01a9 00       		.byte	0
 4847 01aa 00       		.byte	0
 4848 01ab 24       		.uleb128 0x24
 4849 01ac 2E       		.uleb128 0x2e
 4850 01ad 01       		.byte	0x1
 4851 01ae 03       		.uleb128 0x3
 4852 01af 0E       		.uleb128 0xe
 4853 01b0 3A       		.uleb128 0x3a
 4854 01b1 0B       		.uleb128 0xb
ARM GAS  C:\Users\EBANO_~1\AppData\Local\Temp\cc4h82Al.s 			page 106


 4855 01b2 3B       		.uleb128 0x3b
 4856 01b3 05       		.uleb128 0x5
 4857 01b4 27       		.uleb128 0x27
 4858 01b5 0C       		.uleb128 0xc
 4859 01b6 20       		.uleb128 0x20
 4860 01b7 0B       		.uleb128 0xb
 4861 01b8 01       		.uleb128 0x1
 4862 01b9 13       		.uleb128 0x13
 4863 01ba 00       		.byte	0
 4864 01bb 00       		.byte	0
 4865 01bc 25       		.uleb128 0x25
 4866 01bd 05       		.uleb128 0x5
 4867 01be 00       		.byte	0
 4868 01bf 03       		.uleb128 0x3
 4869 01c0 0E       		.uleb128 0xe
 4870 01c1 3A       		.uleb128 0x3a
 4871 01c2 0B       		.uleb128 0xb
 4872 01c3 3B       		.uleb128 0x3b
 4873 01c4 05       		.uleb128 0x5
 4874 01c5 49       		.uleb128 0x49
 4875 01c6 13       		.uleb128 0x13
 4876 01c7 00       		.byte	0
 4877 01c8 00       		.byte	0
 4878 01c9 26       		.uleb128 0x26
 4879 01ca 2E       		.uleb128 0x2e
 4880 01cb 01       		.byte	0x1
 4881 01cc 3F       		.uleb128 0x3f
 4882 01cd 0C       		.uleb128 0xc
 4883 01ce 03       		.uleb128 0x3
 4884 01cf 0E       		.uleb128 0xe
 4885 01d0 3A       		.uleb128 0x3a
 4886 01d1 0B       		.uleb128 0xb
 4887 01d2 3B       		.uleb128 0x3b
 4888 01d3 05       		.uleb128 0x5
 4889 01d4 27       		.uleb128 0x27
 4890 01d5 0C       		.uleb128 0xc
 4891 01d6 49       		.uleb128 0x49
 4892 01d7 13       		.uleb128 0x13
 4893 01d8 11       		.uleb128 0x11
 4894 01d9 01       		.uleb128 0x1
 4895 01da 12       		.uleb128 0x12
 4896 01db 01       		.uleb128 0x1
 4897 01dc 40       		.uleb128 0x40
 4898 01dd 0A       		.uleb128 0xa
 4899 01de 9742     		.uleb128 0x2117
 4900 01e0 0C       		.uleb128 0xc
 4901 01e1 01       		.uleb128 0x1
 4902 01e2 13       		.uleb128 0x13
 4903 01e3 00       		.byte	0
 4904 01e4 00       		.byte	0
 4905 01e5 27       		.uleb128 0x27
 4906 01e6 05       		.uleb128 0x5
 4907 01e7 00       		.byte	0
 4908 01e8 03       		.uleb128 0x3
 4909 01e9 0E       		.uleb128 0xe
 4910 01ea 3A       		.uleb128 0x3a
 4911 01eb 0B       		.uleb128 0xb
ARM GAS  C:\Users\EBANO_~1\AppData\Local\Temp\cc4h82Al.s 			page 107


 4912 01ec 3B       		.uleb128 0x3b
 4913 01ed 05       		.uleb128 0x5
 4914 01ee 49       		.uleb128 0x49
 4915 01ef 13       		.uleb128 0x13
 4916 01f0 02       		.uleb128 0x2
 4917 01f1 06       		.uleb128 0x6
 4918 01f2 00       		.byte	0
 4919 01f3 00       		.byte	0
 4920 01f4 28       		.uleb128 0x28
 4921 01f5 2E       		.uleb128 0x2e
 4922 01f6 01       		.byte	0x1
 4923 01f7 3F       		.uleb128 0x3f
 4924 01f8 0C       		.uleb128 0xc
 4925 01f9 03       		.uleb128 0x3
 4926 01fa 0E       		.uleb128 0xe
 4927 01fb 3A       		.uleb128 0x3a
 4928 01fc 0B       		.uleb128 0xb
 4929 01fd 3B       		.uleb128 0x3b
 4930 01fe 05       		.uleb128 0x5
 4931 01ff 27       		.uleb128 0x27
 4932 0200 0C       		.uleb128 0xc
 4933 0201 11       		.uleb128 0x11
 4934 0202 01       		.uleb128 0x1
 4935 0203 12       		.uleb128 0x12
 4936 0204 01       		.uleb128 0x1
 4937 0205 40       		.uleb128 0x40
 4938 0206 06       		.uleb128 0x6
 4939 0207 9742     		.uleb128 0x2117
 4940 0209 0C       		.uleb128 0xc
 4941 020a 01       		.uleb128 0x1
 4942 020b 13       		.uleb128 0x13
 4943 020c 00       		.byte	0
 4944 020d 00       		.byte	0
 4945 020e 29       		.uleb128 0x29
 4946 020f 898201   		.uleb128 0x4109
 4947 0212 01       		.byte	0x1
 4948 0213 11       		.uleb128 0x11
 4949 0214 01       		.uleb128 0x1
 4950 0215 01       		.uleb128 0x1
 4951 0216 13       		.uleb128 0x13
 4952 0217 00       		.byte	0
 4953 0218 00       		.byte	0
 4954 0219 2A       		.uleb128 0x2a
 4955 021a 8A8201   		.uleb128 0x410a
 4956 021d 00       		.byte	0
 4957 021e 02       		.uleb128 0x2
 4958 021f 0A       		.uleb128 0xa
 4959 0220 9142     		.uleb128 0x2111
 4960 0222 0A       		.uleb128 0xa
 4961 0223 00       		.byte	0
 4962 0224 00       		.byte	0
 4963 0225 2B       		.uleb128 0x2b
 4964 0226 898201   		.uleb128 0x4109
 4965 0229 01       		.byte	0x1
 4966 022a 11       		.uleb128 0x11
 4967 022b 01       		.uleb128 0x1
 4968 022c 00       		.byte	0
ARM GAS  C:\Users\EBANO_~1\AppData\Local\Temp\cc4h82Al.s 			page 108


 4969 022d 00       		.byte	0
 4970 022e 2C       		.uleb128 0x2c
 4971 022f 2E       		.uleb128 0x2e
 4972 0230 01       		.byte	0x1
 4973 0231 3F       		.uleb128 0x3f
 4974 0232 0C       		.uleb128 0xc
 4975 0233 03       		.uleb128 0x3
 4976 0234 0E       		.uleb128 0xe
 4977 0235 3A       		.uleb128 0x3a
 4978 0236 0B       		.uleb128 0xb
 4979 0237 3B       		.uleb128 0x3b
 4980 0238 05       		.uleb128 0x5
 4981 0239 27       		.uleb128 0x27
 4982 023a 0C       		.uleb128 0xc
 4983 023b 49       		.uleb128 0x49
 4984 023c 13       		.uleb128 0x13
 4985 023d 11       		.uleb128 0x11
 4986 023e 01       		.uleb128 0x1
 4987 023f 12       		.uleb128 0x12
 4988 0240 01       		.uleb128 0x1
 4989 0241 40       		.uleb128 0x40
 4990 0242 06       		.uleb128 0x6
 4991 0243 9742     		.uleb128 0x2117
 4992 0245 0C       		.uleb128 0xc
 4993 0246 01       		.uleb128 0x1
 4994 0247 13       		.uleb128 0x13
 4995 0248 00       		.byte	0
 4996 0249 00       		.byte	0
 4997 024a 2D       		.uleb128 0x2d
 4998 024b 34       		.uleb128 0x34
 4999 024c 00       		.byte	0
 5000 024d 03       		.uleb128 0x3
 5001 024e 0E       		.uleb128 0xe
 5002 024f 3A       		.uleb128 0x3a
 5003 0250 0B       		.uleb128 0xb
 5004 0251 3B       		.uleb128 0x3b
 5005 0252 05       		.uleb128 0x5
 5006 0253 49       		.uleb128 0x49
 5007 0254 13       		.uleb128 0x13
 5008 0255 02       		.uleb128 0x2
 5009 0256 06       		.uleb128 0x6
 5010 0257 00       		.byte	0
 5011 0258 00       		.byte	0
 5012 0259 2E       		.uleb128 0x2e
 5013 025a 898201   		.uleb128 0x4109
 5014 025d 00       		.byte	0
 5015 025e 11       		.uleb128 0x11
 5016 025f 01       		.uleb128 0x1
 5017 0260 31       		.uleb128 0x31
 5018 0261 13       		.uleb128 0x13
 5019 0262 00       		.byte	0
 5020 0263 00       		.byte	0
 5021 0264 2F       		.uleb128 0x2f
 5022 0265 05       		.uleb128 0x5
 5023 0266 00       		.byte	0
 5024 0267 03       		.uleb128 0x3
 5025 0268 0E       		.uleb128 0xe
ARM GAS  C:\Users\EBANO_~1\AppData\Local\Temp\cc4h82Al.s 			page 109


 5026 0269 3A       		.uleb128 0x3a
 5027 026a 0B       		.uleb128 0xb
 5028 026b 3B       		.uleb128 0x3b
 5029 026c 05       		.uleb128 0x5
 5030 026d 49       		.uleb128 0x49
 5031 026e 13       		.uleb128 0x13
 5032 026f 02       		.uleb128 0x2
 5033 0270 0A       		.uleb128 0xa
 5034 0271 00       		.byte	0
 5035 0272 00       		.byte	0
 5036 0273 30       		.uleb128 0x30
 5037 0274 1D       		.uleb128 0x1d
 5038 0275 01       		.byte	0x1
 5039 0276 31       		.uleb128 0x31
 5040 0277 13       		.uleb128 0x13
 5041 0278 52       		.uleb128 0x52
 5042 0279 01       		.uleb128 0x1
 5043 027a 55       		.uleb128 0x55
 5044 027b 06       		.uleb128 0x6
 5045 027c 58       		.uleb128 0x58
 5046 027d 0B       		.uleb128 0xb
 5047 027e 59       		.uleb128 0x59
 5048 027f 05       		.uleb128 0x5
 5049 0280 00       		.byte	0
 5050 0281 00       		.byte	0
 5051 0282 31       		.uleb128 0x31
 5052 0283 05       		.uleb128 0x5
 5053 0284 00       		.byte	0
 5054 0285 31       		.uleb128 0x31
 5055 0286 13       		.uleb128 0x13
 5056 0287 02       		.uleb128 0x2
 5057 0288 06       		.uleb128 0x6
 5058 0289 00       		.byte	0
 5059 028a 00       		.byte	0
 5060 028b 32       		.uleb128 0x32
 5061 028c 2E       		.uleb128 0x2e
 5062 028d 01       		.byte	0x1
 5063 028e 3F       		.uleb128 0x3f
 5064 028f 0C       		.uleb128 0xc
 5065 0290 03       		.uleb128 0x3
 5066 0291 0E       		.uleb128 0xe
 5067 0292 3A       		.uleb128 0x3a
 5068 0293 0B       		.uleb128 0xb
 5069 0294 3B       		.uleb128 0x3b
 5070 0295 0B       		.uleb128 0xb
 5071 0296 27       		.uleb128 0x27
 5072 0297 0C       		.uleb128 0xc
 5073 0298 49       		.uleb128 0x49
 5074 0299 13       		.uleb128 0x13
 5075 029a 11       		.uleb128 0x11
 5076 029b 01       		.uleb128 0x1
 5077 029c 12       		.uleb128 0x12
 5078 029d 01       		.uleb128 0x1
 5079 029e 40       		.uleb128 0x40
 5080 029f 06       		.uleb128 0x6
 5081 02a0 9742     		.uleb128 0x2117
 5082 02a2 0C       		.uleb128 0xc
ARM GAS  C:\Users\EBANO_~1\AppData\Local\Temp\cc4h82Al.s 			page 110


 5083 02a3 01       		.uleb128 0x1
 5084 02a4 13       		.uleb128 0x13
 5085 02a5 00       		.byte	0
 5086 02a6 00       		.byte	0
 5087 02a7 33       		.uleb128 0x33
 5088 02a8 05       		.uleb128 0x5
 5089 02a9 00       		.byte	0
 5090 02aa 03       		.uleb128 0x3
 5091 02ab 0E       		.uleb128 0xe
 5092 02ac 3A       		.uleb128 0x3a
 5093 02ad 0B       		.uleb128 0xb
 5094 02ae 3B       		.uleb128 0x3b
 5095 02af 0B       		.uleb128 0xb
 5096 02b0 49       		.uleb128 0x49
 5097 02b1 13       		.uleb128 0x13
 5098 02b2 02       		.uleb128 0x2
 5099 02b3 06       		.uleb128 0x6
 5100 02b4 00       		.byte	0
 5101 02b5 00       		.byte	0
 5102 02b6 34       		.uleb128 0x34
 5103 02b7 34       		.uleb128 0x34
 5104 02b8 00       		.byte	0
 5105 02b9 03       		.uleb128 0x3
 5106 02ba 08       		.uleb128 0x8
 5107 02bb 3A       		.uleb128 0x3a
 5108 02bc 0B       		.uleb128 0xb
 5109 02bd 3B       		.uleb128 0x3b
 5110 02be 0B       		.uleb128 0xb
 5111 02bf 49       		.uleb128 0x49
 5112 02c0 13       		.uleb128 0x13
 5113 02c1 02       		.uleb128 0x2
 5114 02c2 06       		.uleb128 0x6
 5115 02c3 00       		.byte	0
 5116 02c4 00       		.byte	0
 5117 02c5 35       		.uleb128 0x35
 5118 02c6 2E       		.uleb128 0x2e
 5119 02c7 00       		.byte	0
 5120 02c8 3F       		.uleb128 0x3f
 5121 02c9 0C       		.uleb128 0xc
 5122 02ca 3C       		.uleb128 0x3c
 5123 02cb 0C       		.uleb128 0xc
 5124 02cc 8740     		.uleb128 0x2007
 5125 02ce 0E       		.uleb128 0xe
 5126 02cf 03       		.uleb128 0x3
 5127 02d0 0E       		.uleb128 0xe
 5128 02d1 3A       		.uleb128 0x3a
 5129 02d2 0B       		.uleb128 0xb
 5130 02d3 3B       		.uleb128 0x3b
 5131 02d4 05       		.uleb128 0x5
 5132 02d5 00       		.byte	0
 5133 02d6 00       		.byte	0
 5134 02d7 00       		.byte	0
 5135              		.section	.debug_loc,"",%progbits
 5136              	.Ldebug_loc0:
 5137              	.LLST35:
 5138 0000 00000000 		.4byte	.LVL110
 5139 0004 02000000 		.4byte	.LVL111
ARM GAS  C:\Users\EBANO_~1\AppData\Local\Temp\cc4h82Al.s 			page 111


 5140 0008 0100     		.2byte	0x1
 5141 000a 50       		.byte	0x50
 5142 000b 02000000 		.4byte	.LVL111
 5143 000f 04000000 		.4byte	.LFE48
 5144 0013 0400     		.2byte	0x4
 5145 0015 F3       		.byte	0xf3
 5146 0016 01       		.uleb128 0x1
 5147 0017 50       		.byte	0x50
 5148 0018 9F       		.byte	0x9f
 5149 0019 00000000 		.4byte	0
 5150 001d 00000000 		.4byte	0
 5151              	.LLST34:
 5152 0021 00000000 		.4byte	.LVL108
 5153 0025 04000000 		.4byte	.LVL109
 5154 0029 0100     		.2byte	0x1
 5155 002b 50       		.byte	0x50
 5156 002c 04000000 		.4byte	.LVL109
 5157 0030 08000000 		.4byte	.LFE47
 5158 0034 0400     		.2byte	0x4
 5159 0036 F3       		.byte	0xf3
 5160 0037 01       		.uleb128 0x1
 5161 0038 50       		.byte	0x50
 5162 0039 9F       		.byte	0x9f
 5163 003a 00000000 		.4byte	0
 5164 003e 00000000 		.4byte	0
 5165              	.LLST32:
 5166 0042 00000000 		.4byte	.LFB46
 5167 0046 02000000 		.4byte	.LCFI8
 5168 004a 0200     		.2byte	0x2
 5169 004c 7D       		.byte	0x7d
 5170 004d 00       		.sleb128 0
 5171 004e 02000000 		.4byte	.LCFI8
 5172 0052 94020000 		.4byte	.LFE46
 5173 0056 0200     		.2byte	0x2
 5174 0058 7D       		.byte	0x7d
 5175 0059 08       		.sleb128 8
 5176 005a 00000000 		.4byte	0
 5177 005e 00000000 		.4byte	0
 5178              	.LLST33:
 5179 0062 00000000 		.4byte	.LVL101
 5180 0066 0C000000 		.4byte	.LVL102
 5181 006a 0100     		.2byte	0x1
 5182 006c 50       		.byte	0x50
 5183 006d 0C000000 		.4byte	.LVL102
 5184 0071 F8000000 		.4byte	.LVL105
 5185 0075 0100     		.2byte	0x1
 5186 0077 54       		.byte	0x54
 5187 0078 F8000000 		.4byte	.LVL105
 5188 007c FA000000 		.4byte	.LVL106
 5189 0080 0400     		.2byte	0x4
 5190 0082 F3       		.byte	0xf3
 5191 0083 01       		.uleb128 0x1
 5192 0084 50       		.byte	0x50
 5193 0085 9F       		.byte	0x9f
 5194 0086 FA000000 		.4byte	.LVL106
 5195 008a 94020000 		.4byte	.LFE46
 5196 008e 0100     		.2byte	0x1
ARM GAS  C:\Users\EBANO_~1\AppData\Local\Temp\cc4h82Al.s 			page 112


 5197 0090 54       		.byte	0x54
 5198 0091 00000000 		.4byte	0
 5199 0095 00000000 		.4byte	0
 5200              	.LLST26:
 5201 0099 00000000 		.4byte	.LFB45
 5202 009d 02000000 		.4byte	.LCFI5
 5203 00a1 0200     		.2byte	0x2
 5204 00a3 7D       		.byte	0x7d
 5205 00a4 00       		.sleb128 0
 5206 00a5 02000000 		.4byte	.LCFI5
 5207 00a9 0C000000 		.4byte	.LCFI6
 5208 00ad 0200     		.2byte	0x2
 5209 00af 7D       		.byte	0x7d
 5210 00b0 14       		.sleb128 20
 5211 00b1 0C000000 		.4byte	.LCFI6
 5212 00b5 0E000000 		.4byte	.LCFI7
 5213 00b9 0200     		.2byte	0x2
 5214 00bb 7D       		.byte	0x7d
 5215 00bc 24       		.sleb128 36
 5216 00bd 0E000000 		.4byte	.LCFI7
 5217 00c1 C4030000 		.4byte	.LFE45
 5218 00c5 0200     		.2byte	0x2
 5219 00c7 7D       		.byte	0x7d
 5220 00c8 30       		.sleb128 48
 5221 00c9 00000000 		.4byte	0
 5222 00cd 00000000 		.4byte	0
 5223              	.LLST27:
 5224 00d1 00000000 		.4byte	.LVL70
 5225 00d5 61000000 		.4byte	.LVL73-1
 5226 00d9 0100     		.2byte	0x1
 5227 00db 50       		.byte	0x50
 5228 00dc 61000000 		.4byte	.LVL73-1
 5229 00e0 F2000000 		.4byte	.LVL79
 5230 00e4 0100     		.2byte	0x1
 5231 00e6 55       		.byte	0x55
 5232 00e7 F2000000 		.4byte	.LVL79
 5233 00eb FE000000 		.4byte	.LVL80
 5234 00ef 0400     		.2byte	0x4
 5235 00f1 F3       		.byte	0xf3
 5236 00f2 01       		.uleb128 0x1
 5237 00f3 50       		.byte	0x50
 5238 00f4 9F       		.byte	0x9f
 5239 00f5 FE000000 		.4byte	.LVL80
 5240 00f9 52010000 		.4byte	.LVL82
 5241 00fd 0100     		.2byte	0x1
 5242 00ff 50       		.byte	0x50
 5243 0100 52010000 		.4byte	.LVL82
 5244 0104 60020000 		.4byte	.LVL88
 5245 0108 0100     		.2byte	0x1
 5246 010a 55       		.byte	0x55
 5247 010b 60020000 		.4byte	.LVL88
 5248 010f 68020000 		.4byte	.LVL89
 5249 0113 0100     		.2byte	0x1
 5250 0115 50       		.byte	0x50
 5251 0116 68020000 		.4byte	.LVL89
 5252 011a 14030000 		.4byte	.LVL91
 5253 011e 0100     		.2byte	0x1
ARM GAS  C:\Users\EBANO_~1\AppData\Local\Temp\cc4h82Al.s 			page 113


 5254 0120 55       		.byte	0x55
 5255 0121 14030000 		.4byte	.LVL91
 5256 0125 20030000 		.4byte	.LVL92
 5257 0129 0100     		.2byte	0x1
 5258 012b 50       		.byte	0x50
 5259 012c 20030000 		.4byte	.LVL92
 5260 0130 82030000 		.4byte	.LVL95
 5261 0134 0100     		.2byte	0x1
 5262 0136 55       		.byte	0x55
 5263 0137 82030000 		.4byte	.LVL95
 5264 013b 8E030000 		.4byte	.LVL96
 5265 013f 0100     		.2byte	0x1
 5266 0141 50       		.byte	0x50
 5267 0142 8E030000 		.4byte	.LVL96
 5268 0146 C4030000 		.4byte	.LFE45
 5269 014a 0100     		.2byte	0x1
 5270 014c 55       		.byte	0x55
 5271 014d 00000000 		.4byte	0
 5272 0151 00000000 		.4byte	0
 5273              	.LLST28:
 5274 0155 00000000 		.4byte	.LVL70
 5275 0159 61000000 		.4byte	.LVL73-1
 5276 015d 0100     		.2byte	0x1
 5277 015f 51       		.byte	0x51
 5278 0160 61000000 		.4byte	.LVL73-1
 5279 0164 FE000000 		.4byte	.LVL80
 5280 0168 0200     		.2byte	0x2
 5281 016a 91       		.byte	0x91
 5282 016b 54       		.sleb128 -44
 5283 016c FE000000 		.4byte	.LVL80
 5284 0170 52010000 		.4byte	.LVL82
 5285 0174 0100     		.2byte	0x1
 5286 0176 51       		.byte	0x51
 5287 0177 52010000 		.4byte	.LVL82
 5288 017b 60020000 		.4byte	.LVL88
 5289 017f 0200     		.2byte	0x2
 5290 0181 91       		.byte	0x91
 5291 0182 54       		.sleb128 -44
 5292 0183 60020000 		.4byte	.LVL88
 5293 0187 68020000 		.4byte	.LVL89
 5294 018b 0100     		.2byte	0x1
 5295 018d 51       		.byte	0x51
 5296 018e 68020000 		.4byte	.LVL89
 5297 0192 14030000 		.4byte	.LVL91
 5298 0196 0200     		.2byte	0x2
 5299 0198 91       		.byte	0x91
 5300 0199 54       		.sleb128 -44
 5301 019a 14030000 		.4byte	.LVL91
 5302 019e 20030000 		.4byte	.LVL92
 5303 01a2 0100     		.2byte	0x1
 5304 01a4 51       		.byte	0x51
 5305 01a5 20030000 		.4byte	.LVL92
 5306 01a9 82030000 		.4byte	.LVL95
 5307 01ad 0200     		.2byte	0x2
 5308 01af 91       		.byte	0x91
 5309 01b0 54       		.sleb128 -44
 5310 01b1 82030000 		.4byte	.LVL95
ARM GAS  C:\Users\EBANO_~1\AppData\Local\Temp\cc4h82Al.s 			page 114


 5311 01b5 8E030000 		.4byte	.LVL96
 5312 01b9 0100     		.2byte	0x1
 5313 01bb 51       		.byte	0x51
 5314 01bc 8E030000 		.4byte	.LVL96
 5315 01c0 C4030000 		.4byte	.LFE45
 5316 01c4 0200     		.2byte	0x2
 5317 01c6 91       		.byte	0x91
 5318 01c7 54       		.sleb128 -44
 5319 01c8 00000000 		.4byte	0
 5320 01cc 00000000 		.4byte	0
 5321              	.LLST29:
 5322 01d0 00000000 		.4byte	.LVL70
 5323 01d4 1E000000 		.4byte	.LVL71
 5324 01d8 0100     		.2byte	0x1
 5325 01da 52       		.byte	0x52
 5326 01db 1E000000 		.4byte	.LVL71
 5327 01df 9A000000 		.4byte	.LVL76
 5328 01e3 0100     		.2byte	0x1
 5329 01e5 56       		.byte	0x56
 5330 01e6 9A000000 		.4byte	.LVL76
 5331 01ea FE000000 		.4byte	.LVL80
 5332 01ee 0400     		.2byte	0x4
 5333 01f0 F3       		.byte	0xf3
 5334 01f1 01       		.uleb128 0x1
 5335 01f2 52       		.byte	0x52
 5336 01f3 9F       		.byte	0x9f
 5337 01f4 FE000000 		.4byte	.LVL80
 5338 01f8 00010000 		.4byte	.LVL81
 5339 01fc 0100     		.2byte	0x1
 5340 01fe 52       		.byte	0x52
 5341 01ff 00010000 		.4byte	.LVL81
 5342 0203 7A010000 		.4byte	.LVL83
 5343 0207 0100     		.2byte	0x1
 5344 0209 56       		.byte	0x56
 5345 020a 7A010000 		.4byte	.LVL83
 5346 020e D0010000 		.4byte	.LVL84
 5347 0212 0400     		.2byte	0x4
 5348 0214 F3       		.byte	0xf3
 5349 0215 01       		.uleb128 0x1
 5350 0216 52       		.byte	0x52
 5351 0217 9F       		.byte	0x9f
 5352 0218 D0010000 		.4byte	.LVL84
 5353 021c EC010000 		.4byte	.LVL85
 5354 0220 0100     		.2byte	0x1
 5355 0222 56       		.byte	0x56
 5356 0223 EC010000 		.4byte	.LVL85
 5357 0227 F6010000 		.4byte	.LVL86
 5358 022b 0400     		.2byte	0x4
 5359 022d F3       		.byte	0xf3
 5360 022e 01       		.uleb128 0x1
 5361 022f 52       		.byte	0x52
 5362 0230 9F       		.byte	0x9f
 5363 0231 F6010000 		.4byte	.LVL86
 5364 0235 24020000 		.4byte	.LVL87
 5365 0239 0100     		.2byte	0x1
 5366 023b 56       		.byte	0x56
 5367 023c 24020000 		.4byte	.LVL87
ARM GAS  C:\Users\EBANO_~1\AppData\Local\Temp\cc4h82Al.s 			page 115


 5368 0240 60020000 		.4byte	.LVL88
 5369 0244 0400     		.2byte	0x4
 5370 0246 F3       		.byte	0xf3
 5371 0247 01       		.uleb128 0x1
 5372 0248 52       		.byte	0x52
 5373 0249 9F       		.byte	0x9f
 5374 024a 60020000 		.4byte	.LVL88
 5375 024e 20030000 		.4byte	.LVL92
 5376 0252 0100     		.2byte	0x1
 5377 0254 56       		.byte	0x56
 5378 0255 20030000 		.4byte	.LVL92
 5379 0259 5E030000 		.4byte	.LVL93
 5380 025d 0400     		.2byte	0x4
 5381 025f F3       		.byte	0xf3
 5382 0260 01       		.uleb128 0x1
 5383 0261 52       		.byte	0x52
 5384 0262 9F       		.byte	0x9f
 5385 0263 5E030000 		.4byte	.LVL93
 5386 0267 7C030000 		.4byte	.LVL94
 5387 026b 0100     		.2byte	0x1
 5388 026d 56       		.byte	0x56
 5389 026e 7C030000 		.4byte	.LVL94
 5390 0272 82030000 		.4byte	.LVL95
 5391 0276 0400     		.2byte	0x4
 5392 0278 F3       		.byte	0xf3
 5393 0279 01       		.uleb128 0x1
 5394 027a 52       		.byte	0x52
 5395 027b 9F       		.byte	0x9f
 5396 027c 82030000 		.4byte	.LVL95
 5397 0280 96030000 		.4byte	.LVL97
 5398 0284 0100     		.2byte	0x1
 5399 0286 56       		.byte	0x56
 5400 0287 96030000 		.4byte	.LVL97
 5401 028b 9C030000 		.4byte	.LVL98
 5402 028f 0400     		.2byte	0x4
 5403 0291 F3       		.byte	0xf3
 5404 0292 01       		.uleb128 0x1
 5405 0293 52       		.byte	0x52
 5406 0294 9F       		.byte	0x9f
 5407 0295 9C030000 		.4byte	.LVL98
 5408 0299 A8030000 		.4byte	.LVL99
 5409 029d 0100     		.2byte	0x1
 5410 029f 56       		.byte	0x56
 5411 02a0 A8030000 		.4byte	.LVL99
 5412 02a4 B4030000 		.4byte	.LVL100
 5413 02a8 0400     		.2byte	0x4
 5414 02aa F3       		.byte	0xf3
 5415 02ab 01       		.uleb128 0x1
 5416 02ac 52       		.byte	0x52
 5417 02ad 9F       		.byte	0x9f
 5418 02ae B4030000 		.4byte	.LVL100
 5419 02b2 C4030000 		.4byte	.LFE45
 5420 02b6 0100     		.2byte	0x1
 5421 02b8 56       		.byte	0x56
 5422 02b9 00000000 		.4byte	0
 5423 02bd 00000000 		.4byte	0
 5424              	.LLST30:
ARM GAS  C:\Users\EBANO_~1\AppData\Local\Temp\cc4h82Al.s 			page 116


 5425 02c1 5E000000 		.4byte	.LVL72
 5426 02c5 F2000000 		.4byte	.LVL78
 5427 02c9 0100     		.2byte	0x1
 5428 02cb 54       		.byte	0x54
 5429 02cc 52010000 		.4byte	.LVL82
 5430 02d0 60020000 		.4byte	.LVL88
 5431 02d4 0100     		.2byte	0x1
 5432 02d6 54       		.byte	0x54
 5433 02d7 68020000 		.4byte	.LVL89
 5434 02db 14030000 		.4byte	.LVL91
 5435 02df 0100     		.2byte	0x1
 5436 02e1 54       		.byte	0x54
 5437 02e2 20030000 		.4byte	.LVL92
 5438 02e6 82030000 		.4byte	.LVL95
 5439 02ea 0100     		.2byte	0x1
 5440 02ec 54       		.byte	0x54
 5441 02ed 8E030000 		.4byte	.LVL96
 5442 02f1 C4030000 		.4byte	.LFE45
 5443 02f5 0100     		.2byte	0x1
 5444 02f7 54       		.byte	0x54
 5445 02f8 00000000 		.4byte	0
 5446 02fc 00000000 		.4byte	0
 5447              	.LLST31:
 5448 0300 00000000 		.4byte	.LVL70
 5449 0304 66000000 		.4byte	.LVL74
 5450 0308 0200     		.2byte	0x2
 5451 030a 30       		.byte	0x30
 5452 030b 9F       		.byte	0x9f
 5453 030c 66000000 		.4byte	.LVL74
 5454 0310 72000000 		.4byte	.LVL75
 5455 0314 0100     		.2byte	0x1
 5456 0316 50       		.byte	0x50
 5457 0317 72000000 		.4byte	.LVL75
 5458 031b A8000000 		.4byte	.LVL77
 5459 031f 0100     		.2byte	0x1
 5460 0321 59       		.byte	0x59
 5461 0322 FE000000 		.4byte	.LVL80
 5462 0326 52010000 		.4byte	.LVL82
 5463 032a 0200     		.2byte	0x2
 5464 032c 30       		.byte	0x30
 5465 032d 9F       		.byte	0x9f
 5466 032e 52010000 		.4byte	.LVL82
 5467 0332 7A010000 		.4byte	.LVL83
 5468 0336 0100     		.2byte	0x1
 5469 0338 59       		.byte	0x59
 5470 0339 D0010000 		.4byte	.LVL84
 5471 033d EC010000 		.4byte	.LVL85
 5472 0341 0100     		.2byte	0x1
 5473 0343 59       		.byte	0x59
 5474 0344 F6010000 		.4byte	.LVL86
 5475 0348 24020000 		.4byte	.LVL87
 5476 034c 0100     		.2byte	0x1
 5477 034e 59       		.byte	0x59
 5478 034f 60020000 		.4byte	.LVL88
 5479 0353 68020000 		.4byte	.LVL89
 5480 0357 0200     		.2byte	0x2
 5481 0359 30       		.byte	0x30
ARM GAS  C:\Users\EBANO_~1\AppData\Local\Temp\cc4h82Al.s 			page 117


 5482 035a 9F       		.byte	0x9f
 5483 035b 68020000 		.4byte	.LVL89
 5484 035f 14030000 		.4byte	.LVL91
 5485 0363 0100     		.2byte	0x1
 5486 0365 59       		.byte	0x59
 5487 0366 14030000 		.4byte	.LVL91
 5488 036a 20030000 		.4byte	.LVL92
 5489 036e 0200     		.2byte	0x2
 5490 0370 30       		.byte	0x30
 5491 0371 9F       		.byte	0x9f
 5492 0372 5E030000 		.4byte	.LVL93
 5493 0376 7C030000 		.4byte	.LVL94
 5494 037a 0100     		.2byte	0x1
 5495 037c 59       		.byte	0x59
 5496 037d 82030000 		.4byte	.LVL95
 5497 0381 8E030000 		.4byte	.LVL96
 5498 0385 0200     		.2byte	0x2
 5499 0387 30       		.byte	0x30
 5500 0388 9F       		.byte	0x9f
 5501 0389 8E030000 		.4byte	.LVL96
 5502 038d 96030000 		.4byte	.LVL97
 5503 0391 0100     		.2byte	0x1
 5504 0393 59       		.byte	0x59
 5505 0394 9C030000 		.4byte	.LVL98
 5506 0398 A8030000 		.4byte	.LVL99
 5507 039c 0100     		.2byte	0x1
 5508 039e 59       		.byte	0x59
 5509 039f B4030000 		.4byte	.LVL100
 5510 03a3 C4030000 		.4byte	.LFE45
 5511 03a7 0100     		.2byte	0x1
 5512 03a9 59       		.byte	0x59
 5513 03aa 00000000 		.4byte	0
 5514 03ae 00000000 		.4byte	0
 5515              	.LLST23:
 5516 03b2 00000000 		.4byte	.LFB44
 5517 03b6 04000000 		.4byte	.LCFI4
 5518 03ba 0200     		.2byte	0x2
 5519 03bc 7D       		.byte	0x7d
 5520 03bd 00       		.sleb128 0
 5521 03be 04000000 		.4byte	.LCFI4
 5522 03c2 B4000000 		.4byte	.LFE44
 5523 03c6 0200     		.2byte	0x2
 5524 03c8 7D       		.byte	0x7d
 5525 03c9 08       		.sleb128 8
 5526 03ca 00000000 		.4byte	0
 5527 03ce 00000000 		.4byte	0
 5528              	.LLST24:
 5529 03d2 00000000 		.4byte	.LVL63
 5530 03d6 10000000 		.4byte	.LVL65
 5531 03da 0100     		.2byte	0x1
 5532 03dc 50       		.byte	0x50
 5533 03dd 10000000 		.4byte	.LVL65
 5534 03e1 12000000 		.4byte	.LVL66
 5535 03e5 0400     		.2byte	0x4
 5536 03e7 F3       		.byte	0xf3
 5537 03e8 01       		.uleb128 0x1
 5538 03e9 50       		.byte	0x50
ARM GAS  C:\Users\EBANO_~1\AppData\Local\Temp\cc4h82Al.s 			page 118


 5539 03ea 9F       		.byte	0x9f
 5540 03eb 12000000 		.4byte	.LVL66
 5541 03ef 71000000 		.4byte	.LVL67-1
 5542 03f3 0100     		.2byte	0x1
 5543 03f5 50       		.byte	0x50
 5544 03f6 71000000 		.4byte	.LVL67-1
 5545 03fa 76000000 		.4byte	.LVL68
 5546 03fe 0400     		.2byte	0x4
 5547 0400 F3       		.byte	0xf3
 5548 0401 01       		.uleb128 0x1
 5549 0402 50       		.byte	0x50
 5550 0403 9F       		.byte	0x9f
 5551 0404 76000000 		.4byte	.LVL68
 5552 0408 92000000 		.4byte	.LVL69
 5553 040c 0100     		.2byte	0x1
 5554 040e 50       		.byte	0x50
 5555 040f 92000000 		.4byte	.LVL69
 5556 0413 B4000000 		.4byte	.LFE44
 5557 0417 0400     		.2byte	0x4
 5558 0419 F3       		.byte	0xf3
 5559 041a 01       		.uleb128 0x1
 5560 041b 50       		.byte	0x50
 5561 041c 9F       		.byte	0x9f
 5562 041d 00000000 		.4byte	0
 5563 0421 00000000 		.4byte	0
 5564              	.LLST25:
 5565 0425 00000000 		.4byte	.LVL63
 5566 0429 0E000000 		.4byte	.LVL64
 5567 042d 0200     		.2byte	0x2
 5568 042f 30       		.byte	0x30
 5569 0430 9F       		.byte	0x9f
 5570 0431 0E000000 		.4byte	.LVL64
 5571 0435 10000000 		.4byte	.LVL65
 5572 0439 0200     		.2byte	0x2
 5573 043b 31       		.byte	0x31
 5574 043c 9F       		.byte	0x9f
 5575 043d 10000000 		.4byte	.LVL65
 5576 0441 12000000 		.4byte	.LVL66
 5577 0445 0100     		.2byte	0x1
 5578 0447 50       		.byte	0x50
 5579 0448 12000000 		.4byte	.LVL66
 5580 044c B4000000 		.4byte	.LFE44
 5581 0450 0200     		.2byte	0x2
 5582 0452 30       		.byte	0x30
 5583 0453 9F       		.byte	0x9f
 5584 0454 00000000 		.4byte	0
 5585 0458 00000000 		.4byte	0
 5586              	.LLST20:
 5587 045c 00000000 		.4byte	.LFB43
 5588 0460 06000000 		.4byte	.LCFI3
 5589 0464 0200     		.2byte	0x2
 5590 0466 7D       		.byte	0x7d
 5591 0467 00       		.sleb128 0
 5592 0468 06000000 		.4byte	.LCFI3
 5593 046c 52000000 		.4byte	.LFE43
 5594 0470 0200     		.2byte	0x2
 5595 0472 7D       		.byte	0x7d
ARM GAS  C:\Users\EBANO_~1\AppData\Local\Temp\cc4h82Al.s 			page 119


 5596 0473 18       		.sleb128 24
 5597 0474 00000000 		.4byte	0
 5598 0478 00000000 		.4byte	0
 5599              	.LLST21:
 5600 047c 00000000 		.4byte	.LVL55
 5601 0480 11000000 		.4byte	.LVL56-1
 5602 0484 0100     		.2byte	0x1
 5603 0486 50       		.byte	0x50
 5604 0487 11000000 		.4byte	.LVL56-1
 5605 048b 38000000 		.4byte	.LVL60
 5606 048f 0100     		.2byte	0x1
 5607 0491 54       		.byte	0x54
 5608 0492 38000000 		.4byte	.LVL60
 5609 0496 3A000000 		.4byte	.LVL62
 5610 049a 0400     		.2byte	0x4
 5611 049c F3       		.byte	0xf3
 5612 049d 01       		.uleb128 0x1
 5613 049e 50       		.byte	0x50
 5614 049f 9F       		.byte	0x9f
 5615 04a0 3A000000 		.4byte	.LVL62
 5616 04a4 52000000 		.4byte	.LFE43
 5617 04a8 0100     		.2byte	0x1
 5618 04aa 54       		.byte	0x54
 5619 04ab 00000000 		.4byte	0
 5620 04af 00000000 		.4byte	0
 5621              	.LLST22:
 5622 04b3 00000000 		.4byte	.LVL55
 5623 04b7 16000000 		.4byte	.LVL57
 5624 04bb 0200     		.2byte	0x2
 5625 04bd 30       		.byte	0x30
 5626 04be 9F       		.byte	0x9f
 5627 04bf 16000000 		.4byte	.LVL57
 5628 04c3 1C000000 		.4byte	.LVL58
 5629 04c7 0100     		.2byte	0x1
 5630 04c9 50       		.byte	0x50
 5631 04ca 1C000000 		.4byte	.LVL58
 5632 04ce 38000000 		.4byte	.LVL61
 5633 04d2 0100     		.2byte	0x1
 5634 04d4 57       		.byte	0x57
 5635 04d5 3A000000 		.4byte	.LVL62
 5636 04d9 52000000 		.4byte	.LFE43
 5637 04dd 0100     		.2byte	0x1
 5638 04df 57       		.byte	0x57
 5639 04e0 00000000 		.4byte	0
 5640 04e4 00000000 		.4byte	0
 5641              	.LLST12:
 5642 04e8 00000000 		.4byte	.LFB42
 5643 04ec 02000000 		.4byte	.LCFI2
 5644 04f0 0200     		.2byte	0x2
 5645 04f2 7D       		.byte	0x7d
 5646 04f3 00       		.sleb128 0
 5647 04f4 02000000 		.4byte	.LCFI2
 5648 04f8 56000000 		.4byte	.LFE42
 5649 04fc 0200     		.2byte	0x2
 5650 04fe 7D       		.byte	0x7d
 5651 04ff 10       		.sleb128 16
 5652 0500 00000000 		.4byte	0
ARM GAS  C:\Users\EBANO_~1\AppData\Local\Temp\cc4h82Al.s 			page 120


 5653 0504 00000000 		.4byte	0
 5654              	.LLST13:
 5655 0508 00000000 		.4byte	.LVL44
 5656 050c 2C000000 		.4byte	.LVL50
 5657 0510 0100     		.2byte	0x1
 5658 0512 50       		.byte	0x50
 5659 0513 2C000000 		.4byte	.LVL50
 5660 0517 4C000000 		.4byte	.LVL51
 5661 051b 0400     		.2byte	0x4
 5662 051d F3       		.byte	0xf3
 5663 051e 01       		.uleb128 0x1
 5664 051f 50       		.byte	0x50
 5665 0520 9F       		.byte	0x9f
 5666 0521 4C000000 		.4byte	.LVL51
 5667 0525 54000000 		.4byte	.LVL54
 5668 0529 0100     		.2byte	0x1
 5669 052b 50       		.byte	0x50
 5670 052c 54000000 		.4byte	.LVL54
 5671 0530 56000000 		.4byte	.LFE42
 5672 0534 0400     		.2byte	0x4
 5673 0536 F3       		.byte	0xf3
 5674 0537 01       		.uleb128 0x1
 5675 0538 50       		.byte	0x50
 5676 0539 9F       		.byte	0x9f
 5677 053a 00000000 		.4byte	0
 5678 053e 00000000 		.4byte	0
 5679              	.LLST14:
 5680 0542 00000000 		.4byte	.LVL44
 5681 0546 2A000000 		.4byte	.LVL49
 5682 054a 0100     		.2byte	0x1
 5683 054c 52       		.byte	0x52
 5684 054d 2A000000 		.4byte	.LVL49
 5685 0551 4C000000 		.4byte	.LVL51
 5686 0555 0400     		.2byte	0x4
 5687 0557 F3       		.byte	0xf3
 5688 0558 01       		.uleb128 0x1
 5689 0559 52       		.byte	0x52
 5690 055a 9F       		.byte	0x9f
 5691 055b 4C000000 		.4byte	.LVL51
 5692 055f 56000000 		.4byte	.LFE42
 5693 0563 0100     		.2byte	0x1
 5694 0565 52       		.byte	0x52
 5695 0566 00000000 		.4byte	0
 5696 056a 00000000 		.4byte	0
 5697              	.LLST15:
 5698 056e 00000000 		.4byte	.LVL44
 5699 0572 20000000 		.4byte	.LVL46
 5700 0576 0100     		.2byte	0x1
 5701 0578 53       		.byte	0x53
 5702 0579 20000000 		.4byte	.LVL46
 5703 057d 26000000 		.4byte	.LVL47
 5704 0581 0200     		.2byte	0x2
 5705 0583 74       		.byte	0x74
 5706 0584 04       		.sleb128 4
 5707 0585 26000000 		.4byte	.LVL47
 5708 0589 4C000000 		.4byte	.LVL51
 5709 058d 0400     		.2byte	0x4
ARM GAS  C:\Users\EBANO_~1\AppData\Local\Temp\cc4h82Al.s 			page 121


 5710 058f F3       		.byte	0xf3
 5711 0590 01       		.uleb128 0x1
 5712 0591 53       		.byte	0x53
 5713 0592 9F       		.byte	0x9f
 5714 0593 4C000000 		.4byte	.LVL51
 5715 0597 4E000000 		.4byte	.LVL52
 5716 059b 0200     		.2byte	0x2
 5717 059d 74       		.byte	0x74
 5718 059e 04       		.sleb128 4
 5719 059f 4E000000 		.4byte	.LVL52
 5720 05a3 52000000 		.4byte	.LVL53
 5721 05a7 0400     		.2byte	0x4
 5722 05a9 F3       		.byte	0xf3
 5723 05aa 01       		.uleb128 0x1
 5724 05ab 53       		.byte	0x53
 5725 05ac 9F       		.byte	0x9f
 5726 05ad 52000000 		.4byte	.LVL53
 5727 05b1 56000000 		.4byte	.LFE42
 5728 05b5 0100     		.2byte	0x1
 5729 05b7 53       		.byte	0x53
 5730 05b8 00000000 		.4byte	0
 5731 05bc 00000000 		.4byte	0
 5732              	.LLST16:
 5733 05c0 1C000000 		.4byte	.LVL45
 5734 05c4 20000000 		.4byte	.LVL46
 5735 05c8 0100     		.2byte	0x1
 5736 05ca 53       		.byte	0x53
 5737 05cb 20000000 		.4byte	.LVL46
 5738 05cf 26000000 		.4byte	.LVL47
 5739 05d3 0200     		.2byte	0x2
 5740 05d5 74       		.byte	0x74
 5741 05d6 04       		.sleb128 4
 5742 05d7 26000000 		.4byte	.LVL47
 5743 05db 28000000 		.4byte	.LVL48
 5744 05df 0400     		.2byte	0x4
 5745 05e1 F3       		.byte	0xf3
 5746 05e2 01       		.uleb128 0x1
 5747 05e3 53       		.byte	0x53
 5748 05e4 9F       		.byte	0x9f
 5749 05e5 4C000000 		.4byte	.LVL51
 5750 05e9 4E000000 		.4byte	.LVL52
 5751 05ed 0200     		.2byte	0x2
 5752 05ef 74       		.byte	0x74
 5753 05f0 04       		.sleb128 4
 5754 05f1 4E000000 		.4byte	.LVL52
 5755 05f5 52000000 		.4byte	.LVL53
 5756 05f9 0400     		.2byte	0x4
 5757 05fb F3       		.byte	0xf3
 5758 05fc 01       		.uleb128 0x1
 5759 05fd 53       		.byte	0x53
 5760 05fe 9F       		.byte	0x9f
 5761 05ff 00000000 		.4byte	0
 5762 0603 00000000 		.4byte	0
 5763              	.LLST17:
 5764 0607 1C000000 		.4byte	.LVL45
 5765 060b 28000000 		.4byte	.LVL48
 5766 060f 0100     		.2byte	0x1
ARM GAS  C:\Users\EBANO_~1\AppData\Local\Temp\cc4h82Al.s 			page 122


 5767 0611 52       		.byte	0x52
 5768 0612 4C000000 		.4byte	.LVL51
 5769 0616 52000000 		.4byte	.LVL53
 5770 061a 0100     		.2byte	0x1
 5771 061c 52       		.byte	0x52
 5772 061d 00000000 		.4byte	0
 5773 0621 00000000 		.4byte	0
 5774              	.LLST18:
 5775 0625 1C000000 		.4byte	.LVL45
 5776 0629 28000000 		.4byte	.LVL48
 5777 062d 0100     		.2byte	0x1
 5778 062f 51       		.byte	0x51
 5779 0630 4C000000 		.4byte	.LVL51
 5780 0634 52000000 		.4byte	.LVL53
 5781 0638 0100     		.2byte	0x1
 5782 063a 51       		.byte	0x51
 5783 063b 00000000 		.4byte	0
 5784 063f 00000000 		.4byte	0
 5785              	.LLST19:
 5786 0643 1C000000 		.4byte	.LVL45
 5787 0647 28000000 		.4byte	.LVL48
 5788 064b 0100     		.2byte	0x1
 5789 064d 50       		.byte	0x50
 5790 064e 4C000000 		.4byte	.LVL51
 5791 0652 52000000 		.4byte	.LVL53
 5792 0656 0100     		.2byte	0x1
 5793 0658 50       		.byte	0x50
 5794 0659 00000000 		.4byte	0
 5795 065d 00000000 		.4byte	0
 5796              	.LLST4:
 5797 0661 00000000 		.4byte	.LFB41
 5798 0665 02000000 		.4byte	.LCFI1
 5799 0669 0200     		.2byte	0x2
 5800 066b 7D       		.byte	0x7d
 5801 066c 00       		.sleb128 0
 5802 066d 02000000 		.4byte	.LCFI1
 5803 0671 3E000000 		.4byte	.LFE41
 5804 0675 0200     		.2byte	0x2
 5805 0677 7D       		.byte	0x7d
 5806 0678 10       		.sleb128 16
 5807 0679 00000000 		.4byte	0
 5808 067d 00000000 		.4byte	0
 5809              	.LLST5:
 5810 0681 00000000 		.4byte	.LVL33
 5811 0685 2C000000 		.4byte	.LVL39
 5812 0689 0100     		.2byte	0x1
 5813 068b 50       		.byte	0x50
 5814 068c 2C000000 		.4byte	.LVL39
 5815 0690 34000000 		.4byte	.LVL40
 5816 0694 0400     		.2byte	0x4
 5817 0696 F3       		.byte	0xf3
 5818 0697 01       		.uleb128 0x1
 5819 0698 50       		.byte	0x50
 5820 0699 9F       		.byte	0x9f
 5821 069a 34000000 		.4byte	.LVL40
 5822 069e 3C000000 		.4byte	.LVL43
 5823 06a2 0100     		.2byte	0x1
ARM GAS  C:\Users\EBANO_~1\AppData\Local\Temp\cc4h82Al.s 			page 123


 5824 06a4 50       		.byte	0x50
 5825 06a5 3C000000 		.4byte	.LVL43
 5826 06a9 3E000000 		.4byte	.LFE41
 5827 06ad 0400     		.2byte	0x4
 5828 06af F3       		.byte	0xf3
 5829 06b0 01       		.uleb128 0x1
 5830 06b1 50       		.byte	0x50
 5831 06b2 9F       		.byte	0x9f
 5832 06b3 00000000 		.4byte	0
 5833 06b7 00000000 		.4byte	0
 5834              	.LLST6:
 5835 06bb 00000000 		.4byte	.LVL33
 5836 06bf 2A000000 		.4byte	.LVL38
 5837 06c3 0100     		.2byte	0x1
 5838 06c5 52       		.byte	0x52
 5839 06c6 2A000000 		.4byte	.LVL38
 5840 06ca 34000000 		.4byte	.LVL40
 5841 06ce 0400     		.2byte	0x4
 5842 06d0 F3       		.byte	0xf3
 5843 06d1 01       		.uleb128 0x1
 5844 06d2 52       		.byte	0x52
 5845 06d3 9F       		.byte	0x9f
 5846 06d4 34000000 		.4byte	.LVL40
 5847 06d8 3E000000 		.4byte	.LFE41
 5848 06dc 0100     		.2byte	0x1
 5849 06de 52       		.byte	0x52
 5850 06df 00000000 		.4byte	0
 5851 06e3 00000000 		.4byte	0
 5852              	.LLST7:
 5853 06e7 00000000 		.4byte	.LVL33
 5854 06eb 20000000 		.4byte	.LVL35
 5855 06ef 0100     		.2byte	0x1
 5856 06f1 53       		.byte	0x53
 5857 06f2 20000000 		.4byte	.LVL35
 5858 06f6 26000000 		.4byte	.LVL36
 5859 06fa 0200     		.2byte	0x2
 5860 06fc 74       		.byte	0x74
 5861 06fd 04       		.sleb128 4
 5862 06fe 26000000 		.4byte	.LVL36
 5863 0702 34000000 		.4byte	.LVL40
 5864 0706 0400     		.2byte	0x4
 5865 0708 F3       		.byte	0xf3
 5866 0709 01       		.uleb128 0x1
 5867 070a 53       		.byte	0x53
 5868 070b 9F       		.byte	0x9f
 5869 070c 34000000 		.4byte	.LVL40
 5870 0710 36000000 		.4byte	.LVL41
 5871 0714 0200     		.2byte	0x2
 5872 0716 74       		.byte	0x74
 5873 0717 04       		.sleb128 4
 5874 0718 36000000 		.4byte	.LVL41
 5875 071c 3A000000 		.4byte	.LVL42
 5876 0720 0400     		.2byte	0x4
 5877 0722 F3       		.byte	0xf3
 5878 0723 01       		.uleb128 0x1
 5879 0724 53       		.byte	0x53
 5880 0725 9F       		.byte	0x9f
ARM GAS  C:\Users\EBANO_~1\AppData\Local\Temp\cc4h82Al.s 			page 124


 5881 0726 3A000000 		.4byte	.LVL42
 5882 072a 3E000000 		.4byte	.LFE41
 5883 072e 0100     		.2byte	0x1
 5884 0730 53       		.byte	0x53
 5885 0731 00000000 		.4byte	0
 5886 0735 00000000 		.4byte	0
 5887              	.LLST8:
 5888 0739 1C000000 		.4byte	.LVL34
 5889 073d 20000000 		.4byte	.LVL35
 5890 0741 0100     		.2byte	0x1
 5891 0743 53       		.byte	0x53
 5892 0744 20000000 		.4byte	.LVL35
 5893 0748 26000000 		.4byte	.LVL36
 5894 074c 0200     		.2byte	0x2
 5895 074e 74       		.byte	0x74
 5896 074f 04       		.sleb128 4
 5897 0750 26000000 		.4byte	.LVL36
 5898 0754 28000000 		.4byte	.LVL37
 5899 0758 0400     		.2byte	0x4
 5900 075a F3       		.byte	0xf3
 5901 075b 01       		.uleb128 0x1
 5902 075c 53       		.byte	0x53
 5903 075d 9F       		.byte	0x9f
 5904 075e 34000000 		.4byte	.LVL40
 5905 0762 36000000 		.4byte	.LVL41
 5906 0766 0200     		.2byte	0x2
 5907 0768 74       		.byte	0x74
 5908 0769 04       		.sleb128 4
 5909 076a 36000000 		.4byte	.LVL41
 5910 076e 3A000000 		.4byte	.LVL42
 5911 0772 0400     		.2byte	0x4
 5912 0774 F3       		.byte	0xf3
 5913 0775 01       		.uleb128 0x1
 5914 0776 53       		.byte	0x53
 5915 0777 9F       		.byte	0x9f
 5916 0778 00000000 		.4byte	0
 5917 077c 00000000 		.4byte	0
 5918              	.LLST9:
 5919 0780 1C000000 		.4byte	.LVL34
 5920 0784 28000000 		.4byte	.LVL37
 5921 0788 0100     		.2byte	0x1
 5922 078a 52       		.byte	0x52
 5923 078b 34000000 		.4byte	.LVL40
 5924 078f 3A000000 		.4byte	.LVL42
 5925 0793 0100     		.2byte	0x1
 5926 0795 52       		.byte	0x52
 5927 0796 00000000 		.4byte	0
 5928 079a 00000000 		.4byte	0
 5929              	.LLST10:
 5930 079e 1C000000 		.4byte	.LVL34
 5931 07a2 28000000 		.4byte	.LVL37
 5932 07a6 0100     		.2byte	0x1
 5933 07a8 51       		.byte	0x51
 5934 07a9 34000000 		.4byte	.LVL40
 5935 07ad 3A000000 		.4byte	.LVL42
 5936 07b1 0100     		.2byte	0x1
 5937 07b3 51       		.byte	0x51
ARM GAS  C:\Users\EBANO_~1\AppData\Local\Temp\cc4h82Al.s 			page 125


 5938 07b4 00000000 		.4byte	0
 5939 07b8 00000000 		.4byte	0
 5940              	.LLST11:
 5941 07bc 1C000000 		.4byte	.LVL34
 5942 07c0 28000000 		.4byte	.LVL37
 5943 07c4 0100     		.2byte	0x1
 5944 07c6 50       		.byte	0x50
 5945 07c7 34000000 		.4byte	.LVL40
 5946 07cb 3A000000 		.4byte	.LVL42
 5947 07cf 0100     		.2byte	0x1
 5948 07d1 50       		.byte	0x50
 5949 07d2 00000000 		.4byte	0
 5950 07d6 00000000 		.4byte	0
 5951              	.LLST3:
 5952 07da 00000000 		.4byte	.LVL28
 5953 07de 74000000 		.4byte	.LVL29
 5954 07e2 0100     		.2byte	0x1
 5955 07e4 50       		.byte	0x50
 5956 07e5 74000000 		.4byte	.LVL29
 5957 07e9 76000000 		.4byte	.LVL30
 5958 07ed 0400     		.2byte	0x4
 5959 07ef F3       		.byte	0xf3
 5960 07f0 01       		.uleb128 0x1
 5961 07f1 50       		.byte	0x50
 5962 07f2 9F       		.byte	0x9f
 5963 07f3 76000000 		.4byte	.LVL30
 5964 07f7 9E000000 		.4byte	.LVL31
 5965 07fb 0100     		.2byte	0x1
 5966 07fd 50       		.byte	0x50
 5967 07fe 9E000000 		.4byte	.LVL31
 5968 0802 A0000000 		.4byte	.LVL32
 5969 0806 0400     		.2byte	0x4
 5970 0808 F3       		.byte	0xf3
 5971 0809 01       		.uleb128 0x1
 5972 080a 50       		.byte	0x50
 5973 080b 9F       		.byte	0x9f
 5974 080c A0000000 		.4byte	.LVL32
 5975 0810 8C010000 		.4byte	.LFE40
 5976 0814 0100     		.2byte	0x1
 5977 0816 50       		.byte	0x50
 5978 0817 00000000 		.4byte	0
 5979 081b 00000000 		.4byte	0
 5980              	.LLST0:
 5981 081f 00000000 		.4byte	.LFB39
 5982 0823 02000000 		.4byte	.LCFI0
 5983 0827 0200     		.2byte	0x2
 5984 0829 7D       		.byte	0x7d
 5985 082a 00       		.sleb128 0
 5986 082b 02000000 		.4byte	.LCFI0
 5987 082f 48010000 		.4byte	.LFE39
 5988 0833 0200     		.2byte	0x2
 5989 0835 7D       		.byte	0x7d
 5990 0836 08       		.sleb128 8
 5991 0837 00000000 		.4byte	0
 5992 083b 00000000 		.4byte	0
 5993              	.LLST1:
 5994 083f 00000000 		.4byte	.LVL0
ARM GAS  C:\Users\EBANO_~1\AppData\Local\Temp\cc4h82Al.s 			page 126


 5995 0843 84000000 		.4byte	.LVL8
 5996 0847 0100     		.2byte	0x1
 5997 0849 50       		.byte	0x50
 5998 084a 84000000 		.4byte	.LVL8
 5999 084e 86000000 		.4byte	.LVL9
 6000 0852 0400     		.2byte	0x4
 6001 0854 F3       		.byte	0xf3
 6002 0855 01       		.uleb128 0x1
 6003 0856 50       		.byte	0x50
 6004 0857 9F       		.byte	0x9f
 6005 0858 86000000 		.4byte	.LVL9
 6006 085c A0000000 		.4byte	.LVL12
 6007 0860 0100     		.2byte	0x1
 6008 0862 50       		.byte	0x50
 6009 0863 A0000000 		.4byte	.LVL12
 6010 0867 A2000000 		.4byte	.LVL13
 6011 086b 0400     		.2byte	0x4
 6012 086d F3       		.byte	0xf3
 6013 086e 01       		.uleb128 0x1
 6014 086f 50       		.byte	0x50
 6015 0870 9F       		.byte	0x9f
 6016 0871 A2000000 		.4byte	.LVL13
 6017 0875 48010000 		.4byte	.LFE39
 6018 0879 0100     		.2byte	0x1
 6019 087b 50       		.byte	0x50
 6020 087c 00000000 		.4byte	0
 6021 0880 00000000 		.4byte	0
 6022              	.LLST2:
 6023 0884 00000000 		.4byte	.LVL0
 6024 0888 1C000000 		.4byte	.LVL1
 6025 088c 0200     		.2byte	0x2
 6026 088e 30       		.byte	0x30
 6027 088f 9F       		.byte	0x9f
 6028 0890 1C000000 		.4byte	.LVL1
 6029 0894 20000000 		.4byte	.LVL2
 6030 0898 0100     		.2byte	0x1
 6031 089a 53       		.byte	0x53
 6032 089b 20000000 		.4byte	.LVL2
 6033 089f 3A000000 		.4byte	.LVL3
 6034 08a3 0100     		.2byte	0x1
 6035 08a5 51       		.byte	0x51
 6036 08a6 3A000000 		.4byte	.LVL3
 6037 08aa 3E000000 		.4byte	.LVL4
 6038 08ae 0100     		.2byte	0x1
 6039 08b0 53       		.byte	0x53
 6040 08b1 3E000000 		.4byte	.LVL4
 6041 08b5 68000000 		.4byte	.LVL5
 6042 08b9 0200     		.2byte	0x2
 6043 08bb 72       		.byte	0x72
 6044 08bc 00       		.sleb128 0
 6045 08bd 68000000 		.4byte	.LVL5
 6046 08c1 70000000 		.4byte	.LVL6
 6047 08c5 0300     		.2byte	0x3
 6048 08c7 70       		.byte	0x70
 6049 08c8 00       		.sleb128 0
 6050 08c9 06       		.byte	0x6
 6051 08ca 7C000000 		.4byte	.LVL7
ARM GAS  C:\Users\EBANO_~1\AppData\Local\Temp\cc4h82Al.s 			page 127


 6052 08ce 84000000 		.4byte	.LVL8
 6053 08d2 0200     		.2byte	0x2
 6054 08d4 30       		.byte	0x30
 6055 08d5 9F       		.byte	0x9f
 6056 08d6 86000000 		.4byte	.LVL9
 6057 08da 8C000000 		.4byte	.LVL10
 6058 08de 0200     		.2byte	0x2
 6059 08e0 72       		.byte	0x72
 6060 08e1 00       		.sleb128 0
 6061 08e2 8C000000 		.4byte	.LVL10
 6062 08e6 90000000 		.4byte	.LVL11
 6063 08ea 0300     		.2byte	0x3
 6064 08ec 70       		.byte	0x70
 6065 08ed 00       		.sleb128 0
 6066 08ee 06       		.byte	0x6
 6067 08ef A2000000 		.4byte	.LVL13
 6068 08f3 A6000000 		.4byte	.LVL14
 6069 08f7 0200     		.2byte	0x2
 6070 08f9 72       		.byte	0x72
 6071 08fa 00       		.sleb128 0
 6072 08fb A6000000 		.4byte	.LVL14
 6073 08ff AC000000 		.4byte	.LVL15
 6074 0903 0300     		.2byte	0x3
 6075 0905 70       		.byte	0x70
 6076 0906 00       		.sleb128 0
 6077 0907 06       		.byte	0x6
 6078 0908 B8000000 		.4byte	.LVL16
 6079 090c BA000000 		.4byte	.LVL17
 6080 0910 0200     		.2byte	0x2
 6081 0912 72       		.byte	0x72
 6082 0913 00       		.sleb128 0
 6083 0914 BA000000 		.4byte	.LVL17
 6084 0918 C2000000 		.4byte	.LVL18
 6085 091c 0300     		.2byte	0x3
 6086 091e 70       		.byte	0x70
 6087 091f 00       		.sleb128 0
 6088 0920 06       		.byte	0x6
 6089 0921 CE000000 		.4byte	.LVL19
 6090 0925 D0000000 		.4byte	.LVL20
 6091 0929 0200     		.2byte	0x2
 6092 092b 72       		.byte	0x72
 6093 092c 00       		.sleb128 0
 6094 092d D0000000 		.4byte	.LVL20
 6095 0931 D8000000 		.4byte	.LVL21
 6096 0935 0300     		.2byte	0x3
 6097 0937 70       		.byte	0x70
 6098 0938 00       		.sleb128 0
 6099 0939 06       		.byte	0x6
 6100 093a E4000000 		.4byte	.LVL22
 6101 093e E6000000 		.4byte	.LVL23
 6102 0942 0200     		.2byte	0x2
 6103 0944 72       		.byte	0x72
 6104 0945 00       		.sleb128 0
 6105 0946 E6000000 		.4byte	.LVL23
 6106 094a EE000000 		.4byte	.LVL24
 6107 094e 0300     		.2byte	0x3
 6108 0950 70       		.byte	0x70
ARM GAS  C:\Users\EBANO_~1\AppData\Local\Temp\cc4h82Al.s 			page 128


 6109 0951 00       		.sleb128 0
 6110 0952 06       		.byte	0x6
 6111 0953 FA000000 		.4byte	.LVL25
 6112 0957 FC000000 		.4byte	.LVL26
 6113 095b 0200     		.2byte	0x2
 6114 095d 72       		.byte	0x72
 6115 095e 00       		.sleb128 0
 6116 095f FC000000 		.4byte	.LVL26
 6117 0963 04010000 		.4byte	.LVL27
 6118 0967 0300     		.2byte	0x3
 6119 0969 70       		.byte	0x70
 6120 096a 00       		.sleb128 0
 6121 096b 06       		.byte	0x6
 6122 096c 00000000 		.4byte	0
 6123 0970 00000000 		.4byte	0
 6124              		.section	.debug_aranges,"",%progbits
 6125 0000 64000000 		.4byte	0x64
 6126 0004 0200     		.2byte	0x2
 6127 0006 00000000 		.4byte	.Ldebug_info0
 6128 000a 04       		.byte	0x4
 6129 000b 00       		.byte	0
 6130 000c 0000     		.2byte	0
 6131 000e 0000     		.2byte	0
 6132 0010 00000000 		.4byte	.LFB39
 6133 0014 48010000 		.4byte	.LFE39-.LFB39
 6134 0018 00000000 		.4byte	.LFB40
 6135 001c 8C010000 		.4byte	.LFE40-.LFB40
 6136 0020 00000000 		.4byte	.LFB41
 6137 0024 3E000000 		.4byte	.LFE41-.LFB41
 6138 0028 00000000 		.4byte	.LFB42
 6139 002c 56000000 		.4byte	.LFE42-.LFB42
 6140 0030 00000000 		.4byte	.LFB43
 6141 0034 52000000 		.4byte	.LFE43-.LFB43
 6142 0038 00000000 		.4byte	.LFB44
 6143 003c B4000000 		.4byte	.LFE44-.LFB44
 6144 0040 00000000 		.4byte	.LFB45
 6145 0044 C4030000 		.4byte	.LFE45-.LFB45
 6146 0048 00000000 		.4byte	.LFB46
 6147 004c 94020000 		.4byte	.LFE46-.LFB46
 6148 0050 00000000 		.4byte	.LFB47
 6149 0054 08000000 		.4byte	.LFE47-.LFB47
 6150 0058 00000000 		.4byte	.LFB48
 6151 005c 04000000 		.4byte	.LFE48-.LFB48
 6152 0060 00000000 		.4byte	0
 6153 0064 00000000 		.4byte	0
 6154              		.section	.debug_ranges,"",%progbits
 6155              	.Ldebug_ranges0:
 6156 0000 1C000000 		.4byte	.LBB6
 6157 0004 28000000 		.4byte	.LBE6
 6158 0008 34000000 		.4byte	.LBB9
 6159 000c 3A000000 		.4byte	.LBE9
 6160 0010 00000000 		.4byte	0
 6161 0014 00000000 		.4byte	0
 6162 0018 1C000000 		.4byte	.LBB10
 6163 001c 28000000 		.4byte	.LBE10
 6164 0020 4C000000 		.4byte	.LBB13
 6165 0024 52000000 		.4byte	.LBE13
ARM GAS  C:\Users\EBANO_~1\AppData\Local\Temp\cc4h82Al.s 			page 129


 6166 0028 00000000 		.4byte	0
 6167 002c 00000000 		.4byte	0
 6168 0030 00000000 		.4byte	.LFB39
 6169 0034 48010000 		.4byte	.LFE39
 6170 0038 00000000 		.4byte	.LFB40
 6171 003c 8C010000 		.4byte	.LFE40
 6172 0040 00000000 		.4byte	.LFB41
 6173 0044 3E000000 		.4byte	.LFE41
 6174 0048 00000000 		.4byte	.LFB42
 6175 004c 56000000 		.4byte	.LFE42
 6176 0050 00000000 		.4byte	.LFB43
 6177 0054 52000000 		.4byte	.LFE43
 6178 0058 00000000 		.4byte	.LFB44
 6179 005c B4000000 		.4byte	.LFE44
 6180 0060 00000000 		.4byte	.LFB45
 6181 0064 C4030000 		.4byte	.LFE45
 6182 0068 00000000 		.4byte	.LFB46
 6183 006c 94020000 		.4byte	.LFE46
 6184 0070 00000000 		.4byte	.LFB47
 6185 0074 08000000 		.4byte	.LFE47
 6186 0078 00000000 		.4byte	.LFB48
 6187 007c 04000000 		.4byte	.LFE48
 6188 0080 00000000 		.4byte	0
 6189 0084 00000000 		.4byte	0
 6190              		.section	.debug_line,"",%progbits
 6191              	.Ldebug_line0:
 6192 0000 18070000 		.section	.debug_str,"MS",%progbits,1
 6192      0200AA02 
 6192      00000201 
 6192      FB0E0D00 
 6192      01010101 
 6193              	.LASF55:
 6194 0000 5F64736F 		.ascii	"_dso_handle\000"
 6194      5F68616E 
 6194      646C6500 
 6195              	.LASF198:
 6196 000c 48414C5F 		.ascii	"HAL_DMA_IRQHandler\000"
 6196      444D415F 
 6196      49525148 
 6196      616E646C 
 6196      657200
 6197              	.LASF2:
 6198 001f 73686F72 		.ascii	"short int\000"
 6198      7420696E 
 6198      7400
 6199              	.LASF168:
 6200 0029 53746174 		.ascii	"State\000"
 6200      6500
 6201              	.LASF177:
 6202 002f 53726341 		.ascii	"SrcAddress\000"
 6202      64647265 
 6202      737300
 6203              	.LASF54:
 6204 003a 5F666E61 		.ascii	"_fnargs\000"
 6204      72677300 
 6205              	.LASF179:
 6206 0042 44617461 		.ascii	"DataLength\000"
ARM GAS  C:\Users\EBANO_~1\AppData\Local\Temp\cc4h82Al.s 			page 130


 6206      4C656E67 
 6206      746800
 6207              	.LASF108:
 6208 004d 5F72616E 		.ascii	"_rand48\000"
 6208      64343800 
 6209              	.LASF154:
 6210 0055 444D415F 		.ascii	"DMA_InitTypeDef\000"
 6210      496E6974 
 6210      54797065 
 6210      44656600 
 6211              	.LASF87:
 6212 0065 5F656D65 		.ascii	"_emergency\000"
 6212      7267656E 
 6212      637900
 6213              	.LASF5:
 6214 0070 5F5F7569 		.ascii	"__uint8_t\000"
 6214      6E74385F 
 6214      7400
 6215              	.LASF187:
 6216 007a 48414C5F 		.ascii	"HAL_DMA_Abort_IT\000"
 6216      444D415F 
 6216      41626F72 
 6216      745F4954 
 6216      00
 6217              	.LASF140:
 6218 008b 48414C5F 		.ascii	"HAL_BUSY\000"
 6218      42555359 
 6218      00
 6219              	.LASF99:
 6220 0094 5F617465 		.ascii	"_atexit0\000"
 6220      78697430 
 6220      00
 6221              	.LASF157:
 6222 009d 48414C5F 		.ascii	"HAL_DMA_STATE_BUSY\000"
 6222      444D415F 
 6222      53544154 
 6222      455F4255 
 6222      535900
 6223              	.LASF128:
 6224 00b0 5F776372 		.ascii	"_wcrtomb_state\000"
 6224      746F6D62 
 6224      5F737461 
 6224      746500
 6225              	.LASF129:
 6226 00bf 5F776373 		.ascii	"_wcsrtombs_state\000"
 6226      72746F6D 
 6226      62735F73 
 6226      74617465 
 6226      00
 6227              	.LASF9:
 6228 00d0 6C6F6E67 		.ascii	"long long unsigned int\000"
 6228      206C6F6E 
 6228      6720756E 
 6228      7369676E 
 6228      65642069 
 6229              	.LASF67:
 6230 00e7 5F6C6266 		.ascii	"_lbfsize\000"
ARM GAS  C:\Users\EBANO_~1\AppData\Local\Temp\cc4h82Al.s 			page 131


 6230      73697A65 
 6230      00
 6231              	.LASF23:
 6232 00f0 4353454C 		.ascii	"CSELR\000"
 6232      5200
 6233              	.LASF135:
 6234 00f6 5F5F6C6F 		.ascii	"__locale_t\000"
 6234      63616C65 
 6234      5F7400
 6235              	.LASF155:
 6236 0101 48414C5F 		.ascii	"HAL_DMA_STATE_RESET\000"
 6236      444D415F 
 6236      53544154 
 6236      455F5245 
 6236      53455400 
 6237              	.LASF126:
 6238 0115 5F6D6272 		.ascii	"_mbrtowc_state\000"
 6238      746F7763 
 6238      5F737461 
 6238      746500
 6239              	.LASF192:
 6240 0124 48414C5F 		.ascii	"HAL_DMA_DeInit\000"
 6240      444D415F 
 6240      4465496E 
 6240      697400
 6241              	.LASF44:
 6242 0133 5F5F746D 		.ascii	"__tm_sec\000"
 6242      5F736563 
 6242      00
 6243              	.LASF181:
 6244 013c 48414C5F 		.ascii	"HAL_DMA_GetState\000"
 6244      444D415F 
 6244      47657453 
 6244      74617465 
 6244      00
 6245              	.LASF72:
 6246 014d 5F636C6F 		.ascii	"_close\000"
 6246      736500
 6247              	.LASF0:
 6248 0154 7369676E 		.ascii	"signed char\000"
 6248      65642063 
 6248      68617200 
 6249              	.LASF14:
 6250 0160 41484250 		.ascii	"AHBPrescTable\000"
 6250      72657363 
 6250      5461626C 
 6250      6500
 6251              	.LASF171:
 6252 016e 58666572 		.ascii	"XferHalfCpltCallback\000"
 6252      48616C66 
 6252      43706C74 
 6252      43616C6C 
 6252      6261636B 
 6253              	.LASF73:
 6254 0183 5F756275 		.ascii	"_ubuf\000"
 6254      6600
 6255              	.LASF62:
ARM GAS  C:\Users\EBANO_~1\AppData\Local\Temp\cc4h82Al.s 			page 132


 6256 0189 5F626173 		.ascii	"_base\000"
 6256      6500
 6257              	.LASF190:
 6258 018f 48414C5F 		.ascii	"HAL_DMA_Start_IT\000"
 6258      444D415F 
 6258      53746172 
 6258      745F4954 
 6258      00
 6259              	.LASF178:
 6260 01a0 44737441 		.ascii	"DstAddress\000"
 6260      64647265 
 6260      737300
 6261              	.LASF102:
 6262 01ab 5F5F7366 		.ascii	"__sf\000"
 6262      00
 6263              	.LASF53:
 6264 01b0 5F6F6E5F 		.ascii	"_on_exit_args\000"
 6264      65786974 
 6264      5F617267 
 6264      7300
 6265              	.LASF145:
 6266 01be 48414C5F 		.ascii	"HAL_LockTypeDef\000"
 6266      4C6F636B 
 6266      54797065 
 6266      44656600 
 6267              	.LASF68:
 6268 01ce 5F636F6F 		.ascii	"_cookie\000"
 6268      6B696500 
 6269              	.LASF101:
 6270 01d6 5F5F7367 		.ascii	"__sglue\000"
 6270      6C756500 
 6271              	.LASF161:
 6272 01de 48414C5F 		.ascii	"HAL_DMA_StateTypeDef\000"
 6272      444D415F 
 6272      53746174 
 6272      65547970 
 6272      65446566 
 6273              	.LASF4:
 6274 01f3 6C6F6E67 		.ascii	"long int\000"
 6274      20696E74 
 6274      00
 6275              	.LASF148:
 6276 01fc 50657269 		.ascii	"PeriphInc\000"
 6276      7068496E 
 6276      6300
 6277              	.LASF65:
 6278 0206 5F666C61 		.ascii	"_flags\000"
 6278      677300
 6279              	.LASF57:
 6280 020d 5F69735F 		.ascii	"_is_cxa\000"
 6280      63786100 
 6281              	.LASF83:
 6282 0215 5F737464 		.ascii	"_stdin\000"
 6282      696E00
 6283              	.LASF163:
 6284 021c 48414C5F 		.ascii	"HAL_DMA_HALF_TRANSFER\000"
 6284      444D415F 
ARM GAS  C:\Users\EBANO_~1\AppData\Local\Temp\cc4h82Al.s 			page 133


 6284      48414C46 
 6284      5F545241 
 6284      4E534645 
 6285              	.LASF93:
 6286 0232 5F726573 		.ascii	"_result_k\000"
 6286      756C745F 
 6286      6B00
 6287              	.LASF159:
 6288 023c 48414C5F 		.ascii	"HAL_DMA_STATE_ERROR\000"
 6288      444D415F 
 6288      53544154 
 6288      455F4552 
 6288      524F5200 
 6289              	.LASF8:
 6290 0250 6C6F6E67 		.ascii	"long long int\000"
 6290      206C6F6E 
 6290      6720696E 
 6290      7400
 6291              	.LASF97:
 6292 025e 5F637674 		.ascii	"_cvtbuf\000"
 6292      62756600 
 6293              	.LASF76:
 6294 0266 5F6F6666 		.ascii	"_offset\000"
 6294      73657400 
 6295              	.LASF127:
 6296 026e 5F6D6273 		.ascii	"_mbsrtowcs_state\000"
 6296      72746F77 
 6296      63735F73 
 6296      74617465 
 6296      00
 6297              	.LASF125:
 6298 027f 5F6D6272 		.ascii	"_mbrlen_state\000"
 6298      6C656E5F 
 6298      73746174 
 6298      6500
 6299              	.LASF169:
 6300 028d 50617265 		.ascii	"Parent\000"
 6300      6E7400
 6301              	.LASF167:
 6302 0294 4C6F636B 		.ascii	"Lock\000"
 6302      00
 6303              	.LASF6:
 6304 0299 5F5F7569 		.ascii	"__uint32_t\000"
 6304      6E743332 
 6304      5F7400
 6305              	.LASF184:
 6306 02a4 54696D65 		.ascii	"Timeout\000"
 6306      6F757400 
 6307              	.LASF147:
 6308 02ac 44697265 		.ascii	"Direction\000"
 6308      6374696F 
 6308      6E00
 6309              	.LASF136:
 6310 02b6 5F696D70 		.ascii	"_impure_ptr\000"
 6310      7572655F 
 6310      70747200 
 6311              	.LASF85:
ARM GAS  C:\Users\EBANO_~1\AppData\Local\Temp\cc4h82Al.s 			page 134


 6312 02c2 5F737464 		.ascii	"_stderr\000"
 6312      65727200 
 6313              	.LASF150:
 6314 02ca 50657269 		.ascii	"PeriphDataAlignment\000"
 6314      70684461 
 6314      7461416C 
 6314      69676E6D 
 6314      656E7400 
 6315              	.LASF15:
 6316 02de 41504250 		.ascii	"APBPrescTable\000"
 6316      72657363 
 6316      5461626C 
 6316      6500
 6317              	.LASF191:
 6318 02ec 48414C5F 		.ascii	"HAL_DMA_Start\000"
 6318      444D415F 
 6318      53746172 
 6318      7400
 6319              	.LASF69:
 6320 02fa 5F726561 		.ascii	"_read\000"
 6320      6400
 6321              	.LASF185:
 6322 0300 74656D70 		.ascii	"temp\000"
 6322      00
 6323              	.LASF141:
 6324 0305 48414C5F 		.ascii	"HAL_TIMEOUT\000"
 6324      54494D45 
 6324      4F555400 
 6325              	.LASF43:
 6326 0311 5F5F746D 		.ascii	"__tm\000"
 6326      00
 6327              	.LASF32:
 6328 0316 5F5F7763 		.ascii	"__wchb\000"
 6328      686200
 6329              	.LASF13:
 6330 031d 53797374 		.ascii	"SystemCoreClock\000"
 6330      656D436F 
 6330      7265436C 
 6330      6F636B00 
 6331              	.LASF84:
 6332 032d 5F737464 		.ascii	"_stdout\000"
 6332      6F757400 
 6333              	.LASF18:
 6334 0335 43504152 		.ascii	"CPAR\000"
 6334      00
 6335              	.LASF96:
 6336 033a 5F637674 		.ascii	"_cvtlen\000"
 6336      6C656E00 
 6337              	.LASF7:
 6338 0342 6C6F6E67 		.ascii	"long unsigned int\000"
 6338      20756E73 
 6338      69676E65 
 6338      6420696E 
 6338      7400
 6339              	.LASF66:
 6340 0354 5F66696C 		.ascii	"_file\000"
 6340      6500
ARM GAS  C:\Users\EBANO_~1\AppData\Local\Temp\cc4h82Al.s 			page 135


 6341              	.LASF138:
 6342 035a 48414C5F 		.ascii	"HAL_OK\000"
 6342      4F4B00
 6343              	.LASF77:
 6344 0361 5F646174 		.ascii	"_data\000"
 6344      6100
 6345              	.LASF106:
 6346 0367 5F6E696F 		.ascii	"_niobs\000"
 6346      627300
 6347              	.LASF182:
 6348 036e 48414C5F 		.ascii	"HAL_DMA_PollForTransfer\000"
 6348      444D415F 
 6348      506F6C6C 
 6348      466F7254 
 6348      72616E73 
 6349              	.LASF117:
 6350 0386 5F72616E 		.ascii	"_rand_next\000"
 6350      645F6E65 
 6350      787400
 6351              	.LASF60:
 6352 0391 5F666E73 		.ascii	"_fns\000"
 6352      00
 6353              	.LASF114:
 6354 0396 5F617363 		.ascii	"_asctime_buf\000"
 6354      74696D65 
 6354      5F627566 
 6354      00
 6355              	.LASF174:
 6356 03a3 4572726F 		.ascii	"ErrorCode\000"
 6356      72436F64 
 6356      6500
 6357              	.LASF92:
 6358 03ad 5F726573 		.ascii	"_result\000"
 6358      756C7400 
 6359              	.LASF31:
 6360 03b5 5F5F7763 		.ascii	"__wch\000"
 6360      6800
 6361              	.LASF151:
 6362 03bb 4D656D44 		.ascii	"MemDataAlignment\000"
 6362      61746141 
 6362      6C69676E 
 6362      6D656E74 
 6362      00
 6363              	.LASF27:
 6364 03cc 5F4C4F43 		.ascii	"_LOCK_T\000"
 6364      4B5F5400 
 6365              	.LASF98:
 6366 03d4 5F6E6577 		.ascii	"_new\000"
 6366      00
 6367              	.LASF142:
 6368 03d9 48414C5F 		.ascii	"HAL_StatusTypeDef\000"
 6368      53746174 
 6368      75735479 
 6368      70654465 
 6368      6600
 6369              	.LASF78:
 6370 03eb 5F6C6F63 		.ascii	"_lock\000"
ARM GAS  C:\Users\EBANO_~1\AppData\Local\Temp\cc4h82Al.s 			page 136


 6370      6B00
 6371              	.LASF189:
 6372 03f1 48414C5F 		.ascii	"HAL_DMA_Abort\000"
 6372      444D415F 
 6372      41626F72 
 6372      7400
 6373              	.LASF110:
 6374 03ff 5F6D756C 		.ascii	"_mult\000"
 6374      7400
 6375              	.LASF193:
 6376 0405 48414C5F 		.ascii	"HAL_DMA_Init\000"
 6376      444D415F 
 6376      496E6974 
 6376      00
 6377              	.LASF156:
 6378 0412 48414C5F 		.ascii	"HAL_DMA_STATE_READY\000"
 6378      444D415F 
 6378      53544154 
 6378      455F5245 
 6378      41445900 
 6379              	.LASF19:
 6380 0426 434D4152 		.ascii	"CMAR\000"
 6380      00
 6381              	.LASF170:
 6382 042b 58666572 		.ascii	"XferCpltCallback\000"
 6382      43706C74 
 6382      43616C6C 
 6382      6261636B 
 6382      00
 6383              	.LASF70:
 6384 043c 5F777269 		.ascii	"_write\000"
 6384      746500
 6385              	.LASF49:
 6386 0443 5F5F746D 		.ascii	"__tm_year\000"
 6386      5F796561 
 6386      7200
 6387              	.LASF132:
 6388 044d 5F6E6D61 		.ascii	"_nmalloc\000"
 6388      6C6C6F63 
 6388      00
 6389              	.LASF28:
 6390 0456 5F6F6666 		.ascii	"_off_t\000"
 6390      5F7400
 6391              	.LASF199:
 6392 045d 48414C5F 		.ascii	"HAL_GetTick\000"
 6392      47657454 
 6392      69636B00 
 6393              	.LASF26:
 6394 0469 6C6F6E67 		.ascii	"long double\000"
 6394      20646F75 
 6394      626C6500 
 6395              	.LASF16:
 6396 0475 504C4C4D 		.ascii	"PLLMulTable\000"
 6396      756C5461 
 6396      626C6500 
 6397              	.LASF144:
 6398 0481 48414C5F 		.ascii	"HAL_LOCKED\000"
ARM GAS  C:\Users\EBANO_~1\AppData\Local\Temp\cc4h82Al.s 			page 137


 6398      4C4F434B 
 6398      454400
 6399              	.LASF131:
 6400 048c 5F6E6578 		.ascii	"_nextf\000"
 6400      746600
 6401              	.LASF162:
 6402 0493 48414C5F 		.ascii	"HAL_DMA_FULL_TRANSFER\000"
 6402      444D415F 
 6402      46554C4C 
 6402      5F545241 
 6402      4E534645 
 6403              	.LASF175:
 6404 04a9 444D415F 		.ascii	"DMA_HandleTypeDef\000"
 6404      48616E64 
 6404      6C655479 
 6404      70654465 
 6404      6600
 6405              	.LASF172:
 6406 04bb 58666572 		.ascii	"XferErrorCallback\000"
 6406      4572726F 
 6406      7243616C 
 6406      6C626163 
 6406      6B00
 6407              	.LASF48:
 6408 04cd 5F5F746D 		.ascii	"__tm_mon\000"
 6408      5F6D6F6E 
 6408      00
 6409              	.LASF58:
 6410 04d6 5F617465 		.ascii	"_atexit\000"
 6410      78697400 
 6411              	.LASF90:
 6412 04de 5F5F7364 		.ascii	"__sdidinit\000"
 6412      6964696E 
 6412      697400
 6413              	.LASF116:
 6414 04e9 5F67616D 		.ascii	"_gamma_signgam\000"
 6414      6D615F73 
 6414      69676E67 
 6414      616D00
 6415              	.LASF30:
 6416 04f8 77696E74 		.ascii	"wint_t\000"
 6416      5F7400
 6417              	.LASF20:
 6418 04ff 444D415F 		.ascii	"DMA_Channel_TypeDef\000"
 6418      4368616E 
 6418      6E656C5F 
 6418      54797065 
 6418      44656600 
 6419              	.LASF166:
 6420 0513 496E6974 		.ascii	"Init\000"
 6420      00
 6421              	.LASF95:
 6422 0518 5F667265 		.ascii	"_freelist\000"
 6422      656C6973 
 6422      7400
 6423              	.LASF165:
 6424 0522 496E7374 		.ascii	"Instance\000"
ARM GAS  C:\Users\EBANO_~1\AppData\Local\Temp\cc4h82Al.s 			page 138


 6424      616E6365 
 6424      00
 6425              	.LASF121:
 6426 052b 5F776374 		.ascii	"_wctomb_state\000"
 6426      6F6D625F 
 6426      73746174 
 6426      6500
 6427              	.LASF25:
 6428 0539 52455345 		.ascii	"RESET\000"
 6428      5400
 6429              	.LASF194:
 6430 053f 474E5520 		.ascii	"GNU C11 7.3.1 20180622 (release) [ARM/embedded-7-br"
 6430      43313120 
 6430      372E332E 
 6430      31203230 
 6430      31383036 
 6431 0572 616E6368 		.ascii	"anch revision 261907] -mcpu=cortex-m0plus -mthumb -"
 6431      20726576 
 6431      6973696F 
 6431      6E203236 
 6431      31393037 
 6432 05a5 6D666C6F 		.ascii	"mfloat-abi=soft -gdwarf-2 -O3 -ffunction-sections\000"
 6432      61742D61 
 6432      62693D73 
 6432      6F667420 
 6432      2D676477 
 6433              	.LASF195:
 6434 05d7 2E2E2F2E 		.ascii	"../../../../../../Drivers/STM32L0xx_HAL_Driver/Src/"
 6434      2E2F2E2E 
 6434      2F2E2E2F 
 6434      2E2E2F2E 
 6434      2E2F4472 
 6435 060a 73746D33 		.ascii	"stm32l0xx_hal_dma.c\000"
 6435      326C3078 
 6435      785F6861 
 6435      6C5F646D 
 6435      612E6300 
 6436              	.LASF1:
 6437 061e 756E7369 		.ascii	"unsigned char\000"
 6437      676E6564 
 6437      20636861 
 6437      7200
 6438              	.LASF22:
 6439 062c 444D415F 		.ascii	"DMA_TypeDef\000"
 6439      54797065 
 6439      44656600 
 6440              	.LASF183:
 6441 0638 436F6D70 		.ascii	"CompleteLevel\000"
 6441      6C657465 
 6441      4C657665 
 6441      6C00
 6442              	.LASF130:
 6443 0646 5F685F65 		.ascii	"_h_errno\000"
 6443      72726E6F 
 6443      00
 6444              	.LASF36:
 6445 064f 5F666C6F 		.ascii	"_flock_t\000"
ARM GAS  C:\Users\EBANO_~1\AppData\Local\Temp\cc4h82Al.s 			page 139


 6445      636B5F74 
 6445      00
 6446              	.LASF51:
 6447 0658 5F5F746D 		.ascii	"__tm_yday\000"
 6447      5F796461 
 6447      7900
 6448              	.LASF61:
 6449 0662 5F5F7362 		.ascii	"__sbuf\000"
 6449      756600
 6450              	.LASF80:
 6451 0669 5F666C61 		.ascii	"_flags2\000"
 6451      67733200 
 6452              	.LASF107:
 6453 0671 5F696F62 		.ascii	"_iobs\000"
 6453      7300
 6454              	.LASF186:
 6455 0677 7469636B 		.ascii	"tickstart\000"
 6455      73746172 
 6455      7400
 6456              	.LASF104:
 6457 0681 5F5F4649 		.ascii	"__FILE\000"
 6457      4C4500
 6458              	.LASF35:
 6459 0688 5F6D6273 		.ascii	"_mbstate_t\000"
 6459      74617465 
 6459      5F7400
 6460              	.LASF64:
 6461 0693 5F5F7346 		.ascii	"__sFILE\000"
 6461      494C4500 
 6462              	.LASF149:
 6463 069b 4D656D49 		.ascii	"MemInc\000"
 6463      6E6300
 6464              	.LASF79:
 6465 06a2 5F6D6273 		.ascii	"_mbstate\000"
 6465      74617465 
 6465      00
 6466              	.LASF119:
 6467 06ab 5F6D626C 		.ascii	"_mblen_state\000"
 6467      656E5F73 
 6467      74617465 
 6467      00
 6468              	.LASF86:
 6469 06b8 5F696E63 		.ascii	"_inc\000"
 6469      00
 6470              	.LASF59:
 6471 06bd 5F696E64 		.ascii	"_ind\000"
 6471      00
 6472              	.LASF89:
 6473 06c2 5F6C6F63 		.ascii	"_locale\000"
 6473      616C6500 
 6474              	.LASF91:
 6475 06ca 5F5F636C 		.ascii	"__cleanup\000"
 6475      65616E75 
 6475      7000
 6476              	.LASF88:
 6477 06d4 5F756E73 		.ascii	"_unspecified_locale_info\000"
 6477      70656369 
ARM GAS  C:\Users\EBANO_~1\AppData\Local\Temp\cc4h82Al.s 			page 140


 6477      66696564 
 6477      5F6C6F63 
 6477      616C655F 
 6478              	.LASF197:
 6479 06ed 444D415F 		.ascii	"DMA_SetConfig\000"
 6479      53657443 
 6479      6F6E6669 
 6479      6700
 6480              	.LASF176:
 6481 06fb 68646D61 		.ascii	"hdma\000"
 6481      00
 6482              	.LASF81:
 6483 0700 5F726565 		.ascii	"_reent\000"
 6483      6E7400
 6484              	.LASF109:
 6485 0707 5F736565 		.ascii	"_seed\000"
 6485      6400
 6486              	.LASF33:
 6487 070d 5F5F636F 		.ascii	"__count\000"
 6487      756E7400 
 6488              	.LASF134:
 6489 0715 5F5F6C6F 		.ascii	"__lock\000"
 6489      636B00
 6490              	.LASF34:
 6491 071c 5F5F7661 		.ascii	"__value\000"
 6491      6C756500 
 6492              	.LASF46:
 6493 0724 5F5F746D 		.ascii	"__tm_hour\000"
 6493      5F686F75 
 6493      7200
 6494              	.LASF71:
 6495 072e 5F736565 		.ascii	"_seek\000"
 6495      6B00
 6496              	.LASF139:
 6497 0734 48414C5F 		.ascii	"HAL_ERROR\000"
 6497      4552524F 
 6497      5200
 6498              	.LASF50:
 6499 073e 5F5F746D 		.ascii	"__tm_wday\000"
 6499      5F776461 
 6499      7900
 6500              	.LASF29:
 6501 0748 5F66706F 		.ascii	"_fpos_t\000"
 6501      735F7400 
 6502              	.LASF21:
 6503 0750 49464352 		.ascii	"IFCR\000"
 6503      00
 6504              	.LASF82:
 6505 0755 5F657272 		.ascii	"_errno\000"
 6505      6E6F00
 6506              	.LASF103:
 6507 075c 63686172 		.ascii	"char\000"
 6507      00
 6508              	.LASF123:
 6509 0761 5F736967 		.ascii	"_signal_buf\000"
 6509      6E616C5F 
 6509      62756600 
ARM GAS  C:\Users\EBANO_~1\AppData\Local\Temp\cc4h82Al.s 			page 141


 6510              	.LASF146:
 6511 076d 52657175 		.ascii	"Request\000"
 6511      65737400 
 6512              	.LASF63:
 6513 0775 5F73697A 		.ascii	"_size\000"
 6513      6500
 6514              	.LASF10:
 6515 077b 756E7369 		.ascii	"unsigned int\000"
 6515      676E6564 
 6515      20696E74 
 6515      00
 6516              	.LASF152:
 6517 0788 4D6F6465 		.ascii	"Mode\000"
 6517      00
 6518              	.LASF40:
 6519 078d 5F736967 		.ascii	"_sign\000"
 6519      6E00
 6520              	.LASF38:
 6521 0793 5F6E6578 		.ascii	"_next\000"
 6521      7400
 6522              	.LASF113:
 6523 0799 5F737472 		.ascii	"_strtok_last\000"
 6523      746F6B5F 
 6523      6C617374 
 6523      00
 6524              	.LASF164:
 6525 07a6 5F5F444D 		.ascii	"__DMA_HandleTypeDef\000"
 6525      415F4861 
 6525      6E646C65 
 6525      54797065 
 6525      44656600 
 6526              	.LASF56:
 6527 07ba 5F666E74 		.ascii	"_fntypes\000"
 6527      79706573 
 6527      00
 6528              	.LASF39:
 6529 07c3 5F6D6178 		.ascii	"_maxwds\000"
 6529      77647300 
 6530              	.LASF3:
 6531 07cb 73686F72 		.ascii	"short unsigned int\000"
 6531      7420756E 
 6531      7369676E 
 6531      65642069 
 6531      6E7400
 6532              	.LASF111:
 6533 07de 5F616464 		.ascii	"_add\000"
 6533      00
 6534              	.LASF37:
 6535 07e3 5F5F554C 		.ascii	"__ULong\000"
 6535      6F6E6700 
 6536              	.LASF124:
 6537 07eb 5F676574 		.ascii	"_getdate_err\000"
 6537      64617465 
 6537      5F657272 
 6537      00
 6538              	.LASF75:
 6539 07f8 5F626C6B 		.ascii	"_blksize\000"
ARM GAS  C:\Users\EBANO_~1\AppData\Local\Temp\cc4h82Al.s 			page 142


 6539      73697A65 
 6539      00
 6540              	.LASF180:
 6541 0801 48414C5F 		.ascii	"HAL_DMA_GetError\000"
 6541      444D415F 
 6541      47657445 
 6541      72726F72 
 6541      00
 6542              	.LASF137:
 6543 0812 5F676C6F 		.ascii	"_global_impure_ptr\000"
 6543      62616C5F 
 6543      696D7075 
 6543      72655F70 
 6543      747200
 6544              	.LASF12:
 6545 0825 75696E74 		.ascii	"uint32_t\000"
 6545      33325F74 
 6545      00
 6546              	.LASF112:
 6547 082e 5F756E75 		.ascii	"_unused_rand\000"
 6547      7365645F 
 6547      72616E64 
 6547      00
 6548              	.LASF188:
 6549 083b 73746174 		.ascii	"status\000"
 6549      757300
 6550              	.LASF17:
 6551 0842 434E4454 		.ascii	"CNDTR\000"
 6551      5200
 6552              	.LASF41:
 6553 0848 5F776473 		.ascii	"_wds\000"
 6553      00
 6554              	.LASF105:
 6555 084d 5F676C75 		.ascii	"_glue\000"
 6555      6500
 6556              	.LASF158:
 6557 0853 48414C5F 		.ascii	"HAL_DMA_STATE_TIMEOUT\000"
 6557      444D415F 
 6557      53544154 
 6557      455F5449 
 6557      4D454F55 
 6558              	.LASF153:
 6559 0869 5072696F 		.ascii	"Priority\000"
 6559      72697479 
 6559      00
 6560              	.LASF11:
 6561 0872 75696E74 		.ascii	"uint8_t\000"
 6561      385F7400 
 6562              	.LASF122:
 6563 087a 5F6C3634 		.ascii	"_l64a_buf\000"
 6563      615F6275 
 6563      6600
 6564              	.LASF42:
 6565 0884 5F426967 		.ascii	"_Bigint\000"
 6565      696E7400 
 6566              	.LASF100:
 6567 088c 5F736967 		.ascii	"_sig_func\000"
ARM GAS  C:\Users\EBANO_~1\AppData\Local\Temp\cc4h82Al.s 			page 143


 6567      5F66756E 
 6567      6300
 6568              	.LASF24:
 6569 0896 444D415F 		.ascii	"DMA_Request_TypeDef\000"
 6569      52657175 
 6569      6573745F 
 6569      54797065 
 6569      44656600 
 6570              	.LASF196:
 6571 08aa 443A5C67 		.ascii	"D:\\git_pessoal\\keil_gcc\\STM32CubeExpansion_LRWAN"
 6571      69745F70 
 6571      6573736F 
 6571      616C5C6B 
 6571      65696C5F 
 6572 08da 5F56312E 		.ascii	"_V1.2.1\\Projects\\B-L072Z-LRWAN1\\Applications\\Lo"
 6572      322E315C 
 6572      50726F6A 
 6572      65637473 
 6572      5C422D4C 
 6573 0909 52615C45 		.ascii	"Ra\\End_Node\\MDK-ARM\000"
 6573      6E645F4E 
 6573      6F64655C 
 6573      4D444B2D 
 6573      41524D00 
 6574              	.LASF74:
 6575 091d 5F6E6275 		.ascii	"_nbuf\000"
 6575      6600
 6576              	.LASF133:
 6577 0923 5F756E75 		.ascii	"_unused\000"
 6577      73656400 
 6578              	.LASF52:
 6579 092b 5F5F746D 		.ascii	"__tm_isdst\000"
 6579      5F697364 
 6579      737400
 6580              	.LASF115:
 6581 0936 5F6C6F63 		.ascii	"_localtime_buf\000"
 6581      616C7469 
 6581      6D655F62 
 6581      756600
 6582              	.LASF45:
 6583 0945 5F5F746D 		.ascii	"__tm_min\000"
 6583      5F6D696E 
 6583      00
 6584              	.LASF118:
 6585 094e 5F723438 		.ascii	"_r48\000"
 6585      00
 6586              	.LASF160:
 6587 0953 48414C5F 		.ascii	"HAL_DMA_STATE_READY_HALF\000"
 6587      444D415F 
 6587      53544154 
 6587      455F5245 
 6587      4144595F 
 6588              	.LASF143:
 6589 096c 48414C5F 		.ascii	"HAL_UNLOCKED\000"
 6589      554E4C4F 
 6589      434B4544 
 6589      00
ARM GAS  C:\Users\EBANO_~1\AppData\Local\Temp\cc4h82Al.s 			page 144


 6590              	.LASF120:
 6591 0979 5F6D6274 		.ascii	"_mbtowc_state\000"
 6591      6F77635F 
 6591      73746174 
 6591      6500
 6592              	.LASF94:
 6593 0987 5F703573 		.ascii	"_p5s\000"
 6593      00
 6594              	.LASF173:
 6595 098c 58666572 		.ascii	"XferAbortCallback\000"
 6595      41626F72 
 6595      7443616C 
 6595      6C626163 
 6595      6B00
 6596              	.LASF47:
 6597 099e 5F5F746D 		.ascii	"__tm_mday\000"
 6597      5F6D6461 
 6597      7900
 6598              		.ident	"GCC: (GNU Tools for Arm Embedded Processors 7-2018-q2-update) 7.3.1 20180622 (release) [AR
ARM GAS  C:\Users\EBANO_~1\AppData\Local\Temp\cc4h82Al.s 			page 145


DEFINED SYMBOLS
                            *ABS*:00000000 stm32l0xx_hal_dma.c
C:\Users\EBANO_~1\AppData\Local\Temp\cc4h82Al.s:16     .text.HAL_DMA_Init:00000000 $t
C:\Users\EBANO_~1\AppData\Local\Temp\cc4h82Al.s:24     .text.HAL_DMA_Init:00000000 HAL_DMA_Init
C:\Users\EBANO_~1\AppData\Local\Temp\cc4h82Al.s:254    .text.HAL_DMA_Init:00000110 $d
C:\Users\EBANO_~1\AppData\Local\Temp\cc4h82Al.s:272    .text.HAL_DMA_DeInit:00000000 $t
C:\Users\EBANO_~1\AppData\Local\Temp\cc4h82Al.s:280    .text.HAL_DMA_DeInit:00000000 HAL_DMA_DeInit
C:\Users\EBANO_~1\AppData\Local\Temp\cc4h82Al.s:537    .text.HAL_DMA_DeInit:00000154 $d
C:\Users\EBANO_~1\AppData\Local\Temp\cc4h82Al.s:555    .text.HAL_DMA_Start:00000000 $t
C:\Users\EBANO_~1\AppData\Local\Temp\cc4h82Al.s:563    .text.HAL_DMA_Start:00000000 HAL_DMA_Start
C:\Users\EBANO_~1\AppData\Local\Temp\cc4h82Al.s:651    .text.HAL_DMA_Start_IT:00000000 $t
C:\Users\EBANO_~1\AppData\Local\Temp\cc4h82Al.s:659    .text.HAL_DMA_Start_IT:00000000 HAL_DMA_Start_IT
C:\Users\EBANO_~1\AppData\Local\Temp\cc4h82Al.s:762    .text.HAL_DMA_Abort:00000000 $t
C:\Users\EBANO_~1\AppData\Local\Temp\cc4h82Al.s:770    .text.HAL_DMA_Abort:00000000 HAL_DMA_Abort
C:\Users\EBANO_~1\AppData\Local\Temp\cc4h82Al.s:864    .text.HAL_DMA_Abort_IT:00000000 $t
C:\Users\EBANO_~1\AppData\Local\Temp\cc4h82Al.s:872    .text.HAL_DMA_Abort_IT:00000000 HAL_DMA_Abort_IT
C:\Users\EBANO_~1\AppData\Local\Temp\cc4h82Al.s:998    .text.HAL_DMA_Abort_IT:00000094 $d
C:\Users\EBANO_~1\AppData\Local\Temp\cc4h82Al.s:1010   .text.HAL_DMA_PollForTransfer:00000000 $t
C:\Users\EBANO_~1\AppData\Local\Temp\cc4h82Al.s:1018   .text.HAL_DMA_PollForTransfer:00000000 HAL_DMA_PollForTransfer
C:\Users\EBANO_~1\AppData\Local\Temp\cc4h82Al.s:1628   .text.HAL_DMA_PollForTransfer:00000328 $d
C:\Users\EBANO_~1\AppData\Local\Temp\cc4h82Al.s:1642   .text.HAL_DMA_PollForTransfer:00000358 $t
C:\Users\EBANO_~1\AppData\Local\Temp\cc4h82Al.s:1738   .text.HAL_DMA_IRQHandler:00000000 $t
C:\Users\EBANO_~1\AppData\Local\Temp\cc4h82Al.s:1746   .text.HAL_DMA_IRQHandler:00000000 HAL_DMA_IRQHandler
C:\Users\EBANO_~1\AppData\Local\Temp\cc4h82Al.s:2222   .text.HAL_DMA_IRQHandler:00000278 $d
C:\Users\EBANO_~1\AppData\Local\Temp\cc4h82Al.s:2233   .text.HAL_DMA_GetState:00000000 $t
C:\Users\EBANO_~1\AppData\Local\Temp\cc4h82Al.s:2241   .text.HAL_DMA_GetState:00000000 HAL_DMA_GetState
C:\Users\EBANO_~1\AppData\Local\Temp\cc4h82Al.s:2263   .text.HAL_DMA_GetError:00000000 $t
C:\Users\EBANO_~1\AppData\Local\Temp\cc4h82Al.s:2271   .text.HAL_DMA_GetError:00000000 HAL_DMA_GetError

UNDEFINED SYMBOLS
HAL_GetTick
