ARM GAS  C:\Users\EBANO_~1\AppData\Local\Temp\cc7rVnX9.s 			page 1


   1              		.cpu cortex-m0plus
   2              		.eabi_attribute 20, 1
   3              		.eabi_attribute 21, 1
   4              		.eabi_attribute 23, 3
   5              		.eabi_attribute 24, 1
   6              		.eabi_attribute 25, 1
   7              		.eabi_attribute 26, 1
   8              		.eabi_attribute 30, 2
   9              		.eabi_attribute 34, 0
  10              		.eabi_attribute 18, 4
  11              		.file	"stm32l0xx_hal_gpio.c"
  12              		.text
  13              	.Ltext0:
  14              		.cfi_sections	.debug_frame
  15              		.section	.text.HAL_GPIO_Init,"ax",%progbits
  16              		.align	1
  17              		.p2align 2,,3
  18              		.global	HAL_GPIO_Init
  19              		.syntax unified
  20              		.code	16
  21              		.thumb_func
  22              		.fpu softvfp
  23              		.type	HAL_GPIO_Init, %function
  24              	HAL_GPIO_Init:
  25              	.LFB39:
  26              		.file 1 "../../../../../../Drivers/STM32L0xx_HAL_Driver/Src/stm32l0xx_hal_gpio.c"
   1:../../../../../../Drivers/STM32L0xx_HAL_Driver/Src/stm32l0xx_hal_gpio.c **** /**
   2:../../../../../../Drivers/STM32L0xx_HAL_Driver/Src/stm32l0xx_hal_gpio.c ****   ******************************************************************************
   3:../../../../../../Drivers/STM32L0xx_HAL_Driver/Src/stm32l0xx_hal_gpio.c ****   * @file    stm32l0xx_hal_gpio.c
   4:../../../../../../Drivers/STM32L0xx_HAL_Driver/Src/stm32l0xx_hal_gpio.c ****   * @author  MCD Application Team
   5:../../../../../../Drivers/STM32L0xx_HAL_Driver/Src/stm32l0xx_hal_gpio.c ****   * @brief   GPIO HAL module driver.  
   6:../../../../../../Drivers/STM32L0xx_HAL_Driver/Src/stm32l0xx_hal_gpio.c ****   *          This file provides firmware functions to manage the following 
   7:../../../../../../Drivers/STM32L0xx_HAL_Driver/Src/stm32l0xx_hal_gpio.c ****   *          functionalities of the General Purpose Input/Output (GPIO) peripheral:
   8:../../../../../../Drivers/STM32L0xx_HAL_Driver/Src/stm32l0xx_hal_gpio.c ****   *           + Initialization and de-initialization functions
   9:../../../../../../Drivers/STM32L0xx_HAL_Driver/Src/stm32l0xx_hal_gpio.c ****   *           + IO operation functions
  10:../../../../../../Drivers/STM32L0xx_HAL_Driver/Src/stm32l0xx_hal_gpio.c ****   *         
  11:../../../../../../Drivers/STM32L0xx_HAL_Driver/Src/stm32l0xx_hal_gpio.c ****   @verbatim
  12:../../../../../../Drivers/STM32L0xx_HAL_Driver/Src/stm32l0xx_hal_gpio.c ****   ==============================================================================
  13:../../../../../../Drivers/STM32L0xx_HAL_Driver/Src/stm32l0xx_hal_gpio.c ****                     ##### GPIO Peripheral features #####
  14:../../../../../../Drivers/STM32L0xx_HAL_Driver/Src/stm32l0xx_hal_gpio.c ****   ==============================================================================
  15:../../../../../../Drivers/STM32L0xx_HAL_Driver/Src/stm32l0xx_hal_gpio.c ****   [..] 
  16:../../../../../../Drivers/STM32L0xx_HAL_Driver/Src/stm32l0xx_hal_gpio.c ****     (+) Each port bit of the general-purpose I/O (GPIO) ports can be individually 
  17:../../../../../../Drivers/STM32L0xx_HAL_Driver/Src/stm32l0xx_hal_gpio.c ****   configured by software in several modes:
  18:../../../../../../Drivers/STM32L0xx_HAL_Driver/Src/stm32l0xx_hal_gpio.c ****         (++) Input mode 
  19:../../../../../../Drivers/STM32L0xx_HAL_Driver/Src/stm32l0xx_hal_gpio.c ****         (++) Analog mode
  20:../../../../../../Drivers/STM32L0xx_HAL_Driver/Src/stm32l0xx_hal_gpio.c ****         (++) Output mode
  21:../../../../../../Drivers/STM32L0xx_HAL_Driver/Src/stm32l0xx_hal_gpio.c ****         (++) Alternate function mode
  22:../../../../../../Drivers/STM32L0xx_HAL_Driver/Src/stm32l0xx_hal_gpio.c ****         (++) External interrupt/event lines
  23:../../../../../../Drivers/STM32L0xx_HAL_Driver/Src/stm32l0xx_hal_gpio.c ****  
  24:../../../../../../Drivers/STM32L0xx_HAL_Driver/Src/stm32l0xx_hal_gpio.c ****     (+) During and just after reset, the alternate functions and external interrupt  
  25:../../../../../../Drivers/STM32L0xx_HAL_Driver/Src/stm32l0xx_hal_gpio.c ****   lines are not active and the I/O ports are configured in input floating mode.
  26:../../../../../../Drivers/STM32L0xx_HAL_Driver/Src/stm32l0xx_hal_gpio.c ****   
  27:../../../../../../Drivers/STM32L0xx_HAL_Driver/Src/stm32l0xx_hal_gpio.c ****     (+) All GPIO pins have weak internal pull-up and pull-down resistors, which can be 
  28:../../../../../../Drivers/STM32L0xx_HAL_Driver/Src/stm32l0xx_hal_gpio.c ****   activated or not.
  29:../../../../../../Drivers/STM32L0xx_HAL_Driver/Src/stm32l0xx_hal_gpio.c **** 
  30:../../../../../../Drivers/STM32L0xx_HAL_Driver/Src/stm32l0xx_hal_gpio.c ****     (+) In Output or Alternate mode, each IO can be configured on open-drain or push-pull
  31:../../../../../../Drivers/STM32L0xx_HAL_Driver/Src/stm32l0xx_hal_gpio.c ****   type and the IO speed can be selected depending on the VDD value.
ARM GAS  C:\Users\EBANO_~1\AppData\Local\Temp\cc7rVnX9.s 			page 2


  32:../../../../../../Drivers/STM32L0xx_HAL_Driver/Src/stm32l0xx_hal_gpio.c ****   
  33:../../../../../../Drivers/STM32L0xx_HAL_Driver/Src/stm32l0xx_hal_gpio.c ****     (+) The microcontroller IO pins are connected to onboard peripherals/modules through a 
  34:../../../../../../Drivers/STM32L0xx_HAL_Driver/Src/stm32l0xx_hal_gpio.c ****         multiplexer that allows only one peripheral alternate function (AF) connected 
  35:../../../../../../Drivers/STM32L0xx_HAL_Driver/Src/stm32l0xx_hal_gpio.c ****   to an IO pin at a time. In this way, there can be no conflict between peripherals 
  36:../../../../../../Drivers/STM32L0xx_HAL_Driver/Src/stm32l0xx_hal_gpio.c ****   sharing the same IO pin. 
  37:../../../../../../Drivers/STM32L0xx_HAL_Driver/Src/stm32l0xx_hal_gpio.c **** 
  38:../../../../../../Drivers/STM32L0xx_HAL_Driver/Src/stm32l0xx_hal_gpio.c ****     (+) All ports have external interrupt/event capability. To use external interrupt 
  39:../../../../../../Drivers/STM32L0xx_HAL_Driver/Src/stm32l0xx_hal_gpio.c ****   lines, the port must be configured in input mode. All available GPIO pins are 
  40:../../../../../../Drivers/STM32L0xx_HAL_Driver/Src/stm32l0xx_hal_gpio.c ****   connected to the 16 external interrupt/event lines from EXTI0 to EXTI15.
  41:../../../../../../Drivers/STM32L0xx_HAL_Driver/Src/stm32l0xx_hal_gpio.c ****   
  42:../../../../../../Drivers/STM32L0xx_HAL_Driver/Src/stm32l0xx_hal_gpio.c ****     (+) The external interrupt/event controller consists of up to 28 edge detectors
  43:../../../../../../Drivers/STM32L0xx_HAL_Driver/Src/stm32l0xx_hal_gpio.c ****   (16 lines are connected to GPIO) for generating event/interrupt requests (each 
  44:../../../../../../Drivers/STM32L0xx_HAL_Driver/Src/stm32l0xx_hal_gpio.c ****   input line can be independently configured to select the type (interrupt or event) 
  45:../../../../../../Drivers/STM32L0xx_HAL_Driver/Src/stm32l0xx_hal_gpio.c ****   and the corresponding trigger event (rising or falling or both). Each line can 
  46:../../../../../../Drivers/STM32L0xx_HAL_Driver/Src/stm32l0xx_hal_gpio.c ****   also be masked independently. 
  47:../../../../../../Drivers/STM32L0xx_HAL_Driver/Src/stm32l0xx_hal_gpio.c ****   
  48:../../../../../../Drivers/STM32L0xx_HAL_Driver/Src/stm32l0xx_hal_gpio.c ****                      ##### How to use this driver #####
  49:../../../../../../Drivers/STM32L0xx_HAL_Driver/Src/stm32l0xx_hal_gpio.c ****   ==============================================================================  
  50:../../../../../../Drivers/STM32L0xx_HAL_Driver/Src/stm32l0xx_hal_gpio.c ****   [..]             
  51:../../../../../../Drivers/STM32L0xx_HAL_Driver/Src/stm32l0xx_hal_gpio.c ****     (#) Enable the GPIO IOPORT clock using the following function: __HAL_RCC_GPIOx_CLK_ENABLE(). 
  52:../../../../../../Drivers/STM32L0xx_HAL_Driver/Src/stm32l0xx_hal_gpio.c **** 
  53:../../../../../../Drivers/STM32L0xx_HAL_Driver/Src/stm32l0xx_hal_gpio.c ****     (#) Configure the GPIO pin(s) using HAL_GPIO_Init().
  54:../../../../../../Drivers/STM32L0xx_HAL_Driver/Src/stm32l0xx_hal_gpio.c ****         (++) Configure the IO mode using "Mode" member from GPIO_InitTypeDef structure
  55:../../../../../../Drivers/STM32L0xx_HAL_Driver/Src/stm32l0xx_hal_gpio.c ****         (++) Activate Pull-up, Pull-down resistor using "Pull" member from GPIO_InitTypeDef 
  56:../../../../../../Drivers/STM32L0xx_HAL_Driver/Src/stm32l0xx_hal_gpio.c ****              structure.
  57:../../../../../../Drivers/STM32L0xx_HAL_Driver/Src/stm32l0xx_hal_gpio.c ****         (++) In case of Output or alternate function mode selection: the speed is 
  58:../../../../../../Drivers/STM32L0xx_HAL_Driver/Src/stm32l0xx_hal_gpio.c ****              configured through "Speed" member from GPIO_InitTypeDef structure.
  59:../../../../../../Drivers/STM32L0xx_HAL_Driver/Src/stm32l0xx_hal_gpio.c ****         (++) In alternate mode is selection, the alternate function connected to the IO
  60:../../../../../../Drivers/STM32L0xx_HAL_Driver/Src/stm32l0xx_hal_gpio.c ****              is configured through "Alternate" member from GPIO_InitTypeDef structure.
  61:../../../../../../Drivers/STM32L0xx_HAL_Driver/Src/stm32l0xx_hal_gpio.c ****         (++) Analog mode is required when a pin is to be used as ADC channel 
  62:../../../../../../Drivers/STM32L0xx_HAL_Driver/Src/stm32l0xx_hal_gpio.c ****              or DAC output.
  63:../../../../../../Drivers/STM32L0xx_HAL_Driver/Src/stm32l0xx_hal_gpio.c ****         (++) In case of external interrupt/event selection the "Mode" member from 
  64:../../../../../../Drivers/STM32L0xx_HAL_Driver/Src/stm32l0xx_hal_gpio.c ****              GPIO_InitTypeDef structure select the type (interrupt or event) and 
  65:../../../../../../Drivers/STM32L0xx_HAL_Driver/Src/stm32l0xx_hal_gpio.c ****              the corresponding trigger event (rising or falling or both).
  66:../../../../../../Drivers/STM32L0xx_HAL_Driver/Src/stm32l0xx_hal_gpio.c ****    
  67:../../../../../../Drivers/STM32L0xx_HAL_Driver/Src/stm32l0xx_hal_gpio.c ****     (#) In case of external interrupt/event mode selection, configure NVIC IRQ priority 
  68:../../../../../../Drivers/STM32L0xx_HAL_Driver/Src/stm32l0xx_hal_gpio.c ****         mapped to the EXTI line using HAL_NVIC_SetPriority() and enable it using
  69:../../../../../../Drivers/STM32L0xx_HAL_Driver/Src/stm32l0xx_hal_gpio.c ****         HAL_NVIC_EnableIRQ().
  70:../../../../../../Drivers/STM32L0xx_HAL_Driver/Src/stm32l0xx_hal_gpio.c ****          
  71:../../../../../../Drivers/STM32L0xx_HAL_Driver/Src/stm32l0xx_hal_gpio.c ****    (#) HAL_GPIO_DeInit allows to set register values to their reset value. This function
  72:../../../../../../Drivers/STM32L0xx_HAL_Driver/Src/stm32l0xx_hal_gpio.c ****        is also to be used when unconfiguring pin which was used as an external interrupt
  73:../../../../../../Drivers/STM32L0xx_HAL_Driver/Src/stm32l0xx_hal_gpio.c ****        or in event mode. That is the only way to reset the corresponding bit in
  74:../../../../../../Drivers/STM32L0xx_HAL_Driver/Src/stm32l0xx_hal_gpio.c ****        EXTI & SYSCFG registers.
  75:../../../../../../Drivers/STM32L0xx_HAL_Driver/Src/stm32l0xx_hal_gpio.c **** 
  76:../../../../../../Drivers/STM32L0xx_HAL_Driver/Src/stm32l0xx_hal_gpio.c ****     (#) To get the level of a pin configured in input mode use HAL_GPIO_ReadPin().
  77:../../../../../../Drivers/STM32L0xx_HAL_Driver/Src/stm32l0xx_hal_gpio.c ****             
  78:../../../../../../Drivers/STM32L0xx_HAL_Driver/Src/stm32l0xx_hal_gpio.c ****     (#) To set/reset the level of a pin configured in output mode use 
  79:../../../../../../Drivers/STM32L0xx_HAL_Driver/Src/stm32l0xx_hal_gpio.c ****         HAL_GPIO_WritePin()/HAL_GPIO_TogglePin().
  80:../../../../../../Drivers/STM32L0xx_HAL_Driver/Src/stm32l0xx_hal_gpio.c **** 
  81:../../../../../../Drivers/STM32L0xx_HAL_Driver/Src/stm32l0xx_hal_gpio.c ****     (#) To lock pin configuration until next reset use HAL_GPIO_LockPin().
  82:../../../../../../Drivers/STM32L0xx_HAL_Driver/Src/stm32l0xx_hal_gpio.c **** 
  83:../../../../../../Drivers/STM32L0xx_HAL_Driver/Src/stm32l0xx_hal_gpio.c ****     (#) During and just after reset, the alternate functions are not 
  84:../../../../../../Drivers/STM32L0xx_HAL_Driver/Src/stm32l0xx_hal_gpio.c ****         active and the GPIO pins are configured in input floating mode (except JTAG
  85:../../../../../../Drivers/STM32L0xx_HAL_Driver/Src/stm32l0xx_hal_gpio.c ****         pins).
  86:../../../../../../Drivers/STM32L0xx_HAL_Driver/Src/stm32l0xx_hal_gpio.c ****   
  87:../../../../../../Drivers/STM32L0xx_HAL_Driver/Src/stm32l0xx_hal_gpio.c ****     (#) The LSE oscillator pins OSC32_IN and OSC32_OUT can be used as general purpose 
  88:../../../../../../Drivers/STM32L0xx_HAL_Driver/Src/stm32l0xx_hal_gpio.c ****         (PC14 and PC15, respectively) when the LSE oscillator is off. The LSE has 
ARM GAS  C:\Users\EBANO_~1\AppData\Local\Temp\cc7rVnX9.s 			page 3


  89:../../../../../../Drivers/STM32L0xx_HAL_Driver/Src/stm32l0xx_hal_gpio.c ****         priority over the GPIO function.
  90:../../../../../../Drivers/STM32L0xx_HAL_Driver/Src/stm32l0xx_hal_gpio.c ****   
  91:../../../../../../Drivers/STM32L0xx_HAL_Driver/Src/stm32l0xx_hal_gpio.c ****     (#) The HSE oscillator pins OSC_IN/OSC_OUT can be used as 
  92:../../../../../../Drivers/STM32L0xx_HAL_Driver/Src/stm32l0xx_hal_gpio.c ****         general purpose PH0 and PH1, respectively, when the HSE oscillator is off. 
  93:../../../../../../Drivers/STM32L0xx_HAL_Driver/Src/stm32l0xx_hal_gpio.c ****         The HSE has priority over the GPIO function.
  94:../../../../../../Drivers/STM32L0xx_HAL_Driver/Src/stm32l0xx_hal_gpio.c ****   
  95:../../../../../../Drivers/STM32L0xx_HAL_Driver/Src/stm32l0xx_hal_gpio.c ****   @endverbatim
  96:../../../../../../Drivers/STM32L0xx_HAL_Driver/Src/stm32l0xx_hal_gpio.c ****   ******************************************************************************
  97:../../../../../../Drivers/STM32L0xx_HAL_Driver/Src/stm32l0xx_hal_gpio.c ****   * @attention
  98:../../../../../../Drivers/STM32L0xx_HAL_Driver/Src/stm32l0xx_hal_gpio.c ****   *
  99:../../../../../../Drivers/STM32L0xx_HAL_Driver/Src/stm32l0xx_hal_gpio.c ****   * <h2><center>&copy; COPYRIGHT(c) 2016 STMicroelectronics</center></h2>
 100:../../../../../../Drivers/STM32L0xx_HAL_Driver/Src/stm32l0xx_hal_gpio.c ****   *
 101:../../../../../../Drivers/STM32L0xx_HAL_Driver/Src/stm32l0xx_hal_gpio.c ****   * Redistribution and use in source and binary forms, with or without modification,
 102:../../../../../../Drivers/STM32L0xx_HAL_Driver/Src/stm32l0xx_hal_gpio.c ****   * are permitted provided that the following conditions are met:
 103:../../../../../../Drivers/STM32L0xx_HAL_Driver/Src/stm32l0xx_hal_gpio.c ****   *   1. Redistributions of source code must retain the above copyright notice,
 104:../../../../../../Drivers/STM32L0xx_HAL_Driver/Src/stm32l0xx_hal_gpio.c ****   *      this list of conditions and the following disclaimer.
 105:../../../../../../Drivers/STM32L0xx_HAL_Driver/Src/stm32l0xx_hal_gpio.c ****   *   2. Redistributions in binary form must reproduce the above copyright notice,
 106:../../../../../../Drivers/STM32L0xx_HAL_Driver/Src/stm32l0xx_hal_gpio.c ****   *      this list of conditions and the following disclaimer in the documentation
 107:../../../../../../Drivers/STM32L0xx_HAL_Driver/Src/stm32l0xx_hal_gpio.c ****   *      and/or other materials provided with the distribution.
 108:../../../../../../Drivers/STM32L0xx_HAL_Driver/Src/stm32l0xx_hal_gpio.c ****   *   3. Neither the name of STMicroelectronics nor the names of its contributors
 109:../../../../../../Drivers/STM32L0xx_HAL_Driver/Src/stm32l0xx_hal_gpio.c ****   *      may be used to endorse or promote products derived from this software
 110:../../../../../../Drivers/STM32L0xx_HAL_Driver/Src/stm32l0xx_hal_gpio.c ****   *      without specific prior written permission.
 111:../../../../../../Drivers/STM32L0xx_HAL_Driver/Src/stm32l0xx_hal_gpio.c ****   *
 112:../../../../../../Drivers/STM32L0xx_HAL_Driver/Src/stm32l0xx_hal_gpio.c ****   * THIS SOFTWARE IS PROVIDED BY THE COPYRIGHT HOLDERS AND CONTRIBUTORS "AS IS"
 113:../../../../../../Drivers/STM32L0xx_HAL_Driver/Src/stm32l0xx_hal_gpio.c ****   * AND ANY EXPRESS OR IMPLIED WARRANTIES, INCLUDING, BUT NOT LIMITED TO, THE
 114:../../../../../../Drivers/STM32L0xx_HAL_Driver/Src/stm32l0xx_hal_gpio.c ****   * IMPLIED WARRANTIES OF MERCHANTABILITY AND FITNESS FOR A PARTICULAR PURPOSE ARE
 115:../../../../../../Drivers/STM32L0xx_HAL_Driver/Src/stm32l0xx_hal_gpio.c ****   * DISCLAIMED. IN NO EVENT SHALL THE COPYRIGHT HOLDER OR CONTRIBUTORS BE LIABLE
 116:../../../../../../Drivers/STM32L0xx_HAL_Driver/Src/stm32l0xx_hal_gpio.c ****   * FOR ANY DIRECT, INDIRECT, INCIDENTAL, SPECIAL, EXEMPLARY, OR CONSEQUENTIAL
 117:../../../../../../Drivers/STM32L0xx_HAL_Driver/Src/stm32l0xx_hal_gpio.c ****   * DAMAGES (INCLUDING, BUT NOT LIMITED TO, PROCUREMENT OF SUBSTITUTE GOODS OR
 118:../../../../../../Drivers/STM32L0xx_HAL_Driver/Src/stm32l0xx_hal_gpio.c ****   * SERVICES; LOSS OF USE, DATA, OR PROFITS; OR BUSINESS INTERRUPTION) HOWEVER
 119:../../../../../../Drivers/STM32L0xx_HAL_Driver/Src/stm32l0xx_hal_gpio.c ****   * CAUSED AND ON ANY THEORY OF LIABILITY, WHETHER IN CONTRACT, STRICT LIABILITY,
 120:../../../../../../Drivers/STM32L0xx_HAL_Driver/Src/stm32l0xx_hal_gpio.c ****   * OR TORT (INCLUDING NEGLIGENCE OR OTHERWISE) ARISING IN ANY WAY OUT OF THE USE
 121:../../../../../../Drivers/STM32L0xx_HAL_Driver/Src/stm32l0xx_hal_gpio.c ****   * OF THIS SOFTWARE, EVEN IF ADVISED OF THE POSSIBILITY OF SUCH DAMAGE.
 122:../../../../../../Drivers/STM32L0xx_HAL_Driver/Src/stm32l0xx_hal_gpio.c ****   *
 123:../../../../../../Drivers/STM32L0xx_HAL_Driver/Src/stm32l0xx_hal_gpio.c ****   ******************************************************************************  
 124:../../../../../../Drivers/STM32L0xx_HAL_Driver/Src/stm32l0xx_hal_gpio.c ****   */ 
 125:../../../../../../Drivers/STM32L0xx_HAL_Driver/Src/stm32l0xx_hal_gpio.c **** 
 126:../../../../../../Drivers/STM32L0xx_HAL_Driver/Src/stm32l0xx_hal_gpio.c **** /* Includes ------------------------------------------------------------------*/
 127:../../../../../../Drivers/STM32L0xx_HAL_Driver/Src/stm32l0xx_hal_gpio.c **** #include "stm32l0xx_hal.h"
 128:../../../../../../Drivers/STM32L0xx_HAL_Driver/Src/stm32l0xx_hal_gpio.c **** 
 129:../../../../../../Drivers/STM32L0xx_HAL_Driver/Src/stm32l0xx_hal_gpio.c **** /** @addtogroup STM32L0xx_HAL_Driver
 130:../../../../../../Drivers/STM32L0xx_HAL_Driver/Src/stm32l0xx_hal_gpio.c ****   * @{
 131:../../../../../../Drivers/STM32L0xx_HAL_Driver/Src/stm32l0xx_hal_gpio.c ****   */
 132:../../../../../../Drivers/STM32L0xx_HAL_Driver/Src/stm32l0xx_hal_gpio.c **** 
 133:../../../../../../Drivers/STM32L0xx_HAL_Driver/Src/stm32l0xx_hal_gpio.c **** #ifdef HAL_GPIO_MODULE_ENABLED
 134:../../../../../../Drivers/STM32L0xx_HAL_Driver/Src/stm32l0xx_hal_gpio.c **** 
 135:../../../../../../Drivers/STM32L0xx_HAL_Driver/Src/stm32l0xx_hal_gpio.c **** /** @addtogroup GPIO
 136:../../../../../../Drivers/STM32L0xx_HAL_Driver/Src/stm32l0xx_hal_gpio.c ****   * @brief GPIO HAL module driver
 137:../../../../../../Drivers/STM32L0xx_HAL_Driver/Src/stm32l0xx_hal_gpio.c ****   * @{
 138:../../../../../../Drivers/STM32L0xx_HAL_Driver/Src/stm32l0xx_hal_gpio.c ****   */
 139:../../../../../../Drivers/STM32L0xx_HAL_Driver/Src/stm32l0xx_hal_gpio.c **** 
 140:../../../../../../Drivers/STM32L0xx_HAL_Driver/Src/stm32l0xx_hal_gpio.c **** /** @addtogroup GPIO_Private
 141:../../../../../../Drivers/STM32L0xx_HAL_Driver/Src/stm32l0xx_hal_gpio.c ****   * @{
 142:../../../../../../Drivers/STM32L0xx_HAL_Driver/Src/stm32l0xx_hal_gpio.c ****   */
 143:../../../../../../Drivers/STM32L0xx_HAL_Driver/Src/stm32l0xx_hal_gpio.c **** /* Private define ------------------------------------------------------------*/
 144:../../../../../../Drivers/STM32L0xx_HAL_Driver/Src/stm32l0xx_hal_gpio.c **** 
 145:../../../../../../Drivers/STM32L0xx_HAL_Driver/Src/stm32l0xx_hal_gpio.c ****  
ARM GAS  C:\Users\EBANO_~1\AppData\Local\Temp\cc7rVnX9.s 			page 4


 146:../../../../../../Drivers/STM32L0xx_HAL_Driver/Src/stm32l0xx_hal_gpio.c **** #define GPIO_MODE             ((uint32_t)0x00000003U)
 147:../../../../../../Drivers/STM32L0xx_HAL_Driver/Src/stm32l0xx_hal_gpio.c **** #define EXTI_MODE             ((uint32_t)0x10000000U)
 148:../../../../../../Drivers/STM32L0xx_HAL_Driver/Src/stm32l0xx_hal_gpio.c **** #define GPIO_MODE_IT          ((uint32_t)0x00010000U)
 149:../../../../../../Drivers/STM32L0xx_HAL_Driver/Src/stm32l0xx_hal_gpio.c **** #define GPIO_MODE_EVT         ((uint32_t)0x00020000U)
 150:../../../../../../Drivers/STM32L0xx_HAL_Driver/Src/stm32l0xx_hal_gpio.c **** #define RISING_EDGE           ((uint32_t)0x00100000U) 
 151:../../../../../../Drivers/STM32L0xx_HAL_Driver/Src/stm32l0xx_hal_gpio.c **** #define FALLING_EDGE          ((uint32_t)0x00200000U) 
 152:../../../../../../Drivers/STM32L0xx_HAL_Driver/Src/stm32l0xx_hal_gpio.c **** #define GPIO_OUTPUT_TYPE      ((uint32_t)0x00000010U)
 153:../../../../../../Drivers/STM32L0xx_HAL_Driver/Src/stm32l0xx_hal_gpio.c **** 
 154:../../../../../../Drivers/STM32L0xx_HAL_Driver/Src/stm32l0xx_hal_gpio.c **** #define GPIO_NUMBER           ((uint32_t)16U)
 155:../../../../../../Drivers/STM32L0xx_HAL_Driver/Src/stm32l0xx_hal_gpio.c **** 
 156:../../../../../../Drivers/STM32L0xx_HAL_Driver/Src/stm32l0xx_hal_gpio.c **** /**
 157:../../../../../../Drivers/STM32L0xx_HAL_Driver/Src/stm32l0xx_hal_gpio.c ****   * @}
 158:../../../../../../Drivers/STM32L0xx_HAL_Driver/Src/stm32l0xx_hal_gpio.c ****   */
 159:../../../../../../Drivers/STM32L0xx_HAL_Driver/Src/stm32l0xx_hal_gpio.c **** /** @addtogroup GPIO_Exported_Functions
 160:../../../../../../Drivers/STM32L0xx_HAL_Driver/Src/stm32l0xx_hal_gpio.c ****   * @{
 161:../../../../../../Drivers/STM32L0xx_HAL_Driver/Src/stm32l0xx_hal_gpio.c ****   */
 162:../../../../../../Drivers/STM32L0xx_HAL_Driver/Src/stm32l0xx_hal_gpio.c **** 
 163:../../../../../../Drivers/STM32L0xx_HAL_Driver/Src/stm32l0xx_hal_gpio.c **** /** @addtogroup GPIO_Exported_Functions_Group1
 164:../../../../../../Drivers/STM32L0xx_HAL_Driver/Src/stm32l0xx_hal_gpio.c ****  *  @brief    Initialization and de-initialization functions
 165:../../../../../../Drivers/STM32L0xx_HAL_Driver/Src/stm32l0xx_hal_gpio.c ****  *
 166:../../../../../../Drivers/STM32L0xx_HAL_Driver/Src/stm32l0xx_hal_gpio.c **** @verbatim
 167:../../../../../../Drivers/STM32L0xx_HAL_Driver/Src/stm32l0xx_hal_gpio.c ****  ===============================================================================
 168:../../../../../../Drivers/STM32L0xx_HAL_Driver/Src/stm32l0xx_hal_gpio.c ****               ##### Initialization and de-initialization functions #####
 169:../../../../../../Drivers/STM32L0xx_HAL_Driver/Src/stm32l0xx_hal_gpio.c ****  ===============================================================================
 170:../../../../../../Drivers/STM32L0xx_HAL_Driver/Src/stm32l0xx_hal_gpio.c ****  
 171:../../../../../../Drivers/STM32L0xx_HAL_Driver/Src/stm32l0xx_hal_gpio.c **** @endverbatim
 172:../../../../../../Drivers/STM32L0xx_HAL_Driver/Src/stm32l0xx_hal_gpio.c ****   * @{
 173:../../../../../../Drivers/STM32L0xx_HAL_Driver/Src/stm32l0xx_hal_gpio.c ****   */
 174:../../../../../../Drivers/STM32L0xx_HAL_Driver/Src/stm32l0xx_hal_gpio.c **** 
 175:../../../../../../Drivers/STM32L0xx_HAL_Driver/Src/stm32l0xx_hal_gpio.c **** /**
 176:../../../../../../Drivers/STM32L0xx_HAL_Driver/Src/stm32l0xx_hal_gpio.c ****   * @brief  Initializes the GPIOx peripheral according to the specified parameters in the GPIO_Init
 177:../../../../../../Drivers/STM32L0xx_HAL_Driver/Src/stm32l0xx_hal_gpio.c ****   * @param  GPIOx where x can be (A..E and H) to select the GPIO peripheral for STM32L0XX family de
 178:../../../../../../Drivers/STM32L0xx_HAL_Driver/Src/stm32l0xx_hal_gpio.c ****   *                Note that GPIOE is not available on all devices.
 179:../../../../../../Drivers/STM32L0xx_HAL_Driver/Src/stm32l0xx_hal_gpio.c ****   * @param  GPIO_Init pointer to a GPIO_InitTypeDef structure that contains
 180:../../../../../../Drivers/STM32L0xx_HAL_Driver/Src/stm32l0xx_hal_gpio.c ****   *                    the configuration information for the specified GPIO peripheral.
 181:../../../../../../Drivers/STM32L0xx_HAL_Driver/Src/stm32l0xx_hal_gpio.c ****   * @retval None
 182:../../../../../../Drivers/STM32L0xx_HAL_Driver/Src/stm32l0xx_hal_gpio.c ****   */
 183:../../../../../../Drivers/STM32L0xx_HAL_Driver/Src/stm32l0xx_hal_gpio.c **** void HAL_GPIO_Init(GPIO_TypeDef  *GPIOx, GPIO_InitTypeDef *GPIO_Init)
 184:../../../../../../Drivers/STM32L0xx_HAL_Driver/Src/stm32l0xx_hal_gpio.c **** {
  27              		.loc 1 184 0
  28              		.cfi_startproc
  29              		@ args = 0, pretend = 0, frame = 8
  30              		@ frame_needed = 0, uses_anonymous_args = 0
  31              	.LVL0:
  32 0000 F0B5     		push	{r4, r5, r6, r7, lr}
  33              	.LCFI0:
  34              		.cfi_def_cfa_offset 20
  35              		.cfi_offset 4, -20
  36              		.cfi_offset 5, -16
  37              		.cfi_offset 6, -12
  38              		.cfi_offset 7, -8
  39              		.cfi_offset 14, -4
  40 0002 DE46     		mov	lr, fp
  41 0004 5746     		mov	r7, r10
  42 0006 4E46     		mov	r6, r9
  43 0008 4546     		mov	r5, r8
  44 000a E0B5     		push	{r5, r6, r7, lr}
ARM GAS  C:\Users\EBANO_~1\AppData\Local\Temp\cc7rVnX9.s 			page 5


  45              	.LCFI1:
  46              		.cfi_def_cfa_offset 36
  47              		.cfi_offset 8, -36
  48              		.cfi_offset 9, -32
  49              		.cfi_offset 10, -28
  50              		.cfi_offset 11, -24
 185:../../../../../../Drivers/STM32L0xx_HAL_Driver/Src/stm32l0xx_hal_gpio.c ****   uint32_t position = 0x00U;
 186:../../../../../../Drivers/STM32L0xx_HAL_Driver/Src/stm32l0xx_hal_gpio.c ****   uint32_t iocurrent = 0x00U;
 187:../../../../../../Drivers/STM32L0xx_HAL_Driver/Src/stm32l0xx_hal_gpio.c ****   uint32_t temp = 0x00U;
 188:../../../../../../Drivers/STM32L0xx_HAL_Driver/Src/stm32l0xx_hal_gpio.c ****  
 189:../../../../../../Drivers/STM32L0xx_HAL_Driver/Src/stm32l0xx_hal_gpio.c ****   /* Check the parameters */
 190:../../../../../../Drivers/STM32L0xx_HAL_Driver/Src/stm32l0xx_hal_gpio.c ****   assert_param(IS_GPIO_MODE(GPIO_Init->Mode));
 191:../../../../../../Drivers/STM32L0xx_HAL_Driver/Src/stm32l0xx_hal_gpio.c ****   assert_param(IS_GPIO_PULL(GPIO_Init->Pull));
 192:../../../../../../Drivers/STM32L0xx_HAL_Driver/Src/stm32l0xx_hal_gpio.c ****   assert_param(IS_GPIO_PIN_AVAILABLE(GPIOx,(GPIO_Init->Pin)));
 193:../../../../../../Drivers/STM32L0xx_HAL_Driver/Src/stm32l0xx_hal_gpio.c **** 
 194:../../../../../../Drivers/STM32L0xx_HAL_Driver/Src/stm32l0xx_hal_gpio.c ****   /* Configure the port pins */
 195:../../../../../../Drivers/STM32L0xx_HAL_Driver/Src/stm32l0xx_hal_gpio.c ****   while (((GPIO_Init->Pin) >> position) != 0)
  51              		.loc 1 195 0
  52 000c 0B68     		ldr	r3, [r1]
 184:../../../../../../Drivers/STM32L0xx_HAL_Driver/Src/stm32l0xx_hal_gpio.c ****   uint32_t position = 0x00U;
  53              		.loc 1 184 0
  54 000e 83B0     		sub	sp, sp, #12
  55              	.LCFI2:
  56              		.cfi_def_cfa_offset 48
  57              		.loc 1 195 0
  58 0010 9C46     		mov	ip, r3
  59 0012 002B     		cmp	r3, #0
  60 0014 00D1     		bne	.LCB34
  61 0016 8AE0     		b	.L1	@long jump
  62              	.LCB34:
 196:../../../../../../Drivers/STM32L0xx_HAL_Driver/Src/stm32l0xx_hal_gpio.c ****   {
 197:../../../../../../Drivers/STM32L0xx_HAL_Driver/Src/stm32l0xx_hal_gpio.c ****     /* Get the IO position */
 198:../../../../../../Drivers/STM32L0xx_HAL_Driver/Src/stm32l0xx_hal_gpio.c ****     iocurrent = (GPIO_Init->Pin) & (1U << position);
  63              		.loc 1 198 0
  64 0018 0123     		movs	r3, #1
  65 001a 9A46     		mov	r10, r3
 199:../../../../../../Drivers/STM32L0xx_HAL_Driver/Src/stm32l0xx_hal_gpio.c ****     
 200:../../../../../../Drivers/STM32L0xx_HAL_Driver/Src/stm32l0xx_hal_gpio.c ****     if(iocurrent)
 201:../../../../../../Drivers/STM32L0xx_HAL_Driver/Src/stm32l0xx_hal_gpio.c ****     {
 202:../../../../../../Drivers/STM32L0xx_HAL_Driver/Src/stm32l0xx_hal_gpio.c ****       /*--------------------- GPIO Mode Configuration ------------------------*/
 203:../../../../../../Drivers/STM32L0xx_HAL_Driver/Src/stm32l0xx_hal_gpio.c ****       /* In case of Alternate function mode selection */
 204:../../../../../../Drivers/STM32L0xx_HAL_Driver/Src/stm32l0xx_hal_gpio.c ****       if((GPIO_Init->Mode == GPIO_MODE_AF_PP) || (GPIO_Init->Mode == GPIO_MODE_AF_OD)) 
 205:../../../../../../Drivers/STM32L0xx_HAL_Driver/Src/stm32l0xx_hal_gpio.c ****       {
 206:../../../../../../Drivers/STM32L0xx_HAL_Driver/Src/stm32l0xx_hal_gpio.c ****         /* Check the Alternate function parameters */
 207:../../../../../../Drivers/STM32L0xx_HAL_Driver/Src/stm32l0xx_hal_gpio.c ****         assert_param(IS_GPIO_AF_INSTANCE(GPIOx));
 208:../../../../../../Drivers/STM32L0xx_HAL_Driver/Src/stm32l0xx_hal_gpio.c ****         assert_param(IS_GPIO_AF(GPIO_Init->Alternate));
 209:../../../../../../Drivers/STM32L0xx_HAL_Driver/Src/stm32l0xx_hal_gpio.c **** 
 210:../../../../../../Drivers/STM32L0xx_HAL_Driver/Src/stm32l0xx_hal_gpio.c ****         /* Configure Alternate function mapped with the current IO */ 
 211:../../../../../../Drivers/STM32L0xx_HAL_Driver/Src/stm32l0xx_hal_gpio.c ****         temp = GPIOx->AFR[position >> 3U];
 212:../../../../../../Drivers/STM32L0xx_HAL_Driver/Src/stm32l0xx_hal_gpio.c ****         temp &= ~((uint32_t)0xFU << ((uint32_t)(position & (uint32_t)0x07U) * 4U)) ;
 213:../../../../../../Drivers/STM32L0xx_HAL_Driver/Src/stm32l0xx_hal_gpio.c ****         temp |= ((uint32_t)(GPIO_Init->Alternate) << (((uint32_t)position & (uint32_t)0x07U) * 4U))
 214:../../../../../../Drivers/STM32L0xx_HAL_Driver/Src/stm32l0xx_hal_gpio.c ****         GPIOx->AFR[position >> 3U] = temp;
 215:../../../../../../Drivers/STM32L0xx_HAL_Driver/Src/stm32l0xx_hal_gpio.c ****       } 
 216:../../../../../../Drivers/STM32L0xx_HAL_Driver/Src/stm32l0xx_hal_gpio.c **** 
 217:../../../../../../Drivers/STM32L0xx_HAL_Driver/Src/stm32l0xx_hal_gpio.c ****       /* In case of Output or Alternate function mode selection */
 218:../../../../../../Drivers/STM32L0xx_HAL_Driver/Src/stm32l0xx_hal_gpio.c ****       if((GPIO_Init->Mode == GPIO_MODE_OUTPUT_PP) || (GPIO_Init->Mode == GPIO_MODE_AF_PP) ||
 219:../../../../../../Drivers/STM32L0xx_HAL_Driver/Src/stm32l0xx_hal_gpio.c ****          (GPIO_Init->Mode == GPIO_MODE_OUTPUT_OD) || (GPIO_Init->Mode == GPIO_MODE_AF_OD))
ARM GAS  C:\Users\EBANO_~1\AppData\Local\Temp\cc7rVnX9.s 			page 6


 220:../../../../../../Drivers/STM32L0xx_HAL_Driver/Src/stm32l0xx_hal_gpio.c ****       {
 221:../../../../../../Drivers/STM32L0xx_HAL_Driver/Src/stm32l0xx_hal_gpio.c ****         /* Check the Speed parameter */
 222:../../../../../../Drivers/STM32L0xx_HAL_Driver/Src/stm32l0xx_hal_gpio.c ****         assert_param(IS_GPIO_SPEED(GPIO_Init->Speed));
 223:../../../../../../Drivers/STM32L0xx_HAL_Driver/Src/stm32l0xx_hal_gpio.c ****         /* Configure the IO Speed */
 224:../../../../../../Drivers/STM32L0xx_HAL_Driver/Src/stm32l0xx_hal_gpio.c ****         temp = GPIOx->OSPEEDR;
 225:../../../../../../Drivers/STM32L0xx_HAL_Driver/Src/stm32l0xx_hal_gpio.c ****         temp &= ~(GPIO_OSPEEDER_OSPEED0 << (position * 2U));
 226:../../../../../../Drivers/STM32L0xx_HAL_Driver/Src/stm32l0xx_hal_gpio.c ****         temp |= (GPIO_Init->Speed << (position * 2U));
 227:../../../../../../Drivers/STM32L0xx_HAL_Driver/Src/stm32l0xx_hal_gpio.c ****         GPIOx->OSPEEDR = temp;
 228:../../../../../../Drivers/STM32L0xx_HAL_Driver/Src/stm32l0xx_hal_gpio.c **** 
 229:../../../../../../Drivers/STM32L0xx_HAL_Driver/Src/stm32l0xx_hal_gpio.c ****         /* Configure the IO Output Type */
 230:../../../../../../Drivers/STM32L0xx_HAL_Driver/Src/stm32l0xx_hal_gpio.c ****         temp= GPIOx->OTYPER;
 231:../../../../../../Drivers/STM32L0xx_HAL_Driver/Src/stm32l0xx_hal_gpio.c ****         temp &= ~(GPIO_OTYPER_OT_0 << position) ;
 232:../../../../../../Drivers/STM32L0xx_HAL_Driver/Src/stm32l0xx_hal_gpio.c ****         temp |= (((GPIO_Init->Mode & GPIO_OUTPUT_TYPE) >> 4U) << position);
 233:../../../../../../Drivers/STM32L0xx_HAL_Driver/Src/stm32l0xx_hal_gpio.c ****         GPIOx->OTYPER = temp;
 234:../../../../../../Drivers/STM32L0xx_HAL_Driver/Src/stm32l0xx_hal_gpio.c ****       }
 235:../../../../../../Drivers/STM32L0xx_HAL_Driver/Src/stm32l0xx_hal_gpio.c **** 
 236:../../../../../../Drivers/STM32L0xx_HAL_Driver/Src/stm32l0xx_hal_gpio.c ****       /* Configure IO Direction mode (Input, Output, Alternate or Analog) */
 237:../../../../../../Drivers/STM32L0xx_HAL_Driver/Src/stm32l0xx_hal_gpio.c ****       temp = GPIOx->MODER;
 238:../../../../../../Drivers/STM32L0xx_HAL_Driver/Src/stm32l0xx_hal_gpio.c ****       temp &= ~(GPIO_MODER_MODE0 << (position * 2U));
 239:../../../../../../Drivers/STM32L0xx_HAL_Driver/Src/stm32l0xx_hal_gpio.c ****       temp |= ((GPIO_Init->Mode & GPIO_MODE) << (position * 2U));
 240:../../../../../../Drivers/STM32L0xx_HAL_Driver/Src/stm32l0xx_hal_gpio.c ****       GPIOx->MODER = temp;
 241:../../../../../../Drivers/STM32L0xx_HAL_Driver/Src/stm32l0xx_hal_gpio.c **** 
 242:../../../../../../Drivers/STM32L0xx_HAL_Driver/Src/stm32l0xx_hal_gpio.c ****       /* Activate the Pull-up or Pull down resistor for the current IO */
 243:../../../../../../Drivers/STM32L0xx_HAL_Driver/Src/stm32l0xx_hal_gpio.c ****       temp = GPIOx->PUPDR;
 244:../../../../../../Drivers/STM32L0xx_HAL_Driver/Src/stm32l0xx_hal_gpio.c ****       temp &= ~(GPIO_PUPDR_PUPD0 << (position * 2U));
 245:../../../../../../Drivers/STM32L0xx_HAL_Driver/Src/stm32l0xx_hal_gpio.c ****       temp |= ((GPIO_Init->Pull) << (position * 2U)); 
 246:../../../../../../Drivers/STM32L0xx_HAL_Driver/Src/stm32l0xx_hal_gpio.c ****       GPIOx->PUPDR = temp;
 247:../../../../../../Drivers/STM32L0xx_HAL_Driver/Src/stm32l0xx_hal_gpio.c **** 
 248:../../../../../../Drivers/STM32L0xx_HAL_Driver/Src/stm32l0xx_hal_gpio.c ****       /*--------------------- EXTI Mode Configuration ------------------------*/
 249:../../../../../../Drivers/STM32L0xx_HAL_Driver/Src/stm32l0xx_hal_gpio.c ****       /* Configure the External Interrupt or event for the current IO */
 250:../../../../../../Drivers/STM32L0xx_HAL_Driver/Src/stm32l0xx_hal_gpio.c ****       if((GPIO_Init->Mode & EXTI_MODE) == EXTI_MODE) 
 251:../../../../../../Drivers/STM32L0xx_HAL_Driver/Src/stm32l0xx_hal_gpio.c ****       {
 252:../../../../../../Drivers/STM32L0xx_HAL_Driver/Src/stm32l0xx_hal_gpio.c ****         /* Enable SYSCFG Clock */
 253:../../../../../../Drivers/STM32L0xx_HAL_Driver/Src/stm32l0xx_hal_gpio.c ****         __HAL_RCC_SYSCFG_CLK_ENABLE();
 254:../../../../../../Drivers/STM32L0xx_HAL_Driver/Src/stm32l0xx_hal_gpio.c ****         
 255:../../../../../../Drivers/STM32L0xx_HAL_Driver/Src/stm32l0xx_hal_gpio.c ****         temp = SYSCFG->EXTICR[position >> 2U];
 256:../../../../../../Drivers/STM32L0xx_HAL_Driver/Src/stm32l0xx_hal_gpio.c ****         CLEAR_BIT(temp, ((uint32_t)0x0FU) << (4U * (position & 0x03U)));
 257:../../../../../../Drivers/STM32L0xx_HAL_Driver/Src/stm32l0xx_hal_gpio.c ****         SET_BIT(temp, (GPIO_GET_INDEX(GPIOx)) << (4 * (position & 0x03U)));
 258:../../../../../../Drivers/STM32L0xx_HAL_Driver/Src/stm32l0xx_hal_gpio.c ****         SYSCFG->EXTICR[position >> 2U] = temp;
 259:../../../../../../Drivers/STM32L0xx_HAL_Driver/Src/stm32l0xx_hal_gpio.c ****                   
 260:../../../../../../Drivers/STM32L0xx_HAL_Driver/Src/stm32l0xx_hal_gpio.c ****         /* Clear EXTI line configuration */
 261:../../../../../../Drivers/STM32L0xx_HAL_Driver/Src/stm32l0xx_hal_gpio.c ****         temp = EXTI->IMR;
  66              		.loc 1 261 0
  67 001c 6B4B     		ldr	r3, .L36
 185:../../../../../../Drivers/STM32L0xx_HAL_Driver/Src/stm32l0xx_hal_gpio.c ****   uint32_t iocurrent = 0x00U;
  68              		.loc 1 185 0
  69 001e 0022     		movs	r2, #0
  70              		.loc 1 261 0
  71 0020 9846     		mov	r8, r3
  72 0022 6346     		mov	r3, ip
  73 0024 0191     		str	r1, [sp, #4]
  74 0026 0093     		str	r3, [sp]
  75              	.LVL1:
  76              	.L23:
 198:../../../../../../Drivers/STM32L0xx_HAL_Driver/Src/stm32l0xx_hal_gpio.c ****     
  77              		.loc 1 198 0
  78 0028 5446     		mov	r4, r10
ARM GAS  C:\Users\EBANO_~1\AppData\Local\Temp\cc7rVnX9.s 			page 7


  79 002a 9440     		lsls	r4, r4, r2
  80 002c 009D     		ldr	r5, [sp]
  81 002e 2540     		ands	r5, r4
  82              	.LVL2:
 200:../../../../../../Drivers/STM32L0xx_HAL_Driver/Src/stm32l0xx_hal_gpio.c ****     {
  83              		.loc 1 200 0
  84 0030 78D0     		beq	.L4
 204:../../../../../../Drivers/STM32L0xx_HAL_Driver/Src/stm32l0xx_hal_gpio.c ****       {
  85              		.loc 1 204 0
  86 0032 019B     		ldr	r3, [sp, #4]
  87 0034 1027     		movs	r7, #16
  88 0036 5B68     		ldr	r3, [r3, #4]
  89 0038 1900     		movs	r1, r3
  90 003a B943     		bics	r1, r7
  91 003c 8946     		mov	r9, r1
  92 003e 0229     		cmp	r1, #2
  93 0040 00D1     		bne	.LCB70
  94 0042 7BE0     		b	.L33	@long jump
  95              	.LCB70:
  96 0044 5100     		lsls	r1, r2, #1
  97 0046 8C46     		mov	ip, r1
  98 0048 0321     		movs	r1, #3
  99 004a 6646     		mov	r6, ip
 100 004c B140     		lsls	r1, r1, r6
 218:../../../../../../Drivers/STM32L0xx_HAL_Driver/Src/stm32l0xx_hal_gpio.c ****          (GPIO_Init->Mode == GPIO_MODE_OUTPUT_OD) || (GPIO_Init->Mode == GPIO_MODE_AF_OD))
 101              		.loc 1 218 0
 102 004e 0126     		movs	r6, #1
 103 0050 7642     		rsbs	r6, r6, #0
 104 0052 B346     		mov	fp, r6
 105 0054 D944     		add	r9, r9, fp
 106 0056 4E46     		mov	r6, r9
 107 0058 C943     		mvns	r1, r1
 108 005a 012E     		cmp	r6, #1
 109 005c 00D8     		bhi	.LCB83
 110 005e 8DE0     		b	.L6	@long jump
 111              	.LCB83:
 112              	.L7:
 237:../../../../../../Drivers/STM32L0xx_HAL_Driver/Src/stm32l0xx_hal_gpio.c ****       temp &= ~(GPIO_MODER_MODE0 << (position * 2U));
 113              		.loc 1 237 0
 114 0060 0468     		ldr	r4, [r0]
 115              	.LVL3:
 239:../../../../../../Drivers/STM32L0xx_HAL_Driver/Src/stm32l0xx_hal_gpio.c ****       GPIOx->MODER = temp;
 116              		.loc 1 239 0
 117 0062 6746     		mov	r7, ip
 238:../../../../../../Drivers/STM32L0xx_HAL_Driver/Src/stm32l0xx_hal_gpio.c ****       temp |= ((GPIO_Init->Mode & GPIO_MODE) << (position * 2U));
 118              		.loc 1 238 0
 119 0064 0C40     		ands	r4, r1
 120              	.LVL4:
 121 0066 A146     		mov	r9, r4
 122              	.LVL5:
 239:../../../../../../Drivers/STM32L0xx_HAL_Driver/Src/stm32l0xx_hal_gpio.c ****       GPIOx->MODER = temp;
 123              		.loc 1 239 0
 124 0068 0324     		movs	r4, #3
 125              	.LVL6:
 126 006a 1C40     		ands	r4, r3
 127 006c BC40     		lsls	r4, r4, r7
 128 006e 4F46     		mov	r7, r9
ARM GAS  C:\Users\EBANO_~1\AppData\Local\Temp\cc7rVnX9.s 			page 8


 129 0070 3C43     		orrs	r4, r7
 130              	.LVL7:
 245:../../../../../../Drivers/STM32L0xx_HAL_Driver/Src/stm32l0xx_hal_gpio.c ****       GPIOx->PUPDR = temp;
 131              		.loc 1 245 0
 132 0072 6746     		mov	r7, ip
 240:../../../../../../Drivers/STM32L0xx_HAL_Driver/Src/stm32l0xx_hal_gpio.c **** 
 133              		.loc 1 240 0
 134 0074 0460     		str	r4, [r0]
 243:../../../../../../Drivers/STM32L0xx_HAL_Driver/Src/stm32l0xx_hal_gpio.c ****       temp &= ~(GPIO_PUPDR_PUPD0 << (position * 2U));
 135              		.loc 1 243 0
 136 0076 C468     		ldr	r4, [r0, #12]
 137              	.LVL8:
 244:../../../../../../Drivers/STM32L0xx_HAL_Driver/Src/stm32l0xx_hal_gpio.c ****       temp |= ((GPIO_Init->Pull) << (position * 2U)); 
 138              		.loc 1 244 0
 139 0078 0C40     		ands	r4, r1
 140              	.LVL9:
 245:../../../../../../Drivers/STM32L0xx_HAL_Driver/Src/stm32l0xx_hal_gpio.c ****       GPIOx->PUPDR = temp;
 141              		.loc 1 245 0
 142 007a 0199     		ldr	r1, [sp, #4]
 143 007c 8968     		ldr	r1, [r1, #8]
 144 007e B940     		lsls	r1, r1, r7
 145 0080 2143     		orrs	r1, r4
 146              	.LVL10:
 246:../../../../../../Drivers/STM32L0xx_HAL_Driver/Src/stm32l0xx_hal_gpio.c **** 
 147              		.loc 1 246 0
 148 0082 C160     		str	r1, [r0, #12]
 250:../../../../../../Drivers/STM32L0xx_HAL_Driver/Src/stm32l0xx_hal_gpio.c ****       {
 149              		.loc 1 250 0
 150 0084 8021     		movs	r1, #128
 151              	.LVL11:
 152 0086 4905     		lsls	r1, r1, #21
 153 0088 0B42     		tst	r3, r1
 154 008a 4BD0     		beq	.L4
 253:../../../../../../Drivers/STM32L0xx_HAL_Driver/Src/stm32l0xx_hal_gpio.c ****         
 155              		.loc 1 253 0
 156 008c 5646     		mov	r6, r10
 256:../../../../../../Drivers/STM32L0xx_HAL_Driver/Src/stm32l0xx_hal_gpio.c ****         SET_BIT(temp, (GPIO_GET_INDEX(GPIOx)) << (4 * (position & 0x03U)));
 157              		.loc 1 256 0
 158 008e 0327     		movs	r7, #3
 253:../../../../../../Drivers/STM32L0xx_HAL_Driver/Src/stm32l0xx_hal_gpio.c ****         
 159              		.loc 1 253 0
 160 0090 4F4C     		ldr	r4, .L36+4
 256:../../../../../../Drivers/STM32L0xx_HAL_Driver/Src/stm32l0xx_hal_gpio.c ****         SET_BIT(temp, (GPIO_GET_INDEX(GPIOx)) << (4 * (position & 0x03U)));
 161              		.loc 1 256 0
 162 0092 1740     		ands	r7, r2
 253:../../../../../../Drivers/STM32L0xx_HAL_Driver/Src/stm32l0xx_hal_gpio.c ****         
 163              		.loc 1 253 0
 164 0094 616B     		ldr	r1, [r4, #52]
 165 0096 3143     		orrs	r1, r6
 166 0098 6163     		str	r1, [r4, #52]
 167              	.LVL12:
 168 009a 4E4C     		ldr	r4, .L36+8
 256:../../../../../../Drivers/STM32L0xx_HAL_Driver/Src/stm32l0xx_hal_gpio.c ****         SET_BIT(temp, (GPIO_GET_INDEX(GPIOx)) << (4 * (position & 0x03U)));
 169              		.loc 1 256 0
 170 009c BE00     		lsls	r6, r7, #2
 171 009e A446     		mov	ip, r4
 172 00a0 0F27     		movs	r7, #15
ARM GAS  C:\Users\EBANO_~1\AppData\Local\Temp\cc7rVnX9.s 			page 9


 255:../../../../../../Drivers/STM32L0xx_HAL_Driver/Src/stm32l0xx_hal_gpio.c ****         CLEAR_BIT(temp, ((uint32_t)0x0FU) << (4U * (position & 0x03U)));
 173              		.loc 1 255 0
 174 00a2 9108     		lsrs	r1, r2, #2
 175 00a4 8900     		lsls	r1, r1, #2
 176 00a6 6144     		add	r1, r1, ip
 256:../../../../../../Drivers/STM32L0xx_HAL_Driver/Src/stm32l0xx_hal_gpio.c ****         SET_BIT(temp, (GPIO_GET_INDEX(GPIOx)) << (4 * (position & 0x03U)));
 177              		.loc 1 256 0
 178 00a8 B740     		lsls	r7, r7, r6
 179 00aa B446     		mov	ip, r6
 257:../../../../../../Drivers/STM32L0xx_HAL_Driver/Src/stm32l0xx_hal_gpio.c ****         SYSCFG->EXTICR[position >> 2U] = temp;
 180              		.loc 1 257 0
 181 00ac A026     		movs	r6, #160
 255:../../../../../../Drivers/STM32L0xx_HAL_Driver/Src/stm32l0xx_hal_gpio.c ****         CLEAR_BIT(temp, ((uint32_t)0x0FU) << (4U * (position & 0x03U)));
 182              		.loc 1 255 0
 183 00ae 8C68     		ldr	r4, [r1, #8]
 184              	.LVL13:
 257:../../../../../../Drivers/STM32L0xx_HAL_Driver/Src/stm32l0xx_hal_gpio.c ****         SYSCFG->EXTICR[position >> 2U] = temp;
 185              		.loc 1 257 0
 186 00b0 F605     		lsls	r6, r6, #23
 256:../../../../../../Drivers/STM32L0xx_HAL_Driver/Src/stm32l0xx_hal_gpio.c ****         SET_BIT(temp, (GPIO_GET_INDEX(GPIOx)) << (4 * (position & 0x03U)));
 187              		.loc 1 256 0
 188 00b2 BC43     		bics	r4, r7
 189              	.LVL14:
 257:../../../../../../Drivers/STM32L0xx_HAL_Driver/Src/stm32l0xx_hal_gpio.c ****         SYSCFG->EXTICR[position >> 2U] = temp;
 190              		.loc 1 257 0
 191 00b4 B042     		cmp	r0, r6
 192 00b6 1AD0     		beq	.L9
 257:../../../../../../Drivers/STM32L0xx_HAL_Driver/Src/stm32l0xx_hal_gpio.c ****         SYSCFG->EXTICR[position >> 2U] = temp;
 193              		.loc 1 257 0 is_stmt 0 discriminator 1
 194 00b8 474E     		ldr	r6, .L36+12
 195 00ba B042     		cmp	r0, r6
 196 00bc 00D1     		bne	.LCB151
 197 00be 7BE0     		b	.L34	@long jump
 198              	.LCB151:
 257:../../../../../../Drivers/STM32L0xx_HAL_Driver/Src/stm32l0xx_hal_gpio.c ****         SYSCFG->EXTICR[position >> 2U] = temp;
 199              		.loc 1 257 0 discriminator 3
 200 00c0 464E     		ldr	r6, .L36+16
 201 00c2 B146     		mov	r9, r6
 202 00c4 0226     		movs	r6, #2
 203 00c6 4845     		cmp	r0, r9
 204 00c8 0ED0     		beq	.L31
 257:../../../../../../Drivers/STM32L0xx_HAL_Driver/Src/stm32l0xx_hal_gpio.c ****         SYSCFG->EXTICR[position >> 2U] = temp;
 205              		.loc 1 257 0 discriminator 5
 206 00ca 454E     		ldr	r6, .L36+20
 207 00cc B042     		cmp	r0, r6
 208 00ce 00D1     		bne	.LCB159
 209 00d0 77E0     		b	.L35	@long jump
 210              	.LCB159:
 257:../../../../../../Drivers/STM32L0xx_HAL_Driver/Src/stm32l0xx_hal_gpio.c ****         SYSCFG->EXTICR[position >> 2U] = temp;
 211              		.loc 1 257 0 discriminator 7
 212 00d2 444E     		ldr	r6, .L36+24
 213 00d4 B146     		mov	r9, r6
 214 00d6 0426     		movs	r6, #4
 215 00d8 4845     		cmp	r0, r9
 216 00da 05D0     		beq	.L31
 257:../../../../../../Drivers/STM32L0xx_HAL_Driver/Src/stm32l0xx_hal_gpio.c ****         SYSCFG->EXTICR[position >> 2U] = temp;
 217              		.loc 1 257 0 discriminator 9
ARM GAS  C:\Users\EBANO_~1\AppData\Local\Temp\cc7rVnX9.s 			page 10


 218 00dc 424E     		ldr	r6, .L36+28
 219 00de B146     		mov	r9, r6
 220 00e0 0526     		movs	r6, #5
 221 00e2 4845     		cmp	r0, r9
 222 00e4 00D0     		beq	.L31
 223 00e6 0626     		movs	r6, #6
 224              	.L31:
 225 00e8 6746     		mov	r7, ip
 226 00ea BE40     		lsls	r6, r6, r7
 227 00ec 3443     		orrs	r4, r6
 228              	.LVL15:
 229              	.L9:
 258:../../../../../../Drivers/STM32L0xx_HAL_Driver/Src/stm32l0xx_hal_gpio.c ****                   
 230              		.loc 1 258 0 is_stmt 1 discriminator 24
 231 00ee 8C60     		str	r4, [r1, #8]
 232              		.loc 1 261 0 discriminator 24
 233 00f0 4146     		mov	r1, r8
 262:../../../../../../Drivers/STM32L0xx_HAL_Driver/Src/stm32l0xx_hal_gpio.c ****         temp &= ~((uint32_t)iocurrent);
 234              		.loc 1 262 0 discriminator 24
 235 00f2 EC43     		mvns	r4, r5
 261:../../../../../../Drivers/STM32L0xx_HAL_Driver/Src/stm32l0xx_hal_gpio.c ****         temp &= ~((uint32_t)iocurrent);
 236              		.loc 1 261 0 discriminator 24
 237 00f4 0968     		ldr	r1, [r1]
 238              	.LVL16:
 263:../../../../../../Drivers/STM32L0xx_HAL_Driver/Src/stm32l0xx_hal_gpio.c ****         if((GPIO_Init->Mode & GPIO_MODE_IT) == GPIO_MODE_IT)
 239              		.loc 1 263 0 discriminator 24
 240 00f6 DE03     		lsls	r6, r3, #15
 241 00f8 5CD4     		bmi	.L15
 262:../../../../../../Drivers/STM32L0xx_HAL_Driver/Src/stm32l0xx_hal_gpio.c ****         temp &= ~((uint32_t)iocurrent);
 242              		.loc 1 262 0
 243 00fa 2140     		ands	r1, r4
 244              	.LVL17:
 245              	.L16:
 264:../../../../../../Drivers/STM32L0xx_HAL_Driver/Src/stm32l0xx_hal_gpio.c ****         {
 265:../../../../../../Drivers/STM32L0xx_HAL_Driver/Src/stm32l0xx_hal_gpio.c ****           temp |= iocurrent;
 266:../../../../../../Drivers/STM32L0xx_HAL_Driver/Src/stm32l0xx_hal_gpio.c ****         }
 267:../../../../../../Drivers/STM32L0xx_HAL_Driver/Src/stm32l0xx_hal_gpio.c ****         EXTI->IMR = temp;
 246              		.loc 1 267 0
 247 00fc 4646     		mov	r6, r8
 248 00fe 3160     		str	r1, [r6]
 268:../../../../../../Drivers/STM32L0xx_HAL_Driver/Src/stm32l0xx_hal_gpio.c **** 
 269:../../../../../../Drivers/STM32L0xx_HAL_Driver/Src/stm32l0xx_hal_gpio.c ****         temp = EXTI->EMR;
 249              		.loc 1 269 0
 250 0100 7168     		ldr	r1, [r6, #4]
 251              	.LVL18:
 270:../../../../../../Drivers/STM32L0xx_HAL_Driver/Src/stm32l0xx_hal_gpio.c ****         temp &= ~((uint32_t)iocurrent);
 271:../../../../../../Drivers/STM32L0xx_HAL_Driver/Src/stm32l0xx_hal_gpio.c ****         if((GPIO_Init->Mode & GPIO_MODE_EVT) == GPIO_MODE_EVT)
 252              		.loc 1 271 0
 253 0102 9E03     		lsls	r6, r3, #14
 254 0104 54D4     		bmi	.L17
 270:../../../../../../Drivers/STM32L0xx_HAL_Driver/Src/stm32l0xx_hal_gpio.c ****         temp &= ~((uint32_t)iocurrent);
 255              		.loc 1 270 0
 256 0106 2140     		ands	r1, r4
 257              	.LVL19:
 258              	.L18:
 272:../../../../../../Drivers/STM32L0xx_HAL_Driver/Src/stm32l0xx_hal_gpio.c ****         {
 273:../../../../../../Drivers/STM32L0xx_HAL_Driver/Src/stm32l0xx_hal_gpio.c ****           temp |= iocurrent;
ARM GAS  C:\Users\EBANO_~1\AppData\Local\Temp\cc7rVnX9.s 			page 11


 274:../../../../../../Drivers/STM32L0xx_HAL_Driver/Src/stm32l0xx_hal_gpio.c ****         }
 275:../../../../../../Drivers/STM32L0xx_HAL_Driver/Src/stm32l0xx_hal_gpio.c ****         EXTI->EMR = temp;
 259              		.loc 1 275 0
 260 0108 4646     		mov	r6, r8
 261 010a 7160     		str	r1, [r6, #4]
 276:../../../../../../Drivers/STM32L0xx_HAL_Driver/Src/stm32l0xx_hal_gpio.c **** 
 277:../../../../../../Drivers/STM32L0xx_HAL_Driver/Src/stm32l0xx_hal_gpio.c ****         /* Clear Rising Falling edge configuration */
 278:../../../../../../Drivers/STM32L0xx_HAL_Driver/Src/stm32l0xx_hal_gpio.c ****         temp = EXTI->RTSR;
 262              		.loc 1 278 0
 263 010c B168     		ldr	r1, [r6, #8]
 264              	.LVL20:
 279:../../../../../../Drivers/STM32L0xx_HAL_Driver/Src/stm32l0xx_hal_gpio.c ****         temp &= ~((uint32_t)iocurrent);
 280:../../../../../../Drivers/STM32L0xx_HAL_Driver/Src/stm32l0xx_hal_gpio.c ****         if((GPIO_Init->Mode & RISING_EDGE) == RISING_EDGE)
 265              		.loc 1 280 0
 266 010e DE02     		lsls	r6, r3, #11
 267 0110 4CD4     		bmi	.L19
 279:../../../../../../Drivers/STM32L0xx_HAL_Driver/Src/stm32l0xx_hal_gpio.c ****         temp &= ~((uint32_t)iocurrent);
 268              		.loc 1 279 0
 269 0112 2140     		ands	r1, r4
 270              	.LVL21:
 271              	.L20:
 281:../../../../../../Drivers/STM32L0xx_HAL_Driver/Src/stm32l0xx_hal_gpio.c ****         {
 282:../../../../../../Drivers/STM32L0xx_HAL_Driver/Src/stm32l0xx_hal_gpio.c ****           temp |= iocurrent;
 283:../../../../../../Drivers/STM32L0xx_HAL_Driver/Src/stm32l0xx_hal_gpio.c ****         }
 284:../../../../../../Drivers/STM32L0xx_HAL_Driver/Src/stm32l0xx_hal_gpio.c ****         EXTI->RTSR = temp;
 272              		.loc 1 284 0
 273 0114 4646     		mov	r6, r8
 274 0116 B160     		str	r1, [r6, #8]
 285:../../../../../../Drivers/STM32L0xx_HAL_Driver/Src/stm32l0xx_hal_gpio.c **** 
 286:../../../../../../Drivers/STM32L0xx_HAL_Driver/Src/stm32l0xx_hal_gpio.c ****         temp = EXTI->FTSR;
 275              		.loc 1 286 0
 276 0118 F168     		ldr	r1, [r6, #12]
 277              	.LVL22:
 287:../../../../../../Drivers/STM32L0xx_HAL_Driver/Src/stm32l0xx_hal_gpio.c ****         temp &= ~((uint32_t)iocurrent);
 288:../../../../../../Drivers/STM32L0xx_HAL_Driver/Src/stm32l0xx_hal_gpio.c ****         if((GPIO_Init->Mode & FALLING_EDGE) == FALLING_EDGE)
 278              		.loc 1 288 0
 279 011a 9B02     		lsls	r3, r3, #10
 280 011c 44D4     		bmi	.L21
 287:../../../../../../Drivers/STM32L0xx_HAL_Driver/Src/stm32l0xx_hal_gpio.c ****         temp &= ~((uint32_t)iocurrent);
 281              		.loc 1 287 0
 282 011e 2140     		ands	r1, r4
 283              	.LVL23:
 284              	.L22:
 289:../../../../../../Drivers/STM32L0xx_HAL_Driver/Src/stm32l0xx_hal_gpio.c ****         {
 290:../../../../../../Drivers/STM32L0xx_HAL_Driver/Src/stm32l0xx_hal_gpio.c ****           temp |= iocurrent;
 291:../../../../../../Drivers/STM32L0xx_HAL_Driver/Src/stm32l0xx_hal_gpio.c ****         }
 292:../../../../../../Drivers/STM32L0xx_HAL_Driver/Src/stm32l0xx_hal_gpio.c ****         EXTI->FTSR = temp;
 285              		.loc 1 292 0
 286 0120 4346     		mov	r3, r8
 287 0122 D960     		str	r1, [r3, #12]
 288              	.LVL24:
 289              	.L4:
 195:../../../../../../Drivers/STM32L0xx_HAL_Driver/Src/stm32l0xx_hal_gpio.c ****   {
 290              		.loc 1 195 0
 291 0124 009B     		ldr	r3, [sp]
 293:../../../../../../Drivers/STM32L0xx_HAL_Driver/Src/stm32l0xx_hal_gpio.c ****       }
 294:../../../../../../Drivers/STM32L0xx_HAL_Driver/Src/stm32l0xx_hal_gpio.c ****     }
ARM GAS  C:\Users\EBANO_~1\AppData\Local\Temp\cc7rVnX9.s 			page 12


 295:../../../../../../Drivers/STM32L0xx_HAL_Driver/Src/stm32l0xx_hal_gpio.c ****     position++;
 292              		.loc 1 295 0
 293 0126 0132     		adds	r2, r2, #1
 294              	.LVL25:
 195:../../../../../../Drivers/STM32L0xx_HAL_Driver/Src/stm32l0xx_hal_gpio.c ****   {
 295              		.loc 1 195 0
 296 0128 D340     		lsrs	r3, r3, r2
 297 012a 00D0     		beq	.LCB257
 298 012c 7CE7     		b	.L23	@long jump
 299              	.LCB257:
 300              	.LVL26:
 301              	.L1:
 296:../../../../../../Drivers/STM32L0xx_HAL_Driver/Src/stm32l0xx_hal_gpio.c ****   }
 297:../../../../../../Drivers/STM32L0xx_HAL_Driver/Src/stm32l0xx_hal_gpio.c **** }
 302              		.loc 1 297 0
 303 012e 03B0     		add	sp, sp, #12
 304              		@ sp needed
 305 0130 3CBC     		pop	{r2, r3, r4, r5}
 306 0132 9046     		mov	r8, r2
 307 0134 9946     		mov	r9, r3
 308 0136 A246     		mov	r10, r4
 309 0138 AB46     		mov	fp, r5
 310 013a F0BD     		pop	{r4, r5, r6, r7, pc}
 311              	.LVL27:
 312              	.L33:
 211:../../../../../../Drivers/STM32L0xx_HAL_Driver/Src/stm32l0xx_hal_gpio.c ****         temp &= ~((uint32_t)0xFU << ((uint32_t)(position & (uint32_t)0x07U) * 4U)) ;
 313              		.loc 1 211 0
 314 013c D108     		lsrs	r1, r2, #3
 315 013e 8900     		lsls	r1, r1, #2
 316 0140 4118     		adds	r1, r0, r1
 317 0142 0E6A     		ldr	r6, [r1, #32]
 318 0144 B146     		mov	r9, r6
 319              	.LVL28:
 212:../../../../../../Drivers/STM32L0xx_HAL_Driver/Src/stm32l0xx_hal_gpio.c ****         temp |= ((uint32_t)(GPIO_Init->Alternate) << (((uint32_t)position & (uint32_t)0x07U) * 4U))
 320              		.loc 1 212 0
 321 0146 0726     		movs	r6, #7
 322              	.LVL29:
 323 0148 3700     		movs	r7, r6
 324 014a 1740     		ands	r7, r2
 325 014c BE00     		lsls	r6, r7, #2
 326 014e 0F27     		movs	r7, #15
 327 0150 B740     		lsls	r7, r7, r6
 328 0152 BB46     		mov	fp, r7
 329 0154 B446     		mov	ip, r6
 330 0156 4F46     		mov	r7, r9
 331 0158 5E46     		mov	r6, fp
 332 015a B743     		bics	r7, r6
 213:../../../../../../Drivers/STM32L0xx_HAL_Driver/Src/stm32l0xx_hal_gpio.c ****         GPIOx->AFR[position >> 3U] = temp;
 333              		.loc 1 213 0
 334 015c 019E     		ldr	r6, [sp, #4]
 212:../../../../../../Drivers/STM32L0xx_HAL_Driver/Src/stm32l0xx_hal_gpio.c ****         temp |= ((uint32_t)(GPIO_Init->Alternate) << (((uint32_t)position & (uint32_t)0x07U) * 4U))
 335              		.loc 1 212 0
 336 015e B946     		mov	r9, r7
 337              	.LVL30:
 213:../../../../../../Drivers/STM32L0xx_HAL_Driver/Src/stm32l0xx_hal_gpio.c ****         GPIOx->AFR[position >> 3U] = temp;
 338              		.loc 1 213 0
 339 0160 3769     		ldr	r7, [r6, #16]
ARM GAS  C:\Users\EBANO_~1\AppData\Local\Temp\cc7rVnX9.s 			page 13


 340              	.LVL31:
 341 0162 6646     		mov	r6, ip
 342 0164 B740     		lsls	r7, r7, r6
 343 0166 BC46     		mov	ip, r7
 344 0168 4F46     		mov	r7, r9
 345 016a 6646     		mov	r6, ip
 346 016c 3743     		orrs	r7, r6
 347              	.LVL32:
 214:../../../../../../Drivers/STM32L0xx_HAL_Driver/Src/stm32l0xx_hal_gpio.c ****       } 
 348              		.loc 1 214 0
 349 016e 0F62     		str	r7, [r1, #32]
 350 0170 5100     		lsls	r1, r2, #1
 351 0172 8C46     		mov	ip, r1
 352 0174 0321     		movs	r1, #3
 353 0176 6646     		mov	r6, ip
 354 0178 B140     		lsls	r1, r1, r6
 355 017a C943     		mvns	r1, r1
 356              	.LVL33:
 357              	.L6:
 224:../../../../../../Drivers/STM32L0xx_HAL_Driver/Src/stm32l0xx_hal_gpio.c ****         temp &= ~(GPIO_OSPEEDER_OSPEED0 << (position * 2U));
 358              		.loc 1 224 0
 359 017c 8768     		ldr	r7, [r0, #8]
 360              	.LVL34:
 226:../../../../../../Drivers/STM32L0xx_HAL_Driver/Src/stm32l0xx_hal_gpio.c ****         GPIOx->OSPEEDR = temp;
 361              		.loc 1 226 0
 362 017e 019E     		ldr	r6, [sp, #4]
 225:../../../../../../Drivers/STM32L0xx_HAL_Driver/Src/stm32l0xx_hal_gpio.c ****         temp |= (GPIO_Init->Speed << (position * 2U));
 363              		.loc 1 225 0
 364 0180 0F40     		ands	r7, r1
 365              	.LVL35:
 366 0182 BB46     		mov	fp, r7
 367              	.LVL36:
 226:../../../../../../Drivers/STM32L0xx_HAL_Driver/Src/stm32l0xx_hal_gpio.c ****         GPIOx->OSPEEDR = temp;
 368              		.loc 1 226 0
 369 0184 F768     		ldr	r7, [r6, #12]
 370              	.LVL37:
 371 0186 6646     		mov	r6, ip
 372 0188 B740     		lsls	r7, r7, r6
 373 018a B946     		mov	r9, r7
 374 018c 5F46     		mov	r7, fp
 375 018e 4E46     		mov	r6, r9
 376 0190 3743     		orrs	r7, r6
 377              	.LVL38:
 227:../../../../../../Drivers/STM32L0xx_HAL_Driver/Src/stm32l0xx_hal_gpio.c **** 
 378              		.loc 1 227 0
 379 0192 8760     		str	r7, [r0, #8]
 230:../../../../../../Drivers/STM32L0xx_HAL_Driver/Src/stm32l0xx_hal_gpio.c ****         temp &= ~(GPIO_OTYPER_OT_0 << position) ;
 380              		.loc 1 230 0
 381 0194 4668     		ldr	r6, [r0, #4]
 382              	.LVL39:
 231:../../../../../../Drivers/STM32L0xx_HAL_Driver/Src/stm32l0xx_hal_gpio.c ****         temp |= (((GPIO_Init->Mode & GPIO_OUTPUT_TYPE) >> 4U) << position);
 383              		.loc 1 231 0
 384 0196 3700     		movs	r7, r6
 232:../../../../../../Drivers/STM32L0xx_HAL_Driver/Src/stm32l0xx_hal_gpio.c ****         GPIOx->OTYPER = temp;
 385              		.loc 1 232 0
 386 0198 5646     		mov	r6, r10
 387              	.LVL40:
ARM GAS  C:\Users\EBANO_~1\AppData\Local\Temp\cc7rVnX9.s 			page 14


 231:../../../../../../Drivers/STM32L0xx_HAL_Driver/Src/stm32l0xx_hal_gpio.c ****         temp |= (((GPIO_Init->Mode & GPIO_OUTPUT_TYPE) >> 4U) << position);
 388              		.loc 1 231 0
 389 019a A743     		bics	r7, r4
 390              	.LVL41:
 232:../../../../../../Drivers/STM32L0xx_HAL_Driver/Src/stm32l0xx_hal_gpio.c ****         GPIOx->OTYPER = temp;
 391              		.loc 1 232 0
 392 019c 1C09     		lsrs	r4, r3, #4
 393 019e 3440     		ands	r4, r6
 394 01a0 9440     		lsls	r4, r4, r2
 395 01a2 3C43     		orrs	r4, r7
 396              	.LVL42:
 233:../../../../../../Drivers/STM32L0xx_HAL_Driver/Src/stm32l0xx_hal_gpio.c ****       }
 397              		.loc 1 233 0
 398 01a4 4460     		str	r4, [r0, #4]
 399 01a6 5BE7     		b	.L7
 400              	.LVL43:
 401              	.L21:
 290:../../../../../../Drivers/STM32L0xx_HAL_Driver/Src/stm32l0xx_hal_gpio.c ****         }
 402              		.loc 1 290 0
 403 01a8 2943     		orrs	r1, r5
 404              	.LVL44:
 405 01aa B9E7     		b	.L22
 406              	.LVL45:
 407              	.L19:
 282:../../../../../../Drivers/STM32L0xx_HAL_Driver/Src/stm32l0xx_hal_gpio.c ****         }
 408              		.loc 1 282 0
 409 01ac 2943     		orrs	r1, r5
 410              	.LVL46:
 411 01ae B1E7     		b	.L20
 412              	.LVL47:
 413              	.L17:
 273:../../../../../../Drivers/STM32L0xx_HAL_Driver/Src/stm32l0xx_hal_gpio.c ****         }
 414              		.loc 1 273 0
 415 01b0 2943     		orrs	r1, r5
 416              	.LVL48:
 417 01b2 A9E7     		b	.L18
 418              	.LVL49:
 419              	.L15:
 265:../../../../../../Drivers/STM32L0xx_HAL_Driver/Src/stm32l0xx_hal_gpio.c ****         }
 420              		.loc 1 265 0
 421 01b4 2943     		orrs	r1, r5
 422              	.LVL50:
 423 01b6 A1E7     		b	.L16
 424              	.LVL51:
 425              	.L34:
 426 01b8 5646     		mov	r6, r10
 427 01ba 6746     		mov	r7, ip
 428 01bc BE40     		lsls	r6, r6, r7
 429 01be 3443     		orrs	r4, r6
 430              	.LVL52:
 431 01c0 95E7     		b	.L9
 432              	.LVL53:
 433              	.L35:
 434 01c2 0326     		movs	r6, #3
 435 01c4 6746     		mov	r7, ip
 436 01c6 BE40     		lsls	r6, r6, r7
 437 01c8 3443     		orrs	r4, r6
ARM GAS  C:\Users\EBANO_~1\AppData\Local\Temp\cc7rVnX9.s 			page 15


 438              	.LVL54:
 439 01ca 90E7     		b	.L9
 440              	.L37:
 441              		.align	2
 442              	.L36:
 443 01cc 00040140 		.word	1073808384
 444 01d0 00100240 		.word	1073876992
 445 01d4 00000140 		.word	1073807360
 446 01d8 00040050 		.word	1342178304
 447 01dc 00080050 		.word	1342179328
 448 01e0 000C0050 		.word	1342180352
 449 01e4 00100050 		.word	1342181376
 450 01e8 001C0050 		.word	1342184448
 451              		.cfi_endproc
 452              	.LFE39:
 453              		.size	HAL_GPIO_Init, .-HAL_GPIO_Init
 454              		.section	.text.HAL_GPIO_DeInit,"ax",%progbits
 455              		.align	1
 456              		.p2align 2,,3
 457              		.global	HAL_GPIO_DeInit
 458              		.syntax unified
 459              		.code	16
 460              		.thumb_func
 461              		.fpu softvfp
 462              		.type	HAL_GPIO_DeInit, %function
 463              	HAL_GPIO_DeInit:
 464              	.LFB40:
 298:../../../../../../Drivers/STM32L0xx_HAL_Driver/Src/stm32l0xx_hal_gpio.c **** 
 299:../../../../../../Drivers/STM32L0xx_HAL_Driver/Src/stm32l0xx_hal_gpio.c **** /**
 300:../../../../../../Drivers/STM32L0xx_HAL_Driver/Src/stm32l0xx_hal_gpio.c ****   * @brief  De-initializes the GPIOx peripheral registers to their default reset values.
 301:../../../../../../Drivers/STM32L0xx_HAL_Driver/Src/stm32l0xx_hal_gpio.c ****   * @param  GPIOx where x can be (A..E and H) to select the GPIO peripheral for STM32L0XX family de
 302:../../../../../../Drivers/STM32L0xx_HAL_Driver/Src/stm32l0xx_hal_gpio.c ****   *                Note that GPIOE is not available on all devices.
 303:../../../../../../Drivers/STM32L0xx_HAL_Driver/Src/stm32l0xx_hal_gpio.c ****   * @param  GPIO_Pin specifies the port bit to be written.
 304:../../../../../../Drivers/STM32L0xx_HAL_Driver/Src/stm32l0xx_hal_gpio.c ****   *                   This parameter can be one of GPIO_PIN_x where x can be (0..15).
 305:../../../../../../Drivers/STM32L0xx_HAL_Driver/Src/stm32l0xx_hal_gpio.c ****   *                   All port bits are not necessarily available on all GPIOs.
 306:../../../../../../Drivers/STM32L0xx_HAL_Driver/Src/stm32l0xx_hal_gpio.c ****   * @retval None
 307:../../../../../../Drivers/STM32L0xx_HAL_Driver/Src/stm32l0xx_hal_gpio.c ****   */
 308:../../../../../../Drivers/STM32L0xx_HAL_Driver/Src/stm32l0xx_hal_gpio.c **** void HAL_GPIO_DeInit(GPIO_TypeDef  *GPIOx, uint32_t GPIO_Pin)
 309:../../../../../../Drivers/STM32L0xx_HAL_Driver/Src/stm32l0xx_hal_gpio.c **** { 
 465              		.loc 1 309 0
 466              		.cfi_startproc
 467              		@ args = 0, pretend = 0, frame = 8
 468              		@ frame_needed = 0, uses_anonymous_args = 0
 469              	.LVL55:
 470 0000 F0B5     		push	{r4, r5, r6, r7, lr}
 471              	.LCFI3:
 472              		.cfi_def_cfa_offset 20
 473              		.cfi_offset 4, -20
 474              		.cfi_offset 5, -16
 475              		.cfi_offset 6, -12
 476              		.cfi_offset 7, -8
 477              		.cfi_offset 14, -4
 478 0002 DE46     		mov	lr, fp
 479 0004 5746     		mov	r7, r10
 480 0006 4E46     		mov	r6, r9
 481 0008 4546     		mov	r5, r8
 482 000a E0B5     		push	{r5, r6, r7, lr}
ARM GAS  C:\Users\EBANO_~1\AppData\Local\Temp\cc7rVnX9.s 			page 16


 483              	.LCFI4:
 484              		.cfi_def_cfa_offset 36
 485              		.cfi_offset 8, -36
 486              		.cfi_offset 9, -32
 487              		.cfi_offset 10, -28
 488              		.cfi_offset 11, -24
 489 000c 83B0     		sub	sp, sp, #12
 490              	.LCFI5:
 491              		.cfi_def_cfa_offset 48
 310:../../../../../../Drivers/STM32L0xx_HAL_Driver/Src/stm32l0xx_hal_gpio.c ****   uint32_t position = 0x00U;
 311:../../../../../../Drivers/STM32L0xx_HAL_Driver/Src/stm32l0xx_hal_gpio.c ****   uint32_t iocurrent = 0x00U;
 312:../../../../../../Drivers/STM32L0xx_HAL_Driver/Src/stm32l0xx_hal_gpio.c ****   uint32_t tmp = 0x00U;
 313:../../../../../../Drivers/STM32L0xx_HAL_Driver/Src/stm32l0xx_hal_gpio.c **** 
 314:../../../../../../Drivers/STM32L0xx_HAL_Driver/Src/stm32l0xx_hal_gpio.c ****   /* Check the parameters */
 315:../../../../../../Drivers/STM32L0xx_HAL_Driver/Src/stm32l0xx_hal_gpio.c ****   assert_param(IS_GPIO_PIN_AVAILABLE(GPIOx,GPIO_Pin));
 316:../../../../../../Drivers/STM32L0xx_HAL_Driver/Src/stm32l0xx_hal_gpio.c **** 
 317:../../../../../../Drivers/STM32L0xx_HAL_Driver/Src/stm32l0xx_hal_gpio.c ****   /* Configure the port pins */
 318:../../../../../../Drivers/STM32L0xx_HAL_Driver/Src/stm32l0xx_hal_gpio.c ****   while ((GPIO_Pin >> position) != 0)
 492              		.loc 1 318 0
 493 000e 0029     		cmp	r1, #0
 494 0010 56D0     		beq	.L38
 319:../../../../../../Drivers/STM32L0xx_HAL_Driver/Src/stm32l0xx_hal_gpio.c ****   {
 320:../../../../../../Drivers/STM32L0xx_HAL_Driver/Src/stm32l0xx_hal_gpio.c ****     /* Get the IO position */
 321:../../../../../../Drivers/STM32L0xx_HAL_Driver/Src/stm32l0xx_hal_gpio.c ****     iocurrent = (GPIO_Pin) & (1U << position);
 495              		.loc 1 321 0
 496 0012 0122     		movs	r2, #1
 497 0014 9446     		mov	ip, r2
 322:../../../../../../Drivers/STM32L0xx_HAL_Driver/Src/stm32l0xx_hal_gpio.c **** 
 323:../../../../../../Drivers/STM32L0xx_HAL_Driver/Src/stm32l0xx_hal_gpio.c ****     if(iocurrent)
 324:../../../../../../Drivers/STM32L0xx_HAL_Driver/Src/stm32l0xx_hal_gpio.c ****     {
 325:../../../../../../Drivers/STM32L0xx_HAL_Driver/Src/stm32l0xx_hal_gpio.c ****       /*------------------------- GPIO Mode Configuration --------------------*/
 326:../../../../../../Drivers/STM32L0xx_HAL_Driver/Src/stm32l0xx_hal_gpio.c ****       /* Configure IO Direction in Input Floting Mode */
 327:../../../../../../Drivers/STM32L0xx_HAL_Driver/Src/stm32l0xx_hal_gpio.c ****       GPIOx->MODER |= (GPIO_MODER_MODE0 << (position * 2U));
 498              		.loc 1 327 0
 499 0016 0232     		adds	r2, r2, #2
 500 0018 9046     		mov	r8, r2
 328:../../../../../../Drivers/STM32L0xx_HAL_Driver/Src/stm32l0xx_hal_gpio.c ****            
 329:../../../../../../Drivers/STM32L0xx_HAL_Driver/Src/stm32l0xx_hal_gpio.c ****       /* Configure the default Alternate Function in current IO */ 
 330:../../../../../../Drivers/STM32L0xx_HAL_Driver/Src/stm32l0xx_hal_gpio.c ****       GPIOx->AFR[position >> 3U] &= ~((uint32_t)0xFU << ((uint32_t)(position & (uint32_t)0x07U) * 4
 501              		.loc 1 330 0
 502 001a 0C32     		adds	r2, r2, #12
 310:../../../../../../Drivers/STM32L0xx_HAL_Driver/Src/stm32l0xx_hal_gpio.c ****   uint32_t iocurrent = 0x00U;
 503              		.loc 1 310 0
 504 001c 0023     		movs	r3, #0
 505              		.loc 1 330 0
 506 001e 9146     		mov	r9, r2
 507              	.LVL56:
 508              	.L49:
 321:../../../../../../Drivers/STM32L0xx_HAL_Driver/Src/stm32l0xx_hal_gpio.c **** 
 509              		.loc 1 321 0
 510 0020 6446     		mov	r4, ip
 511 0022 0D00     		movs	r5, r1
 512 0024 9C40     		lsls	r4, r4, r3
 513 0026 2540     		ands	r5, r4
 514              	.LVL57:
 323:../../../../../../Drivers/STM32L0xx_HAL_Driver/Src/stm32l0xx_hal_gpio.c ****     {
 515              		.loc 1 323 0
ARM GAS  C:\Users\EBANO_~1\AppData\Local\Temp\cc7rVnX9.s 			page 17


 516 0028 46D0     		beq	.L41
 327:../../../../../../Drivers/STM32L0xx_HAL_Driver/Src/stm32l0xx_hal_gpio.c ****            
 517              		.loc 1 327 0
 518 002a 4746     		mov	r7, r8
 519 002c 5E00     		lsls	r6, r3, #1
 520 002e B740     		lsls	r7, r7, r6
 521 0030 0268     		ldr	r2, [r0]
 522 0032 BA46     		mov	r10, r7
 523 0034 3A43     		orrs	r2, r7
 524 0036 0260     		str	r2, [r0]
 525              		.loc 1 330 0
 526 0038 DA08     		lsrs	r2, r3, #3
 527 003a 9200     		lsls	r2, r2, #2
 528 003c 8218     		adds	r2, r0, r2
 529 003e 176A     		ldr	r7, [r2, #32]
 530 0040 0197     		str	r7, [sp, #4]
 531 0042 0727     		movs	r7, #7
 532 0044 1F40     		ands	r7, r3
 533 0046 BF00     		lsls	r7, r7, #2
 534 0048 BB46     		mov	fp, r7
 535 004a 4F46     		mov	r7, r9
 536 004c 5E46     		mov	r6, fp
 537 004e B740     		lsls	r7, r7, r6
 538 0050 3E00     		movs	r6, r7
 539 0052 019F     		ldr	r7, [sp, #4]
 540 0054 B743     		bics	r7, r6
 541 0056 1762     		str	r7, [r2, #32]
 331:../../../../../../Drivers/STM32L0xx_HAL_Driver/Src/stm32l0xx_hal_gpio.c ****       
 332:../../../../../../Drivers/STM32L0xx_HAL_Driver/Src/stm32l0xx_hal_gpio.c ****       /* Configure the default value for IO Speed */
 333:../../../../../../Drivers/STM32L0xx_HAL_Driver/Src/stm32l0xx_hal_gpio.c ****       GPIOx->OSPEEDR &= ~(GPIO_OSPEEDER_OSPEED0 << (position * 2U));
 542              		.loc 1 333 0
 543 0058 5246     		mov	r2, r10
 544 005a D243     		mvns	r2, r2
 545 005c 8668     		ldr	r6, [r0, #8]
 334:../../../../../../Drivers/STM32L0xx_HAL_Driver/Src/stm32l0xx_hal_gpio.c ****       
 335:../../../../../../Drivers/STM32L0xx_HAL_Driver/Src/stm32l0xx_hal_gpio.c ****       /* Configure the default value IO Output Type */
 336:../../../../../../Drivers/STM32L0xx_HAL_Driver/Src/stm32l0xx_hal_gpio.c ****       GPIOx->OTYPER  &= ~(GPIO_OTYPER_OT_0 << position) ;
 337:../../../../../../Drivers/STM32L0xx_HAL_Driver/Src/stm32l0xx_hal_gpio.c ****       
 338:../../../../../../Drivers/STM32L0xx_HAL_Driver/Src/stm32l0xx_hal_gpio.c ****       /* Deactivate the Pull-up oand Pull-down resistor for the current IO */
 339:../../../../../../Drivers/STM32L0xx_HAL_Driver/Src/stm32l0xx_hal_gpio.c ****       GPIOx->PUPDR &= ~(GPIO_PUPDR_PUPD0 << (position * 2U));
 340:../../../../../../Drivers/STM32L0xx_HAL_Driver/Src/stm32l0xx_hal_gpio.c ****       
 341:../../../../../../Drivers/STM32L0xx_HAL_Driver/Src/stm32l0xx_hal_gpio.c ****       /*------------------------- EXTI Mode Configuration --------------------*/
 342:../../../../../../Drivers/STM32L0xx_HAL_Driver/Src/stm32l0xx_hal_gpio.c ****       /* Clear the External Interrupt or Event for the current IO */
 343:../../../../../../Drivers/STM32L0xx_HAL_Driver/Src/stm32l0xx_hal_gpio.c ****       
 344:../../../../../../Drivers/STM32L0xx_HAL_Driver/Src/stm32l0xx_hal_gpio.c ****       tmp = SYSCFG->EXTICR[position >> 2U];
 345:../../../../../../Drivers/STM32L0xx_HAL_Driver/Src/stm32l0xx_hal_gpio.c ****       tmp &= (((uint32_t)0x0FU) << (4U * (position & 0x03U)));
 546              		.loc 1 345 0
 547 005e 4F46     		mov	r7, r9
 333:../../../../../../Drivers/STM32L0xx_HAL_Driver/Src/stm32l0xx_hal_gpio.c ****       
 548              		.loc 1 333 0
 549 0060 1640     		ands	r6, r2
 550 0062 8660     		str	r6, [r0, #8]
 336:../../../../../../Drivers/STM32L0xx_HAL_Driver/Src/stm32l0xx_hal_gpio.c ****       
 551              		.loc 1 336 0
 552 0064 4668     		ldr	r6, [r0, #4]
 553 0066 A643     		bics	r6, r4
 554 0068 4660     		str	r6, [r0, #4]
ARM GAS  C:\Users\EBANO_~1\AppData\Local\Temp\cc7rVnX9.s 			page 18


 339:../../../../../../Drivers/STM32L0xx_HAL_Driver/Src/stm32l0xx_hal_gpio.c ****       
 555              		.loc 1 339 0
 556 006a C468     		ldr	r4, [r0, #12]
 557 006c 2240     		ands	r2, r4
 558 006e 2F4C     		ldr	r4, .L61
 559 0070 C260     		str	r2, [r0, #12]
 560 0072 A246     		mov	r10, r4
 561              		.loc 1 345 0
 562 0074 4446     		mov	r4, r8
 563 0076 1C40     		ands	r4, r3
 564 0078 A400     		lsls	r4, r4, #2
 565 007a A740     		lsls	r7, r7, r4
 344:../../../../../../Drivers/STM32L0xx_HAL_Driver/Src/stm32l0xx_hal_gpio.c ****       tmp &= (((uint32_t)0x0FU) << (4U * (position & 0x03U)));
 566              		.loc 1 344 0
 567 007c 9A08     		lsrs	r2, r3, #2
 568 007e 9200     		lsls	r2, r2, #2
 569 0080 5244     		add	r2, r2, r10
 570 0082 9668     		ldr	r6, [r2, #8]
 571              	.LVL58:
 572              		.loc 1 345 0
 573 0084 BA46     		mov	r10, r7
 574 0086 3E40     		ands	r6, r7
 575              	.LVL59:
 346:../../../../../../Drivers/STM32L0xx_HAL_Driver/Src/stm32l0xx_hal_gpio.c ****       if(tmp == (GPIO_GET_INDEX(GPIOx) << (4U * (position & 0x03U))))
 576              		.loc 1 346 0
 577 0088 A027     		movs	r7, #160
 578 008a FF05     		lsls	r7, r7, #23
 579 008c B842     		cmp	r0, r7
 580 008e 1ED0     		beq	.L50
 581              		.loc 1 346 0 is_stmt 0 discriminator 1
 582 0090 274F     		ldr	r7, .L61+4
 583 0092 B842     		cmp	r0, r7
 584 0094 36D0     		beq	.L55
 585              		.loc 1 346 0 discriminator 3
 586 0096 274F     		ldr	r7, .L61+8
 587 0098 B842     		cmp	r0, r7
 588 009a 3BD0     		beq	.L56
 589              		.loc 1 346 0 discriminator 5
 590 009c 264F     		ldr	r7, .L61+12
 591 009e B842     		cmp	r0, r7
 592 00a0 3CD0     		beq	.L57
 593              		.loc 1 346 0 discriminator 7
 594 00a2 264F     		ldr	r7, .L61+16
 595 00a4 B842     		cmp	r0, r7
 596 00a6 31D0     		beq	.L58
 597              		.loc 1 346 0 discriminator 9
 598 00a8 254F     		ldr	r7, .L61+20
 599 00aa B842     		cmp	r0, r7
 600 00ac 3AD0     		beq	.L59
 601 00ae 0627     		movs	r7, #6
 602 00b0 A740     		lsls	r7, r7, r4
 603 00b2 3C00     		movs	r4, r7
 604              		.loc 1 346 0 discriminator 12
 605 00b4 A642     		cmp	r6, r4
 606 00b6 0DD0     		beq	.L60
 607              	.LVL60:
 608              	.L41:
ARM GAS  C:\Users\EBANO_~1\AppData\Local\Temp\cc7rVnX9.s 			page 19


 318:../../../../../../Drivers/STM32L0xx_HAL_Driver/Src/stm32l0xx_hal_gpio.c ****   {
 609              		.loc 1 318 0 is_stmt 1
 610 00b8 0A00     		movs	r2, r1
 347:../../../../../../Drivers/STM32L0xx_HAL_Driver/Src/stm32l0xx_hal_gpio.c ****       {
 348:../../../../../../Drivers/STM32L0xx_HAL_Driver/Src/stm32l0xx_hal_gpio.c ****         tmp = ((uint32_t)0x0FU) << (4U * (position & 0x03U));
 349:../../../../../../Drivers/STM32L0xx_HAL_Driver/Src/stm32l0xx_hal_gpio.c ****         SYSCFG->EXTICR[position >> 2U] &= ~tmp;
 350:../../../../../../Drivers/STM32L0xx_HAL_Driver/Src/stm32l0xx_hal_gpio.c **** 
 351:../../../../../../Drivers/STM32L0xx_HAL_Driver/Src/stm32l0xx_hal_gpio.c ****         /* Clear EXTI line configuration */
 352:../../../../../../Drivers/STM32L0xx_HAL_Driver/Src/stm32l0xx_hal_gpio.c ****         EXTI->IMR &= ~((uint32_t)iocurrent);
 353:../../../../../../Drivers/STM32L0xx_HAL_Driver/Src/stm32l0xx_hal_gpio.c ****         EXTI->EMR &= ~((uint32_t)iocurrent);
 354:../../../../../../Drivers/STM32L0xx_HAL_Driver/Src/stm32l0xx_hal_gpio.c **** 
 355:../../../../../../Drivers/STM32L0xx_HAL_Driver/Src/stm32l0xx_hal_gpio.c ****         /* Clear Rising Falling edge configuration */
 356:../../../../../../Drivers/STM32L0xx_HAL_Driver/Src/stm32l0xx_hal_gpio.c ****         EXTI->RTSR &= ~((uint32_t)iocurrent);
 357:../../../../../../Drivers/STM32L0xx_HAL_Driver/Src/stm32l0xx_hal_gpio.c ****         EXTI->FTSR &= ~((uint32_t)iocurrent);
 358:../../../../../../Drivers/STM32L0xx_HAL_Driver/Src/stm32l0xx_hal_gpio.c ****       }
 359:../../../../../../Drivers/STM32L0xx_HAL_Driver/Src/stm32l0xx_hal_gpio.c ****     }
 360:../../../../../../Drivers/STM32L0xx_HAL_Driver/Src/stm32l0xx_hal_gpio.c ****      position++;
 611              		.loc 1 360 0
 612 00ba 0133     		adds	r3, r3, #1
 613              	.LVL61:
 318:../../../../../../Drivers/STM32L0xx_HAL_Driver/Src/stm32l0xx_hal_gpio.c ****   {
 614              		.loc 1 318 0
 615 00bc DA40     		lsrs	r2, r2, r3
 616 00be AFD1     		bne	.L49
 617              	.LVL62:
 618              	.L38:
 361:../../../../../../Drivers/STM32L0xx_HAL_Driver/Src/stm32l0xx_hal_gpio.c ****   }
 362:../../../../../../Drivers/STM32L0xx_HAL_Driver/Src/stm32l0xx_hal_gpio.c **** }
 619              		.loc 1 362 0
 620 00c0 03B0     		add	sp, sp, #12
 621              		@ sp needed
 622 00c2 3CBC     		pop	{r2, r3, r4, r5}
 623 00c4 9046     		mov	r8, r2
 624 00c6 9946     		mov	r9, r3
 625 00c8 A246     		mov	r10, r4
 626 00ca AB46     		mov	fp, r5
 627 00cc F0BD     		pop	{r4, r5, r6, r7, pc}
 628              	.LVL63:
 629              	.L50:
 630 00ce 0024     		movs	r4, #0
 631              	.L42:
 346:../../../../../../Drivers/STM32L0xx_HAL_Driver/Src/stm32l0xx_hal_gpio.c ****       {
 632              		.loc 1 346 0 discriminator 24
 633 00d0 A642     		cmp	r6, r4
 634 00d2 F1D1     		bne	.L41
 635              	.L60:
 636              	.LVL64:
 349:../../../../../../Drivers/STM32L0xx_HAL_Driver/Src/stm32l0xx_hal_gpio.c **** 
 637              		.loc 1 349 0
 638 00d4 5646     		mov	r6, r10
 352:../../../../../../Drivers/STM32L0xx_HAL_Driver/Src/stm32l0xx_hal_gpio.c ****         EXTI->EMR &= ~((uint32_t)iocurrent);
 639              		.loc 1 352 0
 640 00d6 ED43     		mvns	r5, r5
 641              	.LVL65:
 349:../../../../../../Drivers/STM32L0xx_HAL_Driver/Src/stm32l0xx_hal_gpio.c **** 
 642              		.loc 1 349 0
 643 00d8 9468     		ldr	r4, [r2, #8]
ARM GAS  C:\Users\EBANO_~1\AppData\Local\Temp\cc7rVnX9.s 			page 20


 360:../../../../../../Drivers/STM32L0xx_HAL_Driver/Src/stm32l0xx_hal_gpio.c ****   }
 644              		.loc 1 360 0
 645 00da 0133     		adds	r3, r3, #1
 646              	.LVL66:
 349:../../../../../../Drivers/STM32L0xx_HAL_Driver/Src/stm32l0xx_hal_gpio.c **** 
 647              		.loc 1 349 0
 648 00dc B443     		bics	r4, r6
 649 00de 9460     		str	r4, [r2, #8]
 352:../../../../../../Drivers/STM32L0xx_HAL_Driver/Src/stm32l0xx_hal_gpio.c ****         EXTI->EMR &= ~((uint32_t)iocurrent);
 650              		.loc 1 352 0
 651 00e0 184C     		ldr	r4, .L61+24
 652 00e2 2268     		ldr	r2, [r4]
 653 00e4 2A40     		ands	r2, r5
 654 00e6 2260     		str	r2, [r4]
 353:../../../../../../Drivers/STM32L0xx_HAL_Driver/Src/stm32l0xx_hal_gpio.c **** 
 655              		.loc 1 353 0
 656 00e8 6268     		ldr	r2, [r4, #4]
 657 00ea 2A40     		ands	r2, r5
 658 00ec 6260     		str	r2, [r4, #4]
 356:../../../../../../Drivers/STM32L0xx_HAL_Driver/Src/stm32l0xx_hal_gpio.c ****         EXTI->FTSR &= ~((uint32_t)iocurrent);
 659              		.loc 1 356 0
 660 00ee A268     		ldr	r2, [r4, #8]
 661 00f0 2A40     		ands	r2, r5
 662 00f2 A260     		str	r2, [r4, #8]
 357:../../../../../../Drivers/STM32L0xx_HAL_Driver/Src/stm32l0xx_hal_gpio.c ****       }
 663              		.loc 1 357 0
 664 00f4 E268     		ldr	r2, [r4, #12]
 665 00f6 1540     		ands	r5, r2
 666              	.LVL67:
 318:../../../../../../Drivers/STM32L0xx_HAL_Driver/Src/stm32l0xx_hal_gpio.c ****   {
 667              		.loc 1 318 0
 668 00f8 0A00     		movs	r2, r1
 357:../../../../../../Drivers/STM32L0xx_HAL_Driver/Src/stm32l0xx_hal_gpio.c ****       }
 669              		.loc 1 357 0
 670 00fa E560     		str	r5, [r4, #12]
 318:../../../../../../Drivers/STM32L0xx_HAL_Driver/Src/stm32l0xx_hal_gpio.c ****   {
 671              		.loc 1 318 0
 672 00fc DA40     		lsrs	r2, r2, r3
 673 00fe 00D0     		beq	.LCB647
 674 0100 8EE7     		b	.L49	@long jump
 675              	.LCB647:
 676              	.LVL68:
 677 0102 DDE7     		b	.L38
 678              	.LVL69:
 679              	.L55:
 680 0104 6746     		mov	r7, ip
 681 0106 A740     		lsls	r7, r7, r4
 682 0108 3C00     		movs	r4, r7
 683 010a E1E7     		b	.L42
 684              	.L58:
 685 010c 0427     		movs	r7, #4
 686 010e A740     		lsls	r7, r7, r4
 687 0110 3C00     		movs	r4, r7
 688 0112 DDE7     		b	.L42
 689              	.L56:
 690 0114 0227     		movs	r7, #2
 691 0116 A740     		lsls	r7, r7, r4
ARM GAS  C:\Users\EBANO_~1\AppData\Local\Temp\cc7rVnX9.s 			page 21


 692 0118 3C00     		movs	r4, r7
 693 011a D9E7     		b	.L42
 694              	.L57:
 695 011c 4746     		mov	r7, r8
 696 011e A740     		lsls	r7, r7, r4
 697 0120 3C00     		movs	r4, r7
 698 0122 D5E7     		b	.L42
 699              	.L59:
 700 0124 0527     		movs	r7, #5
 701 0126 A740     		lsls	r7, r7, r4
 702 0128 3C00     		movs	r4, r7
 703 012a D1E7     		b	.L42
 704              	.L62:
 705              		.align	2
 706              	.L61:
 707 012c 00000140 		.word	1073807360
 708 0130 00040050 		.word	1342178304
 709 0134 00080050 		.word	1342179328
 710 0138 000C0050 		.word	1342180352
 711 013c 00100050 		.word	1342181376
 712 0140 001C0050 		.word	1342184448
 713 0144 00040140 		.word	1073808384
 714              		.cfi_endproc
 715              	.LFE40:
 716              		.size	HAL_GPIO_DeInit, .-HAL_GPIO_DeInit
 717              		.section	.text.HAL_GPIO_ReadPin,"ax",%progbits
 718              		.align	1
 719              		.p2align 2,,3
 720              		.global	HAL_GPIO_ReadPin
 721              		.syntax unified
 722              		.code	16
 723              		.thumb_func
 724              		.fpu softvfp
 725              		.type	HAL_GPIO_ReadPin, %function
 726              	HAL_GPIO_ReadPin:
 727              	.LFB41:
 363:../../../../../../Drivers/STM32L0xx_HAL_Driver/Src/stm32l0xx_hal_gpio.c **** 
 364:../../../../../../Drivers/STM32L0xx_HAL_Driver/Src/stm32l0xx_hal_gpio.c **** /**
 365:../../../../../../Drivers/STM32L0xx_HAL_Driver/Src/stm32l0xx_hal_gpio.c ****   * @}
 366:../../../../../../Drivers/STM32L0xx_HAL_Driver/Src/stm32l0xx_hal_gpio.c ****   */
 367:../../../../../../Drivers/STM32L0xx_HAL_Driver/Src/stm32l0xx_hal_gpio.c **** 
 368:../../../../../../Drivers/STM32L0xx_HAL_Driver/Src/stm32l0xx_hal_gpio.c **** /** @addtogroup GPIO_Exported_Functions_Group2
 369:../../../../../../Drivers/STM32L0xx_HAL_Driver/Src/stm32l0xx_hal_gpio.c ****  *  @brief   GPIO Read and Write
 370:../../../../../../Drivers/STM32L0xx_HAL_Driver/Src/stm32l0xx_hal_gpio.c ****  *
 371:../../../../../../Drivers/STM32L0xx_HAL_Driver/Src/stm32l0xx_hal_gpio.c **** @verbatim
 372:../../../../../../Drivers/STM32L0xx_HAL_Driver/Src/stm32l0xx_hal_gpio.c ****  ===============================================================================
 373:../../../../../../Drivers/STM32L0xx_HAL_Driver/Src/stm32l0xx_hal_gpio.c ****                        ##### IO operation functions #####
 374:../../../../../../Drivers/STM32L0xx_HAL_Driver/Src/stm32l0xx_hal_gpio.c ****  ===============================================================================
 375:../../../../../../Drivers/STM32L0xx_HAL_Driver/Src/stm32l0xx_hal_gpio.c **** 
 376:../../../../../../Drivers/STM32L0xx_HAL_Driver/Src/stm32l0xx_hal_gpio.c **** @endverbatim
 377:../../../../../../Drivers/STM32L0xx_HAL_Driver/Src/stm32l0xx_hal_gpio.c ****   * @{
 378:../../../../../../Drivers/STM32L0xx_HAL_Driver/Src/stm32l0xx_hal_gpio.c ****   */
 379:../../../../../../Drivers/STM32L0xx_HAL_Driver/Src/stm32l0xx_hal_gpio.c **** 
 380:../../../../../../Drivers/STM32L0xx_HAL_Driver/Src/stm32l0xx_hal_gpio.c **** /**
 381:../../../../../../Drivers/STM32L0xx_HAL_Driver/Src/stm32l0xx_hal_gpio.c ****   * @brief  Reads the specified input port pin.
 382:../../../../../../Drivers/STM32L0xx_HAL_Driver/Src/stm32l0xx_hal_gpio.c ****   * @param  GPIOx where x can be (A..E and H) to select the GPIO peripheral for STM32L0xx family de
 383:../../../../../../Drivers/STM32L0xx_HAL_Driver/Src/stm32l0xx_hal_gpio.c ****   *                Note that GPIOE is not available on all devices.
ARM GAS  C:\Users\EBANO_~1\AppData\Local\Temp\cc7rVnX9.s 			page 22


 384:../../../../../../Drivers/STM32L0xx_HAL_Driver/Src/stm32l0xx_hal_gpio.c ****   * @param  GPIO_Pin specifies the port bit to read.
 385:../../../../../../Drivers/STM32L0xx_HAL_Driver/Src/stm32l0xx_hal_gpio.c ****   *                   This parameter can be GPIO_PIN_x where x can be (0..15).
 386:../../../../../../Drivers/STM32L0xx_HAL_Driver/Src/stm32l0xx_hal_gpio.c ****   *                   All port bits are not necessarily available on all GPIOs.
 387:../../../../../../Drivers/STM32L0xx_HAL_Driver/Src/stm32l0xx_hal_gpio.c ****   * @retval The input port pin value.
 388:../../../../../../Drivers/STM32L0xx_HAL_Driver/Src/stm32l0xx_hal_gpio.c ****   */
 389:../../../../../../Drivers/STM32L0xx_HAL_Driver/Src/stm32l0xx_hal_gpio.c **** GPIO_PinState HAL_GPIO_ReadPin(GPIO_TypeDef* GPIOx, uint16_t GPIO_Pin)
 390:../../../../../../Drivers/STM32L0xx_HAL_Driver/Src/stm32l0xx_hal_gpio.c **** {
 728              		.loc 1 390 0
 729              		.cfi_startproc
 730              		@ args = 0, pretend = 0, frame = 0
 731              		@ frame_needed = 0, uses_anonymous_args = 0
 732              		@ link register save eliminated.
 733              	.LVL70:
 391:../../../../../../Drivers/STM32L0xx_HAL_Driver/Src/stm32l0xx_hal_gpio.c ****   GPIO_PinState bitstatus;
 392:../../../../../../Drivers/STM32L0xx_HAL_Driver/Src/stm32l0xx_hal_gpio.c ****   
 393:../../../../../../Drivers/STM32L0xx_HAL_Driver/Src/stm32l0xx_hal_gpio.c ****   /* Check the parameters */
 394:../../../../../../Drivers/STM32L0xx_HAL_Driver/Src/stm32l0xx_hal_gpio.c ****   assert_param(IS_GPIO_PIN_AVAILABLE(GPIOx,GPIO_Pin));
 395:../../../../../../Drivers/STM32L0xx_HAL_Driver/Src/stm32l0xx_hal_gpio.c ****   
 396:../../../../../../Drivers/STM32L0xx_HAL_Driver/Src/stm32l0xx_hal_gpio.c ****   if((GPIOx->IDR & GPIO_Pin) != (uint32_t)GPIO_PIN_RESET)
 734              		.loc 1 396 0
 735 0000 0069     		ldr	r0, [r0, #16]
 736              	.LVL71:
 397:../../../../../../Drivers/STM32L0xx_HAL_Driver/Src/stm32l0xx_hal_gpio.c ****   {
 398:../../../../../../Drivers/STM32L0xx_HAL_Driver/Src/stm32l0xx_hal_gpio.c ****     bitstatus = GPIO_PIN_SET;
 399:../../../../../../Drivers/STM32L0xx_HAL_Driver/Src/stm32l0xx_hal_gpio.c ****   }
 400:../../../../../../Drivers/STM32L0xx_HAL_Driver/Src/stm32l0xx_hal_gpio.c ****   else
 401:../../../../../../Drivers/STM32L0xx_HAL_Driver/Src/stm32l0xx_hal_gpio.c ****   {
 402:../../../../../../Drivers/STM32L0xx_HAL_Driver/Src/stm32l0xx_hal_gpio.c ****     bitstatus = GPIO_PIN_RESET;
 403:../../../../../../Drivers/STM32L0xx_HAL_Driver/Src/stm32l0xx_hal_gpio.c ****   }
 404:../../../../../../Drivers/STM32L0xx_HAL_Driver/Src/stm32l0xx_hal_gpio.c ****   return bitstatus;
 405:../../../../../../Drivers/STM32L0xx_HAL_Driver/Src/stm32l0xx_hal_gpio.c **** }
 737              		.loc 1 405 0
 738              		@ sp needed
 396:../../../../../../Drivers/STM32L0xx_HAL_Driver/Src/stm32l0xx_hal_gpio.c ****   {
 739              		.loc 1 396 0
 740 0002 0840     		ands	r0, r1
 741              	.LVL72:
 742 0004 411E     		subs	r1, r0, #1
 743 0006 8841     		sbcs	r0, r0, r1
 744              	.LVL73:
 404:../../../../../../Drivers/STM32L0xx_HAL_Driver/Src/stm32l0xx_hal_gpio.c **** }
 745              		.loc 1 404 0
 746 0008 C0B2     		uxtb	r0, r0
 747              		.loc 1 405 0
 748 000a 7047     		bx	lr
 749              		.cfi_endproc
 750              	.LFE41:
 751              		.size	HAL_GPIO_ReadPin, .-HAL_GPIO_ReadPin
 752              		.section	.text.HAL_GPIO_WritePin,"ax",%progbits
 753              		.align	1
 754              		.p2align 2,,3
 755              		.global	HAL_GPIO_WritePin
 756              		.syntax unified
 757              		.code	16
 758              		.thumb_func
 759              		.fpu softvfp
 760              		.type	HAL_GPIO_WritePin, %function
ARM GAS  C:\Users\EBANO_~1\AppData\Local\Temp\cc7rVnX9.s 			page 23


 761              	HAL_GPIO_WritePin:
 762              	.LFB42:
 406:../../../../../../Drivers/STM32L0xx_HAL_Driver/Src/stm32l0xx_hal_gpio.c **** 
 407:../../../../../../Drivers/STM32L0xx_HAL_Driver/Src/stm32l0xx_hal_gpio.c **** /**
 408:../../../../../../Drivers/STM32L0xx_HAL_Driver/Src/stm32l0xx_hal_gpio.c ****   * @brief  Sets or clears the selected data port bit.
 409:../../../../../../Drivers/STM32L0xx_HAL_Driver/Src/stm32l0xx_hal_gpio.c ****   * 
 410:../../../../../../Drivers/STM32L0xx_HAL_Driver/Src/stm32l0xx_hal_gpio.c ****   * @note   This function uses GPIOx_BSRR register to allow atomic read/modify 
 411:../../../../../../Drivers/STM32L0xx_HAL_Driver/Src/stm32l0xx_hal_gpio.c ****   *         accesses. In this way, there is no risk of an IRQ occurring between
 412:../../../../../../Drivers/STM32L0xx_HAL_Driver/Src/stm32l0xx_hal_gpio.c ****   *         the read and the modify access.
 413:../../../../../../Drivers/STM32L0xx_HAL_Driver/Src/stm32l0xx_hal_gpio.c ****   *               
 414:../../../../../../Drivers/STM32L0xx_HAL_Driver/Src/stm32l0xx_hal_gpio.c ****   * @param  GPIOx where x can be (A..E and H) to select the GPIO peripheral for STM32L0xx family de
 415:../../../../../../Drivers/STM32L0xx_HAL_Driver/Src/stm32l0xx_hal_gpio.c ****   *                Note that GPIOE is not available on all devices.
 416:../../../../../../Drivers/STM32L0xx_HAL_Driver/Src/stm32l0xx_hal_gpio.c ****   * @param  GPIO_Pin specifies the port bit to be written.
 417:../../../../../../Drivers/STM32L0xx_HAL_Driver/Src/stm32l0xx_hal_gpio.c ****   *                   This parameter can be one of GPIO_PIN_x where x can be (0..15).
 418:../../../../../../Drivers/STM32L0xx_HAL_Driver/Src/stm32l0xx_hal_gpio.c ****   *                   All port bits are not necessarily available on all GPIOs.
 419:../../../../../../Drivers/STM32L0xx_HAL_Driver/Src/stm32l0xx_hal_gpio.c ****   * @param  PinState specifies the value to be written to the selected bit.
 420:../../../../../../Drivers/STM32L0xx_HAL_Driver/Src/stm32l0xx_hal_gpio.c ****   *                   This parameter can be one of the GPIO_PinState enum values:
 421:../../../../../../Drivers/STM32L0xx_HAL_Driver/Src/stm32l0xx_hal_gpio.c ****   *                        GPIO_PIN_RESET: to clear the port pin
 422:../../../../../../Drivers/STM32L0xx_HAL_Driver/Src/stm32l0xx_hal_gpio.c ****   *                        GPIO_PIN_SET: to set the port pin
 423:../../../../../../Drivers/STM32L0xx_HAL_Driver/Src/stm32l0xx_hal_gpio.c ****   * @retval None
 424:../../../../../../Drivers/STM32L0xx_HAL_Driver/Src/stm32l0xx_hal_gpio.c ****   */
 425:../../../../../../Drivers/STM32L0xx_HAL_Driver/Src/stm32l0xx_hal_gpio.c **** void HAL_GPIO_WritePin(GPIO_TypeDef* GPIOx, uint16_t GPIO_Pin, GPIO_PinState PinState)
 426:../../../../../../Drivers/STM32L0xx_HAL_Driver/Src/stm32l0xx_hal_gpio.c **** {
 763              		.loc 1 426 0
 764              		.cfi_startproc
 765              		@ args = 0, pretend = 0, frame = 0
 766              		@ frame_needed = 0, uses_anonymous_args = 0
 767              		@ link register save eliminated.
 768              	.LVL74:
 427:../../../../../../Drivers/STM32L0xx_HAL_Driver/Src/stm32l0xx_hal_gpio.c ****   /* Check the parameters */
 428:../../../../../../Drivers/STM32L0xx_HAL_Driver/Src/stm32l0xx_hal_gpio.c ****   assert_param(IS_GPIO_PIN_AVAILABLE(GPIOx,GPIO_Pin));
 429:../../../../../../Drivers/STM32L0xx_HAL_Driver/Src/stm32l0xx_hal_gpio.c ****   assert_param(IS_GPIO_PIN_ACTION(PinState));
 430:../../../../../../Drivers/STM32L0xx_HAL_Driver/Src/stm32l0xx_hal_gpio.c ****   
 431:../../../../../../Drivers/STM32L0xx_HAL_Driver/Src/stm32l0xx_hal_gpio.c ****   if(PinState != GPIO_PIN_RESET)
 769              		.loc 1 431 0
 770 0000 002A     		cmp	r2, #0
 771 0002 01D1     		bne	.L67
 432:../../../../../../Drivers/STM32L0xx_HAL_Driver/Src/stm32l0xx_hal_gpio.c ****   {
 433:../../../../../../Drivers/STM32L0xx_HAL_Driver/Src/stm32l0xx_hal_gpio.c ****     GPIOx->BSRR = GPIO_Pin;
 434:../../../../../../Drivers/STM32L0xx_HAL_Driver/Src/stm32l0xx_hal_gpio.c ****   }
 435:../../../../../../Drivers/STM32L0xx_HAL_Driver/Src/stm32l0xx_hal_gpio.c ****   else
 436:../../../../../../Drivers/STM32L0xx_HAL_Driver/Src/stm32l0xx_hal_gpio.c ****   {
 437:../../../../../../Drivers/STM32L0xx_HAL_Driver/Src/stm32l0xx_hal_gpio.c ****     GPIOx->BRR = GPIO_Pin ;
 772              		.loc 1 437 0
 773 0004 8162     		str	r1, [r0, #40]
 774              	.L64:
 438:../../../../../../Drivers/STM32L0xx_HAL_Driver/Src/stm32l0xx_hal_gpio.c ****   }
 439:../../../../../../Drivers/STM32L0xx_HAL_Driver/Src/stm32l0xx_hal_gpio.c **** }
 775              		.loc 1 439 0
 776              		@ sp needed
 777 0006 7047     		bx	lr
 778              	.L67:
 433:../../../../../../Drivers/STM32L0xx_HAL_Driver/Src/stm32l0xx_hal_gpio.c ****   }
 779              		.loc 1 433 0
 780 0008 8161     		str	r1, [r0, #24]
 781 000a FCE7     		b	.L64
 782              		.cfi_endproc
ARM GAS  C:\Users\EBANO_~1\AppData\Local\Temp\cc7rVnX9.s 			page 24


 783              	.LFE42:
 784              		.size	HAL_GPIO_WritePin, .-HAL_GPIO_WritePin
 785              		.section	.text.HAL_GPIO_TogglePin,"ax",%progbits
 786              		.align	1
 787              		.p2align 2,,3
 788              		.global	HAL_GPIO_TogglePin
 789              		.syntax unified
 790              		.code	16
 791              		.thumb_func
 792              		.fpu softvfp
 793              		.type	HAL_GPIO_TogglePin, %function
 794              	HAL_GPIO_TogglePin:
 795              	.LFB43:
 440:../../../../../../Drivers/STM32L0xx_HAL_Driver/Src/stm32l0xx_hal_gpio.c **** 
 441:../../../../../../Drivers/STM32L0xx_HAL_Driver/Src/stm32l0xx_hal_gpio.c **** /**
 442:../../../../../../Drivers/STM32L0xx_HAL_Driver/Src/stm32l0xx_hal_gpio.c ****   * @brief  Toggles the specified GPIO pins.
 443:../../../../../../Drivers/STM32L0xx_HAL_Driver/Src/stm32l0xx_hal_gpio.c ****   * @param  GPIOx Where x can be (A..E and H) to select the GPIO peripheral for STM32L0xx family de
 444:../../../../../../Drivers/STM32L0xx_HAL_Driver/Src/stm32l0xx_hal_gpio.c ****   *                Note that GPIOE is not available on all devices.
 445:../../../../../../Drivers/STM32L0xx_HAL_Driver/Src/stm32l0xx_hal_gpio.c ****   *                All port bits are not necessarily available on all GPIOs.
 446:../../../../../../Drivers/STM32L0xx_HAL_Driver/Src/stm32l0xx_hal_gpio.c ****   * @param  GPIO_Pin Specifies the pins to be toggled.
 447:../../../../../../Drivers/STM32L0xx_HAL_Driver/Src/stm32l0xx_hal_gpio.c ****   * @retval None
 448:../../../../../../Drivers/STM32L0xx_HAL_Driver/Src/stm32l0xx_hal_gpio.c ****   */
 449:../../../../../../Drivers/STM32L0xx_HAL_Driver/Src/stm32l0xx_hal_gpio.c **** void HAL_GPIO_TogglePin(GPIO_TypeDef* GPIOx, uint16_t GPIO_Pin)
 450:../../../../../../Drivers/STM32L0xx_HAL_Driver/Src/stm32l0xx_hal_gpio.c **** {
 796              		.loc 1 450 0
 797              		.cfi_startproc
 798              		@ args = 0, pretend = 0, frame = 0
 799              		@ frame_needed = 0, uses_anonymous_args = 0
 800              		@ link register save eliminated.
 801              	.LVL75:
 451:../../../../../../Drivers/STM32L0xx_HAL_Driver/Src/stm32l0xx_hal_gpio.c ****   /* Check the parameters */
 452:../../../../../../Drivers/STM32L0xx_HAL_Driver/Src/stm32l0xx_hal_gpio.c ****   assert_param(IS_GPIO_PIN_AVAILABLE(GPIOx,GPIO_Pin));
 453:../../../../../../Drivers/STM32L0xx_HAL_Driver/Src/stm32l0xx_hal_gpio.c **** 
 454:../../../../../../Drivers/STM32L0xx_HAL_Driver/Src/stm32l0xx_hal_gpio.c ****   GPIOx->ODR ^= GPIO_Pin;
 802              		.loc 1 454 0
 803 0000 4369     		ldr	r3, [r0, #20]
 455:../../../../../../Drivers/STM32L0xx_HAL_Driver/Src/stm32l0xx_hal_gpio.c **** }
 804              		.loc 1 455 0
 805              		@ sp needed
 454:../../../../../../Drivers/STM32L0xx_HAL_Driver/Src/stm32l0xx_hal_gpio.c **** }
 806              		.loc 1 454 0
 807 0002 5940     		eors	r1, r3
 808              	.LVL76:
 809 0004 4161     		str	r1, [r0, #20]
 810              		.loc 1 455 0
 811 0006 7047     		bx	lr
 812              		.cfi_endproc
 813              	.LFE43:
 814              		.size	HAL_GPIO_TogglePin, .-HAL_GPIO_TogglePin
 815              		.section	.text.HAL_GPIO_LockPin,"ax",%progbits
 816              		.align	1
 817              		.p2align 2,,3
 818              		.global	HAL_GPIO_LockPin
 819              		.syntax unified
 820              		.code	16
 821              		.thumb_func
 822              		.fpu softvfp
ARM GAS  C:\Users\EBANO_~1\AppData\Local\Temp\cc7rVnX9.s 			page 25


 823              		.type	HAL_GPIO_LockPin, %function
 824              	HAL_GPIO_LockPin:
 825              	.LFB44:
 456:../../../../../../Drivers/STM32L0xx_HAL_Driver/Src/stm32l0xx_hal_gpio.c **** 
 457:../../../../../../Drivers/STM32L0xx_HAL_Driver/Src/stm32l0xx_hal_gpio.c **** /**
 458:../../../../../../Drivers/STM32L0xx_HAL_Driver/Src/stm32l0xx_hal_gpio.c **** * @brief  Locks GPIO Pins configuration registers.
 459:../../../../../../Drivers/STM32L0xx_HAL_Driver/Src/stm32l0xx_hal_gpio.c **** * @note   The locked registers are GPIOx_MODER, GPIOx_OTYPER, GPIOx_OSPEEDR,
 460:../../../../../../Drivers/STM32L0xx_HAL_Driver/Src/stm32l0xx_hal_gpio.c **** *         GPIOx_PUPDR, GPIOx_AFRL and GPIOx_AFRH.
 461:../../../../../../Drivers/STM32L0xx_HAL_Driver/Src/stm32l0xx_hal_gpio.c **** * @note   The configuration of the locked GPIO pins can no longer be modified
 462:../../../../../../Drivers/STM32L0xx_HAL_Driver/Src/stm32l0xx_hal_gpio.c **** *         until the next reset.
 463:../../../../../../Drivers/STM32L0xx_HAL_Driver/Src/stm32l0xx_hal_gpio.c **** * @param  GPIOx where x can be (A..E and H) to select the GPIO peripheral for STM32L0xx family.
 464:../../../../../../Drivers/STM32L0xx_HAL_Driver/Src/stm32l0xx_hal_gpio.c **** *                Note that GPIOE is not available on all devices.
 465:../../../../../../Drivers/STM32L0xx_HAL_Driver/Src/stm32l0xx_hal_gpio.c **** * @param  GPIO_Pin specifies the port bit to be locked.
 466:../../../../../../Drivers/STM32L0xx_HAL_Driver/Src/stm32l0xx_hal_gpio.c **** *         This parameter can be any combination of GPIO_Pin_x where x can be (0..15).
 467:../../../../../../Drivers/STM32L0xx_HAL_Driver/Src/stm32l0xx_hal_gpio.c **** *         All port bits are not necessarily available on all GPIOs.
 468:../../../../../../Drivers/STM32L0xx_HAL_Driver/Src/stm32l0xx_hal_gpio.c **** * @retval None
 469:../../../../../../Drivers/STM32L0xx_HAL_Driver/Src/stm32l0xx_hal_gpio.c **** */
 470:../../../../../../Drivers/STM32L0xx_HAL_Driver/Src/stm32l0xx_hal_gpio.c **** HAL_StatusTypeDef HAL_GPIO_LockPin(GPIO_TypeDef* GPIOx, uint16_t GPIO_Pin)
 471:../../../../../../Drivers/STM32L0xx_HAL_Driver/Src/stm32l0xx_hal_gpio.c **** {
 826              		.loc 1 471 0
 827              		.cfi_startproc
 828              		@ args = 0, pretend = 0, frame = 8
 829              		@ frame_needed = 0, uses_anonymous_args = 0
 830              		@ link register save eliminated.
 831              	.LVL77:
 472:../../../../../../Drivers/STM32L0xx_HAL_Driver/Src/stm32l0xx_hal_gpio.c ****   __IO uint32_t tmp = GPIO_LCKR_LCKK;
 832              		.loc 1 472 0
 833 0000 8023     		movs	r3, #128
 471:../../../../../../Drivers/STM32L0xx_HAL_Driver/Src/stm32l0xx_hal_gpio.c ****   __IO uint32_t tmp = GPIO_LCKR_LCKK;
 834              		.loc 1 471 0
 835 0002 82B0     		sub	sp, sp, #8
 836              	.LCFI6:
 837              		.cfi_def_cfa_offset 8
 838              		.loc 1 472 0
 839 0004 5B02     		lsls	r3, r3, #9
 840 0006 0193     		str	r3, [sp, #4]
 473:../../../../../../Drivers/STM32L0xx_HAL_Driver/Src/stm32l0xx_hal_gpio.c **** 
 474:../../../../../../Drivers/STM32L0xx_HAL_Driver/Src/stm32l0xx_hal_gpio.c ****   /* Check the parameters */
 475:../../../../../../Drivers/STM32L0xx_HAL_Driver/Src/stm32l0xx_hal_gpio.c ****   assert_param(IS_GPIO_PIN_AVAILABLE(GPIOx,GPIO_Pin));
 476:../../../../../../Drivers/STM32L0xx_HAL_Driver/Src/stm32l0xx_hal_gpio.c **** 
 477:../../../../../../Drivers/STM32L0xx_HAL_Driver/Src/stm32l0xx_hal_gpio.c ****   /* Apply lock key write sequence */
 478:../../../../../../Drivers/STM32L0xx_HAL_Driver/Src/stm32l0xx_hal_gpio.c ****   tmp |= GPIO_Pin;
 841              		.loc 1 478 0
 842 0008 019B     		ldr	r3, [sp, #4]
 843 000a 0B43     		orrs	r3, r1
 844 000c 0193     		str	r3, [sp, #4]
 479:../../../../../../Drivers/STM32L0xx_HAL_Driver/Src/stm32l0xx_hal_gpio.c ****   /* Set LCKx bit(s): LCKK='1' + LCK[15-0] */
 480:../../../../../../Drivers/STM32L0xx_HAL_Driver/Src/stm32l0xx_hal_gpio.c ****   GPIOx->LCKR = tmp;
 845              		.loc 1 480 0
 846 000e 019B     		ldr	r3, [sp, #4]
 847 0010 C361     		str	r3, [r0, #28]
 481:../../../../../../Drivers/STM32L0xx_HAL_Driver/Src/stm32l0xx_hal_gpio.c ****   /* Reset LCKx bit(s): LCKK='0' + LCK[15-0] */
 482:../../../../../../Drivers/STM32L0xx_HAL_Driver/Src/stm32l0xx_hal_gpio.c ****   GPIOx->LCKR = GPIO_Pin;
 848              		.loc 1 482 0
 849 0012 C161     		str	r1, [r0, #28]
 483:../../../../../../Drivers/STM32L0xx_HAL_Driver/Src/stm32l0xx_hal_gpio.c ****   /* Set LCKx bit(s): LCKK='1' + LCK[15-0] */
 484:../../../../../../Drivers/STM32L0xx_HAL_Driver/Src/stm32l0xx_hal_gpio.c ****   GPIOx->LCKR = tmp;
ARM GAS  C:\Users\EBANO_~1\AppData\Local\Temp\cc7rVnX9.s 			page 26


 850              		.loc 1 484 0
 851 0014 019B     		ldr	r3, [sp, #4]
 852 0016 C361     		str	r3, [r0, #28]
 485:../../../../../../Drivers/STM32L0xx_HAL_Driver/Src/stm32l0xx_hal_gpio.c ****   /* Read LCKK bit*/
 486:../../../../../../Drivers/STM32L0xx_HAL_Driver/Src/stm32l0xx_hal_gpio.c ****   tmp = GPIOx->LCKR;
 853              		.loc 1 486 0
 854 0018 C369     		ldr	r3, [r0, #28]
 855 001a 0193     		str	r3, [sp, #4]
 487:../../../../../../Drivers/STM32L0xx_HAL_Driver/Src/stm32l0xx_hal_gpio.c **** 
 488:../../../../../../Drivers/STM32L0xx_HAL_Driver/Src/stm32l0xx_hal_gpio.c ****   if((GPIOx->LCKR & GPIO_LCKR_LCKK) != RESET)
 856              		.loc 1 488 0
 857 001c C369     		ldr	r3, [r0, #28]
 858 001e 0120     		movs	r0, #1
 859              	.LVL78:
 860 0020 1B0C     		lsrs	r3, r3, #16
 861 0022 9843     		bics	r0, r3
 489:../../../../../../Drivers/STM32L0xx_HAL_Driver/Src/stm32l0xx_hal_gpio.c ****   {
 490:../../../../../../Drivers/STM32L0xx_HAL_Driver/Src/stm32l0xx_hal_gpio.c ****     return HAL_OK;
 491:../../../../../../Drivers/STM32L0xx_HAL_Driver/Src/stm32l0xx_hal_gpio.c ****   }
 492:../../../../../../Drivers/STM32L0xx_HAL_Driver/Src/stm32l0xx_hal_gpio.c ****   else
 493:../../../../../../Drivers/STM32L0xx_HAL_Driver/Src/stm32l0xx_hal_gpio.c ****   {
 494:../../../../../../Drivers/STM32L0xx_HAL_Driver/Src/stm32l0xx_hal_gpio.c ****     return HAL_ERROR;
 495:../../../../../../Drivers/STM32L0xx_HAL_Driver/Src/stm32l0xx_hal_gpio.c ****   }
 496:../../../../../../Drivers/STM32L0xx_HAL_Driver/Src/stm32l0xx_hal_gpio.c **** }
 862              		.loc 1 496 0
 863 0024 02B0     		add	sp, sp, #8
 864              		@ sp needed
 865 0026 7047     		bx	lr
 866              		.cfi_endproc
 867              	.LFE44:
 868              		.size	HAL_GPIO_LockPin, .-HAL_GPIO_LockPin
 869              		.section	.text.HAL_GPIO_EXTI_Callback,"ax",%progbits
 870              		.align	1
 871              		.p2align 2,,3
 872              		.weak	HAL_GPIO_EXTI_Callback
 873              		.syntax unified
 874              		.code	16
 875              		.thumb_func
 876              		.fpu softvfp
 877              		.type	HAL_GPIO_EXTI_Callback, %function
 878              	HAL_GPIO_EXTI_Callback:
 879              	.LFB46:
 497:../../../../../../Drivers/STM32L0xx_HAL_Driver/Src/stm32l0xx_hal_gpio.c **** /**
 498:../../../../../../Drivers/STM32L0xx_HAL_Driver/Src/stm32l0xx_hal_gpio.c ****   * @brief  This function handles EXTI interrupt request.
 499:../../../../../../Drivers/STM32L0xx_HAL_Driver/Src/stm32l0xx_hal_gpio.c ****   * @param  GPIO_Pin Specifies the pins connected to the EXTI line.
 500:../../../../../../Drivers/STM32L0xx_HAL_Driver/Src/stm32l0xx_hal_gpio.c ****   * @retval None
 501:../../../../../../Drivers/STM32L0xx_HAL_Driver/Src/stm32l0xx_hal_gpio.c ****   */
 502:../../../../../../Drivers/STM32L0xx_HAL_Driver/Src/stm32l0xx_hal_gpio.c **** void HAL_GPIO_EXTI_IRQHandler(uint16_t GPIO_Pin)
 503:../../../../../../Drivers/STM32L0xx_HAL_Driver/Src/stm32l0xx_hal_gpio.c **** {
 504:../../../../../../Drivers/STM32L0xx_HAL_Driver/Src/stm32l0xx_hal_gpio.c ****   /* EXTI line interrupt detected */
 505:../../../../../../Drivers/STM32L0xx_HAL_Driver/Src/stm32l0xx_hal_gpio.c ****   if(__HAL_GPIO_EXTI_GET_IT(GPIO_Pin) != RESET) 
 506:../../../../../../Drivers/STM32L0xx_HAL_Driver/Src/stm32l0xx_hal_gpio.c ****   { 
 507:../../../../../../Drivers/STM32L0xx_HAL_Driver/Src/stm32l0xx_hal_gpio.c ****     __HAL_GPIO_EXTI_CLEAR_IT(GPIO_Pin);
 508:../../../../../../Drivers/STM32L0xx_HAL_Driver/Src/stm32l0xx_hal_gpio.c ****     HAL_GPIO_EXTI_Callback(GPIO_Pin);
 509:../../../../../../Drivers/STM32L0xx_HAL_Driver/Src/stm32l0xx_hal_gpio.c ****   }
 510:../../../../../../Drivers/STM32L0xx_HAL_Driver/Src/stm32l0xx_hal_gpio.c **** }
 511:../../../../../../Drivers/STM32L0xx_HAL_Driver/Src/stm32l0xx_hal_gpio.c **** 
ARM GAS  C:\Users\EBANO_~1\AppData\Local\Temp\cc7rVnX9.s 			page 27


 512:../../../../../../Drivers/STM32L0xx_HAL_Driver/Src/stm32l0xx_hal_gpio.c **** /**
 513:../../../../../../Drivers/STM32L0xx_HAL_Driver/Src/stm32l0xx_hal_gpio.c ****   * @brief  EXTI line detection callbacks.
 514:../../../../../../Drivers/STM32L0xx_HAL_Driver/Src/stm32l0xx_hal_gpio.c ****   * @param  GPIO_Pin Specifies the pins connected to the EXTI line.
 515:../../../../../../Drivers/STM32L0xx_HAL_Driver/Src/stm32l0xx_hal_gpio.c ****   * @retval None
 516:../../../../../../Drivers/STM32L0xx_HAL_Driver/Src/stm32l0xx_hal_gpio.c ****   */
 517:../../../../../../Drivers/STM32L0xx_HAL_Driver/Src/stm32l0xx_hal_gpio.c **** __weak void HAL_GPIO_EXTI_Callback(uint16_t GPIO_Pin)
 518:../../../../../../Drivers/STM32L0xx_HAL_Driver/Src/stm32l0xx_hal_gpio.c **** {
 880              		.loc 1 518 0
 881              		.cfi_startproc
 882              		@ args = 0, pretend = 0, frame = 0
 883              		@ frame_needed = 0, uses_anonymous_args = 0
 884              		@ link register save eliminated.
 885              	.LVL79:
 519:../../../../../../Drivers/STM32L0xx_HAL_Driver/Src/stm32l0xx_hal_gpio.c ****   /* Prevent unused argument(s) compilation warning */
 520:../../../../../../Drivers/STM32L0xx_HAL_Driver/Src/stm32l0xx_hal_gpio.c ****   UNUSED(GPIO_Pin);
 521:../../../../../../Drivers/STM32L0xx_HAL_Driver/Src/stm32l0xx_hal_gpio.c **** 
 522:../../../../../../Drivers/STM32L0xx_HAL_Driver/Src/stm32l0xx_hal_gpio.c ****   /* NOTE: This function Should not be modified, when the callback is needed,
 523:../../../../../../Drivers/STM32L0xx_HAL_Driver/Src/stm32l0xx_hal_gpio.c ****            the HAL_GPIO_EXTI_Callback could be implemented in the user file
 524:../../../../../../Drivers/STM32L0xx_HAL_Driver/Src/stm32l0xx_hal_gpio.c ****    */ 
 525:../../../../../../Drivers/STM32L0xx_HAL_Driver/Src/stm32l0xx_hal_gpio.c **** }
 886              		.loc 1 525 0
 887              		@ sp needed
 888 0000 7047     		bx	lr
 889              		.cfi_endproc
 890              	.LFE46:
 891              		.size	HAL_GPIO_EXTI_Callback, .-HAL_GPIO_EXTI_Callback
 892 0002 C046     		.section	.text.HAL_GPIO_EXTI_IRQHandler,"ax",%progbits
 893              		.align	1
 894              		.p2align 2,,3
 895              		.global	HAL_GPIO_EXTI_IRQHandler
 896              		.syntax unified
 897              		.code	16
 898              		.thumb_func
 899              		.fpu softvfp
 900              		.type	HAL_GPIO_EXTI_IRQHandler, %function
 901              	HAL_GPIO_EXTI_IRQHandler:
 902              	.LFB45:
 503:../../../../../../Drivers/STM32L0xx_HAL_Driver/Src/stm32l0xx_hal_gpio.c ****   /* EXTI line interrupt detected */
 903              		.loc 1 503 0
 904              		.cfi_startproc
 905              		@ args = 0, pretend = 0, frame = 0
 906              		@ frame_needed = 0, uses_anonymous_args = 0
 907              	.LVL80:
 505:../../../../../../Drivers/STM32L0xx_HAL_Driver/Src/stm32l0xx_hal_gpio.c ****   { 
 908              		.loc 1 505 0
 909 0000 044B     		ldr	r3, .L76
 503:../../../../../../Drivers/STM32L0xx_HAL_Driver/Src/stm32l0xx_hal_gpio.c ****   /* EXTI line interrupt detected */
 910              		.loc 1 503 0
 911 0002 10B5     		push	{r4, lr}
 912              	.LCFI7:
 913              		.cfi_def_cfa_offset 8
 914              		.cfi_offset 4, -8
 915              		.cfi_offset 14, -4
 505:../../../../../../Drivers/STM32L0xx_HAL_Driver/Src/stm32l0xx_hal_gpio.c ****   { 
 916              		.loc 1 505 0
 917 0004 5A69     		ldr	r2, [r3, #20]
 918 0006 1042     		tst	r0, r2
ARM GAS  C:\Users\EBANO_~1\AppData\Local\Temp\cc7rVnX9.s 			page 28


 919 0008 02D0     		beq	.L71
 507:../../../../../../Drivers/STM32L0xx_HAL_Driver/Src/stm32l0xx_hal_gpio.c ****     HAL_GPIO_EXTI_Callback(GPIO_Pin);
 920              		.loc 1 507 0
 921 000a 5861     		str	r0, [r3, #20]
 508:../../../../../../Drivers/STM32L0xx_HAL_Driver/Src/stm32l0xx_hal_gpio.c ****   }
 922              		.loc 1 508 0
 923 000c FFF7FEFF 		bl	HAL_GPIO_EXTI_Callback
 924              	.LVL81:
 925              	.L71:
 510:../../../../../../Drivers/STM32L0xx_HAL_Driver/Src/stm32l0xx_hal_gpio.c **** 
 926              		.loc 1 510 0
 927              		@ sp needed
 928 0010 10BD     		pop	{r4, pc}
 929              	.L77:
 930 0012 C046     		.align	2
 931              	.L76:
 932 0014 00040140 		.word	1073808384
 933              		.cfi_endproc
 934              	.LFE45:
 935              		.size	HAL_GPIO_EXTI_IRQHandler, .-HAL_GPIO_EXTI_IRQHandler
 936              		.text
 937              	.Letext0:
 938              		.file 2 "c:\\program files (x86)\\gnu tools arm embedded\\7 2018-q2-update\\arm-none-eabi\\include
 939              		.file 3 "c:\\program files (x86)\\gnu tools arm embedded\\7 2018-q2-update\\arm-none-eabi\\include
 940              		.file 4 "../../../../../../Drivers/CMSIS/Device/ST/STM32L0xx/Include/system_stm32l0xx.h"
 941              		.file 5 "../../../../../../Drivers/CMSIS/Device/ST/STM32L0xx/Include/stm32l072xx.h"
 942              		.file 6 "c:\\program files (x86)\\gnu tools arm embedded\\7 2018-q2-update\\arm-none-eabi\\include
 943              		.file 7 "c:\\program files (x86)\\gnu tools arm embedded\\7 2018-q2-update\\arm-none-eabi\\include
 944              		.file 8 "c:\\program files (x86)\\gnu tools arm embedded\\7 2018-q2-update\\lib\\gcc\\arm-none-eab
 945              		.file 9 "c:\\program files (x86)\\gnu tools arm embedded\\7 2018-q2-update\\arm-none-eabi\\include
 946              		.file 10 "../../../../../../Drivers/CMSIS/Device/ST/STM32L0xx/Include/stm32l0xx.h"
 947              		.file 11 "../../../../../../Drivers/STM32L0xx_HAL_Driver/Inc/stm32l0xx_hal_def.h"
 948              		.file 12 "../../../../../../Drivers/STM32L0xx_HAL_Driver/Inc/stm32l0xx_hal_gpio.h"