ARM GAS  C:\Users\EBANO_~1\AppData\Local\Temp\cc8t01eQ.s 			page 1


   1              		.cpu cortex-m0plus
   2              		.eabi_attribute 20, 1
   3              		.eabi_attribute 21, 1
   4              		.eabi_attribute 23, 3
   5              		.eabi_attribute 24, 1
   6              		.eabi_attribute 25, 1
   7              		.eabi_attribute 26, 1
   8              		.eabi_attribute 30, 2
   9              		.eabi_attribute 34, 0
  10              		.eabi_attribute 18, 4
  11              		.file	"stm32l0xx_hal_rtc.c"
  12              		.text
  13              	.Ltext0:
  14              		.cfi_sections	.debug_frame
  15              		.section	.text.HAL_RTC_MspInit,"ax",%progbits
  16              		.align	1
  17              		.p2align 2,,3
  18              		.weak	HAL_RTC_MspInit
  19              		.syntax unified
  20              		.code	16
  21              		.thumb_func
  22              		.fpu softvfp
  23              		.type	HAL_RTC_MspInit, %function
  24              	HAL_RTC_MspInit:
  25              	.LFB41:
  26              		.file 1 "../../../../../../Drivers/STM32L0xx_HAL_Driver/Src/stm32l0xx_hal_rtc.c"
   1:../../../../../../Drivers/STM32L0xx_HAL_Driver/Src/stm32l0xx_hal_rtc.c **** /**
   2:../../../../../../Drivers/STM32L0xx_HAL_Driver/Src/stm32l0xx_hal_rtc.c ****   ******************************************************************************
   3:../../../../../../Drivers/STM32L0xx_HAL_Driver/Src/stm32l0xx_hal_rtc.c ****   * @file    stm32l0xx_hal_rtc.c
   4:../../../../../../Drivers/STM32L0xx_HAL_Driver/Src/stm32l0xx_hal_rtc.c ****   * @author  MCD Application Team
   5:../../../../../../Drivers/STM32L0xx_HAL_Driver/Src/stm32l0xx_hal_rtc.c ****   * @brief   RTC HAL module driver.
   6:../../../../../../Drivers/STM32L0xx_HAL_Driver/Src/stm32l0xx_hal_rtc.c ****   *          This file provides firmware functions to manage the following
   7:../../../../../../Drivers/STM32L0xx_HAL_Driver/Src/stm32l0xx_hal_rtc.c ****   *          functionalities of the Real Time Clock (RTC) peripheral:
   8:../../../../../../Drivers/STM32L0xx_HAL_Driver/Src/stm32l0xx_hal_rtc.c ****   *           + Initialization/de-initialization functions
   9:../../../../../../Drivers/STM32L0xx_HAL_Driver/Src/stm32l0xx_hal_rtc.c ****   *           + I/O operation functions
  10:../../../../../../Drivers/STM32L0xx_HAL_Driver/Src/stm32l0xx_hal_rtc.c ****   *           + Peripheral Control functions
  11:../../../../../../Drivers/STM32L0xx_HAL_Driver/Src/stm32l0xx_hal_rtc.c ****   *           + Peripheral State functions
  12:../../../../../../Drivers/STM32L0xx_HAL_Driver/Src/stm32l0xx_hal_rtc.c ****   *         
  13:../../../../../../Drivers/STM32L0xx_HAL_Driver/Src/stm32l0xx_hal_rtc.c ****   @verbatim
  14:../../../../../../Drivers/STM32L0xx_HAL_Driver/Src/stm32l0xx_hal_rtc.c ****   ==============================================================================
  15:../../../../../../Drivers/STM32L0xx_HAL_Driver/Src/stm32l0xx_hal_rtc.c ****               ##### Backup Domain Operating Condition #####
  16:../../../../../../Drivers/STM32L0xx_HAL_Driver/Src/stm32l0xx_hal_rtc.c ****   ==============================================================================
  17:../../../../../../Drivers/STM32L0xx_HAL_Driver/Src/stm32l0xx_hal_rtc.c ****   [..] As long as the supply voltage remains in the operating range, 
  18:../../../../../../Drivers/STM32L0xx_HAL_Driver/Src/stm32l0xx_hal_rtc.c ****        the RTC never stops, regardless of the device status (Run mode, 
  19:../../../../../../Drivers/STM32L0xx_HAL_Driver/Src/stm32l0xx_hal_rtc.c ****        low power modes or under reset).
  20:../../../../../../Drivers/STM32L0xx_HAL_Driver/Src/stm32l0xx_hal_rtc.c **** 
  21:../../../../../../Drivers/STM32L0xx_HAL_Driver/Src/stm32l0xx_hal_rtc.c ****                    ##### Backup Domain Reset #####
  22:../../../../../../Drivers/STM32L0xx_HAL_Driver/Src/stm32l0xx_hal_rtc.c ****   ==================================================================
  23:../../../../../../Drivers/STM32L0xx_HAL_Driver/Src/stm32l0xx_hal_rtc.c ****   [..] The backup domain reset sets all RTC registers and the RCC_CSR register 
  24:../../../../../../Drivers/STM32L0xx_HAL_Driver/Src/stm32l0xx_hal_rtc.c ****        to their reset values.
  25:../../../../../../Drivers/STM32L0xx_HAL_Driver/Src/stm32l0xx_hal_rtc.c ****   [..] A backup domain reset is generated when one of the following events occurs:
  26:../../../../../../Drivers/STM32L0xx_HAL_Driver/Src/stm32l0xx_hal_rtc.c ****     (+) Software reset, triggered by setting the RTCRST bit in the 
  27:../../../../../../Drivers/STM32L0xx_HAL_Driver/Src/stm32l0xx_hal_rtc.c ****         RCC Control Status register (RCC_CSR).
  28:../../../../../../Drivers/STM32L0xx_HAL_Driver/Src/stm32l0xx_hal_rtc.c ****     (+) Power reset (BOR/POR/PDR).
  29:../../../../../../Drivers/STM32L0xx_HAL_Driver/Src/stm32l0xx_hal_rtc.c **** 
  30:../../../../../../Drivers/STM32L0xx_HAL_Driver/Src/stm32l0xx_hal_rtc.c ****                    ##### Backup Domain Access #####
  31:../../../../../../Drivers/STM32L0xx_HAL_Driver/Src/stm32l0xx_hal_rtc.c ****   ==================================================================
ARM GAS  C:\Users\EBANO_~1\AppData\Local\Temp\cc8t01eQ.s 			page 2


  32:../../../../../../Drivers/STM32L0xx_HAL_Driver/Src/stm32l0xx_hal_rtc.c ****   [..] After reset, the backup domain (RTC registers and RTC backup data registers) 
  33:../../../../../../Drivers/STM32L0xx_HAL_Driver/Src/stm32l0xx_hal_rtc.c ****        is protected against possible unwanted write accesses. 
  34:../../../../../../Drivers/STM32L0xx_HAL_Driver/Src/stm32l0xx_hal_rtc.c ****   [..] To enable access to the RTC Domain and RTC registers, proceed as follows:
  35:../../../../../../Drivers/STM32L0xx_HAL_Driver/Src/stm32l0xx_hal_rtc.c ****     (+) Enable the Power Controller (PWR) APB1 interface clock using the
  36:../../../../../../Drivers/STM32L0xx_HAL_Driver/Src/stm32l0xx_hal_rtc.c ****         __HAL_RCC_PWR_CLK_ENABLE() function.
  37:../../../../../../Drivers/STM32L0xx_HAL_Driver/Src/stm32l0xx_hal_rtc.c ****     (+) Enable access to RTC domain using the HAL_PWR_EnableBkUpAccess() function.
  38:../../../../../../Drivers/STM32L0xx_HAL_Driver/Src/stm32l0xx_hal_rtc.c ****     (+) Select the RTC clock source using the __HAL_RCC_RTC_CONFIG() function.
  39:../../../../../../Drivers/STM32L0xx_HAL_Driver/Src/stm32l0xx_hal_rtc.c ****     (+) Enable RTC Clock using the __HAL_RCC_RTC_ENABLE() function.
  40:../../../../../../Drivers/STM32L0xx_HAL_Driver/Src/stm32l0xx_hal_rtc.c **** 
  41:../../../../../../Drivers/STM32L0xx_HAL_Driver/Src/stm32l0xx_hal_rtc.c **** 
  42:../../../../../../Drivers/STM32L0xx_HAL_Driver/Src/stm32l0xx_hal_rtc.c ****                   ##### How to use RTC Driver #####
  43:../../../../../../Drivers/STM32L0xx_HAL_Driver/Src/stm32l0xx_hal_rtc.c ****  ===================================================================
  44:../../../../../../Drivers/STM32L0xx_HAL_Driver/Src/stm32l0xx_hal_rtc.c ****   [..]
  45:../../../../../../Drivers/STM32L0xx_HAL_Driver/Src/stm32l0xx_hal_rtc.c ****     (+) Enable the RTC domain access (see description in the section above).
  46:../../../../../../Drivers/STM32L0xx_HAL_Driver/Src/stm32l0xx_hal_rtc.c ****     (+) Configure the RTC Prescaler (Asynchronous and Synchronous) and RTC hour
  47:../../../../../../Drivers/STM32L0xx_HAL_Driver/Src/stm32l0xx_hal_rtc.c ****         format using the HAL_RTC_Init() function.
  48:../../../../../../Drivers/STM32L0xx_HAL_Driver/Src/stm32l0xx_hal_rtc.c **** 
  49:../../../../../../Drivers/STM32L0xx_HAL_Driver/Src/stm32l0xx_hal_rtc.c ****   *** Time and Date configuration ***
  50:../../../../../../Drivers/STM32L0xx_HAL_Driver/Src/stm32l0xx_hal_rtc.c ****   ===================================
  51:../../../../../../Drivers/STM32L0xx_HAL_Driver/Src/stm32l0xx_hal_rtc.c ****   [..] 
  52:../../../../../../Drivers/STM32L0xx_HAL_Driver/Src/stm32l0xx_hal_rtc.c ****     (+) To configure the RTC Calendar (Time and Date) use the HAL_RTC_SetTime()
  53:../../../../../../Drivers/STM32L0xx_HAL_Driver/Src/stm32l0xx_hal_rtc.c ****         and HAL_RTC_SetDate() functions.
  54:../../../../../../Drivers/STM32L0xx_HAL_Driver/Src/stm32l0xx_hal_rtc.c ****     (+) To read the RTC Calendar, use the HAL_RTC_GetTime() and HAL_RTC_GetDate() functions.
  55:../../../../../../Drivers/STM32L0xx_HAL_Driver/Src/stm32l0xx_hal_rtc.c **** 
  56:../../../../../../Drivers/STM32L0xx_HAL_Driver/Src/stm32l0xx_hal_rtc.c ****   *** Alarm configuration ***
  57:../../../../../../Drivers/STM32L0xx_HAL_Driver/Src/stm32l0xx_hal_rtc.c ****   ===========================
  58:../../../../../../Drivers/STM32L0xx_HAL_Driver/Src/stm32l0xx_hal_rtc.c ****   [..]
  59:../../../../../../Drivers/STM32L0xx_HAL_Driver/Src/stm32l0xx_hal_rtc.c ****     (+) To configure the RTC Alarm use the HAL_RTC_SetAlarm() function.
  60:../../../../../../Drivers/STM32L0xx_HAL_Driver/Src/stm32l0xx_hal_rtc.c ****             You can also configure the RTC Alarm with interrupt mode using the 
  61:../../../../../../Drivers/STM32L0xx_HAL_Driver/Src/stm32l0xx_hal_rtc.c ****             HAL_RTC_SetAlarm_IT() function.
  62:../../../../../../Drivers/STM32L0xx_HAL_Driver/Src/stm32l0xx_hal_rtc.c ****     (+) To read the RTC Alarm, use the HAL_RTC_GetAlarm() function.
  63:../../../../../../Drivers/STM32L0xx_HAL_Driver/Src/stm32l0xx_hal_rtc.c **** 
  64:../../../../../../Drivers/STM32L0xx_HAL_Driver/Src/stm32l0xx_hal_rtc.c ****                   ##### RTC and low power modes #####
  65:../../../../../../Drivers/STM32L0xx_HAL_Driver/Src/stm32l0xx_hal_rtc.c ****   ==================================================================
  66:../../../../../../Drivers/STM32L0xx_HAL_Driver/Src/stm32l0xx_hal_rtc.c ****   [..] The MCU can be woken up from a low power mode by an RTC alternate
  67:../../../../../../Drivers/STM32L0xx_HAL_Driver/Src/stm32l0xx_hal_rtc.c ****        function.
  68:../../../../../../Drivers/STM32L0xx_HAL_Driver/Src/stm32l0xx_hal_rtc.c ****   [..] The RTC alternate functions are the RTC alarms (Alarm A and Alarm B),
  69:../../../../../../Drivers/STM32L0xx_HAL_Driver/Src/stm32l0xx_hal_rtc.c ****        RTC wakeup, RTC tamper event detection and RTC time stamp event detection.
  70:../../../../../../Drivers/STM32L0xx_HAL_Driver/Src/stm32l0xx_hal_rtc.c ****        These RTC alternate functions can wake up the system from the Stop and 
  71:../../../../../../Drivers/STM32L0xx_HAL_Driver/Src/stm32l0xx_hal_rtc.c ****        Standby low power modes.
  72:../../../../../../Drivers/STM32L0xx_HAL_Driver/Src/stm32l0xx_hal_rtc.c ****   [..] The system can also wake up from low power modes without depending
  73:../../../../../../Drivers/STM32L0xx_HAL_Driver/Src/stm32l0xx_hal_rtc.c ****        on an external interrupt (Auto-wakeup mode), by using the RTC alarm
  74:../../../../../../Drivers/STM32L0xx_HAL_Driver/Src/stm32l0xx_hal_rtc.c ****        or the RTC wakeup events.
  75:../../../../../../Drivers/STM32L0xx_HAL_Driver/Src/stm32l0xx_hal_rtc.c ****   [..] The RTC provides a programmable time base for waking up from the
  76:../../../../../../Drivers/STM32L0xx_HAL_Driver/Src/stm32l0xx_hal_rtc.c ****        Stop or Standby mode at regular intervals.
  77:../../../../../../Drivers/STM32L0xx_HAL_Driver/Src/stm32l0xx_hal_rtc.c ****        Wakeup from STOP and STANDBY modes is possible only when the RTC clock source
  78:../../../../../../Drivers/STM32L0xx_HAL_Driver/Src/stm32l0xx_hal_rtc.c ****        is LSE or LSI.
  79:../../../../../../Drivers/STM32L0xx_HAL_Driver/Src/stm32l0xx_hal_rtc.c **** 
  80:../../../../../../Drivers/STM32L0xx_HAL_Driver/Src/stm32l0xx_hal_rtc.c ****    @endverbatim
  81:../../../../../../Drivers/STM32L0xx_HAL_Driver/Src/stm32l0xx_hal_rtc.c ****   ******************************************************************************
  82:../../../../../../Drivers/STM32L0xx_HAL_Driver/Src/stm32l0xx_hal_rtc.c ****   * @attention
  83:../../../../../../Drivers/STM32L0xx_HAL_Driver/Src/stm32l0xx_hal_rtc.c ****   *
  84:../../../../../../Drivers/STM32L0xx_HAL_Driver/Src/stm32l0xx_hal_rtc.c ****   * <h2><center>&copy; COPYRIGHT(c) 2016 STMicroelectronics</center></h2>
  85:../../../../../../Drivers/STM32L0xx_HAL_Driver/Src/stm32l0xx_hal_rtc.c ****   *
  86:../../../../../../Drivers/STM32L0xx_HAL_Driver/Src/stm32l0xx_hal_rtc.c ****   * Redistribution and use in source and binary forms, with or without modification,
  87:../../../../../../Drivers/STM32L0xx_HAL_Driver/Src/stm32l0xx_hal_rtc.c ****   * are permitted provided that the following conditions are met:
  88:../../../../../../Drivers/STM32L0xx_HAL_Driver/Src/stm32l0xx_hal_rtc.c ****   *   1. Redistributions of source code must retain the above copyright notice,
ARM GAS  C:\Users\EBANO_~1\AppData\Local\Temp\cc8t01eQ.s 			page 3


  89:../../../../../../Drivers/STM32L0xx_HAL_Driver/Src/stm32l0xx_hal_rtc.c ****   *      this list of conditions and the following disclaimer.
  90:../../../../../../Drivers/STM32L0xx_HAL_Driver/Src/stm32l0xx_hal_rtc.c ****   *   2. Redistributions in binary form must reproduce the above copyright notice,
  91:../../../../../../Drivers/STM32L0xx_HAL_Driver/Src/stm32l0xx_hal_rtc.c ****   *      this list of conditions and the following disclaimer in the documentation
  92:../../../../../../Drivers/STM32L0xx_HAL_Driver/Src/stm32l0xx_hal_rtc.c ****   *      and/or other materials provided with the distribution.
  93:../../../../../../Drivers/STM32L0xx_HAL_Driver/Src/stm32l0xx_hal_rtc.c ****   *   3. Neither the name of STMicroelectronics nor the names of its contributors
  94:../../../../../../Drivers/STM32L0xx_HAL_Driver/Src/stm32l0xx_hal_rtc.c ****   *      may be used to endorse or promote products derived from this software
  95:../../../../../../Drivers/STM32L0xx_HAL_Driver/Src/stm32l0xx_hal_rtc.c ****   *      without specific prior written permission.
  96:../../../../../../Drivers/STM32L0xx_HAL_Driver/Src/stm32l0xx_hal_rtc.c ****   *
  97:../../../../../../Drivers/STM32L0xx_HAL_Driver/Src/stm32l0xx_hal_rtc.c ****   * THIS SOFTWARE IS PROVIDED BY THE COPYRIGHT HOLDERS AND CONTRIBUTORS "AS IS"
  98:../../../../../../Drivers/STM32L0xx_HAL_Driver/Src/stm32l0xx_hal_rtc.c ****   * AND ANY EXPRESS OR IMPLIED WARRANTIES, INCLUDING, BUT NOT LIMITED TO, THE
  99:../../../../../../Drivers/STM32L0xx_HAL_Driver/Src/stm32l0xx_hal_rtc.c ****   * IMPLIED WARRANTIES OF MERCHANTABILITY AND FITNESS FOR A PARTICULAR PURPOSE ARE
 100:../../../../../../Drivers/STM32L0xx_HAL_Driver/Src/stm32l0xx_hal_rtc.c ****   * DISCLAIMED. IN NO EVENT SHALL THE COPYRIGHT HOLDER OR CONTRIBUTORS BE LIABLE
 101:../../../../../../Drivers/STM32L0xx_HAL_Driver/Src/stm32l0xx_hal_rtc.c ****   * FOR ANY DIRECT, INDIRECT, INCIDENTAL, SPECIAL, EXEMPLARY, OR CONSEQUENTIAL
 102:../../../../../../Drivers/STM32L0xx_HAL_Driver/Src/stm32l0xx_hal_rtc.c ****   * DAMAGES (INCLUDING, BUT NOT LIMITED TO, PROCUREMENT OF SUBSTITUTE GOODS OR
 103:../../../../../../Drivers/STM32L0xx_HAL_Driver/Src/stm32l0xx_hal_rtc.c ****   * SERVICES; LOSS OF USE, DATA, OR PROFITS; OR BUSINESS INTERRUPTION) HOWEVER
 104:../../../../../../Drivers/STM32L0xx_HAL_Driver/Src/stm32l0xx_hal_rtc.c ****   * CAUSED AND ON ANY THEORY OF LIABILITY, WHETHER IN CONTRACT, STRICT LIABILITY,
 105:../../../../../../Drivers/STM32L0xx_HAL_Driver/Src/stm32l0xx_hal_rtc.c ****   * OR TORT (INCLUDING NEGLIGENCE OR OTHERWISE) ARISING IN ANY WAY OUT OF THE USE
 106:../../../../../../Drivers/STM32L0xx_HAL_Driver/Src/stm32l0xx_hal_rtc.c ****   * OF THIS SOFTWARE, EVEN IF ADVISED OF THE POSSIBILITY OF SUCH DAMAGE.
 107:../../../../../../Drivers/STM32L0xx_HAL_Driver/Src/stm32l0xx_hal_rtc.c ****   *
 108:../../../../../../Drivers/STM32L0xx_HAL_Driver/Src/stm32l0xx_hal_rtc.c ****   ******************************************************************************  
 109:../../../../../../Drivers/STM32L0xx_HAL_Driver/Src/stm32l0xx_hal_rtc.c ****   */
 110:../../../../../../Drivers/STM32L0xx_HAL_Driver/Src/stm32l0xx_hal_rtc.c **** 
 111:../../../../../../Drivers/STM32L0xx_HAL_Driver/Src/stm32l0xx_hal_rtc.c **** /* Includes ------------------------------------------------------------------*/
 112:../../../../../../Drivers/STM32L0xx_HAL_Driver/Src/stm32l0xx_hal_rtc.c **** #include "stm32l0xx_hal.h"
 113:../../../../../../Drivers/STM32L0xx_HAL_Driver/Src/stm32l0xx_hal_rtc.c **** 
 114:../../../../../../Drivers/STM32L0xx_HAL_Driver/Src/stm32l0xx_hal_rtc.c **** /** @addtogroup STM32L0xx_HAL_Driver
 115:../../../../../../Drivers/STM32L0xx_HAL_Driver/Src/stm32l0xx_hal_rtc.c ****   * @{
 116:../../../../../../Drivers/STM32L0xx_HAL_Driver/Src/stm32l0xx_hal_rtc.c ****   */
 117:../../../../../../Drivers/STM32L0xx_HAL_Driver/Src/stm32l0xx_hal_rtc.c **** 
 118:../../../../../../Drivers/STM32L0xx_HAL_Driver/Src/stm32l0xx_hal_rtc.c **** 
 119:../../../../../../Drivers/STM32L0xx_HAL_Driver/Src/stm32l0xx_hal_rtc.c **** /** @addtogroup RTC
 120:../../../../../../Drivers/STM32L0xx_HAL_Driver/Src/stm32l0xx_hal_rtc.c ****   * @brief RTC HAL module driver
 121:../../../../../../Drivers/STM32L0xx_HAL_Driver/Src/stm32l0xx_hal_rtc.c ****   * @{
 122:../../../../../../Drivers/STM32L0xx_HAL_Driver/Src/stm32l0xx_hal_rtc.c ****   */
 123:../../../../../../Drivers/STM32L0xx_HAL_Driver/Src/stm32l0xx_hal_rtc.c **** 
 124:../../../../../../Drivers/STM32L0xx_HAL_Driver/Src/stm32l0xx_hal_rtc.c **** #ifdef HAL_RTC_MODULE_ENABLED
 125:../../../../../../Drivers/STM32L0xx_HAL_Driver/Src/stm32l0xx_hal_rtc.c **** 
 126:../../../../../../Drivers/STM32L0xx_HAL_Driver/Src/stm32l0xx_hal_rtc.c **** /* Private typedef -----------------------------------------------------------*/
 127:../../../../../../Drivers/STM32L0xx_HAL_Driver/Src/stm32l0xx_hal_rtc.c **** /* Private define ------------------------------------------------------------*/
 128:../../../../../../Drivers/STM32L0xx_HAL_Driver/Src/stm32l0xx_hal_rtc.c **** /* Private macro -------------------------------------------------------------*/
 129:../../../../../../Drivers/STM32L0xx_HAL_Driver/Src/stm32l0xx_hal_rtc.c **** /* Private variables ---------------------------------------------------------*/
 130:../../../../../../Drivers/STM32L0xx_HAL_Driver/Src/stm32l0xx_hal_rtc.c **** /* Private function prototypes -----------------------------------------------*/
 131:../../../../../../Drivers/STM32L0xx_HAL_Driver/Src/stm32l0xx_hal_rtc.c **** /* Exported functions --------------------------------------------------------*/
 132:../../../../../../Drivers/STM32L0xx_HAL_Driver/Src/stm32l0xx_hal_rtc.c **** 
 133:../../../../../../Drivers/STM32L0xx_HAL_Driver/Src/stm32l0xx_hal_rtc.c **** /** @addtogroup RTC_Exported_Functions
 134:../../../../../../Drivers/STM32L0xx_HAL_Driver/Src/stm32l0xx_hal_rtc.c ****   * @{
 135:../../../../../../Drivers/STM32L0xx_HAL_Driver/Src/stm32l0xx_hal_rtc.c ****   */
 136:../../../../../../Drivers/STM32L0xx_HAL_Driver/Src/stm32l0xx_hal_rtc.c **** 
 137:../../../../../../Drivers/STM32L0xx_HAL_Driver/Src/stm32l0xx_hal_rtc.c **** /** @addtogroup RTC_Exported_Functions_Group1
 138:../../../../../../Drivers/STM32L0xx_HAL_Driver/Src/stm32l0xx_hal_rtc.c ****  *  @brief    Initialization and Configuration functions 
 139:../../../../../../Drivers/STM32L0xx_HAL_Driver/Src/stm32l0xx_hal_rtc.c ****  *
 140:../../../../../../Drivers/STM32L0xx_HAL_Driver/Src/stm32l0xx_hal_rtc.c **** @verbatim
 141:../../../../../../Drivers/STM32L0xx_HAL_Driver/Src/stm32l0xx_hal_rtc.c ****  ===============================================================================
 142:../../../../../../Drivers/STM32L0xx_HAL_Driver/Src/stm32l0xx_hal_rtc.c ****               ##### Initialization and de-initialization functions #####
 143:../../../../../../Drivers/STM32L0xx_HAL_Driver/Src/stm32l0xx_hal_rtc.c ****  ===============================================================================
 144:../../../../../../Drivers/STM32L0xx_HAL_Driver/Src/stm32l0xx_hal_rtc.c ****    [..] This section provides functions allowing to initialize and configure the 
 145:../../../../../../Drivers/STM32L0xx_HAL_Driver/Src/stm32l0xx_hal_rtc.c ****          RTC Prescaler (Synchronous and Asynchronous), RTC Hour format, disable 
ARM GAS  C:\Users\EBANO_~1\AppData\Local\Temp\cc8t01eQ.s 			page 4


 146:../../../../../../Drivers/STM32L0xx_HAL_Driver/Src/stm32l0xx_hal_rtc.c ****          RTC registers Write protection, enter and exit the RTC initialization mode,
 147:../../../../../../Drivers/STM32L0xx_HAL_Driver/Src/stm32l0xx_hal_rtc.c ****          RTC registers synchronization check and reference clock detection enable.
 148:../../../../../../Drivers/STM32L0xx_HAL_Driver/Src/stm32l0xx_hal_rtc.c ****          (#) The RTC Prescaler is programmed to generate the RTC 1Hz time base.
 149:../../../../../../Drivers/STM32L0xx_HAL_Driver/Src/stm32l0xx_hal_rtc.c ****              It is split into 2 programmable prescalers to minimize power consumption.
 150:../../../../../../Drivers/STM32L0xx_HAL_Driver/Src/stm32l0xx_hal_rtc.c ****              (++) A 7-bit asynchronous prescaler and a 15-bit synchronous prescaler.
 151:../../../../../../Drivers/STM32L0xx_HAL_Driver/Src/stm32l0xx_hal_rtc.c ****              (++) When both prescalers are used, it is recommended to configure the 
 152:../../../../../../Drivers/STM32L0xx_HAL_Driver/Src/stm32l0xx_hal_rtc.c ****                  asynchronous prescaler to a high value to minimize power consumption.
 153:../../../../../../Drivers/STM32L0xx_HAL_Driver/Src/stm32l0xx_hal_rtc.c ****          (#) All RTC registers are Write protected. Writing to the RTC registers
 154:../../../../../../Drivers/STM32L0xx_HAL_Driver/Src/stm32l0xx_hal_rtc.c ****              is enabled by writing a key into the Write Protection register, RTC_WPR.
 155:../../../../../../Drivers/STM32L0xx_HAL_Driver/Src/stm32l0xx_hal_rtc.c ****          (#) To configure the RTC Calendar, user application should enter 
 156:../../../../../../Drivers/STM32L0xx_HAL_Driver/Src/stm32l0xx_hal_rtc.c ****              initialization mode. In this mode, the calendar counter is stopped
 157:../../../../../../Drivers/STM32L0xx_HAL_Driver/Src/stm32l0xx_hal_rtc.c ****              and its value can be updated. When the initialization sequence is 
 158:../../../../../../Drivers/STM32L0xx_HAL_Driver/Src/stm32l0xx_hal_rtc.c ****              complete, the calendar restarts counting after 4 RTCCLK cycles.
 159:../../../../../../Drivers/STM32L0xx_HAL_Driver/Src/stm32l0xx_hal_rtc.c ****          (#) To read the calendar through the shadow registers after Calendar 
 160:../../../../../../Drivers/STM32L0xx_HAL_Driver/Src/stm32l0xx_hal_rtc.c ****              initialization, calendar update or after wakeup from low power modes
 161:../../../../../../Drivers/STM32L0xx_HAL_Driver/Src/stm32l0xx_hal_rtc.c ****              the software must first clear the RSF flag. The software must then
 162:../../../../../../Drivers/STM32L0xx_HAL_Driver/Src/stm32l0xx_hal_rtc.c ****              wait until it is set again before reading the calendar, which means
 163:../../../../../../Drivers/STM32L0xx_HAL_Driver/Src/stm32l0xx_hal_rtc.c ****              that the calendar registers have been correctly copied into the
 164:../../../../../../Drivers/STM32L0xx_HAL_Driver/Src/stm32l0xx_hal_rtc.c ****              RTC_TR and RTC_DR shadow registers.The HAL_RTC_WaitForSynchro() function 
 165:../../../../../../Drivers/STM32L0xx_HAL_Driver/Src/stm32l0xx_hal_rtc.c ****              implements the above software sequence (RSF clear and RSF check).
 166:../../../../../../Drivers/STM32L0xx_HAL_Driver/Src/stm32l0xx_hal_rtc.c **** 
 167:../../../../../../Drivers/STM32L0xx_HAL_Driver/Src/stm32l0xx_hal_rtc.c **** @endverbatim
 168:../../../../../../Drivers/STM32L0xx_HAL_Driver/Src/stm32l0xx_hal_rtc.c ****   * @{
 169:../../../../../../Drivers/STM32L0xx_HAL_Driver/Src/stm32l0xx_hal_rtc.c ****   */
 170:../../../../../../Drivers/STM32L0xx_HAL_Driver/Src/stm32l0xx_hal_rtc.c **** 
 171:../../../../../../Drivers/STM32L0xx_HAL_Driver/Src/stm32l0xx_hal_rtc.c **** /**
 172:../../../../../../Drivers/STM32L0xx_HAL_Driver/Src/stm32l0xx_hal_rtc.c ****   * @brief  Initialize the RTC peripheral
 173:../../../../../../Drivers/STM32L0xx_HAL_Driver/Src/stm32l0xx_hal_rtc.c ****   * @param  hrtc RTC handle
 174:../../../../../../Drivers/STM32L0xx_HAL_Driver/Src/stm32l0xx_hal_rtc.c ****   * @retval HAL status
 175:../../../../../../Drivers/STM32L0xx_HAL_Driver/Src/stm32l0xx_hal_rtc.c ****   */
 176:../../../../../../Drivers/STM32L0xx_HAL_Driver/Src/stm32l0xx_hal_rtc.c **** HAL_StatusTypeDef HAL_RTC_Init(RTC_HandleTypeDef *hrtc)
 177:../../../../../../Drivers/STM32L0xx_HAL_Driver/Src/stm32l0xx_hal_rtc.c **** {
 178:../../../../../../Drivers/STM32L0xx_HAL_Driver/Src/stm32l0xx_hal_rtc.c ****   /* Check the RTC peripheral state */
 179:../../../../../../Drivers/STM32L0xx_HAL_Driver/Src/stm32l0xx_hal_rtc.c ****   if(hrtc == NULL)
 180:../../../../../../Drivers/STM32L0xx_HAL_Driver/Src/stm32l0xx_hal_rtc.c ****   {
 181:../../../../../../Drivers/STM32L0xx_HAL_Driver/Src/stm32l0xx_hal_rtc.c ****      return HAL_ERROR;
 182:../../../../../../Drivers/STM32L0xx_HAL_Driver/Src/stm32l0xx_hal_rtc.c ****   }
 183:../../../../../../Drivers/STM32L0xx_HAL_Driver/Src/stm32l0xx_hal_rtc.c **** 
 184:../../../../../../Drivers/STM32L0xx_HAL_Driver/Src/stm32l0xx_hal_rtc.c ****   /* Check the parameters */
 185:../../../../../../Drivers/STM32L0xx_HAL_Driver/Src/stm32l0xx_hal_rtc.c ****   assert_param(IS_RTC_ALL_INSTANCE(hrtc->Instance));
 186:../../../../../../Drivers/STM32L0xx_HAL_Driver/Src/stm32l0xx_hal_rtc.c ****   assert_param(IS_RTC_HOUR_FORMAT(hrtc->Init.HourFormat));
 187:../../../../../../Drivers/STM32L0xx_HAL_Driver/Src/stm32l0xx_hal_rtc.c ****   assert_param(IS_RTC_ASYNCH_PREDIV(hrtc->Init.AsynchPrediv));
 188:../../../../../../Drivers/STM32L0xx_HAL_Driver/Src/stm32l0xx_hal_rtc.c ****   assert_param(IS_RTC_SYNCH_PREDIV(hrtc->Init.SynchPrediv));
 189:../../../../../../Drivers/STM32L0xx_HAL_Driver/Src/stm32l0xx_hal_rtc.c ****   assert_param(IS_RTC_OUTPUT(hrtc->Init.OutPut));
 190:../../../../../../Drivers/STM32L0xx_HAL_Driver/Src/stm32l0xx_hal_rtc.c ****   assert_param(IS_RTC_OUTPUT_REMAP(hrtc->Init.OutPutRemap));
 191:../../../../../../Drivers/STM32L0xx_HAL_Driver/Src/stm32l0xx_hal_rtc.c ****   assert_param(IS_RTC_OUTPUT_POL(hrtc->Init.OutPutPolarity));
 192:../../../../../../Drivers/STM32L0xx_HAL_Driver/Src/stm32l0xx_hal_rtc.c ****   assert_param(IS_RTC_OUTPUT_TYPE(hrtc->Init.OutPutType));
 193:../../../../../../Drivers/STM32L0xx_HAL_Driver/Src/stm32l0xx_hal_rtc.c ****   
 194:../../../../../../Drivers/STM32L0xx_HAL_Driver/Src/stm32l0xx_hal_rtc.c ****   if(hrtc->State == HAL_RTC_STATE_RESET)
 195:../../../../../../Drivers/STM32L0xx_HAL_Driver/Src/stm32l0xx_hal_rtc.c ****   {
 196:../../../../../../Drivers/STM32L0xx_HAL_Driver/Src/stm32l0xx_hal_rtc.c ****     /* Allocate lock resource and initialize it */
 197:../../../../../../Drivers/STM32L0xx_HAL_Driver/Src/stm32l0xx_hal_rtc.c ****     hrtc->Lock = HAL_UNLOCKED;
 198:../../../../../../Drivers/STM32L0xx_HAL_Driver/Src/stm32l0xx_hal_rtc.c **** 
 199:../../../../../../Drivers/STM32L0xx_HAL_Driver/Src/stm32l0xx_hal_rtc.c ****     /* Initialize RTC MSP */
 200:../../../../../../Drivers/STM32L0xx_HAL_Driver/Src/stm32l0xx_hal_rtc.c ****     HAL_RTC_MspInit(hrtc);
 201:../../../../../../Drivers/STM32L0xx_HAL_Driver/Src/stm32l0xx_hal_rtc.c ****   }
 202:../../../../../../Drivers/STM32L0xx_HAL_Driver/Src/stm32l0xx_hal_rtc.c **** 
ARM GAS  C:\Users\EBANO_~1\AppData\Local\Temp\cc8t01eQ.s 			page 5


 203:../../../../../../Drivers/STM32L0xx_HAL_Driver/Src/stm32l0xx_hal_rtc.c ****   /* Set RTC state */
 204:../../../../../../Drivers/STM32L0xx_HAL_Driver/Src/stm32l0xx_hal_rtc.c ****   hrtc->State = HAL_RTC_STATE_BUSY;
 205:../../../../../../Drivers/STM32L0xx_HAL_Driver/Src/stm32l0xx_hal_rtc.c **** 
 206:../../../../../../Drivers/STM32L0xx_HAL_Driver/Src/stm32l0xx_hal_rtc.c ****   /* Disable the write protection for RTC registers */
 207:../../../../../../Drivers/STM32L0xx_HAL_Driver/Src/stm32l0xx_hal_rtc.c ****   __HAL_RTC_WRITEPROTECTION_DISABLE(hrtc);
 208:../../../../../../Drivers/STM32L0xx_HAL_Driver/Src/stm32l0xx_hal_rtc.c **** 
 209:../../../../../../Drivers/STM32L0xx_HAL_Driver/Src/stm32l0xx_hal_rtc.c ****   /* Set Initialization mode */
 210:../../../../../../Drivers/STM32L0xx_HAL_Driver/Src/stm32l0xx_hal_rtc.c ****   if(RTC_EnterInitMode(hrtc) != HAL_OK)
 211:../../../../../../Drivers/STM32L0xx_HAL_Driver/Src/stm32l0xx_hal_rtc.c ****   {
 212:../../../../../../Drivers/STM32L0xx_HAL_Driver/Src/stm32l0xx_hal_rtc.c ****     /* Enable the write protection for RTC registers */
 213:../../../../../../Drivers/STM32L0xx_HAL_Driver/Src/stm32l0xx_hal_rtc.c ****     __HAL_RTC_WRITEPROTECTION_ENABLE(hrtc);
 214:../../../../../../Drivers/STM32L0xx_HAL_Driver/Src/stm32l0xx_hal_rtc.c **** 
 215:../../../../../../Drivers/STM32L0xx_HAL_Driver/Src/stm32l0xx_hal_rtc.c ****     /* Set RTC state */
 216:../../../../../../Drivers/STM32L0xx_HAL_Driver/Src/stm32l0xx_hal_rtc.c ****     hrtc->State = HAL_RTC_STATE_ERROR;
 217:../../../../../../Drivers/STM32L0xx_HAL_Driver/Src/stm32l0xx_hal_rtc.c **** 
 218:../../../../../../Drivers/STM32L0xx_HAL_Driver/Src/stm32l0xx_hal_rtc.c ****     return HAL_ERROR;
 219:../../../../../../Drivers/STM32L0xx_HAL_Driver/Src/stm32l0xx_hal_rtc.c ****   }
 220:../../../../../../Drivers/STM32L0xx_HAL_Driver/Src/stm32l0xx_hal_rtc.c ****   else
 221:../../../../../../Drivers/STM32L0xx_HAL_Driver/Src/stm32l0xx_hal_rtc.c ****   {
 222:../../../../../../Drivers/STM32L0xx_HAL_Driver/Src/stm32l0xx_hal_rtc.c ****     /* Clear RTC_CR FMT, OSEL and POL Bits */
 223:../../../../../../Drivers/STM32L0xx_HAL_Driver/Src/stm32l0xx_hal_rtc.c ****     hrtc->Instance->CR &= ((uint32_t)~(RTC_CR_FMT | RTC_CR_OSEL | RTC_CR_POL));
 224:../../../../../../Drivers/STM32L0xx_HAL_Driver/Src/stm32l0xx_hal_rtc.c ****     /* Set RTC_CR register */
 225:../../../../../../Drivers/STM32L0xx_HAL_Driver/Src/stm32l0xx_hal_rtc.c ****     hrtc->Instance->CR |= (uint32_t)(hrtc->Init.HourFormat | hrtc->Init.OutPut | hrtc->Init.OutPutP
 226:../../../../../../Drivers/STM32L0xx_HAL_Driver/Src/stm32l0xx_hal_rtc.c **** 
 227:../../../../../../Drivers/STM32L0xx_HAL_Driver/Src/stm32l0xx_hal_rtc.c ****     /* Configure the RTC PRER */
 228:../../../../../../Drivers/STM32L0xx_HAL_Driver/Src/stm32l0xx_hal_rtc.c ****     hrtc->Instance->PRER = (uint32_t)(hrtc->Init.SynchPrediv);
 229:../../../../../../Drivers/STM32L0xx_HAL_Driver/Src/stm32l0xx_hal_rtc.c ****     hrtc->Instance->PRER |= (uint32_t)(hrtc->Init.AsynchPrediv << 16U);
 230:../../../../../../Drivers/STM32L0xx_HAL_Driver/Src/stm32l0xx_hal_rtc.c **** 
 231:../../../../../../Drivers/STM32L0xx_HAL_Driver/Src/stm32l0xx_hal_rtc.c ****     /* Exit Initialization mode */
 232:../../../../../../Drivers/STM32L0xx_HAL_Driver/Src/stm32l0xx_hal_rtc.c ****     hrtc->Instance->ISR &= ((uint32_t)~RTC_ISR_INIT);
 233:../../../../../../Drivers/STM32L0xx_HAL_Driver/Src/stm32l0xx_hal_rtc.c **** 
 234:../../../../../../Drivers/STM32L0xx_HAL_Driver/Src/stm32l0xx_hal_rtc.c ****     hrtc->Instance->OR &= (uint32_t)~(RTC_OR_ALARMOUTTYPE | RTC_OR_OUT_RMP);
 235:../../../../../../Drivers/STM32L0xx_HAL_Driver/Src/stm32l0xx_hal_rtc.c ****     hrtc->Instance->OR |= (uint32_t)(hrtc->Init.OutPutType | hrtc->Init.OutPutRemap);
 236:../../../../../../Drivers/STM32L0xx_HAL_Driver/Src/stm32l0xx_hal_rtc.c **** 
 237:../../../../../../Drivers/STM32L0xx_HAL_Driver/Src/stm32l0xx_hal_rtc.c ****     /* Enable the write protection for RTC registers */
 238:../../../../../../Drivers/STM32L0xx_HAL_Driver/Src/stm32l0xx_hal_rtc.c ****     __HAL_RTC_WRITEPROTECTION_ENABLE(hrtc);
 239:../../../../../../Drivers/STM32L0xx_HAL_Driver/Src/stm32l0xx_hal_rtc.c **** 
 240:../../../../../../Drivers/STM32L0xx_HAL_Driver/Src/stm32l0xx_hal_rtc.c ****     /* Set RTC state */
 241:../../../../../../Drivers/STM32L0xx_HAL_Driver/Src/stm32l0xx_hal_rtc.c ****     hrtc->State = HAL_RTC_STATE_READY;
 242:../../../../../../Drivers/STM32L0xx_HAL_Driver/Src/stm32l0xx_hal_rtc.c **** 
 243:../../../../../../Drivers/STM32L0xx_HAL_Driver/Src/stm32l0xx_hal_rtc.c ****     return HAL_OK;
 244:../../../../../../Drivers/STM32L0xx_HAL_Driver/Src/stm32l0xx_hal_rtc.c ****   }
 245:../../../../../../Drivers/STM32L0xx_HAL_Driver/Src/stm32l0xx_hal_rtc.c **** }
 246:../../../../../../Drivers/STM32L0xx_HAL_Driver/Src/stm32l0xx_hal_rtc.c **** 
 247:../../../../../../Drivers/STM32L0xx_HAL_Driver/Src/stm32l0xx_hal_rtc.c **** /**
 248:../../../../../../Drivers/STM32L0xx_HAL_Driver/Src/stm32l0xx_hal_rtc.c ****   * @brief  DeInitialize the RTC peripheral.
 249:../../../../../../Drivers/STM32L0xx_HAL_Driver/Src/stm32l0xx_hal_rtc.c ****   * @param  hrtc RTC handle
 250:../../../../../../Drivers/STM32L0xx_HAL_Driver/Src/stm32l0xx_hal_rtc.c ****   * @note   This function doesn't reset the RTC Backup Data registers.
 251:../../../../../../Drivers/STM32L0xx_HAL_Driver/Src/stm32l0xx_hal_rtc.c ****   * @retval HAL status
 252:../../../../../../Drivers/STM32L0xx_HAL_Driver/Src/stm32l0xx_hal_rtc.c ****   */
 253:../../../../../../Drivers/STM32L0xx_HAL_Driver/Src/stm32l0xx_hal_rtc.c **** HAL_StatusTypeDef HAL_RTC_DeInit(RTC_HandleTypeDef *hrtc)
 254:../../../../../../Drivers/STM32L0xx_HAL_Driver/Src/stm32l0xx_hal_rtc.c **** {
 255:../../../../../../Drivers/STM32L0xx_HAL_Driver/Src/stm32l0xx_hal_rtc.c ****   uint32_t tickstart = 0U;
 256:../../../../../../Drivers/STM32L0xx_HAL_Driver/Src/stm32l0xx_hal_rtc.c **** 
 257:../../../../../../Drivers/STM32L0xx_HAL_Driver/Src/stm32l0xx_hal_rtc.c ****   /* Check the parameters */
 258:../../../../../../Drivers/STM32L0xx_HAL_Driver/Src/stm32l0xx_hal_rtc.c ****   assert_param(IS_RTC_ALL_INSTANCE(hrtc->Instance));
 259:../../../../../../Drivers/STM32L0xx_HAL_Driver/Src/stm32l0xx_hal_rtc.c **** 
ARM GAS  C:\Users\EBANO_~1\AppData\Local\Temp\cc8t01eQ.s 			page 6


 260:../../../../../../Drivers/STM32L0xx_HAL_Driver/Src/stm32l0xx_hal_rtc.c ****   /* Set RTC state */
 261:../../../../../../Drivers/STM32L0xx_HAL_Driver/Src/stm32l0xx_hal_rtc.c ****   hrtc->State = HAL_RTC_STATE_BUSY;
 262:../../../../../../Drivers/STM32L0xx_HAL_Driver/Src/stm32l0xx_hal_rtc.c **** 
 263:../../../../../../Drivers/STM32L0xx_HAL_Driver/Src/stm32l0xx_hal_rtc.c ****   /* Disable the write protection for RTC registers */
 264:../../../../../../Drivers/STM32L0xx_HAL_Driver/Src/stm32l0xx_hal_rtc.c ****   __HAL_RTC_WRITEPROTECTION_DISABLE(hrtc);
 265:../../../../../../Drivers/STM32L0xx_HAL_Driver/Src/stm32l0xx_hal_rtc.c **** 
 266:../../../../../../Drivers/STM32L0xx_HAL_Driver/Src/stm32l0xx_hal_rtc.c ****   /* Set Initialization mode */
 267:../../../../../../Drivers/STM32L0xx_HAL_Driver/Src/stm32l0xx_hal_rtc.c ****   if(RTC_EnterInitMode(hrtc) != HAL_OK)
 268:../../../../../../Drivers/STM32L0xx_HAL_Driver/Src/stm32l0xx_hal_rtc.c ****   {
 269:../../../../../../Drivers/STM32L0xx_HAL_Driver/Src/stm32l0xx_hal_rtc.c ****     /* Enable the write protection for RTC registers */
 270:../../../../../../Drivers/STM32L0xx_HAL_Driver/Src/stm32l0xx_hal_rtc.c ****     __HAL_RTC_WRITEPROTECTION_ENABLE(hrtc);
 271:../../../../../../Drivers/STM32L0xx_HAL_Driver/Src/stm32l0xx_hal_rtc.c **** 
 272:../../../../../../Drivers/STM32L0xx_HAL_Driver/Src/stm32l0xx_hal_rtc.c ****     /* Set RTC state */
 273:../../../../../../Drivers/STM32L0xx_HAL_Driver/Src/stm32l0xx_hal_rtc.c ****     hrtc->State = HAL_RTC_STATE_ERROR;
 274:../../../../../../Drivers/STM32L0xx_HAL_Driver/Src/stm32l0xx_hal_rtc.c **** 
 275:../../../../../../Drivers/STM32L0xx_HAL_Driver/Src/stm32l0xx_hal_rtc.c ****     return HAL_ERROR;
 276:../../../../../../Drivers/STM32L0xx_HAL_Driver/Src/stm32l0xx_hal_rtc.c ****   }
 277:../../../../../../Drivers/STM32L0xx_HAL_Driver/Src/stm32l0xx_hal_rtc.c ****   else
 278:../../../../../../Drivers/STM32L0xx_HAL_Driver/Src/stm32l0xx_hal_rtc.c ****   {
 279:../../../../../../Drivers/STM32L0xx_HAL_Driver/Src/stm32l0xx_hal_rtc.c ****     /* Reset TR, DR and CR registers */
 280:../../../../../../Drivers/STM32L0xx_HAL_Driver/Src/stm32l0xx_hal_rtc.c ****     hrtc->Instance->TR = (uint32_t)0x00000000U;
 281:../../../../../../Drivers/STM32L0xx_HAL_Driver/Src/stm32l0xx_hal_rtc.c ****     hrtc->Instance->DR = ((uint32_t)(RTC_DR_WDU_0 | RTC_DR_MU_0 | RTC_DR_DU_0));
 282:../../../../../../Drivers/STM32L0xx_HAL_Driver/Src/stm32l0xx_hal_rtc.c ****     /* Reset All CR bits except CR[2:0] */
 283:../../../../../../Drivers/STM32L0xx_HAL_Driver/Src/stm32l0xx_hal_rtc.c ****     hrtc->Instance->CR &= RTC_CR_WUCKSEL;
 284:../../../../../../Drivers/STM32L0xx_HAL_Driver/Src/stm32l0xx_hal_rtc.c **** 
 285:../../../../../../Drivers/STM32L0xx_HAL_Driver/Src/stm32l0xx_hal_rtc.c ****     tickstart = HAL_GetTick();
 286:../../../../../../Drivers/STM32L0xx_HAL_Driver/Src/stm32l0xx_hal_rtc.c **** 
 287:../../../../../../Drivers/STM32L0xx_HAL_Driver/Src/stm32l0xx_hal_rtc.c ****     /* Wait till WUTWF flag is set and if Time out is reached exit */
 288:../../../../../../Drivers/STM32L0xx_HAL_Driver/Src/stm32l0xx_hal_rtc.c ****     while(((hrtc->Instance->ISR) & RTC_ISR_WUTWF) == (uint32_t)RESET)
 289:../../../../../../Drivers/STM32L0xx_HAL_Driver/Src/stm32l0xx_hal_rtc.c ****     {
 290:../../../../../../Drivers/STM32L0xx_HAL_Driver/Src/stm32l0xx_hal_rtc.c ****       if((HAL_GetTick() - tickstart ) > RTC_TIMEOUT_VALUE)
 291:../../../../../../Drivers/STM32L0xx_HAL_Driver/Src/stm32l0xx_hal_rtc.c ****       {
 292:../../../../../../Drivers/STM32L0xx_HAL_Driver/Src/stm32l0xx_hal_rtc.c ****         /* Enable the write protection for RTC registers */
 293:../../../../../../Drivers/STM32L0xx_HAL_Driver/Src/stm32l0xx_hal_rtc.c ****         __HAL_RTC_WRITEPROTECTION_ENABLE(hrtc);
 294:../../../../../../Drivers/STM32L0xx_HAL_Driver/Src/stm32l0xx_hal_rtc.c **** 
 295:../../../../../../Drivers/STM32L0xx_HAL_Driver/Src/stm32l0xx_hal_rtc.c ****         /* Set RTC state */
 296:../../../../../../Drivers/STM32L0xx_HAL_Driver/Src/stm32l0xx_hal_rtc.c ****         hrtc->State = HAL_RTC_STATE_TIMEOUT;
 297:../../../../../../Drivers/STM32L0xx_HAL_Driver/Src/stm32l0xx_hal_rtc.c **** 
 298:../../../../../../Drivers/STM32L0xx_HAL_Driver/Src/stm32l0xx_hal_rtc.c ****         return HAL_TIMEOUT;
 299:../../../../../../Drivers/STM32L0xx_HAL_Driver/Src/stm32l0xx_hal_rtc.c ****       }
 300:../../../../../../Drivers/STM32L0xx_HAL_Driver/Src/stm32l0xx_hal_rtc.c ****     }
 301:../../../../../../Drivers/STM32L0xx_HAL_Driver/Src/stm32l0xx_hal_rtc.c **** 
 302:../../../../../../Drivers/STM32L0xx_HAL_Driver/Src/stm32l0xx_hal_rtc.c ****     /* Reset all RTC CR register bits */
 303:../../../../../../Drivers/STM32L0xx_HAL_Driver/Src/stm32l0xx_hal_rtc.c ****     hrtc->Instance->CR &= (uint32_t)0x00000000U;
 304:../../../../../../Drivers/STM32L0xx_HAL_Driver/Src/stm32l0xx_hal_rtc.c ****     hrtc->Instance->WUTR = RTC_WUTR_WUT;
 305:../../../../../../Drivers/STM32L0xx_HAL_Driver/Src/stm32l0xx_hal_rtc.c ****     hrtc->Instance->PRER = ((uint32_t)(RTC_PRER_PREDIV_A | 0x000000FFU));
 306:../../../../../../Drivers/STM32L0xx_HAL_Driver/Src/stm32l0xx_hal_rtc.c ****     hrtc->Instance->ALRMAR = (uint32_t)0x00000000U;
 307:../../../../../../Drivers/STM32L0xx_HAL_Driver/Src/stm32l0xx_hal_rtc.c ****     hrtc->Instance->ALRMBR = (uint32_t)0x00000000U;
 308:../../../../../../Drivers/STM32L0xx_HAL_Driver/Src/stm32l0xx_hal_rtc.c ****     hrtc->Instance->SHIFTR = (uint32_t)0x00000000U;
 309:../../../../../../Drivers/STM32L0xx_HAL_Driver/Src/stm32l0xx_hal_rtc.c ****     hrtc->Instance->CALR = (uint32_t)0x00000000U;
 310:../../../../../../Drivers/STM32L0xx_HAL_Driver/Src/stm32l0xx_hal_rtc.c ****     hrtc->Instance->ALRMASSR = (uint32_t)0x00000000U;
 311:../../../../../../Drivers/STM32L0xx_HAL_Driver/Src/stm32l0xx_hal_rtc.c ****     hrtc->Instance->ALRMBSSR = (uint32_t)0x00000000U;
 312:../../../../../../Drivers/STM32L0xx_HAL_Driver/Src/stm32l0xx_hal_rtc.c **** 
 313:../../../../../../Drivers/STM32L0xx_HAL_Driver/Src/stm32l0xx_hal_rtc.c ****     /* Reset ISR register and exit initialization mode */
 314:../../../../../../Drivers/STM32L0xx_HAL_Driver/Src/stm32l0xx_hal_rtc.c ****     hrtc->Instance->ISR = (uint32_t)0x00000000U;
 315:../../../../../../Drivers/STM32L0xx_HAL_Driver/Src/stm32l0xx_hal_rtc.c **** 
 316:../../../../../../Drivers/STM32L0xx_HAL_Driver/Src/stm32l0xx_hal_rtc.c ****     /* Reset Tamper configuration register */
ARM GAS  C:\Users\EBANO_~1\AppData\Local\Temp\cc8t01eQ.s 			page 7


 317:../../../../../../Drivers/STM32L0xx_HAL_Driver/Src/stm32l0xx_hal_rtc.c ****     hrtc->Instance->TAMPCR = 0x00000000U;
 318:../../../../../../Drivers/STM32L0xx_HAL_Driver/Src/stm32l0xx_hal_rtc.c **** 
 319:../../../../../../Drivers/STM32L0xx_HAL_Driver/Src/stm32l0xx_hal_rtc.c ****     /* Reset Option register */
 320:../../../../../../Drivers/STM32L0xx_HAL_Driver/Src/stm32l0xx_hal_rtc.c ****     hrtc->Instance->OR = 0x00000000U;
 321:../../../../../../Drivers/STM32L0xx_HAL_Driver/Src/stm32l0xx_hal_rtc.c **** 
 322:../../../../../../Drivers/STM32L0xx_HAL_Driver/Src/stm32l0xx_hal_rtc.c ****     /* If  RTC_CR_BYPSHAD bit = 0, wait for synchro else this check is not needed */
 323:../../../../../../Drivers/STM32L0xx_HAL_Driver/Src/stm32l0xx_hal_rtc.c ****     if((hrtc->Instance->CR & RTC_CR_BYPSHAD) == RESET)
 324:../../../../../../Drivers/STM32L0xx_HAL_Driver/Src/stm32l0xx_hal_rtc.c ****     {
 325:../../../../../../Drivers/STM32L0xx_HAL_Driver/Src/stm32l0xx_hal_rtc.c ****       if(HAL_RTC_WaitForSynchro(hrtc) != HAL_OK)
 326:../../../../../../Drivers/STM32L0xx_HAL_Driver/Src/stm32l0xx_hal_rtc.c ****       {
 327:../../../../../../Drivers/STM32L0xx_HAL_Driver/Src/stm32l0xx_hal_rtc.c ****         /* Enable the write protection for RTC registers */
 328:../../../../../../Drivers/STM32L0xx_HAL_Driver/Src/stm32l0xx_hal_rtc.c ****         __HAL_RTC_WRITEPROTECTION_ENABLE(hrtc);  
 329:../../../../../../Drivers/STM32L0xx_HAL_Driver/Src/stm32l0xx_hal_rtc.c **** 
 330:../../../../../../Drivers/STM32L0xx_HAL_Driver/Src/stm32l0xx_hal_rtc.c ****         hrtc->State = HAL_RTC_STATE_ERROR;
 331:../../../../../../Drivers/STM32L0xx_HAL_Driver/Src/stm32l0xx_hal_rtc.c **** 
 332:../../../../../../Drivers/STM32L0xx_HAL_Driver/Src/stm32l0xx_hal_rtc.c ****         return HAL_ERROR;
 333:../../../../../../Drivers/STM32L0xx_HAL_Driver/Src/stm32l0xx_hal_rtc.c ****       }
 334:../../../../../../Drivers/STM32L0xx_HAL_Driver/Src/stm32l0xx_hal_rtc.c ****     }
 335:../../../../../../Drivers/STM32L0xx_HAL_Driver/Src/stm32l0xx_hal_rtc.c ****   }
 336:../../../../../../Drivers/STM32L0xx_HAL_Driver/Src/stm32l0xx_hal_rtc.c **** 
 337:../../../../../../Drivers/STM32L0xx_HAL_Driver/Src/stm32l0xx_hal_rtc.c ****   /* Enable the write protection for RTC registers */
 338:../../../../../../Drivers/STM32L0xx_HAL_Driver/Src/stm32l0xx_hal_rtc.c ****   __HAL_RTC_WRITEPROTECTION_ENABLE(hrtc);
 339:../../../../../../Drivers/STM32L0xx_HAL_Driver/Src/stm32l0xx_hal_rtc.c **** 
 340:../../../../../../Drivers/STM32L0xx_HAL_Driver/Src/stm32l0xx_hal_rtc.c ****   /* De-Initialize RTC MSP */
 341:../../../../../../Drivers/STM32L0xx_HAL_Driver/Src/stm32l0xx_hal_rtc.c ****   HAL_RTC_MspDeInit(hrtc);
 342:../../../../../../Drivers/STM32L0xx_HAL_Driver/Src/stm32l0xx_hal_rtc.c **** 
 343:../../../../../../Drivers/STM32L0xx_HAL_Driver/Src/stm32l0xx_hal_rtc.c ****   hrtc->State = HAL_RTC_STATE_RESET;
 344:../../../../../../Drivers/STM32L0xx_HAL_Driver/Src/stm32l0xx_hal_rtc.c ****   
 345:../../../../../../Drivers/STM32L0xx_HAL_Driver/Src/stm32l0xx_hal_rtc.c ****   /* Release Lock */
 346:../../../../../../Drivers/STM32L0xx_HAL_Driver/Src/stm32l0xx_hal_rtc.c ****   __HAL_UNLOCK(hrtc);
 347:../../../../../../Drivers/STM32L0xx_HAL_Driver/Src/stm32l0xx_hal_rtc.c **** 
 348:../../../../../../Drivers/STM32L0xx_HAL_Driver/Src/stm32l0xx_hal_rtc.c ****   return HAL_OK;
 349:../../../../../../Drivers/STM32L0xx_HAL_Driver/Src/stm32l0xx_hal_rtc.c **** }
 350:../../../../../../Drivers/STM32L0xx_HAL_Driver/Src/stm32l0xx_hal_rtc.c **** 
 351:../../../../../../Drivers/STM32L0xx_HAL_Driver/Src/stm32l0xx_hal_rtc.c **** /**
 352:../../../../../../Drivers/STM32L0xx_HAL_Driver/Src/stm32l0xx_hal_rtc.c ****   * @brief  Initialize the RTC MSP.
 353:../../../../../../Drivers/STM32L0xx_HAL_Driver/Src/stm32l0xx_hal_rtc.c ****   * @param  hrtc RTC handle  
 354:../../../../../../Drivers/STM32L0xx_HAL_Driver/Src/stm32l0xx_hal_rtc.c ****   * @retval None
 355:../../../../../../Drivers/STM32L0xx_HAL_Driver/Src/stm32l0xx_hal_rtc.c ****   */
 356:../../../../../../Drivers/STM32L0xx_HAL_Driver/Src/stm32l0xx_hal_rtc.c **** __weak void HAL_RTC_MspInit(RTC_HandleTypeDef* hrtc)
 357:../../../../../../Drivers/STM32L0xx_HAL_Driver/Src/stm32l0xx_hal_rtc.c **** {
  27              		.loc 1 357 0
  28              		.cfi_startproc
  29              		@ args = 0, pretend = 0, frame = 0
  30              		@ frame_needed = 0, uses_anonymous_args = 0
  31              		@ link register save eliminated.
  32              	.LVL0:
 358:../../../../../../Drivers/STM32L0xx_HAL_Driver/Src/stm32l0xx_hal_rtc.c ****   /* Prevent unused argument(s) compilation warning */
 359:../../../../../../Drivers/STM32L0xx_HAL_Driver/Src/stm32l0xx_hal_rtc.c ****   UNUSED(hrtc);
 360:../../../../../../Drivers/STM32L0xx_HAL_Driver/Src/stm32l0xx_hal_rtc.c **** 
 361:../../../../../../Drivers/STM32L0xx_HAL_Driver/Src/stm32l0xx_hal_rtc.c ****   /* NOTE : This function should not be modified, when the callback is needed,
 362:../../../../../../Drivers/STM32L0xx_HAL_Driver/Src/stm32l0xx_hal_rtc.c ****             the HAL_RTC_MspInit could be implemented in the user file
 363:../../../../../../Drivers/STM32L0xx_HAL_Driver/Src/stm32l0xx_hal_rtc.c ****    */ 
 364:../../../../../../Drivers/STM32L0xx_HAL_Driver/Src/stm32l0xx_hal_rtc.c **** }
  33              		.loc 1 364 0
  34              		@ sp needed
  35 0000 7047     		bx	lr
ARM GAS  C:\Users\EBANO_~1\AppData\Local\Temp\cc8t01eQ.s 			page 8


  36              		.cfi_endproc
  37              	.LFE41:
  38              		.size	HAL_RTC_MspInit, .-HAL_RTC_MspInit
  39 0002 C046     		.section	.text.HAL_RTC_Init,"ax",%progbits
  40              		.align	1
  41              		.p2align 2,,3
  42              		.global	HAL_RTC_Init
  43              		.syntax unified
  44              		.code	16
  45              		.thumb_func
  46              		.fpu softvfp
  47              		.type	HAL_RTC_Init, %function
  48              	HAL_RTC_Init:
  49              	.LFB39:
 177:../../../../../../Drivers/STM32L0xx_HAL_Driver/Src/stm32l0xx_hal_rtc.c ****   /* Check the RTC peripheral state */
  50              		.loc 1 177 0
  51              		.cfi_startproc
  52              		@ args = 0, pretend = 0, frame = 0
  53              		@ frame_needed = 0, uses_anonymous_args = 0
  54              	.LVL1:
  55 0000 F8B5     		push	{r3, r4, r5, r6, r7, lr}
  56              	.LCFI0:
  57              		.cfi_def_cfa_offset 24
  58              		.cfi_offset 3, -24
  59              		.cfi_offset 4, -20
  60              		.cfi_offset 5, -16
  61              		.cfi_offset 6, -12
  62              		.cfi_offset 7, -8
  63              		.cfi_offset 14, -4
 177:../../../../../../Drivers/STM32L0xx_HAL_Driver/Src/stm32l0xx_hal_rtc.c ****   /* Check the RTC peripheral state */
  64              		.loc 1 177 0
  65 0002 041E     		subs	r4, r0, #0
 179:../../../../../../Drivers/STM32L0xx_HAL_Driver/Src/stm32l0xx_hal_rtc.c ****   {
  66              		.loc 1 179 0
  67 0004 3DD0     		beq	.L12
 194:../../../../../../Drivers/STM32L0xx_HAL_Driver/Src/stm32l0xx_hal_rtc.c ****   {
  68              		.loc 1 194 0
  69 0006 2123     		movs	r3, #33
  70 0008 C35C     		ldrb	r3, [r0, r3]
  71 000a DBB2     		uxtb	r3, r3
  72 000c 002B     		cmp	r3, #0
  73 000e 4ED0     		beq	.L13
  74              	.LVL2:
  75              	.L5:
 204:../../../../../../Drivers/STM32L0xx_HAL_Driver/Src/stm32l0xx_hal_rtc.c **** 
  76              		.loc 1 204 0
  77 0010 2123     		movs	r3, #33
  78 0012 0222     		movs	r2, #2
  79 0014 E254     		strb	r2, [r4, r3]
 207:../../../../../../Drivers/STM32L0xx_HAL_Driver/Src/stm32l0xx_hal_rtc.c **** 
  80              		.loc 1 207 0
  81 0016 2368     		ldr	r3, [r4]
  82 0018 C832     		adds	r2, r2, #200
  83 001a 5A62     		str	r2, [r3, #36]
  84 001c 773A     		subs	r2, r2, #119
  85 001e 5A62     		str	r2, [r3, #36]
  86              	.LVL3:
ARM GAS  C:\Users\EBANO_~1\AppData\Local\Temp\cc8t01eQ.s 			page 9


  87              	.LBB70:
  88              	.LBB71:
 365:../../../../../../Drivers/STM32L0xx_HAL_Driver/Src/stm32l0xx_hal_rtc.c **** 
 366:../../../../../../Drivers/STM32L0xx_HAL_Driver/Src/stm32l0xx_hal_rtc.c **** /**
 367:../../../../../../Drivers/STM32L0xx_HAL_Driver/Src/stm32l0xx_hal_rtc.c ****   * @brief  DeInitialize the RTC MSP.
 368:../../../../../../Drivers/STM32L0xx_HAL_Driver/Src/stm32l0xx_hal_rtc.c ****   * @param  hrtc RTC handle 
 369:../../../../../../Drivers/STM32L0xx_HAL_Driver/Src/stm32l0xx_hal_rtc.c ****   * @retval None
 370:../../../../../../Drivers/STM32L0xx_HAL_Driver/Src/stm32l0xx_hal_rtc.c ****   */
 371:../../../../../../Drivers/STM32L0xx_HAL_Driver/Src/stm32l0xx_hal_rtc.c **** __weak void HAL_RTC_MspDeInit(RTC_HandleTypeDef* hrtc)
 372:../../../../../../Drivers/STM32L0xx_HAL_Driver/Src/stm32l0xx_hal_rtc.c **** {
 373:../../../../../../Drivers/STM32L0xx_HAL_Driver/Src/stm32l0xx_hal_rtc.c ****   /* Prevent unused argument(s) compilation warning */
 374:../../../../../../Drivers/STM32L0xx_HAL_Driver/Src/stm32l0xx_hal_rtc.c ****   UNUSED(hrtc);
 375:../../../../../../Drivers/STM32L0xx_HAL_Driver/Src/stm32l0xx_hal_rtc.c **** 
 376:../../../../../../Drivers/STM32L0xx_HAL_Driver/Src/stm32l0xx_hal_rtc.c ****   /* NOTE : This function should not be modified, when the callback is needed,
 377:../../../../../../Drivers/STM32L0xx_HAL_Driver/Src/stm32l0xx_hal_rtc.c ****             the HAL_RTC_MspDeInit could be implemented in the user file
 378:../../../../../../Drivers/STM32L0xx_HAL_Driver/Src/stm32l0xx_hal_rtc.c ****    */ 
 379:../../../../../../Drivers/STM32L0xx_HAL_Driver/Src/stm32l0xx_hal_rtc.c **** }
 380:../../../../../../Drivers/STM32L0xx_HAL_Driver/Src/stm32l0xx_hal_rtc.c **** 
 381:../../../../../../Drivers/STM32L0xx_HAL_Driver/Src/stm32l0xx_hal_rtc.c **** /**
 382:../../../../../../Drivers/STM32L0xx_HAL_Driver/Src/stm32l0xx_hal_rtc.c ****   * @}
 383:../../../../../../Drivers/STM32L0xx_HAL_Driver/Src/stm32l0xx_hal_rtc.c ****   */
 384:../../../../../../Drivers/STM32L0xx_HAL_Driver/Src/stm32l0xx_hal_rtc.c **** 
 385:../../../../../../Drivers/STM32L0xx_HAL_Driver/Src/stm32l0xx_hal_rtc.c **** /** @addtogroup RTC_Exported_Functions_Group2
 386:../../../../../../Drivers/STM32L0xx_HAL_Driver/Src/stm32l0xx_hal_rtc.c ****  *  @brief   RTC Time and Date functions
 387:../../../../../../Drivers/STM32L0xx_HAL_Driver/Src/stm32l0xx_hal_rtc.c ****  *
 388:../../../../../../Drivers/STM32L0xx_HAL_Driver/Src/stm32l0xx_hal_rtc.c **** @verbatim
 389:../../../../../../Drivers/STM32L0xx_HAL_Driver/Src/stm32l0xx_hal_rtc.c ****  ===============================================================================
 390:../../../../../../Drivers/STM32L0xx_HAL_Driver/Src/stm32l0xx_hal_rtc.c ****                  ##### RTC Time and Date functions #####
 391:../../../../../../Drivers/STM32L0xx_HAL_Driver/Src/stm32l0xx_hal_rtc.c ****  ===============================================================================
 392:../../../../../../Drivers/STM32L0xx_HAL_Driver/Src/stm32l0xx_hal_rtc.c ****  
 393:../../../../../../Drivers/STM32L0xx_HAL_Driver/Src/stm32l0xx_hal_rtc.c ****  [..] This section provides functions allowing to configure Time and Date features
 394:../../../../../../Drivers/STM32L0xx_HAL_Driver/Src/stm32l0xx_hal_rtc.c **** 
 395:../../../../../../Drivers/STM32L0xx_HAL_Driver/Src/stm32l0xx_hal_rtc.c **** @endverbatim
 396:../../../../../../Drivers/STM32L0xx_HAL_Driver/Src/stm32l0xx_hal_rtc.c ****   * @{
 397:../../../../../../Drivers/STM32L0xx_HAL_Driver/Src/stm32l0xx_hal_rtc.c ****   */
 398:../../../../../../Drivers/STM32L0xx_HAL_Driver/Src/stm32l0xx_hal_rtc.c **** 
 399:../../../../../../Drivers/STM32L0xx_HAL_Driver/Src/stm32l0xx_hal_rtc.c **** /**
 400:../../../../../../Drivers/STM32L0xx_HAL_Driver/Src/stm32l0xx_hal_rtc.c ****   * @brief  Set RTC current time.
 401:../../../../../../Drivers/STM32L0xx_HAL_Driver/Src/stm32l0xx_hal_rtc.c ****   * @param  hrtc RTC handle
 402:../../../../../../Drivers/STM32L0xx_HAL_Driver/Src/stm32l0xx_hal_rtc.c ****   * @param  sTime Pointer to Time structure
 403:../../../../../../Drivers/STM32L0xx_HAL_Driver/Src/stm32l0xx_hal_rtc.c ****   * @param  Format Specifies the format of the entered parameters.
 404:../../../../../../Drivers/STM32L0xx_HAL_Driver/Src/stm32l0xx_hal_rtc.c ****   *          This parameter can be one of the following values:
 405:../../../../../../Drivers/STM32L0xx_HAL_Driver/Src/stm32l0xx_hal_rtc.c ****   *            @arg RTC_FORMAT_BIN: Binary data format 
 406:../../../../../../Drivers/STM32L0xx_HAL_Driver/Src/stm32l0xx_hal_rtc.c ****   *            @arg RTC_FORMAT_BCD: BCD data format
 407:../../../../../../Drivers/STM32L0xx_HAL_Driver/Src/stm32l0xx_hal_rtc.c ****   * @retval HAL status
 408:../../../../../../Drivers/STM32L0xx_HAL_Driver/Src/stm32l0xx_hal_rtc.c ****   */
 409:../../../../../../Drivers/STM32L0xx_HAL_Driver/Src/stm32l0xx_hal_rtc.c **** HAL_StatusTypeDef HAL_RTC_SetTime(RTC_HandleTypeDef *hrtc, RTC_TimeTypeDef *sTime, uint32_t Format)
 410:../../../../../../Drivers/STM32L0xx_HAL_Driver/Src/stm32l0xx_hal_rtc.c **** {
 411:../../../../../../Drivers/STM32L0xx_HAL_Driver/Src/stm32l0xx_hal_rtc.c ****   uint32_t tmpreg = 0U;
 412:../../../../../../Drivers/STM32L0xx_HAL_Driver/Src/stm32l0xx_hal_rtc.c **** 
 413:../../../../../../Drivers/STM32L0xx_HAL_Driver/Src/stm32l0xx_hal_rtc.c ****  /* Check the parameters */
 414:../../../../../../Drivers/STM32L0xx_HAL_Driver/Src/stm32l0xx_hal_rtc.c ****   assert_param(IS_RTC_FORMAT(Format));
 415:../../../../../../Drivers/STM32L0xx_HAL_Driver/Src/stm32l0xx_hal_rtc.c ****   assert_param(IS_RTC_DAYLIGHT_SAVING(sTime->DayLightSaving));
 416:../../../../../../Drivers/STM32L0xx_HAL_Driver/Src/stm32l0xx_hal_rtc.c ****   assert_param(IS_RTC_STORE_OPERATION(sTime->StoreOperation));
 417:../../../../../../Drivers/STM32L0xx_HAL_Driver/Src/stm32l0xx_hal_rtc.c **** 
 418:../../../../../../Drivers/STM32L0xx_HAL_Driver/Src/stm32l0xx_hal_rtc.c ****   /* Process Locked */ 
 419:../../../../../../Drivers/STM32L0xx_HAL_Driver/Src/stm32l0xx_hal_rtc.c ****   __HAL_LOCK(hrtc);
ARM GAS  C:\Users\EBANO_~1\AppData\Local\Temp\cc8t01eQ.s 			page 10


 420:../../../../../../Drivers/STM32L0xx_HAL_Driver/Src/stm32l0xx_hal_rtc.c **** 
 421:../../../../../../Drivers/STM32L0xx_HAL_Driver/Src/stm32l0xx_hal_rtc.c ****   hrtc->State = HAL_RTC_STATE_BUSY;
 422:../../../../../../Drivers/STM32L0xx_HAL_Driver/Src/stm32l0xx_hal_rtc.c **** 
 423:../../../../../../Drivers/STM32L0xx_HAL_Driver/Src/stm32l0xx_hal_rtc.c ****   if(Format == RTC_FORMAT_BIN)
 424:../../../../../../Drivers/STM32L0xx_HAL_Driver/Src/stm32l0xx_hal_rtc.c ****   {
 425:../../../../../../Drivers/STM32L0xx_HAL_Driver/Src/stm32l0xx_hal_rtc.c ****     if((hrtc->Instance->CR & RTC_CR_FMT) != (uint32_t)RESET)
 426:../../../../../../Drivers/STM32L0xx_HAL_Driver/Src/stm32l0xx_hal_rtc.c ****     {
 427:../../../../../../Drivers/STM32L0xx_HAL_Driver/Src/stm32l0xx_hal_rtc.c ****       assert_param(IS_RTC_HOUR12(sTime->Hours));
 428:../../../../../../Drivers/STM32L0xx_HAL_Driver/Src/stm32l0xx_hal_rtc.c ****       assert_param(IS_RTC_HOURFORMAT12(sTime->TimeFormat));
 429:../../../../../../Drivers/STM32L0xx_HAL_Driver/Src/stm32l0xx_hal_rtc.c ****     }
 430:../../../../../../Drivers/STM32L0xx_HAL_Driver/Src/stm32l0xx_hal_rtc.c ****     else
 431:../../../../../../Drivers/STM32L0xx_HAL_Driver/Src/stm32l0xx_hal_rtc.c ****     {
 432:../../../../../../Drivers/STM32L0xx_HAL_Driver/Src/stm32l0xx_hal_rtc.c ****       sTime->TimeFormat = 0x00U;
 433:../../../../../../Drivers/STM32L0xx_HAL_Driver/Src/stm32l0xx_hal_rtc.c ****       assert_param(IS_RTC_HOUR24(sTime->Hours));
 434:../../../../../../Drivers/STM32L0xx_HAL_Driver/Src/stm32l0xx_hal_rtc.c ****     }
 435:../../../../../../Drivers/STM32L0xx_HAL_Driver/Src/stm32l0xx_hal_rtc.c ****     assert_param(IS_RTC_MINUTES(sTime->Minutes));
 436:../../../../../../Drivers/STM32L0xx_HAL_Driver/Src/stm32l0xx_hal_rtc.c ****     assert_param(IS_RTC_SECONDS(sTime->Seconds));
 437:../../../../../../Drivers/STM32L0xx_HAL_Driver/Src/stm32l0xx_hal_rtc.c **** 
 438:../../../../../../Drivers/STM32L0xx_HAL_Driver/Src/stm32l0xx_hal_rtc.c ****     tmpreg = (uint32_t)(((uint32_t)RTC_ByteToBcd2(sTime->Hours) << 16U) | \
 439:../../../../../../Drivers/STM32L0xx_HAL_Driver/Src/stm32l0xx_hal_rtc.c ****                         ((uint32_t)RTC_ByteToBcd2(sTime->Minutes) << 8U) | \
 440:../../../../../../Drivers/STM32L0xx_HAL_Driver/Src/stm32l0xx_hal_rtc.c ****                         ((uint32_t)RTC_ByteToBcd2(sTime->Seconds)) | \
 441:../../../../../../Drivers/STM32L0xx_HAL_Driver/Src/stm32l0xx_hal_rtc.c ****                         (((uint32_t)sTime->TimeFormat) << 16U));
 442:../../../../../../Drivers/STM32L0xx_HAL_Driver/Src/stm32l0xx_hal_rtc.c ****   }
 443:../../../../../../Drivers/STM32L0xx_HAL_Driver/Src/stm32l0xx_hal_rtc.c ****   else
 444:../../../../../../Drivers/STM32L0xx_HAL_Driver/Src/stm32l0xx_hal_rtc.c ****   {
 445:../../../../../../Drivers/STM32L0xx_HAL_Driver/Src/stm32l0xx_hal_rtc.c ****     if((hrtc->Instance->CR & RTC_CR_FMT) != (uint32_t)RESET)
 446:../../../../../../Drivers/STM32L0xx_HAL_Driver/Src/stm32l0xx_hal_rtc.c ****     {
 447:../../../../../../Drivers/STM32L0xx_HAL_Driver/Src/stm32l0xx_hal_rtc.c ****       tmpreg = RTC_Bcd2ToByte(sTime->Hours);
 448:../../../../../../Drivers/STM32L0xx_HAL_Driver/Src/stm32l0xx_hal_rtc.c ****       assert_param(IS_RTC_HOUR12(tmpreg));
 449:../../../../../../Drivers/STM32L0xx_HAL_Driver/Src/stm32l0xx_hal_rtc.c ****       assert_param(IS_RTC_HOURFORMAT12(sTime->TimeFormat));
 450:../../../../../../Drivers/STM32L0xx_HAL_Driver/Src/stm32l0xx_hal_rtc.c ****     }
 451:../../../../../../Drivers/STM32L0xx_HAL_Driver/Src/stm32l0xx_hal_rtc.c ****     else
 452:../../../../../../Drivers/STM32L0xx_HAL_Driver/Src/stm32l0xx_hal_rtc.c ****     {
 453:../../../../../../Drivers/STM32L0xx_HAL_Driver/Src/stm32l0xx_hal_rtc.c ****       sTime->TimeFormat = 0x00U;
 454:../../../../../../Drivers/STM32L0xx_HAL_Driver/Src/stm32l0xx_hal_rtc.c ****       assert_param(IS_RTC_HOUR24(RTC_Bcd2ToByte(sTime->Hours)));
 455:../../../../../../Drivers/STM32L0xx_HAL_Driver/Src/stm32l0xx_hal_rtc.c ****     }
 456:../../../../../../Drivers/STM32L0xx_HAL_Driver/Src/stm32l0xx_hal_rtc.c ****     assert_param(IS_RTC_MINUTES(RTC_Bcd2ToByte(sTime->Minutes)));
 457:../../../../../../Drivers/STM32L0xx_HAL_Driver/Src/stm32l0xx_hal_rtc.c ****     assert_param(IS_RTC_SECONDS(RTC_Bcd2ToByte(sTime->Seconds)));
 458:../../../../../../Drivers/STM32L0xx_HAL_Driver/Src/stm32l0xx_hal_rtc.c ****     tmpreg = (((uint32_t)(sTime->Hours) << 16U) | \
 459:../../../../../../Drivers/STM32L0xx_HAL_Driver/Src/stm32l0xx_hal_rtc.c ****               ((uint32_t)(sTime->Minutes) << 8U) | \
 460:../../../../../../Drivers/STM32L0xx_HAL_Driver/Src/stm32l0xx_hal_rtc.c ****               ((uint32_t)sTime->Seconds) | \
 461:../../../../../../Drivers/STM32L0xx_HAL_Driver/Src/stm32l0xx_hal_rtc.c ****               ((uint32_t)(sTime->TimeFormat) << 16U));
 462:../../../../../../Drivers/STM32L0xx_HAL_Driver/Src/stm32l0xx_hal_rtc.c ****   }
 463:../../../../../../Drivers/STM32L0xx_HAL_Driver/Src/stm32l0xx_hal_rtc.c ****   UNUSED(tmpreg);
 464:../../../../../../Drivers/STM32L0xx_HAL_Driver/Src/stm32l0xx_hal_rtc.c ****   /* Disable the write protection for RTC registers */
 465:../../../../../../Drivers/STM32L0xx_HAL_Driver/Src/stm32l0xx_hal_rtc.c ****   __HAL_RTC_WRITEPROTECTION_DISABLE(hrtc);
 466:../../../../../../Drivers/STM32L0xx_HAL_Driver/Src/stm32l0xx_hal_rtc.c **** 
 467:../../../../../../Drivers/STM32L0xx_HAL_Driver/Src/stm32l0xx_hal_rtc.c ****   /* Set Initialization mode */
 468:../../../../../../Drivers/STM32L0xx_HAL_Driver/Src/stm32l0xx_hal_rtc.c ****   if(RTC_EnterInitMode(hrtc) != HAL_OK)
 469:../../../../../../Drivers/STM32L0xx_HAL_Driver/Src/stm32l0xx_hal_rtc.c ****   {
 470:../../../../../../Drivers/STM32L0xx_HAL_Driver/Src/stm32l0xx_hal_rtc.c ****     /* Enable the write protection for RTC registers */
 471:../../../../../../Drivers/STM32L0xx_HAL_Driver/Src/stm32l0xx_hal_rtc.c ****     __HAL_RTC_WRITEPROTECTION_ENABLE(hrtc);
 472:../../../../../../Drivers/STM32L0xx_HAL_Driver/Src/stm32l0xx_hal_rtc.c **** 
 473:../../../../../../Drivers/STM32L0xx_HAL_Driver/Src/stm32l0xx_hal_rtc.c ****     /* Set RTC state */
 474:../../../../../../Drivers/STM32L0xx_HAL_Driver/Src/stm32l0xx_hal_rtc.c ****     hrtc->State = HAL_RTC_STATE_ERROR;
 475:../../../../../../Drivers/STM32L0xx_HAL_Driver/Src/stm32l0xx_hal_rtc.c **** 
 476:../../../../../../Drivers/STM32L0xx_HAL_Driver/Src/stm32l0xx_hal_rtc.c ****     /* Process Unlocked */ 
ARM GAS  C:\Users\EBANO_~1\AppData\Local\Temp\cc8t01eQ.s 			page 11


 477:../../../../../../Drivers/STM32L0xx_HAL_Driver/Src/stm32l0xx_hal_rtc.c ****     __HAL_UNLOCK(hrtc);
 478:../../../../../../Drivers/STM32L0xx_HAL_Driver/Src/stm32l0xx_hal_rtc.c **** 
 479:../../../../../../Drivers/STM32L0xx_HAL_Driver/Src/stm32l0xx_hal_rtc.c ****     return HAL_ERROR;
 480:../../../../../../Drivers/STM32L0xx_HAL_Driver/Src/stm32l0xx_hal_rtc.c ****   }
 481:../../../../../../Drivers/STM32L0xx_HAL_Driver/Src/stm32l0xx_hal_rtc.c ****   else
 482:../../../../../../Drivers/STM32L0xx_HAL_Driver/Src/stm32l0xx_hal_rtc.c ****   {
 483:../../../../../../Drivers/STM32L0xx_HAL_Driver/Src/stm32l0xx_hal_rtc.c ****     /* Set the RTC_TR register */
 484:../../../../../../Drivers/STM32L0xx_HAL_Driver/Src/stm32l0xx_hal_rtc.c ****     hrtc->Instance->TR = (uint32_t)(tmpreg & RTC_TR_RESERVED_MASK);
 485:../../../../../../Drivers/STM32L0xx_HAL_Driver/Src/stm32l0xx_hal_rtc.c **** 
 486:../../../../../../Drivers/STM32L0xx_HAL_Driver/Src/stm32l0xx_hal_rtc.c ****     /* Clear the bits to be configured */
 487:../../../../../../Drivers/STM32L0xx_HAL_Driver/Src/stm32l0xx_hal_rtc.c ****     hrtc->Instance->CR &= ((uint32_t)~RTC_CR_BKP);
 488:../../../../../../Drivers/STM32L0xx_HAL_Driver/Src/stm32l0xx_hal_rtc.c **** 
 489:../../../../../../Drivers/STM32L0xx_HAL_Driver/Src/stm32l0xx_hal_rtc.c ****     /* Configure the RTC_CR register */
 490:../../../../../../Drivers/STM32L0xx_HAL_Driver/Src/stm32l0xx_hal_rtc.c ****     hrtc->Instance->CR |= (uint32_t)(sTime->DayLightSaving | sTime->StoreOperation);
 491:../../../../../../Drivers/STM32L0xx_HAL_Driver/Src/stm32l0xx_hal_rtc.c **** 
 492:../../../../../../Drivers/STM32L0xx_HAL_Driver/Src/stm32l0xx_hal_rtc.c ****     /* Exit Initialization mode */
 493:../../../../../../Drivers/STM32L0xx_HAL_Driver/Src/stm32l0xx_hal_rtc.c ****     hrtc->Instance->ISR &= ((uint32_t)~RTC_ISR_INIT);
 494:../../../../../../Drivers/STM32L0xx_HAL_Driver/Src/stm32l0xx_hal_rtc.c **** 
 495:../../../../../../Drivers/STM32L0xx_HAL_Driver/Src/stm32l0xx_hal_rtc.c ****     /* If  CR_BYPSHAD bit = 0, wait for synchro else this check is not needed */
 496:../../../../../../Drivers/STM32L0xx_HAL_Driver/Src/stm32l0xx_hal_rtc.c ****     if((hrtc->Instance->CR & RTC_CR_BYPSHAD) == RESET)
 497:../../../../../../Drivers/STM32L0xx_HAL_Driver/Src/stm32l0xx_hal_rtc.c ****     {
 498:../../../../../../Drivers/STM32L0xx_HAL_Driver/Src/stm32l0xx_hal_rtc.c ****       if(HAL_RTC_WaitForSynchro(hrtc) != HAL_OK)
 499:../../../../../../Drivers/STM32L0xx_HAL_Driver/Src/stm32l0xx_hal_rtc.c ****       {
 500:../../../../../../Drivers/STM32L0xx_HAL_Driver/Src/stm32l0xx_hal_rtc.c ****         /* Enable the write protection for RTC registers */
 501:../../../../../../Drivers/STM32L0xx_HAL_Driver/Src/stm32l0xx_hal_rtc.c ****         __HAL_RTC_WRITEPROTECTION_ENABLE(hrtc);
 502:../../../../../../Drivers/STM32L0xx_HAL_Driver/Src/stm32l0xx_hal_rtc.c **** 
 503:../../../../../../Drivers/STM32L0xx_HAL_Driver/Src/stm32l0xx_hal_rtc.c ****         hrtc->State = HAL_RTC_STATE_ERROR;
 504:../../../../../../Drivers/STM32L0xx_HAL_Driver/Src/stm32l0xx_hal_rtc.c **** 
 505:../../../../../../Drivers/STM32L0xx_HAL_Driver/Src/stm32l0xx_hal_rtc.c ****         /* Process Unlocked */ 
 506:../../../../../../Drivers/STM32L0xx_HAL_Driver/Src/stm32l0xx_hal_rtc.c ****         __HAL_UNLOCK(hrtc);
 507:../../../../../../Drivers/STM32L0xx_HAL_Driver/Src/stm32l0xx_hal_rtc.c **** 
 508:../../../../../../Drivers/STM32L0xx_HAL_Driver/Src/stm32l0xx_hal_rtc.c ****         return HAL_ERROR;
 509:../../../../../../Drivers/STM32L0xx_HAL_Driver/Src/stm32l0xx_hal_rtc.c ****       }
 510:../../../../../../Drivers/STM32L0xx_HAL_Driver/Src/stm32l0xx_hal_rtc.c ****     }
 511:../../../../../../Drivers/STM32L0xx_HAL_Driver/Src/stm32l0xx_hal_rtc.c **** 
 512:../../../../../../Drivers/STM32L0xx_HAL_Driver/Src/stm32l0xx_hal_rtc.c ****     /* Enable the write protection for RTC registers */
 513:../../../../../../Drivers/STM32L0xx_HAL_Driver/Src/stm32l0xx_hal_rtc.c ****     __HAL_RTC_WRITEPROTECTION_ENABLE(hrtc);
 514:../../../../../../Drivers/STM32L0xx_HAL_Driver/Src/stm32l0xx_hal_rtc.c ****     
 515:../../../../../../Drivers/STM32L0xx_HAL_Driver/Src/stm32l0xx_hal_rtc.c ****    hrtc->State = HAL_RTC_STATE_READY;
 516:../../../../../../Drivers/STM32L0xx_HAL_Driver/Src/stm32l0xx_hal_rtc.c **** 
 517:../../../../../../Drivers/STM32L0xx_HAL_Driver/Src/stm32l0xx_hal_rtc.c ****    __HAL_UNLOCK(hrtc); 
 518:../../../../../../Drivers/STM32L0xx_HAL_Driver/Src/stm32l0xx_hal_rtc.c **** 
 519:../../../../../../Drivers/STM32L0xx_HAL_Driver/Src/stm32l0xx_hal_rtc.c ****    return HAL_OK;
 520:../../../../../../Drivers/STM32L0xx_HAL_Driver/Src/stm32l0xx_hal_rtc.c ****   }
 521:../../../../../../Drivers/STM32L0xx_HAL_Driver/Src/stm32l0xx_hal_rtc.c **** }
 522:../../../../../../Drivers/STM32L0xx_HAL_Driver/Src/stm32l0xx_hal_rtc.c **** 
 523:../../../../../../Drivers/STM32L0xx_HAL_Driver/Src/stm32l0xx_hal_rtc.c **** /**
 524:../../../../../../Drivers/STM32L0xx_HAL_Driver/Src/stm32l0xx_hal_rtc.c ****   * @brief  Get RTC current time.
 525:../../../../../../Drivers/STM32L0xx_HAL_Driver/Src/stm32l0xx_hal_rtc.c ****   * @param  hrtc RTC handle
 526:../../../../../../Drivers/STM32L0xx_HAL_Driver/Src/stm32l0xx_hal_rtc.c ****   * @param  sTime Pointer to Time structure with Hours, Minutes and Seconds fields returned 
 527:../../../../../../Drivers/STM32L0xx_HAL_Driver/Src/stm32l0xx_hal_rtc.c ****   *                with input format (BIN or BCD), also SubSeconds field returning the
 528:../../../../../../Drivers/STM32L0xx_HAL_Driver/Src/stm32l0xx_hal_rtc.c ****   *                RTC_SSR register content and SecondFraction field the Synchronous pre-scaler
 529:../../../../../../Drivers/STM32L0xx_HAL_Driver/Src/stm32l0xx_hal_rtc.c ****   *                factor to be used for second fraction ratio computation.
 530:../../../../../../Drivers/STM32L0xx_HAL_Driver/Src/stm32l0xx_hal_rtc.c ****   * @param  Format Specifies the format of the entered parameters.
 531:../../../../../../Drivers/STM32L0xx_HAL_Driver/Src/stm32l0xx_hal_rtc.c ****   *          This parameter can be one of the following values:
 532:../../../../../../Drivers/STM32L0xx_HAL_Driver/Src/stm32l0xx_hal_rtc.c ****   *            @arg RTC_FORMAT_BIN: Binary data format 
 533:../../../../../../Drivers/STM32L0xx_HAL_Driver/Src/stm32l0xx_hal_rtc.c ****   *            @arg RTC_FORMAT_BCD: BCD data format
ARM GAS  C:\Users\EBANO_~1\AppData\Local\Temp\cc8t01eQ.s 			page 12


 534:../../../../../../Drivers/STM32L0xx_HAL_Driver/Src/stm32l0xx_hal_rtc.c ****   * @note  You can use SubSeconds and SecondFraction (sTime structure fields returned) to convert S
 535:../../../../../../Drivers/STM32L0xx_HAL_Driver/Src/stm32l0xx_hal_rtc.c ****   *        value in second fraction ratio with time unit following generic formula:
 536:../../../../../../Drivers/STM32L0xx_HAL_Driver/Src/stm32l0xx_hal_rtc.c ****   *        Second fraction ratio * time_unit= [(SecondFraction-SubSeconds)/(SecondFraction+1)] * ti
 537:../../../../../../Drivers/STM32L0xx_HAL_Driver/Src/stm32l0xx_hal_rtc.c ****   *        This conversion can be performed only if no shift operation is pending (ie. SHFP=0) when
 538:../../../../../../Drivers/STM32L0xx_HAL_Driver/Src/stm32l0xx_hal_rtc.c ****   * @note  You must call HAL_RTC_GetDate() after HAL_RTC_GetTime() to unlock the values 
 539:../../../../../../Drivers/STM32L0xx_HAL_Driver/Src/stm32l0xx_hal_rtc.c ****   *        in the higher-order calendar shadow registers to ensure consistency between the time and
 540:../../../../../../Drivers/STM32L0xx_HAL_Driver/Src/stm32l0xx_hal_rtc.c ****   *        Reading RTC current time locks the values in calendar shadow registers until Current dat
 541:../../../../../../Drivers/STM32L0xx_HAL_Driver/Src/stm32l0xx_hal_rtc.c ****   *        to ensure consistency between the time and date values.
 542:../../../../../../Drivers/STM32L0xx_HAL_Driver/Src/stm32l0xx_hal_rtc.c ****   * @retval HAL status
 543:../../../../../../Drivers/STM32L0xx_HAL_Driver/Src/stm32l0xx_hal_rtc.c ****   */
 544:../../../../../../Drivers/STM32L0xx_HAL_Driver/Src/stm32l0xx_hal_rtc.c **** HAL_StatusTypeDef HAL_RTC_GetTime(RTC_HandleTypeDef *hrtc, RTC_TimeTypeDef *sTime, uint32_t Format)
 545:../../../../../../Drivers/STM32L0xx_HAL_Driver/Src/stm32l0xx_hal_rtc.c **** {
 546:../../../../../../Drivers/STM32L0xx_HAL_Driver/Src/stm32l0xx_hal_rtc.c ****   uint32_t tmpreg = 0U;
 547:../../../../../../Drivers/STM32L0xx_HAL_Driver/Src/stm32l0xx_hal_rtc.c **** 
 548:../../../../../../Drivers/STM32L0xx_HAL_Driver/Src/stm32l0xx_hal_rtc.c ****   /* Check the parameters */
 549:../../../../../../Drivers/STM32L0xx_HAL_Driver/Src/stm32l0xx_hal_rtc.c ****   assert_param(IS_RTC_FORMAT(Format));
 550:../../../../../../Drivers/STM32L0xx_HAL_Driver/Src/stm32l0xx_hal_rtc.c **** 
 551:../../../../../../Drivers/STM32L0xx_HAL_Driver/Src/stm32l0xx_hal_rtc.c ****   /* Get subseconds structure field from the corresponding register*/
 552:../../../../../../Drivers/STM32L0xx_HAL_Driver/Src/stm32l0xx_hal_rtc.c ****   sTime->SubSeconds = (uint32_t)(hrtc->Instance->SSR);
 553:../../../../../../Drivers/STM32L0xx_HAL_Driver/Src/stm32l0xx_hal_rtc.c **** 
 554:../../../../../../Drivers/STM32L0xx_HAL_Driver/Src/stm32l0xx_hal_rtc.c ****   /* Get SecondFraction structure field from the corresponding register field*/
 555:../../../../../../Drivers/STM32L0xx_HAL_Driver/Src/stm32l0xx_hal_rtc.c ****   sTime->SecondFraction = (uint32_t)(hrtc->Instance->PRER & RTC_PRER_PREDIV_S);
 556:../../../../../../Drivers/STM32L0xx_HAL_Driver/Src/stm32l0xx_hal_rtc.c ****   
 557:../../../../../../Drivers/STM32L0xx_HAL_Driver/Src/stm32l0xx_hal_rtc.c ****   /* Get the TR register */
 558:../../../../../../Drivers/STM32L0xx_HAL_Driver/Src/stm32l0xx_hal_rtc.c ****   tmpreg = (uint32_t)(hrtc->Instance->TR & RTC_TR_RESERVED_MASK);
 559:../../../../../../Drivers/STM32L0xx_HAL_Driver/Src/stm32l0xx_hal_rtc.c **** 
 560:../../../../../../Drivers/STM32L0xx_HAL_Driver/Src/stm32l0xx_hal_rtc.c ****   /* Fill the structure fields with the read parameters */
 561:../../../../../../Drivers/STM32L0xx_HAL_Driver/Src/stm32l0xx_hal_rtc.c ****   sTime->Hours = (uint8_t)((tmpreg & (RTC_TR_HT | RTC_TR_HU)) >> 16U);
 562:../../../../../../Drivers/STM32L0xx_HAL_Driver/Src/stm32l0xx_hal_rtc.c ****   sTime->Minutes = (uint8_t)((tmpreg & (RTC_TR_MNT | RTC_TR_MNU)) >>8U);
 563:../../../../../../Drivers/STM32L0xx_HAL_Driver/Src/stm32l0xx_hal_rtc.c ****   sTime->Seconds = (uint8_t)(tmpreg & (RTC_TR_ST | RTC_TR_SU));
 564:../../../../../../Drivers/STM32L0xx_HAL_Driver/Src/stm32l0xx_hal_rtc.c ****   sTime->TimeFormat = (uint8_t)((tmpreg & (RTC_TR_PM)) >> 16U);
 565:../../../../../../Drivers/STM32L0xx_HAL_Driver/Src/stm32l0xx_hal_rtc.c **** 
 566:../../../../../../Drivers/STM32L0xx_HAL_Driver/Src/stm32l0xx_hal_rtc.c ****   /* Check the input parameters format */
 567:../../../../../../Drivers/STM32L0xx_HAL_Driver/Src/stm32l0xx_hal_rtc.c ****   if(Format == RTC_FORMAT_BIN)
 568:../../../../../../Drivers/STM32L0xx_HAL_Driver/Src/stm32l0xx_hal_rtc.c ****   {
 569:../../../../../../Drivers/STM32L0xx_HAL_Driver/Src/stm32l0xx_hal_rtc.c ****     /* Convert the time structure parameters to Binary format */
 570:../../../../../../Drivers/STM32L0xx_HAL_Driver/Src/stm32l0xx_hal_rtc.c ****     sTime->Hours = (uint8_t)RTC_Bcd2ToByte(sTime->Hours);
 571:../../../../../../Drivers/STM32L0xx_HAL_Driver/Src/stm32l0xx_hal_rtc.c ****     sTime->Minutes = (uint8_t)RTC_Bcd2ToByte(sTime->Minutes);
 572:../../../../../../Drivers/STM32L0xx_HAL_Driver/Src/stm32l0xx_hal_rtc.c ****     sTime->Seconds = (uint8_t)RTC_Bcd2ToByte(sTime->Seconds);
 573:../../../../../../Drivers/STM32L0xx_HAL_Driver/Src/stm32l0xx_hal_rtc.c ****   }
 574:../../../../../../Drivers/STM32L0xx_HAL_Driver/Src/stm32l0xx_hal_rtc.c **** 
 575:../../../../../../Drivers/STM32L0xx_HAL_Driver/Src/stm32l0xx_hal_rtc.c ****   return HAL_OK;
 576:../../../../../../Drivers/STM32L0xx_HAL_Driver/Src/stm32l0xx_hal_rtc.c **** }
 577:../../../../../../Drivers/STM32L0xx_HAL_Driver/Src/stm32l0xx_hal_rtc.c **** 
 578:../../../../../../Drivers/STM32L0xx_HAL_Driver/Src/stm32l0xx_hal_rtc.c **** /**
 579:../../../../../../Drivers/STM32L0xx_HAL_Driver/Src/stm32l0xx_hal_rtc.c ****   * @brief  Set RTC current date.
 580:../../../../../../Drivers/STM32L0xx_HAL_Driver/Src/stm32l0xx_hal_rtc.c ****   * @param  hrtc RTC handle
 581:../../../../../../Drivers/STM32L0xx_HAL_Driver/Src/stm32l0xx_hal_rtc.c ****   * @param  sDate Pointer to date structure
 582:../../../../../../Drivers/STM32L0xx_HAL_Driver/Src/stm32l0xx_hal_rtc.c ****   * @param  Format specifies the format of the entered parameters.
 583:../../../../../../Drivers/STM32L0xx_HAL_Driver/Src/stm32l0xx_hal_rtc.c ****   *          This parameter can be one of the following values:
 584:../../../../../../Drivers/STM32L0xx_HAL_Driver/Src/stm32l0xx_hal_rtc.c ****   *            @arg RTC_FORMAT_BIN: Binary data format 
 585:../../../../../../Drivers/STM32L0xx_HAL_Driver/Src/stm32l0xx_hal_rtc.c ****   *            @arg RTC_FORMAT_BCD: BCD data format
 586:../../../../../../Drivers/STM32L0xx_HAL_Driver/Src/stm32l0xx_hal_rtc.c ****   * @retval HAL status
 587:../../../../../../Drivers/STM32L0xx_HAL_Driver/Src/stm32l0xx_hal_rtc.c ****   */
 588:../../../../../../Drivers/STM32L0xx_HAL_Driver/Src/stm32l0xx_hal_rtc.c **** HAL_StatusTypeDef HAL_RTC_SetDate(RTC_HandleTypeDef *hrtc, RTC_DateTypeDef *sDate, uint32_t Format)
 589:../../../../../../Drivers/STM32L0xx_HAL_Driver/Src/stm32l0xx_hal_rtc.c **** {
 590:../../../../../../Drivers/STM32L0xx_HAL_Driver/Src/stm32l0xx_hal_rtc.c ****   uint32_t datetmpreg = 0U;
ARM GAS  C:\Users\EBANO_~1\AppData\Local\Temp\cc8t01eQ.s 			page 13


 591:../../../../../../Drivers/STM32L0xx_HAL_Driver/Src/stm32l0xx_hal_rtc.c **** 
 592:../../../../../../Drivers/STM32L0xx_HAL_Driver/Src/stm32l0xx_hal_rtc.c ****  /* Check the parameters */
 593:../../../../../../Drivers/STM32L0xx_HAL_Driver/Src/stm32l0xx_hal_rtc.c ****   assert_param(IS_RTC_FORMAT(Format));
 594:../../../../../../Drivers/STM32L0xx_HAL_Driver/Src/stm32l0xx_hal_rtc.c **** 
 595:../../../../../../Drivers/STM32L0xx_HAL_Driver/Src/stm32l0xx_hal_rtc.c ****  /* Process Locked */
 596:../../../../../../Drivers/STM32L0xx_HAL_Driver/Src/stm32l0xx_hal_rtc.c ****  __HAL_LOCK(hrtc);
 597:../../../../../../Drivers/STM32L0xx_HAL_Driver/Src/stm32l0xx_hal_rtc.c **** 
 598:../../../../../../Drivers/STM32L0xx_HAL_Driver/Src/stm32l0xx_hal_rtc.c ****   hrtc->State = HAL_RTC_STATE_BUSY;
 599:../../../../../../Drivers/STM32L0xx_HAL_Driver/Src/stm32l0xx_hal_rtc.c **** 
 600:../../../../../../Drivers/STM32L0xx_HAL_Driver/Src/stm32l0xx_hal_rtc.c ****   if((Format == RTC_FORMAT_BIN) && ((sDate->Month & 0x10U) == 0x10U))
 601:../../../../../../Drivers/STM32L0xx_HAL_Driver/Src/stm32l0xx_hal_rtc.c ****   {
 602:../../../../../../Drivers/STM32L0xx_HAL_Driver/Src/stm32l0xx_hal_rtc.c ****     sDate->Month = (uint8_t)((sDate->Month & (uint8_t)~(0x10U)) + (uint8_t)0x0AU);
 603:../../../../../../Drivers/STM32L0xx_HAL_Driver/Src/stm32l0xx_hal_rtc.c ****   }
 604:../../../../../../Drivers/STM32L0xx_HAL_Driver/Src/stm32l0xx_hal_rtc.c **** 
 605:../../../../../../Drivers/STM32L0xx_HAL_Driver/Src/stm32l0xx_hal_rtc.c ****   assert_param(IS_RTC_WEEKDAY(sDate->WeekDay));
 606:../../../../../../Drivers/STM32L0xx_HAL_Driver/Src/stm32l0xx_hal_rtc.c **** 
 607:../../../../../../Drivers/STM32L0xx_HAL_Driver/Src/stm32l0xx_hal_rtc.c ****   if(Format == RTC_FORMAT_BIN)
 608:../../../../../../Drivers/STM32L0xx_HAL_Driver/Src/stm32l0xx_hal_rtc.c ****   {
 609:../../../../../../Drivers/STM32L0xx_HAL_Driver/Src/stm32l0xx_hal_rtc.c ****     assert_param(IS_RTC_YEAR(sDate->Year));
 610:../../../../../../Drivers/STM32L0xx_HAL_Driver/Src/stm32l0xx_hal_rtc.c ****     assert_param(IS_RTC_MONTH(sDate->Month));
 611:../../../../../../Drivers/STM32L0xx_HAL_Driver/Src/stm32l0xx_hal_rtc.c ****     assert_param(IS_RTC_DATE(sDate->Date));
 612:../../../../../../Drivers/STM32L0xx_HAL_Driver/Src/stm32l0xx_hal_rtc.c **** 
 613:../../../../../../Drivers/STM32L0xx_HAL_Driver/Src/stm32l0xx_hal_rtc.c ****    datetmpreg = (((uint32_t)RTC_ByteToBcd2(sDate->Year) << 16U) | \
 614:../../../../../../Drivers/STM32L0xx_HAL_Driver/Src/stm32l0xx_hal_rtc.c ****                  ((uint32_t)RTC_ByteToBcd2(sDate->Month) << 8U) | \
 615:../../../../../../Drivers/STM32L0xx_HAL_Driver/Src/stm32l0xx_hal_rtc.c ****                  ((uint32_t)RTC_ByteToBcd2(sDate->Date)) | \
 616:../../../../../../Drivers/STM32L0xx_HAL_Driver/Src/stm32l0xx_hal_rtc.c ****                  ((uint32_t)sDate->WeekDay << 13U));
 617:../../../../../../Drivers/STM32L0xx_HAL_Driver/Src/stm32l0xx_hal_rtc.c ****   }
 618:../../../../../../Drivers/STM32L0xx_HAL_Driver/Src/stm32l0xx_hal_rtc.c ****   else
 619:../../../../../../Drivers/STM32L0xx_HAL_Driver/Src/stm32l0xx_hal_rtc.c ****   {
 620:../../../../../../Drivers/STM32L0xx_HAL_Driver/Src/stm32l0xx_hal_rtc.c ****     assert_param(IS_RTC_YEAR(RTC_Bcd2ToByte(sDate->Year)));
 621:../../../../../../Drivers/STM32L0xx_HAL_Driver/Src/stm32l0xx_hal_rtc.c ****     datetmpreg = RTC_Bcd2ToByte(sDate->Month);
 622:../../../../../../Drivers/STM32L0xx_HAL_Driver/Src/stm32l0xx_hal_rtc.c ****     assert_param(IS_RTC_MONTH(datetmpreg));
 623:../../../../../../Drivers/STM32L0xx_HAL_Driver/Src/stm32l0xx_hal_rtc.c ****     datetmpreg = RTC_Bcd2ToByte(sDate->Date);
 624:../../../../../../Drivers/STM32L0xx_HAL_Driver/Src/stm32l0xx_hal_rtc.c ****     assert_param(IS_RTC_DATE(datetmpreg));
 625:../../../../../../Drivers/STM32L0xx_HAL_Driver/Src/stm32l0xx_hal_rtc.c **** 
 626:../../../../../../Drivers/STM32L0xx_HAL_Driver/Src/stm32l0xx_hal_rtc.c ****     datetmpreg = ((((uint32_t)sDate->Year) << 16U) | \
 627:../../../../../../Drivers/STM32L0xx_HAL_Driver/Src/stm32l0xx_hal_rtc.c ****                   (((uint32_t)sDate->Month) << 8U) | \
 628:../../../../../../Drivers/STM32L0xx_HAL_Driver/Src/stm32l0xx_hal_rtc.c ****                   ((uint32_t)sDate->Date) | \
 629:../../../../../../Drivers/STM32L0xx_HAL_Driver/Src/stm32l0xx_hal_rtc.c ****                   (((uint32_t)sDate->WeekDay) << 13U));
 630:../../../../../../Drivers/STM32L0xx_HAL_Driver/Src/stm32l0xx_hal_rtc.c ****   }
 631:../../../../../../Drivers/STM32L0xx_HAL_Driver/Src/stm32l0xx_hal_rtc.c **** 
 632:../../../../../../Drivers/STM32L0xx_HAL_Driver/Src/stm32l0xx_hal_rtc.c ****   /* Disable the write protection for RTC registers */
 633:../../../../../../Drivers/STM32L0xx_HAL_Driver/Src/stm32l0xx_hal_rtc.c ****   __HAL_RTC_WRITEPROTECTION_DISABLE(hrtc);
 634:../../../../../../Drivers/STM32L0xx_HAL_Driver/Src/stm32l0xx_hal_rtc.c **** 
 635:../../../../../../Drivers/STM32L0xx_HAL_Driver/Src/stm32l0xx_hal_rtc.c ****   /* Set Initialization mode */
 636:../../../../../../Drivers/STM32L0xx_HAL_Driver/Src/stm32l0xx_hal_rtc.c ****   if(RTC_EnterInitMode(hrtc) != HAL_OK)
 637:../../../../../../Drivers/STM32L0xx_HAL_Driver/Src/stm32l0xx_hal_rtc.c ****   {
 638:../../../../../../Drivers/STM32L0xx_HAL_Driver/Src/stm32l0xx_hal_rtc.c ****     /* Enable the write protection for RTC registers */
 639:../../../../../../Drivers/STM32L0xx_HAL_Driver/Src/stm32l0xx_hal_rtc.c ****     __HAL_RTC_WRITEPROTECTION_ENABLE(hrtc);
 640:../../../../../../Drivers/STM32L0xx_HAL_Driver/Src/stm32l0xx_hal_rtc.c **** 
 641:../../../../../../Drivers/STM32L0xx_HAL_Driver/Src/stm32l0xx_hal_rtc.c ****     /* Set RTC state*/
 642:../../../../../../Drivers/STM32L0xx_HAL_Driver/Src/stm32l0xx_hal_rtc.c ****     hrtc->State = HAL_RTC_STATE_ERROR;
 643:../../../../../../Drivers/STM32L0xx_HAL_Driver/Src/stm32l0xx_hal_rtc.c **** 
 644:../../../../../../Drivers/STM32L0xx_HAL_Driver/Src/stm32l0xx_hal_rtc.c ****     /* Process Unlocked */ 
 645:../../../../../../Drivers/STM32L0xx_HAL_Driver/Src/stm32l0xx_hal_rtc.c ****     __HAL_UNLOCK(hrtc);
 646:../../../../../../Drivers/STM32L0xx_HAL_Driver/Src/stm32l0xx_hal_rtc.c **** 
 647:../../../../../../Drivers/STM32L0xx_HAL_Driver/Src/stm32l0xx_hal_rtc.c ****     return HAL_ERROR;
ARM GAS  C:\Users\EBANO_~1\AppData\Local\Temp\cc8t01eQ.s 			page 14


 648:../../../../../../Drivers/STM32L0xx_HAL_Driver/Src/stm32l0xx_hal_rtc.c ****   }
 649:../../../../../../Drivers/STM32L0xx_HAL_Driver/Src/stm32l0xx_hal_rtc.c ****   else
 650:../../../../../../Drivers/STM32L0xx_HAL_Driver/Src/stm32l0xx_hal_rtc.c ****   {
 651:../../../../../../Drivers/STM32L0xx_HAL_Driver/Src/stm32l0xx_hal_rtc.c ****     /* Set the RTC_DR register */
 652:../../../../../../Drivers/STM32L0xx_HAL_Driver/Src/stm32l0xx_hal_rtc.c ****     hrtc->Instance->DR = (uint32_t)(datetmpreg & RTC_DR_RESERVED_MASK);
 653:../../../../../../Drivers/STM32L0xx_HAL_Driver/Src/stm32l0xx_hal_rtc.c **** 
 654:../../../../../../Drivers/STM32L0xx_HAL_Driver/Src/stm32l0xx_hal_rtc.c ****     /* Exit Initialization mode */
 655:../../../../../../Drivers/STM32L0xx_HAL_Driver/Src/stm32l0xx_hal_rtc.c ****     hrtc->Instance->ISR &= ((uint32_t)~RTC_ISR_INIT);
 656:../../../../../../Drivers/STM32L0xx_HAL_Driver/Src/stm32l0xx_hal_rtc.c **** 
 657:../../../../../../Drivers/STM32L0xx_HAL_Driver/Src/stm32l0xx_hal_rtc.c ****     /* If  CR_BYPSHAD bit = 0, wait for synchro else this check is not needed */
 658:../../../../../../Drivers/STM32L0xx_HAL_Driver/Src/stm32l0xx_hal_rtc.c ****     if((hrtc->Instance->CR & RTC_CR_BYPSHAD) == RESET)
 659:../../../../../../Drivers/STM32L0xx_HAL_Driver/Src/stm32l0xx_hal_rtc.c ****     {
 660:../../../../../../Drivers/STM32L0xx_HAL_Driver/Src/stm32l0xx_hal_rtc.c ****       if(HAL_RTC_WaitForSynchro(hrtc) != HAL_OK)
 661:../../../../../../Drivers/STM32L0xx_HAL_Driver/Src/stm32l0xx_hal_rtc.c ****       {
 662:../../../../../../Drivers/STM32L0xx_HAL_Driver/Src/stm32l0xx_hal_rtc.c ****         /* Enable the write protection for RTC registers */
 663:../../../../../../Drivers/STM32L0xx_HAL_Driver/Src/stm32l0xx_hal_rtc.c ****         __HAL_RTC_WRITEPROTECTION_ENABLE(hrtc);  
 664:../../../../../../Drivers/STM32L0xx_HAL_Driver/Src/stm32l0xx_hal_rtc.c **** 
 665:../../../../../../Drivers/STM32L0xx_HAL_Driver/Src/stm32l0xx_hal_rtc.c ****         hrtc->State = HAL_RTC_STATE_ERROR;
 666:../../../../../../Drivers/STM32L0xx_HAL_Driver/Src/stm32l0xx_hal_rtc.c **** 
 667:../../../../../../Drivers/STM32L0xx_HAL_Driver/Src/stm32l0xx_hal_rtc.c ****         /* Process Unlocked */ 
 668:../../../../../../Drivers/STM32L0xx_HAL_Driver/Src/stm32l0xx_hal_rtc.c ****         __HAL_UNLOCK(hrtc);
 669:../../../../../../Drivers/STM32L0xx_HAL_Driver/Src/stm32l0xx_hal_rtc.c **** 
 670:../../../../../../Drivers/STM32L0xx_HAL_Driver/Src/stm32l0xx_hal_rtc.c ****         return HAL_ERROR;
 671:../../../../../../Drivers/STM32L0xx_HAL_Driver/Src/stm32l0xx_hal_rtc.c ****       }
 672:../../../../../../Drivers/STM32L0xx_HAL_Driver/Src/stm32l0xx_hal_rtc.c ****     }
 673:../../../../../../Drivers/STM32L0xx_HAL_Driver/Src/stm32l0xx_hal_rtc.c **** 
 674:../../../../../../Drivers/STM32L0xx_HAL_Driver/Src/stm32l0xx_hal_rtc.c ****     /* Enable the write protection for RTC registers */
 675:../../../../../../Drivers/STM32L0xx_HAL_Driver/Src/stm32l0xx_hal_rtc.c ****     __HAL_RTC_WRITEPROTECTION_ENABLE(hrtc);
 676:../../../../../../Drivers/STM32L0xx_HAL_Driver/Src/stm32l0xx_hal_rtc.c **** 
 677:../../../../../../Drivers/STM32L0xx_HAL_Driver/Src/stm32l0xx_hal_rtc.c ****     hrtc->State = HAL_RTC_STATE_READY ;
 678:../../../../../../Drivers/STM32L0xx_HAL_Driver/Src/stm32l0xx_hal_rtc.c **** 
 679:../../../../../../Drivers/STM32L0xx_HAL_Driver/Src/stm32l0xx_hal_rtc.c ****     /* Process Unlocked */ 
 680:../../../../../../Drivers/STM32L0xx_HAL_Driver/Src/stm32l0xx_hal_rtc.c ****     __HAL_UNLOCK(hrtc);
 681:../../../../../../Drivers/STM32L0xx_HAL_Driver/Src/stm32l0xx_hal_rtc.c **** 
 682:../../../../../../Drivers/STM32L0xx_HAL_Driver/Src/stm32l0xx_hal_rtc.c ****     return HAL_OK;
 683:../../../../../../Drivers/STM32L0xx_HAL_Driver/Src/stm32l0xx_hal_rtc.c ****   }
 684:../../../../../../Drivers/STM32L0xx_HAL_Driver/Src/stm32l0xx_hal_rtc.c **** }
 685:../../../../../../Drivers/STM32L0xx_HAL_Driver/Src/stm32l0xx_hal_rtc.c **** 
 686:../../../../../../Drivers/STM32L0xx_HAL_Driver/Src/stm32l0xx_hal_rtc.c **** /**
 687:../../../../../../Drivers/STM32L0xx_HAL_Driver/Src/stm32l0xx_hal_rtc.c ****   * @brief  Get RTC current date.
 688:../../../../../../Drivers/STM32L0xx_HAL_Driver/Src/stm32l0xx_hal_rtc.c ****   * @param  hrtc RTC handle
 689:../../../../../../Drivers/STM32L0xx_HAL_Driver/Src/stm32l0xx_hal_rtc.c ****   * @param  sDate Pointer to Date structure
 690:../../../../../../Drivers/STM32L0xx_HAL_Driver/Src/stm32l0xx_hal_rtc.c ****   * @param  Format Specifies the format of the entered parameters.
 691:../../../../../../Drivers/STM32L0xx_HAL_Driver/Src/stm32l0xx_hal_rtc.c ****   *          This parameter can be one of the following values:
 692:../../../../../../Drivers/STM32L0xx_HAL_Driver/Src/stm32l0xx_hal_rtc.c ****   *            @arg RTC_FORMAT_BIN:  Binary data format 
 693:../../../../../../Drivers/STM32L0xx_HAL_Driver/Src/stm32l0xx_hal_rtc.c ****   *            @arg RTC_FORMAT_BCD:  BCD data format
 694:../../../../../../Drivers/STM32L0xx_HAL_Driver/Src/stm32l0xx_hal_rtc.c ****   * @note  You must call HAL_RTC_GetDate() after HAL_RTC_GetTime() to unlock the values 
 695:../../../../../../Drivers/STM32L0xx_HAL_Driver/Src/stm32l0xx_hal_rtc.c ****   *        in the higher-order calendar shadow registers to ensure consistency between the time and
 696:../../../../../../Drivers/STM32L0xx_HAL_Driver/Src/stm32l0xx_hal_rtc.c ****   *        Reading RTC current time locks the values in calendar shadow registers until Current dat
 697:../../../../../../Drivers/STM32L0xx_HAL_Driver/Src/stm32l0xx_hal_rtc.c ****   * @retval HAL status
 698:../../../../../../Drivers/STM32L0xx_HAL_Driver/Src/stm32l0xx_hal_rtc.c ****   */
 699:../../../../../../Drivers/STM32L0xx_HAL_Driver/Src/stm32l0xx_hal_rtc.c **** HAL_StatusTypeDef HAL_RTC_GetDate(RTC_HandleTypeDef *hrtc, RTC_DateTypeDef *sDate, uint32_t Format)
 700:../../../../../../Drivers/STM32L0xx_HAL_Driver/Src/stm32l0xx_hal_rtc.c **** {
 701:../../../../../../Drivers/STM32L0xx_HAL_Driver/Src/stm32l0xx_hal_rtc.c ****   uint32_t datetmpreg = 0U;
 702:../../../../../../Drivers/STM32L0xx_HAL_Driver/Src/stm32l0xx_hal_rtc.c **** 
 703:../../../../../../Drivers/STM32L0xx_HAL_Driver/Src/stm32l0xx_hal_rtc.c ****   /* Check the parameters */
 704:../../../../../../Drivers/STM32L0xx_HAL_Driver/Src/stm32l0xx_hal_rtc.c ****   assert_param(IS_RTC_FORMAT(Format));
ARM GAS  C:\Users\EBANO_~1\AppData\Local\Temp\cc8t01eQ.s 			page 15


 705:../../../../../../Drivers/STM32L0xx_HAL_Driver/Src/stm32l0xx_hal_rtc.c **** 
 706:../../../../../../Drivers/STM32L0xx_HAL_Driver/Src/stm32l0xx_hal_rtc.c ****   /* Get the DR register */
 707:../../../../../../Drivers/STM32L0xx_HAL_Driver/Src/stm32l0xx_hal_rtc.c ****   datetmpreg = (uint32_t)(hrtc->Instance->DR & RTC_DR_RESERVED_MASK);
 708:../../../../../../Drivers/STM32L0xx_HAL_Driver/Src/stm32l0xx_hal_rtc.c **** 
 709:../../../../../../Drivers/STM32L0xx_HAL_Driver/Src/stm32l0xx_hal_rtc.c ****   /* Fill the structure fields with the read parameters */
 710:../../../../../../Drivers/STM32L0xx_HAL_Driver/Src/stm32l0xx_hal_rtc.c ****   sDate->Year = (uint8_t)((datetmpreg & (RTC_DR_YT | RTC_DR_YU)) >> 16U);
 711:../../../../../../Drivers/STM32L0xx_HAL_Driver/Src/stm32l0xx_hal_rtc.c ****   sDate->Month = (uint8_t)((datetmpreg & (RTC_DR_MT | RTC_DR_MU)) >> 8U);
 712:../../../../../../Drivers/STM32L0xx_HAL_Driver/Src/stm32l0xx_hal_rtc.c ****   sDate->Date = (uint8_t)(datetmpreg & (RTC_DR_DT | RTC_DR_DU));
 713:../../../../../../Drivers/STM32L0xx_HAL_Driver/Src/stm32l0xx_hal_rtc.c ****   sDate->WeekDay = (uint8_t)((datetmpreg & (RTC_DR_WDU)) >> 13U); 
 714:../../../../../../Drivers/STM32L0xx_HAL_Driver/Src/stm32l0xx_hal_rtc.c **** 
 715:../../../../../../Drivers/STM32L0xx_HAL_Driver/Src/stm32l0xx_hal_rtc.c ****   /* Check the input parameters format */
 716:../../../../../../Drivers/STM32L0xx_HAL_Driver/Src/stm32l0xx_hal_rtc.c ****   if(Format == RTC_FORMAT_BIN)
 717:../../../../../../Drivers/STM32L0xx_HAL_Driver/Src/stm32l0xx_hal_rtc.c ****   {
 718:../../../../../../Drivers/STM32L0xx_HAL_Driver/Src/stm32l0xx_hal_rtc.c ****     /* Convert the date structure parameters to Binary format */
 719:../../../../../../Drivers/STM32L0xx_HAL_Driver/Src/stm32l0xx_hal_rtc.c ****     sDate->Year = (uint8_t)RTC_Bcd2ToByte(sDate->Year);
 720:../../../../../../Drivers/STM32L0xx_HAL_Driver/Src/stm32l0xx_hal_rtc.c ****     sDate->Month = (uint8_t)RTC_Bcd2ToByte(sDate->Month);
 721:../../../../../../Drivers/STM32L0xx_HAL_Driver/Src/stm32l0xx_hal_rtc.c ****     sDate->Date = (uint8_t)RTC_Bcd2ToByte(sDate->Date);
 722:../../../../../../Drivers/STM32L0xx_HAL_Driver/Src/stm32l0xx_hal_rtc.c ****   }
 723:../../../../../../Drivers/STM32L0xx_HAL_Driver/Src/stm32l0xx_hal_rtc.c ****   return HAL_OK;
 724:../../../../../../Drivers/STM32L0xx_HAL_Driver/Src/stm32l0xx_hal_rtc.c **** }
 725:../../../../../../Drivers/STM32L0xx_HAL_Driver/Src/stm32l0xx_hal_rtc.c **** 
 726:../../../../../../Drivers/STM32L0xx_HAL_Driver/Src/stm32l0xx_hal_rtc.c **** /**
 727:../../../../../../Drivers/STM32L0xx_HAL_Driver/Src/stm32l0xx_hal_rtc.c ****   * @}
 728:../../../../../../Drivers/STM32L0xx_HAL_Driver/Src/stm32l0xx_hal_rtc.c ****   */
 729:../../../../../../Drivers/STM32L0xx_HAL_Driver/Src/stm32l0xx_hal_rtc.c **** 
 730:../../../../../../Drivers/STM32L0xx_HAL_Driver/Src/stm32l0xx_hal_rtc.c **** /** @addtogroup RTC_Exported_Functions_Group3
 731:../../../../../../Drivers/STM32L0xx_HAL_Driver/Src/stm32l0xx_hal_rtc.c ****  *  @brief   RTC Alarm functions
 732:../../../../../../Drivers/STM32L0xx_HAL_Driver/Src/stm32l0xx_hal_rtc.c ****  *
 733:../../../../../../Drivers/STM32L0xx_HAL_Driver/Src/stm32l0xx_hal_rtc.c **** @verbatim   
 734:../../../../../../Drivers/STM32L0xx_HAL_Driver/Src/stm32l0xx_hal_rtc.c ****  ===============================================================================
 735:../../../../../../Drivers/STM32L0xx_HAL_Driver/Src/stm32l0xx_hal_rtc.c ****                  ##### RTC Alarm functions #####
 736:../../../../../../Drivers/STM32L0xx_HAL_Driver/Src/stm32l0xx_hal_rtc.c ****  ===============================================================================  
 737:../../../../../../Drivers/STM32L0xx_HAL_Driver/Src/stm32l0xx_hal_rtc.c ****  
 738:../../../../../../Drivers/STM32L0xx_HAL_Driver/Src/stm32l0xx_hal_rtc.c ****  [..] This section provides functions allowing to configure Alarm feature
 739:../../../../../../Drivers/STM32L0xx_HAL_Driver/Src/stm32l0xx_hal_rtc.c **** 
 740:../../../../../../Drivers/STM32L0xx_HAL_Driver/Src/stm32l0xx_hal_rtc.c **** @endverbatim
 741:../../../../../../Drivers/STM32L0xx_HAL_Driver/Src/stm32l0xx_hal_rtc.c ****   * @{
 742:../../../../../../Drivers/STM32L0xx_HAL_Driver/Src/stm32l0xx_hal_rtc.c ****   */
 743:../../../../../../Drivers/STM32L0xx_HAL_Driver/Src/stm32l0xx_hal_rtc.c **** /**
 744:../../../../../../Drivers/STM32L0xx_HAL_Driver/Src/stm32l0xx_hal_rtc.c ****   * @brief  Set the specified RTC Alarm.
 745:../../../../../../Drivers/STM32L0xx_HAL_Driver/Src/stm32l0xx_hal_rtc.c ****   * @param  hrtc RTC handle
 746:../../../../../../Drivers/STM32L0xx_HAL_Driver/Src/stm32l0xx_hal_rtc.c ****   * @param  sAlarm Pointer to Alarm structure
 747:../../../../../../Drivers/STM32L0xx_HAL_Driver/Src/stm32l0xx_hal_rtc.c ****   * @param  Format Specifies the format of the entered parameters.
 748:../../../../../../Drivers/STM32L0xx_HAL_Driver/Src/stm32l0xx_hal_rtc.c ****   *          This parameter can be one of the following values:
 749:../../../../../../Drivers/STM32L0xx_HAL_Driver/Src/stm32l0xx_hal_rtc.c ****   *             @arg RTC_FORMAT_BIN: Binary data format 
 750:../../../../../../Drivers/STM32L0xx_HAL_Driver/Src/stm32l0xx_hal_rtc.c ****   *             @arg RTC_FORMAT_BCD: BCD data format
 751:../../../../../../Drivers/STM32L0xx_HAL_Driver/Src/stm32l0xx_hal_rtc.c ****   * @retval HAL status
 752:../../../../../../Drivers/STM32L0xx_HAL_Driver/Src/stm32l0xx_hal_rtc.c ****   */
 753:../../../../../../Drivers/STM32L0xx_HAL_Driver/Src/stm32l0xx_hal_rtc.c **** HAL_StatusTypeDef HAL_RTC_SetAlarm(RTC_HandleTypeDef *hrtc, RTC_AlarmTypeDef *sAlarm, uint32_t Form
 754:../../../../../../Drivers/STM32L0xx_HAL_Driver/Src/stm32l0xx_hal_rtc.c **** {
 755:../../../../../../Drivers/STM32L0xx_HAL_Driver/Src/stm32l0xx_hal_rtc.c ****   uint32_t tickstart = 0U;
 756:../../../../../../Drivers/STM32L0xx_HAL_Driver/Src/stm32l0xx_hal_rtc.c ****   uint32_t tmpreg = 0U, subsecondtmpreg = 0U;
 757:../../../../../../Drivers/STM32L0xx_HAL_Driver/Src/stm32l0xx_hal_rtc.c **** 
 758:../../../../../../Drivers/STM32L0xx_HAL_Driver/Src/stm32l0xx_hal_rtc.c ****   /* Check the parameters */
 759:../../../../../../Drivers/STM32L0xx_HAL_Driver/Src/stm32l0xx_hal_rtc.c ****   assert_param(IS_RTC_FORMAT(Format));
 760:../../../../../../Drivers/STM32L0xx_HAL_Driver/Src/stm32l0xx_hal_rtc.c ****   assert_param(IS_RTC_ALARM(sAlarm->Alarm));
 761:../../../../../../Drivers/STM32L0xx_HAL_Driver/Src/stm32l0xx_hal_rtc.c ****   assert_param(IS_RTC_ALARM_MASK(sAlarm->AlarmMask));
ARM GAS  C:\Users\EBANO_~1\AppData\Local\Temp\cc8t01eQ.s 			page 16


 762:../../../../../../Drivers/STM32L0xx_HAL_Driver/Src/stm32l0xx_hal_rtc.c ****   assert_param(IS_RTC_ALARM_DATE_WEEKDAY_SEL(sAlarm->AlarmDateWeekDaySel));
 763:../../../../../../Drivers/STM32L0xx_HAL_Driver/Src/stm32l0xx_hal_rtc.c ****   assert_param(IS_RTC_ALARM_SUB_SECOND_VALUE(sAlarm->AlarmTime.SubSeconds));
 764:../../../../../../Drivers/STM32L0xx_HAL_Driver/Src/stm32l0xx_hal_rtc.c ****   assert_param(IS_RTC_ALARM_SUB_SECOND_MASK(sAlarm->AlarmSubSecondMask));
 765:../../../../../../Drivers/STM32L0xx_HAL_Driver/Src/stm32l0xx_hal_rtc.c **** 
 766:../../../../../../Drivers/STM32L0xx_HAL_Driver/Src/stm32l0xx_hal_rtc.c ****   /* Process Locked */
 767:../../../../../../Drivers/STM32L0xx_HAL_Driver/Src/stm32l0xx_hal_rtc.c ****   __HAL_LOCK(hrtc);
 768:../../../../../../Drivers/STM32L0xx_HAL_Driver/Src/stm32l0xx_hal_rtc.c **** 
 769:../../../../../../Drivers/STM32L0xx_HAL_Driver/Src/stm32l0xx_hal_rtc.c ****   hrtc->State = HAL_RTC_STATE_BUSY;
 770:../../../../../../Drivers/STM32L0xx_HAL_Driver/Src/stm32l0xx_hal_rtc.c **** 
 771:../../../../../../Drivers/STM32L0xx_HAL_Driver/Src/stm32l0xx_hal_rtc.c ****   if(Format == RTC_FORMAT_BIN)
 772:../../../../../../Drivers/STM32L0xx_HAL_Driver/Src/stm32l0xx_hal_rtc.c ****   {
 773:../../../../../../Drivers/STM32L0xx_HAL_Driver/Src/stm32l0xx_hal_rtc.c ****     if((hrtc->Instance->CR & RTC_CR_FMT) != (uint32_t)RESET)
 774:../../../../../../Drivers/STM32L0xx_HAL_Driver/Src/stm32l0xx_hal_rtc.c ****     {
 775:../../../../../../Drivers/STM32L0xx_HAL_Driver/Src/stm32l0xx_hal_rtc.c ****       assert_param(IS_RTC_HOUR12(sAlarm->AlarmTime.Hours));
 776:../../../../../../Drivers/STM32L0xx_HAL_Driver/Src/stm32l0xx_hal_rtc.c ****       assert_param(IS_RTC_HOURFORMAT12(sAlarm->AlarmTime.TimeFormat));
 777:../../../../../../Drivers/STM32L0xx_HAL_Driver/Src/stm32l0xx_hal_rtc.c ****     }
 778:../../../../../../Drivers/STM32L0xx_HAL_Driver/Src/stm32l0xx_hal_rtc.c ****     else
 779:../../../../../../Drivers/STM32L0xx_HAL_Driver/Src/stm32l0xx_hal_rtc.c ****     {
 780:../../../../../../Drivers/STM32L0xx_HAL_Driver/Src/stm32l0xx_hal_rtc.c ****       sAlarm->AlarmTime.TimeFormat = 0x00U;
 781:../../../../../../Drivers/STM32L0xx_HAL_Driver/Src/stm32l0xx_hal_rtc.c ****       assert_param(IS_RTC_HOUR24(sAlarm->AlarmTime.Hours));
 782:../../../../../../Drivers/STM32L0xx_HAL_Driver/Src/stm32l0xx_hal_rtc.c ****     }
 783:../../../../../../Drivers/STM32L0xx_HAL_Driver/Src/stm32l0xx_hal_rtc.c ****     assert_param(IS_RTC_MINUTES(sAlarm->AlarmTime.Minutes));
 784:../../../../../../Drivers/STM32L0xx_HAL_Driver/Src/stm32l0xx_hal_rtc.c ****     assert_param(IS_RTC_SECONDS(sAlarm->AlarmTime.Seconds));
 785:../../../../../../Drivers/STM32L0xx_HAL_Driver/Src/stm32l0xx_hal_rtc.c **** 
 786:../../../../../../Drivers/STM32L0xx_HAL_Driver/Src/stm32l0xx_hal_rtc.c ****     if(sAlarm->AlarmDateWeekDaySel == RTC_ALARMDATEWEEKDAYSEL_DATE)
 787:../../../../../../Drivers/STM32L0xx_HAL_Driver/Src/stm32l0xx_hal_rtc.c ****     {
 788:../../../../../../Drivers/STM32L0xx_HAL_Driver/Src/stm32l0xx_hal_rtc.c ****       assert_param(IS_RTC_ALARM_DATE_WEEKDAY_DATE(sAlarm->AlarmDateWeekDay));
 789:../../../../../../Drivers/STM32L0xx_HAL_Driver/Src/stm32l0xx_hal_rtc.c ****     }
 790:../../../../../../Drivers/STM32L0xx_HAL_Driver/Src/stm32l0xx_hal_rtc.c ****     else
 791:../../../../../../Drivers/STM32L0xx_HAL_Driver/Src/stm32l0xx_hal_rtc.c ****     {
 792:../../../../../../Drivers/STM32L0xx_HAL_Driver/Src/stm32l0xx_hal_rtc.c ****       assert_param(IS_RTC_ALARM_DATE_WEEKDAY_WEEKDAY(sAlarm->AlarmDateWeekDay));
 793:../../../../../../Drivers/STM32L0xx_HAL_Driver/Src/stm32l0xx_hal_rtc.c ****     }
 794:../../../../../../Drivers/STM32L0xx_HAL_Driver/Src/stm32l0xx_hal_rtc.c **** 
 795:../../../../../../Drivers/STM32L0xx_HAL_Driver/Src/stm32l0xx_hal_rtc.c ****     tmpreg = (((uint32_t)RTC_ByteToBcd2(sAlarm->AlarmTime.Hours) << 16U) | \
 796:../../../../../../Drivers/STM32L0xx_HAL_Driver/Src/stm32l0xx_hal_rtc.c ****               ((uint32_t)RTC_ByteToBcd2(sAlarm->AlarmTime.Minutes) << 8U) | \
 797:../../../../../../Drivers/STM32L0xx_HAL_Driver/Src/stm32l0xx_hal_rtc.c ****               ((uint32_t)RTC_ByteToBcd2(sAlarm->AlarmTime.Seconds)) | \
 798:../../../../../../Drivers/STM32L0xx_HAL_Driver/Src/stm32l0xx_hal_rtc.c ****               ((uint32_t)(sAlarm->AlarmTime.TimeFormat) << 16U) | \
 799:../../../../../../Drivers/STM32L0xx_HAL_Driver/Src/stm32l0xx_hal_rtc.c ****               ((uint32_t)RTC_ByteToBcd2(sAlarm->AlarmDateWeekDay) << 24U) | \
 800:../../../../../../Drivers/STM32L0xx_HAL_Driver/Src/stm32l0xx_hal_rtc.c ****               ((uint32_t)sAlarm->AlarmDateWeekDaySel) | \
 801:../../../../../../Drivers/STM32L0xx_HAL_Driver/Src/stm32l0xx_hal_rtc.c ****               ((uint32_t)sAlarm->AlarmMask));
 802:../../../../../../Drivers/STM32L0xx_HAL_Driver/Src/stm32l0xx_hal_rtc.c ****   }
 803:../../../../../../Drivers/STM32L0xx_HAL_Driver/Src/stm32l0xx_hal_rtc.c ****   else
 804:../../../../../../Drivers/STM32L0xx_HAL_Driver/Src/stm32l0xx_hal_rtc.c ****   {
 805:../../../../../../Drivers/STM32L0xx_HAL_Driver/Src/stm32l0xx_hal_rtc.c ****     if((hrtc->Instance->CR & RTC_CR_FMT) != (uint32_t)RESET)
 806:../../../../../../Drivers/STM32L0xx_HAL_Driver/Src/stm32l0xx_hal_rtc.c ****     {
 807:../../../../../../Drivers/STM32L0xx_HAL_Driver/Src/stm32l0xx_hal_rtc.c ****       tmpreg = RTC_Bcd2ToByte(sAlarm->AlarmTime.Hours);
 808:../../../../../../Drivers/STM32L0xx_HAL_Driver/Src/stm32l0xx_hal_rtc.c ****       assert_param(IS_RTC_HOUR12(tmpreg));
 809:../../../../../../Drivers/STM32L0xx_HAL_Driver/Src/stm32l0xx_hal_rtc.c ****       assert_param(IS_RTC_HOURFORMAT12(sAlarm->AlarmTime.TimeFormat));
 810:../../../../../../Drivers/STM32L0xx_HAL_Driver/Src/stm32l0xx_hal_rtc.c ****     }
 811:../../../../../../Drivers/STM32L0xx_HAL_Driver/Src/stm32l0xx_hal_rtc.c ****     else
 812:../../../../../../Drivers/STM32L0xx_HAL_Driver/Src/stm32l0xx_hal_rtc.c ****     {
 813:../../../../../../Drivers/STM32L0xx_HAL_Driver/Src/stm32l0xx_hal_rtc.c ****       sAlarm->AlarmTime.TimeFormat = 0x00U;
 814:../../../../../../Drivers/STM32L0xx_HAL_Driver/Src/stm32l0xx_hal_rtc.c ****       assert_param(IS_RTC_HOUR24(RTC_Bcd2ToByte(sAlarm->AlarmTime.Hours)));
 815:../../../../../../Drivers/STM32L0xx_HAL_Driver/Src/stm32l0xx_hal_rtc.c ****     }
 816:../../../../../../Drivers/STM32L0xx_HAL_Driver/Src/stm32l0xx_hal_rtc.c **** 
 817:../../../../../../Drivers/STM32L0xx_HAL_Driver/Src/stm32l0xx_hal_rtc.c ****     assert_param(IS_RTC_MINUTES(RTC_Bcd2ToByte(sAlarm->AlarmTime.Minutes)));
 818:../../../../../../Drivers/STM32L0xx_HAL_Driver/Src/stm32l0xx_hal_rtc.c ****     assert_param(IS_RTC_SECONDS(RTC_Bcd2ToByte(sAlarm->AlarmTime.Seconds)));
ARM GAS  C:\Users\EBANO_~1\AppData\Local\Temp\cc8t01eQ.s 			page 17


 819:../../../../../../Drivers/STM32L0xx_HAL_Driver/Src/stm32l0xx_hal_rtc.c **** 
 820:../../../../../../Drivers/STM32L0xx_HAL_Driver/Src/stm32l0xx_hal_rtc.c ****     if(sAlarm->AlarmDateWeekDaySel == RTC_ALARMDATEWEEKDAYSEL_DATE)
 821:../../../../../../Drivers/STM32L0xx_HAL_Driver/Src/stm32l0xx_hal_rtc.c ****     {
 822:../../../../../../Drivers/STM32L0xx_HAL_Driver/Src/stm32l0xx_hal_rtc.c ****       tmpreg = RTC_Bcd2ToByte(sAlarm->AlarmDateWeekDay);
 823:../../../../../../Drivers/STM32L0xx_HAL_Driver/Src/stm32l0xx_hal_rtc.c ****       assert_param(IS_RTC_ALARM_DATE_WEEKDAY_DATE(tmpreg));
 824:../../../../../../Drivers/STM32L0xx_HAL_Driver/Src/stm32l0xx_hal_rtc.c ****     }
 825:../../../../../../Drivers/STM32L0xx_HAL_Driver/Src/stm32l0xx_hal_rtc.c ****     else
 826:../../../../../../Drivers/STM32L0xx_HAL_Driver/Src/stm32l0xx_hal_rtc.c ****     {
 827:../../../../../../Drivers/STM32L0xx_HAL_Driver/Src/stm32l0xx_hal_rtc.c ****       tmpreg = RTC_Bcd2ToByte(sAlarm->AlarmDateWeekDay);
 828:../../../../../../Drivers/STM32L0xx_HAL_Driver/Src/stm32l0xx_hal_rtc.c ****       assert_param(IS_RTC_ALARM_DATE_WEEKDAY_WEEKDAY(tmpreg));
 829:../../../../../../Drivers/STM32L0xx_HAL_Driver/Src/stm32l0xx_hal_rtc.c ****     }
 830:../../../../../../Drivers/STM32L0xx_HAL_Driver/Src/stm32l0xx_hal_rtc.c **** 
 831:../../../../../../Drivers/STM32L0xx_HAL_Driver/Src/stm32l0xx_hal_rtc.c ****     tmpreg = (((uint32_t)(sAlarm->AlarmTime.Hours) << 16U) | \
 832:../../../../../../Drivers/STM32L0xx_HAL_Driver/Src/stm32l0xx_hal_rtc.c ****               ((uint32_t)(sAlarm->AlarmTime.Minutes) << 8U) | \
 833:../../../../../../Drivers/STM32L0xx_HAL_Driver/Src/stm32l0xx_hal_rtc.c ****               ((uint32_t) sAlarm->AlarmTime.Seconds) | \
 834:../../../../../../Drivers/STM32L0xx_HAL_Driver/Src/stm32l0xx_hal_rtc.c ****               ((uint32_t)(sAlarm->AlarmTime.TimeFormat) << 16U) | \
 835:../../../../../../Drivers/STM32L0xx_HAL_Driver/Src/stm32l0xx_hal_rtc.c ****               ((uint32_t)(sAlarm->AlarmDateWeekDay) << 24U) | \
 836:../../../../../../Drivers/STM32L0xx_HAL_Driver/Src/stm32l0xx_hal_rtc.c ****               ((uint32_t)sAlarm->AlarmDateWeekDaySel) | \
 837:../../../../../../Drivers/STM32L0xx_HAL_Driver/Src/stm32l0xx_hal_rtc.c ****               ((uint32_t)sAlarm->AlarmMask));   
 838:../../../../../../Drivers/STM32L0xx_HAL_Driver/Src/stm32l0xx_hal_rtc.c ****   }
 839:../../../../../../Drivers/STM32L0xx_HAL_Driver/Src/stm32l0xx_hal_rtc.c **** 
 840:../../../../../../Drivers/STM32L0xx_HAL_Driver/Src/stm32l0xx_hal_rtc.c ****   /* Configure the Alarm A or Alarm B Sub Second registers */
 841:../../../../../../Drivers/STM32L0xx_HAL_Driver/Src/stm32l0xx_hal_rtc.c ****   subsecondtmpreg = (uint32_t)((uint32_t)(sAlarm->AlarmTime.SubSeconds) | (uint32_t)(sAlarm->AlarmS
 842:../../../../../../Drivers/STM32L0xx_HAL_Driver/Src/stm32l0xx_hal_rtc.c **** 
 843:../../../../../../Drivers/STM32L0xx_HAL_Driver/Src/stm32l0xx_hal_rtc.c ****   /* Disable the write protection for RTC registers */
 844:../../../../../../Drivers/STM32L0xx_HAL_Driver/Src/stm32l0xx_hal_rtc.c ****   __HAL_RTC_WRITEPROTECTION_DISABLE(hrtc);
 845:../../../../../../Drivers/STM32L0xx_HAL_Driver/Src/stm32l0xx_hal_rtc.c **** 
 846:../../../../../../Drivers/STM32L0xx_HAL_Driver/Src/stm32l0xx_hal_rtc.c ****   /* Configure the Alarm register */
 847:../../../../../../Drivers/STM32L0xx_HAL_Driver/Src/stm32l0xx_hal_rtc.c ****   if(sAlarm->Alarm == RTC_ALARM_A)
 848:../../../../../../Drivers/STM32L0xx_HAL_Driver/Src/stm32l0xx_hal_rtc.c ****   {
 849:../../../../../../Drivers/STM32L0xx_HAL_Driver/Src/stm32l0xx_hal_rtc.c ****     /* Disable the Alarm A interrupt */
 850:../../../../../../Drivers/STM32L0xx_HAL_Driver/Src/stm32l0xx_hal_rtc.c ****     __HAL_RTC_ALARMA_DISABLE(hrtc);
 851:../../../../../../Drivers/STM32L0xx_HAL_Driver/Src/stm32l0xx_hal_rtc.c **** 
 852:../../../../../../Drivers/STM32L0xx_HAL_Driver/Src/stm32l0xx_hal_rtc.c ****     /* In case of interrupt mode is used, the interrupt source must disabled */
 853:../../../../../../Drivers/STM32L0xx_HAL_Driver/Src/stm32l0xx_hal_rtc.c ****     __HAL_RTC_ALARM_DISABLE_IT(hrtc, RTC_IT_ALRA);
 854:../../../../../../Drivers/STM32L0xx_HAL_Driver/Src/stm32l0xx_hal_rtc.c **** 
 855:../../../../../../Drivers/STM32L0xx_HAL_Driver/Src/stm32l0xx_hal_rtc.c ****     tickstart = HAL_GetTick();
 856:../../../../../../Drivers/STM32L0xx_HAL_Driver/Src/stm32l0xx_hal_rtc.c ****     /* Wait till RTC ALRAWF flag is set and if Time out is reached exit */
 857:../../../../../../Drivers/STM32L0xx_HAL_Driver/Src/stm32l0xx_hal_rtc.c ****     while(__HAL_RTC_ALARM_GET_FLAG(hrtc, RTC_FLAG_ALRAWF) == RESET)
 858:../../../../../../Drivers/STM32L0xx_HAL_Driver/Src/stm32l0xx_hal_rtc.c ****     {
 859:../../../../../../Drivers/STM32L0xx_HAL_Driver/Src/stm32l0xx_hal_rtc.c ****       if((HAL_GetTick() - tickstart ) > RTC_TIMEOUT_VALUE)
 860:../../../../../../Drivers/STM32L0xx_HAL_Driver/Src/stm32l0xx_hal_rtc.c ****       {
 861:../../../../../../Drivers/STM32L0xx_HAL_Driver/Src/stm32l0xx_hal_rtc.c ****         /* Enable the write protection for RTC registers */
 862:../../../../../../Drivers/STM32L0xx_HAL_Driver/Src/stm32l0xx_hal_rtc.c ****         __HAL_RTC_WRITEPROTECTION_ENABLE(hrtc);
 863:../../../../../../Drivers/STM32L0xx_HAL_Driver/Src/stm32l0xx_hal_rtc.c ****         
 864:../../../../../../Drivers/STM32L0xx_HAL_Driver/Src/stm32l0xx_hal_rtc.c ****         hrtc->State = HAL_RTC_STATE_TIMEOUT;
 865:../../../../../../Drivers/STM32L0xx_HAL_Driver/Src/stm32l0xx_hal_rtc.c **** 
 866:../../../../../../Drivers/STM32L0xx_HAL_Driver/Src/stm32l0xx_hal_rtc.c ****         /* Process Unlocked */ 
 867:../../../../../../Drivers/STM32L0xx_HAL_Driver/Src/stm32l0xx_hal_rtc.c ****         __HAL_UNLOCK(hrtc);
 868:../../../../../../Drivers/STM32L0xx_HAL_Driver/Src/stm32l0xx_hal_rtc.c **** 
 869:../../../../../../Drivers/STM32L0xx_HAL_Driver/Src/stm32l0xx_hal_rtc.c ****         return HAL_TIMEOUT;
 870:../../../../../../Drivers/STM32L0xx_HAL_Driver/Src/stm32l0xx_hal_rtc.c ****       }
 871:../../../../../../Drivers/STM32L0xx_HAL_Driver/Src/stm32l0xx_hal_rtc.c ****     }
 872:../../../../../../Drivers/STM32L0xx_HAL_Driver/Src/stm32l0xx_hal_rtc.c **** 
 873:../../../../../../Drivers/STM32L0xx_HAL_Driver/Src/stm32l0xx_hal_rtc.c ****     hrtc->Instance->ALRMAR = (uint32_t)tmpreg;
 874:../../../../../../Drivers/STM32L0xx_HAL_Driver/Src/stm32l0xx_hal_rtc.c ****     /* Configure the Alarm A Sub Second register */
 875:../../../../../../Drivers/STM32L0xx_HAL_Driver/Src/stm32l0xx_hal_rtc.c ****     hrtc->Instance->ALRMASSR = subsecondtmpreg;
ARM GAS  C:\Users\EBANO_~1\AppData\Local\Temp\cc8t01eQ.s 			page 18


 876:../../../../../../Drivers/STM32L0xx_HAL_Driver/Src/stm32l0xx_hal_rtc.c ****     /* Configure the Alarm state: Enable Alarm */
 877:../../../../../../Drivers/STM32L0xx_HAL_Driver/Src/stm32l0xx_hal_rtc.c ****     __HAL_RTC_ALARMA_ENABLE(hrtc);
 878:../../../../../../Drivers/STM32L0xx_HAL_Driver/Src/stm32l0xx_hal_rtc.c ****   }
 879:../../../../../../Drivers/STM32L0xx_HAL_Driver/Src/stm32l0xx_hal_rtc.c ****   else
 880:../../../../../../Drivers/STM32L0xx_HAL_Driver/Src/stm32l0xx_hal_rtc.c ****   {
 881:../../../../../../Drivers/STM32L0xx_HAL_Driver/Src/stm32l0xx_hal_rtc.c ****     /* Disable the Alarm B interrupt */
 882:../../../../../../Drivers/STM32L0xx_HAL_Driver/Src/stm32l0xx_hal_rtc.c ****     __HAL_RTC_ALARMB_DISABLE(hrtc);
 883:../../../../../../Drivers/STM32L0xx_HAL_Driver/Src/stm32l0xx_hal_rtc.c **** 
 884:../../../../../../Drivers/STM32L0xx_HAL_Driver/Src/stm32l0xx_hal_rtc.c ****     /* In case of interrupt mode is used, the interrupt source must disabled */
 885:../../../../../../Drivers/STM32L0xx_HAL_Driver/Src/stm32l0xx_hal_rtc.c ****     __HAL_RTC_ALARM_DISABLE_IT(hrtc, RTC_IT_ALRB);
 886:../../../../../../Drivers/STM32L0xx_HAL_Driver/Src/stm32l0xx_hal_rtc.c **** 
 887:../../../../../../Drivers/STM32L0xx_HAL_Driver/Src/stm32l0xx_hal_rtc.c ****     tickstart = HAL_GetTick();
 888:../../../../../../Drivers/STM32L0xx_HAL_Driver/Src/stm32l0xx_hal_rtc.c ****     /* Wait till RTC ALRBWF flag is set and if Time out is reached exit */
 889:../../../../../../Drivers/STM32L0xx_HAL_Driver/Src/stm32l0xx_hal_rtc.c ****     while(__HAL_RTC_ALARM_GET_FLAG(hrtc, RTC_FLAG_ALRBWF) == RESET)
 890:../../../../../../Drivers/STM32L0xx_HAL_Driver/Src/stm32l0xx_hal_rtc.c ****     {
 891:../../../../../../Drivers/STM32L0xx_HAL_Driver/Src/stm32l0xx_hal_rtc.c ****       if((HAL_GetTick() - tickstart ) > RTC_TIMEOUT_VALUE)
 892:../../../../../../Drivers/STM32L0xx_HAL_Driver/Src/stm32l0xx_hal_rtc.c ****       {
 893:../../../../../../Drivers/STM32L0xx_HAL_Driver/Src/stm32l0xx_hal_rtc.c ****         /* Enable the write protection for RTC registers */
 894:../../../../../../Drivers/STM32L0xx_HAL_Driver/Src/stm32l0xx_hal_rtc.c ****         __HAL_RTC_WRITEPROTECTION_ENABLE(hrtc);
 895:../../../../../../Drivers/STM32L0xx_HAL_Driver/Src/stm32l0xx_hal_rtc.c **** 
 896:../../../../../../Drivers/STM32L0xx_HAL_Driver/Src/stm32l0xx_hal_rtc.c ****         hrtc->State = HAL_RTC_STATE_TIMEOUT;
 897:../../../../../../Drivers/STM32L0xx_HAL_Driver/Src/stm32l0xx_hal_rtc.c **** 
 898:../../../../../../Drivers/STM32L0xx_HAL_Driver/Src/stm32l0xx_hal_rtc.c ****         /* Process Unlocked */
 899:../../../../../../Drivers/STM32L0xx_HAL_Driver/Src/stm32l0xx_hal_rtc.c ****         __HAL_UNLOCK(hrtc);
 900:../../../../../../Drivers/STM32L0xx_HAL_Driver/Src/stm32l0xx_hal_rtc.c **** 
 901:../../../../../../Drivers/STM32L0xx_HAL_Driver/Src/stm32l0xx_hal_rtc.c ****         return HAL_TIMEOUT;
 902:../../../../../../Drivers/STM32L0xx_HAL_Driver/Src/stm32l0xx_hal_rtc.c ****       }
 903:../../../../../../Drivers/STM32L0xx_HAL_Driver/Src/stm32l0xx_hal_rtc.c ****     }
 904:../../../../../../Drivers/STM32L0xx_HAL_Driver/Src/stm32l0xx_hal_rtc.c **** 
 905:../../../../../../Drivers/STM32L0xx_HAL_Driver/Src/stm32l0xx_hal_rtc.c ****     hrtc->Instance->ALRMBR = (uint32_t)tmpreg;
 906:../../../../../../Drivers/STM32L0xx_HAL_Driver/Src/stm32l0xx_hal_rtc.c ****     /* Configure the Alarm B Sub Second register */
 907:../../../../../../Drivers/STM32L0xx_HAL_Driver/Src/stm32l0xx_hal_rtc.c ****     hrtc->Instance->ALRMBSSR = subsecondtmpreg;
 908:../../../../../../Drivers/STM32L0xx_HAL_Driver/Src/stm32l0xx_hal_rtc.c ****     /* Configure the Alarm state: Enable Alarm */
 909:../../../../../../Drivers/STM32L0xx_HAL_Driver/Src/stm32l0xx_hal_rtc.c ****     __HAL_RTC_ALARMB_ENABLE(hrtc);
 910:../../../../../../Drivers/STM32L0xx_HAL_Driver/Src/stm32l0xx_hal_rtc.c ****   }
 911:../../../../../../Drivers/STM32L0xx_HAL_Driver/Src/stm32l0xx_hal_rtc.c **** 
 912:../../../../../../Drivers/STM32L0xx_HAL_Driver/Src/stm32l0xx_hal_rtc.c ****   /* Enable the write protection for RTC registers */
 913:../../../../../../Drivers/STM32L0xx_HAL_Driver/Src/stm32l0xx_hal_rtc.c ****   __HAL_RTC_WRITEPROTECTION_ENABLE(hrtc);
 914:../../../../../../Drivers/STM32L0xx_HAL_Driver/Src/stm32l0xx_hal_rtc.c **** 
 915:../../../../../../Drivers/STM32L0xx_HAL_Driver/Src/stm32l0xx_hal_rtc.c ****   /* Change RTC state */
 916:../../../../../../Drivers/STM32L0xx_HAL_Driver/Src/stm32l0xx_hal_rtc.c ****   hrtc->State = HAL_RTC_STATE_READY;
 917:../../../../../../Drivers/STM32L0xx_HAL_Driver/Src/stm32l0xx_hal_rtc.c **** 
 918:../../../../../../Drivers/STM32L0xx_HAL_Driver/Src/stm32l0xx_hal_rtc.c ****   /* Process Unlocked */
 919:../../../../../../Drivers/STM32L0xx_HAL_Driver/Src/stm32l0xx_hal_rtc.c ****   __HAL_UNLOCK(hrtc);
 920:../../../../../../Drivers/STM32L0xx_HAL_Driver/Src/stm32l0xx_hal_rtc.c **** 
 921:../../../../../../Drivers/STM32L0xx_HAL_Driver/Src/stm32l0xx_hal_rtc.c ****   return HAL_OK;
 922:../../../../../../Drivers/STM32L0xx_HAL_Driver/Src/stm32l0xx_hal_rtc.c **** }
 923:../../../../../../Drivers/STM32L0xx_HAL_Driver/Src/stm32l0xx_hal_rtc.c **** 
 924:../../../../../../Drivers/STM32L0xx_HAL_Driver/Src/stm32l0xx_hal_rtc.c **** /**
 925:../../../../../../Drivers/STM32L0xx_HAL_Driver/Src/stm32l0xx_hal_rtc.c ****   * @brief  Set the specified RTC Alarm with Interrupt.
 926:../../../../../../Drivers/STM32L0xx_HAL_Driver/Src/stm32l0xx_hal_rtc.c ****   * @param  hrtc RTC handle
 927:../../../../../../Drivers/STM32L0xx_HAL_Driver/Src/stm32l0xx_hal_rtc.c ****   * @param  sAlarm Pointer to Alarm structure
 928:../../../../../../Drivers/STM32L0xx_HAL_Driver/Src/stm32l0xx_hal_rtc.c ****   * @param  Format Specifies the format of the entered parameters.
 929:../../../../../../Drivers/STM32L0xx_HAL_Driver/Src/stm32l0xx_hal_rtc.c ****   *          This parameter can be one of the following values:
 930:../../../../../../Drivers/STM32L0xx_HAL_Driver/Src/stm32l0xx_hal_rtc.c ****   *             @arg RTC_FORMAT_BIN: Binary data format 
 931:../../../../../../Drivers/STM32L0xx_HAL_Driver/Src/stm32l0xx_hal_rtc.c ****   *             @arg RTC_FORMAT_BCD: BCD data format
 932:../../../../../../Drivers/STM32L0xx_HAL_Driver/Src/stm32l0xx_hal_rtc.c ****   * @note   The Alarm register can only be written when the corresponding Alarm
ARM GAS  C:\Users\EBANO_~1\AppData\Local\Temp\cc8t01eQ.s 			page 19


 933:../../../../../../Drivers/STM32L0xx_HAL_Driver/Src/stm32l0xx_hal_rtc.c ****   *         is disabled (Use the HAL_RTC_DeactivateAlarm()).   
 934:../../../../../../Drivers/STM32L0xx_HAL_Driver/Src/stm32l0xx_hal_rtc.c ****   * @note   The HAL_RTC_SetTime() must be called before enabling the Alarm feature.   
 935:../../../../../../Drivers/STM32L0xx_HAL_Driver/Src/stm32l0xx_hal_rtc.c ****   * @retval HAL status
 936:../../../../../../Drivers/STM32L0xx_HAL_Driver/Src/stm32l0xx_hal_rtc.c ****   */
 937:../../../../../../Drivers/STM32L0xx_HAL_Driver/Src/stm32l0xx_hal_rtc.c **** HAL_StatusTypeDef HAL_RTC_SetAlarm_IT(RTC_HandleTypeDef *hrtc, RTC_AlarmTypeDef *sAlarm, uint32_t F
 938:../../../../../../Drivers/STM32L0xx_HAL_Driver/Src/stm32l0xx_hal_rtc.c **** {
 939:../../../../../../Drivers/STM32L0xx_HAL_Driver/Src/stm32l0xx_hal_rtc.c ****   uint32_t tickstart = 0U;
 940:../../../../../../Drivers/STM32L0xx_HAL_Driver/Src/stm32l0xx_hal_rtc.c ****   uint32_t tmpreg = 0U, subsecondtmpreg = 0U;
 941:../../../../../../Drivers/STM32L0xx_HAL_Driver/Src/stm32l0xx_hal_rtc.c **** 
 942:../../../../../../Drivers/STM32L0xx_HAL_Driver/Src/stm32l0xx_hal_rtc.c ****   /* Check the parameters */
 943:../../../../../../Drivers/STM32L0xx_HAL_Driver/Src/stm32l0xx_hal_rtc.c ****   assert_param(IS_RTC_FORMAT(Format));
 944:../../../../../../Drivers/STM32L0xx_HAL_Driver/Src/stm32l0xx_hal_rtc.c ****   assert_param(IS_RTC_ALARM(sAlarm->Alarm));
 945:../../../../../../Drivers/STM32L0xx_HAL_Driver/Src/stm32l0xx_hal_rtc.c ****   assert_param(IS_RTC_ALARM_MASK(sAlarm->AlarmMask));
 946:../../../../../../Drivers/STM32L0xx_HAL_Driver/Src/stm32l0xx_hal_rtc.c ****   assert_param(IS_RTC_ALARM_DATE_WEEKDAY_SEL(sAlarm->AlarmDateWeekDaySel));
 947:../../../../../../Drivers/STM32L0xx_HAL_Driver/Src/stm32l0xx_hal_rtc.c ****   assert_param(IS_RTC_ALARM_SUB_SECOND_VALUE(sAlarm->AlarmTime.SubSeconds));
 948:../../../../../../Drivers/STM32L0xx_HAL_Driver/Src/stm32l0xx_hal_rtc.c ****   assert_param(IS_RTC_ALARM_SUB_SECOND_MASK(sAlarm->AlarmSubSecondMask));
 949:../../../../../../Drivers/STM32L0xx_HAL_Driver/Src/stm32l0xx_hal_rtc.c **** 
 950:../../../../../../Drivers/STM32L0xx_HAL_Driver/Src/stm32l0xx_hal_rtc.c ****   /* Process Locked */ 
 951:../../../../../../Drivers/STM32L0xx_HAL_Driver/Src/stm32l0xx_hal_rtc.c ****   __HAL_LOCK(hrtc);
 952:../../../../../../Drivers/STM32L0xx_HAL_Driver/Src/stm32l0xx_hal_rtc.c **** 
 953:../../../../../../Drivers/STM32L0xx_HAL_Driver/Src/stm32l0xx_hal_rtc.c ****   hrtc->State = HAL_RTC_STATE_BUSY;
 954:../../../../../../Drivers/STM32L0xx_HAL_Driver/Src/stm32l0xx_hal_rtc.c **** 
 955:../../../../../../Drivers/STM32L0xx_HAL_Driver/Src/stm32l0xx_hal_rtc.c ****   if(Format == RTC_FORMAT_BIN)
 956:../../../../../../Drivers/STM32L0xx_HAL_Driver/Src/stm32l0xx_hal_rtc.c ****   {
 957:../../../../../../Drivers/STM32L0xx_HAL_Driver/Src/stm32l0xx_hal_rtc.c ****     if((hrtc->Instance->CR & RTC_CR_FMT) != (uint32_t)RESET)
 958:../../../../../../Drivers/STM32L0xx_HAL_Driver/Src/stm32l0xx_hal_rtc.c ****     {
 959:../../../../../../Drivers/STM32L0xx_HAL_Driver/Src/stm32l0xx_hal_rtc.c ****       assert_param(IS_RTC_HOUR12(sAlarm->AlarmTime.Hours));
 960:../../../../../../Drivers/STM32L0xx_HAL_Driver/Src/stm32l0xx_hal_rtc.c ****       assert_param(IS_RTC_HOURFORMAT12(sAlarm->AlarmTime.TimeFormat));
 961:../../../../../../Drivers/STM32L0xx_HAL_Driver/Src/stm32l0xx_hal_rtc.c ****     }
 962:../../../../../../Drivers/STM32L0xx_HAL_Driver/Src/stm32l0xx_hal_rtc.c ****     else
 963:../../../../../../Drivers/STM32L0xx_HAL_Driver/Src/stm32l0xx_hal_rtc.c ****     {
 964:../../../../../../Drivers/STM32L0xx_HAL_Driver/Src/stm32l0xx_hal_rtc.c ****       sAlarm->AlarmTime.TimeFormat = 0x00U;
 965:../../../../../../Drivers/STM32L0xx_HAL_Driver/Src/stm32l0xx_hal_rtc.c ****       assert_param(IS_RTC_HOUR24(sAlarm->AlarmTime.Hours));
 966:../../../../../../Drivers/STM32L0xx_HAL_Driver/Src/stm32l0xx_hal_rtc.c ****     }
 967:../../../../../../Drivers/STM32L0xx_HAL_Driver/Src/stm32l0xx_hal_rtc.c ****     assert_param(IS_RTC_MINUTES(sAlarm->AlarmTime.Minutes));
 968:../../../../../../Drivers/STM32L0xx_HAL_Driver/Src/stm32l0xx_hal_rtc.c ****     assert_param(IS_RTC_SECONDS(sAlarm->AlarmTime.Seconds));
 969:../../../../../../Drivers/STM32L0xx_HAL_Driver/Src/stm32l0xx_hal_rtc.c **** 
 970:../../../../../../Drivers/STM32L0xx_HAL_Driver/Src/stm32l0xx_hal_rtc.c ****     if(sAlarm->AlarmDateWeekDaySel == RTC_ALARMDATEWEEKDAYSEL_DATE)
 971:../../../../../../Drivers/STM32L0xx_HAL_Driver/Src/stm32l0xx_hal_rtc.c ****     {
 972:../../../../../../Drivers/STM32L0xx_HAL_Driver/Src/stm32l0xx_hal_rtc.c ****       assert_param(IS_RTC_ALARM_DATE_WEEKDAY_DATE(sAlarm->AlarmDateWeekDay));
 973:../../../../../../Drivers/STM32L0xx_HAL_Driver/Src/stm32l0xx_hal_rtc.c ****     }
 974:../../../../../../Drivers/STM32L0xx_HAL_Driver/Src/stm32l0xx_hal_rtc.c ****     else
 975:../../../../../../Drivers/STM32L0xx_HAL_Driver/Src/stm32l0xx_hal_rtc.c ****     {
 976:../../../../../../Drivers/STM32L0xx_HAL_Driver/Src/stm32l0xx_hal_rtc.c ****       assert_param(IS_RTC_ALARM_DATE_WEEKDAY_WEEKDAY(sAlarm->AlarmDateWeekDay));
 977:../../../../../../Drivers/STM32L0xx_HAL_Driver/Src/stm32l0xx_hal_rtc.c ****     }
 978:../../../../../../Drivers/STM32L0xx_HAL_Driver/Src/stm32l0xx_hal_rtc.c ****     tmpreg = (((uint32_t)RTC_ByteToBcd2(sAlarm->AlarmTime.Hours) << 16U) | \
 979:../../../../../../Drivers/STM32L0xx_HAL_Driver/Src/stm32l0xx_hal_rtc.c ****               ((uint32_t)RTC_ByteToBcd2(sAlarm->AlarmTime.Minutes) << 8U) | \
 980:../../../../../../Drivers/STM32L0xx_HAL_Driver/Src/stm32l0xx_hal_rtc.c ****               ((uint32_t)RTC_ByteToBcd2(sAlarm->AlarmTime.Seconds)) | \
 981:../../../../../../Drivers/STM32L0xx_HAL_Driver/Src/stm32l0xx_hal_rtc.c ****               ((uint32_t)(sAlarm->AlarmTime.TimeFormat) << 16U) | \
 982:../../../../../../Drivers/STM32L0xx_HAL_Driver/Src/stm32l0xx_hal_rtc.c ****               ((uint32_t)RTC_ByteToBcd2(sAlarm->AlarmDateWeekDay) << 24U) | \
 983:../../../../../../Drivers/STM32L0xx_HAL_Driver/Src/stm32l0xx_hal_rtc.c ****               ((uint32_t)sAlarm->AlarmDateWeekDaySel) | \
 984:../../../../../../Drivers/STM32L0xx_HAL_Driver/Src/stm32l0xx_hal_rtc.c ****               ((uint32_t)sAlarm->AlarmMask));
 985:../../../../../../Drivers/STM32L0xx_HAL_Driver/Src/stm32l0xx_hal_rtc.c ****   }
 986:../../../../../../Drivers/STM32L0xx_HAL_Driver/Src/stm32l0xx_hal_rtc.c ****   else
 987:../../../../../../Drivers/STM32L0xx_HAL_Driver/Src/stm32l0xx_hal_rtc.c ****   {
 988:../../../../../../Drivers/STM32L0xx_HAL_Driver/Src/stm32l0xx_hal_rtc.c ****     if((hrtc->Instance->CR & RTC_CR_FMT) != (uint32_t)RESET)
 989:../../../../../../Drivers/STM32L0xx_HAL_Driver/Src/stm32l0xx_hal_rtc.c ****     {
ARM GAS  C:\Users\EBANO_~1\AppData\Local\Temp\cc8t01eQ.s 			page 20


 990:../../../../../../Drivers/STM32L0xx_HAL_Driver/Src/stm32l0xx_hal_rtc.c ****       tmpreg = RTC_Bcd2ToByte(sAlarm->AlarmTime.Hours);
 991:../../../../../../Drivers/STM32L0xx_HAL_Driver/Src/stm32l0xx_hal_rtc.c ****       assert_param(IS_RTC_HOUR12(tmpreg));
 992:../../../../../../Drivers/STM32L0xx_HAL_Driver/Src/stm32l0xx_hal_rtc.c ****       assert_param(IS_RTC_HOURFORMAT12(sAlarm->AlarmTime.TimeFormat));
 993:../../../../../../Drivers/STM32L0xx_HAL_Driver/Src/stm32l0xx_hal_rtc.c ****     } 
 994:../../../../../../Drivers/STM32L0xx_HAL_Driver/Src/stm32l0xx_hal_rtc.c ****     else
 995:../../../../../../Drivers/STM32L0xx_HAL_Driver/Src/stm32l0xx_hal_rtc.c ****     {
 996:../../../../../../Drivers/STM32L0xx_HAL_Driver/Src/stm32l0xx_hal_rtc.c ****       sAlarm->AlarmTime.TimeFormat = 0x00U;
 997:../../../../../../Drivers/STM32L0xx_HAL_Driver/Src/stm32l0xx_hal_rtc.c ****       assert_param(IS_RTC_HOUR24(RTC_Bcd2ToByte(sAlarm->AlarmTime.Hours)));
 998:../../../../../../Drivers/STM32L0xx_HAL_Driver/Src/stm32l0xx_hal_rtc.c ****     }
 999:../../../../../../Drivers/STM32L0xx_HAL_Driver/Src/stm32l0xx_hal_rtc.c **** 
1000:../../../../../../Drivers/STM32L0xx_HAL_Driver/Src/stm32l0xx_hal_rtc.c ****     assert_param(IS_RTC_MINUTES(RTC_Bcd2ToByte(sAlarm->AlarmTime.Minutes)));
1001:../../../../../../Drivers/STM32L0xx_HAL_Driver/Src/stm32l0xx_hal_rtc.c ****     assert_param(IS_RTC_SECONDS(RTC_Bcd2ToByte(sAlarm->AlarmTime.Seconds)));
1002:../../../../../../Drivers/STM32L0xx_HAL_Driver/Src/stm32l0xx_hal_rtc.c ****     
1003:../../../../../../Drivers/STM32L0xx_HAL_Driver/Src/stm32l0xx_hal_rtc.c ****     if(sAlarm->AlarmDateWeekDaySel == RTC_ALARMDATEWEEKDAYSEL_DATE)
1004:../../../../../../Drivers/STM32L0xx_HAL_Driver/Src/stm32l0xx_hal_rtc.c ****     {
1005:../../../../../../Drivers/STM32L0xx_HAL_Driver/Src/stm32l0xx_hal_rtc.c ****       tmpreg = RTC_Bcd2ToByte(sAlarm->AlarmDateWeekDay);
1006:../../../../../../Drivers/STM32L0xx_HAL_Driver/Src/stm32l0xx_hal_rtc.c ****       assert_param(IS_RTC_ALARM_DATE_WEEKDAY_DATE(tmpreg));
1007:../../../../../../Drivers/STM32L0xx_HAL_Driver/Src/stm32l0xx_hal_rtc.c ****     }
1008:../../../../../../Drivers/STM32L0xx_HAL_Driver/Src/stm32l0xx_hal_rtc.c ****     else
1009:../../../../../../Drivers/STM32L0xx_HAL_Driver/Src/stm32l0xx_hal_rtc.c ****     {
1010:../../../../../../Drivers/STM32L0xx_HAL_Driver/Src/stm32l0xx_hal_rtc.c ****       tmpreg = RTC_Bcd2ToByte(sAlarm->AlarmDateWeekDay);
1011:../../../../../../Drivers/STM32L0xx_HAL_Driver/Src/stm32l0xx_hal_rtc.c ****       assert_param(IS_RTC_ALARM_DATE_WEEKDAY_WEEKDAY(tmpreg));
1012:../../../../../../Drivers/STM32L0xx_HAL_Driver/Src/stm32l0xx_hal_rtc.c ****     }
1013:../../../../../../Drivers/STM32L0xx_HAL_Driver/Src/stm32l0xx_hal_rtc.c ****     tmpreg = (((uint32_t)(sAlarm->AlarmTime.Hours) << 16U) | \
1014:../../../../../../Drivers/STM32L0xx_HAL_Driver/Src/stm32l0xx_hal_rtc.c ****               ((uint32_t)(sAlarm->AlarmTime.Minutes) << 8U) | \
1015:../../../../../../Drivers/STM32L0xx_HAL_Driver/Src/stm32l0xx_hal_rtc.c ****               ((uint32_t) sAlarm->AlarmTime.Seconds) | \
1016:../../../../../../Drivers/STM32L0xx_HAL_Driver/Src/stm32l0xx_hal_rtc.c ****               ((uint32_t)(sAlarm->AlarmTime.TimeFormat) << 16U) | \
1017:../../../../../../Drivers/STM32L0xx_HAL_Driver/Src/stm32l0xx_hal_rtc.c ****               ((uint32_t)(sAlarm->AlarmDateWeekDay) << 24U) | \
1018:../../../../../../Drivers/STM32L0xx_HAL_Driver/Src/stm32l0xx_hal_rtc.c ****               ((uint32_t)sAlarm->AlarmDateWeekDaySel) | \
1019:../../../../../../Drivers/STM32L0xx_HAL_Driver/Src/stm32l0xx_hal_rtc.c ****               ((uint32_t)sAlarm->AlarmMask));     
1020:../../../../../../Drivers/STM32L0xx_HAL_Driver/Src/stm32l0xx_hal_rtc.c ****   }
1021:../../../../../../Drivers/STM32L0xx_HAL_Driver/Src/stm32l0xx_hal_rtc.c ****   /* Configure the Alarm A or Alarm B Sub Second registers */
1022:../../../../../../Drivers/STM32L0xx_HAL_Driver/Src/stm32l0xx_hal_rtc.c ****   subsecondtmpreg = (uint32_t)((uint32_t)(sAlarm->AlarmTime.SubSeconds) | (uint32_t)(sAlarm->AlarmS
1023:../../../../../../Drivers/STM32L0xx_HAL_Driver/Src/stm32l0xx_hal_rtc.c **** 
1024:../../../../../../Drivers/STM32L0xx_HAL_Driver/Src/stm32l0xx_hal_rtc.c ****   /* Disable the write protection for RTC registers */
1025:../../../../../../Drivers/STM32L0xx_HAL_Driver/Src/stm32l0xx_hal_rtc.c ****   __HAL_RTC_WRITEPROTECTION_DISABLE(hrtc);
1026:../../../../../../Drivers/STM32L0xx_HAL_Driver/Src/stm32l0xx_hal_rtc.c **** 
1027:../../../../../../Drivers/STM32L0xx_HAL_Driver/Src/stm32l0xx_hal_rtc.c ****   /* Configure the Alarm register */
1028:../../../../../../Drivers/STM32L0xx_HAL_Driver/Src/stm32l0xx_hal_rtc.c ****   if(sAlarm->Alarm == RTC_ALARM_A)
1029:../../../../../../Drivers/STM32L0xx_HAL_Driver/Src/stm32l0xx_hal_rtc.c ****   {
1030:../../../../../../Drivers/STM32L0xx_HAL_Driver/Src/stm32l0xx_hal_rtc.c ****     /* Disable the Alarm A interrupt */
1031:../../../../../../Drivers/STM32L0xx_HAL_Driver/Src/stm32l0xx_hal_rtc.c ****     __HAL_RTC_ALARMA_DISABLE(hrtc);
1032:../../../../../../Drivers/STM32L0xx_HAL_Driver/Src/stm32l0xx_hal_rtc.c ****     
1033:../../../../../../Drivers/STM32L0xx_HAL_Driver/Src/stm32l0xx_hal_rtc.c ****     /* Clear flag alarm A */
1034:../../../../../../Drivers/STM32L0xx_HAL_Driver/Src/stm32l0xx_hal_rtc.c ****     __HAL_RTC_ALARM_CLEAR_FLAG(hrtc, RTC_FLAG_ALRAF);
1035:../../../../../../Drivers/STM32L0xx_HAL_Driver/Src/stm32l0xx_hal_rtc.c **** 
1036:../../../../../../Drivers/STM32L0xx_HAL_Driver/Src/stm32l0xx_hal_rtc.c ****     tickstart = HAL_GetTick();
1037:../../../../../../Drivers/STM32L0xx_HAL_Driver/Src/stm32l0xx_hal_rtc.c ****     /* Wait till RTC ALRAWF flag is set and if Time out is reached exit */
1038:../../../../../../Drivers/STM32L0xx_HAL_Driver/Src/stm32l0xx_hal_rtc.c ****     while(__HAL_RTC_ALARM_GET_FLAG(hrtc, RTC_FLAG_ALRAWF) == RESET)
1039:../../../../../../Drivers/STM32L0xx_HAL_Driver/Src/stm32l0xx_hal_rtc.c ****     {
1040:../../../../../../Drivers/STM32L0xx_HAL_Driver/Src/stm32l0xx_hal_rtc.c ****       if((HAL_GetTick() - tickstart ) > RTC_TIMEOUT_VALUE)
1041:../../../../../../Drivers/STM32L0xx_HAL_Driver/Src/stm32l0xx_hal_rtc.c ****       {
1042:../../../../../../Drivers/STM32L0xx_HAL_Driver/Src/stm32l0xx_hal_rtc.c ****         /* Enable the write protection for RTC registers */
1043:../../../../../../Drivers/STM32L0xx_HAL_Driver/Src/stm32l0xx_hal_rtc.c ****         __HAL_RTC_WRITEPROTECTION_ENABLE(hrtc);
1044:../../../../../../Drivers/STM32L0xx_HAL_Driver/Src/stm32l0xx_hal_rtc.c **** 
1045:../../../../../../Drivers/STM32L0xx_HAL_Driver/Src/stm32l0xx_hal_rtc.c ****         hrtc->State = HAL_RTC_STATE_TIMEOUT; 
1046:../../../../../../Drivers/STM32L0xx_HAL_Driver/Src/stm32l0xx_hal_rtc.c **** 
ARM GAS  C:\Users\EBANO_~1\AppData\Local\Temp\cc8t01eQ.s 			page 21


1047:../../../../../../Drivers/STM32L0xx_HAL_Driver/Src/stm32l0xx_hal_rtc.c ****         /* Process Unlocked */
1048:../../../../../../Drivers/STM32L0xx_HAL_Driver/Src/stm32l0xx_hal_rtc.c ****         __HAL_UNLOCK(hrtc);
1049:../../../../../../Drivers/STM32L0xx_HAL_Driver/Src/stm32l0xx_hal_rtc.c **** 
1050:../../../../../../Drivers/STM32L0xx_HAL_Driver/Src/stm32l0xx_hal_rtc.c ****         return HAL_TIMEOUT;
1051:../../../../../../Drivers/STM32L0xx_HAL_Driver/Src/stm32l0xx_hal_rtc.c ****       }
1052:../../../../../../Drivers/STM32L0xx_HAL_Driver/Src/stm32l0xx_hal_rtc.c ****     }
1053:../../../../../../Drivers/STM32L0xx_HAL_Driver/Src/stm32l0xx_hal_rtc.c **** 
1054:../../../../../../Drivers/STM32L0xx_HAL_Driver/Src/stm32l0xx_hal_rtc.c ****     hrtc->Instance->ALRMAR = (uint32_t)tmpreg;
1055:../../../../../../Drivers/STM32L0xx_HAL_Driver/Src/stm32l0xx_hal_rtc.c ****     /* Configure the Alarm A Sub Second register */
1056:../../../../../../Drivers/STM32L0xx_HAL_Driver/Src/stm32l0xx_hal_rtc.c ****     hrtc->Instance->ALRMASSR = subsecondtmpreg;
1057:../../../../../../Drivers/STM32L0xx_HAL_Driver/Src/stm32l0xx_hal_rtc.c ****     /* Configure the Alarm state: Enable Alarm */
1058:../../../../../../Drivers/STM32L0xx_HAL_Driver/Src/stm32l0xx_hal_rtc.c ****     __HAL_RTC_ALARMA_ENABLE(hrtc);
1059:../../../../../../Drivers/STM32L0xx_HAL_Driver/Src/stm32l0xx_hal_rtc.c ****     /* Configure the Alarm interrupt */
1060:../../../../../../Drivers/STM32L0xx_HAL_Driver/Src/stm32l0xx_hal_rtc.c ****     __HAL_RTC_ALARM_ENABLE_IT(hrtc,RTC_IT_ALRA);
1061:../../../../../../Drivers/STM32L0xx_HAL_Driver/Src/stm32l0xx_hal_rtc.c ****   }
1062:../../../../../../Drivers/STM32L0xx_HAL_Driver/Src/stm32l0xx_hal_rtc.c ****   else
1063:../../../../../../Drivers/STM32L0xx_HAL_Driver/Src/stm32l0xx_hal_rtc.c ****   {
1064:../../../../../../Drivers/STM32L0xx_HAL_Driver/Src/stm32l0xx_hal_rtc.c ****     /* Disable the Alarm B interrupt */
1065:../../../../../../Drivers/STM32L0xx_HAL_Driver/Src/stm32l0xx_hal_rtc.c ****     __HAL_RTC_ALARMB_DISABLE(hrtc);
1066:../../../../../../Drivers/STM32L0xx_HAL_Driver/Src/stm32l0xx_hal_rtc.c ****     
1067:../../../../../../Drivers/STM32L0xx_HAL_Driver/Src/stm32l0xx_hal_rtc.c ****     /* Clear flag alarm B */
1068:../../../../../../Drivers/STM32L0xx_HAL_Driver/Src/stm32l0xx_hal_rtc.c ****     __HAL_RTC_ALARM_CLEAR_FLAG(hrtc, RTC_FLAG_ALRBF);
1069:../../../../../../Drivers/STM32L0xx_HAL_Driver/Src/stm32l0xx_hal_rtc.c **** 
1070:../../../../../../Drivers/STM32L0xx_HAL_Driver/Src/stm32l0xx_hal_rtc.c ****     tickstart = HAL_GetTick();
1071:../../../../../../Drivers/STM32L0xx_HAL_Driver/Src/stm32l0xx_hal_rtc.c ****     /* Wait till RTC ALRBWF flag is set and if Time out is reached exit */
1072:../../../../../../Drivers/STM32L0xx_HAL_Driver/Src/stm32l0xx_hal_rtc.c ****     while(__HAL_RTC_ALARM_GET_FLAG(hrtc, RTC_FLAG_ALRBWF) == RESET)
1073:../../../../../../Drivers/STM32L0xx_HAL_Driver/Src/stm32l0xx_hal_rtc.c ****     {
1074:../../../../../../Drivers/STM32L0xx_HAL_Driver/Src/stm32l0xx_hal_rtc.c ****       if((HAL_GetTick() - tickstart ) > RTC_TIMEOUT_VALUE)
1075:../../../../../../Drivers/STM32L0xx_HAL_Driver/Src/stm32l0xx_hal_rtc.c ****       {
1076:../../../../../../Drivers/STM32L0xx_HAL_Driver/Src/stm32l0xx_hal_rtc.c ****         /* Enable the write protection for RTC registers */
1077:../../../../../../Drivers/STM32L0xx_HAL_Driver/Src/stm32l0xx_hal_rtc.c ****         __HAL_RTC_WRITEPROTECTION_ENABLE(hrtc);
1078:../../../../../../Drivers/STM32L0xx_HAL_Driver/Src/stm32l0xx_hal_rtc.c **** 
1079:../../../../../../Drivers/STM32L0xx_HAL_Driver/Src/stm32l0xx_hal_rtc.c ****         hrtc->State = HAL_RTC_STATE_TIMEOUT;
1080:../../../../../../Drivers/STM32L0xx_HAL_Driver/Src/stm32l0xx_hal_rtc.c **** 
1081:../../../../../../Drivers/STM32L0xx_HAL_Driver/Src/stm32l0xx_hal_rtc.c ****         /* Process Unlocked */
1082:../../../../../../Drivers/STM32L0xx_HAL_Driver/Src/stm32l0xx_hal_rtc.c ****         __HAL_UNLOCK(hrtc);
1083:../../../../../../Drivers/STM32L0xx_HAL_Driver/Src/stm32l0xx_hal_rtc.c **** 
1084:../../../../../../Drivers/STM32L0xx_HAL_Driver/Src/stm32l0xx_hal_rtc.c ****         return HAL_TIMEOUT;
1085:../../../../../../Drivers/STM32L0xx_HAL_Driver/Src/stm32l0xx_hal_rtc.c ****       }
1086:../../../../../../Drivers/STM32L0xx_HAL_Driver/Src/stm32l0xx_hal_rtc.c ****     }
1087:../../../../../../Drivers/STM32L0xx_HAL_Driver/Src/stm32l0xx_hal_rtc.c **** 
1088:../../../../../../Drivers/STM32L0xx_HAL_Driver/Src/stm32l0xx_hal_rtc.c ****     hrtc->Instance->ALRMBR = (uint32_t)tmpreg;
1089:../../../../../../Drivers/STM32L0xx_HAL_Driver/Src/stm32l0xx_hal_rtc.c ****     /* Configure the Alarm B Sub Second register */
1090:../../../../../../Drivers/STM32L0xx_HAL_Driver/Src/stm32l0xx_hal_rtc.c ****     hrtc->Instance->ALRMBSSR = subsecondtmpreg;
1091:../../../../../../Drivers/STM32L0xx_HAL_Driver/Src/stm32l0xx_hal_rtc.c ****     /* Configure the Alarm state: Enable Alarm */
1092:../../../../../../Drivers/STM32L0xx_HAL_Driver/Src/stm32l0xx_hal_rtc.c ****     __HAL_RTC_ALARMB_ENABLE(hrtc);
1093:../../../../../../Drivers/STM32L0xx_HAL_Driver/Src/stm32l0xx_hal_rtc.c ****     /* Configure the Alarm interrupt */
1094:../../../../../../Drivers/STM32L0xx_HAL_Driver/Src/stm32l0xx_hal_rtc.c ****     __HAL_RTC_ALARM_ENABLE_IT(hrtc, RTC_IT_ALRB);
1095:../../../../../../Drivers/STM32L0xx_HAL_Driver/Src/stm32l0xx_hal_rtc.c ****   }
1096:../../../../../../Drivers/STM32L0xx_HAL_Driver/Src/stm32l0xx_hal_rtc.c **** 
1097:../../../../../../Drivers/STM32L0xx_HAL_Driver/Src/stm32l0xx_hal_rtc.c ****   /* RTC Alarm Interrupt Configuration: EXTI configuration */
1098:../../../../../../Drivers/STM32L0xx_HAL_Driver/Src/stm32l0xx_hal_rtc.c ****   __HAL_RTC_ALARM_EXTI_ENABLE_IT();
1099:../../../../../../Drivers/STM32L0xx_HAL_Driver/Src/stm32l0xx_hal_rtc.c **** 
1100:../../../../../../Drivers/STM32L0xx_HAL_Driver/Src/stm32l0xx_hal_rtc.c ****   __HAL_RTC_ALARM_EXTI_ENABLE_RISING_EDGE();
1101:../../../../../../Drivers/STM32L0xx_HAL_Driver/Src/stm32l0xx_hal_rtc.c **** 
1102:../../../../../../Drivers/STM32L0xx_HAL_Driver/Src/stm32l0xx_hal_rtc.c ****   /* Enable the write protection for RTC registers */
1103:../../../../../../Drivers/STM32L0xx_HAL_Driver/Src/stm32l0xx_hal_rtc.c ****   __HAL_RTC_WRITEPROTECTION_ENABLE(hrtc);
ARM GAS  C:\Users\EBANO_~1\AppData\Local\Temp\cc8t01eQ.s 			page 22


1104:../../../../../../Drivers/STM32L0xx_HAL_Driver/Src/stm32l0xx_hal_rtc.c **** 
1105:../../../../../../Drivers/STM32L0xx_HAL_Driver/Src/stm32l0xx_hal_rtc.c ****   hrtc->State = HAL_RTC_STATE_READY; 
1106:../../../../../../Drivers/STM32L0xx_HAL_Driver/Src/stm32l0xx_hal_rtc.c **** 
1107:../../../../../../Drivers/STM32L0xx_HAL_Driver/Src/stm32l0xx_hal_rtc.c ****   /* Process Unlocked */
1108:../../../../../../Drivers/STM32L0xx_HAL_Driver/Src/stm32l0xx_hal_rtc.c ****   __HAL_UNLOCK(hrtc);
1109:../../../../../../Drivers/STM32L0xx_HAL_Driver/Src/stm32l0xx_hal_rtc.c **** 
1110:../../../../../../Drivers/STM32L0xx_HAL_Driver/Src/stm32l0xx_hal_rtc.c ****   return HAL_OK;
1111:../../../../../../Drivers/STM32L0xx_HAL_Driver/Src/stm32l0xx_hal_rtc.c **** }
1112:../../../../../../Drivers/STM32L0xx_HAL_Driver/Src/stm32l0xx_hal_rtc.c **** 
1113:../../../../../../Drivers/STM32L0xx_HAL_Driver/Src/stm32l0xx_hal_rtc.c **** /**
1114:../../../../../../Drivers/STM32L0xx_HAL_Driver/Src/stm32l0xx_hal_rtc.c ****   * @brief  Deactivate the specified RTC Alarm.
1115:../../../../../../Drivers/STM32L0xx_HAL_Driver/Src/stm32l0xx_hal_rtc.c ****   * @param  hrtc RTC handle
1116:../../../../../../Drivers/STM32L0xx_HAL_Driver/Src/stm32l0xx_hal_rtc.c ****   * @param  Alarm Specifies the Alarm.
1117:../../../../../../Drivers/STM32L0xx_HAL_Driver/Src/stm32l0xx_hal_rtc.c ****   *          This parameter can be one of the following values:
1118:../../../../../../Drivers/STM32L0xx_HAL_Driver/Src/stm32l0xx_hal_rtc.c ****   *            @arg RTC_ALARM_A:  AlarmA
1119:../../../../../../Drivers/STM32L0xx_HAL_Driver/Src/stm32l0xx_hal_rtc.c ****   *            @arg RTC_ALARM_B:  AlarmB
1120:../../../../../../Drivers/STM32L0xx_HAL_Driver/Src/stm32l0xx_hal_rtc.c ****   * @retval HAL status
1121:../../../../../../Drivers/STM32L0xx_HAL_Driver/Src/stm32l0xx_hal_rtc.c ****   */
1122:../../../../../../Drivers/STM32L0xx_HAL_Driver/Src/stm32l0xx_hal_rtc.c **** HAL_StatusTypeDef HAL_RTC_DeactivateAlarm(RTC_HandleTypeDef *hrtc, uint32_t Alarm)
1123:../../../../../../Drivers/STM32L0xx_HAL_Driver/Src/stm32l0xx_hal_rtc.c **** {
1124:../../../../../../Drivers/STM32L0xx_HAL_Driver/Src/stm32l0xx_hal_rtc.c ****   uint32_t tickstart = 0U;
1125:../../../../../../Drivers/STM32L0xx_HAL_Driver/Src/stm32l0xx_hal_rtc.c **** 
1126:../../../../../../Drivers/STM32L0xx_HAL_Driver/Src/stm32l0xx_hal_rtc.c ****   /* Check the parameters */
1127:../../../../../../Drivers/STM32L0xx_HAL_Driver/Src/stm32l0xx_hal_rtc.c ****   assert_param(IS_RTC_ALARM(Alarm));
1128:../../../../../../Drivers/STM32L0xx_HAL_Driver/Src/stm32l0xx_hal_rtc.c **** 
1129:../../../../../../Drivers/STM32L0xx_HAL_Driver/Src/stm32l0xx_hal_rtc.c ****   /* Process Locked */
1130:../../../../../../Drivers/STM32L0xx_HAL_Driver/Src/stm32l0xx_hal_rtc.c ****   __HAL_LOCK(hrtc);
1131:../../../../../../Drivers/STM32L0xx_HAL_Driver/Src/stm32l0xx_hal_rtc.c **** 
1132:../../../../../../Drivers/STM32L0xx_HAL_Driver/Src/stm32l0xx_hal_rtc.c ****   hrtc->State = HAL_RTC_STATE_BUSY;
1133:../../../../../../Drivers/STM32L0xx_HAL_Driver/Src/stm32l0xx_hal_rtc.c **** 
1134:../../../../../../Drivers/STM32L0xx_HAL_Driver/Src/stm32l0xx_hal_rtc.c ****   /* Disable the write protection for RTC registers */
1135:../../../../../../Drivers/STM32L0xx_HAL_Driver/Src/stm32l0xx_hal_rtc.c ****   __HAL_RTC_WRITEPROTECTION_DISABLE(hrtc);
1136:../../../../../../Drivers/STM32L0xx_HAL_Driver/Src/stm32l0xx_hal_rtc.c **** 
1137:../../../../../../Drivers/STM32L0xx_HAL_Driver/Src/stm32l0xx_hal_rtc.c ****   if(Alarm == RTC_ALARM_A)
1138:../../../../../../Drivers/STM32L0xx_HAL_Driver/Src/stm32l0xx_hal_rtc.c ****   {
1139:../../../../../../Drivers/STM32L0xx_HAL_Driver/Src/stm32l0xx_hal_rtc.c ****     /* AlarmA */
1140:../../../../../../Drivers/STM32L0xx_HAL_Driver/Src/stm32l0xx_hal_rtc.c ****     __HAL_RTC_ALARMA_DISABLE(hrtc);
1141:../../../../../../Drivers/STM32L0xx_HAL_Driver/Src/stm32l0xx_hal_rtc.c **** 
1142:../../../../../../Drivers/STM32L0xx_HAL_Driver/Src/stm32l0xx_hal_rtc.c ****     /* In case of interrupt mode is used, the interrupt source must disabled */
1143:../../../../../../Drivers/STM32L0xx_HAL_Driver/Src/stm32l0xx_hal_rtc.c ****     __HAL_RTC_ALARM_DISABLE_IT(hrtc, RTC_IT_ALRA);
1144:../../../../../../Drivers/STM32L0xx_HAL_Driver/Src/stm32l0xx_hal_rtc.c **** 
1145:../../../../../../Drivers/STM32L0xx_HAL_Driver/Src/stm32l0xx_hal_rtc.c ****     tickstart = HAL_GetTick();
1146:../../../../../../Drivers/STM32L0xx_HAL_Driver/Src/stm32l0xx_hal_rtc.c **** 
1147:../../../../../../Drivers/STM32L0xx_HAL_Driver/Src/stm32l0xx_hal_rtc.c ****     /* Wait till RTC ALRxWF flag is set and if Time out is reached exit */
1148:../../../../../../Drivers/STM32L0xx_HAL_Driver/Src/stm32l0xx_hal_rtc.c ****     while(__HAL_RTC_ALARM_GET_FLAG(hrtc, RTC_FLAG_ALRAWF) == RESET)
1149:../../../../../../Drivers/STM32L0xx_HAL_Driver/Src/stm32l0xx_hal_rtc.c ****     {
1150:../../../../../../Drivers/STM32L0xx_HAL_Driver/Src/stm32l0xx_hal_rtc.c ****       if( (HAL_GetTick()  - tickstart ) > RTC_TIMEOUT_VALUE)
1151:../../../../../../Drivers/STM32L0xx_HAL_Driver/Src/stm32l0xx_hal_rtc.c ****       {
1152:../../../../../../Drivers/STM32L0xx_HAL_Driver/Src/stm32l0xx_hal_rtc.c ****         /* Enable the write protection for RTC registers */
1153:../../../../../../Drivers/STM32L0xx_HAL_Driver/Src/stm32l0xx_hal_rtc.c ****         __HAL_RTC_WRITEPROTECTION_ENABLE(hrtc);
1154:../../../../../../Drivers/STM32L0xx_HAL_Driver/Src/stm32l0xx_hal_rtc.c **** 
1155:../../../../../../Drivers/STM32L0xx_HAL_Driver/Src/stm32l0xx_hal_rtc.c ****         hrtc->State = HAL_RTC_STATE_TIMEOUT;
1156:../../../../../../Drivers/STM32L0xx_HAL_Driver/Src/stm32l0xx_hal_rtc.c **** 
1157:../../../../../../Drivers/STM32L0xx_HAL_Driver/Src/stm32l0xx_hal_rtc.c ****         /* Process Unlocked */
1158:../../../../../../Drivers/STM32L0xx_HAL_Driver/Src/stm32l0xx_hal_rtc.c ****         __HAL_UNLOCK(hrtc);
1159:../../../../../../Drivers/STM32L0xx_HAL_Driver/Src/stm32l0xx_hal_rtc.c **** 
1160:../../../../../../Drivers/STM32L0xx_HAL_Driver/Src/stm32l0xx_hal_rtc.c ****         return HAL_TIMEOUT;
ARM GAS  C:\Users\EBANO_~1\AppData\Local\Temp\cc8t01eQ.s 			page 23


1161:../../../../../../Drivers/STM32L0xx_HAL_Driver/Src/stm32l0xx_hal_rtc.c ****       }
1162:../../../../../../Drivers/STM32L0xx_HAL_Driver/Src/stm32l0xx_hal_rtc.c ****     }
1163:../../../../../../Drivers/STM32L0xx_HAL_Driver/Src/stm32l0xx_hal_rtc.c ****   }
1164:../../../../../../Drivers/STM32L0xx_HAL_Driver/Src/stm32l0xx_hal_rtc.c ****   else
1165:../../../../../../Drivers/STM32L0xx_HAL_Driver/Src/stm32l0xx_hal_rtc.c ****   {
1166:../../../../../../Drivers/STM32L0xx_HAL_Driver/Src/stm32l0xx_hal_rtc.c ****     /* AlarmB */
1167:../../../../../../Drivers/STM32L0xx_HAL_Driver/Src/stm32l0xx_hal_rtc.c ****     __HAL_RTC_ALARMB_DISABLE(hrtc);
1168:../../../../../../Drivers/STM32L0xx_HAL_Driver/Src/stm32l0xx_hal_rtc.c **** 
1169:../../../../../../Drivers/STM32L0xx_HAL_Driver/Src/stm32l0xx_hal_rtc.c ****     /* In case of interrupt mode is used, the interrupt source must disabled */
1170:../../../../../../Drivers/STM32L0xx_HAL_Driver/Src/stm32l0xx_hal_rtc.c ****     __HAL_RTC_ALARM_DISABLE_IT(hrtc,RTC_IT_ALRB);
1171:../../../../../../Drivers/STM32L0xx_HAL_Driver/Src/stm32l0xx_hal_rtc.c **** 
1172:../../../../../../Drivers/STM32L0xx_HAL_Driver/Src/stm32l0xx_hal_rtc.c ****     tickstart = HAL_GetTick();
1173:../../../../../../Drivers/STM32L0xx_HAL_Driver/Src/stm32l0xx_hal_rtc.c **** 
1174:../../../../../../Drivers/STM32L0xx_HAL_Driver/Src/stm32l0xx_hal_rtc.c ****     /* Wait till RTC ALRxWF flag is set and if Time out is reached exit */
1175:../../../../../../Drivers/STM32L0xx_HAL_Driver/Src/stm32l0xx_hal_rtc.c ****     while(__HAL_RTC_ALARM_GET_FLAG(hrtc, RTC_FLAG_ALRBWF) == RESET)
1176:../../../../../../Drivers/STM32L0xx_HAL_Driver/Src/stm32l0xx_hal_rtc.c ****     {
1177:../../../../../../Drivers/STM32L0xx_HAL_Driver/Src/stm32l0xx_hal_rtc.c ****       if((HAL_GetTick() - tickstart ) > RTC_TIMEOUT_VALUE)
1178:../../../../../../Drivers/STM32L0xx_HAL_Driver/Src/stm32l0xx_hal_rtc.c ****       {
1179:../../../../../../Drivers/STM32L0xx_HAL_Driver/Src/stm32l0xx_hal_rtc.c ****         /* Enable the write protection for RTC registers */
1180:../../../../../../Drivers/STM32L0xx_HAL_Driver/Src/stm32l0xx_hal_rtc.c ****         __HAL_RTC_WRITEPROTECTION_ENABLE(hrtc);
1181:../../../../../../Drivers/STM32L0xx_HAL_Driver/Src/stm32l0xx_hal_rtc.c **** 
1182:../../../../../../Drivers/STM32L0xx_HAL_Driver/Src/stm32l0xx_hal_rtc.c ****         hrtc->State = HAL_RTC_STATE_TIMEOUT;
1183:../../../../../../Drivers/STM32L0xx_HAL_Driver/Src/stm32l0xx_hal_rtc.c **** 
1184:../../../../../../Drivers/STM32L0xx_HAL_Driver/Src/stm32l0xx_hal_rtc.c ****         /* Process Unlocked */
1185:../../../../../../Drivers/STM32L0xx_HAL_Driver/Src/stm32l0xx_hal_rtc.c ****         __HAL_UNLOCK(hrtc);
1186:../../../../../../Drivers/STM32L0xx_HAL_Driver/Src/stm32l0xx_hal_rtc.c **** 
1187:../../../../../../Drivers/STM32L0xx_HAL_Driver/Src/stm32l0xx_hal_rtc.c ****         return HAL_TIMEOUT;
1188:../../../../../../Drivers/STM32L0xx_HAL_Driver/Src/stm32l0xx_hal_rtc.c ****       }
1189:../../../../../../Drivers/STM32L0xx_HAL_Driver/Src/stm32l0xx_hal_rtc.c ****     }
1190:../../../../../../Drivers/STM32L0xx_HAL_Driver/Src/stm32l0xx_hal_rtc.c ****   }
1191:../../../../../../Drivers/STM32L0xx_HAL_Driver/Src/stm32l0xx_hal_rtc.c ****   /* Enable the write protection for RTC registers */
1192:../../../../../../Drivers/STM32L0xx_HAL_Driver/Src/stm32l0xx_hal_rtc.c ****   __HAL_RTC_WRITEPROTECTION_ENABLE(hrtc);
1193:../../../../../../Drivers/STM32L0xx_HAL_Driver/Src/stm32l0xx_hal_rtc.c **** 
1194:../../../../../../Drivers/STM32L0xx_HAL_Driver/Src/stm32l0xx_hal_rtc.c ****   hrtc->State = HAL_RTC_STATE_READY;
1195:../../../../../../Drivers/STM32L0xx_HAL_Driver/Src/stm32l0xx_hal_rtc.c **** 
1196:../../../../../../Drivers/STM32L0xx_HAL_Driver/Src/stm32l0xx_hal_rtc.c ****   /* Process Unlocked */
1197:../../../../../../Drivers/STM32L0xx_HAL_Driver/Src/stm32l0xx_hal_rtc.c ****   __HAL_UNLOCK(hrtc);
1198:../../../../../../Drivers/STM32L0xx_HAL_Driver/Src/stm32l0xx_hal_rtc.c **** 
1199:../../../../../../Drivers/STM32L0xx_HAL_Driver/Src/stm32l0xx_hal_rtc.c ****   return HAL_OK; 
1200:../../../../../../Drivers/STM32L0xx_HAL_Driver/Src/stm32l0xx_hal_rtc.c **** }
1201:../../../../../../Drivers/STM32L0xx_HAL_Driver/Src/stm32l0xx_hal_rtc.c **** 
1202:../../../../../../Drivers/STM32L0xx_HAL_Driver/Src/stm32l0xx_hal_rtc.c **** /**
1203:../../../../../../Drivers/STM32L0xx_HAL_Driver/Src/stm32l0xx_hal_rtc.c ****   * @brief  Get the RTC Alarm value and masks.
1204:../../../../../../Drivers/STM32L0xx_HAL_Driver/Src/stm32l0xx_hal_rtc.c ****   * @param  hrtc RTC handle
1205:../../../../../../Drivers/STM32L0xx_HAL_Driver/Src/stm32l0xx_hal_rtc.c ****   * @param  sAlarm Pointer to Date structure
1206:../../../../../../Drivers/STM32L0xx_HAL_Driver/Src/stm32l0xx_hal_rtc.c ****   * @param  Alarm Specifies the Alarm.
1207:../../../../../../Drivers/STM32L0xx_HAL_Driver/Src/stm32l0xx_hal_rtc.c ****   *          This parameter can be one of the following values:
1208:../../../../../../Drivers/STM32L0xx_HAL_Driver/Src/stm32l0xx_hal_rtc.c ****   *             @arg RTC_ALARM_A: AlarmA
1209:../../../../../../Drivers/STM32L0xx_HAL_Driver/Src/stm32l0xx_hal_rtc.c ****   *             @arg RTC_ALARM_B: AlarmB  
1210:../../../../../../Drivers/STM32L0xx_HAL_Driver/Src/stm32l0xx_hal_rtc.c ****   * @param  Format Specifies the format of the entered parameters.
1211:../../../../../../Drivers/STM32L0xx_HAL_Driver/Src/stm32l0xx_hal_rtc.c ****   *          This parameter can be one of the following values:
1212:../../../../../../Drivers/STM32L0xx_HAL_Driver/Src/stm32l0xx_hal_rtc.c ****   *             @arg RTC_FORMAT_BIN: Binary data format 
1213:../../../../../../Drivers/STM32L0xx_HAL_Driver/Src/stm32l0xx_hal_rtc.c ****   *             @arg RTC_FORMAT_BCD: BCD data format
1214:../../../../../../Drivers/STM32L0xx_HAL_Driver/Src/stm32l0xx_hal_rtc.c ****   * @retval HAL status
1215:../../../../../../Drivers/STM32L0xx_HAL_Driver/Src/stm32l0xx_hal_rtc.c ****   */
1216:../../../../../../Drivers/STM32L0xx_HAL_Driver/Src/stm32l0xx_hal_rtc.c **** HAL_StatusTypeDef HAL_RTC_GetAlarm(RTC_HandleTypeDef *hrtc, RTC_AlarmTypeDef *sAlarm, uint32_t Alar
1217:../../../../../../Drivers/STM32L0xx_HAL_Driver/Src/stm32l0xx_hal_rtc.c **** {
ARM GAS  C:\Users\EBANO_~1\AppData\Local\Temp\cc8t01eQ.s 			page 24


1218:../../../../../../Drivers/STM32L0xx_HAL_Driver/Src/stm32l0xx_hal_rtc.c ****   uint32_t tmpreg = 0U, subsecondtmpreg = 0U;
1219:../../../../../../Drivers/STM32L0xx_HAL_Driver/Src/stm32l0xx_hal_rtc.c **** 
1220:../../../../../../Drivers/STM32L0xx_HAL_Driver/Src/stm32l0xx_hal_rtc.c ****   /* Check the parameters */
1221:../../../../../../Drivers/STM32L0xx_HAL_Driver/Src/stm32l0xx_hal_rtc.c ****   assert_param(IS_RTC_FORMAT(Format));
1222:../../../../../../Drivers/STM32L0xx_HAL_Driver/Src/stm32l0xx_hal_rtc.c ****   assert_param(IS_RTC_ALARM(Alarm));
1223:../../../../../../Drivers/STM32L0xx_HAL_Driver/Src/stm32l0xx_hal_rtc.c **** 
1224:../../../../../../Drivers/STM32L0xx_HAL_Driver/Src/stm32l0xx_hal_rtc.c ****   if(Alarm == RTC_ALARM_A)
1225:../../../../../../Drivers/STM32L0xx_HAL_Driver/Src/stm32l0xx_hal_rtc.c ****   {
1226:../../../../../../Drivers/STM32L0xx_HAL_Driver/Src/stm32l0xx_hal_rtc.c ****     /* AlarmA */
1227:../../../../../../Drivers/STM32L0xx_HAL_Driver/Src/stm32l0xx_hal_rtc.c ****     sAlarm->Alarm = RTC_ALARM_A;
1228:../../../../../../Drivers/STM32L0xx_HAL_Driver/Src/stm32l0xx_hal_rtc.c **** 
1229:../../../../../../Drivers/STM32L0xx_HAL_Driver/Src/stm32l0xx_hal_rtc.c ****     tmpreg = (uint32_t)(hrtc->Instance->ALRMAR);
1230:../../../../../../Drivers/STM32L0xx_HAL_Driver/Src/stm32l0xx_hal_rtc.c ****     subsecondtmpreg = (uint32_t)((hrtc->Instance->ALRMASSR ) & RTC_ALRMASSR_SS);
1231:../../../../../../Drivers/STM32L0xx_HAL_Driver/Src/stm32l0xx_hal_rtc.c **** 
1232:../../../../../../Drivers/STM32L0xx_HAL_Driver/Src/stm32l0xx_hal_rtc.c **** /* Fill the structure with the read parameters */
1233:../../../../../../Drivers/STM32L0xx_HAL_Driver/Src/stm32l0xx_hal_rtc.c ****   sAlarm->AlarmTime.Hours = (uint32_t)((tmpreg & (RTC_ALRMAR_HT | RTC_ALRMAR_HU)) >> 16U);
1234:../../../../../../Drivers/STM32L0xx_HAL_Driver/Src/stm32l0xx_hal_rtc.c ****   sAlarm->AlarmTime.Minutes = (uint32_t)((tmpreg & (RTC_ALRMAR_MNT | RTC_ALRMAR_MNU)) >> 8U);
1235:../../../../../../Drivers/STM32L0xx_HAL_Driver/Src/stm32l0xx_hal_rtc.c ****   sAlarm->AlarmTime.Seconds = (uint32_t)(tmpreg & (RTC_ALRMAR_ST | RTC_ALRMAR_SU));
1236:../../../../../../Drivers/STM32L0xx_HAL_Driver/Src/stm32l0xx_hal_rtc.c ****   sAlarm->AlarmTime.TimeFormat = (uint32_t)((tmpreg & RTC_ALRMAR_PM) >> 16U);
1237:../../../../../../Drivers/STM32L0xx_HAL_Driver/Src/stm32l0xx_hal_rtc.c ****   sAlarm->AlarmTime.SubSeconds = (uint32_t) subsecondtmpreg;
1238:../../../../../../Drivers/STM32L0xx_HAL_Driver/Src/stm32l0xx_hal_rtc.c ****   sAlarm->AlarmDateWeekDay = (uint32_t)((tmpreg & (RTC_ALRMAR_DT | RTC_ALRMAR_DU)) >> 24U);
1239:../../../../../../Drivers/STM32L0xx_HAL_Driver/Src/stm32l0xx_hal_rtc.c ****   sAlarm->AlarmDateWeekDaySel = (uint32_t)(tmpreg & RTC_ALRMAR_WDSEL);
1240:../../../../../../Drivers/STM32L0xx_HAL_Driver/Src/stm32l0xx_hal_rtc.c ****   sAlarm->AlarmMask = (uint32_t)(tmpreg & RTC_ALARMMASK_ALL);
1241:../../../../../../Drivers/STM32L0xx_HAL_Driver/Src/stm32l0xx_hal_rtc.c ****   }
1242:../../../../../../Drivers/STM32L0xx_HAL_Driver/Src/stm32l0xx_hal_rtc.c ****   else
1243:../../../../../../Drivers/STM32L0xx_HAL_Driver/Src/stm32l0xx_hal_rtc.c ****   {
1244:../../../../../../Drivers/STM32L0xx_HAL_Driver/Src/stm32l0xx_hal_rtc.c ****     sAlarm->Alarm = RTC_ALARM_B;
1245:../../../../../../Drivers/STM32L0xx_HAL_Driver/Src/stm32l0xx_hal_rtc.c **** 
1246:../../../../../../Drivers/STM32L0xx_HAL_Driver/Src/stm32l0xx_hal_rtc.c ****     tmpreg = (uint32_t)(hrtc->Instance->ALRMBR);
1247:../../../../../../Drivers/STM32L0xx_HAL_Driver/Src/stm32l0xx_hal_rtc.c ****     subsecondtmpreg = (uint32_t)((hrtc->Instance->ALRMBSSR) & RTC_ALRMBSSR_SS);
1248:../../../../../../Drivers/STM32L0xx_HAL_Driver/Src/stm32l0xx_hal_rtc.c ****  
1249:../../../../../../Drivers/STM32L0xx_HAL_Driver/Src/stm32l0xx_hal_rtc.c ****   /* Fill the structure with the read parameters */
1250:../../../../../../Drivers/STM32L0xx_HAL_Driver/Src/stm32l0xx_hal_rtc.c ****   sAlarm->AlarmTime.Hours = (uint32_t)((tmpreg & (RTC_ALRMBR_HT | RTC_ALRMBR_HU)) >> 16U);
1251:../../../../../../Drivers/STM32L0xx_HAL_Driver/Src/stm32l0xx_hal_rtc.c ****   sAlarm->AlarmTime.Minutes = (uint32_t)((tmpreg & (RTC_ALRMBR_MNT | RTC_ALRMBR_MNU)) >> 8U);
1252:../../../../../../Drivers/STM32L0xx_HAL_Driver/Src/stm32l0xx_hal_rtc.c ****   sAlarm->AlarmTime.Seconds = (uint32_t)(tmpreg & (RTC_ALRMBR_ST | RTC_ALRMBR_SU));
1253:../../../../../../Drivers/STM32L0xx_HAL_Driver/Src/stm32l0xx_hal_rtc.c ****   sAlarm->AlarmTime.TimeFormat = (uint32_t)((tmpreg & RTC_ALRMBR_PM) >> 16U);
1254:../../../../../../Drivers/STM32L0xx_HAL_Driver/Src/stm32l0xx_hal_rtc.c ****   sAlarm->AlarmTime.SubSeconds = (uint32_t) subsecondtmpreg;
1255:../../../../../../Drivers/STM32L0xx_HAL_Driver/Src/stm32l0xx_hal_rtc.c ****   sAlarm->AlarmDateWeekDay = (uint32_t)((tmpreg & (RTC_ALRMBR_DT | RTC_ALRMBR_DU)) >> 24U);
1256:../../../../../../Drivers/STM32L0xx_HAL_Driver/Src/stm32l0xx_hal_rtc.c ****   sAlarm->AlarmDateWeekDaySel = (uint32_t)(tmpreg & RTC_ALRMBR_WDSEL);
1257:../../../../../../Drivers/STM32L0xx_HAL_Driver/Src/stm32l0xx_hal_rtc.c ****   sAlarm->AlarmMask = (uint32_t)(tmpreg & RTC_ALARMMASK_ALL);
1258:../../../../../../Drivers/STM32L0xx_HAL_Driver/Src/stm32l0xx_hal_rtc.c ****  }
1259:../../../../../../Drivers/STM32L0xx_HAL_Driver/Src/stm32l0xx_hal_rtc.c ****  
1260:../../../../../../Drivers/STM32L0xx_HAL_Driver/Src/stm32l0xx_hal_rtc.c ****   if(Format == RTC_FORMAT_BIN)
1261:../../../../../../Drivers/STM32L0xx_HAL_Driver/Src/stm32l0xx_hal_rtc.c ****   {
1262:../../../../../../Drivers/STM32L0xx_HAL_Driver/Src/stm32l0xx_hal_rtc.c ****     sAlarm->AlarmTime.Hours = RTC_Bcd2ToByte(sAlarm->AlarmTime.Hours);
1263:../../../../../../Drivers/STM32L0xx_HAL_Driver/Src/stm32l0xx_hal_rtc.c ****     sAlarm->AlarmTime.Minutes = RTC_Bcd2ToByte(sAlarm->AlarmTime.Minutes);
1264:../../../../../../Drivers/STM32L0xx_HAL_Driver/Src/stm32l0xx_hal_rtc.c ****     sAlarm->AlarmTime.Seconds = RTC_Bcd2ToByte(sAlarm->AlarmTime.Seconds);
1265:../../../../../../Drivers/STM32L0xx_HAL_Driver/Src/stm32l0xx_hal_rtc.c ****     sAlarm->AlarmDateWeekDay = RTC_Bcd2ToByte(sAlarm->AlarmDateWeekDay);
1266:../../../../../../Drivers/STM32L0xx_HAL_Driver/Src/stm32l0xx_hal_rtc.c ****   }
1267:../../../../../../Drivers/STM32L0xx_HAL_Driver/Src/stm32l0xx_hal_rtc.c **** 
1268:../../../../../../Drivers/STM32L0xx_HAL_Driver/Src/stm32l0xx_hal_rtc.c ****   return HAL_OK;
1269:../../../../../../Drivers/STM32L0xx_HAL_Driver/Src/stm32l0xx_hal_rtc.c **** }
1270:../../../../../../Drivers/STM32L0xx_HAL_Driver/Src/stm32l0xx_hal_rtc.c **** 
1271:../../../../../../Drivers/STM32L0xx_HAL_Driver/Src/stm32l0xx_hal_rtc.c **** /**
1272:../../../../../../Drivers/STM32L0xx_HAL_Driver/Src/stm32l0xx_hal_rtc.c ****   * @brief  Handle Alarm interrupt request.
1273:../../../../../../Drivers/STM32L0xx_HAL_Driver/Src/stm32l0xx_hal_rtc.c ****   * @param  hrtc RTC handle
1274:../../../../../../Drivers/STM32L0xx_HAL_Driver/Src/stm32l0xx_hal_rtc.c ****   * @retval None
ARM GAS  C:\Users\EBANO_~1\AppData\Local\Temp\cc8t01eQ.s 			page 25


1275:../../../../../../Drivers/STM32L0xx_HAL_Driver/Src/stm32l0xx_hal_rtc.c ****   */
1276:../../../../../../Drivers/STM32L0xx_HAL_Driver/Src/stm32l0xx_hal_rtc.c **** void HAL_RTC_AlarmIRQHandler(RTC_HandleTypeDef* hrtc)
1277:../../../../../../Drivers/STM32L0xx_HAL_Driver/Src/stm32l0xx_hal_rtc.c **** {
1278:../../../../../../Drivers/STM32L0xx_HAL_Driver/Src/stm32l0xx_hal_rtc.c ****   /* Get the AlarmA interrupt source enable status */
1279:../../../../../../Drivers/STM32L0xx_HAL_Driver/Src/stm32l0xx_hal_rtc.c ****   if(__HAL_RTC_ALARM_GET_IT_SOURCE(hrtc, RTC_IT_ALRA) != RESET)
1280:../../../../../../Drivers/STM32L0xx_HAL_Driver/Src/stm32l0xx_hal_rtc.c ****   {
1281:../../../../../../Drivers/STM32L0xx_HAL_Driver/Src/stm32l0xx_hal_rtc.c ****     /* Get the pending status of the AlarmA Interrupt */
1282:../../../../../../Drivers/STM32L0xx_HAL_Driver/Src/stm32l0xx_hal_rtc.c ****     if(__HAL_RTC_ALARM_GET_FLAG(hrtc, RTC_FLAG_ALRAF) != RESET)
1283:../../../../../../Drivers/STM32L0xx_HAL_Driver/Src/stm32l0xx_hal_rtc.c ****     {
1284:../../../../../../Drivers/STM32L0xx_HAL_Driver/Src/stm32l0xx_hal_rtc.c ****       /* AlarmA callback */
1285:../../../../../../Drivers/STM32L0xx_HAL_Driver/Src/stm32l0xx_hal_rtc.c ****       HAL_RTC_AlarmAEventCallback(hrtc);
1286:../../../../../../Drivers/STM32L0xx_HAL_Driver/Src/stm32l0xx_hal_rtc.c **** 
1287:../../../../../../Drivers/STM32L0xx_HAL_Driver/Src/stm32l0xx_hal_rtc.c ****       /* Clear the AlarmA interrupt pending bit */
1288:../../../../../../Drivers/STM32L0xx_HAL_Driver/Src/stm32l0xx_hal_rtc.c ****       __HAL_RTC_ALARM_CLEAR_FLAG(hrtc, RTC_FLAG_ALRAF);
1289:../../../../../../Drivers/STM32L0xx_HAL_Driver/Src/stm32l0xx_hal_rtc.c ****     }
1290:../../../../../../Drivers/STM32L0xx_HAL_Driver/Src/stm32l0xx_hal_rtc.c ****   }
1291:../../../../../../Drivers/STM32L0xx_HAL_Driver/Src/stm32l0xx_hal_rtc.c **** 
1292:../../../../../../Drivers/STM32L0xx_HAL_Driver/Src/stm32l0xx_hal_rtc.c ****   /* Get the AlarmB interrupt source enable status */
1293:../../../../../../Drivers/STM32L0xx_HAL_Driver/Src/stm32l0xx_hal_rtc.c ****   if(__HAL_RTC_ALARM_GET_IT_SOURCE(hrtc, RTC_IT_ALRB) != RESET)
1294:../../../../../../Drivers/STM32L0xx_HAL_Driver/Src/stm32l0xx_hal_rtc.c ****   {
1295:../../../../../../Drivers/STM32L0xx_HAL_Driver/Src/stm32l0xx_hal_rtc.c ****     /* Get the pending status of the AlarmB Interrupt */
1296:../../../../../../Drivers/STM32L0xx_HAL_Driver/Src/stm32l0xx_hal_rtc.c ****     if(__HAL_RTC_ALARM_GET_FLAG(hrtc, RTC_FLAG_ALRBF) != RESET)
1297:../../../../../../Drivers/STM32L0xx_HAL_Driver/Src/stm32l0xx_hal_rtc.c ****     {
1298:../../../../../../Drivers/STM32L0xx_HAL_Driver/Src/stm32l0xx_hal_rtc.c ****       /* AlarmB callback */
1299:../../../../../../Drivers/STM32L0xx_HAL_Driver/Src/stm32l0xx_hal_rtc.c ****       HAL_RTCEx_AlarmBEventCallback(hrtc);
1300:../../../../../../Drivers/STM32L0xx_HAL_Driver/Src/stm32l0xx_hal_rtc.c **** 
1301:../../../../../../Drivers/STM32L0xx_HAL_Driver/Src/stm32l0xx_hal_rtc.c ****       /* Clear the AlarmB interrupt pending bit */
1302:../../../../../../Drivers/STM32L0xx_HAL_Driver/Src/stm32l0xx_hal_rtc.c ****       __HAL_RTC_ALARM_CLEAR_FLAG(hrtc, RTC_FLAG_ALRBF);
1303:../../../../../../Drivers/STM32L0xx_HAL_Driver/Src/stm32l0xx_hal_rtc.c ****     }
1304:../../../../../../Drivers/STM32L0xx_HAL_Driver/Src/stm32l0xx_hal_rtc.c ****   }
1305:../../../../../../Drivers/STM32L0xx_HAL_Driver/Src/stm32l0xx_hal_rtc.c **** 
1306:../../../../../../Drivers/STM32L0xx_HAL_Driver/Src/stm32l0xx_hal_rtc.c ****   /* Clear the EXTI's line Flag for RTC Alarm */
1307:../../../../../../Drivers/STM32L0xx_HAL_Driver/Src/stm32l0xx_hal_rtc.c ****   __HAL_RTC_ALARM_EXTI_CLEAR_FLAG();
1308:../../../../../../Drivers/STM32L0xx_HAL_Driver/Src/stm32l0xx_hal_rtc.c **** 
1309:../../../../../../Drivers/STM32L0xx_HAL_Driver/Src/stm32l0xx_hal_rtc.c ****   /* Change RTC state */
1310:../../../../../../Drivers/STM32L0xx_HAL_Driver/Src/stm32l0xx_hal_rtc.c ****   hrtc->State = HAL_RTC_STATE_READY;
1311:../../../../../../Drivers/STM32L0xx_HAL_Driver/Src/stm32l0xx_hal_rtc.c **** }
1312:../../../../../../Drivers/STM32L0xx_HAL_Driver/Src/stm32l0xx_hal_rtc.c **** 
1313:../../../../../../Drivers/STM32L0xx_HAL_Driver/Src/stm32l0xx_hal_rtc.c **** /**
1314:../../../../../../Drivers/STM32L0xx_HAL_Driver/Src/stm32l0xx_hal_rtc.c ****   * @brief  Alarm A callback.
1315:../../../../../../Drivers/STM32L0xx_HAL_Driver/Src/stm32l0xx_hal_rtc.c ****   * @param  hrtc RTC handle
1316:../../../../../../Drivers/STM32L0xx_HAL_Driver/Src/stm32l0xx_hal_rtc.c ****   * @retval None
1317:../../../../../../Drivers/STM32L0xx_HAL_Driver/Src/stm32l0xx_hal_rtc.c ****   */
1318:../../../../../../Drivers/STM32L0xx_HAL_Driver/Src/stm32l0xx_hal_rtc.c **** __weak void HAL_RTC_AlarmAEventCallback(RTC_HandleTypeDef *hrtc)
1319:../../../../../../Drivers/STM32L0xx_HAL_Driver/Src/stm32l0xx_hal_rtc.c **** {
1320:../../../../../../Drivers/STM32L0xx_HAL_Driver/Src/stm32l0xx_hal_rtc.c ****   /* Prevent unused argument(s) compilation warning */
1321:../../../../../../Drivers/STM32L0xx_HAL_Driver/Src/stm32l0xx_hal_rtc.c ****   UNUSED(hrtc);
1322:../../../../../../Drivers/STM32L0xx_HAL_Driver/Src/stm32l0xx_hal_rtc.c **** 
1323:../../../../../../Drivers/STM32L0xx_HAL_Driver/Src/stm32l0xx_hal_rtc.c ****   /* NOTE : This function should not be modified, when the callback is needed,
1324:../../../../../../Drivers/STM32L0xx_HAL_Driver/Src/stm32l0xx_hal_rtc.c ****             the HAL_RTC_AlarmAEventCallback could be implemented in the user file
1325:../../../../../../Drivers/STM32L0xx_HAL_Driver/Src/stm32l0xx_hal_rtc.c ****    */
1326:../../../../../../Drivers/STM32L0xx_HAL_Driver/Src/stm32l0xx_hal_rtc.c **** }
1327:../../../../../../Drivers/STM32L0xx_HAL_Driver/Src/stm32l0xx_hal_rtc.c **** 
1328:../../../../../../Drivers/STM32L0xx_HAL_Driver/Src/stm32l0xx_hal_rtc.c **** /**
1329:../../../../../../Drivers/STM32L0xx_HAL_Driver/Src/stm32l0xx_hal_rtc.c ****   * @brief  Handle AlarmA Polling request.
1330:../../../../../../Drivers/STM32L0xx_HAL_Driver/Src/stm32l0xx_hal_rtc.c ****   * @param  hrtc RTC handle
1331:../../../../../../Drivers/STM32L0xx_HAL_Driver/Src/stm32l0xx_hal_rtc.c ****   * @param  Timeout Timeout duration
ARM GAS  C:\Users\EBANO_~1\AppData\Local\Temp\cc8t01eQ.s 			page 26


1332:../../../../../../Drivers/STM32L0xx_HAL_Driver/Src/stm32l0xx_hal_rtc.c ****   * @retval HAL status
1333:../../../../../../Drivers/STM32L0xx_HAL_Driver/Src/stm32l0xx_hal_rtc.c ****   */
1334:../../../../../../Drivers/STM32L0xx_HAL_Driver/Src/stm32l0xx_hal_rtc.c **** HAL_StatusTypeDef HAL_RTC_PollForAlarmAEvent(RTC_HandleTypeDef *hrtc, uint32_t Timeout)
1335:../../../../../../Drivers/STM32L0xx_HAL_Driver/Src/stm32l0xx_hal_rtc.c **** {
1336:../../../../../../Drivers/STM32L0xx_HAL_Driver/Src/stm32l0xx_hal_rtc.c **** 
1337:../../../../../../Drivers/STM32L0xx_HAL_Driver/Src/stm32l0xx_hal_rtc.c ****   uint32_t tickstart = HAL_GetTick();   
1338:../../../../../../Drivers/STM32L0xx_HAL_Driver/Src/stm32l0xx_hal_rtc.c ****   
1339:../../../../../../Drivers/STM32L0xx_HAL_Driver/Src/stm32l0xx_hal_rtc.c ****   while(__HAL_RTC_ALARM_GET_FLAG(hrtc, RTC_FLAG_ALRAF) == RESET)
1340:../../../../../../Drivers/STM32L0xx_HAL_Driver/Src/stm32l0xx_hal_rtc.c ****   {
1341:../../../../../../Drivers/STM32L0xx_HAL_Driver/Src/stm32l0xx_hal_rtc.c ****     if(Timeout != HAL_MAX_DELAY)
1342:../../../../../../Drivers/STM32L0xx_HAL_Driver/Src/stm32l0xx_hal_rtc.c ****     {
1343:../../../../../../Drivers/STM32L0xx_HAL_Driver/Src/stm32l0xx_hal_rtc.c ****       if((Timeout == 0U)||((HAL_GetTick() - tickstart ) > Timeout))
1344:../../../../../../Drivers/STM32L0xx_HAL_Driver/Src/stm32l0xx_hal_rtc.c ****       {
1345:../../../../../../Drivers/STM32L0xx_HAL_Driver/Src/stm32l0xx_hal_rtc.c ****         hrtc->State = HAL_RTC_STATE_TIMEOUT;
1346:../../../../../../Drivers/STM32L0xx_HAL_Driver/Src/stm32l0xx_hal_rtc.c ****         return HAL_TIMEOUT;
1347:../../../../../../Drivers/STM32L0xx_HAL_Driver/Src/stm32l0xx_hal_rtc.c ****       }
1348:../../../../../../Drivers/STM32L0xx_HAL_Driver/Src/stm32l0xx_hal_rtc.c ****     }
1349:../../../../../../Drivers/STM32L0xx_HAL_Driver/Src/stm32l0xx_hal_rtc.c ****   }
1350:../../../../../../Drivers/STM32L0xx_HAL_Driver/Src/stm32l0xx_hal_rtc.c **** 
1351:../../../../../../Drivers/STM32L0xx_HAL_Driver/Src/stm32l0xx_hal_rtc.c ****   /* Clear the Alarm interrupt pending bit */
1352:../../../../../../Drivers/STM32L0xx_HAL_Driver/Src/stm32l0xx_hal_rtc.c ****   __HAL_RTC_ALARM_CLEAR_FLAG(hrtc, RTC_FLAG_ALRAF);
1353:../../../../../../Drivers/STM32L0xx_HAL_Driver/Src/stm32l0xx_hal_rtc.c **** 
1354:../../../../../../Drivers/STM32L0xx_HAL_Driver/Src/stm32l0xx_hal_rtc.c ****   /* Change RTC state */
1355:../../../../../../Drivers/STM32L0xx_HAL_Driver/Src/stm32l0xx_hal_rtc.c ****   hrtc->State = HAL_RTC_STATE_READY;
1356:../../../../../../Drivers/STM32L0xx_HAL_Driver/Src/stm32l0xx_hal_rtc.c **** 
1357:../../../../../../Drivers/STM32L0xx_HAL_Driver/Src/stm32l0xx_hal_rtc.c ****   return HAL_OK;
1358:../../../../../../Drivers/STM32L0xx_HAL_Driver/Src/stm32l0xx_hal_rtc.c **** }
1359:../../../../../../Drivers/STM32L0xx_HAL_Driver/Src/stm32l0xx_hal_rtc.c **** 
1360:../../../../../../Drivers/STM32L0xx_HAL_Driver/Src/stm32l0xx_hal_rtc.c **** /**
1361:../../../../../../Drivers/STM32L0xx_HAL_Driver/Src/stm32l0xx_hal_rtc.c ****   * @}
1362:../../../../../../Drivers/STM32L0xx_HAL_Driver/Src/stm32l0xx_hal_rtc.c ****   */
1363:../../../../../../Drivers/STM32L0xx_HAL_Driver/Src/stm32l0xx_hal_rtc.c **** 
1364:../../../../../../Drivers/STM32L0xx_HAL_Driver/Src/stm32l0xx_hal_rtc.c **** /** @addtogroup RTC_Exported_Functions_Group4
1365:../../../../../../Drivers/STM32L0xx_HAL_Driver/Src/stm32l0xx_hal_rtc.c ****  *  @brief   Peripheral Control functions 
1366:../../../../../../Drivers/STM32L0xx_HAL_Driver/Src/stm32l0xx_hal_rtc.c ****  *
1367:../../../../../../Drivers/STM32L0xx_HAL_Driver/Src/stm32l0xx_hal_rtc.c **** @verbatim
1368:../../../../../../Drivers/STM32L0xx_HAL_Driver/Src/stm32l0xx_hal_rtc.c ****  ===============================================================================
1369:../../../../../../Drivers/STM32L0xx_HAL_Driver/Src/stm32l0xx_hal_rtc.c ****                      ##### Peripheral Control functions #####
1370:../../../../../../Drivers/STM32L0xx_HAL_Driver/Src/stm32l0xx_hal_rtc.c ****  ===============================================================================
1371:../../../../../../Drivers/STM32L0xx_HAL_Driver/Src/stm32l0xx_hal_rtc.c ****     [..]
1372:../../../../../../Drivers/STM32L0xx_HAL_Driver/Src/stm32l0xx_hal_rtc.c ****     This subsection provides functions allowing to
1373:../../../../../../Drivers/STM32L0xx_HAL_Driver/Src/stm32l0xx_hal_rtc.c ****       (+) Wait for RTC Time and Date Synchronization
1374:../../../../../../Drivers/STM32L0xx_HAL_Driver/Src/stm32l0xx_hal_rtc.c **** 
1375:../../../../../../Drivers/STM32L0xx_HAL_Driver/Src/stm32l0xx_hal_rtc.c **** @endverbatim
1376:../../../../../../Drivers/STM32L0xx_HAL_Driver/Src/stm32l0xx_hal_rtc.c ****   * @{
1377:../../../../../../Drivers/STM32L0xx_HAL_Driver/Src/stm32l0xx_hal_rtc.c ****   */
1378:../../../../../../Drivers/STM32L0xx_HAL_Driver/Src/stm32l0xx_hal_rtc.c **** 
1379:../../../../../../Drivers/STM32L0xx_HAL_Driver/Src/stm32l0xx_hal_rtc.c **** /**
1380:../../../../../../Drivers/STM32L0xx_HAL_Driver/Src/stm32l0xx_hal_rtc.c ****   * @brief  Wait until the RTC Time and Date registers (RTC_TR and RTC_DR) are
1381:../../../../../../Drivers/STM32L0xx_HAL_Driver/Src/stm32l0xx_hal_rtc.c ****   *         synchronized with RTC APB clock.
1382:../../../../../../Drivers/STM32L0xx_HAL_Driver/Src/stm32l0xx_hal_rtc.c ****   * @note   The RTC Resynchronization mode is write protected, use the 
1383:../../../../../../Drivers/STM32L0xx_HAL_Driver/Src/stm32l0xx_hal_rtc.c ****   *         __HAL_RTC_WRITEPROTECTION_DISABLE() before calling this function.
1384:../../../../../../Drivers/STM32L0xx_HAL_Driver/Src/stm32l0xx_hal_rtc.c ****   * @note   To read the calendar through the shadow registers after Calendar 
1385:../../../../../../Drivers/STM32L0xx_HAL_Driver/Src/stm32l0xx_hal_rtc.c ****   *         initialization, calendar update or after wakeup from low power modes
1386:../../../../../../Drivers/STM32L0xx_HAL_Driver/Src/stm32l0xx_hal_rtc.c ****   *         the software must first clear the RSF flag.
1387:../../../../../../Drivers/STM32L0xx_HAL_Driver/Src/stm32l0xx_hal_rtc.c ****   *         The software must then wait until it is set again before reading
1388:../../../../../../Drivers/STM32L0xx_HAL_Driver/Src/stm32l0xx_hal_rtc.c ****   *         the calendar, which means that the calendar registers have been
ARM GAS  C:\Users\EBANO_~1\AppData\Local\Temp\cc8t01eQ.s 			page 27


1389:../../../../../../Drivers/STM32L0xx_HAL_Driver/Src/stm32l0xx_hal_rtc.c ****   *         correctly copied into the RTC_TR and RTC_DR shadow registers.
1390:../../../../../../Drivers/STM32L0xx_HAL_Driver/Src/stm32l0xx_hal_rtc.c ****   * @param  hrtc RTC handle
1391:../../../../../../Drivers/STM32L0xx_HAL_Driver/Src/stm32l0xx_hal_rtc.c ****   * @retval HAL status
1392:../../../../../../Drivers/STM32L0xx_HAL_Driver/Src/stm32l0xx_hal_rtc.c ****   */
1393:../../../../../../Drivers/STM32L0xx_HAL_Driver/Src/stm32l0xx_hal_rtc.c **** HAL_StatusTypeDef HAL_RTC_WaitForSynchro(RTC_HandleTypeDef* hrtc)
1394:../../../../../../Drivers/STM32L0xx_HAL_Driver/Src/stm32l0xx_hal_rtc.c **** {
1395:../../../../../../Drivers/STM32L0xx_HAL_Driver/Src/stm32l0xx_hal_rtc.c ****   uint32_t tickstart = 0U;
1396:../../../../../../Drivers/STM32L0xx_HAL_Driver/Src/stm32l0xx_hal_rtc.c **** 
1397:../../../../../../Drivers/STM32L0xx_HAL_Driver/Src/stm32l0xx_hal_rtc.c ****   /* Clear RSF flag */
1398:../../../../../../Drivers/STM32L0xx_HAL_Driver/Src/stm32l0xx_hal_rtc.c ****   hrtc->Instance->ISR &= (uint32_t)RTC_RSF_MASK;
1399:../../../../../../Drivers/STM32L0xx_HAL_Driver/Src/stm32l0xx_hal_rtc.c **** 
1400:../../../../../../Drivers/STM32L0xx_HAL_Driver/Src/stm32l0xx_hal_rtc.c ****   tickstart = HAL_GetTick();
1401:../../../../../../Drivers/STM32L0xx_HAL_Driver/Src/stm32l0xx_hal_rtc.c **** 
1402:../../../../../../Drivers/STM32L0xx_HAL_Driver/Src/stm32l0xx_hal_rtc.c ****   /* Wait the registers to be synchronised */
1403:../../../../../../Drivers/STM32L0xx_HAL_Driver/Src/stm32l0xx_hal_rtc.c ****   while((hrtc->Instance->ISR & RTC_ISR_RSF) == (uint32_t)RESET)
1404:../../../../../../Drivers/STM32L0xx_HAL_Driver/Src/stm32l0xx_hal_rtc.c ****   {
1405:../../../../../../Drivers/STM32L0xx_HAL_Driver/Src/stm32l0xx_hal_rtc.c ****     if((HAL_GetTick() - tickstart ) > RTC_TIMEOUT_VALUE)
1406:../../../../../../Drivers/STM32L0xx_HAL_Driver/Src/stm32l0xx_hal_rtc.c ****     {
1407:../../../../../../Drivers/STM32L0xx_HAL_Driver/Src/stm32l0xx_hal_rtc.c ****       return HAL_TIMEOUT;
1408:../../../../../../Drivers/STM32L0xx_HAL_Driver/Src/stm32l0xx_hal_rtc.c ****     }
1409:../../../../../../Drivers/STM32L0xx_HAL_Driver/Src/stm32l0xx_hal_rtc.c ****   }
1410:../../../../../../Drivers/STM32L0xx_HAL_Driver/Src/stm32l0xx_hal_rtc.c **** 
1411:../../../../../../Drivers/STM32L0xx_HAL_Driver/Src/stm32l0xx_hal_rtc.c ****   return HAL_OK;
1412:../../../../../../Drivers/STM32L0xx_HAL_Driver/Src/stm32l0xx_hal_rtc.c **** }
1413:../../../../../../Drivers/STM32L0xx_HAL_Driver/Src/stm32l0xx_hal_rtc.c **** 
1414:../../../../../../Drivers/STM32L0xx_HAL_Driver/Src/stm32l0xx_hal_rtc.c **** /**
1415:../../../../../../Drivers/STM32L0xx_HAL_Driver/Src/stm32l0xx_hal_rtc.c ****   * @}
1416:../../../../../../Drivers/STM32L0xx_HAL_Driver/Src/stm32l0xx_hal_rtc.c ****   */
1417:../../../../../../Drivers/STM32L0xx_HAL_Driver/Src/stm32l0xx_hal_rtc.c **** 
1418:../../../../../../Drivers/STM32L0xx_HAL_Driver/Src/stm32l0xx_hal_rtc.c **** /** @addtogroup RTC_Exported_Functions_Group5
1419:../../../../../../Drivers/STM32L0xx_HAL_Driver/Src/stm32l0xx_hal_rtc.c ****  *  @brief   Peripheral State functions 
1420:../../../../../../Drivers/STM32L0xx_HAL_Driver/Src/stm32l0xx_hal_rtc.c ****  *
1421:../../../../../../Drivers/STM32L0xx_HAL_Driver/Src/stm32l0xx_hal_rtc.c **** @verbatim   
1422:../../../../../../Drivers/STM32L0xx_HAL_Driver/Src/stm32l0xx_hal_rtc.c ****  ===============================================================================
1423:../../../../../../Drivers/STM32L0xx_HAL_Driver/Src/stm32l0xx_hal_rtc.c ****                      ##### Peripheral State functions #####
1424:../../../../../../Drivers/STM32L0xx_HAL_Driver/Src/stm32l0xx_hal_rtc.c ****  ===============================================================================  
1425:../../../../../../Drivers/STM32L0xx_HAL_Driver/Src/stm32l0xx_hal_rtc.c ****     [..]
1426:../../../../../../Drivers/STM32L0xx_HAL_Driver/Src/stm32l0xx_hal_rtc.c ****     This subsection provides functions allowing to
1427:../../../../../../Drivers/STM32L0xx_HAL_Driver/Src/stm32l0xx_hal_rtc.c ****       (+) Get RTC state
1428:../../../../../../Drivers/STM32L0xx_HAL_Driver/Src/stm32l0xx_hal_rtc.c **** 
1429:../../../../../../Drivers/STM32L0xx_HAL_Driver/Src/stm32l0xx_hal_rtc.c **** @endverbatim
1430:../../../../../../Drivers/STM32L0xx_HAL_Driver/Src/stm32l0xx_hal_rtc.c ****   * @{
1431:../../../../../../Drivers/STM32L0xx_HAL_Driver/Src/stm32l0xx_hal_rtc.c ****   */
1432:../../../../../../Drivers/STM32L0xx_HAL_Driver/Src/stm32l0xx_hal_rtc.c **** /**
1433:../../../../../../Drivers/STM32L0xx_HAL_Driver/Src/stm32l0xx_hal_rtc.c ****   * @brief  Return the RTC handle state.
1434:../../../../../../Drivers/STM32L0xx_HAL_Driver/Src/stm32l0xx_hal_rtc.c ****   * @param  hrtc RTC handle
1435:../../../../../../Drivers/STM32L0xx_HAL_Driver/Src/stm32l0xx_hal_rtc.c ****   * @retval HAL state
1436:../../../../../../Drivers/STM32L0xx_HAL_Driver/Src/stm32l0xx_hal_rtc.c ****   */
1437:../../../../../../Drivers/STM32L0xx_HAL_Driver/Src/stm32l0xx_hal_rtc.c **** HAL_RTCStateTypeDef HAL_RTC_GetState(RTC_HandleTypeDef* hrtc)
1438:../../../../../../Drivers/STM32L0xx_HAL_Driver/Src/stm32l0xx_hal_rtc.c **** {
1439:../../../../../../Drivers/STM32L0xx_HAL_Driver/Src/stm32l0xx_hal_rtc.c ****   /* Return RTC handle state */
1440:../../../../../../Drivers/STM32L0xx_HAL_Driver/Src/stm32l0xx_hal_rtc.c ****   return hrtc->State;
1441:../../../../../../Drivers/STM32L0xx_HAL_Driver/Src/stm32l0xx_hal_rtc.c **** }
1442:../../../../../../Drivers/STM32L0xx_HAL_Driver/Src/stm32l0xx_hal_rtc.c **** 
1443:../../../../../../Drivers/STM32L0xx_HAL_Driver/Src/stm32l0xx_hal_rtc.c **** /**
1444:../../../../../../Drivers/STM32L0xx_HAL_Driver/Src/stm32l0xx_hal_rtc.c ****   * @}
1445:../../../../../../Drivers/STM32L0xx_HAL_Driver/Src/stm32l0xx_hal_rtc.c ****   */
ARM GAS  C:\Users\EBANO_~1\AppData\Local\Temp\cc8t01eQ.s 			page 28


1446:../../../../../../Drivers/STM32L0xx_HAL_Driver/Src/stm32l0xx_hal_rtc.c **** /**
1447:../../../../../../Drivers/STM32L0xx_HAL_Driver/Src/stm32l0xx_hal_rtc.c ****   * @}
1448:../../../../../../Drivers/STM32L0xx_HAL_Driver/Src/stm32l0xx_hal_rtc.c ****   */
1449:../../../../../../Drivers/STM32L0xx_HAL_Driver/Src/stm32l0xx_hal_rtc.c **** 
1450:../../../../../../Drivers/STM32L0xx_HAL_Driver/Src/stm32l0xx_hal_rtc.c **** /** @addtogroup RTC_Private_Functions
1451:../../../../../../Drivers/STM32L0xx_HAL_Driver/Src/stm32l0xx_hal_rtc.c ****   * @{
1452:../../../../../../Drivers/STM32L0xx_HAL_Driver/Src/stm32l0xx_hal_rtc.c ****   */
1453:../../../../../../Drivers/STM32L0xx_HAL_Driver/Src/stm32l0xx_hal_rtc.c **** /**
1454:../../../../../../Drivers/STM32L0xx_HAL_Driver/Src/stm32l0xx_hal_rtc.c ****   * @brief  Enter the RTC Initialization mode.
1455:../../../../../../Drivers/STM32L0xx_HAL_Driver/Src/stm32l0xx_hal_rtc.c ****   * @note   The RTC Initialization mode is write protected, use the
1456:../../../../../../Drivers/STM32L0xx_HAL_Driver/Src/stm32l0xx_hal_rtc.c ****   *         __HAL_RTC_WRITEPROTECTION_DISABLE() before calling this function.
1457:../../../../../../Drivers/STM32L0xx_HAL_Driver/Src/stm32l0xx_hal_rtc.c ****   * @param  hrtc RTC handle
1458:../../../../../../Drivers/STM32L0xx_HAL_Driver/Src/stm32l0xx_hal_rtc.c ****   * @retval HAL status
1459:../../../../../../Drivers/STM32L0xx_HAL_Driver/Src/stm32l0xx_hal_rtc.c ****   */
1460:../../../../../../Drivers/STM32L0xx_HAL_Driver/Src/stm32l0xx_hal_rtc.c **** HAL_StatusTypeDef RTC_EnterInitMode(RTC_HandleTypeDef* hrtc)
1461:../../../../../../Drivers/STM32L0xx_HAL_Driver/Src/stm32l0xx_hal_rtc.c **** {
1462:../../../../../../Drivers/STM32L0xx_HAL_Driver/Src/stm32l0xx_hal_rtc.c ****   uint32_t tickstart = 0U;
1463:../../../../../../Drivers/STM32L0xx_HAL_Driver/Src/stm32l0xx_hal_rtc.c **** 
1464:../../../../../../Drivers/STM32L0xx_HAL_Driver/Src/stm32l0xx_hal_rtc.c ****   /* Check if the Initialization mode is set */
1465:../../../../../../Drivers/STM32L0xx_HAL_Driver/Src/stm32l0xx_hal_rtc.c ****   if((hrtc->Instance->ISR & RTC_ISR_INITF) == (uint32_t)RESET)
  89              		.loc 1 1465 0
  90 0020 DA68     		ldr	r2, [r3, #12]
  91 0022 5206     		lsls	r2, r2, #25
  92 0024 2FD5     		bpl	.L14
  93              	.LVL4:
  94              	.L6:
  95              	.LBE71:
  96              	.LBE70:
 223:../../../../../../Drivers/STM32L0xx_HAL_Driver/Src/stm32l0xx_hal_rtc.c ****     /* Set RTC_CR register */
  97              		.loc 1 223 0
  98 0026 9A68     		ldr	r2, [r3, #8]
  99 0028 2349     		ldr	r1, .L15
 225:../../../../../../Drivers/STM32L0xx_HAL_Driver/Src/stm32l0xx_hal_rtc.c **** 
 100              		.loc 1 225 0
 101 002a 2069     		ldr	r0, [r4, #16]
 223:../../../../../../Drivers/STM32L0xx_HAL_Driver/Src/stm32l0xx_hal_rtc.c ****     /* Set RTC_CR register */
 102              		.loc 1 223 0
 103 002c 0A40     		ands	r2, r1
 104 002e 9A60     		str	r2, [r3, #8]
 225:../../../../../../Drivers/STM32L0xx_HAL_Driver/Src/stm32l0xx_hal_rtc.c **** 
 105              		.loc 1 225 0
 106 0030 6268     		ldr	r2, [r4, #4]
 107 0032 9968     		ldr	r1, [r3, #8]
 108 0034 0243     		orrs	r2, r0
 109 0036 A069     		ldr	r0, [r4, #24]
 110 0038 0243     		orrs	r2, r0
 111 003a 0A43     		orrs	r2, r1
 112 003c 9A60     		str	r2, [r3, #8]
 228:../../../../../../Drivers/STM32L0xx_HAL_Driver/Src/stm32l0xx_hal_rtc.c ****     hrtc->Instance->PRER |= (uint32_t)(hrtc->Init.AsynchPrediv << 16U);
 113              		.loc 1 228 0
 114 003e E268     		ldr	r2, [r4, #12]
 235:../../../../../../Drivers/STM32L0xx_HAL_Driver/Src/stm32l0xx_hal_rtc.c **** 
 115              		.loc 1 235 0
 116 0040 6069     		ldr	r0, [r4, #20]
 228:../../../../../../Drivers/STM32L0xx_HAL_Driver/Src/stm32l0xx_hal_rtc.c ****     hrtc->Instance->PRER |= (uint32_t)(hrtc->Init.AsynchPrediv << 16U);
 117              		.loc 1 228 0
 118 0042 1A61     		str	r2, [r3, #16]
ARM GAS  C:\Users\EBANO_~1\AppData\Local\Temp\cc8t01eQ.s 			page 29


 229:../../../../../../Drivers/STM32L0xx_HAL_Driver/Src/stm32l0xx_hal_rtc.c **** 
 119              		.loc 1 229 0
 120 0044 A268     		ldr	r2, [r4, #8]
 121 0046 1969     		ldr	r1, [r3, #16]
 122 0048 1204     		lsls	r2, r2, #16
 123 004a 0A43     		orrs	r2, r1
 232:../../../../../../Drivers/STM32L0xx_HAL_Driver/Src/stm32l0xx_hal_rtc.c **** 
 124              		.loc 1 232 0
 125 004c 8021     		movs	r1, #128
 229:../../../../../../Drivers/STM32L0xx_HAL_Driver/Src/stm32l0xx_hal_rtc.c **** 
 126              		.loc 1 229 0
 127 004e 1A61     		str	r2, [r3, #16]
 232:../../../../../../Drivers/STM32L0xx_HAL_Driver/Src/stm32l0xx_hal_rtc.c **** 
 128              		.loc 1 232 0
 129 0050 DA68     		ldr	r2, [r3, #12]
 130 0052 8A43     		bics	r2, r1
 131 0054 DA60     		str	r2, [r3, #12]
 234:../../../../../../Drivers/STM32L0xx_HAL_Driver/Src/stm32l0xx_hal_rtc.c ****     hrtc->Instance->OR |= (uint32_t)(hrtc->Init.OutPutType | hrtc->Init.OutPutRemap);
 132              		.loc 1 234 0
 133 0056 DA6C     		ldr	r2, [r3, #76]
 134 0058 7D39     		subs	r1, r1, #125
 135 005a 8A43     		bics	r2, r1
 136 005c DA64     		str	r2, [r3, #76]
 235:../../../../../../Drivers/STM32L0xx_HAL_Driver/Src/stm32l0xx_hal_rtc.c **** 
 137              		.loc 1 235 0
 138 005e E269     		ldr	r2, [r4, #28]
 139 0060 D96C     		ldr	r1, [r3, #76]
 140 0062 0243     		orrs	r2, r0
 141 0064 0A43     		orrs	r2, r1
 142 0066 DA64     		str	r2, [r3, #76]
 238:../../../../../../Drivers/STM32L0xx_HAL_Driver/Src/stm32l0xx_hal_rtc.c **** 
 143              		.loc 1 238 0
 144 0068 FF22     		movs	r2, #255
 145 006a 5A62     		str	r2, [r3, #36]
 241:../../../../../../Drivers/STM32L0xx_HAL_Driver/Src/stm32l0xx_hal_rtc.c **** 
 146              		.loc 1 241 0
 147 006c 2123     		movs	r3, #33
 148 006e FE3A     		subs	r2, r2, #254
 149 0070 E254     		strb	r2, [r4, r3]
 243:../../../../../../Drivers/STM32L0xx_HAL_Driver/Src/stm32l0xx_hal_rtc.c ****   }
 150              		.loc 1 243 0
 151 0072 0020     		movs	r0, #0
 152 0074 06E0     		b	.L11
 153              	.LVL5:
 154              	.L8:
 213:../../../../../../Drivers/STM32L0xx_HAL_Driver/Src/stm32l0xx_hal_rtc.c **** 
 155              		.loc 1 213 0
 156 0076 FF22     		movs	r2, #255
 157 0078 2368     		ldr	r3, [r4]
 158 007a 5A62     		str	r2, [r3, #36]
 216:../../../../../../Drivers/STM32L0xx_HAL_Driver/Src/stm32l0xx_hal_rtc.c **** 
 159              		.loc 1 216 0
 160 007c 2123     		movs	r3, #33
 161 007e FB3A     		subs	r2, r2, #251
 162 0080 E254     		strb	r2, [r4, r3]
 163              	.L12:
 218:../../../../../../Drivers/STM32L0xx_HAL_Driver/Src/stm32l0xx_hal_rtc.c ****   }
ARM GAS  C:\Users\EBANO_~1\AppData\Local\Temp\cc8t01eQ.s 			page 30


 164              		.loc 1 218 0
 165 0082 0120     		movs	r0, #1
 166              	.L11:
 245:../../../../../../Drivers/STM32L0xx_HAL_Driver/Src/stm32l0xx_hal_rtc.c **** 
 167              		.loc 1 245 0
 168              		@ sp needed
 169              	.LVL6:
 170 0084 F8BD     		pop	{r3, r4, r5, r6, r7, pc}
 171              	.LVL7:
 172              	.L14:
 173              	.LBB73:
 174              	.LBB72:
1466:../../../../../../Drivers/STM32L0xx_HAL_Driver/Src/stm32l0xx_hal_rtc.c ****   {
1467:../../../../../../Drivers/STM32L0xx_HAL_Driver/Src/stm32l0xx_hal_rtc.c ****     /* Set the Initialization mode */
1468:../../../../../../Drivers/STM32L0xx_HAL_Driver/Src/stm32l0xx_hal_rtc.c ****     hrtc->Instance->ISR = (uint32_t)RTC_INIT_MASK;
 175              		.loc 1 1468 0
 176 0086 0122     		movs	r2, #1
 177 0088 5242     		rsbs	r2, r2, #0
 178 008a DA60     		str	r2, [r3, #12]
1469:../../../../../../Drivers/STM32L0xx_HAL_Driver/Src/stm32l0xx_hal_rtc.c **** 
1470:../../../../../../Drivers/STM32L0xx_HAL_Driver/Src/stm32l0xx_hal_rtc.c ****     tickstart = HAL_GetTick();
 179              		.loc 1 1470 0
 180 008c FFF7FEFF 		bl	HAL_GetTick
 181              	.LVL8:
1471:../../../../../../Drivers/STM32L0xx_HAL_Driver/Src/stm32l0xx_hal_rtc.c ****     /* Wait till RTC is in INIT state and if Time out is reached exit */
1472:../../../../../../Drivers/STM32L0xx_HAL_Driver/Src/stm32l0xx_hal_rtc.c ****     while((hrtc->Instance->ISR & RTC_ISR_INITF) == (uint32_t)RESET)
1473:../../../../../../Drivers/STM32L0xx_HAL_Driver/Src/stm32l0xx_hal_rtc.c ****     {
1474:../../../../../../Drivers/STM32L0xx_HAL_Driver/Src/stm32l0xx_hal_rtc.c ****       if((HAL_GetTick()  - tickstart ) > RTC_TIMEOUT_VALUE)
 182              		.loc 1 1474 0
 183 0090 FA26     		movs	r6, #250
1470:../../../../../../Drivers/STM32L0xx_HAL_Driver/Src/stm32l0xx_hal_rtc.c ****     /* Wait till RTC is in INIT state and if Time out is reached exit */
 184              		.loc 1 1470 0
 185 0092 0700     		movs	r7, r0
 186              	.LVL9:
1472:../../../../../../Drivers/STM32L0xx_HAL_Driver/Src/stm32l0xx_hal_rtc.c ****     {
 187              		.loc 1 1472 0
 188 0094 4025     		movs	r5, #64
 189              		.loc 1 1474 0
 190 0096 B600     		lsls	r6, r6, #2
 191 0098 04E0     		b	.L7
 192              	.LVL10:
 193              	.L9:
 194 009a FFF7FEFF 		bl	HAL_GetTick
 195              	.LVL11:
 196 009e C01B     		subs	r0, r0, r7
 197 00a0 B042     		cmp	r0, r6
 198 00a2 E8D8     		bhi	.L8
 199              	.L7:
1472:../../../../../../Drivers/STM32L0xx_HAL_Driver/Src/stm32l0xx_hal_rtc.c ****     {
 200              		.loc 1 1472 0
 201 00a4 2368     		ldr	r3, [r4]
 202 00a6 DA68     		ldr	r2, [r3, #12]
 203 00a8 1542     		tst	r5, r2
 204 00aa F6D0     		beq	.L9
 205 00ac BBE7     		b	.L6
 206              	.LVL12:
 207              	.L13:
ARM GAS  C:\Users\EBANO_~1\AppData\Local\Temp\cc8t01eQ.s 			page 31


 208              	.LBE72:
 209              	.LBE73:
 197:../../../../../../Drivers/STM32L0xx_HAL_Driver/Src/stm32l0xx_hal_rtc.c **** 
 210              		.loc 1 197 0
 211 00ae 2022     		movs	r2, #32
 212 00b0 8354     		strb	r3, [r0, r2]
 200:../../../../../../Drivers/STM32L0xx_HAL_Driver/Src/stm32l0xx_hal_rtc.c ****   }
 213              		.loc 1 200 0
 214 00b2 FFF7FEFF 		bl	HAL_RTC_MspInit
 215              	.LVL13:
 216 00b6 ABE7     		b	.L5
 217              	.L16:
 218              		.align	2
 219              	.L15:
 220 00b8 BFFF8FFF 		.word	-7340097
 221              		.cfi_endproc
 222              	.LFE39:
 223              		.size	HAL_RTC_Init, .-HAL_RTC_Init
 224              		.section	.text.HAL_RTC_MspDeInit,"ax",%progbits
 225              		.align	1
 226              		.p2align 2,,3
 227              		.weak	HAL_RTC_MspDeInit
 228              		.syntax unified
 229              		.code	16
 230              		.thumb_func
 231              		.fpu softvfp
 232              		.type	HAL_RTC_MspDeInit, %function
 233              	HAL_RTC_MspDeInit:
 234              	.LFB60:
 235              		.cfi_startproc
 236              		@ args = 0, pretend = 0, frame = 0
 237              		@ frame_needed = 0, uses_anonymous_args = 0
 238              		@ link register save eliminated.
 239              		@ sp needed
 240 0000 7047     		bx	lr
 241              		.cfi_endproc
 242              	.LFE60:
 243              		.size	HAL_RTC_MspDeInit, .-HAL_RTC_MspDeInit
 244 0002 C046     		.section	.text.HAL_RTC_DeInit,"ax",%progbits
 245              		.align	1
 246              		.p2align 2,,3
 247              		.global	HAL_RTC_DeInit
 248              		.syntax unified
 249              		.code	16
 250              		.thumb_func
 251              		.fpu softvfp
 252              		.type	HAL_RTC_DeInit, %function
 253              	HAL_RTC_DeInit:
 254              	.LFB40:
 254:../../../../../../Drivers/STM32L0xx_HAL_Driver/Src/stm32l0xx_hal_rtc.c ****   uint32_t tickstart = 0U;
 255              		.loc 1 254 0
 256              		.cfi_startproc
 257              		@ args = 0, pretend = 0, frame = 0
 258              		@ frame_needed = 0, uses_anonymous_args = 0
 259              	.LVL14:
 254:../../../../../../Drivers/STM32L0xx_HAL_Driver/Src/stm32l0xx_hal_rtc.c ****   uint32_t tickstart = 0U;
 260              		.loc 1 254 0
ARM GAS  C:\Users\EBANO_~1\AppData\Local\Temp\cc8t01eQ.s 			page 32


 261 0000 F8B5     		push	{r3, r4, r5, r6, r7, lr}
 262              	.LCFI1:
 263              		.cfi_def_cfa_offset 24
 264              		.cfi_offset 3, -24
 265              		.cfi_offset 4, -20
 266              		.cfi_offset 5, -16
 267              		.cfi_offset 6, -12
 268              		.cfi_offset 7, -8
 269              		.cfi_offset 14, -4
 261:../../../../../../Drivers/STM32L0xx_HAL_Driver/Src/stm32l0xx_hal_rtc.c **** 
 270              		.loc 1 261 0
 271 0002 0222     		movs	r2, #2
 272 0004 2123     		movs	r3, #33
 273 0006 C254     		strb	r2, [r0, r3]
 264:../../../../../../Drivers/STM32L0xx_HAL_Driver/Src/stm32l0xx_hal_rtc.c **** 
 274              		.loc 1 264 0
 275 0008 0368     		ldr	r3, [r0]
 276 000a C832     		adds	r2, r2, #200
 277 000c 5A62     		str	r2, [r3, #36]
 278 000e 773A     		subs	r2, r2, #119
 279 0010 5A62     		str	r2, [r3, #36]
 280              	.LBB78:
 281              	.LBB79:
1465:../../../../../../Drivers/STM32L0xx_HAL_Driver/Src/stm32l0xx_hal_rtc.c ****   {
 282              		.loc 1 1465 0
 283 0012 DA68     		ldr	r2, [r3, #12]
 284              	.LBE79:
 285              	.LBE78:
 254:../../../../../../Drivers/STM32L0xx_HAL_Driver/Src/stm32l0xx_hal_rtc.c ****   uint32_t tickstart = 0U;
 286              		.loc 1 254 0
 287 0014 0400     		movs	r4, r0
 288              	.LVL15:
 289              	.LBB82:
 290              	.LBB80:
1465:../../../../../../Drivers/STM32L0xx_HAL_Driver/Src/stm32l0xx_hal_rtc.c ****   {
 291              		.loc 1 1465 0
 292 0016 5206     		lsls	r2, r2, #25
 293 0018 4DD5     		bpl	.L32
 294              	.LVL16:
 295              	.L19:
 296              	.LBE80:
 297              	.LBE82:
 280:../../../../../../Drivers/STM32L0xx_HAL_Driver/Src/stm32l0xx_hal_rtc.c ****     hrtc->Instance->DR = ((uint32_t)(RTC_DR_WDU_0 | RTC_DR_MU_0 | RTC_DR_DU_0));
 298              		.loc 1 280 0
 299 001a 0022     		movs	r2, #0
 300 001c 1A60     		str	r2, [r3]
 281:../../../../../../Drivers/STM32L0xx_HAL_Driver/Src/stm32l0xx_hal_rtc.c ****     /* Reset All CR bits except CR[2:0] */
 301              		.loc 1 281 0
 302 001e 374A     		ldr	r2, .L35
 290:../../../../../../Drivers/STM32L0xx_HAL_Driver/Src/stm32l0xx_hal_rtc.c ****       {
 303              		.loc 1 290 0
 304 0020 FA26     		movs	r6, #250
 281:../../../../../../Drivers/STM32L0xx_HAL_Driver/Src/stm32l0xx_hal_rtc.c ****     /* Reset All CR bits except CR[2:0] */
 305              		.loc 1 281 0
 306 0022 5A60     		str	r2, [r3, #4]
 283:../../../../../../Drivers/STM32L0xx_HAL_Driver/Src/stm32l0xx_hal_rtc.c **** 
 307              		.loc 1 283 0
ARM GAS  C:\Users\EBANO_~1\AppData\Local\Temp\cc8t01eQ.s 			page 33


 308 0024 0722     		movs	r2, #7
 309 0026 9968     		ldr	r1, [r3, #8]
 288:../../../../../../Drivers/STM32L0xx_HAL_Driver/Src/stm32l0xx_hal_rtc.c ****     {
 310              		.loc 1 288 0
 311 0028 0425     		movs	r5, #4
 283:../../../../../../Drivers/STM32L0xx_HAL_Driver/Src/stm32l0xx_hal_rtc.c **** 
 312              		.loc 1 283 0
 313 002a 0A40     		ands	r2, r1
 314 002c 9A60     		str	r2, [r3, #8]
 285:../../../../../../Drivers/STM32L0xx_HAL_Driver/Src/stm32l0xx_hal_rtc.c **** 
 315              		.loc 1 285 0
 316 002e FFF7FEFF 		bl	HAL_GetTick
 317              	.LVL17:
 288:../../../../../../Drivers/STM32L0xx_HAL_Driver/Src/stm32l0xx_hal_rtc.c ****     {
 318              		.loc 1 288 0
 319 0032 2368     		ldr	r3, [r4]
 285:../../../../../../Drivers/STM32L0xx_HAL_Driver/Src/stm32l0xx_hal_rtc.c **** 
 320              		.loc 1 285 0
 321 0034 0700     		movs	r7, r0
 322              	.LVL18:
 288:../../../../../../Drivers/STM32L0xx_HAL_Driver/Src/stm32l0xx_hal_rtc.c ****     {
 323              		.loc 1 288 0
 324 0036 DA68     		ldr	r2, [r3, #12]
 290:../../../../../../Drivers/STM32L0xx_HAL_Driver/Src/stm32l0xx_hal_rtc.c ****       {
 325              		.loc 1 290 0
 326 0038 B600     		lsls	r6, r6, #2
 288:../../../../../../Drivers/STM32L0xx_HAL_Driver/Src/stm32l0xx_hal_rtc.c ****     {
 327              		.loc 1 288 0
 328 003a 1542     		tst	r5, r2
 329 003c 08D1     		bne	.L33
 330              	.LVL19:
 331              	.L25:
 290:../../../../../../Drivers/STM32L0xx_HAL_Driver/Src/stm32l0xx_hal_rtc.c ****       {
 332              		.loc 1 290 0
 333 003e FFF7FEFF 		bl	HAL_GetTick
 334              	.LVL20:
 335 0042 C01B     		subs	r0, r0, r7
 336 0044 B042     		cmp	r0, r6
 337 0046 50D8     		bhi	.L34
 288:../../../../../../Drivers/STM32L0xx_HAL_Driver/Src/stm32l0xx_hal_rtc.c ****     {
 338              		.loc 1 288 0
 339 0048 2368     		ldr	r3, [r4]
 340 004a DA68     		ldr	r2, [r3, #12]
 341 004c 1542     		tst	r5, r2
 342 004e F6D0     		beq	.L25
 343              	.L33:
 303:../../../../../../Drivers/STM32L0xx_HAL_Driver/Src/stm32l0xx_hal_rtc.c ****     hrtc->Instance->WUTR = RTC_WUTR_WUT;
 344              		.loc 1 303 0
 345 0050 9A68     		ldr	r2, [r3, #8]
 346 0052 0022     		movs	r2, #0
 304:../../../../../../Drivers/STM32L0xx_HAL_Driver/Src/stm32l0xx_hal_rtc.c ****     hrtc->Instance->PRER = ((uint32_t)(RTC_PRER_PREDIV_A | 0x000000FFU));
 347              		.loc 1 304 0
 348 0054 2A49     		ldr	r1, .L35+4
 303:../../../../../../Drivers/STM32L0xx_HAL_Driver/Src/stm32l0xx_hal_rtc.c ****     hrtc->Instance->WUTR = RTC_WUTR_WUT;
 349              		.loc 1 303 0
 350 0056 9A60     		str	r2, [r3, #8]
 304:../../../../../../Drivers/STM32L0xx_HAL_Driver/Src/stm32l0xx_hal_rtc.c ****     hrtc->Instance->PRER = ((uint32_t)(RTC_PRER_PREDIV_A | 0x000000FFU));
ARM GAS  C:\Users\EBANO_~1\AppData\Local\Temp\cc8t01eQ.s 			page 34


 351              		.loc 1 304 0
 352 0058 5961     		str	r1, [r3, #20]
 305:../../../../../../Drivers/STM32L0xx_HAL_Driver/Src/stm32l0xx_hal_rtc.c ****     hrtc->Instance->ALRMAR = (uint32_t)0x00000000U;
 353              		.loc 1 305 0
 354 005a 2A49     		ldr	r1, .L35+8
 355 005c 1961     		str	r1, [r3, #16]
 306:../../../../../../Drivers/STM32L0xx_HAL_Driver/Src/stm32l0xx_hal_rtc.c ****     hrtc->Instance->ALRMBR = (uint32_t)0x00000000U;
 356              		.loc 1 306 0
 357 005e DA61     		str	r2, [r3, #28]
 307:../../../../../../Drivers/STM32L0xx_HAL_Driver/Src/stm32l0xx_hal_rtc.c ****     hrtc->Instance->SHIFTR = (uint32_t)0x00000000U;
 358              		.loc 1 307 0
 359 0060 1A62     		str	r2, [r3, #32]
 308:../../../../../../Drivers/STM32L0xx_HAL_Driver/Src/stm32l0xx_hal_rtc.c ****     hrtc->Instance->CALR = (uint32_t)0x00000000U;
 360              		.loc 1 308 0
 361 0062 DA62     		str	r2, [r3, #44]
 309:../../../../../../Drivers/STM32L0xx_HAL_Driver/Src/stm32l0xx_hal_rtc.c ****     hrtc->Instance->ALRMASSR = (uint32_t)0x00000000U;
 362              		.loc 1 309 0
 363 0064 DA63     		str	r2, [r3, #60]
 310:../../../../../../Drivers/STM32L0xx_HAL_Driver/Src/stm32l0xx_hal_rtc.c ****     hrtc->Instance->ALRMBSSR = (uint32_t)0x00000000U;
 364              		.loc 1 310 0
 365 0066 5A64     		str	r2, [r3, #68]
 311:../../../../../../Drivers/STM32L0xx_HAL_Driver/Src/stm32l0xx_hal_rtc.c **** 
 366              		.loc 1 311 0
 367 0068 9A64     		str	r2, [r3, #72]
 314:../../../../../../Drivers/STM32L0xx_HAL_Driver/Src/stm32l0xx_hal_rtc.c **** 
 368              		.loc 1 314 0
 369 006a DA60     		str	r2, [r3, #12]
 317:../../../../../../Drivers/STM32L0xx_HAL_Driver/Src/stm32l0xx_hal_rtc.c **** 
 370              		.loc 1 317 0
 371 006c 1A64     		str	r2, [r3, #64]
 320:../../../../../../Drivers/STM32L0xx_HAL_Driver/Src/stm32l0xx_hal_rtc.c **** 
 372              		.loc 1 320 0
 373 006e DA64     		str	r2, [r3, #76]
 323:../../../../../../Drivers/STM32L0xx_HAL_Driver/Src/stm32l0xx_hal_rtc.c ****     {
 374              		.loc 1 323 0
 375 0070 9A68     		ldr	r2, [r3, #8]
 376 0072 9206     		lsls	r2, r2, #26
 377 0074 13D4     		bmi	.L26
 378              	.LVL21:
 379              	.LBB83:
 380              	.LBB84:
1398:../../../../../../Drivers/STM32L0xx_HAL_Driver/Src/stm32l0xx_hal_rtc.c **** 
 381              		.loc 1 1398 0
 382 0076 A021     		movs	r1, #160
 383 0078 DA68     		ldr	r2, [r3, #12]
1405:../../../../../../Drivers/STM32L0xx_HAL_Driver/Src/stm32l0xx_hal_rtc.c ****     {
 384              		.loc 1 1405 0
 385 007a FA26     		movs	r6, #250
1398:../../../../../../Drivers/STM32L0xx_HAL_Driver/Src/stm32l0xx_hal_rtc.c **** 
 386              		.loc 1 1398 0
 387 007c 8A43     		bics	r2, r1
 388 007e DA60     		str	r2, [r3, #12]
1400:../../../../../../Drivers/STM32L0xx_HAL_Driver/Src/stm32l0xx_hal_rtc.c **** 
 389              		.loc 1 1400 0
 390 0080 FFF7FEFF 		bl	HAL_GetTick
 391              	.LVL22:
1403:../../../../../../Drivers/STM32L0xx_HAL_Driver/Src/stm32l0xx_hal_rtc.c ****   {
ARM GAS  C:\Users\EBANO_~1\AppData\Local\Temp\cc8t01eQ.s 			page 35


 392              		.loc 1 1403 0
 393 0084 2025     		movs	r5, #32
1400:../../../../../../Drivers/STM32L0xx_HAL_Driver/Src/stm32l0xx_hal_rtc.c **** 
 394              		.loc 1 1400 0
 395 0086 0700     		movs	r7, r0
 396              	.LVL23:
1405:../../../../../../Drivers/STM32L0xx_HAL_Driver/Src/stm32l0xx_hal_rtc.c ****     {
 397              		.loc 1 1405 0
 398 0088 B600     		lsls	r6, r6, #2
 399 008a 04E0     		b	.L27
 400              	.LVL24:
 401              	.L29:
 402 008c FFF7FEFF 		bl	HAL_GetTick
 403              	.LVL25:
 404 0090 C01B     		subs	r0, r0, r7
 405 0092 B042     		cmp	r0, r6
 406 0094 21D8     		bhi	.L28
 407              	.L27:
1403:../../../../../../Drivers/STM32L0xx_HAL_Driver/Src/stm32l0xx_hal_rtc.c ****   {
 408              		.loc 1 1403 0
 409 0096 2368     		ldr	r3, [r4]
 410 0098 DA68     		ldr	r2, [r3, #12]
 411 009a 1542     		tst	r5, r2
 412 009c F6D0     		beq	.L29
 413              	.LVL26:
 414              	.L26:
 415              	.LBE84:
 416              	.LBE83:
 338:../../../../../../Drivers/STM32L0xx_HAL_Driver/Src/stm32l0xx_hal_rtc.c **** 
 417              		.loc 1 338 0
 418 009e FF22     		movs	r2, #255
 341:../../../../../../Drivers/STM32L0xx_HAL_Driver/Src/stm32l0xx_hal_rtc.c **** 
 419              		.loc 1 341 0
 420 00a0 2000     		movs	r0, r4
 338:../../../../../../Drivers/STM32L0xx_HAL_Driver/Src/stm32l0xx_hal_rtc.c **** 
 421              		.loc 1 338 0
 422 00a2 5A62     		str	r2, [r3, #36]
 341:../../../../../../Drivers/STM32L0xx_HAL_Driver/Src/stm32l0xx_hal_rtc.c **** 
 423              		.loc 1 341 0
 424 00a4 FFF7FEFF 		bl	HAL_RTC_MspDeInit
 425              	.LVL27:
 343:../../../../../../Drivers/STM32L0xx_HAL_Driver/Src/stm32l0xx_hal_rtc.c ****   
 426              		.loc 1 343 0
 427 00a8 0023     		movs	r3, #0
 428 00aa 2122     		movs	r2, #33
 429 00ac A354     		strb	r3, [r4, r2]
 346:../../../../../../Drivers/STM32L0xx_HAL_Driver/Src/stm32l0xx_hal_rtc.c **** 
 430              		.loc 1 346 0
 431 00ae 013A     		subs	r2, r2, #1
 432 00b0 A354     		strb	r3, [r4, r2]
 348:../../../../../../Drivers/STM32L0xx_HAL_Driver/Src/stm32l0xx_hal_rtc.c **** }
 433              		.loc 1 348 0
 434 00b2 0020     		movs	r0, #0
 435 00b4 18E0     		b	.L31
 436              	.LVL28:
 437              	.L32:
 438              	.LBB85:
ARM GAS  C:\Users\EBANO_~1\AppData\Local\Temp\cc8t01eQ.s 			page 36


 439              	.LBB81:
1468:../../../../../../Drivers/STM32L0xx_HAL_Driver/Src/stm32l0xx_hal_rtc.c **** 
 440              		.loc 1 1468 0
 441 00b6 0122     		movs	r2, #1
 442 00b8 5242     		rsbs	r2, r2, #0
 443 00ba DA60     		str	r2, [r3, #12]
1470:../../../../../../Drivers/STM32L0xx_HAL_Driver/Src/stm32l0xx_hal_rtc.c ****     /* Wait till RTC is in INIT state and if Time out is reached exit */
 444              		.loc 1 1470 0
 445 00bc FFF7FEFF 		bl	HAL_GetTick
 446              	.LVL29:
 447              		.loc 1 1474 0
 448 00c0 FA26     		movs	r6, #250
1470:../../../../../../Drivers/STM32L0xx_HAL_Driver/Src/stm32l0xx_hal_rtc.c ****     /* Wait till RTC is in INIT state and if Time out is reached exit */
 449              		.loc 1 1470 0
 450 00c2 0700     		movs	r7, r0
 451              	.LVL30:
1472:../../../../../../Drivers/STM32L0xx_HAL_Driver/Src/stm32l0xx_hal_rtc.c ****     {
 452              		.loc 1 1472 0
 453 00c4 4025     		movs	r5, #64
 454              		.loc 1 1474 0
 455 00c6 B600     		lsls	r6, r6, #2
 456              	.LVL31:
 457              	.L20:
1472:../../../../../../Drivers/STM32L0xx_HAL_Driver/Src/stm32l0xx_hal_rtc.c ****     {
 458              		.loc 1 1472 0
 459 00c8 2368     		ldr	r3, [r4]
 460 00ca DA68     		ldr	r2, [r3, #12]
 461 00cc 1542     		tst	r5, r2
 462 00ce A4D1     		bne	.L19
 463              		.loc 1 1474 0
 464 00d0 FFF7FEFF 		bl	HAL_GetTick
 465              	.LVL32:
 466 00d4 C01B     		subs	r0, r0, r7
 467 00d6 B042     		cmp	r0, r6
 468 00d8 F6D9     		bls	.L20
 469              	.LVL33:
 470              	.L28:
 471              	.LBE81:
 472              	.LBE85:
 328:../../../../../../Drivers/STM32L0xx_HAL_Driver/Src/stm32l0xx_hal_rtc.c **** 
 473              		.loc 1 328 0
 474 00da FF22     		movs	r2, #255
 475 00dc 2368     		ldr	r3, [r4]
 332:../../../../../../Drivers/STM32L0xx_HAL_Driver/Src/stm32l0xx_hal_rtc.c ****       }
 476              		.loc 1 332 0
 477 00de 0120     		movs	r0, #1
 328:../../../../../../Drivers/STM32L0xx_HAL_Driver/Src/stm32l0xx_hal_rtc.c **** 
 478              		.loc 1 328 0
 479 00e0 5A62     		str	r2, [r3, #36]
 330:../../../../../../Drivers/STM32L0xx_HAL_Driver/Src/stm32l0xx_hal_rtc.c **** 
 480              		.loc 1 330 0
 481 00e2 2123     		movs	r3, #33
 482 00e4 FB3A     		subs	r2, r2, #251
 483 00e6 E254     		strb	r2, [r4, r3]
 484              	.L31:
 349:../../../../../../Drivers/STM32L0xx_HAL_Driver/Src/stm32l0xx_hal_rtc.c **** 
 485              		.loc 1 349 0
ARM GAS  C:\Users\EBANO_~1\AppData\Local\Temp\cc8t01eQ.s 			page 37


 486              		@ sp needed
 487              	.LVL34:
 488 00e8 F8BD     		pop	{r3, r4, r5, r6, r7, pc}
 489              	.LVL35:
 490              	.L34:
 293:../../../../../../Drivers/STM32L0xx_HAL_Driver/Src/stm32l0xx_hal_rtc.c **** 
 491              		.loc 1 293 0
 492 00ea FF22     		movs	r2, #255
 493 00ec 2368     		ldr	r3, [r4]
 298:../../../../../../Drivers/STM32L0xx_HAL_Driver/Src/stm32l0xx_hal_rtc.c ****       }
 494              		.loc 1 298 0
 495 00ee 0320     		movs	r0, #3
 293:../../../../../../Drivers/STM32L0xx_HAL_Driver/Src/stm32l0xx_hal_rtc.c **** 
 496              		.loc 1 293 0
 497 00f0 5A62     		str	r2, [r3, #36]
 296:../../../../../../Drivers/STM32L0xx_HAL_Driver/Src/stm32l0xx_hal_rtc.c **** 
 498              		.loc 1 296 0
 499 00f2 2123     		movs	r3, #33
 500 00f4 FC3A     		subs	r2, r2, #252
 501 00f6 E254     		strb	r2, [r4, r3]
 298:../../../../../../Drivers/STM32L0xx_HAL_Driver/Src/stm32l0xx_hal_rtc.c ****       }
 502              		.loc 1 298 0
 503 00f8 F6E7     		b	.L31
 504              	.L36:
 505 00fa C046     		.align	2
 506              	.L35:
 507 00fc 01210000 		.word	8449
 508 0100 FFFF0000 		.word	65535
 509 0104 FF007F00 		.word	8323327
 510              		.cfi_endproc
 511              	.LFE40:
 512              		.size	HAL_RTC_DeInit, .-HAL_RTC_DeInit
 513              		.section	.text.HAL_RTC_SetTime,"ax",%progbits
 514              		.align	1
 515              		.p2align 2,,3
 516              		.global	HAL_RTC_SetTime
 517              		.syntax unified
 518              		.code	16
 519              		.thumb_func
 520              		.fpu softvfp
 521              		.type	HAL_RTC_SetTime, %function
 522              	HAL_RTC_SetTime:
 523              	.LFB43:
 410:../../../../../../Drivers/STM32L0xx_HAL_Driver/Src/stm32l0xx_hal_rtc.c ****   uint32_t tmpreg = 0U;
 524              		.loc 1 410 0
 525              		.cfi_startproc
 526              		@ args = 0, pretend = 0, frame = 0
 527              		@ frame_needed = 0, uses_anonymous_args = 0
 528              	.LVL36:
 529 0000 F8B5     		push	{r3, r4, r5, r6, r7, lr}
 530              	.LCFI2:
 531              		.cfi_def_cfa_offset 24
 532              		.cfi_offset 3, -24
 533              		.cfi_offset 4, -20
 534              		.cfi_offset 5, -16
 535              		.cfi_offset 6, -12
 536              		.cfi_offset 7, -8
ARM GAS  C:\Users\EBANO_~1\AppData\Local\Temp\cc8t01eQ.s 			page 38


 537              		.cfi_offset 14, -4
 538 0002 4546     		mov	r5, r8
 539 0004 DE46     		mov	lr, fp
 540 0006 5746     		mov	r7, r10
 541 0008 4E46     		mov	r6, r9
 419:../../../../../../Drivers/STM32L0xx_HAL_Driver/Src/stm32l0xx_hal_rtc.c **** 
 542              		.loc 1 419 0
 543 000a 2023     		movs	r3, #32
 410:../../../../../../Drivers/STM32L0xx_HAL_Driver/Src/stm32l0xx_hal_rtc.c ****   uint32_t tmpreg = 0U;
 544              		.loc 1 410 0
 545 000c E0B5     		push	{r5, r6, r7, lr}
 546              	.LCFI3:
 547              		.cfi_def_cfa_offset 40
 548              		.cfi_offset 8, -40
 549              		.cfi_offset 9, -36
 550              		.cfi_offset 10, -32
 551              		.cfi_offset 11, -28
 410:../../../../../../Drivers/STM32L0xx_HAL_Driver/Src/stm32l0xx_hal_rtc.c ****   uint32_t tmpreg = 0U;
 552              		.loc 1 410 0
 553 000e 0D00     		movs	r5, r1
 419:../../../../../../Drivers/STM32L0xx_HAL_Driver/Src/stm32l0xx_hal_rtc.c **** 
 554              		.loc 1 419 0
 555 0010 C15C     		ldrb	r1, [r0, r3]
 556              	.LVL37:
 410:../../../../../../Drivers/STM32L0xx_HAL_Driver/Src/stm32l0xx_hal_rtc.c ****   uint32_t tmpreg = 0U;
 557              		.loc 1 410 0
 558 0012 0400     		movs	r4, r0
 419:../../../../../../Drivers/STM32L0xx_HAL_Driver/Src/stm32l0xx_hal_rtc.c **** 
 559              		.loc 1 419 0
 560 0014 0129     		cmp	r1, #1
 561 0016 00D1     		bne	.LCB483
 562 0018 9CE0     		b	.L59	@long jump
 563              	.LCB483:
 419:../../../../../../Drivers/STM32L0xx_HAL_Driver/Src/stm32l0xx_hal_rtc.c **** 
 564              		.loc 1 419 0 is_stmt 0 discriminator 2
 565 001a 0121     		movs	r1, #1
 566 001c C154     		strb	r1, [r0, r3]
 421:../../../../../../Drivers/STM32L0xx_HAL_Driver/Src/stm32l0xx_hal_rtc.c **** 
 567              		.loc 1 421 0 is_stmt 1 discriminator 2
 568 001e 0133     		adds	r3, r3, #1
 569 0020 0131     		adds	r1, r1, #1
 570 0022 C154     		strb	r1, [r0, r3]
 571 0024 0668     		ldr	r6, [r0]
 423:../../../../../../Drivers/STM32L0xx_HAL_Driver/Src/stm32l0xx_hal_rtc.c ****   {
 572              		.loc 1 423 0 discriminator 2
 573 0026 002A     		cmp	r2, #0
 574 0028 3AD0     		beq	.L67
 445:../../../../../../Drivers/STM32L0xx_HAL_Driver/Src/stm32l0xx_hal_rtc.c ****     {
 575              		.loc 1 445 0
 576 002a 4023     		movs	r3, #64
 577 002c B168     		ldr	r1, [r6, #8]
 578 002e 0B40     		ands	r3, r1
 579 0030 00D1     		bne	.LCB496
 580 0032 8BE0     		b	.L49	@long jump
 581              	.LCB496:
 582 0034 EB78     		ldrb	r3, [r5, #3]
 583 0036 1B04     		lsls	r3, r3, #16
ARM GAS  C:\Users\EBANO_~1\AppData\Local\Temp\cc8t01eQ.s 			page 39


 584              	.L50:
 458:../../../../../../Drivers/STM32L0xx_HAL_Driver/Src/stm32l0xx_hal_rtc.c ****               ((uint32_t)(sTime->Minutes) << 8U) | \
 585              		.loc 1 458 0
 586 0038 2978     		ldrb	r1, [r5]
 459:../../../../../../Drivers/STM32L0xx_HAL_Driver/Src/stm32l0xx_hal_rtc.c ****               ((uint32_t)sTime->Seconds) | \
 587              		.loc 1 459 0
 588 003a 6878     		ldrb	r0, [r5, #1]
 589              	.LVL38:
 458:../../../../../../Drivers/STM32L0xx_HAL_Driver/Src/stm32l0xx_hal_rtc.c ****               ((uint32_t)(sTime->Minutes) << 8U) | \
 590              		.loc 1 458 0
 591 003c 0904     		lsls	r1, r1, #16
 459:../../../../../../Drivers/STM32L0xx_HAL_Driver/Src/stm32l0xx_hal_rtc.c ****               ((uint32_t)sTime->Seconds) | \
 592              		.loc 1 459 0
 593 003e 0002     		lsls	r0, r0, #8
 458:../../../../../../Drivers/STM32L0xx_HAL_Driver/Src/stm32l0xx_hal_rtc.c ****               ((uint32_t)(sTime->Minutes) << 8U) | \
 594              		.loc 1 458 0
 595 0040 0143     		orrs	r1, r0
 460:../../../../../../Drivers/STM32L0xx_HAL_Driver/Src/stm32l0xx_hal_rtc.c ****               ((uint32_t)(sTime->TimeFormat) << 16U));
 596              		.loc 1 460 0
 597 0042 A878     		ldrb	r0, [r5, #2]
 459:../../../../../../Drivers/STM32L0xx_HAL_Driver/Src/stm32l0xx_hal_rtc.c ****               ((uint32_t)sTime->Seconds) | \
 598              		.loc 1 459 0
 599 0044 0143     		orrs	r1, r0
 458:../../../../../../Drivers/STM32L0xx_HAL_Driver/Src/stm32l0xx_hal_rtc.c ****               ((uint32_t)(sTime->Minutes) << 8U) | \
 600              		.loc 1 458 0
 601 0046 1943     		orrs	r1, r3
 465:../../../../../../Drivers/STM32L0xx_HAL_Driver/Src/stm32l0xx_hal_rtc.c **** 
 602              		.loc 1 465 0
 603 0048 CA23     		movs	r3, #202
 604 004a 7362     		str	r3, [r6, #36]
 605 004c 773B     		subs	r3, r3, #119
 606 004e 7362     		str	r3, [r6, #36]
 607              	.LBB96:
 608              	.LBB97:
1465:../../../../../../Drivers/STM32L0xx_HAL_Driver/Src/stm32l0xx_hal_rtc.c ****   {
 609              		.loc 1 1465 0
 610 0050 F368     		ldr	r3, [r6, #12]
 611              	.LBE97:
 612              	.LBE96:
 458:../../../../../../Drivers/STM32L0xx_HAL_Driver/Src/stm32l0xx_hal_rtc.c ****               ((uint32_t)(sTime->Minutes) << 8U) | \
 613              		.loc 1 458 0
 614 0052 8846     		mov	r8, r1
 615              	.LVL39:
 616              	.LBB100:
 617              	.LBB98:
1465:../../../../../../Drivers/STM32L0xx_HAL_Driver/Src/stm32l0xx_hal_rtc.c ****   {
 618              		.loc 1 1465 0
 619 0054 5B06     		lsls	r3, r3, #25
 620 0056 59D5     		bpl	.L68
 621              	.LVL40:
 622              	.L51:
 623              	.LBE98:
 624              	.LBE100:
 484:../../../../../../Drivers/STM32L0xx_HAL_Driver/Src/stm32l0xx_hal_rtc.c **** 
 625              		.loc 1 484 0
 626 0058 4346     		mov	r3, r8
 627 005a 5049     		ldr	r1, .L70
ARM GAS  C:\Users\EBANO_~1\AppData\Local\Temp\cc8t01eQ.s 			page 40


 487:../../../../../../Drivers/STM32L0xx_HAL_Driver/Src/stm32l0xx_hal_rtc.c **** 
 628              		.loc 1 487 0
 629 005c 504A     		ldr	r2, .L70+4
 484:../../../../../../Drivers/STM32L0xx_HAL_Driver/Src/stm32l0xx_hal_rtc.c **** 
 630              		.loc 1 484 0
 631 005e 0B40     		ands	r3, r1
 632 0060 3360     		str	r3, [r6]
 487:../../../../../../Drivers/STM32L0xx_HAL_Driver/Src/stm32l0xx_hal_rtc.c **** 
 633              		.loc 1 487 0
 634 0062 B368     		ldr	r3, [r6, #8]
 490:../../../../../../Drivers/STM32L0xx_HAL_Driver/Src/stm32l0xx_hal_rtc.c **** 
 635              		.loc 1 490 0
 636 0064 2969     		ldr	r1, [r5, #16]
 487:../../../../../../Drivers/STM32L0xx_HAL_Driver/Src/stm32l0xx_hal_rtc.c **** 
 637              		.loc 1 487 0
 638 0066 1340     		ands	r3, r2
 639 0068 B360     		str	r3, [r6, #8]
 490:../../../../../../Drivers/STM32L0xx_HAL_Driver/Src/stm32l0xx_hal_rtc.c **** 
 640              		.loc 1 490 0
 641 006a EB68     		ldr	r3, [r5, #12]
 642 006c B268     		ldr	r2, [r6, #8]
 643 006e 0B43     		orrs	r3, r1
 644 0070 1343     		orrs	r3, r2
 493:../../../../../../Drivers/STM32L0xx_HAL_Driver/Src/stm32l0xx_hal_rtc.c **** 
 645              		.loc 1 493 0
 646 0072 8022     		movs	r2, #128
 490:../../../../../../Drivers/STM32L0xx_HAL_Driver/Src/stm32l0xx_hal_rtc.c **** 
 647              		.loc 1 490 0
 648 0074 B360     		str	r3, [r6, #8]
 493:../../../../../../Drivers/STM32L0xx_HAL_Driver/Src/stm32l0xx_hal_rtc.c **** 
 649              		.loc 1 493 0
 650 0076 F368     		ldr	r3, [r6, #12]
 651 0078 9343     		bics	r3, r2
 652 007a F360     		str	r3, [r6, #12]
 496:../../../../../../Drivers/STM32L0xx_HAL_Driver/Src/stm32l0xx_hal_rtc.c ****     {
 653              		.loc 1 496 0
 654 007c B368     		ldr	r3, [r6, #8]
 655 007e 9B06     		lsls	r3, r3, #26
 656 0080 6AD5     		bpl	.L69
 657              	.LVL41:
 658              	.L55:
 513:../../../../../../Drivers/STM32L0xx_HAL_Driver/Src/stm32l0xx_hal_rtc.c ****     
 659              		.loc 1 513 0
 660 0082 FF23     		movs	r3, #255
 515:../../../../../../Drivers/STM32L0xx_HAL_Driver/Src/stm32l0xx_hal_rtc.c **** 
 661              		.loc 1 515 0
 662 0084 0122     		movs	r2, #1
 513:../../../../../../Drivers/STM32L0xx_HAL_Driver/Src/stm32l0xx_hal_rtc.c ****     
 663              		.loc 1 513 0
 664 0086 7362     		str	r3, [r6, #36]
 515:../../../../../../Drivers/STM32L0xx_HAL_Driver/Src/stm32l0xx_hal_rtc.c **** 
 665              		.loc 1 515 0
 666 0088 DE3B     		subs	r3, r3, #222
 667 008a E254     		strb	r2, [r4, r3]
 517:../../../../../../Drivers/STM32L0xx_HAL_Driver/Src/stm32l0xx_hal_rtc.c **** 
 668              		.loc 1 517 0
 669 008c 0022     		movs	r2, #0
ARM GAS  C:\Users\EBANO_~1\AppData\Local\Temp\cc8t01eQ.s 			page 41


 519:../../../../../../Drivers/STM32L0xx_HAL_Driver/Src/stm32l0xx_hal_rtc.c ****   }
 670              		.loc 1 519 0
 671 008e 0020     		movs	r0, #0
 517:../../../../../../Drivers/STM32L0xx_HAL_Driver/Src/stm32l0xx_hal_rtc.c **** 
 672              		.loc 1 517 0
 673 0090 013B     		subs	r3, r3, #1
 674 0092 E254     		strb	r2, [r4, r3]
 675              	.LVL42:
 676              	.L66:
 521:../../../../../../Drivers/STM32L0xx_HAL_Driver/Src/stm32l0xx_hal_rtc.c **** 
 677              		.loc 1 521 0
 678              		@ sp needed
 679              	.LVL43:
 680 0094 3CBC     		pop	{r2, r3, r4, r5}
 681 0096 9046     		mov	r8, r2
 682 0098 9946     		mov	r9, r3
 683 009a A246     		mov	r10, r4
 684 009c AB46     		mov	fp, r5
 685 009e F8BD     		pop	{r3, r4, r5, r6, r7, pc}
 686              	.LVL44:
 687              	.L67:
 425:../../../../../../Drivers/STM32L0xx_HAL_Driver/Src/stm32l0xx_hal_rtc.c ****     {
 688              		.loc 1 425 0
 689 00a0 4027     		movs	r7, #64
 690 00a2 B368     		ldr	r3, [r6, #8]
 691 00a4 1F40     		ands	r7, r3
 692 00a6 53D0     		beq	.L40
 693 00a8 EF78     		ldrb	r7, [r5, #3]
 694 00aa 3F04     		lsls	r7, r7, #16
 695              	.L41:
 438:../../../../../../Drivers/STM32L0xx_HAL_Driver/Src/stm32l0xx_hal_rtc.c ****                         ((uint32_t)RTC_ByteToBcd2(sTime->Minutes) << 8U) | \
 696              		.loc 1 438 0
 697 00ac 2878     		ldrb	r0, [r5]
 698              	.LVL45:
 699              	.LBB101:
 700              	.LBB102:
1475:../../../../../../Drivers/STM32L0xx_HAL_Driver/Src/stm32l0xx_hal_rtc.c ****       {
1476:../../../../../../Drivers/STM32L0xx_HAL_Driver/Src/stm32l0xx_hal_rtc.c ****         return HAL_TIMEOUT;
1477:../../../../../../Drivers/STM32L0xx_HAL_Driver/Src/stm32l0xx_hal_rtc.c ****       }
1478:../../../../../../Drivers/STM32L0xx_HAL_Driver/Src/stm32l0xx_hal_rtc.c ****     }
1479:../../../../../../Drivers/STM32L0xx_HAL_Driver/Src/stm32l0xx_hal_rtc.c ****   }
1480:../../../../../../Drivers/STM32L0xx_HAL_Driver/Src/stm32l0xx_hal_rtc.c **** 
1481:../../../../../../Drivers/STM32L0xx_HAL_Driver/Src/stm32l0xx_hal_rtc.c ****   return HAL_OK;
1482:../../../../../../Drivers/STM32L0xx_HAL_Driver/Src/stm32l0xx_hal_rtc.c **** }
1483:../../../../../../Drivers/STM32L0xx_HAL_Driver/Src/stm32l0xx_hal_rtc.c **** 
1484:../../../../../../Drivers/STM32L0xx_HAL_Driver/Src/stm32l0xx_hal_rtc.c **** 
1485:../../../../../../Drivers/STM32L0xx_HAL_Driver/Src/stm32l0xx_hal_rtc.c **** /**
1486:../../../../../../Drivers/STM32L0xx_HAL_Driver/Src/stm32l0xx_hal_rtc.c ****   * @brief  Convert a 2 digit decimal to BCD format.
1487:../../../../../../Drivers/STM32L0xx_HAL_Driver/Src/stm32l0xx_hal_rtc.c ****   * @param  Value Byte to be converted
1488:../../../../../../Drivers/STM32L0xx_HAL_Driver/Src/stm32l0xx_hal_rtc.c ****   * @retval Converted byte
1489:../../../../../../Drivers/STM32L0xx_HAL_Driver/Src/stm32l0xx_hal_rtc.c ****   */
1490:../../../../../../Drivers/STM32L0xx_HAL_Driver/Src/stm32l0xx_hal_rtc.c **** uint8_t RTC_ByteToBcd2(uint8_t Value)
1491:../../../../../../Drivers/STM32L0xx_HAL_Driver/Src/stm32l0xx_hal_rtc.c **** {
1492:../../../../../../Drivers/STM32L0xx_HAL_Driver/Src/stm32l0xx_hal_rtc.c ****   uint32_t bcdhigh = 0U;
 701              		.loc 1 1492 0
 702 00ae 0023     		movs	r3, #0
1493:../../../../../../Drivers/STM32L0xx_HAL_Driver/Src/stm32l0xx_hal_rtc.c **** 
ARM GAS  C:\Users\EBANO_~1\AppData\Local\Temp\cc8t01eQ.s 			page 42


1494:../../../../../../Drivers/STM32L0xx_HAL_Driver/Src/stm32l0xx_hal_rtc.c ****   while(Value >= 10U)
 703              		.loc 1 1494 0
 704 00b0 0928     		cmp	r0, #9
 705 00b2 06D9     		bls	.L42
 706              	.LVL46:
 707              	.L43:
1495:../../../../../../Drivers/STM32L0xx_HAL_Driver/Src/stm32l0xx_hal_rtc.c ****   {
1496:../../../../../../Drivers/STM32L0xx_HAL_Driver/Src/stm32l0xx_hal_rtc.c ****     bcdhigh++;
1497:../../../../../../Drivers/STM32L0xx_HAL_Driver/Src/stm32l0xx_hal_rtc.c ****     Value -= 10U;
 708              		.loc 1 1497 0
 709 00b4 0A38     		subs	r0, r0, #10
 710              	.LVL47:
 711 00b6 C0B2     		uxtb	r0, r0
1496:../../../../../../Drivers/STM32L0xx_HAL_Driver/Src/stm32l0xx_hal_rtc.c ****     Value -= 10U;
 712              		.loc 1 1496 0
 713 00b8 0133     		adds	r3, r3, #1
 714              	.LVL48:
1494:../../../../../../Drivers/STM32L0xx_HAL_Driver/Src/stm32l0xx_hal_rtc.c ****   {
 715              		.loc 1 1494 0
 716 00ba 0928     		cmp	r0, #9
 717 00bc FAD8     		bhi	.L43
 718 00be 1B01     		lsls	r3, r3, #4
 719              	.LVL49:
 720 00c0 DBB2     		uxtb	r3, r3
 721              	.L42:
 722              	.LVL50:
 723              	.LBE102:
 724              	.LBE101:
 438:../../../../../../Drivers/STM32L0xx_HAL_Driver/Src/stm32l0xx_hal_rtc.c ****                         ((uint32_t)RTC_ByteToBcd2(sTime->Minutes) << 8U) | \
 725              		.loc 1 438 0
 726 00c2 1843     		orrs	r0, r3
 439:../../../../../../Drivers/STM32L0xx_HAL_Driver/Src/stm32l0xx_hal_rtc.c ****                         ((uint32_t)RTC_ByteToBcd2(sTime->Seconds)) | \
 727              		.loc 1 439 0
 728 00c4 6B78     		ldrb	r3, [r5, #1]
 729              	.LVL51:
 438:../../../../../../Drivers/STM32L0xx_HAL_Driver/Src/stm32l0xx_hal_rtc.c ****                         ((uint32_t)RTC_ByteToBcd2(sTime->Minutes) << 8U) | \
 730              		.loc 1 438 0
 731 00c6 0004     		lsls	r0, r0, #16
 732              	.LBB103:
 733              	.LBB104:
1492:../../../../../../Drivers/STM32L0xx_HAL_Driver/Src/stm32l0xx_hal_rtc.c **** 
 734              		.loc 1 1492 0
 735 00c8 0021     		movs	r1, #0
1494:../../../../../../Drivers/STM32L0xx_HAL_Driver/Src/stm32l0xx_hal_rtc.c ****   {
 736              		.loc 1 1494 0
 737 00ca 092B     		cmp	r3, #9
 738 00cc 06D9     		bls	.L44
 739              	.LVL52:
 740              	.L45:
 741              		.loc 1 1497 0
 742 00ce 0A3B     		subs	r3, r3, #10
 743              	.LVL53:
 744 00d0 DBB2     		uxtb	r3, r3
1496:../../../../../../Drivers/STM32L0xx_HAL_Driver/Src/stm32l0xx_hal_rtc.c ****     Value -= 10U;
 745              		.loc 1 1496 0
 746 00d2 0131     		adds	r1, r1, #1
 747              	.LVL54:
ARM GAS  C:\Users\EBANO_~1\AppData\Local\Temp\cc8t01eQ.s 			page 43


1494:../../../../../../Drivers/STM32L0xx_HAL_Driver/Src/stm32l0xx_hal_rtc.c ****   {
 748              		.loc 1 1494 0
 749 00d4 092B     		cmp	r3, #9
 750 00d6 FAD8     		bhi	.L45
 751 00d8 0901     		lsls	r1, r1, #4
 752              	.LVL55:
 753 00da C9B2     		uxtb	r1, r1
 754              	.L44:
 755              	.LVL56:
 756              	.LBE104:
 757              	.LBE103:
 439:../../../../../../Drivers/STM32L0xx_HAL_Driver/Src/stm32l0xx_hal_rtc.c ****                         ((uint32_t)RTC_ByteToBcd2(sTime->Seconds)) | \
 758              		.loc 1 439 0
 759 00dc 0B43     		orrs	r3, r1
 440:../../../../../../Drivers/STM32L0xx_HAL_Driver/Src/stm32l0xx_hal_rtc.c ****                         (((uint32_t)sTime->TimeFormat) << 16U));
 760              		.loc 1 440 0
 761 00de A978     		ldrb	r1, [r5, #2]
 762              	.LVL57:
 439:../../../../../../Drivers/STM32L0xx_HAL_Driver/Src/stm32l0xx_hal_rtc.c ****                         ((uint32_t)RTC_ByteToBcd2(sTime->Seconds)) | \
 763              		.loc 1 439 0
 764 00e0 1B02     		lsls	r3, r3, #8
 765              	.LBB105:
 766              	.LBB106:
1494:../../../../../../Drivers/STM32L0xx_HAL_Driver/Src/stm32l0xx_hal_rtc.c ****   {
 767              		.loc 1 1494 0
 768 00e2 0929     		cmp	r1, #9
 769 00e4 57D9     		bls	.L62
 770              	.LVL58:
 771              	.L47:
 772              		.loc 1 1497 0
 773 00e6 0A39     		subs	r1, r1, #10
 774              	.LVL59:
 775 00e8 C9B2     		uxtb	r1, r1
1496:../../../../../../Drivers/STM32L0xx_HAL_Driver/Src/stm32l0xx_hal_rtc.c ****     Value -= 10U;
 776              		.loc 1 1496 0
 777 00ea 0132     		adds	r2, r2, #1
 778              	.LVL60:
1494:../../../../../../Drivers/STM32L0xx_HAL_Driver/Src/stm32l0xx_hal_rtc.c ****   {
 779              		.loc 1 1494 0
 780 00ec 0929     		cmp	r1, #9
 781 00ee FAD8     		bhi	.L47
 782 00f0 1201     		lsls	r2, r2, #4
 783              	.LVL61:
 784 00f2 D2B2     		uxtb	r2, r2
 785              	.L46:
 786              	.LVL62:
 787              	.LBE106:
 788              	.LBE105:
 438:../../../../../../Drivers/STM32L0xx_HAL_Driver/Src/stm32l0xx_hal_rtc.c ****                         ((uint32_t)RTC_ByteToBcd2(sTime->Minutes) << 8U) | \
 789              		.loc 1 438 0
 790 00f4 3843     		orrs	r0, r7
 791 00f6 0343     		orrs	r3, r0
 440:../../../../../../Drivers/STM32L0xx_HAL_Driver/Src/stm32l0xx_hal_rtc.c ****                         (((uint32_t)sTime->TimeFormat) << 16U));
 792              		.loc 1 440 0
 793 00f8 1143     		orrs	r1, r2
 438:../../../../../../Drivers/STM32L0xx_HAL_Driver/Src/stm32l0xx_hal_rtc.c ****                         ((uint32_t)RTC_ByteToBcd2(sTime->Minutes) << 8U) | \
 794              		.loc 1 438 0
ARM GAS  C:\Users\EBANO_~1\AppData\Local\Temp\cc8t01eQ.s 			page 44


 795 00fa 0B43     		orrs	r3, r1
 796 00fc 9846     		mov	r8, r3
 797              	.LVL63:
 465:../../../../../../Drivers/STM32L0xx_HAL_Driver/Src/stm32l0xx_hal_rtc.c **** 
 798              		.loc 1 465 0
 799 00fe CA23     		movs	r3, #202
 800              	.LVL64:
 801 0100 7362     		str	r3, [r6, #36]
 802 0102 773B     		subs	r3, r3, #119
 803 0104 7362     		str	r3, [r6, #36]
 804              	.LVL65:
 805              	.LBB108:
 806              	.LBB99:
1465:../../../../../../Drivers/STM32L0xx_HAL_Driver/Src/stm32l0xx_hal_rtc.c ****   {
 807              		.loc 1 1465 0
 808 0106 F368     		ldr	r3, [r6, #12]
 809 0108 5B06     		lsls	r3, r3, #25
 810 010a A5D4     		bmi	.L51
 811              	.L68:
1468:../../../../../../Drivers/STM32L0xx_HAL_Driver/Src/stm32l0xx_hal_rtc.c **** 
 812              		.loc 1 1468 0
 813 010c 0123     		movs	r3, #1
 814 010e 5B42     		rsbs	r3, r3, #0
 815 0110 F360     		str	r3, [r6, #12]
1470:../../../../../../Drivers/STM32L0xx_HAL_Driver/Src/stm32l0xx_hal_rtc.c ****     /* Wait till RTC is in INIT state and if Time out is reached exit */
 816              		.loc 1 1470 0
 817 0112 FFF7FEFF 		bl	HAL_GetTick
 818              	.LVL66:
1472:../../../../../../Drivers/STM32L0xx_HAL_Driver/Src/stm32l0xx_hal_rtc.c ****     {
 819              		.loc 1 1472 0
 820 0116 4023     		movs	r3, #64
 821 0118 9946     		mov	r9, r3
1474:../../../../../../Drivers/STM32L0xx_HAL_Driver/Src/stm32l0xx_hal_rtc.c ****       {
 822              		.loc 1 1474 0
 823 011a FA23     		movs	r3, #250
 824 011c 9B00     		lsls	r3, r3, #2
1470:../../../../../../Drivers/STM32L0xx_HAL_Driver/Src/stm32l0xx_hal_rtc.c ****     /* Wait till RTC is in INIT state and if Time out is reached exit */
 825              		.loc 1 1470 0
 826 011e 8346     		mov	fp, r0
 827              	.LVL67:
1474:../../../../../../Drivers/STM32L0xx_HAL_Driver/Src/stm32l0xx_hal_rtc.c ****       {
 828              		.loc 1 1474 0
 829 0120 9A46     		mov	r10, r3
 830              	.LVL68:
 831              	.L52:
1472:../../../../../../Drivers/STM32L0xx_HAL_Driver/Src/stm32l0xx_hal_rtc.c ****     {
 832              		.loc 1 1472 0
 833 0122 4B46     		mov	r3, r9
 834 0124 2668     		ldr	r6, [r4]
 835 0126 F768     		ldr	r7, [r6, #12]
 836 0128 1F40     		ands	r7, r3
 837 012a 95D1     		bne	.L51
1474:../../../../../../Drivers/STM32L0xx_HAL_Driver/Src/stm32l0xx_hal_rtc.c ****       {
 838              		.loc 1 1474 0
 839 012c FFF7FEFF 		bl	HAL_GetTick
 840              	.LVL69:
 841 0130 5B46     		mov	r3, fp
ARM GAS  C:\Users\EBANO_~1\AppData\Local\Temp\cc8t01eQ.s 			page 45


 842 0132 C01A     		subs	r0, r0, r3
 843 0134 5045     		cmp	r0, r10
 844 0136 F4D9     		bls	.L52
 845              	.LVL70:
 846              	.LBE99:
 847              	.LBE108:
 471:../../../../../../Drivers/STM32L0xx_HAL_Driver/Src/stm32l0xx_hal_rtc.c **** 
 848              		.loc 1 471 0
 849 0138 FF22     		movs	r2, #255
 850 013a 2368     		ldr	r3, [r4]
 479:../../../../../../Drivers/STM32L0xx_HAL_Driver/Src/stm32l0xx_hal_rtc.c ****   }
 851              		.loc 1 479 0
 852 013c 0120     		movs	r0, #1
 471:../../../../../../Drivers/STM32L0xx_HAL_Driver/Src/stm32l0xx_hal_rtc.c **** 
 853              		.loc 1 471 0
 854 013e 5A62     		str	r2, [r3, #36]
 474:../../../../../../Drivers/STM32L0xx_HAL_Driver/Src/stm32l0xx_hal_rtc.c **** 
 855              		.loc 1 474 0
 856 0140 2123     		movs	r3, #33
 857 0142 FB3A     		subs	r2, r2, #251
 858 0144 E254     		strb	r2, [r4, r3]
 477:../../../../../../Drivers/STM32L0xx_HAL_Driver/Src/stm32l0xx_hal_rtc.c **** 
 859              		.loc 1 477 0
 860 0146 013B     		subs	r3, r3, #1
 861 0148 E754     		strb	r7, [r4, r3]
 479:../../../../../../Drivers/STM32L0xx_HAL_Driver/Src/stm32l0xx_hal_rtc.c ****   }
 862              		.loc 1 479 0
 863 014a A3E7     		b	.L66
 864              	.LVL71:
 865              	.L49:
 453:../../../../../../Drivers/STM32L0xx_HAL_Driver/Src/stm32l0xx_hal_rtc.c ****       assert_param(IS_RTC_HOUR24(RTC_Bcd2ToByte(sTime->Hours)));
 866              		.loc 1 453 0
 867 014c EB70     		strb	r3, [r5, #3]
 868 014e 73E7     		b	.L50
 869              	.L40:
 432:../../../../../../Drivers/STM32L0xx_HAL_Driver/Src/stm32l0xx_hal_rtc.c ****       assert_param(IS_RTC_HOUR24(sTime->Hours));
 870              		.loc 1 432 0
 871 0150 EF70     		strb	r7, [r5, #3]
 872 0152 ABE7     		b	.L41
 873              	.L59:
 419:../../../../../../Drivers/STM32L0xx_HAL_Driver/Src/stm32l0xx_hal_rtc.c **** 
 874              		.loc 1 419 0
 875 0154 0220     		movs	r0, #2
 876              	.LVL72:
 877 0156 9DE7     		b	.L66
 878              	.LVL73:
 879              	.L69:
 880              	.LBB109:
 881              	.LBB110:
1398:../../../../../../Drivers/STM32L0xx_HAL_Driver/Src/stm32l0xx_hal_rtc.c **** 
 882              		.loc 1 1398 0
 883 0158 F368     		ldr	r3, [r6, #12]
 884 015a 2032     		adds	r2, r2, #32
 885 015c 9343     		bics	r3, r2
 886 015e F360     		str	r3, [r6, #12]
1400:../../../../../../Drivers/STM32L0xx_HAL_Driver/Src/stm32l0xx_hal_rtc.c **** 
 887              		.loc 1 1400 0
ARM GAS  C:\Users\EBANO_~1\AppData\Local\Temp\cc8t01eQ.s 			page 46


 888 0160 FFF7FEFF 		bl	HAL_GetTick
 889              	.LVL74:
1405:../../../../../../Drivers/STM32L0xx_HAL_Driver/Src/stm32l0xx_hal_rtc.c ****     {
 890              		.loc 1 1405 0
 891 0164 FA23     		movs	r3, #250
 892 0166 9B00     		lsls	r3, r3, #2
1400:../../../../../../Drivers/STM32L0xx_HAL_Driver/Src/stm32l0xx_hal_rtc.c **** 
 893              		.loc 1 1400 0
 894 0168 8146     		mov	r9, r0
 895              	.LVL75:
1403:../../../../../../Drivers/STM32L0xx_HAL_Driver/Src/stm32l0xx_hal_rtc.c ****   {
 896              		.loc 1 1403 0
 897 016a 2027     		movs	r7, #32
1405:../../../../../../Drivers/STM32L0xx_HAL_Driver/Src/stm32l0xx_hal_rtc.c ****     {
 898              		.loc 1 1405 0
 899 016c 9846     		mov	r8, r3
 900              	.LVL76:
 901              	.L56:
1403:../../../../../../Drivers/STM32L0xx_HAL_Driver/Src/stm32l0xx_hal_rtc.c ****   {
 902              		.loc 1 1403 0
 903 016e 2668     		ldr	r6, [r4]
 904 0170 F568     		ldr	r5, [r6, #12]
 905 0172 3D40     		ands	r5, r7
 906 0174 00D0     		beq	.LCB838
 907 0176 84E7     		b	.L55	@long jump
 908              	.LCB838:
1405:../../../../../../Drivers/STM32L0xx_HAL_Driver/Src/stm32l0xx_hal_rtc.c ****     {
 909              		.loc 1 1405 0
 910 0178 FFF7FEFF 		bl	HAL_GetTick
 911              	.LVL77:
 912 017c 4B46     		mov	r3, r9
 913 017e C01A     		subs	r0, r0, r3
 914 0180 4045     		cmp	r0, r8
 915 0182 F4D9     		bls	.L56
 916              	.LVL78:
 917              	.LBE110:
 918              	.LBE109:
 501:../../../../../../Drivers/STM32L0xx_HAL_Driver/Src/stm32l0xx_hal_rtc.c **** 
 919              		.loc 1 501 0
 920 0184 FF22     		movs	r2, #255
 921 0186 2368     		ldr	r3, [r4]
 508:../../../../../../Drivers/STM32L0xx_HAL_Driver/Src/stm32l0xx_hal_rtc.c ****       }
 922              		.loc 1 508 0
 923 0188 0120     		movs	r0, #1
 501:../../../../../../Drivers/STM32L0xx_HAL_Driver/Src/stm32l0xx_hal_rtc.c **** 
 924              		.loc 1 501 0
 925 018a 5A62     		str	r2, [r3, #36]
 503:../../../../../../Drivers/STM32L0xx_HAL_Driver/Src/stm32l0xx_hal_rtc.c **** 
 926              		.loc 1 503 0
 927 018c 2123     		movs	r3, #33
 928 018e FB3A     		subs	r2, r2, #251
 929 0190 E254     		strb	r2, [r4, r3]
 506:../../../../../../Drivers/STM32L0xx_HAL_Driver/Src/stm32l0xx_hal_rtc.c **** 
 930              		.loc 1 506 0
 931 0192 E555     		strb	r5, [r4, r7]
 508:../../../../../../Drivers/STM32L0xx_HAL_Driver/Src/stm32l0xx_hal_rtc.c ****       }
 932              		.loc 1 508 0
ARM GAS  C:\Users\EBANO_~1\AppData\Local\Temp\cc8t01eQ.s 			page 47


 933 0194 7EE7     		b	.L66
 934              	.LVL79:
 935              	.L62:
 936              	.LBB111:
 937              	.LBB107:
1494:../../../../../../Drivers/STM32L0xx_HAL_Driver/Src/stm32l0xx_hal_rtc.c ****   {
 938              		.loc 1 1494 0
 939 0196 0022     		movs	r2, #0
 940              	.LVL80:
 941 0198 ACE7     		b	.L46
 942              	.L71:
 943 019a C046     		.align	2
 944              	.L70:
 945 019c 7F7F7F00 		.word	8355711
 946 01a0 FFFFFBFF 		.word	-262145
 947              	.LBE107:
 948              	.LBE111:
 949              		.cfi_endproc
 950              	.LFE43:
 951              		.size	HAL_RTC_SetTime, .-HAL_RTC_SetTime
 952              		.section	.text.HAL_RTC_GetTime,"ax",%progbits
 953              		.align	1
 954              		.p2align 2,,3
 955              		.global	HAL_RTC_GetTime
 956              		.syntax unified
 957              		.code	16
 958              		.thumb_func
 959              		.fpu softvfp
 960              		.type	HAL_RTC_GetTime, %function
 961              	HAL_RTC_GetTime:
 962              	.LFB44:
 545:../../../../../../Drivers/STM32L0xx_HAL_Driver/Src/stm32l0xx_hal_rtc.c ****   uint32_t tmpreg = 0U;
 963              		.loc 1 545 0
 964              		.cfi_startproc
 965              		@ args = 0, pretend = 0, frame = 0
 966              		@ frame_needed = 0, uses_anonymous_args = 0
 967              	.LVL81:
 552:../../../../../../Drivers/STM32L0xx_HAL_Driver/Src/stm32l0xx_hal_rtc.c **** 
 968              		.loc 1 552 0
 969 0000 0068     		ldr	r0, [r0]
 970              	.LVL82:
 545:../../../../../../Drivers/STM32L0xx_HAL_Driver/Src/stm32l0xx_hal_rtc.c ****   uint32_t tmpreg = 0U;
 971              		.loc 1 545 0
 972 0002 70B5     		push	{r4, r5, r6, lr}
 973              	.LCFI4:
 974              		.cfi_def_cfa_offset 16
 975              		.cfi_offset 4, -16
 976              		.cfi_offset 5, -12
 977              		.cfi_offset 6, -8
 978              		.cfi_offset 14, -4
 552:../../../../../../Drivers/STM32L0xx_HAL_Driver/Src/stm32l0xx_hal_rtc.c **** 
 979              		.loc 1 552 0
 980 0004 836A     		ldr	r3, [r0, #40]
 564:../../../../../../Drivers/STM32L0xx_HAL_Driver/Src/stm32l0xx_hal_rtc.c **** 
 981              		.loc 1 564 0
 982 0006 4026     		movs	r6, #64
 552:../../../../../../Drivers/STM32L0xx_HAL_Driver/Src/stm32l0xx_hal_rtc.c **** 
ARM GAS  C:\Users\EBANO_~1\AppData\Local\Temp\cc8t01eQ.s 			page 48


 983              		.loc 1 552 0
 984 0008 4B60     		str	r3, [r1, #4]
 555:../../../../../../Drivers/STM32L0xx_HAL_Driver/Src/stm32l0xx_hal_rtc.c ****   
 985              		.loc 1 555 0
 986 000a 0369     		ldr	r3, [r0, #16]
 558:../../../../../../Drivers/STM32L0xx_HAL_Driver/Src/stm32l0xx_hal_rtc.c **** 
 987              		.loc 1 558 0
 988 000c 0468     		ldr	r4, [r0]
 561:../../../../../../Drivers/STM32L0xx_HAL_Driver/Src/stm32l0xx_hal_rtc.c ****   sTime->Minutes = (uint8_t)((tmpreg & (RTC_TR_MNT | RTC_TR_MNU)) >>8U);
 989              		.loc 1 561 0
 990 000e 3F20     		movs	r0, #63
 555:../../../../../../Drivers/STM32L0xx_HAL_Driver/Src/stm32l0xx_hal_rtc.c ****   
 991              		.loc 1 555 0
 992 0010 5B04     		lsls	r3, r3, #17
 993 0012 5B0C     		lsrs	r3, r3, #17
 994 0014 8B60     		str	r3, [r1, #8]
 558:../../../../../../Drivers/STM32L0xx_HAL_Driver/Src/stm32l0xx_hal_rtc.c **** 
 995              		.loc 1 558 0
 996 0016 134B     		ldr	r3, .L74
 997 0018 1C40     		ands	r4, r3
 998              	.LVL83:
 561:../../../../../../Drivers/STM32L0xx_HAL_Driver/Src/stm32l0xx_hal_rtc.c ****   sTime->Minutes = (uint8_t)((tmpreg & (RTC_TR_MNT | RTC_TR_MNU)) >>8U);
 999              		.loc 1 561 0
 1000 001a 250C     		lsrs	r5, r4, #16
 562:../../../../../../Drivers/STM32L0xx_HAL_Driver/Src/stm32l0xx_hal_rtc.c ****   sTime->Seconds = (uint8_t)(tmpreg & (RTC_TR_ST | RTC_TR_SU));
 1001              		.loc 1 562 0
 1002 001c 230A     		lsrs	r3, r4, #8
 561:../../../../../../Drivers/STM32L0xx_HAL_Driver/Src/stm32l0xx_hal_rtc.c ****   sTime->Minutes = (uint8_t)((tmpreg & (RTC_TR_MNT | RTC_TR_MNU)) >>8U);
 1003              		.loc 1 561 0
 1004 001e 2840     		ands	r0, r5
 562:../../../../../../Drivers/STM32L0xx_HAL_Driver/Src/stm32l0xx_hal_rtc.c ****   sTime->Seconds = (uint8_t)(tmpreg & (RTC_TR_ST | RTC_TR_SU));
 1005              		.loc 1 562 0
 1006 0020 DBB2     		uxtb	r3, r3
 563:../../../../../../Drivers/STM32L0xx_HAL_Driver/Src/stm32l0xx_hal_rtc.c ****   sTime->TimeFormat = (uint8_t)((tmpreg & (RTC_TR_PM)) >> 16U);
 1007              		.loc 1 563 0
 1008 0022 E4B2     		uxtb	r4, r4
 1009              	.LVL84:
 564:../../../../../../Drivers/STM32L0xx_HAL_Driver/Src/stm32l0xx_hal_rtc.c **** 
 1010              		.loc 1 564 0
 1011 0024 2E40     		ands	r6, r5
 561:../../../../../../Drivers/STM32L0xx_HAL_Driver/Src/stm32l0xx_hal_rtc.c ****   sTime->Minutes = (uint8_t)((tmpreg & (RTC_TR_MNT | RTC_TR_MNU)) >>8U);
 1012              		.loc 1 561 0
 1013 0026 0870     		strb	r0, [r1]
 562:../../../../../../Drivers/STM32L0xx_HAL_Driver/Src/stm32l0xx_hal_rtc.c ****   sTime->Seconds = (uint8_t)(tmpreg & (RTC_TR_ST | RTC_TR_SU));
 1014              		.loc 1 562 0
 1015 0028 4B70     		strb	r3, [r1, #1]
 563:../../../../../../Drivers/STM32L0xx_HAL_Driver/Src/stm32l0xx_hal_rtc.c ****   sTime->TimeFormat = (uint8_t)((tmpreg & (RTC_TR_PM)) >> 16U);
 1016              		.loc 1 563 0
 1017 002a 8C70     		strb	r4, [r1, #2]
 564:../../../../../../Drivers/STM32L0xx_HAL_Driver/Src/stm32l0xx_hal_rtc.c **** 
 1018              		.loc 1 564 0
 1019 002c CE70     		strb	r6, [r1, #3]
 567:../../../../../../Drivers/STM32L0xx_HAL_Driver/Src/stm32l0xx_hal_rtc.c ****   {
 1020              		.loc 1 567 0
 1021 002e 002A     		cmp	r2, #0
 1022 0030 15D1     		bne	.L73
 1023              	.LBB112:
ARM GAS  C:\Users\EBANO_~1\AppData\Local\Temp\cc8t01eQ.s 			page 49


 1024              	.LBB113:
1498:../../../../../../Drivers/STM32L0xx_HAL_Driver/Src/stm32l0xx_hal_rtc.c ****   }
1499:../../../../../../Drivers/STM32L0xx_HAL_Driver/Src/stm32l0xx_hal_rtc.c **** 
1500:../../../../../../Drivers/STM32L0xx_HAL_Driver/Src/stm32l0xx_hal_rtc.c ****   return  ((uint8_t)(bcdhigh << 4U) | Value);
1501:../../../../../../Drivers/STM32L0xx_HAL_Driver/Src/stm32l0xx_hal_rtc.c **** }
1502:../../../../../../Drivers/STM32L0xx_HAL_Driver/Src/stm32l0xx_hal_rtc.c **** 
1503:../../../../../../Drivers/STM32L0xx_HAL_Driver/Src/stm32l0xx_hal_rtc.c **** /**
1504:../../../../../../Drivers/STM32L0xx_HAL_Driver/Src/stm32l0xx_hal_rtc.c ****   * @brief  Convert from 2 digit BCD to Binary.
1505:../../../../../../Drivers/STM32L0xx_HAL_Driver/Src/stm32l0xx_hal_rtc.c ****   * @param  Value BCD value to be converted
1506:../../../../../../Drivers/STM32L0xx_HAL_Driver/Src/stm32l0xx_hal_rtc.c ****   * @retval Converted word
1507:../../../../../../Drivers/STM32L0xx_HAL_Driver/Src/stm32l0xx_hal_rtc.c ****   */
1508:../../../../../../Drivers/STM32L0xx_HAL_Driver/Src/stm32l0xx_hal_rtc.c **** uint8_t RTC_Bcd2ToByte(uint8_t Value)
1509:../../../../../../Drivers/STM32L0xx_HAL_Driver/Src/stm32l0xx_hal_rtc.c **** {
1510:../../../../../../Drivers/STM32L0xx_HAL_Driver/Src/stm32l0xx_hal_rtc.c ****   uint32_t tmp = 0U;
1511:../../../../../../Drivers/STM32L0xx_HAL_Driver/Src/stm32l0xx_hal_rtc.c ****   tmp = ((uint8_t)(Value & (uint8_t)0xF0U) >> (uint8_t)0x4U) * 10U;
1512:../../../../../../Drivers/STM32L0xx_HAL_Driver/Src/stm32l0xx_hal_rtc.c ****   return (tmp + (Value & (uint8_t)0x0FU));
 1025              		.loc 1 1512 0
 1026 0032 0F26     		movs	r6, #15
1511:../../../../../../Drivers/STM32L0xx_HAL_Driver/Src/stm32l0xx_hal_rtc.c ****   return (tmp + (Value & (uint8_t)0x0FU));
 1027              		.loc 1 1511 0
 1028 0034 0009     		lsrs	r0, r0, #4
 1029 0036 8200     		lsls	r2, r0, #2
 1030              	.LVL85:
 1031 0038 1018     		adds	r0, r2, r0
 1032 003a 4000     		lsls	r0, r0, #1
 1033              		.loc 1 1512 0
 1034 003c 3540     		ands	r5, r6
 1035 003e 4519     		adds	r5, r0, r5
 1036              	.LBE113:
 1037              	.LBE112:
 1038              	.LBB114:
 1039              	.LBB115:
1511:../../../../../../Drivers/STM32L0xx_HAL_Driver/Src/stm32l0xx_hal_rtc.c ****   return (tmp + (Value & (uint8_t)0x0FU));
 1040              		.loc 1 1511 0
 1041 0040 1809     		lsrs	r0, r3, #4
 1042 0042 8200     		lsls	r2, r0, #2
 1043 0044 1218     		adds	r2, r2, r0
 1044 0046 5200     		lsls	r2, r2, #1
 1045              		.loc 1 1512 0
 1046 0048 3340     		ands	r3, r6
 1047 004a D318     		adds	r3, r2, r3
 1048              	.LBE115:
 1049              	.LBE114:
 1050              	.LBB116:
 1051              	.LBB117:
1511:../../../../../../Drivers/STM32L0xx_HAL_Driver/Src/stm32l0xx_hal_rtc.c ****   return (tmp + (Value & (uint8_t)0x0FU));
 1052              		.loc 1 1511 0
 1053 004c 2209     		lsrs	r2, r4, #4
 1054              	.LBE117:
 1055              	.LBE116:
 571:../../../../../../Drivers/STM32L0xx_HAL_Driver/Src/stm32l0xx_hal_rtc.c ****     sTime->Seconds = (uint8_t)RTC_Bcd2ToByte(sTime->Seconds);
 1056              		.loc 1 571 0
 1057 004e 4B70     		strb	r3, [r1, #1]
 1058              	.LBB119:
 1059              	.LBB118:
1511:../../../../../../Drivers/STM32L0xx_HAL_Driver/Src/stm32l0xx_hal_rtc.c ****   return (tmp + (Value & (uint8_t)0x0FU));
 1060              		.loc 1 1511 0
ARM GAS  C:\Users\EBANO_~1\AppData\Local\Temp\cc8t01eQ.s 			page 50


 1061 0050 9300     		lsls	r3, r2, #2
 1062 0052 9B18     		adds	r3, r3, r2
 1063 0054 5B00     		lsls	r3, r3, #1
 1064              		.loc 1 1512 0
 1065 0056 3440     		ands	r4, r6
 1066 0058 1C19     		adds	r4, r3, r4
 1067              	.LBE118:
 1068              	.LBE119:
 570:../../../../../../Drivers/STM32L0xx_HAL_Driver/Src/stm32l0xx_hal_rtc.c ****     sTime->Minutes = (uint8_t)RTC_Bcd2ToByte(sTime->Minutes);
 1069              		.loc 1 570 0
 1070 005a 0D70     		strb	r5, [r1]
 572:../../../../../../Drivers/STM32L0xx_HAL_Driver/Src/stm32l0xx_hal_rtc.c ****   }
 1071              		.loc 1 572 0
 1072 005c 8C70     		strb	r4, [r1, #2]
 1073              	.L73:
 576:../../../../../../Drivers/STM32L0xx_HAL_Driver/Src/stm32l0xx_hal_rtc.c **** 
 1074              		.loc 1 576 0
 1075 005e 0020     		movs	r0, #0
 1076              		@ sp needed
 1077 0060 70BD     		pop	{r4, r5, r6, pc}
 1078              	.L75:
 1079 0062 C046     		.align	2
 1080              	.L74:
 1081 0064 7F7F7F00 		.word	8355711
 1082              		.cfi_endproc
 1083              	.LFE44:
 1084              		.size	HAL_RTC_GetTime, .-HAL_RTC_GetTime
 1085              		.section	.text.HAL_RTC_SetDate,"ax",%progbits
 1086              		.align	1
 1087              		.p2align 2,,3
 1088              		.global	HAL_RTC_SetDate
 1089              		.syntax unified
 1090              		.code	16
 1091              		.thumb_func
 1092              		.fpu softvfp
 1093              		.type	HAL_RTC_SetDate, %function
 1094              	HAL_RTC_SetDate:
 1095              	.LFB45:
 589:../../../../../../Drivers/STM32L0xx_HAL_Driver/Src/stm32l0xx_hal_rtc.c ****   uint32_t datetmpreg = 0U;
 1096              		.loc 1 589 0
 1097              		.cfi_startproc
 1098              		@ args = 0, pretend = 0, frame = 0
 1099              		@ frame_needed = 0, uses_anonymous_args = 0
 1100              	.LVL86:
 1101 0000 F8B5     		push	{r3, r4, r5, r6, r7, lr}
 1102              	.LCFI5:
 1103              		.cfi_def_cfa_offset 24
 1104              		.cfi_offset 3, -24
 1105              		.cfi_offset 4, -20
 1106              		.cfi_offset 5, -16
 1107              		.cfi_offset 6, -12
 1108              		.cfi_offset 7, -8
 1109              		.cfi_offset 14, -4
 1110 0002 CE46     		mov	lr, r9
 1111 0004 4746     		mov	r7, r8
 596:../../../../../../Drivers/STM32L0xx_HAL_Driver/Src/stm32l0xx_hal_rtc.c **** 
 1112              		.loc 1 596 0
ARM GAS  C:\Users\EBANO_~1\AppData\Local\Temp\cc8t01eQ.s 			page 51


 1113 0006 2023     		movs	r3, #32
 589:../../../../../../Drivers/STM32L0xx_HAL_Driver/Src/stm32l0xx_hal_rtc.c ****   uint32_t datetmpreg = 0U;
 1114              		.loc 1 589 0
 1115 0008 80B5     		push	{r7, lr}
 1116              	.LCFI6:
 1117              		.cfi_def_cfa_offset 32
 1118              		.cfi_offset 8, -32
 1119              		.cfi_offset 9, -28
 589:../../../../../../Drivers/STM32L0xx_HAL_Driver/Src/stm32l0xx_hal_rtc.c ****   uint32_t datetmpreg = 0U;
 1120              		.loc 1 589 0
 1121 000a 0500     		movs	r5, r0
 1122              	.LVL87:
 596:../../../../../../Drivers/STM32L0xx_HAL_Driver/Src/stm32l0xx_hal_rtc.c **** 
 1123              		.loc 1 596 0
 1124 000c C05C     		ldrb	r0, [r0, r3]
 1125              	.LVL88:
 1126 000e 0128     		cmp	r0, #1
 1127 0010 00D1     		bne	.LCB1019
 1128 0012 81E0     		b	.L95	@long jump
 1129              	.LCB1019:
 596:../../../../../../Drivers/STM32L0xx_HAL_Driver/Src/stm32l0xx_hal_rtc.c **** 
 1130              		.loc 1 596 0 is_stmt 0 discriminator 2
 1131 0014 0120     		movs	r0, #1
 1132 0016 0F78     		ldrb	r7, [r1]
 1133 0018 E854     		strb	r0, [r5, r3]
 598:../../../../../../Drivers/STM32L0xx_HAL_Driver/Src/stm32l0xx_hal_rtc.c **** 
 1134              		.loc 1 598 0 is_stmt 1 discriminator 2
 1135 001a 0133     		adds	r3, r3, #1
 1136 001c 0130     		adds	r0, r0, #1
 1137 001e E854     		strb	r0, [r5, r3]
 1138 0020 4878     		ldrb	r0, [r1, #1]
 1139 0022 8C78     		ldrb	r4, [r1, #2]
 1140 0024 CB78     		ldrb	r3, [r1, #3]
 1141 0026 7F03     		lsls	r7, r7, #13
 600:../../../../../../Drivers/STM32L0xx_HAL_Driver/Src/stm32l0xx_hal_rtc.c ****   {
 1142              		.loc 1 600 0 discriminator 2
 1143 0028 002A     		cmp	r2, #0
 1144 002a 23D0     		beq	.L107
 1145              	.LVL89:
 626:../../../../../../Drivers/STM32L0xx_HAL_Driver/Src/stm32l0xx_hal_rtc.c ****                   (((uint32_t)sDate->Month) << 8U) | \
 1146              		.loc 1 626 0
 1147 002c 1B04     		lsls	r3, r3, #16
 1148 002e 3B43     		orrs	r3, r7
 1149 0030 1C43     		orrs	r4, r3
 633:../../../../../../Drivers/STM32L0xx_HAL_Driver/Src/stm32l0xx_hal_rtc.c **** 
 1150              		.loc 1 633 0
 1151 0032 CA23     		movs	r3, #202
 1152 0034 2A68     		ldr	r2, [r5]
 1153              	.LVL90:
 627:../../../../../../Drivers/STM32L0xx_HAL_Driver/Src/stm32l0xx_hal_rtc.c ****                   ((uint32_t)sDate->Date) | \
 1154              		.loc 1 627 0
 1155 0036 0002     		lsls	r0, r0, #8
 633:../../../../../../Drivers/STM32L0xx_HAL_Driver/Src/stm32l0xx_hal_rtc.c **** 
 1156              		.loc 1 633 0
 1157 0038 5362     		str	r3, [r2, #36]
 1158              	.LVL91:
 1159 003a 773B     		subs	r3, r3, #119
ARM GAS  C:\Users\EBANO_~1\AppData\Local\Temp\cc8t01eQ.s 			page 52


 1160 003c 5362     		str	r3, [r2, #36]
 1161              	.LBB130:
 1162              	.LBB131:
1465:../../../../../../Drivers/STM32L0xx_HAL_Driver/Src/stm32l0xx_hal_rtc.c ****   {
 1163              		.loc 1 1465 0
 1164 003e D368     		ldr	r3, [r2, #12]
 1165              	.LBE131:
 1166              	.LBE130:
 626:../../../../../../Drivers/STM32L0xx_HAL_Driver/Src/stm32l0xx_hal_rtc.c ****                   (((uint32_t)sDate->Month) << 8U) | \
 1167              		.loc 1 626 0
 1168 0040 0443     		orrs	r4, r0
 1169              	.LVL92:
 1170              	.LBB134:
 1171              	.LBB132:
1465:../../../../../../Drivers/STM32L0xx_HAL_Driver/Src/stm32l0xx_hal_rtc.c ****   {
 1172              		.loc 1 1465 0
 1173 0042 5B06     		lsls	r3, r3, #25
 1174 0044 4AD5     		bpl	.L108
 1175              	.LVL93:
 1176              	.L85:
 1177              	.LBE132:
 1178              	.LBE134:
 655:../../../../../../Drivers/STM32L0xx_HAL_Driver/Src/stm32l0xx_hal_rtc.c **** 
 1179              		.loc 1 655 0
 1180 0046 8021     		movs	r1, #128
 652:../../../../../../Drivers/STM32L0xx_HAL_Driver/Src/stm32l0xx_hal_rtc.c **** 
 1181              		.loc 1 652 0
 1182 0048 4448     		ldr	r0, .L110
 1183 004a 2040     		ands	r0, r4
 1184 004c 5060     		str	r0, [r2, #4]
 655:../../../../../../Drivers/STM32L0xx_HAL_Driver/Src/stm32l0xx_hal_rtc.c **** 
 1185              		.loc 1 655 0
 1186 004e D368     		ldr	r3, [r2, #12]
 1187 0050 8B43     		bics	r3, r1
 1188 0052 D360     		str	r3, [r2, #12]
 658:../../../../../../Drivers/STM32L0xx_HAL_Driver/Src/stm32l0xx_hal_rtc.c ****     {
 1189              		.loc 1 658 0
 1190 0054 9368     		ldr	r3, [r2, #8]
 1191 0056 9B06     		lsls	r3, r3, #26
 1192 0058 60D5     		bpl	.L109
 1193              	.LVL94:
 1194              	.L89:
 675:../../../../../../Drivers/STM32L0xx_HAL_Driver/Src/stm32l0xx_hal_rtc.c **** 
 1195              		.loc 1 675 0
 1196 005a FF23     		movs	r3, #255
 1197 005c 5362     		str	r3, [r2, #36]
 677:../../../../../../Drivers/STM32L0xx_HAL_Driver/Src/stm32l0xx_hal_rtc.c **** 
 1198              		.loc 1 677 0
 1199 005e 0122     		movs	r2, #1
 1200 0060 DE3B     		subs	r3, r3, #222
 1201 0062 EA54     		strb	r2, [r5, r3]
 680:../../../../../../Drivers/STM32L0xx_HAL_Driver/Src/stm32l0xx_hal_rtc.c **** 
 1202              		.loc 1 680 0
 1203 0064 0022     		movs	r2, #0
 682:../../../../../../Drivers/STM32L0xx_HAL_Driver/Src/stm32l0xx_hal_rtc.c ****   }
 1204              		.loc 1 682 0
 1205 0066 0020     		movs	r0, #0
ARM GAS  C:\Users\EBANO_~1\AppData\Local\Temp\cc8t01eQ.s 			page 53


 680:../../../../../../Drivers/STM32L0xx_HAL_Driver/Src/stm32l0xx_hal_rtc.c **** 
 1206              		.loc 1 680 0
 1207 0068 013B     		subs	r3, r3, #1
 1208 006a EA54     		strb	r2, [r5, r3]
 1209              	.LVL95:
 1210              	.L106:
 684:../../../../../../Drivers/STM32L0xx_HAL_Driver/Src/stm32l0xx_hal_rtc.c **** 
 1211              		.loc 1 684 0
 1212              		@ sp needed
 1213              	.LVL96:
 1214 006c 0CBC     		pop	{r2, r3}
 1215 006e 9046     		mov	r8, r2
 1216 0070 9946     		mov	r9, r3
 1217 0072 F8BD     		pop	{r3, r4, r5, r6, r7, pc}
 1218              	.LVL97:
 1219              	.L107:
 600:../../../../../../Drivers/STM32L0xx_HAL_Driver/Src/stm32l0xx_hal_rtc.c ****   {
 1220              		.loc 1 600 0 discriminator 1
 1221 0074 1026     		movs	r6, #16
 1222 0076 0642     		tst	r6, r0
 1223 0078 03D0     		beq	.L79
 602:../../../../../../Drivers/STM32L0xx_HAL_Driver/Src/stm32l0xx_hal_rtc.c ****   }
 1224              		.loc 1 602 0
 1225 007a B043     		bics	r0, r6
 1226 007c 0A30     		adds	r0, r0, #10
 1227 007e C0B2     		uxtb	r0, r0
 1228 0080 4870     		strb	r0, [r1, #1]
 1229              	.L79:
 1230              	.LVL98:
 1231              	.LBB135:
 1232              	.LBB136:
1492:../../../../../../Drivers/STM32L0xx_HAL_Driver/Src/stm32l0xx_hal_rtc.c **** 
 1233              		.loc 1 1492 0
 1234 0082 0026     		movs	r6, #0
1494:../../../../../../Drivers/STM32L0xx_HAL_Driver/Src/stm32l0xx_hal_rtc.c ****   {
 1235              		.loc 1 1494 0
 1236 0084 092B     		cmp	r3, #9
 1237 0086 06D9     		bls	.L93
 1238              	.LVL99:
 1239              	.L80:
1497:../../../../../../Drivers/STM32L0xx_HAL_Driver/Src/stm32l0xx_hal_rtc.c ****   }
 1240              		.loc 1 1497 0
 1241 0088 0A3B     		subs	r3, r3, #10
 1242              	.LVL100:
 1243 008a DBB2     		uxtb	r3, r3
1496:../../../../../../Drivers/STM32L0xx_HAL_Driver/Src/stm32l0xx_hal_rtc.c ****     Value -= 10U;
 1244              		.loc 1 1496 0
 1245 008c 0136     		adds	r6, r6, #1
 1246              	.LVL101:
1494:../../../../../../Drivers/STM32L0xx_HAL_Driver/Src/stm32l0xx_hal_rtc.c ****   {
 1247              		.loc 1 1494 0
 1248 008e 092B     		cmp	r3, #9
 1249 0090 FAD8     		bhi	.L80
 1250 0092 3601     		lsls	r6, r6, #4
 1251              	.LVL102:
 1252 0094 F6B2     		uxtb	r6, r6
 1253              	.LVL103:
ARM GAS  C:\Users\EBANO_~1\AppData\Local\Temp\cc8t01eQ.s 			page 54


 1254              	.L93:
 1255              	.LBE136:
 1256              	.LBE135:
 613:../../../../../../Drivers/STM32L0xx_HAL_Driver/Src/stm32l0xx_hal_rtc.c ****                  ((uint32_t)RTC_ByteToBcd2(sDate->Month) << 8U) | \
 1257              		.loc 1 613 0
 1258 0096 3343     		orrs	r3, r6
 1259 0098 1B04     		lsls	r3, r3, #16
 1260              	.LVL104:
 1261              	.LBB137:
 1262              	.LBB138:
1492:../../../../../../Drivers/STM32L0xx_HAL_Driver/Src/stm32l0xx_hal_rtc.c **** 
 1263              		.loc 1 1492 0
 1264 009a 0021     		movs	r1, #0
 1265              	.LVL105:
1494:../../../../../../Drivers/STM32L0xx_HAL_Driver/Src/stm32l0xx_hal_rtc.c ****   {
 1266              		.loc 1 1494 0
 1267 009c 0928     		cmp	r0, #9
 1268 009e 06D9     		bls	.L81
 1269              	.LVL106:
 1270              	.L82:
1497:../../../../../../Drivers/STM32L0xx_HAL_Driver/Src/stm32l0xx_hal_rtc.c ****   }
 1271              		.loc 1 1497 0
 1272 00a0 0A38     		subs	r0, r0, #10
 1273              	.LVL107:
 1274 00a2 C0B2     		uxtb	r0, r0
1496:../../../../../../Drivers/STM32L0xx_HAL_Driver/Src/stm32l0xx_hal_rtc.c ****     Value -= 10U;
 1275              		.loc 1 1496 0
 1276 00a4 0131     		adds	r1, r1, #1
 1277              	.LVL108:
1494:../../../../../../Drivers/STM32L0xx_HAL_Driver/Src/stm32l0xx_hal_rtc.c ****   {
 1278              		.loc 1 1494 0
 1279 00a6 0928     		cmp	r0, #9
 1280 00a8 FAD8     		bhi	.L82
 1281 00aa 0901     		lsls	r1, r1, #4
 1282              	.LVL109:
 1283 00ac C9B2     		uxtb	r1, r1
 1284              	.LVL110:
 1285              	.L81:
 1286              	.LBE138:
 1287              	.LBE137:
 614:../../../../../../Drivers/STM32L0xx_HAL_Driver/Src/stm32l0xx_hal_rtc.c ****                  ((uint32_t)RTC_ByteToBcd2(sDate->Date)) | \
 1288              		.loc 1 614 0
 1289 00ae 0143     		orrs	r1, r0
 1290 00b0 0902     		lsls	r1, r1, #8
 1291              	.LVL111:
 1292              	.LBB139:
 1293              	.LBB140:
1494:../../../../../../Drivers/STM32L0xx_HAL_Driver/Src/stm32l0xx_hal_rtc.c ****   {
 1294              		.loc 1 1494 0
 1295 00b2 092C     		cmp	r4, #9
 1296 00b4 50D9     		bls	.L97
 1297              	.LVL112:
 1298              	.L84:
1497:../../../../../../Drivers/STM32L0xx_HAL_Driver/Src/stm32l0xx_hal_rtc.c ****   }
 1299              		.loc 1 1497 0
 1300 00b6 0A3C     		subs	r4, r4, #10
 1301              	.LVL113:
ARM GAS  C:\Users\EBANO_~1\AppData\Local\Temp\cc8t01eQ.s 			page 55


 1302 00b8 E4B2     		uxtb	r4, r4
1496:../../../../../../Drivers/STM32L0xx_HAL_Driver/Src/stm32l0xx_hal_rtc.c ****     Value -= 10U;
 1303              		.loc 1 1496 0
 1304 00ba 0132     		adds	r2, r2, #1
 1305              	.LVL114:
1494:../../../../../../Drivers/STM32L0xx_HAL_Driver/Src/stm32l0xx_hal_rtc.c ****   {
 1306              		.loc 1 1494 0
 1307 00bc 092C     		cmp	r4, #9
 1308 00be FAD8     		bhi	.L84
 1309 00c0 1201     		lsls	r2, r2, #4
 1310              	.LVL115:
 1311 00c2 D2B2     		uxtb	r2, r2
 1312              	.LVL116:
 1313              	.L83:
 1314              	.LBE140:
 1315              	.LBE139:
 613:../../../../../../Drivers/STM32L0xx_HAL_Driver/Src/stm32l0xx_hal_rtc.c ****                  ((uint32_t)RTC_ByteToBcd2(sDate->Month) << 8U) | \
 1316              		.loc 1 613 0
 1317 00c4 3B43     		orrs	r3, r7
 1318 00c6 1943     		orrs	r1, r3
 633:../../../../../../Drivers/STM32L0xx_HAL_Driver/Src/stm32l0xx_hal_rtc.c **** 
 1319              		.loc 1 633 0
 1320 00c8 CA23     		movs	r3, #202
 615:../../../../../../Drivers/STM32L0xx_HAL_Driver/Src/stm32l0xx_hal_rtc.c ****                  ((uint32_t)sDate->WeekDay << 13U));
 1321              		.loc 1 615 0
 1322 00ca 1443     		orrs	r4, r2
 633:../../../../../../Drivers/STM32L0xx_HAL_Driver/Src/stm32l0xx_hal_rtc.c **** 
 1323              		.loc 1 633 0
 1324 00cc 2A68     		ldr	r2, [r5]
 613:../../../../../../Drivers/STM32L0xx_HAL_Driver/Src/stm32l0xx_hal_rtc.c ****                  ((uint32_t)RTC_ByteToBcd2(sDate->Month) << 8U) | \
 1325              		.loc 1 613 0
 1326 00ce 0C43     		orrs	r4, r1
 1327              	.LVL117:
 633:../../../../../../Drivers/STM32L0xx_HAL_Driver/Src/stm32l0xx_hal_rtc.c **** 
 1328              		.loc 1 633 0
 1329 00d0 5362     		str	r3, [r2, #36]
 1330 00d2 773B     		subs	r3, r3, #119
 1331 00d4 5362     		str	r3, [r2, #36]
 1332              	.LVL118:
 1333              	.LBB142:
 1334              	.LBB133:
1465:../../../../../../Drivers/STM32L0xx_HAL_Driver/Src/stm32l0xx_hal_rtc.c ****   {
 1335              		.loc 1 1465 0
 1336 00d6 D368     		ldr	r3, [r2, #12]
 1337 00d8 5B06     		lsls	r3, r3, #25
 1338 00da B4D4     		bmi	.L85
 1339              	.L108:
1468:../../../../../../Drivers/STM32L0xx_HAL_Driver/Src/stm32l0xx_hal_rtc.c **** 
 1340              		.loc 1 1468 0
 1341 00dc 0123     		movs	r3, #1
 1342 00de 5B42     		rsbs	r3, r3, #0
 1343 00e0 D360     		str	r3, [r2, #12]
1470:../../../../../../Drivers/STM32L0xx_HAL_Driver/Src/stm32l0xx_hal_rtc.c ****     /* Wait till RTC is in INIT state and if Time out is reached exit */
 1344              		.loc 1 1470 0
 1345 00e2 FFF7FEFF 		bl	HAL_GetTick
 1346              	.LVL119:
1474:../../../../../../Drivers/STM32L0xx_HAL_Driver/Src/stm32l0xx_hal_rtc.c ****       {
ARM GAS  C:\Users\EBANO_~1\AppData\Local\Temp\cc8t01eQ.s 			page 56


 1347              		.loc 1 1474 0
 1348 00e6 FA23     		movs	r3, #250
 1349 00e8 9B00     		lsls	r3, r3, #2
1470:../../../../../../Drivers/STM32L0xx_HAL_Driver/Src/stm32l0xx_hal_rtc.c ****     /* Wait till RTC is in INIT state and if Time out is reached exit */
 1350              		.loc 1 1470 0
 1351 00ea 8146     		mov	r9, r0
 1352              	.LVL120:
1472:../../../../../../Drivers/STM32L0xx_HAL_Driver/Src/stm32l0xx_hal_rtc.c ****     {
 1353              		.loc 1 1472 0
 1354 00ec 4027     		movs	r7, #64
1474:../../../../../../Drivers/STM32L0xx_HAL_Driver/Src/stm32l0xx_hal_rtc.c ****       {
 1355              		.loc 1 1474 0
 1356 00ee 9846     		mov	r8, r3
 1357              	.LVL121:
 1358              	.L86:
1472:../../../../../../Drivers/STM32L0xx_HAL_Driver/Src/stm32l0xx_hal_rtc.c ****     {
 1359              		.loc 1 1472 0
 1360 00f0 2A68     		ldr	r2, [r5]
 1361 00f2 D668     		ldr	r6, [r2, #12]
 1362 00f4 3E40     		ands	r6, r7
 1363 00f6 A6D1     		bne	.L85
1474:../../../../../../Drivers/STM32L0xx_HAL_Driver/Src/stm32l0xx_hal_rtc.c ****       {
 1364              		.loc 1 1474 0
 1365 00f8 FFF7FEFF 		bl	HAL_GetTick
 1366              	.LVL122:
 1367 00fc 4B46     		mov	r3, r9
 1368 00fe C01A     		subs	r0, r0, r3
 1369 0100 4045     		cmp	r0, r8
 1370 0102 F5D9     		bls	.L86
 1371              	.LVL123:
 1372              	.LBE133:
 1373              	.LBE142:
 639:../../../../../../Drivers/STM32L0xx_HAL_Driver/Src/stm32l0xx_hal_rtc.c **** 
 1374              		.loc 1 639 0
 1375 0104 FF22     		movs	r2, #255
 1376 0106 2B68     		ldr	r3, [r5]
 647:../../../../../../Drivers/STM32L0xx_HAL_Driver/Src/stm32l0xx_hal_rtc.c ****   }
 1377              		.loc 1 647 0
 1378 0108 0120     		movs	r0, #1
 639:../../../../../../Drivers/STM32L0xx_HAL_Driver/Src/stm32l0xx_hal_rtc.c **** 
 1379              		.loc 1 639 0
 1380 010a 5A62     		str	r2, [r3, #36]
 642:../../../../../../Drivers/STM32L0xx_HAL_Driver/Src/stm32l0xx_hal_rtc.c **** 
 1381              		.loc 1 642 0
 1382 010c 2123     		movs	r3, #33
 1383 010e FB3A     		subs	r2, r2, #251
 1384 0110 EA54     		strb	r2, [r5, r3]
 645:../../../../../../Drivers/STM32L0xx_HAL_Driver/Src/stm32l0xx_hal_rtc.c **** 
 1385              		.loc 1 645 0
 1386 0112 013B     		subs	r3, r3, #1
 1387 0114 EE54     		strb	r6, [r5, r3]
 647:../../../../../../Drivers/STM32L0xx_HAL_Driver/Src/stm32l0xx_hal_rtc.c ****   }
 1388              		.loc 1 647 0
 1389 0116 A9E7     		b	.L106
 1390              	.LVL124:
 1391              	.L95:
 596:../../../../../../Drivers/STM32L0xx_HAL_Driver/Src/stm32l0xx_hal_rtc.c **** 
ARM GAS  C:\Users\EBANO_~1\AppData\Local\Temp\cc8t01eQ.s 			page 57


 1392              		.loc 1 596 0
 1393 0118 0220     		movs	r0, #2
 1394 011a A7E7     		b	.L106
 1395              	.LVL125:
 1396              	.L109:
 1397              	.LBB143:
 1398              	.LBB144:
1398:../../../../../../Drivers/STM32L0xx_HAL_Driver/Src/stm32l0xx_hal_rtc.c **** 
 1399              		.loc 1 1398 0
 1400 011c D368     		ldr	r3, [r2, #12]
 1401 011e 2031     		adds	r1, r1, #32
 1402 0120 8B43     		bics	r3, r1
 1403 0122 D360     		str	r3, [r2, #12]
1400:../../../../../../Drivers/STM32L0xx_HAL_Driver/Src/stm32l0xx_hal_rtc.c **** 
 1404              		.loc 1 1400 0
 1405 0124 FFF7FEFF 		bl	HAL_GetTick
 1406              	.LVL126:
1405:../../../../../../Drivers/STM32L0xx_HAL_Driver/Src/stm32l0xx_hal_rtc.c ****     {
 1407              		.loc 1 1405 0
 1408 0128 FA27     		movs	r7, #250
1400:../../../../../../Drivers/STM32L0xx_HAL_Driver/Src/stm32l0xx_hal_rtc.c **** 
 1409              		.loc 1 1400 0
 1410 012a 8046     		mov	r8, r0
 1411              	.LVL127:
1403:../../../../../../Drivers/STM32L0xx_HAL_Driver/Src/stm32l0xx_hal_rtc.c ****   {
 1412              		.loc 1 1403 0
 1413 012c 2026     		movs	r6, #32
1405:../../../../../../Drivers/STM32L0xx_HAL_Driver/Src/stm32l0xx_hal_rtc.c ****     {
 1414              		.loc 1 1405 0
 1415 012e BF00     		lsls	r7, r7, #2
 1416              	.LVL128:
 1417              	.L90:
1403:../../../../../../Drivers/STM32L0xx_HAL_Driver/Src/stm32l0xx_hal_rtc.c ****   {
 1418              		.loc 1 1403 0
 1419 0130 2A68     		ldr	r2, [r5]
 1420 0132 D468     		ldr	r4, [r2, #12]
 1421 0134 3440     		ands	r4, r6
 1422 0136 00D0     		beq	.LCB1328
 1423 0138 8FE7     		b	.L89	@long jump
 1424              	.LCB1328:
1405:../../../../../../Drivers/STM32L0xx_HAL_Driver/Src/stm32l0xx_hal_rtc.c ****     {
 1425              		.loc 1 1405 0
 1426 013a FFF7FEFF 		bl	HAL_GetTick
 1427              	.LVL129:
 1428 013e 4346     		mov	r3, r8
 1429 0140 C01A     		subs	r0, r0, r3
 1430 0142 B842     		cmp	r0, r7
 1431 0144 F4D9     		bls	.L90
 1432              	.LVL130:
 1433              	.LBE144:
 1434              	.LBE143:
 663:../../../../../../Drivers/STM32L0xx_HAL_Driver/Src/stm32l0xx_hal_rtc.c **** 
 1435              		.loc 1 663 0
 1436 0146 FF22     		movs	r2, #255
 1437 0148 2B68     		ldr	r3, [r5]
 670:../../../../../../Drivers/STM32L0xx_HAL_Driver/Src/stm32l0xx_hal_rtc.c ****       }
 1438              		.loc 1 670 0
ARM GAS  C:\Users\EBANO_~1\AppData\Local\Temp\cc8t01eQ.s 			page 58


 1439 014a 0120     		movs	r0, #1
 663:../../../../../../Drivers/STM32L0xx_HAL_Driver/Src/stm32l0xx_hal_rtc.c **** 
 1440              		.loc 1 663 0
 1441 014c 5A62     		str	r2, [r3, #36]
 665:../../../../../../Drivers/STM32L0xx_HAL_Driver/Src/stm32l0xx_hal_rtc.c **** 
 1442              		.loc 1 665 0
 1443 014e 2123     		movs	r3, #33
 1444 0150 FB3A     		subs	r2, r2, #251
 1445 0152 EA54     		strb	r2, [r5, r3]
 668:../../../../../../Drivers/STM32L0xx_HAL_Driver/Src/stm32l0xx_hal_rtc.c **** 
 1446              		.loc 1 668 0
 1447 0154 AC55     		strb	r4, [r5, r6]
 670:../../../../../../Drivers/STM32L0xx_HAL_Driver/Src/stm32l0xx_hal_rtc.c ****       }
 1448              		.loc 1 670 0
 1449 0156 89E7     		b	.L106
 1450              	.LVL131:
 1451              	.L97:
 1452              	.LBB145:
 1453              	.LBB141:
1494:../../../../../../Drivers/STM32L0xx_HAL_Driver/Src/stm32l0xx_hal_rtc.c ****   {
 1454              		.loc 1 1494 0
 1455 0158 0022     		movs	r2, #0
 1456              	.LVL132:
 1457 015a B3E7     		b	.L83
 1458              	.L111:
 1459              		.align	2
 1460              	.L110:
 1461 015c 3FFFFF00 		.word	16777023
 1462              	.LBE141:
 1463              	.LBE145:
 1464              		.cfi_endproc
 1465              	.LFE45:
 1466              		.size	HAL_RTC_SetDate, .-HAL_RTC_SetDate
 1467              		.section	.text.HAL_RTC_GetDate,"ax",%progbits
 1468              		.align	1
 1469              		.p2align 2,,3
 1470              		.global	HAL_RTC_GetDate
 1471              		.syntax unified
 1472              		.code	16
 1473              		.thumb_func
 1474              		.fpu softvfp
 1475              		.type	HAL_RTC_GetDate, %function
 1476              	HAL_RTC_GetDate:
 1477              	.LFB46:
 700:../../../../../../Drivers/STM32L0xx_HAL_Driver/Src/stm32l0xx_hal_rtc.c ****   uint32_t datetmpreg = 0U;
 1478              		.loc 1 700 0
 1479              		.cfi_startproc
 1480              		@ args = 0, pretend = 0, frame = 0
 1481              		@ frame_needed = 0, uses_anonymous_args = 0
 1482              	.LVL133:
 707:../../../../../../Drivers/STM32L0xx_HAL_Driver/Src/stm32l0xx_hal_rtc.c **** 
 1483              		.loc 1 707 0
 1484 0000 0368     		ldr	r3, [r0]
 1485 0002 1548     		ldr	r0, .L114
 1486              	.LVL134:
 1487 0004 5B68     		ldr	r3, [r3, #4]
 700:../../../../../../Drivers/STM32L0xx_HAL_Driver/Src/stm32l0xx_hal_rtc.c ****   uint32_t datetmpreg = 0U;
ARM GAS  C:\Users\EBANO_~1\AppData\Local\Temp\cc8t01eQ.s 			page 59


 1488              		.loc 1 700 0
 1489 0006 F0B5     		push	{r4, r5, r6, r7, lr}
 1490              	.LCFI7:
 1491              		.cfi_def_cfa_offset 20
 1492              		.cfi_offset 4, -20
 1493              		.cfi_offset 5, -16
 1494              		.cfi_offset 6, -12
 1495              		.cfi_offset 7, -8
 1496              		.cfi_offset 14, -4
 707:../../../../../../Drivers/STM32L0xx_HAL_Driver/Src/stm32l0xx_hal_rtc.c **** 
 1497              		.loc 1 707 0
 1498 0008 0340     		ands	r3, r0
 1499              	.LVL135:
 711:../../../../../../Drivers/STM32L0xx_HAL_Driver/Src/stm32l0xx_hal_rtc.c ****   sDate->Date = (uint8_t)(datetmpreg & (RTC_DR_DT | RTC_DR_DU));
 1500              		.loc 1 711 0
 1501 000a 1F20     		movs	r0, #31
 1502 000c 1C0A     		lsrs	r4, r3, #8
 710:../../../../../../Drivers/STM32L0xx_HAL_Driver/Src/stm32l0xx_hal_rtc.c ****   sDate->Month = (uint8_t)((datetmpreg & (RTC_DR_MT | RTC_DR_MU)) >> 8U);
 1503              		.loc 1 710 0
 1504 000e 1F0C     		lsrs	r7, r3, #16
 712:../../../../../../Drivers/STM32L0xx_HAL_Driver/Src/stm32l0xx_hal_rtc.c ****   sDate->WeekDay = (uint8_t)((datetmpreg & (RTC_DR_WDU)) >> 13U); 
 1505              		.loc 1 712 0
 1506 0010 DDB2     		uxtb	r5, r3
 711:../../../../../../Drivers/STM32L0xx_HAL_Driver/Src/stm32l0xx_hal_rtc.c ****   sDate->Date = (uint8_t)(datetmpreg & (RTC_DR_DT | RTC_DR_DU));
 1507              		.loc 1 711 0
 1508 0012 E4B2     		uxtb	r4, r4
 713:../../../../../../Drivers/STM32L0xx_HAL_Driver/Src/stm32l0xx_hal_rtc.c **** 
 1509              		.loc 1 713 0
 1510 0014 1B04     		lsls	r3, r3, #16
 1511              	.LVL136:
 711:../../../../../../Drivers/STM32L0xx_HAL_Driver/Src/stm32l0xx_hal_rtc.c ****   sDate->Date = (uint8_t)(datetmpreg & (RTC_DR_DT | RTC_DR_DU));
 1512              		.loc 1 711 0
 1513 0016 2040     		ands	r0, r4
 713:../../../../../../Drivers/STM32L0xx_HAL_Driver/Src/stm32l0xx_hal_rtc.c **** 
 1514              		.loc 1 713 0
 1515 0018 5B0F     		lsrs	r3, r3, #29
 710:../../../../../../Drivers/STM32L0xx_HAL_Driver/Src/stm32l0xx_hal_rtc.c ****   sDate->Month = (uint8_t)((datetmpreg & (RTC_DR_MT | RTC_DR_MU)) >> 8U);
 1516              		.loc 1 710 0
 1517 001a CF70     		strb	r7, [r1, #3]
 711:../../../../../../Drivers/STM32L0xx_HAL_Driver/Src/stm32l0xx_hal_rtc.c ****   sDate->Date = (uint8_t)(datetmpreg & (RTC_DR_DT | RTC_DR_DU));
 1518              		.loc 1 711 0
 1519 001c 4870     		strb	r0, [r1, #1]
 712:../../../../../../Drivers/STM32L0xx_HAL_Driver/Src/stm32l0xx_hal_rtc.c ****   sDate->WeekDay = (uint8_t)((datetmpreg & (RTC_DR_WDU)) >> 13U); 
 1520              		.loc 1 712 0
 1521 001e 8D70     		strb	r5, [r1, #2]
 713:../../../../../../Drivers/STM32L0xx_HAL_Driver/Src/stm32l0xx_hal_rtc.c **** 
 1522              		.loc 1 713 0
 1523 0020 0B70     		strb	r3, [r1]
 716:../../../../../../Drivers/STM32L0xx_HAL_Driver/Src/stm32l0xx_hal_rtc.c ****   {
 1524              		.loc 1 716 0
 1525 0022 002A     		cmp	r2, #0
 1526 0024 15D1     		bne	.L113
 1527              	.LBB146:
 1528              	.LBB147:
 1529              		.loc 1 1512 0
 1530 0026 0F26     		movs	r6, #15
1511:../../../../../../Drivers/STM32L0xx_HAL_Driver/Src/stm32l0xx_hal_rtc.c ****   return (tmp + (Value & (uint8_t)0x0FU));
ARM GAS  C:\Users\EBANO_~1\AppData\Local\Temp\cc8t01eQ.s 			page 60


 1531              		.loc 1 1511 0
 1532 0028 3B09     		lsrs	r3, r7, #4
 1533 002a 9A00     		lsls	r2, r3, #2
 1534              	.LVL137:
 1535 002c D218     		adds	r2, r2, r3
 1536 002e 5200     		lsls	r2, r2, #1
 1537              		.loc 1 1512 0
 1538 0030 3740     		ands	r7, r6
 1539              	.LBE147:
 1540              	.LBE146:
 1541              	.LBB149:
 1542              	.LBB150:
1511:../../../../../../Drivers/STM32L0xx_HAL_Driver/Src/stm32l0xx_hal_rtc.c ****   return (tmp + (Value & (uint8_t)0x0FU));
 1543              		.loc 1 1511 0
 1544 0032 0309     		lsrs	r3, r0, #4
 1545              	.LBE150:
 1546              	.LBE149:
 1547              	.LBB155:
 1548              	.LBB148:
 1549              		.loc 1 1512 0
 1550 0034 D219     		adds	r2, r2, r7
 1551              	.LBE148:
 1552              	.LBE155:
 1553              	.LBB156:
 1554              	.LBB151:
1511:../../../../../../Drivers/STM32L0xx_HAL_Driver/Src/stm32l0xx_hal_rtc.c ****   return (tmp + (Value & (uint8_t)0x0FU));
 1555              		.loc 1 1511 0
 1556 0036 9800     		lsls	r0, r3, #2
 1557              	.LBE151:
 1558              	.LBE156:
 719:../../../../../../Drivers/STM32L0xx_HAL_Driver/Src/stm32l0xx_hal_rtc.c ****     sDate->Month = (uint8_t)RTC_Bcd2ToByte(sDate->Month);
 1559              		.loc 1 719 0
 1560 0038 CA70     		strb	r2, [r1, #3]
 1561              	.LBB157:
 1562              	.LBB158:
1511:../../../../../../Drivers/STM32L0xx_HAL_Driver/Src/stm32l0xx_hal_rtc.c ****   return (tmp + (Value & (uint8_t)0x0FU));
 1563              		.loc 1 1511 0
 1564 003a 2A09     		lsrs	r2, r5, #4
 1565              	.LBE158:
 1566              	.LBE157:
 1567              	.LBB162:
 1568              	.LBB152:
 1569 003c C018     		adds	r0, r0, r3
 1570              	.LBE152:
 1571              	.LBE162:
 1572              	.LBB163:
 1573              	.LBB159:
 1574 003e 9300     		lsls	r3, r2, #2
 1575 0040 9B18     		adds	r3, r3, r2
 1576              	.LBE159:
 1577              	.LBE163:
 1578              	.LBB164:
 1579              	.LBB153:
 1580 0042 4000     		lsls	r0, r0, #1
 1581              		.loc 1 1512 0
 1582 0044 3440     		ands	r4, r6
 1583              	.LBE153:
ARM GAS  C:\Users\EBANO_~1\AppData\Local\Temp\cc8t01eQ.s 			page 61


 1584              	.LBE164:
 1585              	.LBB165:
 1586              	.LBB160:
1511:../../../../../../Drivers/STM32L0xx_HAL_Driver/Src/stm32l0xx_hal_rtc.c ****   return (tmp + (Value & (uint8_t)0x0FU));
 1587              		.loc 1 1511 0
 1588 0046 5B00     		lsls	r3, r3, #1
 1589              		.loc 1 1512 0
 1590 0048 3540     		ands	r5, r6
 1591              	.LBE160:
 1592              	.LBE165:
 1593              	.LBB166:
 1594              	.LBB154:
 1595 004a 0419     		adds	r4, r0, r4
 1596              	.LBE154:
 1597              	.LBE166:
 1598              	.LBB167:
 1599              	.LBB161:
 1600 004c 5B19     		adds	r3, r3, r5
 1601              	.LBE161:
 1602              	.LBE167:
 720:../../../../../../Drivers/STM32L0xx_HAL_Driver/Src/stm32l0xx_hal_rtc.c ****     sDate->Date = (uint8_t)RTC_Bcd2ToByte(sDate->Date);
 1603              		.loc 1 720 0
 1604 004e 4C70     		strb	r4, [r1, #1]
 721:../../../../../../Drivers/STM32L0xx_HAL_Driver/Src/stm32l0xx_hal_rtc.c ****   }
 1605              		.loc 1 721 0
 1606 0050 8B70     		strb	r3, [r1, #2]
 1607              	.L113:
 724:../../../../../../Drivers/STM32L0xx_HAL_Driver/Src/stm32l0xx_hal_rtc.c **** 
 1608              		.loc 1 724 0
 1609 0052 0020     		movs	r0, #0
 1610              		@ sp needed
 1611 0054 F0BD     		pop	{r4, r5, r6, r7, pc}
 1612              	.L115:
 1613 0056 C046     		.align	2
 1614              	.L114:
 1615 0058 3FFFFF00 		.word	16777023
 1616              		.cfi_endproc
 1617              	.LFE46:
 1618              		.size	HAL_RTC_GetDate, .-HAL_RTC_GetDate
 1619              		.section	.text.HAL_RTC_SetAlarm,"ax",%progbits
 1620              		.align	1
 1621              		.p2align 2,,3
 1622              		.global	HAL_RTC_SetAlarm
 1623              		.syntax unified
 1624              		.code	16
 1625              		.thumb_func
 1626              		.fpu softvfp
 1627              		.type	HAL_RTC_SetAlarm, %function
 1628              	HAL_RTC_SetAlarm:
 1629              	.LFB47:
 754:../../../../../../Drivers/STM32L0xx_HAL_Driver/Src/stm32l0xx_hal_rtc.c ****   uint32_t tickstart = 0U;
 1630              		.loc 1 754 0
 1631              		.cfi_startproc
 1632              		@ args = 0, pretend = 0, frame = 0
 1633              		@ frame_needed = 0, uses_anonymous_args = 0
 1634              	.LVL138:
 1635 0000 F0B5     		push	{r4, r5, r6, r7, lr}
ARM GAS  C:\Users\EBANO_~1\AppData\Local\Temp\cc8t01eQ.s 			page 62


 1636              	.LCFI8:
 1637              		.cfi_def_cfa_offset 20
 1638              		.cfi_offset 4, -20
 1639              		.cfi_offset 5, -16
 1640              		.cfi_offset 6, -12
 1641              		.cfi_offset 7, -8
 1642              		.cfi_offset 14, -4
 1643 0002 D646     		mov	lr, r10
 1644 0004 4F46     		mov	r7, r9
 1645 0006 4646     		mov	r6, r8
 767:../../../../../../Drivers/STM32L0xx_HAL_Driver/Src/stm32l0xx_hal_rtc.c **** 
 1646              		.loc 1 767 0
 1647 0008 2023     		movs	r3, #32
 754:../../../../../../Drivers/STM32L0xx_HAL_Driver/Src/stm32l0xx_hal_rtc.c ****   uint32_t tickstart = 0U;
 1648              		.loc 1 754 0
 1649 000a C0B5     		push	{r6, r7, lr}
 1650              	.LCFI9:
 1651              		.cfi_def_cfa_offset 32
 1652              		.cfi_offset 8, -32
 1653              		.cfi_offset 9, -28
 1654              		.cfi_offset 10, -24
 754:../../../../../../Drivers/STM32L0xx_HAL_Driver/Src/stm32l0xx_hal_rtc.c ****   uint32_t tickstart = 0U;
 1655              		.loc 1 754 0
 1656 000c 0500     		movs	r5, r0
 767:../../../../../../Drivers/STM32L0xx_HAL_Driver/Src/stm32l0xx_hal_rtc.c **** 
 1657              		.loc 1 767 0
 1658 000e C05C     		ldrb	r0, [r0, r3]
 1659              	.LVL139:
 1660 0010 0128     		cmp	r0, #1
 1661 0012 00D1     		bne	.LCB1535
 1662 0014 D8E0     		b	.L138	@long jump
 1663              	.LCB1535:
 767:../../../../../../Drivers/STM32L0xx_HAL_Driver/Src/stm32l0xx_hal_rtc.c **** 
 1664              		.loc 1 767 0 is_stmt 0 discriminator 2
 1665 0016 0120     		movs	r0, #1
 1666 0018 2F68     		ldr	r7, [r5]
 1667 001a E854     		strb	r0, [r5, r3]
 769:../../../../../../Drivers/STM32L0xx_HAL_Driver/Src/stm32l0xx_hal_rtc.c **** 
 1668              		.loc 1 769 0 is_stmt 1 discriminator 2
 1669 001c 0133     		adds	r3, r3, #1
 1670 001e 0130     		adds	r0, r0, #1
 1671 0020 E854     		strb	r0, [r5, r3]
 773:../../../../../../Drivers/STM32L0xx_HAL_Driver/Src/stm32l0xx_hal_rtc.c ****     {
 1672              		.loc 1 773 0 discriminator 2
 1673 0022 BB68     		ldr	r3, [r7, #8]
 771:../../../../../../Drivers/STM32L0xx_HAL_Driver/Src/stm32l0xx_hal_rtc.c ****   {
 1674              		.loc 1 771 0 discriminator 2
 1675 0024 002A     		cmp	r2, #0
 1676 0026 53D0     		beq	.L150
 805:../../../../../../Drivers/STM32L0xx_HAL_Driver/Src/stm32l0xx_hal_rtc.c ****     {
 1677              		.loc 1 805 0
 1678 0028 4026     		movs	r6, #64
 1679 002a 3340     		ands	r3, r6
 1680 002c 00D1     		bne	.LCB1548
 1681 002e C7E0     		b	.L130	@long jump
 1682              	.LCB1548:
 1683 0030 CB78     		ldrb	r3, [r1, #3]
ARM GAS  C:\Users\EBANO_~1\AppData\Local\Temp\cc8t01eQ.s 			page 63


 1684 0032 1B04     		lsls	r3, r3, #16
 1685              	.L131:
 1686              	.LVL140:
 831:../../../../../../Drivers/STM32L0xx_HAL_Driver/Src/stm32l0xx_hal_rtc.c ****               ((uint32_t)(sAlarm->AlarmTime.Minutes) << 8U) | \
 1687              		.loc 1 831 0
 1688 0034 4A69     		ldr	r2, [r1, #20]
 1689              	.LVL141:
 1690 0036 CE69     		ldr	r6, [r1, #28]
 1691 0038 1643     		orrs	r6, r2
 833:../../../../../../Drivers/STM32L0xx_HAL_Driver/Src/stm32l0xx_hal_rtc.c ****               ((uint32_t)(sAlarm->AlarmTime.TimeFormat) << 16U) | \
 1692              		.loc 1 833 0
 1693 003a 8A78     		ldrb	r2, [r1, #2]
 831:../../../../../../Drivers/STM32L0xx_HAL_Driver/Src/stm32l0xx_hal_rtc.c ****               ((uint32_t)(sAlarm->AlarmTime.Minutes) << 8U) | \
 1694              		.loc 1 831 0
 1695 003c 1643     		orrs	r6, r2
 1696 003e 0A78     		ldrb	r2, [r1]
 1697 0040 1204     		lsls	r2, r2, #16
 1698 0042 1643     		orrs	r6, r2
 832:../../../../../../Drivers/STM32L0xx_HAL_Driver/Src/stm32l0xx_hal_rtc.c ****               ((uint32_t) sAlarm->AlarmTime.Seconds) | \
 1699              		.loc 1 832 0
 1700 0044 4A78     		ldrb	r2, [r1, #1]
 1701 0046 1202     		lsls	r2, r2, #8
 831:../../../../../../Drivers/STM32L0xx_HAL_Driver/Src/stm32l0xx_hal_rtc.c ****               ((uint32_t)(sAlarm->AlarmTime.Minutes) << 8U) | \
 1702              		.loc 1 831 0
 1703 0048 1643     		orrs	r6, r2
 835:../../../../../../Drivers/STM32L0xx_HAL_Driver/Src/stm32l0xx_hal_rtc.c ****               ((uint32_t)sAlarm->AlarmDateWeekDaySel) | \
 1704              		.loc 1 835 0
 1705 004a 2022     		movs	r2, #32
 1706 004c 8A5C     		ldrb	r2, [r1, r2]
 1707 004e 1206     		lsls	r2, r2, #24
 831:../../../../../../Drivers/STM32L0xx_HAL_Driver/Src/stm32l0xx_hal_rtc.c ****               ((uint32_t)(sAlarm->AlarmTime.Minutes) << 8U) | \
 1708              		.loc 1 831 0
 1709 0050 1643     		orrs	r6, r2
 1710 0052 1E43     		orrs	r6, r3
 1711 0054 B046     		mov	r8, r6
 1712              	.LVL142:
 1713              	.L129:
 841:../../../../../../Drivers/STM32L0xx_HAL_Driver/Src/stm32l0xx_hal_rtc.c **** 
 1714              		.loc 1 841 0
 1715 0056 8A69     		ldr	r2, [r1, #24]
 1716 0058 4B68     		ldr	r3, [r1, #4]
 1717 005a 1343     		orrs	r3, r2
 1718 005c 9A46     		mov	r10, r3
 1719              	.LVL143:
 844:../../../../../../Drivers/STM32L0xx_HAL_Driver/Src/stm32l0xx_hal_rtc.c **** 
 1720              		.loc 1 844 0
 1721 005e CA23     		movs	r3, #202
 1722              	.LVL144:
 847:../../../../../../Drivers/STM32L0xx_HAL_Driver/Src/stm32l0xx_hal_rtc.c ****   {
 1723              		.loc 1 847 0
 1724 0060 4A6A     		ldr	r2, [r1, #36]
 844:../../../../../../Drivers/STM32L0xx_HAL_Driver/Src/stm32l0xx_hal_rtc.c **** 
 1725              		.loc 1 844 0
 1726 0062 7B62     		str	r3, [r7, #36]
 1727 0064 773B     		subs	r3, r3, #119
 1728 0066 7B62     		str	r3, [r7, #36]
 847:../../../../../../Drivers/STM32L0xx_HAL_Driver/Src/stm32l0xx_hal_rtc.c ****   {
ARM GAS  C:\Users\EBANO_~1\AppData\Local\Temp\cc8t01eQ.s 			page 64


 1729              		.loc 1 847 0
 1730 0068 AD33     		adds	r3, r3, #173
 1731 006a 9A42     		cmp	r2, r3
 1732 006c 00D1     		bne	.LCB1595
 1733 006e 84E0     		b	.L151	@long jump
 1734              	.LCB1595:
 882:../../../../../../Drivers/STM32L0xx_HAL_Driver/Src/stm32l0xx_hal_rtc.c **** 
 1735              		.loc 1 882 0
 1736 0070 BB68     		ldr	r3, [r7, #8]
 1737 0072 584A     		ldr	r2, .L152
 891:../../../../../../Drivers/STM32L0xx_HAL_Driver/Src/stm32l0xx_hal_rtc.c ****       {
 1738              		.loc 1 891 0
 1739 0074 FA26     		movs	r6, #250
 882:../../../../../../Drivers/STM32L0xx_HAL_Driver/Src/stm32l0xx_hal_rtc.c **** 
 1740              		.loc 1 882 0
 1741 0076 1340     		ands	r3, r2
 1742 0078 BB60     		str	r3, [r7, #8]
 885:../../../../../../Drivers/STM32L0xx_HAL_Driver/Src/stm32l0xx_hal_rtc.c **** 
 1743              		.loc 1 885 0
 1744 007a BB68     		ldr	r3, [r7, #8]
 1745 007c 564A     		ldr	r2, .L152+4
 891:../../../../../../Drivers/STM32L0xx_HAL_Driver/Src/stm32l0xx_hal_rtc.c ****       {
 1746              		.loc 1 891 0
 1747 007e B600     		lsls	r6, r6, #2
 885:../../../../../../Drivers/STM32L0xx_HAL_Driver/Src/stm32l0xx_hal_rtc.c **** 
 1748              		.loc 1 885 0
 1749 0080 1340     		ands	r3, r2
 1750 0082 BB60     		str	r3, [r7, #8]
 887:../../../../../../Drivers/STM32L0xx_HAL_Driver/Src/stm32l0xx_hal_rtc.c ****     /* Wait till RTC ALRBWF flag is set and if Time out is reached exit */
 1751              		.loc 1 887 0
 1752 0084 FFF7FEFF 		bl	HAL_GetTick
 1753              	.LVL145:
 889:../../../../../../Drivers/STM32L0xx_HAL_Driver/Src/stm32l0xx_hal_rtc.c ****     {
 1754              		.loc 1 889 0
 1755 0088 0227     		movs	r7, #2
 887:../../../../../../Drivers/STM32L0xx_HAL_Driver/Src/stm32l0xx_hal_rtc.c ****     /* Wait till RTC ALRBWF flag is set and if Time out is reached exit */
 1756              		.loc 1 887 0
 1757 008a 8146     		mov	r9, r0
 1758              	.LVL146:
 889:../../../../../../Drivers/STM32L0xx_HAL_Driver/Src/stm32l0xx_hal_rtc.c ****     {
 1759              		.loc 1 889 0
 1760 008c 05E0     		b	.L136
 1761              	.LVL147:
 1762              	.L137:
 891:../../../../../../Drivers/STM32L0xx_HAL_Driver/Src/stm32l0xx_hal_rtc.c ****       {
 1763              		.loc 1 891 0
 1764 008e FFF7FEFF 		bl	HAL_GetTick
 1765              	.LVL148:
 1766 0092 4B46     		mov	r3, r9
 1767 0094 C01A     		subs	r0, r0, r3
 1768 0096 B042     		cmp	r0, r6
 1769 0098 65D8     		bhi	.L149
 1770              	.L136:
 889:../../../../../../Drivers/STM32L0xx_HAL_Driver/Src/stm32l0xx_hal_rtc.c ****     {
 1771              		.loc 1 889 0
 1772 009a 2B68     		ldr	r3, [r5]
 1773 009c DC68     		ldr	r4, [r3, #12]
ARM GAS  C:\Users\EBANO_~1\AppData\Local\Temp\cc8t01eQ.s 			page 65


 1774 009e 3C40     		ands	r4, r7
 1775 00a0 F5D0     		beq	.L137
 905:../../../../../../Drivers/STM32L0xx_HAL_Driver/Src/stm32l0xx_hal_rtc.c ****     /* Configure the Alarm B Sub Second register */
 1776              		.loc 1 905 0
 1777 00a2 4246     		mov	r2, r8
 1778 00a4 1A62     		str	r2, [r3, #32]
 907:../../../../../../Drivers/STM32L0xx_HAL_Driver/Src/stm32l0xx_hal_rtc.c ****     /* Configure the Alarm state: Enable Alarm */
 1779              		.loc 1 907 0
 1780 00a6 5246     		mov	r2, r10
 1781 00a8 9A64     		str	r2, [r3, #72]
 909:../../../../../../Drivers/STM32L0xx_HAL_Driver/Src/stm32l0xx_hal_rtc.c ****   }
 1782              		.loc 1 909 0
 1783 00aa 8022     		movs	r2, #128
 1784 00ac 9968     		ldr	r1, [r3, #8]
 1785 00ae 9200     		lsls	r2, r2, #2
 1786 00b0 0A43     		orrs	r2, r1
 1787 00b2 9A60     		str	r2, [r3, #8]
 1788              	.L135:
 913:../../../../../../Drivers/STM32L0xx_HAL_Driver/Src/stm32l0xx_hal_rtc.c **** 
 1789              		.loc 1 913 0
 1790 00b4 FF22     		movs	r2, #255
 1791 00b6 5A62     		str	r2, [r3, #36]
 916:../../../../../../Drivers/STM32L0xx_HAL_Driver/Src/stm32l0xx_hal_rtc.c **** 
 1792              		.loc 1 916 0
 1793 00b8 2123     		movs	r3, #33
 1794 00ba FE3A     		subs	r2, r2, #254
 1795 00bc EA54     		strb	r2, [r5, r3]
 919:../../../../../../Drivers/STM32L0xx_HAL_Driver/Src/stm32l0xx_hal_rtc.c **** 
 1796              		.loc 1 919 0
 1797 00be 0022     		movs	r2, #0
 921:../../../../../../Drivers/STM32L0xx_HAL_Driver/Src/stm32l0xx_hal_rtc.c **** }
 1798              		.loc 1 921 0
 1799 00c0 0020     		movs	r0, #0
 919:../../../../../../Drivers/STM32L0xx_HAL_Driver/Src/stm32l0xx_hal_rtc.c **** 
 1800              		.loc 1 919 0
 1801 00c2 013B     		subs	r3, r3, #1
 1802 00c4 EA54     		strb	r2, [r5, r3]
 1803              	.LVL149:
 1804              	.L117:
 922:../../../../../../Drivers/STM32L0xx_HAL_Driver/Src/stm32l0xx_hal_rtc.c **** 
 1805              		.loc 1 922 0
 1806              		@ sp needed
 1807              	.LVL150:
 1808 00c6 1CBC     		pop	{r2, r3, r4}
 1809 00c8 9046     		mov	r8, r2
 1810 00ca 9946     		mov	r9, r3
 1811 00cc A246     		mov	r10, r4
 1812 00ce F0BD     		pop	{r4, r5, r6, r7, pc}
 1813              	.LVL151:
 1814              	.L150:
 773:../../../../../../Drivers/STM32L0xx_HAL_Driver/Src/stm32l0xx_hal_rtc.c ****     {
 1815              		.loc 1 773 0
 1816 00d0 4024     		movs	r4, #64
 1817 00d2 1C40     		ands	r4, r3
 1818 00d4 A446     		mov	ip, r4
 1819 00d6 75D0     		beq	.L119
 1820 00d8 CC78     		ldrb	r4, [r1, #3]
ARM GAS  C:\Users\EBANO_~1\AppData\Local\Temp\cc8t01eQ.s 			page 66


 1821 00da 2304     		lsls	r3, r4, #16
 1822 00dc 9C46     		mov	ip, r3
 1823              	.L120:
 795:../../../../../../Drivers/STM32L0xx_HAL_Driver/Src/stm32l0xx_hal_rtc.c ****               ((uint32_t)RTC_ByteToBcd2(sAlarm->AlarmTime.Minutes) << 8U) | \
 1824              		.loc 1 795 0
 1825 00de 0C78     		ldrb	r4, [r1]
 1826              	.LVL152:
 786:../../../../../../Drivers/STM32L0xx_HAL_Driver/Src/stm32l0xx_hal_rtc.c ****     {
 1827              		.loc 1 786 0
 1828 00e0 CE69     		ldr	r6, [r1, #28]
 1829              	.LBB168:
 1830              	.LBB169:
1492:../../../../../../Drivers/STM32L0xx_HAL_Driver/Src/stm32l0xx_hal_rtc.c **** 
 1831              		.loc 1 1492 0
 1832 00e2 0023     		movs	r3, #0
1494:../../../../../../Drivers/STM32L0xx_HAL_Driver/Src/stm32l0xx_hal_rtc.c ****   {
 1833              		.loc 1 1494 0
 1834 00e4 092C     		cmp	r4, #9
 1835 00e6 06D9     		bls	.L121
 1836              	.LVL153:
 1837              	.L122:
1497:../../../../../../Drivers/STM32L0xx_HAL_Driver/Src/stm32l0xx_hal_rtc.c ****   }
 1838              		.loc 1 1497 0
 1839 00e8 0A3C     		subs	r4, r4, #10
 1840              	.LVL154:
 1841 00ea E4B2     		uxtb	r4, r4
1496:../../../../../../Drivers/STM32L0xx_HAL_Driver/Src/stm32l0xx_hal_rtc.c ****     Value -= 10U;
 1842              		.loc 1 1496 0
 1843 00ec 0133     		adds	r3, r3, #1
 1844              	.LVL155:
1494:../../../../../../Drivers/STM32L0xx_HAL_Driver/Src/stm32l0xx_hal_rtc.c ****   {
 1845              		.loc 1 1494 0
 1846 00ee 092C     		cmp	r4, #9
 1847 00f0 FAD8     		bhi	.L122
 1848 00f2 1B01     		lsls	r3, r3, #4
 1849              	.LVL156:
 1850 00f4 DBB2     		uxtb	r3, r3
 1851              	.L121:
 1852              	.LVL157:
 1853              	.LBE169:
 1854              	.LBE168:
 795:../../../../../../Drivers/STM32L0xx_HAL_Driver/Src/stm32l0xx_hal_rtc.c ****               ((uint32_t)RTC_ByteToBcd2(sAlarm->AlarmTime.Minutes) << 8U) | \
 1855              		.loc 1 795 0
 1856 00f6 1C43     		orrs	r4, r3
 796:../../../../../../Drivers/STM32L0xx_HAL_Driver/Src/stm32l0xx_hal_rtc.c ****               ((uint32_t)RTC_ByteToBcd2(sAlarm->AlarmTime.Seconds)) | \
 1857              		.loc 1 796 0
 1858 00f8 4878     		ldrb	r0, [r1, #1]
 1859              	.LVL158:
 795:../../../../../../Drivers/STM32L0xx_HAL_Driver/Src/stm32l0xx_hal_rtc.c ****               ((uint32_t)RTC_ByteToBcd2(sAlarm->AlarmTime.Minutes) << 8U) | \
 1860              		.loc 1 795 0
 1861 00fa 2304     		lsls	r3, r4, #16
 1862 00fc 9946     		mov	r9, r3
 1863              	.LBB170:
 1864              	.LBB171:
1492:../../../../../../Drivers/STM32L0xx_HAL_Driver/Src/stm32l0xx_hal_rtc.c **** 
 1865              		.loc 1 1492 0
 1866 00fe 0023     		movs	r3, #0
ARM GAS  C:\Users\EBANO_~1\AppData\Local\Temp\cc8t01eQ.s 			page 67


1494:../../../../../../Drivers/STM32L0xx_HAL_Driver/Src/stm32l0xx_hal_rtc.c ****   {
 1867              		.loc 1 1494 0
 1868 0100 0928     		cmp	r0, #9
 1869 0102 06D9     		bls	.L123
 1870              	.LVL159:
 1871              	.L124:
1497:../../../../../../Drivers/STM32L0xx_HAL_Driver/Src/stm32l0xx_hal_rtc.c ****   }
 1872              		.loc 1 1497 0
 1873 0104 0A38     		subs	r0, r0, #10
 1874              	.LVL160:
 1875 0106 C0B2     		uxtb	r0, r0
1496:../../../../../../Drivers/STM32L0xx_HAL_Driver/Src/stm32l0xx_hal_rtc.c ****     Value -= 10U;
 1876              		.loc 1 1496 0
 1877 0108 0133     		adds	r3, r3, #1
 1878              	.LVL161:
1494:../../../../../../Drivers/STM32L0xx_HAL_Driver/Src/stm32l0xx_hal_rtc.c ****   {
 1879              		.loc 1 1494 0
 1880 010a 0928     		cmp	r0, #9
 1881 010c FAD8     		bhi	.L124
 1882 010e 1B01     		lsls	r3, r3, #4
 1883              	.LVL162:
 1884 0110 DBB2     		uxtb	r3, r3
 1885              	.L123:
 1886              	.LVL163:
 1887              	.LBE171:
 1888              	.LBE170:
 796:../../../../../../Drivers/STM32L0xx_HAL_Driver/Src/stm32l0xx_hal_rtc.c ****               ((uint32_t)RTC_ByteToBcd2(sAlarm->AlarmTime.Seconds)) | \
 1889              		.loc 1 796 0
 1890 0112 1843     		orrs	r0, r3
 797:../../../../../../Drivers/STM32L0xx_HAL_Driver/Src/stm32l0xx_hal_rtc.c ****               ((uint32_t)(sAlarm->AlarmTime.TimeFormat) << 16U) | \
 1891              		.loc 1 797 0
 1892 0114 8B78     		ldrb	r3, [r1, #2]
 1893              	.LVL164:
 796:../../../../../../Drivers/STM32L0xx_HAL_Driver/Src/stm32l0xx_hal_rtc.c ****               ((uint32_t)RTC_ByteToBcd2(sAlarm->AlarmTime.Seconds)) | \
 1894              		.loc 1 796 0
 1895 0116 0002     		lsls	r0, r0, #8
 1896              	.LBB172:
 1897              	.LBB173:
1492:../../../../../../Drivers/STM32L0xx_HAL_Driver/Src/stm32l0xx_hal_rtc.c **** 
 1898              		.loc 1 1492 0
 1899 0118 0024     		movs	r4, #0
1494:../../../../../../Drivers/STM32L0xx_HAL_Driver/Src/stm32l0xx_hal_rtc.c ****   {
 1900              		.loc 1 1494 0
 1901 011a 092B     		cmp	r3, #9
 1902 011c 58D9     		bls	.L141
 1903              	.LVL165:
 1904              	.L126:
1497:../../../../../../Drivers/STM32L0xx_HAL_Driver/Src/stm32l0xx_hal_rtc.c ****   }
 1905              		.loc 1 1497 0
 1906 011e 0A3B     		subs	r3, r3, #10
 1907              	.LVL166:
 1908 0120 DBB2     		uxtb	r3, r3
1496:../../../../../../Drivers/STM32L0xx_HAL_Driver/Src/stm32l0xx_hal_rtc.c ****     Value -= 10U;
 1909              		.loc 1 1496 0
 1910 0122 0134     		adds	r4, r4, #1
 1911              	.LVL167:
1494:../../../../../../Drivers/STM32L0xx_HAL_Driver/Src/stm32l0xx_hal_rtc.c ****   {
ARM GAS  C:\Users\EBANO_~1\AppData\Local\Temp\cc8t01eQ.s 			page 68


 1912              		.loc 1 1494 0
 1913 0124 092B     		cmp	r3, #9
 1914 0126 FAD8     		bhi	.L126
 1915 0128 2401     		lsls	r4, r4, #4
 1916              	.LVL168:
 1917 012a E4B2     		uxtb	r4, r4
 1918 012c A046     		mov	r8, r4
 1919              	.L125:
 1920              	.LVL169:
 1921              	.LBE173:
 1922              	.LBE172:
 797:../../../../../../Drivers/STM32L0xx_HAL_Driver/Src/stm32l0xx_hal_rtc.c ****               ((uint32_t)(sAlarm->AlarmTime.TimeFormat) << 16U) | \
 1923              		.loc 1 797 0
 1924 012e 4446     		mov	r4, r8
 1925 0130 1C43     		orrs	r4, r3
 799:../../../../../../Drivers/STM32L0xx_HAL_Driver/Src/stm32l0xx_hal_rtc.c ****               ((uint32_t)sAlarm->AlarmDateWeekDaySel) | \
 1926              		.loc 1 799 0
 1927 0132 2023     		movs	r3, #32
 1928 0134 CB5C     		ldrb	r3, [r1, r3]
 1929              	.LVL170:
 797:../../../../../../Drivers/STM32L0xx_HAL_Driver/Src/stm32l0xx_hal_rtc.c ****               ((uint32_t)(sAlarm->AlarmTime.TimeFormat) << 16U) | \
 1930              		.loc 1 797 0
 1931 0136 A046     		mov	r8, r4
 1932              	.LBB175:
 1933              	.LBB176:
1494:../../../../../../Drivers/STM32L0xx_HAL_Driver/Src/stm32l0xx_hal_rtc.c ****   {
 1934              		.loc 1 1494 0
 1935 0138 092B     		cmp	r3, #9
 1936 013a 47D9     		bls	.L142
 1937              	.LVL171:
 1938              	.L128:
1497:../../../../../../Drivers/STM32L0xx_HAL_Driver/Src/stm32l0xx_hal_rtc.c ****   }
 1939              		.loc 1 1497 0
 1940 013c 0A3B     		subs	r3, r3, #10
 1941              	.LVL172:
 1942 013e DBB2     		uxtb	r3, r3
1496:../../../../../../Drivers/STM32L0xx_HAL_Driver/Src/stm32l0xx_hal_rtc.c ****     Value -= 10U;
 1943              		.loc 1 1496 0
 1944 0140 0132     		adds	r2, r2, #1
 1945              	.LVL173:
1494:../../../../../../Drivers/STM32L0xx_HAL_Driver/Src/stm32l0xx_hal_rtc.c ****   {
 1946              		.loc 1 1494 0
 1947 0142 092B     		cmp	r3, #9
 1948 0144 FAD8     		bhi	.L128
 1949 0146 1201     		lsls	r2, r2, #4
 1950              	.LVL174:
 1951 0148 D2B2     		uxtb	r2, r2
 1952              	.L127:
 1953              	.LVL175:
 1954              	.LBE176:
 1955              	.LBE175:
 795:../../../../../../Drivers/STM32L0xx_HAL_Driver/Src/stm32l0xx_hal_rtc.c ****               ((uint32_t)RTC_ByteToBcd2(sAlarm->AlarmTime.Minutes) << 8U) | \
 1956              		.loc 1 795 0
 1957 014a 4C69     		ldr	r4, [r1, #20]
 799:../../../../../../Drivers/STM32L0xx_HAL_Driver/Src/stm32l0xx_hal_rtc.c ****               ((uint32_t)sAlarm->AlarmDateWeekDaySel) | \
 1958              		.loc 1 799 0
 1959 014c 1A43     		orrs	r2, r3
ARM GAS  C:\Users\EBANO_~1\AppData\Local\Temp\cc8t01eQ.s 			page 69


 795:../../../../../../Drivers/STM32L0xx_HAL_Driver/Src/stm32l0xx_hal_rtc.c ****               ((uint32_t)RTC_ByteToBcd2(sAlarm->AlarmTime.Minutes) << 8U) | \
 1960              		.loc 1 795 0
 1961 014e 2643     		orrs	r6, r4
 1962 0150 6446     		mov	r4, ip
 1963 0152 2643     		orrs	r6, r4
 1964 0154 4C46     		mov	r4, r9
 1965 0156 2643     		orrs	r6, r4
 1966 0158 4446     		mov	r4, r8
 1967 015a 3043     		orrs	r0, r6
 1968 015c 2043     		orrs	r0, r4
 799:../../../../../../Drivers/STM32L0xx_HAL_Driver/Src/stm32l0xx_hal_rtc.c ****               ((uint32_t)sAlarm->AlarmDateWeekDaySel) | \
 1969              		.loc 1 799 0
 1970 015e 1206     		lsls	r2, r2, #24
 795:../../../../../../Drivers/STM32L0xx_HAL_Driver/Src/stm32l0xx_hal_rtc.c ****               ((uint32_t)RTC_ByteToBcd2(sAlarm->AlarmTime.Minutes) << 8U) | \
 1971              		.loc 1 795 0
 1972 0160 1043     		orrs	r0, r2
 1973 0162 8046     		mov	r8, r0
 1974              	.LVL176:
 1975 0164 77E7     		b	.L129
 1976              	.LVL177:
 1977              	.L149:
 894:../../../../../../Drivers/STM32L0xx_HAL_Driver/Src/stm32l0xx_hal_rtc.c **** 
 1978              		.loc 1 894 0
 1979 0166 FF22     		movs	r2, #255
 1980 0168 2B68     		ldr	r3, [r5]
 1981              	.LVL178:
 901:../../../../../../Drivers/STM32L0xx_HAL_Driver/Src/stm32l0xx_hal_rtc.c ****       }
 1982              		.loc 1 901 0
 1983 016a 0320     		movs	r0, #3
 894:../../../../../../Drivers/STM32L0xx_HAL_Driver/Src/stm32l0xx_hal_rtc.c **** 
 1984              		.loc 1 894 0
 1985 016c 5A62     		str	r2, [r3, #36]
 896:../../../../../../Drivers/STM32L0xx_HAL_Driver/Src/stm32l0xx_hal_rtc.c **** 
 1986              		.loc 1 896 0
 1987 016e 2123     		movs	r3, #33
 1988 0170 FC3A     		subs	r2, r2, #252
 1989 0172 EA54     		strb	r2, [r5, r3]
 899:../../../../../../Drivers/STM32L0xx_HAL_Driver/Src/stm32l0xx_hal_rtc.c **** 
 1990              		.loc 1 899 0
 1991 0174 013B     		subs	r3, r3, #1
 1992 0176 EC54     		strb	r4, [r5, r3]
 901:../../../../../../Drivers/STM32L0xx_HAL_Driver/Src/stm32l0xx_hal_rtc.c ****       }
 1993              		.loc 1 901 0
 1994 0178 A5E7     		b	.L117
 1995              	.LVL179:
 1996              	.L151:
 850:../../../../../../Drivers/STM32L0xx_HAL_Driver/Src/stm32l0xx_hal_rtc.c **** 
 1997              		.loc 1 850 0
 1998 017a BB68     		ldr	r3, [r7, #8]
 1999 017c 174A     		ldr	r2, .L152+8
 859:../../../../../../Drivers/STM32L0xx_HAL_Driver/Src/stm32l0xx_hal_rtc.c ****       {
 2000              		.loc 1 859 0
 2001 017e FA26     		movs	r6, #250
 850:../../../../../../Drivers/STM32L0xx_HAL_Driver/Src/stm32l0xx_hal_rtc.c **** 
 2002              		.loc 1 850 0
 2003 0180 1340     		ands	r3, r2
 2004 0182 BB60     		str	r3, [r7, #8]
ARM GAS  C:\Users\EBANO_~1\AppData\Local\Temp\cc8t01eQ.s 			page 70


 853:../../../../../../Drivers/STM32L0xx_HAL_Driver/Src/stm32l0xx_hal_rtc.c **** 
 2005              		.loc 1 853 0
 2006 0184 BB68     		ldr	r3, [r7, #8]
 2007 0186 164A     		ldr	r2, .L152+12
 859:../../../../../../Drivers/STM32L0xx_HAL_Driver/Src/stm32l0xx_hal_rtc.c ****       {
 2008              		.loc 1 859 0
 2009 0188 B600     		lsls	r6, r6, #2
 853:../../../../../../Drivers/STM32L0xx_HAL_Driver/Src/stm32l0xx_hal_rtc.c **** 
 2010              		.loc 1 853 0
 2011 018a 1340     		ands	r3, r2
 2012 018c BB60     		str	r3, [r7, #8]
 855:../../../../../../Drivers/STM32L0xx_HAL_Driver/Src/stm32l0xx_hal_rtc.c ****     /* Wait till RTC ALRAWF flag is set and if Time out is reached exit */
 2013              		.loc 1 855 0
 2014 018e FFF7FEFF 		bl	HAL_GetTick
 2015              	.LVL180:
 857:../../../../../../Drivers/STM32L0xx_HAL_Driver/Src/stm32l0xx_hal_rtc.c ****     {
 2016              		.loc 1 857 0
 2017 0192 0127     		movs	r7, #1
 855:../../../../../../Drivers/STM32L0xx_HAL_Driver/Src/stm32l0xx_hal_rtc.c ****     /* Wait till RTC ALRAWF flag is set and if Time out is reached exit */
 2018              		.loc 1 855 0
 2019 0194 8146     		mov	r9, r0
 2020              	.LVL181:
 857:../../../../../../Drivers/STM32L0xx_HAL_Driver/Src/stm32l0xx_hal_rtc.c ****     {
 2021              		.loc 1 857 0
 2022 0196 05E0     		b	.L133
 2023              	.LVL182:
 2024              	.L134:
 859:../../../../../../Drivers/STM32L0xx_HAL_Driver/Src/stm32l0xx_hal_rtc.c ****       {
 2025              		.loc 1 859 0
 2026 0198 FFF7FEFF 		bl	HAL_GetTick
 2027              	.LVL183:
 2028 019c 4B46     		mov	r3, r9
 2029 019e C01A     		subs	r0, r0, r3
 2030 01a0 B042     		cmp	r0, r6
 2031 01a2 E0D8     		bhi	.L149
 2032              	.L133:
 857:../../../../../../Drivers/STM32L0xx_HAL_Driver/Src/stm32l0xx_hal_rtc.c ****     {
 2033              		.loc 1 857 0
 2034 01a4 2B68     		ldr	r3, [r5]
 2035 01a6 DC68     		ldr	r4, [r3, #12]
 2036 01a8 3C40     		ands	r4, r7
 2037 01aa F5D0     		beq	.L134
 873:../../../../../../Drivers/STM32L0xx_HAL_Driver/Src/stm32l0xx_hal_rtc.c ****     /* Configure the Alarm A Sub Second register */
 2038              		.loc 1 873 0
 2039 01ac 4246     		mov	r2, r8
 2040 01ae DA61     		str	r2, [r3, #28]
 875:../../../../../../Drivers/STM32L0xx_HAL_Driver/Src/stm32l0xx_hal_rtc.c ****     /* Configure the Alarm state: Enable Alarm */
 2041              		.loc 1 875 0
 2042 01b0 5246     		mov	r2, r10
 2043 01b2 5A64     		str	r2, [r3, #68]
 877:../../../../../../Drivers/STM32L0xx_HAL_Driver/Src/stm32l0xx_hal_rtc.c ****   }
 2044              		.loc 1 877 0
 2045 01b4 8022     		movs	r2, #128
 2046 01b6 9968     		ldr	r1, [r3, #8]
 2047 01b8 5200     		lsls	r2, r2, #1
 2048 01ba 0A43     		orrs	r2, r1
 2049 01bc 9A60     		str	r2, [r3, #8]
ARM GAS  C:\Users\EBANO_~1\AppData\Local\Temp\cc8t01eQ.s 			page 71


 2050 01be 79E7     		b	.L135
 2051              	.LVL184:
 2052              	.L130:
 813:../../../../../../Drivers/STM32L0xx_HAL_Driver/Src/stm32l0xx_hal_rtc.c ****       assert_param(IS_RTC_HOUR24(RTC_Bcd2ToByte(sAlarm->AlarmTime.Hours)));
 2053              		.loc 1 813 0
 2054 01c0 CB70     		strb	r3, [r1, #3]
 2055 01c2 37E7     		b	.L131
 2056              	.L119:
 780:../../../../../../Drivers/STM32L0xx_HAL_Driver/Src/stm32l0xx_hal_rtc.c ****       assert_param(IS_RTC_HOUR24(sAlarm->AlarmTime.Hours));
 2057              		.loc 1 780 0
 2058 01c4 CC70     		strb	r4, [r1, #3]
 2059 01c6 8AE7     		b	.L120
 2060              	.L138:
 767:../../../../../../Drivers/STM32L0xx_HAL_Driver/Src/stm32l0xx_hal_rtc.c **** 
 2061              		.loc 1 767 0
 2062 01c8 0220     		movs	r0, #2
 2063 01ca 7CE7     		b	.L117
 2064              	.LVL185:
 2065              	.L142:
 2066              	.LBB178:
 2067              	.LBB177:
1494:../../../../../../Drivers/STM32L0xx_HAL_Driver/Src/stm32l0xx_hal_rtc.c ****   {
 2068              		.loc 1 1494 0
 2069 01cc 0022     		movs	r2, #0
 2070              	.LVL186:
 2071 01ce BCE7     		b	.L127
 2072              	.LVL187:
 2073              	.L141:
 2074              	.LBE177:
 2075              	.LBE178:
 2076              	.LBB179:
 2077              	.LBB174:
 2078 01d0 A046     		mov	r8, r4
 2079 01d2 ACE7     		b	.L125
 2080              	.L153:
 2081              		.align	2
 2082              	.L152:
 2083 01d4 FFFDFFFF 		.word	-513
 2084 01d8 FFDFFFFF 		.word	-8193
 2085 01dc FFFEFFFF 		.word	-257
 2086 01e0 FFEFFFFF 		.word	-4097
 2087              	.LBE174:
 2088              	.LBE179:
 2089              		.cfi_endproc
 2090              	.LFE47:
 2091              		.size	HAL_RTC_SetAlarm, .-HAL_RTC_SetAlarm
 2092              		.section	.text.HAL_RTC_SetAlarm_IT,"ax",%progbits
 2093              		.align	1
 2094              		.p2align 2,,3
 2095              		.global	HAL_RTC_SetAlarm_IT
 2096              		.syntax unified
 2097              		.code	16
 2098              		.thumb_func
 2099              		.fpu softvfp
 2100              		.type	HAL_RTC_SetAlarm_IT, %function
 2101              	HAL_RTC_SetAlarm_IT:
 2102              	.LFB48:
ARM GAS  C:\Users\EBANO_~1\AppData\Local\Temp\cc8t01eQ.s 			page 72


 938:../../../../../../Drivers/STM32L0xx_HAL_Driver/Src/stm32l0xx_hal_rtc.c ****   uint32_t tickstart = 0U;
 2103              		.loc 1 938 0
 2104              		.cfi_startproc
 2105              		@ args = 0, pretend = 0, frame = 0
 2106              		@ frame_needed = 0, uses_anonymous_args = 0
 2107              	.LVL188:
 2108 0000 F0B5     		push	{r4, r5, r6, r7, lr}
 2109              	.LCFI10:
 2110              		.cfi_def_cfa_offset 20
 2111              		.cfi_offset 4, -20
 2112              		.cfi_offset 5, -16
 2113              		.cfi_offset 6, -12
 2114              		.cfi_offset 7, -8
 2115              		.cfi_offset 14, -4
 2116 0002 D646     		mov	lr, r10
 2117 0004 4F46     		mov	r7, r9
 2118 0006 4646     		mov	r6, r8
 951:../../../../../../Drivers/STM32L0xx_HAL_Driver/Src/stm32l0xx_hal_rtc.c **** 
 2119              		.loc 1 951 0
 2120 0008 2023     		movs	r3, #32
 938:../../../../../../Drivers/STM32L0xx_HAL_Driver/Src/stm32l0xx_hal_rtc.c ****   uint32_t tickstart = 0U;
 2121              		.loc 1 938 0
 2122 000a C0B5     		push	{r6, r7, lr}
 2123              	.LCFI11:
 2124              		.cfi_def_cfa_offset 32
 2125              		.cfi_offset 8, -32
 2126              		.cfi_offset 9, -28
 2127              		.cfi_offset 10, -24
 938:../../../../../../Drivers/STM32L0xx_HAL_Driver/Src/stm32l0xx_hal_rtc.c ****   uint32_t tickstart = 0U;
 2128              		.loc 1 938 0
 2129 000c 0500     		movs	r5, r0
 951:../../../../../../Drivers/STM32L0xx_HAL_Driver/Src/stm32l0xx_hal_rtc.c **** 
 2130              		.loc 1 951 0
 2131 000e C05C     		ldrb	r0, [r0, r3]
 2132              	.LVL189:
 2133 0010 0128     		cmp	r0, #1
 2134 0012 00D1     		bne	.LCB2023
 2135 0014 F0E0     		b	.L176	@long jump
 2136              	.LCB2023:
 951:../../../../../../Drivers/STM32L0xx_HAL_Driver/Src/stm32l0xx_hal_rtc.c **** 
 2137              		.loc 1 951 0 is_stmt 0 discriminator 2
 2138 0016 0120     		movs	r0, #1
 2139 0018 2F68     		ldr	r7, [r5]
 2140 001a E854     		strb	r0, [r5, r3]
 953:../../../../../../Drivers/STM32L0xx_HAL_Driver/Src/stm32l0xx_hal_rtc.c **** 
 2141              		.loc 1 953 0 is_stmt 1 discriminator 2
 2142 001c 0133     		adds	r3, r3, #1
 2143 001e 0130     		adds	r0, r0, #1
 2144 0020 E854     		strb	r0, [r5, r3]
 957:../../../../../../Drivers/STM32L0xx_HAL_Driver/Src/stm32l0xx_hal_rtc.c ****     {
 2145              		.loc 1 957 0 discriminator 2
 2146 0022 BB68     		ldr	r3, [r7, #8]
 955:../../../../../../Drivers/STM32L0xx_HAL_Driver/Src/stm32l0xx_hal_rtc.c ****   {
 2147              		.loc 1 955 0 discriminator 2
 2148 0024 002A     		cmp	r2, #0
 2149 0026 64D0     		beq	.L188
 988:../../../../../../Drivers/STM32L0xx_HAL_Driver/Src/stm32l0xx_hal_rtc.c ****     {
ARM GAS  C:\Users\EBANO_~1\AppData\Local\Temp\cc8t01eQ.s 			page 73


 2150              		.loc 1 988 0
 2151 0028 4026     		movs	r6, #64
 2152 002a 3340     		ands	r3, r6
 2153 002c 00D1     		bne	.LCB2036
 2154 002e DFE0     		b	.L168	@long jump
 2155              	.LCB2036:
 2156 0030 CB78     		ldrb	r3, [r1, #3]
 2157 0032 1B04     		lsls	r3, r3, #16
 2158              	.L169:
 2159              	.LVL190:
1013:../../../../../../Drivers/STM32L0xx_HAL_Driver/Src/stm32l0xx_hal_rtc.c ****               ((uint32_t)(sAlarm->AlarmTime.Minutes) << 8U) | \
 2160              		.loc 1 1013 0
 2161 0034 4A69     		ldr	r2, [r1, #20]
 2162              	.LVL191:
 2163 0036 CE69     		ldr	r6, [r1, #28]
 2164 0038 1643     		orrs	r6, r2
1015:../../../../../../Drivers/STM32L0xx_HAL_Driver/Src/stm32l0xx_hal_rtc.c ****               ((uint32_t)(sAlarm->AlarmTime.TimeFormat) << 16U) | \
 2165              		.loc 1 1015 0
 2166 003a 8A78     		ldrb	r2, [r1, #2]
1013:../../../../../../Drivers/STM32L0xx_HAL_Driver/Src/stm32l0xx_hal_rtc.c ****               ((uint32_t)(sAlarm->AlarmTime.Minutes) << 8U) | \
 2167              		.loc 1 1013 0
 2168 003c 1643     		orrs	r6, r2
 2169 003e 0A78     		ldrb	r2, [r1]
 2170 0040 1204     		lsls	r2, r2, #16
 2171 0042 1643     		orrs	r6, r2
1014:../../../../../../Drivers/STM32L0xx_HAL_Driver/Src/stm32l0xx_hal_rtc.c ****               ((uint32_t) sAlarm->AlarmTime.Seconds) | \
 2172              		.loc 1 1014 0
 2173 0044 4A78     		ldrb	r2, [r1, #1]
 2174 0046 1202     		lsls	r2, r2, #8
1013:../../../../../../Drivers/STM32L0xx_HAL_Driver/Src/stm32l0xx_hal_rtc.c ****               ((uint32_t)(sAlarm->AlarmTime.Minutes) << 8U) | \
 2175              		.loc 1 1013 0
 2176 0048 1643     		orrs	r6, r2
1017:../../../../../../Drivers/STM32L0xx_HAL_Driver/Src/stm32l0xx_hal_rtc.c ****               ((uint32_t)sAlarm->AlarmDateWeekDaySel) | \
 2177              		.loc 1 1017 0
 2178 004a 2022     		movs	r2, #32
 2179 004c 8A5C     		ldrb	r2, [r1, r2]
 2180 004e 1206     		lsls	r2, r2, #24
1013:../../../../../../Drivers/STM32L0xx_HAL_Driver/Src/stm32l0xx_hal_rtc.c ****               ((uint32_t)(sAlarm->AlarmTime.Minutes) << 8U) | \
 2181              		.loc 1 1013 0
 2182 0050 1643     		orrs	r6, r2
 2183 0052 1E43     		orrs	r6, r3
 2184 0054 B046     		mov	r8, r6
 2185              	.LVL192:
 2186              	.L167:
1022:../../../../../../Drivers/STM32L0xx_HAL_Driver/Src/stm32l0xx_hal_rtc.c **** 
 2187              		.loc 1 1022 0
 2188 0056 8A69     		ldr	r2, [r1, #24]
 2189 0058 4B68     		ldr	r3, [r1, #4]
 2190 005a 1343     		orrs	r3, r2
 2191 005c 9A46     		mov	r10, r3
 2192              	.LVL193:
1025:../../../../../../Drivers/STM32L0xx_HAL_Driver/Src/stm32l0xx_hal_rtc.c **** 
 2193              		.loc 1 1025 0
 2194 005e CA23     		movs	r3, #202
 2195              	.LVL194:
1028:../../../../../../Drivers/STM32L0xx_HAL_Driver/Src/stm32l0xx_hal_rtc.c ****   {
 2196              		.loc 1 1028 0
ARM GAS  C:\Users\EBANO_~1\AppData\Local\Temp\cc8t01eQ.s 			page 74


 2197 0060 4A6A     		ldr	r2, [r1, #36]
1025:../../../../../../Drivers/STM32L0xx_HAL_Driver/Src/stm32l0xx_hal_rtc.c **** 
 2198              		.loc 1 1025 0
 2199 0062 7B62     		str	r3, [r7, #36]
 2200 0064 773B     		subs	r3, r3, #119
 2201 0066 7B62     		str	r3, [r7, #36]
1028:../../../../../../Drivers/STM32L0xx_HAL_Driver/Src/stm32l0xx_hal_rtc.c ****   {
 2202              		.loc 1 1028 0
 2203 0068 AD33     		adds	r3, r3, #173
 2204 006a 9A42     		cmp	r2, r3
 2205 006c 00D1     		bne	.LCB2083
 2206 006e 95E0     		b	.L189	@long jump
 2207              	.LCB2083:
1065:../../../../../../Drivers/STM32L0xx_HAL_Driver/Src/stm32l0xx_hal_rtc.c ****     
 2208              		.loc 1 1065 0
 2209 0070 BB68     		ldr	r3, [r7, #8]
 2210 0072 644A     		ldr	r2, .L190
1074:../../../../../../Drivers/STM32L0xx_HAL_Driver/Src/stm32l0xx_hal_rtc.c ****       {
 2211              		.loc 1 1074 0
 2212 0074 FA26     		movs	r6, #250
1065:../../../../../../Drivers/STM32L0xx_HAL_Driver/Src/stm32l0xx_hal_rtc.c ****     
 2213              		.loc 1 1065 0
 2214 0076 1340     		ands	r3, r2
 2215 0078 BB60     		str	r3, [r7, #8]
1068:../../../../../../Drivers/STM32L0xx_HAL_Driver/Src/stm32l0xx_hal_rtc.c **** 
 2216              		.loc 1 1068 0
 2217 007a FF23     		movs	r3, #255
 2218 007c FA68     		ldr	r2, [r7, #12]
1074:../../../../../../Drivers/STM32L0xx_HAL_Driver/Src/stm32l0xx_hal_rtc.c ****       {
 2219              		.loc 1 1074 0
 2220 007e B600     		lsls	r6, r6, #2
1068:../../../../../../Drivers/STM32L0xx_HAL_Driver/Src/stm32l0xx_hal_rtc.c **** 
 2221              		.loc 1 1068 0
 2222 0080 1A40     		ands	r2, r3
 2223 0082 614B     		ldr	r3, .L190+4
 2224 0084 1343     		orrs	r3, r2
 2225 0086 FB60     		str	r3, [r7, #12]
1070:../../../../../../Drivers/STM32L0xx_HAL_Driver/Src/stm32l0xx_hal_rtc.c ****     /* Wait till RTC ALRBWF flag is set and if Time out is reached exit */
 2226              		.loc 1 1070 0
 2227 0088 FFF7FEFF 		bl	HAL_GetTick
 2228              	.LVL195:
1072:../../../../../../Drivers/STM32L0xx_HAL_Driver/Src/stm32l0xx_hal_rtc.c ****     {
 2229              		.loc 1 1072 0
 2230 008c 0227     		movs	r7, #2
1070:../../../../../../Drivers/STM32L0xx_HAL_Driver/Src/stm32l0xx_hal_rtc.c ****     /* Wait till RTC ALRBWF flag is set and if Time out is reached exit */
 2231              		.loc 1 1070 0
 2232 008e 8146     		mov	r9, r0
 2233              	.LVL196:
1072:../../../../../../Drivers/STM32L0xx_HAL_Driver/Src/stm32l0xx_hal_rtc.c ****     {
 2234              		.loc 1 1072 0
 2235 0090 06E0     		b	.L174
 2236              	.LVL197:
 2237              	.L175:
1074:../../../../../../Drivers/STM32L0xx_HAL_Driver/Src/stm32l0xx_hal_rtc.c ****       {
 2238              		.loc 1 1074 0
 2239 0092 FFF7FEFF 		bl	HAL_GetTick
 2240              	.LVL198:
ARM GAS  C:\Users\EBANO_~1\AppData\Local\Temp\cc8t01eQ.s 			page 75


 2241 0096 4B46     		mov	r3, r9
 2242 0098 C01A     		subs	r0, r0, r3
 2243 009a B042     		cmp	r0, r6
 2244 009c 00D9     		bls	.LCB2114
 2245 009e 73E0     		b	.L187	@long jump
 2246              	.LCB2114:
 2247              	.L174:
1072:../../../../../../Drivers/STM32L0xx_HAL_Driver/Src/stm32l0xx_hal_rtc.c ****     {
 2248              		.loc 1 1072 0
 2249 00a0 2A68     		ldr	r2, [r5]
 2250 00a2 D468     		ldr	r4, [r2, #12]
 2251 00a4 3C40     		ands	r4, r7
 2252 00a6 F4D0     		beq	.L175
1088:../../../../../../Drivers/STM32L0xx_HAL_Driver/Src/stm32l0xx_hal_rtc.c ****     /* Configure the Alarm B Sub Second register */
 2253              		.loc 1 1088 0
 2254 00a8 4346     		mov	r3, r8
 2255 00aa 1362     		str	r3, [r2, #32]
1090:../../../../../../Drivers/STM32L0xx_HAL_Driver/Src/stm32l0xx_hal_rtc.c ****     /* Configure the Alarm state: Enable Alarm */
 2256              		.loc 1 1090 0
 2257 00ac 5346     		mov	r3, r10
 2258 00ae 9364     		str	r3, [r2, #72]
1092:../../../../../../Drivers/STM32L0xx_HAL_Driver/Src/stm32l0xx_hal_rtc.c ****     /* Configure the Alarm interrupt */
 2259              		.loc 1 1092 0
 2260 00b0 8023     		movs	r3, #128
 2261 00b2 9168     		ldr	r1, [r2, #8]
 2262 00b4 9B00     		lsls	r3, r3, #2
 2263 00b6 0B43     		orrs	r3, r1
 2264 00b8 9360     		str	r3, [r2, #8]
1094:../../../../../../Drivers/STM32L0xx_HAL_Driver/Src/stm32l0xx_hal_rtc.c ****   }
 2265              		.loc 1 1094 0
 2266 00ba 8023     		movs	r3, #128
 2267 00bc 9168     		ldr	r1, [r2, #8]
 2268 00be 9B01     		lsls	r3, r3, #6
 2269 00c0 0B43     		orrs	r3, r1
 2270 00c2 9360     		str	r3, [r2, #8]
 2271              	.L173:
1098:../../../../../../Drivers/STM32L0xx_HAL_Driver/Src/stm32l0xx_hal_rtc.c **** 
 2272              		.loc 1 1098 0
 2273 00c4 8021     		movs	r1, #128
 2274 00c6 514B     		ldr	r3, .L190+8
 2275 00c8 8902     		lsls	r1, r1, #10
 2276 00ca 1868     		ldr	r0, [r3]
 2277 00cc 0843     		orrs	r0, r1
 2278 00ce 1860     		str	r0, [r3]
1100:../../../../../../Drivers/STM32L0xx_HAL_Driver/Src/stm32l0xx_hal_rtc.c **** 
 2279              		.loc 1 1100 0
 2280 00d0 9868     		ldr	r0, [r3, #8]
 2281 00d2 0143     		orrs	r1, r0
 2282 00d4 9960     		str	r1, [r3, #8]
1103:../../../../../../Drivers/STM32L0xx_HAL_Driver/Src/stm32l0xx_hal_rtc.c **** 
 2283              		.loc 1 1103 0
 2284 00d6 FF23     		movs	r3, #255
 2285 00d8 5362     		str	r3, [r2, #36]
1105:../../../../../../Drivers/STM32L0xx_HAL_Driver/Src/stm32l0xx_hal_rtc.c **** 
 2286              		.loc 1 1105 0
 2287 00da 0122     		movs	r2, #1
 2288 00dc DE3B     		subs	r3, r3, #222
ARM GAS  C:\Users\EBANO_~1\AppData\Local\Temp\cc8t01eQ.s 			page 76


 2289 00de EA54     		strb	r2, [r5, r3]
1108:../../../../../../Drivers/STM32L0xx_HAL_Driver/Src/stm32l0xx_hal_rtc.c **** 
 2290              		.loc 1 1108 0
 2291 00e0 0022     		movs	r2, #0
1110:../../../../../../Drivers/STM32L0xx_HAL_Driver/Src/stm32l0xx_hal_rtc.c **** }
 2292              		.loc 1 1110 0
 2293 00e2 0020     		movs	r0, #0
1108:../../../../../../Drivers/STM32L0xx_HAL_Driver/Src/stm32l0xx_hal_rtc.c **** 
 2294              		.loc 1 1108 0
 2295 00e4 013B     		subs	r3, r3, #1
 2296 00e6 EA54     		strb	r2, [r5, r3]
 2297              	.LVL199:
 2298              	.L155:
1111:../../../../../../Drivers/STM32L0xx_HAL_Driver/Src/stm32l0xx_hal_rtc.c **** 
 2299              		.loc 1 1111 0
 2300              		@ sp needed
 2301              	.LVL200:
 2302 00e8 1CBC     		pop	{r2, r3, r4}
 2303 00ea 9046     		mov	r8, r2
 2304 00ec 9946     		mov	r9, r3
 2305 00ee A246     		mov	r10, r4
 2306 00f0 F0BD     		pop	{r4, r5, r6, r7, pc}
 2307              	.LVL201:
 2308              	.L188:
 957:../../../../../../Drivers/STM32L0xx_HAL_Driver/Src/stm32l0xx_hal_rtc.c ****     {
 2309              		.loc 1 957 0
 2310 00f2 4024     		movs	r4, #64
 2311 00f4 1C40     		ands	r4, r3
 2312 00f6 A446     		mov	ip, r4
 2313 00f8 7CD0     		beq	.L157
 2314 00fa CC78     		ldrb	r4, [r1, #3]
 2315 00fc 2304     		lsls	r3, r4, #16
 2316 00fe 9C46     		mov	ip, r3
 2317              	.L158:
 978:../../../../../../Drivers/STM32L0xx_HAL_Driver/Src/stm32l0xx_hal_rtc.c ****               ((uint32_t)RTC_ByteToBcd2(sAlarm->AlarmTime.Minutes) << 8U) | \
 2318              		.loc 1 978 0
 2319 0100 0C78     		ldrb	r4, [r1]
 2320              	.LVL202:
 970:../../../../../../Drivers/STM32L0xx_HAL_Driver/Src/stm32l0xx_hal_rtc.c ****     {
 2321              		.loc 1 970 0
 2322 0102 CE69     		ldr	r6, [r1, #28]
 2323              	.LBB180:
 2324              	.LBB181:
1492:../../../../../../Drivers/STM32L0xx_HAL_Driver/Src/stm32l0xx_hal_rtc.c **** 
 2325              		.loc 1 1492 0
 2326 0104 0023     		movs	r3, #0
1494:../../../../../../Drivers/STM32L0xx_HAL_Driver/Src/stm32l0xx_hal_rtc.c ****   {
 2327              		.loc 1 1494 0
 2328 0106 092C     		cmp	r4, #9
 2329 0108 06D9     		bls	.L159
 2330              	.LVL203:
 2331              	.L160:
1497:../../../../../../Drivers/STM32L0xx_HAL_Driver/Src/stm32l0xx_hal_rtc.c ****   }
 2332              		.loc 1 1497 0
 2333 010a 0A3C     		subs	r4, r4, #10
 2334              	.LVL204:
 2335 010c E4B2     		uxtb	r4, r4
ARM GAS  C:\Users\EBANO_~1\AppData\Local\Temp\cc8t01eQ.s 			page 77


1496:../../../../../../Drivers/STM32L0xx_HAL_Driver/Src/stm32l0xx_hal_rtc.c ****     Value -= 10U;
 2336              		.loc 1 1496 0
 2337 010e 0133     		adds	r3, r3, #1
 2338              	.LVL205:
1494:../../../../../../Drivers/STM32L0xx_HAL_Driver/Src/stm32l0xx_hal_rtc.c ****   {
 2339              		.loc 1 1494 0
 2340 0110 092C     		cmp	r4, #9
 2341 0112 FAD8     		bhi	.L160
 2342 0114 1B01     		lsls	r3, r3, #4
 2343              	.LVL206:
 2344 0116 DBB2     		uxtb	r3, r3
 2345              	.L159:
 2346              	.LVL207:
 2347              	.LBE181:
 2348              	.LBE180:
 978:../../../../../../Drivers/STM32L0xx_HAL_Driver/Src/stm32l0xx_hal_rtc.c ****               ((uint32_t)RTC_ByteToBcd2(sAlarm->AlarmTime.Minutes) << 8U) | \
 2349              		.loc 1 978 0
 2350 0118 1C43     		orrs	r4, r3
 979:../../../../../../Drivers/STM32L0xx_HAL_Driver/Src/stm32l0xx_hal_rtc.c ****               ((uint32_t)RTC_ByteToBcd2(sAlarm->AlarmTime.Seconds)) | \
 2351              		.loc 1 979 0
 2352 011a 4878     		ldrb	r0, [r1, #1]
 2353              	.LVL208:
 978:../../../../../../Drivers/STM32L0xx_HAL_Driver/Src/stm32l0xx_hal_rtc.c ****               ((uint32_t)RTC_ByteToBcd2(sAlarm->AlarmTime.Minutes) << 8U) | \
 2354              		.loc 1 978 0
 2355 011c 2304     		lsls	r3, r4, #16
 2356 011e 9946     		mov	r9, r3
 2357              	.LBB182:
 2358              	.LBB183:
1492:../../../../../../Drivers/STM32L0xx_HAL_Driver/Src/stm32l0xx_hal_rtc.c **** 
 2359              		.loc 1 1492 0
 2360 0120 0023     		movs	r3, #0
1494:../../../../../../Drivers/STM32L0xx_HAL_Driver/Src/stm32l0xx_hal_rtc.c ****   {
 2361              		.loc 1 1494 0
 2362 0122 0928     		cmp	r0, #9
 2363 0124 06D9     		bls	.L161
 2364              	.LVL209:
 2365              	.L162:
1497:../../../../../../Drivers/STM32L0xx_HAL_Driver/Src/stm32l0xx_hal_rtc.c ****   }
 2366              		.loc 1 1497 0
 2367 0126 0A38     		subs	r0, r0, #10
 2368              	.LVL210:
 2369 0128 C0B2     		uxtb	r0, r0
1496:../../../../../../Drivers/STM32L0xx_HAL_Driver/Src/stm32l0xx_hal_rtc.c ****     Value -= 10U;
 2370              		.loc 1 1496 0
 2371 012a 0133     		adds	r3, r3, #1
 2372              	.LVL211:
1494:../../../../../../Drivers/STM32L0xx_HAL_Driver/Src/stm32l0xx_hal_rtc.c ****   {
 2373              		.loc 1 1494 0
 2374 012c 0928     		cmp	r0, #9
 2375 012e FAD8     		bhi	.L162
 2376 0130 1B01     		lsls	r3, r3, #4
 2377              	.LVL212:
 2378 0132 DBB2     		uxtb	r3, r3
 2379              	.L161:
 2380              	.LVL213:
 2381              	.LBE183:
 2382              	.LBE182:
ARM GAS  C:\Users\EBANO_~1\AppData\Local\Temp\cc8t01eQ.s 			page 78


 979:../../../../../../Drivers/STM32L0xx_HAL_Driver/Src/stm32l0xx_hal_rtc.c ****               ((uint32_t)RTC_ByteToBcd2(sAlarm->AlarmTime.Seconds)) | \
 2383              		.loc 1 979 0
 2384 0134 1843     		orrs	r0, r3
 980:../../../../../../Drivers/STM32L0xx_HAL_Driver/Src/stm32l0xx_hal_rtc.c ****               ((uint32_t)(sAlarm->AlarmTime.TimeFormat) << 16U) | \
 2385              		.loc 1 980 0
 2386 0136 8B78     		ldrb	r3, [r1, #2]
 2387              	.LVL214:
 979:../../../../../../Drivers/STM32L0xx_HAL_Driver/Src/stm32l0xx_hal_rtc.c ****               ((uint32_t)RTC_ByteToBcd2(sAlarm->AlarmTime.Seconds)) | \
 2388              		.loc 1 979 0
 2389 0138 0002     		lsls	r0, r0, #8
 2390              	.LBB184:
 2391              	.LBB185:
1492:../../../../../../Drivers/STM32L0xx_HAL_Driver/Src/stm32l0xx_hal_rtc.c **** 
 2392              		.loc 1 1492 0
 2393 013a 0024     		movs	r4, #0
1494:../../../../../../Drivers/STM32L0xx_HAL_Driver/Src/stm32l0xx_hal_rtc.c ****   {
 2394              		.loc 1 1494 0
 2395 013c 092B     		cmp	r3, #9
 2396 013e 5FD9     		bls	.L179
 2397              	.LVL215:
 2398              	.L164:
1497:../../../../../../Drivers/STM32L0xx_HAL_Driver/Src/stm32l0xx_hal_rtc.c ****   }
 2399              		.loc 1 1497 0
 2400 0140 0A3B     		subs	r3, r3, #10
 2401              	.LVL216:
 2402 0142 DBB2     		uxtb	r3, r3
1496:../../../../../../Drivers/STM32L0xx_HAL_Driver/Src/stm32l0xx_hal_rtc.c ****     Value -= 10U;
 2403              		.loc 1 1496 0
 2404 0144 0134     		adds	r4, r4, #1
 2405              	.LVL217:
1494:../../../../../../Drivers/STM32L0xx_HAL_Driver/Src/stm32l0xx_hal_rtc.c ****   {
 2406              		.loc 1 1494 0
 2407 0146 092B     		cmp	r3, #9
 2408 0148 FAD8     		bhi	.L164
 2409 014a 2401     		lsls	r4, r4, #4
 2410              	.LVL218:
 2411 014c E4B2     		uxtb	r4, r4
 2412 014e A046     		mov	r8, r4
 2413              	.L163:
 2414              	.LVL219:
 2415              	.LBE185:
 2416              	.LBE184:
 980:../../../../../../Drivers/STM32L0xx_HAL_Driver/Src/stm32l0xx_hal_rtc.c ****               ((uint32_t)(sAlarm->AlarmTime.TimeFormat) << 16U) | \
 2417              		.loc 1 980 0
 2418 0150 4446     		mov	r4, r8
 2419 0152 1C43     		orrs	r4, r3
 982:../../../../../../Drivers/STM32L0xx_HAL_Driver/Src/stm32l0xx_hal_rtc.c ****               ((uint32_t)sAlarm->AlarmDateWeekDaySel) | \
 2420              		.loc 1 982 0
 2421 0154 2023     		movs	r3, #32
 2422 0156 CB5C     		ldrb	r3, [r1, r3]
 2423              	.LVL220:
 980:../../../../../../Drivers/STM32L0xx_HAL_Driver/Src/stm32l0xx_hal_rtc.c ****               ((uint32_t)(sAlarm->AlarmTime.TimeFormat) << 16U) | \
 2424              		.loc 1 980 0
 2425 0158 A046     		mov	r8, r4
 2426              	.LBB187:
 2427              	.LBB188:
1494:../../../../../../Drivers/STM32L0xx_HAL_Driver/Src/stm32l0xx_hal_rtc.c ****   {
ARM GAS  C:\Users\EBANO_~1\AppData\Local\Temp\cc8t01eQ.s 			page 79


 2428              		.loc 1 1494 0
 2429 015a 092B     		cmp	r3, #9
 2430 015c 4ED9     		bls	.L180
 2431              	.LVL221:
 2432              	.L166:
1497:../../../../../../Drivers/STM32L0xx_HAL_Driver/Src/stm32l0xx_hal_rtc.c ****   }
 2433              		.loc 1 1497 0
 2434 015e 0A3B     		subs	r3, r3, #10
 2435              	.LVL222:
 2436 0160 DBB2     		uxtb	r3, r3
1496:../../../../../../Drivers/STM32L0xx_HAL_Driver/Src/stm32l0xx_hal_rtc.c ****     Value -= 10U;
 2437              		.loc 1 1496 0
 2438 0162 0132     		adds	r2, r2, #1
 2439              	.LVL223:
1494:../../../../../../Drivers/STM32L0xx_HAL_Driver/Src/stm32l0xx_hal_rtc.c ****   {
 2440              		.loc 1 1494 0
 2441 0164 092B     		cmp	r3, #9
 2442 0166 FAD8     		bhi	.L166
 2443 0168 1201     		lsls	r2, r2, #4
 2444              	.LVL224:
 2445 016a D2B2     		uxtb	r2, r2
 2446              	.L165:
 2447              	.LVL225:
 2448              	.LBE188:
 2449              	.LBE187:
 978:../../../../../../Drivers/STM32L0xx_HAL_Driver/Src/stm32l0xx_hal_rtc.c ****               ((uint32_t)RTC_ByteToBcd2(sAlarm->AlarmTime.Minutes) << 8U) | \
 2450              		.loc 1 978 0
 2451 016c 4C69     		ldr	r4, [r1, #20]
 982:../../../../../../Drivers/STM32L0xx_HAL_Driver/Src/stm32l0xx_hal_rtc.c ****               ((uint32_t)sAlarm->AlarmDateWeekDaySel) | \
 2452              		.loc 1 982 0
 2453 016e 1A43     		orrs	r2, r3
 978:../../../../../../Drivers/STM32L0xx_HAL_Driver/Src/stm32l0xx_hal_rtc.c ****               ((uint32_t)RTC_ByteToBcd2(sAlarm->AlarmTime.Minutes) << 8U) | \
 2454              		.loc 1 978 0
 2455 0170 2643     		orrs	r6, r4
 2456 0172 6446     		mov	r4, ip
 2457 0174 2643     		orrs	r6, r4
 2458 0176 4C46     		mov	r4, r9
 2459 0178 2643     		orrs	r6, r4
 2460 017a 4446     		mov	r4, r8
 2461 017c 3043     		orrs	r0, r6
 2462 017e 2043     		orrs	r0, r4
 982:../../../../../../Drivers/STM32L0xx_HAL_Driver/Src/stm32l0xx_hal_rtc.c ****               ((uint32_t)sAlarm->AlarmDateWeekDaySel) | \
 2463              		.loc 1 982 0
 2464 0180 1206     		lsls	r2, r2, #24
 978:../../../../../../Drivers/STM32L0xx_HAL_Driver/Src/stm32l0xx_hal_rtc.c ****               ((uint32_t)RTC_ByteToBcd2(sAlarm->AlarmTime.Minutes) << 8U) | \
 2465              		.loc 1 978 0
 2466 0182 1043     		orrs	r0, r2
 2467 0184 8046     		mov	r8, r0
 2468              	.LVL226:
 2469 0186 66E7     		b	.L167
 2470              	.LVL227:
 2471              	.L187:
1077:../../../../../../Drivers/STM32L0xx_HAL_Driver/Src/stm32l0xx_hal_rtc.c **** 
 2472              		.loc 1 1077 0
 2473 0188 FF22     		movs	r2, #255
 2474 018a 2B68     		ldr	r3, [r5]
 2475              	.LVL228:
ARM GAS  C:\Users\EBANO_~1\AppData\Local\Temp\cc8t01eQ.s 			page 80


1084:../../../../../../Drivers/STM32L0xx_HAL_Driver/Src/stm32l0xx_hal_rtc.c ****       }
 2476              		.loc 1 1084 0
 2477 018c 0320     		movs	r0, #3
1077:../../../../../../Drivers/STM32L0xx_HAL_Driver/Src/stm32l0xx_hal_rtc.c **** 
 2478              		.loc 1 1077 0
 2479 018e 5A62     		str	r2, [r3, #36]
1079:../../../../../../Drivers/STM32L0xx_HAL_Driver/Src/stm32l0xx_hal_rtc.c **** 
 2480              		.loc 1 1079 0
 2481 0190 2123     		movs	r3, #33
 2482 0192 FC3A     		subs	r2, r2, #252
 2483 0194 EA54     		strb	r2, [r5, r3]
1082:../../../../../../Drivers/STM32L0xx_HAL_Driver/Src/stm32l0xx_hal_rtc.c **** 
 2484              		.loc 1 1082 0
 2485 0196 013B     		subs	r3, r3, #1
 2486 0198 EC54     		strb	r4, [r5, r3]
1084:../../../../../../Drivers/STM32L0xx_HAL_Driver/Src/stm32l0xx_hal_rtc.c ****       }
 2487              		.loc 1 1084 0
 2488 019a A5E7     		b	.L155
 2489              	.LVL229:
 2490              	.L189:
1031:../../../../../../Drivers/STM32L0xx_HAL_Driver/Src/stm32l0xx_hal_rtc.c ****     
 2491              		.loc 1 1031 0
 2492 019c BB68     		ldr	r3, [r7, #8]
 2493 019e 1C4A     		ldr	r2, .L190+12
1040:../../../../../../Drivers/STM32L0xx_HAL_Driver/Src/stm32l0xx_hal_rtc.c ****       {
 2494              		.loc 1 1040 0
 2495 01a0 FA26     		movs	r6, #250
1031:../../../../../../Drivers/STM32L0xx_HAL_Driver/Src/stm32l0xx_hal_rtc.c ****     
 2496              		.loc 1 1031 0
 2497 01a2 1340     		ands	r3, r2
 2498 01a4 BB60     		str	r3, [r7, #8]
1034:../../../../../../Drivers/STM32L0xx_HAL_Driver/Src/stm32l0xx_hal_rtc.c **** 
 2499              		.loc 1 1034 0
 2500 01a6 FF23     		movs	r3, #255
 2501 01a8 FA68     		ldr	r2, [r7, #12]
1040:../../../../../../Drivers/STM32L0xx_HAL_Driver/Src/stm32l0xx_hal_rtc.c ****       {
 2502              		.loc 1 1040 0
 2503 01aa B600     		lsls	r6, r6, #2
1034:../../../../../../Drivers/STM32L0xx_HAL_Driver/Src/stm32l0xx_hal_rtc.c **** 
 2504              		.loc 1 1034 0
 2505 01ac 1A40     		ands	r2, r3
 2506 01ae 194B     		ldr	r3, .L190+16
 2507 01b0 1343     		orrs	r3, r2
 2508 01b2 FB60     		str	r3, [r7, #12]
1036:../../../../../../Drivers/STM32L0xx_HAL_Driver/Src/stm32l0xx_hal_rtc.c ****     /* Wait till RTC ALRAWF flag is set and if Time out is reached exit */
 2509              		.loc 1 1036 0
 2510 01b4 FFF7FEFF 		bl	HAL_GetTick
 2511              	.LVL230:
1038:../../../../../../Drivers/STM32L0xx_HAL_Driver/Src/stm32l0xx_hal_rtc.c ****     {
 2512              		.loc 1 1038 0
 2513 01b8 0127     		movs	r7, #1
1036:../../../../../../Drivers/STM32L0xx_HAL_Driver/Src/stm32l0xx_hal_rtc.c ****     /* Wait till RTC ALRAWF flag is set and if Time out is reached exit */
 2514              		.loc 1 1036 0
 2515 01ba 8146     		mov	r9, r0
 2516              	.LVL231:
1038:../../../../../../Drivers/STM32L0xx_HAL_Driver/Src/stm32l0xx_hal_rtc.c ****     {
 2517              		.loc 1 1038 0
ARM GAS  C:\Users\EBANO_~1\AppData\Local\Temp\cc8t01eQ.s 			page 81


 2518 01bc 05E0     		b	.L171
 2519              	.LVL232:
 2520              	.L172:
1040:../../../../../../Drivers/STM32L0xx_HAL_Driver/Src/stm32l0xx_hal_rtc.c ****       {
 2521              		.loc 1 1040 0
 2522 01be FFF7FEFF 		bl	HAL_GetTick
 2523              	.LVL233:
 2524 01c2 4B46     		mov	r3, r9
 2525 01c4 C01A     		subs	r0, r0, r3
 2526 01c6 B042     		cmp	r0, r6
 2527 01c8 DED8     		bhi	.L187
 2528              	.L171:
1038:../../../../../../Drivers/STM32L0xx_HAL_Driver/Src/stm32l0xx_hal_rtc.c ****     {
 2529              		.loc 1 1038 0
 2530 01ca 2A68     		ldr	r2, [r5]
 2531 01cc D468     		ldr	r4, [r2, #12]
 2532 01ce 3C40     		ands	r4, r7
 2533 01d0 F5D0     		beq	.L172
1054:../../../../../../Drivers/STM32L0xx_HAL_Driver/Src/stm32l0xx_hal_rtc.c ****     /* Configure the Alarm A Sub Second register */
 2534              		.loc 1 1054 0
 2535 01d2 4346     		mov	r3, r8
 2536 01d4 D361     		str	r3, [r2, #28]
1056:../../../../../../Drivers/STM32L0xx_HAL_Driver/Src/stm32l0xx_hal_rtc.c ****     /* Configure the Alarm state: Enable Alarm */
 2537              		.loc 1 1056 0
 2538 01d6 5346     		mov	r3, r10
 2539 01d8 5364     		str	r3, [r2, #68]
1058:../../../../../../Drivers/STM32L0xx_HAL_Driver/Src/stm32l0xx_hal_rtc.c ****     /* Configure the Alarm interrupt */
 2540              		.loc 1 1058 0
 2541 01da 8023     		movs	r3, #128
 2542 01dc 9168     		ldr	r1, [r2, #8]
 2543 01de 5B00     		lsls	r3, r3, #1
 2544 01e0 0B43     		orrs	r3, r1
 2545 01e2 9360     		str	r3, [r2, #8]
1060:../../../../../../Drivers/STM32L0xx_HAL_Driver/Src/stm32l0xx_hal_rtc.c ****   }
 2546              		.loc 1 1060 0
 2547 01e4 8023     		movs	r3, #128
 2548 01e6 9168     		ldr	r1, [r2, #8]
 2549 01e8 5B01     		lsls	r3, r3, #5
 2550 01ea 0B43     		orrs	r3, r1
 2551 01ec 9360     		str	r3, [r2, #8]
 2552 01ee 69E7     		b	.L173
 2553              	.LVL234:
 2554              	.L168:
 996:../../../../../../Drivers/STM32L0xx_HAL_Driver/Src/stm32l0xx_hal_rtc.c ****       assert_param(IS_RTC_HOUR24(RTC_Bcd2ToByte(sAlarm->AlarmTime.Hours)));
 2555              		.loc 1 996 0
 2556 01f0 CB70     		strb	r3, [r1, #3]
 2557 01f2 1FE7     		b	.L169
 2558              	.L157:
 964:../../../../../../Drivers/STM32L0xx_HAL_Driver/Src/stm32l0xx_hal_rtc.c ****       assert_param(IS_RTC_HOUR24(sAlarm->AlarmTime.Hours));
 2559              		.loc 1 964 0
 2560 01f4 CC70     		strb	r4, [r1, #3]
 2561 01f6 83E7     		b	.L158
 2562              	.L176:
 951:../../../../../../Drivers/STM32L0xx_HAL_Driver/Src/stm32l0xx_hal_rtc.c **** 
 2563              		.loc 1 951 0
 2564 01f8 0220     		movs	r0, #2
 2565 01fa 75E7     		b	.L155
ARM GAS  C:\Users\EBANO_~1\AppData\Local\Temp\cc8t01eQ.s 			page 82


 2566              	.LVL235:
 2567              	.L180:
 2568              	.LBB190:
 2569              	.LBB189:
1494:../../../../../../Drivers/STM32L0xx_HAL_Driver/Src/stm32l0xx_hal_rtc.c ****   {
 2570              		.loc 1 1494 0
 2571 01fc 0022     		movs	r2, #0
 2572              	.LVL236:
 2573 01fe B5E7     		b	.L165
 2574              	.LVL237:
 2575              	.L179:
 2576              	.LBE189:
 2577              	.LBE190:
 2578              	.LBB191:
 2579              	.LBB186:
 2580 0200 A046     		mov	r8, r4
 2581 0202 A5E7     		b	.L163
 2582              	.L191:
 2583              		.align	2
 2584              	.L190:
 2585 0204 FFFDFFFF 		.word	-513
 2586 0208 7FFDFFFF 		.word	-641
 2587 020c 00040140 		.word	1073808384
 2588 0210 FFFEFFFF 		.word	-257
 2589 0214 7FFEFFFF 		.word	-385
 2590              	.LBE186:
 2591              	.LBE191:
 2592              		.cfi_endproc
 2593              	.LFE48:
 2594              		.size	HAL_RTC_SetAlarm_IT, .-HAL_RTC_SetAlarm_IT
 2595              		.section	.text.HAL_RTC_DeactivateAlarm,"ax",%progbits
 2596              		.align	1
 2597              		.p2align 2,,3
 2598              		.global	HAL_RTC_DeactivateAlarm
 2599              		.syntax unified
 2600              		.code	16
 2601              		.thumb_func
 2602              		.fpu softvfp
 2603              		.type	HAL_RTC_DeactivateAlarm, %function
 2604              	HAL_RTC_DeactivateAlarm:
 2605              	.LFB49:
1123:../../../../../../Drivers/STM32L0xx_HAL_Driver/Src/stm32l0xx_hal_rtc.c ****   uint32_t tickstart = 0U;
 2606              		.loc 1 1123 0
 2607              		.cfi_startproc
 2608              		@ args = 0, pretend = 0, frame = 0
 2609              		@ frame_needed = 0, uses_anonymous_args = 0
 2610              	.LVL238:
 2611 0000 F0B5     		push	{r4, r5, r6, r7, lr}
 2612              	.LCFI12:
 2613              		.cfi_def_cfa_offset 20
 2614              		.cfi_offset 4, -20
 2615              		.cfi_offset 5, -16
 2616              		.cfi_offset 6, -12
 2617              		.cfi_offset 7, -8
 2618              		.cfi_offset 14, -4
 2619 0002 C646     		mov	lr, r8
1130:../../../../../../Drivers/STM32L0xx_HAL_Driver/Src/stm32l0xx_hal_rtc.c **** 
ARM GAS  C:\Users\EBANO_~1\AppData\Local\Temp\cc8t01eQ.s 			page 83


 2620              		.loc 1 1130 0
 2621 0004 2023     		movs	r3, #32
1123:../../../../../../Drivers/STM32L0xx_HAL_Driver/Src/stm32l0xx_hal_rtc.c ****   uint32_t tickstart = 0U;
 2622              		.loc 1 1123 0
 2623 0006 00B5     		push	{lr}
 2624              	.LCFI13:
 2625              		.cfi_def_cfa_offset 24
 2626              		.cfi_offset 8, -24
1130:../../../../../../Drivers/STM32L0xx_HAL_Driver/Src/stm32l0xx_hal_rtc.c **** 
 2627              		.loc 1 1130 0
 2628 0008 C25C     		ldrb	r2, [r0, r3]
1123:../../../../../../Drivers/STM32L0xx_HAL_Driver/Src/stm32l0xx_hal_rtc.c ****   uint32_t tickstart = 0U;
 2629              		.loc 1 1123 0
 2630 000a 0500     		movs	r5, r0
1130:../../../../../../Drivers/STM32L0xx_HAL_Driver/Src/stm32l0xx_hal_rtc.c **** 
 2631              		.loc 1 1130 0
 2632 000c 012A     		cmp	r2, #1
 2633 000e 55D0     		beq	.L200
1130:../../../../../../Drivers/STM32L0xx_HAL_Driver/Src/stm32l0xx_hal_rtc.c **** 
 2634              		.loc 1 1130 0 is_stmt 0 discriminator 2
 2635 0010 0122     		movs	r2, #1
 2636 0012 C254     		strb	r2, [r0, r3]
1132:../../../../../../Drivers/STM32L0xx_HAL_Driver/Src/stm32l0xx_hal_rtc.c **** 
 2637              		.loc 1 1132 0 is_stmt 1 discriminator 2
 2638 0014 0133     		adds	r3, r3, #1
 2639 0016 0132     		adds	r2, r2, #1
 2640 0018 C254     		strb	r2, [r0, r3]
1135:../../../../../../Drivers/STM32L0xx_HAL_Driver/Src/stm32l0xx_hal_rtc.c **** 
 2641              		.loc 1 1135 0 discriminator 2
 2642 001a 0368     		ldr	r3, [r0]
 2643 001c C832     		adds	r2, r2, #200
 2644 001e 5A62     		str	r2, [r3, #36]
 2645 0020 773A     		subs	r2, r2, #119
 2646 0022 5A62     		str	r2, [r3, #36]
1137:../../../../../../Drivers/STM32L0xx_HAL_Driver/Src/stm32l0xx_hal_rtc.c ****   {
 2647              		.loc 1 1137 0 discriminator 2
 2648 0024 AD32     		adds	r2, r2, #173
 2649 0026 9142     		cmp	r1, r2
 2650 0028 2ED0     		beq	.L204
1167:../../../../../../Drivers/STM32L0xx_HAL_Driver/Src/stm32l0xx_hal_rtc.c **** 
 2651              		.loc 1 1167 0
 2652 002a 9A68     		ldr	r2, [r3, #8]
 2653 002c 2449     		ldr	r1, .L205
 2654              	.LVL239:
1177:../../../../../../Drivers/STM32L0xx_HAL_Driver/Src/stm32l0xx_hal_rtc.c ****       {
 2655              		.loc 1 1177 0
 2656 002e FA27     		movs	r7, #250
1167:../../../../../../Drivers/STM32L0xx_HAL_Driver/Src/stm32l0xx_hal_rtc.c **** 
 2657              		.loc 1 1167 0
 2658 0030 0A40     		ands	r2, r1
 2659 0032 9A60     		str	r2, [r3, #8]
1170:../../../../../../Drivers/STM32L0xx_HAL_Driver/Src/stm32l0xx_hal_rtc.c **** 
 2660              		.loc 1 1170 0
 2661 0034 9A68     		ldr	r2, [r3, #8]
 2662 0036 2349     		ldr	r1, .L205+4
1175:../../../../../../Drivers/STM32L0xx_HAL_Driver/Src/stm32l0xx_hal_rtc.c ****     {
 2663              		.loc 1 1175 0
ARM GAS  C:\Users\EBANO_~1\AppData\Local\Temp\cc8t01eQ.s 			page 84


 2664 0038 0226     		movs	r6, #2
1170:../../../../../../Drivers/STM32L0xx_HAL_Driver/Src/stm32l0xx_hal_rtc.c **** 
 2665              		.loc 1 1170 0
 2666 003a 0A40     		ands	r2, r1
 2667 003c 9A60     		str	r2, [r3, #8]
1172:../../../../../../Drivers/STM32L0xx_HAL_Driver/Src/stm32l0xx_hal_rtc.c **** 
 2668              		.loc 1 1172 0
 2669 003e FFF7FEFF 		bl	HAL_GetTick
 2670              	.LVL240:
1177:../../../../../../Drivers/STM32L0xx_HAL_Driver/Src/stm32l0xx_hal_rtc.c ****       {
 2671              		.loc 1 1177 0
 2672 0042 BF00     		lsls	r7, r7, #2
1172:../../../../../../Drivers/STM32L0xx_HAL_Driver/Src/stm32l0xx_hal_rtc.c **** 
 2673              		.loc 1 1172 0
 2674 0044 8046     		mov	r8, r0
 2675              	.LVL241:
1175:../../../../../../Drivers/STM32L0xx_HAL_Driver/Src/stm32l0xx_hal_rtc.c ****     {
 2676              		.loc 1 1175 0
 2677 0046 05E0     		b	.L198
 2678              	.LVL242:
 2679              	.L199:
1177:../../../../../../Drivers/STM32L0xx_HAL_Driver/Src/stm32l0xx_hal_rtc.c ****       {
 2680              		.loc 1 1177 0
 2681 0048 FFF7FEFF 		bl	HAL_GetTick
 2682              	.LVL243:
 2683 004c 4346     		mov	r3, r8
 2684 004e C01A     		subs	r0, r0, r3
 2685 0050 B842     		cmp	r0, r7
 2686 0052 0FD8     		bhi	.L203
 2687              	.L198:
1175:../../../../../../Drivers/STM32L0xx_HAL_Driver/Src/stm32l0xx_hal_rtc.c ****     {
 2688              		.loc 1 1175 0
 2689 0054 2B68     		ldr	r3, [r5]
 2690 0056 DC68     		ldr	r4, [r3, #12]
 2691 0058 3440     		ands	r4, r6
 2692 005a F5D0     		beq	.L199
 2693              	.L197:
1192:../../../../../../Drivers/STM32L0xx_HAL_Driver/Src/stm32l0xx_hal_rtc.c **** 
 2694              		.loc 1 1192 0
 2695 005c FF22     		movs	r2, #255
 2696 005e 5A62     		str	r2, [r3, #36]
1194:../../../../../../Drivers/STM32L0xx_HAL_Driver/Src/stm32l0xx_hal_rtc.c **** 
 2697              		.loc 1 1194 0
 2698 0060 2123     		movs	r3, #33
 2699 0062 FE3A     		subs	r2, r2, #254
 2700 0064 EA54     		strb	r2, [r5, r3]
1197:../../../../../../Drivers/STM32L0xx_HAL_Driver/Src/stm32l0xx_hal_rtc.c **** 
 2701              		.loc 1 1197 0
 2702 0066 0022     		movs	r2, #0
1199:../../../../../../Drivers/STM32L0xx_HAL_Driver/Src/stm32l0xx_hal_rtc.c **** }
 2703              		.loc 1 1199 0
 2704 0068 0020     		movs	r0, #0
1197:../../../../../../Drivers/STM32L0xx_HAL_Driver/Src/stm32l0xx_hal_rtc.c **** 
 2705              		.loc 1 1197 0
 2706 006a 013B     		subs	r3, r3, #1
 2707 006c EA54     		strb	r2, [r5, r3]
 2708              	.LVL244:
ARM GAS  C:\Users\EBANO_~1\AppData\Local\Temp\cc8t01eQ.s 			page 85


 2709              	.L193:
1200:../../../../../../Drivers/STM32L0xx_HAL_Driver/Src/stm32l0xx_hal_rtc.c **** 
 2710              		.loc 1 1200 0
 2711              		@ sp needed
 2712              	.LVL245:
 2713 006e 04BC     		pop	{r2}
 2714 0070 9046     		mov	r8, r2
 2715 0072 F0BD     		pop	{r4, r5, r6, r7, pc}
 2716              	.LVL246:
 2717              	.L203:
1180:../../../../../../Drivers/STM32L0xx_HAL_Driver/Src/stm32l0xx_hal_rtc.c **** 
 2718              		.loc 1 1180 0
 2719 0074 FF22     		movs	r2, #255
 2720 0076 2B68     		ldr	r3, [r5]
 2721              	.LVL247:
1187:../../../../../../Drivers/STM32L0xx_HAL_Driver/Src/stm32l0xx_hal_rtc.c ****       }
 2722              		.loc 1 1187 0
 2723 0078 0320     		movs	r0, #3
1180:../../../../../../Drivers/STM32L0xx_HAL_Driver/Src/stm32l0xx_hal_rtc.c **** 
 2724              		.loc 1 1180 0
 2725 007a 5A62     		str	r2, [r3, #36]
1182:../../../../../../Drivers/STM32L0xx_HAL_Driver/Src/stm32l0xx_hal_rtc.c **** 
 2726              		.loc 1 1182 0
 2727 007c 2123     		movs	r3, #33
 2728 007e FC3A     		subs	r2, r2, #252
 2729 0080 EA54     		strb	r2, [r5, r3]
1185:../../../../../../Drivers/STM32L0xx_HAL_Driver/Src/stm32l0xx_hal_rtc.c **** 
 2730              		.loc 1 1185 0
 2731 0082 013B     		subs	r3, r3, #1
 2732 0084 EC54     		strb	r4, [r5, r3]
1187:../../../../../../Drivers/STM32L0xx_HAL_Driver/Src/stm32l0xx_hal_rtc.c ****       }
 2733              		.loc 1 1187 0
 2734 0086 F2E7     		b	.L193
 2735              	.LVL248:
 2736              	.L204:
1140:../../../../../../Drivers/STM32L0xx_HAL_Driver/Src/stm32l0xx_hal_rtc.c **** 
 2737              		.loc 1 1140 0
 2738 0088 9A68     		ldr	r2, [r3, #8]
 2739 008a 0F49     		ldr	r1, .L205+8
 2740              	.LVL249:
1150:../../../../../../Drivers/STM32L0xx_HAL_Driver/Src/stm32l0xx_hal_rtc.c ****       {
 2741              		.loc 1 1150 0
 2742 008c FA27     		movs	r7, #250
1140:../../../../../../Drivers/STM32L0xx_HAL_Driver/Src/stm32l0xx_hal_rtc.c **** 
 2743              		.loc 1 1140 0
 2744 008e 0A40     		ands	r2, r1
 2745 0090 9A60     		str	r2, [r3, #8]
1143:../../../../../../Drivers/STM32L0xx_HAL_Driver/Src/stm32l0xx_hal_rtc.c **** 
 2746              		.loc 1 1143 0
 2747 0092 9A68     		ldr	r2, [r3, #8]
 2748 0094 0D49     		ldr	r1, .L205+12
1148:../../../../../../Drivers/STM32L0xx_HAL_Driver/Src/stm32l0xx_hal_rtc.c ****     {
 2749              		.loc 1 1148 0
 2750 0096 0126     		movs	r6, #1
1143:../../../../../../Drivers/STM32L0xx_HAL_Driver/Src/stm32l0xx_hal_rtc.c **** 
 2751              		.loc 1 1143 0
 2752 0098 0A40     		ands	r2, r1
ARM GAS  C:\Users\EBANO_~1\AppData\Local\Temp\cc8t01eQ.s 			page 86


 2753 009a 9A60     		str	r2, [r3, #8]
1145:../../../../../../Drivers/STM32L0xx_HAL_Driver/Src/stm32l0xx_hal_rtc.c **** 
 2754              		.loc 1 1145 0
 2755 009c FFF7FEFF 		bl	HAL_GetTick
 2756              	.LVL250:
1150:../../../../../../Drivers/STM32L0xx_HAL_Driver/Src/stm32l0xx_hal_rtc.c ****       {
 2757              		.loc 1 1150 0
 2758 00a0 BF00     		lsls	r7, r7, #2
1145:../../../../../../Drivers/STM32L0xx_HAL_Driver/Src/stm32l0xx_hal_rtc.c **** 
 2759              		.loc 1 1145 0
 2760 00a2 8046     		mov	r8, r0
 2761              	.LVL251:
1148:../../../../../../Drivers/STM32L0xx_HAL_Driver/Src/stm32l0xx_hal_rtc.c ****     {
 2762              		.loc 1 1148 0
 2763 00a4 05E0     		b	.L195
 2764              	.LVL252:
 2765              	.L196:
1150:../../../../../../Drivers/STM32L0xx_HAL_Driver/Src/stm32l0xx_hal_rtc.c ****       {
 2766              		.loc 1 1150 0
 2767 00a6 FFF7FEFF 		bl	HAL_GetTick
 2768              	.LVL253:
 2769 00aa 4346     		mov	r3, r8
 2770 00ac C01A     		subs	r0, r0, r3
 2771 00ae B842     		cmp	r0, r7
 2772 00b0 E0D8     		bhi	.L203
 2773              	.L195:
1148:../../../../../../Drivers/STM32L0xx_HAL_Driver/Src/stm32l0xx_hal_rtc.c ****     {
 2774              		.loc 1 1148 0
 2775 00b2 2B68     		ldr	r3, [r5]
 2776 00b4 DC68     		ldr	r4, [r3, #12]
 2777 00b6 3440     		ands	r4, r6
 2778 00b8 F5D0     		beq	.L196
 2779 00ba CFE7     		b	.L197
 2780              	.LVL254:
 2781              	.L200:
1130:../../../../../../Drivers/STM32L0xx_HAL_Driver/Src/stm32l0xx_hal_rtc.c **** 
 2782              		.loc 1 1130 0
 2783 00bc 0220     		movs	r0, #2
 2784              	.LVL255:
 2785 00be D6E7     		b	.L193
 2786              	.L206:
 2787              		.align	2
 2788              	.L205:
 2789 00c0 FFFDFFFF 		.word	-513
 2790 00c4 FFDFFFFF 		.word	-8193
 2791 00c8 FFFEFFFF 		.word	-257
 2792 00cc FFEFFFFF 		.word	-4097
 2793              		.cfi_endproc
 2794              	.LFE49:
 2795              		.size	HAL_RTC_DeactivateAlarm, .-HAL_RTC_DeactivateAlarm
 2796              		.section	.text.HAL_RTC_GetAlarm,"ax",%progbits
 2797              		.align	1
 2798              		.p2align 2,,3
 2799              		.global	HAL_RTC_GetAlarm
 2800              		.syntax unified
 2801              		.code	16
 2802              		.thumb_func
ARM GAS  C:\Users\EBANO_~1\AppData\Local\Temp\cc8t01eQ.s 			page 87


 2803              		.fpu softvfp
 2804              		.type	HAL_RTC_GetAlarm, %function
 2805              	HAL_RTC_GetAlarm:
 2806              	.LFB50:
1217:../../../../../../Drivers/STM32L0xx_HAL_Driver/Src/stm32l0xx_hal_rtc.c ****   uint32_t tmpreg = 0U, subsecondtmpreg = 0U;
 2807              		.loc 1 1217 0
 2808              		.cfi_startproc
 2809              		@ args = 0, pretend = 0, frame = 0
 2810              		@ frame_needed = 0, uses_anonymous_args = 0
 2811              	.LVL256:
 2812 0000 F0B5     		push	{r4, r5, r6, r7, lr}
 2813              	.LCFI14:
 2814              		.cfi_def_cfa_offset 20
 2815              		.cfi_offset 4, -20
 2816              		.cfi_offset 5, -16
 2817              		.cfi_offset 6, -12
 2818              		.cfi_offset 7, -8
 2819              		.cfi_offset 14, -4
 2820 0002 CE46     		mov	lr, r9
 2821 0004 4746     		mov	r7, r8
1224:../../../../../../Drivers/STM32L0xx_HAL_Driver/Src/stm32l0xx_hal_rtc.c ****   {
 2822              		.loc 1 1224 0
 2823 0006 8024     		movs	r4, #128
1217:../../../../../../Drivers/STM32L0xx_HAL_Driver/Src/stm32l0xx_hal_rtc.c ****   uint32_t tmpreg = 0U, subsecondtmpreg = 0U;
 2824              		.loc 1 1217 0
 2825 0008 80B5     		push	{r7, lr}
 2826              	.LCFI15:
 2827              		.cfi_def_cfa_offset 28
 2828              		.cfi_offset 8, -28
 2829              		.cfi_offset 9, -24
1217:../../../../../../Drivers/STM32L0xx_HAL_Driver/Src/stm32l0xx_hal_rtc.c ****   uint32_t tmpreg = 0U, subsecondtmpreg = 0U;
 2830              		.loc 1 1217 0
 2831 000a 9946     		mov	r9, r3
 2832 000c 0068     		ldr	r0, [r0]
 2833              	.LVL257:
1224:../../../../../../Drivers/STM32L0xx_HAL_Driver/Src/stm32l0xx_hal_rtc.c ****   {
 2834              		.loc 1 1224 0
 2835 000e 6400     		lsls	r4, r4, #1
 2836 0010 A242     		cmp	r2, r4
 2837 0012 4AD0     		beq	.L212
1244:../../../../../../Drivers/STM32L0xx_HAL_Driver/Src/stm32l0xx_hal_rtc.c **** 
 2838              		.loc 1 1244 0
 2839 0014 8022     		movs	r2, #128
 2840              	.LVL258:
 2841 0016 9200     		lsls	r2, r2, #2
 2842 0018 4A62     		str	r2, [r1, #36]
1250:../../../../../../Drivers/STM32L0xx_HAL_Driver/Src/stm32l0xx_hal_rtc.c ****   sAlarm->AlarmTime.Minutes = (uint32_t)((tmpreg & (RTC_ALRMBR_MNT | RTC_ALRMBR_MNU)) >> 8U);
 2843              		.loc 1 1250 0
 2844 001a C23A     		subs	r2, r2, #194
 2845 001c FF3A     		subs	r2, r2, #255
 2846 001e 1600     		movs	r6, r2
1246:../../../../../../Drivers/STM32L0xx_HAL_Driver/Src/stm32l0xx_hal_rtc.c ****     subsecondtmpreg = (uint32_t)((hrtc->Instance->ALRMBSSR) & RTC_ALRMBSSR_SS);
 2847              		.loc 1 1246 0
 2848 0020 056A     		ldr	r5, [r0, #32]
 2849              	.LVL259:
1250:../../../../../../Drivers/STM32L0xx_HAL_Driver/Src/stm32l0xx_hal_rtc.c ****   sAlarm->AlarmTime.Minutes = (uint32_t)((tmpreg & (RTC_ALRMBR_MNT | RTC_ALRMBR_MNU)) >> 8U);
 2850              		.loc 1 1250 0
ARM GAS  C:\Users\EBANO_~1\AppData\Local\Temp\cc8t01eQ.s 			page 88


 2851 0022 9046     		mov	r8, r2
 2852 0024 2C0C     		lsrs	r4, r5, #16
 2853 0026 E4B2     		uxtb	r4, r4
 2854 0028 2640     		ands	r6, r4
1247:../../../../../../Drivers/STM32L0xx_HAL_Driver/Src/stm32l0xx_hal_rtc.c ****  
 2855              		.loc 1 1247 0
 2856 002a 876C     		ldr	r7, [r0, #72]
 2857              	.LVL260:
1251:../../../../../../Drivers/STM32L0xx_HAL_Driver/Src/stm32l0xx_hal_rtc.c ****   sAlarm->AlarmTime.Seconds = (uint32_t)(tmpreg & (RTC_ALRMBR_ST | RTC_ALRMBR_SU));
 2858              		.loc 1 1251 0
 2859 002c 4032     		adds	r2, r2, #64
1250:../../../../../../Drivers/STM32L0xx_HAL_Driver/Src/stm32l0xx_hal_rtc.c ****   sAlarm->AlarmTime.Minutes = (uint32_t)((tmpreg & (RTC_ALRMBR_MNT | RTC_ALRMBR_MNU)) >> 8U);
 2860              		.loc 1 1250 0
 2861 002e 0E70     		strb	r6, [r1]
1251:../../../../../../Drivers/STM32L0xx_HAL_Driver/Src/stm32l0xx_hal_rtc.c ****   sAlarm->AlarmTime.Seconds = (uint32_t)(tmpreg & (RTC_ALRMBR_ST | RTC_ALRMBR_SU));
 2862              		.loc 1 1251 0
 2863 0030 280A     		lsrs	r0, r5, #8
 2864              	.LVL261:
 2865              	.L211:
1253:../../../../../../Drivers/STM32L0xx_HAL_Driver/Src/stm32l0xx_hal_rtc.c ****   sAlarm->AlarmTime.SubSeconds = (uint32_t) subsecondtmpreg;
 2866              		.loc 1 1253 0
 2867 0032 4023     		movs	r3, #64
1247:../../../../../../Drivers/STM32L0xx_HAL_Driver/Src/stm32l0xx_hal_rtc.c ****  
 2868              		.loc 1 1247 0
 2869 0034 7F04     		lsls	r7, r7, #17
1253:../../../../../../Drivers/STM32L0xx_HAL_Driver/Src/stm32l0xx_hal_rtc.c ****   sAlarm->AlarmTime.SubSeconds = (uint32_t) subsecondtmpreg;
 2870              		.loc 1 1253 0
 2871 0036 1C40     		ands	r4, r3
1247:../../../../../../Drivers/STM32L0xx_HAL_Driver/Src/stm32l0xx_hal_rtc.c ****  
 2872              		.loc 1 1247 0
 2873 0038 7F0C     		lsrs	r7, r7, #17
1255:../../../../../../Drivers/STM32L0xx_HAL_Driver/Src/stm32l0xx_hal_rtc.c ****   sAlarm->AlarmDateWeekDaySel = (uint32_t)(tmpreg & RTC_ALRMBR_WDSEL);
 2874              		.loc 1 1255 0
 2875 003a 4346     		mov	r3, r8
1254:../../../../../../Drivers/STM32L0xx_HAL_Driver/Src/stm32l0xx_hal_rtc.c ****   sAlarm->AlarmDateWeekDay = (uint32_t)((tmpreg & (RTC_ALRMBR_DT | RTC_ALRMBR_DU)) >> 24U);
 2876              		.loc 1 1254 0
 2877 003c 4F60     		str	r7, [r1, #4]
1255:../../../../../../Drivers/STM32L0xx_HAL_Driver/Src/stm32l0xx_hal_rtc.c ****   sAlarm->AlarmDateWeekDaySel = (uint32_t)(tmpreg & RTC_ALRMBR_WDSEL);
 2878              		.loc 1 1255 0
 2879 003e 2027     		movs	r7, #32
1253:../../../../../../Drivers/STM32L0xx_HAL_Driver/Src/stm32l0xx_hal_rtc.c ****   sAlarm->AlarmTime.SubSeconds = (uint32_t) subsecondtmpreg;
 2880              		.loc 1 1253 0
 2881 0040 CC70     		strb	r4, [r1, #3]
1255:../../../../../../Drivers/STM32L0xx_HAL_Driver/Src/stm32l0xx_hal_rtc.c ****   sAlarm->AlarmDateWeekDaySel = (uint32_t)(tmpreg & RTC_ALRMBR_WDSEL);
 2882              		.loc 1 1255 0
 2883 0042 2C0E     		lsrs	r4, r5, #24
1251:../../../../../../Drivers/STM32L0xx_HAL_Driver/Src/stm32l0xx_hal_rtc.c ****   sAlarm->AlarmTime.Seconds = (uint32_t)(tmpreg & (RTC_ALRMBR_ST | RTC_ALRMBR_SU));
 2884              		.loc 1 1251 0
 2885 0044 1040     		ands	r0, r2
1255:../../../../../../Drivers/STM32L0xx_HAL_Driver/Src/stm32l0xx_hal_rtc.c ****   sAlarm->AlarmDateWeekDaySel = (uint32_t)(tmpreg & RTC_ALRMBR_WDSEL);
 2886              		.loc 1 1255 0
 2887 0046 1C40     		ands	r4, r3
1252:../../../../../../Drivers/STM32L0xx_HAL_Driver/Src/stm32l0xx_hal_rtc.c ****   sAlarm->AlarmTime.TimeFormat = (uint32_t)((tmpreg & RTC_ALRMBR_PM) >> 16U);
 2888              		.loc 1 1252 0
 2889 0048 2A40     		ands	r2, r5
1251:../../../../../../Drivers/STM32L0xx_HAL_Driver/Src/stm32l0xx_hal_rtc.c ****   sAlarm->AlarmTime.Seconds = (uint32_t)(tmpreg & (RTC_ALRMBR_ST | RTC_ALRMBR_SU));
 2890              		.loc 1 1251 0
ARM GAS  C:\Users\EBANO_~1\AppData\Local\Temp\cc8t01eQ.s 			page 89


 2891 004a 4870     		strb	r0, [r1, #1]
1252:../../../../../../Drivers/STM32L0xx_HAL_Driver/Src/stm32l0xx_hal_rtc.c ****   sAlarm->AlarmTime.TimeFormat = (uint32_t)((tmpreg & RTC_ALRMBR_PM) >> 16U);
 2892              		.loc 1 1252 0
 2893 004c 8A70     		strb	r2, [r1, #2]
1255:../../../../../../Drivers/STM32L0xx_HAL_Driver/Src/stm32l0xx_hal_rtc.c ****   sAlarm->AlarmDateWeekDaySel = (uint32_t)(tmpreg & RTC_ALRMBR_WDSEL);
 2894              		.loc 1 1255 0
 2895 004e CC55     		strb	r4, [r1, r7]
1256:../../../../../../Drivers/STM32L0xx_HAL_Driver/Src/stm32l0xx_hal_rtc.c ****   sAlarm->AlarmMask = (uint32_t)(tmpreg & RTC_ALARMMASK_ALL);
 2896              		.loc 1 1256 0
 2897 0050 8027     		movs	r7, #128
1260:../../../../../../Drivers/STM32L0xx_HAL_Driver/Src/stm32l0xx_hal_rtc.c ****   {
 2898              		.loc 1 1260 0
 2899 0052 4B46     		mov	r3, r9
1256:../../../../../../Drivers/STM32L0xx_HAL_Driver/Src/stm32l0xx_hal_rtc.c ****   sAlarm->AlarmMask = (uint32_t)(tmpreg & RTC_ALARMMASK_ALL);
 2900              		.loc 1 1256 0
 2901 0054 FF05     		lsls	r7, r7, #23
 2902 0056 2F40     		ands	r7, r5
 2903 0058 CF61     		str	r7, [r1, #28]
1257:../../../../../../Drivers/STM32L0xx_HAL_Driver/Src/stm32l0xx_hal_rtc.c ****  }
 2904              		.loc 1 1257 0
 2905 005a 1A4F     		ldr	r7, .L213
 2906 005c 3D40     		ands	r5, r7
 2907              	.LVL262:
 2908 005e 4D61     		str	r5, [r1, #20]
1260:../../../../../../Drivers/STM32L0xx_HAL_Driver/Src/stm32l0xx_hal_rtc.c ****   {
 2909              		.loc 1 1260 0
 2910 0060 002B     		cmp	r3, #0
 2911 0062 1DD1     		bne	.L210
 2912              	.LVL263:
 2913              	.LBB192:
 2914              	.LBB193:
1511:../../../../../../Drivers/STM32L0xx_HAL_Driver/Src/stm32l0xx_hal_rtc.c ****   return (tmp + (Value & (uint8_t)0x0FU));
 2915              		.loc 1 1511 0
 2916 0064 3509     		lsrs	r5, r6, #4
 2917 0066 AB00     		lsls	r3, r5, #2
 2918              	.LVL264:
 2919 0068 5B19     		adds	r3, r3, r5
 2920              		.loc 1 1512 0
 2921 006a 0F25     		movs	r5, #15
1511:../../../../../../Drivers/STM32L0xx_HAL_Driver/Src/stm32l0xx_hal_rtc.c ****   return (tmp + (Value & (uint8_t)0x0FU));
 2922              		.loc 1 1511 0
 2923 006c 5B00     		lsls	r3, r3, #1
 2924              		.loc 1 1512 0
 2925 006e 2E40     		ands	r6, r5
 2926 0070 9B19     		adds	r3, r3, r6
 2927              	.LBE193:
 2928              	.LBE192:
 2929              	.LBB194:
 2930              	.LBB195:
1511:../../../../../../Drivers/STM32L0xx_HAL_Driver/Src/stm32l0xx_hal_rtc.c ****   return (tmp + (Value & (uint8_t)0x0FU));
 2931              		.loc 1 1511 0
 2932 0072 0609     		lsrs	r6, r0, #4
 2933              	.LBE195:
 2934              	.LBE194:
1262:../../../../../../Drivers/STM32L0xx_HAL_Driver/Src/stm32l0xx_hal_rtc.c ****     sAlarm->AlarmTime.Minutes = RTC_Bcd2ToByte(sAlarm->AlarmTime.Minutes);
 2935              		.loc 1 1262 0
 2936 0074 0B70     		strb	r3, [r1]
ARM GAS  C:\Users\EBANO_~1\AppData\Local\Temp\cc8t01eQ.s 			page 90


 2937              	.LBB197:
 2938              	.LBB196:
1511:../../../../../../Drivers/STM32L0xx_HAL_Driver/Src/stm32l0xx_hal_rtc.c ****   return (tmp + (Value & (uint8_t)0x0FU));
 2939              		.loc 1 1511 0
 2940 0076 B300     		lsls	r3, r6, #2
 2941 0078 9B19     		adds	r3, r3, r6
 2942 007a 5B00     		lsls	r3, r3, #1
 2943              		.loc 1 1512 0
 2944 007c 2840     		ands	r0, r5
 2945 007e 1818     		adds	r0, r3, r0
 2946              	.LBE196:
 2947              	.LBE197:
1263:../../../../../../Drivers/STM32L0xx_HAL_Driver/Src/stm32l0xx_hal_rtc.c ****     sAlarm->AlarmTime.Seconds = RTC_Bcd2ToByte(sAlarm->AlarmTime.Seconds);
 2948              		.loc 1 1263 0
 2949 0080 4870     		strb	r0, [r1, #1]
 2950              	.LBB198:
 2951              	.LBB199:
1511:../../../../../../Drivers/STM32L0xx_HAL_Driver/Src/stm32l0xx_hal_rtc.c ****   return (tmp + (Value & (uint8_t)0x0FU));
 2952              		.loc 1 1511 0
 2953 0082 1009     		lsrs	r0, r2, #4
 2954 0084 8300     		lsls	r3, r0, #2
 2955 0086 1B18     		adds	r3, r3, r0
 2956 0088 5B00     		lsls	r3, r3, #1
 2957              		.loc 1 1512 0
 2958 008a 2A40     		ands	r2, r5
 2959 008c 9A18     		adds	r2, r3, r2
 2960              	.LBE199:
 2961              	.LBE198:
1264:../../../../../../Drivers/STM32L0xx_HAL_Driver/Src/stm32l0xx_hal_rtc.c ****     sAlarm->AlarmDateWeekDay = RTC_Bcd2ToByte(sAlarm->AlarmDateWeekDay);
 2962              		.loc 1 1264 0
 2963 008e 8A70     		strb	r2, [r1, #2]
 2964              	.LBB200:
 2965              	.LBB201:
1511:../../../../../../Drivers/STM32L0xx_HAL_Driver/Src/stm32l0xx_hal_rtc.c ****   return (tmp + (Value & (uint8_t)0x0FU));
 2966              		.loc 1 1511 0
 2967 0090 2209     		lsrs	r2, r4, #4
 2968 0092 9300     		lsls	r3, r2, #2
 2969 0094 9B18     		adds	r3, r3, r2
 2970 0096 5B00     		lsls	r3, r3, #1
 2971              		.loc 1 1512 0
 2972 0098 2C40     		ands	r4, r5
 2973 009a 1C19     		adds	r4, r3, r4
 2974              	.LBE201:
 2975              	.LBE200:
1265:../../../../../../Drivers/STM32L0xx_HAL_Driver/Src/stm32l0xx_hal_rtc.c ****   }
 2976              		.loc 1 1265 0
 2977 009c 2023     		movs	r3, #32
 2978 009e CC54     		strb	r4, [r1, r3]
 2979              	.L210:
1269:../../../../../../Drivers/STM32L0xx_HAL_Driver/Src/stm32l0xx_hal_rtc.c **** 
 2980              		.loc 1 1269 0
 2981 00a0 0020     		movs	r0, #0
 2982              		@ sp needed
 2983              	.LVL265:
 2984 00a2 0CBC     		pop	{r2, r3}
 2985 00a4 9046     		mov	r8, r2
 2986 00a6 9946     		mov	r9, r3
ARM GAS  C:\Users\EBANO_~1\AppData\Local\Temp\cc8t01eQ.s 			page 91


 2987 00a8 F0BD     		pop	{r4, r5, r6, r7, pc}
 2988              	.LVL266:
 2989              	.L212:
1233:../../../../../../Drivers/STM32L0xx_HAL_Driver/Src/stm32l0xx_hal_rtc.c ****   sAlarm->AlarmTime.Minutes = (uint32_t)((tmpreg & (RTC_ALRMAR_MNT | RTC_ALRMAR_MNU)) >> 8U);
 2990              		.loc 1 1233 0
 2991 00aa 3F23     		movs	r3, #63
 2992              	.LVL267:
 2993 00ac 1E00     		movs	r6, r3
1229:../../../../../../Drivers/STM32L0xx_HAL_Driver/Src/stm32l0xx_hal_rtc.c ****     subsecondtmpreg = (uint32_t)((hrtc->Instance->ALRMASSR ) & RTC_ALRMASSR_SS);
 2994              		.loc 1 1229 0
 2995 00ae C569     		ldr	r5, [r0, #28]
 2996              	.LVL268:
1227:../../../../../../Drivers/STM32L0xx_HAL_Driver/Src/stm32l0xx_hal_rtc.c **** 
 2997              		.loc 1 1227 0
 2998 00b0 4A62     		str	r2, [r1, #36]
1233:../../../../../../Drivers/STM32L0xx_HAL_Driver/Src/stm32l0xx_hal_rtc.c ****   sAlarm->AlarmTime.Minutes = (uint32_t)((tmpreg & (RTC_ALRMAR_MNT | RTC_ALRMAR_MNU)) >> 8U);
 2999              		.loc 1 1233 0
 3000 00b2 2C0C     		lsrs	r4, r5, #16
 3001 00b4 E4B2     		uxtb	r4, r4
 3002 00b6 2640     		ands	r6, r4
1230:../../../../../../Drivers/STM32L0xx_HAL_Driver/Src/stm32l0xx_hal_rtc.c **** 
 3003              		.loc 1 1230 0
 3004 00b8 476C     		ldr	r7, [r0, #68]
 3005              	.LVL269:
1233:../../../../../../Drivers/STM32L0xx_HAL_Driver/Src/stm32l0xx_hal_rtc.c ****   sAlarm->AlarmTime.Minutes = (uint32_t)((tmpreg & (RTC_ALRMAR_MNT | RTC_ALRMAR_MNU)) >> 8U);
 3006              		.loc 1 1233 0
 3007 00ba 9846     		mov	r8, r3
 3008 00bc 0E70     		strb	r6, [r1]
1234:../../../../../../Drivers/STM32L0xx_HAL_Driver/Src/stm32l0xx_hal_rtc.c ****   sAlarm->AlarmTime.Seconds = (uint32_t)(tmpreg & (RTC_ALRMAR_ST | RTC_ALRMAR_SU));
 3009              		.loc 1 1234 0
 3010 00be 280A     		lsrs	r0, r5, #8
 3011 00c0 7F22     		movs	r2, #127
 3012              	.LVL270:
 3013 00c2 B6E7     		b	.L211
 3014              	.L214:
 3015              		.align	2
 3016              	.L213:
 3017 00c4 80808080 		.word	-2139062144
 3018              		.cfi_endproc
 3019              	.LFE50:
 3020              		.size	HAL_RTC_GetAlarm, .-HAL_RTC_GetAlarm
 3021              		.section	.text.HAL_RTC_AlarmAEventCallback,"ax",%progbits
 3022              		.align	1
 3023              		.p2align 2,,3
 3024              		.weak	HAL_RTC_AlarmAEventCallback
 3025              		.syntax unified
 3026              		.code	16
 3027              		.thumb_func
 3028              		.fpu softvfp
 3029              		.type	HAL_RTC_AlarmAEventCallback, %function
 3030              	HAL_RTC_AlarmAEventCallback:
 3031              	.LFB62:
 3032              		.cfi_startproc
 3033              		@ args = 0, pretend = 0, frame = 0
 3034              		@ frame_needed = 0, uses_anonymous_args = 0
 3035              		@ link register save eliminated.
 3036              		@ sp needed
ARM GAS  C:\Users\EBANO_~1\AppData\Local\Temp\cc8t01eQ.s 			page 92


 3037 0000 7047     		bx	lr
 3038              		.cfi_endproc
 3039              	.LFE62:
 3040              		.size	HAL_RTC_AlarmAEventCallback, .-HAL_RTC_AlarmAEventCallback
 3041 0002 C046     		.section	.text.HAL_RTC_AlarmIRQHandler,"ax",%progbits
 3042              		.align	1
 3043              		.p2align 2,,3
 3044              		.global	HAL_RTC_AlarmIRQHandler
 3045              		.syntax unified
 3046              		.code	16
 3047              		.thumb_func
 3048              		.fpu softvfp
 3049              		.type	HAL_RTC_AlarmIRQHandler, %function
 3050              	HAL_RTC_AlarmIRQHandler:
 3051              	.LFB51:
1277:../../../../../../Drivers/STM32L0xx_HAL_Driver/Src/stm32l0xx_hal_rtc.c ****   /* Get the AlarmA interrupt source enable status */
 3052              		.loc 1 1277 0
 3053              		.cfi_startproc
 3054              		@ args = 0, pretend = 0, frame = 0
 3055              		@ frame_needed = 0, uses_anonymous_args = 0
 3056              	.LVL271:
1279:../../../../../../Drivers/STM32L0xx_HAL_Driver/Src/stm32l0xx_hal_rtc.c ****   {
 3057              		.loc 1 1279 0
 3058 0000 0368     		ldr	r3, [r0]
1277:../../../../../../Drivers/STM32L0xx_HAL_Driver/Src/stm32l0xx_hal_rtc.c ****   /* Get the AlarmA interrupt source enable status */
 3059              		.loc 1 1277 0
 3060 0002 10B5     		push	{r4, lr}
 3061              	.LCFI16:
 3062              		.cfi_def_cfa_offset 8
 3063              		.cfi_offset 4, -8
 3064              		.cfi_offset 14, -4
1279:../../../../../../Drivers/STM32L0xx_HAL_Driver/Src/stm32l0xx_hal_rtc.c ****   {
 3065              		.loc 1 1279 0
 3066 0004 9A68     		ldr	r2, [r3, #8]
1277:../../../../../../Drivers/STM32L0xx_HAL_Driver/Src/stm32l0xx_hal_rtc.c ****   /* Get the AlarmA interrupt source enable status */
 3067              		.loc 1 1277 0
 3068 0006 0400     		movs	r4, r0
1279:../../../../../../Drivers/STM32L0xx_HAL_Driver/Src/stm32l0xx_hal_rtc.c ****   {
 3069              		.loc 1 1279 0
 3070 0008 D204     		lsls	r2, r2, #19
 3071 000a 02D5     		bpl	.L217
1282:../../../../../../Drivers/STM32L0xx_HAL_Driver/Src/stm32l0xx_hal_rtc.c ****     {
 3072              		.loc 1 1282 0
 3073 000c DA68     		ldr	r2, [r3, #12]
 3074 000e D205     		lsls	r2, r2, #23
 3075 0010 18D4     		bmi	.L231
 3076              	.LVL272:
 3077              	.L217:
1293:../../../../../../Drivers/STM32L0xx_HAL_Driver/Src/stm32l0xx_hal_rtc.c ****   {
 3078              		.loc 1 1293 0
 3079 0012 9A68     		ldr	r2, [r3, #8]
 3080 0014 9204     		lsls	r2, r2, #18
 3081 0016 02D5     		bpl	.L218
1296:../../../../../../Drivers/STM32L0xx_HAL_Driver/Src/stm32l0xx_hal_rtc.c ****     {
 3082              		.loc 1 1296 0
 3083 0018 DB68     		ldr	r3, [r3, #12]
 3084 001a 9B05     		lsls	r3, r3, #22
ARM GAS  C:\Users\EBANO_~1\AppData\Local\Temp\cc8t01eQ.s 			page 93


 3085 001c 07D4     		bmi	.L232
 3086              	.L218:
1307:../../../../../../Drivers/STM32L0xx_HAL_Driver/Src/stm32l0xx_hal_rtc.c **** 
 3087              		.loc 1 1307 0
 3088 001e 8022     		movs	r2, #128
 3089 0020 0D4B     		ldr	r3, .L233
 3090 0022 9202     		lsls	r2, r2, #10
 3091 0024 5A61     		str	r2, [r3, #20]
1310:../../../../../../Drivers/STM32L0xx_HAL_Driver/Src/stm32l0xx_hal_rtc.c **** }
 3092              		.loc 1 1310 0
 3093 0026 2123     		movs	r3, #33
 3094 0028 0122     		movs	r2, #1
1311:../../../../../../Drivers/STM32L0xx_HAL_Driver/Src/stm32l0xx_hal_rtc.c **** 
 3095              		.loc 1 1311 0
 3096              		@ sp needed
1310:../../../../../../Drivers/STM32L0xx_HAL_Driver/Src/stm32l0xx_hal_rtc.c **** }
 3097              		.loc 1 1310 0
 3098 002a E254     		strb	r2, [r4, r3]
 3099              	.LVL273:
1311:../../../../../../Drivers/STM32L0xx_HAL_Driver/Src/stm32l0xx_hal_rtc.c **** 
 3100              		.loc 1 1311 0
 3101 002c 10BD     		pop	{r4, pc}
 3102              	.LVL274:
 3103              	.L232:
1299:../../../../../../Drivers/STM32L0xx_HAL_Driver/Src/stm32l0xx_hal_rtc.c **** 
 3104              		.loc 1 1299 0
 3105 002e 2000     		movs	r0, r4
 3106 0030 FFF7FEFF 		bl	HAL_RTCEx_AlarmBEventCallback
 3107              	.LVL275:
1302:../../../../../../Drivers/STM32L0xx_HAL_Driver/Src/stm32l0xx_hal_rtc.c ****     }
 3108              		.loc 1 1302 0
 3109 0034 FF23     		movs	r3, #255
 3110 0036 2168     		ldr	r1, [r4]
 3111 0038 CA68     		ldr	r2, [r1, #12]
 3112 003a 1A40     		ands	r2, r3
 3113 003c 074B     		ldr	r3, .L233+4
 3114 003e 1343     		orrs	r3, r2
 3115 0040 CB60     		str	r3, [r1, #12]
 3116 0042 ECE7     		b	.L218
 3117              	.LVL276:
 3118              	.L231:
1285:../../../../../../Drivers/STM32L0xx_HAL_Driver/Src/stm32l0xx_hal_rtc.c **** 
 3119              		.loc 1 1285 0
 3120 0044 FFF7FEFF 		bl	HAL_RTC_AlarmAEventCallback
 3121              	.LVL277:
1288:../../../../../../Drivers/STM32L0xx_HAL_Driver/Src/stm32l0xx_hal_rtc.c ****     }
 3122              		.loc 1 1288 0
 3123 0048 FF22     		movs	r2, #255
 3124 004a 2368     		ldr	r3, [r4]
 3125 004c D968     		ldr	r1, [r3, #12]
 3126 004e 1140     		ands	r1, r2
 3127 0050 034A     		ldr	r2, .L233+8
 3128 0052 0A43     		orrs	r2, r1
 3129 0054 DA60     		str	r2, [r3, #12]
 3130 0056 DCE7     		b	.L217
 3131              	.L234:
 3132              		.align	2
ARM GAS  C:\Users\EBANO_~1\AppData\Local\Temp\cc8t01eQ.s 			page 94


 3133              	.L233:
 3134 0058 00040140 		.word	1073808384
 3135 005c 7FFDFFFF 		.word	-641
 3136 0060 7FFEFFFF 		.word	-385
 3137              		.cfi_endproc
 3138              	.LFE51:
 3139              		.size	HAL_RTC_AlarmIRQHandler, .-HAL_RTC_AlarmIRQHandler
 3140              		.section	.text.HAL_RTC_PollForAlarmAEvent,"ax",%progbits
 3141              		.align	1
 3142              		.p2align 2,,3
 3143              		.global	HAL_RTC_PollForAlarmAEvent
 3144              		.syntax unified
 3145              		.code	16
 3146              		.thumb_func
 3147              		.fpu softvfp
 3148              		.type	HAL_RTC_PollForAlarmAEvent, %function
 3149              	HAL_RTC_PollForAlarmAEvent:
 3150              	.LFB53:
1335:../../../../../../Drivers/STM32L0xx_HAL_Driver/Src/stm32l0xx_hal_rtc.c **** 
 3151              		.loc 1 1335 0
 3152              		.cfi_startproc
 3153              		@ args = 0, pretend = 0, frame = 0
 3154              		@ frame_needed = 0, uses_anonymous_args = 0
 3155              	.LVL278:
 3156 0000 F8B5     		push	{r3, r4, r5, r6, r7, lr}
 3157              	.LCFI17:
 3158              		.cfi_def_cfa_offset 24
 3159              		.cfi_offset 3, -24
 3160              		.cfi_offset 4, -20
 3161              		.cfi_offset 5, -16
 3162              		.cfi_offset 6, -12
 3163              		.cfi_offset 7, -8
 3164              		.cfi_offset 14, -4
1335:../../../../../../Drivers/STM32L0xx_HAL_Driver/Src/stm32l0xx_hal_rtc.c **** 
 3165              		.loc 1 1335 0
 3166 0002 0500     		movs	r5, r0
 3167 0004 0C00     		movs	r4, r1
1337:../../../../../../Drivers/STM32L0xx_HAL_Driver/Src/stm32l0xx_hal_rtc.c ****   
 3168              		.loc 1 1337 0
 3169 0006 FFF7FEFF 		bl	HAL_GetTick
 3170              	.LVL279:
1339:../../../../../../Drivers/STM32L0xx_HAL_Driver/Src/stm32l0xx_hal_rtc.c ****   {
 3171              		.loc 1 1339 0
 3172 000a 8026     		movs	r6, #128
1337:../../../../../../Drivers/STM32L0xx_HAL_Driver/Src/stm32l0xx_hal_rtc.c ****   
 3173              		.loc 1 1337 0
 3174 000c 0700     		movs	r7, r0
 3175              	.LVL280:
1339:../../../../../../Drivers/STM32L0xx_HAL_Driver/Src/stm32l0xx_hal_rtc.c ****   {
 3176              		.loc 1 1339 0
 3177 000e 7600     		lsls	r6, r6, #1
 3178              	.LVL281:
 3179              	.L236:
 3180 0010 2A68     		ldr	r2, [r5]
 3181 0012 631C     		adds	r3, r4, #1
 3182 0014 0FD1     		bne	.L240
 3183 0016 8021     		movs	r1, #128
ARM GAS  C:\Users\EBANO_~1\AppData\Local\Temp\cc8t01eQ.s 			page 95


 3184 0018 4900     		lsls	r1, r1, #1
 3185              	.L241:
 3186 001a D368     		ldr	r3, [r2, #12]
 3187 001c 0B42     		tst	r3, r1
 3188 001e FCD0     		beq	.L241
 3189              	.L242:
1352:../../../../../../Drivers/STM32L0xx_HAL_Driver/Src/stm32l0xx_hal_rtc.c **** 
 3190              		.loc 1 1352 0
 3191 0020 FF23     		movs	r3, #255
 3192 0022 D168     		ldr	r1, [r2, #12]
1357:../../../../../../Drivers/STM32L0xx_HAL_Driver/Src/stm32l0xx_hal_rtc.c **** }
 3193              		.loc 1 1357 0
 3194 0024 0020     		movs	r0, #0
1352:../../../../../../Drivers/STM32L0xx_HAL_Driver/Src/stm32l0xx_hal_rtc.c **** 
 3195              		.loc 1 1352 0
 3196 0026 1940     		ands	r1, r3
 3197 0028 0A4B     		ldr	r3, .L246
 3198 002a 0B43     		orrs	r3, r1
 3199 002c D360     		str	r3, [r2, #12]
1355:../../../../../../Drivers/STM32L0xx_HAL_Driver/Src/stm32l0xx_hal_rtc.c **** 
 3200              		.loc 1 1355 0
 3201 002e 2123     		movs	r3, #33
 3202 0030 0122     		movs	r2, #1
 3203 0032 EA54     		strb	r2, [r5, r3]
 3204              	.L238:
1358:../../../../../../Drivers/STM32L0xx_HAL_Driver/Src/stm32l0xx_hal_rtc.c **** 
 3205              		.loc 1 1358 0
 3206              		@ sp needed
 3207              	.LVL282:
 3208              	.LVL283:
 3209              	.LVL284:
 3210 0034 F8BD     		pop	{r3, r4, r5, r6, r7, pc}
 3211              	.LVL285:
 3212              	.L240:
1339:../../../../../../Drivers/STM32L0xx_HAL_Driver/Src/stm32l0xx_hal_rtc.c ****   {
 3213              		.loc 1 1339 0
 3214 0036 D368     		ldr	r3, [r2, #12]
 3215 0038 3342     		tst	r3, r6
 3216 003a F1D1     		bne	.L242
1343:../../../../../../Drivers/STM32L0xx_HAL_Driver/Src/stm32l0xx_hal_rtc.c ****       {
 3217              		.loc 1 1343 0
 3218 003c 002C     		cmp	r4, #0
 3219 003e 04D0     		beq	.L239
1343:../../../../../../Drivers/STM32L0xx_HAL_Driver/Src/stm32l0xx_hal_rtc.c ****       {
 3220              		.loc 1 1343 0 is_stmt 0 discriminator 1
 3221 0040 FFF7FEFF 		bl	HAL_GetTick
 3222              	.LVL286:
 3223 0044 C01B     		subs	r0, r0, r7
 3224 0046 A042     		cmp	r0, r4
 3225 0048 E2D9     		bls	.L236
 3226              	.L239:
1345:../../../../../../Drivers/STM32L0xx_HAL_Driver/Src/stm32l0xx_hal_rtc.c ****         return HAL_TIMEOUT;
 3227              		.loc 1 1345 0 is_stmt 1
 3228 004a 2123     		movs	r3, #33
 3229 004c 0322     		movs	r2, #3
1346:../../../../../../Drivers/STM32L0xx_HAL_Driver/Src/stm32l0xx_hal_rtc.c ****       }
 3230              		.loc 1 1346 0
ARM GAS  C:\Users\EBANO_~1\AppData\Local\Temp\cc8t01eQ.s 			page 96


 3231 004e 0320     		movs	r0, #3
1345:../../../../../../Drivers/STM32L0xx_HAL_Driver/Src/stm32l0xx_hal_rtc.c ****         return HAL_TIMEOUT;
 3232              		.loc 1 1345 0
 3233 0050 EA54     		strb	r2, [r5, r3]
1346:../../../../../../Drivers/STM32L0xx_HAL_Driver/Src/stm32l0xx_hal_rtc.c ****       }
 3234              		.loc 1 1346 0
 3235 0052 EFE7     		b	.L238
 3236              	.L247:
 3237              		.align	2
 3238              	.L246:
 3239 0054 7FFEFFFF 		.word	-385
 3240              		.cfi_endproc
 3241              	.LFE53:
 3242              		.size	HAL_RTC_PollForAlarmAEvent, .-HAL_RTC_PollForAlarmAEvent
 3243              		.section	.text.HAL_RTC_WaitForSynchro,"ax",%progbits
 3244              		.align	1
 3245              		.p2align 2,,3
 3246              		.global	HAL_RTC_WaitForSynchro
 3247              		.syntax unified
 3248              		.code	16
 3249              		.thumb_func
 3250              		.fpu softvfp
 3251              		.type	HAL_RTC_WaitForSynchro, %function
 3252              	HAL_RTC_WaitForSynchro:
 3253              	.LFB54:
1394:../../../../../../Drivers/STM32L0xx_HAL_Driver/Src/stm32l0xx_hal_rtc.c ****   uint32_t tickstart = 0U;
 3254              		.loc 1 1394 0
 3255              		.cfi_startproc
 3256              		@ args = 0, pretend = 0, frame = 0
 3257              		@ frame_needed = 0, uses_anonymous_args = 0
 3258              	.LVL287:
1398:../../../../../../Drivers/STM32L0xx_HAL_Driver/Src/stm32l0xx_hal_rtc.c **** 
 3259              		.loc 1 1398 0
 3260 0000 A021     		movs	r1, #160
 3261 0002 0268     		ldr	r2, [r0]
1394:../../../../../../Drivers/STM32L0xx_HAL_Driver/Src/stm32l0xx_hal_rtc.c ****   uint32_t tickstart = 0U;
 3262              		.loc 1 1394 0
 3263 0004 F8B5     		push	{r3, r4, r5, r6, r7, lr}
 3264              	.LCFI18:
 3265              		.cfi_def_cfa_offset 24
 3266              		.cfi_offset 3, -24
 3267              		.cfi_offset 4, -20
 3268              		.cfi_offset 5, -16
 3269              		.cfi_offset 6, -12
 3270              		.cfi_offset 7, -8
 3271              		.cfi_offset 14, -4
1398:../../../../../../Drivers/STM32L0xx_HAL_Driver/Src/stm32l0xx_hal_rtc.c **** 
 3272              		.loc 1 1398 0
 3273 0006 D368     		ldr	r3, [r2, #12]
1394:../../../../../../Drivers/STM32L0xx_HAL_Driver/Src/stm32l0xx_hal_rtc.c ****   uint32_t tickstart = 0U;
 3274              		.loc 1 1394 0
 3275 0008 0400     		movs	r4, r0
1398:../../../../../../Drivers/STM32L0xx_HAL_Driver/Src/stm32l0xx_hal_rtc.c **** 
 3276              		.loc 1 1398 0
 3277 000a 8B43     		bics	r3, r1
 3278 000c D360     		str	r3, [r2, #12]
1400:../../../../../../Drivers/STM32L0xx_HAL_Driver/Src/stm32l0xx_hal_rtc.c **** 
ARM GAS  C:\Users\EBANO_~1\AppData\Local\Temp\cc8t01eQ.s 			page 97


 3279              		.loc 1 1400 0
 3280 000e FFF7FEFF 		bl	HAL_GetTick
 3281              	.LVL288:
1405:../../../../../../Drivers/STM32L0xx_HAL_Driver/Src/stm32l0xx_hal_rtc.c ****     {
 3282              		.loc 1 1405 0
 3283 0012 FA26     		movs	r6, #250
1400:../../../../../../Drivers/STM32L0xx_HAL_Driver/Src/stm32l0xx_hal_rtc.c **** 
 3284              		.loc 1 1400 0
 3285 0014 0700     		movs	r7, r0
 3286              	.LVL289:
1403:../../../../../../Drivers/STM32L0xx_HAL_Driver/Src/stm32l0xx_hal_rtc.c ****   {
 3287              		.loc 1 1403 0
 3288 0016 2025     		movs	r5, #32
1405:../../../../../../Drivers/STM32L0xx_HAL_Driver/Src/stm32l0xx_hal_rtc.c ****     {
 3289              		.loc 1 1405 0
 3290 0018 B600     		lsls	r6, r6, #2
1403:../../../../../../Drivers/STM32L0xx_HAL_Driver/Src/stm32l0xx_hal_rtc.c ****   {
 3291              		.loc 1 1403 0
 3292 001a 04E0     		b	.L249
 3293              	.LVL290:
 3294              	.L251:
1405:../../../../../../Drivers/STM32L0xx_HAL_Driver/Src/stm32l0xx_hal_rtc.c ****     {
 3295              		.loc 1 1405 0
 3296 001c FFF7FEFF 		bl	HAL_GetTick
 3297              	.LVL291:
 3298 0020 C01B     		subs	r0, r0, r7
 3299 0022 B042     		cmp	r0, r6
 3300 0024 05D8     		bhi	.L252
 3301              	.L249:
1403:../../../../../../Drivers/STM32L0xx_HAL_Driver/Src/stm32l0xx_hal_rtc.c ****   {
 3302              		.loc 1 1403 0
 3303 0026 2368     		ldr	r3, [r4]
 3304 0028 DB68     		ldr	r3, [r3, #12]
 3305 002a 1D42     		tst	r5, r3
 3306 002c F6D0     		beq	.L251
1411:../../../../../../Drivers/STM32L0xx_HAL_Driver/Src/stm32l0xx_hal_rtc.c **** }
 3307              		.loc 1 1411 0
 3308 002e 0020     		movs	r0, #0
 3309              	.L250:
1412:../../../../../../Drivers/STM32L0xx_HAL_Driver/Src/stm32l0xx_hal_rtc.c **** 
 3310              		.loc 1 1412 0
 3311              		@ sp needed
 3312              	.LVL292:
 3313              	.LVL293:
 3314 0030 F8BD     		pop	{r3, r4, r5, r6, r7, pc}
 3315              	.LVL294:
 3316              	.L252:
1407:../../../../../../Drivers/STM32L0xx_HAL_Driver/Src/stm32l0xx_hal_rtc.c ****     }
 3317              		.loc 1 1407 0
 3318 0032 0320     		movs	r0, #3
 3319 0034 FCE7     		b	.L250
 3320              		.cfi_endproc
 3321              	.LFE54:
 3322              		.size	HAL_RTC_WaitForSynchro, .-HAL_RTC_WaitForSynchro
 3323 0036 C046     		.section	.text.HAL_RTC_GetState,"ax",%progbits
 3324              		.align	1
 3325              		.p2align 2,,3
ARM GAS  C:\Users\EBANO_~1\AppData\Local\Temp\cc8t01eQ.s 			page 98


 3326              		.global	HAL_RTC_GetState
 3327              		.syntax unified
 3328              		.code	16
 3329              		.thumb_func
 3330              		.fpu softvfp
 3331              		.type	HAL_RTC_GetState, %function
 3332              	HAL_RTC_GetState:
 3333              	.LFB55:
1438:../../../../../../Drivers/STM32L0xx_HAL_Driver/Src/stm32l0xx_hal_rtc.c ****   /* Return RTC handle state */
 3334              		.loc 1 1438 0
 3335              		.cfi_startproc
 3336              		@ args = 0, pretend = 0, frame = 0
 3337              		@ frame_needed = 0, uses_anonymous_args = 0
 3338              		@ link register save eliminated.
 3339              	.LVL295:
1440:../../../../../../Drivers/STM32L0xx_HAL_Driver/Src/stm32l0xx_hal_rtc.c **** }
 3340              		.loc 1 1440 0
 3341 0000 2123     		movs	r3, #33
 3342 0002 C05C     		ldrb	r0, [r0, r3]
 3343              	.LVL296:
1441:../../../../../../Drivers/STM32L0xx_HAL_Driver/Src/stm32l0xx_hal_rtc.c **** 
 3344              		.loc 1 1441 0
 3345              		@ sp needed
1440:../../../../../../Drivers/STM32L0xx_HAL_Driver/Src/stm32l0xx_hal_rtc.c **** }
 3346              		.loc 1 1440 0
 3347 0004 C0B2     		uxtb	r0, r0
1441:../../../../../../Drivers/STM32L0xx_HAL_Driver/Src/stm32l0xx_hal_rtc.c **** 
 3348              		.loc 1 1441 0
 3349 0006 7047     		bx	lr
 3350              		.cfi_endproc
 3351              	.LFE55:
 3352              		.size	HAL_RTC_GetState, .-HAL_RTC_GetState
 3353              		.section	.text.RTC_EnterInitMode,"ax",%progbits
 3354              		.align	1
 3355              		.p2align 2,,3
 3356              		.global	RTC_EnterInitMode
 3357              		.syntax unified
 3358              		.code	16
 3359              		.thumb_func
 3360              		.fpu softvfp
 3361              		.type	RTC_EnterInitMode, %function
 3362              	RTC_EnterInitMode:
 3363              	.LFB56:
1461:../../../../../../Drivers/STM32L0xx_HAL_Driver/Src/stm32l0xx_hal_rtc.c ****   uint32_t tickstart = 0U;
 3364              		.loc 1 1461 0
 3365              		.cfi_startproc
 3366              		@ args = 0, pretend = 0, frame = 0
 3367              		@ frame_needed = 0, uses_anonymous_args = 0
 3368              	.LVL297:
 3369 0000 F8B5     		push	{r3, r4, r5, r6, r7, lr}
 3370              	.LCFI19:
 3371              		.cfi_def_cfa_offset 24
 3372              		.cfi_offset 3, -24
 3373              		.cfi_offset 4, -20
 3374              		.cfi_offset 5, -16
 3375              		.cfi_offset 6, -12
 3376              		.cfi_offset 7, -8
ARM GAS  C:\Users\EBANO_~1\AppData\Local\Temp\cc8t01eQ.s 			page 99


 3377              		.cfi_offset 14, -4
1465:../../../../../../Drivers/STM32L0xx_HAL_Driver/Src/stm32l0xx_hal_rtc.c ****   {
 3378              		.loc 1 1465 0
 3379 0002 0368     		ldr	r3, [r0]
1461:../../../../../../Drivers/STM32L0xx_HAL_Driver/Src/stm32l0xx_hal_rtc.c ****   uint32_t tickstart = 0U;
 3380              		.loc 1 1461 0
 3381 0004 0400     		movs	r4, r0
1465:../../../../../../Drivers/STM32L0xx_HAL_Driver/Src/stm32l0xx_hal_rtc.c ****   {
 3382              		.loc 1 1465 0
 3383 0006 DA68     		ldr	r2, [r3, #12]
 3384 0008 5206     		lsls	r2, r2, #25
 3385 000a 01D5     		bpl	.L255
 3386              	.LVL298:
 3387              	.L259:
1481:../../../../../../Drivers/STM32L0xx_HAL_Driver/Src/stm32l0xx_hal_rtc.c **** }
 3388              		.loc 1 1481 0
 3389 000c 0020     		movs	r0, #0
 3390              	.L256:
1482:../../../../../../Drivers/STM32L0xx_HAL_Driver/Src/stm32l0xx_hal_rtc.c **** 
 3391              		.loc 1 1482 0
 3392              		@ sp needed
 3393              	.LVL299:
 3394 000e F8BD     		pop	{r3, r4, r5, r6, r7, pc}
 3395              	.LVL300:
 3396              	.L255:
1468:../../../../../../Drivers/STM32L0xx_HAL_Driver/Src/stm32l0xx_hal_rtc.c **** 
 3397              		.loc 1 1468 0
 3398 0010 0122     		movs	r2, #1
 3399 0012 5242     		rsbs	r2, r2, #0
 3400 0014 DA60     		str	r2, [r3, #12]
1470:../../../../../../Drivers/STM32L0xx_HAL_Driver/Src/stm32l0xx_hal_rtc.c ****     /* Wait till RTC is in INIT state and if Time out is reached exit */
 3401              		.loc 1 1470 0
 3402 0016 FFF7FEFF 		bl	HAL_GetTick
 3403              	.LVL301:
1474:../../../../../../Drivers/STM32L0xx_HAL_Driver/Src/stm32l0xx_hal_rtc.c ****       {
 3404              		.loc 1 1474 0
 3405 001a FA26     		movs	r6, #250
1470:../../../../../../Drivers/STM32L0xx_HAL_Driver/Src/stm32l0xx_hal_rtc.c ****     /* Wait till RTC is in INIT state and if Time out is reached exit */
 3406              		.loc 1 1470 0
 3407 001c 0700     		movs	r7, r0
 3408              	.LVL302:
1472:../../../../../../Drivers/STM32L0xx_HAL_Driver/Src/stm32l0xx_hal_rtc.c ****     {
 3409              		.loc 1 1472 0
 3410 001e 4025     		movs	r5, #64
1474:../../../../../../Drivers/STM32L0xx_HAL_Driver/Src/stm32l0xx_hal_rtc.c ****       {
 3411              		.loc 1 1474 0
 3412 0020 B600     		lsls	r6, r6, #2
1472:../../../../../../Drivers/STM32L0xx_HAL_Driver/Src/stm32l0xx_hal_rtc.c ****     {
 3413              		.loc 1 1472 0
 3414 0022 04E0     		b	.L257
 3415              	.LVL303:
 3416              	.L258:
1474:../../../../../../Drivers/STM32L0xx_HAL_Driver/Src/stm32l0xx_hal_rtc.c ****       {
 3417              		.loc 1 1474 0
 3418 0024 FFF7FEFF 		bl	HAL_GetTick
 3419              	.LVL304:
 3420 0028 C01B     		subs	r0, r0, r7
ARM GAS  C:\Users\EBANO_~1\AppData\Local\Temp\cc8t01eQ.s 			page 100


 3421 002a B042     		cmp	r0, r6
 3422 002c 04D8     		bhi	.L260
 3423              	.L257:
1472:../../../../../../Drivers/STM32L0xx_HAL_Driver/Src/stm32l0xx_hal_rtc.c ****     {
 3424              		.loc 1 1472 0
 3425 002e 2368     		ldr	r3, [r4]
 3426 0030 DB68     		ldr	r3, [r3, #12]
 3427 0032 1D42     		tst	r5, r3
 3428 0034 F6D0     		beq	.L258
 3429 0036 E9E7     		b	.L259
 3430              	.L260:
1476:../../../../../../Drivers/STM32L0xx_HAL_Driver/Src/stm32l0xx_hal_rtc.c ****       }
 3431              		.loc 1 1476 0
 3432 0038 0320     		movs	r0, #3
 3433 003a E8E7     		b	.L256
 3434              		.cfi_endproc
 3435              	.LFE56:
 3436              		.size	RTC_EnterInitMode, .-RTC_EnterInitMode
 3437              		.section	.text.RTC_ByteToBcd2,"ax",%progbits
 3438              		.align	1
 3439              		.p2align 2,,3
 3440              		.global	RTC_ByteToBcd2
 3441              		.syntax unified
 3442              		.code	16
 3443              		.thumb_func
 3444              		.fpu softvfp
 3445              		.type	RTC_ByteToBcd2, %function
 3446              	RTC_ByteToBcd2:
 3447              	.LFB57:
1491:../../../../../../Drivers/STM32L0xx_HAL_Driver/Src/stm32l0xx_hal_rtc.c ****   uint32_t bcdhigh = 0U;
 3448              		.loc 1 1491 0
 3449              		.cfi_startproc
 3450              		@ args = 0, pretend = 0, frame = 0
 3451              		@ frame_needed = 0, uses_anonymous_args = 0
 3452              		@ link register save eliminated.
 3453              	.LVL305:
1492:../../../../../../Drivers/STM32L0xx_HAL_Driver/Src/stm32l0xx_hal_rtc.c **** 
 3454              		.loc 1 1492 0
 3455 0000 0023     		movs	r3, #0
1494:../../../../../../Drivers/STM32L0xx_HAL_Driver/Src/stm32l0xx_hal_rtc.c ****   {
 3456              		.loc 1 1494 0
 3457 0002 0928     		cmp	r0, #9
 3458 0004 06D9     		bls	.L262
 3459              	.LVL306:
 3460              	.L263:
1497:../../../../../../Drivers/STM32L0xx_HAL_Driver/Src/stm32l0xx_hal_rtc.c ****   }
 3461              		.loc 1 1497 0
 3462 0006 0A38     		subs	r0, r0, #10
 3463              	.LVL307:
 3464 0008 C0B2     		uxtb	r0, r0
1496:../../../../../../Drivers/STM32L0xx_HAL_Driver/Src/stm32l0xx_hal_rtc.c ****     Value -= 10U;
 3465              		.loc 1 1496 0
 3466 000a 0133     		adds	r3, r3, #1
 3467              	.LVL308:
1494:../../../../../../Drivers/STM32L0xx_HAL_Driver/Src/stm32l0xx_hal_rtc.c ****   {
 3468              		.loc 1 1494 0
 3469 000c 0928     		cmp	r0, #9
ARM GAS  C:\Users\EBANO_~1\AppData\Local\Temp\cc8t01eQ.s 			page 101


 3470 000e FAD8     		bhi	.L263
 3471 0010 1B01     		lsls	r3, r3, #4
 3472              	.LVL309:
 3473 0012 DBB2     		uxtb	r3, r3
 3474              	.L262:
1500:../../../../../../Drivers/STM32L0xx_HAL_Driver/Src/stm32l0xx_hal_rtc.c **** }
 3475              		.loc 1 1500 0
 3476 0014 1843     		orrs	r0, r3
 3477              	.LVL310:
1501:../../../../../../Drivers/STM32L0xx_HAL_Driver/Src/stm32l0xx_hal_rtc.c **** 
 3478              		.loc 1 1501 0
 3479              		@ sp needed
 3480 0016 7047     		bx	lr
 3481              		.cfi_endproc
 3482              	.LFE57:
 3483              		.size	RTC_ByteToBcd2, .-RTC_ByteToBcd2
 3484              		.section	.text.RTC_Bcd2ToByte,"ax",%progbits
 3485              		.align	1
 3486              		.p2align 2,,3
 3487              		.global	RTC_Bcd2ToByte
 3488              		.syntax unified
 3489              		.code	16
 3490              		.thumb_func
 3491              		.fpu softvfp
 3492              		.type	RTC_Bcd2ToByte, %function
 3493              	RTC_Bcd2ToByte:
 3494              	.LFB58:
1509:../../../../../../Drivers/STM32L0xx_HAL_Driver/Src/stm32l0xx_hal_rtc.c ****   uint32_t tmp = 0U;
 3495              		.loc 1 1509 0
 3496              		.cfi_startproc
 3497              		@ args = 0, pretend = 0, frame = 0
 3498              		@ frame_needed = 0, uses_anonymous_args = 0
 3499              		@ link register save eliminated.
 3500              	.LVL311:
1509:../../../../../../Drivers/STM32L0xx_HAL_Driver/Src/stm32l0xx_hal_rtc.c ****   uint32_t tmp = 0U;
 3501              		.loc 1 1509 0
 3502 0000 0200     		movs	r2, r0
1511:../../../../../../Drivers/STM32L0xx_HAL_Driver/Src/stm32l0xx_hal_rtc.c ****   return (tmp + (Value & (uint8_t)0x0FU));
 3503              		.loc 1 1511 0
 3504 0002 0009     		lsrs	r0, r0, #4
 3505              	.LVL312:
 3506 0004 8300     		lsls	r3, r0, #2
 3507 0006 1B18     		adds	r3, r3, r0
 3508              		.loc 1 1512 0
 3509 0008 0F20     		movs	r0, #15
1511:../../../../../../Drivers/STM32L0xx_HAL_Driver/Src/stm32l0xx_hal_rtc.c ****   return (tmp + (Value & (uint8_t)0x0FU));
 3510              		.loc 1 1511 0
 3511 000a 5B00     		lsls	r3, r3, #1
 3512              		.loc 1 1512 0
 3513 000c 1040     		ands	r0, r2
 3514 000e 1818     		adds	r0, r3, r0
 3515 0010 C0B2     		uxtb	r0, r0
1513:../../../../../../Drivers/STM32L0xx_HAL_Driver/Src/stm32l0xx_hal_rtc.c **** }
 3516              		.loc 1 1513 0
 3517              		@ sp needed
 3518 0012 7047     		bx	lr
 3519              		.cfi_endproc
ARM GAS  C:\Users\EBANO_~1\AppData\Local\Temp\cc8t01eQ.s 			page 102


 3520              	.LFE58:
 3521              		.size	RTC_Bcd2ToByte, .-RTC_Bcd2ToByte
 3522              		.text
 3523              	.Letext0:
 3524              		.file 2 "c:\\program files (x86)\\gnu tools arm embedded\\7 2018-q2-update\\arm-none-eabi\\include
 3525              		.file 3 "c:\\program files (x86)\\gnu tools arm embedded\\7 2018-q2-update\\arm-none-eabi\\include
 3526              		.file 4 "../../../../../../Drivers/CMSIS/Device/ST/STM32L0xx/Include/system_stm32l0xx.h"
 3527              		.file 5 "../../../../../../Drivers/CMSIS/Device/ST/STM32L0xx/Include/stm32l072xx.h"
 3528              		.file 6 "c:\\program files (x86)\\gnu tools arm embedded\\7 2018-q2-update\\arm-none-eabi\\include
 3529              		.file 7 "c:\\program files (x86)\\gnu tools arm embedded\\7 2018-q2-update\\arm-none-eabi\\include
 3530              		.file 8 "c:\\program files (x86)\\gnu tools arm embedded\\7 2018-q2-update\\lib\\gcc\\arm-none-eab
 3531              		.file 9 "c:\\program files (x86)\\gnu tools arm embedded\\7 2018-q2-update\\arm-none-eabi\\include
 3532              		.file 10 "../../../../../../Drivers/CMSIS/Device/ST/STM32L0xx/Include/stm32l0xx.h"
 3533              		.file 11 "../../../../../../Drivers/STM32L0xx_HAL_Driver/Inc/stm32l0xx_hal_def.h"
 3534              		.file 12 "../../../../../../Drivers/STM32L0xx_HAL_Driver/Inc/stm32l0xx_hal_rtc.h"
 3535              		.file 13 "../../../../../../Drivers/STM32L0xx_HAL_Driver/Inc/stm32l0xx_hal.h"
 3536              		.file 14 "../../../../../../Drivers/STM32L0xx_HAL_Driver/Inc/stm32l0xx_hal_rtc_ex.h"
 3537              		.section	.debug_info,"",%progbits
 3538              	.Ldebug_info0:
 3539 0000 D41B0000 		.4byte	0x1bd4
 3540 0004 0200     		.2byte	0x2
 3541 0006 00000000 		.4byte	.Ldebug_abbrev0
 3542 000a 04       		.byte	0x4
 3543 000b 01       		.uleb128 0x1
 3544 000c DF080000 		.4byte	.LASF233
 3545 0010 0C       		.byte	0xc
 3546 0011 55000000 		.4byte	.LASF234
 3547 0015 C9020000 		.4byte	.LASF235
 3548 0019 A8010000 		.4byte	.Ldebug_ranges0+0x1a8
 3549 001d 00000000 		.4byte	0
 3550 0021 00000000 		.4byte	0
 3551 0025 00000000 		.4byte	.Ldebug_line0
 3552 0029 02       		.uleb128 0x2
 3553 002a 01       		.byte	0x1
 3554 002b 06       		.byte	0x6
 3555 002c 26020000 		.4byte	.LASF0
 3556 0030 03       		.uleb128 0x3
 3557 0031 64010000 		.4byte	.LASF5
 3558 0035 02       		.byte	0x2
 3559 0036 2B       		.byte	0x2b
 3560 0037 3B000000 		.4byte	0x3b
 3561 003b 02       		.uleb128 0x2
 3562 003c 01       		.byte	0x1
 3563 003d 08       		.byte	0x8
 3564 003e 54020000 		.4byte	.LASF1
 3565 0042 02       		.uleb128 0x2
 3566 0043 02       		.byte	0x2
 3567 0044 05       		.byte	0x5
 3568 0045 CF080000 		.4byte	.LASF2
 3569 0049 02       		.uleb128 0x2
 3570 004a 02       		.byte	0x2
 3571 004b 07       		.byte	0x7
 3572 004c 5D0A0000 		.4byte	.LASF3
 3573 0050 02       		.uleb128 0x2
 3574 0051 04       		.byte	0x4
 3575 0052 05       		.byte	0x5
 3576 0053 9F010000 		.4byte	.LASF4
ARM GAS  C:\Users\EBANO_~1\AppData\Local\Temp\cc8t01eQ.s 			page 103


 3577 0057 03       		.uleb128 0x3
 3578 0058 CC040000 		.4byte	.LASF6
 3579 005c 02       		.byte	0x2
 3580 005d 4F       		.byte	0x4f
 3581 005e 62000000 		.4byte	0x62
 3582 0062 02       		.uleb128 0x2
 3583 0063 04       		.byte	0x4
 3584 0064 07       		.byte	0x7
 3585 0065 01040000 		.4byte	.LASF7
 3586 0069 02       		.uleb128 0x2
 3587 006a 08       		.byte	0x8
 3588 006b 05       		.byte	0x5
 3589 006c E9040000 		.4byte	.LASF8
 3590 0070 02       		.uleb128 0x2
 3591 0071 08       		.byte	0x8
 3592 0072 07       		.byte	0x7
 3593 0073 80070000 		.4byte	.LASF9
 3594 0077 04       		.uleb128 0x4
 3595 0078 04       		.byte	0x4
 3596 0079 05       		.byte	0x5
 3597 007a 696E7400 		.ascii	"int\000"
 3598 007e 02       		.uleb128 0x2
 3599 007f 04       		.byte	0x4
 3600 0080 07       		.byte	0x7
 3601 0081 AA050000 		.4byte	.LASF10
 3602 0085 03       		.uleb128 0x3
 3603 0086 3D020000 		.4byte	.LASF11
 3604 008a 03       		.byte	0x3
 3605 008b 18       		.byte	0x18
 3606 008c 30000000 		.4byte	0x30
 3607 0090 05       		.uleb128 0x5
 3608 0091 85000000 		.4byte	0x85
 3609 0095 03       		.uleb128 0x3
 3610 0096 290A0000 		.4byte	.LASF12
 3611 009a 03       		.byte	0x3
 3612 009b 30       		.byte	0x30
 3613 009c 57000000 		.4byte	0x57
 3614 00a0 06       		.uleb128 0x6
 3615 00a1 95000000 		.4byte	0x95
 3616 00a5 07       		.uleb128 0x7
 3617 00a6 3F040000 		.4byte	.LASF13
 3618 00aa 04       		.byte	0x4
 3619 00ab 4A       		.byte	0x4a
 3620 00ac 95000000 		.4byte	0x95
 3621 00b0 01       		.byte	0x1
 3622 00b1 01       		.byte	0x1
 3623 00b2 08       		.uleb128 0x8
 3624 00b3 90000000 		.4byte	0x90
 3625 00b7 C2000000 		.4byte	0xc2
 3626 00bb 09       		.uleb128 0x9
 3627 00bc 7E000000 		.4byte	0x7e
 3628 00c0 0F       		.byte	0xf
 3629 00c1 00       		.byte	0
 3630 00c2 05       		.uleb128 0x5
 3631 00c3 B2000000 		.4byte	0xb2
 3632 00c7 07       		.uleb128 0x7
 3633 00c8 30070000 		.4byte	.LASF14
ARM GAS  C:\Users\EBANO_~1\AppData\Local\Temp\cc8t01eQ.s 			page 104


 3634 00cc 04       		.byte	0x4
 3635 00cd 4D       		.byte	0x4d
 3636 00ce C2000000 		.4byte	0xc2
 3637 00d2 01       		.byte	0x1
 3638 00d3 01       		.byte	0x1
 3639 00d4 08       		.uleb128 0x8
 3640 00d5 90000000 		.4byte	0x90
 3641 00d9 E4000000 		.4byte	0xe4
 3642 00dd 09       		.uleb128 0x9
 3643 00de 7E000000 		.4byte	0x7e
 3644 00e2 07       		.byte	0x7
 3645 00e3 00       		.byte	0
 3646 00e4 05       		.uleb128 0x5
 3647 00e5 D4000000 		.4byte	0xd4
 3648 00e9 07       		.uleb128 0x7
 3649 00ea AF080000 		.4byte	.LASF15
 3650 00ee 04       		.byte	0x4
 3651 00ef 4E       		.byte	0x4e
 3652 00f0 E4000000 		.4byte	0xe4
 3653 00f4 01       		.byte	0x1
 3654 00f5 01       		.byte	0x1
 3655 00f6 08       		.uleb128 0x8
 3656 00f7 90000000 		.4byte	0x90
 3657 00fb 06010000 		.4byte	0x106
 3658 00ff 09       		.uleb128 0x9
 3659 0100 7E000000 		.4byte	0x7e
 3660 0104 08       		.byte	0x8
 3661 0105 00       		.byte	0
 3662 0106 05       		.uleb128 0x5
 3663 0107 F6000000 		.4byte	0xf6
 3664 010b 07       		.uleb128 0x7
 3665 010c CC030000 		.4byte	.LASF16
 3666 0110 04       		.byte	0x4
 3667 0111 4F       		.byte	0x4f
 3668 0112 06010000 		.4byte	0x106
 3669 0116 01       		.byte	0x1
 3670 0117 01       		.byte	0x1
 3671 0118 0A       		.uleb128 0xa
 3672 0119 18       		.byte	0x18
 3673 011a 05       		.byte	0x5
 3674 011b 1101     		.2byte	0x111
 3675 011d 7B010000 		.4byte	0x17b
 3676 0121 0B       		.uleb128 0xb
 3677 0122 494D5200 		.ascii	"IMR\000"
 3678 0126 05       		.byte	0x5
 3679 0127 1301     		.2byte	0x113
 3680 0129 A0000000 		.4byte	0xa0
 3681 012d 02       		.byte	0x2
 3682 012e 23       		.byte	0x23
 3683 012f 00       		.uleb128 0
 3684 0130 0B       		.uleb128 0xb
 3685 0131 454D5200 		.ascii	"EMR\000"
 3686 0135 05       		.byte	0x5
 3687 0136 1401     		.2byte	0x114
 3688 0138 A0000000 		.4byte	0xa0
 3689 013c 02       		.byte	0x2
 3690 013d 23       		.byte	0x23
ARM GAS  C:\Users\EBANO_~1\AppData\Local\Temp\cc8t01eQ.s 			page 105


 3691 013e 04       		.uleb128 0x4
 3692 013f 0C       		.uleb128 0xc
 3693 0140 D3010000 		.4byte	.LASF17
 3694 0144 05       		.byte	0x5
 3695 0145 1501     		.2byte	0x115
 3696 0147 A0000000 		.4byte	0xa0
 3697 014b 02       		.byte	0x2
 3698 014c 23       		.byte	0x23
 3699 014d 08       		.uleb128 0x8
 3700 014e 0C       		.uleb128 0xc
 3701 014f 49010000 		.4byte	.LASF18
 3702 0153 05       		.byte	0x5
 3703 0154 1601     		.2byte	0x116
 3704 0156 A0000000 		.4byte	0xa0
 3705 015a 02       		.byte	0x2
 3706 015b 23       		.byte	0x23
 3707 015c 0C       		.uleb128 0xc
 3708 015d 0C       		.uleb128 0xc
 3709 015e 23070000 		.4byte	.LASF19
 3710 0162 05       		.byte	0x5
 3711 0163 1701     		.2byte	0x117
 3712 0165 A0000000 		.4byte	0xa0
 3713 0169 02       		.byte	0x2
 3714 016a 23       		.byte	0x23
 3715 016b 10       		.uleb128 0x10
 3716 016c 0B       		.uleb128 0xb
 3717 016d 505200   		.ascii	"PR\000"
 3718 0170 05       		.byte	0x5
 3719 0171 1801     		.2byte	0x118
 3720 0173 A0000000 		.4byte	0xa0
 3721 0177 02       		.byte	0x2
 3722 0178 23       		.byte	0x23
 3723 0179 14       		.uleb128 0x14
 3724 017a 00       		.byte	0
 3725 017b 0D       		.uleb128 0xd
 3726 017c E2010000 		.4byte	.LASF20
 3727 0180 05       		.byte	0x5
 3728 0181 1901     		.2byte	0x119
 3729 0183 18010000 		.4byte	0x118
 3730 0187 0A       		.uleb128 0xa
 3731 0188 64       		.byte	0x64
 3732 0189 05       		.byte	0x5
 3733 018a CE01     		.2byte	0x1ce
 3734 018c 04030000 		.4byte	0x304
 3735 0190 0B       		.uleb128 0xb
 3736 0191 545200   		.ascii	"TR\000"
 3737 0194 05       		.byte	0x5
 3738 0195 D001     		.2byte	0x1d0
 3739 0197 A0000000 		.4byte	0xa0
 3740 019b 02       		.byte	0x2
 3741 019c 23       		.byte	0x23
 3742 019d 00       		.uleb128 0
 3743 019e 0B       		.uleb128 0xb
 3744 019f 445200   		.ascii	"DR\000"
 3745 01a2 05       		.byte	0x5
 3746 01a3 D101     		.2byte	0x1d1
 3747 01a5 A0000000 		.4byte	0xa0
ARM GAS  C:\Users\EBANO_~1\AppData\Local\Temp\cc8t01eQ.s 			page 106


 3748 01a9 02       		.byte	0x2
 3749 01aa 23       		.byte	0x23
 3750 01ab 04       		.uleb128 0x4
 3751 01ac 0B       		.uleb128 0xb
 3752 01ad 435200   		.ascii	"CR\000"
 3753 01b0 05       		.byte	0x5
 3754 01b1 D201     		.2byte	0x1d2
 3755 01b3 A0000000 		.4byte	0xa0
 3756 01b7 02       		.byte	0x2
 3757 01b8 23       		.byte	0x23
 3758 01b9 08       		.uleb128 0x8
 3759 01ba 0B       		.uleb128 0xb
 3760 01bb 49535200 		.ascii	"ISR\000"
 3761 01bf 05       		.byte	0x5
 3762 01c0 D301     		.2byte	0x1d3
 3763 01c2 A0000000 		.4byte	0xa0
 3764 01c6 02       		.byte	0x2
 3765 01c7 23       		.byte	0x23
 3766 01c8 0C       		.uleb128 0xc
 3767 01c9 0C       		.uleb128 0xc
 3768 01ca 49030000 		.4byte	.LASF21
 3769 01ce 05       		.byte	0x5
 3770 01cf D401     		.2byte	0x1d4
 3771 01d1 A0000000 		.4byte	0xa0
 3772 01d5 02       		.byte	0x2
 3773 01d6 23       		.byte	0x23
 3774 01d7 10       		.uleb128 0x10
 3775 01d8 0C       		.uleb128 0xc
 3776 01d9 7A0A0000 		.4byte	.LASF22
 3777 01dd 05       		.byte	0x5
 3778 01de D501     		.2byte	0x1d5
 3779 01e0 A0000000 		.4byte	0xa0
 3780 01e4 02       		.byte	0x2
 3781 01e5 23       		.byte	0x23
 3782 01e6 14       		.uleb128 0x14
 3783 01e7 0C       		.uleb128 0xc
 3784 01e8 85030000 		.4byte	.LASF23
 3785 01ec 05       		.byte	0x5
 3786 01ed D601     		.2byte	0x1d6
 3787 01ef 95000000 		.4byte	0x95
 3788 01f3 02       		.byte	0x2
 3789 01f4 23       		.byte	0x23
 3790 01f5 18       		.uleb128 0x18
 3791 01f6 0C       		.uleb128 0xc
 3792 01f7 E2040000 		.4byte	.LASF24
 3793 01fb 05       		.byte	0x5
 3794 01fc D701     		.2byte	0x1d7
 3795 01fe A0000000 		.4byte	0xa0
 3796 0202 02       		.byte	0x2
 3797 0203 23       		.byte	0x23
 3798 0204 1C       		.uleb128 0x1c
 3799 0205 0C       		.uleb128 0xc
 3800 0206 6C050000 		.4byte	.LASF25
 3801 020a 05       		.byte	0x5
 3802 020b D801     		.2byte	0x1d8
 3803 020d A0000000 		.4byte	0xa0
 3804 0211 02       		.byte	0x2
ARM GAS  C:\Users\EBANO_~1\AppData\Local\Temp\cc8t01eQ.s 			page 107


 3805 0212 23       		.byte	0x23
 3806 0213 20       		.uleb128 0x20
 3807 0214 0B       		.uleb128 0xb
 3808 0215 57505200 		.ascii	"WPR\000"
 3809 0219 05       		.byte	0x5
 3810 021a D901     		.2byte	0x1d9
 3811 021c A0000000 		.4byte	0xa0
 3812 0220 02       		.byte	0x2
 3813 0221 23       		.byte	0x23
 3814 0222 24       		.uleb128 0x24
 3815 0223 0B       		.uleb128 0xb
 3816 0224 53535200 		.ascii	"SSR\000"
 3817 0228 05       		.byte	0x5
 3818 0229 DA01     		.2byte	0x1da
 3819 022b A0000000 		.4byte	0xa0
 3820 022f 02       		.byte	0x2
 3821 0230 23       		.byte	0x23
 3822 0231 28       		.uleb128 0x28
 3823 0232 0C       		.uleb128 0xc
 3824 0233 A8080000 		.4byte	.LASF26
 3825 0237 05       		.byte	0x5
 3826 0238 DB01     		.2byte	0x1db
 3827 023a A0000000 		.4byte	0xa0
 3828 023e 02       		.byte	0x2
 3829 023f 23       		.byte	0x23
 3830 0240 2C       		.uleb128 0x2c
 3831 0241 0C       		.uleb128 0xc
 3832 0242 1E000000 		.4byte	.LASF27
 3833 0246 05       		.byte	0x5
 3834 0247 DC01     		.2byte	0x1dc
 3835 0249 A0000000 		.4byte	0xa0
 3836 024d 02       		.byte	0x2
 3837 024e 23       		.byte	0x23
 3838 024f 30       		.uleb128 0x30
 3839 0250 0C       		.uleb128 0xc
 3840 0251 BE040000 		.4byte	.LASF28
 3841 0255 05       		.byte	0x5
 3842 0256 DD01     		.2byte	0x1dd
 3843 0258 A0000000 		.4byte	0xa0
 3844 025c 02       		.byte	0x2
 3845 025d 23       		.byte	0x23
 3846 025e 34       		.uleb128 0x34
 3847 025f 0C       		.uleb128 0xc
 3848 0260 A50A0000 		.4byte	.LASF29
 3849 0264 05       		.byte	0x5
 3850 0265 DE01     		.2byte	0x1de
 3851 0267 A0000000 		.4byte	0xa0
 3852 026b 02       		.byte	0x2
 3853 026c 23       		.byte	0x23
 3854 026d 38       		.uleb128 0x38
 3855 026e 0C       		.uleb128 0xc
 3856 026f 89050000 		.4byte	.LASF30
 3857 0273 05       		.byte	0x5
 3858 0274 DF01     		.2byte	0x1df
 3859 0276 A0000000 		.4byte	0xa0
 3860 027a 02       		.byte	0x2
 3861 027b 23       		.byte	0x23
ARM GAS  C:\Users\EBANO_~1\AppData\Local\Temp\cc8t01eQ.s 			page 108


 3862 027c 3C       		.uleb128 0x3c
 3863 027d 0C       		.uleb128 0xc
 3864 027e D90A0000 		.4byte	.LASF31
 3865 0282 05       		.byte	0x5
 3866 0283 E001     		.2byte	0x1e0
 3867 0285 A0000000 		.4byte	0xa0
 3868 0289 02       		.byte	0x2
 3869 028a 23       		.byte	0x23
 3870 028b 40       		.uleb128 0x40
 3871 028c 0C       		.uleb128 0xc
 3872 028d D00A0000 		.4byte	.LASF32
 3873 0291 05       		.byte	0x5
 3874 0292 E101     		.2byte	0x1e1
 3875 0294 A0000000 		.4byte	0xa0
 3876 0298 02       		.byte	0x2
 3877 0299 23       		.byte	0x23
 3878 029a 44       		.uleb128 0x44
 3879 029b 0C       		.uleb128 0xc
 3880 029c C3040000 		.4byte	.LASF33
 3881 02a0 05       		.byte	0x5
 3882 02a1 E201     		.2byte	0x1e2
 3883 02a3 A0000000 		.4byte	0xa0
 3884 02a7 02       		.byte	0x2
 3885 02a8 23       		.byte	0x23
 3886 02a9 48       		.uleb128 0x48
 3887 02aa 0B       		.uleb128 0xb
 3888 02ab 4F5200   		.ascii	"OR\000"
 3889 02ae 05       		.byte	0x5
 3890 02af E301     		.2byte	0x1e3
 3891 02b1 A0000000 		.4byte	0xa0
 3892 02b5 02       		.byte	0x2
 3893 02b6 23       		.byte	0x23
 3894 02b7 4C       		.uleb128 0x4c
 3895 02b8 0C       		.uleb128 0xc
 3896 02b9 970A0000 		.4byte	.LASF34
 3897 02bd 05       		.byte	0x5
 3898 02be E401     		.2byte	0x1e4
 3899 02c0 A0000000 		.4byte	0xa0
 3900 02c4 02       		.byte	0x2
 3901 02c5 23       		.byte	0x23
 3902 02c6 50       		.uleb128 0x50
 3903 02c7 0C       		.uleb128 0xc
 3904 02c8 150B0000 		.4byte	.LASF35
 3905 02cc 05       		.byte	0x5
 3906 02cd E501     		.2byte	0x1e5
 3907 02cf A0000000 		.4byte	0xa0
 3908 02d3 02       		.byte	0x2
 3909 02d4 23       		.byte	0x23
 3910 02d5 54       		.uleb128 0x54
 3911 02d6 0C       		.uleb128 0xc
 3912 02d7 48000000 		.4byte	.LASF36
 3913 02db 05       		.byte	0x5
 3914 02dc E601     		.2byte	0x1e6
 3915 02de A0000000 		.4byte	0xa0
 3916 02e2 02       		.byte	0x2
 3917 02e3 23       		.byte	0x23
 3918 02e4 58       		.uleb128 0x58
ARM GAS  C:\Users\EBANO_~1\AppData\Local\Temp\cc8t01eQ.s 			page 109


 3919 02e5 0C       		.uleb128 0xc
 3920 02e6 FB000000 		.4byte	.LASF37
 3921 02ea 05       		.byte	0x5
 3922 02eb E701     		.2byte	0x1e7
 3923 02ed A0000000 		.4byte	0xa0
 3924 02f1 02       		.byte	0x2
 3925 02f2 23       		.byte	0x23
 3926 02f3 5C       		.uleb128 0x5c
 3927 02f4 0C       		.uleb128 0xc
 3928 02f5 2F010000 		.4byte	.LASF38
 3929 02f9 05       		.byte	0x5
 3930 02fa E801     		.2byte	0x1e8
 3931 02fc A0000000 		.4byte	0xa0
 3932 0300 02       		.byte	0x2
 3933 0301 23       		.byte	0x23
 3934 0302 60       		.uleb128 0x60
 3935 0303 00       		.byte	0
 3936 0304 0D       		.uleb128 0xd
 3937 0305 13040000 		.4byte	.LASF39
 3938 0309 05       		.byte	0x5
 3939 030a E901     		.2byte	0x1e9
 3940 030c 87010000 		.4byte	0x187
 3941 0310 0E       		.uleb128 0xe
 3942 0311 07       		.byte	0x7
 3943 0312 01       		.byte	0x1
 3944 0313 3B000000 		.4byte	0x3b
 3945 0317 0A       		.byte	0xa
 3946 0318 BE       		.byte	0xbe
 3947 0319 2A030000 		.4byte	0x32a
 3948 031d 0F       		.uleb128 0xf
 3949 031e 69080000 		.4byte	.LASF40
 3950 0322 00       		.byte	0
 3951 0323 10       		.uleb128 0x10
 3952 0324 53455400 		.ascii	"SET\000"
 3953 0328 01       		.byte	0x1
 3954 0329 00       		.byte	0
 3955 032a 02       		.uleb128 0x2
 3956 032b 08       		.byte	0x8
 3957 032c 04       		.byte	0x4
 3958 032d E0060000 		.4byte	.LASF41
 3959 0331 11       		.uleb128 0x11
 3960 0332 04       		.byte	0x4
 3961 0333 03       		.uleb128 0x3
 3962 0334 EC090000 		.4byte	.LASF42
 3963 0338 06       		.byte	0x6
 3964 0339 22       		.byte	0x22
 3965 033a 3E030000 		.4byte	0x33e
 3966 033e 12       		.uleb128 0x12
 3967 033f 04       		.byte	0x4
 3968 0340 44030000 		.4byte	0x344
 3969 0344 13       		.uleb128 0x13
 3970 0345 A8030000 		.4byte	.LASF149
 3971 0349 01       		.byte	0x1
 3972 034a 03       		.uleb128 0x3
 3973 034b 3A0A0000 		.4byte	.LASF43
 3974 034f 07       		.byte	0x7
 3975 0350 2C       		.byte	0x2c
ARM GAS  C:\Users\EBANO_~1\AppData\Local\Temp\cc8t01eQ.s 			page 110


 3976 0351 50000000 		.4byte	0x50
 3977 0355 03       		.uleb128 0x3
 3978 0356 1B070000 		.4byte	.LASF44
 3979 035a 07       		.byte	0x7
 3980 035b 72       		.byte	0x72
 3981 035c 50000000 		.4byte	0x50
 3982 0360 0D       		.uleb128 0xd
 3983 0361 7F080000 		.4byte	.LASF45
 3984 0365 08       		.byte	0x8
 3985 0366 6501     		.2byte	0x165
 3986 0368 7E000000 		.4byte	0x7e
 3987 036c 14       		.uleb128 0x14
 3988 036d 04       		.byte	0x4
 3989 036e 07       		.byte	0x7
 3990 036f A6       		.byte	0xa6
 3991 0370 8B030000 		.4byte	0x38b
 3992 0374 15       		.uleb128 0x15
 3993 0375 59010000 		.4byte	.LASF46
 3994 0379 07       		.byte	0x7
 3995 037a A8       		.byte	0xa8
 3996 037b 60030000 		.4byte	0x360
 3997 037f 15       		.uleb128 0x15
 3998 0380 29070000 		.4byte	.LASF47
 3999 0384 07       		.byte	0x7
 4000 0385 A9       		.byte	0xa9
 4001 0386 8B030000 		.4byte	0x38b
 4002 038a 00       		.byte	0
 4003 038b 08       		.uleb128 0x8
 4004 038c 3B000000 		.4byte	0x3b
 4005 0390 9B030000 		.4byte	0x39b
 4006 0394 09       		.uleb128 0x9
 4007 0395 7E000000 		.4byte	0x7e
 4008 0399 03       		.byte	0x3
 4009 039a 00       		.byte	0
 4010 039b 16       		.uleb128 0x16
 4011 039c 08       		.byte	0x8
 4012 039d 07       		.byte	0x7
 4013 039e A3       		.byte	0xa3
 4014 039f C0030000 		.4byte	0x3c0
 4015 03a3 17       		.uleb128 0x17
 4016 03a4 9D060000 		.4byte	.LASF48
 4017 03a8 07       		.byte	0x7
 4018 03a9 A5       		.byte	0xa5
 4019 03aa 77000000 		.4byte	0x77
 4020 03ae 02       		.byte	0x2
 4021 03af 23       		.byte	0x23
 4022 03b0 00       		.uleb128 0
 4023 03b1 17       		.uleb128 0x17
 4024 03b2 23000000 		.4byte	.LASF49
 4025 03b6 07       		.byte	0x7
 4026 03b7 AA       		.byte	0xaa
 4027 03b8 6C030000 		.4byte	0x36c
 4028 03bc 02       		.byte	0x2
 4029 03bd 23       		.byte	0x23
 4030 03be 04       		.uleb128 0x4
 4031 03bf 00       		.byte	0
 4032 03c0 03       		.uleb128 0x3
ARM GAS  C:\Users\EBANO_~1\AppData\Local\Temp\cc8t01eQ.s 			page 111


 4033 03c1 6F080000 		.4byte	.LASF50
 4034 03c5 07       		.byte	0x7
 4035 03c6 AB       		.byte	0xab
 4036 03c7 9B030000 		.4byte	0x39b
 4037 03cb 03       		.uleb128 0x3
 4038 03cc 59080000 		.4byte	.LASF51
 4039 03d0 07       		.byte	0x7
 4040 03d1 AF       		.byte	0xaf
 4041 03d2 33030000 		.4byte	0x333
 4042 03d6 03       		.uleb128 0x3
 4043 03d7 0A0A0000 		.4byte	.LASF52
 4044 03db 09       		.byte	0x9
 4045 03dc 16       		.byte	0x16
 4046 03dd 62000000 		.4byte	0x62
 4047 03e1 18       		.uleb128 0x18
 4048 03e2 85040000 		.4byte	.LASF57
 4049 03e6 18       		.byte	0x18
 4050 03e7 09       		.byte	0x9
 4051 03e8 2F       		.byte	0x2f
 4052 03e9 40040000 		.4byte	0x440
 4053 03ed 17       		.uleb128 0x17
 4054 03ee 86080000 		.4byte	.LASF53
 4055 03f2 09       		.byte	0x9
 4056 03f3 31       		.byte	0x31
 4057 03f4 40040000 		.4byte	0x440
 4058 03f8 02       		.byte	0x2
 4059 03f9 23       		.byte	0x23
 4060 03fa 00       		.uleb128 0
 4061 03fb 19       		.uleb128 0x19
 4062 03fc 5F6B00   		.ascii	"_k\000"
 4063 03ff 09       		.byte	0x9
 4064 0400 32       		.byte	0x32
 4065 0401 77000000 		.4byte	0x77
 4066 0405 02       		.byte	0x2
 4067 0406 23       		.byte	0x23
 4068 0407 04       		.uleb128 0x4
 4069 0408 17       		.uleb128 0x17
 4070 0409 8D040000 		.4byte	.LASF54
 4071 040d 09       		.byte	0x9
 4072 040e 32       		.byte	0x32
 4073 040f 77000000 		.4byte	0x77
 4074 0413 02       		.byte	0x2
 4075 0414 23       		.byte	0x23
 4076 0415 08       		.uleb128 0x8
 4077 0416 17       		.uleb128 0x17
 4078 0417 8E050000 		.4byte	.LASF55
 4079 041b 09       		.byte	0x9
 4080 041c 32       		.byte	0x32
 4081 041d 77000000 		.4byte	0x77
 4082 0421 02       		.byte	0x2
 4083 0422 23       		.byte	0x23
 4084 0423 0C       		.uleb128 0xc
 4085 0424 17       		.uleb128 0x17
 4086 0425 96030000 		.4byte	.LASF56
 4087 0429 09       		.byte	0x9
 4088 042a 32       		.byte	0x32
 4089 042b 77000000 		.4byte	0x77
ARM GAS  C:\Users\EBANO_~1\AppData\Local\Temp\cc8t01eQ.s 			page 112


 4090 042f 02       		.byte	0x2
 4091 0430 23       		.byte	0x23
 4092 0431 10       		.uleb128 0x10
 4093 0432 19       		.uleb128 0x19
 4094 0433 5F7800   		.ascii	"_x\000"
 4095 0436 09       		.byte	0x9
 4096 0437 33       		.byte	0x33
 4097 0438 46040000 		.4byte	0x446
 4098 043c 02       		.byte	0x2
 4099 043d 23       		.byte	0x23
 4100 043e 14       		.uleb128 0x14
 4101 043f 00       		.byte	0
 4102 0440 12       		.uleb128 0x12
 4103 0441 04       		.byte	0x4
 4104 0442 E1030000 		.4byte	0x3e1
 4105 0446 08       		.uleb128 0x8
 4106 0447 D6030000 		.4byte	0x3d6
 4107 044b 56040000 		.4byte	0x456
 4108 044f 09       		.uleb128 0x9
 4109 0450 7E000000 		.4byte	0x7e
 4110 0454 00       		.byte	0
 4111 0455 00       		.byte	0
 4112 0456 18       		.uleb128 0x18
 4113 0457 CC000000 		.4byte	.LASF58
 4114 045b 24       		.byte	0x24
 4115 045c 09       		.byte	0x9
 4116 045d 37       		.byte	0x37
 4117 045e E1040000 		.4byte	0x4e1
 4118 0462 17       		.uleb128 0x17
 4119 0463 E8000000 		.4byte	.LASF59
 4120 0467 09       		.byte	0x9
 4121 0468 39       		.byte	0x39
 4122 0469 77000000 		.4byte	0x77
 4123 046d 02       		.byte	0x2
 4124 046e 23       		.byte	0x23
 4125 046f 00       		.uleb128 0
 4126 0470 17       		.uleb128 0x17
 4127 0471 C70A0000 		.4byte	.LASF60
 4128 0475 09       		.byte	0x9
 4129 0476 3A       		.byte	0x3a
 4130 0477 77000000 		.4byte	0x77
 4131 047b 02       		.byte	0x2
 4132 047c 23       		.byte	0x23
 4133 047d 04       		.uleb128 0x4
 4134 047e 17       		.uleb128 0x17
 4135 047f 700A0000 		.4byte	.LASF61
 4136 0483 09       		.byte	0x9
 4137 0484 3B       		.byte	0x3b
 4138 0485 77000000 		.4byte	0x77
 4139 0489 02       		.byte	0x2
 4140 048a 23       		.byte	0x23
 4141 048b 08       		.uleb128 0x8
 4142 048c 17       		.uleb128 0x17
 4143 048d EB050000 		.4byte	.LASF62
 4144 0491 09       		.byte	0x9
 4145 0492 3C       		.byte	0x3c
 4146 0493 77000000 		.4byte	0x77
ARM GAS  C:\Users\EBANO_~1\AppData\Local\Temp\cc8t01eQ.s 			page 113


 4147 0497 02       		.byte	0x2
 4148 0498 23       		.byte	0x23
 4149 0499 0C       		.uleb128 0xc
 4150 049a 17       		.uleb128 0x17
 4151 049b EF010000 		.4byte	.LASF63
 4152 049f 09       		.byte	0x9
 4153 04a0 3D       		.byte	0x3d
 4154 04a1 77000000 		.4byte	0x77
 4155 04a5 02       		.byte	0x2
 4156 04a6 23       		.byte	0x23
 4157 04a7 10       		.uleb128 0x10
 4158 04a8 17       		.uleb128 0x17
 4159 04a9 80090000 		.4byte	.LASF64
 4160 04ad 09       		.byte	0x9
 4161 04ae 3E       		.byte	0x3e
 4162 04af 77000000 		.4byte	0x77
 4163 04b3 02       		.byte	0x2
 4164 04b4 23       		.byte	0x23
 4165 04b5 14       		.uleb128 0x14
 4166 04b6 17       		.uleb128 0x17
 4167 04b7 D6060000 		.4byte	.LASF65
 4168 04bb 09       		.byte	0x9
 4169 04bc 3F       		.byte	0x3f
 4170 04bd 77000000 		.4byte	0x77
 4171 04c1 02       		.byte	0x2
 4172 04c2 23       		.byte	0x23
 4173 04c3 18       		.uleb128 0x18
 4174 04c4 17       		.uleb128 0x17
 4175 04c5 F6060000 		.4byte	.LASF66
 4176 04c9 09       		.byte	0x9
 4177 04ca 40       		.byte	0x40
 4178 04cb 77000000 		.4byte	0x77
 4179 04cf 02       		.byte	0x2
 4180 04d0 23       		.byte	0x23
 4181 04d1 1C       		.uleb128 0x1c
 4182 04d2 17       		.uleb128 0x17
 4183 04d3 AB0A0000 		.4byte	.LASF67
 4184 04d7 09       		.byte	0x9
 4185 04d8 41       		.byte	0x41
 4186 04d9 77000000 		.4byte	0x77
 4187 04dd 02       		.byte	0x2
 4188 04de 23       		.byte	0x23
 4189 04df 20       		.uleb128 0x20
 4190 04e0 00       		.byte	0
 4191 04e1 1A       		.uleb128 0x1a
 4192 04e2 74010000 		.4byte	.LASF68
 4193 04e6 0801     		.2byte	0x108
 4194 04e8 09       		.byte	0x9
 4195 04e9 4A       		.byte	0x4a
 4196 04ea 2A050000 		.4byte	0x52a
 4197 04ee 17       		.uleb128 0x17
 4198 04ef 9D0A0000 		.4byte	.LASF69
 4199 04f3 09       		.byte	0x9
 4200 04f4 4B       		.byte	0x4b
 4201 04f5 2A050000 		.4byte	0x52a
 4202 04f9 02       		.byte	0x2
 4203 04fa 23       		.byte	0x23
ARM GAS  C:\Users\EBANO_~1\AppData\Local\Temp\cc8t01eQ.s 			page 114


 4204 04fb 00       		.uleb128 0
 4205 04fc 17       		.uleb128 0x17
 4206 04fd CC070000 		.4byte	.LASF70
 4207 0501 09       		.byte	0x9
 4208 0502 4C       		.byte	0x4c
 4209 0503 2A050000 		.4byte	0x52a
 4210 0507 03       		.byte	0x3
 4211 0508 23       		.byte	0x23
 4212 0509 8001     		.uleb128 0x80
 4213 050b 17       		.uleb128 0x17
 4214 050c 77090000 		.4byte	.LASF71
 4215 0510 09       		.byte	0x9
 4216 0511 4E       		.byte	0x4e
 4217 0512 D6030000 		.4byte	0x3d6
 4218 0516 03       		.byte	0x3
 4219 0517 23       		.byte	0x23
 4220 0518 8002     		.uleb128 0x100
 4221 051a 17       		.uleb128 0x17
 4222 051b E4090000 		.4byte	.LASF72
 4223 051f 09       		.byte	0x9
 4224 0520 51       		.byte	0x51
 4225 0521 D6030000 		.4byte	0x3d6
 4226 0525 03       		.byte	0x3
 4227 0526 23       		.byte	0x23
 4228 0527 8402     		.uleb128 0x104
 4229 0529 00       		.byte	0
 4230 052a 08       		.uleb128 0x8
 4231 052b 31030000 		.4byte	0x331
 4232 052f 3A050000 		.4byte	0x53a
 4233 0533 09       		.uleb128 0x9
 4234 0534 7E000000 		.4byte	0x7e
 4235 0538 1F       		.byte	0x1f
 4236 0539 00       		.byte	0
 4237 053a 1A       		.uleb128 0x1a
 4238 053b 88060000 		.4byte	.LASF73
 4239 053f 9001     		.2byte	0x190
 4240 0541 09       		.byte	0x9
 4241 0542 5D       		.byte	0x5d
 4242 0543 81050000 		.4byte	0x581
 4243 0547 17       		.uleb128 0x17
 4244 0548 86080000 		.4byte	.LASF53
 4245 054c 09       		.byte	0x9
 4246 054d 5E       		.byte	0x5e
 4247 054e 81050000 		.4byte	0x581
 4248 0552 02       		.byte	0x2
 4249 0553 23       		.byte	0x23
 4250 0554 00       		.uleb128 0
 4251 0555 17       		.uleb128 0x17
 4252 0556 C4090000 		.4byte	.LASF74
 4253 055a 09       		.byte	0x9
 4254 055b 5F       		.byte	0x5f
 4255 055c 77000000 		.4byte	0x77
 4256 0560 02       		.byte	0x2
 4257 0561 23       		.byte	0x23
 4258 0562 04       		.uleb128 0x4
 4259 0563 17       		.uleb128 0x17
 4260 0564 B1020000 		.4byte	.LASF75
ARM GAS  C:\Users\EBANO_~1\AppData\Local\Temp\cc8t01eQ.s 			page 115


 4261 0568 09       		.byte	0x9
 4262 0569 61       		.byte	0x61
 4263 056a 87050000 		.4byte	0x587
 4264 056e 02       		.byte	0x2
 4265 056f 23       		.byte	0x23
 4266 0570 08       		.uleb128 0x8
 4267 0571 17       		.uleb128 0x17
 4268 0572 74010000 		.4byte	.LASF68
 4269 0576 09       		.byte	0x9
 4270 0577 62       		.byte	0x62
 4271 0578 E1040000 		.4byte	0x4e1
 4272 057c 03       		.byte	0x3
 4273 057d 23       		.byte	0x23
 4274 057e 8801     		.uleb128 0x88
 4275 0580 00       		.byte	0
 4276 0581 12       		.uleb128 0x12
 4277 0582 04       		.byte	0x4
 4278 0583 3A050000 		.4byte	0x53a
 4279 0587 08       		.uleb128 0x8
 4280 0588 97050000 		.4byte	0x597
 4281 058c 97050000 		.4byte	0x597
 4282 0590 09       		.uleb128 0x9
 4283 0591 7E000000 		.4byte	0x7e
 4284 0595 1F       		.byte	0x1f
 4285 0596 00       		.byte	0
 4286 0597 12       		.uleb128 0x12
 4287 0598 04       		.byte	0x4
 4288 0599 9D050000 		.4byte	0x59d
 4289 059d 1B       		.uleb128 0x1b
 4290 059e 01       		.byte	0x1
 4291 059f 18       		.uleb128 0x18
 4292 05a0 DD090000 		.4byte	.LASF76
 4293 05a4 08       		.byte	0x8
 4294 05a5 09       		.byte	0x9
 4295 05a6 75       		.byte	0x75
 4296 05a7 C8050000 		.4byte	0x5c8
 4297 05ab 17       		.uleb128 0x17
 4298 05ac 31080000 		.4byte	.LASF77
 4299 05b0 09       		.byte	0x9
 4300 05b1 76       		.byte	0x76
 4301 05b2 C8050000 		.4byte	0x5c8
 4302 05b6 02       		.byte	0x2
 4303 05b7 23       		.byte	0x23
 4304 05b8 00       		.uleb128 0
 4305 05b9 17       		.uleb128 0x17
 4306 05ba BE010000 		.4byte	.LASF78
 4307 05be 09       		.byte	0x9
 4308 05bf 77       		.byte	0x77
 4309 05c0 77000000 		.4byte	0x77
 4310 05c4 02       		.byte	0x2
 4311 05c5 23       		.byte	0x23
 4312 05c6 04       		.uleb128 0x4
 4313 05c7 00       		.byte	0
 4314 05c8 12       		.uleb128 0x12
 4315 05c9 04       		.byte	0x4
 4316 05ca 3B000000 		.4byte	0x3b
 4317 05ce 18       		.uleb128 0x18
ARM GAS  C:\Users\EBANO_~1\AppData\Local\Temp\cc8t01eQ.s 			page 116


 4318 05cf 1F040000 		.4byte	.LASF79
 4319 05d3 68       		.byte	0x68
 4320 05d4 09       		.byte	0x9
 4321 05d5 B5       		.byte	0xb5
 4322 05d6 28070000 		.4byte	0x728
 4323 05da 19       		.uleb128 0x19
 4324 05db 5F7000   		.ascii	"_p\000"
 4325 05de 09       		.byte	0x9
 4326 05df B6       		.byte	0xb6
 4327 05e0 C8050000 		.4byte	0x5c8
 4328 05e4 02       		.byte	0x2
 4329 05e5 23       		.byte	0x23
 4330 05e6 00       		.uleb128 0
 4331 05e7 19       		.uleb128 0x19
 4332 05e8 5F7200   		.ascii	"_r\000"
 4333 05eb 09       		.byte	0x9
 4334 05ec B7       		.byte	0xb7
 4335 05ed 77000000 		.4byte	0x77
 4336 05f1 02       		.byte	0x2
 4337 05f2 23       		.byte	0x23
 4338 05f3 04       		.uleb128 0x4
 4339 05f4 19       		.uleb128 0x19
 4340 05f5 5F7700   		.ascii	"_w\000"
 4341 05f8 09       		.byte	0x9
 4342 05f9 B8       		.byte	0xb8
 4343 05fa 77000000 		.4byte	0x77
 4344 05fe 02       		.byte	0x2
 4345 05ff 23       		.byte	0x23
 4346 0600 08       		.uleb128 0x8
 4347 0601 17       		.uleb128 0x17
 4348 0602 5C060000 		.4byte	.LASF80
 4349 0606 09       		.byte	0x9
 4350 0607 B9       		.byte	0xb9
 4351 0608 42000000 		.4byte	0x42
 4352 060c 02       		.byte	0x2
 4353 060d 23       		.byte	0x23
 4354 060e 0C       		.uleb128 0xc
 4355 060f 17       		.uleb128 0x17
 4356 0610 6E010000 		.4byte	.LASF81
 4357 0614 09       		.byte	0x9
 4358 0615 BA       		.byte	0xba
 4359 0616 42000000 		.4byte	0x42
 4360 061a 02       		.byte	0x2
 4361 061b 23       		.byte	0x23
 4362 061c 0E       		.uleb128 0xe
 4363 061d 19       		.uleb128 0x19
 4364 061e 5F626600 		.ascii	"_bf\000"
 4365 0622 09       		.byte	0x9
 4366 0623 BB       		.byte	0xbb
 4367 0624 9F050000 		.4byte	0x59f
 4368 0628 02       		.byte	0x2
 4369 0629 23       		.byte	0x23
 4370 062a 10       		.uleb128 0x10
 4371 062b 17       		.uleb128 0x17
 4372 062c B6090000 		.4byte	.LASF82
 4373 0630 09       		.byte	0x9
 4374 0631 BC       		.byte	0xbc
ARM GAS  C:\Users\EBANO_~1\AppData\Local\Temp\cc8t01eQ.s 			page 117


 4375 0632 77000000 		.4byte	0x77
 4376 0636 02       		.byte	0x2
 4377 0637 23       		.byte	0x23
 4378 0638 18       		.uleb128 0x18
 4379 0639 17       		.uleb128 0x17
 4380 063a 8E030000 		.4byte	.LASF83
 4381 063e 09       		.byte	0x9
 4382 063f C3       		.byte	0xc3
 4383 0640 31030000 		.4byte	0x331
 4384 0644 02       		.byte	0x2
 4385 0645 23       		.byte	0x23
 4386 0646 1C       		.uleb128 0x1c
 4387 0647 17       		.uleb128 0x17
 4388 0648 42000000 		.4byte	.LASF84
 4389 064c 09       		.byte	0x9
 4390 064d C5       		.byte	0xc5
 4391 064e C2080000 		.4byte	0x8c2
 4392 0652 02       		.byte	0x2
 4393 0653 23       		.byte	0x23
 4394 0654 20       		.uleb128 0x20
 4395 0655 17       		.uleb128 0x17
 4396 0656 4E000000 		.4byte	.LASF85
 4397 065a 09       		.byte	0x9
 4398 065b C7       		.byte	0xc7
 4399 065c ED080000 		.4byte	0x8ed
 4400 0660 02       		.byte	0x2
 4401 0661 23       		.byte	0x23
 4402 0662 24       		.uleb128 0x24
 4403 0663 17       		.uleb128 0x17
 4404 0664 06070000 		.4byte	.LASF86
 4405 0668 09       		.byte	0x9
 4406 0669 CA       		.byte	0xca
 4407 066a 12090000 		.4byte	0x912
 4408 066e 02       		.byte	0x2
 4409 066f 23       		.byte	0x23
 4410 0670 28       		.uleb128 0x28
 4411 0671 17       		.uleb128 0x17
 4412 0672 B6020000 		.4byte	.LASF87
 4413 0676 09       		.byte	0x9
 4414 0677 CB       		.byte	0xcb
 4415 0678 2D090000 		.4byte	0x92d
 4416 067c 02       		.byte	0x2
 4417 067d 23       		.byte	0x23
 4418 067e 2C       		.uleb128 0x2c
 4419 067f 19       		.uleb128 0x19
 4420 0680 5F756200 		.ascii	"_ub\000"
 4421 0684 09       		.byte	0x9
 4422 0685 CE       		.byte	0xce
 4423 0686 9F050000 		.4byte	0x59f
 4424 068a 02       		.byte	0x2
 4425 068b 23       		.byte	0x23
 4426 068c 30       		.uleb128 0x30
 4427 068d 19       		.uleb128 0x19
 4428 068e 5F757000 		.ascii	"_up\000"
 4429 0692 09       		.byte	0x9
 4430 0693 CF       		.byte	0xcf
 4431 0694 C8050000 		.4byte	0x5c8
ARM GAS  C:\Users\EBANO_~1\AppData\Local\Temp\cc8t01eQ.s 			page 118


 4432 0698 02       		.byte	0x2
 4433 0699 23       		.byte	0x23
 4434 069a 38       		.uleb128 0x38
 4435 069b 19       		.uleb128 0x19
 4436 069c 5F757200 		.ascii	"_ur\000"
 4437 06a0 09       		.byte	0x9
 4438 06a1 D0       		.byte	0xd0
 4439 06a2 77000000 		.4byte	0x77
 4440 06a6 02       		.byte	0x2
 4441 06a7 23       		.byte	0x23
 4442 06a8 3C       		.uleb128 0x3c
 4443 06a9 17       		.uleb128 0x17
 4444 06aa 0B060000 		.4byte	.LASF88
 4445 06ae 09       		.byte	0x9
 4446 06af D3       		.byte	0xd3
 4447 06b0 33090000 		.4byte	0x933
 4448 06b4 02       		.byte	0x2
 4449 06b5 23       		.byte	0x23
 4450 06b6 40       		.uleb128 0x40
 4451 06b7 17       		.uleb128 0x17
 4452 06b8 E2000000 		.4byte	.LASF89
 4453 06bc 09       		.byte	0x9
 4454 06bd D4       		.byte	0xd4
 4455 06be 43090000 		.4byte	0x943
 4456 06c2 02       		.byte	0x2
 4457 06c3 23       		.byte	0x23
 4458 06c4 43       		.uleb128 0x43
 4459 06c5 19       		.uleb128 0x19
 4460 06c6 5F6C6200 		.ascii	"_lb\000"
 4461 06ca 09       		.byte	0x9
 4462 06cb D7       		.byte	0xd7
 4463 06cc 9F050000 		.4byte	0x59f
 4464 06d0 02       		.byte	0x2
 4465 06d1 23       		.byte	0x23
 4466 06d2 44       		.uleb128 0x44
 4467 06d3 17       		.uleb128 0x17
 4468 06d4 05080000 		.4byte	.LASF90
 4469 06d8 09       		.byte	0x9
 4470 06d9 DA       		.byte	0xda
 4471 06da 77000000 		.4byte	0x77
 4472 06de 02       		.byte	0x2
 4473 06df 23       		.byte	0x23
 4474 06e0 4C       		.uleb128 0x4c
 4475 06e1 17       		.uleb128 0x17
 4476 06e2 C4030000 		.4byte	.LASF91
 4477 06e6 09       		.byte	0x9
 4478 06e7 DB       		.byte	0xdb
 4479 06e8 4A030000 		.4byte	0x34a
 4480 06ec 02       		.byte	0x2
 4481 06ed 23       		.byte	0x23
 4482 06ee 50       		.uleb128 0x50
 4483 06ef 17       		.uleb128 0x17
 4484 06f0 93080000 		.4byte	.LASF92
 4485 06f4 09       		.byte	0x9
 4486 06f5 DE       		.byte	0xde
 4487 06f6 47070000 		.4byte	0x747
 4488 06fa 02       		.byte	0x2
ARM GAS  C:\Users\EBANO_~1\AppData\Local\Temp\cc8t01eQ.s 			page 119


 4489 06fb 23       		.byte	0x23
 4490 06fc 54       		.uleb128 0x54
 4491 06fd 17       		.uleb128 0x17
 4492 06fe 23010000 		.4byte	.LASF93
 4493 0702 09       		.byte	0x9
 4494 0703 E2       		.byte	0xe2
 4495 0704 CB030000 		.4byte	0x3cb
 4496 0708 02       		.byte	0x2
 4497 0709 23       		.byte	0x23
 4498 070a 58       		.uleb128 0x58
 4499 070b 17       		.uleb128 0x17
 4500 070c 48060000 		.4byte	.LASF94
 4501 0710 09       		.byte	0x9
 4502 0711 E4       		.byte	0xe4
 4503 0712 C0030000 		.4byte	0x3c0
 4504 0716 02       		.byte	0x2
 4505 0717 23       		.byte	0x23
 4506 0718 5C       		.uleb128 0x5c
 4507 0719 17       		.uleb128 0x17
 4508 071a 32040000 		.4byte	.LASF95
 4509 071e 09       		.byte	0x9
 4510 071f E5       		.byte	0xe5
 4511 0720 77000000 		.4byte	0x77
 4512 0724 02       		.byte	0x2
 4513 0725 23       		.byte	0x23
 4514 0726 64       		.uleb128 0x64
 4515 0727 00       		.byte	0
 4516 0728 1C       		.uleb128 0x1c
 4517 0729 01       		.byte	0x1
 4518 072a 77000000 		.4byte	0x77
 4519 072e 47070000 		.4byte	0x747
 4520 0732 1D       		.uleb128 0x1d
 4521 0733 47070000 		.4byte	0x747
 4522 0737 1D       		.uleb128 0x1d
 4523 0738 31030000 		.4byte	0x331
 4524 073c 1D       		.uleb128 0x1d
 4525 073d B0080000 		.4byte	0x8b0
 4526 0741 1D       		.uleb128 0x1d
 4527 0742 77000000 		.4byte	0x77
 4528 0746 00       		.byte	0
 4529 0747 12       		.uleb128 0x12
 4530 0748 04       		.byte	0x4
 4531 0749 52070000 		.4byte	0x752
 4532 074d 05       		.uleb128 0x5
 4533 074e 47070000 		.4byte	0x747
 4534 0752 1E       		.uleb128 0x1e
 4535 0753 7B020000 		.4byte	.LASF96
 4536 0757 2804     		.2byte	0x428
 4537 0759 09       		.byte	0x9
 4538 075a 6002     		.2byte	0x260
 4539 075c B0080000 		.4byte	0x8b0
 4540 0760 0C       		.uleb128 0xc
 4541 0761 5E040000 		.4byte	.LASF97
 4542 0765 09       		.byte	0x9
 4543 0766 6202     		.2byte	0x262
 4544 0768 77000000 		.4byte	0x77
 4545 076c 02       		.byte	0x2
ARM GAS  C:\Users\EBANO_~1\AppData\Local\Temp\cc8t01eQ.s 			page 120


 4546 076d 23       		.byte	0x23
 4547 076e 00       		.uleb128 0
 4548 076f 0C       		.uleb128 0xc
 4549 0770 42030000 		.4byte	.LASF98
 4550 0774 09       		.byte	0x9
 4551 0775 6702     		.2byte	0x267
 4552 0777 A0090000 		.4byte	0x9a0
 4553 077b 02       		.byte	0x2
 4554 077c 23       		.byte	0x23
 4555 077d 04       		.uleb128 0x4
 4556 077e 0C       		.uleb128 0xc
 4557 077f EA070000 		.4byte	.LASF99
 4558 0783 09       		.byte	0x9
 4559 0784 6702     		.2byte	0x267
 4560 0786 A0090000 		.4byte	0x9a0
 4561 078a 02       		.byte	0x2
 4562 078b 23       		.byte	0x23
 4563 078c 08       		.uleb128 0x8
 4564 078d 0C       		.uleb128 0xc
 4565 078e 11060000 		.4byte	.LASF100
 4566 0792 09       		.byte	0x9
 4567 0793 6702     		.2byte	0x267
 4568 0795 A0090000 		.4byte	0x9a0
 4569 0799 02       		.byte	0x2
 4570 079a 23       		.byte	0x23
 4571 079b 0C       		.uleb128 0xc
 4572 079c 0C       		.uleb128 0xc
 4573 079d BF090000 		.4byte	.LASF101
 4574 07a1 09       		.byte	0x9
 4575 07a2 6902     		.2byte	0x269
 4576 07a4 77000000 		.4byte	0x77
 4577 07a8 02       		.byte	0x2
 4578 07a9 23       		.byte	0x23
 4579 07aa 10       		.uleb128 0x10
 4580 07ab 0C       		.uleb128 0xc
 4581 07ac D7040000 		.4byte	.LASF102
 4582 07b0 09       		.byte	0x9
 4583 07b1 6A02     		.2byte	0x26a
 4584 07b3 BB0B0000 		.4byte	0xbbb
 4585 07b7 02       		.byte	0x2
 4586 07b8 23       		.byte	0x23
 4587 07b9 14       		.uleb128 0x14
 4588 07ba 0C       		.uleb128 0xc
 4589 07bb 62020000 		.4byte	.LASF103
 4590 07bf 09       		.byte	0x9
 4591 07c0 6D02     		.2byte	0x26d
 4592 07c2 77000000 		.4byte	0x77
 4593 07c6 02       		.byte	0x2
 4594 07c7 23       		.byte	0x23
 4595 07c8 30       		.uleb128 0x30
 4596 07c9 0C       		.uleb128 0xc
 4597 07ca 020A0000 		.4byte	.LASF104
 4598 07ce 09       		.byte	0x9
 4599 07cf 6E02     		.2byte	0x26e
 4600 07d1 D10B0000 		.4byte	0xbd1
 4601 07d5 02       		.byte	0x2
 4602 07d6 23       		.byte	0x23
ARM GAS  C:\Users\EBANO_~1\AppData\Local\Temp\cc8t01eQ.s 			page 121


 4603 07d7 34       		.uleb128 0x34
 4604 07d8 0C       		.uleb128 0xc
 4605 07d9 27040000 		.4byte	.LASF105
 4606 07dd 09       		.byte	0x9
 4607 07de 7002     		.2byte	0x270
 4608 07e0 77000000 		.4byte	0x77
 4609 07e4 02       		.byte	0x2
 4610 07e5 23       		.byte	0x23
 4611 07e6 38       		.uleb128 0x38
 4612 07e7 0C       		.uleb128 0xc
 4613 07e8 95040000 		.4byte	.LASF106
 4614 07ec 09       		.byte	0x9
 4615 07ed 7202     		.2byte	0x272
 4616 07ef E30B0000 		.4byte	0xbe3
 4617 07f3 02       		.byte	0x2
 4618 07f4 23       		.byte	0x23
 4619 07f5 3C       		.uleb128 0x3c
 4620 07f6 0C       		.uleb128 0xc
 4621 07f7 320A0000 		.4byte	.LASF107
 4622 07fb 09       		.byte	0x9
 4623 07fc 7502     		.2byte	0x275
 4624 07fe 40040000 		.4byte	0x440
 4625 0802 02       		.byte	0x2
 4626 0803 23       		.byte	0x23
 4627 0804 40       		.uleb128 0x40
 4628 0805 0C       		.uleb128 0xc
 4629 0806 B4010000 		.4byte	.LASF108
 4630 080a 09       		.byte	0x9
 4631 080b 7602     		.2byte	0x276
 4632 080d 77000000 		.4byte	0x77
 4633 0811 02       		.byte	0x2
 4634 0812 23       		.byte	0x23
 4635 0813 44       		.uleb128 0x44
 4636 0814 0C       		.uleb128 0xc
 4637 0815 FC030000 		.4byte	.LASF109
 4638 0819 09       		.byte	0x9
 4639 081a 7702     		.2byte	0x277
 4640 081c 40040000 		.4byte	0x440
 4641 0820 02       		.byte	0x2
 4642 0821 23       		.byte	0x23
 4643 0822 48       		.uleb128 0x48
 4644 0823 0C       		.uleb128 0xc
 4645 0824 73050000 		.4byte	.LASF110
 4646 0828 09       		.byte	0x9
 4647 0829 7802     		.2byte	0x278
 4648 082b E90B0000 		.4byte	0xbe9
 4649 082f 02       		.byte	0x2
 4650 0830 23       		.byte	0x23
 4651 0831 4C       		.uleb128 0x4c
 4652 0832 0C       		.uleb128 0xc
 4653 0833 A9000000 		.4byte	.LASF111
 4654 0837 09       		.byte	0x9
 4655 0838 7B02     		.2byte	0x27b
 4656 083a 77000000 		.4byte	0x77
 4657 083e 02       		.byte	0x2
 4658 083f 23       		.byte	0x23
 4659 0840 50       		.uleb128 0x50
ARM GAS  C:\Users\EBANO_~1\AppData\Local\Temp\cc8t01eQ.s 			page 122


 4660 0841 0C       		.uleb128 0xc
 4661 0842 D8030000 		.4byte	.LASF112
 4662 0846 09       		.byte	0x9
 4663 0847 7C02     		.2byte	0x27c
 4664 0849 B0080000 		.4byte	0x8b0
 4665 084d 02       		.byte	0x2
 4666 084e 23       		.byte	0x23
 4667 084f 54       		.uleb128 0x54
 4668 0850 0C       		.uleb128 0xc
 4669 0851 06060000 		.4byte	.LASF113
 4670 0855 09       		.byte	0x9
 4671 0856 9F02     		.2byte	0x29f
 4672 0858 990B0000 		.4byte	0xb99
 4673 085c 02       		.byte	0x2
 4674 085d 23       		.byte	0x23
 4675 085e 58       		.uleb128 0x58
 4676 085f 0C       		.uleb128 0xc
 4677 0860 88060000 		.4byte	.LASF73
 4678 0864 09       		.byte	0x9
 4679 0865 A302     		.2byte	0x2a3
 4680 0867 81050000 		.4byte	0x581
 4681 086b 03       		.byte	0x3
 4682 086c 23       		.byte	0x23
 4683 086d C802     		.uleb128 0x148
 4684 086f 0C       		.uleb128 0xc
 4685 0870 9F040000 		.4byte	.LASF114
 4686 0874 09       		.byte	0x9
 4687 0875 A402     		.2byte	0x2a4
 4688 0877 3A050000 		.4byte	0x53a
 4689 087b 03       		.byte	0x3
 4690 087c 23       		.byte	0x23
 4691 087d CC02     		.uleb128 0x14c
 4692 087f 0C       		.uleb128 0xc
 4693 0880 BA030000 		.4byte	.LASF115
 4694 0884 09       		.byte	0x9
 4695 0885 A802     		.2byte	0x2a8
 4696 0887 FB0B0000 		.4byte	0xbfb
 4697 088b 03       		.byte	0x3
 4698 088c 23       		.byte	0x23
 4699 088d DC05     		.uleb128 0x2dc
 4700 088f 0C       		.uleb128 0xc
 4701 0890 2E050000 		.4byte	.LASF116
 4702 0894 09       		.byte	0x9
 4703 0895 AD02     		.2byte	0x2ad
 4704 0897 5F090000 		.4byte	0x95f
 4705 089b 03       		.byte	0x3
 4706 089c 23       		.byte	0x23
 4707 089d E005     		.uleb128 0x2e0
 4708 089f 0C       		.uleb128 0xc
 4709 08a0 2B000000 		.4byte	.LASF117
 4710 08a4 09       		.byte	0x9
 4711 08a5 AF02     		.2byte	0x2af
 4712 08a7 070C0000 		.4byte	0xc07
 4713 08ab 03       		.byte	0x3
 4714 08ac 23       		.byte	0x23
 4715 08ad EC05     		.uleb128 0x2ec
 4716 08af 00       		.byte	0
ARM GAS  C:\Users\EBANO_~1\AppData\Local\Temp\cc8t01eQ.s 			page 123


 4717 08b0 12       		.uleb128 0x12
 4718 08b1 04       		.byte	0x4
 4719 08b2 B6080000 		.4byte	0x8b6
 4720 08b6 02       		.uleb128 0x2
 4721 08b7 01       		.byte	0x1
 4722 08b8 08       		.byte	0x8
 4723 08b9 AC020000 		.4byte	.LASF118
 4724 08bd 05       		.uleb128 0x5
 4725 08be B6080000 		.4byte	0x8b6
 4726 08c2 12       		.uleb128 0x12
 4727 08c3 04       		.byte	0x4
 4728 08c4 28070000 		.4byte	0x728
 4729 08c8 1C       		.uleb128 0x1c
 4730 08c9 01       		.byte	0x1
 4731 08ca 77000000 		.4byte	0x77
 4732 08ce E7080000 		.4byte	0x8e7
 4733 08d2 1D       		.uleb128 0x1d
 4734 08d3 47070000 		.4byte	0x747
 4735 08d7 1D       		.uleb128 0x1d
 4736 08d8 31030000 		.4byte	0x331
 4737 08dc 1D       		.uleb128 0x1d
 4738 08dd E7080000 		.4byte	0x8e7
 4739 08e1 1D       		.uleb128 0x1d
 4740 08e2 77000000 		.4byte	0x77
 4741 08e6 00       		.byte	0
 4742 08e7 12       		.uleb128 0x12
 4743 08e8 04       		.byte	0x4
 4744 08e9 BD080000 		.4byte	0x8bd
 4745 08ed 12       		.uleb128 0x12
 4746 08ee 04       		.byte	0x4
 4747 08ef C8080000 		.4byte	0x8c8
 4748 08f3 1C       		.uleb128 0x1c
 4749 08f4 01       		.byte	0x1
 4750 08f5 55030000 		.4byte	0x355
 4751 08f9 12090000 		.4byte	0x912
 4752 08fd 1D       		.uleb128 0x1d
 4753 08fe 47070000 		.4byte	0x747
 4754 0902 1D       		.uleb128 0x1d
 4755 0903 31030000 		.4byte	0x331
 4756 0907 1D       		.uleb128 0x1d
 4757 0908 55030000 		.4byte	0x355
 4758 090c 1D       		.uleb128 0x1d
 4759 090d 77000000 		.4byte	0x77
 4760 0911 00       		.byte	0
 4761 0912 12       		.uleb128 0x12
 4762 0913 04       		.byte	0x4
 4763 0914 F3080000 		.4byte	0x8f3
 4764 0918 1C       		.uleb128 0x1c
 4765 0919 01       		.byte	0x1
 4766 091a 77000000 		.4byte	0x77
 4767 091e 2D090000 		.4byte	0x92d
 4768 0922 1D       		.uleb128 0x1d
 4769 0923 47070000 		.4byte	0x747
 4770 0927 1D       		.uleb128 0x1d
 4771 0928 31030000 		.4byte	0x331
 4772 092c 00       		.byte	0
 4773 092d 12       		.uleb128 0x12
ARM GAS  C:\Users\EBANO_~1\AppData\Local\Temp\cc8t01eQ.s 			page 124


 4774 092e 04       		.byte	0x4
 4775 092f 18090000 		.4byte	0x918
 4776 0933 08       		.uleb128 0x8
 4777 0934 3B000000 		.4byte	0x3b
 4778 0938 43090000 		.4byte	0x943
 4779 093c 09       		.uleb128 0x9
 4780 093d 7E000000 		.4byte	0x7e
 4781 0941 02       		.byte	0x2
 4782 0942 00       		.byte	0
 4783 0943 08       		.uleb128 0x8
 4784 0944 3B000000 		.4byte	0x3b
 4785 0948 53090000 		.4byte	0x953
 4786 094c 09       		.uleb128 0x9
 4787 094d 7E000000 		.4byte	0x7e
 4788 0951 00       		.byte	0
 4789 0952 00       		.byte	0
 4790 0953 0D       		.uleb128 0xd
 4791 0954 62080000 		.4byte	.LASF119
 4792 0958 09       		.byte	0x9
 4793 0959 1F01     		.2byte	0x11f
 4794 095b CE050000 		.4byte	0x5ce
 4795 095f 1F       		.uleb128 0x1f
 4796 0960 83050000 		.4byte	.LASF120
 4797 0964 0C       		.byte	0xc
 4798 0965 09       		.byte	0x9
 4799 0966 2301     		.2byte	0x123
 4800 0968 9A090000 		.4byte	0x99a
 4801 096c 0C       		.uleb128 0xc
 4802 096d 86080000 		.4byte	.LASF53
 4803 0971 09       		.byte	0x9
 4804 0972 2501     		.2byte	0x125
 4805 0974 9A090000 		.4byte	0x99a
 4806 0978 02       		.byte	0x2
 4807 0979 23       		.byte	0x23
 4808 097a 00       		.uleb128 0
 4809 097b 0C       		.uleb128 0xc
 4810 097c 0B050000 		.4byte	.LASF121
 4811 0980 09       		.byte	0x9
 4812 0981 2601     		.2byte	0x126
 4813 0983 77000000 		.4byte	0x77
 4814 0987 02       		.byte	0x2
 4815 0988 23       		.byte	0x23
 4816 0989 04       		.uleb128 0x4
 4817 098a 0C       		.uleb128 0xc
 4818 098b 7D050000 		.4byte	.LASF122
 4819 098f 09       		.byte	0x9
 4820 0990 2701     		.2byte	0x127
 4821 0992 A0090000 		.4byte	0x9a0
 4822 0996 02       		.byte	0x2
 4823 0997 23       		.byte	0x23
 4824 0998 08       		.uleb128 0x8
 4825 0999 00       		.byte	0
 4826 099a 12       		.uleb128 0x12
 4827 099b 04       		.byte	0x4
 4828 099c 5F090000 		.4byte	0x95f
 4829 09a0 12       		.uleb128 0x12
 4830 09a1 04       		.byte	0x4
ARM GAS  C:\Users\EBANO_~1\AppData\Local\Temp\cc8t01eQ.s 			page 125


 4831 09a2 53090000 		.4byte	0x953
 4832 09a6 1F       		.uleb128 0x1f
 4833 09a7 D8070000 		.4byte	.LASF123
 4834 09ab 0E       		.byte	0xe
 4835 09ac 09       		.byte	0x9
 4836 09ad 3F01     		.2byte	0x13f
 4837 09af E1090000 		.4byte	0x9e1
 4838 09b3 0C       		.uleb128 0xc
 4839 09b4 00070000 		.4byte	.LASF124
 4840 09b8 09       		.byte	0x9
 4841 09b9 4001     		.2byte	0x140
 4842 09bb E1090000 		.4byte	0x9e1
 4843 09bf 02       		.byte	0x2
 4844 09c0 23       		.byte	0x23
 4845 09c1 00       		.uleb128 0
 4846 09c2 0C       		.uleb128 0xc
 4847 09c3 29010000 		.4byte	.LASF125
 4848 09c7 09       		.byte	0x9
 4849 09c8 4101     		.2byte	0x141
 4850 09ca E1090000 		.4byte	0x9e1
 4851 09ce 02       		.byte	0x2
 4852 09cf 23       		.byte	0x23
 4853 09d0 06       		.uleb128 0x6
 4854 09d1 0C       		.uleb128 0xc
 4855 09d2 4C0A0000 		.4byte	.LASF126
 4856 09d6 09       		.byte	0x9
 4857 09d7 4201     		.2byte	0x142
 4858 09d9 49000000 		.4byte	0x49
 4859 09dd 02       		.byte	0x2
 4860 09de 23       		.byte	0x23
 4861 09df 0C       		.uleb128 0xc
 4862 09e0 00       		.byte	0
 4863 09e1 08       		.uleb128 0x8
 4864 09e2 49000000 		.4byte	0x49
 4865 09e6 F1090000 		.4byte	0x9f1
 4866 09ea 09       		.uleb128 0x9
 4867 09eb 7E000000 		.4byte	0x7e
 4868 09ef 02       		.byte	0x2
 4869 09f0 00       		.byte	0
 4870 09f1 0A       		.uleb128 0xa
 4871 09f2 D0       		.byte	0xd0
 4872 09f3 09       		.byte	0x9
 4873 09f4 8002     		.2byte	0x280
 4874 09f6 210B0000 		.4byte	0xb21
 4875 09fa 0C       		.uleb128 0xc
 4876 09fb 19020000 		.4byte	.LASF127
 4877 09ff 09       		.byte	0x9
 4878 0a00 8202     		.2byte	0x282
 4879 0a02 7E000000 		.4byte	0x7e
 4880 0a06 02       		.byte	0x2
 4881 0a07 23       		.byte	0x23
 4882 0a08 00       		.uleb128 0
 4883 0a09 0C       		.uleb128 0xc
 4884 0a0a 37080000 		.4byte	.LASF128
 4885 0a0e 09       		.byte	0x9
 4886 0a0f 8302     		.2byte	0x283
 4887 0a11 B0080000 		.4byte	0x8b0
ARM GAS  C:\Users\EBANO_~1\AppData\Local\Temp\cc8t01eQ.s 			page 126


 4888 0a15 02       		.byte	0x2
 4889 0a16 23       		.byte	0x23
 4890 0a17 04       		.uleb128 0x4
 4891 0a18 0C       		.uleb128 0xc
 4892 0a19 9C000000 		.4byte	.LASF129
 4893 0a1d 09       		.byte	0x9
 4894 0a1e 8402     		.2byte	0x284
 4895 0a20 210B0000 		.4byte	0xb21
 4896 0a24 02       		.byte	0x2
 4897 0a25 23       		.byte	0x23
 4898 0a26 08       		.uleb128 0x8
 4899 0a27 0C       		.uleb128 0xc
 4900 0a28 C4010000 		.4byte	.LASF130
 4901 0a2c 09       		.byte	0x9
 4902 0a2d 8502     		.2byte	0x285
 4903 0a2f 56040000 		.4byte	0x456
 4904 0a33 02       		.byte	0x2
 4905 0a34 23       		.byte	0x23
 4906 0a35 24       		.uleb128 0x24
 4907 0a36 0C       		.uleb128 0xc
 4908 0a37 5D050000 		.4byte	.LASF131
 4909 0a3b 09       		.byte	0x9
 4910 0a3c 8602     		.2byte	0x286
 4911 0a3e 77000000 		.4byte	0x77
 4912 0a42 02       		.byte	0x2
 4913 0a43 23       		.byte	0x23
 4914 0a44 48       		.uleb128 0x48
 4915 0a45 0C       		.uleb128 0xc
 4916 0a46 51060000 		.4byte	.LASF132
 4917 0a4a 09       		.byte	0x9
 4918 0a4b 8702     		.2byte	0x287
 4919 0a4d 70000000 		.4byte	0x70
 4920 0a51 02       		.byte	0x2
 4921 0a52 23       		.byte	0x23
 4922 0a53 50       		.uleb128 0x50
 4923 0a54 0C       		.uleb128 0xc
 4924 0a55 7A080000 		.4byte	.LASF133
 4925 0a59 09       		.byte	0x9
 4926 0a5a 8802     		.2byte	0x288
 4927 0a5c A6090000 		.4byte	0x9a6
 4928 0a60 02       		.byte	0x2
 4929 0a61 23       		.byte	0x23
 4930 0a62 58       		.uleb128 0x58
 4931 0a63 0C       		.uleb128 0xc
 4932 0a64 BD080000 		.4byte	.LASF134
 4933 0a68 09       		.byte	0x9
 4934 0a69 8902     		.2byte	0x289
 4935 0a6b C0030000 		.4byte	0x3c0
 4936 0a6f 02       		.byte	0x2
 4937 0a70 23       		.byte	0x23
 4938 0a71 68       		.uleb128 0x68
 4939 0a72 0C       		.uleb128 0xc
 4940 0a73 3E070000 		.4byte	.LASF135
 4941 0a77 09       		.byte	0x9
 4942 0a78 8A02     		.2byte	0x28a
 4943 0a7a C0030000 		.4byte	0x3c0
 4944 0a7e 02       		.byte	0x2
ARM GAS  C:\Users\EBANO_~1\AppData\Local\Temp\cc8t01eQ.s 			page 127


 4945 0a7f 23       		.byte	0x23
 4946 0a80 70       		.uleb128 0x70
 4947 0a81 0C       		.uleb128 0xc
 4948 0a82 3A060000 		.4byte	.LASF136
 4949 0a86 09       		.byte	0x9
 4950 0a87 8B02     		.2byte	0x28b
 4951 0a89 C0030000 		.4byte	0x3c0
 4952 0a8d 02       		.byte	0x2
 4953 0a8e 23       		.byte	0x23
 4954 0a8f 78       		.uleb128 0x78
 4955 0a90 0C       		.uleb128 0xc
 4956 0a91 F1000000 		.4byte	.LASF137
 4957 0a95 09       		.byte	0x9
 4958 0a96 8C02     		.2byte	0x28c
 4959 0a98 310B0000 		.4byte	0xb31
 4960 0a9c 03       		.byte	0x3
 4961 0a9d 23       		.byte	0x23
 4962 0a9e 8001     		.uleb128 0x80
 4963 0aa0 0C       		.uleb128 0xc
 4964 0aa1 79040000 		.4byte	.LASF138
 4965 0aa5 09       		.byte	0x9
 4966 0aa6 8D02     		.2byte	0x28d
 4967 0aa8 410B0000 		.4byte	0xb41
 4968 0aac 03       		.byte	0x3
 4969 0aad 23       		.byte	0x23
 4970 0aae 8801     		.uleb128 0x88
 4971 0ab0 0C       		.uleb128 0xc
 4972 0ab1 E00A0000 		.4byte	.LASF139
 4973 0ab5 09       		.byte	0x9
 4974 0ab6 8E02     		.2byte	0x28e
 4975 0ab8 77000000 		.4byte	0x77
 4976 0abc 03       		.byte	0x3
 4977 0abd 23       		.byte	0x23
 4978 0abe A001     		.uleb128 0xa0
 4979 0ac0 0C       		.uleb128 0xc
 4980 0ac1 91010000 		.4byte	.LASF140
 4981 0ac5 09       		.byte	0x9
 4982 0ac6 8F02     		.2byte	0x28f
 4983 0ac8 C0030000 		.4byte	0x3c0
 4984 0acc 03       		.byte	0x3
 4985 0acd 23       		.byte	0x23
 4986 0ace A401     		.uleb128 0xa4
 4987 0ad0 0C       		.uleb128 0xc
 4988 0ad1 44080000 		.4byte	.LASF141
 4989 0ad5 09       		.byte	0x9
 4990 0ad6 9002     		.2byte	0x290
 4991 0ad8 C0030000 		.4byte	0x3c0
 4992 0adc 03       		.byte	0x3
 4993 0add 23       		.byte	0x23
 4994 0ade AC01     		.uleb128 0xac
 4995 0ae0 0C       		.uleb128 0xc
 4996 0ae1 7F0A0000 		.4byte	.LASF142
 4997 0ae5 09       		.byte	0x9
 4998 0ae6 9102     		.2byte	0x291
 4999 0ae8 C0030000 		.4byte	0x3c0
 5000 0aec 03       		.byte	0x3
 5001 0aed 23       		.byte	0x23
ARM GAS  C:\Users\EBANO_~1\AppData\Local\Temp\cc8t01eQ.s 			page 128


 5002 0aee B401     		.uleb128 0xb4
 5003 0af0 0C       		.uleb128 0xc
 5004 0af1 DC050000 		.4byte	.LASF143
 5005 0af5 09       		.byte	0x9
 5006 0af6 9202     		.2byte	0x292
 5007 0af8 C0030000 		.4byte	0x3c0
 5008 0afc 03       		.byte	0x3
 5009 0afd 23       		.byte	0x23
 5010 0afe BC01     		.uleb128 0xbc
 5011 0b00 0C       		.uleb128 0xc
 5012 0b01 D1000000 		.4byte	.LASF144
 5013 0b05 09       		.byte	0x9
 5014 0b06 9302     		.2byte	0x293
 5015 0b08 C0030000 		.4byte	0x3c0
 5016 0b0c 03       		.byte	0x3
 5017 0b0d 23       		.byte	0x23
 5018 0b0e C401     		.uleb128 0xc4
 5019 0b10 0C       		.uleb128 0xc
 5020 0b11 D3050000 		.4byte	.LASF145
 5021 0b15 09       		.byte	0x9
 5022 0b16 9402     		.2byte	0x294
 5023 0b18 77000000 		.4byte	0x77
 5024 0b1c 03       		.byte	0x3
 5025 0b1d 23       		.byte	0x23
 5026 0b1e CC01     		.uleb128 0xcc
 5027 0b20 00       		.byte	0
 5028 0b21 08       		.uleb128 0x8
 5029 0b22 B6080000 		.4byte	0x8b6
 5030 0b26 310B0000 		.4byte	0xb31
 5031 0b2a 09       		.uleb128 0x9
 5032 0b2b 7E000000 		.4byte	0x7e
 5033 0b2f 19       		.byte	0x19
 5034 0b30 00       		.byte	0
 5035 0b31 08       		.uleb128 0x8
 5036 0b32 B6080000 		.4byte	0x8b6
 5037 0b36 410B0000 		.4byte	0xb41
 5038 0b3a 09       		.uleb128 0x9
 5039 0b3b 7E000000 		.4byte	0x7e
 5040 0b3f 07       		.byte	0x7
 5041 0b40 00       		.byte	0
 5042 0b41 08       		.uleb128 0x8
 5043 0b42 B6080000 		.4byte	0x8b6
 5044 0b46 510B0000 		.4byte	0xb51
 5045 0b4a 09       		.uleb128 0x9
 5046 0b4b 7E000000 		.4byte	0x7e
 5047 0b4f 17       		.byte	0x17
 5048 0b50 00       		.byte	0
 5049 0b51 0A       		.uleb128 0xa
 5050 0b52 F0       		.byte	0xf0
 5051 0b53 09       		.byte	0x9
 5052 0b54 9902     		.2byte	0x299
 5053 0b56 790B0000 		.4byte	0xb79
 5054 0b5a 0C       		.uleb128 0xc
 5055 0b5b FB090000 		.4byte	.LASF146
 5056 0b5f 09       		.byte	0x9
 5057 0b60 9C02     		.2byte	0x29c
 5058 0b62 790B0000 		.4byte	0xb79
ARM GAS  C:\Users\EBANO_~1\AppData\Local\Temp\cc8t01eQ.s 			page 129


 5059 0b66 02       		.byte	0x2
 5060 0b67 23       		.byte	0x23
 5061 0b68 00       		.uleb128 0
 5062 0b69 0C       		.uleb128 0xc
 5063 0b6a 54050000 		.4byte	.LASF147
 5064 0b6e 09       		.byte	0x9
 5065 0b6f 9D02     		.2byte	0x29d
 5066 0b71 890B0000 		.4byte	0xb89
 5067 0b75 02       		.byte	0x2
 5068 0b76 23       		.byte	0x23
 5069 0b77 78       		.uleb128 0x78
 5070 0b78 00       		.byte	0
 5071 0b79 08       		.uleb128 0x8
 5072 0b7a C8050000 		.4byte	0x5c8
 5073 0b7e 890B0000 		.4byte	0xb89
 5074 0b82 09       		.uleb128 0x9
 5075 0b83 7E000000 		.4byte	0x7e
 5076 0b87 1D       		.byte	0x1d
 5077 0b88 00       		.byte	0
 5078 0b89 08       		.uleb128 0x8
 5079 0b8a 7E000000 		.4byte	0x7e
 5080 0b8e 990B0000 		.4byte	0xb99
 5081 0b92 09       		.uleb128 0x9
 5082 0b93 7E000000 		.4byte	0x7e
 5083 0b97 1D       		.byte	0x1d
 5084 0b98 00       		.byte	0
 5085 0b99 20       		.uleb128 0x20
 5086 0b9a F0       		.byte	0xf0
 5087 0b9b 09       		.byte	0x9
 5088 0b9c 7E02     		.2byte	0x27e
 5089 0b9e BB0B0000 		.4byte	0xbbb
 5090 0ba2 21       		.uleb128 0x21
 5091 0ba3 7B020000 		.4byte	.LASF96
 5092 0ba7 09       		.byte	0x9
 5093 0ba8 9502     		.2byte	0x295
 5094 0baa F1090000 		.4byte	0x9f1
 5095 0bae 21       		.uleb128 0x21
 5096 0baf C4000000 		.4byte	.LASF148
 5097 0bb3 09       		.byte	0x9
 5098 0bb4 9E02     		.2byte	0x29e
 5099 0bb6 510B0000 		.4byte	0xb51
 5100 0bba 00       		.byte	0
 5101 0bbb 08       		.uleb128 0x8
 5102 0bbc B6080000 		.4byte	0x8b6
 5103 0bc0 CB0B0000 		.4byte	0xbcb
 5104 0bc4 09       		.uleb128 0x9
 5105 0bc5 7E000000 		.4byte	0x7e
 5106 0bc9 18       		.byte	0x18
 5107 0bca 00       		.byte	0
 5108 0bcb 13       		.uleb128 0x13
 5109 0bcc 13000000 		.4byte	.LASF150
 5110 0bd0 01       		.byte	0x1
 5111 0bd1 12       		.uleb128 0x12
 5112 0bd2 04       		.byte	0x4
 5113 0bd3 CB0B0000 		.4byte	0xbcb
 5114 0bd7 22       		.uleb128 0x22
 5115 0bd8 01       		.byte	0x1
ARM GAS  C:\Users\EBANO_~1\AppData\Local\Temp\cc8t01eQ.s 			page 130


 5116 0bd9 E30B0000 		.4byte	0xbe3
 5117 0bdd 1D       		.uleb128 0x1d
 5118 0bde 47070000 		.4byte	0x747
 5119 0be2 00       		.byte	0
 5120 0be3 12       		.uleb128 0x12
 5121 0be4 04       		.byte	0x4
 5122 0be5 D70B0000 		.4byte	0xbd7
 5123 0be9 12       		.uleb128 0x12
 5124 0bea 04       		.byte	0x4
 5125 0beb 40040000 		.4byte	0x440
 5126 0bef 22       		.uleb128 0x22
 5127 0bf0 01       		.byte	0x1
 5128 0bf1 FB0B0000 		.4byte	0xbfb
 5129 0bf5 1D       		.uleb128 0x1d
 5130 0bf6 77000000 		.4byte	0x77
 5131 0bfa 00       		.byte	0
 5132 0bfb 12       		.uleb128 0x12
 5133 0bfc 04       		.byte	0x4
 5134 0bfd 010C0000 		.4byte	0xc01
 5135 0c01 12       		.uleb128 0x12
 5136 0c02 04       		.byte	0x4
 5137 0c03 EF0B0000 		.4byte	0xbef
 5138 0c07 08       		.uleb128 0x8
 5139 0c08 53090000 		.4byte	0x953
 5140 0c0c 170C0000 		.4byte	0xc17
 5141 0c10 09       		.uleb128 0x9
 5142 0c11 7E000000 		.4byte	0x7e
 5143 0c15 02       		.byte	0x2
 5144 0c16 00       		.byte	0
 5145 0c17 23       		.uleb128 0x23
 5146 0c18 A8010000 		.4byte	.LASF151
 5147 0c1c 09       		.byte	0x9
 5148 0c1d 2E03     		.2byte	0x32e
 5149 0c1f 47070000 		.4byte	0x747
 5150 0c23 01       		.byte	0x1
 5151 0c24 01       		.byte	0x1
 5152 0c25 23       		.uleb128 0x23
 5153 0c26 82020000 		.4byte	.LASF152
 5154 0c2a 09       		.byte	0x9
 5155 0c2b 2F03     		.2byte	0x32f
 5156 0c2d 4D070000 		.4byte	0x74d
 5157 0c31 01       		.byte	0x1
 5158 0c32 01       		.byte	0x1
 5159 0c33 0E       		.uleb128 0xe
 5160 0c34 07       		.byte	0x7
 5161 0c35 01       		.byte	0x1
 5162 0c36 3B000000 		.4byte	0x3b
 5163 0c3a 0B       		.byte	0xb
 5164 0c3b 38       		.byte	0x38
 5165 0c3c 590C0000 		.4byte	0xc59
 5166 0c40 0F       		.uleb128 0xf
 5167 0c41 45020000 		.4byte	.LASF153
 5168 0c45 00       		.byte	0
 5169 0c46 0F       		.uleb128 0xf
 5170 0c47 E0070000 		.4byte	.LASF154
 5171 0c4b 01       		.byte	0x1
 5172 0c4c 0F       		.uleb128 0xf
ARM GAS  C:\Users\EBANO_~1\AppData\Local\Temp\cc8t01eQ.s 			page 131


 5173 0c4d A5060000 		.4byte	.LASF155
 5174 0c51 02       		.byte	0x2
 5175 0c52 0F       		.uleb128 0xf
 5176 0c53 510A0000 		.4byte	.LASF156
 5177 0c57 03       		.byte	0x3
 5178 0c58 00       		.byte	0
 5179 0c59 03       		.uleb128 0x3
 5180 0c5a 30000000 		.4byte	.LASF157
 5181 0c5e 0B       		.byte	0xb
 5182 0c5f 3D       		.byte	0x3d
 5183 0c60 330C0000 		.4byte	0xc33
 5184 0c64 0E       		.uleb128 0xe
 5185 0c65 07       		.byte	0x7
 5186 0c66 01       		.byte	0x1
 5187 0c67 3B000000 		.4byte	0x3b
 5188 0c6b 0B       		.byte	0xb
 5189 0c6c 43       		.byte	0x43
 5190 0c6d 7E0C0000 		.4byte	0xc7e
 5191 0c71 0F       		.uleb128 0xf
 5192 0c72 F8070000 		.4byte	.LASF158
 5193 0c76 00       		.byte	0
 5194 0c77 0F       		.uleb128 0xf
 5195 0c78 410A0000 		.4byte	.LASF159
 5196 0c7c 01       		.byte	0x1
 5197 0c7d 00       		.byte	0
 5198 0c7e 03       		.uleb128 0x3
 5199 0c7f F8010000 		.4byte	.LASF160
 5200 0c83 0B       		.byte	0xb
 5201 0c84 46       		.byte	0x46
 5202 0c85 640C0000 		.4byte	0xc64
 5203 0c89 0E       		.uleb128 0xe
 5204 0c8a 07       		.byte	0x7
 5205 0c8b 01       		.byte	0x1
 5206 0c8c 3B000000 		.4byte	0x3b
 5207 0c90 0C       		.byte	0xc
 5208 0c91 40       		.byte	0x40
 5209 0c92 B50C0000 		.4byte	0xcb5
 5210 0c96 0F       		.uleb128 0xf
 5211 0c97 35010000 		.4byte	.LASF161
 5212 0c9b 00       		.byte	0
 5213 0c9c 0F       		.uleb128 0xf
 5214 0c9d 65040000 		.4byte	.LASF162
 5215 0ca1 01       		.byte	0x1
 5216 0ca2 0F       		.uleb128 0xf
 5217 0ca3 B1000000 		.4byte	.LASF163
 5218 0ca7 02       		.byte	0x2
 5219 0ca8 0F       		.uleb128 0xf
 5220 0ca9 94050000 		.4byte	.LASF164
 5221 0cad 03       		.byte	0x3
 5222 0cae 0F       		.uleb128 0xf
 5223 0caf 0E080000 		.4byte	.LASF165
 5224 0cb3 04       		.byte	0x4
 5225 0cb4 00       		.byte	0
 5226 0cb5 03       		.uleb128 0x3
 5227 0cb6 F7040000 		.4byte	.LASF166
 5228 0cba 0C       		.byte	0xc
 5229 0cbb 47       		.byte	0x47
ARM GAS  C:\Users\EBANO_~1\AppData\Local\Temp\cc8t01eQ.s 			page 132


 5230 0cbc 890C0000 		.4byte	0xc89
 5231 0cc0 06       		.uleb128 0x6
 5232 0cc1 B50C0000 		.4byte	0xcb5
 5233 0cc5 16       		.uleb128 0x16
 5234 0cc6 1C       		.byte	0x1c
 5235 0cc7 0C       		.byte	0xc
 5236 0cc8 4C       		.byte	0x4c
 5237 0cc9 300D0000 		.4byte	0xd30
 5238 0ccd 17       		.uleb128 0x17
 5239 0cce 66030000 		.4byte	.LASF167
 5240 0cd2 0C       		.byte	0xc
 5241 0cd3 4E       		.byte	0x4e
 5242 0cd4 95000000 		.4byte	0x95
 5243 0cd8 02       		.byte	0x2
 5244 0cd9 23       		.byte	0x23
 5245 0cda 00       		.uleb128 0
 5246 0cdb 17       		.uleb128 0x17
 5247 0cdc 9B030000 		.4byte	.LASF168
 5248 0ce0 0C       		.byte	0xc
 5249 0ce1 51       		.byte	0x51
 5250 0ce2 95000000 		.4byte	0x95
 5251 0ce6 02       		.byte	0x2
 5252 0ce7 23       		.byte	0x23
 5253 0ce8 04       		.uleb128 0x4
 5254 0ce9 17       		.uleb128 0x17
 5255 0cea BD020000 		.4byte	.LASF169
 5256 0cee 0C       		.byte	0xc
 5257 0cef 54       		.byte	0x54
 5258 0cf0 95000000 		.4byte	0x95
 5259 0cf4 02       		.byte	0x2
 5260 0cf5 23       		.byte	0x23
 5261 0cf6 08       		.uleb128 0x8
 5262 0cf7 17       		.uleb128 0x17
 5263 0cf8 F4090000 		.4byte	.LASF170
 5264 0cfc 0C       		.byte	0xc
 5265 0cfd 57       		.byte	0x57
 5266 0cfe 95000000 		.4byte	0x95
 5267 0d02 02       		.byte	0x2
 5268 0d03 23       		.byte	0x23
 5269 0d04 0C       		.uleb128 0xc
 5270 0d05 17       		.uleb128 0x17
 5271 0d06 B7050000 		.4byte	.LASF171
 5272 0d0a 0C       		.byte	0xc
 5273 0d0b 5A       		.byte	0x5a
 5274 0d0c 95000000 		.4byte	0x95
 5275 0d10 02       		.byte	0x2
 5276 0d11 23       		.byte	0x23
 5277 0d12 10       		.uleb128 0x10
 5278 0d13 17       		.uleb128 0x17
 5279 0d14 22080000 		.4byte	.LASF172
 5280 0d18 0C       		.byte	0xc
 5281 0d19 5D       		.byte	0x5d
 5282 0d1a 95000000 		.4byte	0x95
 5283 0d1e 02       		.byte	0x2
 5284 0d1f 23       		.byte	0x23
 5285 0d20 14       		.uleb128 0x14
 5286 0d21 17       		.uleb128 0x17
ARM GAS  C:\Users\EBANO_~1\AppData\Local\Temp\cc8t01eQ.s 			page 133


 5287 0d22 8A090000 		.4byte	.LASF173
 5288 0d26 0C       		.byte	0xc
 5289 0d27 60       		.byte	0x60
 5290 0d28 95000000 		.4byte	0x95
 5291 0d2c 02       		.byte	0x2
 5292 0d2d 23       		.byte	0x23
 5293 0d2e 18       		.uleb128 0x18
 5294 0d2f 00       		.byte	0
 5295 0d30 03       		.uleb128 0x3
 5296 0d31 56030000 		.4byte	.LASF174
 5297 0d35 0C       		.byte	0xc
 5298 0d36 62       		.byte	0x62
 5299 0d37 C50C0000 		.4byte	0xcc5
 5300 0d3b 16       		.uleb128 0x16
 5301 0d3c 14       		.byte	0x14
 5302 0d3d 0C       		.byte	0xc
 5303 0d3e 67       		.byte	0x67
 5304 0d3f B40D0000 		.4byte	0xdb4
 5305 0d43 17       		.uleb128 0x17
 5306 0d44 B0090000 		.4byte	.LASF175
 5307 0d48 0C       		.byte	0xc
 5308 0d49 69       		.byte	0x69
 5309 0d4a 85000000 		.4byte	0x85
 5310 0d4e 02       		.byte	0x2
 5311 0d4f 23       		.byte	0x23
 5312 0d50 00       		.uleb128 0
 5313 0d51 17       		.uleb128 0x17
 5314 0d52 7D030000 		.4byte	.LASF176
 5315 0d56 0C       		.byte	0xc
 5316 0d57 6D       		.byte	0x6d
 5317 0d58 85000000 		.4byte	0x85
 5318 0d5c 02       		.byte	0x2
 5319 0d5d 23       		.byte	0x23
 5320 0d5e 01       		.uleb128 0x1
 5321 0d5f 17       		.uleb128 0x17
 5322 0d60 4E030000 		.4byte	.LASF177
 5323 0d64 0C       		.byte	0xc
 5324 0d65 70       		.byte	0x70
 5325 0d66 85000000 		.4byte	0x85
 5326 0d6a 02       		.byte	0x2
 5327 0d6b 23       		.byte	0x23
 5328 0d6c 02       		.uleb128 0x2
 5329 0d6d 17       		.uleb128 0x17
 5330 0d6e 4E010000 		.4byte	.LASF178
 5331 0d72 0C       		.byte	0xc
 5332 0d73 73       		.byte	0x73
 5333 0d74 85000000 		.4byte	0x85
 5334 0d78 02       		.byte	0x2
 5335 0d79 23       		.byte	0x23
 5336 0d7a 03       		.uleb128 0x3
 5337 0d7b 17       		.uleb128 0x17
 5338 0d7c AF030000 		.4byte	.LASF179
 5339 0d80 0C       		.byte	0xc
 5340 0d81 76       		.byte	0x76
 5341 0d82 95000000 		.4byte	0x95
 5342 0d86 02       		.byte	0x2
 5343 0d87 23       		.byte	0x23
ARM GAS  C:\Users\EBANO_~1\AppData\Local\Temp\cc8t01eQ.s 			page 134


 5344 0d88 04       		.uleb128 0x4
 5345 0d89 17       		.uleb128 0x17
 5346 0d8a 4F040000 		.4byte	.LASF180
 5347 0d8e 0C       		.byte	0xc
 5348 0d8f 7A       		.byte	0x7a
 5349 0d90 95000000 		.4byte	0x95
 5350 0d94 02       		.byte	0x2
 5351 0d95 23       		.byte	0x23
 5352 0d96 08       		.uleb128 0x8
 5353 0d97 17       		.uleb128 0x17
 5354 0d98 99080000 		.4byte	.LASF181
 5355 0d9c 0C       		.byte	0xc
 5356 0d9d 80       		.byte	0x80
 5357 0d9e 95000000 		.4byte	0x95
 5358 0da2 02       		.byte	0x2
 5359 0da3 23       		.byte	0x23
 5360 0da4 0C       		.uleb128 0xc
 5361 0da5 17       		.uleb128 0x17
 5362 0da6 82010000 		.4byte	.LASF182
 5363 0daa 0C       		.byte	0xc
 5364 0dab 83       		.byte	0x83
 5365 0dac 95000000 		.4byte	0x95
 5366 0db0 02       		.byte	0x2
 5367 0db1 23       		.byte	0x23
 5368 0db2 10       		.uleb128 0x10
 5369 0db3 00       		.byte	0
 5370 0db4 03       		.uleb128 0x3
 5371 0db5 C3050000 		.4byte	.LASF183
 5372 0db9 0C       		.byte	0xc
 5373 0dba 86       		.byte	0x86
 5374 0dbb 3B0D0000 		.4byte	0xd3b
 5375 0dbf 16       		.uleb128 0x16
 5376 0dc0 04       		.byte	0x4
 5377 0dc1 0C       		.byte	0xc
 5378 0dc2 8B       		.byte	0x8b
 5379 0dc3 000E0000 		.4byte	0xe00
 5380 0dc7 17       		.uleb128 0x17
 5381 0dc8 90060000 		.4byte	.LASF184
 5382 0dcc 0C       		.byte	0xc
 5383 0dcd 8D       		.byte	0x8d
 5384 0dce 85000000 		.4byte	0x85
 5385 0dd2 02       		.byte	0x2
 5386 0dd3 23       		.byte	0x23
 5387 0dd4 00       		.uleb128 0
 5388 0dd5 17       		.uleb128 0x17
 5389 0dd6 53080000 		.4byte	.LASF185
 5390 0dda 0C       		.byte	0xc
 5391 0ddb 90       		.byte	0x90
 5392 0ddc 85000000 		.4byte	0x85
 5393 0de0 02       		.byte	0x2
 5394 0de1 23       		.byte	0x23
 5395 0de2 01       		.uleb128 0x1
 5396 0de3 17       		.uleb128 0x17
 5397 0de4 CA080000 		.4byte	.LASF186
 5398 0de8 0C       		.byte	0xc
 5399 0de9 93       		.byte	0x93
 5400 0dea 85000000 		.4byte	0x85
ARM GAS  C:\Users\EBANO_~1\AppData\Local\Temp\cc8t01eQ.s 			page 135


 5401 0dee 02       		.byte	0x2
 5402 0def 23       		.byte	0x23
 5403 0df0 02       		.uleb128 0x2
 5404 0df1 17       		.uleb128 0x17
 5405 0df2 98060000 		.4byte	.LASF187
 5406 0df6 0C       		.byte	0xc
 5407 0df7 96       		.byte	0x96
 5408 0df8 85000000 		.4byte	0x85
 5409 0dfc 02       		.byte	0x2
 5410 0dfd 23       		.byte	0x23
 5411 0dfe 03       		.uleb128 0x3
 5412 0dff 00       		.byte	0
 5413 0e00 03       		.uleb128 0x3
 5414 0e01 050B0000 		.4byte	.LASF188
 5415 0e05 0C       		.byte	0xc
 5416 0e06 99       		.byte	0x99
 5417 0e07 BF0D0000 		.4byte	0xdbf
 5418 0e0b 16       		.uleb128 0x16
 5419 0e0c 28       		.byte	0x28
 5420 0e0d 0C       		.byte	0xc
 5421 0e0e 9E       		.byte	0x9e
 5422 0e0f 680E0000 		.4byte	0xe68
 5423 0e13 17       		.uleb128 0x17
 5424 0e14 19060000 		.4byte	.LASF189
 5425 0e18 0C       		.byte	0xc
 5426 0e19 A0       		.byte	0xa0
 5427 0e1a B40D0000 		.4byte	0xdb4
 5428 0e1e 02       		.byte	0x2
 5429 0e1f 23       		.byte	0x23
 5430 0e20 00       		.uleb128 0
 5431 0e21 17       		.uleb128 0x17
 5432 0e22 EC060000 		.4byte	.LASF190
 5433 0e26 0C       		.byte	0xc
 5434 0e27 A2       		.byte	0xa2
 5435 0e28 95000000 		.4byte	0x95
 5436 0e2c 02       		.byte	0x2
 5437 0e2d 23       		.byte	0x23
 5438 0e2e 14       		.uleb128 0x14
 5439 0e2f 17       		.uleb128 0x17
 5440 0e30 00000000 		.4byte	.LASF191
 5441 0e34 0C       		.byte	0xc
 5442 0e35 A5       		.byte	0xa5
 5443 0e36 95000000 		.4byte	0x95
 5444 0e3a 02       		.byte	0x2
 5445 0e3b 23       		.byte	0x23
 5446 0e3c 18       		.uleb128 0x18
 5447 0e3d 17       		.uleb128 0x17
 5448 0e3e C9090000 		.4byte	.LASF192
 5449 0e42 0C       		.byte	0xc
 5450 0e43 A8       		.byte	0xa8
 5451 0e44 95000000 		.4byte	0x95
 5452 0e48 02       		.byte	0x2
 5453 0e49 23       		.byte	0x23
 5454 0e4a 1C       		.uleb128 0x1c
 5455 0e4b 17       		.uleb128 0x17
 5456 0e4c F5050000 		.4byte	.LASF193
 5457 0e50 0C       		.byte	0xc
ARM GAS  C:\Users\EBANO_~1\AppData\Local\Temp\cc8t01eQ.s 			page 136


 5458 0e51 AB       		.byte	0xab
 5459 0e52 85000000 		.4byte	0x85
 5460 0e56 02       		.byte	0x2
 5461 0e57 23       		.byte	0x23
 5462 0e58 20       		.uleb128 0x20
 5463 0e59 17       		.uleb128 0x17
 5464 0e5a E9030000 		.4byte	.LASF194
 5465 0e5e 0C       		.byte	0xc
 5466 0e5f AF       		.byte	0xaf
 5467 0e60 95000000 		.4byte	0x95
 5468 0e64 02       		.byte	0x2
 5469 0e65 23       		.byte	0x23
 5470 0e66 24       		.uleb128 0x24
 5471 0e67 00       		.byte	0
 5472 0e68 03       		.uleb128 0x3
 5473 0e69 180A0000 		.4byte	.LASF195
 5474 0e6d 0C       		.byte	0xc
 5475 0e6e B1       		.byte	0xb1
 5476 0e6f 0B0E0000 		.4byte	0xe0b
 5477 0e73 16       		.uleb128 0x16
 5478 0e74 24       		.byte	0x24
 5479 0e75 0C       		.byte	0xc
 5480 0e76 B6       		.byte	0xb6
 5481 0e77 B40E0000 		.4byte	0xeb4
 5482 0e7b 17       		.uleb128 0x17
 5483 0e7c E0030000 		.4byte	.LASF196
 5484 0e80 0C       		.byte	0xc
 5485 0e81 B8       		.byte	0xb8
 5486 0e82 B40E0000 		.4byte	0xeb4
 5487 0e86 02       		.byte	0x2
 5488 0e87 23       		.byte	0x23
 5489 0e88 00       		.uleb128 0
 5490 0e89 17       		.uleb128 0x17
 5491 0e8a 83060000 		.4byte	.LASF197
 5492 0e8e 0C       		.byte	0xc
 5493 0e8f BA       		.byte	0xba
 5494 0e90 300D0000 		.4byte	0xd30
 5495 0e94 02       		.byte	0x2
 5496 0e95 23       		.byte	0x23
 5497 0e96 04       		.uleb128 0x4
 5498 0e97 17       		.uleb128 0x17
 5499 0e98 5F010000 		.4byte	.LASF198
 5500 0e9c 0C       		.byte	0xc
 5501 0e9d BC       		.byte	0xbc
 5502 0e9e 7E0C0000 		.4byte	0xc7e
 5503 0ea2 02       		.byte	0x2
 5504 0ea3 23       		.byte	0x23
 5505 0ea4 20       		.uleb128 0x20
 5506 0ea5 17       		.uleb128 0x17
 5507 0ea6 F2070000 		.4byte	.LASF199
 5508 0eaa 0C       		.byte	0xc
 5509 0eab BE       		.byte	0xbe
 5510 0eac C00C0000 		.4byte	0xcc0
 5511 0eb0 02       		.byte	0x2
 5512 0eb1 23       		.byte	0x23
 5513 0eb2 21       		.uleb128 0x21
 5514 0eb3 00       		.byte	0
ARM GAS  C:\Users\EBANO_~1\AppData\Local\Temp\cc8t01eQ.s 			page 137


 5515 0eb4 12       		.uleb128 0x12
 5516 0eb5 04       		.byte	0x4
 5517 0eb6 04030000 		.4byte	0x304
 5518 0eba 03       		.uleb128 0x3
 5519 0ebb A9070000 		.4byte	.LASF200
 5520 0ebf 0C       		.byte	0xc
 5521 0ec0 C0       		.byte	0xc0
 5522 0ec1 730E0000 		.4byte	0xe73
 5523 0ec5 24       		.uleb128 0x24
 5524 0ec6 01       		.byte	0x1
 5525 0ec7 9D020000 		.4byte	.LASF201
 5526 0ecb 01       		.byte	0x1
 5527 0ecc E405     		.2byte	0x5e4
 5528 0ece 01       		.byte	0x1
 5529 0ecf 85000000 		.4byte	0x85
 5530 0ed3 01       		.byte	0x1
 5531 0ed4 F10E0000 		.4byte	0xef1
 5532 0ed8 25       		.uleb128 0x25
 5533 0ed9 120A0000 		.4byte	.LASF203
 5534 0edd 01       		.byte	0x1
 5535 0ede E405     		.2byte	0x5e4
 5536 0ee0 85000000 		.4byte	0x85
 5537 0ee4 26       		.uleb128 0x26
 5538 0ee5 746D7000 		.ascii	"tmp\000"
 5539 0ee9 01       		.byte	0x1
 5540 0eea E605     		.2byte	0x5e6
 5541 0eec 95000000 		.4byte	0x95
 5542 0ef0 00       		.byte	0
 5543 0ef1 24       		.uleb128 0x24
 5544 0ef2 01       		.byte	0x1
 5545 0ef3 AF040000 		.4byte	.LASF202
 5546 0ef7 01       		.byte	0x1
 5547 0ef8 D205     		.2byte	0x5d2
 5548 0efa 01       		.byte	0x1
 5549 0efb 85000000 		.4byte	0x85
 5550 0eff 01       		.byte	0x1
 5551 0f00 1D0F0000 		.4byte	0xf1d
 5552 0f04 25       		.uleb128 0x25
 5553 0f05 120A0000 		.4byte	.LASF203
 5554 0f09 01       		.byte	0x1
 5555 0f0a D205     		.2byte	0x5d2
 5556 0f0c 85000000 		.4byte	0x85
 5557 0f10 27       		.uleb128 0x27
 5558 0f11 4C020000 		.4byte	.LASF204
 5559 0f15 01       		.byte	0x1
 5560 0f16 D405     		.2byte	0x5d4
 5561 0f18 95000000 		.4byte	0x95
 5562 0f1c 00       		.byte	0
 5563 0f1d 24       		.uleb128 0x24
 5564 0f1e 01       		.byte	0x1
 5565 0f1f 97070000 		.4byte	.LASF205
 5566 0f23 01       		.byte	0x1
 5567 0f24 B405     		.2byte	0x5b4
 5568 0f26 01       		.byte	0x1
 5569 0f27 590C0000 		.4byte	0xc59
 5570 0f2b 01       		.byte	0x1
 5571 0f2c 490F0000 		.4byte	0xf49
ARM GAS  C:\Users\EBANO_~1\AppData\Local\Temp\cc8t01eQ.s 			page 138


 5572 0f30 25       		.uleb128 0x25
 5573 0f31 3A040000 		.4byte	.LASF206
 5574 0f35 01       		.byte	0x1
 5575 0f36 B405     		.2byte	0x5b4
 5576 0f38 490F0000 		.4byte	0xf49
 5577 0f3c 27       		.uleb128 0x27
 5578 0f3d D8010000 		.4byte	.LASF207
 5579 0f41 01       		.byte	0x1
 5580 0f42 B605     		.2byte	0x5b6
 5581 0f44 95000000 		.4byte	0x95
 5582 0f48 00       		.byte	0
 5583 0f49 12       		.uleb128 0x12
 5584 0f4a 04       		.byte	0x4
 5585 0f4b BA0E0000 		.4byte	0xeba
 5586 0f4f 28       		.uleb128 0x28
 5587 0f50 01       		.byte	0x1
 5588 0f51 08020000 		.4byte	.LASF209
 5589 0f55 01       		.byte	0x1
 5590 0f56 9D05     		.2byte	0x59d
 5591 0f58 01       		.byte	0x1
 5592 0f59 B50C0000 		.4byte	0xcb5
 5593 0f5d 00000000 		.4byte	.LFB55
 5594 0f61 08000000 		.4byte	.LFE55
 5595 0f65 02       		.byte	0x2
 5596 0f66 7D       		.byte	0x7d
 5597 0f67 00       		.sleb128 0
 5598 0f68 01       		.byte	0x1
 5599 0f69 7E0F0000 		.4byte	0xf7e
 5600 0f6d 29       		.uleb128 0x29
 5601 0f6e 3A040000 		.4byte	.LASF206
 5602 0f72 01       		.byte	0x1
 5603 0f73 9D05     		.2byte	0x59d
 5604 0f75 490F0000 		.4byte	0xf49
 5605 0f79 00000000 		.4byte	.LLST98
 5606 0f7d 00       		.byte	0
 5607 0f7e 24       		.uleb128 0x24
 5608 0f7f 01       		.byte	0x1
 5609 0f80 23060000 		.4byte	.LASF208
 5610 0f84 01       		.byte	0x1
 5611 0f85 7105     		.2byte	0x571
 5612 0f87 01       		.byte	0x1
 5613 0f88 590C0000 		.4byte	0xc59
 5614 0f8c 01       		.byte	0x1
 5615 0f8d AA0F0000 		.4byte	0xfaa
 5616 0f91 25       		.uleb128 0x25
 5617 0f92 3A040000 		.4byte	.LASF206
 5618 0f96 01       		.byte	0x1
 5619 0f97 7105     		.2byte	0x571
 5620 0f99 490F0000 		.4byte	0xf49
 5621 0f9d 27       		.uleb128 0x27
 5622 0f9e D8010000 		.4byte	.LASF207
 5623 0fa2 01       		.byte	0x1
 5624 0fa3 7305     		.2byte	0x573
 5625 0fa5 95000000 		.4byte	0x95
 5626 0fa9 00       		.byte	0
 5627 0faa 2A       		.uleb128 0x2a
 5628 0fab 01       		.byte	0x1
ARM GAS  C:\Users\EBANO_~1\AppData\Local\Temp\cc8t01eQ.s 			page 139


 5629 0fac 95090000 		.4byte	.LASF210
 5630 0fb0 01       		.byte	0x1
 5631 0fb1 3605     		.2byte	0x536
 5632 0fb3 01       		.byte	0x1
 5633 0fb4 590C0000 		.4byte	0xc59
 5634 0fb8 00000000 		.4byte	.LFB53
 5635 0fbc 58000000 		.4byte	.LFE53
 5636 0fc0 21000000 		.4byte	.LLST91
 5637 0fc4 01       		.byte	0x1
 5638 0fc5 0C100000 		.4byte	0x100c
 5639 0fc9 29       		.uleb128 0x29
 5640 0fca 3A040000 		.4byte	.LASF206
 5641 0fce 01       		.byte	0x1
 5642 0fcf 3605     		.2byte	0x536
 5643 0fd1 490F0000 		.4byte	0xf49
 5644 0fd5 41000000 		.4byte	.LLST92
 5645 0fd9 29       		.uleb128 0x29
 5646 0fda 95020000 		.4byte	.LASF211
 5647 0fde 01       		.byte	0x1
 5648 0fdf 3605     		.2byte	0x536
 5649 0fe1 95000000 		.4byte	0x95
 5650 0fe5 78000000 		.4byte	.LLST93
 5651 0fe9 2B       		.uleb128 0x2b
 5652 0fea D8010000 		.4byte	.LASF207
 5653 0fee 01       		.byte	0x1
 5654 0fef 3905     		.2byte	0x539
 5655 0ff1 95000000 		.4byte	0x95
 5656 0ff5 AF000000 		.4byte	.LLST94
 5657 0ff9 2C       		.uleb128 0x2c
 5658 0ffa 0A000000 		.4byte	.LVL279
 5659 0ffe BB1B0000 		.4byte	0x1bbb
 5660 1002 2C       		.uleb128 0x2c
 5661 1003 44000000 		.4byte	.LVL286
 5662 1007 BB1B0000 		.4byte	0x1bbb
 5663 100b 00       		.byte	0
 5664 100c 2D       		.uleb128 0x2d
 5665 100d 01       		.byte	0x1
 5666 100e 12050000 		.4byte	.LASF227
 5667 1012 01       		.byte	0x1
 5668 1013 2605     		.2byte	0x526
 5669 1015 01       		.byte	0x1
 5670 1016 27100000 		.4byte	0x1027
 5671 101a 25       		.uleb128 0x25
 5672 101b 3A040000 		.4byte	.LASF206
 5673 101f 01       		.byte	0x1
 5674 1020 2605     		.2byte	0x526
 5675 1022 490F0000 		.4byte	0xf49
 5676 1026 00       		.byte	0
 5677 1027 2E       		.uleb128 0x2e
 5678 1028 01       		.byte	0x1
 5679 1029 AE060000 		.4byte	.LASF236
 5680 102d 01       		.byte	0x1
 5681 102e FC04     		.2byte	0x4fc
 5682 1030 01       		.byte	0x1
 5683 1031 00000000 		.4byte	.LFB51
 5684 1035 64000000 		.4byte	.LFE51
 5685 1039 D8000000 		.4byte	.LLST89
ARM GAS  C:\Users\EBANO_~1\AppData\Local\Temp\cc8t01eQ.s 			page 140


 5686 103d 01       		.byte	0x1
 5687 103e 70100000 		.4byte	0x1070
 5688 1042 29       		.uleb128 0x29
 5689 1043 3A040000 		.4byte	.LASF206
 5690 1047 01       		.byte	0x1
 5691 1048 FC04     		.2byte	0x4fc
 5692 104a 490F0000 		.4byte	0xf49
 5693 104e F8000000 		.4byte	.LLST90
 5694 1052 2F       		.uleb128 0x2f
 5695 1053 34000000 		.4byte	.LVL275
 5696 1057 C91B0000 		.4byte	0x1bc9
 5697 105b 66100000 		.4byte	0x1066
 5698 105f 30       		.uleb128 0x30
 5699 1060 01       		.byte	0x1
 5700 1061 50       		.byte	0x50
 5701 1062 02       		.byte	0x2
 5702 1063 74       		.byte	0x74
 5703 1064 00       		.sleb128 0
 5704 1065 00       		.byte	0
 5705 1066 2C       		.uleb128 0x2c
 5706 1067 48000000 		.4byte	.LVL277
 5707 106b 0C100000 		.4byte	0x100c
 5708 106f 00       		.byte	0
 5709 1070 2A       		.uleb128 0x2a
 5710 1071 01       		.byte	0x1
 5711 1072 BB070000 		.4byte	.LASF212
 5712 1076 01       		.byte	0x1
 5713 1077 C004     		.2byte	0x4c0
 5714 1079 01       		.byte	0x1
 5715 107a 590C0000 		.4byte	0xc59
 5716 107e 00000000 		.4byte	.LFB50
 5717 1082 C8000000 		.4byte	.LFE50
 5718 1086 45010000 		.4byte	.LLST83
 5719 108a 01       		.byte	0x1
 5720 108b 8A110000 		.4byte	0x118a
 5721 108f 29       		.uleb128 0x29
 5722 1090 3A040000 		.4byte	.LASF206
 5723 1094 01       		.byte	0x1
 5724 1095 C004     		.2byte	0x4c0
 5725 1097 490F0000 		.4byte	0xf49
 5726 109b 71010000 		.4byte	.LLST84
 5727 109f 31       		.uleb128 0x31
 5728 10a0 900A0000 		.4byte	.LASF213
 5729 10a4 01       		.byte	0x1
 5730 10a5 C004     		.2byte	0x4c0
 5731 10a7 8A110000 		.4byte	0x118a
 5732 10ab 01       		.byte	0x1
 5733 10ac 51       		.byte	0x51
 5734 10ad 29       		.uleb128 0x29
 5735 10ae E9030000 		.4byte	.LASF194
 5736 10b2 01       		.byte	0x1
 5737 10b3 C004     		.2byte	0x4c0
 5738 10b5 95000000 		.4byte	0x95
 5739 10b9 92010000 		.4byte	.LLST85
 5740 10bd 29       		.uleb128 0x29
 5741 10be A8040000 		.4byte	.LASF214
 5742 10c2 01       		.byte	0x1
ARM GAS  C:\Users\EBANO_~1\AppData\Local\Temp\cc8t01eQ.s 			page 141


 5743 10c3 C004     		.2byte	0x4c0
 5744 10c5 95000000 		.4byte	0x95
 5745 10c9 CA010000 		.4byte	.LLST86
 5746 10cd 2B       		.uleb128 0x2b
 5747 10ce 8C080000 		.4byte	.LASF215
 5748 10d2 01       		.byte	0x1
 5749 10d3 C204     		.2byte	0x4c2
 5750 10d5 95000000 		.4byte	0x95
 5751 10d9 22020000 		.4byte	.LLST87
 5752 10dd 2B       		.uleb128 0x2b
 5753 10de 4C070000 		.4byte	.LASF216
 5754 10e2 01       		.byte	0x1
 5755 10e3 C204     		.2byte	0x4c2
 5756 10e5 95000000 		.4byte	0x95
 5757 10e9 58020000 		.4byte	.LLST88
 5758 10ed 32       		.uleb128 0x32
 5759 10ee C50E0000 		.4byte	0xec5
 5760 10f2 64000000 		.4byte	.LBB192
 5761 10f6 72000000 		.4byte	.LBE192
 5762 10fa 01       		.byte	0x1
 5763 10fb EE04     		.2byte	0x4ee
 5764 10fd 16110000 		.4byte	0x1116
 5765 1101 33       		.uleb128 0x33
 5766 1102 D80E0000 		.4byte	0xed8
 5767 1106 34       		.uleb128 0x34
 5768 1107 64000000 		.4byte	.LBB193
 5769 110b 72000000 		.4byte	.LBE193
 5770 110f 35       		.uleb128 0x35
 5771 1110 E40E0000 		.4byte	0xee4
 5772 1114 00       		.byte	0
 5773 1115 00       		.byte	0
 5774 1116 36       		.uleb128 0x36
 5775 1117 C50E0000 		.4byte	0xec5
 5776 111b 72000000 		.4byte	.LBB194
 5777 111f 90010000 		.4byte	.Ldebug_ranges0+0x190
 5778 1123 01       		.byte	0x1
 5779 1124 EF04     		.2byte	0x4ef
 5780 1126 3B110000 		.4byte	0x113b
 5781 112a 33       		.uleb128 0x33
 5782 112b D80E0000 		.4byte	0xed8
 5783 112f 37       		.uleb128 0x37
 5784 1130 90010000 		.4byte	.Ldebug_ranges0+0x190
 5785 1134 35       		.uleb128 0x35
 5786 1135 E40E0000 		.4byte	0xee4
 5787 1139 00       		.byte	0
 5788 113a 00       		.byte	0
 5789 113b 32       		.uleb128 0x32
 5790 113c C50E0000 		.4byte	0xec5
 5791 1140 82000000 		.4byte	.LBB198
 5792 1144 8E000000 		.4byte	.LBE198
 5793 1148 01       		.byte	0x1
 5794 1149 F004     		.2byte	0x4f0
 5795 114b 64110000 		.4byte	0x1164
 5796 114f 33       		.uleb128 0x33
 5797 1150 D80E0000 		.4byte	0xed8
 5798 1154 34       		.uleb128 0x34
 5799 1155 82000000 		.4byte	.LBB199
ARM GAS  C:\Users\EBANO_~1\AppData\Local\Temp\cc8t01eQ.s 			page 142


 5800 1159 8E000000 		.4byte	.LBE199
 5801 115d 35       		.uleb128 0x35
 5802 115e E40E0000 		.4byte	0xee4
 5803 1162 00       		.byte	0
 5804 1163 00       		.byte	0
 5805 1164 38       		.uleb128 0x38
 5806 1165 C50E0000 		.4byte	0xec5
 5807 1169 90000000 		.4byte	.LBB200
 5808 116d 9C000000 		.4byte	.LBE200
 5809 1171 01       		.byte	0x1
 5810 1172 F104     		.2byte	0x4f1
 5811 1174 33       		.uleb128 0x33
 5812 1175 D80E0000 		.4byte	0xed8
 5813 1179 34       		.uleb128 0x34
 5814 117a 90000000 		.4byte	.LBB201
 5815 117e 9C000000 		.4byte	.LBE201
 5816 1182 35       		.uleb128 0x35
 5817 1183 E40E0000 		.4byte	0xee4
 5818 1187 00       		.byte	0
 5819 1188 00       		.byte	0
 5820 1189 00       		.byte	0
 5821 118a 12       		.uleb128 0x12
 5822 118b 04       		.byte	0x4
 5823 118c 680E0000 		.4byte	0xe68
 5824 1190 2A       		.uleb128 0x2a
 5825 1191 01       		.byte	0x1
 5826 1192 ED0A0000 		.4byte	.LASF217
 5827 1196 01       		.byte	0x1
 5828 1197 6204     		.2byte	0x462
 5829 1199 01       		.byte	0x1
 5830 119a 590C0000 		.4byte	0xc59
 5831 119e 00000000 		.4byte	.LFB49
 5832 11a2 D0000000 		.4byte	.LFE49
 5833 11a6 9A020000 		.4byte	.LLST79
 5834 11aa 01       		.byte	0x1
 5835 11ab 04120000 		.4byte	0x1204
 5836 11af 29       		.uleb128 0x29
 5837 11b0 3A040000 		.4byte	.LASF206
 5838 11b4 01       		.byte	0x1
 5839 11b5 6204     		.2byte	0x462
 5840 11b7 490F0000 		.4byte	0xf49
 5841 11bb C6020000 		.4byte	.LLST80
 5842 11bf 29       		.uleb128 0x29
 5843 11c0 E9030000 		.4byte	.LASF194
 5844 11c4 01       		.byte	0x1
 5845 11c5 6204     		.2byte	0x462
 5846 11c7 95000000 		.4byte	0x95
 5847 11cb 29030000 		.4byte	.LLST81
 5848 11cf 2B       		.uleb128 0x2b
 5849 11d0 D8010000 		.4byte	.LASF207
 5850 11d4 01       		.byte	0x1
 5851 11d5 6404     		.2byte	0x464
 5852 11d7 95000000 		.4byte	0x95
 5853 11db 6E030000 		.4byte	.LLST82
 5854 11df 2C       		.uleb128 0x2c
 5855 11e0 42000000 		.4byte	.LVL240
 5856 11e4 BB1B0000 		.4byte	0x1bbb
ARM GAS  C:\Users\EBANO_~1\AppData\Local\Temp\cc8t01eQ.s 			page 143


 5857 11e8 2C       		.uleb128 0x2c
 5858 11e9 4C000000 		.4byte	.LVL243
 5859 11ed BB1B0000 		.4byte	0x1bbb
 5860 11f1 2C       		.uleb128 0x2c
 5861 11f2 A0000000 		.4byte	.LVL250
 5862 11f6 BB1B0000 		.4byte	0x1bbb
 5863 11fa 2C       		.uleb128 0x2c
 5864 11fb AA000000 		.4byte	.LVL253
 5865 11ff BB1B0000 		.4byte	0x1bbb
 5866 1203 00       		.byte	0
 5867 1204 2A       		.uleb128 0x2a
 5868 1205 01       		.byte	0x1
 5869 1206 6C070000 		.4byte	.LASF218
 5870 120a 01       		.byte	0x1
 5871 120b A903     		.2byte	0x3a9
 5872 120d 01       		.byte	0x1
 5873 120e 590C0000 		.4byte	0xc59
 5874 1212 00000000 		.4byte	.LFB48
 5875 1216 18020000 		.4byte	.LFE48
 5876 121a DC030000 		.4byte	.LLST64
 5877 121e 01       		.byte	0x1
 5878 121f 64130000 		.4byte	0x1364
 5879 1223 29       		.uleb128 0x29
 5880 1224 3A040000 		.4byte	.LASF206
 5881 1228 01       		.byte	0x1
 5882 1229 A903     		.2byte	0x3a9
 5883 122b 490F0000 		.4byte	0xf49
 5884 122f 08040000 		.4byte	.LLST65
 5885 1233 29       		.uleb128 0x29
 5886 1234 900A0000 		.4byte	.LASF213
 5887 1238 01       		.byte	0x1
 5888 1239 A903     		.2byte	0x3a9
 5889 123b 8A110000 		.4byte	0x118a
 5890 123f 3F040000 		.4byte	.LLST66
 5891 1243 29       		.uleb128 0x29
 5892 1244 A8040000 		.4byte	.LASF214
 5893 1248 01       		.byte	0x1
 5894 1249 A903     		.2byte	0x3a9
 5895 124b 95000000 		.4byte	0x95
 5896 124f 9D040000 		.4byte	.LLST67
 5897 1253 2B       		.uleb128 0x2b
 5898 1254 D8010000 		.4byte	.LASF207
 5899 1258 01       		.byte	0x1
 5900 1259 AB03     		.2byte	0x3ab
 5901 125b 95000000 		.4byte	0x95
 5902 125f FB040000 		.4byte	.LLST68
 5903 1263 2B       		.uleb128 0x2b
 5904 1264 8C080000 		.4byte	.LASF215
 5905 1268 01       		.byte	0x1
 5906 1269 AC03     		.2byte	0x3ac
 5907 126b 95000000 		.4byte	0x95
 5908 126f 75050000 		.4byte	.LLST69
 5909 1273 2B       		.uleb128 0x2b
 5910 1274 4C070000 		.4byte	.LASF216
 5911 1278 01       		.byte	0x1
 5912 1279 AC03     		.2byte	0x3ac
 5913 127b 95000000 		.4byte	0x95
ARM GAS  C:\Users\EBANO_~1\AppData\Local\Temp\cc8t01eQ.s 			page 144


 5914 127f E2050000 		.4byte	.LLST70
 5915 1283 32       		.uleb128 0x32
 5916 1284 F10E0000 		.4byte	0xef1
 5917 1288 04010000 		.4byte	.LBB180
 5918 128c 18010000 		.4byte	.LBE180
 5919 1290 01       		.byte	0x1
 5920 1291 D203     		.2byte	0x3d2
 5921 1293 B4120000 		.4byte	0x12b4
 5922 1297 39       		.uleb128 0x39
 5923 1298 040F0000 		.4byte	0xf04
 5924 129c 2F060000 		.4byte	.LLST71
 5925 12a0 34       		.uleb128 0x34
 5926 12a1 04010000 		.4byte	.LBB181
 5927 12a5 18010000 		.4byte	.LBE181
 5928 12a9 3A       		.uleb128 0x3a
 5929 12aa 100F0000 		.4byte	0xf10
 5930 12ae 4D060000 		.4byte	.LLST72
 5931 12b2 00       		.byte	0
 5932 12b3 00       		.byte	0
 5933 12b4 32       		.uleb128 0x32
 5934 12b5 F10E0000 		.4byte	0xef1
 5935 12b9 20010000 		.4byte	.LBB182
 5936 12bd 34010000 		.4byte	.LBE182
 5937 12c1 01       		.byte	0x1
 5938 12c2 D303     		.2byte	0x3d3
 5939 12c4 E5120000 		.4byte	0x12e5
 5940 12c8 39       		.uleb128 0x39
 5941 12c9 040F0000 		.4byte	0xf04
 5942 12cd 6C060000 		.4byte	.LLST73
 5943 12d1 34       		.uleb128 0x34
 5944 12d2 20010000 		.4byte	.LBB183
 5945 12d6 34010000 		.4byte	.LBE183
 5946 12da 3A       		.uleb128 0x3a
 5947 12db 100F0000 		.4byte	0xf10
 5948 12df 8A060000 		.4byte	.LLST74
 5949 12e3 00       		.byte	0
 5950 12e4 00       		.byte	0
 5951 12e5 36       		.uleb128 0x36
 5952 12e6 F10E0000 		.4byte	0xef1
 5953 12ea 3A010000 		.4byte	.LBB184
 5954 12ee 60010000 		.4byte	.Ldebug_ranges0+0x160
 5955 12f2 01       		.byte	0x1
 5956 12f3 D403     		.2byte	0x3d4
 5957 12f5 12130000 		.4byte	0x1312
 5958 12f9 39       		.uleb128 0x39
 5959 12fa 040F0000 		.4byte	0xf04
 5960 12fe A9060000 		.4byte	.LLST75
 5961 1302 37       		.uleb128 0x37
 5962 1303 60010000 		.4byte	.Ldebug_ranges0+0x160
 5963 1307 3A       		.uleb128 0x3a
 5964 1308 100F0000 		.4byte	0xf10
 5965 130c D2060000 		.4byte	.LLST76
 5966 1310 00       		.byte	0
 5967 1311 00       		.byte	0
 5968 1312 36       		.uleb128 0x36
 5969 1313 F10E0000 		.4byte	0xef1
 5970 1317 5A010000 		.4byte	.LBB187
ARM GAS  C:\Users\EBANO_~1\AppData\Local\Temp\cc8t01eQ.s 			page 145


 5971 131b 78010000 		.4byte	.Ldebug_ranges0+0x178
 5972 131f 01       		.byte	0x1
 5973 1320 D603     		.2byte	0x3d6
 5974 1322 3F130000 		.4byte	0x133f
 5975 1326 39       		.uleb128 0x39
 5976 1327 040F0000 		.4byte	0xf04
 5977 132b FD060000 		.4byte	.LLST77
 5978 132f 37       		.uleb128 0x37
 5979 1330 78010000 		.4byte	.Ldebug_ranges0+0x178
 5980 1334 3A       		.uleb128 0x3a
 5981 1335 100F0000 		.4byte	0xf10
 5982 1339 26070000 		.4byte	.LLST78
 5983 133d 00       		.byte	0
 5984 133e 00       		.byte	0
 5985 133f 2C       		.uleb128 0x2c
 5986 1340 8C000000 		.4byte	.LVL195
 5987 1344 BB1B0000 		.4byte	0x1bbb
 5988 1348 2C       		.uleb128 0x2c
 5989 1349 96000000 		.4byte	.LVL198
 5990 134d BB1B0000 		.4byte	0x1bbb
 5991 1351 2C       		.uleb128 0x2c
 5992 1352 B8010000 		.4byte	.LVL230
 5993 1356 BB1B0000 		.4byte	0x1bbb
 5994 135a 2C       		.uleb128 0x2c
 5995 135b C2010000 		.4byte	.LVL233
 5996 135f BB1B0000 		.4byte	0x1bbb
 5997 1363 00       		.byte	0
 5998 1364 2A       		.uleb128 0x2a
 5999 1365 01       		.byte	0x1
 6000 1366 B60A0000 		.4byte	.LASF219
 6001 136a 01       		.byte	0x1
 6002 136b F102     		.2byte	0x2f1
 6003 136d 01       		.byte	0x1
 6004 136e 590C0000 		.4byte	0xc59
 6005 1372 00000000 		.4byte	.LFB47
 6006 1376 E4010000 		.4byte	.LFE47
 6007 137a 51070000 		.4byte	.LLST49
 6008 137e 01       		.byte	0x1
 6009 137f C4140000 		.4byte	0x14c4
 6010 1383 29       		.uleb128 0x29
 6011 1384 3A040000 		.4byte	.LASF206
 6012 1388 01       		.byte	0x1
 6013 1389 F102     		.2byte	0x2f1
 6014 138b 490F0000 		.4byte	0xf49
 6015 138f 7D070000 		.4byte	.LLST50
 6016 1393 29       		.uleb128 0x29
 6017 1394 900A0000 		.4byte	.LASF213
 6018 1398 01       		.byte	0x1
 6019 1399 F102     		.2byte	0x2f1
 6020 139b 8A110000 		.4byte	0x118a
 6021 139f B4070000 		.4byte	.LLST51
 6022 13a3 29       		.uleb128 0x29
 6023 13a4 A8040000 		.4byte	.LASF214
 6024 13a8 01       		.byte	0x1
 6025 13a9 F102     		.2byte	0x2f1
 6026 13ab 95000000 		.4byte	0x95
 6027 13af 12080000 		.4byte	.LLST52
ARM GAS  C:\Users\EBANO_~1\AppData\Local\Temp\cc8t01eQ.s 			page 146


 6028 13b3 2B       		.uleb128 0x2b
 6029 13b4 D8010000 		.4byte	.LASF207
 6030 13b8 01       		.byte	0x1
 6031 13b9 F302     		.2byte	0x2f3
 6032 13bb 95000000 		.4byte	0x95
 6033 13bf 70080000 		.4byte	.LLST53
 6034 13c3 2B       		.uleb128 0x2b
 6035 13c4 8C080000 		.4byte	.LASF215
 6036 13c8 01       		.byte	0x1
 6037 13c9 F402     		.2byte	0x2f4
 6038 13cb 95000000 		.4byte	0x95
 6039 13cf EA080000 		.4byte	.LLST54
 6040 13d3 2B       		.uleb128 0x2b
 6041 13d4 4C070000 		.4byte	.LASF216
 6042 13d8 01       		.byte	0x1
 6043 13d9 F402     		.2byte	0x2f4
 6044 13db 95000000 		.4byte	0x95
 6045 13df 57090000 		.4byte	.LLST55
 6046 13e3 32       		.uleb128 0x32
 6047 13e4 F10E0000 		.4byte	0xef1
 6048 13e8 E2000000 		.4byte	.LBB168
 6049 13ec F6000000 		.4byte	.LBE168
 6050 13f0 01       		.byte	0x1
 6051 13f1 1B03     		.2byte	0x31b
 6052 13f3 14140000 		.4byte	0x1414
 6053 13f7 39       		.uleb128 0x39
 6054 13f8 040F0000 		.4byte	0xf04
 6055 13fc A4090000 		.4byte	.LLST56
 6056 1400 34       		.uleb128 0x34
 6057 1401 E2000000 		.4byte	.LBB169
 6058 1405 F6000000 		.4byte	.LBE169
 6059 1409 3A       		.uleb128 0x3a
 6060 140a 100F0000 		.4byte	0xf10
 6061 140e C2090000 		.4byte	.LLST57
 6062 1412 00       		.byte	0
 6063 1413 00       		.byte	0
 6064 1414 32       		.uleb128 0x32
 6065 1415 F10E0000 		.4byte	0xef1
 6066 1419 FE000000 		.4byte	.LBB170
 6067 141d 12010000 		.4byte	.LBE170
 6068 1421 01       		.byte	0x1
 6069 1422 1C03     		.2byte	0x31c
 6070 1424 45140000 		.4byte	0x1445
 6071 1428 39       		.uleb128 0x39
 6072 1429 040F0000 		.4byte	0xf04
 6073 142d E1090000 		.4byte	.LLST58
 6074 1431 34       		.uleb128 0x34
 6075 1432 FE000000 		.4byte	.LBB171
 6076 1436 12010000 		.4byte	.LBE171
 6077 143a 3A       		.uleb128 0x3a
 6078 143b 100F0000 		.4byte	0xf10
 6079 143f FF090000 		.4byte	.LLST59
 6080 1443 00       		.byte	0
 6081 1444 00       		.byte	0
 6082 1445 36       		.uleb128 0x36
 6083 1446 F10E0000 		.4byte	0xef1
 6084 144a 18010000 		.4byte	.LBB172
ARM GAS  C:\Users\EBANO_~1\AppData\Local\Temp\cc8t01eQ.s 			page 147


 6085 144e 30010000 		.4byte	.Ldebug_ranges0+0x130
 6086 1452 01       		.byte	0x1
 6087 1453 1D03     		.2byte	0x31d
 6088 1455 72140000 		.4byte	0x1472
 6089 1459 39       		.uleb128 0x39
 6090 145a 040F0000 		.4byte	0xf04
 6091 145e 1E0A0000 		.4byte	.LLST60
 6092 1462 37       		.uleb128 0x37
 6093 1463 30010000 		.4byte	.Ldebug_ranges0+0x130
 6094 1467 3A       		.uleb128 0x3a
 6095 1468 100F0000 		.4byte	0xf10
 6096 146c 470A0000 		.4byte	.LLST61
 6097 1470 00       		.byte	0
 6098 1471 00       		.byte	0
 6099 1472 36       		.uleb128 0x36
 6100 1473 F10E0000 		.4byte	0xef1
 6101 1477 38010000 		.4byte	.LBB175
 6102 147b 48010000 		.4byte	.Ldebug_ranges0+0x148
 6103 147f 01       		.byte	0x1
 6104 1480 1F03     		.2byte	0x31f
 6105 1482 9F140000 		.4byte	0x149f
 6106 1486 39       		.uleb128 0x39
 6107 1487 040F0000 		.4byte	0xf04
 6108 148b 720A0000 		.4byte	.LLST62
 6109 148f 37       		.uleb128 0x37
 6110 1490 48010000 		.4byte	.Ldebug_ranges0+0x148
 6111 1494 3A       		.uleb128 0x3a
 6112 1495 100F0000 		.4byte	0xf10
 6113 1499 9B0A0000 		.4byte	.LLST63
 6114 149d 00       		.byte	0
 6115 149e 00       		.byte	0
 6116 149f 2C       		.uleb128 0x2c
 6117 14a0 88000000 		.4byte	.LVL145
 6118 14a4 BB1B0000 		.4byte	0x1bbb
 6119 14a8 2C       		.uleb128 0x2c
 6120 14a9 92000000 		.4byte	.LVL148
 6121 14ad BB1B0000 		.4byte	0x1bbb
 6122 14b1 2C       		.uleb128 0x2c
 6123 14b2 92010000 		.4byte	.LVL180
 6124 14b6 BB1B0000 		.4byte	0x1bbb
 6125 14ba 2C       		.uleb128 0x2c
 6126 14bb 9C010000 		.4byte	.LVL183
 6127 14bf BB1B0000 		.4byte	0x1bbb
 6128 14c3 00       		.byte	0
 6129 14c4 2A       		.uleb128 0x2a
 6130 14c5 01       		.byte	0x1
 6131 14c6 5C070000 		.4byte	.LASF220
 6132 14ca 01       		.byte	0x1
 6133 14cb BB02     		.2byte	0x2bb
 6134 14cd 01       		.byte	0x1
 6135 14ce 590C0000 		.4byte	0xc59
 6136 14d2 00000000 		.4byte	.LFB46
 6137 14d6 5C000000 		.4byte	.LFE46
 6138 14da C60A0000 		.4byte	.LLST45
 6139 14de 01       		.byte	0x1
 6140 14df 8D150000 		.4byte	0x158d
 6141 14e3 29       		.uleb128 0x29
ARM GAS  C:\Users\EBANO_~1\AppData\Local\Temp\cc8t01eQ.s 			page 148


 6142 14e4 3A040000 		.4byte	.LASF206
 6143 14e8 01       		.byte	0x1
 6144 14e9 BB02     		.2byte	0x2bb
 6145 14eb 490F0000 		.4byte	0xf49
 6146 14ef E60A0000 		.4byte	.LLST46
 6147 14f3 31       		.uleb128 0x31
 6148 14f4 D9080000 		.4byte	.LASF221
 6149 14f8 01       		.byte	0x1
 6150 14f9 BB02     		.2byte	0x2bb
 6151 14fb 8D150000 		.4byte	0x158d
 6152 14ff 01       		.byte	0x1
 6153 1500 51       		.byte	0x51
 6154 1501 29       		.uleb128 0x29
 6155 1502 A8040000 		.4byte	.LASF214
 6156 1506 01       		.byte	0x1
 6157 1507 BB02     		.2byte	0x2bb
 6158 1509 95000000 		.4byte	0x95
 6159 150d 070B0000 		.4byte	.LLST47
 6160 1511 2B       		.uleb128 0x2b
 6161 1512 32020000 		.4byte	.LASF222
 6162 1516 01       		.byte	0x1
 6163 1517 BD02     		.2byte	0x2bd
 6164 1519 95000000 		.4byte	0x95
 6165 151d 280B0000 		.4byte	.LLST48
 6166 1521 36       		.uleb128 0x36
 6167 1522 C50E0000 		.4byte	0xec5
 6168 1526 26000000 		.4byte	.LBB146
 6169 152a C0000000 		.4byte	.Ldebug_ranges0+0xc0
 6170 152e 01       		.byte	0x1
 6171 152f CF02     		.2byte	0x2cf
 6172 1531 46150000 		.4byte	0x1546
 6173 1535 33       		.uleb128 0x33
 6174 1536 D80E0000 		.4byte	0xed8
 6175 153a 37       		.uleb128 0x37
 6176 153b C0000000 		.4byte	.Ldebug_ranges0+0xc0
 6177 153f 35       		.uleb128 0x35
 6178 1540 E40E0000 		.4byte	0xee4
 6179 1544 00       		.byte	0
 6180 1545 00       		.byte	0
 6181 1546 36       		.uleb128 0x36
 6182 1547 C50E0000 		.4byte	0xec5
 6183 154b 32000000 		.4byte	.LBB149
 6184 154f D8000000 		.4byte	.Ldebug_ranges0+0xd8
 6185 1553 01       		.byte	0x1
 6186 1554 D002     		.2byte	0x2d0
 6187 1556 6B150000 		.4byte	0x156b
 6188 155a 33       		.uleb128 0x33
 6189 155b D80E0000 		.4byte	0xed8
 6190 155f 37       		.uleb128 0x37
 6191 1560 D8000000 		.4byte	.Ldebug_ranges0+0xd8
 6192 1564 35       		.uleb128 0x35
 6193 1565 E40E0000 		.4byte	0xee4
 6194 1569 00       		.byte	0
 6195 156a 00       		.byte	0
 6196 156b 3B       		.uleb128 0x3b
 6197 156c C50E0000 		.4byte	0xec5
 6198 1570 3A000000 		.4byte	.LBB157
ARM GAS  C:\Users\EBANO_~1\AppData\Local\Temp\cc8t01eQ.s 			page 149


 6199 1574 08010000 		.4byte	.Ldebug_ranges0+0x108
 6200 1578 01       		.byte	0x1
 6201 1579 D102     		.2byte	0x2d1
 6202 157b 33       		.uleb128 0x33
 6203 157c D80E0000 		.4byte	0xed8
 6204 1580 37       		.uleb128 0x37
 6205 1581 08010000 		.4byte	.Ldebug_ranges0+0x108
 6206 1585 35       		.uleb128 0x35
 6207 1586 E40E0000 		.4byte	0xee4
 6208 158a 00       		.byte	0
 6209 158b 00       		.byte	0
 6210 158c 00       		.byte	0
 6211 158d 12       		.uleb128 0x12
 6212 158e 04       		.byte	0x4
 6213 158f 000E0000 		.4byte	0xe00
 6214 1593 2A       		.uleb128 0x2a
 6215 1594 01       		.byte	0x1
 6216 1595 63060000 		.4byte	.LASF223
 6217 1599 01       		.byte	0x1
 6218 159a 4C02     		.2byte	0x24c
 6219 159c 01       		.byte	0x1
 6220 159d 590C0000 		.4byte	0xc59
 6221 15a1 00000000 		.4byte	.LFB45
 6222 15a5 60010000 		.4byte	.LFE45
 6223 15a9 470B0000 		.4byte	.LLST30
 6224 15ad 01       		.byte	0x1
 6225 15ae 00170000 		.4byte	0x1700
 6226 15b2 29       		.uleb128 0x29
 6227 15b3 3A040000 		.4byte	.LASF206
 6228 15b7 01       		.byte	0x1
 6229 15b8 4C02     		.2byte	0x24c
 6230 15ba 490F0000 		.4byte	0xf49
 6231 15be 730B0000 		.4byte	.LLST31
 6232 15c2 29       		.uleb128 0x29
 6233 15c3 D9080000 		.4byte	.LASF221
 6234 15c7 01       		.byte	0x1
 6235 15c8 4C02     		.2byte	0x24c
 6236 15ca 8D150000 		.4byte	0x158d
 6237 15ce AA0B0000 		.4byte	.LLST32
 6238 15d2 29       		.uleb128 0x29
 6239 15d3 A8040000 		.4byte	.LASF214
 6240 15d7 01       		.byte	0x1
 6241 15d8 4C02     		.2byte	0x24c
 6242 15da 95000000 		.4byte	0x95
 6243 15de FD0B0000 		.4byte	.LLST33
 6244 15e2 2B       		.uleb128 0x2b
 6245 15e3 32020000 		.4byte	.LASF222
 6246 15e7 01       		.byte	0x1
 6247 15e8 4E02     		.2byte	0x24e
 6248 15ea 95000000 		.4byte	0x95
 6249 15ee 690C0000 		.4byte	.LLST34
 6250 15f2 36       		.uleb128 0x36
 6251 15f3 1D0F0000 		.4byte	0xf1d
 6252 15f7 3E000000 		.4byte	.LBB130
 6253 15fb 88000000 		.4byte	.Ldebug_ranges0+0x88
 6254 15ff 01       		.byte	0x1
 6255 1600 7C02     		.2byte	0x27c
ARM GAS  C:\Users\EBANO_~1\AppData\Local\Temp\cc8t01eQ.s 			page 150


 6256 1602 31160000 		.4byte	0x1631
 6257 1606 39       		.uleb128 0x39
 6258 1607 300F0000 		.4byte	0xf30
 6259 160b E20C0000 		.4byte	.LLST35
 6260 160f 37       		.uleb128 0x37
 6261 1610 88000000 		.4byte	.Ldebug_ranges0+0x88
 6262 1614 3A       		.uleb128 0x3a
 6263 1615 3C0F0000 		.4byte	0xf3c
 6264 1619 0B0D0000 		.4byte	.LLST36
 6265 161d 2C       		.uleb128 0x2c
 6266 161e E6000000 		.4byte	.LVL119
 6267 1622 BB1B0000 		.4byte	0x1bbb
 6268 1626 2C       		.uleb128 0x2c
 6269 1627 FC000000 		.4byte	.LVL122
 6270 162b BB1B0000 		.4byte	0x1bbb
 6271 162f 00       		.byte	0
 6272 1630 00       		.byte	0
 6273 1631 32       		.uleb128 0x32
 6274 1632 F10E0000 		.4byte	0xef1
 6275 1636 82000000 		.4byte	.LBB135
 6276 163a 96000000 		.4byte	.LBE135
 6277 163e 01       		.byte	0x1
 6278 163f 6502     		.2byte	0x265
 6279 1641 62160000 		.4byte	0x1662
 6280 1645 39       		.uleb128 0x39
 6281 1646 040F0000 		.4byte	0xf04
 6282 164a 410D0000 		.4byte	.LLST37
 6283 164e 34       		.uleb128 0x34
 6284 164f 82000000 		.4byte	.LBB136
 6285 1653 96000000 		.4byte	.LBE136
 6286 1657 3A       		.uleb128 0x3a
 6287 1658 100F0000 		.4byte	0xf10
 6288 165c 6B0D0000 		.4byte	.LLST38
 6289 1660 00       		.byte	0
 6290 1661 00       		.byte	0
 6291 1662 32       		.uleb128 0x32
 6292 1663 F10E0000 		.4byte	0xef1
 6293 1667 9A000000 		.4byte	.LBB137
 6294 166b AE000000 		.4byte	.LBE137
 6295 166f 01       		.byte	0x1
 6296 1670 6602     		.2byte	0x266
 6297 1672 93160000 		.4byte	0x1693
 6298 1676 39       		.uleb128 0x39
 6299 1677 040F0000 		.4byte	0xf04
 6300 167b 8A0D0000 		.4byte	.LLST39
 6301 167f 34       		.uleb128 0x34
 6302 1680 9A000000 		.4byte	.LBB138
 6303 1684 AE000000 		.4byte	.LBE138
 6304 1688 3A       		.uleb128 0x3a
 6305 1689 100F0000 		.4byte	0xf10
 6306 168d C30D0000 		.4byte	.LLST40
 6307 1691 00       		.byte	0
 6308 1692 00       		.byte	0
 6309 1693 36       		.uleb128 0x36
 6310 1694 F10E0000 		.4byte	0xef1
 6311 1698 B2000000 		.4byte	.LBB139
 6312 169c A8000000 		.4byte	.Ldebug_ranges0+0xa8
ARM GAS  C:\Users\EBANO_~1\AppData\Local\Temp\cc8t01eQ.s 			page 151


 6313 16a0 01       		.byte	0x1
 6314 16a1 6702     		.2byte	0x267
 6315 16a3 C0160000 		.4byte	0x16c0
 6316 16a7 39       		.uleb128 0x39
 6317 16a8 040F0000 		.4byte	0xf04
 6318 16ac E20D0000 		.4byte	.LLST41
 6319 16b0 37       		.uleb128 0x37
 6320 16b1 A8000000 		.4byte	.Ldebug_ranges0+0xa8
 6321 16b5 3A       		.uleb128 0x3a
 6322 16b6 100F0000 		.4byte	0xf10
 6323 16ba 1E0E0000 		.4byte	.LLST42
 6324 16be 00       		.byte	0
 6325 16bf 00       		.byte	0
 6326 16c0 38       		.uleb128 0x38
 6327 16c1 7E0F0000 		.4byte	0xf7e
 6328 16c5 1C010000 		.4byte	.LBB143
 6329 16c9 46010000 		.4byte	.LBE143
 6330 16cd 01       		.byte	0x1
 6331 16ce 9402     		.2byte	0x294
 6332 16d0 39       		.uleb128 0x39
 6333 16d1 910F0000 		.4byte	0xf91
 6334 16d5 490E0000 		.4byte	.LLST43
 6335 16d9 34       		.uleb128 0x34
 6336 16da 1C010000 		.4byte	.LBB144
 6337 16de 46010000 		.4byte	.LBE144
 6338 16e2 3A       		.uleb128 0x3a
 6339 16e3 9D0F0000 		.4byte	0xf9d
 6340 16e7 5C0E0000 		.4byte	.LLST44
 6341 16eb 2C       		.uleb128 0x2c
 6342 16ec 28010000 		.4byte	.LVL126
 6343 16f0 BB1B0000 		.4byte	0x1bbb
 6344 16f4 2C       		.uleb128 0x2c
 6345 16f5 3E010000 		.4byte	.LVL129
 6346 16f9 BB1B0000 		.4byte	0x1bbb
 6347 16fd 00       		.byte	0
 6348 16fe 00       		.byte	0
 6349 16ff 00       		.byte	0
 6350 1700 2A       		.uleb128 0x2a
 6351 1701 01       		.byte	0x1
 6352 1702 73060000 		.4byte	.LASF224
 6353 1706 01       		.byte	0x1
 6354 1707 2002     		.2byte	0x220
 6355 1709 01       		.byte	0x1
 6356 170a 590C0000 		.4byte	0xc59
 6357 170e 00000000 		.4byte	.LFB44
 6358 1712 68000000 		.4byte	.LFE44
 6359 1716 860E0000 		.4byte	.LLST26
 6360 171a 01       		.byte	0x1
 6361 171b D1170000 		.4byte	0x17d1
 6362 171f 29       		.uleb128 0x29
 6363 1720 3A040000 		.4byte	.LASF206
 6364 1724 01       		.byte	0x1
 6365 1725 2002     		.2byte	0x220
 6366 1727 490F0000 		.4byte	0xf49
 6367 172b A60E0000 		.4byte	.LLST27
 6368 172f 31       		.uleb128 0x31
 6369 1730 3C030000 		.4byte	.LASF225
ARM GAS  C:\Users\EBANO_~1\AppData\Local\Temp\cc8t01eQ.s 			page 152


 6370 1734 01       		.byte	0x1
 6371 1735 2002     		.2byte	0x220
 6372 1737 D1170000 		.4byte	0x17d1
 6373 173b 01       		.byte	0x1
 6374 173c 51       		.byte	0x51
 6375 173d 29       		.uleb128 0x29
 6376 173e A8040000 		.4byte	.LASF214
 6377 1742 01       		.byte	0x1
 6378 1743 2002     		.2byte	0x220
 6379 1745 95000000 		.4byte	0x95
 6380 1749 C70E0000 		.4byte	.LLST28
 6381 174d 2B       		.uleb128 0x2b
 6382 174e 8C080000 		.4byte	.LASF215
 6383 1752 01       		.byte	0x1
 6384 1753 2202     		.2byte	0x222
 6385 1755 95000000 		.4byte	0x95
 6386 1759 E80E0000 		.4byte	.LLST29
 6387 175d 32       		.uleb128 0x32
 6388 175e C50E0000 		.4byte	0xec5
 6389 1762 32000000 		.4byte	.LBB112
 6390 1766 40000000 		.4byte	.LBE112
 6391 176a 01       		.byte	0x1
 6392 176b 3A02     		.2byte	0x23a
 6393 176d 86170000 		.4byte	0x1786
 6394 1771 33       		.uleb128 0x33
 6395 1772 D80E0000 		.4byte	0xed8
 6396 1776 34       		.uleb128 0x34
 6397 1777 32000000 		.4byte	.LBB113
 6398 177b 40000000 		.4byte	.LBE113
 6399 177f 35       		.uleb128 0x35
 6400 1780 E40E0000 		.4byte	0xee4
 6401 1784 00       		.byte	0
 6402 1785 00       		.byte	0
 6403 1786 32       		.uleb128 0x32
 6404 1787 C50E0000 		.4byte	0xec5
 6405 178b 40000000 		.4byte	.LBB114
 6406 178f 4C000000 		.4byte	.LBE114
 6407 1793 01       		.byte	0x1
 6408 1794 3B02     		.2byte	0x23b
 6409 1796 AF170000 		.4byte	0x17af
 6410 179a 33       		.uleb128 0x33
 6411 179b D80E0000 		.4byte	0xed8
 6412 179f 34       		.uleb128 0x34
 6413 17a0 40000000 		.4byte	.LBB115
 6414 17a4 4C000000 		.4byte	.LBE115
 6415 17a8 35       		.uleb128 0x35
 6416 17a9 E40E0000 		.4byte	0xee4
 6417 17ad 00       		.byte	0
 6418 17ae 00       		.byte	0
 6419 17af 3B       		.uleb128 0x3b
 6420 17b0 C50E0000 		.4byte	0xec5
 6421 17b4 4C000000 		.4byte	.LBB116
 6422 17b8 70000000 		.4byte	.Ldebug_ranges0+0x70
 6423 17bc 01       		.byte	0x1
 6424 17bd 3C02     		.2byte	0x23c
 6425 17bf 33       		.uleb128 0x33
 6426 17c0 D80E0000 		.4byte	0xed8
ARM GAS  C:\Users\EBANO_~1\AppData\Local\Temp\cc8t01eQ.s 			page 153


 6427 17c4 37       		.uleb128 0x37
 6428 17c5 70000000 		.4byte	.Ldebug_ranges0+0x70
 6429 17c9 35       		.uleb128 0x35
 6430 17ca E40E0000 		.4byte	0xee4
 6431 17ce 00       		.byte	0
 6432 17cf 00       		.byte	0
 6433 17d0 00       		.byte	0
 6434 17d1 12       		.uleb128 0x12
 6435 17d2 04       		.byte	0x4
 6436 17d3 B40D0000 		.4byte	0xdb4
 6437 17d7 2A       		.uleb128 0x2a
 6438 17d8 01       		.byte	0x1
 6439 17d9 01010000 		.4byte	.LASF226
 6440 17dd 01       		.byte	0x1
 6441 17de 9901     		.2byte	0x199
 6442 17e0 01       		.byte	0x1
 6443 17e1 590C0000 		.4byte	0xc59
 6444 17e5 00000000 		.4byte	.LFB43
 6445 17e9 A4010000 		.4byte	.LFE43
 6446 17ed 070F0000 		.4byte	.LLST11
 6447 17f1 01       		.byte	0x1
 6448 17f2 44190000 		.4byte	0x1944
 6449 17f6 29       		.uleb128 0x29
 6450 17f7 3A040000 		.4byte	.LASF206
 6451 17fb 01       		.byte	0x1
 6452 17fc 9901     		.2byte	0x199
 6453 17fe 490F0000 		.4byte	0xf49
 6454 1802 330F0000 		.4byte	.LLST12
 6455 1806 29       		.uleb128 0x29
 6456 1807 3C030000 		.4byte	.LASF225
 6457 180b 01       		.byte	0x1
 6458 180c 9901     		.2byte	0x199
 6459 180e D1170000 		.4byte	0x17d1
 6460 1812 8B0F0000 		.4byte	.LLST13
 6461 1816 29       		.uleb128 0x29
 6462 1817 A8040000 		.4byte	.LASF214
 6463 181b 01       		.byte	0x1
 6464 181c 9901     		.2byte	0x199
 6465 181e 95000000 		.4byte	0x95
 6466 1822 DB0F0000 		.4byte	.LLST14
 6467 1826 2B       		.uleb128 0x2b
 6468 1827 8C080000 		.4byte	.LASF215
 6469 182b 01       		.byte	0x1
 6470 182c 9B01     		.2byte	0x19b
 6471 182e 95000000 		.4byte	0x95
 6472 1832 47100000 		.4byte	.LLST15
 6473 1836 36       		.uleb128 0x36
 6474 1837 1D0F0000 		.4byte	0xf1d
 6475 183b 50000000 		.4byte	.LBB96
 6476 183f 38000000 		.4byte	.Ldebug_ranges0+0x38
 6477 1843 01       		.byte	0x1
 6478 1844 D401     		.2byte	0x1d4
 6479 1846 75180000 		.4byte	0x1875
 6480 184a 39       		.uleb128 0x39
 6481 184b 300F0000 		.4byte	0xf30
 6482 184f B6100000 		.4byte	.LLST16
 6483 1853 37       		.uleb128 0x37
ARM GAS  C:\Users\EBANO_~1\AppData\Local\Temp\cc8t01eQ.s 			page 154


 6484 1854 38000000 		.4byte	.Ldebug_ranges0+0x38
 6485 1858 3A       		.uleb128 0x3a
 6486 1859 3C0F0000 		.4byte	0xf3c
 6487 185d DF100000 		.4byte	.LLST17
 6488 1861 2C       		.uleb128 0x2c
 6489 1862 16010000 		.4byte	.LVL66
 6490 1866 BB1B0000 		.4byte	0x1bbb
 6491 186a 2C       		.uleb128 0x2c
 6492 186b 30010000 		.4byte	.LVL69
 6493 186f BB1B0000 		.4byte	0x1bbb
 6494 1873 00       		.byte	0
 6495 1874 00       		.byte	0
 6496 1875 32       		.uleb128 0x32
 6497 1876 F10E0000 		.4byte	0xef1
 6498 187a AE000000 		.4byte	.LBB101
 6499 187e C2000000 		.4byte	.LBE101
 6500 1882 01       		.byte	0x1
 6501 1883 B601     		.2byte	0x1b6
 6502 1885 A6180000 		.4byte	0x18a6
 6503 1889 39       		.uleb128 0x39
 6504 188a 040F0000 		.4byte	0xf04
 6505 188e 15110000 		.4byte	.LLST18
 6506 1892 34       		.uleb128 0x34
 6507 1893 AE000000 		.4byte	.LBB102
 6508 1897 C2000000 		.4byte	.LBE102
 6509 189b 3A       		.uleb128 0x3a
 6510 189c 100F0000 		.4byte	0xf10
 6511 18a0 33110000 		.4byte	.LLST19
 6512 18a4 00       		.byte	0
 6513 18a5 00       		.byte	0
 6514 18a6 32       		.uleb128 0x32
 6515 18a7 F10E0000 		.4byte	0xef1
 6516 18ab C8000000 		.4byte	.LBB103
 6517 18af DC000000 		.4byte	.LBE103
 6518 18b3 01       		.byte	0x1
 6519 18b4 B701     		.2byte	0x1b7
 6520 18b6 D7180000 		.4byte	0x18d7
 6521 18ba 39       		.uleb128 0x39
 6522 18bb 040F0000 		.4byte	0xf04
 6523 18bf 52110000 		.4byte	.LLST20
 6524 18c3 34       		.uleb128 0x34
 6525 18c4 C8000000 		.4byte	.LBB104
 6526 18c8 DC000000 		.4byte	.LBE104
 6527 18cc 3A       		.uleb128 0x3a
 6528 18cd 100F0000 		.4byte	0xf10
 6529 18d1 70110000 		.4byte	.LLST21
 6530 18d5 00       		.byte	0
 6531 18d6 00       		.byte	0
 6532 18d7 36       		.uleb128 0x36
 6533 18d8 F10E0000 		.4byte	0xef1
 6534 18dc E2000000 		.4byte	.LBB105
 6535 18e0 58000000 		.4byte	.Ldebug_ranges0+0x58
 6536 18e4 01       		.byte	0x1
 6537 18e5 B801     		.2byte	0x1b8
 6538 18e7 04190000 		.4byte	0x1904
 6539 18eb 39       		.uleb128 0x39
 6540 18ec 040F0000 		.4byte	0xf04
ARM GAS  C:\Users\EBANO_~1\AppData\Local\Temp\cc8t01eQ.s 			page 155


 6541 18f0 8F110000 		.4byte	.LLST22
 6542 18f4 37       		.uleb128 0x37
 6543 18f5 58000000 		.4byte	.Ldebug_ranges0+0x58
 6544 18f9 3A       		.uleb128 0x3a
 6545 18fa 100F0000 		.4byte	0xf10
 6546 18fe B8110000 		.4byte	.LLST23
 6547 1902 00       		.byte	0
 6548 1903 00       		.byte	0
 6549 1904 38       		.uleb128 0x38
 6550 1905 7E0F0000 		.4byte	0xf7e
 6551 1909 58010000 		.4byte	.LBB109
 6552 190d 84010000 		.4byte	.LBE109
 6553 1911 01       		.byte	0x1
 6554 1912 F201     		.2byte	0x1f2
 6555 1914 39       		.uleb128 0x39
 6556 1915 910F0000 		.4byte	0xf91
 6557 1919 E3110000 		.4byte	.LLST24
 6558 191d 34       		.uleb128 0x34
 6559 191e 58010000 		.4byte	.LBB110
 6560 1922 84010000 		.4byte	.LBE110
 6561 1926 3A       		.uleb128 0x3a
 6562 1927 9D0F0000 		.4byte	0xf9d
 6563 192b F6110000 		.4byte	.LLST25
 6564 192f 2C       		.uleb128 0x2c
 6565 1930 64010000 		.4byte	.LVL74
 6566 1934 BB1B0000 		.4byte	0x1bbb
 6567 1938 2C       		.uleb128 0x2c
 6568 1939 7C010000 		.4byte	.LVL77
 6569 193d BB1B0000 		.4byte	0x1bbb
 6570 1941 00       		.byte	0
 6571 1942 00       		.byte	0
 6572 1943 00       		.byte	0
 6573 1944 2D       		.uleb128 0x2d
 6574 1945 01       		.byte	0x1
 6575 1946 11010000 		.4byte	.LASF228
 6576 194a 01       		.byte	0x1
 6577 194b 7301     		.2byte	0x173
 6578 194d 01       		.byte	0x1
 6579 194e 5F190000 		.4byte	0x195f
 6580 1952 25       		.uleb128 0x25
 6581 1953 3A040000 		.4byte	.LASF206
 6582 1957 01       		.byte	0x1
 6583 1958 7301     		.2byte	0x173
 6584 195a 490F0000 		.4byte	0xf49
 6585 195e 00       		.byte	0
 6586 195f 3C       		.uleb128 0x3c
 6587 1960 01       		.byte	0x1
 6588 1961 C6060000 		.4byte	.LASF237
 6589 1965 01       		.byte	0x1
 6590 1966 6401     		.2byte	0x164
 6591 1968 01       		.byte	0x1
 6592 1969 01       		.byte	0x1
 6593 196a 7B190000 		.4byte	0x197b
 6594 196e 25       		.uleb128 0x25
 6595 196f 3A040000 		.4byte	.LASF206
 6596 1973 01       		.byte	0x1
 6597 1974 6401     		.2byte	0x164
ARM GAS  C:\Users\EBANO_~1\AppData\Local\Temp\cc8t01eQ.s 			page 156


 6598 1976 490F0000 		.4byte	0xf49
 6599 197a 00       		.byte	0
 6600 197b 3D       		.uleb128 0x3d
 6601 197c 01       		.byte	0x1
 6602 197d 0C070000 		.4byte	.LASF229
 6603 1981 01       		.byte	0x1
 6604 1982 FD       		.byte	0xfd
 6605 1983 01       		.byte	0x1
 6606 1984 590C0000 		.4byte	0xc59
 6607 1988 00000000 		.4byte	.LFB40
 6608 198c 08010000 		.4byte	.LFE40
 6609 1990 20120000 		.4byte	.LLST4
 6610 1994 01       		.byte	0x1
 6611 1995 5C1A0000 		.4byte	0x1a5c
 6612 1999 3E       		.uleb128 0x3e
 6613 199a 3A040000 		.4byte	.LASF206
 6614 199e 01       		.byte	0x1
 6615 199f FD       		.byte	0xfd
 6616 19a0 490F0000 		.4byte	0xf49
 6617 19a4 40120000 		.4byte	.LLST5
 6618 19a8 3F       		.uleb128 0x3f
 6619 19a9 D8010000 		.4byte	.LASF207
 6620 19ad 01       		.byte	0x1
 6621 19ae FF       		.byte	0xff
 6622 19af 95000000 		.4byte	0x95
 6623 19b3 8D120000 		.4byte	.LLST6
 6624 19b7 36       		.uleb128 0x36
 6625 19b8 1D0F0000 		.4byte	0xf1d
 6626 19bc 12000000 		.4byte	.LBB78
 6627 19c0 18000000 		.4byte	.Ldebug_ranges0+0x18
 6628 19c4 01       		.byte	0x1
 6629 19c5 0B01     		.2byte	0x10b
 6630 19c7 F6190000 		.4byte	0x19f6
 6631 19cb 39       		.uleb128 0x39
 6632 19cc 300F0000 		.4byte	0xf30
 6633 19d0 CE120000 		.4byte	.LLST7
 6634 19d4 37       		.uleb128 0x37
 6635 19d5 18000000 		.4byte	.Ldebug_ranges0+0x18
 6636 19d9 3A       		.uleb128 0x3a
 6637 19da 3C0F0000 		.4byte	0xf3c
 6638 19de 1B130000 		.4byte	.LLST8
 6639 19e2 2C       		.uleb128 0x2c
 6640 19e3 C0000000 		.4byte	.LVL29
 6641 19e7 BB1B0000 		.4byte	0x1bbb
 6642 19eb 2C       		.uleb128 0x2c
 6643 19ec D4000000 		.4byte	.LVL32
 6644 19f0 BB1B0000 		.4byte	0x1bbb
 6645 19f4 00       		.byte	0
 6646 19f5 00       		.byte	0
 6647 19f6 32       		.uleb128 0x32
 6648 19f7 7E0F0000 		.4byte	0xf7e
 6649 19fb 76000000 		.4byte	.LBB83
 6650 19ff 9E000000 		.4byte	.LBE83
 6651 1a03 01       		.byte	0x1
 6652 1a04 4501     		.2byte	0x145
 6653 1a06 391A0000 		.4byte	0x1a39
 6654 1a0a 39       		.uleb128 0x39
ARM GAS  C:\Users\EBANO_~1\AppData\Local\Temp\cc8t01eQ.s 			page 157


 6655 1a0b 910F0000 		.4byte	0xf91
 6656 1a0f 51130000 		.4byte	.LLST9
 6657 1a13 34       		.uleb128 0x34
 6658 1a14 76000000 		.4byte	.LBB84
 6659 1a18 9E000000 		.4byte	.LBE84
 6660 1a1c 3A       		.uleb128 0x3a
 6661 1a1d 9D0F0000 		.4byte	0xf9d
 6662 1a21 64130000 		.4byte	.LLST10
 6663 1a25 2C       		.uleb128 0x2c
 6664 1a26 84000000 		.4byte	.LVL22
 6665 1a2a BB1B0000 		.4byte	0x1bbb
 6666 1a2e 2C       		.uleb128 0x2c
 6667 1a2f 90000000 		.4byte	.LVL25
 6668 1a33 BB1B0000 		.4byte	0x1bbb
 6669 1a37 00       		.byte	0
 6670 1a38 00       		.byte	0
 6671 1a39 2C       		.uleb128 0x2c
 6672 1a3a 32000000 		.4byte	.LVL17
 6673 1a3e BB1B0000 		.4byte	0x1bbb
 6674 1a42 2C       		.uleb128 0x2c
 6675 1a43 42000000 		.4byte	.LVL20
 6676 1a47 BB1B0000 		.4byte	0x1bbb
 6677 1a4b 40       		.uleb128 0x40
 6678 1a4c A8000000 		.4byte	.LVL27
 6679 1a50 44190000 		.4byte	0x1944
 6680 1a54 30       		.uleb128 0x30
 6681 1a55 01       		.byte	0x1
 6682 1a56 50       		.byte	0x50
 6683 1a57 02       		.byte	0x2
 6684 1a58 74       		.byte	0x74
 6685 1a59 00       		.sleb128 0
 6686 1a5a 00       		.byte	0
 6687 1a5b 00       		.byte	0
 6688 1a5c 3D       		.uleb128 0x3d
 6689 1a5d 01       		.byte	0x1
 6690 1a5e EF030000 		.4byte	.LASF230
 6691 1a62 01       		.byte	0x1
 6692 1a63 B0       		.byte	0xb0
 6693 1a64 01       		.byte	0x1
 6694 1a65 590C0000 		.4byte	0xc59
 6695 1a69 00000000 		.4byte	.LFB39
 6696 1a6d BC000000 		.4byte	.LFE39
 6697 1a71 8E130000 		.4byte	.LLST0
 6698 1a75 01       		.byte	0x1
 6699 1a76 D81A0000 		.4byte	0x1ad8
 6700 1a7a 3E       		.uleb128 0x3e
 6701 1a7b 3A040000 		.4byte	.LASF206
 6702 1a7f 01       		.byte	0x1
 6703 1a80 B0       		.byte	0xb0
 6704 1a81 490F0000 		.4byte	0xf49
 6705 1a85 AE130000 		.4byte	.LLST1
 6706 1a89 41       		.uleb128 0x41
 6707 1a8a 1D0F0000 		.4byte	0xf1d
 6708 1a8e 20000000 		.4byte	.LBB70
 6709 1a92 00000000 		.4byte	.Ldebug_ranges0+0
 6710 1a96 01       		.byte	0x1
 6711 1a97 D2       		.byte	0xd2
ARM GAS  C:\Users\EBANO_~1\AppData\Local\Temp\cc8t01eQ.s 			page 158


 6712 1a98 C71A0000 		.4byte	0x1ac7
 6713 1a9c 39       		.uleb128 0x39
 6714 1a9d 300F0000 		.4byte	0xf30
 6715 1aa1 FB130000 		.4byte	.LLST2
 6716 1aa5 37       		.uleb128 0x37
 6717 1aa6 00000000 		.4byte	.Ldebug_ranges0+0
 6718 1aaa 3A       		.uleb128 0x3a
 6719 1aab 3C0F0000 		.4byte	0xf3c
 6720 1aaf 19140000 		.4byte	.LLST3
 6721 1ab3 2C       		.uleb128 0x2c
 6722 1ab4 90000000 		.4byte	.LVL8
 6723 1ab8 BB1B0000 		.4byte	0x1bbb
 6724 1abc 2C       		.uleb128 0x2c
 6725 1abd 9E000000 		.4byte	.LVL11
 6726 1ac1 BB1B0000 		.4byte	0x1bbb
 6727 1ac5 00       		.byte	0
 6728 1ac6 00       		.byte	0
 6729 1ac7 40       		.uleb128 0x40
 6730 1ac8 B6000000 		.4byte	.LVL13
 6731 1acc 5F190000 		.4byte	0x195f
 6732 1ad0 30       		.uleb128 0x30
 6733 1ad1 01       		.byte	0x1
 6734 1ad2 50       		.byte	0x50
 6735 1ad3 02       		.byte	0x2
 6736 1ad4 74       		.byte	0x74
 6737 1ad5 00       		.sleb128 0
 6738 1ad6 00       		.byte	0
 6739 1ad7 00       		.byte	0
 6740 1ad8 42       		.uleb128 0x42
 6741 1ad9 5F190000 		.4byte	0x195f
 6742 1add 00000000 		.4byte	.LFB41
 6743 1ae1 02000000 		.4byte	.LFE41
 6744 1ae5 02       		.byte	0x2
 6745 1ae6 7D       		.byte	0x7d
 6746 1ae7 00       		.sleb128 0
 6747 1ae8 01       		.byte	0x1
 6748 1ae9 F51A0000 		.4byte	0x1af5
 6749 1aed 43       		.uleb128 0x43
 6750 1aee 6E190000 		.4byte	0x196e
 6751 1af2 01       		.byte	0x1
 6752 1af3 50       		.byte	0x50
 6753 1af4 00       		.byte	0
 6754 1af5 44       		.uleb128 0x44
 6755 1af6 7E0F0000 		.4byte	0xf7e
 6756 1afa 00000000 		.4byte	.LFB54
 6757 1afe 36000000 		.4byte	.LFE54
 6758 1b02 4F140000 		.4byte	.LLST95
 6759 1b06 01       		.byte	0x1
 6760 1b07 301B0000 		.4byte	0x1b30
 6761 1b0b 39       		.uleb128 0x39
 6762 1b0c 910F0000 		.4byte	0xf91
 6763 1b10 6F140000 		.4byte	.LLST96
 6764 1b14 3A       		.uleb128 0x3a
 6765 1b15 9D0F0000 		.4byte	0xf9d
 6766 1b19 A6140000 		.4byte	.LLST97
 6767 1b1d 2C       		.uleb128 0x2c
 6768 1b1e 12000000 		.4byte	.LVL288
ARM GAS  C:\Users\EBANO_~1\AppData\Local\Temp\cc8t01eQ.s 			page 159


 6769 1b22 BB1B0000 		.4byte	0x1bbb
 6770 1b26 2C       		.uleb128 0x2c
 6771 1b27 20000000 		.4byte	.LVL291
 6772 1b2b BB1B0000 		.4byte	0x1bbb
 6773 1b2f 00       		.byte	0
 6774 1b30 44       		.uleb128 0x44
 6775 1b31 1D0F0000 		.4byte	0xf1d
 6776 1b35 00000000 		.4byte	.LFB56
 6777 1b39 3C000000 		.4byte	.LFE56
 6778 1b3d DB140000 		.4byte	.LLST99
 6779 1b41 01       		.byte	0x1
 6780 1b42 6B1B0000 		.4byte	0x1b6b
 6781 1b46 39       		.uleb128 0x39
 6782 1b47 300F0000 		.4byte	0xf30
 6783 1b4b FB140000 		.4byte	.LLST100
 6784 1b4f 3A       		.uleb128 0x3a
 6785 1b50 3C0F0000 		.4byte	0xf3c
 6786 1b54 3D150000 		.4byte	.LLST101
 6787 1b58 2C       		.uleb128 0x2c
 6788 1b59 1A000000 		.4byte	.LVL301
 6789 1b5d BB1B0000 		.4byte	0x1bbb
 6790 1b61 2C       		.uleb128 0x2c
 6791 1b62 28000000 		.4byte	.LVL304
 6792 1b66 BB1B0000 		.4byte	0x1bbb
 6793 1b6a 00       		.byte	0
 6794 1b6b 42       		.uleb128 0x42
 6795 1b6c F10E0000 		.4byte	0xef1
 6796 1b70 00000000 		.4byte	.LFB57
 6797 1b74 18000000 		.4byte	.LFE57
 6798 1b78 02       		.byte	0x2
 6799 1b79 7D       		.byte	0x7d
 6800 1b7a 00       		.sleb128 0
 6801 1b7b 01       		.byte	0x1
 6802 1b7c 931B0000 		.4byte	0x1b93
 6803 1b80 39       		.uleb128 0x39
 6804 1b81 040F0000 		.4byte	0xf04
 6805 1b85 73150000 		.4byte	.LLST102
 6806 1b89 3A       		.uleb128 0x3a
 6807 1b8a 100F0000 		.4byte	0xf10
 6808 1b8e 91150000 		.4byte	.LLST103
 6809 1b92 00       		.byte	0
 6810 1b93 42       		.uleb128 0x42
 6811 1b94 C50E0000 		.4byte	0xec5
 6812 1b98 00000000 		.4byte	.LFB58
 6813 1b9c 14000000 		.4byte	.LFE58
 6814 1ba0 02       		.byte	0x2
 6815 1ba1 7D       		.byte	0x7d
 6816 1ba2 00       		.sleb128 0
 6817 1ba3 01       		.byte	0x1
 6818 1ba4 BB1B0000 		.4byte	0x1bbb
 6819 1ba8 39       		.uleb128 0x39
 6820 1ba9 D80E0000 		.4byte	0xed8
 6821 1bad B0150000 		.4byte	.LLST104
 6822 1bb1 3A       		.uleb128 0x3a
 6823 1bb2 E40E0000 		.4byte	0xee4
 6824 1bb6 D1150000 		.4byte	.LLST105
 6825 1bba 00       		.byte	0
ARM GAS  C:\Users\EBANO_~1\AppData\Local\Temp\cc8t01eQ.s 			page 160


 6826 1bbb 45       		.uleb128 0x45
 6827 1bbc 01       		.byte	0x1
 6828 1bbd 01       		.byte	0x1
 6829 1bbe 71030000 		.4byte	.LASF231
 6830 1bc2 71030000 		.4byte	.LASF231
 6831 1bc6 0D       		.byte	0xd
 6832 1bc7 8401     		.2byte	0x184
 6833 1bc9 45       		.uleb128 0x45
 6834 1bca 01       		.byte	0x1
 6835 1bcb 01       		.byte	0x1
 6836 1bcc 36050000 		.4byte	.LASF232
 6837 1bd0 36050000 		.4byte	.LASF232
 6838 1bd4 0E       		.byte	0xe
 6839 1bd5 1405     		.2byte	0x514
 6840 1bd7 00       		.byte	0
 6841              		.section	.debug_abbrev,"",%progbits
 6842              	.Ldebug_abbrev0:
 6843 0000 01       		.uleb128 0x1
 6844 0001 11       		.uleb128 0x11
 6845 0002 01       		.byte	0x1
 6846 0003 25       		.uleb128 0x25
 6847 0004 0E       		.uleb128 0xe
 6848 0005 13       		.uleb128 0x13
 6849 0006 0B       		.uleb128 0xb
 6850 0007 03       		.uleb128 0x3
 6851 0008 0E       		.uleb128 0xe
 6852 0009 1B       		.uleb128 0x1b
 6853 000a 0E       		.uleb128 0xe
 6854 000b 55       		.uleb128 0x55
 6855 000c 06       		.uleb128 0x6
 6856 000d 11       		.uleb128 0x11
 6857 000e 01       		.uleb128 0x1
 6858 000f 52       		.uleb128 0x52
 6859 0010 01       		.uleb128 0x1
 6860 0011 10       		.uleb128 0x10
 6861 0012 06       		.uleb128 0x6
 6862 0013 00       		.byte	0
 6863 0014 00       		.byte	0
 6864 0015 02       		.uleb128 0x2
 6865 0016 24       		.uleb128 0x24
 6866 0017 00       		.byte	0
 6867 0018 0B       		.uleb128 0xb
 6868 0019 0B       		.uleb128 0xb
 6869 001a 3E       		.uleb128 0x3e
 6870 001b 0B       		.uleb128 0xb
 6871 001c 03       		.uleb128 0x3
 6872 001d 0E       		.uleb128 0xe
 6873 001e 00       		.byte	0
 6874 001f 00       		.byte	0
 6875 0020 03       		.uleb128 0x3
 6876 0021 16       		.uleb128 0x16
 6877 0022 00       		.byte	0
 6878 0023 03       		.uleb128 0x3
 6879 0024 0E       		.uleb128 0xe
 6880 0025 3A       		.uleb128 0x3a
 6881 0026 0B       		.uleb128 0xb
 6882 0027 3B       		.uleb128 0x3b
ARM GAS  C:\Users\EBANO_~1\AppData\Local\Temp\cc8t01eQ.s 			page 161


 6883 0028 0B       		.uleb128 0xb
 6884 0029 49       		.uleb128 0x49
 6885 002a 13       		.uleb128 0x13
 6886 002b 00       		.byte	0
 6887 002c 00       		.byte	0
 6888 002d 04       		.uleb128 0x4
 6889 002e 24       		.uleb128 0x24
 6890 002f 00       		.byte	0
 6891 0030 0B       		.uleb128 0xb
 6892 0031 0B       		.uleb128 0xb
 6893 0032 3E       		.uleb128 0x3e
 6894 0033 0B       		.uleb128 0xb
 6895 0034 03       		.uleb128 0x3
 6896 0035 08       		.uleb128 0x8
 6897 0036 00       		.byte	0
 6898 0037 00       		.byte	0
 6899 0038 05       		.uleb128 0x5
 6900 0039 26       		.uleb128 0x26
 6901 003a 00       		.byte	0
 6902 003b 49       		.uleb128 0x49
 6903 003c 13       		.uleb128 0x13
 6904 003d 00       		.byte	0
 6905 003e 00       		.byte	0
 6906 003f 06       		.uleb128 0x6
 6907 0040 35       		.uleb128 0x35
 6908 0041 00       		.byte	0
 6909 0042 49       		.uleb128 0x49
 6910 0043 13       		.uleb128 0x13
 6911 0044 00       		.byte	0
 6912 0045 00       		.byte	0
 6913 0046 07       		.uleb128 0x7
 6914 0047 34       		.uleb128 0x34
 6915 0048 00       		.byte	0
 6916 0049 03       		.uleb128 0x3
 6917 004a 0E       		.uleb128 0xe
 6918 004b 3A       		.uleb128 0x3a
 6919 004c 0B       		.uleb128 0xb
 6920 004d 3B       		.uleb128 0x3b
 6921 004e 0B       		.uleb128 0xb
 6922 004f 49       		.uleb128 0x49
 6923 0050 13       		.uleb128 0x13
 6924 0051 3F       		.uleb128 0x3f
 6925 0052 0C       		.uleb128 0xc
 6926 0053 3C       		.uleb128 0x3c
 6927 0054 0C       		.uleb128 0xc
 6928 0055 00       		.byte	0
 6929 0056 00       		.byte	0
 6930 0057 08       		.uleb128 0x8
 6931 0058 01       		.uleb128 0x1
 6932 0059 01       		.byte	0x1
 6933 005a 49       		.uleb128 0x49
 6934 005b 13       		.uleb128 0x13
 6935 005c 01       		.uleb128 0x1
 6936 005d 13       		.uleb128 0x13
 6937 005e 00       		.byte	0
 6938 005f 00       		.byte	0
 6939 0060 09       		.uleb128 0x9
ARM GAS  C:\Users\EBANO_~1\AppData\Local\Temp\cc8t01eQ.s 			page 162


 6940 0061 21       		.uleb128 0x21
 6941 0062 00       		.byte	0
 6942 0063 49       		.uleb128 0x49
 6943 0064 13       		.uleb128 0x13
 6944 0065 2F       		.uleb128 0x2f
 6945 0066 0B       		.uleb128 0xb
 6946 0067 00       		.byte	0
 6947 0068 00       		.byte	0
 6948 0069 0A       		.uleb128 0xa
 6949 006a 13       		.uleb128 0x13
 6950 006b 01       		.byte	0x1
 6951 006c 0B       		.uleb128 0xb
 6952 006d 0B       		.uleb128 0xb
 6953 006e 3A       		.uleb128 0x3a
 6954 006f 0B       		.uleb128 0xb
 6955 0070 3B       		.uleb128 0x3b
 6956 0071 05       		.uleb128 0x5
 6957 0072 01       		.uleb128 0x1
 6958 0073 13       		.uleb128 0x13
 6959 0074 00       		.byte	0
 6960 0075 00       		.byte	0
 6961 0076 0B       		.uleb128 0xb
 6962 0077 0D       		.uleb128 0xd
 6963 0078 00       		.byte	0
 6964 0079 03       		.uleb128 0x3
 6965 007a 08       		.uleb128 0x8
 6966 007b 3A       		.uleb128 0x3a
 6967 007c 0B       		.uleb128 0xb
 6968 007d 3B       		.uleb128 0x3b
 6969 007e 05       		.uleb128 0x5
 6970 007f 49       		.uleb128 0x49
 6971 0080 13       		.uleb128 0x13
 6972 0081 38       		.uleb128 0x38
 6973 0082 0A       		.uleb128 0xa
 6974 0083 00       		.byte	0
 6975 0084 00       		.byte	0
 6976 0085 0C       		.uleb128 0xc
 6977 0086 0D       		.uleb128 0xd
 6978 0087 00       		.byte	0
 6979 0088 03       		.uleb128 0x3
 6980 0089 0E       		.uleb128 0xe
 6981 008a 3A       		.uleb128 0x3a
 6982 008b 0B       		.uleb128 0xb
 6983 008c 3B       		.uleb128 0x3b
 6984 008d 05       		.uleb128 0x5
 6985 008e 49       		.uleb128 0x49
 6986 008f 13       		.uleb128 0x13
 6987 0090 38       		.uleb128 0x38
 6988 0091 0A       		.uleb128 0xa
 6989 0092 00       		.byte	0
 6990 0093 00       		.byte	0
 6991 0094 0D       		.uleb128 0xd
 6992 0095 16       		.uleb128 0x16
 6993 0096 00       		.byte	0
 6994 0097 03       		.uleb128 0x3
 6995 0098 0E       		.uleb128 0xe
 6996 0099 3A       		.uleb128 0x3a
ARM GAS  C:\Users\EBANO_~1\AppData\Local\Temp\cc8t01eQ.s 			page 163


 6997 009a 0B       		.uleb128 0xb
 6998 009b 3B       		.uleb128 0x3b
 6999 009c 05       		.uleb128 0x5
 7000 009d 49       		.uleb128 0x49
 7001 009e 13       		.uleb128 0x13
 7002 009f 00       		.byte	0
 7003 00a0 00       		.byte	0
 7004 00a1 0E       		.uleb128 0xe
 7005 00a2 04       		.uleb128 0x4
 7006 00a3 01       		.byte	0x1
 7007 00a4 3E       		.uleb128 0x3e
 7008 00a5 0B       		.uleb128 0xb
 7009 00a6 0B       		.uleb128 0xb
 7010 00a7 0B       		.uleb128 0xb
 7011 00a8 49       		.uleb128 0x49
 7012 00a9 13       		.uleb128 0x13
 7013 00aa 3A       		.uleb128 0x3a
 7014 00ab 0B       		.uleb128 0xb
 7015 00ac 3B       		.uleb128 0x3b
 7016 00ad 0B       		.uleb128 0xb
 7017 00ae 01       		.uleb128 0x1
 7018 00af 13       		.uleb128 0x13
 7019 00b0 00       		.byte	0
 7020 00b1 00       		.byte	0
 7021 00b2 0F       		.uleb128 0xf
 7022 00b3 28       		.uleb128 0x28
 7023 00b4 00       		.byte	0
 7024 00b5 03       		.uleb128 0x3
 7025 00b6 0E       		.uleb128 0xe
 7026 00b7 1C       		.uleb128 0x1c
 7027 00b8 0B       		.uleb128 0xb
 7028 00b9 00       		.byte	0
 7029 00ba 00       		.byte	0
 7030 00bb 10       		.uleb128 0x10
 7031 00bc 28       		.uleb128 0x28
 7032 00bd 00       		.byte	0
 7033 00be 03       		.uleb128 0x3
 7034 00bf 08       		.uleb128 0x8
 7035 00c0 1C       		.uleb128 0x1c
 7036 00c1 0B       		.uleb128 0xb
 7037 00c2 00       		.byte	0
 7038 00c3 00       		.byte	0
 7039 00c4 11       		.uleb128 0x11
 7040 00c5 0F       		.uleb128 0xf
 7041 00c6 00       		.byte	0
 7042 00c7 0B       		.uleb128 0xb
 7043 00c8 0B       		.uleb128 0xb
 7044 00c9 00       		.byte	0
 7045 00ca 00       		.byte	0
 7046 00cb 12       		.uleb128 0x12
 7047 00cc 0F       		.uleb128 0xf
 7048 00cd 00       		.byte	0
 7049 00ce 0B       		.uleb128 0xb
 7050 00cf 0B       		.uleb128 0xb
 7051 00d0 49       		.uleb128 0x49
 7052 00d1 13       		.uleb128 0x13
 7053 00d2 00       		.byte	0
ARM GAS  C:\Users\EBANO_~1\AppData\Local\Temp\cc8t01eQ.s 			page 164


 7054 00d3 00       		.byte	0
 7055 00d4 13       		.uleb128 0x13
 7056 00d5 13       		.uleb128 0x13
 7057 00d6 00       		.byte	0
 7058 00d7 03       		.uleb128 0x3
 7059 00d8 0E       		.uleb128 0xe
 7060 00d9 3C       		.uleb128 0x3c
 7061 00da 0C       		.uleb128 0xc
 7062 00db 00       		.byte	0
 7063 00dc 00       		.byte	0
 7064 00dd 14       		.uleb128 0x14
 7065 00de 17       		.uleb128 0x17
 7066 00df 01       		.byte	0x1
 7067 00e0 0B       		.uleb128 0xb
 7068 00e1 0B       		.uleb128 0xb
 7069 00e2 3A       		.uleb128 0x3a
 7070 00e3 0B       		.uleb128 0xb
 7071 00e4 3B       		.uleb128 0x3b
 7072 00e5 0B       		.uleb128 0xb
 7073 00e6 01       		.uleb128 0x1
 7074 00e7 13       		.uleb128 0x13
 7075 00e8 00       		.byte	0
 7076 00e9 00       		.byte	0
 7077 00ea 15       		.uleb128 0x15
 7078 00eb 0D       		.uleb128 0xd
 7079 00ec 00       		.byte	0
 7080 00ed 03       		.uleb128 0x3
 7081 00ee 0E       		.uleb128 0xe
 7082 00ef 3A       		.uleb128 0x3a
 7083 00f0 0B       		.uleb128 0xb
 7084 00f1 3B       		.uleb128 0x3b
 7085 00f2 0B       		.uleb128 0xb
 7086 00f3 49       		.uleb128 0x49
 7087 00f4 13       		.uleb128 0x13
 7088 00f5 00       		.byte	0
 7089 00f6 00       		.byte	0
 7090 00f7 16       		.uleb128 0x16
 7091 00f8 13       		.uleb128 0x13
 7092 00f9 01       		.byte	0x1
 7093 00fa 0B       		.uleb128 0xb
 7094 00fb 0B       		.uleb128 0xb
 7095 00fc 3A       		.uleb128 0x3a
 7096 00fd 0B       		.uleb128 0xb
 7097 00fe 3B       		.uleb128 0x3b
 7098 00ff 0B       		.uleb128 0xb
 7099 0100 01       		.uleb128 0x1
 7100 0101 13       		.uleb128 0x13
 7101 0102 00       		.byte	0
 7102 0103 00       		.byte	0
 7103 0104 17       		.uleb128 0x17
 7104 0105 0D       		.uleb128 0xd
 7105 0106 00       		.byte	0
 7106 0107 03       		.uleb128 0x3
 7107 0108 0E       		.uleb128 0xe
 7108 0109 3A       		.uleb128 0x3a
 7109 010a 0B       		.uleb128 0xb
 7110 010b 3B       		.uleb128 0x3b
ARM GAS  C:\Users\EBANO_~1\AppData\Local\Temp\cc8t01eQ.s 			page 165


 7111 010c 0B       		.uleb128 0xb
 7112 010d 49       		.uleb128 0x49
 7113 010e 13       		.uleb128 0x13
 7114 010f 38       		.uleb128 0x38
 7115 0110 0A       		.uleb128 0xa
 7116 0111 00       		.byte	0
 7117 0112 00       		.byte	0
 7118 0113 18       		.uleb128 0x18
 7119 0114 13       		.uleb128 0x13
 7120 0115 01       		.byte	0x1
 7121 0116 03       		.uleb128 0x3
 7122 0117 0E       		.uleb128 0xe
 7123 0118 0B       		.uleb128 0xb
 7124 0119 0B       		.uleb128 0xb
 7125 011a 3A       		.uleb128 0x3a
 7126 011b 0B       		.uleb128 0xb
 7127 011c 3B       		.uleb128 0x3b
 7128 011d 0B       		.uleb128 0xb
 7129 011e 01       		.uleb128 0x1
 7130 011f 13       		.uleb128 0x13
 7131 0120 00       		.byte	0
 7132 0121 00       		.byte	0
 7133 0122 19       		.uleb128 0x19
 7134 0123 0D       		.uleb128 0xd
 7135 0124 00       		.byte	0
 7136 0125 03       		.uleb128 0x3
 7137 0126 08       		.uleb128 0x8
 7138 0127 3A       		.uleb128 0x3a
 7139 0128 0B       		.uleb128 0xb
 7140 0129 3B       		.uleb128 0x3b
 7141 012a 0B       		.uleb128 0xb
 7142 012b 49       		.uleb128 0x49
 7143 012c 13       		.uleb128 0x13
 7144 012d 38       		.uleb128 0x38
 7145 012e 0A       		.uleb128 0xa
 7146 012f 00       		.byte	0
 7147 0130 00       		.byte	0
 7148 0131 1A       		.uleb128 0x1a
 7149 0132 13       		.uleb128 0x13
 7150 0133 01       		.byte	0x1
 7151 0134 03       		.uleb128 0x3
 7152 0135 0E       		.uleb128 0xe
 7153 0136 0B       		.uleb128 0xb
 7154 0137 05       		.uleb128 0x5
 7155 0138 3A       		.uleb128 0x3a
 7156 0139 0B       		.uleb128 0xb
 7157 013a 3B       		.uleb128 0x3b
 7158 013b 0B       		.uleb128 0xb
 7159 013c 01       		.uleb128 0x1
 7160 013d 13       		.uleb128 0x13
 7161 013e 00       		.byte	0
 7162 013f 00       		.byte	0
 7163 0140 1B       		.uleb128 0x1b
 7164 0141 15       		.uleb128 0x15
 7165 0142 00       		.byte	0
 7166 0143 27       		.uleb128 0x27
 7167 0144 0C       		.uleb128 0xc
ARM GAS  C:\Users\EBANO_~1\AppData\Local\Temp\cc8t01eQ.s 			page 166


 7168 0145 00       		.byte	0
 7169 0146 00       		.byte	0
 7170 0147 1C       		.uleb128 0x1c
 7171 0148 15       		.uleb128 0x15
 7172 0149 01       		.byte	0x1
 7173 014a 27       		.uleb128 0x27
 7174 014b 0C       		.uleb128 0xc
 7175 014c 49       		.uleb128 0x49
 7176 014d 13       		.uleb128 0x13
 7177 014e 01       		.uleb128 0x1
 7178 014f 13       		.uleb128 0x13
 7179 0150 00       		.byte	0
 7180 0151 00       		.byte	0
 7181 0152 1D       		.uleb128 0x1d
 7182 0153 05       		.uleb128 0x5
 7183 0154 00       		.byte	0
 7184 0155 49       		.uleb128 0x49
 7185 0156 13       		.uleb128 0x13
 7186 0157 00       		.byte	0
 7187 0158 00       		.byte	0
 7188 0159 1E       		.uleb128 0x1e
 7189 015a 13       		.uleb128 0x13
 7190 015b 01       		.byte	0x1
 7191 015c 03       		.uleb128 0x3
 7192 015d 0E       		.uleb128 0xe
 7193 015e 0B       		.uleb128 0xb
 7194 015f 05       		.uleb128 0x5
 7195 0160 3A       		.uleb128 0x3a
 7196 0161 0B       		.uleb128 0xb
 7197 0162 3B       		.uleb128 0x3b
 7198 0163 05       		.uleb128 0x5
 7199 0164 01       		.uleb128 0x1
 7200 0165 13       		.uleb128 0x13
 7201 0166 00       		.byte	0
 7202 0167 00       		.byte	0
 7203 0168 1F       		.uleb128 0x1f
 7204 0169 13       		.uleb128 0x13
 7205 016a 01       		.byte	0x1
 7206 016b 03       		.uleb128 0x3
 7207 016c 0E       		.uleb128 0xe
 7208 016d 0B       		.uleb128 0xb
 7209 016e 0B       		.uleb128 0xb
 7210 016f 3A       		.uleb128 0x3a
 7211 0170 0B       		.uleb128 0xb
 7212 0171 3B       		.uleb128 0x3b
 7213 0172 05       		.uleb128 0x5
 7214 0173 01       		.uleb128 0x1
 7215 0174 13       		.uleb128 0x13
 7216 0175 00       		.byte	0
 7217 0176 00       		.byte	0
 7218 0177 20       		.uleb128 0x20
 7219 0178 17       		.uleb128 0x17
 7220 0179 01       		.byte	0x1
 7221 017a 0B       		.uleb128 0xb
 7222 017b 0B       		.uleb128 0xb
 7223 017c 3A       		.uleb128 0x3a
 7224 017d 0B       		.uleb128 0xb
ARM GAS  C:\Users\EBANO_~1\AppData\Local\Temp\cc8t01eQ.s 			page 167


 7225 017e 3B       		.uleb128 0x3b
 7226 017f 05       		.uleb128 0x5
 7227 0180 01       		.uleb128 0x1
 7228 0181 13       		.uleb128 0x13
 7229 0182 00       		.byte	0
 7230 0183 00       		.byte	0
 7231 0184 21       		.uleb128 0x21
 7232 0185 0D       		.uleb128 0xd
 7233 0186 00       		.byte	0
 7234 0187 03       		.uleb128 0x3
 7235 0188 0E       		.uleb128 0xe
 7236 0189 3A       		.uleb128 0x3a
 7237 018a 0B       		.uleb128 0xb
 7238 018b 3B       		.uleb128 0x3b
 7239 018c 05       		.uleb128 0x5
 7240 018d 49       		.uleb128 0x49
 7241 018e 13       		.uleb128 0x13
 7242 018f 00       		.byte	0
 7243 0190 00       		.byte	0
 7244 0191 22       		.uleb128 0x22
 7245 0192 15       		.uleb128 0x15
 7246 0193 01       		.byte	0x1
 7247 0194 27       		.uleb128 0x27
 7248 0195 0C       		.uleb128 0xc
 7249 0196 01       		.uleb128 0x1
 7250 0197 13       		.uleb128 0x13
 7251 0198 00       		.byte	0
 7252 0199 00       		.byte	0
 7253 019a 23       		.uleb128 0x23
 7254 019b 34       		.uleb128 0x34
 7255 019c 00       		.byte	0
 7256 019d 03       		.uleb128 0x3
 7257 019e 0E       		.uleb128 0xe
 7258 019f 3A       		.uleb128 0x3a
 7259 01a0 0B       		.uleb128 0xb
 7260 01a1 3B       		.uleb128 0x3b
 7261 01a2 05       		.uleb128 0x5
 7262 01a3 49       		.uleb128 0x49
 7263 01a4 13       		.uleb128 0x13
 7264 01a5 3F       		.uleb128 0x3f
 7265 01a6 0C       		.uleb128 0xc
 7266 01a7 3C       		.uleb128 0x3c
 7267 01a8 0C       		.uleb128 0xc
 7268 01a9 00       		.byte	0
 7269 01aa 00       		.byte	0
 7270 01ab 24       		.uleb128 0x24
 7271 01ac 2E       		.uleb128 0x2e
 7272 01ad 01       		.byte	0x1
 7273 01ae 3F       		.uleb128 0x3f
 7274 01af 0C       		.uleb128 0xc
 7275 01b0 03       		.uleb128 0x3
 7276 01b1 0E       		.uleb128 0xe
 7277 01b2 3A       		.uleb128 0x3a
 7278 01b3 0B       		.uleb128 0xb
 7279 01b4 3B       		.uleb128 0x3b
 7280 01b5 05       		.uleb128 0x5
 7281 01b6 27       		.uleb128 0x27
ARM GAS  C:\Users\EBANO_~1\AppData\Local\Temp\cc8t01eQ.s 			page 168


 7282 01b7 0C       		.uleb128 0xc
 7283 01b8 49       		.uleb128 0x49
 7284 01b9 13       		.uleb128 0x13
 7285 01ba 20       		.uleb128 0x20
 7286 01bb 0B       		.uleb128 0xb
 7287 01bc 01       		.uleb128 0x1
 7288 01bd 13       		.uleb128 0x13
 7289 01be 00       		.byte	0
 7290 01bf 00       		.byte	0
 7291 01c0 25       		.uleb128 0x25
 7292 01c1 05       		.uleb128 0x5
 7293 01c2 00       		.byte	0
 7294 01c3 03       		.uleb128 0x3
 7295 01c4 0E       		.uleb128 0xe
 7296 01c5 3A       		.uleb128 0x3a
 7297 01c6 0B       		.uleb128 0xb
 7298 01c7 3B       		.uleb128 0x3b
 7299 01c8 05       		.uleb128 0x5
 7300 01c9 49       		.uleb128 0x49
 7301 01ca 13       		.uleb128 0x13
 7302 01cb 00       		.byte	0
 7303 01cc 00       		.byte	0
 7304 01cd 26       		.uleb128 0x26
 7305 01ce 34       		.uleb128 0x34
 7306 01cf 00       		.byte	0
 7307 01d0 03       		.uleb128 0x3
 7308 01d1 08       		.uleb128 0x8
 7309 01d2 3A       		.uleb128 0x3a
 7310 01d3 0B       		.uleb128 0xb
 7311 01d4 3B       		.uleb128 0x3b
 7312 01d5 05       		.uleb128 0x5
 7313 01d6 49       		.uleb128 0x49
 7314 01d7 13       		.uleb128 0x13
 7315 01d8 00       		.byte	0
 7316 01d9 00       		.byte	0
 7317 01da 27       		.uleb128 0x27
 7318 01db 34       		.uleb128 0x34
 7319 01dc 00       		.byte	0
 7320 01dd 03       		.uleb128 0x3
 7321 01de 0E       		.uleb128 0xe
 7322 01df 3A       		.uleb128 0x3a
 7323 01e0 0B       		.uleb128 0xb
 7324 01e1 3B       		.uleb128 0x3b
 7325 01e2 05       		.uleb128 0x5
 7326 01e3 49       		.uleb128 0x49
 7327 01e4 13       		.uleb128 0x13
 7328 01e5 00       		.byte	0
 7329 01e6 00       		.byte	0
 7330 01e7 28       		.uleb128 0x28
 7331 01e8 2E       		.uleb128 0x2e
 7332 01e9 01       		.byte	0x1
 7333 01ea 3F       		.uleb128 0x3f
 7334 01eb 0C       		.uleb128 0xc
 7335 01ec 03       		.uleb128 0x3
 7336 01ed 0E       		.uleb128 0xe
 7337 01ee 3A       		.uleb128 0x3a
 7338 01ef 0B       		.uleb128 0xb
ARM GAS  C:\Users\EBANO_~1\AppData\Local\Temp\cc8t01eQ.s 			page 169


 7339 01f0 3B       		.uleb128 0x3b
 7340 01f1 05       		.uleb128 0x5
 7341 01f2 27       		.uleb128 0x27
 7342 01f3 0C       		.uleb128 0xc
 7343 01f4 49       		.uleb128 0x49
 7344 01f5 13       		.uleb128 0x13
 7345 01f6 11       		.uleb128 0x11
 7346 01f7 01       		.uleb128 0x1
 7347 01f8 12       		.uleb128 0x12
 7348 01f9 01       		.uleb128 0x1
 7349 01fa 40       		.uleb128 0x40
 7350 01fb 0A       		.uleb128 0xa
 7351 01fc 9742     		.uleb128 0x2117
 7352 01fe 0C       		.uleb128 0xc
 7353 01ff 01       		.uleb128 0x1
 7354 0200 13       		.uleb128 0x13
 7355 0201 00       		.byte	0
 7356 0202 00       		.byte	0
 7357 0203 29       		.uleb128 0x29
 7358 0204 05       		.uleb128 0x5
 7359 0205 00       		.byte	0
 7360 0206 03       		.uleb128 0x3
 7361 0207 0E       		.uleb128 0xe
 7362 0208 3A       		.uleb128 0x3a
 7363 0209 0B       		.uleb128 0xb
 7364 020a 3B       		.uleb128 0x3b
 7365 020b 05       		.uleb128 0x5
 7366 020c 49       		.uleb128 0x49
 7367 020d 13       		.uleb128 0x13
 7368 020e 02       		.uleb128 0x2
 7369 020f 06       		.uleb128 0x6
 7370 0210 00       		.byte	0
 7371 0211 00       		.byte	0
 7372 0212 2A       		.uleb128 0x2a
 7373 0213 2E       		.uleb128 0x2e
 7374 0214 01       		.byte	0x1
 7375 0215 3F       		.uleb128 0x3f
 7376 0216 0C       		.uleb128 0xc
 7377 0217 03       		.uleb128 0x3
 7378 0218 0E       		.uleb128 0xe
 7379 0219 3A       		.uleb128 0x3a
 7380 021a 0B       		.uleb128 0xb
 7381 021b 3B       		.uleb128 0x3b
 7382 021c 05       		.uleb128 0x5
 7383 021d 27       		.uleb128 0x27
 7384 021e 0C       		.uleb128 0xc
 7385 021f 49       		.uleb128 0x49
 7386 0220 13       		.uleb128 0x13
 7387 0221 11       		.uleb128 0x11
 7388 0222 01       		.uleb128 0x1
 7389 0223 12       		.uleb128 0x12
 7390 0224 01       		.uleb128 0x1
 7391 0225 40       		.uleb128 0x40
 7392 0226 06       		.uleb128 0x6
 7393 0227 9742     		.uleb128 0x2117
 7394 0229 0C       		.uleb128 0xc
 7395 022a 01       		.uleb128 0x1
ARM GAS  C:\Users\EBANO_~1\AppData\Local\Temp\cc8t01eQ.s 			page 170


 7396 022b 13       		.uleb128 0x13
 7397 022c 00       		.byte	0
 7398 022d 00       		.byte	0
 7399 022e 2B       		.uleb128 0x2b
 7400 022f 34       		.uleb128 0x34
 7401 0230 00       		.byte	0
 7402 0231 03       		.uleb128 0x3
 7403 0232 0E       		.uleb128 0xe
 7404 0233 3A       		.uleb128 0x3a
 7405 0234 0B       		.uleb128 0xb
 7406 0235 3B       		.uleb128 0x3b
 7407 0236 05       		.uleb128 0x5
 7408 0237 49       		.uleb128 0x49
 7409 0238 13       		.uleb128 0x13
 7410 0239 02       		.uleb128 0x2
 7411 023a 06       		.uleb128 0x6
 7412 023b 00       		.byte	0
 7413 023c 00       		.byte	0
 7414 023d 2C       		.uleb128 0x2c
 7415 023e 898201   		.uleb128 0x4109
 7416 0241 00       		.byte	0
 7417 0242 11       		.uleb128 0x11
 7418 0243 01       		.uleb128 0x1
 7419 0244 31       		.uleb128 0x31
 7420 0245 13       		.uleb128 0x13
 7421 0246 00       		.byte	0
 7422 0247 00       		.byte	0
 7423 0248 2D       		.uleb128 0x2d
 7424 0249 2E       		.uleb128 0x2e
 7425 024a 01       		.byte	0x1
 7426 024b 3F       		.uleb128 0x3f
 7427 024c 0C       		.uleb128 0xc
 7428 024d 03       		.uleb128 0x3
 7429 024e 0E       		.uleb128 0xe
 7430 024f 3A       		.uleb128 0x3a
 7431 0250 0B       		.uleb128 0xb
 7432 0251 3B       		.uleb128 0x3b
 7433 0252 05       		.uleb128 0x5
 7434 0253 27       		.uleb128 0x27
 7435 0254 0C       		.uleb128 0xc
 7436 0255 01       		.uleb128 0x1
 7437 0256 13       		.uleb128 0x13
 7438 0257 00       		.byte	0
 7439 0258 00       		.byte	0
 7440 0259 2E       		.uleb128 0x2e
 7441 025a 2E       		.uleb128 0x2e
 7442 025b 01       		.byte	0x1
 7443 025c 3F       		.uleb128 0x3f
 7444 025d 0C       		.uleb128 0xc
 7445 025e 03       		.uleb128 0x3
 7446 025f 0E       		.uleb128 0xe
 7447 0260 3A       		.uleb128 0x3a
 7448 0261 0B       		.uleb128 0xb
 7449 0262 3B       		.uleb128 0x3b
 7450 0263 05       		.uleb128 0x5
 7451 0264 27       		.uleb128 0x27
 7452 0265 0C       		.uleb128 0xc
ARM GAS  C:\Users\EBANO_~1\AppData\Local\Temp\cc8t01eQ.s 			page 171


 7453 0266 11       		.uleb128 0x11
 7454 0267 01       		.uleb128 0x1
 7455 0268 12       		.uleb128 0x12
 7456 0269 01       		.uleb128 0x1
 7457 026a 40       		.uleb128 0x40
 7458 026b 06       		.uleb128 0x6
 7459 026c 9742     		.uleb128 0x2117
 7460 026e 0C       		.uleb128 0xc
 7461 026f 01       		.uleb128 0x1
 7462 0270 13       		.uleb128 0x13
 7463 0271 00       		.byte	0
 7464 0272 00       		.byte	0
 7465 0273 2F       		.uleb128 0x2f
 7466 0274 898201   		.uleb128 0x4109
 7467 0277 01       		.byte	0x1
 7468 0278 11       		.uleb128 0x11
 7469 0279 01       		.uleb128 0x1
 7470 027a 31       		.uleb128 0x31
 7471 027b 13       		.uleb128 0x13
 7472 027c 01       		.uleb128 0x1
 7473 027d 13       		.uleb128 0x13
 7474 027e 00       		.byte	0
 7475 027f 00       		.byte	0
 7476 0280 30       		.uleb128 0x30
 7477 0281 8A8201   		.uleb128 0x410a
 7478 0284 00       		.byte	0
 7479 0285 02       		.uleb128 0x2
 7480 0286 0A       		.uleb128 0xa
 7481 0287 9142     		.uleb128 0x2111
 7482 0289 0A       		.uleb128 0xa
 7483 028a 00       		.byte	0
 7484 028b 00       		.byte	0
 7485 028c 31       		.uleb128 0x31
 7486 028d 05       		.uleb128 0x5
 7487 028e 00       		.byte	0
 7488 028f 03       		.uleb128 0x3
 7489 0290 0E       		.uleb128 0xe
 7490 0291 3A       		.uleb128 0x3a
 7491 0292 0B       		.uleb128 0xb
 7492 0293 3B       		.uleb128 0x3b
 7493 0294 05       		.uleb128 0x5
 7494 0295 49       		.uleb128 0x49
 7495 0296 13       		.uleb128 0x13
 7496 0297 02       		.uleb128 0x2
 7497 0298 0A       		.uleb128 0xa
 7498 0299 00       		.byte	0
 7499 029a 00       		.byte	0
 7500 029b 32       		.uleb128 0x32
 7501 029c 1D       		.uleb128 0x1d
 7502 029d 01       		.byte	0x1
 7503 029e 31       		.uleb128 0x31
 7504 029f 13       		.uleb128 0x13
 7505 02a0 11       		.uleb128 0x11
 7506 02a1 01       		.uleb128 0x1
 7507 02a2 12       		.uleb128 0x12
 7508 02a3 01       		.uleb128 0x1
 7509 02a4 58       		.uleb128 0x58
ARM GAS  C:\Users\EBANO_~1\AppData\Local\Temp\cc8t01eQ.s 			page 172


 7510 02a5 0B       		.uleb128 0xb
 7511 02a6 59       		.uleb128 0x59
 7512 02a7 05       		.uleb128 0x5
 7513 02a8 01       		.uleb128 0x1
 7514 02a9 13       		.uleb128 0x13
 7515 02aa 00       		.byte	0
 7516 02ab 00       		.byte	0
 7517 02ac 33       		.uleb128 0x33
 7518 02ad 05       		.uleb128 0x5
 7519 02ae 00       		.byte	0
 7520 02af 31       		.uleb128 0x31
 7521 02b0 13       		.uleb128 0x13
 7522 02b1 00       		.byte	0
 7523 02b2 00       		.byte	0
 7524 02b3 34       		.uleb128 0x34
 7525 02b4 0B       		.uleb128 0xb
 7526 02b5 01       		.byte	0x1
 7527 02b6 11       		.uleb128 0x11
 7528 02b7 01       		.uleb128 0x1
 7529 02b8 12       		.uleb128 0x12
 7530 02b9 01       		.uleb128 0x1
 7531 02ba 00       		.byte	0
 7532 02bb 00       		.byte	0
 7533 02bc 35       		.uleb128 0x35
 7534 02bd 34       		.uleb128 0x34
 7535 02be 00       		.byte	0
 7536 02bf 31       		.uleb128 0x31
 7537 02c0 13       		.uleb128 0x13
 7538 02c1 00       		.byte	0
 7539 02c2 00       		.byte	0
 7540 02c3 36       		.uleb128 0x36
 7541 02c4 1D       		.uleb128 0x1d
 7542 02c5 01       		.byte	0x1
 7543 02c6 31       		.uleb128 0x31
 7544 02c7 13       		.uleb128 0x13
 7545 02c8 52       		.uleb128 0x52
 7546 02c9 01       		.uleb128 0x1
 7547 02ca 55       		.uleb128 0x55
 7548 02cb 06       		.uleb128 0x6
 7549 02cc 58       		.uleb128 0x58
 7550 02cd 0B       		.uleb128 0xb
 7551 02ce 59       		.uleb128 0x59
 7552 02cf 05       		.uleb128 0x5
 7553 02d0 01       		.uleb128 0x1
 7554 02d1 13       		.uleb128 0x13
 7555 02d2 00       		.byte	0
 7556 02d3 00       		.byte	0
 7557 02d4 37       		.uleb128 0x37
 7558 02d5 0B       		.uleb128 0xb
 7559 02d6 01       		.byte	0x1
 7560 02d7 55       		.uleb128 0x55
 7561 02d8 06       		.uleb128 0x6
 7562 02d9 00       		.byte	0
 7563 02da 00       		.byte	0
 7564 02db 38       		.uleb128 0x38
 7565 02dc 1D       		.uleb128 0x1d
 7566 02dd 01       		.byte	0x1
ARM GAS  C:\Users\EBANO_~1\AppData\Local\Temp\cc8t01eQ.s 			page 173


 7567 02de 31       		.uleb128 0x31
 7568 02df 13       		.uleb128 0x13
 7569 02e0 11       		.uleb128 0x11
 7570 02e1 01       		.uleb128 0x1
 7571 02e2 12       		.uleb128 0x12
 7572 02e3 01       		.uleb128 0x1
 7573 02e4 58       		.uleb128 0x58
 7574 02e5 0B       		.uleb128 0xb
 7575 02e6 59       		.uleb128 0x59
 7576 02e7 05       		.uleb128 0x5
 7577 02e8 00       		.byte	0
 7578 02e9 00       		.byte	0
 7579 02ea 39       		.uleb128 0x39
 7580 02eb 05       		.uleb128 0x5
 7581 02ec 00       		.byte	0
 7582 02ed 31       		.uleb128 0x31
 7583 02ee 13       		.uleb128 0x13
 7584 02ef 02       		.uleb128 0x2
 7585 02f0 06       		.uleb128 0x6
 7586 02f1 00       		.byte	0
 7587 02f2 00       		.byte	0
 7588 02f3 3A       		.uleb128 0x3a
 7589 02f4 34       		.uleb128 0x34
 7590 02f5 00       		.byte	0
 7591 02f6 31       		.uleb128 0x31
 7592 02f7 13       		.uleb128 0x13
 7593 02f8 02       		.uleb128 0x2
 7594 02f9 06       		.uleb128 0x6
 7595 02fa 00       		.byte	0
 7596 02fb 00       		.byte	0
 7597 02fc 3B       		.uleb128 0x3b
 7598 02fd 1D       		.uleb128 0x1d
 7599 02fe 01       		.byte	0x1
 7600 02ff 31       		.uleb128 0x31
 7601 0300 13       		.uleb128 0x13
 7602 0301 52       		.uleb128 0x52
 7603 0302 01       		.uleb128 0x1
 7604 0303 55       		.uleb128 0x55
 7605 0304 06       		.uleb128 0x6
 7606 0305 58       		.uleb128 0x58
 7607 0306 0B       		.uleb128 0xb
 7608 0307 59       		.uleb128 0x59
 7609 0308 05       		.uleb128 0x5
 7610 0309 00       		.byte	0
 7611 030a 00       		.byte	0
 7612 030b 3C       		.uleb128 0x3c
 7613 030c 2E       		.uleb128 0x2e
 7614 030d 01       		.byte	0x1
 7615 030e 3F       		.uleb128 0x3f
 7616 030f 0C       		.uleb128 0xc
 7617 0310 03       		.uleb128 0x3
 7618 0311 0E       		.uleb128 0xe
 7619 0312 3A       		.uleb128 0x3a
 7620 0313 0B       		.uleb128 0xb
 7621 0314 3B       		.uleb128 0x3b
 7622 0315 05       		.uleb128 0x5
 7623 0316 27       		.uleb128 0x27
ARM GAS  C:\Users\EBANO_~1\AppData\Local\Temp\cc8t01eQ.s 			page 174


 7624 0317 0C       		.uleb128 0xc
 7625 0318 20       		.uleb128 0x20
 7626 0319 0B       		.uleb128 0xb
 7627 031a 01       		.uleb128 0x1
 7628 031b 13       		.uleb128 0x13
 7629 031c 00       		.byte	0
 7630 031d 00       		.byte	0
 7631 031e 3D       		.uleb128 0x3d
 7632 031f 2E       		.uleb128 0x2e
 7633 0320 01       		.byte	0x1
 7634 0321 3F       		.uleb128 0x3f
 7635 0322 0C       		.uleb128 0xc
 7636 0323 03       		.uleb128 0x3
 7637 0324 0E       		.uleb128 0xe
 7638 0325 3A       		.uleb128 0x3a
 7639 0326 0B       		.uleb128 0xb
 7640 0327 3B       		.uleb128 0x3b
 7641 0328 0B       		.uleb128 0xb
 7642 0329 27       		.uleb128 0x27
 7643 032a 0C       		.uleb128 0xc
 7644 032b 49       		.uleb128 0x49
 7645 032c 13       		.uleb128 0x13
 7646 032d 11       		.uleb128 0x11
 7647 032e 01       		.uleb128 0x1
 7648 032f 12       		.uleb128 0x12
 7649 0330 01       		.uleb128 0x1
 7650 0331 40       		.uleb128 0x40
 7651 0332 06       		.uleb128 0x6
 7652 0333 9742     		.uleb128 0x2117
 7653 0335 0C       		.uleb128 0xc
 7654 0336 01       		.uleb128 0x1
 7655 0337 13       		.uleb128 0x13
 7656 0338 00       		.byte	0
 7657 0339 00       		.byte	0
 7658 033a 3E       		.uleb128 0x3e
 7659 033b 05       		.uleb128 0x5
 7660 033c 00       		.byte	0
 7661 033d 03       		.uleb128 0x3
 7662 033e 0E       		.uleb128 0xe
 7663 033f 3A       		.uleb128 0x3a
 7664 0340 0B       		.uleb128 0xb
 7665 0341 3B       		.uleb128 0x3b
 7666 0342 0B       		.uleb128 0xb
 7667 0343 49       		.uleb128 0x49
 7668 0344 13       		.uleb128 0x13
 7669 0345 02       		.uleb128 0x2
 7670 0346 06       		.uleb128 0x6
 7671 0347 00       		.byte	0
 7672 0348 00       		.byte	0
 7673 0349 3F       		.uleb128 0x3f
 7674 034a 34       		.uleb128 0x34
 7675 034b 00       		.byte	0
 7676 034c 03       		.uleb128 0x3
 7677 034d 0E       		.uleb128 0xe
 7678 034e 3A       		.uleb128 0x3a
 7679 034f 0B       		.uleb128 0xb
 7680 0350 3B       		.uleb128 0x3b
ARM GAS  C:\Users\EBANO_~1\AppData\Local\Temp\cc8t01eQ.s 			page 175


 7681 0351 0B       		.uleb128 0xb
 7682 0352 49       		.uleb128 0x49
 7683 0353 13       		.uleb128 0x13
 7684 0354 02       		.uleb128 0x2
 7685 0355 06       		.uleb128 0x6
 7686 0356 00       		.byte	0
 7687 0357 00       		.byte	0
 7688 0358 40       		.uleb128 0x40
 7689 0359 898201   		.uleb128 0x4109
 7690 035c 01       		.byte	0x1
 7691 035d 11       		.uleb128 0x11
 7692 035e 01       		.uleb128 0x1
 7693 035f 31       		.uleb128 0x31
 7694 0360 13       		.uleb128 0x13
 7695 0361 00       		.byte	0
 7696 0362 00       		.byte	0
 7697 0363 41       		.uleb128 0x41
 7698 0364 1D       		.uleb128 0x1d
 7699 0365 01       		.byte	0x1
 7700 0366 31       		.uleb128 0x31
 7701 0367 13       		.uleb128 0x13
 7702 0368 52       		.uleb128 0x52
 7703 0369 01       		.uleb128 0x1
 7704 036a 55       		.uleb128 0x55
 7705 036b 06       		.uleb128 0x6
 7706 036c 58       		.uleb128 0x58
 7707 036d 0B       		.uleb128 0xb
 7708 036e 59       		.uleb128 0x59
 7709 036f 0B       		.uleb128 0xb
 7710 0370 01       		.uleb128 0x1
 7711 0371 13       		.uleb128 0x13
 7712 0372 00       		.byte	0
 7713 0373 00       		.byte	0
 7714 0374 42       		.uleb128 0x42
 7715 0375 2E       		.uleb128 0x2e
 7716 0376 01       		.byte	0x1
 7717 0377 31       		.uleb128 0x31
 7718 0378 13       		.uleb128 0x13
 7719 0379 11       		.uleb128 0x11
 7720 037a 01       		.uleb128 0x1
 7721 037b 12       		.uleb128 0x12
 7722 037c 01       		.uleb128 0x1
 7723 037d 40       		.uleb128 0x40
 7724 037e 0A       		.uleb128 0xa
 7725 037f 9742     		.uleb128 0x2117
 7726 0381 0C       		.uleb128 0xc
 7727 0382 01       		.uleb128 0x1
 7728 0383 13       		.uleb128 0x13
 7729 0384 00       		.byte	0
 7730 0385 00       		.byte	0
 7731 0386 43       		.uleb128 0x43
 7732 0387 05       		.uleb128 0x5
 7733 0388 00       		.byte	0
 7734 0389 31       		.uleb128 0x31
 7735 038a 13       		.uleb128 0x13
 7736 038b 02       		.uleb128 0x2
 7737 038c 0A       		.uleb128 0xa
ARM GAS  C:\Users\EBANO_~1\AppData\Local\Temp\cc8t01eQ.s 			page 176


 7738 038d 00       		.byte	0
 7739 038e 00       		.byte	0
 7740 038f 44       		.uleb128 0x44
 7741 0390 2E       		.uleb128 0x2e
 7742 0391 01       		.byte	0x1
 7743 0392 31       		.uleb128 0x31
 7744 0393 13       		.uleb128 0x13
 7745 0394 11       		.uleb128 0x11
 7746 0395 01       		.uleb128 0x1
 7747 0396 12       		.uleb128 0x12
 7748 0397 01       		.uleb128 0x1
 7749 0398 40       		.uleb128 0x40
 7750 0399 06       		.uleb128 0x6
 7751 039a 9742     		.uleb128 0x2117
 7752 039c 0C       		.uleb128 0xc
 7753 039d 01       		.uleb128 0x1
 7754 039e 13       		.uleb128 0x13
 7755 039f 00       		.byte	0
 7756 03a0 00       		.byte	0
 7757 03a1 45       		.uleb128 0x45
 7758 03a2 2E       		.uleb128 0x2e
 7759 03a3 00       		.byte	0
 7760 03a4 3F       		.uleb128 0x3f
 7761 03a5 0C       		.uleb128 0xc
 7762 03a6 3C       		.uleb128 0x3c
 7763 03a7 0C       		.uleb128 0xc
 7764 03a8 8740     		.uleb128 0x2007
 7765 03aa 0E       		.uleb128 0xe
 7766 03ab 03       		.uleb128 0x3
 7767 03ac 0E       		.uleb128 0xe
 7768 03ad 3A       		.uleb128 0x3a
 7769 03ae 0B       		.uleb128 0xb
 7770 03af 3B       		.uleb128 0x3b
 7771 03b0 05       		.uleb128 0x5
 7772 03b1 00       		.byte	0
 7773 03b2 00       		.byte	0
 7774 03b3 00       		.byte	0
 7775              		.section	.debug_loc,"",%progbits
 7776              	.Ldebug_loc0:
 7777              	.LLST98:
 7778 0000 00000000 		.4byte	.LVL295
 7779 0004 04000000 		.4byte	.LVL296
 7780 0008 0100     		.2byte	0x1
 7781 000a 50       		.byte	0x50
 7782 000b 04000000 		.4byte	.LVL296
 7783 000f 08000000 		.4byte	.LFE55
 7784 0013 0400     		.2byte	0x4
 7785 0015 F3       		.byte	0xf3
 7786 0016 01       		.uleb128 0x1
 7787 0017 50       		.byte	0x50
 7788 0018 9F       		.byte	0x9f
 7789 0019 00000000 		.4byte	0
 7790 001d 00000000 		.4byte	0
 7791              	.LLST91:
 7792 0021 00000000 		.4byte	.LFB53
 7793 0025 02000000 		.4byte	.LCFI17
 7794 0029 0200     		.2byte	0x2
ARM GAS  C:\Users\EBANO_~1\AppData\Local\Temp\cc8t01eQ.s 			page 177


 7795 002b 7D       		.byte	0x7d
 7796 002c 00       		.sleb128 0
 7797 002d 02000000 		.4byte	.LCFI17
 7798 0031 58000000 		.4byte	.LFE53
 7799 0035 0200     		.2byte	0x2
 7800 0037 7D       		.byte	0x7d
 7801 0038 18       		.sleb128 24
 7802 0039 00000000 		.4byte	0
 7803 003d 00000000 		.4byte	0
 7804              	.LLST92:
 7805 0041 00000000 		.4byte	.LVL278
 7806 0045 09000000 		.4byte	.LVL279-1
 7807 0049 0100     		.2byte	0x1
 7808 004b 50       		.byte	0x50
 7809 004c 09000000 		.4byte	.LVL279-1
 7810 0050 34000000 		.4byte	.LVL283
 7811 0054 0100     		.2byte	0x1
 7812 0056 55       		.byte	0x55
 7813 0057 34000000 		.4byte	.LVL283
 7814 005b 36000000 		.4byte	.LVL285
 7815 005f 0400     		.2byte	0x4
 7816 0061 F3       		.byte	0xf3
 7817 0062 01       		.uleb128 0x1
 7818 0063 50       		.byte	0x50
 7819 0064 9F       		.byte	0x9f
 7820 0065 36000000 		.4byte	.LVL285
 7821 0069 58000000 		.4byte	.LFE53
 7822 006d 0100     		.2byte	0x1
 7823 006f 55       		.byte	0x55
 7824 0070 00000000 		.4byte	0
 7825 0074 00000000 		.4byte	0
 7826              	.LLST93:
 7827 0078 00000000 		.4byte	.LVL278
 7828 007c 09000000 		.4byte	.LVL279-1
 7829 0080 0100     		.2byte	0x1
 7830 0082 51       		.byte	0x51
 7831 0083 09000000 		.4byte	.LVL279-1
 7832 0087 34000000 		.4byte	.LVL282
 7833 008b 0100     		.2byte	0x1
 7834 008d 54       		.byte	0x54
 7835 008e 34000000 		.4byte	.LVL282
 7836 0092 36000000 		.4byte	.LVL285
 7837 0096 0400     		.2byte	0x4
 7838 0098 F3       		.byte	0xf3
 7839 0099 01       		.uleb128 0x1
 7840 009a 51       		.byte	0x51
 7841 009b 9F       		.byte	0x9f
 7842 009c 36000000 		.4byte	.LVL285
 7843 00a0 58000000 		.4byte	.LFE53
 7844 00a4 0100     		.2byte	0x1
 7845 00a6 54       		.byte	0x54
 7846 00a7 00000000 		.4byte	0
 7847 00ab 00000000 		.4byte	0
 7848              	.LLST94:
 7849 00af 0E000000 		.4byte	.LVL280
 7850 00b3 10000000 		.4byte	.LVL281
 7851 00b7 0100     		.2byte	0x1
ARM GAS  C:\Users\EBANO_~1\AppData\Local\Temp\cc8t01eQ.s 			page 178


 7852 00b9 50       		.byte	0x50
 7853 00ba 10000000 		.4byte	.LVL281
 7854 00be 34000000 		.4byte	.LVL284
 7855 00c2 0100     		.2byte	0x1
 7856 00c4 57       		.byte	0x57
 7857 00c5 36000000 		.4byte	.LVL285
 7858 00c9 58000000 		.4byte	.LFE53
 7859 00cd 0100     		.2byte	0x1
 7860 00cf 57       		.byte	0x57
 7861 00d0 00000000 		.4byte	0
 7862 00d4 00000000 		.4byte	0
 7863              	.LLST89:
 7864 00d8 00000000 		.4byte	.LFB51
 7865 00dc 04000000 		.4byte	.LCFI16
 7866 00e0 0200     		.2byte	0x2
 7867 00e2 7D       		.byte	0x7d
 7868 00e3 00       		.sleb128 0
 7869 00e4 04000000 		.4byte	.LCFI16
 7870 00e8 64000000 		.4byte	.LFE51
 7871 00ec 0200     		.2byte	0x2
 7872 00ee 7D       		.byte	0x7d
 7873 00ef 08       		.sleb128 8
 7874 00f0 00000000 		.4byte	0
 7875 00f4 00000000 		.4byte	0
 7876              	.LLST90:
 7877 00f8 00000000 		.4byte	.LVL271
 7878 00fc 12000000 		.4byte	.LVL272
 7879 0100 0100     		.2byte	0x1
 7880 0102 50       		.byte	0x50
 7881 0103 12000000 		.4byte	.LVL272
 7882 0107 2C000000 		.4byte	.LVL273
 7883 010b 0100     		.2byte	0x1
 7884 010d 54       		.byte	0x54
 7885 010e 2C000000 		.4byte	.LVL273
 7886 0112 2E000000 		.4byte	.LVL274
 7887 0116 0400     		.2byte	0x4
 7888 0118 F3       		.byte	0xf3
 7889 0119 01       		.uleb128 0x1
 7890 011a 50       		.byte	0x50
 7891 011b 9F       		.byte	0x9f
 7892 011c 2E000000 		.4byte	.LVL274
 7893 0120 44000000 		.4byte	.LVL276
 7894 0124 0100     		.2byte	0x1
 7895 0126 54       		.byte	0x54
 7896 0127 44000000 		.4byte	.LVL276
 7897 012b 47000000 		.4byte	.LVL277-1
 7898 012f 0100     		.2byte	0x1
 7899 0131 50       		.byte	0x50
 7900 0132 47000000 		.4byte	.LVL277-1
 7901 0136 64000000 		.4byte	.LFE51
 7902 013a 0100     		.2byte	0x1
 7903 013c 54       		.byte	0x54
 7904 013d 00000000 		.4byte	0
 7905 0141 00000000 		.4byte	0
 7906              	.LLST83:
 7907 0145 00000000 		.4byte	.LFB50
 7908 0149 02000000 		.4byte	.LCFI14
ARM GAS  C:\Users\EBANO_~1\AppData\Local\Temp\cc8t01eQ.s 			page 179


 7909 014d 0200     		.2byte	0x2
 7910 014f 7D       		.byte	0x7d
 7911 0150 00       		.sleb128 0
 7912 0151 02000000 		.4byte	.LCFI14
 7913 0155 0A000000 		.4byte	.LCFI15
 7914 0159 0200     		.2byte	0x2
 7915 015b 7D       		.byte	0x7d
 7916 015c 14       		.sleb128 20
 7917 015d 0A000000 		.4byte	.LCFI15
 7918 0161 C8000000 		.4byte	.LFE50
 7919 0165 0200     		.2byte	0x2
 7920 0167 7D       		.byte	0x7d
 7921 0168 1C       		.sleb128 28
 7922 0169 00000000 		.4byte	0
 7923 016d 00000000 		.4byte	0
 7924              	.LLST84:
 7925 0171 00000000 		.4byte	.LVL256
 7926 0175 0E000000 		.4byte	.LVL257
 7927 0179 0100     		.2byte	0x1
 7928 017b 50       		.byte	0x50
 7929 017c 0E000000 		.4byte	.LVL257
 7930 0180 C8000000 		.4byte	.LFE50
 7931 0184 0400     		.2byte	0x4
 7932 0186 F3       		.byte	0xf3
 7933 0187 01       		.uleb128 0x1
 7934 0188 50       		.byte	0x50
 7935 0189 9F       		.byte	0x9f
 7936 018a 00000000 		.4byte	0
 7937 018e 00000000 		.4byte	0
 7938              	.LLST85:
 7939 0192 00000000 		.4byte	.LVL256
 7940 0196 16000000 		.4byte	.LVL258
 7941 019a 0100     		.2byte	0x1
 7942 019c 52       		.byte	0x52
 7943 019d 16000000 		.4byte	.LVL258
 7944 01a1 AA000000 		.4byte	.LVL266
 7945 01a5 0400     		.2byte	0x4
 7946 01a7 F3       		.byte	0xf3
 7947 01a8 01       		.uleb128 0x1
 7948 01a9 52       		.byte	0x52
 7949 01aa 9F       		.byte	0x9f
 7950 01ab AA000000 		.4byte	.LVL266
 7951 01af C2000000 		.4byte	.LVL270
 7952 01b3 0100     		.2byte	0x1
 7953 01b5 52       		.byte	0x52
 7954 01b6 C2000000 		.4byte	.LVL270
 7955 01ba C8000000 		.4byte	.LFE50
 7956 01be 0200     		.2byte	0x2
 7957 01c0 71       		.byte	0x71
 7958 01c1 24       		.sleb128 36
 7959 01c2 00000000 		.4byte	0
 7960 01c6 00000000 		.4byte	0
 7961              	.LLST86:
 7962 01ca 00000000 		.4byte	.LVL256
 7963 01ce 32000000 		.4byte	.LVL261
 7964 01d2 0100     		.2byte	0x1
 7965 01d4 53       		.byte	0x53
ARM GAS  C:\Users\EBANO_~1\AppData\Local\Temp\cc8t01eQ.s 			page 180


 7966 01d5 32000000 		.4byte	.LVL261
 7967 01d9 64000000 		.4byte	.LVL263
 7968 01dd 0100     		.2byte	0x1
 7969 01df 59       		.byte	0x59
 7970 01e0 64000000 		.4byte	.LVL263
 7971 01e4 68000000 		.4byte	.LVL264
 7972 01e8 0100     		.2byte	0x1
 7973 01ea 53       		.byte	0x53
 7974 01eb 68000000 		.4byte	.LVL264
 7975 01ef A2000000 		.4byte	.LVL265
 7976 01f3 0100     		.2byte	0x1
 7977 01f5 59       		.byte	0x59
 7978 01f6 A2000000 		.4byte	.LVL265
 7979 01fa AA000000 		.4byte	.LVL266
 7980 01fe 0400     		.2byte	0x4
 7981 0200 F3       		.byte	0xf3
 7982 0201 01       		.uleb128 0x1
 7983 0202 53       		.byte	0x53
 7984 0203 9F       		.byte	0x9f
 7985 0204 AA000000 		.4byte	.LVL266
 7986 0208 AC000000 		.4byte	.LVL267
 7987 020c 0100     		.2byte	0x1
 7988 020e 53       		.byte	0x53
 7989 020f AC000000 		.4byte	.LVL267
 7990 0213 C8000000 		.4byte	.LFE50
 7991 0217 0100     		.2byte	0x1
 7992 0219 59       		.byte	0x59
 7993 021a 00000000 		.4byte	0
 7994 021e 00000000 		.4byte	0
 7995              	.LLST87:
 7996 0222 00000000 		.4byte	.LVL256
 7997 0226 22000000 		.4byte	.LVL259
 7998 022a 0200     		.2byte	0x2
 7999 022c 30       		.byte	0x30
 8000 022d 9F       		.byte	0x9f
 8001 022e 22000000 		.4byte	.LVL259
 8002 0232 5E000000 		.4byte	.LVL262
 8003 0236 0100     		.2byte	0x1
 8004 0238 55       		.byte	0x55
 8005 0239 AA000000 		.4byte	.LVL266
 8006 023d B0000000 		.4byte	.LVL268
 8007 0241 0200     		.2byte	0x2
 8008 0243 30       		.byte	0x30
 8009 0244 9F       		.byte	0x9f
 8010 0245 B0000000 		.4byte	.LVL268
 8011 0249 C8000000 		.4byte	.LFE50
 8012 024d 0100     		.2byte	0x1
 8013 024f 55       		.byte	0x55
 8014 0250 00000000 		.4byte	0
 8015 0254 00000000 		.4byte	0
 8016              	.LLST88:
 8017 0258 00000000 		.4byte	.LVL256
 8018 025c 2C000000 		.4byte	.LVL260
 8019 0260 0200     		.2byte	0x2
 8020 0262 30       		.byte	0x30
 8021 0263 9F       		.byte	0x9f
 8022 0264 2C000000 		.4byte	.LVL260
ARM GAS  C:\Users\EBANO_~1\AppData\Local\Temp\cc8t01eQ.s 			page 181


 8023 0268 32000000 		.4byte	.LVL261
 8024 026c 0700     		.2byte	0x7
 8025 026e 77       		.byte	0x77
 8026 026f 00       		.sleb128 0
 8027 0270 0A       		.byte	0xa
 8028 0271 FF7F     		.2byte	0x7fff
 8029 0273 1A       		.byte	0x1a
 8030 0274 9F       		.byte	0x9f
 8031 0275 AA000000 		.4byte	.LVL266
 8032 0279 BA000000 		.4byte	.LVL269
 8033 027d 0200     		.2byte	0x2
 8034 027f 30       		.byte	0x30
 8035 0280 9F       		.byte	0x9f
 8036 0281 BA000000 		.4byte	.LVL269
 8037 0285 C8000000 		.4byte	.LFE50
 8038 0289 0700     		.2byte	0x7
 8039 028b 77       		.byte	0x77
 8040 028c 00       		.sleb128 0
 8041 028d 0A       		.byte	0xa
 8042 028e FF7F     		.2byte	0x7fff
 8043 0290 1A       		.byte	0x1a
 8044 0291 9F       		.byte	0x9f
 8045 0292 00000000 		.4byte	0
 8046 0296 00000000 		.4byte	0
 8047              	.LLST79:
 8048 029a 00000000 		.4byte	.LFB49
 8049 029e 02000000 		.4byte	.LCFI12
 8050 02a2 0200     		.2byte	0x2
 8051 02a4 7D       		.byte	0x7d
 8052 02a5 00       		.sleb128 0
 8053 02a6 02000000 		.4byte	.LCFI12
 8054 02aa 08000000 		.4byte	.LCFI13
 8055 02ae 0200     		.2byte	0x2
 8056 02b0 7D       		.byte	0x7d
 8057 02b1 14       		.sleb128 20
 8058 02b2 08000000 		.4byte	.LCFI13
 8059 02b6 D0000000 		.4byte	.LFE49
 8060 02ba 0200     		.2byte	0x2
 8061 02bc 7D       		.byte	0x7d
 8062 02bd 18       		.sleb128 24
 8063 02be 00000000 		.4byte	0
 8064 02c2 00000000 		.4byte	0
 8065              	.LLST80:
 8066 02c6 00000000 		.4byte	.LVL238
 8067 02ca 41000000 		.4byte	.LVL240-1
 8068 02ce 0100     		.2byte	0x1
 8069 02d0 50       		.byte	0x50
 8070 02d1 41000000 		.4byte	.LVL240-1
 8071 02d5 6E000000 		.4byte	.LVL245
 8072 02d9 0100     		.2byte	0x1
 8073 02db 55       		.byte	0x55
 8074 02dc 6E000000 		.4byte	.LVL245
 8075 02e0 74000000 		.4byte	.LVL246
 8076 02e4 0400     		.2byte	0x4
 8077 02e6 F3       		.byte	0xf3
 8078 02e7 01       		.uleb128 0x1
 8079 02e8 50       		.byte	0x50
ARM GAS  C:\Users\EBANO_~1\AppData\Local\Temp\cc8t01eQ.s 			page 182


 8080 02e9 9F       		.byte	0x9f
 8081 02ea 74000000 		.4byte	.LVL246
 8082 02ee 88000000 		.4byte	.LVL248
 8083 02f2 0100     		.2byte	0x1
 8084 02f4 55       		.byte	0x55
 8085 02f5 88000000 		.4byte	.LVL248
 8086 02f9 9F000000 		.4byte	.LVL250-1
 8087 02fd 0100     		.2byte	0x1
 8088 02ff 50       		.byte	0x50
 8089 0300 9F000000 		.4byte	.LVL250-1
 8090 0304 BC000000 		.4byte	.LVL254
 8091 0308 0100     		.2byte	0x1
 8092 030a 55       		.byte	0x55
 8093 030b BC000000 		.4byte	.LVL254
 8094 030f BE000000 		.4byte	.LVL255
 8095 0313 0100     		.2byte	0x1
 8096 0315 50       		.byte	0x50
 8097 0316 BE000000 		.4byte	.LVL255
 8098 031a D0000000 		.4byte	.LFE49
 8099 031e 0100     		.2byte	0x1
 8100 0320 55       		.byte	0x55
 8101 0321 00000000 		.4byte	0
 8102 0325 00000000 		.4byte	0
 8103              	.LLST81:
 8104 0329 00000000 		.4byte	.LVL238
 8105 032d 2E000000 		.4byte	.LVL239
 8106 0331 0100     		.2byte	0x1
 8107 0333 51       		.byte	0x51
 8108 0334 2E000000 		.4byte	.LVL239
 8109 0338 88000000 		.4byte	.LVL248
 8110 033c 0400     		.2byte	0x4
 8111 033e F3       		.byte	0xf3
 8112 033f 01       		.uleb128 0x1
 8113 0340 51       		.byte	0x51
 8114 0341 9F       		.byte	0x9f
 8115 0342 88000000 		.4byte	.LVL248
 8116 0346 8C000000 		.4byte	.LVL249
 8117 034a 0100     		.2byte	0x1
 8118 034c 51       		.byte	0x51
 8119 034d 8C000000 		.4byte	.LVL249
 8120 0351 BC000000 		.4byte	.LVL254
 8121 0355 0400     		.2byte	0x4
 8122 0357 F3       		.byte	0xf3
 8123 0358 01       		.uleb128 0x1
 8124 0359 51       		.byte	0x51
 8125 035a 9F       		.byte	0x9f
 8126 035b BC000000 		.4byte	.LVL254
 8127 035f D0000000 		.4byte	.LFE49
 8128 0363 0100     		.2byte	0x1
 8129 0365 51       		.byte	0x51
 8130 0366 00000000 		.4byte	0
 8131 036a 00000000 		.4byte	0
 8132              	.LLST82:
 8133 036e 00000000 		.4byte	.LVL238
 8134 0372 46000000 		.4byte	.LVL241
 8135 0376 0200     		.2byte	0x2
 8136 0378 30       		.byte	0x30
ARM GAS  C:\Users\EBANO_~1\AppData\Local\Temp\cc8t01eQ.s 			page 183


 8137 0379 9F       		.byte	0x9f
 8138 037a 46000000 		.4byte	.LVL241
 8139 037e 48000000 		.4byte	.LVL242
 8140 0382 0100     		.2byte	0x1
 8141 0384 50       		.byte	0x50
 8142 0385 48000000 		.4byte	.LVL242
 8143 0389 6E000000 		.4byte	.LVL244
 8144 038d 0100     		.2byte	0x1
 8145 038f 58       		.byte	0x58
 8146 0390 74000000 		.4byte	.LVL246
 8147 0394 78000000 		.4byte	.LVL247
 8148 0398 0100     		.2byte	0x1
 8149 039a 53       		.byte	0x53
 8150 039b 78000000 		.4byte	.LVL247
 8151 039f 88000000 		.4byte	.LVL248
 8152 03a3 0100     		.2byte	0x1
 8153 03a5 58       		.byte	0x58
 8154 03a6 88000000 		.4byte	.LVL248
 8155 03aa A4000000 		.4byte	.LVL251
 8156 03ae 0200     		.2byte	0x2
 8157 03b0 30       		.byte	0x30
 8158 03b1 9F       		.byte	0x9f
 8159 03b2 A4000000 		.4byte	.LVL251
 8160 03b6 A6000000 		.4byte	.LVL252
 8161 03ba 0100     		.2byte	0x1
 8162 03bc 50       		.byte	0x50
 8163 03bd A6000000 		.4byte	.LVL252
 8164 03c1 BC000000 		.4byte	.LVL254
 8165 03c5 0100     		.2byte	0x1
 8166 03c7 58       		.byte	0x58
 8167 03c8 BC000000 		.4byte	.LVL254
 8168 03cc D0000000 		.4byte	.LFE49
 8169 03d0 0200     		.2byte	0x2
 8170 03d2 30       		.byte	0x30
 8171 03d3 9F       		.byte	0x9f
 8172 03d4 00000000 		.4byte	0
 8173 03d8 00000000 		.4byte	0
 8174              	.LLST64:
 8175 03dc 00000000 		.4byte	.LFB48
 8176 03e0 02000000 		.4byte	.LCFI10
 8177 03e4 0200     		.2byte	0x2
 8178 03e6 7D       		.byte	0x7d
 8179 03e7 00       		.sleb128 0
 8180 03e8 02000000 		.4byte	.LCFI10
 8181 03ec 0C000000 		.4byte	.LCFI11
 8182 03f0 0200     		.2byte	0x2
 8183 03f2 7D       		.byte	0x7d
 8184 03f3 14       		.sleb128 20
 8185 03f4 0C000000 		.4byte	.LCFI11
 8186 03f8 18020000 		.4byte	.LFE48
 8187 03fc 0200     		.2byte	0x2
 8188 03fe 7D       		.byte	0x7d
 8189 03ff 20       		.sleb128 32
 8190 0400 00000000 		.4byte	0
 8191 0404 00000000 		.4byte	0
 8192              	.LLST65:
 8193 0408 00000000 		.4byte	.LVL188
ARM GAS  C:\Users\EBANO_~1\AppData\Local\Temp\cc8t01eQ.s 			page 184


 8194 040c 10000000 		.4byte	.LVL189
 8195 0410 0100     		.2byte	0x1
 8196 0412 50       		.byte	0x50
 8197 0413 10000000 		.4byte	.LVL189
 8198 0417 E8000000 		.4byte	.LVL200
 8199 041b 0100     		.2byte	0x1
 8200 041d 55       		.byte	0x55
 8201 041e E8000000 		.4byte	.LVL200
 8202 0422 F2000000 		.4byte	.LVL201
 8203 0426 0400     		.2byte	0x4
 8204 0428 F3       		.byte	0xf3
 8205 0429 01       		.uleb128 0x1
 8206 042a 50       		.byte	0x50
 8207 042b 9F       		.byte	0x9f
 8208 042c F2000000 		.4byte	.LVL201
 8209 0430 18020000 		.4byte	.LFE48
 8210 0434 0100     		.2byte	0x1
 8211 0436 55       		.byte	0x55
 8212 0437 00000000 		.4byte	0
 8213 043b 00000000 		.4byte	0
 8214              	.LLST66:
 8215 043f 00000000 		.4byte	.LVL188
 8216 0443 8B000000 		.4byte	.LVL195-1
 8217 0447 0100     		.2byte	0x1
 8218 0449 51       		.byte	0x51
 8219 044a 8B000000 		.4byte	.LVL195-1
 8220 044e F2000000 		.4byte	.LVL201
 8221 0452 0400     		.2byte	0x4
 8222 0454 F3       		.byte	0xf3
 8223 0455 01       		.uleb128 0x1
 8224 0456 51       		.byte	0x51
 8225 0457 9F       		.byte	0x9f
 8226 0458 F2000000 		.4byte	.LVL201
 8227 045c 88010000 		.4byte	.LVL227
 8228 0460 0100     		.2byte	0x1
 8229 0462 51       		.byte	0x51
 8230 0463 88010000 		.4byte	.LVL227
 8231 0467 9C010000 		.4byte	.LVL229
 8232 046b 0400     		.2byte	0x4
 8233 046d F3       		.byte	0xf3
 8234 046e 01       		.uleb128 0x1
 8235 046f 51       		.byte	0x51
 8236 0470 9F       		.byte	0x9f
 8237 0471 9C010000 		.4byte	.LVL229
 8238 0475 B7010000 		.4byte	.LVL230-1
 8239 0479 0100     		.2byte	0x1
 8240 047b 51       		.byte	0x51
 8241 047c B7010000 		.4byte	.LVL230-1
 8242 0480 F0010000 		.4byte	.LVL234
 8243 0484 0400     		.2byte	0x4
 8244 0486 F3       		.byte	0xf3
 8245 0487 01       		.uleb128 0x1
 8246 0488 51       		.byte	0x51
 8247 0489 9F       		.byte	0x9f
 8248 048a F0010000 		.4byte	.LVL234
 8249 048e 18020000 		.4byte	.LFE48
 8250 0492 0100     		.2byte	0x1
ARM GAS  C:\Users\EBANO_~1\AppData\Local\Temp\cc8t01eQ.s 			page 185


 8251 0494 51       		.byte	0x51
 8252 0495 00000000 		.4byte	0
 8253 0499 00000000 		.4byte	0
 8254              	.LLST67:
 8255 049d 00000000 		.4byte	.LVL188
 8256 04a1 36000000 		.4byte	.LVL191
 8257 04a5 0100     		.2byte	0x1
 8258 04a7 52       		.byte	0x52
 8259 04a8 36000000 		.4byte	.LVL191
 8260 04ac F2000000 		.4byte	.LVL201
 8261 04b0 0400     		.2byte	0x4
 8262 04b2 F3       		.byte	0xf3
 8263 04b3 01       		.uleb128 0x1
 8264 04b4 52       		.byte	0x52
 8265 04b5 9F       		.byte	0x9f
 8266 04b6 F2000000 		.4byte	.LVL201
 8267 04ba 5E010000 		.4byte	.LVL221
 8268 04be 0100     		.2byte	0x1
 8269 04c0 52       		.byte	0x52
 8270 04c1 5E010000 		.4byte	.LVL221
 8271 04c5 F0010000 		.4byte	.LVL234
 8272 04c9 0400     		.2byte	0x4
 8273 04cb F3       		.byte	0xf3
 8274 04cc 01       		.uleb128 0x1
 8275 04cd 52       		.byte	0x52
 8276 04ce 9F       		.byte	0x9f
 8277 04cf F0010000 		.4byte	.LVL234
 8278 04d3 FE010000 		.4byte	.LVL236
 8279 04d7 0100     		.2byte	0x1
 8280 04d9 52       		.byte	0x52
 8281 04da FE010000 		.4byte	.LVL236
 8282 04de 00020000 		.4byte	.LVL237
 8283 04e2 0400     		.2byte	0x4
 8284 04e4 F3       		.byte	0xf3
 8285 04e5 01       		.uleb128 0x1
 8286 04e6 52       		.byte	0x52
 8287 04e7 9F       		.byte	0x9f
 8288 04e8 00020000 		.4byte	.LVL237
 8289 04ec 18020000 		.4byte	.LFE48
 8290 04f0 0100     		.2byte	0x1
 8291 04f2 52       		.byte	0x52
 8292 04f3 00000000 		.4byte	0
 8293 04f7 00000000 		.4byte	0
 8294              	.LLST68:
 8295 04fb 00000000 		.4byte	.LVL188
 8296 04ff 90000000 		.4byte	.LVL196
 8297 0503 0200     		.2byte	0x2
 8298 0505 30       		.byte	0x30
 8299 0506 9F       		.byte	0x9f
 8300 0507 90000000 		.4byte	.LVL196
 8301 050b 92000000 		.4byte	.LVL197
 8302 050f 0100     		.2byte	0x1
 8303 0511 50       		.byte	0x50
 8304 0512 92000000 		.4byte	.LVL197
 8305 0516 E8000000 		.4byte	.LVL199
 8306 051a 0100     		.2byte	0x1
 8307 051c 59       		.byte	0x59
ARM GAS  C:\Users\EBANO_~1\AppData\Local\Temp\cc8t01eQ.s 			page 186


 8308 051d F2000000 		.4byte	.LVL201
 8309 0521 88010000 		.4byte	.LVL227
 8310 0525 0200     		.2byte	0x2
 8311 0527 30       		.byte	0x30
 8312 0528 9F       		.byte	0x9f
 8313 0529 88010000 		.4byte	.LVL227
 8314 052d 8C010000 		.4byte	.LVL228
 8315 0531 0100     		.2byte	0x1
 8316 0533 53       		.byte	0x53
 8317 0534 8C010000 		.4byte	.LVL228
 8318 0538 9C010000 		.4byte	.LVL229
 8319 053c 0100     		.2byte	0x1
 8320 053e 59       		.byte	0x59
 8321 053f 9C010000 		.4byte	.LVL229
 8322 0543 BC010000 		.4byte	.LVL231
 8323 0547 0200     		.2byte	0x2
 8324 0549 30       		.byte	0x30
 8325 054a 9F       		.byte	0x9f
 8326 054b BC010000 		.4byte	.LVL231
 8327 054f BE010000 		.4byte	.LVL232
 8328 0553 0100     		.2byte	0x1
 8329 0555 50       		.byte	0x50
 8330 0556 BE010000 		.4byte	.LVL232
 8331 055a F0010000 		.4byte	.LVL234
 8332 055e 0100     		.2byte	0x1
 8333 0560 59       		.byte	0x59
 8334 0561 F0010000 		.4byte	.LVL234
 8335 0565 18020000 		.4byte	.LFE48
 8336 0569 0200     		.2byte	0x2
 8337 056b 30       		.byte	0x30
 8338 056c 9F       		.byte	0x9f
 8339 056d 00000000 		.4byte	0
 8340 0571 00000000 		.4byte	0
 8341              	.LLST69:
 8342 0575 00000000 		.4byte	.LVL188
 8343 0579 34000000 		.4byte	.LVL190
 8344 057d 0200     		.2byte	0x2
 8345 057f 30       		.byte	0x30
 8346 0580 9F       		.byte	0x9f
 8347 0581 34000000 		.4byte	.LVL190
 8348 0585 56000000 		.4byte	.LVL192
 8349 0589 1600     		.2byte	0x16
 8350 058b 71       		.byte	0x71
 8351 058c 20       		.sleb128 32
 8352 058d 94       		.byte	0x94
 8353 058e 01       		.byte	0x1
 8354 058f 3F       		.byte	0x3f
 8355 0590 1A       		.byte	0x1a
 8356 0591 71       		.byte	0x71
 8357 0592 20       		.sleb128 32
 8358 0593 94       		.byte	0x94
 8359 0594 01       		.byte	0x1
 8360 0595 34       		.byte	0x34
 8361 0596 25       		.byte	0x25
 8362 0597 08       		.byte	0x8
 8363 0598 FF       		.byte	0xff
 8364 0599 1A       		.byte	0x1a
ARM GAS  C:\Users\EBANO_~1\AppData\Local\Temp\cc8t01eQ.s 			page 187


 8365 059a 3A       		.byte	0x3a
 8366 059b 1E       		.byte	0x1e
 8367 059c 22       		.byte	0x22
 8368 059d 08       		.byte	0x8
 8369 059e FF       		.byte	0xff
 8370 059f 1A       		.byte	0x1a
 8371 05a0 9F       		.byte	0x9f
 8372 05a1 56000000 		.4byte	.LVL192
 8373 05a5 E8000000 		.4byte	.LVL199
 8374 05a9 0100     		.2byte	0x1
 8375 05ab 58       		.byte	0x58
 8376 05ac F2000000 		.4byte	.LVL201
 8377 05b0 86010000 		.4byte	.LVL226
 8378 05b4 0200     		.2byte	0x2
 8379 05b6 30       		.byte	0x30
 8380 05b7 9F       		.byte	0x9f
 8381 05b8 86010000 		.4byte	.LVL226
 8382 05bc 88010000 		.4byte	.LVL227
 8383 05c0 0100     		.2byte	0x1
 8384 05c2 50       		.byte	0x50
 8385 05c3 88010000 		.4byte	.LVL227
 8386 05c7 F0010000 		.4byte	.LVL234
 8387 05cb 0100     		.2byte	0x1
 8388 05cd 58       		.byte	0x58
 8389 05ce F0010000 		.4byte	.LVL234
 8390 05d2 18020000 		.4byte	.LFE48
 8391 05d6 0200     		.2byte	0x2
 8392 05d8 30       		.byte	0x30
 8393 05d9 9F       		.byte	0x9f
 8394 05da 00000000 		.4byte	0
 8395 05de 00000000 		.4byte	0
 8396              	.LLST70:
 8397 05e2 00000000 		.4byte	.LVL188
 8398 05e6 5E000000 		.4byte	.LVL193
 8399 05ea 0200     		.2byte	0x2
 8400 05ec 30       		.byte	0x30
 8401 05ed 9F       		.byte	0x9f
 8402 05ee 5E000000 		.4byte	.LVL193
 8403 05f2 60000000 		.4byte	.LVL194
 8404 05f6 0100     		.2byte	0x1
 8405 05f8 53       		.byte	0x53
 8406 05f9 60000000 		.4byte	.LVL194
 8407 05fd E8000000 		.4byte	.LVL199
 8408 0601 0100     		.2byte	0x1
 8409 0603 5A       		.byte	0x5a
 8410 0604 F2000000 		.4byte	.LVL201
 8411 0608 88010000 		.4byte	.LVL227
 8412 060c 0200     		.2byte	0x2
 8413 060e 30       		.byte	0x30
 8414 060f 9F       		.byte	0x9f
 8415 0610 88010000 		.4byte	.LVL227
 8416 0614 F0010000 		.4byte	.LVL234
 8417 0618 0100     		.2byte	0x1
 8418 061a 5A       		.byte	0x5a
 8419 061b F0010000 		.4byte	.LVL234
 8420 061f 18020000 		.4byte	.LFE48
 8421 0623 0200     		.2byte	0x2
ARM GAS  C:\Users\EBANO_~1\AppData\Local\Temp\cc8t01eQ.s 			page 188


 8422 0625 30       		.byte	0x30
 8423 0626 9F       		.byte	0x9f
 8424 0627 00000000 		.4byte	0
 8425 062b 00000000 		.4byte	0
 8426              	.LLST71:
 8427 062f 02010000 		.4byte	.LVL202
 8428 0633 0C010000 		.4byte	.LVL204
 8429 0637 0100     		.2byte	0x1
 8430 0639 54       		.byte	0x54
 8431 063a 10010000 		.4byte	.LVL205
 8432 063e 18010000 		.4byte	.LVL207
 8433 0642 0100     		.2byte	0x1
 8434 0644 54       		.byte	0x54
 8435 0645 00000000 		.4byte	0
 8436 0649 00000000 		.4byte	0
 8437              	.LLST72:
 8438 064d 02010000 		.4byte	.LVL202
 8439 0651 0A010000 		.4byte	.LVL203
 8440 0655 0200     		.2byte	0x2
 8441 0657 30       		.byte	0x30
 8442 0658 9F       		.byte	0x9f
 8443 0659 0A010000 		.4byte	.LVL203
 8444 065d 16010000 		.4byte	.LVL206
 8445 0661 0100     		.2byte	0x1
 8446 0663 53       		.byte	0x53
 8447 0664 00000000 		.4byte	0
 8448 0668 00000000 		.4byte	0
 8449              	.LLST73:
 8450 066c 1C010000 		.4byte	.LVL208
 8451 0670 28010000 		.4byte	.LVL210
 8452 0674 0100     		.2byte	0x1
 8453 0676 50       		.byte	0x50
 8454 0677 2C010000 		.4byte	.LVL211
 8455 067b 34010000 		.4byte	.LVL213
 8456 067f 0100     		.2byte	0x1
 8457 0681 50       		.byte	0x50
 8458 0682 00000000 		.4byte	0
 8459 0686 00000000 		.4byte	0
 8460              	.LLST74:
 8461 068a 1C010000 		.4byte	.LVL208
 8462 068e 26010000 		.4byte	.LVL209
 8463 0692 0200     		.2byte	0x2
 8464 0694 30       		.byte	0x30
 8465 0695 9F       		.byte	0x9f
 8466 0696 26010000 		.4byte	.LVL209
 8467 069a 32010000 		.4byte	.LVL212
 8468 069e 0100     		.2byte	0x1
 8469 06a0 53       		.byte	0x53
 8470 06a1 00000000 		.4byte	0
 8471 06a5 00000000 		.4byte	0
 8472              	.LLST75:
 8473 06a9 38010000 		.4byte	.LVL214
 8474 06ad 42010000 		.4byte	.LVL216
 8475 06b1 0100     		.2byte	0x1
 8476 06b3 53       		.byte	0x53
 8477 06b4 46010000 		.4byte	.LVL217
 8478 06b8 50010000 		.4byte	.LVL219
ARM GAS  C:\Users\EBANO_~1\AppData\Local\Temp\cc8t01eQ.s 			page 189


 8479 06bc 0100     		.2byte	0x1
 8480 06be 53       		.byte	0x53
 8481 06bf 00020000 		.4byte	.LVL237
 8482 06c3 18020000 		.4byte	.LFE48
 8483 06c7 0100     		.2byte	0x1
 8484 06c9 53       		.byte	0x53
 8485 06ca 00000000 		.4byte	0
 8486 06ce 00000000 		.4byte	0
 8487              	.LLST76:
 8488 06d2 38010000 		.4byte	.LVL214
 8489 06d6 40010000 		.4byte	.LVL215
 8490 06da 0200     		.2byte	0x2
 8491 06dc 30       		.byte	0x30
 8492 06dd 9F       		.byte	0x9f
 8493 06de 40010000 		.4byte	.LVL215
 8494 06e2 4C010000 		.4byte	.LVL218
 8495 06e6 0100     		.2byte	0x1
 8496 06e8 54       		.byte	0x54
 8497 06e9 00020000 		.4byte	.LVL237
 8498 06ed 18020000 		.4byte	.LFE48
 8499 06f1 0200     		.2byte	0x2
 8500 06f3 30       		.byte	0x30
 8501 06f4 9F       		.byte	0x9f
 8502 06f5 00000000 		.4byte	0
 8503 06f9 00000000 		.4byte	0
 8504              	.LLST77:
 8505 06fd 58010000 		.4byte	.LVL220
 8506 0701 60010000 		.4byte	.LVL222
 8507 0705 0100     		.2byte	0x1
 8508 0707 53       		.byte	0x53
 8509 0708 64010000 		.4byte	.LVL223
 8510 070c 6C010000 		.4byte	.LVL225
 8511 0710 0100     		.2byte	0x1
 8512 0712 53       		.byte	0x53
 8513 0713 FC010000 		.4byte	.LVL235
 8514 0717 00020000 		.4byte	.LVL237
 8515 071b 0100     		.2byte	0x1
 8516 071d 53       		.byte	0x53
 8517 071e 00000000 		.4byte	0
 8518 0722 00000000 		.4byte	0
 8519              	.LLST78:
 8520 0726 58010000 		.4byte	.LVL220
 8521 072a 5E010000 		.4byte	.LVL221
 8522 072e 0200     		.2byte	0x2
 8523 0730 30       		.byte	0x30
 8524 0731 9F       		.byte	0x9f
 8525 0732 5E010000 		.4byte	.LVL221
 8526 0736 6A010000 		.4byte	.LVL224
 8527 073a 0100     		.2byte	0x1
 8528 073c 52       		.byte	0x52
 8529 073d FC010000 		.4byte	.LVL235
 8530 0741 00020000 		.4byte	.LVL237
 8531 0745 0200     		.2byte	0x2
 8532 0747 30       		.byte	0x30
 8533 0748 9F       		.byte	0x9f
 8534 0749 00000000 		.4byte	0
 8535 074d 00000000 		.4byte	0
ARM GAS  C:\Users\EBANO_~1\AppData\Local\Temp\cc8t01eQ.s 			page 190


 8536              	.LLST49:
 8537 0751 00000000 		.4byte	.LFB47
 8538 0755 02000000 		.4byte	.LCFI8
 8539 0759 0200     		.2byte	0x2
 8540 075b 7D       		.byte	0x7d
 8541 075c 00       		.sleb128 0
 8542 075d 02000000 		.4byte	.LCFI8
 8543 0761 0C000000 		.4byte	.LCFI9
 8544 0765 0200     		.2byte	0x2
 8545 0767 7D       		.byte	0x7d
 8546 0768 14       		.sleb128 20
 8547 0769 0C000000 		.4byte	.LCFI9
 8548 076d E4010000 		.4byte	.LFE47
 8549 0771 0200     		.2byte	0x2
 8550 0773 7D       		.byte	0x7d
 8551 0774 20       		.sleb128 32
 8552 0775 00000000 		.4byte	0
 8553 0779 00000000 		.4byte	0
 8554              	.LLST50:
 8555 077d 00000000 		.4byte	.LVL138
 8556 0781 10000000 		.4byte	.LVL139
 8557 0785 0100     		.2byte	0x1
 8558 0787 50       		.byte	0x50
 8559 0788 10000000 		.4byte	.LVL139
 8560 078c C6000000 		.4byte	.LVL150
 8561 0790 0100     		.2byte	0x1
 8562 0792 55       		.byte	0x55
 8563 0793 C6000000 		.4byte	.LVL150
 8564 0797 D0000000 		.4byte	.LVL151
 8565 079b 0400     		.2byte	0x4
 8566 079d F3       		.byte	0xf3
 8567 079e 01       		.uleb128 0x1
 8568 079f 50       		.byte	0x50
 8569 07a0 9F       		.byte	0x9f
 8570 07a1 D0000000 		.4byte	.LVL151
 8571 07a5 E4010000 		.4byte	.LFE47
 8572 07a9 0100     		.2byte	0x1
 8573 07ab 55       		.byte	0x55
 8574 07ac 00000000 		.4byte	0
 8575 07b0 00000000 		.4byte	0
 8576              	.LLST51:
 8577 07b4 00000000 		.4byte	.LVL138
 8578 07b8 87000000 		.4byte	.LVL145-1
 8579 07bc 0100     		.2byte	0x1
 8580 07be 51       		.byte	0x51
 8581 07bf 87000000 		.4byte	.LVL145-1
 8582 07c3 D0000000 		.4byte	.LVL151
 8583 07c7 0400     		.2byte	0x4
 8584 07c9 F3       		.byte	0xf3
 8585 07ca 01       		.uleb128 0x1
 8586 07cb 51       		.byte	0x51
 8587 07cc 9F       		.byte	0x9f
 8588 07cd D0000000 		.4byte	.LVL151
 8589 07d1 66010000 		.4byte	.LVL177
 8590 07d5 0100     		.2byte	0x1
 8591 07d7 51       		.byte	0x51
 8592 07d8 66010000 		.4byte	.LVL177
ARM GAS  C:\Users\EBANO_~1\AppData\Local\Temp\cc8t01eQ.s 			page 191


 8593 07dc 7A010000 		.4byte	.LVL179
 8594 07e0 0400     		.2byte	0x4
 8595 07e2 F3       		.byte	0xf3
 8596 07e3 01       		.uleb128 0x1
 8597 07e4 51       		.byte	0x51
 8598 07e5 9F       		.byte	0x9f
 8599 07e6 7A010000 		.4byte	.LVL179
 8600 07ea 91010000 		.4byte	.LVL180-1
 8601 07ee 0100     		.2byte	0x1
 8602 07f0 51       		.byte	0x51
 8603 07f1 91010000 		.4byte	.LVL180-1
 8604 07f5 C0010000 		.4byte	.LVL184
 8605 07f9 0400     		.2byte	0x4
 8606 07fb F3       		.byte	0xf3
 8607 07fc 01       		.uleb128 0x1
 8608 07fd 51       		.byte	0x51
 8609 07fe 9F       		.byte	0x9f
 8610 07ff C0010000 		.4byte	.LVL184
 8611 0803 E4010000 		.4byte	.LFE47
 8612 0807 0100     		.2byte	0x1
 8613 0809 51       		.byte	0x51
 8614 080a 00000000 		.4byte	0
 8615 080e 00000000 		.4byte	0
 8616              	.LLST52:
 8617 0812 00000000 		.4byte	.LVL138
 8618 0816 36000000 		.4byte	.LVL141
 8619 081a 0100     		.2byte	0x1
 8620 081c 52       		.byte	0x52
 8621 081d 36000000 		.4byte	.LVL141
 8622 0821 D0000000 		.4byte	.LVL151
 8623 0825 0400     		.2byte	0x4
 8624 0827 F3       		.byte	0xf3
 8625 0828 01       		.uleb128 0x1
 8626 0829 52       		.byte	0x52
 8627 082a 9F       		.byte	0x9f
 8628 082b D0000000 		.4byte	.LVL151
 8629 082f 3C010000 		.4byte	.LVL171
 8630 0833 0100     		.2byte	0x1
 8631 0835 52       		.byte	0x52
 8632 0836 3C010000 		.4byte	.LVL171
 8633 083a C0010000 		.4byte	.LVL184
 8634 083e 0400     		.2byte	0x4
 8635 0840 F3       		.byte	0xf3
 8636 0841 01       		.uleb128 0x1
 8637 0842 52       		.byte	0x52
 8638 0843 9F       		.byte	0x9f
 8639 0844 C0010000 		.4byte	.LVL184
 8640 0848 CE010000 		.4byte	.LVL186
 8641 084c 0100     		.2byte	0x1
 8642 084e 52       		.byte	0x52
 8643 084f CE010000 		.4byte	.LVL186
 8644 0853 D0010000 		.4byte	.LVL187
 8645 0857 0400     		.2byte	0x4
 8646 0859 F3       		.byte	0xf3
 8647 085a 01       		.uleb128 0x1
 8648 085b 52       		.byte	0x52
 8649 085c 9F       		.byte	0x9f
ARM GAS  C:\Users\EBANO_~1\AppData\Local\Temp\cc8t01eQ.s 			page 192


 8650 085d D0010000 		.4byte	.LVL187
 8651 0861 E4010000 		.4byte	.LFE47
 8652 0865 0100     		.2byte	0x1
 8653 0867 52       		.byte	0x52
 8654 0868 00000000 		.4byte	0
 8655 086c 00000000 		.4byte	0
 8656              	.LLST53:
 8657 0870 00000000 		.4byte	.LVL138
 8658 0874 8C000000 		.4byte	.LVL146
 8659 0878 0200     		.2byte	0x2
 8660 087a 30       		.byte	0x30
 8661 087b 9F       		.byte	0x9f
 8662 087c 8C000000 		.4byte	.LVL146
 8663 0880 8E000000 		.4byte	.LVL147
 8664 0884 0100     		.2byte	0x1
 8665 0886 50       		.byte	0x50
 8666 0887 8E000000 		.4byte	.LVL147
 8667 088b C6000000 		.4byte	.LVL149
 8668 088f 0100     		.2byte	0x1
 8669 0891 59       		.byte	0x59
 8670 0892 D0000000 		.4byte	.LVL151
 8671 0896 66010000 		.4byte	.LVL177
 8672 089a 0200     		.2byte	0x2
 8673 089c 30       		.byte	0x30
 8674 089d 9F       		.byte	0x9f
 8675 089e 66010000 		.4byte	.LVL177
 8676 08a2 6A010000 		.4byte	.LVL178
 8677 08a6 0100     		.2byte	0x1
 8678 08a8 53       		.byte	0x53
 8679 08a9 6A010000 		.4byte	.LVL178
 8680 08ad 7A010000 		.4byte	.LVL179
 8681 08b1 0100     		.2byte	0x1
 8682 08b3 59       		.byte	0x59
 8683 08b4 7A010000 		.4byte	.LVL179
 8684 08b8 96010000 		.4byte	.LVL181
 8685 08bc 0200     		.2byte	0x2
 8686 08be 30       		.byte	0x30
 8687 08bf 9F       		.byte	0x9f
 8688 08c0 96010000 		.4byte	.LVL181
 8689 08c4 98010000 		.4byte	.LVL182
 8690 08c8 0100     		.2byte	0x1
 8691 08ca 50       		.byte	0x50
 8692 08cb 98010000 		.4byte	.LVL182
 8693 08cf C0010000 		.4byte	.LVL184
 8694 08d3 0100     		.2byte	0x1
 8695 08d5 59       		.byte	0x59
 8696 08d6 C0010000 		.4byte	.LVL184
 8697 08da E4010000 		.4byte	.LFE47
 8698 08de 0200     		.2byte	0x2
 8699 08e0 30       		.byte	0x30
 8700 08e1 9F       		.byte	0x9f
 8701 08e2 00000000 		.4byte	0
 8702 08e6 00000000 		.4byte	0
 8703              	.LLST54:
 8704 08ea 00000000 		.4byte	.LVL138
 8705 08ee 34000000 		.4byte	.LVL140
 8706 08f2 0200     		.2byte	0x2
ARM GAS  C:\Users\EBANO_~1\AppData\Local\Temp\cc8t01eQ.s 			page 193


 8707 08f4 30       		.byte	0x30
 8708 08f5 9F       		.byte	0x9f
 8709 08f6 34000000 		.4byte	.LVL140
 8710 08fa 56000000 		.4byte	.LVL142
 8711 08fe 1600     		.2byte	0x16
 8712 0900 71       		.byte	0x71
 8713 0901 20       		.sleb128 32
 8714 0902 94       		.byte	0x94
 8715 0903 01       		.byte	0x1
 8716 0904 3F       		.byte	0x3f
 8717 0905 1A       		.byte	0x1a
 8718 0906 71       		.byte	0x71
 8719 0907 20       		.sleb128 32
 8720 0908 94       		.byte	0x94
 8721 0909 01       		.byte	0x1
 8722 090a 34       		.byte	0x34
 8723 090b 25       		.byte	0x25
 8724 090c 08       		.byte	0x8
 8725 090d FF       		.byte	0xff
 8726 090e 1A       		.byte	0x1a
 8727 090f 3A       		.byte	0x3a
 8728 0910 1E       		.byte	0x1e
 8729 0911 22       		.byte	0x22
 8730 0912 08       		.byte	0x8
 8731 0913 FF       		.byte	0xff
 8732 0914 1A       		.byte	0x1a
 8733 0915 9F       		.byte	0x9f
 8734 0916 56000000 		.4byte	.LVL142
 8735 091a C6000000 		.4byte	.LVL149
 8736 091e 0100     		.2byte	0x1
 8737 0920 58       		.byte	0x58
 8738 0921 D0000000 		.4byte	.LVL151
 8739 0925 64010000 		.4byte	.LVL176
 8740 0929 0200     		.2byte	0x2
 8741 092b 30       		.byte	0x30
 8742 092c 9F       		.byte	0x9f
 8743 092d 64010000 		.4byte	.LVL176
 8744 0931 66010000 		.4byte	.LVL177
 8745 0935 0100     		.2byte	0x1
 8746 0937 50       		.byte	0x50
 8747 0938 66010000 		.4byte	.LVL177
 8748 093c C0010000 		.4byte	.LVL184
 8749 0940 0100     		.2byte	0x1
 8750 0942 58       		.byte	0x58
 8751 0943 C0010000 		.4byte	.LVL184
 8752 0947 E4010000 		.4byte	.LFE47
 8753 094b 0200     		.2byte	0x2
 8754 094d 30       		.byte	0x30
 8755 094e 9F       		.byte	0x9f
 8756 094f 00000000 		.4byte	0
 8757 0953 00000000 		.4byte	0
 8758              	.LLST55:
 8759 0957 00000000 		.4byte	.LVL138
 8760 095b 5E000000 		.4byte	.LVL143
 8761 095f 0200     		.2byte	0x2
 8762 0961 30       		.byte	0x30
 8763 0962 9F       		.byte	0x9f
ARM GAS  C:\Users\EBANO_~1\AppData\Local\Temp\cc8t01eQ.s 			page 194


 8764 0963 5E000000 		.4byte	.LVL143
 8765 0967 60000000 		.4byte	.LVL144
 8766 096b 0100     		.2byte	0x1
 8767 096d 53       		.byte	0x53
 8768 096e 60000000 		.4byte	.LVL144
 8769 0972 C6000000 		.4byte	.LVL149
 8770 0976 0100     		.2byte	0x1
 8771 0978 5A       		.byte	0x5a
 8772 0979 D0000000 		.4byte	.LVL151
 8773 097d 66010000 		.4byte	.LVL177
 8774 0981 0200     		.2byte	0x2
 8775 0983 30       		.byte	0x30
 8776 0984 9F       		.byte	0x9f
 8777 0985 66010000 		.4byte	.LVL177
 8778 0989 C0010000 		.4byte	.LVL184
 8779 098d 0100     		.2byte	0x1
 8780 098f 5A       		.byte	0x5a
 8781 0990 C0010000 		.4byte	.LVL184
 8782 0994 E4010000 		.4byte	.LFE47
 8783 0998 0200     		.2byte	0x2
 8784 099a 30       		.byte	0x30
 8785 099b 9F       		.byte	0x9f
 8786 099c 00000000 		.4byte	0
 8787 09a0 00000000 		.4byte	0
 8788              	.LLST56:
 8789 09a4 E0000000 		.4byte	.LVL152
 8790 09a8 EA000000 		.4byte	.LVL154
 8791 09ac 0100     		.2byte	0x1
 8792 09ae 54       		.byte	0x54
 8793 09af EE000000 		.4byte	.LVL155
 8794 09b3 F6000000 		.4byte	.LVL157
 8795 09b7 0100     		.2byte	0x1
 8796 09b9 54       		.byte	0x54
 8797 09ba 00000000 		.4byte	0
 8798 09be 00000000 		.4byte	0
 8799              	.LLST57:
 8800 09c2 E0000000 		.4byte	.LVL152
 8801 09c6 E8000000 		.4byte	.LVL153
 8802 09ca 0200     		.2byte	0x2
 8803 09cc 30       		.byte	0x30
 8804 09cd 9F       		.byte	0x9f
 8805 09ce E8000000 		.4byte	.LVL153
 8806 09d2 F4000000 		.4byte	.LVL156
 8807 09d6 0100     		.2byte	0x1
 8808 09d8 53       		.byte	0x53
 8809 09d9 00000000 		.4byte	0
 8810 09dd 00000000 		.4byte	0
 8811              	.LLST58:
 8812 09e1 FA000000 		.4byte	.LVL158
 8813 09e5 06010000 		.4byte	.LVL160
 8814 09e9 0100     		.2byte	0x1
 8815 09eb 50       		.byte	0x50
 8816 09ec 0A010000 		.4byte	.LVL161
 8817 09f0 12010000 		.4byte	.LVL163
 8818 09f4 0100     		.2byte	0x1
 8819 09f6 50       		.byte	0x50
 8820 09f7 00000000 		.4byte	0
ARM GAS  C:\Users\EBANO_~1\AppData\Local\Temp\cc8t01eQ.s 			page 195


 8821 09fb 00000000 		.4byte	0
 8822              	.LLST59:
 8823 09ff FA000000 		.4byte	.LVL158
 8824 0a03 04010000 		.4byte	.LVL159
 8825 0a07 0200     		.2byte	0x2
 8826 0a09 30       		.byte	0x30
 8827 0a0a 9F       		.byte	0x9f
 8828 0a0b 04010000 		.4byte	.LVL159
 8829 0a0f 10010000 		.4byte	.LVL162
 8830 0a13 0100     		.2byte	0x1
 8831 0a15 53       		.byte	0x53
 8832 0a16 00000000 		.4byte	0
 8833 0a1a 00000000 		.4byte	0
 8834              	.LLST60:
 8835 0a1e 16010000 		.4byte	.LVL164
 8836 0a22 20010000 		.4byte	.LVL166
 8837 0a26 0100     		.2byte	0x1
 8838 0a28 53       		.byte	0x53
 8839 0a29 24010000 		.4byte	.LVL167
 8840 0a2d 2E010000 		.4byte	.LVL169
 8841 0a31 0100     		.2byte	0x1
 8842 0a33 53       		.byte	0x53
 8843 0a34 D0010000 		.4byte	.LVL187
 8844 0a38 E4010000 		.4byte	.LFE47
 8845 0a3c 0100     		.2byte	0x1
 8846 0a3e 53       		.byte	0x53
 8847 0a3f 00000000 		.4byte	0
 8848 0a43 00000000 		.4byte	0
 8849              	.LLST61:
 8850 0a47 16010000 		.4byte	.LVL164
 8851 0a4b 1E010000 		.4byte	.LVL165
 8852 0a4f 0200     		.2byte	0x2
 8853 0a51 30       		.byte	0x30
 8854 0a52 9F       		.byte	0x9f
 8855 0a53 1E010000 		.4byte	.LVL165
 8856 0a57 2A010000 		.4byte	.LVL168
 8857 0a5b 0100     		.2byte	0x1
 8858 0a5d 54       		.byte	0x54
 8859 0a5e D0010000 		.4byte	.LVL187
 8860 0a62 E4010000 		.4byte	.LFE47
 8861 0a66 0200     		.2byte	0x2
 8862 0a68 30       		.byte	0x30
 8863 0a69 9F       		.byte	0x9f
 8864 0a6a 00000000 		.4byte	0
 8865 0a6e 00000000 		.4byte	0
 8866              	.LLST62:
 8867 0a72 36010000 		.4byte	.LVL170
 8868 0a76 3E010000 		.4byte	.LVL172
 8869 0a7a 0100     		.2byte	0x1
 8870 0a7c 53       		.byte	0x53
 8871 0a7d 42010000 		.4byte	.LVL173
 8872 0a81 4A010000 		.4byte	.LVL175
 8873 0a85 0100     		.2byte	0x1
 8874 0a87 53       		.byte	0x53
 8875 0a88 CC010000 		.4byte	.LVL185
 8876 0a8c D0010000 		.4byte	.LVL187
 8877 0a90 0100     		.2byte	0x1
ARM GAS  C:\Users\EBANO_~1\AppData\Local\Temp\cc8t01eQ.s 			page 196


 8878 0a92 53       		.byte	0x53
 8879 0a93 00000000 		.4byte	0
 8880 0a97 00000000 		.4byte	0
 8881              	.LLST63:
 8882 0a9b 36010000 		.4byte	.LVL170
 8883 0a9f 3C010000 		.4byte	.LVL171
 8884 0aa3 0200     		.2byte	0x2
 8885 0aa5 30       		.byte	0x30
 8886 0aa6 9F       		.byte	0x9f
 8887 0aa7 3C010000 		.4byte	.LVL171
 8888 0aab 48010000 		.4byte	.LVL174
 8889 0aaf 0100     		.2byte	0x1
 8890 0ab1 52       		.byte	0x52
 8891 0ab2 CC010000 		.4byte	.LVL185
 8892 0ab6 D0010000 		.4byte	.LVL187
 8893 0aba 0200     		.2byte	0x2
 8894 0abc 30       		.byte	0x30
 8895 0abd 9F       		.byte	0x9f
 8896 0abe 00000000 		.4byte	0
 8897 0ac2 00000000 		.4byte	0
 8898              	.LLST45:
 8899 0ac6 00000000 		.4byte	.LFB46
 8900 0aca 08000000 		.4byte	.LCFI7
 8901 0ace 0200     		.2byte	0x2
 8902 0ad0 7D       		.byte	0x7d
 8903 0ad1 00       		.sleb128 0
 8904 0ad2 08000000 		.4byte	.LCFI7
 8905 0ad6 5C000000 		.4byte	.LFE46
 8906 0ada 0200     		.2byte	0x2
 8907 0adc 7D       		.byte	0x7d
 8908 0add 14       		.sleb128 20
 8909 0ade 00000000 		.4byte	0
 8910 0ae2 00000000 		.4byte	0
 8911              	.LLST46:
 8912 0ae6 00000000 		.4byte	.LVL133
 8913 0aea 04000000 		.4byte	.LVL134
 8914 0aee 0100     		.2byte	0x1
 8915 0af0 50       		.byte	0x50
 8916 0af1 04000000 		.4byte	.LVL134
 8917 0af5 5C000000 		.4byte	.LFE46
 8918 0af9 0400     		.2byte	0x4
 8919 0afb F3       		.byte	0xf3
 8920 0afc 01       		.uleb128 0x1
 8921 0afd 50       		.byte	0x50
 8922 0afe 9F       		.byte	0x9f
 8923 0aff 00000000 		.4byte	0
 8924 0b03 00000000 		.4byte	0
 8925              	.LLST47:
 8926 0b07 00000000 		.4byte	.LVL133
 8927 0b0b 2C000000 		.4byte	.LVL137
 8928 0b0f 0100     		.2byte	0x1
 8929 0b11 52       		.byte	0x52
 8930 0b12 2C000000 		.4byte	.LVL137
 8931 0b16 5C000000 		.4byte	.LFE46
 8932 0b1a 0400     		.2byte	0x4
 8933 0b1c F3       		.byte	0xf3
 8934 0b1d 01       		.uleb128 0x1
ARM GAS  C:\Users\EBANO_~1\AppData\Local\Temp\cc8t01eQ.s 			page 197


 8935 0b1e 52       		.byte	0x52
 8936 0b1f 9F       		.byte	0x9f
 8937 0b20 00000000 		.4byte	0
 8938 0b24 00000000 		.4byte	0
 8939              	.LLST48:
 8940 0b28 00000000 		.4byte	.LVL133
 8941 0b2c 0A000000 		.4byte	.LVL135
 8942 0b30 0200     		.2byte	0x2
 8943 0b32 30       		.byte	0x30
 8944 0b33 9F       		.byte	0x9f
 8945 0b34 0A000000 		.4byte	.LVL135
 8946 0b38 16000000 		.4byte	.LVL136
 8947 0b3c 0100     		.2byte	0x1
 8948 0b3e 53       		.byte	0x53
 8949 0b3f 00000000 		.4byte	0
 8950 0b43 00000000 		.4byte	0
 8951              	.LLST30:
 8952 0b47 00000000 		.4byte	.LFB45
 8953 0b4b 02000000 		.4byte	.LCFI5
 8954 0b4f 0200     		.2byte	0x2
 8955 0b51 7D       		.byte	0x7d
 8956 0b52 00       		.sleb128 0
 8957 0b53 02000000 		.4byte	.LCFI5
 8958 0b57 0A000000 		.4byte	.LCFI6
 8959 0b5b 0200     		.2byte	0x2
 8960 0b5d 7D       		.byte	0x7d
 8961 0b5e 18       		.sleb128 24
 8962 0b5f 0A000000 		.4byte	.LCFI6
 8963 0b63 60010000 		.4byte	.LFE45
 8964 0b67 0200     		.2byte	0x2
 8965 0b69 7D       		.byte	0x7d
 8966 0b6a 20       		.sleb128 32
 8967 0b6b 00000000 		.4byte	0
 8968 0b6f 00000000 		.4byte	0
 8969              	.LLST31:
 8970 0b73 00000000 		.4byte	.LVL86
 8971 0b77 0E000000 		.4byte	.LVL88
 8972 0b7b 0100     		.2byte	0x1
 8973 0b7d 50       		.byte	0x50
 8974 0b7e 0E000000 		.4byte	.LVL88
 8975 0b82 6C000000 		.4byte	.LVL96
 8976 0b86 0100     		.2byte	0x1
 8977 0b88 55       		.byte	0x55
 8978 0b89 6C000000 		.4byte	.LVL96
 8979 0b8d 74000000 		.4byte	.LVL97
 8980 0b91 0400     		.2byte	0x4
 8981 0b93 F3       		.byte	0xf3
 8982 0b94 01       		.uleb128 0x1
 8983 0b95 50       		.byte	0x50
 8984 0b96 9F       		.byte	0x9f
 8985 0b97 74000000 		.4byte	.LVL97
 8986 0b9b 60010000 		.4byte	.LFE45
 8987 0b9f 0100     		.2byte	0x1
 8988 0ba1 55       		.byte	0x55
 8989 0ba2 00000000 		.4byte	0
 8990 0ba6 00000000 		.4byte	0
 8991              	.LLST32:
ARM GAS  C:\Users\EBANO_~1\AppData\Local\Temp\cc8t01eQ.s 			page 198


 8992 0baa 00000000 		.4byte	.LVL86
 8993 0bae 46000000 		.4byte	.LVL93
 8994 0bb2 0100     		.2byte	0x1
 8995 0bb4 51       		.byte	0x51
 8996 0bb5 46000000 		.4byte	.LVL93
 8997 0bb9 74000000 		.4byte	.LVL97
 8998 0bbd 0400     		.2byte	0x4
 8999 0bbf F3       		.byte	0xf3
 9000 0bc0 01       		.uleb128 0x1
 9001 0bc1 51       		.byte	0x51
 9002 0bc2 9F       		.byte	0x9f
 9003 0bc3 74000000 		.4byte	.LVL97
 9004 0bc7 9C000000 		.4byte	.LVL105
 9005 0bcb 0100     		.2byte	0x1
 9006 0bcd 51       		.byte	0x51
 9007 0bce 9C000000 		.4byte	.LVL105
 9008 0bd2 18010000 		.4byte	.LVL124
 9009 0bd6 0400     		.2byte	0x4
 9010 0bd8 F3       		.byte	0xf3
 9011 0bd9 01       		.uleb128 0x1
 9012 0bda 51       		.byte	0x51
 9013 0bdb 9F       		.byte	0x9f
 9014 0bdc 18010000 		.4byte	.LVL124
 9015 0be0 1C010000 		.4byte	.LVL125
 9016 0be4 0100     		.2byte	0x1
 9017 0be6 51       		.byte	0x51
 9018 0be7 1C010000 		.4byte	.LVL125
 9019 0beb 60010000 		.4byte	.LFE45
 9020 0bef 0400     		.2byte	0x4
 9021 0bf1 F3       		.byte	0xf3
 9022 0bf2 01       		.uleb128 0x1
 9023 0bf3 51       		.byte	0x51
 9024 0bf4 9F       		.byte	0x9f
 9025 0bf5 00000000 		.4byte	0
 9026 0bf9 00000000 		.4byte	0
 9027              	.LLST33:
 9028 0bfd 00000000 		.4byte	.LVL86
 9029 0c01 36000000 		.4byte	.LVL90
 9030 0c05 0100     		.2byte	0x1
 9031 0c07 52       		.byte	0x52
 9032 0c08 36000000 		.4byte	.LVL90
 9033 0c0c 74000000 		.4byte	.LVL97
 9034 0c10 0400     		.2byte	0x4
 9035 0c12 F3       		.byte	0xf3
 9036 0c13 01       		.uleb128 0x1
 9037 0c14 52       		.byte	0x52
 9038 0c15 9F       		.byte	0x9f
 9039 0c16 74000000 		.4byte	.LVL97
 9040 0c1a B6000000 		.4byte	.LVL112
 9041 0c1e 0100     		.2byte	0x1
 9042 0c20 52       		.byte	0x52
 9043 0c21 B6000000 		.4byte	.LVL112
 9044 0c25 18010000 		.4byte	.LVL124
 9045 0c29 0400     		.2byte	0x4
 9046 0c2b F3       		.byte	0xf3
 9047 0c2c 01       		.uleb128 0x1
 9048 0c2d 52       		.byte	0x52
ARM GAS  C:\Users\EBANO_~1\AppData\Local\Temp\cc8t01eQ.s 			page 199


 9049 0c2e 9F       		.byte	0x9f
 9050 0c2f 18010000 		.4byte	.LVL124
 9051 0c33 1C010000 		.4byte	.LVL125
 9052 0c37 0100     		.2byte	0x1
 9053 0c39 52       		.byte	0x52
 9054 0c3a 1C010000 		.4byte	.LVL125
 9055 0c3e 58010000 		.4byte	.LVL131
 9056 0c42 0400     		.2byte	0x4
 9057 0c44 F3       		.byte	0xf3
 9058 0c45 01       		.uleb128 0x1
 9059 0c46 52       		.byte	0x52
 9060 0c47 9F       		.byte	0x9f
 9061 0c48 58010000 		.4byte	.LVL131
 9062 0c4c 5A010000 		.4byte	.LVL132
 9063 0c50 0100     		.2byte	0x1
 9064 0c52 52       		.byte	0x52
 9065 0c53 5A010000 		.4byte	.LVL132
 9066 0c57 60010000 		.4byte	.LFE45
 9067 0c5b 0400     		.2byte	0x4
 9068 0c5d F3       		.byte	0xf3
 9069 0c5e 01       		.uleb128 0x1
 9070 0c5f 52       		.byte	0x52
 9071 0c60 9F       		.byte	0x9f
 9072 0c61 00000000 		.4byte	0
 9073 0c65 00000000 		.4byte	0
 9074              	.LLST34:
 9075 0c69 0C000000 		.4byte	.LVL87
 9076 0c6d 2C000000 		.4byte	.LVL89
 9077 0c71 0200     		.2byte	0x2
 9078 0c73 30       		.byte	0x30
 9079 0c74 9F       		.byte	0x9f
 9080 0c75 2C000000 		.4byte	.LVL89
 9081 0c79 3A000000 		.4byte	.LVL91
 9082 0c7d 1600     		.2byte	0x16
 9083 0c7f 71       		.byte	0x71
 9084 0c80 02       		.sleb128 2
 9085 0c81 94       		.byte	0x94
 9086 0c82 01       		.byte	0x1
 9087 0c83 3F       		.byte	0x3f
 9088 0c84 1A       		.byte	0x1a
 9089 0c85 71       		.byte	0x71
 9090 0c86 02       		.sleb128 2
 9091 0c87 94       		.byte	0x94
 9092 0c88 01       		.byte	0x1
 9093 0c89 34       		.byte	0x34
 9094 0c8a 25       		.byte	0x25
 9095 0c8b 08       		.byte	0x8
 9096 0c8c FF       		.byte	0xff
 9097 0c8d 1A       		.byte	0x1a
 9098 0c8e 3A       		.byte	0x3a
 9099 0c8f 1E       		.byte	0x1e
 9100 0c90 22       		.byte	0x22
 9101 0c91 08       		.byte	0x8
 9102 0c92 FF       		.byte	0xff
 9103 0c93 1A       		.byte	0x1a
 9104 0c94 9F       		.byte	0x9f
 9105 0c95 42000000 		.4byte	.LVL92
ARM GAS  C:\Users\EBANO_~1\AppData\Local\Temp\cc8t01eQ.s 			page 200


 9106 0c99 5A000000 		.4byte	.LVL94
 9107 0c9d 0100     		.2byte	0x1
 9108 0c9f 54       		.byte	0x54
 9109 0ca0 74000000 		.4byte	.LVL97
 9110 0ca4 D0000000 		.4byte	.LVL117
 9111 0ca8 0200     		.2byte	0x2
 9112 0caa 30       		.byte	0x30
 9113 0cab 9F       		.byte	0x9f
 9114 0cac D0000000 		.4byte	.LVL117
 9115 0cb0 18010000 		.4byte	.LVL124
 9116 0cb4 0100     		.2byte	0x1
 9117 0cb6 54       		.byte	0x54
 9118 0cb7 18010000 		.4byte	.LVL124
 9119 0cbb 1C010000 		.4byte	.LVL125
 9120 0cbf 0200     		.2byte	0x2
 9121 0cc1 30       		.byte	0x30
 9122 0cc2 9F       		.byte	0x9f
 9123 0cc3 1C010000 		.4byte	.LVL125
 9124 0cc7 30010000 		.4byte	.LVL128
 9125 0ccb 0100     		.2byte	0x1
 9126 0ccd 54       		.byte	0x54
 9127 0cce 58010000 		.4byte	.LVL131
 9128 0cd2 60010000 		.4byte	.LFE45
 9129 0cd6 0200     		.2byte	0x2
 9130 0cd8 30       		.byte	0x30
 9131 0cd9 9F       		.byte	0x9f
 9132 0cda 00000000 		.4byte	0
 9133 0cde 00000000 		.4byte	0
 9134              	.LLST35:
 9135 0ce2 42000000 		.4byte	.LVL92
 9136 0ce6 6C000000 		.4byte	.LVL95
 9137 0cea 0100     		.2byte	0x1
 9138 0cec 55       		.byte	0x55
 9139 0ced D6000000 		.4byte	.LVL118
 9140 0cf1 04010000 		.4byte	.LVL123
 9141 0cf5 0100     		.2byte	0x1
 9142 0cf7 55       		.byte	0x55
 9143 0cf8 1C010000 		.4byte	.LVL125
 9144 0cfc 58010000 		.4byte	.LVL131
 9145 0d00 0100     		.2byte	0x1
 9146 0d02 55       		.byte	0x55
 9147 0d03 00000000 		.4byte	0
 9148 0d07 00000000 		.4byte	0
 9149              	.LLST36:
 9150 0d0b 42000000 		.4byte	.LVL92
 9151 0d0f 46000000 		.4byte	.LVL93
 9152 0d13 0200     		.2byte	0x2
 9153 0d15 30       		.byte	0x30
 9154 0d16 9F       		.byte	0x9f
 9155 0d17 D6000000 		.4byte	.LVL118
 9156 0d1b EC000000 		.4byte	.LVL120
 9157 0d1f 0200     		.2byte	0x2
 9158 0d21 30       		.byte	0x30
 9159 0d22 9F       		.byte	0x9f
 9160 0d23 EC000000 		.4byte	.LVL120
 9161 0d27 F0000000 		.4byte	.LVL121
 9162 0d2b 0100     		.2byte	0x1
ARM GAS  C:\Users\EBANO_~1\AppData\Local\Temp\cc8t01eQ.s 			page 201


 9163 0d2d 50       		.byte	0x50
 9164 0d2e F0000000 		.4byte	.LVL121
 9165 0d32 04010000 		.4byte	.LVL123
 9166 0d36 0100     		.2byte	0x1
 9167 0d38 59       		.byte	0x59
 9168 0d39 00000000 		.4byte	0
 9169 0d3d 00000000 		.4byte	0
 9170              	.LLST37:
 9171 0d41 82000000 		.4byte	.LVL98
 9172 0d45 88000000 		.4byte	.LVL99
 9173 0d49 0200     		.2byte	0x2
 9174 0d4b 71       		.byte	0x71
 9175 0d4c 03       		.sleb128 3
 9176 0d4d 88000000 		.4byte	.LVL99
 9177 0d51 8A000000 		.4byte	.LVL100
 9178 0d55 0100     		.2byte	0x1
 9179 0d57 53       		.byte	0x53
 9180 0d58 8E000000 		.4byte	.LVL101
 9181 0d5c 96000000 		.4byte	.LVL103
 9182 0d60 0100     		.2byte	0x1
 9183 0d62 53       		.byte	0x53
 9184 0d63 00000000 		.4byte	0
 9185 0d67 00000000 		.4byte	0
 9186              	.LLST38:
 9187 0d6b 82000000 		.4byte	.LVL98
 9188 0d6f 88000000 		.4byte	.LVL99
 9189 0d73 0200     		.2byte	0x2
 9190 0d75 30       		.byte	0x30
 9191 0d76 9F       		.byte	0x9f
 9192 0d77 88000000 		.4byte	.LVL99
 9193 0d7b 94000000 		.4byte	.LVL102
 9194 0d7f 0100     		.2byte	0x1
 9195 0d81 56       		.byte	0x56
 9196 0d82 00000000 		.4byte	0
 9197 0d86 00000000 		.4byte	0
 9198              	.LLST39:
 9199 0d8a 9A000000 		.4byte	.LVL104
 9200 0d8e 9C000000 		.4byte	.LVL105
 9201 0d92 0200     		.2byte	0x2
 9202 0d94 71       		.byte	0x71
 9203 0d95 01       		.sleb128 1
 9204 0d96 9C000000 		.4byte	.LVL105
 9205 0d9a A0000000 		.4byte	.LVL106
 9206 0d9e 0500     		.2byte	0x5
 9207 0da0 F3       		.byte	0xf3
 9208 0da1 01       		.uleb128 0x1
 9209 0da2 51       		.byte	0x51
 9210 0da3 23       		.byte	0x23
 9211 0da4 01       		.uleb128 0x1
 9212 0da5 A0000000 		.4byte	.LVL106
 9213 0da9 A2000000 		.4byte	.LVL107
 9214 0dad 0100     		.2byte	0x1
 9215 0daf 50       		.byte	0x50
 9216 0db0 A6000000 		.4byte	.LVL108
 9217 0db4 AE000000 		.4byte	.LVL110
 9218 0db8 0100     		.2byte	0x1
 9219 0dba 50       		.byte	0x50
ARM GAS  C:\Users\EBANO_~1\AppData\Local\Temp\cc8t01eQ.s 			page 202


 9220 0dbb 00000000 		.4byte	0
 9221 0dbf 00000000 		.4byte	0
 9222              	.LLST40:
 9223 0dc3 9A000000 		.4byte	.LVL104
 9224 0dc7 A0000000 		.4byte	.LVL106
 9225 0dcb 0200     		.2byte	0x2
 9226 0dcd 30       		.byte	0x30
 9227 0dce 9F       		.byte	0x9f
 9228 0dcf A0000000 		.4byte	.LVL106
 9229 0dd3 AC000000 		.4byte	.LVL109
 9230 0dd7 0100     		.2byte	0x1
 9231 0dd9 51       		.byte	0x51
 9232 0dda 00000000 		.4byte	0
 9233 0dde 00000000 		.4byte	0
 9234              	.LLST41:
 9235 0de2 B2000000 		.4byte	.LVL111
 9236 0de6 B6000000 		.4byte	.LVL112
 9237 0dea 0500     		.2byte	0x5
 9238 0dec F3       		.byte	0xf3
 9239 0ded 01       		.uleb128 0x1
 9240 0dee 51       		.byte	0x51
 9241 0def 23       		.byte	0x23
 9242 0df0 02       		.uleb128 0x2
 9243 0df1 B6000000 		.4byte	.LVL112
 9244 0df5 B8000000 		.4byte	.LVL113
 9245 0df9 0100     		.2byte	0x1
 9246 0dfb 54       		.byte	0x54
 9247 0dfc BC000000 		.4byte	.LVL114
 9248 0e00 C4000000 		.4byte	.LVL116
 9249 0e04 0100     		.2byte	0x1
 9250 0e06 54       		.byte	0x54
 9251 0e07 58010000 		.4byte	.LVL131
 9252 0e0b 60010000 		.4byte	.LFE45
 9253 0e0f 0500     		.2byte	0x5
 9254 0e11 F3       		.byte	0xf3
 9255 0e12 01       		.uleb128 0x1
 9256 0e13 51       		.byte	0x51
 9257 0e14 23       		.byte	0x23
 9258 0e15 02       		.uleb128 0x2
 9259 0e16 00000000 		.4byte	0
 9260 0e1a 00000000 		.4byte	0
 9261              	.LLST42:
 9262 0e1e B2000000 		.4byte	.LVL111
 9263 0e22 B6000000 		.4byte	.LVL112
 9264 0e26 0200     		.2byte	0x2
 9265 0e28 30       		.byte	0x30
 9266 0e29 9F       		.byte	0x9f
 9267 0e2a B6000000 		.4byte	.LVL112
 9268 0e2e C2000000 		.4byte	.LVL115
 9269 0e32 0100     		.2byte	0x1
 9270 0e34 52       		.byte	0x52
 9271 0e35 58010000 		.4byte	.LVL131
 9272 0e39 60010000 		.4byte	.LFE45
 9273 0e3d 0200     		.2byte	0x2
 9274 0e3f 30       		.byte	0x30
 9275 0e40 9F       		.byte	0x9f
 9276 0e41 00000000 		.4byte	0
ARM GAS  C:\Users\EBANO_~1\AppData\Local\Temp\cc8t01eQ.s 			page 203


 9277 0e45 00000000 		.4byte	0
 9278              	.LLST43:
 9279 0e49 1C010000 		.4byte	.LVL125
 9280 0e4d 46010000 		.4byte	.LVL130
 9281 0e51 0100     		.2byte	0x1
 9282 0e53 55       		.byte	0x55
 9283 0e54 00000000 		.4byte	0
 9284 0e58 00000000 		.4byte	0
 9285              	.LLST44:
 9286 0e5c 1C010000 		.4byte	.LVL125
 9287 0e60 2C010000 		.4byte	.LVL127
 9288 0e64 0200     		.2byte	0x2
 9289 0e66 30       		.byte	0x30
 9290 0e67 9F       		.byte	0x9f
 9291 0e68 2C010000 		.4byte	.LVL127
 9292 0e6c 30010000 		.4byte	.LVL128
 9293 0e70 0100     		.2byte	0x1
 9294 0e72 50       		.byte	0x50
 9295 0e73 30010000 		.4byte	.LVL128
 9296 0e77 46010000 		.4byte	.LVL130
 9297 0e7b 0100     		.2byte	0x1
 9298 0e7d 58       		.byte	0x58
 9299 0e7e 00000000 		.4byte	0
 9300 0e82 00000000 		.4byte	0
 9301              	.LLST26:
 9302 0e86 00000000 		.4byte	.LFB44
 9303 0e8a 04000000 		.4byte	.LCFI4
 9304 0e8e 0200     		.2byte	0x2
 9305 0e90 7D       		.byte	0x7d
 9306 0e91 00       		.sleb128 0
 9307 0e92 04000000 		.4byte	.LCFI4
 9308 0e96 68000000 		.4byte	.LFE44
 9309 0e9a 0200     		.2byte	0x2
 9310 0e9c 7D       		.byte	0x7d
 9311 0e9d 10       		.sleb128 16
 9312 0e9e 00000000 		.4byte	0
 9313 0ea2 00000000 		.4byte	0
 9314              	.LLST27:
 9315 0ea6 00000000 		.4byte	.LVL81
 9316 0eaa 02000000 		.4byte	.LVL82
 9317 0eae 0100     		.2byte	0x1
 9318 0eb0 50       		.byte	0x50
 9319 0eb1 02000000 		.4byte	.LVL82
 9320 0eb5 68000000 		.4byte	.LFE44
 9321 0eb9 0400     		.2byte	0x4
 9322 0ebb F3       		.byte	0xf3
 9323 0ebc 01       		.uleb128 0x1
 9324 0ebd 50       		.byte	0x50
 9325 0ebe 9F       		.byte	0x9f
 9326 0ebf 00000000 		.4byte	0
 9327 0ec3 00000000 		.4byte	0
 9328              	.LLST28:
 9329 0ec7 00000000 		.4byte	.LVL81
 9330 0ecb 38000000 		.4byte	.LVL85
 9331 0ecf 0100     		.2byte	0x1
 9332 0ed1 52       		.byte	0x52
 9333 0ed2 38000000 		.4byte	.LVL85
ARM GAS  C:\Users\EBANO_~1\AppData\Local\Temp\cc8t01eQ.s 			page 204


 9334 0ed6 68000000 		.4byte	.LFE44
 9335 0eda 0400     		.2byte	0x4
 9336 0edc F3       		.byte	0xf3
 9337 0edd 01       		.uleb128 0x1
 9338 0ede 52       		.byte	0x52
 9339 0edf 9F       		.byte	0x9f
 9340 0ee0 00000000 		.4byte	0
 9341 0ee4 00000000 		.4byte	0
 9342              	.LLST29:
 9343 0ee8 00000000 		.4byte	.LVL81
 9344 0eec 1A000000 		.4byte	.LVL83
 9345 0ef0 0200     		.2byte	0x2
 9346 0ef2 30       		.byte	0x30
 9347 0ef3 9F       		.byte	0x9f
 9348 0ef4 1A000000 		.4byte	.LVL83
 9349 0ef8 24000000 		.4byte	.LVL84
 9350 0efc 0100     		.2byte	0x1
 9351 0efe 54       		.byte	0x54
 9352 0eff 00000000 		.4byte	0
 9353 0f03 00000000 		.4byte	0
 9354              	.LLST11:
 9355 0f07 00000000 		.4byte	.LFB43
 9356 0f0b 02000000 		.4byte	.LCFI2
 9357 0f0f 0200     		.2byte	0x2
 9358 0f11 7D       		.byte	0x7d
 9359 0f12 00       		.sleb128 0
 9360 0f13 02000000 		.4byte	.LCFI2
 9361 0f17 0E000000 		.4byte	.LCFI3
 9362 0f1b 0200     		.2byte	0x2
 9363 0f1d 7D       		.byte	0x7d
 9364 0f1e 18       		.sleb128 24
 9365 0f1f 0E000000 		.4byte	.LCFI3
 9366 0f23 A4010000 		.4byte	.LFE43
 9367 0f27 0200     		.2byte	0x2
 9368 0f29 7D       		.byte	0x7d
 9369 0f2a 28       		.sleb128 40
 9370 0f2b 00000000 		.4byte	0
 9371 0f2f 00000000 		.4byte	0
 9372              	.LLST12:
 9373 0f33 00000000 		.4byte	.LVL36
 9374 0f37 3C000000 		.4byte	.LVL38
 9375 0f3b 0100     		.2byte	0x1
 9376 0f3d 50       		.byte	0x50
 9377 0f3e 3C000000 		.4byte	.LVL38
 9378 0f42 94000000 		.4byte	.LVL43
 9379 0f46 0100     		.2byte	0x1
 9380 0f48 54       		.byte	0x54
 9381 0f49 94000000 		.4byte	.LVL43
 9382 0f4d A0000000 		.4byte	.LVL44
 9383 0f51 0400     		.2byte	0x4
 9384 0f53 F3       		.byte	0xf3
 9385 0f54 01       		.uleb128 0x1
 9386 0f55 50       		.byte	0x50
 9387 0f56 9F       		.byte	0x9f
 9388 0f57 A0000000 		.4byte	.LVL44
 9389 0f5b AE000000 		.4byte	.LVL45
 9390 0f5f 0100     		.2byte	0x1
ARM GAS  C:\Users\EBANO_~1\AppData\Local\Temp\cc8t01eQ.s 			page 205


 9391 0f61 50       		.byte	0x50
 9392 0f62 AE000000 		.4byte	.LVL45
 9393 0f66 4C010000 		.4byte	.LVL71
 9394 0f6a 0100     		.2byte	0x1
 9395 0f6c 54       		.byte	0x54
 9396 0f6d 4C010000 		.4byte	.LVL71
 9397 0f71 56010000 		.4byte	.LVL72
 9398 0f75 0100     		.2byte	0x1
 9399 0f77 50       		.byte	0x50
 9400 0f78 56010000 		.4byte	.LVL72
 9401 0f7c A4010000 		.4byte	.LFE43
 9402 0f80 0100     		.2byte	0x1
 9403 0f82 54       		.byte	0x54
 9404 0f83 00000000 		.4byte	0
 9405 0f87 00000000 		.4byte	0
 9406              	.LLST13:
 9407 0f8b 00000000 		.4byte	.LVL36
 9408 0f8f 12000000 		.4byte	.LVL37
 9409 0f93 0100     		.2byte	0x1
 9410 0f95 51       		.byte	0x51
 9411 0f96 12000000 		.4byte	.LVL37
 9412 0f9a 82000000 		.4byte	.LVL41
 9413 0f9e 0100     		.2byte	0x1
 9414 0fa0 55       		.byte	0x55
 9415 0fa1 82000000 		.4byte	.LVL41
 9416 0fa5 A0000000 		.4byte	.LVL44
 9417 0fa9 0400     		.2byte	0x4
 9418 0fab F3       		.byte	0xf3
 9419 0fac 01       		.uleb128 0x1
 9420 0fad 51       		.byte	0x51
 9421 0fae 9F       		.byte	0x9f
 9422 0faf A0000000 		.4byte	.LVL44
 9423 0fb3 6E010000 		.4byte	.LVL76
 9424 0fb7 0100     		.2byte	0x1
 9425 0fb9 55       		.byte	0x55
 9426 0fba 6E010000 		.4byte	.LVL76
 9427 0fbe 96010000 		.4byte	.LVL79
 9428 0fc2 0400     		.2byte	0x4
 9429 0fc4 F3       		.byte	0xf3
 9430 0fc5 01       		.uleb128 0x1
 9431 0fc6 51       		.byte	0x51
 9432 0fc7 9F       		.byte	0x9f
 9433 0fc8 96010000 		.4byte	.LVL79
 9434 0fcc A4010000 		.4byte	.LFE43
 9435 0fd0 0100     		.2byte	0x1
 9436 0fd2 55       		.byte	0x55
 9437 0fd3 00000000 		.4byte	0
 9438 0fd7 00000000 		.4byte	0
 9439              	.LLST14:
 9440 0fdb 00000000 		.4byte	.LVL36
 9441 0fdf 58000000 		.4byte	.LVL40
 9442 0fe3 0100     		.2byte	0x1
 9443 0fe5 52       		.byte	0x52
 9444 0fe6 58000000 		.4byte	.LVL40
 9445 0fea A0000000 		.4byte	.LVL44
 9446 0fee 0400     		.2byte	0x4
 9447 0ff0 F3       		.byte	0xf3
ARM GAS  C:\Users\EBANO_~1\AppData\Local\Temp\cc8t01eQ.s 			page 206


 9448 0ff1 01       		.uleb128 0x1
 9449 0ff2 52       		.byte	0x52
 9450 0ff3 9F       		.byte	0x9f
 9451 0ff4 A0000000 		.4byte	.LVL44
 9452 0ff8 E6000000 		.4byte	.LVL58
 9453 0ffc 0100     		.2byte	0x1
 9454 0ffe 52       		.byte	0x52
 9455 0fff E6000000 		.4byte	.LVL58
 9456 1003 4C010000 		.4byte	.LVL71
 9457 1007 0400     		.2byte	0x4
 9458 1009 F3       		.byte	0xf3
 9459 100a 01       		.uleb128 0x1
 9460 100b 52       		.byte	0x52
 9461 100c 9F       		.byte	0x9f
 9462 100d 4C010000 		.4byte	.LVL71
 9463 1011 58010000 		.4byte	.LVL73
 9464 1015 0100     		.2byte	0x1
 9465 1017 52       		.byte	0x52
 9466 1018 58010000 		.4byte	.LVL73
 9467 101c 96010000 		.4byte	.LVL79
 9468 1020 0400     		.2byte	0x4
 9469 1022 F3       		.byte	0xf3
 9470 1023 01       		.uleb128 0x1
 9471 1024 52       		.byte	0x52
 9472 1025 9F       		.byte	0x9f
 9473 1026 96010000 		.4byte	.LVL79
 9474 102a 98010000 		.4byte	.LVL80
 9475 102e 0100     		.2byte	0x1
 9476 1030 52       		.byte	0x52
 9477 1031 98010000 		.4byte	.LVL80
 9478 1035 A4010000 		.4byte	.LFE43
 9479 1039 0400     		.2byte	0x4
 9480 103b F3       		.byte	0xf3
 9481 103c 01       		.uleb128 0x1
 9482 103d 52       		.byte	0x52
 9483 103e 9F       		.byte	0x9f
 9484 103f 00000000 		.4byte	0
 9485 1043 00000000 		.4byte	0
 9486              	.LLST15:
 9487 1047 00000000 		.4byte	.LVL36
 9488 104b 54000000 		.4byte	.LVL39
 9489 104f 0200     		.2byte	0x2
 9490 1051 30       		.byte	0x30
 9491 1052 9F       		.byte	0x9f
 9492 1053 54000000 		.4byte	.LVL39
 9493 1057 58000000 		.4byte	.LVL40
 9494 105b 0100     		.2byte	0x1
 9495 105d 51       		.byte	0x51
 9496 105e 58000000 		.4byte	.LVL40
 9497 1062 82000000 		.4byte	.LVL41
 9498 1066 0100     		.2byte	0x1
 9499 1068 58       		.byte	0x58
 9500 1069 A0000000 		.4byte	.LVL44
 9501 106d FE000000 		.4byte	.LVL63
 9502 1071 0200     		.2byte	0x2
 9503 1073 30       		.byte	0x30
 9504 1074 9F       		.byte	0x9f
ARM GAS  C:\Users\EBANO_~1\AppData\Local\Temp\cc8t01eQ.s 			page 207


 9505 1075 FE000000 		.4byte	.LVL63
 9506 1079 00010000 		.4byte	.LVL64
 9507 107d 0100     		.2byte	0x1
 9508 107f 53       		.byte	0x53
 9509 1080 00010000 		.4byte	.LVL64
 9510 1084 4C010000 		.4byte	.LVL71
 9511 1088 0100     		.2byte	0x1
 9512 108a 58       		.byte	0x58
 9513 108b 4C010000 		.4byte	.LVL71
 9514 108f 58010000 		.4byte	.LVL73
 9515 1093 0200     		.2byte	0x2
 9516 1095 30       		.byte	0x30
 9517 1096 9F       		.byte	0x9f
 9518 1097 58010000 		.4byte	.LVL73
 9519 109b 6E010000 		.4byte	.LVL76
 9520 109f 0100     		.2byte	0x1
 9521 10a1 58       		.byte	0x58
 9522 10a2 96010000 		.4byte	.LVL79
 9523 10a6 A4010000 		.4byte	.LFE43
 9524 10aa 0200     		.2byte	0x2
 9525 10ac 30       		.byte	0x30
 9526 10ad 9F       		.byte	0x9f
 9527 10ae 00000000 		.4byte	0
 9528 10b2 00000000 		.4byte	0
 9529              	.LLST16:
 9530 10b6 54000000 		.4byte	.LVL39
 9531 10ba 94000000 		.4byte	.LVL42
 9532 10be 0100     		.2byte	0x1
 9533 10c0 54       		.byte	0x54
 9534 10c1 06010000 		.4byte	.LVL65
 9535 10c5 38010000 		.4byte	.LVL70
 9536 10c9 0100     		.2byte	0x1
 9537 10cb 54       		.byte	0x54
 9538 10cc 58010000 		.4byte	.LVL73
 9539 10d0 96010000 		.4byte	.LVL79
 9540 10d4 0100     		.2byte	0x1
 9541 10d6 54       		.byte	0x54
 9542 10d7 00000000 		.4byte	0
 9543 10db 00000000 		.4byte	0
 9544              	.LLST17:
 9545 10df 54000000 		.4byte	.LVL39
 9546 10e3 58000000 		.4byte	.LVL40
 9547 10e7 0200     		.2byte	0x2
 9548 10e9 30       		.byte	0x30
 9549 10ea 9F       		.byte	0x9f
 9550 10eb 06010000 		.4byte	.LVL65
 9551 10ef 20010000 		.4byte	.LVL67
 9552 10f3 0200     		.2byte	0x2
 9553 10f5 30       		.byte	0x30
 9554 10f6 9F       		.byte	0x9f
 9555 10f7 20010000 		.4byte	.LVL67
 9556 10fb 22010000 		.4byte	.LVL68
 9557 10ff 0100     		.2byte	0x1
 9558 1101 50       		.byte	0x50
 9559 1102 22010000 		.4byte	.LVL68
 9560 1106 38010000 		.4byte	.LVL70
 9561 110a 0100     		.2byte	0x1
ARM GAS  C:\Users\EBANO_~1\AppData\Local\Temp\cc8t01eQ.s 			page 208


 9562 110c 5B       		.byte	0x5b
 9563 110d 00000000 		.4byte	0
 9564 1111 00000000 		.4byte	0
 9565              	.LLST18:
 9566 1115 AE000000 		.4byte	.LVL45
 9567 1119 B6000000 		.4byte	.LVL47
 9568 111d 0100     		.2byte	0x1
 9569 111f 50       		.byte	0x50
 9570 1120 BA000000 		.4byte	.LVL48
 9571 1124 C2000000 		.4byte	.LVL50
 9572 1128 0100     		.2byte	0x1
 9573 112a 50       		.byte	0x50
 9574 112b 00000000 		.4byte	0
 9575 112f 00000000 		.4byte	0
 9576              	.LLST19:
 9577 1133 AE000000 		.4byte	.LVL45
 9578 1137 B4000000 		.4byte	.LVL46
 9579 113b 0200     		.2byte	0x2
 9580 113d 30       		.byte	0x30
 9581 113e 9F       		.byte	0x9f
 9582 113f B4000000 		.4byte	.LVL46
 9583 1143 C0000000 		.4byte	.LVL49
 9584 1147 0100     		.2byte	0x1
 9585 1149 53       		.byte	0x53
 9586 114a 00000000 		.4byte	0
 9587 114e 00000000 		.4byte	0
 9588              	.LLST20:
 9589 1152 C6000000 		.4byte	.LVL51
 9590 1156 D0000000 		.4byte	.LVL53
 9591 115a 0100     		.2byte	0x1
 9592 115c 53       		.byte	0x53
 9593 115d D4000000 		.4byte	.LVL54
 9594 1161 DC000000 		.4byte	.LVL56
 9595 1165 0100     		.2byte	0x1
 9596 1167 53       		.byte	0x53
 9597 1168 00000000 		.4byte	0
 9598 116c 00000000 		.4byte	0
 9599              	.LLST21:
 9600 1170 C6000000 		.4byte	.LVL51
 9601 1174 CE000000 		.4byte	.LVL52
 9602 1178 0200     		.2byte	0x2
 9603 117a 30       		.byte	0x30
 9604 117b 9F       		.byte	0x9f
 9605 117c CE000000 		.4byte	.LVL52
 9606 1180 DA000000 		.4byte	.LVL55
 9607 1184 0100     		.2byte	0x1
 9608 1186 51       		.byte	0x51
 9609 1187 00000000 		.4byte	0
 9610 118b 00000000 		.4byte	0
 9611              	.LLST22:
 9612 118f E0000000 		.4byte	.LVL57
 9613 1193 E8000000 		.4byte	.LVL59
 9614 1197 0100     		.2byte	0x1
 9615 1199 51       		.byte	0x51
 9616 119a EC000000 		.4byte	.LVL60
 9617 119e F4000000 		.4byte	.LVL62
 9618 11a2 0100     		.2byte	0x1
ARM GAS  C:\Users\EBANO_~1\AppData\Local\Temp\cc8t01eQ.s 			page 209


 9619 11a4 51       		.byte	0x51
 9620 11a5 96010000 		.4byte	.LVL79
 9621 11a9 A4010000 		.4byte	.LFE43
 9622 11ad 0100     		.2byte	0x1
 9623 11af 51       		.byte	0x51
 9624 11b0 00000000 		.4byte	0
 9625 11b4 00000000 		.4byte	0
 9626              	.LLST23:
 9627 11b8 E0000000 		.4byte	.LVL57
 9628 11bc E6000000 		.4byte	.LVL58
 9629 11c0 0200     		.2byte	0x2
 9630 11c2 30       		.byte	0x30
 9631 11c3 9F       		.byte	0x9f
 9632 11c4 E6000000 		.4byte	.LVL58
 9633 11c8 F2000000 		.4byte	.LVL61
 9634 11cc 0100     		.2byte	0x1
 9635 11ce 52       		.byte	0x52
 9636 11cf 96010000 		.4byte	.LVL79
 9637 11d3 A4010000 		.4byte	.LFE43
 9638 11d7 0200     		.2byte	0x2
 9639 11d9 30       		.byte	0x30
 9640 11da 9F       		.byte	0x9f
 9641 11db 00000000 		.4byte	0
 9642 11df 00000000 		.4byte	0
 9643              	.LLST24:
 9644 11e3 58010000 		.4byte	.LVL73
 9645 11e7 84010000 		.4byte	.LVL78
 9646 11eb 0100     		.2byte	0x1
 9647 11ed 54       		.byte	0x54
 9648 11ee 00000000 		.4byte	0
 9649 11f2 00000000 		.4byte	0
 9650              	.LLST25:
 9651 11f6 58010000 		.4byte	.LVL73
 9652 11fa 6A010000 		.4byte	.LVL75
 9653 11fe 0200     		.2byte	0x2
 9654 1200 30       		.byte	0x30
 9655 1201 9F       		.byte	0x9f
 9656 1202 6A010000 		.4byte	.LVL75
 9657 1206 6E010000 		.4byte	.LVL76
 9658 120a 0100     		.2byte	0x1
 9659 120c 50       		.byte	0x50
 9660 120d 6E010000 		.4byte	.LVL76
 9661 1211 84010000 		.4byte	.LVL78
 9662 1215 0100     		.2byte	0x1
 9663 1217 59       		.byte	0x59
 9664 1218 00000000 		.4byte	0
 9665 121c 00000000 		.4byte	0
 9666              	.LLST4:
 9667 1220 00000000 		.4byte	.LFB40
 9668 1224 02000000 		.4byte	.LCFI1
 9669 1228 0200     		.2byte	0x2
 9670 122a 7D       		.byte	0x7d
 9671 122b 00       		.sleb128 0
 9672 122c 02000000 		.4byte	.LCFI1
 9673 1230 08010000 		.4byte	.LFE40
 9674 1234 0200     		.2byte	0x2
 9675 1236 7D       		.byte	0x7d
ARM GAS  C:\Users\EBANO_~1\AppData\Local\Temp\cc8t01eQ.s 			page 210


 9676 1237 18       		.sleb128 24
 9677 1238 00000000 		.4byte	0
 9678 123c 00000000 		.4byte	0
 9679              	.LLST5:
 9680 1240 00000000 		.4byte	.LVL14
 9681 1244 1A000000 		.4byte	.LVL16
 9682 1248 0100     		.2byte	0x1
 9683 124a 50       		.byte	0x50
 9684 124b 1A000000 		.4byte	.LVL16
 9685 124f B6000000 		.4byte	.LVL28
 9686 1253 0100     		.2byte	0x1
 9687 1255 54       		.byte	0x54
 9688 1256 B6000000 		.4byte	.LVL28
 9689 125a BF000000 		.4byte	.LVL29-1
 9690 125e 0100     		.2byte	0x1
 9691 1260 50       		.byte	0x50
 9692 1261 BF000000 		.4byte	.LVL29-1
 9693 1265 E8000000 		.4byte	.LVL34
 9694 1269 0100     		.2byte	0x1
 9695 126b 54       		.byte	0x54
 9696 126c E8000000 		.4byte	.LVL34
 9697 1270 EA000000 		.4byte	.LVL35
 9698 1274 0400     		.2byte	0x4
 9699 1276 F3       		.byte	0xf3
 9700 1277 01       		.uleb128 0x1
 9701 1278 50       		.byte	0x50
 9702 1279 9F       		.byte	0x9f
 9703 127a EA000000 		.4byte	.LVL35
 9704 127e 08010000 		.4byte	.LFE40
 9705 1282 0100     		.2byte	0x1
 9706 1284 54       		.byte	0x54
 9707 1285 00000000 		.4byte	0
 9708 1289 00000000 		.4byte	0
 9709              	.LLST6:
 9710 128d 00000000 		.4byte	.LVL14
 9711 1291 36000000 		.4byte	.LVL18
 9712 1295 0200     		.2byte	0x2
 9713 1297 30       		.byte	0x30
 9714 1298 9F       		.byte	0x9f
 9715 1299 36000000 		.4byte	.LVL18
 9716 129d 3E000000 		.4byte	.LVL19
 9717 12a1 0100     		.2byte	0x1
 9718 12a3 50       		.byte	0x50
 9719 12a4 3E000000 		.4byte	.LVL19
 9720 12a8 88000000 		.4byte	.LVL23
 9721 12ac 0100     		.2byte	0x1
 9722 12ae 57       		.byte	0x57
 9723 12af B6000000 		.4byte	.LVL28
 9724 12b3 DA000000 		.4byte	.LVL33
 9725 12b7 0200     		.2byte	0x2
 9726 12b9 30       		.byte	0x30
 9727 12ba 9F       		.byte	0x9f
 9728 12bb EA000000 		.4byte	.LVL35
 9729 12bf 08010000 		.4byte	.LFE40
 9730 12c3 0100     		.2byte	0x1
 9731 12c5 57       		.byte	0x57
 9732 12c6 00000000 		.4byte	0
ARM GAS  C:\Users\EBANO_~1\AppData\Local\Temp\cc8t01eQ.s 			page 211


 9733 12ca 00000000 		.4byte	0
 9734              	.LLST7:
 9735 12ce 16000000 		.4byte	.LVL15
 9736 12d2 1A000000 		.4byte	.LVL16
 9737 12d6 0100     		.2byte	0x1
 9738 12d8 50       		.byte	0x50
 9739 12d9 1A000000 		.4byte	.LVL16
 9740 12dd B6000000 		.4byte	.LVL28
 9741 12e1 0100     		.2byte	0x1
 9742 12e3 54       		.byte	0x54
 9743 12e4 B6000000 		.4byte	.LVL28
 9744 12e8 BF000000 		.4byte	.LVL29-1
 9745 12ec 0100     		.2byte	0x1
 9746 12ee 50       		.byte	0x50
 9747 12ef BF000000 		.4byte	.LVL29-1
 9748 12f3 E8000000 		.4byte	.LVL34
 9749 12f7 0100     		.2byte	0x1
 9750 12f9 54       		.byte	0x54
 9751 12fa E8000000 		.4byte	.LVL34
 9752 12fe EA000000 		.4byte	.LVL35
 9753 1302 0400     		.2byte	0x4
 9754 1304 F3       		.byte	0xf3
 9755 1305 01       		.uleb128 0x1
 9756 1306 50       		.byte	0x50
 9757 1307 9F       		.byte	0x9f
 9758 1308 EA000000 		.4byte	.LVL35
 9759 130c 08010000 		.4byte	.LFE40
 9760 1310 0100     		.2byte	0x1
 9761 1312 54       		.byte	0x54
 9762 1313 00000000 		.4byte	0
 9763 1317 00000000 		.4byte	0
 9764              	.LLST8:
 9765 131b 16000000 		.4byte	.LVL15
 9766 131f 1A000000 		.4byte	.LVL16
 9767 1323 0200     		.2byte	0x2
 9768 1325 30       		.byte	0x30
 9769 1326 9F       		.byte	0x9f
 9770 1327 B6000000 		.4byte	.LVL28
 9771 132b C4000000 		.4byte	.LVL30
 9772 132f 0200     		.2byte	0x2
 9773 1331 30       		.byte	0x30
 9774 1332 9F       		.byte	0x9f
 9775 1333 C4000000 		.4byte	.LVL30
 9776 1337 C8000000 		.4byte	.LVL31
 9777 133b 0100     		.2byte	0x1
 9778 133d 50       		.byte	0x50
 9779 133e C8000000 		.4byte	.LVL31
 9780 1342 DA000000 		.4byte	.LVL33
 9781 1346 0100     		.2byte	0x1
 9782 1348 57       		.byte	0x57
 9783 1349 00000000 		.4byte	0
 9784 134d 00000000 		.4byte	0
 9785              	.LLST9:
 9786 1351 76000000 		.4byte	.LVL21
 9787 1355 9E000000 		.4byte	.LVL26
 9788 1359 0100     		.2byte	0x1
 9789 135b 54       		.byte	0x54
ARM GAS  C:\Users\EBANO_~1\AppData\Local\Temp\cc8t01eQ.s 			page 212


 9790 135c 00000000 		.4byte	0
 9791 1360 00000000 		.4byte	0
 9792              	.LLST10:
 9793 1364 76000000 		.4byte	.LVL21
 9794 1368 88000000 		.4byte	.LVL23
 9795 136c 0200     		.2byte	0x2
 9796 136e 30       		.byte	0x30
 9797 136f 9F       		.byte	0x9f
 9798 1370 88000000 		.4byte	.LVL23
 9799 1374 8C000000 		.4byte	.LVL24
 9800 1378 0100     		.2byte	0x1
 9801 137a 50       		.byte	0x50
 9802 137b 8C000000 		.4byte	.LVL24
 9803 137f 9E000000 		.4byte	.LVL26
 9804 1383 0100     		.2byte	0x1
 9805 1385 57       		.byte	0x57
 9806 1386 00000000 		.4byte	0
 9807 138a 00000000 		.4byte	0
 9808              	.LLST0:
 9809 138e 00000000 		.4byte	.LFB39
 9810 1392 02000000 		.4byte	.LCFI0
 9811 1396 0200     		.2byte	0x2
 9812 1398 7D       		.byte	0x7d
 9813 1399 00       		.sleb128 0
 9814 139a 02000000 		.4byte	.LCFI0
 9815 139e BC000000 		.4byte	.LFE39
 9816 13a2 0200     		.2byte	0x2
 9817 13a4 7D       		.byte	0x7d
 9818 13a5 18       		.sleb128 24
 9819 13a6 00000000 		.4byte	0
 9820 13aa 00000000 		.4byte	0
 9821              	.LLST1:
 9822 13ae 00000000 		.4byte	.LVL1
 9823 13b2 10000000 		.4byte	.LVL2
 9824 13b6 0100     		.2byte	0x1
 9825 13b8 50       		.byte	0x50
 9826 13b9 10000000 		.4byte	.LVL2
 9827 13bd 84000000 		.4byte	.LVL6
 9828 13c1 0100     		.2byte	0x1
 9829 13c3 54       		.byte	0x54
 9830 13c4 84000000 		.4byte	.LVL6
 9831 13c8 86000000 		.4byte	.LVL7
 9832 13cc 0400     		.2byte	0x4
 9833 13ce F3       		.byte	0xf3
 9834 13cf 01       		.uleb128 0x1
 9835 13d0 50       		.byte	0x50
 9836 13d1 9F       		.byte	0x9f
 9837 13d2 86000000 		.4byte	.LVL7
 9838 13d6 AE000000 		.4byte	.LVL12
 9839 13da 0100     		.2byte	0x1
 9840 13dc 54       		.byte	0x54
 9841 13dd AE000000 		.4byte	.LVL12
 9842 13e1 B5000000 		.4byte	.LVL13-1
 9843 13e5 0100     		.2byte	0x1
 9844 13e7 50       		.byte	0x50
 9845 13e8 B5000000 		.4byte	.LVL13-1
 9846 13ec BC000000 		.4byte	.LFE39
ARM GAS  C:\Users\EBANO_~1\AppData\Local\Temp\cc8t01eQ.s 			page 213


 9847 13f0 0100     		.2byte	0x1
 9848 13f2 54       		.byte	0x54
 9849 13f3 00000000 		.4byte	0
 9850 13f7 00000000 		.4byte	0
 9851              	.LLST2:
 9852 13fb 20000000 		.4byte	.LVL3
 9853 13ff 76000000 		.4byte	.LVL5
 9854 1403 0100     		.2byte	0x1
 9855 1405 54       		.byte	0x54
 9856 1406 86000000 		.4byte	.LVL7
 9857 140a AE000000 		.4byte	.LVL12
 9858 140e 0100     		.2byte	0x1
 9859 1410 54       		.byte	0x54
 9860 1411 00000000 		.4byte	0
 9861 1415 00000000 		.4byte	0
 9862              	.LLST3:
 9863 1419 20000000 		.4byte	.LVL3
 9864 141d 26000000 		.4byte	.LVL4
 9865 1421 0200     		.2byte	0x2
 9866 1423 30       		.byte	0x30
 9867 1424 9F       		.byte	0x9f
 9868 1425 86000000 		.4byte	.LVL7
 9869 1429 94000000 		.4byte	.LVL9
 9870 142d 0200     		.2byte	0x2
 9871 142f 30       		.byte	0x30
 9872 1430 9F       		.byte	0x9f
 9873 1431 94000000 		.4byte	.LVL9
 9874 1435 9A000000 		.4byte	.LVL10
 9875 1439 0100     		.2byte	0x1
 9876 143b 50       		.byte	0x50
 9877 143c 9A000000 		.4byte	.LVL10
 9878 1440 AE000000 		.4byte	.LVL12
 9879 1444 0100     		.2byte	0x1
 9880 1446 57       		.byte	0x57
 9881 1447 00000000 		.4byte	0
 9882 144b 00000000 		.4byte	0
 9883              	.LLST95:
 9884 144f 00000000 		.4byte	.LFB54
 9885 1453 06000000 		.4byte	.LCFI18
 9886 1457 0200     		.2byte	0x2
 9887 1459 7D       		.byte	0x7d
 9888 145a 00       		.sleb128 0
 9889 145b 06000000 		.4byte	.LCFI18
 9890 145f 36000000 		.4byte	.LFE54
 9891 1463 0200     		.2byte	0x2
 9892 1465 7D       		.byte	0x7d
 9893 1466 18       		.sleb128 24
 9894 1467 00000000 		.4byte	0
 9895 146b 00000000 		.4byte	0
 9896              	.LLST96:
 9897 146f 00000000 		.4byte	.LVL287
 9898 1473 11000000 		.4byte	.LVL288-1
 9899 1477 0100     		.2byte	0x1
 9900 1479 50       		.byte	0x50
 9901 147a 11000000 		.4byte	.LVL288-1
 9902 147e 30000000 		.4byte	.LVL292
 9903 1482 0100     		.2byte	0x1
ARM GAS  C:\Users\EBANO_~1\AppData\Local\Temp\cc8t01eQ.s 			page 214


 9904 1484 54       		.byte	0x54
 9905 1485 30000000 		.4byte	.LVL292
 9906 1489 32000000 		.4byte	.LVL294
 9907 148d 0400     		.2byte	0x4
 9908 148f F3       		.byte	0xf3
 9909 1490 01       		.uleb128 0x1
 9910 1491 50       		.byte	0x50
 9911 1492 9F       		.byte	0x9f
 9912 1493 32000000 		.4byte	.LVL294
 9913 1497 36000000 		.4byte	.LFE54
 9914 149b 0100     		.2byte	0x1
 9915 149d 54       		.byte	0x54
 9916 149e 00000000 		.4byte	0
 9917 14a2 00000000 		.4byte	0
 9918              	.LLST97:
 9919 14a6 00000000 		.4byte	.LVL287
 9920 14aa 16000000 		.4byte	.LVL289
 9921 14ae 0200     		.2byte	0x2
 9922 14b0 30       		.byte	0x30
 9923 14b1 9F       		.byte	0x9f
 9924 14b2 16000000 		.4byte	.LVL289
 9925 14b6 1C000000 		.4byte	.LVL290
 9926 14ba 0100     		.2byte	0x1
 9927 14bc 50       		.byte	0x50
 9928 14bd 1C000000 		.4byte	.LVL290
 9929 14c1 30000000 		.4byte	.LVL293
 9930 14c5 0100     		.2byte	0x1
 9931 14c7 57       		.byte	0x57
 9932 14c8 32000000 		.4byte	.LVL294
 9933 14cc 36000000 		.4byte	.LFE54
 9934 14d0 0100     		.2byte	0x1
 9935 14d2 57       		.byte	0x57
 9936 14d3 00000000 		.4byte	0
 9937 14d7 00000000 		.4byte	0
 9938              	.LLST99:
 9939 14db 00000000 		.4byte	.LFB56
 9940 14df 02000000 		.4byte	.LCFI19
 9941 14e3 0200     		.2byte	0x2
 9942 14e5 7D       		.byte	0x7d
 9943 14e6 00       		.sleb128 0
 9944 14e7 02000000 		.4byte	.LCFI19
 9945 14eb 3C000000 		.4byte	.LFE56
 9946 14ef 0200     		.2byte	0x2
 9947 14f1 7D       		.byte	0x7d
 9948 14f2 18       		.sleb128 24
 9949 14f3 00000000 		.4byte	0
 9950 14f7 00000000 		.4byte	0
 9951              	.LLST100:
 9952 14fb 00000000 		.4byte	.LVL297
 9953 14ff 0C000000 		.4byte	.LVL298
 9954 1503 0100     		.2byte	0x1
 9955 1505 50       		.byte	0x50
 9956 1506 0C000000 		.4byte	.LVL298
 9957 150a 0E000000 		.4byte	.LVL299
 9958 150e 0100     		.2byte	0x1
 9959 1510 54       		.byte	0x54
 9960 1511 0E000000 		.4byte	.LVL299
ARM GAS  C:\Users\EBANO_~1\AppData\Local\Temp\cc8t01eQ.s 			page 215


 9961 1515 10000000 		.4byte	.LVL300
 9962 1519 0400     		.2byte	0x4
 9963 151b F3       		.byte	0xf3
 9964 151c 01       		.uleb128 0x1
 9965 151d 50       		.byte	0x50
 9966 151e 9F       		.byte	0x9f
 9967 151f 10000000 		.4byte	.LVL300
 9968 1523 19000000 		.4byte	.LVL301-1
 9969 1527 0100     		.2byte	0x1
 9970 1529 50       		.byte	0x50
 9971 152a 19000000 		.4byte	.LVL301-1
 9972 152e 3C000000 		.4byte	.LFE56
 9973 1532 0100     		.2byte	0x1
 9974 1534 54       		.byte	0x54
 9975 1535 00000000 		.4byte	0
 9976 1539 00000000 		.4byte	0
 9977              	.LLST101:
 9978 153d 00000000 		.4byte	.LVL297
 9979 1541 0C000000 		.4byte	.LVL298
 9980 1545 0200     		.2byte	0x2
 9981 1547 30       		.byte	0x30
 9982 1548 9F       		.byte	0x9f
 9983 1549 10000000 		.4byte	.LVL300
 9984 154d 1E000000 		.4byte	.LVL302
 9985 1551 0200     		.2byte	0x2
 9986 1553 30       		.byte	0x30
 9987 1554 9F       		.byte	0x9f
 9988 1555 1E000000 		.4byte	.LVL302
 9989 1559 24000000 		.4byte	.LVL303
 9990 155d 0100     		.2byte	0x1
 9991 155f 50       		.byte	0x50
 9992 1560 24000000 		.4byte	.LVL303
 9993 1564 3C000000 		.4byte	.LFE56
 9994 1568 0100     		.2byte	0x1
 9995 156a 57       		.byte	0x57
 9996 156b 00000000 		.4byte	0
 9997 156f 00000000 		.4byte	0
 9998              	.LLST102:
 9999 1573 00000000 		.4byte	.LVL305
 10000 1577 08000000 		.4byte	.LVL307
 10001 157b 0100     		.2byte	0x1
 10002 157d 50       		.byte	0x50
 10003 157e 0C000000 		.4byte	.LVL308
 10004 1582 16000000 		.4byte	.LVL310
 10005 1586 0100     		.2byte	0x1
 10006 1588 50       		.byte	0x50
 10007 1589 00000000 		.4byte	0
 10008 158d 00000000 		.4byte	0
 10009              	.LLST103:
 10010 1591 00000000 		.4byte	.LVL305
 10011 1595 06000000 		.4byte	.LVL306
 10012 1599 0200     		.2byte	0x2
 10013 159b 30       		.byte	0x30
 10014 159c 9F       		.byte	0x9f
 10015 159d 06000000 		.4byte	.LVL306
 10016 15a1 12000000 		.4byte	.LVL309
 10017 15a5 0100     		.2byte	0x1
ARM GAS  C:\Users\EBANO_~1\AppData\Local\Temp\cc8t01eQ.s 			page 216


 10018 15a7 53       		.byte	0x53
 10019 15a8 00000000 		.4byte	0
 10020 15ac 00000000 		.4byte	0
 10021              	.LLST104:
 10022 15b0 00000000 		.4byte	.LVL311
 10023 15b4 04000000 		.4byte	.LVL312
 10024 15b8 0100     		.2byte	0x1
 10025 15ba 50       		.byte	0x50
 10026 15bb 04000000 		.4byte	.LVL312
 10027 15bf 14000000 		.4byte	.LFE58
 10028 15c3 0400     		.2byte	0x4
 10029 15c5 F3       		.byte	0xf3
 10030 15c6 01       		.uleb128 0x1
 10031 15c7 50       		.byte	0x50
 10032 15c8 9F       		.byte	0x9f
 10033 15c9 00000000 		.4byte	0
 10034 15cd 00000000 		.4byte	0
 10035              	.LLST105:
 10036 15d1 00000000 		.4byte	.LVL311
 10037 15d5 04000000 		.4byte	.LVL312
 10038 15d9 0A00     		.2byte	0xa
 10039 15db 70       		.byte	0x70
 10040 15dc 00       		.sleb128 0
 10041 15dd 34       		.byte	0x34
 10042 15de 25       		.byte	0x25
 10043 15df 08       		.byte	0x8
 10044 15e0 FF       		.byte	0xff
 10045 15e1 1A       		.byte	0x1a
 10046 15e2 3A       		.byte	0x3a
 10047 15e3 1E       		.byte	0x1e
 10048 15e4 9F       		.byte	0x9f
 10049 15e5 04000000 		.4byte	.LVL312
 10050 15e9 14000000 		.4byte	.LFE58
 10051 15ed 0B00     		.2byte	0xb
 10052 15ef F3       		.byte	0xf3
 10053 15f0 01       		.uleb128 0x1
 10054 15f1 50       		.byte	0x50
 10055 15f2 34       		.byte	0x34
 10056 15f3 25       		.byte	0x25
 10057 15f4 08       		.byte	0x8
 10058 15f5 FF       		.byte	0xff
 10059 15f6 1A       		.byte	0x1a
 10060 15f7 3A       		.byte	0x3a
 10061 15f8 1E       		.byte	0x1e
 10062 15f9 9F       		.byte	0x9f
 10063 15fa 00000000 		.4byte	0
 10064 15fe 00000000 		.4byte	0
 10065              		.section	.debug_aranges,"",%progbits
 10066 0000 A4000000 		.4byte	0xa4
 10067 0004 0200     		.2byte	0x2
 10068 0006 00000000 		.4byte	.Ldebug_info0
 10069 000a 04       		.byte	0x4
 10070 000b 00       		.byte	0
 10071 000c 0000     		.2byte	0
 10072 000e 0000     		.2byte	0
 10073 0010 00000000 		.4byte	.LFB41
 10074 0014 02000000 		.4byte	.LFE41-.LFB41
ARM GAS  C:\Users\EBANO_~1\AppData\Local\Temp\cc8t01eQ.s 			page 217


 10075 0018 00000000 		.4byte	.LFB39
 10076 001c BC000000 		.4byte	.LFE39-.LFB39
 10077 0020 00000000 		.4byte	.LFB40
 10078 0024 08010000 		.4byte	.LFE40-.LFB40
 10079 0028 00000000 		.4byte	.LFB43
 10080 002c A4010000 		.4byte	.LFE43-.LFB43
 10081 0030 00000000 		.4byte	.LFB44
 10082 0034 68000000 		.4byte	.LFE44-.LFB44
 10083 0038 00000000 		.4byte	.LFB45
 10084 003c 60010000 		.4byte	.LFE45-.LFB45
 10085 0040 00000000 		.4byte	.LFB46
 10086 0044 5C000000 		.4byte	.LFE46-.LFB46
 10087 0048 00000000 		.4byte	.LFB47
 10088 004c E4010000 		.4byte	.LFE47-.LFB47
 10089 0050 00000000 		.4byte	.LFB48
 10090 0054 18020000 		.4byte	.LFE48-.LFB48
 10091 0058 00000000 		.4byte	.LFB49
 10092 005c D0000000 		.4byte	.LFE49-.LFB49
 10093 0060 00000000 		.4byte	.LFB50
 10094 0064 C8000000 		.4byte	.LFE50-.LFB50
 10095 0068 00000000 		.4byte	.LFB51
 10096 006c 64000000 		.4byte	.LFE51-.LFB51
 10097 0070 00000000 		.4byte	.LFB53
 10098 0074 58000000 		.4byte	.LFE53-.LFB53
 10099 0078 00000000 		.4byte	.LFB54
 10100 007c 36000000 		.4byte	.LFE54-.LFB54
 10101 0080 00000000 		.4byte	.LFB55
 10102 0084 08000000 		.4byte	.LFE55-.LFB55
 10103 0088 00000000 		.4byte	.LFB56
 10104 008c 3C000000 		.4byte	.LFE56-.LFB56
 10105 0090 00000000 		.4byte	.LFB57
 10106 0094 18000000 		.4byte	.LFE57-.LFB57
 10107 0098 00000000 		.4byte	.LFB58
 10108 009c 14000000 		.4byte	.LFE58-.LFB58
 10109 00a0 00000000 		.4byte	0
 10110 00a4 00000000 		.4byte	0
 10111              		.section	.debug_ranges,"",%progbits
 10112              	.Ldebug_ranges0:
 10113 0000 20000000 		.4byte	.LBB70
 10114 0004 26000000 		.4byte	.LBE70
 10115 0008 86000000 		.4byte	.LBB73
 10116 000c AE000000 		.4byte	.LBE73
 10117 0010 00000000 		.4byte	0
 10118 0014 00000000 		.4byte	0
 10119 0018 12000000 		.4byte	.LBB78
 10120 001c 14000000 		.4byte	.LBE78
 10121 0020 16000000 		.4byte	.LBB82
 10122 0024 1A000000 		.4byte	.LBE82
 10123 0028 B6000000 		.4byte	.LBB85
 10124 002c DA000000 		.4byte	.LBE85
 10125 0030 00000000 		.4byte	0
 10126 0034 00000000 		.4byte	0
 10127 0038 50000000 		.4byte	.LBB96
 10128 003c 52000000 		.4byte	.LBE96
 10129 0040 54000000 		.4byte	.LBB100
 10130 0044 58000000 		.4byte	.LBE100
 10131 0048 06010000 		.4byte	.LBB108
ARM GAS  C:\Users\EBANO_~1\AppData\Local\Temp\cc8t01eQ.s 			page 218


 10132 004c 38010000 		.4byte	.LBE108
 10133 0050 00000000 		.4byte	0
 10134 0054 00000000 		.4byte	0
 10135 0058 E2000000 		.4byte	.LBB105
 10136 005c F4000000 		.4byte	.LBE105
 10137 0060 96010000 		.4byte	.LBB111
 10138 0064 A4010000 		.4byte	.LBE111
 10139 0068 00000000 		.4byte	0
 10140 006c 00000000 		.4byte	0
 10141 0070 4C000000 		.4byte	.LBB116
 10142 0074 4E000000 		.4byte	.LBE116
 10143 0078 50000000 		.4byte	.LBB119
 10144 007c 5A000000 		.4byte	.LBE119
 10145 0080 00000000 		.4byte	0
 10146 0084 00000000 		.4byte	0
 10147 0088 3E000000 		.4byte	.LBB130
 10148 008c 40000000 		.4byte	.LBE130
 10149 0090 42000000 		.4byte	.LBB134
 10150 0094 46000000 		.4byte	.LBE134
 10151 0098 D6000000 		.4byte	.LBB142
 10152 009c 04010000 		.4byte	.LBE142
 10153 00a0 00000000 		.4byte	0
 10154 00a4 00000000 		.4byte	0
 10155 00a8 B2000000 		.4byte	.LBB139
 10156 00ac C4000000 		.4byte	.LBE139
 10157 00b0 58010000 		.4byte	.LBB145
 10158 00b4 60010000 		.4byte	.LBE145
 10159 00b8 00000000 		.4byte	0
 10160 00bc 00000000 		.4byte	0
 10161 00c0 26000000 		.4byte	.LBB146
 10162 00c4 32000000 		.4byte	.LBE146
 10163 00c8 34000000 		.4byte	.LBB155
 10164 00cc 36000000 		.4byte	.LBE155
 10165 00d0 00000000 		.4byte	0
 10166 00d4 00000000 		.4byte	0
 10167 00d8 32000000 		.4byte	.LBB149
 10168 00dc 34000000 		.4byte	.LBE149
 10169 00e0 36000000 		.4byte	.LBB156
 10170 00e4 38000000 		.4byte	.LBE156
 10171 00e8 3C000000 		.4byte	.LBB162
 10172 00ec 3E000000 		.4byte	.LBE162
 10173 00f0 42000000 		.4byte	.LBB164
 10174 00f4 46000000 		.4byte	.LBE164
 10175 00f8 4A000000 		.4byte	.LBB166
 10176 00fc 4C000000 		.4byte	.LBE166
 10177 0100 00000000 		.4byte	0
 10178 0104 00000000 		.4byte	0
 10179 0108 3A000000 		.4byte	.LBB157
 10180 010c 3C000000 		.4byte	.LBE157
 10181 0110 3E000000 		.4byte	.LBB163
 10182 0114 42000000 		.4byte	.LBE163
 10183 0118 46000000 		.4byte	.LBB165
 10184 011c 4A000000 		.4byte	.LBE165
 10185 0120 4C000000 		.4byte	.LBB167
 10186 0124 4E000000 		.4byte	.LBE167
 10187 0128 00000000 		.4byte	0
 10188 012c 00000000 		.4byte	0
ARM GAS  C:\Users\EBANO_~1\AppData\Local\Temp\cc8t01eQ.s 			page 219


 10189 0130 18010000 		.4byte	.LBB172
 10190 0134 2E010000 		.4byte	.LBE172
 10191 0138 D0010000 		.4byte	.LBB179
 10192 013c E4010000 		.4byte	.LBE179
 10193 0140 00000000 		.4byte	0
 10194 0144 00000000 		.4byte	0
 10195 0148 38010000 		.4byte	.LBB175
 10196 014c 4A010000 		.4byte	.LBE175
 10197 0150 CC010000 		.4byte	.LBB178
 10198 0154 D0010000 		.4byte	.LBE178
 10199 0158 00000000 		.4byte	0
 10200 015c 00000000 		.4byte	0
 10201 0160 3A010000 		.4byte	.LBB184
 10202 0164 50010000 		.4byte	.LBE184
 10203 0168 00020000 		.4byte	.LBB191
 10204 016c 18020000 		.4byte	.LBE191
 10205 0170 00000000 		.4byte	0
 10206 0174 00000000 		.4byte	0
 10207 0178 5A010000 		.4byte	.LBB187
 10208 017c 6C010000 		.4byte	.LBE187
 10209 0180 FC010000 		.4byte	.LBB190
 10210 0184 00020000 		.4byte	.LBE190
 10211 0188 00000000 		.4byte	0
 10212 018c 00000000 		.4byte	0
 10213 0190 72000000 		.4byte	.LBB194
 10214 0194 74000000 		.4byte	.LBE194
 10215 0198 76000000 		.4byte	.LBB197
 10216 019c 80000000 		.4byte	.LBE197
 10217 01a0 00000000 		.4byte	0
 10218 01a4 00000000 		.4byte	0
 10219 01a8 00000000 		.4byte	.LFB41
 10220 01ac 02000000 		.4byte	.LFE41
 10221 01b0 00000000 		.4byte	.LFB39
 10222 01b4 BC000000 		.4byte	.LFE39
 10223 01b8 00000000 		.4byte	.LFB40
 10224 01bc 08010000 		.4byte	.LFE40
 10225 01c0 00000000 		.4byte	.LFB43
 10226 01c4 A4010000 		.4byte	.LFE43
 10227 01c8 00000000 		.4byte	.LFB44
 10228 01cc 68000000 		.4byte	.LFE44
 10229 01d0 00000000 		.4byte	.LFB45
 10230 01d4 60010000 		.4byte	.LFE45
 10231 01d8 00000000 		.4byte	.LFB46
 10232 01dc 5C000000 		.4byte	.LFE46
 10233 01e0 00000000 		.4byte	.LFB47
 10234 01e4 E4010000 		.4byte	.LFE47
 10235 01e8 00000000 		.4byte	.LFB48
 10236 01ec 18020000 		.4byte	.LFE48
 10237 01f0 00000000 		.4byte	.LFB49
 10238 01f4 D0000000 		.4byte	.LFE49
 10239 01f8 00000000 		.4byte	.LFB50
 10240 01fc C8000000 		.4byte	.LFE50
 10241 0200 00000000 		.4byte	.LFB51
 10242 0204 64000000 		.4byte	.LFE51
 10243 0208 00000000 		.4byte	.LFB53
 10244 020c 58000000 		.4byte	.LFE53
 10245 0210 00000000 		.4byte	.LFB54
ARM GAS  C:\Users\EBANO_~1\AppData\Local\Temp\cc8t01eQ.s 			page 220


 10246 0214 36000000 		.4byte	.LFE54
 10247 0218 00000000 		.4byte	.LFB55
 10248 021c 08000000 		.4byte	.LFE55
 10249 0220 00000000 		.4byte	.LFB56
 10250 0224 3C000000 		.4byte	.LFE56
 10251 0228 00000000 		.4byte	.LFB57
 10252 022c 18000000 		.4byte	.LFE57
 10253 0230 00000000 		.4byte	.LFB58
 10254 0234 14000000 		.4byte	.LFE58
 10255 0238 00000000 		.4byte	0
 10256 023c 00000000 		.4byte	0
 10257              		.section	.debug_line,"",%progbits
 10258              	.Ldebug_line0:
 10259 0000 FF080000 		.section	.debug_str,"MS",%progbits,1
 10259      0200C402 
 10259      00000201 
 10259      FB0E0D00 
 10259      01010101 
 10260              	.LASF191:
 10261 0000 416C6172 		.ascii	"AlarmSubSecondMask\000"
 10261      6D537562 
 10261      5365636F 
 10261      6E644D61 
 10261      736B00
 10262              	.LASF150:
 10263 0013 5F5F6C6F 		.ascii	"__locale_t\000"
 10263      63616C65 
 10263      5F7400
 10264              	.LASF27:
 10265 001e 54535452 		.ascii	"TSTR\000"
 10265      00
 10266              	.LASF49:
 10267 0023 5F5F7661 		.ascii	"__value\000"
 10267      6C756500 
 10268              	.LASF117:
 10269 002b 5F5F7366 		.ascii	"__sf\000"
 10269      00
 10270              	.LASF157:
 10271 0030 48414C5F 		.ascii	"HAL_StatusTypeDef\000"
 10271      53746174 
 10271      75735479 
 10271      70654465 
 10271      6600
 10272              	.LASF84:
 10273 0042 5F726561 		.ascii	"_read\000"
 10273      6400
 10274              	.LASF36:
 10275 0048 424B5032 		.ascii	"BKP2R\000"
 10275      5200
 10276              	.LASF85:
 10277 004e 5F777269 		.ascii	"_write\000"
 10277      746500
 10278              	.LASF234:
 10279 0055 2E2E2F2E 		.ascii	"../../../../../../Drivers/STM32L0xx_HAL_Driver/Src/"
 10279      2E2F2E2E 
 10279      2F2E2E2F 
 10279      2E2E2F2E 
ARM GAS  C:\Users\EBANO_~1\AppData\Local\Temp\cc8t01eQ.s 			page 221


 10279      2E2F4472 
 10280 0088 73746D33 		.ascii	"stm32l0xx_hal_rtc.c\000"
 10280      326C3078 
 10280      785F6861 
 10280      6C5F7274 
 10280      632E6300 
 10281              	.LASF129:
 10282 009c 5F617363 		.ascii	"_asctime_buf\000"
 10282      74696D65 
 10282      5F627566 
 10282      00
 10283              	.LASF111:
 10284 00a9 5F637674 		.ascii	"_cvtlen\000"
 10284      6C656E00 
 10285              	.LASF163:
 10286 00b1 48414C5F 		.ascii	"HAL_RTC_STATE_BUSY\000"
 10286      5254435F 
 10286      53544154 
 10286      455F4255 
 10286      535900
 10287              	.LASF148:
 10288 00c4 5F756E75 		.ascii	"_unused\000"
 10288      73656400 
 10289              	.LASF58:
 10290 00cc 5F5F746D 		.ascii	"__tm\000"
 10290      00
 10291              	.LASF144:
 10292 00d1 5F776373 		.ascii	"_wcsrtombs_state\000"
 10292      72746F6D 
 10292      62735F73 
 10292      74617465 
 10292      00
 10293              	.LASF89:
 10294 00e2 5F6E6275 		.ascii	"_nbuf\000"
 10294      6600
 10295              	.LASF59:
 10296 00e8 5F5F746D 		.ascii	"__tm_sec\000"
 10296      5F736563 
 10296      00
 10297              	.LASF137:
 10298 00f1 5F6C3634 		.ascii	"_l64a_buf\000"
 10298      615F6275 
 10298      6600
 10299              	.LASF37:
 10300 00fb 424B5033 		.ascii	"BKP3R\000"
 10300      5200
 10301              	.LASF226:
 10302 0101 48414C5F 		.ascii	"HAL_RTC_SetTime\000"
 10302      5254435F 
 10302      53657454 
 10302      696D6500 
 10303              	.LASF228:
 10304 0111 48414C5F 		.ascii	"HAL_RTC_MspDeInit\000"
 10304      5254435F 
 10304      4D737044 
 10304      65496E69 
 10304      7400
ARM GAS  C:\Users\EBANO_~1\AppData\Local\Temp\cc8t01eQ.s 			page 222


 10305              	.LASF93:
 10306 0123 5F6C6F63 		.ascii	"_lock\000"
 10306      6B00
 10307              	.LASF125:
 10308 0129 5F6D756C 		.ascii	"_mult\000"
 10308      7400
 10309              	.LASF38:
 10310 012f 424B5034 		.ascii	"BKP4R\000"
 10310      5200
 10311              	.LASF161:
 10312 0135 48414C5F 		.ascii	"HAL_RTC_STATE_RESET\000"
 10312      5254435F 
 10312      53544154 
 10312      455F5245 
 10312      53455400 
 10313              	.LASF18:
 10314 0149 46545352 		.ascii	"FTSR\000"
 10314      00
 10315              	.LASF178:
 10316 014e 54696D65 		.ascii	"TimeFormat\000"
 10316      466F726D 
 10316      617400
 10317              	.LASF46:
 10318 0159 5F5F7763 		.ascii	"__wch\000"
 10318      6800
 10319              	.LASF198:
 10320 015f 4C6F636B 		.ascii	"Lock\000"
 10320      00
 10321              	.LASF5:
 10322 0164 5F5F7569 		.ascii	"__uint8_t\000"
 10322      6E74385F 
 10322      7400
 10323              	.LASF81:
 10324 016e 5F66696C 		.ascii	"_file\000"
 10324      6500
 10325              	.LASF68:
 10326 0174 5F6F6E5F 		.ascii	"_on_exit_args\000"
 10326      65786974 
 10326      5F617267 
 10326      7300
 10327              	.LASF182:
 10328 0182 53746F72 		.ascii	"StoreOperation\000"
 10328      654F7065 
 10328      72617469 
 10328      6F6E00
 10329              	.LASF140:
 10330 0191 5F6D6272 		.ascii	"_mbrlen_state\000"
 10330      6C656E5F 
 10330      73746174 
 10330      6500
 10331              	.LASF4:
 10332 019f 6C6F6E67 		.ascii	"long int\000"
 10332      20696E74 
 10332      00
 10333              	.LASF151:
 10334 01a8 5F696D70 		.ascii	"_impure_ptr\000"
 10334      7572655F 
ARM GAS  C:\Users\EBANO_~1\AppData\Local\Temp\cc8t01eQ.s 			page 223


 10334      70747200 
 10335              	.LASF108:
 10336 01b4 5F726573 		.ascii	"_result_k\000"
 10336      756C745F 
 10336      6B00
 10337              	.LASF78:
 10338 01be 5F73697A 		.ascii	"_size\000"
 10338      6500
 10339              	.LASF130:
 10340 01c4 5F6C6F63 		.ascii	"_localtime_buf\000"
 10340      616C7469 
 10340      6D655F62 
 10340      756600
 10341              	.LASF17:
 10342 01d3 52545352 		.ascii	"RTSR\000"
 10342      00
 10343              	.LASF207:
 10344 01d8 7469636B 		.ascii	"tickstart\000"
 10344      73746172 
 10344      7400
 10345              	.LASF20:
 10346 01e2 45585449 		.ascii	"EXTI_TypeDef\000"
 10346      5F547970 
 10346      65446566 
 10346      00
 10347              	.LASF63:
 10348 01ef 5F5F746D 		.ascii	"__tm_mon\000"
 10348      5F6D6F6E 
 10348      00
 10349              	.LASF160:
 10350 01f8 48414C5F 		.ascii	"HAL_LockTypeDef\000"
 10350      4C6F636B 
 10350      54797065 
 10350      44656600 
 10351              	.LASF209:
 10352 0208 48414C5F 		.ascii	"HAL_RTC_GetState\000"
 10352      5254435F 
 10352      47657453 
 10352      74617465 
 10352      00
 10353              	.LASF127:
 10354 0219 5F756E75 		.ascii	"_unused_rand\000"
 10354      7365645F 
 10354      72616E64 
 10354      00
 10355              	.LASF0:
 10356 0226 7369676E 		.ascii	"signed char\000"
 10356      65642063 
 10356      68617200 
 10357              	.LASF222:
 10358 0232 64617465 		.ascii	"datetmpreg\000"
 10358      746D7072 
 10358      656700
 10359              	.LASF11:
 10360 023d 75696E74 		.ascii	"uint8_t\000"
 10360      385F7400 
 10361              	.LASF153:
ARM GAS  C:\Users\EBANO_~1\AppData\Local\Temp\cc8t01eQ.s 			page 224


 10362 0245 48414C5F 		.ascii	"HAL_OK\000"
 10362      4F4B00
 10363              	.LASF204:
 10364 024c 62636468 		.ascii	"bcdhigh\000"
 10364      69676800 
 10365              	.LASF1:
 10366 0254 756E7369 		.ascii	"unsigned char\000"
 10366      676E6564 
 10366      20636861 
 10366      7200
 10367              	.LASF103:
 10368 0262 5F756E73 		.ascii	"_unspecified_locale_info\000"
 10368      70656369 
 10368      66696564 
 10368      5F6C6F63 
 10368      616C655F 
 10369              	.LASF96:
 10370 027b 5F726565 		.ascii	"_reent\000"
 10370      6E7400
 10371              	.LASF152:
 10372 0282 5F676C6F 		.ascii	"_global_impure_ptr\000"
 10372      62616C5F 
 10372      696D7075 
 10372      72655F70 
 10372      747200
 10373              	.LASF211:
 10374 0295 54696D65 		.ascii	"Timeout\000"
 10374      6F757400 
 10375              	.LASF201:
 10376 029d 5254435F 		.ascii	"RTC_Bcd2ToByte\000"
 10376      42636432 
 10376      546F4279 
 10376      746500
 10377              	.LASF118:
 10378 02ac 63686172 		.ascii	"char\000"
 10378      00
 10379              	.LASF75:
 10380 02b1 5F666E73 		.ascii	"_fns\000"
 10380      00
 10381              	.LASF87:
 10382 02b6 5F636C6F 		.ascii	"_close\000"
 10382      736500
 10383              	.LASF169:
 10384 02bd 53796E63 		.ascii	"SynchPrediv\000"
 10384      68507265 
 10384      64697600 
 10385              	.LASF235:
 10386 02c9 443A5C67 		.ascii	"D:\\git_pessoal\\keil_gcc\\STM32CubeExpansion_LRWAN"
 10386      69745F70 
 10386      6573736F 
 10386      616C5C6B 
 10386      65696C5F 
 10387 02f9 5F56312E 		.ascii	"_V1.2.1\\Projects\\B-L072Z-LRWAN1\\Applications\\Lo"
 10387      322E315C 
 10387      50726F6A 
 10387      65637473 
 10387      5C422D4C 
ARM GAS  C:\Users\EBANO_~1\AppData\Local\Temp\cc8t01eQ.s 			page 225


 10388 0328 52615C45 		.ascii	"Ra\\End_Node\\MDK-ARM\000"
 10388      6E645F4E 
 10388      6F64655C 
 10388      4D444B2D 
 10388      41524D00 
 10389              	.LASF225:
 10390 033c 7354696D 		.ascii	"sTime\000"
 10390      6500
 10391              	.LASF98:
 10392 0342 5F737464 		.ascii	"_stdin\000"
 10392      696E00
 10393              	.LASF21:
 10394 0349 50524552 		.ascii	"PRER\000"
 10394      00
 10395              	.LASF177:
 10396 034e 5365636F 		.ascii	"Seconds\000"
 10396      6E647300 
 10397              	.LASF174:
 10398 0356 5254435F 		.ascii	"RTC_InitTypeDef\000"
 10398      496E6974 
 10398      54797065 
 10398      44656600 
 10399              	.LASF167:
 10400 0366 486F7572 		.ascii	"HourFormat\000"
 10400      466F726D 
 10400      617400
 10401              	.LASF231:
 10402 0371 48414C5F 		.ascii	"HAL_GetTick\000"
 10402      47657454 
 10402      69636B00 
 10403              	.LASF176:
 10404 037d 4D696E75 		.ascii	"Minutes\000"
 10404      74657300 
 10405              	.LASF23:
 10406 0385 52455345 		.ascii	"RESERVED\000"
 10406      52564544 
 10406      00
 10407              	.LASF83:
 10408 038e 5F636F6F 		.ascii	"_cookie\000"
 10408      6B696500 
 10409              	.LASF56:
 10410 0396 5F776473 		.ascii	"_wds\000"
 10410      00
 10411              	.LASF168:
 10412 039b 4173796E 		.ascii	"AsynchPrediv\000"
 10412      63685072 
 10412      65646976 
 10412      00
 10413              	.LASF149:
 10414 03a8 5F5F6C6F 		.ascii	"__lock\000"
 10414      636B00
 10415              	.LASF179:
 10416 03af 53756253 		.ascii	"SubSeconds\000"
 10416      65636F6E 
 10416      647300
 10417              	.LASF115:
 10418 03ba 5F736967 		.ascii	"_sig_func\000"
ARM GAS  C:\Users\EBANO_~1\AppData\Local\Temp\cc8t01eQ.s 			page 226


 10418      5F66756E 
 10418      6300
 10419              	.LASF91:
 10420 03c4 5F6F6666 		.ascii	"_offset\000"
 10420      73657400 
 10421              	.LASF16:
 10422 03cc 504C4C4D 		.ascii	"PLLMulTable\000"
 10422      756C5461 
 10422      626C6500 
 10423              	.LASF112:
 10424 03d8 5F637674 		.ascii	"_cvtbuf\000"
 10424      62756600 
 10425              	.LASF196:
 10426 03e0 496E7374 		.ascii	"Instance\000"
 10426      616E6365 
 10426      00
 10427              	.LASF194:
 10428 03e9 416C6172 		.ascii	"Alarm\000"
 10428      6D00
 10429              	.LASF230:
 10430 03ef 48414C5F 		.ascii	"HAL_RTC_Init\000"
 10430      5254435F 
 10430      496E6974 
 10430      00
 10431              	.LASF109:
 10432 03fc 5F703573 		.ascii	"_p5s\000"
 10432      00
 10433              	.LASF7:
 10434 0401 6C6F6E67 		.ascii	"long unsigned int\000"
 10434      20756E73 
 10434      69676E65 
 10434      6420696E 
 10434      7400
 10435              	.LASF39:
 10436 0413 5254435F 		.ascii	"RTC_TypeDef\000"
 10436      54797065 
 10436      44656600 
 10437              	.LASF79:
 10438 041f 5F5F7346 		.ascii	"__sFILE\000"
 10438      494C4500 
 10439              	.LASF105:
 10440 0427 5F5F7364 		.ascii	"__sdidinit\000"
 10440      6964696E 
 10440      697400
 10441              	.LASF95:
 10442 0432 5F666C61 		.ascii	"_flags2\000"
 10442      67733200 
 10443              	.LASF206:
 10444 043a 68727463 		.ascii	"hrtc\000"
 10444      00
 10445              	.LASF13:
 10446 043f 53797374 		.ascii	"SystemCoreClock\000"
 10446      656D436F 
 10446      7265436C 
 10446      6F636B00 
 10447              	.LASF180:
 10448 044f 5365636F 		.ascii	"SecondFraction\000"
ARM GAS  C:\Users\EBANO_~1\AppData\Local\Temp\cc8t01eQ.s 			page 227


 10448      6E644672 
 10448      61637469 
 10448      6F6E00
 10449              	.LASF97:
 10450 045e 5F657272 		.ascii	"_errno\000"
 10450      6E6F00
 10451              	.LASF162:
 10452 0465 48414C5F 		.ascii	"HAL_RTC_STATE_READY\000"
 10452      5254435F 
 10452      53544154 
 10452      455F5245 
 10452      41445900 
 10453              	.LASF138:
 10454 0479 5F736967 		.ascii	"_signal_buf\000"
 10454      6E616C5F 
 10454      62756600 
 10455              	.LASF57:
 10456 0485 5F426967 		.ascii	"_Bigint\000"
 10456      696E7400 
 10457              	.LASF54:
 10458 048d 5F6D6178 		.ascii	"_maxwds\000"
 10458      77647300 
 10459              	.LASF106:
 10460 0495 5F5F636C 		.ascii	"__cleanup\000"
 10460      65616E75 
 10460      7000
 10461              	.LASF114:
 10462 049f 5F617465 		.ascii	"_atexit0\000"
 10462      78697430 
 10462      00
 10463              	.LASF214:
 10464 04a8 466F726D 		.ascii	"Format\000"
 10464      617400
 10465              	.LASF202:
 10466 04af 5254435F 		.ascii	"RTC_ByteToBcd2\000"
 10466      42797465 
 10466      546F4263 
 10466      643200
 10467              	.LASF28:
 10468 04be 54534452 		.ascii	"TSDR\000"
 10468      00
 10469              	.LASF33:
 10470 04c3 414C524D 		.ascii	"ALRMBSSR\000"
 10470      42535352 
 10470      00
 10471              	.LASF6:
 10472 04cc 5F5F7569 		.ascii	"__uint32_t\000"
 10472      6E743332 
 10472      5F7400
 10473              	.LASF102:
 10474 04d7 5F656D65 		.ascii	"_emergency\000"
 10474      7267656E 
 10474      637900
 10475              	.LASF24:
 10476 04e2 414C524D 		.ascii	"ALRMAR\000"
 10476      415200
 10477              	.LASF8:
ARM GAS  C:\Users\EBANO_~1\AppData\Local\Temp\cc8t01eQ.s 			page 228


 10478 04e9 6C6F6E67 		.ascii	"long long int\000"
 10478      206C6F6E 
 10478      6720696E 
 10478      7400
 10479              	.LASF166:
 10480 04f7 48414C5F 		.ascii	"HAL_RTCStateTypeDef\000"
 10480      52544353 
 10480      74617465 
 10480      54797065 
 10480      44656600 
 10481              	.LASF121:
 10482 050b 5F6E696F 		.ascii	"_niobs\000"
 10482      627300
 10483              	.LASF227:
 10484 0512 48414C5F 		.ascii	"HAL_RTC_AlarmAEventCallback\000"
 10484      5254435F 
 10484      416C6172 
 10484      6D414576 
 10484      656E7443 
 10485              	.LASF116:
 10486 052e 5F5F7367 		.ascii	"__sglue\000"
 10486      6C756500 
 10487              	.LASF232:
 10488 0536 48414C5F 		.ascii	"HAL_RTCEx_AlarmBEventCallback\000"
 10488      52544345 
 10488      785F416C 
 10488      61726D42 
 10488      4576656E 
 10489              	.LASF147:
 10490 0554 5F6E6D61 		.ascii	"_nmalloc\000"
 10490      6C6C6F63 
 10490      00
 10491              	.LASF131:
 10492 055d 5F67616D 		.ascii	"_gamma_signgam\000"
 10492      6D615F73 
 10492      69676E67 
 10492      616D00
 10493              	.LASF25:
 10494 056c 414C524D 		.ascii	"ALRMBR\000"
 10494      425200
 10495              	.LASF110:
 10496 0573 5F667265 		.ascii	"_freelist\000"
 10496      656C6973 
 10496      7400
 10497              	.LASF122:
 10498 057d 5F696F62 		.ascii	"_iobs\000"
 10498      7300
 10499              	.LASF120:
 10500 0583 5F676C75 		.ascii	"_glue\000"
 10500      6500
 10501              	.LASF30:
 10502 0589 43414C52 		.ascii	"CALR\000"
 10502      00
 10503              	.LASF55:
 10504 058e 5F736967 		.ascii	"_sign\000"
 10504      6E00
 10505              	.LASF164:
ARM GAS  C:\Users\EBANO_~1\AppData\Local\Temp\cc8t01eQ.s 			page 229


 10506 0594 48414C5F 		.ascii	"HAL_RTC_STATE_TIMEOUT\000"
 10506      5254435F 
 10506      53544154 
 10506      455F5449 
 10506      4D454F55 
 10507              	.LASF10:
 10508 05aa 756E7369 		.ascii	"unsigned int\000"
 10508      676E6564 
 10508      20696E74 
 10508      00
 10509              	.LASF171:
 10510 05b7 4F757450 		.ascii	"OutPutRemap\000"
 10510      75745265 
 10510      6D617000 
 10511              	.LASF183:
 10512 05c3 5254435F 		.ascii	"RTC_TimeTypeDef\000"
 10512      54696D65 
 10512      54797065 
 10512      44656600 
 10513              	.LASF145:
 10514 05d3 5F685F65 		.ascii	"_h_errno\000"
 10514      72726E6F 
 10514      00
 10515              	.LASF143:
 10516 05dc 5F776372 		.ascii	"_wcrtomb_state\000"
 10516      746F6D62 
 10516      5F737461 
 10516      746500
 10517              	.LASF62:
 10518 05eb 5F5F746D 		.ascii	"__tm_mday\000"
 10518      5F6D6461 
 10518      7900
 10519              	.LASF193:
 10520 05f5 416C6172 		.ascii	"AlarmDateWeekDay\000"
 10520      6D446174 
 10520      65576565 
 10520      6B446179 
 10520      00
 10521              	.LASF113:
 10522 0606 5F6E6577 		.ascii	"_new\000"
 10522      00
 10523              	.LASF88:
 10524 060b 5F756275 		.ascii	"_ubuf\000"
 10524      6600
 10525              	.LASF100:
 10526 0611 5F737464 		.ascii	"_stderr\000"
 10526      65727200 
 10527              	.LASF189:
 10528 0619 416C6172 		.ascii	"AlarmTime\000"
 10528      6D54696D 
 10528      6500
 10529              	.LASF208:
 10530 0623 48414C5F 		.ascii	"HAL_RTC_WaitForSynchro\000"
 10530      5254435F 
 10530      57616974 
 10530      466F7253 
 10530      796E6368 
ARM GAS  C:\Users\EBANO_~1\AppData\Local\Temp\cc8t01eQ.s 			page 230


 10531              	.LASF136:
 10532 063a 5F776374 		.ascii	"_wctomb_state\000"
 10532      6F6D625F 
 10532      73746174 
 10532      6500
 10533              	.LASF94:
 10534 0648 5F6D6273 		.ascii	"_mbstate\000"
 10534      74617465 
 10534      00
 10535              	.LASF132:
 10536 0651 5F72616E 		.ascii	"_rand_next\000"
 10536      645F6E65 
 10536      787400
 10537              	.LASF80:
 10538 065c 5F666C61 		.ascii	"_flags\000"
 10538      677300
 10539              	.LASF223:
 10540 0663 48414C5F 		.ascii	"HAL_RTC_SetDate\000"
 10540      5254435F 
 10540      53657444 
 10540      61746500 
 10541              	.LASF224:
 10542 0673 48414C5F 		.ascii	"HAL_RTC_GetTime\000"
 10542      5254435F 
 10542      47657454 
 10542      696D6500 
 10543              	.LASF197:
 10544 0683 496E6974 		.ascii	"Init\000"
 10544      00
 10545              	.LASF73:
 10546 0688 5F617465 		.ascii	"_atexit\000"
 10546      78697400 
 10547              	.LASF184:
 10548 0690 5765656B 		.ascii	"WeekDay\000"
 10548      44617900 
 10549              	.LASF187:
 10550 0698 59656172 		.ascii	"Year\000"
 10550      00
 10551              	.LASF48:
 10552 069d 5F5F636F 		.ascii	"__count\000"
 10552      756E7400 
 10553              	.LASF155:
 10554 06a5 48414C5F 		.ascii	"HAL_BUSY\000"
 10554      42555359 
 10554      00
 10555              	.LASF236:
 10556 06ae 48414C5F 		.ascii	"HAL_RTC_AlarmIRQHandler\000"
 10556      5254435F 
 10556      416C6172 
 10556      6D495251 
 10556      48616E64 
 10557              	.LASF237:
 10558 06c6 48414C5F 		.ascii	"HAL_RTC_MspInit\000"
 10558      5254435F 
 10558      4D737049 
 10558      6E697400 
 10559              	.LASF65:
ARM GAS  C:\Users\EBANO_~1\AppData\Local\Temp\cc8t01eQ.s 			page 231


 10560 06d6 5F5F746D 		.ascii	"__tm_wday\000"
 10560      5F776461 
 10560      7900
 10561              	.LASF41:
 10562 06e0 6C6F6E67 		.ascii	"long double\000"
 10562      20646F75 
 10562      626C6500 
 10563              	.LASF190:
 10564 06ec 416C6172 		.ascii	"AlarmMask\000"
 10564      6D4D6173 
 10564      6B00
 10565              	.LASF66:
 10566 06f6 5F5F746D 		.ascii	"__tm_yday\000"
 10566      5F796461 
 10566      7900
 10567              	.LASF124:
 10568 0700 5F736565 		.ascii	"_seed\000"
 10568      6400
 10569              	.LASF86:
 10570 0706 5F736565 		.ascii	"_seek\000"
 10570      6B00
 10571              	.LASF229:
 10572 070c 48414C5F 		.ascii	"HAL_RTC_DeInit\000"
 10572      5254435F 
 10572      4465496E 
 10572      697400
 10573              	.LASF44:
 10574 071b 5F66706F 		.ascii	"_fpos_t\000"
 10574      735F7400 
 10575              	.LASF19:
 10576 0723 53574945 		.ascii	"SWIER\000"
 10576      5200
 10577              	.LASF47:
 10578 0729 5F5F7763 		.ascii	"__wchb\000"
 10578      686200
 10579              	.LASF14:
 10580 0730 41484250 		.ascii	"AHBPrescTable\000"
 10580      72657363 
 10580      5461626C 
 10580      6500
 10581              	.LASF135:
 10582 073e 5F6D6274 		.ascii	"_mbtowc_state\000"
 10582      6F77635F 
 10582      73746174 
 10582      6500
 10583              	.LASF216:
 10584 074c 73756273 		.ascii	"subsecondtmpreg\000"
 10584      65636F6E 
 10584      64746D70 
 10584      72656700 
 10585              	.LASF220:
 10586 075c 48414C5F 		.ascii	"HAL_RTC_GetDate\000"
 10586      5254435F 
 10586      47657444 
 10586      61746500 
 10587              	.LASF218:
 10588 076c 48414C5F 		.ascii	"HAL_RTC_SetAlarm_IT\000"
ARM GAS  C:\Users\EBANO_~1\AppData\Local\Temp\cc8t01eQ.s 			page 232


 10588      5254435F 
 10588      53657441 
 10588      6C61726D 
 10588      5F495400 
 10589              	.LASF9:
 10590 0780 6C6F6E67 		.ascii	"long long unsigned int\000"
 10590      206C6F6E 
 10590      6720756E 
 10590      7369676E 
 10590      65642069 
 10591              	.LASF205:
 10592 0797 5254435F 		.ascii	"RTC_EnterInitMode\000"
 10592      456E7465 
 10592      72496E69 
 10592      744D6F64 
 10592      6500
 10593              	.LASF200:
 10594 07a9 5254435F 		.ascii	"RTC_HandleTypeDef\000"
 10594      48616E64 
 10594      6C655479 
 10594      70654465 
 10594      6600
 10595              	.LASF212:
 10596 07bb 48414C5F 		.ascii	"HAL_RTC_GetAlarm\000"
 10596      5254435F 
 10596      47657441 
 10596      6C61726D 
 10596      00
 10597              	.LASF70:
 10598 07cc 5F64736F 		.ascii	"_dso_handle\000"
 10598      5F68616E 
 10598      646C6500 
 10599              	.LASF123:
 10600 07d8 5F72616E 		.ascii	"_rand48\000"
 10600      64343800 
 10601              	.LASF154:
 10602 07e0 48414C5F 		.ascii	"HAL_ERROR\000"
 10602      4552524F 
 10602      5200
 10603              	.LASF99:
 10604 07ea 5F737464 		.ascii	"_stdout\000"
 10604      6F757400 
 10605              	.LASF199:
 10606 07f2 53746174 		.ascii	"State\000"
 10606      6500
 10607              	.LASF158:
 10608 07f8 48414C5F 		.ascii	"HAL_UNLOCKED\000"
 10608      554E4C4F 
 10608      434B4544 
 10608      00
 10609              	.LASF90:
 10610 0805 5F626C6B 		.ascii	"_blksize\000"
 10610      73697A65 
 10610      00
 10611              	.LASF165:
 10612 080e 48414C5F 		.ascii	"HAL_RTC_STATE_ERROR\000"
 10612      5254435F 
ARM GAS  C:\Users\EBANO_~1\AppData\Local\Temp\cc8t01eQ.s 			page 233


 10612      53544154 
 10612      455F4552 
 10612      524F5200 
 10613              	.LASF172:
 10614 0822 4F757450 		.ascii	"OutPutPolarity\000"
 10614      7574506F 
 10614      6C617269 
 10614      747900
 10615              	.LASF77:
 10616 0831 5F626173 		.ascii	"_base\000"
 10616      6500
 10617              	.LASF128:
 10618 0837 5F737472 		.ascii	"_strtok_last\000"
 10618      746F6B5F 
 10618      6C617374 
 10618      00
 10619              	.LASF141:
 10620 0844 5F6D6272 		.ascii	"_mbrtowc_state\000"
 10620      746F7763 
 10620      5F737461 
 10620      746500
 10621              	.LASF185:
 10622 0853 4D6F6E74 		.ascii	"Month\000"
 10622      6800
 10623              	.LASF51:
 10624 0859 5F666C6F 		.ascii	"_flock_t\000"
 10624      636B5F74 
 10624      00
 10625              	.LASF119:
 10626 0862 5F5F4649 		.ascii	"__FILE\000"
 10626      4C4500
 10627              	.LASF40:
 10628 0869 52455345 		.ascii	"RESET\000"
 10628      5400
 10629              	.LASF50:
 10630 086f 5F6D6273 		.ascii	"_mbstate_t\000"
 10630      74617465 
 10630      5F7400
 10631              	.LASF133:
 10632 087a 5F723438 		.ascii	"_r48\000"
 10632      00
 10633              	.LASF45:
 10634 087f 77696E74 		.ascii	"wint_t\000"
 10634      5F7400
 10635              	.LASF53:
 10636 0886 5F6E6578 		.ascii	"_next\000"
 10636      7400
 10637              	.LASF215:
 10638 088c 746D7072 		.ascii	"tmpreg\000"
 10638      656700
 10639              	.LASF92:
 10640 0893 5F646174 		.ascii	"_data\000"
 10640      6100
 10641              	.LASF181:
 10642 0899 4461794C 		.ascii	"DayLightSaving\000"
 10642      69676874 
 10642      53617669 
ARM GAS  C:\Users\EBANO_~1\AppData\Local\Temp\cc8t01eQ.s 			page 234


 10642      6E6700
 10643              	.LASF26:
 10644 08a8 53484946 		.ascii	"SHIFTR\000"
 10644      545200
 10645              	.LASF15:
 10646 08af 41504250 		.ascii	"APBPrescTable\000"
 10646      72657363 
 10646      5461626C 
 10646      6500
 10647              	.LASF134:
 10648 08bd 5F6D626C 		.ascii	"_mblen_state\000"
 10648      656E5F73 
 10648      74617465 
 10648      00
 10649              	.LASF186:
 10650 08ca 44617465 		.ascii	"Date\000"
 10650      00
 10651              	.LASF2:
 10652 08cf 73686F72 		.ascii	"short int\000"
 10652      7420696E 
 10652      7400
 10653              	.LASF221:
 10654 08d9 73446174 		.ascii	"sDate\000"
 10654      6500
 10655              	.LASF233:
 10656 08df 474E5520 		.ascii	"GNU C11 7.3.1 20180622 (release) [ARM/embedded-7-br"
 10656      43313120 
 10656      372E332E 
 10656      31203230 
 10656      31383036 
 10657 0912 616E6368 		.ascii	"anch revision 261907] -mcpu=cortex-m0plus -mthumb -"
 10657      20726576 
 10657      6973696F 
 10657      6E203236 
 10657      31393037 
 10658 0945 6D666C6F 		.ascii	"mfloat-abi=soft -gdwarf-2 -O3 -ffunction-sections\000"
 10658      61742D61 
 10658      62693D73 
 10658      6F667420 
 10658      2D676477 
 10659              	.LASF71:
 10660 0977 5F666E74 		.ascii	"_fntypes\000"
 10660      79706573 
 10660      00
 10661              	.LASF64:
 10662 0980 5F5F746D 		.ascii	"__tm_year\000"
 10662      5F796561 
 10662      7200
 10663              	.LASF173:
 10664 098a 4F757450 		.ascii	"OutPutType\000"
 10664      75745479 
 10664      706500
 10665              	.LASF210:
 10666 0995 48414C5F 		.ascii	"HAL_RTC_PollForAlarmAEvent\000"
 10666      5254435F 
 10666      506F6C6C 
 10666      466F7241 
ARM GAS  C:\Users\EBANO_~1\AppData\Local\Temp\cc8t01eQ.s 			page 235


 10666      6C61726D 
 10667              	.LASF175:
 10668 09b0 486F7572 		.ascii	"Hours\000"
 10668      7300
 10669              	.LASF82:
 10670 09b6 5F6C6266 		.ascii	"_lbfsize\000"
 10670      73697A65 
 10670      00
 10671              	.LASF101:
 10672 09bf 5F696E63 		.ascii	"_inc\000"
 10672      00
 10673              	.LASF74:
 10674 09c4 5F696E64 		.ascii	"_ind\000"
 10674      00
 10675              	.LASF192:
 10676 09c9 416C6172 		.ascii	"AlarmDateWeekDaySel\000"
 10676      6D446174 
 10676      65576565 
 10676      6B446179 
 10676      53656C00 
 10677              	.LASF76:
 10678 09dd 5F5F7362 		.ascii	"__sbuf\000"
 10678      756600
 10679              	.LASF72:
 10680 09e4 5F69735F 		.ascii	"_is_cxa\000"
 10680      63786100 
 10681              	.LASF42:
 10682 09ec 5F4C4F43 		.ascii	"_LOCK_T\000"
 10682      4B5F5400 
 10683              	.LASF170:
 10684 09f4 4F757450 		.ascii	"OutPut\000"
 10684      757400
 10685              	.LASF146:
 10686 09fb 5F6E6578 		.ascii	"_nextf\000"
 10686      746600
 10687              	.LASF104:
 10688 0a02 5F6C6F63 		.ascii	"_locale\000"
 10688      616C6500 
 10689              	.LASF52:
 10690 0a0a 5F5F554C 		.ascii	"__ULong\000"
 10690      6F6E6700 
 10691              	.LASF203:
 10692 0a12 56616C75 		.ascii	"Value\000"
 10692      6500
 10693              	.LASF195:
 10694 0a18 5254435F 		.ascii	"RTC_AlarmTypeDef\000"
 10694      416C6172 
 10694      6D547970 
 10694      65446566 
 10694      00
 10695              	.LASF12:
 10696 0a29 75696E74 		.ascii	"uint32_t\000"
 10696      33325F74 
 10696      00
 10697              	.LASF107:
 10698 0a32 5F726573 		.ascii	"_result\000"
 10698      756C7400 
ARM GAS  C:\Users\EBANO_~1\AppData\Local\Temp\cc8t01eQ.s 			page 236


 10699              	.LASF43:
 10700 0a3a 5F6F6666 		.ascii	"_off_t\000"
 10700      5F7400
 10701              	.LASF159:
 10702 0a41 48414C5F 		.ascii	"HAL_LOCKED\000"
 10702      4C4F434B 
 10702      454400
 10703              	.LASF126:
 10704 0a4c 5F616464 		.ascii	"_add\000"
 10704      00
 10705              	.LASF156:
 10706 0a51 48414C5F 		.ascii	"HAL_TIMEOUT\000"
 10706      54494D45 
 10706      4F555400 
 10707              	.LASF3:
 10708 0a5d 73686F72 		.ascii	"short unsigned int\000"
 10708      7420756E 
 10708      7369676E 
 10708      65642069 
 10708      6E7400
 10709              	.LASF61:
 10710 0a70 5F5F746D 		.ascii	"__tm_hour\000"
 10710      5F686F75 
 10710      7200
 10711              	.LASF22:
 10712 0a7a 57555452 		.ascii	"WUTR\000"
 10712      00
 10713              	.LASF142:
 10714 0a7f 5F6D6273 		.ascii	"_mbsrtowcs_state\000"
 10714      72746F77 
 10714      63735F73 
 10714      74617465 
 10714      00
 10715              	.LASF213:
 10716 0a90 73416C61 		.ascii	"sAlarm\000"
 10716      726D00
 10717              	.LASF34:
 10718 0a97 424B5030 		.ascii	"BKP0R\000"
 10718      5200
 10719              	.LASF69:
 10720 0a9d 5F666E61 		.ascii	"_fnargs\000"
 10720      72677300 
 10721              	.LASF29:
 10722 0aa5 54535353 		.ascii	"TSSSR\000"
 10722      5200
 10723              	.LASF67:
 10724 0aab 5F5F746D 		.ascii	"__tm_isdst\000"
 10724      5F697364 
 10724      737400
 10725              	.LASF219:
 10726 0ab6 48414C5F 		.ascii	"HAL_RTC_SetAlarm\000"
 10726      5254435F 
 10726      53657441 
 10726      6C61726D 
 10726      00
 10727              	.LASF60:
 10728 0ac7 5F5F746D 		.ascii	"__tm_min\000"
ARM GAS  C:\Users\EBANO_~1\AppData\Local\Temp\cc8t01eQ.s 			page 237


 10728      5F6D696E 
 10728      00
 10729              	.LASF32:
 10730 0ad0 414C524D 		.ascii	"ALRMASSR\000"
 10730      41535352 
 10730      00
 10731              	.LASF31:
 10732 0ad9 54414D50 		.ascii	"TAMPCR\000"
 10732      435200
 10733              	.LASF139:
 10734 0ae0 5F676574 		.ascii	"_getdate_err\000"
 10734      64617465 
 10734      5F657272 
 10734      00
 10735              	.LASF217:
 10736 0aed 48414C5F 		.ascii	"HAL_RTC_DeactivateAlarm\000"
 10736      5254435F 
 10736      44656163 
 10736      74697661 
 10736      7465416C 
 10737              	.LASF188:
 10738 0b05 5254435F 		.ascii	"RTC_DateTypeDef\000"
 10738      44617465 
 10738      54797065 
 10738      44656600 
 10739              	.LASF35:
 10740 0b15 424B5031 		.ascii	"BKP1R\000"
 10740      5200
 10741              		.ident	"GCC: (GNU Tools for Arm Embedded Processors 7-2018-q2-update) 7.3.1 20180622 (release) [AR
ARM GAS  C:\Users\EBANO_~1\AppData\Local\Temp\cc8t01eQ.s 			page 238


DEFINED SYMBOLS
                            *ABS*:00000000 stm32l0xx_hal_rtc.c
C:\Users\EBANO_~1\AppData\Local\Temp\cc8t01eQ.s:16     .text.HAL_RTC_MspInit:00000000 $t
C:\Users\EBANO_~1\AppData\Local\Temp\cc8t01eQ.s:24     .text.HAL_RTC_MspInit:00000000 HAL_RTC_MspInit
C:\Users\EBANO_~1\AppData\Local\Temp\cc8t01eQ.s:40     .text.HAL_RTC_Init:00000000 $t
C:\Users\EBANO_~1\AppData\Local\Temp\cc8t01eQ.s:48     .text.HAL_RTC_Init:00000000 HAL_RTC_Init
C:\Users\EBANO_~1\AppData\Local\Temp\cc8t01eQ.s:220    .text.HAL_RTC_Init:000000b8 $d
C:\Users\EBANO_~1\AppData\Local\Temp\cc8t01eQ.s:225    .text.HAL_RTC_MspDeInit:00000000 $t
C:\Users\EBANO_~1\AppData\Local\Temp\cc8t01eQ.s:233    .text.HAL_RTC_MspDeInit:00000000 HAL_RTC_MspDeInit
C:\Users\EBANO_~1\AppData\Local\Temp\cc8t01eQ.s:245    .text.HAL_RTC_DeInit:00000000 $t
C:\Users\EBANO_~1\AppData\Local\Temp\cc8t01eQ.s:253    .text.HAL_RTC_DeInit:00000000 HAL_RTC_DeInit
C:\Users\EBANO_~1\AppData\Local\Temp\cc8t01eQ.s:507    .text.HAL_RTC_DeInit:000000fc $d
C:\Users\EBANO_~1\AppData\Local\Temp\cc8t01eQ.s:514    .text.HAL_RTC_SetTime:00000000 $t
C:\Users\EBANO_~1\AppData\Local\Temp\cc8t01eQ.s:522    .text.HAL_RTC_SetTime:00000000 HAL_RTC_SetTime
C:\Users\EBANO_~1\AppData\Local\Temp\cc8t01eQ.s:945    .text.HAL_RTC_SetTime:0000019c $d
C:\Users\EBANO_~1\AppData\Local\Temp\cc8t01eQ.s:953    .text.HAL_RTC_GetTime:00000000 $t
C:\Users\EBANO_~1\AppData\Local\Temp\cc8t01eQ.s:961    .text.HAL_RTC_GetTime:00000000 HAL_RTC_GetTime
C:\Users\EBANO_~1\AppData\Local\Temp\cc8t01eQ.s:1081   .text.HAL_RTC_GetTime:00000064 $d
C:\Users\EBANO_~1\AppData\Local\Temp\cc8t01eQ.s:1086   .text.HAL_RTC_SetDate:00000000 $t
C:\Users\EBANO_~1\AppData\Local\Temp\cc8t01eQ.s:1094   .text.HAL_RTC_SetDate:00000000 HAL_RTC_SetDate
C:\Users\EBANO_~1\AppData\Local\Temp\cc8t01eQ.s:1461   .text.HAL_RTC_SetDate:0000015c $d
C:\Users\EBANO_~1\AppData\Local\Temp\cc8t01eQ.s:1468   .text.HAL_RTC_GetDate:00000000 $t
C:\Users\EBANO_~1\AppData\Local\Temp\cc8t01eQ.s:1476   .text.HAL_RTC_GetDate:00000000 HAL_RTC_GetDate
C:\Users\EBANO_~1\AppData\Local\Temp\cc8t01eQ.s:1615   .text.HAL_RTC_GetDate:00000058 $d
C:\Users\EBANO_~1\AppData\Local\Temp\cc8t01eQ.s:1620   .text.HAL_RTC_SetAlarm:00000000 $t
C:\Users\EBANO_~1\AppData\Local\Temp\cc8t01eQ.s:1628   .text.HAL_RTC_SetAlarm:00000000 HAL_RTC_SetAlarm
C:\Users\EBANO_~1\AppData\Local\Temp\cc8t01eQ.s:2083   .text.HAL_RTC_SetAlarm:000001d4 $d
C:\Users\EBANO_~1\AppData\Local\Temp\cc8t01eQ.s:2093   .text.HAL_RTC_SetAlarm_IT:00000000 $t
C:\Users\EBANO_~1\AppData\Local\Temp\cc8t01eQ.s:2101   .text.HAL_RTC_SetAlarm_IT:00000000 HAL_RTC_SetAlarm_IT
C:\Users\EBANO_~1\AppData\Local\Temp\cc8t01eQ.s:2585   .text.HAL_RTC_SetAlarm_IT:00000204 $d
C:\Users\EBANO_~1\AppData\Local\Temp\cc8t01eQ.s:2596   .text.HAL_RTC_DeactivateAlarm:00000000 $t
C:\Users\EBANO_~1\AppData\Local\Temp\cc8t01eQ.s:2604   .text.HAL_RTC_DeactivateAlarm:00000000 HAL_RTC_DeactivateAlarm
C:\Users\EBANO_~1\AppData\Local\Temp\cc8t01eQ.s:2789   .text.HAL_RTC_DeactivateAlarm:000000c0 $d
C:\Users\EBANO_~1\AppData\Local\Temp\cc8t01eQ.s:2797   .text.HAL_RTC_GetAlarm:00000000 $t
C:\Users\EBANO_~1\AppData\Local\Temp\cc8t01eQ.s:2805   .text.HAL_RTC_GetAlarm:00000000 HAL_RTC_GetAlarm
C:\Users\EBANO_~1\AppData\Local\Temp\cc8t01eQ.s:3017   .text.HAL_RTC_GetAlarm:000000c4 $d
C:\Users\EBANO_~1\AppData\Local\Temp\cc8t01eQ.s:3022   .text.HAL_RTC_AlarmAEventCallback:00000000 $t
C:\Users\EBANO_~1\AppData\Local\Temp\cc8t01eQ.s:3030   .text.HAL_RTC_AlarmAEventCallback:00000000 HAL_RTC_AlarmAEventCallback
C:\Users\EBANO_~1\AppData\Local\Temp\cc8t01eQ.s:3042   .text.HAL_RTC_AlarmIRQHandler:00000000 $t
C:\Users\EBANO_~1\AppData\Local\Temp\cc8t01eQ.s:3050   .text.HAL_RTC_AlarmIRQHandler:00000000 HAL_RTC_AlarmIRQHandler
C:\Users\EBANO_~1\AppData\Local\Temp\cc8t01eQ.s:3134   .text.HAL_RTC_AlarmIRQHandler:00000058 $d
C:\Users\EBANO_~1\AppData\Local\Temp\cc8t01eQ.s:3141   .text.HAL_RTC_PollForAlarmAEvent:00000000 $t
C:\Users\EBANO_~1\AppData\Local\Temp\cc8t01eQ.s:3149   .text.HAL_RTC_PollForAlarmAEvent:00000000 HAL_RTC_PollForAlarmAEvent
C:\Users\EBANO_~1\AppData\Local\Temp\cc8t01eQ.s:3239   .text.HAL_RTC_PollForAlarmAEvent:00000054 $d
C:\Users\EBANO_~1\AppData\Local\Temp\cc8t01eQ.s:3244   .text.HAL_RTC_WaitForSynchro:00000000 $t
C:\Users\EBANO_~1\AppData\Local\Temp\cc8t01eQ.s:3252   .text.HAL_RTC_WaitForSynchro:00000000 HAL_RTC_WaitForSynchro
C:\Users\EBANO_~1\AppData\Local\Temp\cc8t01eQ.s:3324   .text.HAL_RTC_GetState:00000000 $t
C:\Users\EBANO_~1\AppData\Local\Temp\cc8t01eQ.s:3332   .text.HAL_RTC_GetState:00000000 HAL_RTC_GetState
C:\Users\EBANO_~1\AppData\Local\Temp\cc8t01eQ.s:3354   .text.RTC_EnterInitMode:00000000 $t
C:\Users\EBANO_~1\AppData\Local\Temp\cc8t01eQ.s:3362   .text.RTC_EnterInitMode:00000000 RTC_EnterInitMode
C:\Users\EBANO_~1\AppData\Local\Temp\cc8t01eQ.s:3438   .text.RTC_ByteToBcd2:00000000 $t
C:\Users\EBANO_~1\AppData\Local\Temp\cc8t01eQ.s:3446   .text.RTC_ByteToBcd2:00000000 RTC_ByteToBcd2
C:\Users\EBANO_~1\AppData\Local\Temp\cc8t01eQ.s:3485   .text.RTC_Bcd2ToByte:00000000 $t
C:\Users\EBANO_~1\AppData\Local\Temp\cc8t01eQ.s:3493   .text.RTC_Bcd2ToByte:00000000 RTC_Bcd2ToByte

UNDEFINED SYMBOLS
HAL_GetTick
ARM GAS  C:\Users\EBANO_~1\AppData\Local\Temp\cc8t01eQ.s 			page 239


HAL_RTCEx_AlarmBEventCallback
