ARM GAS  C:\Users\EBANO_~1\AppData\Local\Temp\cclnSu0c.s 			page 1


   1              		.cpu cortex-m0plus
   2              		.eabi_attribute 20, 1
   3              		.eabi_attribute 21, 1
   4              		.eabi_attribute 23, 3
   5              		.eabi_attribute 24, 1
   6              		.eabi_attribute 25, 1
   7              		.eabi_attribute 26, 1
   8              		.eabi_attribute 30, 2
   9              		.eabi_attribute 34, 0
  10              		.eabi_attribute 18, 4
  11              		.file	"stm32l0xx_hal_uart.c"
  12              		.text
  13              	.Ltext0:
  14              		.cfi_sections	.debug_frame
  15              		.section	.text.HAL_UART_MspInit,"ax",%progbits
  16              		.align	1
  17              		.p2align 2,,3
  18              		.weak	HAL_UART_MspInit
  19              		.syntax unified
  20              		.code	16
  21              		.thumb_func
  22              		.fpu softvfp
  23              		.type	HAL_UART_MspInit, %function
  24              	HAL_UART_MspInit:
  25              	.LFB44:
  26              		.file 1 "../../../../../../Drivers/STM32L0xx_HAL_Driver/Src/stm32l0xx_hal_uart.c"
   1:../../../../../../Drivers/STM32L0xx_HAL_Driver/Src/stm32l0xx_hal_uart.c **** /**
   2:../../../../../../Drivers/STM32L0xx_HAL_Driver/Src/stm32l0xx_hal_uart.c ****   ******************************************************************************
   3:../../../../../../Drivers/STM32L0xx_HAL_Driver/Src/stm32l0xx_hal_uart.c ****   * @file    stm32l0xx_hal_uart.c
   4:../../../../../../Drivers/STM32L0xx_HAL_Driver/Src/stm32l0xx_hal_uart.c ****   * @author  MCD Application Team
   5:../../../../../../Drivers/STM32L0xx_HAL_Driver/Src/stm32l0xx_hal_uart.c ****   * @brief   UART HAL module driver.
   6:../../../../../../Drivers/STM32L0xx_HAL_Driver/Src/stm32l0xx_hal_uart.c ****   *          This file provides firmware functions to manage the following
   7:../../../../../../Drivers/STM32L0xx_HAL_Driver/Src/stm32l0xx_hal_uart.c ****   *          functionalities of the Universal Asynchronous Receiver Transmitter Peripheral (UART).
   8:../../../../../../Drivers/STM32L0xx_HAL_Driver/Src/stm32l0xx_hal_uart.c ****   *           + Initialization and de-initialization functions
   9:../../../../../../Drivers/STM32L0xx_HAL_Driver/Src/stm32l0xx_hal_uart.c ****   *           + IO operation functions
  10:../../../../../../Drivers/STM32L0xx_HAL_Driver/Src/stm32l0xx_hal_uart.c ****   *           + Peripheral Control functions
  11:../../../../../../Drivers/STM32L0xx_HAL_Driver/Src/stm32l0xx_hal_uart.c ****   *
  12:../../../../../../Drivers/STM32L0xx_HAL_Driver/Src/stm32l0xx_hal_uart.c ****   *
  13:../../../../../../Drivers/STM32L0xx_HAL_Driver/Src/stm32l0xx_hal_uart.c ****   @verbatim
  14:../../../../../../Drivers/STM32L0xx_HAL_Driver/Src/stm32l0xx_hal_uart.c ****  ===============================================================================
  15:../../../../../../Drivers/STM32L0xx_HAL_Driver/Src/stm32l0xx_hal_uart.c ****                         ##### How to use this driver #####
  16:../../../../../../Drivers/STM32L0xx_HAL_Driver/Src/stm32l0xx_hal_uart.c ****  ===============================================================================
  17:../../../../../../Drivers/STM32L0xx_HAL_Driver/Src/stm32l0xx_hal_uart.c ****   [..]
  18:../../../../../../Drivers/STM32L0xx_HAL_Driver/Src/stm32l0xx_hal_uart.c ****     The UART HAL driver can be used as follows:
  19:../../../../../../Drivers/STM32L0xx_HAL_Driver/Src/stm32l0xx_hal_uart.c **** 
  20:../../../../../../Drivers/STM32L0xx_HAL_Driver/Src/stm32l0xx_hal_uart.c ****     (#) Declare a UART_HandleTypeDef handle structure (eg. UART_HandleTypeDef huart).
  21:../../../../../../Drivers/STM32L0xx_HAL_Driver/Src/stm32l0xx_hal_uart.c ****     (#) Initialize the UART low level resources by implementing the HAL_UART_MspInit() API:
  22:../../../../../../Drivers/STM32L0xx_HAL_Driver/Src/stm32l0xx_hal_uart.c ****         (++) Enable the USARTx interface clock.
  23:../../../../../../Drivers/STM32L0xx_HAL_Driver/Src/stm32l0xx_hal_uart.c ****         (++) UART pins configuration:
  24:../../../../../../Drivers/STM32L0xx_HAL_Driver/Src/stm32l0xx_hal_uart.c ****             (+++) Enable the clock for the UART GPIOs.
  25:../../../../../../Drivers/STM32L0xx_HAL_Driver/Src/stm32l0xx_hal_uart.c ****             (+++) Configure these UART pins as alternate function pull-up.
  26:../../../../../../Drivers/STM32L0xx_HAL_Driver/Src/stm32l0xx_hal_uart.c ****         (++) NVIC configuration if you need to use interrupt process (HAL_UART_Transmit_IT()
  27:../../../../../../Drivers/STM32L0xx_HAL_Driver/Src/stm32l0xx_hal_uart.c ****              and HAL_UART_Receive_IT() APIs):
  28:../../../../../../Drivers/STM32L0xx_HAL_Driver/Src/stm32l0xx_hal_uart.c ****             (+++) Configure the USARTx interrupt priority.
  29:../../../../../../Drivers/STM32L0xx_HAL_Driver/Src/stm32l0xx_hal_uart.c ****             (+++) Enable the NVIC USART IRQ handle.
  30:../../../../../../Drivers/STM32L0xx_HAL_Driver/Src/stm32l0xx_hal_uart.c ****         (++) UART interrupts handling:
  31:../../../../../../Drivers/STM32L0xx_HAL_Driver/Src/stm32l0xx_hal_uart.c ****               -@@-  The specific UART interrupts (Transmission complete interrupt,
ARM GAS  C:\Users\EBANO_~1\AppData\Local\Temp\cclnSu0c.s 			page 2


  32:../../../../../../Drivers/STM32L0xx_HAL_Driver/Src/stm32l0xx_hal_uart.c ****                 RXNE interrupt and Error Interrupts) are managed using the macros
  33:../../../../../../Drivers/STM32L0xx_HAL_Driver/Src/stm32l0xx_hal_uart.c ****                 __HAL_UART_ENABLE_IT() and __HAL_UART_DISABLE_IT() inside the transmit and receive 
  34:../../../../../../Drivers/STM32L0xx_HAL_Driver/Src/stm32l0xx_hal_uart.c ****         (++) DMA Configuration if you need to use DMA process (HAL_UART_Transmit_DMA()
  35:../../../../../../Drivers/STM32L0xx_HAL_Driver/Src/stm32l0xx_hal_uart.c ****              and HAL_UART_Receive_DMA() APIs):
  36:../../../../../../Drivers/STM32L0xx_HAL_Driver/Src/stm32l0xx_hal_uart.c ****             (+++) Declare a DMA handle structure for the Tx/Rx channel.
  37:../../../../../../Drivers/STM32L0xx_HAL_Driver/Src/stm32l0xx_hal_uart.c ****             (+++) Enable the DMAx interface clock.
  38:../../../../../../Drivers/STM32L0xx_HAL_Driver/Src/stm32l0xx_hal_uart.c ****             (+++) Configure the declared DMA handle structure with the required Tx/Rx parameters.
  39:../../../../../../Drivers/STM32L0xx_HAL_Driver/Src/stm32l0xx_hal_uart.c ****             (+++) Configure the DMA Tx/Rx channel.
  40:../../../../../../Drivers/STM32L0xx_HAL_Driver/Src/stm32l0xx_hal_uart.c ****             (+++) Associate the initialized DMA handle to the UART DMA Tx/Rx handle.
  41:../../../../../../Drivers/STM32L0xx_HAL_Driver/Src/stm32l0xx_hal_uart.c ****             (+++) Configure the priority and enable the NVIC for the transfer complete interrupt on
  42:../../../../../../Drivers/STM32L0xx_HAL_Driver/Src/stm32l0xx_hal_uart.c **** 
  43:../../../../../../Drivers/STM32L0xx_HAL_Driver/Src/stm32l0xx_hal_uart.c ****     (#) Program the Baud Rate, Word Length, Stop Bit, Parity, Hardware
  44:../../../../../../Drivers/STM32L0xx_HAL_Driver/Src/stm32l0xx_hal_uart.c ****         flow control and Mode (Receiver/Transmitter) in the huart handle Init structure.
  45:../../../../../../Drivers/STM32L0xx_HAL_Driver/Src/stm32l0xx_hal_uart.c **** 
  46:../../../../../../Drivers/STM32L0xx_HAL_Driver/Src/stm32l0xx_hal_uart.c ****     (#) If required, program UART advanced features (TX/RX pins swap, auto Baud rate detection,...)
  47:../../../../../../Drivers/STM32L0xx_HAL_Driver/Src/stm32l0xx_hal_uart.c ****         in the huart handle AdvancedInit structure.
  48:../../../../../../Drivers/STM32L0xx_HAL_Driver/Src/stm32l0xx_hal_uart.c **** 
  49:../../../../../../Drivers/STM32L0xx_HAL_Driver/Src/stm32l0xx_hal_uart.c ****     (#) For the UART asynchronous mode, initialize the UART registers by calling
  50:../../../../../../Drivers/STM32L0xx_HAL_Driver/Src/stm32l0xx_hal_uart.c ****         the HAL_UART_Init() API.
  51:../../../../../../Drivers/STM32L0xx_HAL_Driver/Src/stm32l0xx_hal_uart.c **** 
  52:../../../../../../Drivers/STM32L0xx_HAL_Driver/Src/stm32l0xx_hal_uart.c ****     (#) For the UART Half duplex mode, initialize the UART registers by calling
  53:../../../../../../Drivers/STM32L0xx_HAL_Driver/Src/stm32l0xx_hal_uart.c ****         the HAL_HalfDuplex_Init() API.
  54:../../../../../../Drivers/STM32L0xx_HAL_Driver/Src/stm32l0xx_hal_uart.c **** 
  55:../../../../../../Drivers/STM32L0xx_HAL_Driver/Src/stm32l0xx_hal_uart.c ****     (#) For the UART LIN (Local Interconnection Network) mode, initialize the UART registers
  56:../../../../../../Drivers/STM32L0xx_HAL_Driver/Src/stm32l0xx_hal_uart.c ****         by calling the HAL_LIN_Init() API.
  57:../../../../../../Drivers/STM32L0xx_HAL_Driver/Src/stm32l0xx_hal_uart.c **** 
  58:../../../../../../Drivers/STM32L0xx_HAL_Driver/Src/stm32l0xx_hal_uart.c ****     (#) For the UART Multiprocessor mode, initialize the UART registers
  59:../../../../../../Drivers/STM32L0xx_HAL_Driver/Src/stm32l0xx_hal_uart.c ****         by calling the HAL_MultiProcessor_Init() API.
  60:../../../../../../Drivers/STM32L0xx_HAL_Driver/Src/stm32l0xx_hal_uart.c **** 
  61:../../../../../../Drivers/STM32L0xx_HAL_Driver/Src/stm32l0xx_hal_uart.c ****     (#) For the UART RS485 Driver Enabled mode, initialize the UART registers
  62:../../../../../../Drivers/STM32L0xx_HAL_Driver/Src/stm32l0xx_hal_uart.c ****         by calling the HAL_RS485Ex_Init() API.
  63:../../../../../../Drivers/STM32L0xx_HAL_Driver/Src/stm32l0xx_hal_uart.c **** 
  64:../../../../../../Drivers/STM32L0xx_HAL_Driver/Src/stm32l0xx_hal_uart.c ****     [..]
  65:../../../../../../Drivers/STM32L0xx_HAL_Driver/Src/stm32l0xx_hal_uart.c ****     (@) These API's (HAL_UART_Init(), HAL_HalfDuplex_Init(), HAL_LIN_Init(), HAL_MultiProcessor_Ini
  66:../../../../../../Drivers/STM32L0xx_HAL_Driver/Src/stm32l0xx_hal_uart.c ****         also configure the low level Hardware GPIO, CLOCK, CORTEX...etc) by
  67:../../../../../../Drivers/STM32L0xx_HAL_Driver/Src/stm32l0xx_hal_uart.c ****         calling the customized HAL_UART_MspInit() API.
  68:../../../../../../Drivers/STM32L0xx_HAL_Driver/Src/stm32l0xx_hal_uart.c **** 
  69:../../../../../../Drivers/STM32L0xx_HAL_Driver/Src/stm32l0xx_hal_uart.c ****   @endverbatim
  70:../../../../../../Drivers/STM32L0xx_HAL_Driver/Src/stm32l0xx_hal_uart.c ****   ******************************************************************************
  71:../../../../../../Drivers/STM32L0xx_HAL_Driver/Src/stm32l0xx_hal_uart.c ****   * @attention
  72:../../../../../../Drivers/STM32L0xx_HAL_Driver/Src/stm32l0xx_hal_uart.c ****   *
  73:../../../../../../Drivers/STM32L0xx_HAL_Driver/Src/stm32l0xx_hal_uart.c ****   * <h2><center>&copy; COPYRIGHT(c) 2016 STMicroelectronics</center></h2>
  74:../../../../../../Drivers/STM32L0xx_HAL_Driver/Src/stm32l0xx_hal_uart.c ****   *
  75:../../../../../../Drivers/STM32L0xx_HAL_Driver/Src/stm32l0xx_hal_uart.c ****   * Redistribution and use in source and binary forms, with or without modification,
  76:../../../../../../Drivers/STM32L0xx_HAL_Driver/Src/stm32l0xx_hal_uart.c ****   * are permitted provided that the following conditions are met:
  77:../../../../../../Drivers/STM32L0xx_HAL_Driver/Src/stm32l0xx_hal_uart.c ****   *   1. Redistributions of source code must retain the above copyright notice,
  78:../../../../../../Drivers/STM32L0xx_HAL_Driver/Src/stm32l0xx_hal_uart.c ****   *      this list of conditions and the following disclaimer.
  79:../../../../../../Drivers/STM32L0xx_HAL_Driver/Src/stm32l0xx_hal_uart.c ****   *   2. Redistributions in binary form must reproduce the above copyright notice,
  80:../../../../../../Drivers/STM32L0xx_HAL_Driver/Src/stm32l0xx_hal_uart.c ****   *      this list of conditions and the following disclaimer in the documentation
  81:../../../../../../Drivers/STM32L0xx_HAL_Driver/Src/stm32l0xx_hal_uart.c ****   *      and/or other materials provided with the distribution.
  82:../../../../../../Drivers/STM32L0xx_HAL_Driver/Src/stm32l0xx_hal_uart.c ****   *   3. Neither the name of STMicroelectronics nor the names of its contributors
  83:../../../../../../Drivers/STM32L0xx_HAL_Driver/Src/stm32l0xx_hal_uart.c ****   *      may be used to endorse or promote products derived from this software
  84:../../../../../../Drivers/STM32L0xx_HAL_Driver/Src/stm32l0xx_hal_uart.c ****   *      without specific prior written permission.
  85:../../../../../../Drivers/STM32L0xx_HAL_Driver/Src/stm32l0xx_hal_uart.c ****   *
  86:../../../../../../Drivers/STM32L0xx_HAL_Driver/Src/stm32l0xx_hal_uart.c ****   * THIS SOFTWARE IS PROVIDED BY THE COPYRIGHT HOLDERS AND CONTRIBUTORS "AS IS"
  87:../../../../../../Drivers/STM32L0xx_HAL_Driver/Src/stm32l0xx_hal_uart.c ****   * AND ANY EXPRESS OR IMPLIED WARRANTIES, INCLUDING, BUT NOT LIMITED TO, THE
  88:../../../../../../Drivers/STM32L0xx_HAL_Driver/Src/stm32l0xx_hal_uart.c ****   * IMPLIED WARRANTIES OF MERCHANTABILITY AND FITNESS FOR A PARTICULAR PURPOSE ARE
ARM GAS  C:\Users\EBANO_~1\AppData\Local\Temp\cclnSu0c.s 			page 3


  89:../../../../../../Drivers/STM32L0xx_HAL_Driver/Src/stm32l0xx_hal_uart.c ****   * DISCLAIMED. IN NO EVENT SHALL THE COPYRIGHT HOLDER OR CONTRIBUTORS BE LIABLE
  90:../../../../../../Drivers/STM32L0xx_HAL_Driver/Src/stm32l0xx_hal_uart.c ****   * FOR ANY DIRECT, INDIRECT, INCIDENTAL, SPECIAL, EXEMPLARY, OR CONSEQUENTIAL
  91:../../../../../../Drivers/STM32L0xx_HAL_Driver/Src/stm32l0xx_hal_uart.c ****   * DAMAGES (INCLUDING, BUT NOT LIMITED TO, PROCUREMENT OF SUBSTITUTE GOODS OR
  92:../../../../../../Drivers/STM32L0xx_HAL_Driver/Src/stm32l0xx_hal_uart.c ****   * SERVICES; LOSS OF USE, DATA, OR PROFITS; OR BUSINESS INTERRUPTION) HOWEVER
  93:../../../../../../Drivers/STM32L0xx_HAL_Driver/Src/stm32l0xx_hal_uart.c ****   * CAUSED AND ON ANY THEORY OF LIABILITY, WHETHER IN CONTRACT, STRICT LIABILITY,
  94:../../../../../../Drivers/STM32L0xx_HAL_Driver/Src/stm32l0xx_hal_uart.c ****   * OR TORT (INCLUDING NEGLIGENCE OR OTHERWISE) ARISING IN ANY WAY OUT OF THE USE
  95:../../../../../../Drivers/STM32L0xx_HAL_Driver/Src/stm32l0xx_hal_uart.c ****   * OF THIS SOFTWARE, EVEN IF ADVISED OF THE POSSIBILITY OF SUCH DAMAGE.
  96:../../../../../../Drivers/STM32L0xx_HAL_Driver/Src/stm32l0xx_hal_uart.c ****   *
  97:../../../../../../Drivers/STM32L0xx_HAL_Driver/Src/stm32l0xx_hal_uart.c ****   ******************************************************************************
  98:../../../../../../Drivers/STM32L0xx_HAL_Driver/Src/stm32l0xx_hal_uart.c ****   */
  99:../../../../../../Drivers/STM32L0xx_HAL_Driver/Src/stm32l0xx_hal_uart.c **** 
 100:../../../../../../Drivers/STM32L0xx_HAL_Driver/Src/stm32l0xx_hal_uart.c **** /* Includes ------------------------------------------------------------------*/
 101:../../../../../../Drivers/STM32L0xx_HAL_Driver/Src/stm32l0xx_hal_uart.c **** #include "stm32l0xx_hal.h"
 102:../../../../../../Drivers/STM32L0xx_HAL_Driver/Src/stm32l0xx_hal_uart.c **** 
 103:../../../../../../Drivers/STM32L0xx_HAL_Driver/Src/stm32l0xx_hal_uart.c **** /** @addtogroup STM32L0xx_HAL_Driver
 104:../../../../../../Drivers/STM32L0xx_HAL_Driver/Src/stm32l0xx_hal_uart.c ****   * @{
 105:../../../../../../Drivers/STM32L0xx_HAL_Driver/Src/stm32l0xx_hal_uart.c ****   */
 106:../../../../../../Drivers/STM32L0xx_HAL_Driver/Src/stm32l0xx_hal_uart.c **** 
 107:../../../../../../Drivers/STM32L0xx_HAL_Driver/Src/stm32l0xx_hal_uart.c **** /** @defgroup UART UART
 108:../../../../../../Drivers/STM32L0xx_HAL_Driver/Src/stm32l0xx_hal_uart.c ****   * @brief HAL UART module driver
 109:../../../../../../Drivers/STM32L0xx_HAL_Driver/Src/stm32l0xx_hal_uart.c ****   * @{
 110:../../../../../../Drivers/STM32L0xx_HAL_Driver/Src/stm32l0xx_hal_uart.c ****   */
 111:../../../../../../Drivers/STM32L0xx_HAL_Driver/Src/stm32l0xx_hal_uart.c **** 
 112:../../../../../../Drivers/STM32L0xx_HAL_Driver/Src/stm32l0xx_hal_uart.c **** #ifdef HAL_UART_MODULE_ENABLED
 113:../../../../../../Drivers/STM32L0xx_HAL_Driver/Src/stm32l0xx_hal_uart.c **** 
 114:../../../../../../Drivers/STM32L0xx_HAL_Driver/Src/stm32l0xx_hal_uart.c **** /* Private typedef -----------------------------------------------------------*/
 115:../../../../../../Drivers/STM32L0xx_HAL_Driver/Src/stm32l0xx_hal_uart.c **** /* Private define ------------------------------------------------------------*/
 116:../../../../../../Drivers/STM32L0xx_HAL_Driver/Src/stm32l0xx_hal_uart.c **** /** @defgroup UART_Private_Constants UART Private Constants
 117:../../../../../../Drivers/STM32L0xx_HAL_Driver/Src/stm32l0xx_hal_uart.c ****   * @{
 118:../../../../../../Drivers/STM32L0xx_HAL_Driver/Src/stm32l0xx_hal_uart.c ****   */
 119:../../../../../../Drivers/STM32L0xx_HAL_Driver/Src/stm32l0xx_hal_uart.c **** #define UART_CR1_FIELDS  ((uint32_t)(USART_CR1_M | USART_CR1_PCE | USART_CR1_PS | \
 120:../../../../../../Drivers/STM32L0xx_HAL_Driver/Src/stm32l0xx_hal_uart.c ****                                      USART_CR1_TE | USART_CR1_RE | USART_CR1_OVER8)) /*!< UART or U
 121:../../../../../../Drivers/STM32L0xx_HAL_Driver/Src/stm32l0xx_hal_uart.c **** 
 122:../../../../../../Drivers/STM32L0xx_HAL_Driver/Src/stm32l0xx_hal_uart.c **** #define UART_LPUART_BRR_MIN           ((uint32_t)0x00000300)  /* LPUART BRR minimum authorized valu
 123:../../../../../../Drivers/STM32L0xx_HAL_Driver/Src/stm32l0xx_hal_uart.c **** #define UART_LPUART_BRR_MAX           ((uint32_t)0x000FFFFF)  /* LPUART BRR maximum authorized valu
 124:../../../../../../Drivers/STM32L0xx_HAL_Driver/Src/stm32l0xx_hal_uart.c **** /**
 125:../../../../../../Drivers/STM32L0xx_HAL_Driver/Src/stm32l0xx_hal_uart.c ****   * @}
 126:../../../../../../Drivers/STM32L0xx_HAL_Driver/Src/stm32l0xx_hal_uart.c ****   */
 127:../../../../../../Drivers/STM32L0xx_HAL_Driver/Src/stm32l0xx_hal_uart.c **** 
 128:../../../../../../Drivers/STM32L0xx_HAL_Driver/Src/stm32l0xx_hal_uart.c **** /* Private macros ------------------------------------------------------------*/
 129:../../../../../../Drivers/STM32L0xx_HAL_Driver/Src/stm32l0xx_hal_uart.c **** /* Private variables ---------------------------------------------------------*/
 130:../../../../../../Drivers/STM32L0xx_HAL_Driver/Src/stm32l0xx_hal_uart.c **** /* Private function prototypes -----------------------------------------------*/
 131:../../../../../../Drivers/STM32L0xx_HAL_Driver/Src/stm32l0xx_hal_uart.c **** /** @addtogroup UART_Private_Functions
 132:../../../../../../Drivers/STM32L0xx_HAL_Driver/Src/stm32l0xx_hal_uart.c ****   * @{
 133:../../../../../../Drivers/STM32L0xx_HAL_Driver/Src/stm32l0xx_hal_uart.c ****   */
 134:../../../../../../Drivers/STM32L0xx_HAL_Driver/Src/stm32l0xx_hal_uart.c **** static void UART_EndTxTransfer(UART_HandleTypeDef *huart);
 135:../../../../../../Drivers/STM32L0xx_HAL_Driver/Src/stm32l0xx_hal_uart.c **** static void UART_EndRxTransfer(UART_HandleTypeDef *huart);
 136:../../../../../../Drivers/STM32L0xx_HAL_Driver/Src/stm32l0xx_hal_uart.c **** static void UART_DMATransmitCplt(DMA_HandleTypeDef *hdma);
 137:../../../../../../Drivers/STM32L0xx_HAL_Driver/Src/stm32l0xx_hal_uart.c **** static void UART_DMAReceiveCplt(DMA_HandleTypeDef *hdma);
 138:../../../../../../Drivers/STM32L0xx_HAL_Driver/Src/stm32l0xx_hal_uart.c **** static void UART_DMARxHalfCplt(DMA_HandleTypeDef *hdma);
 139:../../../../../../Drivers/STM32L0xx_HAL_Driver/Src/stm32l0xx_hal_uart.c **** static void UART_DMATxHalfCplt(DMA_HandleTypeDef *hdma);
 140:../../../../../../Drivers/STM32L0xx_HAL_Driver/Src/stm32l0xx_hal_uart.c **** static void UART_DMAError(DMA_HandleTypeDef *hdma);
 141:../../../../../../Drivers/STM32L0xx_HAL_Driver/Src/stm32l0xx_hal_uart.c **** static void UART_DMAAbortOnError(DMA_HandleTypeDef *hdma);
 142:../../../../../../Drivers/STM32L0xx_HAL_Driver/Src/stm32l0xx_hal_uart.c **** static void UART_DMATxAbortCallback(DMA_HandleTypeDef *hdma);
 143:../../../../../../Drivers/STM32L0xx_HAL_Driver/Src/stm32l0xx_hal_uart.c **** static void UART_DMARxAbortCallback(DMA_HandleTypeDef *hdma);
 144:../../../../../../Drivers/STM32L0xx_HAL_Driver/Src/stm32l0xx_hal_uart.c **** static void UART_DMATxOnlyAbortCallback(DMA_HandleTypeDef *hdma);
 145:../../../../../../Drivers/STM32L0xx_HAL_Driver/Src/stm32l0xx_hal_uart.c **** static void UART_DMARxOnlyAbortCallback(DMA_HandleTypeDef *hdma);
ARM GAS  C:\Users\EBANO_~1\AppData\Local\Temp\cclnSu0c.s 			page 4


 146:../../../../../../Drivers/STM32L0xx_HAL_Driver/Src/stm32l0xx_hal_uart.c **** static HAL_StatusTypeDef UART_Transmit_IT(UART_HandleTypeDef *huart);
 147:../../../../../../Drivers/STM32L0xx_HAL_Driver/Src/stm32l0xx_hal_uart.c **** static HAL_StatusTypeDef UART_EndTransmit_IT(UART_HandleTypeDef *huart);
 148:../../../../../../Drivers/STM32L0xx_HAL_Driver/Src/stm32l0xx_hal_uart.c **** static HAL_StatusTypeDef UART_Receive_IT(UART_HandleTypeDef *huart);
 149:../../../../../../Drivers/STM32L0xx_HAL_Driver/Src/stm32l0xx_hal_uart.c **** /**
 150:../../../../../../Drivers/STM32L0xx_HAL_Driver/Src/stm32l0xx_hal_uart.c ****   * @}
 151:../../../../../../Drivers/STM32L0xx_HAL_Driver/Src/stm32l0xx_hal_uart.c ****   */
 152:../../../../../../Drivers/STM32L0xx_HAL_Driver/Src/stm32l0xx_hal_uart.c **** 
 153:../../../../../../Drivers/STM32L0xx_HAL_Driver/Src/stm32l0xx_hal_uart.c **** /* Exported functions --------------------------------------------------------*/
 154:../../../../../../Drivers/STM32L0xx_HAL_Driver/Src/stm32l0xx_hal_uart.c **** 
 155:../../../../../../Drivers/STM32L0xx_HAL_Driver/Src/stm32l0xx_hal_uart.c **** /** @defgroup UART_Exported_Functions UART Exported Functions
 156:../../../../../../Drivers/STM32L0xx_HAL_Driver/Src/stm32l0xx_hal_uart.c ****   * @{
 157:../../../../../../Drivers/STM32L0xx_HAL_Driver/Src/stm32l0xx_hal_uart.c ****   */
 158:../../../../../../Drivers/STM32L0xx_HAL_Driver/Src/stm32l0xx_hal_uart.c **** 
 159:../../../../../../Drivers/STM32L0xx_HAL_Driver/Src/stm32l0xx_hal_uart.c **** /** @defgroup UART_Exported_Functions_Group1 Initialization and de-initialization functions
 160:../../../../../../Drivers/STM32L0xx_HAL_Driver/Src/stm32l0xx_hal_uart.c ****   *  @brief    Initialization and Configuration functions
 161:../../../../../../Drivers/STM32L0xx_HAL_Driver/Src/stm32l0xx_hal_uart.c ****   *
 162:../../../../../../Drivers/STM32L0xx_HAL_Driver/Src/stm32l0xx_hal_uart.c **** @verbatim
 163:../../../../../../Drivers/STM32L0xx_HAL_Driver/Src/stm32l0xx_hal_uart.c **** ===============================================================================
 164:../../../../../../Drivers/STM32L0xx_HAL_Driver/Src/stm32l0xx_hal_uart.c ****             ##### Initialization and Configuration functions #####
 165:../../../../../../Drivers/STM32L0xx_HAL_Driver/Src/stm32l0xx_hal_uart.c ****  ===============================================================================
 166:../../../../../../Drivers/STM32L0xx_HAL_Driver/Src/stm32l0xx_hal_uart.c ****     [..]
 167:../../../../../../Drivers/STM32L0xx_HAL_Driver/Src/stm32l0xx_hal_uart.c ****     This subsection provides a set of functions allowing to initialize the USARTx or the UARTy
 168:../../../../../../Drivers/STM32L0xx_HAL_Driver/Src/stm32l0xx_hal_uart.c ****     in asynchronous mode.
 169:../../../../../../Drivers/STM32L0xx_HAL_Driver/Src/stm32l0xx_hal_uart.c ****       (+) For the asynchronous mode the parameters below can be configured:
 170:../../../../../../Drivers/STM32L0xx_HAL_Driver/Src/stm32l0xx_hal_uart.c ****         (++) Baud Rate
 171:../../../../../../Drivers/STM32L0xx_HAL_Driver/Src/stm32l0xx_hal_uart.c ****         (++) Word Length
 172:../../../../../../Drivers/STM32L0xx_HAL_Driver/Src/stm32l0xx_hal_uart.c ****         (++) Stop Bit
 173:../../../../../../Drivers/STM32L0xx_HAL_Driver/Src/stm32l0xx_hal_uart.c ****         (++) Parity: If the parity is enabled, then the MSB bit of the data written
 174:../../../../../../Drivers/STM32L0xx_HAL_Driver/Src/stm32l0xx_hal_uart.c ****              in the data register is transmitted but is changed by the parity bit.
 175:../../../../../../Drivers/STM32L0xx_HAL_Driver/Src/stm32l0xx_hal_uart.c ****         (++) Hardware flow control
 176:../../../../../../Drivers/STM32L0xx_HAL_Driver/Src/stm32l0xx_hal_uart.c ****         (++) Receiver/transmitter modes
 177:../../../../../../Drivers/STM32L0xx_HAL_Driver/Src/stm32l0xx_hal_uart.c ****         (++) Over Sampling Method
 178:../../../../../../Drivers/STM32L0xx_HAL_Driver/Src/stm32l0xx_hal_uart.c ****         (++) One-Bit Sampling Method
 179:../../../../../../Drivers/STM32L0xx_HAL_Driver/Src/stm32l0xx_hal_uart.c ****       (+) For the asynchronous mode, the following advanced features can be configured as well:
 180:../../../../../../Drivers/STM32L0xx_HAL_Driver/Src/stm32l0xx_hal_uart.c ****         (++) TX and/or RX pin level inversion
 181:../../../../../../Drivers/STM32L0xx_HAL_Driver/Src/stm32l0xx_hal_uart.c ****         (++) data logical level inversion
 182:../../../../../../Drivers/STM32L0xx_HAL_Driver/Src/stm32l0xx_hal_uart.c ****         (++) RX and TX pins swap
 183:../../../../../../Drivers/STM32L0xx_HAL_Driver/Src/stm32l0xx_hal_uart.c ****         (++) RX overrun detection disabling
 184:../../../../../../Drivers/STM32L0xx_HAL_Driver/Src/stm32l0xx_hal_uart.c ****         (++) DMA disabling on RX error
 185:../../../../../../Drivers/STM32L0xx_HAL_Driver/Src/stm32l0xx_hal_uart.c ****         (++) MSB first on communication line
 186:../../../../../../Drivers/STM32L0xx_HAL_Driver/Src/stm32l0xx_hal_uart.c ****         (++) auto Baud rate detection
 187:../../../../../../Drivers/STM32L0xx_HAL_Driver/Src/stm32l0xx_hal_uart.c ****     [..]
 188:../../../../../../Drivers/STM32L0xx_HAL_Driver/Src/stm32l0xx_hal_uart.c ****     The HAL_UART_Init(), HAL_HalfDuplex_Init(), HAL_LIN_Init()and HAL_MultiProcessor_Init()API
 189:../../../../../../Drivers/STM32L0xx_HAL_Driver/Src/stm32l0xx_hal_uart.c ****     follow respectively the UART asynchronous, UART Half duplex, UART LIN mode
 190:../../../../../../Drivers/STM32L0xx_HAL_Driver/Src/stm32l0xx_hal_uart.c ****     and UART multiprocessor mode configuration procedures (details for the procedures
 191:../../../../../../Drivers/STM32L0xx_HAL_Driver/Src/stm32l0xx_hal_uart.c ****     are available in reference manual).
 192:../../../../../../Drivers/STM32L0xx_HAL_Driver/Src/stm32l0xx_hal_uart.c **** 
 193:../../../../../../Drivers/STM32L0xx_HAL_Driver/Src/stm32l0xx_hal_uart.c **** @endverbatim
 194:../../../../../../Drivers/STM32L0xx_HAL_Driver/Src/stm32l0xx_hal_uart.c **** 
 195:../../../../../../Drivers/STM32L0xx_HAL_Driver/Src/stm32l0xx_hal_uart.c ****   Depending on the frame length defined by the M1 and M0 bits (7-bit, 
 196:../../../../../../Drivers/STM32L0xx_HAL_Driver/Src/stm32l0xx_hal_uart.c ****   8-bit or 9-bit), the possible UART formats are listed in the 
 197:../../../../../../Drivers/STM32L0xx_HAL_Driver/Src/stm32l0xx_hal_uart.c ****   following table.
 198:../../../../../../Drivers/STM32L0xx_HAL_Driver/Src/stm32l0xx_hal_uart.c ****   
 199:../../../../../../Drivers/STM32L0xx_HAL_Driver/Src/stm32l0xx_hal_uart.c ****   Table 1. UART frame format.
 200:../../../../../../Drivers/STM32L0xx_HAL_Driver/Src/stm32l0xx_hal_uart.c ****     +-----------------------------------------------------------------------+
 201:../../../../../../Drivers/STM32L0xx_HAL_Driver/Src/stm32l0xx_hal_uart.c ****     |  M1 bit |  M0 bit |  PCE bit  |             UART frame                |
 202:../../../../../../Drivers/STM32L0xx_HAL_Driver/Src/stm32l0xx_hal_uart.c ****     |---------|---------|-----------|---------------------------------------|
ARM GAS  C:\Users\EBANO_~1\AppData\Local\Temp\cclnSu0c.s 			page 5


 203:../../../../../../Drivers/STM32L0xx_HAL_Driver/Src/stm32l0xx_hal_uart.c ****     |    0    |    0    |    0      |    | SB |    8 bit data   | STB |     |
 204:../../../../../../Drivers/STM32L0xx_HAL_Driver/Src/stm32l0xx_hal_uart.c ****     |---------|---------|-----------|---------------------------------------|
 205:../../../../../../Drivers/STM32L0xx_HAL_Driver/Src/stm32l0xx_hal_uart.c ****     |    0    |    0    |    1      |    | SB | 7 bit data | PB | STB |     |
 206:../../../../../../Drivers/STM32L0xx_HAL_Driver/Src/stm32l0xx_hal_uart.c ****     |---------|---------|-----------|---------------------------------------|
 207:../../../../../../Drivers/STM32L0xx_HAL_Driver/Src/stm32l0xx_hal_uart.c ****     |    0    |    1    |    0      |    | SB |    9 bit data   | STB |     |
 208:../../../../../../Drivers/STM32L0xx_HAL_Driver/Src/stm32l0xx_hal_uart.c ****     |---------|---------|-----------|---------------------------------------|
 209:../../../../../../Drivers/STM32L0xx_HAL_Driver/Src/stm32l0xx_hal_uart.c ****     |    0    |    1    |    1      |    | SB | 8 bit data | PB | STB |     |
 210:../../../../../../Drivers/STM32L0xx_HAL_Driver/Src/stm32l0xx_hal_uart.c ****     |---------|---------|-----------|---------------------------------------|
 211:../../../../../../Drivers/STM32L0xx_HAL_Driver/Src/stm32l0xx_hal_uart.c ****     |    1    |    0    |    0      |    | SB |    7 bit data   | STB |     |
 212:../../../../../../Drivers/STM32L0xx_HAL_Driver/Src/stm32l0xx_hal_uart.c ****     |---------|---------|-----------|---------------------------------------|
 213:../../../../../../Drivers/STM32L0xx_HAL_Driver/Src/stm32l0xx_hal_uart.c ****     |    1    |    0    |    1      |    | SB | 6 bit data | PB | STB |     |
 214:../../../../../../Drivers/STM32L0xx_HAL_Driver/Src/stm32l0xx_hal_uart.c ****     +-----------------------------------------------------------------------+
 215:../../../../../../Drivers/STM32L0xx_HAL_Driver/Src/stm32l0xx_hal_uart.c **** 
 216:../../../../../../Drivers/STM32L0xx_HAL_Driver/Src/stm32l0xx_hal_uart.c ****   * @{
 217:../../../../../../Drivers/STM32L0xx_HAL_Driver/Src/stm32l0xx_hal_uart.c ****   */
 218:../../../../../../Drivers/STM32L0xx_HAL_Driver/Src/stm32l0xx_hal_uart.c **** 
 219:../../../../../../Drivers/STM32L0xx_HAL_Driver/Src/stm32l0xx_hal_uart.c **** /**
 220:../../../../../../Drivers/STM32L0xx_HAL_Driver/Src/stm32l0xx_hal_uart.c ****   * @brief Initialize the UART mode according to the specified
 221:../../../../../../Drivers/STM32L0xx_HAL_Driver/Src/stm32l0xx_hal_uart.c ****   *        parameters in the UART_InitTypeDef and initialize the associated handle.
 222:../../../../../../Drivers/STM32L0xx_HAL_Driver/Src/stm32l0xx_hal_uart.c ****   * @param huart: UART handle.
 223:../../../../../../Drivers/STM32L0xx_HAL_Driver/Src/stm32l0xx_hal_uart.c ****   * @retval HAL status
 224:../../../../../../Drivers/STM32L0xx_HAL_Driver/Src/stm32l0xx_hal_uart.c ****   */
 225:../../../../../../Drivers/STM32L0xx_HAL_Driver/Src/stm32l0xx_hal_uart.c **** HAL_StatusTypeDef HAL_UART_Init(UART_HandleTypeDef *huart)
 226:../../../../../../Drivers/STM32L0xx_HAL_Driver/Src/stm32l0xx_hal_uart.c **** {
 227:../../../../../../Drivers/STM32L0xx_HAL_Driver/Src/stm32l0xx_hal_uart.c ****   /* Check the UART handle allocation */
 228:../../../../../../Drivers/STM32L0xx_HAL_Driver/Src/stm32l0xx_hal_uart.c ****   if(huart == NULL)
 229:../../../../../../Drivers/STM32L0xx_HAL_Driver/Src/stm32l0xx_hal_uart.c ****   {
 230:../../../../../../Drivers/STM32L0xx_HAL_Driver/Src/stm32l0xx_hal_uart.c ****     return HAL_ERROR;
 231:../../../../../../Drivers/STM32L0xx_HAL_Driver/Src/stm32l0xx_hal_uart.c ****   }
 232:../../../../../../Drivers/STM32L0xx_HAL_Driver/Src/stm32l0xx_hal_uart.c **** 
 233:../../../../../../Drivers/STM32L0xx_HAL_Driver/Src/stm32l0xx_hal_uart.c ****   if(huart->Init.HwFlowCtl != UART_HWCONTROL_NONE)
 234:../../../../../../Drivers/STM32L0xx_HAL_Driver/Src/stm32l0xx_hal_uart.c ****   {
 235:../../../../../../Drivers/STM32L0xx_HAL_Driver/Src/stm32l0xx_hal_uart.c ****     /* Check the parameters */
 236:../../../../../../Drivers/STM32L0xx_HAL_Driver/Src/stm32l0xx_hal_uart.c ****     assert_param(IS_UART_HWFLOW_INSTANCE(huart->Instance));
 237:../../../../../../Drivers/STM32L0xx_HAL_Driver/Src/stm32l0xx_hal_uart.c ****   }
 238:../../../../../../Drivers/STM32L0xx_HAL_Driver/Src/stm32l0xx_hal_uart.c ****   else
 239:../../../../../../Drivers/STM32L0xx_HAL_Driver/Src/stm32l0xx_hal_uart.c ****   {
 240:../../../../../../Drivers/STM32L0xx_HAL_Driver/Src/stm32l0xx_hal_uart.c ****     /* Check the parameters */
 241:../../../../../../Drivers/STM32L0xx_HAL_Driver/Src/stm32l0xx_hal_uart.c ****     assert_param(IS_UART_INSTANCE(huart->Instance));
 242:../../../../../../Drivers/STM32L0xx_HAL_Driver/Src/stm32l0xx_hal_uart.c ****   }
 243:../../../../../../Drivers/STM32L0xx_HAL_Driver/Src/stm32l0xx_hal_uart.c **** 
 244:../../../../../../Drivers/STM32L0xx_HAL_Driver/Src/stm32l0xx_hal_uart.c ****   if(huart->gState == HAL_UART_STATE_RESET)
 245:../../../../../../Drivers/STM32L0xx_HAL_Driver/Src/stm32l0xx_hal_uart.c ****   {
 246:../../../../../../Drivers/STM32L0xx_HAL_Driver/Src/stm32l0xx_hal_uart.c ****     /* Allocate lock resource and initialize it */
 247:../../../../../../Drivers/STM32L0xx_HAL_Driver/Src/stm32l0xx_hal_uart.c ****     huart->Lock = HAL_UNLOCKED;
 248:../../../../../../Drivers/STM32L0xx_HAL_Driver/Src/stm32l0xx_hal_uart.c **** 
 249:../../../../../../Drivers/STM32L0xx_HAL_Driver/Src/stm32l0xx_hal_uart.c ****     /* Init the low level hardware : GPIO, CLOCK */
 250:../../../../../../Drivers/STM32L0xx_HAL_Driver/Src/stm32l0xx_hal_uart.c ****     HAL_UART_MspInit(huart);
 251:../../../../../../Drivers/STM32L0xx_HAL_Driver/Src/stm32l0xx_hal_uart.c ****   }
 252:../../../../../../Drivers/STM32L0xx_HAL_Driver/Src/stm32l0xx_hal_uart.c **** 
 253:../../../../../../Drivers/STM32L0xx_HAL_Driver/Src/stm32l0xx_hal_uart.c ****   huart->gState = HAL_UART_STATE_BUSY;
 254:../../../../../../Drivers/STM32L0xx_HAL_Driver/Src/stm32l0xx_hal_uart.c **** 
 255:../../../../../../Drivers/STM32L0xx_HAL_Driver/Src/stm32l0xx_hal_uart.c ****   /* Disable the Peripheral */
 256:../../../../../../Drivers/STM32L0xx_HAL_Driver/Src/stm32l0xx_hal_uart.c ****   __HAL_UART_DISABLE(huart);
 257:../../../../../../Drivers/STM32L0xx_HAL_Driver/Src/stm32l0xx_hal_uart.c **** 
 258:../../../../../../Drivers/STM32L0xx_HAL_Driver/Src/stm32l0xx_hal_uart.c ****   /* Set the UART Communication parameters */
 259:../../../../../../Drivers/STM32L0xx_HAL_Driver/Src/stm32l0xx_hal_uart.c ****   if (huart->AdvancedInit.AdvFeatureInit != UART_ADVFEATURE_NO_INIT)
ARM GAS  C:\Users\EBANO_~1\AppData\Local\Temp\cclnSu0c.s 			page 6


 260:../../../../../../Drivers/STM32L0xx_HAL_Driver/Src/stm32l0xx_hal_uart.c ****   {
 261:../../../../../../Drivers/STM32L0xx_HAL_Driver/Src/stm32l0xx_hal_uart.c ****     UART_AdvFeatureConfig(huart);
 262:../../../../../../Drivers/STM32L0xx_HAL_Driver/Src/stm32l0xx_hal_uart.c ****   }
 263:../../../../../../Drivers/STM32L0xx_HAL_Driver/Src/stm32l0xx_hal_uart.c **** 
 264:../../../../../../Drivers/STM32L0xx_HAL_Driver/Src/stm32l0xx_hal_uart.c ****   if (UART_SetConfig(huart) == HAL_ERROR)
 265:../../../../../../Drivers/STM32L0xx_HAL_Driver/Src/stm32l0xx_hal_uart.c ****   {
 266:../../../../../../Drivers/STM32L0xx_HAL_Driver/Src/stm32l0xx_hal_uart.c ****     return HAL_ERROR;
 267:../../../../../../Drivers/STM32L0xx_HAL_Driver/Src/stm32l0xx_hal_uart.c ****   }
 268:../../../../../../Drivers/STM32L0xx_HAL_Driver/Src/stm32l0xx_hal_uart.c **** 
 269:../../../../../../Drivers/STM32L0xx_HAL_Driver/Src/stm32l0xx_hal_uart.c ****   /* In asynchronous mode, the following bits must be kept cleared:
 270:../../../../../../Drivers/STM32L0xx_HAL_Driver/Src/stm32l0xx_hal_uart.c ****   - LINEN and CLKEN bits in the USART_CR2 register,
 271:../../../../../../Drivers/STM32L0xx_HAL_Driver/Src/stm32l0xx_hal_uart.c ****   - SCEN, HDSEL and IREN  bits in the USART_CR3 register.*/
 272:../../../../../../Drivers/STM32L0xx_HAL_Driver/Src/stm32l0xx_hal_uart.c ****   CLEAR_BIT(huart->Instance->CR2, (USART_CR2_LINEN | USART_CR2_CLKEN));
 273:../../../../../../Drivers/STM32L0xx_HAL_Driver/Src/stm32l0xx_hal_uart.c ****   CLEAR_BIT(huart->Instance->CR3, (USART_CR3_SCEN | USART_CR3_HDSEL | USART_CR3_IREN));
 274:../../../../../../Drivers/STM32L0xx_HAL_Driver/Src/stm32l0xx_hal_uart.c **** 
 275:../../../../../../Drivers/STM32L0xx_HAL_Driver/Src/stm32l0xx_hal_uart.c ****   /* Enable the Peripheral */
 276:../../../../../../Drivers/STM32L0xx_HAL_Driver/Src/stm32l0xx_hal_uart.c ****   __HAL_UART_ENABLE(huart);
 277:../../../../../../Drivers/STM32L0xx_HAL_Driver/Src/stm32l0xx_hal_uart.c **** 
 278:../../../../../../Drivers/STM32L0xx_HAL_Driver/Src/stm32l0xx_hal_uart.c ****   /* TEACK and/or REACK to check before moving huart->gState and huart->RxState to Ready */
 279:../../../../../../Drivers/STM32L0xx_HAL_Driver/Src/stm32l0xx_hal_uart.c ****   return (UART_CheckIdleState(huart));
 280:../../../../../../Drivers/STM32L0xx_HAL_Driver/Src/stm32l0xx_hal_uart.c **** }
 281:../../../../../../Drivers/STM32L0xx_HAL_Driver/Src/stm32l0xx_hal_uart.c **** 
 282:../../../../../../Drivers/STM32L0xx_HAL_Driver/Src/stm32l0xx_hal_uart.c **** /**
 283:../../../../../../Drivers/STM32L0xx_HAL_Driver/Src/stm32l0xx_hal_uart.c ****   * @brief Initialize the half-duplex mode according to the specified
 284:../../../../../../Drivers/STM32L0xx_HAL_Driver/Src/stm32l0xx_hal_uart.c ****   *        parameters in the UART_InitTypeDef and creates the associated handle.
 285:../../../../../../Drivers/STM32L0xx_HAL_Driver/Src/stm32l0xx_hal_uart.c ****   * @param huart: UART handle.
 286:../../../../../../Drivers/STM32L0xx_HAL_Driver/Src/stm32l0xx_hal_uart.c ****   * @retval HAL status
 287:../../../../../../Drivers/STM32L0xx_HAL_Driver/Src/stm32l0xx_hal_uart.c ****   */
 288:../../../../../../Drivers/STM32L0xx_HAL_Driver/Src/stm32l0xx_hal_uart.c **** HAL_StatusTypeDef HAL_HalfDuplex_Init(UART_HandleTypeDef *huart)
 289:../../../../../../Drivers/STM32L0xx_HAL_Driver/Src/stm32l0xx_hal_uart.c **** {
 290:../../../../../../Drivers/STM32L0xx_HAL_Driver/Src/stm32l0xx_hal_uart.c ****   /* Check the UART handle allocation */
 291:../../../../../../Drivers/STM32L0xx_HAL_Driver/Src/stm32l0xx_hal_uart.c ****   if(huart == NULL)
 292:../../../../../../Drivers/STM32L0xx_HAL_Driver/Src/stm32l0xx_hal_uart.c ****   {
 293:../../../../../../Drivers/STM32L0xx_HAL_Driver/Src/stm32l0xx_hal_uart.c ****     return HAL_ERROR;
 294:../../../../../../Drivers/STM32L0xx_HAL_Driver/Src/stm32l0xx_hal_uart.c ****   }
 295:../../../../../../Drivers/STM32L0xx_HAL_Driver/Src/stm32l0xx_hal_uart.c **** 
 296:../../../../../../Drivers/STM32L0xx_HAL_Driver/Src/stm32l0xx_hal_uart.c ****   /* Check UART instance */
 297:../../../../../../Drivers/STM32L0xx_HAL_Driver/Src/stm32l0xx_hal_uart.c ****   assert_param(IS_UART_HALFDUPLEX_INSTANCE(huart->Instance));
 298:../../../../../../Drivers/STM32L0xx_HAL_Driver/Src/stm32l0xx_hal_uart.c **** 
 299:../../../../../../Drivers/STM32L0xx_HAL_Driver/Src/stm32l0xx_hal_uart.c ****   if(huart->gState == HAL_UART_STATE_RESET)
 300:../../../../../../Drivers/STM32L0xx_HAL_Driver/Src/stm32l0xx_hal_uart.c ****   {
 301:../../../../../../Drivers/STM32L0xx_HAL_Driver/Src/stm32l0xx_hal_uart.c ****     /* Allocate lock resource and initialize it */
 302:../../../../../../Drivers/STM32L0xx_HAL_Driver/Src/stm32l0xx_hal_uart.c ****     huart->Lock = HAL_UNLOCKED;
 303:../../../../../../Drivers/STM32L0xx_HAL_Driver/Src/stm32l0xx_hal_uart.c **** 
 304:../../../../../../Drivers/STM32L0xx_HAL_Driver/Src/stm32l0xx_hal_uart.c ****     /* Init the low level hardware : GPIO, CLOCK */
 305:../../../../../../Drivers/STM32L0xx_HAL_Driver/Src/stm32l0xx_hal_uart.c ****     HAL_UART_MspInit(huart);
 306:../../../../../../Drivers/STM32L0xx_HAL_Driver/Src/stm32l0xx_hal_uart.c ****   }
 307:../../../../../../Drivers/STM32L0xx_HAL_Driver/Src/stm32l0xx_hal_uart.c **** 
 308:../../../../../../Drivers/STM32L0xx_HAL_Driver/Src/stm32l0xx_hal_uart.c ****   huart->gState = HAL_UART_STATE_BUSY;
 309:../../../../../../Drivers/STM32L0xx_HAL_Driver/Src/stm32l0xx_hal_uart.c **** 
 310:../../../../../../Drivers/STM32L0xx_HAL_Driver/Src/stm32l0xx_hal_uart.c ****   /* Disable the Peripheral */
 311:../../../../../../Drivers/STM32L0xx_HAL_Driver/Src/stm32l0xx_hal_uart.c ****   __HAL_UART_DISABLE(huart);
 312:../../../../../../Drivers/STM32L0xx_HAL_Driver/Src/stm32l0xx_hal_uart.c **** 
 313:../../../../../../Drivers/STM32L0xx_HAL_Driver/Src/stm32l0xx_hal_uart.c ****   /* Set the UART Communication parameters */
 314:../../../../../../Drivers/STM32L0xx_HAL_Driver/Src/stm32l0xx_hal_uart.c ****   if (huart->AdvancedInit.AdvFeatureInit != UART_ADVFEATURE_NO_INIT)
 315:../../../../../../Drivers/STM32L0xx_HAL_Driver/Src/stm32l0xx_hal_uart.c ****   {
 316:../../../../../../Drivers/STM32L0xx_HAL_Driver/Src/stm32l0xx_hal_uart.c ****     UART_AdvFeatureConfig(huart);
ARM GAS  C:\Users\EBANO_~1\AppData\Local\Temp\cclnSu0c.s 			page 7


 317:../../../../../../Drivers/STM32L0xx_HAL_Driver/Src/stm32l0xx_hal_uart.c ****   }
 318:../../../../../../Drivers/STM32L0xx_HAL_Driver/Src/stm32l0xx_hal_uart.c **** 
 319:../../../../../../Drivers/STM32L0xx_HAL_Driver/Src/stm32l0xx_hal_uart.c ****   if (UART_SetConfig(huart) == HAL_ERROR)
 320:../../../../../../Drivers/STM32L0xx_HAL_Driver/Src/stm32l0xx_hal_uart.c ****   {
 321:../../../../../../Drivers/STM32L0xx_HAL_Driver/Src/stm32l0xx_hal_uart.c ****     return HAL_ERROR;
 322:../../../../../../Drivers/STM32L0xx_HAL_Driver/Src/stm32l0xx_hal_uart.c ****   }
 323:../../../../../../Drivers/STM32L0xx_HAL_Driver/Src/stm32l0xx_hal_uart.c **** 
 324:../../../../../../Drivers/STM32L0xx_HAL_Driver/Src/stm32l0xx_hal_uart.c ****   /* In half-duplex mode, the following bits must be kept cleared:
 325:../../../../../../Drivers/STM32L0xx_HAL_Driver/Src/stm32l0xx_hal_uart.c ****   - LINEN and CLKEN bits in the USART_CR2 register,
 326:../../../../../../Drivers/STM32L0xx_HAL_Driver/Src/stm32l0xx_hal_uart.c ****   - SCEN and IREN bits in the USART_CR3 register.*/
 327:../../../../../../Drivers/STM32L0xx_HAL_Driver/Src/stm32l0xx_hal_uart.c ****   CLEAR_BIT(huart->Instance->CR2, (USART_CR2_LINEN | USART_CR2_CLKEN));
 328:../../../../../../Drivers/STM32L0xx_HAL_Driver/Src/stm32l0xx_hal_uart.c ****   CLEAR_BIT(huart->Instance->CR3, (USART_CR3_IREN | USART_CR3_SCEN));
 329:../../../../../../Drivers/STM32L0xx_HAL_Driver/Src/stm32l0xx_hal_uart.c **** 
 330:../../../../../../Drivers/STM32L0xx_HAL_Driver/Src/stm32l0xx_hal_uart.c ****   /* Enable the Half-Duplex mode by setting the HDSEL bit in the CR3 register */
 331:../../../../../../Drivers/STM32L0xx_HAL_Driver/Src/stm32l0xx_hal_uart.c ****   SET_BIT(huart->Instance->CR3, USART_CR3_HDSEL);
 332:../../../../../../Drivers/STM32L0xx_HAL_Driver/Src/stm32l0xx_hal_uart.c **** 
 333:../../../../../../Drivers/STM32L0xx_HAL_Driver/Src/stm32l0xx_hal_uart.c ****   /* Enable the Peripheral */
 334:../../../../../../Drivers/STM32L0xx_HAL_Driver/Src/stm32l0xx_hal_uart.c ****   __HAL_UART_ENABLE(huart);
 335:../../../../../../Drivers/STM32L0xx_HAL_Driver/Src/stm32l0xx_hal_uart.c **** 
 336:../../../../../../Drivers/STM32L0xx_HAL_Driver/Src/stm32l0xx_hal_uart.c ****   /* TEACK and/or REACK to check before moving huart->gState and huart->RxState to Ready */
 337:../../../../../../Drivers/STM32L0xx_HAL_Driver/Src/stm32l0xx_hal_uart.c ****   return (UART_CheckIdleState(huart));
 338:../../../../../../Drivers/STM32L0xx_HAL_Driver/Src/stm32l0xx_hal_uart.c **** }
 339:../../../../../../Drivers/STM32L0xx_HAL_Driver/Src/stm32l0xx_hal_uart.c **** 
 340:../../../../../../Drivers/STM32L0xx_HAL_Driver/Src/stm32l0xx_hal_uart.c **** 
 341:../../../../../../Drivers/STM32L0xx_HAL_Driver/Src/stm32l0xx_hal_uart.c **** /**
 342:../../../../../../Drivers/STM32L0xx_HAL_Driver/Src/stm32l0xx_hal_uart.c ****   * @brief Initialize the LIN mode according to the specified
 343:../../../../../../Drivers/STM32L0xx_HAL_Driver/Src/stm32l0xx_hal_uart.c ****   *        parameters in the UART_InitTypeDef and creates the associated handle .
 344:../../../../../../Drivers/STM32L0xx_HAL_Driver/Src/stm32l0xx_hal_uart.c ****   * @param huart: UART handle.
 345:../../../../../../Drivers/STM32L0xx_HAL_Driver/Src/stm32l0xx_hal_uart.c ****   * @param BreakDetectLength: specifies the LIN break detection length.
 346:../../../../../../Drivers/STM32L0xx_HAL_Driver/Src/stm32l0xx_hal_uart.c ****   *        This parameter can be one of the following values:
 347:../../../../../../Drivers/STM32L0xx_HAL_Driver/Src/stm32l0xx_hal_uart.c ****   *          @arg @ref UART_LINBREAKDETECTLENGTH_10B 10-bit break detection
 348:../../../../../../Drivers/STM32L0xx_HAL_Driver/Src/stm32l0xx_hal_uart.c ****   *          @arg @ref UART_LINBREAKDETECTLENGTH_11B 11-bit break detection
 349:../../../../../../Drivers/STM32L0xx_HAL_Driver/Src/stm32l0xx_hal_uart.c ****   * @retval HAL status
 350:../../../../../../Drivers/STM32L0xx_HAL_Driver/Src/stm32l0xx_hal_uart.c ****   */
 351:../../../../../../Drivers/STM32L0xx_HAL_Driver/Src/stm32l0xx_hal_uart.c **** HAL_StatusTypeDef HAL_LIN_Init(UART_HandleTypeDef *huart, uint32_t BreakDetectLength)
 352:../../../../../../Drivers/STM32L0xx_HAL_Driver/Src/stm32l0xx_hal_uart.c **** {
 353:../../../../../../Drivers/STM32L0xx_HAL_Driver/Src/stm32l0xx_hal_uart.c ****   /* Check the UART handle allocation */
 354:../../../../../../Drivers/STM32L0xx_HAL_Driver/Src/stm32l0xx_hal_uart.c ****   if(huart == NULL)
 355:../../../../../../Drivers/STM32L0xx_HAL_Driver/Src/stm32l0xx_hal_uart.c ****   {
 356:../../../../../../Drivers/STM32L0xx_HAL_Driver/Src/stm32l0xx_hal_uart.c ****     return HAL_ERROR;
 357:../../../../../../Drivers/STM32L0xx_HAL_Driver/Src/stm32l0xx_hal_uart.c ****   }
 358:../../../../../../Drivers/STM32L0xx_HAL_Driver/Src/stm32l0xx_hal_uart.c **** 
 359:../../../../../../Drivers/STM32L0xx_HAL_Driver/Src/stm32l0xx_hal_uart.c ****   /* Check the LIN UART instance */
 360:../../../../../../Drivers/STM32L0xx_HAL_Driver/Src/stm32l0xx_hal_uart.c ****   assert_param(IS_UART_LIN_INSTANCE(huart->Instance));
 361:../../../../../../Drivers/STM32L0xx_HAL_Driver/Src/stm32l0xx_hal_uart.c ****   /* Check the Break detection length parameter */
 362:../../../../../../Drivers/STM32L0xx_HAL_Driver/Src/stm32l0xx_hal_uart.c ****   assert_param(IS_UART_LIN_BREAK_DETECT_LENGTH(BreakDetectLength));
 363:../../../../../../Drivers/STM32L0xx_HAL_Driver/Src/stm32l0xx_hal_uart.c **** 
 364:../../../../../../Drivers/STM32L0xx_HAL_Driver/Src/stm32l0xx_hal_uart.c ****   /* LIN mode limited to 16-bit oversampling only */
 365:../../../../../../Drivers/STM32L0xx_HAL_Driver/Src/stm32l0xx_hal_uart.c ****   if(huart->Init.OverSampling == UART_OVERSAMPLING_8)
 366:../../../../../../Drivers/STM32L0xx_HAL_Driver/Src/stm32l0xx_hal_uart.c ****   {
 367:../../../../../../Drivers/STM32L0xx_HAL_Driver/Src/stm32l0xx_hal_uart.c ****     return HAL_ERROR;
 368:../../../../../../Drivers/STM32L0xx_HAL_Driver/Src/stm32l0xx_hal_uart.c ****   }
 369:../../../../../../Drivers/STM32L0xx_HAL_Driver/Src/stm32l0xx_hal_uart.c ****   /* LIN mode limited to 8-bit data length */
 370:../../../../../../Drivers/STM32L0xx_HAL_Driver/Src/stm32l0xx_hal_uart.c ****   if(huart->Init.WordLength != UART_WORDLENGTH_8B)
 371:../../../../../../Drivers/STM32L0xx_HAL_Driver/Src/stm32l0xx_hal_uart.c ****   {
 372:../../../../../../Drivers/STM32L0xx_HAL_Driver/Src/stm32l0xx_hal_uart.c ****     return HAL_ERROR;
 373:../../../../../../Drivers/STM32L0xx_HAL_Driver/Src/stm32l0xx_hal_uart.c ****   }
ARM GAS  C:\Users\EBANO_~1\AppData\Local\Temp\cclnSu0c.s 			page 8


 374:../../../../../../Drivers/STM32L0xx_HAL_Driver/Src/stm32l0xx_hal_uart.c **** 
 375:../../../../../../Drivers/STM32L0xx_HAL_Driver/Src/stm32l0xx_hal_uart.c ****   if(huart->gState == HAL_UART_STATE_RESET)
 376:../../../../../../Drivers/STM32L0xx_HAL_Driver/Src/stm32l0xx_hal_uart.c ****   {
 377:../../../../../../Drivers/STM32L0xx_HAL_Driver/Src/stm32l0xx_hal_uart.c ****     /* Allocate lock resource and initialize it */
 378:../../../../../../Drivers/STM32L0xx_HAL_Driver/Src/stm32l0xx_hal_uart.c ****     huart->Lock = HAL_UNLOCKED;
 379:../../../../../../Drivers/STM32L0xx_HAL_Driver/Src/stm32l0xx_hal_uart.c **** 
 380:../../../../../../Drivers/STM32L0xx_HAL_Driver/Src/stm32l0xx_hal_uart.c ****     /* Init the low level hardware : GPIO, CLOCK */
 381:../../../../../../Drivers/STM32L0xx_HAL_Driver/Src/stm32l0xx_hal_uart.c ****     HAL_UART_MspInit(huart);
 382:../../../../../../Drivers/STM32L0xx_HAL_Driver/Src/stm32l0xx_hal_uart.c ****   }
 383:../../../../../../Drivers/STM32L0xx_HAL_Driver/Src/stm32l0xx_hal_uart.c **** 
 384:../../../../../../Drivers/STM32L0xx_HAL_Driver/Src/stm32l0xx_hal_uart.c ****   huart->gState = HAL_UART_STATE_BUSY;
 385:../../../../../../Drivers/STM32L0xx_HAL_Driver/Src/stm32l0xx_hal_uart.c **** 
 386:../../../../../../Drivers/STM32L0xx_HAL_Driver/Src/stm32l0xx_hal_uart.c ****   /* Disable the Peripheral */
 387:../../../../../../Drivers/STM32L0xx_HAL_Driver/Src/stm32l0xx_hal_uart.c ****   __HAL_UART_DISABLE(huart);
 388:../../../../../../Drivers/STM32L0xx_HAL_Driver/Src/stm32l0xx_hal_uart.c **** 
 389:../../../../../../Drivers/STM32L0xx_HAL_Driver/Src/stm32l0xx_hal_uart.c ****   /* Set the UART Communication parameters */
 390:../../../../../../Drivers/STM32L0xx_HAL_Driver/Src/stm32l0xx_hal_uart.c ****   if (huart->AdvancedInit.AdvFeatureInit != UART_ADVFEATURE_NO_INIT)
 391:../../../../../../Drivers/STM32L0xx_HAL_Driver/Src/stm32l0xx_hal_uart.c ****   {
 392:../../../../../../Drivers/STM32L0xx_HAL_Driver/Src/stm32l0xx_hal_uart.c ****     UART_AdvFeatureConfig(huart);
 393:../../../../../../Drivers/STM32L0xx_HAL_Driver/Src/stm32l0xx_hal_uart.c ****   }
 394:../../../../../../Drivers/STM32L0xx_HAL_Driver/Src/stm32l0xx_hal_uart.c **** 
 395:../../../../../../Drivers/STM32L0xx_HAL_Driver/Src/stm32l0xx_hal_uart.c ****   if (UART_SetConfig(huart) == HAL_ERROR)
 396:../../../../../../Drivers/STM32L0xx_HAL_Driver/Src/stm32l0xx_hal_uart.c ****   {
 397:../../../../../../Drivers/STM32L0xx_HAL_Driver/Src/stm32l0xx_hal_uart.c ****     return HAL_ERROR;
 398:../../../../../../Drivers/STM32L0xx_HAL_Driver/Src/stm32l0xx_hal_uart.c ****   }
 399:../../../../../../Drivers/STM32L0xx_HAL_Driver/Src/stm32l0xx_hal_uart.c **** 
 400:../../../../../../Drivers/STM32L0xx_HAL_Driver/Src/stm32l0xx_hal_uart.c ****   /* In LIN mode, the following bits must be kept cleared:
 401:../../../../../../Drivers/STM32L0xx_HAL_Driver/Src/stm32l0xx_hal_uart.c ****   - LINEN and CLKEN bits in the USART_CR2 register,
 402:../../../../../../Drivers/STM32L0xx_HAL_Driver/Src/stm32l0xx_hal_uart.c ****   - SCEN and IREN bits in the USART_CR3 register.*/
 403:../../../../../../Drivers/STM32L0xx_HAL_Driver/Src/stm32l0xx_hal_uart.c ****   CLEAR_BIT(huart->Instance->CR2, USART_CR2_CLKEN);
 404:../../../../../../Drivers/STM32L0xx_HAL_Driver/Src/stm32l0xx_hal_uart.c ****   CLEAR_BIT(huart->Instance->CR3, (USART_CR3_HDSEL | USART_CR3_IREN | USART_CR3_SCEN));
 405:../../../../../../Drivers/STM32L0xx_HAL_Driver/Src/stm32l0xx_hal_uart.c **** 
 406:../../../../../../Drivers/STM32L0xx_HAL_Driver/Src/stm32l0xx_hal_uart.c ****   /* Enable the LIN mode by setting the LINEN bit in the CR2 register */
 407:../../../../../../Drivers/STM32L0xx_HAL_Driver/Src/stm32l0xx_hal_uart.c ****   SET_BIT(huart->Instance->CR2, USART_CR2_LINEN);
 408:../../../../../../Drivers/STM32L0xx_HAL_Driver/Src/stm32l0xx_hal_uart.c **** 
 409:../../../../../../Drivers/STM32L0xx_HAL_Driver/Src/stm32l0xx_hal_uart.c ****   /* Set the USART LIN Break detection length. */
 410:../../../../../../Drivers/STM32L0xx_HAL_Driver/Src/stm32l0xx_hal_uart.c ****   MODIFY_REG(huart->Instance->CR2, USART_CR2_LBDL, BreakDetectLength);
 411:../../../../../../Drivers/STM32L0xx_HAL_Driver/Src/stm32l0xx_hal_uart.c **** 
 412:../../../../../../Drivers/STM32L0xx_HAL_Driver/Src/stm32l0xx_hal_uart.c ****   /* Enable the Peripheral */
 413:../../../../../../Drivers/STM32L0xx_HAL_Driver/Src/stm32l0xx_hal_uart.c ****   __HAL_UART_ENABLE(huart);
 414:../../../../../../Drivers/STM32L0xx_HAL_Driver/Src/stm32l0xx_hal_uart.c **** 
 415:../../../../../../Drivers/STM32L0xx_HAL_Driver/Src/stm32l0xx_hal_uart.c ****   /* TEACK and/or REACK to check before moving huart->gState and huart->RxState to Ready */
 416:../../../../../../Drivers/STM32L0xx_HAL_Driver/Src/stm32l0xx_hal_uart.c ****   return (UART_CheckIdleState(huart));
 417:../../../../../../Drivers/STM32L0xx_HAL_Driver/Src/stm32l0xx_hal_uart.c **** }
 418:../../../../../../Drivers/STM32L0xx_HAL_Driver/Src/stm32l0xx_hal_uart.c **** 
 419:../../../../../../Drivers/STM32L0xx_HAL_Driver/Src/stm32l0xx_hal_uart.c **** 
 420:../../../../../../Drivers/STM32L0xx_HAL_Driver/Src/stm32l0xx_hal_uart.c **** /**
 421:../../../../../../Drivers/STM32L0xx_HAL_Driver/Src/stm32l0xx_hal_uart.c ****   * @brief Initialize the multiprocessor mode according to the specified
 422:../../../../../../Drivers/STM32L0xx_HAL_Driver/Src/stm32l0xx_hal_uart.c ****   *        parameters in the UART_InitTypeDef and initialize the associated handle.
 423:../../../../../../Drivers/STM32L0xx_HAL_Driver/Src/stm32l0xx_hal_uart.c ****   * @param huart: UART handle.
 424:../../../../../../Drivers/STM32L0xx_HAL_Driver/Src/stm32l0xx_hal_uart.c ****   * @param Address: UART node address (4-, 6-, 7- or 8-bit long).
 425:../../../../../../Drivers/STM32L0xx_HAL_Driver/Src/stm32l0xx_hal_uart.c ****   * @param WakeUpMethod: specifies the UART wakeup method.
 426:../../../../../../Drivers/STM32L0xx_HAL_Driver/Src/stm32l0xx_hal_uart.c ****   *        This parameter can be one of the following values:
 427:../../../../../../Drivers/STM32L0xx_HAL_Driver/Src/stm32l0xx_hal_uart.c ****   *          @arg @ref UART_WAKEUPMETHOD_IDLELINE WakeUp by an idle line detection
 428:../../../../../../Drivers/STM32L0xx_HAL_Driver/Src/stm32l0xx_hal_uart.c ****   *          @arg @ref UART_WAKEUPMETHOD_ADDRESSMARK WakeUp by an address mark
 429:../../../../../../Drivers/STM32L0xx_HAL_Driver/Src/stm32l0xx_hal_uart.c ****   * @note  If the user resorts to idle line detection wake up, the Address parameter
 430:../../../../../../Drivers/STM32L0xx_HAL_Driver/Src/stm32l0xx_hal_uart.c ****   *        is useless and ignored by the initialization function.
ARM GAS  C:\Users\EBANO_~1\AppData\Local\Temp\cclnSu0c.s 			page 9


 431:../../../../../../Drivers/STM32L0xx_HAL_Driver/Src/stm32l0xx_hal_uart.c ****   * @note  If the user resorts to address mark wake up, the address length detection
 432:../../../../../../Drivers/STM32L0xx_HAL_Driver/Src/stm32l0xx_hal_uart.c ****   *        is configured by default to 4 bits only. For the UART to be able to
 433:../../../../../../Drivers/STM32L0xx_HAL_Driver/Src/stm32l0xx_hal_uart.c ****   *        manage 6-, 7- or 8-bit long addresses detection, the API
 434:../../../../../../Drivers/STM32L0xx_HAL_Driver/Src/stm32l0xx_hal_uart.c ****   *        HAL_MultiProcessorEx_AddressLength_Set() must be called after
 435:../../../../../../Drivers/STM32L0xx_HAL_Driver/Src/stm32l0xx_hal_uart.c ****   *        HAL_MultiProcessor_Init().
 436:../../../../../../Drivers/STM32L0xx_HAL_Driver/Src/stm32l0xx_hal_uart.c ****   * @retval HAL status
 437:../../../../../../Drivers/STM32L0xx_HAL_Driver/Src/stm32l0xx_hal_uart.c ****   */
 438:../../../../../../Drivers/STM32L0xx_HAL_Driver/Src/stm32l0xx_hal_uart.c **** HAL_StatusTypeDef HAL_MultiProcessor_Init(UART_HandleTypeDef *huart, uint8_t Address, uint32_t Wake
 439:../../../../../../Drivers/STM32L0xx_HAL_Driver/Src/stm32l0xx_hal_uart.c **** {
 440:../../../../../../Drivers/STM32L0xx_HAL_Driver/Src/stm32l0xx_hal_uart.c ****   /* Check the UART handle allocation */
 441:../../../../../../Drivers/STM32L0xx_HAL_Driver/Src/stm32l0xx_hal_uart.c ****   if(huart == NULL)
 442:../../../../../../Drivers/STM32L0xx_HAL_Driver/Src/stm32l0xx_hal_uart.c ****   {
 443:../../../../../../Drivers/STM32L0xx_HAL_Driver/Src/stm32l0xx_hal_uart.c ****     return HAL_ERROR;
 444:../../../../../../Drivers/STM32L0xx_HAL_Driver/Src/stm32l0xx_hal_uart.c ****   }
 445:../../../../../../Drivers/STM32L0xx_HAL_Driver/Src/stm32l0xx_hal_uart.c **** 
 446:../../../../../../Drivers/STM32L0xx_HAL_Driver/Src/stm32l0xx_hal_uart.c ****   /* Check the wake up method parameter */
 447:../../../../../../Drivers/STM32L0xx_HAL_Driver/Src/stm32l0xx_hal_uart.c ****   assert_param(IS_UART_WAKEUPMETHOD(WakeUpMethod));
 448:../../../../../../Drivers/STM32L0xx_HAL_Driver/Src/stm32l0xx_hal_uart.c **** 
 449:../../../../../../Drivers/STM32L0xx_HAL_Driver/Src/stm32l0xx_hal_uart.c ****   if(huart->gState == HAL_UART_STATE_RESET)
 450:../../../../../../Drivers/STM32L0xx_HAL_Driver/Src/stm32l0xx_hal_uart.c ****   {
 451:../../../../../../Drivers/STM32L0xx_HAL_Driver/Src/stm32l0xx_hal_uart.c ****     /* Allocate lock resource and initialize it */
 452:../../../../../../Drivers/STM32L0xx_HAL_Driver/Src/stm32l0xx_hal_uart.c ****     huart->Lock = HAL_UNLOCKED;
 453:../../../../../../Drivers/STM32L0xx_HAL_Driver/Src/stm32l0xx_hal_uart.c **** 
 454:../../../../../../Drivers/STM32L0xx_HAL_Driver/Src/stm32l0xx_hal_uart.c ****     /* Init the low level hardware : GPIO, CLOCK */
 455:../../../../../../Drivers/STM32L0xx_HAL_Driver/Src/stm32l0xx_hal_uart.c ****     HAL_UART_MspInit(huart);
 456:../../../../../../Drivers/STM32L0xx_HAL_Driver/Src/stm32l0xx_hal_uart.c ****   }
 457:../../../../../../Drivers/STM32L0xx_HAL_Driver/Src/stm32l0xx_hal_uart.c **** 
 458:../../../../../../Drivers/STM32L0xx_HAL_Driver/Src/stm32l0xx_hal_uart.c ****   huart->gState = HAL_UART_STATE_BUSY;
 459:../../../../../../Drivers/STM32L0xx_HAL_Driver/Src/stm32l0xx_hal_uart.c **** 
 460:../../../../../../Drivers/STM32L0xx_HAL_Driver/Src/stm32l0xx_hal_uart.c ****   /* Disable the Peripheral */
 461:../../../../../../Drivers/STM32L0xx_HAL_Driver/Src/stm32l0xx_hal_uart.c ****   __HAL_UART_DISABLE(huart);
 462:../../../../../../Drivers/STM32L0xx_HAL_Driver/Src/stm32l0xx_hal_uart.c **** 
 463:../../../../../../Drivers/STM32L0xx_HAL_Driver/Src/stm32l0xx_hal_uart.c ****   /* Set the UART Communication parameters */
 464:../../../../../../Drivers/STM32L0xx_HAL_Driver/Src/stm32l0xx_hal_uart.c ****   if (huart->AdvancedInit.AdvFeatureInit != UART_ADVFEATURE_NO_INIT)
 465:../../../../../../Drivers/STM32L0xx_HAL_Driver/Src/stm32l0xx_hal_uart.c ****   {
 466:../../../../../../Drivers/STM32L0xx_HAL_Driver/Src/stm32l0xx_hal_uart.c ****     UART_AdvFeatureConfig(huart);
 467:../../../../../../Drivers/STM32L0xx_HAL_Driver/Src/stm32l0xx_hal_uart.c ****   }
 468:../../../../../../Drivers/STM32L0xx_HAL_Driver/Src/stm32l0xx_hal_uart.c **** 
 469:../../../../../../Drivers/STM32L0xx_HAL_Driver/Src/stm32l0xx_hal_uart.c ****   if (UART_SetConfig(huart) == HAL_ERROR)
 470:../../../../../../Drivers/STM32L0xx_HAL_Driver/Src/stm32l0xx_hal_uart.c ****   {
 471:../../../../../../Drivers/STM32L0xx_HAL_Driver/Src/stm32l0xx_hal_uart.c ****     return HAL_ERROR;
 472:../../../../../../Drivers/STM32L0xx_HAL_Driver/Src/stm32l0xx_hal_uart.c ****   }
 473:../../../../../../Drivers/STM32L0xx_HAL_Driver/Src/stm32l0xx_hal_uart.c **** 
 474:../../../../../../Drivers/STM32L0xx_HAL_Driver/Src/stm32l0xx_hal_uart.c ****   /* In multiprocessor mode, the following bits must be kept cleared:
 475:../../../../../../Drivers/STM32L0xx_HAL_Driver/Src/stm32l0xx_hal_uart.c ****   - LINEN and CLKEN bits in the USART_CR2 register,
 476:../../../../../../Drivers/STM32L0xx_HAL_Driver/Src/stm32l0xx_hal_uart.c ****   - SCEN, HDSEL and IREN  bits in the USART_CR3 register. */
 477:../../../../../../Drivers/STM32L0xx_HAL_Driver/Src/stm32l0xx_hal_uart.c ****   CLEAR_BIT(huart->Instance->CR2, (USART_CR2_LINEN | USART_CR2_CLKEN));
 478:../../../../../../Drivers/STM32L0xx_HAL_Driver/Src/stm32l0xx_hal_uart.c ****   CLEAR_BIT(huart->Instance->CR3, (USART_CR3_SCEN | USART_CR3_HDSEL | USART_CR3_IREN));
 479:../../../../../../Drivers/STM32L0xx_HAL_Driver/Src/stm32l0xx_hal_uart.c **** 
 480:../../../../../../Drivers/STM32L0xx_HAL_Driver/Src/stm32l0xx_hal_uart.c ****   if (WakeUpMethod == UART_WAKEUPMETHOD_ADDRESSMARK)
 481:../../../../../../Drivers/STM32L0xx_HAL_Driver/Src/stm32l0xx_hal_uart.c ****   {
 482:../../../../../../Drivers/STM32L0xx_HAL_Driver/Src/stm32l0xx_hal_uart.c ****     /* If address mark wake up method is chosen, set the USART address node */
 483:../../../../../../Drivers/STM32L0xx_HAL_Driver/Src/stm32l0xx_hal_uart.c ****     MODIFY_REG(huart->Instance->CR2, USART_CR2_ADD, ((uint32_t)Address << UART_CR2_ADDRESS_LSB_POS)
 484:../../../../../../Drivers/STM32L0xx_HAL_Driver/Src/stm32l0xx_hal_uart.c ****   }
 485:../../../../../../Drivers/STM32L0xx_HAL_Driver/Src/stm32l0xx_hal_uart.c **** 
 486:../../../../../../Drivers/STM32L0xx_HAL_Driver/Src/stm32l0xx_hal_uart.c ****   /* Set the wake up method by setting the WAKE bit in the CR1 register */
 487:../../../../../../Drivers/STM32L0xx_HAL_Driver/Src/stm32l0xx_hal_uart.c ****   MODIFY_REG(huart->Instance->CR1, USART_CR1_WAKE, WakeUpMethod);
ARM GAS  C:\Users\EBANO_~1\AppData\Local\Temp\cclnSu0c.s 			page 10


 488:../../../../../../Drivers/STM32L0xx_HAL_Driver/Src/stm32l0xx_hal_uart.c **** 
 489:../../../../../../Drivers/STM32L0xx_HAL_Driver/Src/stm32l0xx_hal_uart.c ****   /* Enable the Peripheral */
 490:../../../../../../Drivers/STM32L0xx_HAL_Driver/Src/stm32l0xx_hal_uart.c ****   __HAL_UART_ENABLE(huart);
 491:../../../../../../Drivers/STM32L0xx_HAL_Driver/Src/stm32l0xx_hal_uart.c **** 
 492:../../../../../../Drivers/STM32L0xx_HAL_Driver/Src/stm32l0xx_hal_uart.c ****   /* TEACK and/or REACK to check before moving huart->gState and huart->RxState to Ready */
 493:../../../../../../Drivers/STM32L0xx_HAL_Driver/Src/stm32l0xx_hal_uart.c ****   return (UART_CheckIdleState(huart));
 494:../../../../../../Drivers/STM32L0xx_HAL_Driver/Src/stm32l0xx_hal_uart.c **** }
 495:../../../../../../Drivers/STM32L0xx_HAL_Driver/Src/stm32l0xx_hal_uart.c **** 
 496:../../../../../../Drivers/STM32L0xx_HAL_Driver/Src/stm32l0xx_hal_uart.c **** 
 497:../../../../../../Drivers/STM32L0xx_HAL_Driver/Src/stm32l0xx_hal_uart.c **** /**
 498:../../../../../../Drivers/STM32L0xx_HAL_Driver/Src/stm32l0xx_hal_uart.c ****   * @brief DeInitialize the UART peripheral.
 499:../../../../../../Drivers/STM32L0xx_HAL_Driver/Src/stm32l0xx_hal_uart.c ****   * @param huart: UART handle.
 500:../../../../../../Drivers/STM32L0xx_HAL_Driver/Src/stm32l0xx_hal_uart.c ****   * @retval HAL status
 501:../../../../../../Drivers/STM32L0xx_HAL_Driver/Src/stm32l0xx_hal_uart.c ****   */
 502:../../../../../../Drivers/STM32L0xx_HAL_Driver/Src/stm32l0xx_hal_uart.c **** HAL_StatusTypeDef HAL_UART_DeInit(UART_HandleTypeDef *huart)
 503:../../../../../../Drivers/STM32L0xx_HAL_Driver/Src/stm32l0xx_hal_uart.c **** {
 504:../../../../../../Drivers/STM32L0xx_HAL_Driver/Src/stm32l0xx_hal_uart.c ****   /* Check the UART handle allocation */
 505:../../../../../../Drivers/STM32L0xx_HAL_Driver/Src/stm32l0xx_hal_uart.c ****   if(huart == NULL)
 506:../../../../../../Drivers/STM32L0xx_HAL_Driver/Src/stm32l0xx_hal_uart.c ****   {
 507:../../../../../../Drivers/STM32L0xx_HAL_Driver/Src/stm32l0xx_hal_uart.c ****     return HAL_ERROR;
 508:../../../../../../Drivers/STM32L0xx_HAL_Driver/Src/stm32l0xx_hal_uart.c ****   }
 509:../../../../../../Drivers/STM32L0xx_HAL_Driver/Src/stm32l0xx_hal_uart.c **** 
 510:../../../../../../Drivers/STM32L0xx_HAL_Driver/Src/stm32l0xx_hal_uart.c ****   /* Check the parameters */
 511:../../../../../../Drivers/STM32L0xx_HAL_Driver/Src/stm32l0xx_hal_uart.c ****   assert_param(IS_UART_INSTANCE(huart->Instance));
 512:../../../../../../Drivers/STM32L0xx_HAL_Driver/Src/stm32l0xx_hal_uart.c **** 
 513:../../../../../../Drivers/STM32L0xx_HAL_Driver/Src/stm32l0xx_hal_uart.c ****   huart->gState = HAL_UART_STATE_BUSY;
 514:../../../../../../Drivers/STM32L0xx_HAL_Driver/Src/stm32l0xx_hal_uart.c **** 
 515:../../../../../../Drivers/STM32L0xx_HAL_Driver/Src/stm32l0xx_hal_uart.c ****   /* Disable the Peripheral */
 516:../../../../../../Drivers/STM32L0xx_HAL_Driver/Src/stm32l0xx_hal_uart.c ****   __HAL_UART_DISABLE(huart);
 517:../../../../../../Drivers/STM32L0xx_HAL_Driver/Src/stm32l0xx_hal_uart.c **** 
 518:../../../../../../Drivers/STM32L0xx_HAL_Driver/Src/stm32l0xx_hal_uart.c ****   huart->Instance->CR1 = 0x0U;
 519:../../../../../../Drivers/STM32L0xx_HAL_Driver/Src/stm32l0xx_hal_uart.c ****   huart->Instance->CR2 = 0x0U;
 520:../../../../../../Drivers/STM32L0xx_HAL_Driver/Src/stm32l0xx_hal_uart.c ****   huart->Instance->CR3 = 0x0U;
 521:../../../../../../Drivers/STM32L0xx_HAL_Driver/Src/stm32l0xx_hal_uart.c **** 
 522:../../../../../../Drivers/STM32L0xx_HAL_Driver/Src/stm32l0xx_hal_uart.c ****   /* DeInit the low level hardware */
 523:../../../../../../Drivers/STM32L0xx_HAL_Driver/Src/stm32l0xx_hal_uart.c ****   HAL_UART_MspDeInit(huart);
 524:../../../../../../Drivers/STM32L0xx_HAL_Driver/Src/stm32l0xx_hal_uart.c **** 
 525:../../../../../../Drivers/STM32L0xx_HAL_Driver/Src/stm32l0xx_hal_uart.c ****   huart->ErrorCode = HAL_UART_ERROR_NONE;
 526:../../../../../../Drivers/STM32L0xx_HAL_Driver/Src/stm32l0xx_hal_uart.c ****   huart->gState    = HAL_UART_STATE_RESET;
 527:../../../../../../Drivers/STM32L0xx_HAL_Driver/Src/stm32l0xx_hal_uart.c ****   huart->RxState   = HAL_UART_STATE_RESET;
 528:../../../../../../Drivers/STM32L0xx_HAL_Driver/Src/stm32l0xx_hal_uart.c **** 
 529:../../../../../../Drivers/STM32L0xx_HAL_Driver/Src/stm32l0xx_hal_uart.c ****   /* Process Unlock */
 530:../../../../../../Drivers/STM32L0xx_HAL_Driver/Src/stm32l0xx_hal_uart.c ****   __HAL_UNLOCK(huart);
 531:../../../../../../Drivers/STM32L0xx_HAL_Driver/Src/stm32l0xx_hal_uart.c **** 
 532:../../../../../../Drivers/STM32L0xx_HAL_Driver/Src/stm32l0xx_hal_uart.c ****   return HAL_OK;
 533:../../../../../../Drivers/STM32L0xx_HAL_Driver/Src/stm32l0xx_hal_uart.c **** }
 534:../../../../../../Drivers/STM32L0xx_HAL_Driver/Src/stm32l0xx_hal_uart.c **** 
 535:../../../../../../Drivers/STM32L0xx_HAL_Driver/Src/stm32l0xx_hal_uart.c **** /**
 536:../../../../../../Drivers/STM32L0xx_HAL_Driver/Src/stm32l0xx_hal_uart.c ****   * @brief Initialize the UART MSP.
 537:../../../../../../Drivers/STM32L0xx_HAL_Driver/Src/stm32l0xx_hal_uart.c ****   * @param huart: UART handle.
 538:../../../../../../Drivers/STM32L0xx_HAL_Driver/Src/stm32l0xx_hal_uart.c ****   * @retval None
 539:../../../../../../Drivers/STM32L0xx_HAL_Driver/Src/stm32l0xx_hal_uart.c ****   */
 540:../../../../../../Drivers/STM32L0xx_HAL_Driver/Src/stm32l0xx_hal_uart.c **** __weak void HAL_UART_MspInit(UART_HandleTypeDef *huart)
 541:../../../../../../Drivers/STM32L0xx_HAL_Driver/Src/stm32l0xx_hal_uart.c **** {
  27              		.loc 1 541 0
  28              		.cfi_startproc
  29              		@ args = 0, pretend = 0, frame = 0
ARM GAS  C:\Users\EBANO_~1\AppData\Local\Temp\cclnSu0c.s 			page 11


  30              		@ frame_needed = 0, uses_anonymous_args = 0
  31              		@ link register save eliminated.
  32              	.LVL0:
 542:../../../../../../Drivers/STM32L0xx_HAL_Driver/Src/stm32l0xx_hal_uart.c ****   /* Prevent unused argument(s) compilation warning */
 543:../../../../../../Drivers/STM32L0xx_HAL_Driver/Src/stm32l0xx_hal_uart.c ****   UNUSED(huart);
 544:../../../../../../Drivers/STM32L0xx_HAL_Driver/Src/stm32l0xx_hal_uart.c **** 
 545:../../../../../../Drivers/STM32L0xx_HAL_Driver/Src/stm32l0xx_hal_uart.c ****   /* NOTE : This function should not be modified, when the callback is needed,
 546:../../../../../../Drivers/STM32L0xx_HAL_Driver/Src/stm32l0xx_hal_uart.c ****             the HAL_UART_MspInit can be implemented in the user file
 547:../../../../../../Drivers/STM32L0xx_HAL_Driver/Src/stm32l0xx_hal_uart.c ****    */
 548:../../../../../../Drivers/STM32L0xx_HAL_Driver/Src/stm32l0xx_hal_uart.c **** }
  33              		.loc 1 548 0
  34              		@ sp needed
  35 0000 7047     		bx	lr
  36              		.cfi_endproc
  37              	.LFE44:
  38              		.size	HAL_UART_MspInit, .-HAL_UART_MspInit
  39 0002 C046     		.section	.text.HAL_UART_MspDeInit,"ax",%progbits
  40              		.align	1
  41              		.p2align 2,,3
  42              		.weak	HAL_UART_MspDeInit
  43              		.syntax unified
  44              		.code	16
  45              		.thumb_func
  46              		.fpu softvfp
  47              		.type	HAL_UART_MspDeInit, %function
  48              	HAL_UART_MspDeInit:
  49              	.LFB100:
  50              		.cfi_startproc
  51              		@ args = 0, pretend = 0, frame = 0
  52              		@ frame_needed = 0, uses_anonymous_args = 0
  53              		@ link register save eliminated.
  54              		@ sp needed
  55 0000 7047     		bx	lr
  56              		.cfi_endproc
  57              	.LFE100:
  58              		.size	HAL_UART_MspDeInit, .-HAL_UART_MspDeInit
  59 0002 C046     		.section	.text.HAL_UART_DeInit,"ax",%progbits
  60              		.align	1
  61              		.p2align 2,,3
  62              		.global	HAL_UART_DeInit
  63              		.syntax unified
  64              		.code	16
  65              		.thumb_func
  66              		.fpu softvfp
  67              		.type	HAL_UART_DeInit, %function
  68              	HAL_UART_DeInit:
  69              	.LFB43:
 503:../../../../../../Drivers/STM32L0xx_HAL_Driver/Src/stm32l0xx_hal_uart.c ****   /* Check the UART handle allocation */
  70              		.loc 1 503 0
  71              		.cfi_startproc
  72              		@ args = 0, pretend = 0, frame = 0
  73              		@ frame_needed = 0, uses_anonymous_args = 0
  74              	.LVL1:
 503:../../../../../../Drivers/STM32L0xx_HAL_Driver/Src/stm32l0xx_hal_uart.c ****   /* Check the UART handle allocation */
  75              		.loc 1 503 0
  76 0000 70B5     		push	{r4, r5, r6, lr}
  77              	.LCFI0:
ARM GAS  C:\Users\EBANO_~1\AppData\Local\Temp\cclnSu0c.s 			page 12


  78              		.cfi_def_cfa_offset 16
  79              		.cfi_offset 4, -16
  80              		.cfi_offset 5, -12
  81              		.cfi_offset 6, -8
  82              		.cfi_offset 14, -4
 503:../../../../../../Drivers/STM32L0xx_HAL_Driver/Src/stm32l0xx_hal_uart.c ****   /* Check the UART handle allocation */
  83              		.loc 1 503 0
  84 0002 0400     		movs	r4, r0
 507:../../../../../../Drivers/STM32L0xx_HAL_Driver/Src/stm32l0xx_hal_uart.c ****   }
  85              		.loc 1 507 0
  86 0004 0120     		movs	r0, #1
  87              	.LVL2:
 505:../../../../../../Drivers/STM32L0xx_HAL_Driver/Src/stm32l0xx_hal_uart.c ****   {
  88              		.loc 1 505 0
  89 0006 002C     		cmp	r4, #0
  90 0008 14D0     		beq	.L5
 513:../../../../../../Drivers/STM32L0xx_HAL_Driver/Src/stm32l0xx_hal_uart.c **** 
  91              		.loc 1 513 0
  92 000a 6926     		movs	r6, #105
  93 000c 2423     		movs	r3, #36
 518:../../../../../../Drivers/STM32L0xx_HAL_Driver/Src/stm32l0xx_hal_uart.c ****   huart->Instance->CR2 = 0x0U;
  94              		.loc 1 518 0
  95 000e 0025     		movs	r5, #0
 513:../../../../../../Drivers/STM32L0xx_HAL_Driver/Src/stm32l0xx_hal_uart.c **** 
  96              		.loc 1 513 0
  97 0010 A355     		strb	r3, [r4, r6]
 516:../../../../../../Drivers/STM32L0xx_HAL_Driver/Src/stm32l0xx_hal_uart.c **** 
  98              		.loc 1 516 0
  99 0012 2368     		ldr	r3, [r4]
 100 0014 1A68     		ldr	r2, [r3]
 101 0016 8243     		bics	r2, r0
 102 0018 1A60     		str	r2, [r3]
 523:../../../../../../Drivers/STM32L0xx_HAL_Driver/Src/stm32l0xx_hal_uart.c **** 
 103              		.loc 1 523 0
 104 001a 2000     		movs	r0, r4
 518:../../../../../../Drivers/STM32L0xx_HAL_Driver/Src/stm32l0xx_hal_uart.c ****   huart->Instance->CR2 = 0x0U;
 105              		.loc 1 518 0
 106 001c 1D60     		str	r5, [r3]
 519:../../../../../../Drivers/STM32L0xx_HAL_Driver/Src/stm32l0xx_hal_uart.c ****   huart->Instance->CR3 = 0x0U;
 107              		.loc 1 519 0
 108 001e 5D60     		str	r5, [r3, #4]
 520:../../../../../../Drivers/STM32L0xx_HAL_Driver/Src/stm32l0xx_hal_uart.c **** 
 109              		.loc 1 520 0
 110 0020 9D60     		str	r5, [r3, #8]
 523:../../../../../../Drivers/STM32L0xx_HAL_Driver/Src/stm32l0xx_hal_uart.c **** 
 111              		.loc 1 523 0
 112 0022 FFF7FEFF 		bl	HAL_UART_MspDeInit
 113              	.LVL3:
 527:../../../../../../Drivers/STM32L0xx_HAL_Driver/Src/stm32l0xx_hal_uart.c **** 
 114              		.loc 1 527 0
 115 0026 6A23     		movs	r3, #106
 532:../../../../../../Drivers/STM32L0xx_HAL_Driver/Src/stm32l0xx_hal_uart.c **** }
 116              		.loc 1 532 0
 117 0028 0020     		movs	r0, #0
 525:../../../../../../Drivers/STM32L0xx_HAL_Driver/Src/stm32l0xx_hal_uart.c ****   huart->gState    = HAL_UART_STATE_RESET;
 118              		.loc 1 525 0
 119 002a E566     		str	r5, [r4, #108]
ARM GAS  C:\Users\EBANO_~1\AppData\Local\Temp\cclnSu0c.s 			page 13


 526:../../../../../../Drivers/STM32L0xx_HAL_Driver/Src/stm32l0xx_hal_uart.c ****   huart->RxState   = HAL_UART_STATE_RESET;
 120              		.loc 1 526 0
 121 002c A555     		strb	r5, [r4, r6]
 527:../../../../../../Drivers/STM32L0xx_HAL_Driver/Src/stm32l0xx_hal_uart.c **** 
 122              		.loc 1 527 0
 123 002e E554     		strb	r5, [r4, r3]
 530:../../../../../../Drivers/STM32L0xx_HAL_Driver/Src/stm32l0xx_hal_uart.c **** 
 124              		.loc 1 530 0
 125 0030 023B     		subs	r3, r3, #2
 126 0032 E554     		strb	r5, [r4, r3]
 127              	.L5:
 533:../../../../../../Drivers/STM32L0xx_HAL_Driver/Src/stm32l0xx_hal_uart.c **** 
 128              		.loc 1 533 0
 129              		@ sp needed
 130              	.LVL4:
 131 0034 70BD     		pop	{r4, r5, r6, pc}
 132              		.cfi_endproc
 133              	.LFE43:
 134              		.size	HAL_UART_DeInit, .-HAL_UART_DeInit
 135 0036 C046     		.section	.text.HAL_UART_Transmit,"ax",%progbits
 136              		.align	1
 137              		.p2align 2,,3
 138              		.global	HAL_UART_Transmit
 139              		.syntax unified
 140              		.code	16
 141              		.thumb_func
 142              		.fpu softvfp
 143              		.type	HAL_UART_Transmit, %function
 144              	HAL_UART_Transmit:
 145              	.LFB46:
 549:../../../../../../Drivers/STM32L0xx_HAL_Driver/Src/stm32l0xx_hal_uart.c **** 
 550:../../../../../../Drivers/STM32L0xx_HAL_Driver/Src/stm32l0xx_hal_uart.c **** /**
 551:../../../../../../Drivers/STM32L0xx_HAL_Driver/Src/stm32l0xx_hal_uart.c ****   * @brief DeInitialize the UART MSP.
 552:../../../../../../Drivers/STM32L0xx_HAL_Driver/Src/stm32l0xx_hal_uart.c ****   * @param huart: UART handle.
 553:../../../../../../Drivers/STM32L0xx_HAL_Driver/Src/stm32l0xx_hal_uart.c ****   * @retval None
 554:../../../../../../Drivers/STM32L0xx_HAL_Driver/Src/stm32l0xx_hal_uart.c ****   */
 555:../../../../../../Drivers/STM32L0xx_HAL_Driver/Src/stm32l0xx_hal_uart.c **** __weak void HAL_UART_MspDeInit(UART_HandleTypeDef *huart)
 556:../../../../../../Drivers/STM32L0xx_HAL_Driver/Src/stm32l0xx_hal_uart.c **** {
 557:../../../../../../Drivers/STM32L0xx_HAL_Driver/Src/stm32l0xx_hal_uart.c ****   /* Prevent unused argument(s) compilation warning */
 558:../../../../../../Drivers/STM32L0xx_HAL_Driver/Src/stm32l0xx_hal_uart.c ****   UNUSED(huart);
 559:../../../../../../Drivers/STM32L0xx_HAL_Driver/Src/stm32l0xx_hal_uart.c **** 
 560:../../../../../../Drivers/STM32L0xx_HAL_Driver/Src/stm32l0xx_hal_uart.c ****   /* NOTE : This function should not be modified, when the callback is needed,
 561:../../../../../../Drivers/STM32L0xx_HAL_Driver/Src/stm32l0xx_hal_uart.c ****             the HAL_UART_MspDeInit can be implemented in the user file
 562:../../../../../../Drivers/STM32L0xx_HAL_Driver/Src/stm32l0xx_hal_uart.c ****    */
 563:../../../../../../Drivers/STM32L0xx_HAL_Driver/Src/stm32l0xx_hal_uart.c **** }
 564:../../../../../../Drivers/STM32L0xx_HAL_Driver/Src/stm32l0xx_hal_uart.c **** 
 565:../../../../../../Drivers/STM32L0xx_HAL_Driver/Src/stm32l0xx_hal_uart.c **** /**
 566:../../../../../../Drivers/STM32L0xx_HAL_Driver/Src/stm32l0xx_hal_uart.c ****   * @}
 567:../../../../../../Drivers/STM32L0xx_HAL_Driver/Src/stm32l0xx_hal_uart.c ****   */
 568:../../../../../../Drivers/STM32L0xx_HAL_Driver/Src/stm32l0xx_hal_uart.c **** 
 569:../../../../../../Drivers/STM32L0xx_HAL_Driver/Src/stm32l0xx_hal_uart.c **** /** @defgroup UART_Exported_Functions_Group2 IO operation functions
 570:../../../../../../Drivers/STM32L0xx_HAL_Driver/Src/stm32l0xx_hal_uart.c ****   * @brief UART Transmit/Receive functions
 571:../../../../../../Drivers/STM32L0xx_HAL_Driver/Src/stm32l0xx_hal_uart.c ****   *
 572:../../../../../../Drivers/STM32L0xx_HAL_Driver/Src/stm32l0xx_hal_uart.c **** @verbatim
 573:../../../../../../Drivers/STM32L0xx_HAL_Driver/Src/stm32l0xx_hal_uart.c ****  ===============================================================================
 574:../../../../../../Drivers/STM32L0xx_HAL_Driver/Src/stm32l0xx_hal_uart.c ****                       ##### IO operation functions #####
 575:../../../../../../Drivers/STM32L0xx_HAL_Driver/Src/stm32l0xx_hal_uart.c ****  ===============================================================================
ARM GAS  C:\Users\EBANO_~1\AppData\Local\Temp\cclnSu0c.s 			page 14


 576:../../../../../../Drivers/STM32L0xx_HAL_Driver/Src/stm32l0xx_hal_uart.c ****     This subsection provides a set of functions allowing to manage the UART asynchronous
 577:../../../../../../Drivers/STM32L0xx_HAL_Driver/Src/stm32l0xx_hal_uart.c ****     and Half duplex data transfers.
 578:../../../../../../Drivers/STM32L0xx_HAL_Driver/Src/stm32l0xx_hal_uart.c **** 
 579:../../../../../../Drivers/STM32L0xx_HAL_Driver/Src/stm32l0xx_hal_uart.c ****     (#) There are two mode of transfer:
 580:../../../../../../Drivers/STM32L0xx_HAL_Driver/Src/stm32l0xx_hal_uart.c ****        (+) Blocking mode: The communication is performed in polling mode.
 581:../../../../../../Drivers/STM32L0xx_HAL_Driver/Src/stm32l0xx_hal_uart.c ****            The HAL status of all data processing is returned by the same function
 582:../../../../../../Drivers/STM32L0xx_HAL_Driver/Src/stm32l0xx_hal_uart.c ****            after finishing transfer.
 583:../../../../../../Drivers/STM32L0xx_HAL_Driver/Src/stm32l0xx_hal_uart.c ****        (+) Non-Blocking mode: The communication is performed using Interrupts
 584:../../../../../../Drivers/STM32L0xx_HAL_Driver/Src/stm32l0xx_hal_uart.c ****            or DMA, These API's return the HAL status.
 585:../../../../../../Drivers/STM32L0xx_HAL_Driver/Src/stm32l0xx_hal_uart.c ****            The end of the data processing will be indicated through the
 586:../../../../../../Drivers/STM32L0xx_HAL_Driver/Src/stm32l0xx_hal_uart.c ****            dedicated UART IRQ when using Interrupt mode or the DMA IRQ when
 587:../../../../../../Drivers/STM32L0xx_HAL_Driver/Src/stm32l0xx_hal_uart.c ****            using DMA mode.
 588:../../../../../../Drivers/STM32L0xx_HAL_Driver/Src/stm32l0xx_hal_uart.c ****            The HAL_UART_TxCpltCallback(), HAL_UART_RxCpltCallback() user callbacks
 589:../../../../../../Drivers/STM32L0xx_HAL_Driver/Src/stm32l0xx_hal_uart.c ****            will be executed respectively at the end of the transmit or Receive process
 590:../../../../../../Drivers/STM32L0xx_HAL_Driver/Src/stm32l0xx_hal_uart.c ****            The HAL_UART_ErrorCallback()user callback will be executed when a communication error is
 591:../../../../../../Drivers/STM32L0xx_HAL_Driver/Src/stm32l0xx_hal_uart.c **** 
 592:../../../../../../Drivers/STM32L0xx_HAL_Driver/Src/stm32l0xx_hal_uart.c ****     (#) Blocking mode API's are :
 593:../../../../../../Drivers/STM32L0xx_HAL_Driver/Src/stm32l0xx_hal_uart.c ****         (+) HAL_UART_Transmit()
 594:../../../../../../Drivers/STM32L0xx_HAL_Driver/Src/stm32l0xx_hal_uart.c ****         (+) HAL_UART_Receive()
 595:../../../../../../Drivers/STM32L0xx_HAL_Driver/Src/stm32l0xx_hal_uart.c **** 
 596:../../../../../../Drivers/STM32L0xx_HAL_Driver/Src/stm32l0xx_hal_uart.c ****     (#) Non-Blocking mode API's with Interrupt are :
 597:../../../../../../Drivers/STM32L0xx_HAL_Driver/Src/stm32l0xx_hal_uart.c ****         (+) HAL_UART_Transmit_IT()
 598:../../../../../../Drivers/STM32L0xx_HAL_Driver/Src/stm32l0xx_hal_uart.c ****         (+) HAL_UART_Receive_IT()
 599:../../../../../../Drivers/STM32L0xx_HAL_Driver/Src/stm32l0xx_hal_uart.c ****         (+) HAL_UART_IRQHandler()
 600:../../../../../../Drivers/STM32L0xx_HAL_Driver/Src/stm32l0xx_hal_uart.c **** 
 601:../../../../../../Drivers/STM32L0xx_HAL_Driver/Src/stm32l0xx_hal_uart.c ****     (#) Non-Blocking mode API's with DMA are :
 602:../../../../../../Drivers/STM32L0xx_HAL_Driver/Src/stm32l0xx_hal_uart.c ****         (+) HAL_UART_Transmit_DMA()
 603:../../../../../../Drivers/STM32L0xx_HAL_Driver/Src/stm32l0xx_hal_uart.c ****         (+) HAL_UART_Receive_DMA()
 604:../../../../../../Drivers/STM32L0xx_HAL_Driver/Src/stm32l0xx_hal_uart.c ****         (+) HAL_UART_DMAPause()
 605:../../../../../../Drivers/STM32L0xx_HAL_Driver/Src/stm32l0xx_hal_uart.c ****         (+) HAL_UART_DMAResume()
 606:../../../../../../Drivers/STM32L0xx_HAL_Driver/Src/stm32l0xx_hal_uart.c ****         (+) HAL_UART_DMAStop()
 607:../../../../../../Drivers/STM32L0xx_HAL_Driver/Src/stm32l0xx_hal_uart.c **** 
 608:../../../../../../Drivers/STM32L0xx_HAL_Driver/Src/stm32l0xx_hal_uart.c ****     (#) A set of Transfer Complete Callbacks are provided in Non_Blocking mode:
 609:../../../../../../Drivers/STM32L0xx_HAL_Driver/Src/stm32l0xx_hal_uart.c ****         (+) HAL_UART_TxHalfCpltCallback()
 610:../../../../../../Drivers/STM32L0xx_HAL_Driver/Src/stm32l0xx_hal_uart.c ****         (+) HAL_UART_TxCpltCallback()
 611:../../../../../../Drivers/STM32L0xx_HAL_Driver/Src/stm32l0xx_hal_uart.c ****         (+) HAL_UART_RxHalfCpltCallback()
 612:../../../../../../Drivers/STM32L0xx_HAL_Driver/Src/stm32l0xx_hal_uart.c ****         (+) HAL_UART_RxCpltCallback()
 613:../../../../../../Drivers/STM32L0xx_HAL_Driver/Src/stm32l0xx_hal_uart.c ****         (+) HAL_UART_ErrorCallback()
 614:../../../../../../Drivers/STM32L0xx_HAL_Driver/Src/stm32l0xx_hal_uart.c **** 
 615:../../../../../../Drivers/STM32L0xx_HAL_Driver/Src/stm32l0xx_hal_uart.c ****     (#) Non-Blocking mode transfers could be aborted using Abort API's :
 616:../../../../../../Drivers/STM32L0xx_HAL_Driver/Src/stm32l0xx_hal_uart.c ****         (+) HAL_UART_Abort()
 617:../../../../../../Drivers/STM32L0xx_HAL_Driver/Src/stm32l0xx_hal_uart.c ****         (+) HAL_UART_AbortTransmit()
 618:../../../../../../Drivers/STM32L0xx_HAL_Driver/Src/stm32l0xx_hal_uart.c ****         (+) HAL_UART_AbortReceive()
 619:../../../../../../Drivers/STM32L0xx_HAL_Driver/Src/stm32l0xx_hal_uart.c ****         (+) HAL_UART_Abort_IT()
 620:../../../../../../Drivers/STM32L0xx_HAL_Driver/Src/stm32l0xx_hal_uart.c ****         (+) HAL_UART_AbortTransmit_IT()
 621:../../../../../../Drivers/STM32L0xx_HAL_Driver/Src/stm32l0xx_hal_uart.c ****         (+) HAL_UART_AbortReceive_IT()
 622:../../../../../../Drivers/STM32L0xx_HAL_Driver/Src/stm32l0xx_hal_uart.c **** 
 623:../../../../../../Drivers/STM32L0xx_HAL_Driver/Src/stm32l0xx_hal_uart.c ****     (#) For Abort services based on interrupts (HAL_UART_Abortxxx_IT), a set of Abort Complete Call
 624:../../../../../../Drivers/STM32L0xx_HAL_Driver/Src/stm32l0xx_hal_uart.c ****         (+) HAL_UART_AbortCpltCallback()
 625:../../../../../../Drivers/STM32L0xx_HAL_Driver/Src/stm32l0xx_hal_uart.c ****         (+) HAL_UART_AbortTransmitCpltCallback()
 626:../../../../../../Drivers/STM32L0xx_HAL_Driver/Src/stm32l0xx_hal_uart.c ****         (+) HAL_UART_AbortReceiveCpltCallback()
 627:../../../../../../Drivers/STM32L0xx_HAL_Driver/Src/stm32l0xx_hal_uart.c **** 
 628:../../../../../../Drivers/STM32L0xx_HAL_Driver/Src/stm32l0xx_hal_uart.c ****     (#) In Non-Blocking mode transfers, possible errors are split into 2 categories.
 629:../../../../../../Drivers/STM32L0xx_HAL_Driver/Src/stm32l0xx_hal_uart.c ****         Errors are handled as follows :
 630:../../../../../../Drivers/STM32L0xx_HAL_Driver/Src/stm32l0xx_hal_uart.c ****        (+) Error is considered as Recoverable and non blocking : Transfer could go till end, but er
 631:../../../../../../Drivers/STM32L0xx_HAL_Driver/Src/stm32l0xx_hal_uart.c ****            to be evaluated by user : this concerns Frame Error, Parity Error or Noise Error in Inte
 632:../../../../../../Drivers/STM32L0xx_HAL_Driver/Src/stm32l0xx_hal_uart.c ****            Received character is then retrieved and stored in Rx buffer, Error code is set to allow
ARM GAS  C:\Users\EBANO_~1\AppData\Local\Temp\cclnSu0c.s 			page 15


 633:../../../../../../Drivers/STM32L0xx_HAL_Driver/Src/stm32l0xx_hal_uart.c ****            and HAL_UART_ErrorCallback() user callback is executed. Transfer is kept ongoing on UART
 634:../../../../../../Drivers/STM32L0xx_HAL_Driver/Src/stm32l0xx_hal_uart.c ****            If user wants to abort it, Abort services should be called by user.
 635:../../../../../../Drivers/STM32L0xx_HAL_Driver/Src/stm32l0xx_hal_uart.c ****        (+) Error is considered as Blocking : Transfer could not be completed properly and is aborte
 636:../../../../../../Drivers/STM32L0xx_HAL_Driver/Src/stm32l0xx_hal_uart.c ****            This concerns Overrun Error In Interrupt mode reception and all errors in DMA mode.
 637:../../../../../../Drivers/STM32L0xx_HAL_Driver/Src/stm32l0xx_hal_uart.c ****            Error code is set to allow user to identify error type, and HAL_UART_ErrorCallback() use
 638:../../../../../../Drivers/STM32L0xx_HAL_Driver/Src/stm32l0xx_hal_uart.c **** 
 639:../../../../../../Drivers/STM32L0xx_HAL_Driver/Src/stm32l0xx_hal_uart.c ****     -@- In the Half duplex communication, it is forbidden to run the transmit
 640:../../../../../../Drivers/STM32L0xx_HAL_Driver/Src/stm32l0xx_hal_uart.c ****         and receive process in parallel, the UART state HAL_UART_STATE_BUSY_TX_RX can't be useful.
 641:../../../../../../Drivers/STM32L0xx_HAL_Driver/Src/stm32l0xx_hal_uart.c **** 
 642:../../../../../../Drivers/STM32L0xx_HAL_Driver/Src/stm32l0xx_hal_uart.c **** @endverbatim
 643:../../../../../../Drivers/STM32L0xx_HAL_Driver/Src/stm32l0xx_hal_uart.c ****   * @{
 644:../../../../../../Drivers/STM32L0xx_HAL_Driver/Src/stm32l0xx_hal_uart.c ****   */
 645:../../../../../../Drivers/STM32L0xx_HAL_Driver/Src/stm32l0xx_hal_uart.c **** 
 646:../../../../../../Drivers/STM32L0xx_HAL_Driver/Src/stm32l0xx_hal_uart.c **** /**
 647:../../../../../../Drivers/STM32L0xx_HAL_Driver/Src/stm32l0xx_hal_uart.c ****   * @brief Send an amount of data in blocking mode.
 648:../../../../../../Drivers/STM32L0xx_HAL_Driver/Src/stm32l0xx_hal_uart.c ****   * @param huart: UART handle.
 649:../../../../../../Drivers/STM32L0xx_HAL_Driver/Src/stm32l0xx_hal_uart.c ****   * @param pData: Pointer to data buffer.
 650:../../../../../../Drivers/STM32L0xx_HAL_Driver/Src/stm32l0xx_hal_uart.c ****   * @param Size: Amount of data to be sent.
 651:../../../../../../Drivers/STM32L0xx_HAL_Driver/Src/stm32l0xx_hal_uart.c ****   * @param Timeout: Timeout duration.
 652:../../../../../../Drivers/STM32L0xx_HAL_Driver/Src/stm32l0xx_hal_uart.c ****   * @note   When UART parity is not enabled (PCE = 0), and Word Length is configured to 9 bits (M1-
 653:../../../../../../Drivers/STM32L0xx_HAL_Driver/Src/stm32l0xx_hal_uart.c ****   *         address of user data buffer containing data to be sent, should be aligned on a half wor
 654:../../../../../../Drivers/STM32L0xx_HAL_Driver/Src/stm32l0xx_hal_uart.c ****   *         (as sent data will be handled using u16 pointer cast). Depending on compilation chain,
 655:../../../../../../Drivers/STM32L0xx_HAL_Driver/Src/stm32l0xx_hal_uart.c ****   *         use of specific alignment compilation directives or pragmas might be required to ensure
 656:../../../../../../Drivers/STM32L0xx_HAL_Driver/Src/stm32l0xx_hal_uart.c ****   * @retval HAL status
 657:../../../../../../Drivers/STM32L0xx_HAL_Driver/Src/stm32l0xx_hal_uart.c ****   */
 658:../../../../../../Drivers/STM32L0xx_HAL_Driver/Src/stm32l0xx_hal_uart.c **** HAL_StatusTypeDef HAL_UART_Transmit(UART_HandleTypeDef *huart, uint8_t *pData, uint16_t Size, uint3
 659:../../../../../../Drivers/STM32L0xx_HAL_Driver/Src/stm32l0xx_hal_uart.c **** {
 146              		.loc 1 659 0
 147              		.cfi_startproc
 148              		@ args = 0, pretend = 0, frame = 0
 149              		@ frame_needed = 0, uses_anonymous_args = 0
 150              	.LVL5:
 151 0000 F8B5     		push	{r3, r4, r5, r6, r7, lr}
 152              	.LCFI1:
 153              		.cfi_def_cfa_offset 24
 154              		.cfi_offset 3, -24
 155              		.cfi_offset 4, -20
 156              		.cfi_offset 5, -16
 157              		.cfi_offset 6, -12
 158              		.cfi_offset 7, -8
 159              		.cfi_offset 14, -4
 160 0002 4746     		mov	r7, r8
 161 0004 CE46     		mov	lr, r9
 162 0006 1E00     		movs	r6, r3
 660:../../../../../../Drivers/STM32L0xx_HAL_Driver/Src/stm32l0xx_hal_uart.c ****   uint16_t* tmp;
 661:../../../../../../Drivers/STM32L0xx_HAL_Driver/Src/stm32l0xx_hal_uart.c ****   uint32_t tickstart = 0;
 662:../../../../../../Drivers/STM32L0xx_HAL_Driver/Src/stm32l0xx_hal_uart.c **** 
 663:../../../../../../Drivers/STM32L0xx_HAL_Driver/Src/stm32l0xx_hal_uart.c ****   /* Check that a Tx process is not already ongoing */
 664:../../../../../../Drivers/STM32L0xx_HAL_Driver/Src/stm32l0xx_hal_uart.c ****   if(huart->gState == HAL_UART_STATE_READY)
 163              		.loc 1 664 0
 164 0008 6923     		movs	r3, #105
 165              	.LVL6:
 659:../../../../../../Drivers/STM32L0xx_HAL_Driver/Src/stm32l0xx_hal_uart.c ****   uint16_t* tmp;
 166              		.loc 1 659 0
 167 000a 80B5     		push	{r7, lr}
 168              	.LCFI2:
 169              		.cfi_def_cfa_offset 32
ARM GAS  C:\Users\EBANO_~1\AppData\Local\Temp\cclnSu0c.s 			page 16


 170              		.cfi_offset 8, -32
 171              		.cfi_offset 9, -28
 172              		.loc 1 664 0
 173 000c C35C     		ldrb	r3, [r0, r3]
 659:../../../../../../Drivers/STM32L0xx_HAL_Driver/Src/stm32l0xx_hal_uart.c ****   uint16_t* tmp;
 174              		.loc 1 659 0
 175 000e 0500     		movs	r5, r0
 176 0010 0F00     		movs	r7, r1
 177 0012 1400     		movs	r4, r2
 178              	.LVL7:
 665:../../../../../../Drivers/STM32L0xx_HAL_Driver/Src/stm32l0xx_hal_uart.c ****   {
 666:../../../../../../Drivers/STM32L0xx_HAL_Driver/Src/stm32l0xx_hal_uart.c ****     if((pData == NULL ) || (Size == 0U))
 667:../../../../../../Drivers/STM32L0xx_HAL_Driver/Src/stm32l0xx_hal_uart.c ****     {
 668:../../../../../../Drivers/STM32L0xx_HAL_Driver/Src/stm32l0xx_hal_uart.c ****       return  HAL_ERROR;
 669:../../../../../../Drivers/STM32L0xx_HAL_Driver/Src/stm32l0xx_hal_uart.c ****     }
 670:../../../../../../Drivers/STM32L0xx_HAL_Driver/Src/stm32l0xx_hal_uart.c **** 
 671:../../../../../../Drivers/STM32L0xx_HAL_Driver/Src/stm32l0xx_hal_uart.c ****     /* In case of 9bits/No Parity transfer, pData buffer provided as input paramter 
 672:../../../../../../Drivers/STM32L0xx_HAL_Driver/Src/stm32l0xx_hal_uart.c ****        should be aligned on a u16 frontier, as data to be filled into TDR will be 
 673:../../../../../../Drivers/STM32L0xx_HAL_Driver/Src/stm32l0xx_hal_uart.c ****        handled through a u16 cast. */
 674:../../../../../../Drivers/STM32L0xx_HAL_Driver/Src/stm32l0xx_hal_uart.c ****     if ((huart->Init.WordLength == UART_WORDLENGTH_9B) && (huart->Init.Parity == UART_PARITY_NONE))
 675:../../../../../../Drivers/STM32L0xx_HAL_Driver/Src/stm32l0xx_hal_uart.c ****     {
 676:../../../../../../Drivers/STM32L0xx_HAL_Driver/Src/stm32l0xx_hal_uart.c ****       if((((uint32_t)pData)&1) != 0)
 677:../../../../../../Drivers/STM32L0xx_HAL_Driver/Src/stm32l0xx_hal_uart.c ****       {
 678:../../../../../../Drivers/STM32L0xx_HAL_Driver/Src/stm32l0xx_hal_uart.c ****         return  HAL_ERROR;
 679:../../../../../../Drivers/STM32L0xx_HAL_Driver/Src/stm32l0xx_hal_uart.c ****       }
 680:../../../../../../Drivers/STM32L0xx_HAL_Driver/Src/stm32l0xx_hal_uart.c ****     }
 681:../../../../../../Drivers/STM32L0xx_HAL_Driver/Src/stm32l0xx_hal_uart.c **** 
 682:../../../../../../Drivers/STM32L0xx_HAL_Driver/Src/stm32l0xx_hal_uart.c ****     /* Process Locked */
 683:../../../../../../Drivers/STM32L0xx_HAL_Driver/Src/stm32l0xx_hal_uart.c ****     __HAL_LOCK(huart);
 684:../../../../../../Drivers/STM32L0xx_HAL_Driver/Src/stm32l0xx_hal_uart.c **** 
 685:../../../../../../Drivers/STM32L0xx_HAL_Driver/Src/stm32l0xx_hal_uart.c ****     huart->ErrorCode = HAL_UART_ERROR_NONE;
 686:../../../../../../Drivers/STM32L0xx_HAL_Driver/Src/stm32l0xx_hal_uart.c ****     huart->gState = HAL_UART_STATE_BUSY_TX;
 687:../../../../../../Drivers/STM32L0xx_HAL_Driver/Src/stm32l0xx_hal_uart.c **** 
 688:../../../../../../Drivers/STM32L0xx_HAL_Driver/Src/stm32l0xx_hal_uart.c ****     /* Init tickstart for timeout managment*/
 689:../../../../../../Drivers/STM32L0xx_HAL_Driver/Src/stm32l0xx_hal_uart.c ****     tickstart = HAL_GetTick();
 690:../../../../../../Drivers/STM32L0xx_HAL_Driver/Src/stm32l0xx_hal_uart.c **** 
 691:../../../../../../Drivers/STM32L0xx_HAL_Driver/Src/stm32l0xx_hal_uart.c ****     huart->TxXferSize = Size;
 692:../../../../../../Drivers/STM32L0xx_HAL_Driver/Src/stm32l0xx_hal_uart.c ****     huart->TxXferCount = Size;
 693:../../../../../../Drivers/STM32L0xx_HAL_Driver/Src/stm32l0xx_hal_uart.c ****     while(huart->TxXferCount > 0U)
 694:../../../../../../Drivers/STM32L0xx_HAL_Driver/Src/stm32l0xx_hal_uart.c ****     {
 695:../../../../../../Drivers/STM32L0xx_HAL_Driver/Src/stm32l0xx_hal_uart.c ****       huart->TxXferCount--;
 696:../../../../../../Drivers/STM32L0xx_HAL_Driver/Src/stm32l0xx_hal_uart.c ****       if(UART_WaitOnFlagUntilTimeout(huart, UART_FLAG_TXE, RESET, tickstart, Timeout) != HAL_OK)
 697:../../../../../../Drivers/STM32L0xx_HAL_Driver/Src/stm32l0xx_hal_uart.c ****       {
 698:../../../../../../Drivers/STM32L0xx_HAL_Driver/Src/stm32l0xx_hal_uart.c ****         return HAL_TIMEOUT;
 699:../../../../../../Drivers/STM32L0xx_HAL_Driver/Src/stm32l0xx_hal_uart.c ****       }
 700:../../../../../../Drivers/STM32L0xx_HAL_Driver/Src/stm32l0xx_hal_uart.c ****       if ((huart->Init.WordLength == UART_WORDLENGTH_9B) && (huart->Init.Parity == UART_PARITY_NONE
 701:../../../../../../Drivers/STM32L0xx_HAL_Driver/Src/stm32l0xx_hal_uart.c ****       {
 702:../../../../../../Drivers/STM32L0xx_HAL_Driver/Src/stm32l0xx_hal_uart.c ****         tmp = (uint16_t*) pData;
 703:../../../../../../Drivers/STM32L0xx_HAL_Driver/Src/stm32l0xx_hal_uart.c ****         huart->Instance->TDR = (*tmp & (uint16_t)0x01FFU);
 704:../../../../../../Drivers/STM32L0xx_HAL_Driver/Src/stm32l0xx_hal_uart.c ****         pData += 2U;
 705:../../../../../../Drivers/STM32L0xx_HAL_Driver/Src/stm32l0xx_hal_uart.c ****       }
 706:../../../../../../Drivers/STM32L0xx_HAL_Driver/Src/stm32l0xx_hal_uart.c ****       else
 707:../../../../../../Drivers/STM32L0xx_HAL_Driver/Src/stm32l0xx_hal_uart.c ****       {
 708:../../../../../../Drivers/STM32L0xx_HAL_Driver/Src/stm32l0xx_hal_uart.c ****         huart->Instance->TDR = (*pData++ & (uint8_t)0xFFU);
 709:../../../../../../Drivers/STM32L0xx_HAL_Driver/Src/stm32l0xx_hal_uart.c ****       }
 710:../../../../../../Drivers/STM32L0xx_HAL_Driver/Src/stm32l0xx_hal_uart.c ****     }
 711:../../../../../../Drivers/STM32L0xx_HAL_Driver/Src/stm32l0xx_hal_uart.c ****     if(UART_WaitOnFlagUntilTimeout(huart, UART_FLAG_TC, RESET, tickstart, Timeout) != HAL_OK)
ARM GAS  C:\Users\EBANO_~1\AppData\Local\Temp\cclnSu0c.s 			page 17


 712:../../../../../../Drivers/STM32L0xx_HAL_Driver/Src/stm32l0xx_hal_uart.c ****     {
 713:../../../../../../Drivers/STM32L0xx_HAL_Driver/Src/stm32l0xx_hal_uart.c ****       return HAL_TIMEOUT;
 714:../../../../../../Drivers/STM32L0xx_HAL_Driver/Src/stm32l0xx_hal_uart.c ****     }
 715:../../../../../../Drivers/STM32L0xx_HAL_Driver/Src/stm32l0xx_hal_uart.c **** 
 716:../../../../../../Drivers/STM32L0xx_HAL_Driver/Src/stm32l0xx_hal_uart.c ****     /* At end of Tx process, restore huart->gState to Ready */
 717:../../../../../../Drivers/STM32L0xx_HAL_Driver/Src/stm32l0xx_hal_uart.c ****     huart->gState = HAL_UART_STATE_READY;
 718:../../../../../../Drivers/STM32L0xx_HAL_Driver/Src/stm32l0xx_hal_uart.c **** 
 719:../../../../../../Drivers/STM32L0xx_HAL_Driver/Src/stm32l0xx_hal_uart.c ****     /* Process Unlocked */
 720:../../../../../../Drivers/STM32L0xx_HAL_Driver/Src/stm32l0xx_hal_uart.c ****     __HAL_UNLOCK(huart);
 721:../../../../../../Drivers/STM32L0xx_HAL_Driver/Src/stm32l0xx_hal_uart.c **** 
 722:../../../../../../Drivers/STM32L0xx_HAL_Driver/Src/stm32l0xx_hal_uart.c ****     return HAL_OK;
 723:../../../../../../Drivers/STM32L0xx_HAL_Driver/Src/stm32l0xx_hal_uart.c ****   }
 724:../../../../../../Drivers/STM32L0xx_HAL_Driver/Src/stm32l0xx_hal_uart.c ****   else
 725:../../../../../../Drivers/STM32L0xx_HAL_Driver/Src/stm32l0xx_hal_uart.c ****   {
 726:../../../../../../Drivers/STM32L0xx_HAL_Driver/Src/stm32l0xx_hal_uart.c ****     return HAL_BUSY;
 179              		.loc 1 726 0
 180 0014 0220     		movs	r0, #2
 181              	.LVL8:
 664:../../../../../../Drivers/STM32L0xx_HAL_Driver/Src/stm32l0xx_hal_uart.c ****   {
 182              		.loc 1 664 0
 183 0016 202B     		cmp	r3, #32
 184 0018 37D1     		bne	.L9
 666:../../../../../../Drivers/STM32L0xx_HAL_Driver/Src/stm32l0xx_hal_uart.c ****     {
 185              		.loc 1 666 0
 186 001a 0029     		cmp	r1, #0
 187 001c 39D0     		beq	.L30
 668:../../../../../../Drivers/STM32L0xx_HAL_Driver/Src/stm32l0xx_hal_uart.c ****     }
 188              		.loc 1 668 0 discriminator 1
 189 001e 0138     		subs	r0, r0, #1
 666:../../../../../../Drivers/STM32L0xx_HAL_Driver/Src/stm32l0xx_hal_uart.c ****     {
 190              		.loc 1 666 0 discriminator 1
 191 0020 002A     		cmp	r2, #0
 192 0022 32D0     		beq	.L9
 674:../../../../../../Drivers/STM32L0xx_HAL_Driver/Src/stm32l0xx_hal_uart.c ****     {
 193              		.loc 1 674 0
 194 0024 8023     		movs	r3, #128
 195 0026 AA68     		ldr	r2, [r5, #8]
 196              	.LVL9:
 197 0028 5B01     		lsls	r3, r3, #5
 198 002a 9A42     		cmp	r2, r3
 199 002c 33D0     		beq	.L45
 200              	.L10:
 683:../../../../../../Drivers/STM32L0xx_HAL_Driver/Src/stm32l0xx_hal_uart.c **** 
 201              		.loc 1 683 0
 202 002e 6823     		movs	r3, #104
 203 0030 EA5C     		ldrb	r2, [r5, r3]
 204 0032 012A     		cmp	r2, #1
 205 0034 28D0     		beq	.L33
 683:../../../../../../Drivers/STM32L0xx_HAL_Driver/Src/stm32l0xx_hal_uart.c **** 
 206              		.loc 1 683 0 is_stmt 0 discriminator 2
 207 0036 0122     		movs	r2, #1
 208 0038 EA54     		strb	r2, [r5, r3]
 685:../../../../../../Drivers/STM32L0xx_HAL_Driver/Src/stm32l0xx_hal_uart.c ****     huart->gState = HAL_UART_STATE_BUSY_TX;
 209              		.loc 1 685 0 is_stmt 1 discriminator 2
 210 003a 0023     		movs	r3, #0
 686:../../../../../../Drivers/STM32L0xx_HAL_Driver/Src/stm32l0xx_hal_uart.c **** 
 211              		.loc 1 686 0 discriminator 2
ARM GAS  C:\Users\EBANO_~1\AppData\Local\Temp\cclnSu0c.s 			page 18


 212 003c 2032     		adds	r2, r2, #32
 685:../../../../../../Drivers/STM32L0xx_HAL_Driver/Src/stm32l0xx_hal_uart.c ****     huart->gState = HAL_UART_STATE_BUSY_TX;
 213              		.loc 1 685 0 discriminator 2
 214 003e EB66     		str	r3, [r5, #108]
 686:../../../../../../Drivers/STM32L0xx_HAL_Driver/Src/stm32l0xx_hal_uart.c **** 
 215              		.loc 1 686 0 discriminator 2
 216 0040 6933     		adds	r3, r3, #105
 217 0042 EA54     		strb	r2, [r5, r3]
 689:../../../../../../Drivers/STM32L0xx_HAL_Driver/Src/stm32l0xx_hal_uart.c **** 
 218              		.loc 1 689 0 discriminator 2
 219 0044 FFF7FEFF 		bl	HAL_GetTick
 220              	.LVL10:
 691:../../../../../../Drivers/STM32L0xx_HAL_Driver/Src/stm32l0xx_hal_uart.c ****     huart->TxXferCount = Size;
 221              		.loc 1 691 0 discriminator 2
 222 0048 5023     		movs	r3, #80
 223 004a EC52     		strh	r4, [r5, r3]
 692:../../../../../../Drivers/STM32L0xx_HAL_Driver/Src/stm32l0xx_hal_uart.c ****     while(huart->TxXferCount > 0U)
 224              		.loc 1 692 0 discriminator 2
 225 004c 0233     		adds	r3, r3, #2
 226 004e EC52     		strh	r4, [r5, r3]
 689:../../../../../../Drivers/STM32L0xx_HAL_Driver/Src/stm32l0xx_hal_uart.c **** 
 227              		.loc 1 689 0 discriminator 2
 228 0050 8146     		mov	r9, r0
 229              	.LVL11:
 693:../../../../../../Drivers/STM32L0xx_HAL_Driver/Src/stm32l0xx_hal_uart.c ****     {
 230              		.loc 1 693 0 discriminator 2
 231 0052 9846     		mov	r8, r3
 232              	.LBB22:
 233              	.LBB23:
 727:../../../../../../Drivers/STM32L0xx_HAL_Driver/Src/stm32l0xx_hal_uart.c ****   }
 728:../../../../../../Drivers/STM32L0xx_HAL_Driver/Src/stm32l0xx_hal_uart.c **** }
 729:../../../../../../Drivers/STM32L0xx_HAL_Driver/Src/stm32l0xx_hal_uart.c **** 
 730:../../../../../../Drivers/STM32L0xx_HAL_Driver/Src/stm32l0xx_hal_uart.c **** /**
 731:../../../../../../Drivers/STM32L0xx_HAL_Driver/Src/stm32l0xx_hal_uart.c ****   * @brief Receive an amount of data in blocking mode.
 732:../../../../../../Drivers/STM32L0xx_HAL_Driver/Src/stm32l0xx_hal_uart.c ****   * @param huart: UART handle.
 733:../../../../../../Drivers/STM32L0xx_HAL_Driver/Src/stm32l0xx_hal_uart.c ****   * @param pData: pointer to data buffer.
 734:../../../../../../Drivers/STM32L0xx_HAL_Driver/Src/stm32l0xx_hal_uart.c ****   * @param Size: amount of data to be received.
 735:../../../../../../Drivers/STM32L0xx_HAL_Driver/Src/stm32l0xx_hal_uart.c ****   * @param Timeout: Timeout duration.
 736:../../../../../../Drivers/STM32L0xx_HAL_Driver/Src/stm32l0xx_hal_uart.c ****   * @note   When UART parity is not enabled (PCE = 0), and Word Length is configured to 9 bits (M1-
 737:../../../../../../Drivers/STM32L0xx_HAL_Driver/Src/stm32l0xx_hal_uart.c ****   *         address of user data buffer for storing data to be received, should be aligned on a hal
 738:../../../../../../Drivers/STM32L0xx_HAL_Driver/Src/stm32l0xx_hal_uart.c ****   *         (as received data will be handled using u16 pointer cast). Depending on compilation cha
 739:../../../../../../Drivers/STM32L0xx_HAL_Driver/Src/stm32l0xx_hal_uart.c ****   *         use of specific alignment compilation directives or pragmas might be required to ensure
 740:../../../../../../Drivers/STM32L0xx_HAL_Driver/Src/stm32l0xx_hal_uart.c ****   * @retval HAL status
 741:../../../../../../Drivers/STM32L0xx_HAL_Driver/Src/stm32l0xx_hal_uart.c ****   */
 742:../../../../../../Drivers/STM32L0xx_HAL_Driver/Src/stm32l0xx_hal_uart.c **** HAL_StatusTypeDef HAL_UART_Receive(UART_HandleTypeDef *huart, uint8_t *pData, uint16_t Size, uint32
 743:../../../../../../Drivers/STM32L0xx_HAL_Driver/Src/stm32l0xx_hal_uart.c **** {
 744:../../../../../../Drivers/STM32L0xx_HAL_Driver/Src/stm32l0xx_hal_uart.c ****   uint16_t* tmp;
 745:../../../../../../Drivers/STM32L0xx_HAL_Driver/Src/stm32l0xx_hal_uart.c ****   uint16_t uhMask;
 746:../../../../../../Drivers/STM32L0xx_HAL_Driver/Src/stm32l0xx_hal_uart.c ****   uint32_t tickstart = 0;
 747:../../../../../../Drivers/STM32L0xx_HAL_Driver/Src/stm32l0xx_hal_uart.c **** 
 748:../../../../../../Drivers/STM32L0xx_HAL_Driver/Src/stm32l0xx_hal_uart.c ****   /* Check that a Rx process is not already ongoing */
 749:../../../../../../Drivers/STM32L0xx_HAL_Driver/Src/stm32l0xx_hal_uart.c ****   if(huart->RxState == HAL_UART_STATE_READY)
 750:../../../../../../Drivers/STM32L0xx_HAL_Driver/Src/stm32l0xx_hal_uart.c ****   {
 751:../../../../../../Drivers/STM32L0xx_HAL_Driver/Src/stm32l0xx_hal_uart.c ****     if((pData == NULL ) || (Size == 0U))
 752:../../../../../../Drivers/STM32L0xx_HAL_Driver/Src/stm32l0xx_hal_uart.c ****     {
 753:../../../../../../Drivers/STM32L0xx_HAL_Driver/Src/stm32l0xx_hal_uart.c ****       return  HAL_ERROR;
 754:../../../../../../Drivers/STM32L0xx_HAL_Driver/Src/stm32l0xx_hal_uart.c ****     }
ARM GAS  C:\Users\EBANO_~1\AppData\Local\Temp\cclnSu0c.s 			page 19


 755:../../../../../../Drivers/STM32L0xx_HAL_Driver/Src/stm32l0xx_hal_uart.c **** 
 756:../../../../../../Drivers/STM32L0xx_HAL_Driver/Src/stm32l0xx_hal_uart.c ****     /* In case of 9bits/No Parity transfer, pData buffer provided as input paramter 
 757:../../../../../../Drivers/STM32L0xx_HAL_Driver/Src/stm32l0xx_hal_uart.c ****        should be aligned on a u16 frontier, as data to be received from RDR will be 
 758:../../../../../../Drivers/STM32L0xx_HAL_Driver/Src/stm32l0xx_hal_uart.c ****        handled through a u16 cast. */
 759:../../../../../../Drivers/STM32L0xx_HAL_Driver/Src/stm32l0xx_hal_uart.c ****     if ((huart->Init.WordLength == UART_WORDLENGTH_9B) && (huart->Init.Parity == UART_PARITY_NONE))
 760:../../../../../../Drivers/STM32L0xx_HAL_Driver/Src/stm32l0xx_hal_uart.c ****     {
 761:../../../../../../Drivers/STM32L0xx_HAL_Driver/Src/stm32l0xx_hal_uart.c ****       if((((uint32_t)pData)&1) != 0)
 762:../../../../../../Drivers/STM32L0xx_HAL_Driver/Src/stm32l0xx_hal_uart.c ****       {
 763:../../../../../../Drivers/STM32L0xx_HAL_Driver/Src/stm32l0xx_hal_uart.c ****         return  HAL_ERROR;
 764:../../../../../../Drivers/STM32L0xx_HAL_Driver/Src/stm32l0xx_hal_uart.c ****       }
 765:../../../../../../Drivers/STM32L0xx_HAL_Driver/Src/stm32l0xx_hal_uart.c ****     }
 766:../../../../../../Drivers/STM32L0xx_HAL_Driver/Src/stm32l0xx_hal_uart.c **** 
 767:../../../../../../Drivers/STM32L0xx_HAL_Driver/Src/stm32l0xx_hal_uart.c ****     /* Process Locked */
 768:../../../../../../Drivers/STM32L0xx_HAL_Driver/Src/stm32l0xx_hal_uart.c ****     __HAL_LOCK(huart);
 769:../../../../../../Drivers/STM32L0xx_HAL_Driver/Src/stm32l0xx_hal_uart.c **** 
 770:../../../../../../Drivers/STM32L0xx_HAL_Driver/Src/stm32l0xx_hal_uart.c ****     huart->ErrorCode = HAL_UART_ERROR_NONE;
 771:../../../../../../Drivers/STM32L0xx_HAL_Driver/Src/stm32l0xx_hal_uart.c ****     huart->RxState = HAL_UART_STATE_BUSY_RX;
 772:../../../../../../Drivers/STM32L0xx_HAL_Driver/Src/stm32l0xx_hal_uart.c **** 
 773:../../../../../../Drivers/STM32L0xx_HAL_Driver/Src/stm32l0xx_hal_uart.c ****     /* Init tickstart for timeout managment*/
 774:../../../../../../Drivers/STM32L0xx_HAL_Driver/Src/stm32l0xx_hal_uart.c ****     tickstart = HAL_GetTick();
 775:../../../../../../Drivers/STM32L0xx_HAL_Driver/Src/stm32l0xx_hal_uart.c **** 
 776:../../../../../../Drivers/STM32L0xx_HAL_Driver/Src/stm32l0xx_hal_uart.c ****     huart->RxXferSize = Size;
 777:../../../../../../Drivers/STM32L0xx_HAL_Driver/Src/stm32l0xx_hal_uart.c ****     huart->RxXferCount = Size;
 778:../../../../../../Drivers/STM32L0xx_HAL_Driver/Src/stm32l0xx_hal_uart.c **** 
 779:../../../../../../Drivers/STM32L0xx_HAL_Driver/Src/stm32l0xx_hal_uart.c ****     /* Computation of UART mask to apply to RDR register */
 780:../../../../../../Drivers/STM32L0xx_HAL_Driver/Src/stm32l0xx_hal_uart.c ****     UART_MASK_COMPUTATION(huart);
 781:../../../../../../Drivers/STM32L0xx_HAL_Driver/Src/stm32l0xx_hal_uart.c ****     uhMask = huart->Mask;
 782:../../../../../../Drivers/STM32L0xx_HAL_Driver/Src/stm32l0xx_hal_uart.c **** 
 783:../../../../../../Drivers/STM32L0xx_HAL_Driver/Src/stm32l0xx_hal_uart.c ****     /* as long as data have to be received */
 784:../../../../../../Drivers/STM32L0xx_HAL_Driver/Src/stm32l0xx_hal_uart.c ****     while(huart->RxXferCount > 0U)
 785:../../../../../../Drivers/STM32L0xx_HAL_Driver/Src/stm32l0xx_hal_uart.c ****     {
 786:../../../../../../Drivers/STM32L0xx_HAL_Driver/Src/stm32l0xx_hal_uart.c ****       huart->RxXferCount--;
 787:../../../../../../Drivers/STM32L0xx_HAL_Driver/Src/stm32l0xx_hal_uart.c ****       if(UART_WaitOnFlagUntilTimeout(huart, UART_FLAG_RXNE, RESET, tickstart, Timeout) != HAL_OK)
 788:../../../../../../Drivers/STM32L0xx_HAL_Driver/Src/stm32l0xx_hal_uart.c ****       {
 789:../../../../../../Drivers/STM32L0xx_HAL_Driver/Src/stm32l0xx_hal_uart.c ****         return HAL_TIMEOUT;
 790:../../../../../../Drivers/STM32L0xx_HAL_Driver/Src/stm32l0xx_hal_uart.c ****       }
 791:../../../../../../Drivers/STM32L0xx_HAL_Driver/Src/stm32l0xx_hal_uart.c ****       if ((huart->Init.WordLength == UART_WORDLENGTH_9B) && (huart->Init.Parity == UART_PARITY_NONE
 792:../../../../../../Drivers/STM32L0xx_HAL_Driver/Src/stm32l0xx_hal_uart.c ****       {
 793:../../../../../../Drivers/STM32L0xx_HAL_Driver/Src/stm32l0xx_hal_uart.c ****         tmp = (uint16_t*) pData ;
 794:../../../../../../Drivers/STM32L0xx_HAL_Driver/Src/stm32l0xx_hal_uart.c ****         *tmp = (uint16_t)(huart->Instance->RDR & uhMask);
 795:../../../../../../Drivers/STM32L0xx_HAL_Driver/Src/stm32l0xx_hal_uart.c ****         pData +=2U;
 796:../../../../../../Drivers/STM32L0xx_HAL_Driver/Src/stm32l0xx_hal_uart.c ****       }
 797:../../../../../../Drivers/STM32L0xx_HAL_Driver/Src/stm32l0xx_hal_uart.c ****       else
 798:../../../../../../Drivers/STM32L0xx_HAL_Driver/Src/stm32l0xx_hal_uart.c ****       {
 799:../../../../../../Drivers/STM32L0xx_HAL_Driver/Src/stm32l0xx_hal_uart.c ****         *pData++ = (uint8_t)(huart->Instance->RDR & (uint8_t)uhMask);
 800:../../../../../../Drivers/STM32L0xx_HAL_Driver/Src/stm32l0xx_hal_uart.c ****       }
 801:../../../../../../Drivers/STM32L0xx_HAL_Driver/Src/stm32l0xx_hal_uart.c ****     }
 802:../../../../../../Drivers/STM32L0xx_HAL_Driver/Src/stm32l0xx_hal_uart.c **** 
 803:../../../../../../Drivers/STM32L0xx_HAL_Driver/Src/stm32l0xx_hal_uart.c ****     /* At end of Rx process, restore huart->RxState to Ready */
 804:../../../../../../Drivers/STM32L0xx_HAL_Driver/Src/stm32l0xx_hal_uart.c ****     huart->RxState = HAL_UART_STATE_READY;
 805:../../../../../../Drivers/STM32L0xx_HAL_Driver/Src/stm32l0xx_hal_uart.c **** 
 806:../../../../../../Drivers/STM32L0xx_HAL_Driver/Src/stm32l0xx_hal_uart.c ****     /* Process Unlocked */
 807:../../../../../../Drivers/STM32L0xx_HAL_Driver/Src/stm32l0xx_hal_uart.c ****     __HAL_UNLOCK(huart);
 808:../../../../../../Drivers/STM32L0xx_HAL_Driver/Src/stm32l0xx_hal_uart.c **** 
 809:../../../../../../Drivers/STM32L0xx_HAL_Driver/Src/stm32l0xx_hal_uart.c ****     return HAL_OK;
 810:../../../../../../Drivers/STM32L0xx_HAL_Driver/Src/stm32l0xx_hal_uart.c ****   }
 811:../../../../../../Drivers/STM32L0xx_HAL_Driver/Src/stm32l0xx_hal_uart.c ****   else
ARM GAS  C:\Users\EBANO_~1\AppData\Local\Temp\cclnSu0c.s 			page 20


 812:../../../../../../Drivers/STM32L0xx_HAL_Driver/Src/stm32l0xx_hal_uart.c ****   {
 813:../../../../../../Drivers/STM32L0xx_HAL_Driver/Src/stm32l0xx_hal_uart.c ****     return HAL_BUSY;
 814:../../../../../../Drivers/STM32L0xx_HAL_Driver/Src/stm32l0xx_hal_uart.c ****   }
 815:../../../../../../Drivers/STM32L0xx_HAL_Driver/Src/stm32l0xx_hal_uart.c **** }
 816:../../../../../../Drivers/STM32L0xx_HAL_Driver/Src/stm32l0xx_hal_uart.c **** 
 817:../../../../../../Drivers/STM32L0xx_HAL_Driver/Src/stm32l0xx_hal_uart.c **** /**
 818:../../../../../../Drivers/STM32L0xx_HAL_Driver/Src/stm32l0xx_hal_uart.c ****   * @brief Send an amount of data in interrupt mode.
 819:../../../../../../Drivers/STM32L0xx_HAL_Driver/Src/stm32l0xx_hal_uart.c ****   * @param huart: UART handle.
 820:../../../../../../Drivers/STM32L0xx_HAL_Driver/Src/stm32l0xx_hal_uart.c ****   * @param pData: pointer to data buffer.
 821:../../../../../../Drivers/STM32L0xx_HAL_Driver/Src/stm32l0xx_hal_uart.c ****   * @param Size: amount of data to be sent.
 822:../../../../../../Drivers/STM32L0xx_HAL_Driver/Src/stm32l0xx_hal_uart.c ****   * @note   When UART parity is not enabled (PCE = 0), and Word Length is configured to 9 bits (M1-
 823:../../../../../../Drivers/STM32L0xx_HAL_Driver/Src/stm32l0xx_hal_uart.c ****   *         address of user data buffer containing data to be sent, should be aligned on a half wor
 824:../../../../../../Drivers/STM32L0xx_HAL_Driver/Src/stm32l0xx_hal_uart.c ****   *         (as sent data will be handled using u16 pointer cast). Depending on compilation chain,
 825:../../../../../../Drivers/STM32L0xx_HAL_Driver/Src/stm32l0xx_hal_uart.c ****   *         use of specific alignment compilation directives or pragmas might be required to ensure
 826:../../../../../../Drivers/STM32L0xx_HAL_Driver/Src/stm32l0xx_hal_uart.c ****   * @retval HAL status
 827:../../../../../../Drivers/STM32L0xx_HAL_Driver/Src/stm32l0xx_hal_uart.c ****   */
 828:../../../../../../Drivers/STM32L0xx_HAL_Driver/Src/stm32l0xx_hal_uart.c **** HAL_StatusTypeDef HAL_UART_Transmit_IT(UART_HandleTypeDef *huart, uint8_t *pData, uint16_t Size)
 829:../../../../../../Drivers/STM32L0xx_HAL_Driver/Src/stm32l0xx_hal_uart.c **** {
 830:../../../../../../Drivers/STM32L0xx_HAL_Driver/Src/stm32l0xx_hal_uart.c ****   /* Check that a Tx process is not already ongoing */
 831:../../../../../../Drivers/STM32L0xx_HAL_Driver/Src/stm32l0xx_hal_uart.c ****   if(huart->gState == HAL_UART_STATE_READY)
 832:../../../../../../Drivers/STM32L0xx_HAL_Driver/Src/stm32l0xx_hal_uart.c ****   {
 833:../../../../../../Drivers/STM32L0xx_HAL_Driver/Src/stm32l0xx_hal_uart.c ****     if((pData == NULL ) || (Size == 0U))
 834:../../../../../../Drivers/STM32L0xx_HAL_Driver/Src/stm32l0xx_hal_uart.c ****     {
 835:../../../../../../Drivers/STM32L0xx_HAL_Driver/Src/stm32l0xx_hal_uart.c ****       return HAL_ERROR;
 836:../../../../../../Drivers/STM32L0xx_HAL_Driver/Src/stm32l0xx_hal_uart.c ****     }
 837:../../../../../../Drivers/STM32L0xx_HAL_Driver/Src/stm32l0xx_hal_uart.c **** 
 838:../../../../../../Drivers/STM32L0xx_HAL_Driver/Src/stm32l0xx_hal_uart.c ****     /* In case of 9bits/No Parity transfer, pData buffer provided as input paramter 
 839:../../../../../../Drivers/STM32L0xx_HAL_Driver/Src/stm32l0xx_hal_uart.c ****        should be aligned on a u16 frontier, as data to be filled into TDR will be 
 840:../../../../../../Drivers/STM32L0xx_HAL_Driver/Src/stm32l0xx_hal_uart.c ****        handled through a u16 cast. */
 841:../../../../../../Drivers/STM32L0xx_HAL_Driver/Src/stm32l0xx_hal_uart.c ****     if ((huart->Init.WordLength == UART_WORDLENGTH_9B) && (huart->Init.Parity == UART_PARITY_NONE))
 842:../../../../../../Drivers/STM32L0xx_HAL_Driver/Src/stm32l0xx_hal_uart.c ****     {
 843:../../../../../../Drivers/STM32L0xx_HAL_Driver/Src/stm32l0xx_hal_uart.c ****       if((((uint32_t)pData)&1) != 0)
 844:../../../../../../Drivers/STM32L0xx_HAL_Driver/Src/stm32l0xx_hal_uart.c ****       {
 845:../../../../../../Drivers/STM32L0xx_HAL_Driver/Src/stm32l0xx_hal_uart.c ****         return  HAL_ERROR;
 846:../../../../../../Drivers/STM32L0xx_HAL_Driver/Src/stm32l0xx_hal_uart.c ****       }
 847:../../../../../../Drivers/STM32L0xx_HAL_Driver/Src/stm32l0xx_hal_uart.c ****     }
 848:../../../../../../Drivers/STM32L0xx_HAL_Driver/Src/stm32l0xx_hal_uart.c **** 
 849:../../../../../../Drivers/STM32L0xx_HAL_Driver/Src/stm32l0xx_hal_uart.c ****     /* Process Locked */
 850:../../../../../../Drivers/STM32L0xx_HAL_Driver/Src/stm32l0xx_hal_uart.c ****     __HAL_LOCK(huart);
 851:../../../../../../Drivers/STM32L0xx_HAL_Driver/Src/stm32l0xx_hal_uart.c **** 
 852:../../../../../../Drivers/STM32L0xx_HAL_Driver/Src/stm32l0xx_hal_uart.c ****     huart->pTxBuffPtr = pData;
 853:../../../../../../Drivers/STM32L0xx_HAL_Driver/Src/stm32l0xx_hal_uart.c ****     huart->TxXferSize = Size;
 854:../../../../../../Drivers/STM32L0xx_HAL_Driver/Src/stm32l0xx_hal_uart.c ****     huart->TxXferCount = Size;
 855:../../../../../../Drivers/STM32L0xx_HAL_Driver/Src/stm32l0xx_hal_uart.c **** 
 856:../../../../../../Drivers/STM32L0xx_HAL_Driver/Src/stm32l0xx_hal_uart.c ****     huart->ErrorCode = HAL_UART_ERROR_NONE;
 857:../../../../../../Drivers/STM32L0xx_HAL_Driver/Src/stm32l0xx_hal_uart.c ****     huart->gState = HAL_UART_STATE_BUSY_TX;
 858:../../../../../../Drivers/STM32L0xx_HAL_Driver/Src/stm32l0xx_hal_uart.c **** 
 859:../../../../../../Drivers/STM32L0xx_HAL_Driver/Src/stm32l0xx_hal_uart.c ****     /* Process Unlocked */
 860:../../../../../../Drivers/STM32L0xx_HAL_Driver/Src/stm32l0xx_hal_uart.c ****     __HAL_UNLOCK(huart);
 861:../../../../../../Drivers/STM32L0xx_HAL_Driver/Src/stm32l0xx_hal_uart.c **** 
 862:../../../../../../Drivers/STM32L0xx_HAL_Driver/Src/stm32l0xx_hal_uart.c ****     /* Enable the UART Transmit Data Register Empty Interrupt */
 863:../../../../../../Drivers/STM32L0xx_HAL_Driver/Src/stm32l0xx_hal_uart.c ****     SET_BIT(huart->Instance->CR1, USART_CR1_TXEIE);
 864:../../../../../../Drivers/STM32L0xx_HAL_Driver/Src/stm32l0xx_hal_uart.c **** 
 865:../../../../../../Drivers/STM32L0xx_HAL_Driver/Src/stm32l0xx_hal_uart.c ****     return HAL_OK;
 866:../../../../../../Drivers/STM32L0xx_HAL_Driver/Src/stm32l0xx_hal_uart.c ****   }
 867:../../../../../../Drivers/STM32L0xx_HAL_Driver/Src/stm32l0xx_hal_uart.c ****   else
 868:../../../../../../Drivers/STM32L0xx_HAL_Driver/Src/stm32l0xx_hal_uart.c ****   {
ARM GAS  C:\Users\EBANO_~1\AppData\Local\Temp\cclnSu0c.s 			page 21


 869:../../../../../../Drivers/STM32L0xx_HAL_Driver/Src/stm32l0xx_hal_uart.c ****     return HAL_BUSY;
 870:../../../../../../Drivers/STM32L0xx_HAL_Driver/Src/stm32l0xx_hal_uart.c ****   }
 871:../../../../../../Drivers/STM32L0xx_HAL_Driver/Src/stm32l0xx_hal_uart.c **** }
 872:../../../../../../Drivers/STM32L0xx_HAL_Driver/Src/stm32l0xx_hal_uart.c **** 
 873:../../../../../../Drivers/STM32L0xx_HAL_Driver/Src/stm32l0xx_hal_uart.c **** /**
 874:../../../../../../Drivers/STM32L0xx_HAL_Driver/Src/stm32l0xx_hal_uart.c ****   * @brief Receive an amount of data in interrupt mode.
 875:../../../../../../Drivers/STM32L0xx_HAL_Driver/Src/stm32l0xx_hal_uart.c ****   * @param huart: UART handle.
 876:../../../../../../Drivers/STM32L0xx_HAL_Driver/Src/stm32l0xx_hal_uart.c ****   * @param pData: pointer to data buffer.
 877:../../../../../../Drivers/STM32L0xx_HAL_Driver/Src/stm32l0xx_hal_uart.c ****   * @param Size: amount of data to be received.
 878:../../../../../../Drivers/STM32L0xx_HAL_Driver/Src/stm32l0xx_hal_uart.c ****   * @note   When UART parity is not enabled (PCE = 0), and Word Length is configured to 9 bits (M1-
 879:../../../../../../Drivers/STM32L0xx_HAL_Driver/Src/stm32l0xx_hal_uart.c ****   *         address of user data buffer containing data to be sent, should be aligned on a half wor
 880:../../../../../../Drivers/STM32L0xx_HAL_Driver/Src/stm32l0xx_hal_uart.c ****   *         (as sent data will be handled using u16 pointer cast). Depending on compilation chain,
 881:../../../../../../Drivers/STM32L0xx_HAL_Driver/Src/stm32l0xx_hal_uart.c ****   *         use of specific alignment compilation directives or pragmas might be required to ensure
 882:../../../../../../Drivers/STM32L0xx_HAL_Driver/Src/stm32l0xx_hal_uart.c ****   * @retval HAL status
 883:../../../../../../Drivers/STM32L0xx_HAL_Driver/Src/stm32l0xx_hal_uart.c ****   */
 884:../../../../../../Drivers/STM32L0xx_HAL_Driver/Src/stm32l0xx_hal_uart.c **** HAL_StatusTypeDef HAL_UART_Receive_IT(UART_HandleTypeDef *huart, uint8_t *pData, uint16_t Size)
 885:../../../../../../Drivers/STM32L0xx_HAL_Driver/Src/stm32l0xx_hal_uart.c **** {
 886:../../../../../../Drivers/STM32L0xx_HAL_Driver/Src/stm32l0xx_hal_uart.c ****   /* Check that a Rx process is not already ongoing */
 887:../../../../../../Drivers/STM32L0xx_HAL_Driver/Src/stm32l0xx_hal_uart.c ****   if(huart->RxState == HAL_UART_STATE_READY)
 888:../../../../../../Drivers/STM32L0xx_HAL_Driver/Src/stm32l0xx_hal_uart.c ****   {
 889:../../../../../../Drivers/STM32L0xx_HAL_Driver/Src/stm32l0xx_hal_uart.c ****     if((pData == NULL ) || (Size == 0U))
 890:../../../../../../Drivers/STM32L0xx_HAL_Driver/Src/stm32l0xx_hal_uart.c ****     {
 891:../../../../../../Drivers/STM32L0xx_HAL_Driver/Src/stm32l0xx_hal_uart.c ****       return HAL_ERROR;
 892:../../../../../../Drivers/STM32L0xx_HAL_Driver/Src/stm32l0xx_hal_uart.c ****     }
 893:../../../../../../Drivers/STM32L0xx_HAL_Driver/Src/stm32l0xx_hal_uart.c **** 
 894:../../../../../../Drivers/STM32L0xx_HAL_Driver/Src/stm32l0xx_hal_uart.c ****     /* In case of 9bits/No Parity transfer, pData buffer provided as input paramter 
 895:../../../../../../Drivers/STM32L0xx_HAL_Driver/Src/stm32l0xx_hal_uart.c ****        should be aligned on a u16 frontier, as data to be received from RDR will be 
 896:../../../../../../Drivers/STM32L0xx_HAL_Driver/Src/stm32l0xx_hal_uart.c ****        handled through a u16 cast. */
 897:../../../../../../Drivers/STM32L0xx_HAL_Driver/Src/stm32l0xx_hal_uart.c ****     if ((huart->Init.WordLength == UART_WORDLENGTH_9B) && (huart->Init.Parity == UART_PARITY_NONE))
 898:../../../../../../Drivers/STM32L0xx_HAL_Driver/Src/stm32l0xx_hal_uart.c ****     {
 899:../../../../../../Drivers/STM32L0xx_HAL_Driver/Src/stm32l0xx_hal_uart.c ****       if((((uint32_t)pData)&1) != 0)
 900:../../../../../../Drivers/STM32L0xx_HAL_Driver/Src/stm32l0xx_hal_uart.c ****       {
 901:../../../../../../Drivers/STM32L0xx_HAL_Driver/Src/stm32l0xx_hal_uart.c ****         return  HAL_ERROR;
 902:../../../../../../Drivers/STM32L0xx_HAL_Driver/Src/stm32l0xx_hal_uart.c ****       }
 903:../../../../../../Drivers/STM32L0xx_HAL_Driver/Src/stm32l0xx_hal_uart.c ****     }
 904:../../../../../../Drivers/STM32L0xx_HAL_Driver/Src/stm32l0xx_hal_uart.c **** 
 905:../../../../../../Drivers/STM32L0xx_HAL_Driver/Src/stm32l0xx_hal_uart.c ****     /* Process Locked */
 906:../../../../../../Drivers/STM32L0xx_HAL_Driver/Src/stm32l0xx_hal_uart.c ****     __HAL_LOCK(huart);
 907:../../../../../../Drivers/STM32L0xx_HAL_Driver/Src/stm32l0xx_hal_uart.c **** 
 908:../../../../../../Drivers/STM32L0xx_HAL_Driver/Src/stm32l0xx_hal_uart.c ****     huart->pRxBuffPtr = pData;
 909:../../../../../../Drivers/STM32L0xx_HAL_Driver/Src/stm32l0xx_hal_uart.c ****     huart->RxXferSize = Size;
 910:../../../../../../Drivers/STM32L0xx_HAL_Driver/Src/stm32l0xx_hal_uart.c ****     huart->RxXferCount = Size;
 911:../../../../../../Drivers/STM32L0xx_HAL_Driver/Src/stm32l0xx_hal_uart.c **** 
 912:../../../../../../Drivers/STM32L0xx_HAL_Driver/Src/stm32l0xx_hal_uart.c ****     /* Computation of UART mask to apply to RDR register */
 913:../../../../../../Drivers/STM32L0xx_HAL_Driver/Src/stm32l0xx_hal_uart.c ****     UART_MASK_COMPUTATION(huart);
 914:../../../../../../Drivers/STM32L0xx_HAL_Driver/Src/stm32l0xx_hal_uart.c **** 
 915:../../../../../../Drivers/STM32L0xx_HAL_Driver/Src/stm32l0xx_hal_uart.c ****     huart->ErrorCode = HAL_UART_ERROR_NONE;
 916:../../../../../../Drivers/STM32L0xx_HAL_Driver/Src/stm32l0xx_hal_uart.c ****     huart->RxState = HAL_UART_STATE_BUSY_RX;
 917:../../../../../../Drivers/STM32L0xx_HAL_Driver/Src/stm32l0xx_hal_uart.c **** 
 918:../../../../../../Drivers/STM32L0xx_HAL_Driver/Src/stm32l0xx_hal_uart.c ****     /* Process Unlocked */
 919:../../../../../../Drivers/STM32L0xx_HAL_Driver/Src/stm32l0xx_hal_uart.c ****     __HAL_UNLOCK(huart);
 920:../../../../../../Drivers/STM32L0xx_HAL_Driver/Src/stm32l0xx_hal_uart.c **** 
 921:../../../../../../Drivers/STM32L0xx_HAL_Driver/Src/stm32l0xx_hal_uart.c ****     /* Enable the UART Error Interrupt: (Frame error, noise error, overrun error) */
 922:../../../../../../Drivers/STM32L0xx_HAL_Driver/Src/stm32l0xx_hal_uart.c ****     SET_BIT(huart->Instance->CR3, USART_CR3_EIE);
 923:../../../../../../Drivers/STM32L0xx_HAL_Driver/Src/stm32l0xx_hal_uart.c **** 
 924:../../../../../../Drivers/STM32L0xx_HAL_Driver/Src/stm32l0xx_hal_uart.c ****     /* Enable the UART Parity Error and Data Register not empty Interrupts */
 925:../../../../../../Drivers/STM32L0xx_HAL_Driver/Src/stm32l0xx_hal_uart.c ****     SET_BIT(huart->Instance->CR1, USART_CR1_PEIE | USART_CR1_RXNEIE);
ARM GAS  C:\Users\EBANO_~1\AppData\Local\Temp\cclnSu0c.s 			page 22


 926:../../../../../../Drivers/STM32L0xx_HAL_Driver/Src/stm32l0xx_hal_uart.c **** 
 927:../../../../../../Drivers/STM32L0xx_HAL_Driver/Src/stm32l0xx_hal_uart.c ****     return HAL_OK;
 928:../../../../../../Drivers/STM32L0xx_HAL_Driver/Src/stm32l0xx_hal_uart.c ****   }
 929:../../../../../../Drivers/STM32L0xx_HAL_Driver/Src/stm32l0xx_hal_uart.c ****   else
 930:../../../../../../Drivers/STM32L0xx_HAL_Driver/Src/stm32l0xx_hal_uart.c ****   {
 931:../../../../../../Drivers/STM32L0xx_HAL_Driver/Src/stm32l0xx_hal_uart.c ****     return HAL_BUSY;
 932:../../../../../../Drivers/STM32L0xx_HAL_Driver/Src/stm32l0xx_hal_uart.c ****   }
 933:../../../../../../Drivers/STM32L0xx_HAL_Driver/Src/stm32l0xx_hal_uart.c **** }
 934:../../../../../../Drivers/STM32L0xx_HAL_Driver/Src/stm32l0xx_hal_uart.c **** 
 935:../../../../../../Drivers/STM32L0xx_HAL_Driver/Src/stm32l0xx_hal_uart.c **** /**
 936:../../../../../../Drivers/STM32L0xx_HAL_Driver/Src/stm32l0xx_hal_uart.c ****   * @brief Send an amount of data in DMA mode.
 937:../../../../../../Drivers/STM32L0xx_HAL_Driver/Src/stm32l0xx_hal_uart.c ****   * @param huart: UART handle.
 938:../../../../../../Drivers/STM32L0xx_HAL_Driver/Src/stm32l0xx_hal_uart.c ****   * @param pData: pointer to data buffer.
 939:../../../../../../Drivers/STM32L0xx_HAL_Driver/Src/stm32l0xx_hal_uart.c ****   * @param Size: amount of data to be sent.
 940:../../../../../../Drivers/STM32L0xx_HAL_Driver/Src/stm32l0xx_hal_uart.c ****   * @note   When UART parity is not enabled (PCE = 0), and Word Length is configured to 9 bits (M1-
 941:../../../../../../Drivers/STM32L0xx_HAL_Driver/Src/stm32l0xx_hal_uart.c ****   *         address of user data buffer containing data to be sent, should be aligned on a half wor
 942:../../../../../../Drivers/STM32L0xx_HAL_Driver/Src/stm32l0xx_hal_uart.c ****   *         (as sent data will be handled using u16 pointer cast). Depending on compilation chain,
 943:../../../../../../Drivers/STM32L0xx_HAL_Driver/Src/stm32l0xx_hal_uart.c ****   *         use of specific alignment compilation directives or pragmas might be required to ensure
 944:../../../../../../Drivers/STM32L0xx_HAL_Driver/Src/stm32l0xx_hal_uart.c ****   * @retval HAL status
 945:../../../../../../Drivers/STM32L0xx_HAL_Driver/Src/stm32l0xx_hal_uart.c ****   */
 946:../../../../../../Drivers/STM32L0xx_HAL_Driver/Src/stm32l0xx_hal_uart.c **** HAL_StatusTypeDef HAL_UART_Transmit_DMA(UART_HandleTypeDef *huart, uint8_t *pData, uint16_t Size)
 947:../../../../../../Drivers/STM32L0xx_HAL_Driver/Src/stm32l0xx_hal_uart.c **** {
 948:../../../../../../Drivers/STM32L0xx_HAL_Driver/Src/stm32l0xx_hal_uart.c ****   /* Check that a Tx process is not already ongoing */
 949:../../../../../../Drivers/STM32L0xx_HAL_Driver/Src/stm32l0xx_hal_uart.c ****   if(huart->gState == HAL_UART_STATE_READY)
 950:../../../../../../Drivers/STM32L0xx_HAL_Driver/Src/stm32l0xx_hal_uart.c ****   {
 951:../../../../../../Drivers/STM32L0xx_HAL_Driver/Src/stm32l0xx_hal_uart.c ****     if((pData == NULL ) || (Size == 0U))
 952:../../../../../../Drivers/STM32L0xx_HAL_Driver/Src/stm32l0xx_hal_uart.c ****     {
 953:../../../../../../Drivers/STM32L0xx_HAL_Driver/Src/stm32l0xx_hal_uart.c ****       return HAL_ERROR;
 954:../../../../../../Drivers/STM32L0xx_HAL_Driver/Src/stm32l0xx_hal_uart.c ****     }
 955:../../../../../../Drivers/STM32L0xx_HAL_Driver/Src/stm32l0xx_hal_uart.c **** 
 956:../../../../../../Drivers/STM32L0xx_HAL_Driver/Src/stm32l0xx_hal_uart.c ****     /* In case of 9bits/No Parity transfer, pData buffer provided as input paramter 
 957:../../../../../../Drivers/STM32L0xx_HAL_Driver/Src/stm32l0xx_hal_uart.c ****        should be aligned on a u16 frontier, as data copy into TDR will be 
 958:../../../../../../Drivers/STM32L0xx_HAL_Driver/Src/stm32l0xx_hal_uart.c ****        handled by DMA from a u16 frontier. */
 959:../../../../../../Drivers/STM32L0xx_HAL_Driver/Src/stm32l0xx_hal_uart.c ****     if ((huart->Init.WordLength == UART_WORDLENGTH_9B) && (huart->Init.Parity == UART_PARITY_NONE))
 960:../../../../../../Drivers/STM32L0xx_HAL_Driver/Src/stm32l0xx_hal_uart.c ****     {
 961:../../../../../../Drivers/STM32L0xx_HAL_Driver/Src/stm32l0xx_hal_uart.c ****       if((((uint32_t)pData)&1) != 0)
 962:../../../../../../Drivers/STM32L0xx_HAL_Driver/Src/stm32l0xx_hal_uart.c ****       {
 963:../../../../../../Drivers/STM32L0xx_HAL_Driver/Src/stm32l0xx_hal_uart.c ****         return  HAL_ERROR;
 964:../../../../../../Drivers/STM32L0xx_HAL_Driver/Src/stm32l0xx_hal_uart.c ****       }
 965:../../../../../../Drivers/STM32L0xx_HAL_Driver/Src/stm32l0xx_hal_uart.c ****     }
 966:../../../../../../Drivers/STM32L0xx_HAL_Driver/Src/stm32l0xx_hal_uart.c **** 
 967:../../../../../../Drivers/STM32L0xx_HAL_Driver/Src/stm32l0xx_hal_uart.c ****     /* Process Locked */
 968:../../../../../../Drivers/STM32L0xx_HAL_Driver/Src/stm32l0xx_hal_uart.c ****     __HAL_LOCK(huart);
 969:../../../../../../Drivers/STM32L0xx_HAL_Driver/Src/stm32l0xx_hal_uart.c **** 
 970:../../../../../../Drivers/STM32L0xx_HAL_Driver/Src/stm32l0xx_hal_uart.c ****     huart->pTxBuffPtr = pData;
 971:../../../../../../Drivers/STM32L0xx_HAL_Driver/Src/stm32l0xx_hal_uart.c ****     huart->TxXferSize = Size;
 972:../../../../../../Drivers/STM32L0xx_HAL_Driver/Src/stm32l0xx_hal_uart.c ****     huart->TxXferCount = Size;
 973:../../../../../../Drivers/STM32L0xx_HAL_Driver/Src/stm32l0xx_hal_uart.c **** 
 974:../../../../../../Drivers/STM32L0xx_HAL_Driver/Src/stm32l0xx_hal_uart.c ****     huart->ErrorCode = HAL_UART_ERROR_NONE;
 975:../../../../../../Drivers/STM32L0xx_HAL_Driver/Src/stm32l0xx_hal_uart.c ****     huart->gState = HAL_UART_STATE_BUSY_TX;
 976:../../../../../../Drivers/STM32L0xx_HAL_Driver/Src/stm32l0xx_hal_uart.c **** 
 977:../../../../../../Drivers/STM32L0xx_HAL_Driver/Src/stm32l0xx_hal_uart.c ****     /* Set the UART DMA transfer complete callback */
 978:../../../../../../Drivers/STM32L0xx_HAL_Driver/Src/stm32l0xx_hal_uart.c ****     huart->hdmatx->XferCpltCallback = UART_DMATransmitCplt;
 979:../../../../../../Drivers/STM32L0xx_HAL_Driver/Src/stm32l0xx_hal_uart.c **** 
 980:../../../../../../Drivers/STM32L0xx_HAL_Driver/Src/stm32l0xx_hal_uart.c ****     /* Set the UART DMA Half transfer complete callback */
 981:../../../../../../Drivers/STM32L0xx_HAL_Driver/Src/stm32l0xx_hal_uart.c ****     huart->hdmatx->XferHalfCpltCallback = UART_DMATxHalfCplt;
 982:../../../../../../Drivers/STM32L0xx_HAL_Driver/Src/stm32l0xx_hal_uart.c **** 
ARM GAS  C:\Users\EBANO_~1\AppData\Local\Temp\cclnSu0c.s 			page 23


 983:../../../../../../Drivers/STM32L0xx_HAL_Driver/Src/stm32l0xx_hal_uart.c ****     /* Set the DMA error callback */
 984:../../../../../../Drivers/STM32L0xx_HAL_Driver/Src/stm32l0xx_hal_uart.c ****     huart->hdmatx->XferErrorCallback = UART_DMAError;
 985:../../../../../../Drivers/STM32L0xx_HAL_Driver/Src/stm32l0xx_hal_uart.c **** 
 986:../../../../../../Drivers/STM32L0xx_HAL_Driver/Src/stm32l0xx_hal_uart.c ****     /* Set the DMA abort callback */
 987:../../../../../../Drivers/STM32L0xx_HAL_Driver/Src/stm32l0xx_hal_uart.c ****     huart->hdmatx->XferAbortCallback = NULL;
 988:../../../../../../Drivers/STM32L0xx_HAL_Driver/Src/stm32l0xx_hal_uart.c **** 
 989:../../../../../../Drivers/STM32L0xx_HAL_Driver/Src/stm32l0xx_hal_uart.c ****     /* Enable the UART transmit DMA channel */
 990:../../../../../../Drivers/STM32L0xx_HAL_Driver/Src/stm32l0xx_hal_uart.c ****     HAL_DMA_Start_IT(huart->hdmatx, (uint32_t)huart->pTxBuffPtr, (uint32_t)&huart->Instance->TDR, S
 991:../../../../../../Drivers/STM32L0xx_HAL_Driver/Src/stm32l0xx_hal_uart.c **** 
 992:../../../../../../Drivers/STM32L0xx_HAL_Driver/Src/stm32l0xx_hal_uart.c ****     /* Clear the TC flag in the ICR register */
 993:../../../../../../Drivers/STM32L0xx_HAL_Driver/Src/stm32l0xx_hal_uart.c ****     __HAL_UART_CLEAR_FLAG(huart, UART_CLEAR_TCF);
 994:../../../../../../Drivers/STM32L0xx_HAL_Driver/Src/stm32l0xx_hal_uart.c **** 
 995:../../../../../../Drivers/STM32L0xx_HAL_Driver/Src/stm32l0xx_hal_uart.c ****     /* Process Unlocked */
 996:../../../../../../Drivers/STM32L0xx_HAL_Driver/Src/stm32l0xx_hal_uart.c ****     __HAL_UNLOCK(huart);
 997:../../../../../../Drivers/STM32L0xx_HAL_Driver/Src/stm32l0xx_hal_uart.c **** 
 998:../../../../../../Drivers/STM32L0xx_HAL_Driver/Src/stm32l0xx_hal_uart.c ****     /* Enable the DMA transfer for transmit request by setting the DMAT bit
 999:../../../../../../Drivers/STM32L0xx_HAL_Driver/Src/stm32l0xx_hal_uart.c ****        in the UART CR3 register */
1000:../../../../../../Drivers/STM32L0xx_HAL_Driver/Src/stm32l0xx_hal_uart.c ****     SET_BIT(huart->Instance->CR3, USART_CR3_DMAT);
1001:../../../../../../Drivers/STM32L0xx_HAL_Driver/Src/stm32l0xx_hal_uart.c **** 
1002:../../../../../../Drivers/STM32L0xx_HAL_Driver/Src/stm32l0xx_hal_uart.c ****     return HAL_OK;
1003:../../../../../../Drivers/STM32L0xx_HAL_Driver/Src/stm32l0xx_hal_uart.c ****   }
1004:../../../../../../Drivers/STM32L0xx_HAL_Driver/Src/stm32l0xx_hal_uart.c ****   else
1005:../../../../../../Drivers/STM32L0xx_HAL_Driver/Src/stm32l0xx_hal_uart.c ****   {
1006:../../../../../../Drivers/STM32L0xx_HAL_Driver/Src/stm32l0xx_hal_uart.c ****     return HAL_BUSY;
1007:../../../../../../Drivers/STM32L0xx_HAL_Driver/Src/stm32l0xx_hal_uart.c ****   }
1008:../../../../../../Drivers/STM32L0xx_HAL_Driver/Src/stm32l0xx_hal_uart.c **** }
1009:../../../../../../Drivers/STM32L0xx_HAL_Driver/Src/stm32l0xx_hal_uart.c **** 
1010:../../../../../../Drivers/STM32L0xx_HAL_Driver/Src/stm32l0xx_hal_uart.c **** /**
1011:../../../../../../Drivers/STM32L0xx_HAL_Driver/Src/stm32l0xx_hal_uart.c ****   * @brief Receive an amount of data in DMA mode.
1012:../../../../../../Drivers/STM32L0xx_HAL_Driver/Src/stm32l0xx_hal_uart.c ****   * @param huart: UART handle.
1013:../../../../../../Drivers/STM32L0xx_HAL_Driver/Src/stm32l0xx_hal_uart.c ****   * @param pData: pointer to data buffer.
1014:../../../../../../Drivers/STM32L0xx_HAL_Driver/Src/stm32l0xx_hal_uart.c ****   * @param Size: amount of data to be received.
1015:../../../../../../Drivers/STM32L0xx_HAL_Driver/Src/stm32l0xx_hal_uart.c ****   * @note   When the UART parity is enabled (PCE = 1) the data received contain the parity bit.
1016:../../../../../../Drivers/STM32L0xx_HAL_Driver/Src/stm32l0xx_hal_uart.c ****   * @note   When UART parity is not enabled (PCE = 0), and Word Length is configured to 9 bits (M1-
1017:../../../../../../Drivers/STM32L0xx_HAL_Driver/Src/stm32l0xx_hal_uart.c ****   *         address of user data buffer containing data to be sent, should be aligned on a half wor
1018:../../../../../../Drivers/STM32L0xx_HAL_Driver/Src/stm32l0xx_hal_uart.c ****   *         (as sent data will be handled using u16 pointer cast). Depending on compilation chain,
1019:../../../../../../Drivers/STM32L0xx_HAL_Driver/Src/stm32l0xx_hal_uart.c ****   *         use of specific alignment compilation directives or pragmas might be required to ensure
1020:../../../../../../Drivers/STM32L0xx_HAL_Driver/Src/stm32l0xx_hal_uart.c ****   * @retval HAL status
1021:../../../../../../Drivers/STM32L0xx_HAL_Driver/Src/stm32l0xx_hal_uart.c ****   */
1022:../../../../../../Drivers/STM32L0xx_HAL_Driver/Src/stm32l0xx_hal_uart.c **** HAL_StatusTypeDef HAL_UART_Receive_DMA(UART_HandleTypeDef *huart, uint8_t *pData, uint16_t Size)
1023:../../../../../../Drivers/STM32L0xx_HAL_Driver/Src/stm32l0xx_hal_uart.c **** {
1024:../../../../../../Drivers/STM32L0xx_HAL_Driver/Src/stm32l0xx_hal_uart.c ****   /* Check that a Rx process is not already ongoing */
1025:../../../../../../Drivers/STM32L0xx_HAL_Driver/Src/stm32l0xx_hal_uart.c ****   if(huart->RxState == HAL_UART_STATE_READY)
1026:../../../../../../Drivers/STM32L0xx_HAL_Driver/Src/stm32l0xx_hal_uart.c ****   {
1027:../../../../../../Drivers/STM32L0xx_HAL_Driver/Src/stm32l0xx_hal_uart.c ****     if((pData == NULL ) || (Size == 0U))
1028:../../../../../../Drivers/STM32L0xx_HAL_Driver/Src/stm32l0xx_hal_uart.c ****     {
1029:../../../../../../Drivers/STM32L0xx_HAL_Driver/Src/stm32l0xx_hal_uart.c ****       return HAL_ERROR;
1030:../../../../../../Drivers/STM32L0xx_HAL_Driver/Src/stm32l0xx_hal_uart.c ****     }
1031:../../../../../../Drivers/STM32L0xx_HAL_Driver/Src/stm32l0xx_hal_uart.c **** 
1032:../../../../../../Drivers/STM32L0xx_HAL_Driver/Src/stm32l0xx_hal_uart.c ****     /* In case of 9bits/No Parity transfer, pData buffer provided as input paramter 
1033:../../../../../../Drivers/STM32L0xx_HAL_Driver/Src/stm32l0xx_hal_uart.c ****        should be aligned on a u16 frontier, as data copy from RDR will be 
1034:../../../../../../Drivers/STM32L0xx_HAL_Driver/Src/stm32l0xx_hal_uart.c ****        handled by DMA from a u16 frontier. */
1035:../../../../../../Drivers/STM32L0xx_HAL_Driver/Src/stm32l0xx_hal_uart.c ****     if ((huart->Init.WordLength == UART_WORDLENGTH_9B) && (huart->Init.Parity == UART_PARITY_NONE))
1036:../../../../../../Drivers/STM32L0xx_HAL_Driver/Src/stm32l0xx_hal_uart.c ****     {
1037:../../../../../../Drivers/STM32L0xx_HAL_Driver/Src/stm32l0xx_hal_uart.c ****       if((((uint32_t)pData)&1) != 0)
1038:../../../../../../Drivers/STM32L0xx_HAL_Driver/Src/stm32l0xx_hal_uart.c ****       {
1039:../../../../../../Drivers/STM32L0xx_HAL_Driver/Src/stm32l0xx_hal_uart.c ****         return  HAL_ERROR;
ARM GAS  C:\Users\EBANO_~1\AppData\Local\Temp\cclnSu0c.s 			page 24


1040:../../../../../../Drivers/STM32L0xx_HAL_Driver/Src/stm32l0xx_hal_uart.c ****       }
1041:../../../../../../Drivers/STM32L0xx_HAL_Driver/Src/stm32l0xx_hal_uart.c ****     }
1042:../../../../../../Drivers/STM32L0xx_HAL_Driver/Src/stm32l0xx_hal_uart.c **** 
1043:../../../../../../Drivers/STM32L0xx_HAL_Driver/Src/stm32l0xx_hal_uart.c ****     /* Process Locked */
1044:../../../../../../Drivers/STM32L0xx_HAL_Driver/Src/stm32l0xx_hal_uart.c ****     __HAL_LOCK(huart);
1045:../../../../../../Drivers/STM32L0xx_HAL_Driver/Src/stm32l0xx_hal_uart.c **** 
1046:../../../../../../Drivers/STM32L0xx_HAL_Driver/Src/stm32l0xx_hal_uart.c ****     huart->pRxBuffPtr = pData;
1047:../../../../../../Drivers/STM32L0xx_HAL_Driver/Src/stm32l0xx_hal_uart.c ****     huart->RxXferSize = Size;
1048:../../../../../../Drivers/STM32L0xx_HAL_Driver/Src/stm32l0xx_hal_uart.c **** 
1049:../../../../../../Drivers/STM32L0xx_HAL_Driver/Src/stm32l0xx_hal_uart.c ****     huart->ErrorCode = HAL_UART_ERROR_NONE;
1050:../../../../../../Drivers/STM32L0xx_HAL_Driver/Src/stm32l0xx_hal_uart.c ****     huart->RxState = HAL_UART_STATE_BUSY_RX;
1051:../../../../../../Drivers/STM32L0xx_HAL_Driver/Src/stm32l0xx_hal_uart.c **** 
1052:../../../../../../Drivers/STM32L0xx_HAL_Driver/Src/stm32l0xx_hal_uart.c ****     /* Set the UART DMA transfer complete callback */
1053:../../../../../../Drivers/STM32L0xx_HAL_Driver/Src/stm32l0xx_hal_uart.c ****     huart->hdmarx->XferCpltCallback = UART_DMAReceiveCplt;
1054:../../../../../../Drivers/STM32L0xx_HAL_Driver/Src/stm32l0xx_hal_uart.c **** 
1055:../../../../../../Drivers/STM32L0xx_HAL_Driver/Src/stm32l0xx_hal_uart.c ****     /* Set the UART DMA Half transfer complete callback */
1056:../../../../../../Drivers/STM32L0xx_HAL_Driver/Src/stm32l0xx_hal_uart.c ****     huart->hdmarx->XferHalfCpltCallback = UART_DMARxHalfCplt;
1057:../../../../../../Drivers/STM32L0xx_HAL_Driver/Src/stm32l0xx_hal_uart.c **** 
1058:../../../../../../Drivers/STM32L0xx_HAL_Driver/Src/stm32l0xx_hal_uart.c ****     /* Set the DMA error callback */
1059:../../../../../../Drivers/STM32L0xx_HAL_Driver/Src/stm32l0xx_hal_uart.c ****     huart->hdmarx->XferErrorCallback = UART_DMAError;
1060:../../../../../../Drivers/STM32L0xx_HAL_Driver/Src/stm32l0xx_hal_uart.c **** 
1061:../../../../../../Drivers/STM32L0xx_HAL_Driver/Src/stm32l0xx_hal_uart.c ****     /* Set the DMA abort callback */
1062:../../../../../../Drivers/STM32L0xx_HAL_Driver/Src/stm32l0xx_hal_uart.c ****     huart->hdmarx->XferAbortCallback = NULL;
1063:../../../../../../Drivers/STM32L0xx_HAL_Driver/Src/stm32l0xx_hal_uart.c **** 
1064:../../../../../../Drivers/STM32L0xx_HAL_Driver/Src/stm32l0xx_hal_uart.c ****     /* Enable the DMA channel */
1065:../../../../../../Drivers/STM32L0xx_HAL_Driver/Src/stm32l0xx_hal_uart.c ****     HAL_DMA_Start_IT(huart->hdmarx, (uint32_t)&huart->Instance->RDR, (uint32_t)huart->pRxBuffPtr, S
1066:../../../../../../Drivers/STM32L0xx_HAL_Driver/Src/stm32l0xx_hal_uart.c **** 
1067:../../../../../../Drivers/STM32L0xx_HAL_Driver/Src/stm32l0xx_hal_uart.c ****     /* Process Unlocked */
1068:../../../../../../Drivers/STM32L0xx_HAL_Driver/Src/stm32l0xx_hal_uart.c ****     __HAL_UNLOCK(huart);
1069:../../../../../../Drivers/STM32L0xx_HAL_Driver/Src/stm32l0xx_hal_uart.c **** 
1070:../../../../../../Drivers/STM32L0xx_HAL_Driver/Src/stm32l0xx_hal_uart.c ****     /* Enable the UART Parity Error Interrupt */
1071:../../../../../../Drivers/STM32L0xx_HAL_Driver/Src/stm32l0xx_hal_uart.c ****     SET_BIT(huart->Instance->CR1, USART_CR1_PEIE);
1072:../../../../../../Drivers/STM32L0xx_HAL_Driver/Src/stm32l0xx_hal_uart.c **** 
1073:../../../../../../Drivers/STM32L0xx_HAL_Driver/Src/stm32l0xx_hal_uart.c ****     /* Enable the UART Error Interrupt: (Frame error, noise error, overrun error) */
1074:../../../../../../Drivers/STM32L0xx_HAL_Driver/Src/stm32l0xx_hal_uart.c ****     SET_BIT(huart->Instance->CR3, USART_CR3_EIE);
1075:../../../../../../Drivers/STM32L0xx_HAL_Driver/Src/stm32l0xx_hal_uart.c **** 
1076:../../../../../../Drivers/STM32L0xx_HAL_Driver/Src/stm32l0xx_hal_uart.c ****     /* Enable the DMA transfer for the receiver request by setting the DMAR bit
1077:../../../../../../Drivers/STM32L0xx_HAL_Driver/Src/stm32l0xx_hal_uart.c ****        in the UART CR3 register */
1078:../../../../../../Drivers/STM32L0xx_HAL_Driver/Src/stm32l0xx_hal_uart.c ****     SET_BIT(huart->Instance->CR3, USART_CR3_DMAR);
1079:../../../../../../Drivers/STM32L0xx_HAL_Driver/Src/stm32l0xx_hal_uart.c **** 
1080:../../../../../../Drivers/STM32L0xx_HAL_Driver/Src/stm32l0xx_hal_uart.c ****     return HAL_OK;
1081:../../../../../../Drivers/STM32L0xx_HAL_Driver/Src/stm32l0xx_hal_uart.c ****   }
1082:../../../../../../Drivers/STM32L0xx_HAL_Driver/Src/stm32l0xx_hal_uart.c ****   else
1083:../../../../../../Drivers/STM32L0xx_HAL_Driver/Src/stm32l0xx_hal_uart.c ****   {
1084:../../../../../../Drivers/STM32L0xx_HAL_Driver/Src/stm32l0xx_hal_uart.c ****     return HAL_BUSY;
1085:../../../../../../Drivers/STM32L0xx_HAL_Driver/Src/stm32l0xx_hal_uart.c ****   }
1086:../../../../../../Drivers/STM32L0xx_HAL_Driver/Src/stm32l0xx_hal_uart.c **** }
1087:../../../../../../Drivers/STM32L0xx_HAL_Driver/Src/stm32l0xx_hal_uart.c **** 
1088:../../../../../../Drivers/STM32L0xx_HAL_Driver/Src/stm32l0xx_hal_uart.c **** /**
1089:../../../../../../Drivers/STM32L0xx_HAL_Driver/Src/stm32l0xx_hal_uart.c ****   * @brief Pause the DMA Transfer.
1090:../../../../../../Drivers/STM32L0xx_HAL_Driver/Src/stm32l0xx_hal_uart.c ****   * @param huart: UART handle.
1091:../../../../../../Drivers/STM32L0xx_HAL_Driver/Src/stm32l0xx_hal_uart.c ****   * @retval HAL status
1092:../../../../../../Drivers/STM32L0xx_HAL_Driver/Src/stm32l0xx_hal_uart.c ****   */
1093:../../../../../../Drivers/STM32L0xx_HAL_Driver/Src/stm32l0xx_hal_uart.c **** HAL_StatusTypeDef HAL_UART_DMAPause(UART_HandleTypeDef *huart)
1094:../../../../../../Drivers/STM32L0xx_HAL_Driver/Src/stm32l0xx_hal_uart.c **** {
1095:../../../../../../Drivers/STM32L0xx_HAL_Driver/Src/stm32l0xx_hal_uart.c ****   /* Process Locked */
1096:../../../../../../Drivers/STM32L0xx_HAL_Driver/Src/stm32l0xx_hal_uart.c ****   __HAL_LOCK(huart);
ARM GAS  C:\Users\EBANO_~1\AppData\Local\Temp\cclnSu0c.s 			page 25


1097:../../../../../../Drivers/STM32L0xx_HAL_Driver/Src/stm32l0xx_hal_uart.c **** 
1098:../../../../../../Drivers/STM32L0xx_HAL_Driver/Src/stm32l0xx_hal_uart.c ****   if ((huart->gState == HAL_UART_STATE_BUSY_TX) &&
1099:../../../../../../Drivers/STM32L0xx_HAL_Driver/Src/stm32l0xx_hal_uart.c ****       (HAL_IS_BIT_SET(huart->Instance->CR3, USART_CR3_DMAT)))
1100:../../../../../../Drivers/STM32L0xx_HAL_Driver/Src/stm32l0xx_hal_uart.c ****   {
1101:../../../../../../Drivers/STM32L0xx_HAL_Driver/Src/stm32l0xx_hal_uart.c ****     /* Disable the UART DMA Tx request */
1102:../../../../../../Drivers/STM32L0xx_HAL_Driver/Src/stm32l0xx_hal_uart.c ****     CLEAR_BIT(huart->Instance->CR3, USART_CR3_DMAT);
1103:../../../../../../Drivers/STM32L0xx_HAL_Driver/Src/stm32l0xx_hal_uart.c ****   }
1104:../../../../../../Drivers/STM32L0xx_HAL_Driver/Src/stm32l0xx_hal_uart.c ****   if ((huart->RxState == HAL_UART_STATE_BUSY_RX) &&
1105:../../../../../../Drivers/STM32L0xx_HAL_Driver/Src/stm32l0xx_hal_uart.c ****       (HAL_IS_BIT_SET(huart->Instance->CR3, USART_CR3_DMAR)))
1106:../../../../../../Drivers/STM32L0xx_HAL_Driver/Src/stm32l0xx_hal_uart.c ****   {
1107:../../../../../../Drivers/STM32L0xx_HAL_Driver/Src/stm32l0xx_hal_uart.c ****     /* Disable PE and ERR (Frame error, noise error, overrun error) interrupts */
1108:../../../../../../Drivers/STM32L0xx_HAL_Driver/Src/stm32l0xx_hal_uart.c ****     CLEAR_BIT(huart->Instance->CR1, USART_CR1_PEIE);
1109:../../../../../../Drivers/STM32L0xx_HAL_Driver/Src/stm32l0xx_hal_uart.c ****     CLEAR_BIT(huart->Instance->CR3, USART_CR3_EIE);
1110:../../../../../../Drivers/STM32L0xx_HAL_Driver/Src/stm32l0xx_hal_uart.c **** 
1111:../../../../../../Drivers/STM32L0xx_HAL_Driver/Src/stm32l0xx_hal_uart.c ****     /* Disable the UART DMA Rx request */
1112:../../../../../../Drivers/STM32L0xx_HAL_Driver/Src/stm32l0xx_hal_uart.c ****     CLEAR_BIT(huart->Instance->CR3, USART_CR3_DMAR);
1113:../../../../../../Drivers/STM32L0xx_HAL_Driver/Src/stm32l0xx_hal_uart.c ****   }
1114:../../../../../../Drivers/STM32L0xx_HAL_Driver/Src/stm32l0xx_hal_uart.c **** 
1115:../../../../../../Drivers/STM32L0xx_HAL_Driver/Src/stm32l0xx_hal_uart.c ****   /* Process Unlocked */
1116:../../../../../../Drivers/STM32L0xx_HAL_Driver/Src/stm32l0xx_hal_uart.c ****   __HAL_UNLOCK(huart);
1117:../../../../../../Drivers/STM32L0xx_HAL_Driver/Src/stm32l0xx_hal_uart.c **** 
1118:../../../../../../Drivers/STM32L0xx_HAL_Driver/Src/stm32l0xx_hal_uart.c ****   return HAL_OK;
1119:../../../../../../Drivers/STM32L0xx_HAL_Driver/Src/stm32l0xx_hal_uart.c **** }
1120:../../../../../../Drivers/STM32L0xx_HAL_Driver/Src/stm32l0xx_hal_uart.c **** 
1121:../../../../../../Drivers/STM32L0xx_HAL_Driver/Src/stm32l0xx_hal_uart.c **** /**
1122:../../../../../../Drivers/STM32L0xx_HAL_Driver/Src/stm32l0xx_hal_uart.c ****   * @brief Resume the DMA Transfer.
1123:../../../../../../Drivers/STM32L0xx_HAL_Driver/Src/stm32l0xx_hal_uart.c ****   * @param huart: UART handle.
1124:../../../../../../Drivers/STM32L0xx_HAL_Driver/Src/stm32l0xx_hal_uart.c ****   * @retval HAL status
1125:../../../../../../Drivers/STM32L0xx_HAL_Driver/Src/stm32l0xx_hal_uart.c ****   */
1126:../../../../../../Drivers/STM32L0xx_HAL_Driver/Src/stm32l0xx_hal_uart.c **** HAL_StatusTypeDef HAL_UART_DMAResume(UART_HandleTypeDef *huart)
1127:../../../../../../Drivers/STM32L0xx_HAL_Driver/Src/stm32l0xx_hal_uart.c **** {
1128:../../../../../../Drivers/STM32L0xx_HAL_Driver/Src/stm32l0xx_hal_uart.c ****   /* Process Locked */
1129:../../../../../../Drivers/STM32L0xx_HAL_Driver/Src/stm32l0xx_hal_uart.c ****   __HAL_LOCK(huart);
1130:../../../../../../Drivers/STM32L0xx_HAL_Driver/Src/stm32l0xx_hal_uart.c **** 
1131:../../../../../../Drivers/STM32L0xx_HAL_Driver/Src/stm32l0xx_hal_uart.c ****   if(huart->gState == HAL_UART_STATE_BUSY_TX)
1132:../../../../../../Drivers/STM32L0xx_HAL_Driver/Src/stm32l0xx_hal_uart.c ****   {
1133:../../../../../../Drivers/STM32L0xx_HAL_Driver/Src/stm32l0xx_hal_uart.c ****     /* Enable the UART DMA Tx request */
1134:../../../../../../Drivers/STM32L0xx_HAL_Driver/Src/stm32l0xx_hal_uart.c ****     SET_BIT(huart->Instance->CR3, USART_CR3_DMAT);
1135:../../../../../../Drivers/STM32L0xx_HAL_Driver/Src/stm32l0xx_hal_uart.c ****   }
1136:../../../../../../Drivers/STM32L0xx_HAL_Driver/Src/stm32l0xx_hal_uart.c ****   if(huart->RxState == HAL_UART_STATE_BUSY_RX)
1137:../../../../../../Drivers/STM32L0xx_HAL_Driver/Src/stm32l0xx_hal_uart.c ****   {
1138:../../../../../../Drivers/STM32L0xx_HAL_Driver/Src/stm32l0xx_hal_uart.c ****     /* Clear the Overrun flag before resuming the Rx transfer */
1139:../../../../../../Drivers/STM32L0xx_HAL_Driver/Src/stm32l0xx_hal_uart.c ****     __HAL_UART_CLEAR_FLAG(huart, UART_CLEAR_OREF);
1140:../../../../../../Drivers/STM32L0xx_HAL_Driver/Src/stm32l0xx_hal_uart.c **** 
1141:../../../../../../Drivers/STM32L0xx_HAL_Driver/Src/stm32l0xx_hal_uart.c ****     /* Reenable PE and ERR (Frame error, noise error, overrun error) interrupts */
1142:../../../../../../Drivers/STM32L0xx_HAL_Driver/Src/stm32l0xx_hal_uart.c ****     SET_BIT(huart->Instance->CR1, USART_CR1_PEIE);
1143:../../../../../../Drivers/STM32L0xx_HAL_Driver/Src/stm32l0xx_hal_uart.c ****     SET_BIT(huart->Instance->CR3, USART_CR3_EIE);
1144:../../../../../../Drivers/STM32L0xx_HAL_Driver/Src/stm32l0xx_hal_uart.c **** 
1145:../../../../../../Drivers/STM32L0xx_HAL_Driver/Src/stm32l0xx_hal_uart.c ****     /* Enable the UART DMA Rx request */
1146:../../../../../../Drivers/STM32L0xx_HAL_Driver/Src/stm32l0xx_hal_uart.c ****     SET_BIT(huart->Instance->CR3, USART_CR3_DMAR);
1147:../../../../../../Drivers/STM32L0xx_HAL_Driver/Src/stm32l0xx_hal_uart.c ****   }
1148:../../../../../../Drivers/STM32L0xx_HAL_Driver/Src/stm32l0xx_hal_uart.c **** 
1149:../../../../../../Drivers/STM32L0xx_HAL_Driver/Src/stm32l0xx_hal_uart.c ****   /* Process Unlocked */
1150:../../../../../../Drivers/STM32L0xx_HAL_Driver/Src/stm32l0xx_hal_uart.c ****   __HAL_UNLOCK(huart);
1151:../../../../../../Drivers/STM32L0xx_HAL_Driver/Src/stm32l0xx_hal_uart.c **** 
1152:../../../../../../Drivers/STM32L0xx_HAL_Driver/Src/stm32l0xx_hal_uart.c ****   return HAL_OK;
1153:../../../../../../Drivers/STM32L0xx_HAL_Driver/Src/stm32l0xx_hal_uart.c **** }
ARM GAS  C:\Users\EBANO_~1\AppData\Local\Temp\cclnSu0c.s 			page 26


1154:../../../../../../Drivers/STM32L0xx_HAL_Driver/Src/stm32l0xx_hal_uart.c **** 
1155:../../../../../../Drivers/STM32L0xx_HAL_Driver/Src/stm32l0xx_hal_uart.c **** /**
1156:../../../../../../Drivers/STM32L0xx_HAL_Driver/Src/stm32l0xx_hal_uart.c ****   * @brief Stop the DMA Transfer.
1157:../../../../../../Drivers/STM32L0xx_HAL_Driver/Src/stm32l0xx_hal_uart.c ****   * @param huart: UART handle.
1158:../../../../../../Drivers/STM32L0xx_HAL_Driver/Src/stm32l0xx_hal_uart.c ****   * @retval HAL status
1159:../../../../../../Drivers/STM32L0xx_HAL_Driver/Src/stm32l0xx_hal_uart.c ****   */
1160:../../../../../../Drivers/STM32L0xx_HAL_Driver/Src/stm32l0xx_hal_uart.c **** HAL_StatusTypeDef HAL_UART_DMAStop(UART_HandleTypeDef *huart)
1161:../../../../../../Drivers/STM32L0xx_HAL_Driver/Src/stm32l0xx_hal_uart.c **** {
1162:../../../../../../Drivers/STM32L0xx_HAL_Driver/Src/stm32l0xx_hal_uart.c ****   /* The Lock is not implemented on this API to allow the user application
1163:../../../../../../Drivers/STM32L0xx_HAL_Driver/Src/stm32l0xx_hal_uart.c ****      to call the HAL UART API under callbacks HAL_UART_TxCpltCallback() / HAL_UART_RxCpltCallback()
1164:../../../../../../Drivers/STM32L0xx_HAL_Driver/Src/stm32l0xx_hal_uart.c ****      HAL_UART_TxHalfCpltCallback / HAL_UART_RxHalfCpltCallback: 
1165:../../../../../../Drivers/STM32L0xx_HAL_Driver/Src/stm32l0xx_hal_uart.c ****      indeed, when HAL_DMA_Abort() API is called, the DMA TX/RX Transfer or Half Transfer complete  
1166:../../../../../../Drivers/STM32L0xx_HAL_Driver/Src/stm32l0xx_hal_uart.c ****      interrupt is generated if the DMA transfer interruption occurs at the middle or at the end of 
1167:../../../../../../Drivers/STM32L0xx_HAL_Driver/Src/stm32l0xx_hal_uart.c ****      the stream and the corresponding call back is executed. */
1168:../../../../../../Drivers/STM32L0xx_HAL_Driver/Src/stm32l0xx_hal_uart.c **** 
1169:../../../../../../Drivers/STM32L0xx_HAL_Driver/Src/stm32l0xx_hal_uart.c ****   /* Stop UART DMA Tx request if ongoing */
1170:../../../../../../Drivers/STM32L0xx_HAL_Driver/Src/stm32l0xx_hal_uart.c ****   if ((huart->gState == HAL_UART_STATE_BUSY_TX) &&
1171:../../../../../../Drivers/STM32L0xx_HAL_Driver/Src/stm32l0xx_hal_uart.c ****       (HAL_IS_BIT_SET(huart->Instance->CR3, USART_CR3_DMAT)))
1172:../../../../../../Drivers/STM32L0xx_HAL_Driver/Src/stm32l0xx_hal_uart.c ****   {
1173:../../../../../../Drivers/STM32L0xx_HAL_Driver/Src/stm32l0xx_hal_uart.c ****     CLEAR_BIT(huart->Instance->CR3, USART_CR3_DMAT);
1174:../../../../../../Drivers/STM32L0xx_HAL_Driver/Src/stm32l0xx_hal_uart.c **** 
1175:../../../../../../Drivers/STM32L0xx_HAL_Driver/Src/stm32l0xx_hal_uart.c ****     /* Abort the UART DMA Tx channel */
1176:../../../../../../Drivers/STM32L0xx_HAL_Driver/Src/stm32l0xx_hal_uart.c ****     if(huart->hdmatx != NULL)
1177:../../../../../../Drivers/STM32L0xx_HAL_Driver/Src/stm32l0xx_hal_uart.c ****     {
1178:../../../../../../Drivers/STM32L0xx_HAL_Driver/Src/stm32l0xx_hal_uart.c ****       HAL_DMA_Abort(huart->hdmatx);
1179:../../../../../../Drivers/STM32L0xx_HAL_Driver/Src/stm32l0xx_hal_uart.c ****     }
1180:../../../../../../Drivers/STM32L0xx_HAL_Driver/Src/stm32l0xx_hal_uart.c **** 
1181:../../../../../../Drivers/STM32L0xx_HAL_Driver/Src/stm32l0xx_hal_uart.c ****     UART_EndTxTransfer(huart);
1182:../../../../../../Drivers/STM32L0xx_HAL_Driver/Src/stm32l0xx_hal_uart.c ****   }
1183:../../../../../../Drivers/STM32L0xx_HAL_Driver/Src/stm32l0xx_hal_uart.c **** 
1184:../../../../../../Drivers/STM32L0xx_HAL_Driver/Src/stm32l0xx_hal_uart.c ****   /* Stop UART DMA Rx request if ongoing */
1185:../../../../../../Drivers/STM32L0xx_HAL_Driver/Src/stm32l0xx_hal_uart.c ****   if ((huart->RxState == HAL_UART_STATE_BUSY_RX) &&
1186:../../../../../../Drivers/STM32L0xx_HAL_Driver/Src/stm32l0xx_hal_uart.c ****       (HAL_IS_BIT_SET(huart->Instance->CR3, USART_CR3_DMAR)))
1187:../../../../../../Drivers/STM32L0xx_HAL_Driver/Src/stm32l0xx_hal_uart.c ****   {
1188:../../../../../../Drivers/STM32L0xx_HAL_Driver/Src/stm32l0xx_hal_uart.c ****     CLEAR_BIT(huart->Instance->CR3, USART_CR3_DMAR);
1189:../../../../../../Drivers/STM32L0xx_HAL_Driver/Src/stm32l0xx_hal_uart.c **** 
1190:../../../../../../Drivers/STM32L0xx_HAL_Driver/Src/stm32l0xx_hal_uart.c ****     /* Abort the UART DMA Rx channel */
1191:../../../../../../Drivers/STM32L0xx_HAL_Driver/Src/stm32l0xx_hal_uart.c ****     if(huart->hdmarx != NULL)
1192:../../../../../../Drivers/STM32L0xx_HAL_Driver/Src/stm32l0xx_hal_uart.c ****     {
1193:../../../../../../Drivers/STM32L0xx_HAL_Driver/Src/stm32l0xx_hal_uart.c ****       HAL_DMA_Abort(huart->hdmarx);
1194:../../../../../../Drivers/STM32L0xx_HAL_Driver/Src/stm32l0xx_hal_uart.c ****     }
1195:../../../../../../Drivers/STM32L0xx_HAL_Driver/Src/stm32l0xx_hal_uart.c **** 
1196:../../../../../../Drivers/STM32L0xx_HAL_Driver/Src/stm32l0xx_hal_uart.c ****     UART_EndRxTransfer(huart);
1197:../../../../../../Drivers/STM32L0xx_HAL_Driver/Src/stm32l0xx_hal_uart.c ****   }
1198:../../../../../../Drivers/STM32L0xx_HAL_Driver/Src/stm32l0xx_hal_uart.c **** 
1199:../../../../../../Drivers/STM32L0xx_HAL_Driver/Src/stm32l0xx_hal_uart.c ****   return HAL_OK;
1200:../../../../../../Drivers/STM32L0xx_HAL_Driver/Src/stm32l0xx_hal_uart.c **** }
1201:../../../../../../Drivers/STM32L0xx_HAL_Driver/Src/stm32l0xx_hal_uart.c **** 
1202:../../../../../../Drivers/STM32L0xx_HAL_Driver/Src/stm32l0xx_hal_uart.c **** /**
1203:../../../../../../Drivers/STM32L0xx_HAL_Driver/Src/stm32l0xx_hal_uart.c ****   * @brief  Abort ongoing transfers (blocking mode).
1204:../../../../../../Drivers/STM32L0xx_HAL_Driver/Src/stm32l0xx_hal_uart.c ****   * @param  huart UART handle.
1205:../../../../../../Drivers/STM32L0xx_HAL_Driver/Src/stm32l0xx_hal_uart.c ****   * @note   This procedure could be used for aborting any ongoing transfer started in Interrupt or 
1206:../../../../../../Drivers/STM32L0xx_HAL_Driver/Src/stm32l0xx_hal_uart.c ****   *         This procedure performs following operations :
1207:../../../../../../Drivers/STM32L0xx_HAL_Driver/Src/stm32l0xx_hal_uart.c ****   *           - Disable UART Interrupts (Tx and Rx)
1208:../../../../../../Drivers/STM32L0xx_HAL_Driver/Src/stm32l0xx_hal_uart.c ****   *           - Disable the DMA transfer in the peripheral register (if enabled)
1209:../../../../../../Drivers/STM32L0xx_HAL_Driver/Src/stm32l0xx_hal_uart.c ****   *           - Abort DMA transfer by calling HAL_DMA_Abort (in case of transfer in DMA mode)
1210:../../../../../../Drivers/STM32L0xx_HAL_Driver/Src/stm32l0xx_hal_uart.c ****   *           - Set handle State to READY
ARM GAS  C:\Users\EBANO_~1\AppData\Local\Temp\cclnSu0c.s 			page 27


1211:../../../../../../Drivers/STM32L0xx_HAL_Driver/Src/stm32l0xx_hal_uart.c ****   * @note   This procedure is executed in blocking mode : when exiting function, Abort is considere
1212:../../../../../../Drivers/STM32L0xx_HAL_Driver/Src/stm32l0xx_hal_uart.c ****   * @retval HAL status
1213:../../../../../../Drivers/STM32L0xx_HAL_Driver/Src/stm32l0xx_hal_uart.c **** */
1214:../../../../../../Drivers/STM32L0xx_HAL_Driver/Src/stm32l0xx_hal_uart.c **** HAL_StatusTypeDef HAL_UART_Abort(UART_HandleTypeDef *huart)
1215:../../../../../../Drivers/STM32L0xx_HAL_Driver/Src/stm32l0xx_hal_uart.c **** {
1216:../../../../../../Drivers/STM32L0xx_HAL_Driver/Src/stm32l0xx_hal_uart.c ****   /* Disable TXEIE, TCIE, RXNE, PE and ERR (Frame error, noise error, overrun error) interrupts */
1217:../../../../../../Drivers/STM32L0xx_HAL_Driver/Src/stm32l0xx_hal_uart.c ****   CLEAR_BIT(huart->Instance->CR1, (USART_CR1_RXNEIE | USART_CR1_PEIE | USART_CR1_TXEIE | USART_CR1_
1218:../../../../../../Drivers/STM32L0xx_HAL_Driver/Src/stm32l0xx_hal_uart.c ****   CLEAR_BIT(huart->Instance->CR3, USART_CR3_EIE);
1219:../../../../../../Drivers/STM32L0xx_HAL_Driver/Src/stm32l0xx_hal_uart.c **** 
1220:../../../../../../Drivers/STM32L0xx_HAL_Driver/Src/stm32l0xx_hal_uart.c ****   /* Disable the UART DMA Tx request if enabled */
1221:../../../../../../Drivers/STM32L0xx_HAL_Driver/Src/stm32l0xx_hal_uart.c ****   if (HAL_IS_BIT_SET(huart->Instance->CR3, USART_CR3_DMAT))
1222:../../../../../../Drivers/STM32L0xx_HAL_Driver/Src/stm32l0xx_hal_uart.c ****   {
1223:../../../../../../Drivers/STM32L0xx_HAL_Driver/Src/stm32l0xx_hal_uart.c ****     CLEAR_BIT(huart->Instance->CR3, USART_CR3_DMAT);
1224:../../../../../../Drivers/STM32L0xx_HAL_Driver/Src/stm32l0xx_hal_uart.c **** 
1225:../../../../../../Drivers/STM32L0xx_HAL_Driver/Src/stm32l0xx_hal_uart.c ****     /* Abort the UART DMA Tx channel : use blocking DMA Abort API (no callback) */
1226:../../../../../../Drivers/STM32L0xx_HAL_Driver/Src/stm32l0xx_hal_uart.c ****     if(huart->hdmatx != NULL)
1227:../../../../../../Drivers/STM32L0xx_HAL_Driver/Src/stm32l0xx_hal_uart.c ****     {
1228:../../../../../../Drivers/STM32L0xx_HAL_Driver/Src/stm32l0xx_hal_uart.c ****       /* Set the UART DMA Abort callback to Null. 
1229:../../../../../../Drivers/STM32L0xx_HAL_Driver/Src/stm32l0xx_hal_uart.c ****          No call back execution at end of DMA abort procedure */
1230:../../../../../../Drivers/STM32L0xx_HAL_Driver/Src/stm32l0xx_hal_uart.c ****       huart->hdmatx->XferAbortCallback = NULL;
1231:../../../../../../Drivers/STM32L0xx_HAL_Driver/Src/stm32l0xx_hal_uart.c **** 
1232:../../../../../../Drivers/STM32L0xx_HAL_Driver/Src/stm32l0xx_hal_uart.c ****       HAL_DMA_Abort(huart->hdmatx);
1233:../../../../../../Drivers/STM32L0xx_HAL_Driver/Src/stm32l0xx_hal_uart.c ****     }
1234:../../../../../../Drivers/STM32L0xx_HAL_Driver/Src/stm32l0xx_hal_uart.c ****   }
1235:../../../../../../Drivers/STM32L0xx_HAL_Driver/Src/stm32l0xx_hal_uart.c **** 
1236:../../../../../../Drivers/STM32L0xx_HAL_Driver/Src/stm32l0xx_hal_uart.c ****   /* Disable the UART DMA Rx request if enabled */
1237:../../../../../../Drivers/STM32L0xx_HAL_Driver/Src/stm32l0xx_hal_uart.c ****   if (HAL_IS_BIT_SET(huart->Instance->CR3, USART_CR3_DMAR))
1238:../../../../../../Drivers/STM32L0xx_HAL_Driver/Src/stm32l0xx_hal_uart.c ****   {
1239:../../../../../../Drivers/STM32L0xx_HAL_Driver/Src/stm32l0xx_hal_uart.c ****     CLEAR_BIT(huart->Instance->CR3, USART_CR3_DMAR);
1240:../../../../../../Drivers/STM32L0xx_HAL_Driver/Src/stm32l0xx_hal_uart.c **** 
1241:../../../../../../Drivers/STM32L0xx_HAL_Driver/Src/stm32l0xx_hal_uart.c ****     /* Abort the UART DMA Rx channel : use blocking DMA Abort API (no callback) */
1242:../../../../../../Drivers/STM32L0xx_HAL_Driver/Src/stm32l0xx_hal_uart.c ****     if(huart->hdmarx != NULL)
1243:../../../../../../Drivers/STM32L0xx_HAL_Driver/Src/stm32l0xx_hal_uart.c ****     {
1244:../../../../../../Drivers/STM32L0xx_HAL_Driver/Src/stm32l0xx_hal_uart.c ****       /* Set the UART DMA Abort callback to Null. 
1245:../../../../../../Drivers/STM32L0xx_HAL_Driver/Src/stm32l0xx_hal_uart.c ****          No call back execution at end of DMA abort procedure */
1246:../../../../../../Drivers/STM32L0xx_HAL_Driver/Src/stm32l0xx_hal_uart.c ****       huart->hdmarx->XferAbortCallback = NULL;
1247:../../../../../../Drivers/STM32L0xx_HAL_Driver/Src/stm32l0xx_hal_uart.c **** 
1248:../../../../../../Drivers/STM32L0xx_HAL_Driver/Src/stm32l0xx_hal_uart.c ****       HAL_DMA_Abort(huart->hdmarx);
1249:../../../../../../Drivers/STM32L0xx_HAL_Driver/Src/stm32l0xx_hal_uart.c ****     }
1250:../../../../../../Drivers/STM32L0xx_HAL_Driver/Src/stm32l0xx_hal_uart.c ****   }
1251:../../../../../../Drivers/STM32L0xx_HAL_Driver/Src/stm32l0xx_hal_uart.c **** 
1252:../../../../../../Drivers/STM32L0xx_HAL_Driver/Src/stm32l0xx_hal_uart.c ****   /* Reset Tx and Rx transfer counters */
1253:../../../../../../Drivers/STM32L0xx_HAL_Driver/Src/stm32l0xx_hal_uart.c ****   huart->TxXferCount = 0; 
1254:../../../../../../Drivers/STM32L0xx_HAL_Driver/Src/stm32l0xx_hal_uart.c ****   huart->RxXferCount = 0; 
1255:../../../../../../Drivers/STM32L0xx_HAL_Driver/Src/stm32l0xx_hal_uart.c **** 
1256:../../../../../../Drivers/STM32L0xx_HAL_Driver/Src/stm32l0xx_hal_uart.c ****   /* Clear the Error flags in the ICR register */
1257:../../../../../../Drivers/STM32L0xx_HAL_Driver/Src/stm32l0xx_hal_uart.c ****   __HAL_UART_CLEAR_FLAG(huart, UART_CLEAR_OREF | UART_CLEAR_NEF | UART_CLEAR_PEF | UART_CLEAR_FEF);
1258:../../../../../../Drivers/STM32L0xx_HAL_Driver/Src/stm32l0xx_hal_uart.c **** 
1259:../../../../../../Drivers/STM32L0xx_HAL_Driver/Src/stm32l0xx_hal_uart.c ****   /* Restore huart->gState and huart->RxState to Ready */
1260:../../../../../../Drivers/STM32L0xx_HAL_Driver/Src/stm32l0xx_hal_uart.c ****   huart->gState  = HAL_UART_STATE_READY;
1261:../../../../../../Drivers/STM32L0xx_HAL_Driver/Src/stm32l0xx_hal_uart.c ****   huart->RxState = HAL_UART_STATE_READY;
1262:../../../../../../Drivers/STM32L0xx_HAL_Driver/Src/stm32l0xx_hal_uart.c **** 
1263:../../../../../../Drivers/STM32L0xx_HAL_Driver/Src/stm32l0xx_hal_uart.c ****   /* Reset Handle ErrorCode to No Error */
1264:../../../../../../Drivers/STM32L0xx_HAL_Driver/Src/stm32l0xx_hal_uart.c ****   huart->ErrorCode = HAL_UART_ERROR_NONE;
1265:../../../../../../Drivers/STM32L0xx_HAL_Driver/Src/stm32l0xx_hal_uart.c **** 
1266:../../../../../../Drivers/STM32L0xx_HAL_Driver/Src/stm32l0xx_hal_uart.c ****   return HAL_OK;
1267:../../../../../../Drivers/STM32L0xx_HAL_Driver/Src/stm32l0xx_hal_uart.c **** }
ARM GAS  C:\Users\EBANO_~1\AppData\Local\Temp\cclnSu0c.s 			page 28


1268:../../../../../../Drivers/STM32L0xx_HAL_Driver/Src/stm32l0xx_hal_uart.c **** 
1269:../../../../../../Drivers/STM32L0xx_HAL_Driver/Src/stm32l0xx_hal_uart.c **** /**
1270:../../../../../../Drivers/STM32L0xx_HAL_Driver/Src/stm32l0xx_hal_uart.c ****   * @brief  Abort ongoing Transmit transfer (blocking mode).
1271:../../../../../../Drivers/STM32L0xx_HAL_Driver/Src/stm32l0xx_hal_uart.c ****   * @param  huart UART handle.
1272:../../../../../../Drivers/STM32L0xx_HAL_Driver/Src/stm32l0xx_hal_uart.c ****   * @note   This procedure could be used for aborting any ongoing Tx transfer started in Interrupt 
1273:../../../../../../Drivers/STM32L0xx_HAL_Driver/Src/stm32l0xx_hal_uart.c ****   *         This procedure performs following operations :
1274:../../../../../../Drivers/STM32L0xx_HAL_Driver/Src/stm32l0xx_hal_uart.c ****   *           - Disable UART Interrupts (Tx)
1275:../../../../../../Drivers/STM32L0xx_HAL_Driver/Src/stm32l0xx_hal_uart.c ****   *           - Disable the DMA transfer in the peripheral register (if enabled)
1276:../../../../../../Drivers/STM32L0xx_HAL_Driver/Src/stm32l0xx_hal_uart.c ****   *           - Abort DMA transfer by calling HAL_DMA_Abort (in case of transfer in DMA mode)
1277:../../../../../../Drivers/STM32L0xx_HAL_Driver/Src/stm32l0xx_hal_uart.c ****   *           - Set handle State to READY
1278:../../../../../../Drivers/STM32L0xx_HAL_Driver/Src/stm32l0xx_hal_uart.c ****   * @note   This procedure is executed in blocking mode : when exiting function, Abort is considere
1279:../../../../../../Drivers/STM32L0xx_HAL_Driver/Src/stm32l0xx_hal_uart.c ****   * @retval HAL status
1280:../../../../../../Drivers/STM32L0xx_HAL_Driver/Src/stm32l0xx_hal_uart.c **** */
1281:../../../../../../Drivers/STM32L0xx_HAL_Driver/Src/stm32l0xx_hal_uart.c **** HAL_StatusTypeDef HAL_UART_AbortTransmit(UART_HandleTypeDef *huart)
1282:../../../../../../Drivers/STM32L0xx_HAL_Driver/Src/stm32l0xx_hal_uart.c **** {
1283:../../../../../../Drivers/STM32L0xx_HAL_Driver/Src/stm32l0xx_hal_uart.c ****   /* Disable TXEIE and TCIE interrupts */
1284:../../../../../../Drivers/STM32L0xx_HAL_Driver/Src/stm32l0xx_hal_uart.c ****   CLEAR_BIT(huart->Instance->CR1, (USART_CR1_TXEIE | USART_CR1_TCIE));
1285:../../../../../../Drivers/STM32L0xx_HAL_Driver/Src/stm32l0xx_hal_uart.c **** 
1286:../../../../../../Drivers/STM32L0xx_HAL_Driver/Src/stm32l0xx_hal_uart.c ****   /* Disable the UART DMA Tx request if enabled */
1287:../../../../../../Drivers/STM32L0xx_HAL_Driver/Src/stm32l0xx_hal_uart.c ****   if (HAL_IS_BIT_SET(huart->Instance->CR3, USART_CR3_DMAT))
1288:../../../../../../Drivers/STM32L0xx_HAL_Driver/Src/stm32l0xx_hal_uart.c ****   {
1289:../../../../../../Drivers/STM32L0xx_HAL_Driver/Src/stm32l0xx_hal_uart.c ****     CLEAR_BIT(huart->Instance->CR3, USART_CR3_DMAT);
1290:../../../../../../Drivers/STM32L0xx_HAL_Driver/Src/stm32l0xx_hal_uart.c **** 
1291:../../../../../../Drivers/STM32L0xx_HAL_Driver/Src/stm32l0xx_hal_uart.c ****     /* Abort the UART DMA Tx channel : use blocking DMA Abort API (no callback) */
1292:../../../../../../Drivers/STM32L0xx_HAL_Driver/Src/stm32l0xx_hal_uart.c ****     if(huart->hdmatx != NULL)
1293:../../../../../../Drivers/STM32L0xx_HAL_Driver/Src/stm32l0xx_hal_uart.c ****     {
1294:../../../../../../Drivers/STM32L0xx_HAL_Driver/Src/stm32l0xx_hal_uart.c ****       /* Set the UART DMA Abort callback to Null. 
1295:../../../../../../Drivers/STM32L0xx_HAL_Driver/Src/stm32l0xx_hal_uart.c ****          No call back execution at end of DMA abort procedure */
1296:../../../../../../Drivers/STM32L0xx_HAL_Driver/Src/stm32l0xx_hal_uart.c ****       huart->hdmatx->XferAbortCallback = NULL;
1297:../../../../../../Drivers/STM32L0xx_HAL_Driver/Src/stm32l0xx_hal_uart.c **** 
1298:../../../../../../Drivers/STM32L0xx_HAL_Driver/Src/stm32l0xx_hal_uart.c ****       HAL_DMA_Abort(huart->hdmatx);
1299:../../../../../../Drivers/STM32L0xx_HAL_Driver/Src/stm32l0xx_hal_uart.c ****     }
1300:../../../../../../Drivers/STM32L0xx_HAL_Driver/Src/stm32l0xx_hal_uart.c ****   }
1301:../../../../../../Drivers/STM32L0xx_HAL_Driver/Src/stm32l0xx_hal_uart.c **** 
1302:../../../../../../Drivers/STM32L0xx_HAL_Driver/Src/stm32l0xx_hal_uart.c ****   /* Reset Tx transfer counter */
1303:../../../../../../Drivers/STM32L0xx_HAL_Driver/Src/stm32l0xx_hal_uart.c ****   huart->TxXferCount = 0; 
1304:../../../../../../Drivers/STM32L0xx_HAL_Driver/Src/stm32l0xx_hal_uart.c **** 
1305:../../../../../../Drivers/STM32L0xx_HAL_Driver/Src/stm32l0xx_hal_uart.c ****   /* Restore huart->gState to Ready */
1306:../../../../../../Drivers/STM32L0xx_HAL_Driver/Src/stm32l0xx_hal_uart.c ****   huart->gState = HAL_UART_STATE_READY;
1307:../../../../../../Drivers/STM32L0xx_HAL_Driver/Src/stm32l0xx_hal_uart.c **** 
1308:../../../../../../Drivers/STM32L0xx_HAL_Driver/Src/stm32l0xx_hal_uart.c ****   return HAL_OK;
1309:../../../../../../Drivers/STM32L0xx_HAL_Driver/Src/stm32l0xx_hal_uart.c **** }
1310:../../../../../../Drivers/STM32L0xx_HAL_Driver/Src/stm32l0xx_hal_uart.c **** 
1311:../../../../../../Drivers/STM32L0xx_HAL_Driver/Src/stm32l0xx_hal_uart.c **** /**
1312:../../../../../../Drivers/STM32L0xx_HAL_Driver/Src/stm32l0xx_hal_uart.c ****   * @brief  Abort ongoing Receive transfer (blocking mode).
1313:../../../../../../Drivers/STM32L0xx_HAL_Driver/Src/stm32l0xx_hal_uart.c ****   * @param  huart UART handle.
1314:../../../../../../Drivers/STM32L0xx_HAL_Driver/Src/stm32l0xx_hal_uart.c ****   * @note   This procedure could be used for aborting any ongoing Rx transfer started in Interrupt 
1315:../../../../../../Drivers/STM32L0xx_HAL_Driver/Src/stm32l0xx_hal_uart.c ****   *         This procedure performs following operations :
1316:../../../../../../Drivers/STM32L0xx_HAL_Driver/Src/stm32l0xx_hal_uart.c ****   *           - Disable UART Interrupts (Rx)
1317:../../../../../../Drivers/STM32L0xx_HAL_Driver/Src/stm32l0xx_hal_uart.c ****   *           - Disable the DMA transfer in the peripheral register (if enabled)
1318:../../../../../../Drivers/STM32L0xx_HAL_Driver/Src/stm32l0xx_hal_uart.c ****   *           - Abort DMA transfer by calling HAL_DMA_Abort (in case of transfer in DMA mode)
1319:../../../../../../Drivers/STM32L0xx_HAL_Driver/Src/stm32l0xx_hal_uart.c ****   *           - Set handle State to READY
1320:../../../../../../Drivers/STM32L0xx_HAL_Driver/Src/stm32l0xx_hal_uart.c ****   * @note   This procedure is executed in blocking mode : when exiting function, Abort is considere
1321:../../../../../../Drivers/STM32L0xx_HAL_Driver/Src/stm32l0xx_hal_uart.c ****   * @retval HAL status
1322:../../../../../../Drivers/STM32L0xx_HAL_Driver/Src/stm32l0xx_hal_uart.c **** */
1323:../../../../../../Drivers/STM32L0xx_HAL_Driver/Src/stm32l0xx_hal_uart.c **** HAL_StatusTypeDef HAL_UART_AbortReceive(UART_HandleTypeDef *huart)
1324:../../../../../../Drivers/STM32L0xx_HAL_Driver/Src/stm32l0xx_hal_uart.c **** {
ARM GAS  C:\Users\EBANO_~1\AppData\Local\Temp\cclnSu0c.s 			page 29


1325:../../../../../../Drivers/STM32L0xx_HAL_Driver/Src/stm32l0xx_hal_uart.c ****   /* Disable RXNE, PE and ERR (Frame error, noise error, overrun error) interrupts */
1326:../../../../../../Drivers/STM32L0xx_HAL_Driver/Src/stm32l0xx_hal_uart.c ****   CLEAR_BIT(huart->Instance->CR1, (USART_CR1_RXNEIE | USART_CR1_PEIE));
1327:../../../../../../Drivers/STM32L0xx_HAL_Driver/Src/stm32l0xx_hal_uart.c ****   CLEAR_BIT(huart->Instance->CR3, USART_CR3_EIE);
1328:../../../../../../Drivers/STM32L0xx_HAL_Driver/Src/stm32l0xx_hal_uart.c **** 
1329:../../../../../../Drivers/STM32L0xx_HAL_Driver/Src/stm32l0xx_hal_uart.c ****   /* Disable the UART DMA Rx request if enabled */
1330:../../../../../../Drivers/STM32L0xx_HAL_Driver/Src/stm32l0xx_hal_uart.c ****   if (HAL_IS_BIT_SET(huart->Instance->CR3, USART_CR3_DMAR))
1331:../../../../../../Drivers/STM32L0xx_HAL_Driver/Src/stm32l0xx_hal_uart.c ****   {
1332:../../../../../../Drivers/STM32L0xx_HAL_Driver/Src/stm32l0xx_hal_uart.c ****     CLEAR_BIT(huart->Instance->CR3, USART_CR3_DMAR);
1333:../../../../../../Drivers/STM32L0xx_HAL_Driver/Src/stm32l0xx_hal_uart.c **** 
1334:../../../../../../Drivers/STM32L0xx_HAL_Driver/Src/stm32l0xx_hal_uart.c ****     /* Abort the UART DMA Rx channel : use blocking DMA Abort API (no callback) */
1335:../../../../../../Drivers/STM32L0xx_HAL_Driver/Src/stm32l0xx_hal_uart.c ****     if(huart->hdmarx != NULL)
1336:../../../../../../Drivers/STM32L0xx_HAL_Driver/Src/stm32l0xx_hal_uart.c ****     {
1337:../../../../../../Drivers/STM32L0xx_HAL_Driver/Src/stm32l0xx_hal_uart.c ****       /* Set the UART DMA Abort callback to Null. 
1338:../../../../../../Drivers/STM32L0xx_HAL_Driver/Src/stm32l0xx_hal_uart.c ****          No call back execution at end of DMA abort procedure */
1339:../../../../../../Drivers/STM32L0xx_HAL_Driver/Src/stm32l0xx_hal_uart.c ****       huart->hdmarx->XferAbortCallback = NULL;
1340:../../../../../../Drivers/STM32L0xx_HAL_Driver/Src/stm32l0xx_hal_uart.c **** 
1341:../../../../../../Drivers/STM32L0xx_HAL_Driver/Src/stm32l0xx_hal_uart.c ****       HAL_DMA_Abort(huart->hdmarx);
1342:../../../../../../Drivers/STM32L0xx_HAL_Driver/Src/stm32l0xx_hal_uart.c ****     }
1343:../../../../../../Drivers/STM32L0xx_HAL_Driver/Src/stm32l0xx_hal_uart.c ****   }
1344:../../../../../../Drivers/STM32L0xx_HAL_Driver/Src/stm32l0xx_hal_uart.c **** 
1345:../../../../../../Drivers/STM32L0xx_HAL_Driver/Src/stm32l0xx_hal_uart.c ****   /* Reset Rx transfer counter */
1346:../../../../../../Drivers/STM32L0xx_HAL_Driver/Src/stm32l0xx_hal_uart.c ****   huart->RxXferCount = 0; 
1347:../../../../../../Drivers/STM32L0xx_HAL_Driver/Src/stm32l0xx_hal_uart.c **** 
1348:../../../../../../Drivers/STM32L0xx_HAL_Driver/Src/stm32l0xx_hal_uart.c ****   /* Clear the Error flags in the ICR register */
1349:../../../../../../Drivers/STM32L0xx_HAL_Driver/Src/stm32l0xx_hal_uart.c ****   __HAL_UART_CLEAR_FLAG(huart, UART_CLEAR_OREF | UART_CLEAR_NEF | UART_CLEAR_PEF | UART_CLEAR_FEF);
1350:../../../../../../Drivers/STM32L0xx_HAL_Driver/Src/stm32l0xx_hal_uart.c **** 
1351:../../../../../../Drivers/STM32L0xx_HAL_Driver/Src/stm32l0xx_hal_uart.c ****   /* Restore huart->RxState to Ready */
1352:../../../../../../Drivers/STM32L0xx_HAL_Driver/Src/stm32l0xx_hal_uart.c ****   huart->RxState = HAL_UART_STATE_READY;
1353:../../../../../../Drivers/STM32L0xx_HAL_Driver/Src/stm32l0xx_hal_uart.c **** 
1354:../../../../../../Drivers/STM32L0xx_HAL_Driver/Src/stm32l0xx_hal_uart.c ****   return HAL_OK;
1355:../../../../../../Drivers/STM32L0xx_HAL_Driver/Src/stm32l0xx_hal_uart.c **** }
1356:../../../../../../Drivers/STM32L0xx_HAL_Driver/Src/stm32l0xx_hal_uart.c **** 
1357:../../../../../../Drivers/STM32L0xx_HAL_Driver/Src/stm32l0xx_hal_uart.c **** /**
1358:../../../../../../Drivers/STM32L0xx_HAL_Driver/Src/stm32l0xx_hal_uart.c ****   * @brief  Abort ongoing transfers (Interrupt mode).
1359:../../../../../../Drivers/STM32L0xx_HAL_Driver/Src/stm32l0xx_hal_uart.c ****   * @param  huart UART handle.
1360:../../../../../../Drivers/STM32L0xx_HAL_Driver/Src/stm32l0xx_hal_uart.c ****   * @note   This procedure could be used for aborting any ongoing transfer started in Interrupt or 
1361:../../../../../../Drivers/STM32L0xx_HAL_Driver/Src/stm32l0xx_hal_uart.c ****   *         This procedure performs following operations :
1362:../../../../../../Drivers/STM32L0xx_HAL_Driver/Src/stm32l0xx_hal_uart.c ****   *           - Disable UART Interrupts (Tx and Rx)
1363:../../../../../../Drivers/STM32L0xx_HAL_Driver/Src/stm32l0xx_hal_uart.c ****   *           - Disable the DMA transfer in the peripheral register (if enabled)
1364:../../../../../../Drivers/STM32L0xx_HAL_Driver/Src/stm32l0xx_hal_uart.c ****   *           - Abort DMA transfer by calling HAL_DMA_Abort_IT (in case of transfer in DMA mode)
1365:../../../../../../Drivers/STM32L0xx_HAL_Driver/Src/stm32l0xx_hal_uart.c ****   *           - Set handle State to READY
1366:../../../../../../Drivers/STM32L0xx_HAL_Driver/Src/stm32l0xx_hal_uart.c ****   *           - At abort completion, call user abort complete callback
1367:../../../../../../Drivers/STM32L0xx_HAL_Driver/Src/stm32l0xx_hal_uart.c ****   * @note   This procedure is executed in Interrupt mode, meaning that abort procedure could be
1368:../../../../../../Drivers/STM32L0xx_HAL_Driver/Src/stm32l0xx_hal_uart.c ****   *         considered as completed only when user abort complete callback is executed (not when ex
1369:../../../../../../Drivers/STM32L0xx_HAL_Driver/Src/stm32l0xx_hal_uart.c ****   * @retval HAL status
1370:../../../../../../Drivers/STM32L0xx_HAL_Driver/Src/stm32l0xx_hal_uart.c **** */
1371:../../../../../../Drivers/STM32L0xx_HAL_Driver/Src/stm32l0xx_hal_uart.c **** HAL_StatusTypeDef HAL_UART_Abort_IT(UART_HandleTypeDef *huart)
1372:../../../../../../Drivers/STM32L0xx_HAL_Driver/Src/stm32l0xx_hal_uart.c **** {
1373:../../../../../../Drivers/STM32L0xx_HAL_Driver/Src/stm32l0xx_hal_uart.c ****   uint32_t abortcplt = 1;
1374:../../../../../../Drivers/STM32L0xx_HAL_Driver/Src/stm32l0xx_hal_uart.c ****   
1375:../../../../../../Drivers/STM32L0xx_HAL_Driver/Src/stm32l0xx_hal_uart.c ****   /* Disable TXEIE, TCIE, RXNE, PE and ERR (Frame error, noise error, overrun error) interrupts */
1376:../../../../../../Drivers/STM32L0xx_HAL_Driver/Src/stm32l0xx_hal_uart.c ****   CLEAR_BIT(huart->Instance->CR1, (USART_CR1_RXNEIE | USART_CR1_PEIE | USART_CR1_TXEIE | USART_CR1_
1377:../../../../../../Drivers/STM32L0xx_HAL_Driver/Src/stm32l0xx_hal_uart.c ****   CLEAR_BIT(huart->Instance->CR3, USART_CR3_EIE);
1378:../../../../../../Drivers/STM32L0xx_HAL_Driver/Src/stm32l0xx_hal_uart.c **** 
1379:../../../../../../Drivers/STM32L0xx_HAL_Driver/Src/stm32l0xx_hal_uart.c ****   /* If DMA Tx and/or DMA Rx Handles are associated to UART Handle, DMA Abort complete callbacks sh
1380:../../../../../../Drivers/STM32L0xx_HAL_Driver/Src/stm32l0xx_hal_uart.c ****      before any call to DMA Abort functions */
1381:../../../../../../Drivers/STM32L0xx_HAL_Driver/Src/stm32l0xx_hal_uart.c ****   /* DMA Tx Handle is valid */
ARM GAS  C:\Users\EBANO_~1\AppData\Local\Temp\cclnSu0c.s 			page 30


1382:../../../../../../Drivers/STM32L0xx_HAL_Driver/Src/stm32l0xx_hal_uart.c ****   if(huart->hdmatx != NULL)
1383:../../../../../../Drivers/STM32L0xx_HAL_Driver/Src/stm32l0xx_hal_uart.c ****   {
1384:../../../../../../Drivers/STM32L0xx_HAL_Driver/Src/stm32l0xx_hal_uart.c ****     /* Set DMA Abort Complete callback if UART DMA Tx request if enabled.
1385:../../../../../../Drivers/STM32L0xx_HAL_Driver/Src/stm32l0xx_hal_uart.c ****        Otherwise, set it to NULL */
1386:../../../../../../Drivers/STM32L0xx_HAL_Driver/Src/stm32l0xx_hal_uart.c ****     if(HAL_IS_BIT_SET(huart->Instance->CR3, USART_CR3_DMAT))
1387:../../../../../../Drivers/STM32L0xx_HAL_Driver/Src/stm32l0xx_hal_uart.c ****     {
1388:../../../../../../Drivers/STM32L0xx_HAL_Driver/Src/stm32l0xx_hal_uart.c ****       huart->hdmatx->XferAbortCallback = UART_DMATxAbortCallback;
1389:../../../../../../Drivers/STM32L0xx_HAL_Driver/Src/stm32l0xx_hal_uart.c ****     }
1390:../../../../../../Drivers/STM32L0xx_HAL_Driver/Src/stm32l0xx_hal_uart.c ****     else
1391:../../../../../../Drivers/STM32L0xx_HAL_Driver/Src/stm32l0xx_hal_uart.c ****     {
1392:../../../../../../Drivers/STM32L0xx_HAL_Driver/Src/stm32l0xx_hal_uart.c ****       huart->hdmatx->XferAbortCallback = NULL;
1393:../../../../../../Drivers/STM32L0xx_HAL_Driver/Src/stm32l0xx_hal_uart.c ****     }
1394:../../../../../../Drivers/STM32L0xx_HAL_Driver/Src/stm32l0xx_hal_uart.c ****   }
1395:../../../../../../Drivers/STM32L0xx_HAL_Driver/Src/stm32l0xx_hal_uart.c ****   /* DMA Rx Handle is valid */
1396:../../../../../../Drivers/STM32L0xx_HAL_Driver/Src/stm32l0xx_hal_uart.c ****   if(huart->hdmarx != NULL)
1397:../../../../../../Drivers/STM32L0xx_HAL_Driver/Src/stm32l0xx_hal_uart.c ****   {
1398:../../../../../../Drivers/STM32L0xx_HAL_Driver/Src/stm32l0xx_hal_uart.c ****     /* Set DMA Abort Complete callback if UART DMA Rx request if enabled.
1399:../../../../../../Drivers/STM32L0xx_HAL_Driver/Src/stm32l0xx_hal_uart.c ****        Otherwise, set it to NULL */
1400:../../../../../../Drivers/STM32L0xx_HAL_Driver/Src/stm32l0xx_hal_uart.c ****     if(HAL_IS_BIT_SET(huart->Instance->CR3, USART_CR3_DMAR))
1401:../../../../../../Drivers/STM32L0xx_HAL_Driver/Src/stm32l0xx_hal_uart.c ****     {
1402:../../../../../../Drivers/STM32L0xx_HAL_Driver/Src/stm32l0xx_hal_uart.c ****       huart->hdmarx->XferAbortCallback = UART_DMARxAbortCallback;
1403:../../../../../../Drivers/STM32L0xx_HAL_Driver/Src/stm32l0xx_hal_uart.c ****     }
1404:../../../../../../Drivers/STM32L0xx_HAL_Driver/Src/stm32l0xx_hal_uart.c ****     else
1405:../../../../../../Drivers/STM32L0xx_HAL_Driver/Src/stm32l0xx_hal_uart.c ****     {
1406:../../../../../../Drivers/STM32L0xx_HAL_Driver/Src/stm32l0xx_hal_uart.c ****       huart->hdmarx->XferAbortCallback = NULL;
1407:../../../../../../Drivers/STM32L0xx_HAL_Driver/Src/stm32l0xx_hal_uart.c ****     }
1408:../../../../../../Drivers/STM32L0xx_HAL_Driver/Src/stm32l0xx_hal_uart.c ****   }
1409:../../../../../../Drivers/STM32L0xx_HAL_Driver/Src/stm32l0xx_hal_uart.c ****   
1410:../../../../../../Drivers/STM32L0xx_HAL_Driver/Src/stm32l0xx_hal_uart.c ****   /* Disable the UART DMA Tx request if enabled */
1411:../../../../../../Drivers/STM32L0xx_HAL_Driver/Src/stm32l0xx_hal_uart.c ****   if(HAL_IS_BIT_SET(huart->Instance->CR3, USART_CR3_DMAT))
1412:../../../../../../Drivers/STM32L0xx_HAL_Driver/Src/stm32l0xx_hal_uart.c ****   {
1413:../../../../../../Drivers/STM32L0xx_HAL_Driver/Src/stm32l0xx_hal_uart.c ****     /* Disable DMA Tx at UART level */
1414:../../../../../../Drivers/STM32L0xx_HAL_Driver/Src/stm32l0xx_hal_uart.c ****     CLEAR_BIT(huart->Instance->CR3, USART_CR3_DMAT);
1415:../../../../../../Drivers/STM32L0xx_HAL_Driver/Src/stm32l0xx_hal_uart.c **** 
1416:../../../../../../Drivers/STM32L0xx_HAL_Driver/Src/stm32l0xx_hal_uart.c ****     /* Abort the UART DMA Tx channel : use non blocking DMA Abort API (callback) */
1417:../../../../../../Drivers/STM32L0xx_HAL_Driver/Src/stm32l0xx_hal_uart.c ****     if(huart->hdmatx != NULL)
1418:../../../../../../Drivers/STM32L0xx_HAL_Driver/Src/stm32l0xx_hal_uart.c ****     {
1419:../../../../../../Drivers/STM32L0xx_HAL_Driver/Src/stm32l0xx_hal_uart.c ****       /* UART Tx DMA Abort callback has already been initialised : 
1420:../../../../../../Drivers/STM32L0xx_HAL_Driver/Src/stm32l0xx_hal_uart.c ****          will lead to call HAL_UART_AbortCpltCallback() at end of DMA abort procedure */
1421:../../../../../../Drivers/STM32L0xx_HAL_Driver/Src/stm32l0xx_hal_uart.c **** 
1422:../../../../../../Drivers/STM32L0xx_HAL_Driver/Src/stm32l0xx_hal_uart.c ****       /* Abort DMA TX */
1423:../../../../../../Drivers/STM32L0xx_HAL_Driver/Src/stm32l0xx_hal_uart.c ****       if(HAL_DMA_Abort_IT(huart->hdmatx) != HAL_OK)
1424:../../../../../../Drivers/STM32L0xx_HAL_Driver/Src/stm32l0xx_hal_uart.c ****       {
1425:../../../../../../Drivers/STM32L0xx_HAL_Driver/Src/stm32l0xx_hal_uart.c ****         huart->hdmatx->XferAbortCallback = NULL;
1426:../../../../../../Drivers/STM32L0xx_HAL_Driver/Src/stm32l0xx_hal_uart.c ****       }
1427:../../../../../../Drivers/STM32L0xx_HAL_Driver/Src/stm32l0xx_hal_uart.c ****       else
1428:../../../../../../Drivers/STM32L0xx_HAL_Driver/Src/stm32l0xx_hal_uart.c ****       {
1429:../../../../../../Drivers/STM32L0xx_HAL_Driver/Src/stm32l0xx_hal_uart.c ****         abortcplt = 0;
1430:../../../../../../Drivers/STM32L0xx_HAL_Driver/Src/stm32l0xx_hal_uart.c ****       }
1431:../../../../../../Drivers/STM32L0xx_HAL_Driver/Src/stm32l0xx_hal_uart.c ****     }
1432:../../../../../../Drivers/STM32L0xx_HAL_Driver/Src/stm32l0xx_hal_uart.c ****   }
1433:../../../../../../Drivers/STM32L0xx_HAL_Driver/Src/stm32l0xx_hal_uart.c **** 
1434:../../../../../../Drivers/STM32L0xx_HAL_Driver/Src/stm32l0xx_hal_uart.c ****   /* Disable the UART DMA Rx request if enabled */
1435:../../../../../../Drivers/STM32L0xx_HAL_Driver/Src/stm32l0xx_hal_uart.c ****   if (HAL_IS_BIT_SET(huart->Instance->CR3, USART_CR3_DMAR))
1436:../../../../../../Drivers/STM32L0xx_HAL_Driver/Src/stm32l0xx_hal_uart.c ****   {
1437:../../../../../../Drivers/STM32L0xx_HAL_Driver/Src/stm32l0xx_hal_uart.c ****     CLEAR_BIT(huart->Instance->CR3, USART_CR3_DMAR);
1438:../../../../../../Drivers/STM32L0xx_HAL_Driver/Src/stm32l0xx_hal_uart.c **** 
ARM GAS  C:\Users\EBANO_~1\AppData\Local\Temp\cclnSu0c.s 			page 31


1439:../../../../../../Drivers/STM32L0xx_HAL_Driver/Src/stm32l0xx_hal_uart.c ****     /* Abort the UART DMA Rx channel : use non blocking DMA Abort API (callback) */
1440:../../../../../../Drivers/STM32L0xx_HAL_Driver/Src/stm32l0xx_hal_uart.c ****     if(huart->hdmarx != NULL)
1441:../../../../../../Drivers/STM32L0xx_HAL_Driver/Src/stm32l0xx_hal_uart.c ****     {
1442:../../../../../../Drivers/STM32L0xx_HAL_Driver/Src/stm32l0xx_hal_uart.c ****       /* UART Rx DMA Abort callback has already been initialised : 
1443:../../../../../../Drivers/STM32L0xx_HAL_Driver/Src/stm32l0xx_hal_uart.c ****          will lead to call HAL_UART_AbortCpltCallback() at end of DMA abort procedure */
1444:../../../../../../Drivers/STM32L0xx_HAL_Driver/Src/stm32l0xx_hal_uart.c **** 
1445:../../../../../../Drivers/STM32L0xx_HAL_Driver/Src/stm32l0xx_hal_uart.c ****       /* Abort DMA RX */
1446:../../../../../../Drivers/STM32L0xx_HAL_Driver/Src/stm32l0xx_hal_uart.c ****       if(HAL_DMA_Abort_IT(huart->hdmarx) != HAL_OK)
1447:../../../../../../Drivers/STM32L0xx_HAL_Driver/Src/stm32l0xx_hal_uart.c ****       {
1448:../../../../../../Drivers/STM32L0xx_HAL_Driver/Src/stm32l0xx_hal_uart.c ****         huart->hdmarx->XferAbortCallback = NULL;
1449:../../../../../../Drivers/STM32L0xx_HAL_Driver/Src/stm32l0xx_hal_uart.c ****         abortcplt = 1;
1450:../../../../../../Drivers/STM32L0xx_HAL_Driver/Src/stm32l0xx_hal_uart.c ****       }
1451:../../../../../../Drivers/STM32L0xx_HAL_Driver/Src/stm32l0xx_hal_uart.c ****       else
1452:../../../../../../Drivers/STM32L0xx_HAL_Driver/Src/stm32l0xx_hal_uart.c ****       {
1453:../../../../../../Drivers/STM32L0xx_HAL_Driver/Src/stm32l0xx_hal_uart.c ****         abortcplt = 0;
1454:../../../../../../Drivers/STM32L0xx_HAL_Driver/Src/stm32l0xx_hal_uart.c ****       }
1455:../../../../../../Drivers/STM32L0xx_HAL_Driver/Src/stm32l0xx_hal_uart.c ****     }
1456:../../../../../../Drivers/STM32L0xx_HAL_Driver/Src/stm32l0xx_hal_uart.c ****   }
1457:../../../../../../Drivers/STM32L0xx_HAL_Driver/Src/stm32l0xx_hal_uart.c **** 
1458:../../../../../../Drivers/STM32L0xx_HAL_Driver/Src/stm32l0xx_hal_uart.c ****   /* if no DMA abort complete callback execution is required => call user Abort Complete callback *
1459:../../../../../../Drivers/STM32L0xx_HAL_Driver/Src/stm32l0xx_hal_uart.c ****   if (abortcplt == 1)
1460:../../../../../../Drivers/STM32L0xx_HAL_Driver/Src/stm32l0xx_hal_uart.c ****   {
1461:../../../../../../Drivers/STM32L0xx_HAL_Driver/Src/stm32l0xx_hal_uart.c ****     /* Reset Tx and Rx transfer counters */
1462:../../../../../../Drivers/STM32L0xx_HAL_Driver/Src/stm32l0xx_hal_uart.c ****     huart->TxXferCount = 0; 
1463:../../../../../../Drivers/STM32L0xx_HAL_Driver/Src/stm32l0xx_hal_uart.c ****     huart->RxXferCount = 0;
1464:../../../../../../Drivers/STM32L0xx_HAL_Driver/Src/stm32l0xx_hal_uart.c **** 
1465:../../../../../../Drivers/STM32L0xx_HAL_Driver/Src/stm32l0xx_hal_uart.c ****     /* Reset errorCode */
1466:../../../../../../Drivers/STM32L0xx_HAL_Driver/Src/stm32l0xx_hal_uart.c ****     huart->ErrorCode = HAL_UART_ERROR_NONE;
1467:../../../../../../Drivers/STM32L0xx_HAL_Driver/Src/stm32l0xx_hal_uart.c **** 
1468:../../../../../../Drivers/STM32L0xx_HAL_Driver/Src/stm32l0xx_hal_uart.c ****     /* Clear the Error flags in the ICR register */
1469:../../../../../../Drivers/STM32L0xx_HAL_Driver/Src/stm32l0xx_hal_uart.c ****     __HAL_UART_CLEAR_FLAG(huart, UART_CLEAR_OREF | UART_CLEAR_NEF | UART_CLEAR_PEF | UART_CLEAR_FEF
1470:../../../../../../Drivers/STM32L0xx_HAL_Driver/Src/stm32l0xx_hal_uart.c **** 
1471:../../../../../../Drivers/STM32L0xx_HAL_Driver/Src/stm32l0xx_hal_uart.c ****     /* Restore huart->gState and huart->RxState to Ready */
1472:../../../../../../Drivers/STM32L0xx_HAL_Driver/Src/stm32l0xx_hal_uart.c ****     huart->gState  = HAL_UART_STATE_READY;
1473:../../../../../../Drivers/STM32L0xx_HAL_Driver/Src/stm32l0xx_hal_uart.c ****     huart->RxState = HAL_UART_STATE_READY;
1474:../../../../../../Drivers/STM32L0xx_HAL_Driver/Src/stm32l0xx_hal_uart.c **** 
1475:../../../../../../Drivers/STM32L0xx_HAL_Driver/Src/stm32l0xx_hal_uart.c ****     /* As no DMA to be aborted, call directly user Abort complete callback */
1476:../../../../../../Drivers/STM32L0xx_HAL_Driver/Src/stm32l0xx_hal_uart.c ****     HAL_UART_AbortCpltCallback(huart);
1477:../../../../../../Drivers/STM32L0xx_HAL_Driver/Src/stm32l0xx_hal_uart.c ****   }
1478:../../../../../../Drivers/STM32L0xx_HAL_Driver/Src/stm32l0xx_hal_uart.c **** 
1479:../../../../../../Drivers/STM32L0xx_HAL_Driver/Src/stm32l0xx_hal_uart.c ****   return HAL_OK;
1480:../../../../../../Drivers/STM32L0xx_HAL_Driver/Src/stm32l0xx_hal_uart.c **** }
1481:../../../../../../Drivers/STM32L0xx_HAL_Driver/Src/stm32l0xx_hal_uart.c **** 
1482:../../../../../../Drivers/STM32L0xx_HAL_Driver/Src/stm32l0xx_hal_uart.c **** /**
1483:../../../../../../Drivers/STM32L0xx_HAL_Driver/Src/stm32l0xx_hal_uart.c ****   * @brief  Abort ongoing Transmit transfer (Interrupt mode).
1484:../../../../../../Drivers/STM32L0xx_HAL_Driver/Src/stm32l0xx_hal_uart.c ****   * @param  huart UART handle.
1485:../../../../../../Drivers/STM32L0xx_HAL_Driver/Src/stm32l0xx_hal_uart.c ****   * @note   This procedure could be used for aborting any ongoing Tx transfer started in Interrupt 
1486:../../../../../../Drivers/STM32L0xx_HAL_Driver/Src/stm32l0xx_hal_uart.c ****   *         This procedure performs following operations :
1487:../../../../../../Drivers/STM32L0xx_HAL_Driver/Src/stm32l0xx_hal_uart.c ****   *           - Disable UART Interrupts (Tx)
1488:../../../../../../Drivers/STM32L0xx_HAL_Driver/Src/stm32l0xx_hal_uart.c ****   *           - Disable the DMA transfer in the peripheral register (if enabled)
1489:../../../../../../Drivers/STM32L0xx_HAL_Driver/Src/stm32l0xx_hal_uart.c ****   *           - Abort DMA transfer by calling HAL_DMA_Abort_IT (in case of transfer in DMA mode)
1490:../../../../../../Drivers/STM32L0xx_HAL_Driver/Src/stm32l0xx_hal_uart.c ****   *           - Set handle State to READY
1491:../../../../../../Drivers/STM32L0xx_HAL_Driver/Src/stm32l0xx_hal_uart.c ****   *           - At abort completion, call user abort complete callback
1492:../../../../../../Drivers/STM32L0xx_HAL_Driver/Src/stm32l0xx_hal_uart.c ****   * @note   This procedure is executed in Interrupt mode, meaning that abort procedure could be
1493:../../../../../../Drivers/STM32L0xx_HAL_Driver/Src/stm32l0xx_hal_uart.c ****   *         considered as completed only when user abort complete callback is executed (not when ex
1494:../../../../../../Drivers/STM32L0xx_HAL_Driver/Src/stm32l0xx_hal_uart.c ****   * @retval HAL status
1495:../../../../../../Drivers/STM32L0xx_HAL_Driver/Src/stm32l0xx_hal_uart.c **** */
ARM GAS  C:\Users\EBANO_~1\AppData\Local\Temp\cclnSu0c.s 			page 32


1496:../../../../../../Drivers/STM32L0xx_HAL_Driver/Src/stm32l0xx_hal_uart.c **** HAL_StatusTypeDef HAL_UART_AbortTransmit_IT(UART_HandleTypeDef *huart)
1497:../../../../../../Drivers/STM32L0xx_HAL_Driver/Src/stm32l0xx_hal_uart.c **** {
1498:../../../../../../Drivers/STM32L0xx_HAL_Driver/Src/stm32l0xx_hal_uart.c ****   /* Disable TXEIE and TCIE interrupts */
1499:../../../../../../Drivers/STM32L0xx_HAL_Driver/Src/stm32l0xx_hal_uart.c ****   CLEAR_BIT(huart->Instance->CR1, (USART_CR1_TXEIE | USART_CR1_TCIE));
1500:../../../../../../Drivers/STM32L0xx_HAL_Driver/Src/stm32l0xx_hal_uart.c **** 
1501:../../../../../../Drivers/STM32L0xx_HAL_Driver/Src/stm32l0xx_hal_uart.c ****   /* Disable the UART DMA Tx request if enabled */
1502:../../../../../../Drivers/STM32L0xx_HAL_Driver/Src/stm32l0xx_hal_uart.c ****   if (HAL_IS_BIT_SET(huart->Instance->CR3, USART_CR3_DMAT))
1503:../../../../../../Drivers/STM32L0xx_HAL_Driver/Src/stm32l0xx_hal_uart.c ****   {
1504:../../../../../../Drivers/STM32L0xx_HAL_Driver/Src/stm32l0xx_hal_uart.c ****     CLEAR_BIT(huart->Instance->CR3, USART_CR3_DMAT);
1505:../../../../../../Drivers/STM32L0xx_HAL_Driver/Src/stm32l0xx_hal_uart.c **** 
1506:../../../../../../Drivers/STM32L0xx_HAL_Driver/Src/stm32l0xx_hal_uart.c ****     /* Abort the UART DMA Tx channel : use non blocking DMA Abort API (callback) */
1507:../../../../../../Drivers/STM32L0xx_HAL_Driver/Src/stm32l0xx_hal_uart.c ****     if(huart->hdmatx != NULL)
1508:../../../../../../Drivers/STM32L0xx_HAL_Driver/Src/stm32l0xx_hal_uart.c ****     {
1509:../../../../../../Drivers/STM32L0xx_HAL_Driver/Src/stm32l0xx_hal_uart.c ****       /* Set the UART DMA Abort callback : 
1510:../../../../../../Drivers/STM32L0xx_HAL_Driver/Src/stm32l0xx_hal_uart.c ****          will lead to call HAL_UART_AbortCpltCallback() at end of DMA abort procedure */
1511:../../../../../../Drivers/STM32L0xx_HAL_Driver/Src/stm32l0xx_hal_uart.c ****       huart->hdmatx->XferAbortCallback = UART_DMATxOnlyAbortCallback;
1512:../../../../../../Drivers/STM32L0xx_HAL_Driver/Src/stm32l0xx_hal_uart.c **** 
1513:../../../../../../Drivers/STM32L0xx_HAL_Driver/Src/stm32l0xx_hal_uart.c ****       /* Abort DMA TX */
1514:../../../../../../Drivers/STM32L0xx_HAL_Driver/Src/stm32l0xx_hal_uart.c ****       if(HAL_DMA_Abort_IT(huart->hdmatx) != HAL_OK)
1515:../../../../../../Drivers/STM32L0xx_HAL_Driver/Src/stm32l0xx_hal_uart.c ****       {
1516:../../../../../../Drivers/STM32L0xx_HAL_Driver/Src/stm32l0xx_hal_uart.c ****         /* Call Directly huart->hdmatx->XferAbortCallback function in case of error */
1517:../../../../../../Drivers/STM32L0xx_HAL_Driver/Src/stm32l0xx_hal_uart.c ****         huart->hdmatx->XferAbortCallback(huart->hdmatx);
1518:../../../../../../Drivers/STM32L0xx_HAL_Driver/Src/stm32l0xx_hal_uart.c ****       }
1519:../../../../../../Drivers/STM32L0xx_HAL_Driver/Src/stm32l0xx_hal_uart.c ****     }
1520:../../../../../../Drivers/STM32L0xx_HAL_Driver/Src/stm32l0xx_hal_uart.c ****     else
1521:../../../../../../Drivers/STM32L0xx_HAL_Driver/Src/stm32l0xx_hal_uart.c ****     {
1522:../../../../../../Drivers/STM32L0xx_HAL_Driver/Src/stm32l0xx_hal_uart.c ****       /* Reset Tx transfer counter */
1523:../../../../../../Drivers/STM32L0xx_HAL_Driver/Src/stm32l0xx_hal_uart.c ****       huart->TxXferCount = 0; 
1524:../../../../../../Drivers/STM32L0xx_HAL_Driver/Src/stm32l0xx_hal_uart.c **** 
1525:../../../../../../Drivers/STM32L0xx_HAL_Driver/Src/stm32l0xx_hal_uart.c ****       /* Restore huart->gState to Ready */
1526:../../../../../../Drivers/STM32L0xx_HAL_Driver/Src/stm32l0xx_hal_uart.c ****       huart->gState = HAL_UART_STATE_READY;
1527:../../../../../../Drivers/STM32L0xx_HAL_Driver/Src/stm32l0xx_hal_uart.c **** 
1528:../../../../../../Drivers/STM32L0xx_HAL_Driver/Src/stm32l0xx_hal_uart.c ****       /* As no DMA to be aborted, call directly user Abort complete callback */
1529:../../../../../../Drivers/STM32L0xx_HAL_Driver/Src/stm32l0xx_hal_uart.c ****       HAL_UART_AbortTransmitCpltCallback(huart);
1530:../../../../../../Drivers/STM32L0xx_HAL_Driver/Src/stm32l0xx_hal_uart.c ****     }
1531:../../../../../../Drivers/STM32L0xx_HAL_Driver/Src/stm32l0xx_hal_uart.c ****   }
1532:../../../../../../Drivers/STM32L0xx_HAL_Driver/Src/stm32l0xx_hal_uart.c ****   else
1533:../../../../../../Drivers/STM32L0xx_HAL_Driver/Src/stm32l0xx_hal_uart.c ****   {
1534:../../../../../../Drivers/STM32L0xx_HAL_Driver/Src/stm32l0xx_hal_uart.c ****     /* Reset Tx transfer counter */
1535:../../../../../../Drivers/STM32L0xx_HAL_Driver/Src/stm32l0xx_hal_uart.c ****     huart->TxXferCount = 0; 
1536:../../../../../../Drivers/STM32L0xx_HAL_Driver/Src/stm32l0xx_hal_uart.c **** 
1537:../../../../../../Drivers/STM32L0xx_HAL_Driver/Src/stm32l0xx_hal_uart.c ****     /* Restore huart->gState to Ready */
1538:../../../../../../Drivers/STM32L0xx_HAL_Driver/Src/stm32l0xx_hal_uart.c ****     huart->gState = HAL_UART_STATE_READY;
1539:../../../../../../Drivers/STM32L0xx_HAL_Driver/Src/stm32l0xx_hal_uart.c **** 
1540:../../../../../../Drivers/STM32L0xx_HAL_Driver/Src/stm32l0xx_hal_uart.c ****     /* As no DMA to be aborted, call directly user Abort complete callback */
1541:../../../../../../Drivers/STM32L0xx_HAL_Driver/Src/stm32l0xx_hal_uart.c ****     HAL_UART_AbortTransmitCpltCallback(huart);
1542:../../../../../../Drivers/STM32L0xx_HAL_Driver/Src/stm32l0xx_hal_uart.c ****   }
1543:../../../../../../Drivers/STM32L0xx_HAL_Driver/Src/stm32l0xx_hal_uart.c **** 
1544:../../../../../../Drivers/STM32L0xx_HAL_Driver/Src/stm32l0xx_hal_uart.c ****   return HAL_OK;
1545:../../../../../../Drivers/STM32L0xx_HAL_Driver/Src/stm32l0xx_hal_uart.c **** }
1546:../../../../../../Drivers/STM32L0xx_HAL_Driver/Src/stm32l0xx_hal_uart.c **** 
1547:../../../../../../Drivers/STM32L0xx_HAL_Driver/Src/stm32l0xx_hal_uart.c **** /**
1548:../../../../../../Drivers/STM32L0xx_HAL_Driver/Src/stm32l0xx_hal_uart.c ****   * @brief  Abort ongoing Receive transfer (Interrupt mode).
1549:../../../../../../Drivers/STM32L0xx_HAL_Driver/Src/stm32l0xx_hal_uart.c ****   * @param  huart UART handle.
1550:../../../../../../Drivers/STM32L0xx_HAL_Driver/Src/stm32l0xx_hal_uart.c ****   * @note   This procedure could be used for aborting any ongoing Rx transfer started in Interrupt 
1551:../../../../../../Drivers/STM32L0xx_HAL_Driver/Src/stm32l0xx_hal_uart.c ****   *         This procedure performs following operations :
1552:../../../../../../Drivers/STM32L0xx_HAL_Driver/Src/stm32l0xx_hal_uart.c ****   *           - Disable UART Interrupts (Rx)
ARM GAS  C:\Users\EBANO_~1\AppData\Local\Temp\cclnSu0c.s 			page 33


1553:../../../../../../Drivers/STM32L0xx_HAL_Driver/Src/stm32l0xx_hal_uart.c ****   *           - Disable the DMA transfer in the peripheral register (if enabled)
1554:../../../../../../Drivers/STM32L0xx_HAL_Driver/Src/stm32l0xx_hal_uart.c ****   *           - Abort DMA transfer by calling HAL_DMA_Abort_IT (in case of transfer in DMA mode)
1555:../../../../../../Drivers/STM32L0xx_HAL_Driver/Src/stm32l0xx_hal_uart.c ****   *           - Set handle State to READY
1556:../../../../../../Drivers/STM32L0xx_HAL_Driver/Src/stm32l0xx_hal_uart.c ****   *           - At abort completion, call user abort complete callback
1557:../../../../../../Drivers/STM32L0xx_HAL_Driver/Src/stm32l0xx_hal_uart.c ****   * @note   This procedure is executed in Interrupt mode, meaning that abort procedure could be
1558:../../../../../../Drivers/STM32L0xx_HAL_Driver/Src/stm32l0xx_hal_uart.c ****   *         considered as completed only when user abort complete callback is executed (not when ex
1559:../../../../../../Drivers/STM32L0xx_HAL_Driver/Src/stm32l0xx_hal_uart.c ****   * @retval HAL status
1560:../../../../../../Drivers/STM32L0xx_HAL_Driver/Src/stm32l0xx_hal_uart.c **** */
1561:../../../../../../Drivers/STM32L0xx_HAL_Driver/Src/stm32l0xx_hal_uart.c **** HAL_StatusTypeDef HAL_UART_AbortReceive_IT(UART_HandleTypeDef *huart)
1562:../../../../../../Drivers/STM32L0xx_HAL_Driver/Src/stm32l0xx_hal_uart.c **** {
1563:../../../../../../Drivers/STM32L0xx_HAL_Driver/Src/stm32l0xx_hal_uart.c ****   /* Disable RXNE, PE and ERR (Frame error, noise error, overrun error) interrupts */
1564:../../../../../../Drivers/STM32L0xx_HAL_Driver/Src/stm32l0xx_hal_uart.c ****   CLEAR_BIT(huart->Instance->CR1, (USART_CR1_RXNEIE | USART_CR1_PEIE));
1565:../../../../../../Drivers/STM32L0xx_HAL_Driver/Src/stm32l0xx_hal_uart.c ****   CLEAR_BIT(huart->Instance->CR3, USART_CR3_EIE);
1566:../../../../../../Drivers/STM32L0xx_HAL_Driver/Src/stm32l0xx_hal_uart.c **** 
1567:../../../../../../Drivers/STM32L0xx_HAL_Driver/Src/stm32l0xx_hal_uart.c ****   /* Disable the UART DMA Rx request if enabled */
1568:../../../../../../Drivers/STM32L0xx_HAL_Driver/Src/stm32l0xx_hal_uart.c ****   if (HAL_IS_BIT_SET(huart->Instance->CR3, USART_CR3_DMAR))
1569:../../../../../../Drivers/STM32L0xx_HAL_Driver/Src/stm32l0xx_hal_uart.c ****   {
1570:../../../../../../Drivers/STM32L0xx_HAL_Driver/Src/stm32l0xx_hal_uart.c ****     CLEAR_BIT(huart->Instance->CR3, USART_CR3_DMAR);
1571:../../../../../../Drivers/STM32L0xx_HAL_Driver/Src/stm32l0xx_hal_uart.c **** 
1572:../../../../../../Drivers/STM32L0xx_HAL_Driver/Src/stm32l0xx_hal_uart.c ****     /* Abort the UART DMA Rx channel : use non blocking DMA Abort API (callback) */
1573:../../../../../../Drivers/STM32L0xx_HAL_Driver/Src/stm32l0xx_hal_uart.c ****     if(huart->hdmarx != NULL)
1574:../../../../../../Drivers/STM32L0xx_HAL_Driver/Src/stm32l0xx_hal_uart.c ****     {
1575:../../../../../../Drivers/STM32L0xx_HAL_Driver/Src/stm32l0xx_hal_uart.c ****       /* Set the UART DMA Abort callback : 
1576:../../../../../../Drivers/STM32L0xx_HAL_Driver/Src/stm32l0xx_hal_uart.c ****          will lead to call HAL_UART_AbortCpltCallback() at end of DMA abort procedure */
1577:../../../../../../Drivers/STM32L0xx_HAL_Driver/Src/stm32l0xx_hal_uart.c ****       huart->hdmarx->XferAbortCallback = UART_DMARxOnlyAbortCallback;
1578:../../../../../../Drivers/STM32L0xx_HAL_Driver/Src/stm32l0xx_hal_uart.c **** 
1579:../../../../../../Drivers/STM32L0xx_HAL_Driver/Src/stm32l0xx_hal_uart.c ****       /* Abort DMA RX */
1580:../../../../../../Drivers/STM32L0xx_HAL_Driver/Src/stm32l0xx_hal_uart.c ****       if(HAL_DMA_Abort_IT(huart->hdmarx) != HAL_OK)
1581:../../../../../../Drivers/STM32L0xx_HAL_Driver/Src/stm32l0xx_hal_uart.c ****       {
1582:../../../../../../Drivers/STM32L0xx_HAL_Driver/Src/stm32l0xx_hal_uart.c ****         /* Call Directly huart->hdmarx->XferAbortCallback function in case of error */
1583:../../../../../../Drivers/STM32L0xx_HAL_Driver/Src/stm32l0xx_hal_uart.c ****         huart->hdmarx->XferAbortCallback(huart->hdmarx);
1584:../../../../../../Drivers/STM32L0xx_HAL_Driver/Src/stm32l0xx_hal_uart.c ****       }
1585:../../../../../../Drivers/STM32L0xx_HAL_Driver/Src/stm32l0xx_hal_uart.c ****     }
1586:../../../../../../Drivers/STM32L0xx_HAL_Driver/Src/stm32l0xx_hal_uart.c ****     else
1587:../../../../../../Drivers/STM32L0xx_HAL_Driver/Src/stm32l0xx_hal_uart.c ****     {
1588:../../../../../../Drivers/STM32L0xx_HAL_Driver/Src/stm32l0xx_hal_uart.c ****       /* Reset Rx transfer counter */
1589:../../../../../../Drivers/STM32L0xx_HAL_Driver/Src/stm32l0xx_hal_uart.c ****       huart->RxXferCount = 0; 
1590:../../../../../../Drivers/STM32L0xx_HAL_Driver/Src/stm32l0xx_hal_uart.c **** 
1591:../../../../../../Drivers/STM32L0xx_HAL_Driver/Src/stm32l0xx_hal_uart.c ****       /* Clear the Error flags in the ICR register */
1592:../../../../../../Drivers/STM32L0xx_HAL_Driver/Src/stm32l0xx_hal_uart.c ****       __HAL_UART_CLEAR_FLAG(huart, UART_CLEAR_OREF | UART_CLEAR_NEF | UART_CLEAR_PEF | UART_CLEAR_F
1593:../../../../../../Drivers/STM32L0xx_HAL_Driver/Src/stm32l0xx_hal_uart.c **** 
1594:../../../../../../Drivers/STM32L0xx_HAL_Driver/Src/stm32l0xx_hal_uart.c ****       /* Restore huart->RxState to Ready */
1595:../../../../../../Drivers/STM32L0xx_HAL_Driver/Src/stm32l0xx_hal_uart.c ****       huart->RxState = HAL_UART_STATE_READY;
1596:../../../../../../Drivers/STM32L0xx_HAL_Driver/Src/stm32l0xx_hal_uart.c **** 
1597:../../../../../../Drivers/STM32L0xx_HAL_Driver/Src/stm32l0xx_hal_uart.c ****       /* As no DMA to be aborted, call directly user Abort complete callback */
1598:../../../../../../Drivers/STM32L0xx_HAL_Driver/Src/stm32l0xx_hal_uart.c ****       HAL_UART_AbortReceiveCpltCallback(huart);
1599:../../../../../../Drivers/STM32L0xx_HAL_Driver/Src/stm32l0xx_hal_uart.c ****     }
1600:../../../../../../Drivers/STM32L0xx_HAL_Driver/Src/stm32l0xx_hal_uart.c ****   }
1601:../../../../../../Drivers/STM32L0xx_HAL_Driver/Src/stm32l0xx_hal_uart.c ****   else
1602:../../../../../../Drivers/STM32L0xx_HAL_Driver/Src/stm32l0xx_hal_uart.c ****   {
1603:../../../../../../Drivers/STM32L0xx_HAL_Driver/Src/stm32l0xx_hal_uart.c ****     /* Reset Rx transfer counter */
1604:../../../../../../Drivers/STM32L0xx_HAL_Driver/Src/stm32l0xx_hal_uart.c ****     huart->RxXferCount = 0; 
1605:../../../../../../Drivers/STM32L0xx_HAL_Driver/Src/stm32l0xx_hal_uart.c **** 
1606:../../../../../../Drivers/STM32L0xx_HAL_Driver/Src/stm32l0xx_hal_uart.c ****     /* Clear the Error flags in the ICR register */
1607:../../../../../../Drivers/STM32L0xx_HAL_Driver/Src/stm32l0xx_hal_uart.c ****     __HAL_UART_CLEAR_FLAG(huart, UART_CLEAR_OREF | UART_CLEAR_NEF | UART_CLEAR_PEF | UART_CLEAR_FEF
1608:../../../../../../Drivers/STM32L0xx_HAL_Driver/Src/stm32l0xx_hal_uart.c **** 
1609:../../../../../../Drivers/STM32L0xx_HAL_Driver/Src/stm32l0xx_hal_uart.c ****     /* Restore huart->RxState to Ready */
ARM GAS  C:\Users\EBANO_~1\AppData\Local\Temp\cclnSu0c.s 			page 34


1610:../../../../../../Drivers/STM32L0xx_HAL_Driver/Src/stm32l0xx_hal_uart.c ****     huart->RxState = HAL_UART_STATE_READY;
1611:../../../../../../Drivers/STM32L0xx_HAL_Driver/Src/stm32l0xx_hal_uart.c **** 
1612:../../../../../../Drivers/STM32L0xx_HAL_Driver/Src/stm32l0xx_hal_uart.c ****     /* As no DMA to be aborted, call directly user Abort complete callback */
1613:../../../../../../Drivers/STM32L0xx_HAL_Driver/Src/stm32l0xx_hal_uart.c ****     HAL_UART_AbortReceiveCpltCallback(huart);
1614:../../../../../../Drivers/STM32L0xx_HAL_Driver/Src/stm32l0xx_hal_uart.c ****   }
1615:../../../../../../Drivers/STM32L0xx_HAL_Driver/Src/stm32l0xx_hal_uart.c **** 
1616:../../../../../../Drivers/STM32L0xx_HAL_Driver/Src/stm32l0xx_hal_uart.c ****   return HAL_OK;
1617:../../../../../../Drivers/STM32L0xx_HAL_Driver/Src/stm32l0xx_hal_uart.c **** }
1618:../../../../../../Drivers/STM32L0xx_HAL_Driver/Src/stm32l0xx_hal_uart.c **** 
1619:../../../../../../Drivers/STM32L0xx_HAL_Driver/Src/stm32l0xx_hal_uart.c **** /**
1620:../../../../../../Drivers/STM32L0xx_HAL_Driver/Src/stm32l0xx_hal_uart.c ****   * @brief Handle UART interrupt request.
1621:../../../../../../Drivers/STM32L0xx_HAL_Driver/Src/stm32l0xx_hal_uart.c ****   * @param huart: UART handle.
1622:../../../../../../Drivers/STM32L0xx_HAL_Driver/Src/stm32l0xx_hal_uart.c ****   * @retval None
1623:../../../../../../Drivers/STM32L0xx_HAL_Driver/Src/stm32l0xx_hal_uart.c ****   */
1624:../../../../../../Drivers/STM32L0xx_HAL_Driver/Src/stm32l0xx_hal_uart.c **** void HAL_UART_IRQHandler(UART_HandleTypeDef *huart)
1625:../../../../../../Drivers/STM32L0xx_HAL_Driver/Src/stm32l0xx_hal_uart.c **** {
1626:../../../../../../Drivers/STM32L0xx_HAL_Driver/Src/stm32l0xx_hal_uart.c ****   uint32_t isrflags   = READ_REG(huart->Instance->ISR);
1627:../../../../../../Drivers/STM32L0xx_HAL_Driver/Src/stm32l0xx_hal_uart.c ****   uint32_t cr1its     = READ_REG(huart->Instance->CR1);
1628:../../../../../../Drivers/STM32L0xx_HAL_Driver/Src/stm32l0xx_hal_uart.c ****   uint32_t cr3its;
1629:../../../../../../Drivers/STM32L0xx_HAL_Driver/Src/stm32l0xx_hal_uart.c ****   uint32_t errorflags;
1630:../../../../../../Drivers/STM32L0xx_HAL_Driver/Src/stm32l0xx_hal_uart.c **** 
1631:../../../../../../Drivers/STM32L0xx_HAL_Driver/Src/stm32l0xx_hal_uart.c ****   /* If no error occurs */
1632:../../../../../../Drivers/STM32L0xx_HAL_Driver/Src/stm32l0xx_hal_uart.c ****   errorflags = (isrflags & (uint32_t)(USART_ISR_PE | USART_ISR_FE | USART_ISR_ORE | USART_ISR_NE));
1633:../../../../../../Drivers/STM32L0xx_HAL_Driver/Src/stm32l0xx_hal_uart.c ****   if (errorflags == RESET)
1634:../../../../../../Drivers/STM32L0xx_HAL_Driver/Src/stm32l0xx_hal_uart.c ****   {
1635:../../../../../../Drivers/STM32L0xx_HAL_Driver/Src/stm32l0xx_hal_uart.c ****     /* UART in mode Receiver ---------------------------------------------------*/
1636:../../../../../../Drivers/STM32L0xx_HAL_Driver/Src/stm32l0xx_hal_uart.c ****     if(((isrflags & USART_ISR_RXNE) != RESET) && ((cr1its & USART_CR1_RXNEIE) != RESET))
1637:../../../../../../Drivers/STM32L0xx_HAL_Driver/Src/stm32l0xx_hal_uart.c ****     {
1638:../../../../../../Drivers/STM32L0xx_HAL_Driver/Src/stm32l0xx_hal_uart.c ****       UART_Receive_IT(huart);
1639:../../../../../../Drivers/STM32L0xx_HAL_Driver/Src/stm32l0xx_hal_uart.c ****       return;
1640:../../../../../../Drivers/STM32L0xx_HAL_Driver/Src/stm32l0xx_hal_uart.c ****     }
1641:../../../../../../Drivers/STM32L0xx_HAL_Driver/Src/stm32l0xx_hal_uart.c ****   }  
1642:../../../../../../Drivers/STM32L0xx_HAL_Driver/Src/stm32l0xx_hal_uart.c **** 
1643:../../../../../../Drivers/STM32L0xx_HAL_Driver/Src/stm32l0xx_hal_uart.c ****   /* If some errors occur */
1644:../../../../../../Drivers/STM32L0xx_HAL_Driver/Src/stm32l0xx_hal_uart.c ****   cr3its = READ_REG(huart->Instance->CR3);
1645:../../../../../../Drivers/STM32L0xx_HAL_Driver/Src/stm32l0xx_hal_uart.c ****   if(   (errorflags != RESET)
1646:../../../../../../Drivers/STM32L0xx_HAL_Driver/Src/stm32l0xx_hal_uart.c ****      && (   ((cr3its & USART_CR3_EIE) != RESET)
1647:../../../../../../Drivers/STM32L0xx_HAL_Driver/Src/stm32l0xx_hal_uart.c ****          || ((cr1its & (USART_CR1_RXNEIE | USART_CR1_PEIE)) != RESET)) )
1648:../../../../../../Drivers/STM32L0xx_HAL_Driver/Src/stm32l0xx_hal_uart.c ****   {
1649:../../../../../../Drivers/STM32L0xx_HAL_Driver/Src/stm32l0xx_hal_uart.c ****     /* UART parity error interrupt occurred -------------------------------------*/
1650:../../../../../../Drivers/STM32L0xx_HAL_Driver/Src/stm32l0xx_hal_uart.c ****     if(((isrflags & USART_ISR_PE) != RESET) && ((cr1its & USART_CR1_PEIE) != RESET))
1651:../../../../../../Drivers/STM32L0xx_HAL_Driver/Src/stm32l0xx_hal_uart.c ****     {
1652:../../../../../../Drivers/STM32L0xx_HAL_Driver/Src/stm32l0xx_hal_uart.c ****       __HAL_UART_CLEAR_IT(huart, UART_CLEAR_PEF);
1653:../../../../../../Drivers/STM32L0xx_HAL_Driver/Src/stm32l0xx_hal_uart.c **** 
1654:../../../../../../Drivers/STM32L0xx_HAL_Driver/Src/stm32l0xx_hal_uart.c ****       huart->ErrorCode |= HAL_UART_ERROR_PE;
1655:../../../../../../Drivers/STM32L0xx_HAL_Driver/Src/stm32l0xx_hal_uart.c ****     }
1656:../../../../../../Drivers/STM32L0xx_HAL_Driver/Src/stm32l0xx_hal_uart.c **** 
1657:../../../../../../Drivers/STM32L0xx_HAL_Driver/Src/stm32l0xx_hal_uart.c ****     /* UART frame error interrupt occurred --------------------------------------*/
1658:../../../../../../Drivers/STM32L0xx_HAL_Driver/Src/stm32l0xx_hal_uart.c ****     if(((isrflags & USART_ISR_FE) != RESET) && ((cr3its & USART_CR3_EIE) != RESET))
1659:../../../../../../Drivers/STM32L0xx_HAL_Driver/Src/stm32l0xx_hal_uart.c ****     {
1660:../../../../../../Drivers/STM32L0xx_HAL_Driver/Src/stm32l0xx_hal_uart.c ****       __HAL_UART_CLEAR_IT(huart, UART_CLEAR_FEF);
1661:../../../../../../Drivers/STM32L0xx_HAL_Driver/Src/stm32l0xx_hal_uart.c **** 
1662:../../../../../../Drivers/STM32L0xx_HAL_Driver/Src/stm32l0xx_hal_uart.c ****       huart->ErrorCode |= HAL_UART_ERROR_FE;
1663:../../../../../../Drivers/STM32L0xx_HAL_Driver/Src/stm32l0xx_hal_uart.c ****     }
1664:../../../../../../Drivers/STM32L0xx_HAL_Driver/Src/stm32l0xx_hal_uart.c **** 
1665:../../../../../../Drivers/STM32L0xx_HAL_Driver/Src/stm32l0xx_hal_uart.c ****     /* UART noise error interrupt occurred --------------------------------------*/
1666:../../../../../../Drivers/STM32L0xx_HAL_Driver/Src/stm32l0xx_hal_uart.c ****     if(((isrflags & USART_ISR_NE) != RESET) && ((cr3its & USART_CR3_EIE) != RESET))
ARM GAS  C:\Users\EBANO_~1\AppData\Local\Temp\cclnSu0c.s 			page 35


1667:../../../../../../Drivers/STM32L0xx_HAL_Driver/Src/stm32l0xx_hal_uart.c ****     {
1668:../../../../../../Drivers/STM32L0xx_HAL_Driver/Src/stm32l0xx_hal_uart.c ****       __HAL_UART_CLEAR_IT(huart, UART_CLEAR_NEF);
1669:../../../../../../Drivers/STM32L0xx_HAL_Driver/Src/stm32l0xx_hal_uart.c **** 
1670:../../../../../../Drivers/STM32L0xx_HAL_Driver/Src/stm32l0xx_hal_uart.c ****       huart->ErrorCode |= HAL_UART_ERROR_NE;
1671:../../../../../../Drivers/STM32L0xx_HAL_Driver/Src/stm32l0xx_hal_uart.c ****     }
1672:../../../../../../Drivers/STM32L0xx_HAL_Driver/Src/stm32l0xx_hal_uart.c ****     
1673:../../../../../../Drivers/STM32L0xx_HAL_Driver/Src/stm32l0xx_hal_uart.c ****     /* UART Over-Run interrupt occurred -----------------------------------------*/
1674:../../../../../../Drivers/STM32L0xx_HAL_Driver/Src/stm32l0xx_hal_uart.c ****     if(((isrflags & USART_ISR_ORE) != RESET) &&
1675:../../../../../../Drivers/STM32L0xx_HAL_Driver/Src/stm32l0xx_hal_uart.c ****        (((cr1its & USART_CR1_RXNEIE) != RESET) || ((cr3its & USART_CR3_EIE) != RESET)))
1676:../../../../../../Drivers/STM32L0xx_HAL_Driver/Src/stm32l0xx_hal_uart.c ****     {
1677:../../../../../../Drivers/STM32L0xx_HAL_Driver/Src/stm32l0xx_hal_uart.c ****       __HAL_UART_CLEAR_IT(huart, UART_CLEAR_OREF);
1678:../../../../../../Drivers/STM32L0xx_HAL_Driver/Src/stm32l0xx_hal_uart.c **** 
1679:../../../../../../Drivers/STM32L0xx_HAL_Driver/Src/stm32l0xx_hal_uart.c ****       huart->ErrorCode |= HAL_UART_ERROR_ORE;
1680:../../../../../../Drivers/STM32L0xx_HAL_Driver/Src/stm32l0xx_hal_uart.c ****     }
1681:../../../../../../Drivers/STM32L0xx_HAL_Driver/Src/stm32l0xx_hal_uart.c **** 
1682:../../../../../../Drivers/STM32L0xx_HAL_Driver/Src/stm32l0xx_hal_uart.c ****     /* Call UART Error Call back function if need be --------------------------*/
1683:../../../../../../Drivers/STM32L0xx_HAL_Driver/Src/stm32l0xx_hal_uart.c ****     if(huart->ErrorCode != HAL_UART_ERROR_NONE)
1684:../../../../../../Drivers/STM32L0xx_HAL_Driver/Src/stm32l0xx_hal_uart.c ****     {
1685:../../../../../../Drivers/STM32L0xx_HAL_Driver/Src/stm32l0xx_hal_uart.c ****       /* UART in mode Receiver ---------------------------------------------------*/
1686:../../../../../../Drivers/STM32L0xx_HAL_Driver/Src/stm32l0xx_hal_uart.c ****       if(((isrflags & USART_ISR_RXNE) != RESET) && ((cr1its & USART_CR1_RXNEIE) != RESET))
1687:../../../../../../Drivers/STM32L0xx_HAL_Driver/Src/stm32l0xx_hal_uart.c ****       {
1688:../../../../../../Drivers/STM32L0xx_HAL_Driver/Src/stm32l0xx_hal_uart.c ****         UART_Receive_IT(huart);
1689:../../../../../../Drivers/STM32L0xx_HAL_Driver/Src/stm32l0xx_hal_uart.c ****       }
1690:../../../../../../Drivers/STM32L0xx_HAL_Driver/Src/stm32l0xx_hal_uart.c **** 
1691:../../../../../../Drivers/STM32L0xx_HAL_Driver/Src/stm32l0xx_hal_uart.c ****       /* If Overrun error occurs, or if any error occurs in DMA mode reception,
1692:../../../../../../Drivers/STM32L0xx_HAL_Driver/Src/stm32l0xx_hal_uart.c ****          consider error as blocking */
1693:../../../../../../Drivers/STM32L0xx_HAL_Driver/Src/stm32l0xx_hal_uart.c ****       if (((huart->ErrorCode & HAL_UART_ERROR_ORE) != RESET) ||
1694:../../../../../../Drivers/STM32L0xx_HAL_Driver/Src/stm32l0xx_hal_uart.c ****           (HAL_IS_BIT_SET(huart->Instance->CR3, USART_CR3_DMAR)))
1695:../../../../../../Drivers/STM32L0xx_HAL_Driver/Src/stm32l0xx_hal_uart.c ****       {  
1696:../../../../../../Drivers/STM32L0xx_HAL_Driver/Src/stm32l0xx_hal_uart.c ****         /* Blocking error : transfer is aborted
1697:../../../../../../Drivers/STM32L0xx_HAL_Driver/Src/stm32l0xx_hal_uart.c ****            Set the UART state ready to be able to start again the process,
1698:../../../../../../Drivers/STM32L0xx_HAL_Driver/Src/stm32l0xx_hal_uart.c ****            Disable Rx Interrupts, and disable Rx DMA request, if ongoing */
1699:../../../../../../Drivers/STM32L0xx_HAL_Driver/Src/stm32l0xx_hal_uart.c ****         UART_EndRxTransfer(huart);
1700:../../../../../../Drivers/STM32L0xx_HAL_Driver/Src/stm32l0xx_hal_uart.c **** 
1701:../../../../../../Drivers/STM32L0xx_HAL_Driver/Src/stm32l0xx_hal_uart.c ****         /* Disable the UART DMA Rx request if enabled */
1702:../../../../../../Drivers/STM32L0xx_HAL_Driver/Src/stm32l0xx_hal_uart.c ****         if (HAL_IS_BIT_SET(huart->Instance->CR3, USART_CR3_DMAR))
1703:../../../../../../Drivers/STM32L0xx_HAL_Driver/Src/stm32l0xx_hal_uart.c ****         {
1704:../../../../../../Drivers/STM32L0xx_HAL_Driver/Src/stm32l0xx_hal_uart.c ****           CLEAR_BIT(huart->Instance->CR3, USART_CR3_DMAR);
1705:../../../../../../Drivers/STM32L0xx_HAL_Driver/Src/stm32l0xx_hal_uart.c **** 
1706:../../../../../../Drivers/STM32L0xx_HAL_Driver/Src/stm32l0xx_hal_uart.c ****           /* Abort the UART DMA Rx channel */
1707:../../../../../../Drivers/STM32L0xx_HAL_Driver/Src/stm32l0xx_hal_uart.c ****           if(huart->hdmarx != NULL)
1708:../../../../../../Drivers/STM32L0xx_HAL_Driver/Src/stm32l0xx_hal_uart.c ****           {
1709:../../../../../../Drivers/STM32L0xx_HAL_Driver/Src/stm32l0xx_hal_uart.c ****             /* Set the UART DMA Abort callback : 
1710:../../../../../../Drivers/STM32L0xx_HAL_Driver/Src/stm32l0xx_hal_uart.c ****                will lead to call HAL_UART_ErrorCallback() at end of DMA abort procedure */
1711:../../../../../../Drivers/STM32L0xx_HAL_Driver/Src/stm32l0xx_hal_uart.c ****             huart->hdmarx->XferAbortCallback = UART_DMAAbortOnError;
1712:../../../../../../Drivers/STM32L0xx_HAL_Driver/Src/stm32l0xx_hal_uart.c **** 
1713:../../../../../../Drivers/STM32L0xx_HAL_Driver/Src/stm32l0xx_hal_uart.c ****             /* Abort DMA RX */
1714:../../../../../../Drivers/STM32L0xx_HAL_Driver/Src/stm32l0xx_hal_uart.c ****             if(HAL_DMA_Abort_IT(huart->hdmarx) != HAL_OK)
1715:../../../../../../Drivers/STM32L0xx_HAL_Driver/Src/stm32l0xx_hal_uart.c ****             {
1716:../../../../../../Drivers/STM32L0xx_HAL_Driver/Src/stm32l0xx_hal_uart.c ****               /* Call Directly huart->hdmarx->XferAbortCallback function in case of error */
1717:../../../../../../Drivers/STM32L0xx_HAL_Driver/Src/stm32l0xx_hal_uart.c ****               huart->hdmarx->XferAbortCallback(huart->hdmarx);
1718:../../../../../../Drivers/STM32L0xx_HAL_Driver/Src/stm32l0xx_hal_uart.c ****             }
1719:../../../../../../Drivers/STM32L0xx_HAL_Driver/Src/stm32l0xx_hal_uart.c ****           }
1720:../../../../../../Drivers/STM32L0xx_HAL_Driver/Src/stm32l0xx_hal_uart.c ****           else
1721:../../../../../../Drivers/STM32L0xx_HAL_Driver/Src/stm32l0xx_hal_uart.c ****           {
1722:../../../../../../Drivers/STM32L0xx_HAL_Driver/Src/stm32l0xx_hal_uart.c ****             /* Call user error callback */
1723:../../../../../../Drivers/STM32L0xx_HAL_Driver/Src/stm32l0xx_hal_uart.c ****             HAL_UART_ErrorCallback(huart);
ARM GAS  C:\Users\EBANO_~1\AppData\Local\Temp\cclnSu0c.s 			page 36


1724:../../../../../../Drivers/STM32L0xx_HAL_Driver/Src/stm32l0xx_hal_uart.c ****           }
1725:../../../../../../Drivers/STM32L0xx_HAL_Driver/Src/stm32l0xx_hal_uart.c ****         }
1726:../../../../../../Drivers/STM32L0xx_HAL_Driver/Src/stm32l0xx_hal_uart.c ****         else
1727:../../../../../../Drivers/STM32L0xx_HAL_Driver/Src/stm32l0xx_hal_uart.c ****         {
1728:../../../../../../Drivers/STM32L0xx_HAL_Driver/Src/stm32l0xx_hal_uart.c ****           /* Call user error callback */
1729:../../../../../../Drivers/STM32L0xx_HAL_Driver/Src/stm32l0xx_hal_uart.c ****           HAL_UART_ErrorCallback(huart);
1730:../../../../../../Drivers/STM32L0xx_HAL_Driver/Src/stm32l0xx_hal_uart.c ****         }
1731:../../../../../../Drivers/STM32L0xx_HAL_Driver/Src/stm32l0xx_hal_uart.c ****       }
1732:../../../../../../Drivers/STM32L0xx_HAL_Driver/Src/stm32l0xx_hal_uart.c ****       else
1733:../../../../../../Drivers/STM32L0xx_HAL_Driver/Src/stm32l0xx_hal_uart.c ****       {
1734:../../../../../../Drivers/STM32L0xx_HAL_Driver/Src/stm32l0xx_hal_uart.c ****         /* Non Blocking error : transfer could go on. 
1735:../../../../../../Drivers/STM32L0xx_HAL_Driver/Src/stm32l0xx_hal_uart.c ****            Error is notified to user through user error callback */
1736:../../../../../../Drivers/STM32L0xx_HAL_Driver/Src/stm32l0xx_hal_uart.c ****         HAL_UART_ErrorCallback(huart);
1737:../../../../../../Drivers/STM32L0xx_HAL_Driver/Src/stm32l0xx_hal_uart.c ****         huart->ErrorCode = HAL_UART_ERROR_NONE;
1738:../../../../../../Drivers/STM32L0xx_HAL_Driver/Src/stm32l0xx_hal_uart.c ****       }
1739:../../../../../../Drivers/STM32L0xx_HAL_Driver/Src/stm32l0xx_hal_uart.c ****     }
1740:../../../../../../Drivers/STM32L0xx_HAL_Driver/Src/stm32l0xx_hal_uart.c ****     return;
1741:../../../../../../Drivers/STM32L0xx_HAL_Driver/Src/stm32l0xx_hal_uart.c **** 
1742:../../../../../../Drivers/STM32L0xx_HAL_Driver/Src/stm32l0xx_hal_uart.c ****   } /* End if some error occurs */
1743:../../../../../../Drivers/STM32L0xx_HAL_Driver/Src/stm32l0xx_hal_uart.c **** 
1744:../../../../../../Drivers/STM32L0xx_HAL_Driver/Src/stm32l0xx_hal_uart.c ****   /* UART wakeup from Stop mode interrupt occurred ---------------------------*/
1745:../../../../../../Drivers/STM32L0xx_HAL_Driver/Src/stm32l0xx_hal_uart.c ****   if(((isrflags & USART_ISR_WUF) != RESET) && ((cr3its & USART_CR3_WUFIE) != RESET))
1746:../../../../../../Drivers/STM32L0xx_HAL_Driver/Src/stm32l0xx_hal_uart.c ****   {
1747:../../../../../../Drivers/STM32L0xx_HAL_Driver/Src/stm32l0xx_hal_uart.c ****     __HAL_UART_CLEAR_IT(huart, UART_CLEAR_WUF);
1748:../../../../../../Drivers/STM32L0xx_HAL_Driver/Src/stm32l0xx_hal_uart.c ****     /* Set the UART state ready to be able to start again the process */
1749:../../../../../../Drivers/STM32L0xx_HAL_Driver/Src/stm32l0xx_hal_uart.c ****     huart->gState  = HAL_UART_STATE_READY;
1750:../../../../../../Drivers/STM32L0xx_HAL_Driver/Src/stm32l0xx_hal_uart.c ****     huart->RxState = HAL_UART_STATE_READY;
1751:../../../../../../Drivers/STM32L0xx_HAL_Driver/Src/stm32l0xx_hal_uart.c ****     HAL_UARTEx_WakeupCallback(huart);
1752:../../../../../../Drivers/STM32L0xx_HAL_Driver/Src/stm32l0xx_hal_uart.c ****     return;
1753:../../../../../../Drivers/STM32L0xx_HAL_Driver/Src/stm32l0xx_hal_uart.c ****   }
1754:../../../../../../Drivers/STM32L0xx_HAL_Driver/Src/stm32l0xx_hal_uart.c **** 
1755:../../../../../../Drivers/STM32L0xx_HAL_Driver/Src/stm32l0xx_hal_uart.c ****   /* UART in mode Transmitter ------------------------------------------------*/
1756:../../../../../../Drivers/STM32L0xx_HAL_Driver/Src/stm32l0xx_hal_uart.c ****   if(((isrflags & USART_ISR_TXE) != RESET) && ((cr1its & USART_CR1_TXEIE) != RESET))
1757:../../../../../../Drivers/STM32L0xx_HAL_Driver/Src/stm32l0xx_hal_uart.c ****   {
1758:../../../../../../Drivers/STM32L0xx_HAL_Driver/Src/stm32l0xx_hal_uart.c ****     UART_Transmit_IT(huart);
1759:../../../../../../Drivers/STM32L0xx_HAL_Driver/Src/stm32l0xx_hal_uart.c ****     return;
1760:../../../../../../Drivers/STM32L0xx_HAL_Driver/Src/stm32l0xx_hal_uart.c ****   }
1761:../../../../../../Drivers/STM32L0xx_HAL_Driver/Src/stm32l0xx_hal_uart.c **** 
1762:../../../../../../Drivers/STM32L0xx_HAL_Driver/Src/stm32l0xx_hal_uart.c ****   /* UART in mode Transmitter (transmission end) -----------------------------*/
1763:../../../../../../Drivers/STM32L0xx_HAL_Driver/Src/stm32l0xx_hal_uart.c ****   if(((isrflags & USART_ISR_TC) != RESET) && ((cr1its & USART_CR1_TCIE) != RESET))
1764:../../../../../../Drivers/STM32L0xx_HAL_Driver/Src/stm32l0xx_hal_uart.c ****   {
1765:../../../../../../Drivers/STM32L0xx_HAL_Driver/Src/stm32l0xx_hal_uart.c ****     UART_EndTransmit_IT(huart);
1766:../../../../../../Drivers/STM32L0xx_HAL_Driver/Src/stm32l0xx_hal_uart.c ****     return;
1767:../../../../../../Drivers/STM32L0xx_HAL_Driver/Src/stm32l0xx_hal_uart.c ****   }
1768:../../../../../../Drivers/STM32L0xx_HAL_Driver/Src/stm32l0xx_hal_uart.c **** 
1769:../../../../../../Drivers/STM32L0xx_HAL_Driver/Src/stm32l0xx_hal_uart.c **** }
1770:../../../../../../Drivers/STM32L0xx_HAL_Driver/Src/stm32l0xx_hal_uart.c **** 
1771:../../../../../../Drivers/STM32L0xx_HAL_Driver/Src/stm32l0xx_hal_uart.c **** /**
1772:../../../../../../Drivers/STM32L0xx_HAL_Driver/Src/stm32l0xx_hal_uart.c ****   * @brief Tx Transfer completed callback.
1773:../../../../../../Drivers/STM32L0xx_HAL_Driver/Src/stm32l0xx_hal_uart.c ****   * @param huart: UART handle.
1774:../../../../../../Drivers/STM32L0xx_HAL_Driver/Src/stm32l0xx_hal_uart.c ****   * @retval None
1775:../../../../../../Drivers/STM32L0xx_HAL_Driver/Src/stm32l0xx_hal_uart.c ****   */
1776:../../../../../../Drivers/STM32L0xx_HAL_Driver/Src/stm32l0xx_hal_uart.c **** __weak void HAL_UART_TxCpltCallback(UART_HandleTypeDef *huart)
1777:../../../../../../Drivers/STM32L0xx_HAL_Driver/Src/stm32l0xx_hal_uart.c **** {
1778:../../../../../../Drivers/STM32L0xx_HAL_Driver/Src/stm32l0xx_hal_uart.c ****   /* Prevent unused argument(s) compilation warning */
1779:../../../../../../Drivers/STM32L0xx_HAL_Driver/Src/stm32l0xx_hal_uart.c ****   UNUSED(huart);
1780:../../../../../../Drivers/STM32L0xx_HAL_Driver/Src/stm32l0xx_hal_uart.c **** 
ARM GAS  C:\Users\EBANO_~1\AppData\Local\Temp\cclnSu0c.s 			page 37


1781:../../../../../../Drivers/STM32L0xx_HAL_Driver/Src/stm32l0xx_hal_uart.c ****   /* NOTE : This function should not be modified, when the callback is needed,
1782:../../../../../../Drivers/STM32L0xx_HAL_Driver/Src/stm32l0xx_hal_uart.c ****             the HAL_UART_TxCpltCallback can be implemented in the user file.
1783:../../../../../../Drivers/STM32L0xx_HAL_Driver/Src/stm32l0xx_hal_uart.c ****    */
1784:../../../../../../Drivers/STM32L0xx_HAL_Driver/Src/stm32l0xx_hal_uart.c **** }
1785:../../../../../../Drivers/STM32L0xx_HAL_Driver/Src/stm32l0xx_hal_uart.c **** 
1786:../../../../../../Drivers/STM32L0xx_HAL_Driver/Src/stm32l0xx_hal_uart.c **** /**
1787:../../../../../../Drivers/STM32L0xx_HAL_Driver/Src/stm32l0xx_hal_uart.c ****   * @brief  Tx Half Transfer completed callback.
1788:../../../../../../Drivers/STM32L0xx_HAL_Driver/Src/stm32l0xx_hal_uart.c ****   * @param  huart UART handle.
1789:../../../../../../Drivers/STM32L0xx_HAL_Driver/Src/stm32l0xx_hal_uart.c ****   * @retval None
1790:../../../../../../Drivers/STM32L0xx_HAL_Driver/Src/stm32l0xx_hal_uart.c ****   */
1791:../../../../../../Drivers/STM32L0xx_HAL_Driver/Src/stm32l0xx_hal_uart.c **** __weak void HAL_UART_TxHalfCpltCallback(UART_HandleTypeDef *huart)
1792:../../../../../../Drivers/STM32L0xx_HAL_Driver/Src/stm32l0xx_hal_uart.c **** {
1793:../../../../../../Drivers/STM32L0xx_HAL_Driver/Src/stm32l0xx_hal_uart.c ****   /* Prevent unused argument(s) compilation warning */
1794:../../../../../../Drivers/STM32L0xx_HAL_Driver/Src/stm32l0xx_hal_uart.c ****   UNUSED(huart);
1795:../../../../../../Drivers/STM32L0xx_HAL_Driver/Src/stm32l0xx_hal_uart.c **** 
1796:../../../../../../Drivers/STM32L0xx_HAL_Driver/Src/stm32l0xx_hal_uart.c ****   /* NOTE: This function should not be modified, when the callback is needed,
1797:../../../../../../Drivers/STM32L0xx_HAL_Driver/Src/stm32l0xx_hal_uart.c ****            the HAL_UART_TxHalfCpltCallback can be implemented in the user file.
1798:../../../../../../Drivers/STM32L0xx_HAL_Driver/Src/stm32l0xx_hal_uart.c ****    */
1799:../../../../../../Drivers/STM32L0xx_HAL_Driver/Src/stm32l0xx_hal_uart.c **** }
1800:../../../../../../Drivers/STM32L0xx_HAL_Driver/Src/stm32l0xx_hal_uart.c **** 
1801:../../../../../../Drivers/STM32L0xx_HAL_Driver/Src/stm32l0xx_hal_uart.c **** /**
1802:../../../../../../Drivers/STM32L0xx_HAL_Driver/Src/stm32l0xx_hal_uart.c ****   * @brief Rx Transfer completed callback.
1803:../../../../../../Drivers/STM32L0xx_HAL_Driver/Src/stm32l0xx_hal_uart.c ****   * @param huart: UART handle.
1804:../../../../../../Drivers/STM32L0xx_HAL_Driver/Src/stm32l0xx_hal_uart.c ****   * @retval None
1805:../../../../../../Drivers/STM32L0xx_HAL_Driver/Src/stm32l0xx_hal_uart.c ****   */
1806:../../../../../../Drivers/STM32L0xx_HAL_Driver/Src/stm32l0xx_hal_uart.c **** __weak void HAL_UART_RxCpltCallback(UART_HandleTypeDef *huart)
1807:../../../../../../Drivers/STM32L0xx_HAL_Driver/Src/stm32l0xx_hal_uart.c **** {
1808:../../../../../../Drivers/STM32L0xx_HAL_Driver/Src/stm32l0xx_hal_uart.c ****   /* Prevent unused argument(s) compilation warning */
1809:../../../../../../Drivers/STM32L0xx_HAL_Driver/Src/stm32l0xx_hal_uart.c ****   UNUSED(huart);
1810:../../../../../../Drivers/STM32L0xx_HAL_Driver/Src/stm32l0xx_hal_uart.c **** 
1811:../../../../../../Drivers/STM32L0xx_HAL_Driver/Src/stm32l0xx_hal_uart.c ****   /* NOTE : This function should not be modified, when the callback is needed,
1812:../../../../../../Drivers/STM32L0xx_HAL_Driver/Src/stm32l0xx_hal_uart.c ****             the HAL_UART_RxCpltCallback can be implemented in the user file.
1813:../../../../../../Drivers/STM32L0xx_HAL_Driver/Src/stm32l0xx_hal_uart.c ****    */
1814:../../../../../../Drivers/STM32L0xx_HAL_Driver/Src/stm32l0xx_hal_uart.c **** }
1815:../../../../../../Drivers/STM32L0xx_HAL_Driver/Src/stm32l0xx_hal_uart.c **** 
1816:../../../../../../Drivers/STM32L0xx_HAL_Driver/Src/stm32l0xx_hal_uart.c **** /**
1817:../../../../../../Drivers/STM32L0xx_HAL_Driver/Src/stm32l0xx_hal_uart.c ****   * @brief  Rx Half Transfer completed callback.
1818:../../../../../../Drivers/STM32L0xx_HAL_Driver/Src/stm32l0xx_hal_uart.c ****   * @param  huart UART handle.
1819:../../../../../../Drivers/STM32L0xx_HAL_Driver/Src/stm32l0xx_hal_uart.c ****   * @retval None
1820:../../../../../../Drivers/STM32L0xx_HAL_Driver/Src/stm32l0xx_hal_uart.c ****   */
1821:../../../../../../Drivers/STM32L0xx_HAL_Driver/Src/stm32l0xx_hal_uart.c **** __weak void HAL_UART_RxHalfCpltCallback(UART_HandleTypeDef *huart)
1822:../../../../../../Drivers/STM32L0xx_HAL_Driver/Src/stm32l0xx_hal_uart.c **** {
1823:../../../../../../Drivers/STM32L0xx_HAL_Driver/Src/stm32l0xx_hal_uart.c ****   /* Prevent unused argument(s) compilation warning */
1824:../../../../../../Drivers/STM32L0xx_HAL_Driver/Src/stm32l0xx_hal_uart.c ****   UNUSED(huart);
1825:../../../../../../Drivers/STM32L0xx_HAL_Driver/Src/stm32l0xx_hal_uart.c **** 
1826:../../../../../../Drivers/STM32L0xx_HAL_Driver/Src/stm32l0xx_hal_uart.c ****   /* NOTE: This function should not be modified, when the callback is needed,
1827:../../../../../../Drivers/STM32L0xx_HAL_Driver/Src/stm32l0xx_hal_uart.c ****            the HAL_UART_RxHalfCpltCallback can be implemented in the user file.
1828:../../../../../../Drivers/STM32L0xx_HAL_Driver/Src/stm32l0xx_hal_uart.c ****    */
1829:../../../../../../Drivers/STM32L0xx_HAL_Driver/Src/stm32l0xx_hal_uart.c **** }
1830:../../../../../../Drivers/STM32L0xx_HAL_Driver/Src/stm32l0xx_hal_uart.c **** 
1831:../../../../../../Drivers/STM32L0xx_HAL_Driver/Src/stm32l0xx_hal_uart.c **** /**
1832:../../../../../../Drivers/STM32L0xx_HAL_Driver/Src/stm32l0xx_hal_uart.c ****   * @brief UART error callback.
1833:../../../../../../Drivers/STM32L0xx_HAL_Driver/Src/stm32l0xx_hal_uart.c ****   * @param huart: UART handle.
1834:../../../../../../Drivers/STM32L0xx_HAL_Driver/Src/stm32l0xx_hal_uart.c ****   * @retval None
1835:../../../../../../Drivers/STM32L0xx_HAL_Driver/Src/stm32l0xx_hal_uart.c ****   */
1836:../../../../../../Drivers/STM32L0xx_HAL_Driver/Src/stm32l0xx_hal_uart.c **** __weak void HAL_UART_ErrorCallback(UART_HandleTypeDef *huart)
1837:../../../../../../Drivers/STM32L0xx_HAL_Driver/Src/stm32l0xx_hal_uart.c **** {
ARM GAS  C:\Users\EBANO_~1\AppData\Local\Temp\cclnSu0c.s 			page 38


1838:../../../../../../Drivers/STM32L0xx_HAL_Driver/Src/stm32l0xx_hal_uart.c ****   /* Prevent unused argument(s) compilation warning */
1839:../../../../../../Drivers/STM32L0xx_HAL_Driver/Src/stm32l0xx_hal_uart.c ****   UNUSED(huart);
1840:../../../../../../Drivers/STM32L0xx_HAL_Driver/Src/stm32l0xx_hal_uart.c **** 
1841:../../../../../../Drivers/STM32L0xx_HAL_Driver/Src/stm32l0xx_hal_uart.c ****   /* NOTE : This function should not be modified, when the callback is needed,
1842:../../../../../../Drivers/STM32L0xx_HAL_Driver/Src/stm32l0xx_hal_uart.c ****             the HAL_UART_ErrorCallback can be implemented in the user file.
1843:../../../../../../Drivers/STM32L0xx_HAL_Driver/Src/stm32l0xx_hal_uart.c ****    */
1844:../../../../../../Drivers/STM32L0xx_HAL_Driver/Src/stm32l0xx_hal_uart.c **** }
1845:../../../../../../Drivers/STM32L0xx_HAL_Driver/Src/stm32l0xx_hal_uart.c **** 
1846:../../../../../../Drivers/STM32L0xx_HAL_Driver/Src/stm32l0xx_hal_uart.c **** /**
1847:../../../../../../Drivers/STM32L0xx_HAL_Driver/Src/stm32l0xx_hal_uart.c ****   * @brief  UART Abort Complete callback.
1848:../../../../../../Drivers/STM32L0xx_HAL_Driver/Src/stm32l0xx_hal_uart.c ****   * @param  huart UART handle.
1849:../../../../../../Drivers/STM32L0xx_HAL_Driver/Src/stm32l0xx_hal_uart.c ****   * @retval None
1850:../../../../../../Drivers/STM32L0xx_HAL_Driver/Src/stm32l0xx_hal_uart.c ****   */
1851:../../../../../../Drivers/STM32L0xx_HAL_Driver/Src/stm32l0xx_hal_uart.c **** __weak void HAL_UART_AbortCpltCallback (UART_HandleTypeDef *huart)
1852:../../../../../../Drivers/STM32L0xx_HAL_Driver/Src/stm32l0xx_hal_uart.c **** {
1853:../../../../../../Drivers/STM32L0xx_HAL_Driver/Src/stm32l0xx_hal_uart.c ****   /* Prevent unused argument(s) compilation warning */
1854:../../../../../../Drivers/STM32L0xx_HAL_Driver/Src/stm32l0xx_hal_uart.c ****   UNUSED(huart);
1855:../../../../../../Drivers/STM32L0xx_HAL_Driver/Src/stm32l0xx_hal_uart.c **** 
1856:../../../../../../Drivers/STM32L0xx_HAL_Driver/Src/stm32l0xx_hal_uart.c ****   /* NOTE : This function should not be modified, when the callback is needed,
1857:../../../../../../Drivers/STM32L0xx_HAL_Driver/Src/stm32l0xx_hal_uart.c ****             the HAL_UART_AbortCpltCallback can be implemented in the user file.
1858:../../../../../../Drivers/STM32L0xx_HAL_Driver/Src/stm32l0xx_hal_uart.c ****    */
1859:../../../../../../Drivers/STM32L0xx_HAL_Driver/Src/stm32l0xx_hal_uart.c **** }
1860:../../../../../../Drivers/STM32L0xx_HAL_Driver/Src/stm32l0xx_hal_uart.c **** 
1861:../../../../../../Drivers/STM32L0xx_HAL_Driver/Src/stm32l0xx_hal_uart.c **** /**
1862:../../../../../../Drivers/STM32L0xx_HAL_Driver/Src/stm32l0xx_hal_uart.c ****   * @brief  UART Abort Complete callback.
1863:../../../../../../Drivers/STM32L0xx_HAL_Driver/Src/stm32l0xx_hal_uart.c ****   * @param  huart UART handle.
1864:../../../../../../Drivers/STM32L0xx_HAL_Driver/Src/stm32l0xx_hal_uart.c ****   * @retval None
1865:../../../../../../Drivers/STM32L0xx_HAL_Driver/Src/stm32l0xx_hal_uart.c ****   */
1866:../../../../../../Drivers/STM32L0xx_HAL_Driver/Src/stm32l0xx_hal_uart.c **** __weak void HAL_UART_AbortTransmitCpltCallback (UART_HandleTypeDef *huart)
1867:../../../../../../Drivers/STM32L0xx_HAL_Driver/Src/stm32l0xx_hal_uart.c **** {
1868:../../../../../../Drivers/STM32L0xx_HAL_Driver/Src/stm32l0xx_hal_uart.c ****   /* Prevent unused argument(s) compilation warning */
1869:../../../../../../Drivers/STM32L0xx_HAL_Driver/Src/stm32l0xx_hal_uart.c ****   UNUSED(huart);
1870:../../../../../../Drivers/STM32L0xx_HAL_Driver/Src/stm32l0xx_hal_uart.c **** 
1871:../../../../../../Drivers/STM32L0xx_HAL_Driver/Src/stm32l0xx_hal_uart.c ****   /* NOTE : This function should not be modified, when the callback is needed,
1872:../../../../../../Drivers/STM32L0xx_HAL_Driver/Src/stm32l0xx_hal_uart.c ****             the HAL_UART_AbortTransmitCpltCallback can be implemented in the user file.
1873:../../../../../../Drivers/STM32L0xx_HAL_Driver/Src/stm32l0xx_hal_uart.c ****    */
1874:../../../../../../Drivers/STM32L0xx_HAL_Driver/Src/stm32l0xx_hal_uart.c **** }
1875:../../../../../../Drivers/STM32L0xx_HAL_Driver/Src/stm32l0xx_hal_uart.c **** 
1876:../../../../../../Drivers/STM32L0xx_HAL_Driver/Src/stm32l0xx_hal_uart.c **** /**
1877:../../../../../../Drivers/STM32L0xx_HAL_Driver/Src/stm32l0xx_hal_uart.c ****   * @brief  UART Abort Receive Complete callback.
1878:../../../../../../Drivers/STM32L0xx_HAL_Driver/Src/stm32l0xx_hal_uart.c ****   * @param  huart UART handle.
1879:../../../../../../Drivers/STM32L0xx_HAL_Driver/Src/stm32l0xx_hal_uart.c ****   * @retval None
1880:../../../../../../Drivers/STM32L0xx_HAL_Driver/Src/stm32l0xx_hal_uart.c ****   */
1881:../../../../../../Drivers/STM32L0xx_HAL_Driver/Src/stm32l0xx_hal_uart.c **** __weak void HAL_UART_AbortReceiveCpltCallback (UART_HandleTypeDef *huart)
1882:../../../../../../Drivers/STM32L0xx_HAL_Driver/Src/stm32l0xx_hal_uart.c **** {
1883:../../../../../../Drivers/STM32L0xx_HAL_Driver/Src/stm32l0xx_hal_uart.c ****   /* Prevent unused argument(s) compilation warning */
1884:../../../../../../Drivers/STM32L0xx_HAL_Driver/Src/stm32l0xx_hal_uart.c ****   UNUSED(huart);
1885:../../../../../../Drivers/STM32L0xx_HAL_Driver/Src/stm32l0xx_hal_uart.c **** 
1886:../../../../../../Drivers/STM32L0xx_HAL_Driver/Src/stm32l0xx_hal_uart.c ****   /* NOTE : This function should not be modified, when the callback is needed,
1887:../../../../../../Drivers/STM32L0xx_HAL_Driver/Src/stm32l0xx_hal_uart.c ****             the HAL_UART_AbortReceiveCpltCallback can be implemented in the user file.
1888:../../../../../../Drivers/STM32L0xx_HAL_Driver/Src/stm32l0xx_hal_uart.c ****    */
1889:../../../../../../Drivers/STM32L0xx_HAL_Driver/Src/stm32l0xx_hal_uart.c **** }
1890:../../../../../../Drivers/STM32L0xx_HAL_Driver/Src/stm32l0xx_hal_uart.c **** 
1891:../../../../../../Drivers/STM32L0xx_HAL_Driver/Src/stm32l0xx_hal_uart.c **** /**
1892:../../../../../../Drivers/STM32L0xx_HAL_Driver/Src/stm32l0xx_hal_uart.c ****   * @}
1893:../../../../../../Drivers/STM32L0xx_HAL_Driver/Src/stm32l0xx_hal_uart.c ****   */
1894:../../../../../../Drivers/STM32L0xx_HAL_Driver/Src/stm32l0xx_hal_uart.c **** 
ARM GAS  C:\Users\EBANO_~1\AppData\Local\Temp\cclnSu0c.s 			page 39


1895:../../../../../../Drivers/STM32L0xx_HAL_Driver/Src/stm32l0xx_hal_uart.c **** /** @defgroup UART_Exported_Functions_Group3 Peripheral Control functions
1896:../../../../../../Drivers/STM32L0xx_HAL_Driver/Src/stm32l0xx_hal_uart.c ****   *  @brief   UART control functions
1897:../../../../../../Drivers/STM32L0xx_HAL_Driver/Src/stm32l0xx_hal_uart.c ****   *
1898:../../../../../../Drivers/STM32L0xx_HAL_Driver/Src/stm32l0xx_hal_uart.c **** @verbatim
1899:../../../../../../Drivers/STM32L0xx_HAL_Driver/Src/stm32l0xx_hal_uart.c ****  ===============================================================================
1900:../../../../../../Drivers/STM32L0xx_HAL_Driver/Src/stm32l0xx_hal_uart.c ****                       ##### Peripheral Control functions #####
1901:../../../../../../Drivers/STM32L0xx_HAL_Driver/Src/stm32l0xx_hal_uart.c ****  ===============================================================================
1902:../../../../../../Drivers/STM32L0xx_HAL_Driver/Src/stm32l0xx_hal_uart.c ****     [..]
1903:../../../../../../Drivers/STM32L0xx_HAL_Driver/Src/stm32l0xx_hal_uart.c ****     This subsection provides a set of functions allowing to control the UART.
1904:../../../../../../Drivers/STM32L0xx_HAL_Driver/Src/stm32l0xx_hal_uart.c ****      (+) HAL_MultiProcessor_EnableMuteMode() API enables mute mode
1905:../../../../../../Drivers/STM32L0xx_HAL_Driver/Src/stm32l0xx_hal_uart.c ****      (+) HAL_MultiProcessor_DisableMuteMode() API disables mute mode
1906:../../../../../../Drivers/STM32L0xx_HAL_Driver/Src/stm32l0xx_hal_uart.c ****      (+) HAL_MultiProcessor_EnterMuteMode() API enters mute mode
1907:../../../../../../Drivers/STM32L0xx_HAL_Driver/Src/stm32l0xx_hal_uart.c ****      (+) UART_SetConfig() API configures the UART peripheral
1908:../../../../../../Drivers/STM32L0xx_HAL_Driver/Src/stm32l0xx_hal_uart.c ****      (+) UART_AdvFeatureConfig() API optionally configures the UART advanced features
1909:../../../../../../Drivers/STM32L0xx_HAL_Driver/Src/stm32l0xx_hal_uart.c ****      (+) UART_CheckIdleState() API ensures that TEACK and/or REACK are set after initialization
1910:../../../../../../Drivers/STM32L0xx_HAL_Driver/Src/stm32l0xx_hal_uart.c ****      (+) HAL_HalfDuplex_EnableTransmitter() API disables receiver and enables transmitter
1911:../../../../../../Drivers/STM32L0xx_HAL_Driver/Src/stm32l0xx_hal_uart.c ****      (+) HAL_HalfDuplex_EnableReceiver() API disables transmitter and enables receiver
1912:../../../../../../Drivers/STM32L0xx_HAL_Driver/Src/stm32l0xx_hal_uart.c ****      (+) HAL_LIN_SendBreak() API transmits the break characters
1913:../../../../../../Drivers/STM32L0xx_HAL_Driver/Src/stm32l0xx_hal_uart.c **** @endverbatim
1914:../../../../../../Drivers/STM32L0xx_HAL_Driver/Src/stm32l0xx_hal_uart.c ****   * @{
1915:../../../../../../Drivers/STM32L0xx_HAL_Driver/Src/stm32l0xx_hal_uart.c ****   */
1916:../../../../../../Drivers/STM32L0xx_HAL_Driver/Src/stm32l0xx_hal_uart.c **** 
1917:../../../../../../Drivers/STM32L0xx_HAL_Driver/Src/stm32l0xx_hal_uart.c **** /**
1918:../../../../../../Drivers/STM32L0xx_HAL_Driver/Src/stm32l0xx_hal_uart.c ****   * @brief Enable UART in mute mode (does not mean UART enters mute mode;
1919:../../../../../../Drivers/STM32L0xx_HAL_Driver/Src/stm32l0xx_hal_uart.c ****   * to enter mute mode, HAL_MultiProcessor_EnterMuteMode() API must be called).
1920:../../../../../../Drivers/STM32L0xx_HAL_Driver/Src/stm32l0xx_hal_uart.c ****   * @param huart: UART handle.
1921:../../../../../../Drivers/STM32L0xx_HAL_Driver/Src/stm32l0xx_hal_uart.c ****   * @retval HAL status
1922:../../../../../../Drivers/STM32L0xx_HAL_Driver/Src/stm32l0xx_hal_uart.c ****   */
1923:../../../../../../Drivers/STM32L0xx_HAL_Driver/Src/stm32l0xx_hal_uart.c **** HAL_StatusTypeDef HAL_MultiProcessor_EnableMuteMode(UART_HandleTypeDef *huart)
1924:../../../../../../Drivers/STM32L0xx_HAL_Driver/Src/stm32l0xx_hal_uart.c **** {
1925:../../../../../../Drivers/STM32L0xx_HAL_Driver/Src/stm32l0xx_hal_uart.c ****   /* Process Locked */
1926:../../../../../../Drivers/STM32L0xx_HAL_Driver/Src/stm32l0xx_hal_uart.c ****   __HAL_LOCK(huart);
1927:../../../../../../Drivers/STM32L0xx_HAL_Driver/Src/stm32l0xx_hal_uart.c **** 
1928:../../../../../../Drivers/STM32L0xx_HAL_Driver/Src/stm32l0xx_hal_uart.c ****   huart->gState = HAL_UART_STATE_BUSY;
1929:../../../../../../Drivers/STM32L0xx_HAL_Driver/Src/stm32l0xx_hal_uart.c **** 
1930:../../../../../../Drivers/STM32L0xx_HAL_Driver/Src/stm32l0xx_hal_uart.c ****   /* Enable USART mute mode by setting the MME bit in the CR1 register */
1931:../../../../../../Drivers/STM32L0xx_HAL_Driver/Src/stm32l0xx_hal_uart.c ****   SET_BIT(huart->Instance->CR1, USART_CR1_MME);
1932:../../../../../../Drivers/STM32L0xx_HAL_Driver/Src/stm32l0xx_hal_uart.c **** 
1933:../../../../../../Drivers/STM32L0xx_HAL_Driver/Src/stm32l0xx_hal_uart.c ****   huart->gState = HAL_UART_STATE_READY;
1934:../../../../../../Drivers/STM32L0xx_HAL_Driver/Src/stm32l0xx_hal_uart.c **** 
1935:../../../../../../Drivers/STM32L0xx_HAL_Driver/Src/stm32l0xx_hal_uart.c ****   return (UART_CheckIdleState(huart));
1936:../../../../../../Drivers/STM32L0xx_HAL_Driver/Src/stm32l0xx_hal_uart.c **** }
1937:../../../../../../Drivers/STM32L0xx_HAL_Driver/Src/stm32l0xx_hal_uart.c **** 
1938:../../../../../../Drivers/STM32L0xx_HAL_Driver/Src/stm32l0xx_hal_uart.c **** /**
1939:../../../../../../Drivers/STM32L0xx_HAL_Driver/Src/stm32l0xx_hal_uart.c ****   * @brief  Disable UART mute mode (does not mean the UART actually exits mute mode
1940:../../../../../../Drivers/STM32L0xx_HAL_Driver/Src/stm32l0xx_hal_uart.c ****   *         as it may not have been in mute mode at this very moment).
1941:../../../../../../Drivers/STM32L0xx_HAL_Driver/Src/stm32l0xx_hal_uart.c ****   * @param  huart UART handle.
1942:../../../../../../Drivers/STM32L0xx_HAL_Driver/Src/stm32l0xx_hal_uart.c ****   * @retval HAL status
1943:../../../../../../Drivers/STM32L0xx_HAL_Driver/Src/stm32l0xx_hal_uart.c ****   */
1944:../../../../../../Drivers/STM32L0xx_HAL_Driver/Src/stm32l0xx_hal_uart.c **** HAL_StatusTypeDef HAL_MultiProcessor_DisableMuteMode(UART_HandleTypeDef *huart)
1945:../../../../../../Drivers/STM32L0xx_HAL_Driver/Src/stm32l0xx_hal_uart.c **** {
1946:../../../../../../Drivers/STM32L0xx_HAL_Driver/Src/stm32l0xx_hal_uart.c ****   /* Process Locked */
1947:../../../../../../Drivers/STM32L0xx_HAL_Driver/Src/stm32l0xx_hal_uart.c ****   __HAL_LOCK(huart);
1948:../../../../../../Drivers/STM32L0xx_HAL_Driver/Src/stm32l0xx_hal_uart.c **** 
1949:../../../../../../Drivers/STM32L0xx_HAL_Driver/Src/stm32l0xx_hal_uart.c ****   huart->gState = HAL_UART_STATE_BUSY;
1950:../../../../../../Drivers/STM32L0xx_HAL_Driver/Src/stm32l0xx_hal_uart.c **** 
1951:../../../../../../Drivers/STM32L0xx_HAL_Driver/Src/stm32l0xx_hal_uart.c ****    /* Disable USART mute mode by clearing the MME bit in the CR1 register */
ARM GAS  C:\Users\EBANO_~1\AppData\Local\Temp\cclnSu0c.s 			page 40


1952:../../../../../../Drivers/STM32L0xx_HAL_Driver/Src/stm32l0xx_hal_uart.c ****   CLEAR_BIT(huart->Instance->CR1, USART_CR1_MME);
1953:../../../../../../Drivers/STM32L0xx_HAL_Driver/Src/stm32l0xx_hal_uart.c **** 
1954:../../../../../../Drivers/STM32L0xx_HAL_Driver/Src/stm32l0xx_hal_uart.c ****   huart->gState = HAL_UART_STATE_READY;
1955:../../../../../../Drivers/STM32L0xx_HAL_Driver/Src/stm32l0xx_hal_uart.c **** 
1956:../../../../../../Drivers/STM32L0xx_HAL_Driver/Src/stm32l0xx_hal_uart.c ****   return (UART_CheckIdleState(huart));
1957:../../../../../../Drivers/STM32L0xx_HAL_Driver/Src/stm32l0xx_hal_uart.c **** }
1958:../../../../../../Drivers/STM32L0xx_HAL_Driver/Src/stm32l0xx_hal_uart.c **** 
1959:../../../../../../Drivers/STM32L0xx_HAL_Driver/Src/stm32l0xx_hal_uart.c **** /**
1960:../../../../../../Drivers/STM32L0xx_HAL_Driver/Src/stm32l0xx_hal_uart.c ****   * @brief Enter UART mute mode (means UART actually enters mute mode).
1961:../../../../../../Drivers/STM32L0xx_HAL_Driver/Src/stm32l0xx_hal_uart.c ****   * @note  To exit from mute mode, HAL_MultiProcessor_DisableMuteMode() API must be called.
1962:../../../../../../Drivers/STM32L0xx_HAL_Driver/Src/stm32l0xx_hal_uart.c ****   * @param huart: UART handle.
1963:../../../../../../Drivers/STM32L0xx_HAL_Driver/Src/stm32l0xx_hal_uart.c ****   * @retval None
1964:../../../../../../Drivers/STM32L0xx_HAL_Driver/Src/stm32l0xx_hal_uart.c ****   */
1965:../../../../../../Drivers/STM32L0xx_HAL_Driver/Src/stm32l0xx_hal_uart.c **** void HAL_MultiProcessor_EnterMuteMode(UART_HandleTypeDef *huart)
1966:../../../../../../Drivers/STM32L0xx_HAL_Driver/Src/stm32l0xx_hal_uart.c **** {
1967:../../../../../../Drivers/STM32L0xx_HAL_Driver/Src/stm32l0xx_hal_uart.c ****   __HAL_UART_SEND_REQ(huart, UART_MUTE_MODE_REQUEST);
1968:../../../../../../Drivers/STM32L0xx_HAL_Driver/Src/stm32l0xx_hal_uart.c **** }
1969:../../../../../../Drivers/STM32L0xx_HAL_Driver/Src/stm32l0xx_hal_uart.c **** 
1970:../../../../../../Drivers/STM32L0xx_HAL_Driver/Src/stm32l0xx_hal_uart.c **** /**
1971:../../../../../../Drivers/STM32L0xx_HAL_Driver/Src/stm32l0xx_hal_uart.c ****   * @brief  Enable the UART transmitter and disable the UART receiver.
1972:../../../../../../Drivers/STM32L0xx_HAL_Driver/Src/stm32l0xx_hal_uart.c ****   * @param  huart UART handle.
1973:../../../../../../Drivers/STM32L0xx_HAL_Driver/Src/stm32l0xx_hal_uart.c ****   * @retval HAL status
1974:../../../../../../Drivers/STM32L0xx_HAL_Driver/Src/stm32l0xx_hal_uart.c ****   */
1975:../../../../../../Drivers/STM32L0xx_HAL_Driver/Src/stm32l0xx_hal_uart.c **** HAL_StatusTypeDef HAL_HalfDuplex_EnableTransmitter(UART_HandleTypeDef *huart)
1976:../../../../../../Drivers/STM32L0xx_HAL_Driver/Src/stm32l0xx_hal_uart.c **** {
1977:../../../../../../Drivers/STM32L0xx_HAL_Driver/Src/stm32l0xx_hal_uart.c ****   /* Process Locked */
1978:../../../../../../Drivers/STM32L0xx_HAL_Driver/Src/stm32l0xx_hal_uart.c ****   __HAL_LOCK(huart);
1979:../../../../../../Drivers/STM32L0xx_HAL_Driver/Src/stm32l0xx_hal_uart.c ****   huart->gState = HAL_UART_STATE_BUSY;
1980:../../../../../../Drivers/STM32L0xx_HAL_Driver/Src/stm32l0xx_hal_uart.c **** 
1981:../../../../../../Drivers/STM32L0xx_HAL_Driver/Src/stm32l0xx_hal_uart.c ****   /* Clear TE and RE bits */
1982:../../../../../../Drivers/STM32L0xx_HAL_Driver/Src/stm32l0xx_hal_uart.c ****   CLEAR_BIT(huart->Instance->CR1, (USART_CR1_TE | USART_CR1_RE));
1983:../../../../../../Drivers/STM32L0xx_HAL_Driver/Src/stm32l0xx_hal_uart.c ****   /* Enable the USART's transmit interface by setting the TE bit in the USART CR1 register */
1984:../../../../../../Drivers/STM32L0xx_HAL_Driver/Src/stm32l0xx_hal_uart.c ****   SET_BIT(huart->Instance->CR1, USART_CR1_TE);
1985:../../../../../../Drivers/STM32L0xx_HAL_Driver/Src/stm32l0xx_hal_uart.c **** 
1986:../../../../../../Drivers/STM32L0xx_HAL_Driver/Src/stm32l0xx_hal_uart.c ****   huart->gState = HAL_UART_STATE_READY;
1987:../../../../../../Drivers/STM32L0xx_HAL_Driver/Src/stm32l0xx_hal_uart.c **** 
1988:../../../../../../Drivers/STM32L0xx_HAL_Driver/Src/stm32l0xx_hal_uart.c ****   /* Process Unlocked */
1989:../../../../../../Drivers/STM32L0xx_HAL_Driver/Src/stm32l0xx_hal_uart.c ****   __HAL_UNLOCK(huart);
1990:../../../../../../Drivers/STM32L0xx_HAL_Driver/Src/stm32l0xx_hal_uart.c **** 
1991:../../../../../../Drivers/STM32L0xx_HAL_Driver/Src/stm32l0xx_hal_uart.c ****   return HAL_OK;
1992:../../../../../../Drivers/STM32L0xx_HAL_Driver/Src/stm32l0xx_hal_uart.c **** }
1993:../../../../../../Drivers/STM32L0xx_HAL_Driver/Src/stm32l0xx_hal_uart.c **** 
1994:../../../../../../Drivers/STM32L0xx_HAL_Driver/Src/stm32l0xx_hal_uart.c **** /**
1995:../../../../../../Drivers/STM32L0xx_HAL_Driver/Src/stm32l0xx_hal_uart.c ****   * @brief  Enable the UART receiver and disable the UART transmitter.
1996:../../../../../../Drivers/STM32L0xx_HAL_Driver/Src/stm32l0xx_hal_uart.c ****   * @param  huart UART handle.
1997:../../../../../../Drivers/STM32L0xx_HAL_Driver/Src/stm32l0xx_hal_uart.c ****   * @retval HAL status.
1998:../../../../../../Drivers/STM32L0xx_HAL_Driver/Src/stm32l0xx_hal_uart.c ****   */
1999:../../../../../../Drivers/STM32L0xx_HAL_Driver/Src/stm32l0xx_hal_uart.c **** HAL_StatusTypeDef HAL_HalfDuplex_EnableReceiver(UART_HandleTypeDef *huart)
2000:../../../../../../Drivers/STM32L0xx_HAL_Driver/Src/stm32l0xx_hal_uart.c **** {
2001:../../../../../../Drivers/STM32L0xx_HAL_Driver/Src/stm32l0xx_hal_uart.c ****   /* Process Locked */
2002:../../../../../../Drivers/STM32L0xx_HAL_Driver/Src/stm32l0xx_hal_uart.c ****   __HAL_LOCK(huart);
2003:../../../../../../Drivers/STM32L0xx_HAL_Driver/Src/stm32l0xx_hal_uart.c ****   huart->gState = HAL_UART_STATE_BUSY;
2004:../../../../../../Drivers/STM32L0xx_HAL_Driver/Src/stm32l0xx_hal_uart.c **** 
2005:../../../../../../Drivers/STM32L0xx_HAL_Driver/Src/stm32l0xx_hal_uart.c ****   /* Clear TE and RE bits */
2006:../../../../../../Drivers/STM32L0xx_HAL_Driver/Src/stm32l0xx_hal_uart.c ****   CLEAR_BIT(huart->Instance->CR1, (USART_CR1_TE | USART_CR1_RE));
2007:../../../../../../Drivers/STM32L0xx_HAL_Driver/Src/stm32l0xx_hal_uart.c ****   /* Enable the USART's receive interface by setting the RE bit in the USART CR1 register */
2008:../../../../../../Drivers/STM32L0xx_HAL_Driver/Src/stm32l0xx_hal_uart.c ****   SET_BIT(huart->Instance->CR1, USART_CR1_RE);
ARM GAS  C:\Users\EBANO_~1\AppData\Local\Temp\cclnSu0c.s 			page 41


2009:../../../../../../Drivers/STM32L0xx_HAL_Driver/Src/stm32l0xx_hal_uart.c **** 
2010:../../../../../../Drivers/STM32L0xx_HAL_Driver/Src/stm32l0xx_hal_uart.c ****   huart->gState = HAL_UART_STATE_READY;
2011:../../../../../../Drivers/STM32L0xx_HAL_Driver/Src/stm32l0xx_hal_uart.c ****   /* Process Unlocked */
2012:../../../../../../Drivers/STM32L0xx_HAL_Driver/Src/stm32l0xx_hal_uart.c ****   __HAL_UNLOCK(huart);
2013:../../../../../../Drivers/STM32L0xx_HAL_Driver/Src/stm32l0xx_hal_uart.c **** 
2014:../../../../../../Drivers/STM32L0xx_HAL_Driver/Src/stm32l0xx_hal_uart.c ****   return HAL_OK;
2015:../../../../../../Drivers/STM32L0xx_HAL_Driver/Src/stm32l0xx_hal_uart.c **** }
2016:../../../../../../Drivers/STM32L0xx_HAL_Driver/Src/stm32l0xx_hal_uart.c **** 
2017:../../../../../../Drivers/STM32L0xx_HAL_Driver/Src/stm32l0xx_hal_uart.c **** 
