ARM GAS  C:\Users\EBANO_~1\AppData\Local\Temp\cciyLEQX.s 			page 1


   1              		.cpu cortex-m0plus
   2              		.eabi_attribute 20, 1
   3              		.eabi_attribute 21, 1
   4              		.eabi_attribute 23, 3
   5              		.eabi_attribute 24, 1
   6              		.eabi_attribute 25, 1
   7              		.eabi_attribute 26, 1
   8              		.eabi_attribute 30, 2
   9              		.eabi_attribute 34, 0
  10              		.eabi_attribute 18, 4
  11              		.file	"system_stm32l0xx.c"
  12              		.text
  13              	.Ltext0:
  14              		.cfi_sections	.debug_frame
  15              		.section	.text.SystemInit,"ax",%progbits
  16              		.align	1
  17              		.p2align 2,,3
  18              		.global	SystemInit
  19              		.syntax unified
  20              		.code	16
  21              		.thumb_func
  22              		.fpu softvfp
  23              		.type	SystemInit, %function
  24              	SystemInit:
  25              	.LFB39:
  26              		.file 1 "../../../../../../Drivers/CMSIS/Device/ST/STM32L0xx/Source/Templates/system_stm32l0xx.c"
   1:../../../../../../Drivers/CMSIS/Device/ST/STM32L0xx/Source/Templates/system_stm32l0xx.c **** /**
   2:../../../../../../Drivers/CMSIS/Device/ST/STM32L0xx/Source/Templates/system_stm32l0xx.c ****   ******************************************************************************
   3:../../../../../../Drivers/CMSIS/Device/ST/STM32L0xx/Source/Templates/system_stm32l0xx.c ****   * @file    system_stm32l0xx.c
   4:../../../../../../Drivers/CMSIS/Device/ST/STM32L0xx/Source/Templates/system_stm32l0xx.c ****   * @author  MCD Application Team
   5:../../../../../../Drivers/CMSIS/Device/ST/STM32L0xx/Source/Templates/system_stm32l0xx.c ****   * @brief   CMSIS Cortex-M0+ Device Peripheral Access Layer System Source File.
   6:../../../../../../Drivers/CMSIS/Device/ST/STM32L0xx/Source/Templates/system_stm32l0xx.c ****   *
   7:../../../../../../Drivers/CMSIS/Device/ST/STM32L0xx/Source/Templates/system_stm32l0xx.c ****   *   This file provides two functions and one global variable to be called from 
   8:../../../../../../Drivers/CMSIS/Device/ST/STM32L0xx/Source/Templates/system_stm32l0xx.c ****   *   user application:
   9:../../../../../../Drivers/CMSIS/Device/ST/STM32L0xx/Source/Templates/system_stm32l0xx.c ****   *      - SystemInit(): This function is called at startup just after reset and 
  10:../../../../../../Drivers/CMSIS/Device/ST/STM32L0xx/Source/Templates/system_stm32l0xx.c ****   *                      before branch to main program. This call is made inside
  11:../../../../../../Drivers/CMSIS/Device/ST/STM32L0xx/Source/Templates/system_stm32l0xx.c ****   *                      the "startup_stm32l0xx.s" file.
  12:../../../../../../Drivers/CMSIS/Device/ST/STM32L0xx/Source/Templates/system_stm32l0xx.c ****   *
  13:../../../../../../Drivers/CMSIS/Device/ST/STM32L0xx/Source/Templates/system_stm32l0xx.c ****   *      - SystemCoreClock variable: Contains the core clock (HCLK), it can be used
  14:../../../../../../Drivers/CMSIS/Device/ST/STM32L0xx/Source/Templates/system_stm32l0xx.c ****   *                                  by the user application to setup the SysTick 
  15:../../../../../../Drivers/CMSIS/Device/ST/STM32L0xx/Source/Templates/system_stm32l0xx.c ****   *                                  timer or configure other parameters.
  16:../../../../../../Drivers/CMSIS/Device/ST/STM32L0xx/Source/Templates/system_stm32l0xx.c ****   *                                     
  17:../../../../../../Drivers/CMSIS/Device/ST/STM32L0xx/Source/Templates/system_stm32l0xx.c ****   *      - SystemCoreClockUpdate(): Updates the variable SystemCoreClock and must
  18:../../../../../../Drivers/CMSIS/Device/ST/STM32L0xx/Source/Templates/system_stm32l0xx.c ****   *                                 be called whenever the core clock is changed
  19:../../../../../../Drivers/CMSIS/Device/ST/STM32L0xx/Source/Templates/system_stm32l0xx.c ****   *                                 during program execution.
  20:../../../../../../Drivers/CMSIS/Device/ST/STM32L0xx/Source/Templates/system_stm32l0xx.c ****   *
  21:../../../../../../Drivers/CMSIS/Device/ST/STM32L0xx/Source/Templates/system_stm32l0xx.c ****   *
  22:../../../../../../Drivers/CMSIS/Device/ST/STM32L0xx/Source/Templates/system_stm32l0xx.c ****   ******************************************************************************
  23:../../../../../../Drivers/CMSIS/Device/ST/STM32L0xx/Source/Templates/system_stm32l0xx.c ****   * @attention
  24:../../../../../../Drivers/CMSIS/Device/ST/STM32L0xx/Source/Templates/system_stm32l0xx.c ****   *
  25:../../../../../../Drivers/CMSIS/Device/ST/STM32L0xx/Source/Templates/system_stm32l0xx.c ****   * <h2><center>&copy; COPYRIGHT(c) 2016 STMicroelectronics</center></h2>
  26:../../../../../../Drivers/CMSIS/Device/ST/STM32L0xx/Source/Templates/system_stm32l0xx.c ****   *
  27:../../../../../../Drivers/CMSIS/Device/ST/STM32L0xx/Source/Templates/system_stm32l0xx.c ****   * Redistribution and use in source and binary forms, with or without modification,
  28:../../../../../../Drivers/CMSIS/Device/ST/STM32L0xx/Source/Templates/system_stm32l0xx.c ****   * are permitted provided that the following conditions are met:
  29:../../../../../../Drivers/CMSIS/Device/ST/STM32L0xx/Source/Templates/system_stm32l0xx.c ****   *   1. Redistributions of source code must retain the above copyright notice,
  30:../../../../../../Drivers/CMSIS/Device/ST/STM32L0xx/Source/Templates/system_stm32l0xx.c ****   *      this list of conditions and the following disclaimer.
  31:../../../../../../Drivers/CMSIS/Device/ST/STM32L0xx/Source/Templates/system_stm32l0xx.c ****   *   2. Redistributions in binary form must reproduce the above copyright notice,
ARM GAS  C:\Users\EBANO_~1\AppData\Local\Temp\cciyLEQX.s 			page 2


  32:../../../../../../Drivers/CMSIS/Device/ST/STM32L0xx/Source/Templates/system_stm32l0xx.c ****   *      this list of conditions and the following disclaimer in the documentation
  33:../../../../../../Drivers/CMSIS/Device/ST/STM32L0xx/Source/Templates/system_stm32l0xx.c ****   *      and/or other materials provided with the distribution.
  34:../../../../../../Drivers/CMSIS/Device/ST/STM32L0xx/Source/Templates/system_stm32l0xx.c ****   *   3. Neither the name of STMicroelectronics nor the names of its contributors
  35:../../../../../../Drivers/CMSIS/Device/ST/STM32L0xx/Source/Templates/system_stm32l0xx.c ****   *      may be used to endorse or promote products derived from this software
  36:../../../../../../Drivers/CMSIS/Device/ST/STM32L0xx/Source/Templates/system_stm32l0xx.c ****   *      without specific prior written permission.
  37:../../../../../../Drivers/CMSIS/Device/ST/STM32L0xx/Source/Templates/system_stm32l0xx.c ****   *
  38:../../../../../../Drivers/CMSIS/Device/ST/STM32L0xx/Source/Templates/system_stm32l0xx.c ****   * THIS SOFTWARE IS PROVIDED BY THE COPYRIGHT HOLDERS AND CONTRIBUTORS "AS IS"
  39:../../../../../../Drivers/CMSIS/Device/ST/STM32L0xx/Source/Templates/system_stm32l0xx.c ****   * AND ANY EXPRESS OR IMPLIED WARRANTIES, INCLUDING, BUT NOT LIMITED TO, THE
  40:../../../../../../Drivers/CMSIS/Device/ST/STM32L0xx/Source/Templates/system_stm32l0xx.c ****   * IMPLIED WARRANTIES OF MERCHANTABILITY AND FITNESS FOR A PARTICULAR PURPOSE ARE
  41:../../../../../../Drivers/CMSIS/Device/ST/STM32L0xx/Source/Templates/system_stm32l0xx.c ****   * DISCLAIMED. IN NO EVENT SHALL THE COPYRIGHT HOLDER OR CONTRIBUTORS BE LIABLE
  42:../../../../../../Drivers/CMSIS/Device/ST/STM32L0xx/Source/Templates/system_stm32l0xx.c ****   * FOR ANY DIRECT, INDIRECT, INCIDENTAL, SPECIAL, EXEMPLARY, OR CONSEQUENTIAL
  43:../../../../../../Drivers/CMSIS/Device/ST/STM32L0xx/Source/Templates/system_stm32l0xx.c ****   * DAMAGES (INCLUDING, BUT NOT LIMITED TO, PROCUREMENT OF SUBSTITUTE GOODS OR
  44:../../../../../../Drivers/CMSIS/Device/ST/STM32L0xx/Source/Templates/system_stm32l0xx.c ****   * SERVICES; LOSS OF USE, DATA, OR PROFITS; OR BUSINESS INTERRUPTION) HOWEVER
  45:../../../../../../Drivers/CMSIS/Device/ST/STM32L0xx/Source/Templates/system_stm32l0xx.c ****   * CAUSED AND ON ANY THEORY OF LIABILITY, WHETHER IN CONTRACT, STRICT LIABILITY,
  46:../../../../../../Drivers/CMSIS/Device/ST/STM32L0xx/Source/Templates/system_stm32l0xx.c ****   * OR TORT (INCLUDING NEGLIGENCE OR OTHERWISE) ARISING IN ANY WAY OUT OF THE USE
  47:../../../../../../Drivers/CMSIS/Device/ST/STM32L0xx/Source/Templates/system_stm32l0xx.c ****   * OF THIS SOFTWARE, EVEN IF ADVISED OF THE POSSIBILITY OF SUCH DAMAGE.
  48:../../../../../../Drivers/CMSIS/Device/ST/STM32L0xx/Source/Templates/system_stm32l0xx.c ****   *
  49:../../../../../../Drivers/CMSIS/Device/ST/STM32L0xx/Source/Templates/system_stm32l0xx.c ****   ******************************************************************************
  50:../../../../../../Drivers/CMSIS/Device/ST/STM32L0xx/Source/Templates/system_stm32l0xx.c ****   */
  51:../../../../../../Drivers/CMSIS/Device/ST/STM32L0xx/Source/Templates/system_stm32l0xx.c **** 
  52:../../../../../../Drivers/CMSIS/Device/ST/STM32L0xx/Source/Templates/system_stm32l0xx.c **** /** @addtogroup CMSIS
  53:../../../../../../Drivers/CMSIS/Device/ST/STM32L0xx/Source/Templates/system_stm32l0xx.c ****   * @{
  54:../../../../../../Drivers/CMSIS/Device/ST/STM32L0xx/Source/Templates/system_stm32l0xx.c ****   */
  55:../../../../../../Drivers/CMSIS/Device/ST/STM32L0xx/Source/Templates/system_stm32l0xx.c **** 
  56:../../../../../../Drivers/CMSIS/Device/ST/STM32L0xx/Source/Templates/system_stm32l0xx.c **** /** @addtogroup stm32l0xx_system
  57:../../../../../../Drivers/CMSIS/Device/ST/STM32L0xx/Source/Templates/system_stm32l0xx.c ****   * @{
  58:../../../../../../Drivers/CMSIS/Device/ST/STM32L0xx/Source/Templates/system_stm32l0xx.c ****   */  
  59:../../../../../../Drivers/CMSIS/Device/ST/STM32L0xx/Source/Templates/system_stm32l0xx.c ****   
  60:../../../../../../Drivers/CMSIS/Device/ST/STM32L0xx/Source/Templates/system_stm32l0xx.c **** /** @addtogroup STM32L0xx_System_Private_Includes
  61:../../../../../../Drivers/CMSIS/Device/ST/STM32L0xx/Source/Templates/system_stm32l0xx.c ****   * @{
  62:../../../../../../Drivers/CMSIS/Device/ST/STM32L0xx/Source/Templates/system_stm32l0xx.c ****   */
  63:../../../../../../Drivers/CMSIS/Device/ST/STM32L0xx/Source/Templates/system_stm32l0xx.c **** 
  64:../../../../../../Drivers/CMSIS/Device/ST/STM32L0xx/Source/Templates/system_stm32l0xx.c **** #include "stm32l0xx.h"
  65:../../../../../../Drivers/CMSIS/Device/ST/STM32L0xx/Source/Templates/system_stm32l0xx.c **** 
  66:../../../../../../Drivers/CMSIS/Device/ST/STM32L0xx/Source/Templates/system_stm32l0xx.c **** #if !defined  (HSE_VALUE) 
  67:../../../../../../Drivers/CMSIS/Device/ST/STM32L0xx/Source/Templates/system_stm32l0xx.c ****   #define HSE_VALUE    ((uint32_t)8000000U) /*!< Value of the External oscillator in Hz */
  68:../../../../../../Drivers/CMSIS/Device/ST/STM32L0xx/Source/Templates/system_stm32l0xx.c **** #endif /* HSE_VALUE */
  69:../../../../../../Drivers/CMSIS/Device/ST/STM32L0xx/Source/Templates/system_stm32l0xx.c **** 
  70:../../../../../../Drivers/CMSIS/Device/ST/STM32L0xx/Source/Templates/system_stm32l0xx.c **** #if !defined  (MSI_VALUE)
  71:../../../../../../Drivers/CMSIS/Device/ST/STM32L0xx/Source/Templates/system_stm32l0xx.c ****   #define MSI_VALUE    ((uint32_t)2000000U) /*!< Value of the Internal oscillator in Hz*/
  72:../../../../../../Drivers/CMSIS/Device/ST/STM32L0xx/Source/Templates/system_stm32l0xx.c **** #endif /* MSI_VALUE */
  73:../../../../../../Drivers/CMSIS/Device/ST/STM32L0xx/Source/Templates/system_stm32l0xx.c ****    
  74:../../../../../../Drivers/CMSIS/Device/ST/STM32L0xx/Source/Templates/system_stm32l0xx.c **** #if !defined  (HSI_VALUE)
  75:../../../../../../Drivers/CMSIS/Device/ST/STM32L0xx/Source/Templates/system_stm32l0xx.c ****   #define HSI_VALUE    ((uint32_t)16000000U) /*!< Value of the Internal oscillator in Hz*/
  76:../../../../../../Drivers/CMSIS/Device/ST/STM32L0xx/Source/Templates/system_stm32l0xx.c **** #endif /* HSI_VALUE */
  77:../../../../../../Drivers/CMSIS/Device/ST/STM32L0xx/Source/Templates/system_stm32l0xx.c **** 
  78:../../../../../../Drivers/CMSIS/Device/ST/STM32L0xx/Source/Templates/system_stm32l0xx.c **** 
  79:../../../../../../Drivers/CMSIS/Device/ST/STM32L0xx/Source/Templates/system_stm32l0xx.c **** /**
  80:../../../../../../Drivers/CMSIS/Device/ST/STM32L0xx/Source/Templates/system_stm32l0xx.c ****   * @}
  81:../../../../../../Drivers/CMSIS/Device/ST/STM32L0xx/Source/Templates/system_stm32l0xx.c ****   */
  82:../../../../../../Drivers/CMSIS/Device/ST/STM32L0xx/Source/Templates/system_stm32l0xx.c **** 
  83:../../../../../../Drivers/CMSIS/Device/ST/STM32L0xx/Source/Templates/system_stm32l0xx.c **** /** @addtogroup STM32L0xx_System_Private_TypesDefinitions
  84:../../../../../../Drivers/CMSIS/Device/ST/STM32L0xx/Source/Templates/system_stm32l0xx.c ****   * @{
  85:../../../../../../Drivers/CMSIS/Device/ST/STM32L0xx/Source/Templates/system_stm32l0xx.c ****   */
  86:../../../../../../Drivers/CMSIS/Device/ST/STM32L0xx/Source/Templates/system_stm32l0xx.c **** 
  87:../../../../../../Drivers/CMSIS/Device/ST/STM32L0xx/Source/Templates/system_stm32l0xx.c **** /**
  88:../../../../../../Drivers/CMSIS/Device/ST/STM32L0xx/Source/Templates/system_stm32l0xx.c ****   * @}
ARM GAS  C:\Users\EBANO_~1\AppData\Local\Temp\cciyLEQX.s 			page 3


  89:../../../../../../Drivers/CMSIS/Device/ST/STM32L0xx/Source/Templates/system_stm32l0xx.c ****   */
  90:../../../../../../Drivers/CMSIS/Device/ST/STM32L0xx/Source/Templates/system_stm32l0xx.c **** 
  91:../../../../../../Drivers/CMSIS/Device/ST/STM32L0xx/Source/Templates/system_stm32l0xx.c **** /** @addtogroup STM32L0xx_System_Private_Defines
  92:../../../../../../Drivers/CMSIS/Device/ST/STM32L0xx/Source/Templates/system_stm32l0xx.c ****   * @{
  93:../../../../../../Drivers/CMSIS/Device/ST/STM32L0xx/Source/Templates/system_stm32l0xx.c ****   */
  94:../../../../../../Drivers/CMSIS/Device/ST/STM32L0xx/Source/Templates/system_stm32l0xx.c **** /************************* Miscellaneous Configuration ************************/
  95:../../../../../../Drivers/CMSIS/Device/ST/STM32L0xx/Source/Templates/system_stm32l0xx.c **** 
  96:../../../../../../Drivers/CMSIS/Device/ST/STM32L0xx/Source/Templates/system_stm32l0xx.c **** /*!< Uncomment the following line if you need to relocate your vector Table in
  97:../../../../../../Drivers/CMSIS/Device/ST/STM32L0xx/Source/Templates/system_stm32l0xx.c ****      Internal SRAM. */
  98:../../../../../../Drivers/CMSIS/Device/ST/STM32L0xx/Source/Templates/system_stm32l0xx.c **** /* #define VECT_TAB_SRAM */
  99:../../../../../../Drivers/CMSIS/Device/ST/STM32L0xx/Source/Templates/system_stm32l0xx.c **** #define VECT_TAB_OFFSET  0x00U /*!< Vector Table base offset field. 
 100:../../../../../../Drivers/CMSIS/Device/ST/STM32L0xx/Source/Templates/system_stm32l0xx.c ****                                    This value must be a multiple of 0x100. */
 101:../../../../../../Drivers/CMSIS/Device/ST/STM32L0xx/Source/Templates/system_stm32l0xx.c **** /******************************************************************************/
 102:../../../../../../Drivers/CMSIS/Device/ST/STM32L0xx/Source/Templates/system_stm32l0xx.c **** /**
 103:../../../../../../Drivers/CMSIS/Device/ST/STM32L0xx/Source/Templates/system_stm32l0xx.c ****   * @}
 104:../../../../../../Drivers/CMSIS/Device/ST/STM32L0xx/Source/Templates/system_stm32l0xx.c ****   */
 105:../../../../../../Drivers/CMSIS/Device/ST/STM32L0xx/Source/Templates/system_stm32l0xx.c **** 
 106:../../../../../../Drivers/CMSIS/Device/ST/STM32L0xx/Source/Templates/system_stm32l0xx.c **** /** @addtogroup STM32L0xx_System_Private_Macros
 107:../../../../../../Drivers/CMSIS/Device/ST/STM32L0xx/Source/Templates/system_stm32l0xx.c ****   * @{
 108:../../../../../../Drivers/CMSIS/Device/ST/STM32L0xx/Source/Templates/system_stm32l0xx.c ****   */
 109:../../../../../../Drivers/CMSIS/Device/ST/STM32L0xx/Source/Templates/system_stm32l0xx.c **** 
 110:../../../../../../Drivers/CMSIS/Device/ST/STM32L0xx/Source/Templates/system_stm32l0xx.c **** /**
 111:../../../../../../Drivers/CMSIS/Device/ST/STM32L0xx/Source/Templates/system_stm32l0xx.c ****   * @}
 112:../../../../../../Drivers/CMSIS/Device/ST/STM32L0xx/Source/Templates/system_stm32l0xx.c ****   */
 113:../../../../../../Drivers/CMSIS/Device/ST/STM32L0xx/Source/Templates/system_stm32l0xx.c **** 
 114:../../../../../../Drivers/CMSIS/Device/ST/STM32L0xx/Source/Templates/system_stm32l0xx.c **** /** @addtogroup STM32L0xx_System_Private_Variables
 115:../../../../../../Drivers/CMSIS/Device/ST/STM32L0xx/Source/Templates/system_stm32l0xx.c ****   * @{
 116:../../../../../../Drivers/CMSIS/Device/ST/STM32L0xx/Source/Templates/system_stm32l0xx.c ****   */
 117:../../../../../../Drivers/CMSIS/Device/ST/STM32L0xx/Source/Templates/system_stm32l0xx.c ****   /* This variable is updated in three ways:
 118:../../../../../../Drivers/CMSIS/Device/ST/STM32L0xx/Source/Templates/system_stm32l0xx.c ****       1) by calling CMSIS function SystemCoreClockUpdate()
 119:../../../../../../Drivers/CMSIS/Device/ST/STM32L0xx/Source/Templates/system_stm32l0xx.c ****       2) by calling HAL API function HAL_RCC_GetHCLKFreq()
 120:../../../../../../Drivers/CMSIS/Device/ST/STM32L0xx/Source/Templates/system_stm32l0xx.c ****       3) each time HAL_RCC_ClockConfig() is called to configure the system clock frequency 
 121:../../../../../../Drivers/CMSIS/Device/ST/STM32L0xx/Source/Templates/system_stm32l0xx.c ****          Note: If you use this function to configure the system clock; then there
 122:../../../../../../Drivers/CMSIS/Device/ST/STM32L0xx/Source/Templates/system_stm32l0xx.c ****                is no need to call the 2 first functions listed above, since SystemCoreClock
 123:../../../../../../Drivers/CMSIS/Device/ST/STM32L0xx/Source/Templates/system_stm32l0xx.c ****                variable is updated automatically.
 124:../../../../../../Drivers/CMSIS/Device/ST/STM32L0xx/Source/Templates/system_stm32l0xx.c ****   */
 125:../../../../../../Drivers/CMSIS/Device/ST/STM32L0xx/Source/Templates/system_stm32l0xx.c ****   uint32_t SystemCoreClock = 2000000U;
 126:../../../../../../Drivers/CMSIS/Device/ST/STM32L0xx/Source/Templates/system_stm32l0xx.c ****   const uint8_t AHBPrescTable[16] = {0U, 0U, 0U, 0U, 0U, 0U, 0U, 0U, 1U, 2U, 3U, 4U, 6U, 7U, 8U, 9U
 127:../../../../../../Drivers/CMSIS/Device/ST/STM32L0xx/Source/Templates/system_stm32l0xx.c ****   const uint8_t APBPrescTable[8] = {0U, 0U, 0U, 0U, 1U, 2U, 3U, 4U};
 128:../../../../../../Drivers/CMSIS/Device/ST/STM32L0xx/Source/Templates/system_stm32l0xx.c ****   const uint8_t PLLMulTable[9] = {3U, 4U, 6U, 8U, 12U, 16U, 24U, 32U, 48U};
 129:../../../../../../Drivers/CMSIS/Device/ST/STM32L0xx/Source/Templates/system_stm32l0xx.c **** 
 130:../../../../../../Drivers/CMSIS/Device/ST/STM32L0xx/Source/Templates/system_stm32l0xx.c **** /**
 131:../../../../../../Drivers/CMSIS/Device/ST/STM32L0xx/Source/Templates/system_stm32l0xx.c ****   * @}
 132:../../../../../../Drivers/CMSIS/Device/ST/STM32L0xx/Source/Templates/system_stm32l0xx.c ****   */
 133:../../../../../../Drivers/CMSIS/Device/ST/STM32L0xx/Source/Templates/system_stm32l0xx.c **** 
 134:../../../../../../Drivers/CMSIS/Device/ST/STM32L0xx/Source/Templates/system_stm32l0xx.c **** /** @addtogroup STM32L0xx_System_Private_FunctionPrototypes
 135:../../../../../../Drivers/CMSIS/Device/ST/STM32L0xx/Source/Templates/system_stm32l0xx.c ****   * @{
 136:../../../../../../Drivers/CMSIS/Device/ST/STM32L0xx/Source/Templates/system_stm32l0xx.c ****   */
 137:../../../../../../Drivers/CMSIS/Device/ST/STM32L0xx/Source/Templates/system_stm32l0xx.c **** 
 138:../../../../../../Drivers/CMSIS/Device/ST/STM32L0xx/Source/Templates/system_stm32l0xx.c **** /**
 139:../../../../../../Drivers/CMSIS/Device/ST/STM32L0xx/Source/Templates/system_stm32l0xx.c ****   * @}
 140:../../../../../../Drivers/CMSIS/Device/ST/STM32L0xx/Source/Templates/system_stm32l0xx.c ****   */
 141:../../../../../../Drivers/CMSIS/Device/ST/STM32L0xx/Source/Templates/system_stm32l0xx.c **** 
 142:../../../../../../Drivers/CMSIS/Device/ST/STM32L0xx/Source/Templates/system_stm32l0xx.c **** /** @addtogroup STM32L0xx_System_Private_Functions
 143:../../../../../../Drivers/CMSIS/Device/ST/STM32L0xx/Source/Templates/system_stm32l0xx.c ****   * @{
 144:../../../../../../Drivers/CMSIS/Device/ST/STM32L0xx/Source/Templates/system_stm32l0xx.c ****   */
 145:../../../../../../Drivers/CMSIS/Device/ST/STM32L0xx/Source/Templates/system_stm32l0xx.c **** 
ARM GAS  C:\Users\EBANO_~1\AppData\Local\Temp\cciyLEQX.s 			page 4


 146:../../../../../../Drivers/CMSIS/Device/ST/STM32L0xx/Source/Templates/system_stm32l0xx.c **** /**
 147:../../../../../../Drivers/CMSIS/Device/ST/STM32L0xx/Source/Templates/system_stm32l0xx.c ****   * @brief  Setup the microcontroller system.
 148:../../../../../../Drivers/CMSIS/Device/ST/STM32L0xx/Source/Templates/system_stm32l0xx.c ****   * @param  None
 149:../../../../../../Drivers/CMSIS/Device/ST/STM32L0xx/Source/Templates/system_stm32l0xx.c ****   * @retval None
 150:../../../../../../Drivers/CMSIS/Device/ST/STM32L0xx/Source/Templates/system_stm32l0xx.c ****   */
 151:../../../../../../Drivers/CMSIS/Device/ST/STM32L0xx/Source/Templates/system_stm32l0xx.c **** void SystemInit (void)
 152:../../../../../../Drivers/CMSIS/Device/ST/STM32L0xx/Source/Templates/system_stm32l0xx.c **** {    
  27              		.loc 1 152 0
  28              		.cfi_startproc
  29              		@ args = 0, pretend = 0, frame = 0
  30              		@ frame_needed = 0, uses_anonymous_args = 0
  31              		@ link register save eliminated.
 153:../../../../../../Drivers/CMSIS/Device/ST/STM32L0xx/Source/Templates/system_stm32l0xx.c **** /*!< Set MSION bit */
 154:../../../../../../Drivers/CMSIS/Device/ST/STM32L0xx/Source/Templates/system_stm32l0xx.c ****   RCC->CR |= (uint32_t)0x00000100U;
  32              		.loc 1 154 0
  33 0000 8022     		movs	r2, #128
  34 0002 104B     		ldr	r3, .L3
  35 0004 5200     		lsls	r2, r2, #1
  36 0006 1968     		ldr	r1, [r3]
 155:../../../../../../Drivers/CMSIS/Device/ST/STM32L0xx/Source/Templates/system_stm32l0xx.c **** 
 156:../../../../../../Drivers/CMSIS/Device/ST/STM32L0xx/Source/Templates/system_stm32l0xx.c ****   /*!< Reset SW[1:0], HPRE[3:0], PPRE1[2:0], PPRE2[2:0], MCOSEL[2:0] and MCOPRE[2:0] bits */
 157:../../../../../../Drivers/CMSIS/Device/ST/STM32L0xx/Source/Templates/system_stm32l0xx.c ****   RCC->CFGR &= (uint32_t) 0x88FF400CU;
 158:../../../../../../Drivers/CMSIS/Device/ST/STM32L0xx/Source/Templates/system_stm32l0xx.c ****  
 159:../../../../../../Drivers/CMSIS/Device/ST/STM32L0xx/Source/Templates/system_stm32l0xx.c ****   /*!< Reset HSION, HSIDIVEN, HSEON, CSSON and PLLON bits */
 160:../../../../../../Drivers/CMSIS/Device/ST/STM32L0xx/Source/Templates/system_stm32l0xx.c ****   RCC->CR &= (uint32_t)0xFEF6FFF6U;
 161:../../../../../../Drivers/CMSIS/Device/ST/STM32L0xx/Source/Templates/system_stm32l0xx.c ****   
 162:../../../../../../Drivers/CMSIS/Device/ST/STM32L0xx/Source/Templates/system_stm32l0xx.c ****   /*!< Reset HSI48ON  bit */
 163:../../../../../../Drivers/CMSIS/Device/ST/STM32L0xx/Source/Templates/system_stm32l0xx.c ****   RCC->CRRCR &= (uint32_t)0xFFFFFFFEU;
 164:../../../../../../Drivers/CMSIS/Device/ST/STM32L0xx/Source/Templates/system_stm32l0xx.c ****   
 165:../../../../../../Drivers/CMSIS/Device/ST/STM32L0xx/Source/Templates/system_stm32l0xx.c ****   /*!< Reset HSEBYP bit */
 166:../../../../../../Drivers/CMSIS/Device/ST/STM32L0xx/Source/Templates/system_stm32l0xx.c ****   RCC->CR &= (uint32_t)0xFFFBFFFFU;
 167:../../../../../../Drivers/CMSIS/Device/ST/STM32L0xx/Source/Templates/system_stm32l0xx.c **** 
 168:../../../../../../Drivers/CMSIS/Device/ST/STM32L0xx/Source/Templates/system_stm32l0xx.c ****   /*!< Reset PLLSRC, PLLMUL[3:0] and PLLDIV[1:0] bits */
 169:../../../../../../Drivers/CMSIS/Device/ST/STM32L0xx/Source/Templates/system_stm32l0xx.c ****   RCC->CFGR &= (uint32_t)0xFF02FFFFU;
 170:../../../../../../Drivers/CMSIS/Device/ST/STM32L0xx/Source/Templates/system_stm32l0xx.c **** 
 171:../../../../../../Drivers/CMSIS/Device/ST/STM32L0xx/Source/Templates/system_stm32l0xx.c ****   /*!< Disable all interrupts */
 172:../../../../../../Drivers/CMSIS/Device/ST/STM32L0xx/Source/Templates/system_stm32l0xx.c ****   RCC->CIER = 0x00000000U;
 173:../../../../../../Drivers/CMSIS/Device/ST/STM32L0xx/Source/Templates/system_stm32l0xx.c ****   
 174:../../../../../../Drivers/CMSIS/Device/ST/STM32L0xx/Source/Templates/system_stm32l0xx.c ****   /* Configure the Vector Table location add offset address ------------------*/
 175:../../../../../../Drivers/CMSIS/Device/ST/STM32L0xx/Source/Templates/system_stm32l0xx.c **** #ifdef VECT_TAB_SRAM
 176:../../../../../../Drivers/CMSIS/Device/ST/STM32L0xx/Source/Templates/system_stm32l0xx.c ****   SCB->VTOR = SRAM_BASE | VECT_TAB_OFFSET; /* Vector Table Relocation in Internal SRAM */
 177:../../../../../../Drivers/CMSIS/Device/ST/STM32L0xx/Source/Templates/system_stm32l0xx.c **** #else
 178:../../../../../../Drivers/CMSIS/Device/ST/STM32L0xx/Source/Templates/system_stm32l0xx.c ****   SCB->VTOR = FLASH_BASE | VECT_TAB_OFFSET; /* Vector Table Relocation in Internal FLASH */
 179:../../../../../../Drivers/CMSIS/Device/ST/STM32L0xx/Source/Templates/system_stm32l0xx.c **** #endif
 180:../../../../../../Drivers/CMSIS/Device/ST/STM32L0xx/Source/Templates/system_stm32l0xx.c **** }
  37              		.loc 1 180 0
  38              		@ sp needed
 154:../../../../../../Drivers/CMSIS/Device/ST/STM32L0xx/Source/Templates/system_stm32l0xx.c **** 
  39              		.loc 1 154 0
  40 0008 0A43     		orrs	r2, r1
  41 000a 1A60     		str	r2, [r3]
 157:../../../../../../Drivers/CMSIS/Device/ST/STM32L0xx/Source/Templates/system_stm32l0xx.c ****  
  42              		.loc 1 157 0
  43 000c DA68     		ldr	r2, [r3, #12]
  44 000e 0E49     		ldr	r1, .L3+4
  45 0010 0A40     		ands	r2, r1
  46 0012 DA60     		str	r2, [r3, #12]
ARM GAS  C:\Users\EBANO_~1\AppData\Local\Temp\cciyLEQX.s 			page 5


 160:../../../../../../Drivers/CMSIS/Device/ST/STM32L0xx/Source/Templates/system_stm32l0xx.c ****   
  47              		.loc 1 160 0
  48 0014 1A68     		ldr	r2, [r3]
  49 0016 0D49     		ldr	r1, .L3+8
  50 0018 0A40     		ands	r2, r1
 163:../../../../../../Drivers/CMSIS/Device/ST/STM32L0xx/Source/Templates/system_stm32l0xx.c ****   
  51              		.loc 1 163 0
  52 001a 0121     		movs	r1, #1
 160:../../../../../../Drivers/CMSIS/Device/ST/STM32L0xx/Source/Templates/system_stm32l0xx.c ****   
  53              		.loc 1 160 0
  54 001c 1A60     		str	r2, [r3]
 163:../../../../../../Drivers/CMSIS/Device/ST/STM32L0xx/Source/Templates/system_stm32l0xx.c ****   
  55              		.loc 1 163 0
  56 001e 9A68     		ldr	r2, [r3, #8]
  57 0020 8A43     		bics	r2, r1
  58 0022 9A60     		str	r2, [r3, #8]
 166:../../../../../../Drivers/CMSIS/Device/ST/STM32L0xx/Source/Templates/system_stm32l0xx.c **** 
  59              		.loc 1 166 0
  60 0024 1A68     		ldr	r2, [r3]
  61 0026 0A49     		ldr	r1, .L3+12
  62 0028 0A40     		ands	r2, r1
  63 002a 1A60     		str	r2, [r3]
 169:../../../../../../Drivers/CMSIS/Device/ST/STM32L0xx/Source/Templates/system_stm32l0xx.c **** 
  64              		.loc 1 169 0
  65 002c DA68     		ldr	r2, [r3, #12]
  66 002e 0949     		ldr	r1, .L3+16
  67 0030 0A40     		ands	r2, r1
  68 0032 DA60     		str	r2, [r3, #12]
 172:../../../../../../Drivers/CMSIS/Device/ST/STM32L0xx/Source/Templates/system_stm32l0xx.c ****   
  69              		.loc 1 172 0
  70 0034 0022     		movs	r2, #0
  71 0036 1A61     		str	r2, [r3, #16]
 178:../../../../../../Drivers/CMSIS/Device/ST/STM32L0xx/Source/Templates/system_stm32l0xx.c **** #endif
  72              		.loc 1 178 0
  73 0038 8022     		movs	r2, #128
  74 003a 074B     		ldr	r3, .L3+20
  75 003c 1205     		lsls	r2, r2, #20
  76 003e 9A60     		str	r2, [r3, #8]
  77              		.loc 1 180 0
  78 0040 7047     		bx	lr
  79              	.L4:
  80 0042 C046     		.align	2
  81              	.L3:
  82 0044 00100240 		.word	1073876992
  83 0048 0C40FF88 		.word	-1996537844
  84 004c F6FFF6FE 		.word	-17367050
  85 0050 FFFFFBFF 		.word	-262145
  86 0054 FFFF02FF 		.word	-16580609
  87 0058 00ED00E0 		.word	-536810240
  88              		.cfi_endproc
  89              	.LFE39:
  90              		.size	SystemInit, .-SystemInit
  91              		.global	__aeabi_uidiv
  92              		.global	__aeabi_idiv
  93              		.section	.text.SystemCoreClockUpdate,"ax",%progbits
  94              		.align	1
  95              		.p2align 2,,3
ARM GAS  C:\Users\EBANO_~1\AppData\Local\Temp\cciyLEQX.s 			page 6


  96              		.global	SystemCoreClockUpdate
  97              		.syntax unified
  98              		.code	16
  99              		.thumb_func
 100              		.fpu softvfp
 101              		.type	SystemCoreClockUpdate, %function
 102              	SystemCoreClockUpdate:
 103              	.LFB40:
 181:../../../../../../Drivers/CMSIS/Device/ST/STM32L0xx/Source/Templates/system_stm32l0xx.c **** 
 182:../../../../../../Drivers/CMSIS/Device/ST/STM32L0xx/Source/Templates/system_stm32l0xx.c **** /**
 183:../../../../../../Drivers/CMSIS/Device/ST/STM32L0xx/Source/Templates/system_stm32l0xx.c ****   * @brief  Update SystemCoreClock according to Clock Register Values
 184:../../../../../../Drivers/CMSIS/Device/ST/STM32L0xx/Source/Templates/system_stm32l0xx.c ****   *         The SystemCoreClock variable contains the core clock (HCLK), it can
 185:../../../../../../Drivers/CMSIS/Device/ST/STM32L0xx/Source/Templates/system_stm32l0xx.c ****   *         be used by the user application to setup the SysTick timer or configure
 186:../../../../../../Drivers/CMSIS/Device/ST/STM32L0xx/Source/Templates/system_stm32l0xx.c ****   *         other parameters.
 187:../../../../../../Drivers/CMSIS/Device/ST/STM32L0xx/Source/Templates/system_stm32l0xx.c ****   *           
 188:../../../../../../Drivers/CMSIS/Device/ST/STM32L0xx/Source/Templates/system_stm32l0xx.c ****   * @note   Each time the core clock (HCLK) changes, this function must be called
 189:../../../../../../Drivers/CMSIS/Device/ST/STM32L0xx/Source/Templates/system_stm32l0xx.c ****   *         to update SystemCoreClock variable value. Otherwise, any configuration
 190:../../../../../../Drivers/CMSIS/Device/ST/STM32L0xx/Source/Templates/system_stm32l0xx.c ****   *         based on this variable will be incorrect.         
 191:../../../../../../Drivers/CMSIS/Device/ST/STM32L0xx/Source/Templates/system_stm32l0xx.c ****   *     
 192:../../../../../../Drivers/CMSIS/Device/ST/STM32L0xx/Source/Templates/system_stm32l0xx.c ****   * @note   - The system frequency computed by this function is not the real 
 193:../../../../../../Drivers/CMSIS/Device/ST/STM32L0xx/Source/Templates/system_stm32l0xx.c ****   *           frequency in the chip. It is calculated based on the predefined 
 194:../../../../../../Drivers/CMSIS/Device/ST/STM32L0xx/Source/Templates/system_stm32l0xx.c ****   *           constant and the selected clock source:
 195:../../../../../../Drivers/CMSIS/Device/ST/STM32L0xx/Source/Templates/system_stm32l0xx.c ****   *             
 196:../../../../../../Drivers/CMSIS/Device/ST/STM32L0xx/Source/Templates/system_stm32l0xx.c ****   *           - If SYSCLK source is MSI, SystemCoreClock will contain the MSI 
 197:../../../../../../Drivers/CMSIS/Device/ST/STM32L0xx/Source/Templates/system_stm32l0xx.c ****   *             value as defined by the MSI range.
 198:../../../../../../Drivers/CMSIS/Device/ST/STM32L0xx/Source/Templates/system_stm32l0xx.c ****   *                                   
 199:../../../../../../Drivers/CMSIS/Device/ST/STM32L0xx/Source/Templates/system_stm32l0xx.c ****   *           - If SYSCLK source is HSI, SystemCoreClock will contain the HSI_VALUE(*)
 200:../../../../../../Drivers/CMSIS/Device/ST/STM32L0xx/Source/Templates/system_stm32l0xx.c ****   *                                              
 201:../../../../../../Drivers/CMSIS/Device/ST/STM32L0xx/Source/Templates/system_stm32l0xx.c ****   *           - If SYSCLK source is HSE, SystemCoreClock will contain the HSE_VALUE(**)
 202:../../../../../../Drivers/CMSIS/Device/ST/STM32L0xx/Source/Templates/system_stm32l0xx.c ****   *                          
 203:../../../../../../Drivers/CMSIS/Device/ST/STM32L0xx/Source/Templates/system_stm32l0xx.c ****   *           - If SYSCLK source is PLL, SystemCoreClock will contain the HSE_VALUE(**)
 204:../../../../../../Drivers/CMSIS/Device/ST/STM32L0xx/Source/Templates/system_stm32l0xx.c ****   *             or HSI_VALUE(*) multiplied/divided by the PLL factors.
 205:../../../../../../Drivers/CMSIS/Device/ST/STM32L0xx/Source/Templates/system_stm32l0xx.c ****   *         
 206:../../../../../../Drivers/CMSIS/Device/ST/STM32L0xx/Source/Templates/system_stm32l0xx.c ****   *         (*) HSI_VALUE is a constant defined in stm32l0xx_hal.h file (default value
 207:../../../../../../Drivers/CMSIS/Device/ST/STM32L0xx/Source/Templates/system_stm32l0xx.c ****   *             16 MHz) but the real value may vary depending on the variations
 208:../../../../../../Drivers/CMSIS/Device/ST/STM32L0xx/Source/Templates/system_stm32l0xx.c ****   *             in voltage and temperature.   
 209:../../../../../../Drivers/CMSIS/Device/ST/STM32L0xx/Source/Templates/system_stm32l0xx.c ****   *    
 210:../../../../../../Drivers/CMSIS/Device/ST/STM32L0xx/Source/Templates/system_stm32l0xx.c ****   *         (**) HSE_VALUE is a constant defined in stm32l0xx_hal.h file (default value
 211:../../../../../../Drivers/CMSIS/Device/ST/STM32L0xx/Source/Templates/system_stm32l0xx.c ****   *              8 MHz), user has to ensure that HSE_VALUE is same as the real
 212:../../../../../../Drivers/CMSIS/Device/ST/STM32L0xx/Source/Templates/system_stm32l0xx.c ****   *              frequency of the crystal used. Otherwise, this function may
 213:../../../../../../Drivers/CMSIS/Device/ST/STM32L0xx/Source/Templates/system_stm32l0xx.c ****   *              have wrong result.
 214:../../../../../../Drivers/CMSIS/Device/ST/STM32L0xx/Source/Templates/system_stm32l0xx.c ****   *                
 215:../../../../../../Drivers/CMSIS/Device/ST/STM32L0xx/Source/Templates/system_stm32l0xx.c ****   *         - The result of this function could be not correct when using fractional
 216:../../../../../../Drivers/CMSIS/Device/ST/STM32L0xx/Source/Templates/system_stm32l0xx.c ****   *           value for HSE crystal.
 217:../../../../../../Drivers/CMSIS/Device/ST/STM32L0xx/Source/Templates/system_stm32l0xx.c ****   * @param  None
 218:../../../../../../Drivers/CMSIS/Device/ST/STM32L0xx/Source/Templates/system_stm32l0xx.c ****   * @retval None
 219:../../../../../../Drivers/CMSIS/Device/ST/STM32L0xx/Source/Templates/system_stm32l0xx.c ****   */
 220:../../../../../../Drivers/CMSIS/Device/ST/STM32L0xx/Source/Templates/system_stm32l0xx.c **** void SystemCoreClockUpdate (void)
 221:../../../../../../Drivers/CMSIS/Device/ST/STM32L0xx/Source/Templates/system_stm32l0xx.c **** {
 104              		.loc 1 221 0
 105              		.cfi_startproc
 106              		@ args = 0, pretend = 0, frame = 0
 107              		@ frame_needed = 0, uses_anonymous_args = 0
 108              	.LVL0:
 222:../../../../../../Drivers/CMSIS/Device/ST/STM32L0xx/Source/Templates/system_stm32l0xx.c ****   uint32_t tmp = 0U, pllmul = 0U, plldiv = 0U, pllsource = 0U, msirange = 0U;
 223:../../../../../../Drivers/CMSIS/Device/ST/STM32L0xx/Source/Templates/system_stm32l0xx.c **** 
 224:../../../../../../Drivers/CMSIS/Device/ST/STM32L0xx/Source/Templates/system_stm32l0xx.c ****   /* Get SYSCLK source -------------------------------------------------------*/
ARM GAS  C:\Users\EBANO_~1\AppData\Local\Temp\cciyLEQX.s 			page 7


 225:../../../../../../Drivers/CMSIS/Device/ST/STM32L0xx/Source/Templates/system_stm32l0xx.c ****   tmp = RCC->CFGR & RCC_CFGR_SWS;
 109              		.loc 1 225 0
 110 0000 0C23     		movs	r3, #12
 111 0002 234A     		ldr	r2, .L16
 221:../../../../../../Drivers/CMSIS/Device/ST/STM32L0xx/Source/Templates/system_stm32l0xx.c ****   uint32_t tmp = 0U, pllmul = 0U, plldiv = 0U, pllsource = 0U, msirange = 0U;
 112              		.loc 1 221 0
 113 0004 70B5     		push	{r4, r5, r6, lr}
 114              	.LCFI0:
 115              		.cfi_def_cfa_offset 16
 116              		.cfi_offset 4, -16
 117              		.cfi_offset 5, -12
 118              		.cfi_offset 6, -8
 119              		.cfi_offset 14, -4
 120              		.loc 1 225 0
 121 0006 D168     		ldr	r1, [r2, #12]
 122              	.LVL1:
 123 0008 0B40     		ands	r3, r1
 124              	.LVL2:
 226:../../../../../../Drivers/CMSIS/Device/ST/STM32L0xx/Source/Templates/system_stm32l0xx.c ****   
 227:../../../../../../Drivers/CMSIS/Device/ST/STM32L0xx/Source/Templates/system_stm32l0xx.c ****   switch (tmp)
 125              		.loc 1 227 0
 126 000a 042B     		cmp	r3, #4
 127 000c 34D0     		beq	.L7
 128 000e 25D9     		bls	.L15
 129 0010 082B     		cmp	r3, #8
 130 0012 17D0     		beq	.L13
 131 0014 0C2B     		cmp	r3, #12
 132 0016 2CD1     		bne	.L6
 228:../../../../../../Drivers/CMSIS/Device/ST/STM32L0xx/Source/Templates/system_stm32l0xx.c ****   {
 229:../../../../../../Drivers/CMSIS/Device/ST/STM32L0xx/Source/Templates/system_stm32l0xx.c ****     case 0x00U:  /* MSI used as system clock */
 230:../../../../../../Drivers/CMSIS/Device/ST/STM32L0xx/Source/Templates/system_stm32l0xx.c ****       msirange = (RCC->ICSCR & RCC_ICSCR_MSIRANGE) >> 13U;
 231:../../../../../../Drivers/CMSIS/Device/ST/STM32L0xx/Source/Templates/system_stm32l0xx.c ****       SystemCoreClock = (32768U * (1U << (msirange + 1U)));
 232:../../../../../../Drivers/CMSIS/Device/ST/STM32L0xx/Source/Templates/system_stm32l0xx.c ****       break;
 233:../../../../../../Drivers/CMSIS/Device/ST/STM32L0xx/Source/Templates/system_stm32l0xx.c ****     case 0x04U:  /* HSI used as system clock */
 234:../../../../../../Drivers/CMSIS/Device/ST/STM32L0xx/Source/Templates/system_stm32l0xx.c ****       SystemCoreClock = HSI_VALUE;
 235:../../../../../../Drivers/CMSIS/Device/ST/STM32L0xx/Source/Templates/system_stm32l0xx.c ****       break;
 236:../../../../../../Drivers/CMSIS/Device/ST/STM32L0xx/Source/Templates/system_stm32l0xx.c ****     case 0x08U:  /* HSE used as system clock */
 237:../../../../../../Drivers/CMSIS/Device/ST/STM32L0xx/Source/Templates/system_stm32l0xx.c ****       SystemCoreClock = HSE_VALUE;
 238:../../../../../../Drivers/CMSIS/Device/ST/STM32L0xx/Source/Templates/system_stm32l0xx.c ****       break;
 239:../../../../../../Drivers/CMSIS/Device/ST/STM32L0xx/Source/Templates/system_stm32l0xx.c ****     case 0x0CU:  /* PLL used as system clock */
 240:../../../../../../Drivers/CMSIS/Device/ST/STM32L0xx/Source/Templates/system_stm32l0xx.c ****       /* Get PLL clock source and multiplication factor ----------------------*/
 241:../../../../../../Drivers/CMSIS/Device/ST/STM32L0xx/Source/Templates/system_stm32l0xx.c ****       pllmul = RCC->CFGR & RCC_CFGR_PLLMUL;
 133              		.loc 1 241 0
 134 0018 D368     		ldr	r3, [r2, #12]
 135              	.LVL3:
 242:../../../../../../Drivers/CMSIS/Device/ST/STM32L0xx/Source/Templates/system_stm32l0xx.c ****       plldiv = RCC->CFGR & RCC_CFGR_PLLDIV;
 243:../../../../../../Drivers/CMSIS/Device/ST/STM32L0xx/Source/Templates/system_stm32l0xx.c ****       pllmul = PLLMulTable[(pllmul >> 18U)];
 136              		.loc 1 243 0
 137 001a 1E4C     		ldr	r4, .L16+4
 138 001c 9B02     		lsls	r3, r3, #10
 139              	.LVL4:
 242:../../../../../../Drivers/CMSIS/Device/ST/STM32L0xx/Source/Templates/system_stm32l0xx.c ****       plldiv = RCC->CFGR & RCC_CFGR_PLLDIV;
 140              		.loc 1 242 0
 141 001e D168     		ldr	r1, [r2, #12]
 142              	.LVL5:
 143              		.loc 1 243 0
 144 0020 1B0F     		lsrs	r3, r3, #28
ARM GAS  C:\Users\EBANO_~1\AppData\Local\Temp\cciyLEQX.s 			page 8


 145 0022 E55C     		ldrb	r5, [r4, r3]
 146              	.LVL6:
 244:../../../../../../Drivers/CMSIS/Device/ST/STM32L0xx/Source/Templates/system_stm32l0xx.c ****       plldiv = (plldiv >> 22U) + 1U;
 147              		.loc 1 244 0
 148 0024 0902     		lsls	r1, r1, #8
 149              	.LVL7:
 245:../../../../../../Drivers/CMSIS/Device/ST/STM32L0xx/Source/Templates/system_stm32l0xx.c ****       
 246:../../../../../../Drivers/CMSIS/Device/ST/STM32L0xx/Source/Templates/system_stm32l0xx.c ****       pllsource = RCC->CFGR & RCC_CFGR_PLLSRC;
 150              		.loc 1 246 0
 151 0026 D368     		ldr	r3, [r2, #12]
 244:../../../../../../Drivers/CMSIS/Device/ST/STM32L0xx/Source/Templates/system_stm32l0xx.c ****       plldiv = (plldiv >> 22U) + 1U;
 152              		.loc 1 244 0
 153 0028 890F     		lsrs	r1, r1, #30
 247:../../../../../../Drivers/CMSIS/Device/ST/STM32L0xx/Source/Templates/system_stm32l0xx.c **** 
 248:../../../../../../Drivers/CMSIS/Device/ST/STM32L0xx/Source/Templates/system_stm32l0xx.c ****       if (pllsource == 0x00U)
 249:../../../../../../Drivers/CMSIS/Device/ST/STM32L0xx/Source/Templates/system_stm32l0xx.c ****       {
 250:../../../../../../Drivers/CMSIS/Device/ST/STM32L0xx/Source/Templates/system_stm32l0xx.c ****         /* HSI oscillator clock selected as PLL clock entry */
 251:../../../../../../Drivers/CMSIS/Device/ST/STM32L0xx/Source/Templates/system_stm32l0xx.c ****         SystemCoreClock = (((HSI_VALUE) * pllmul) / plldiv);
 154              		.loc 1 251 0
 155 002a 6801     		lsls	r0, r5, #5
 244:../../../../../../Drivers/CMSIS/Device/ST/STM32L0xx/Source/Templates/system_stm32l0xx.c ****       
 156              		.loc 1 244 0
 157 002c 0131     		adds	r1, r1, #1
 158              	.LVL8:
 159              		.loc 1 251 0
 160 002e 401B     		subs	r0, r0, r5
 248:../../../../../../Drivers/CMSIS/Device/ST/STM32L0xx/Source/Templates/system_stm32l0xx.c ****       {
 161              		.loc 1 248 0
 162 0030 DB03     		lsls	r3, r3, #15
 163 0032 24D4     		bmi	.L12
 164              	.LVL9:
 165              		.loc 1 251 0
 166 0034 8301     		lsls	r3, r0, #6
 167 0036 181A     		subs	r0, r3, r0
 168 0038 C000     		lsls	r0, r0, #3
 169 003a 4019     		adds	r0, r0, r5
 170 003c 8002     		lsls	r0, r0, #10
 171 003e FFF7FEFF 		bl	__aeabi_uidiv
 172              	.LVL10:
 173 0042 01E0     		b	.L10
 174              	.LVL11:
 175              	.L13:
 227:../../../../../../Drivers/CMSIS/Device/ST/STM32L0xx/Source/Templates/system_stm32l0xx.c ****   {
 176              		.loc 1 227 0
 177 0044 1448     		ldr	r0, .L16+8
 178 0046 134C     		ldr	r4, .L16+4
 179              	.LVL12:
 180              	.L10:
 252:../../../../../../Drivers/CMSIS/Device/ST/STM32L0xx/Source/Templates/system_stm32l0xx.c ****       }
 253:../../../../../../Drivers/CMSIS/Device/ST/STM32L0xx/Source/Templates/system_stm32l0xx.c ****       else
 254:../../../../../../Drivers/CMSIS/Device/ST/STM32L0xx/Source/Templates/system_stm32l0xx.c ****       {
 255:../../../../../../Drivers/CMSIS/Device/ST/STM32L0xx/Source/Templates/system_stm32l0xx.c ****         /* HSE selected as PLL clock entry */
 256:../../../../../../Drivers/CMSIS/Device/ST/STM32L0xx/Source/Templates/system_stm32l0xx.c ****         SystemCoreClock = (((HSE_VALUE) * pllmul) / plldiv);
 257:../../../../../../Drivers/CMSIS/Device/ST/STM32L0xx/Source/Templates/system_stm32l0xx.c ****       }
 258:../../../../../../Drivers/CMSIS/Device/ST/STM32L0xx/Source/Templates/system_stm32l0xx.c ****       break;
 259:../../../../../../Drivers/CMSIS/Device/ST/STM32L0xx/Source/Templates/system_stm32l0xx.c ****     default: /* MSI used as system clock */
 260:../../../../../../Drivers/CMSIS/Device/ST/STM32L0xx/Source/Templates/system_stm32l0xx.c ****       msirange = (RCC->ICSCR & RCC_ICSCR_MSIRANGE) >> 13U;
ARM GAS  C:\Users\EBANO_~1\AppData\Local\Temp\cciyLEQX.s 			page 9


 261:../../../../../../Drivers/CMSIS/Device/ST/STM32L0xx/Source/Templates/system_stm32l0xx.c ****       SystemCoreClock = (32768U * (1U << (msirange + 1U)));
 262:../../../../../../Drivers/CMSIS/Device/ST/STM32L0xx/Source/Templates/system_stm32l0xx.c ****       break;
 263:../../../../../../Drivers/CMSIS/Device/ST/STM32L0xx/Source/Templates/system_stm32l0xx.c ****   }
 264:../../../../../../Drivers/CMSIS/Device/ST/STM32L0xx/Source/Templates/system_stm32l0xx.c ****   /* Compute HCLK clock frequency --------------------------------------------*/
 265:../../../../../../Drivers/CMSIS/Device/ST/STM32L0xx/Source/Templates/system_stm32l0xx.c ****   /* Get HCLK prescaler */
 266:../../../../../../Drivers/CMSIS/Device/ST/STM32L0xx/Source/Templates/system_stm32l0xx.c ****   tmp = AHBPrescTable[((RCC->CFGR & RCC_CFGR_HPRE) >> 4U)];
 181              		.loc 1 266 0
 182 0048 114B     		ldr	r3, .L16
 267:../../../../../../Drivers/CMSIS/Device/ST/STM32L0xx/Source/Templates/system_stm32l0xx.c ****   /* HCLK clock frequency */
 268:../../../../../../Drivers/CMSIS/Device/ST/STM32L0xx/Source/Templates/system_stm32l0xx.c ****   SystemCoreClock >>= tmp;
 269:../../../../../../Drivers/CMSIS/Device/ST/STM32L0xx/Source/Templates/system_stm32l0xx.c **** }
 183              		.loc 1 269 0
 184              		@ sp needed
 266:../../../../../../Drivers/CMSIS/Device/ST/STM32L0xx/Source/Templates/system_stm32l0xx.c ****   /* HCLK clock frequency */
 185              		.loc 1 266 0
 186 004a DB68     		ldr	r3, [r3, #12]
 187              	.LVL13:
 188 004c 1B06     		lsls	r3, r3, #24
 189              	.LVL14:
 190 004e 1B0F     		lsrs	r3, r3, #28
 191 0050 E318     		adds	r3, r4, r3
 192 0052 1B7B     		ldrb	r3, [r3, #12]
 268:../../../../../../Drivers/CMSIS/Device/ST/STM32L0xx/Source/Templates/system_stm32l0xx.c **** }
 193              		.loc 1 268 0
 194 0054 D840     		lsrs	r0, r0, r3
 195 0056 114B     		ldr	r3, .L16+12
 196 0058 1860     		str	r0, [r3]
 197              		.loc 1 269 0
 198 005a 70BD     		pop	{r4, r5, r6, pc}
 199              	.LVL15:
 200              	.L15:
 227:../../../../../../Drivers/CMSIS/Device/ST/STM32L0xx/Source/Templates/system_stm32l0xx.c ****   {
 201              		.loc 1 227 0
 202 005c 002B     		cmp	r3, #0
 203 005e 08D1     		bne	.L6
 230:../../../../../../Drivers/CMSIS/Device/ST/STM32L0xx/Source/Templates/system_stm32l0xx.c ****       SystemCoreClock = (32768U * (1U << (msirange + 1U)));
 204              		.loc 1 230 0
 205 0060 5368     		ldr	r3, [r2, #4]
 206              	.LVL16:
 207              	.L14:
 261:../../../../../../Drivers/CMSIS/Device/ST/STM32L0xx/Source/Templates/system_stm32l0xx.c ****       break;
 208              		.loc 1 261 0
 209 0062 8020     		movs	r0, #128
 260:../../../../../../Drivers/CMSIS/Device/ST/STM32L0xx/Source/Templates/system_stm32l0xx.c ****       SystemCoreClock = (32768U * (1U << (msirange + 1U)));
 210              		.loc 1 260 0
 211 0064 1B04     		lsls	r3, r3, #16
 212              	.LVL17:
 213 0066 5B0F     		lsrs	r3, r3, #29
 261:../../../../../../Drivers/CMSIS/Device/ST/STM32L0xx/Source/Templates/system_stm32l0xx.c ****       break;
 214              		.loc 1 261 0
 215 0068 0133     		adds	r3, r3, #1
 216 006a 0002     		lsls	r0, r0, #8
 217 006c 9840     		lsls	r0, r0, r3
 218 006e 094C     		ldr	r4, .L16+4
 262:../../../../../../Drivers/CMSIS/Device/ST/STM32L0xx/Source/Templates/system_stm32l0xx.c ****   }
 219              		.loc 1 262 0
 220 0070 EAE7     		b	.L10
ARM GAS  C:\Users\EBANO_~1\AppData\Local\Temp\cciyLEQX.s 			page 10


 221              	.LVL18:
 222              	.L6:
 260:../../../../../../Drivers/CMSIS/Device/ST/STM32L0xx/Source/Templates/system_stm32l0xx.c ****       SystemCoreClock = (32768U * (1U << (msirange + 1U)));
 223              		.loc 1 260 0
 224 0072 074B     		ldr	r3, .L16
 225              	.LVL19:
 226 0074 5B68     		ldr	r3, [r3, #4]
 227 0076 F4E7     		b	.L14
 228              	.LVL20:
 229              	.L7:
 227:../../../../../../Drivers/CMSIS/Device/ST/STM32L0xx/Source/Templates/system_stm32l0xx.c ****   {
 230              		.loc 1 227 0
 231 0078 0948     		ldr	r0, .L16+16
 232 007a 064C     		ldr	r4, .L16+4
 233 007c E4E7     		b	.L10
 234              	.LVL21:
 235              	.L12:
 256:../../../../../../Drivers/CMSIS/Device/ST/STM32L0xx/Source/Templates/system_stm32l0xx.c ****       }
 236              		.loc 1 256 0
 237 007e 8301     		lsls	r3, r0, #6
 238 0080 181A     		subs	r0, r3, r0
 239 0082 C000     		lsls	r0, r0, #3
 240 0084 4019     		adds	r0, r0, r5
 241 0086 4002     		lsls	r0, r0, #9
 242 0088 FFF7FEFF 		bl	__aeabi_uidiv
 243              	.LVL22:
 244 008c DCE7     		b	.L10
 245              	.L17:
 246 008e C046     		.align	2
 247              	.L16:
 248 0090 00100240 		.word	1073876992
 249 0094 00000000 		.word	.LANCHOR0
 250 0098 00127A00 		.word	8000000
 251 009c 00000000 		.word	.LANCHOR1
 252 00a0 0024F400 		.word	16000000
 253              		.cfi_endproc
 254              	.LFE40:
 255              		.size	SystemCoreClockUpdate, .-SystemCoreClockUpdate
 256              		.global	PLLMulTable
 257              		.global	APBPrescTable
 258              		.global	AHBPrescTable
 259              		.global	SystemCoreClock
 260              		.section	.rodata
 261              		.align	2
 262              		.set	.LANCHOR0,. + 0
 263              		.type	PLLMulTable, %object
 264              		.size	PLLMulTable, 9
 265              	PLLMulTable:
 266 0000 03       		.byte	3
 267 0001 04       		.byte	4
 268 0002 06       		.byte	6
 269 0003 08       		.byte	8
 270 0004 0C       		.byte	12
 271 0005 10       		.byte	16
 272 0006 18       		.byte	24
 273 0007 20       		.byte	32
 274 0008 30       		.byte	48
ARM GAS  C:\Users\EBANO_~1\AppData\Local\Temp\cciyLEQX.s 			page 11


 275 0009 000000   		.space	3
 276              		.type	AHBPrescTable, %object
 277              		.size	AHBPrescTable, 16
 278              	AHBPrescTable:
 279 000c 00       		.byte	0
 280 000d 00       		.byte	0
 281 000e 00       		.byte	0
 282 000f 00       		.byte	0
 283 0010 00       		.byte	0
 284 0011 00       		.byte	0
 285 0012 00       		.byte	0
 286 0013 00       		.byte	0
 287 0014 01       		.byte	1
 288 0015 02       		.byte	2
 289 0016 03       		.byte	3
 290 0017 04       		.byte	4
 291 0018 06       		.byte	6
 292 0019 07       		.byte	7
 293 001a 08       		.byte	8
 294 001b 09       		.byte	9
 295              		.type	APBPrescTable, %object
 296              		.size	APBPrescTable, 8
 297              	APBPrescTable:
 298 001c 00       		.byte	0
 299 001d 00       		.byte	0
 300 001e 00       		.byte	0
 301 001f 00       		.byte	0
 302 0020 01       		.byte	1
 303 0021 02       		.byte	2
 304 0022 03       		.byte	3
 305 0023 04       		.byte	4
 306              		.data
 307              		.align	2
 308              		.set	.LANCHOR1,. + 0
 309              		.type	SystemCoreClock, %object
 310              		.size	SystemCoreClock, 4
 311              	SystemCoreClock:
 312 0000 80841E00 		.word	2000000
 313              		.text
 314              	.Letext0:
 315              		.file 2 "c:\\program files (x86)\\gnu tools arm embedded\\7 2018-q2-update\\arm-none-eabi\\include
 316              		.file 3 "c:\\program files (x86)\\gnu tools arm embedded\\7 2018-q2-update\\arm-none-eabi\\include
 317              		.file 4 "../../../../../../Drivers/CMSIS/Include/core_cm0plus.h"
 318              		.file 5 "../../../../../../Drivers/CMSIS/Device/ST/STM32L0xx/Include/system_stm32l0xx.h"
 319              		.file 6 "../../../../../../Drivers/CMSIS/Device/ST/STM32L0xx/Include/stm32l072xx.h"
 320              		.file 7 "c:\\program files (x86)\\gnu tools arm embedded\\7 2018-q2-update\\arm-none-eabi\\include
 321              		.file 8 "c:\\program files (x86)\\gnu tools arm embedded\\7 2018-q2-update\\arm-none-eabi\\include
 322              		.file 9 "c:\\program files (x86)\\gnu tools arm embedded\\7 2018-q2-update\\lib\\gcc\\arm-none-eab
 323              		.file 10 "c:\\program files (x86)\\gnu tools arm embedded\\7 2018-q2-update\\arm-none-eabi\\includ